
ISR_IO.elf:     file format elf32-avr

Sections:
Idx Name          Size      VMA       LMA       File off  Algn
  0 .data         00000028  00803800  000035d6  0000368a  2**0
                  CONTENTS, ALLOC, LOAD, DATA
  1 .text         000034fc  00000000  00000000  000000b4  2**1
                  CONTENTS, ALLOC, LOAD, READONLY, CODE
  2 .rodata       000000da  0000b4fc  000034fc  000035b0  2**0
                  CONTENTS, ALLOC, LOAD, READONLY, DATA
  3 .bss          000002e3  00803828  00803828  000036b2  2**0
                  ALLOC
  4 .comment      00000030  00000000  00000000  000036b2  2**0
                  CONTENTS, READONLY
  5 .note.gnu.avr.deviceinfo 00000040  00000000  00000000  000036e4  2**2
                  CONTENTS, READONLY
  6 .debug_aranges 000002e0  00000000  00000000  00003724  2**0
                  CONTENTS, READONLY, DEBUGGING
  7 .debug_info   00006338  00000000  00000000  00003a04  2**0
                  CONTENTS, READONLY, DEBUGGING
  8 .debug_abbrev 00002648  00000000  00000000  00009d3c  2**0
                  CONTENTS, READONLY, DEBUGGING
  9 .debug_line   000033e3  00000000  00000000  0000c384  2**0
                  CONTENTS, READONLY, DEBUGGING
 10 .debug_frame  000008ac  00000000  00000000  0000f768  2**2
                  CONTENTS, READONLY, DEBUGGING
 11 .debug_str    000018dd  00000000  00000000  00010014  2**0
                  CONTENTS, READONLY, DEBUGGING
 12 .debug_loc    00004098  00000000  00000000  000118f1  2**0
                  CONTENTS, READONLY, DEBUGGING
 13 .debug_ranges 00000350  00000000  00000000  00015989  2**0
                  CONTENTS, READONLY, DEBUGGING

Disassembly of section .text:

00000000 <__vectors>:
       0:	3d c0       	rjmp	.+122    	; 0x7c <__ctors_end>
       2:	00 00       	nop
       4:	58 c0       	rjmp	.+176    	; 0xb6 <__bad_interrupt>
       6:	00 00       	nop
       8:	56 c0       	rjmp	.+172    	; 0xb6 <__bad_interrupt>
       a:	00 00       	nop
       c:	54 c0       	rjmp	.+168    	; 0xb6 <__bad_interrupt>
       e:	00 00       	nop
      10:	52 c0       	rjmp	.+164    	; 0xb6 <__bad_interrupt>
      12:	00 00       	nop
      14:	50 c0       	rjmp	.+160    	; 0xb6 <__bad_interrupt>
      16:	00 00       	nop
      18:	9d c6       	rjmp	.+3386   	; 0xd54 <__vector_6>
      1a:	00 00       	nop
      1c:	e5 c6       	rjmp	.+3530   	; 0xde8 <__vector_7>
      1e:	00 00       	nop
      20:	d0 c4       	rjmp	.+2464   	; 0x9c2 <__vector_8>
      22:	00 00       	nop
      24:	48 c0       	rjmp	.+144    	; 0xb6 <__bad_interrupt>
      26:	00 00       	nop
      28:	46 c0       	rjmp	.+140    	; 0xb6 <__bad_interrupt>
      2a:	00 00       	nop
      2c:	44 c0       	rjmp	.+136    	; 0xb6 <__bad_interrupt>
      2e:	00 00       	nop
      30:	42 c0       	rjmp	.+132    	; 0xb6 <__bad_interrupt>
      32:	00 00       	nop
      34:	17 c5       	rjmp	.+2606   	; 0xa64 <__vector_13>
      36:	00 00       	nop
      38:	48 c5       	rjmp	.+2704   	; 0xaca <__vector_14>
      3a:	00 00       	nop
      3c:	3c c0       	rjmp	.+120    	; 0xb6 <__bad_interrupt>
      3e:	00 00       	nop
      40:	3a c0       	rjmp	.+116    	; 0xb6 <__bad_interrupt>
      42:	00 00       	nop
      44:	38 c0       	rjmp	.+112    	; 0xb6 <__bad_interrupt>
      46:	00 00       	nop
      48:	36 c0       	rjmp	.+108    	; 0xb6 <__bad_interrupt>
      4a:	00 00       	nop
      4c:	34 c0       	rjmp	.+104    	; 0xb6 <__bad_interrupt>
      4e:	00 00       	nop
      50:	06 c6       	rjmp	.+3084   	; 0xc5e <__vector_20>
      52:	00 00       	nop
      54:	30 c0       	rjmp	.+96     	; 0xb6 <__bad_interrupt>
      56:	00 00       	nop
      58:	35 c6       	rjmp	.+3178   	; 0xcc4 <__vector_22>
      5a:	00 00       	nop
      5c:	2c c0       	rjmp	.+88     	; 0xb6 <__bad_interrupt>
      5e:	00 00       	nop
      60:	2a c0       	rjmp	.+84     	; 0xb6 <__bad_interrupt>
      62:	00 00       	nop
      64:	28 c0       	rjmp	.+80     	; 0xb6 <__bad_interrupt>
      66:	00 00       	nop
      68:	26 c0       	rjmp	.+76     	; 0xb6 <__bad_interrupt>
      6a:	00 00       	nop
      6c:	81 c5       	rjmp	.+2818   	; 0xb70 <__vector_27>
      6e:	00 00       	nop
      70:	da c5       	rjmp	.+2996   	; 0xc26 <__vector_28>
      72:	00 00       	nop
      74:	20 c0       	rjmp	.+64     	; 0xb6 <__bad_interrupt>
      76:	00 00       	nop
      78:	1e c0       	rjmp	.+60     	; 0xb6 <__bad_interrupt>
	...

0000007c <__ctors_end>:
      7c:	11 24       	eor	r1, r1
      7e:	1f be       	out	0x3f, r1	; 63
      80:	cf ef       	ldi	r28, 0xFF	; 255
      82:	cd bf       	out	0x3d, r28	; 61
      84:	df e3       	ldi	r29, 0x3F	; 63
      86:	de bf       	out	0x3e, r29	; 62

00000088 <__do_copy_data>:
      88:	18 e3       	ldi	r17, 0x38	; 56
      8a:	a0 e0       	ldi	r26, 0x00	; 0
      8c:	b8 e3       	ldi	r27, 0x38	; 56
      8e:	e6 ed       	ldi	r30, 0xD6	; 214
      90:	f5 e3       	ldi	r31, 0x35	; 53
      92:	02 c0       	rjmp	.+4      	; 0x98 <__do_copy_data+0x10>
      94:	05 90       	lpm	r0, Z+
      96:	0d 92       	st	X+, r0
      98:	a8 32       	cpi	r26, 0x28	; 40
      9a:	b1 07       	cpc	r27, r17
      9c:	d9 f7       	brne	.-10     	; 0x94 <__do_copy_data+0xc>

0000009e <__do_clear_bss>:
      9e:	2b e3       	ldi	r18, 0x3B	; 59
      a0:	a8 e2       	ldi	r26, 0x28	; 40
      a2:	b8 e3       	ldi	r27, 0x38	; 56
      a4:	01 c0       	rjmp	.+2      	; 0xa8 <.do_clear_bss_start>

000000a6 <.do_clear_bss_loop>:
      a6:	1d 92       	st	X+, r1

000000a8 <.do_clear_bss_start>:
      a8:	ab 30       	cpi	r26, 0x0B	; 11
      aa:	b2 07       	cpc	r27, r18
      ac:	e1 f7       	brne	.-8      	; 0xa6 <.do_clear_bss_loop>
      ae:	0e 94 92 19 	call	0x3324	; 0x3324 <main>
      b2:	0c 94 7c 1a 	jmp	0x34f8	; 0x34f8 <_exit>

000000b6 <__bad_interrupt>:
      b6:	a4 cf       	rjmp	.-184    	; 0x0 <__vectors>

000000b8 <MakeFriends>:

// Main game loop
uint8_t MakeFriends(){
  
    return 0;
}
      b8:	80 e0       	ldi	r24, 0x00	; 0
      ba:	08 95       	ret

000000bc <I2C_init>:
// the Atmel device documentation mentions a special command for repeated start TWI_MCMD_REPSTART_gc,
// but this is not used in Atmel's demo code, so we don't use it either

void I2C_rep_start(uint8_t shifted_addr)						    // send repeated start, device_addr + LSB set if READ
{
	TWI0.MADDR = shifted_addr;	
      bc:	81 e0       	ldi	r24, 0x01	; 1
      be:	80 93 22 04 	sts	0x0422, r24	; 0x800422 <__TEXT_REGION_LENGTH__+0x700422>
      c2:	e6 e2       	ldi	r30, 0x26	; 38
      c4:	f4 e0       	ldi	r31, 0x04	; 4
      c6:	80 83       	st	Z, r24
      c8:	10 92 30 04 	sts	0x0430, r1	; 0x800430 <__TEXT_REGION_LENGTH__+0x700430>
      cc:	a1 e2       	ldi	r26, 0x21	; 33
      ce:	b4 e0       	ldi	r27, 0x04	; 4
      d0:	92 e0       	ldi	r25, 0x02	; 2
      d2:	9c 93       	st	X, r25
      d4:	90 83       	st	Z, r25
      d6:	10 92 31 04 	sts	0x0431, r1	; 0x800431 <__TEXT_REGION_LENGTH__+0x700431>
      da:	e0 e1       	ldi	r30, 0x10	; 16
      dc:	f8 e0       	ldi	r31, 0x08	; 8
      de:	97 e0       	ldi	r25, 0x07	; 7
      e0:	96 83       	std	Z+6, r25	; 0x06
      e2:	98 e0       	ldi	r25, 0x08	; 8
      e4:	94 83       	std	Z+4, r25	; 0x04
      e6:	83 83       	std	Z+3, r24	; 0x03
      e8:	8c 93       	st	X, r24
      ea:	85 81       	ldd	r24, Z+5	; 0x05
      ec:	81 60       	ori	r24, 0x01	; 1
      ee:	85 83       	std	Z+5, r24	; 0x05
      f0:	85 81       	ldd	r24, Z+5	; 0x05
      f2:	84 6c       	ori	r24, 0xC4	; 196
      f4:	85 83       	std	Z+5, r24	; 0x05
      f6:	08 95       	ret

000000f8 <I2C_recover>:
      f8:	80 91 14 08 	lds	r24, 0x0814	; 0x800814 <__TEXT_REGION_LENGTH__+0x700814>
      fc:	88 60       	ori	r24, 0x08	; 8
      fe:	80 93 14 08 	sts	0x0814, r24	; 0x800814 <__TEXT_REGION_LENGTH__+0x700814>
     102:	10 92 13 08 	sts	0x0813, r1	; 0x800813 <__TEXT_REGION_LENGTH__+0x700813>
     106:	82 e0       	ldi	r24, 0x02	; 2
     108:	80 93 22 04 	sts	0x0422, r24	; 0x800422 <__TEXT_REGION_LENGTH__+0x700422>
     10c:	99 e0       	ldi	r25, 0x09	; 9
     10e:	21 e0       	ldi	r18, 0x01	; 1
     110:	81 e0       	ldi	r24, 0x01	; 1
     112:	20 93 21 04 	sts	0x0421, r18	; 0x800421 <__TEXT_REGION_LENGTH__+0x700421>
     116:	30 e1       	ldi	r19, 0x10	; 16
     118:	3a 95       	dec	r19
     11a:	f1 f7       	brne	.-4      	; 0x118 <I2C_recover+0x20>
     11c:	00 c0       	rjmp	.+0      	; 0x11e <I2C_recover+0x26>
     11e:	20 93 22 04 	sts	0x0422, r18	; 0x800422 <__TEXT_REGION_LENGTH__+0x700422>
     122:	30 e1       	ldi	r19, 0x10	; 16
     124:	3a 95       	dec	r19
     126:	f1 f7       	brne	.-4      	; 0x124 <I2C_recover+0x2c>
     128:	00 c0       	rjmp	.+0      	; 0x12a <I2C_recover+0x32>
     12a:	91 50       	subi	r25, 0x01	; 1
     12c:	89 f7       	brne	.-30     	; 0x110 <I2C_recover+0x18>
     12e:	28 e0       	ldi	r18, 0x08	; 8
     130:	20 93 14 08 	sts	0x0814, r18	; 0x800814 <__TEXT_REGION_LENGTH__+0x700814>
     134:	80 93 13 08 	sts	0x0813, r24	; 0x800813 <__TEXT_REGION_LENGTH__+0x700813>
     138:	92 e0       	ldi	r25, 0x02	; 2
     13a:	90 93 21 04 	sts	0x0421, r25	; 0x800421 <__TEXT_REGION_LENGTH__+0x700421>
     13e:	90 91 15 08 	lds	r25, 0x0815	; 0x800815 <__TEXT_REGION_LENGTH__+0x700815>
     142:	91 60       	ori	r25, 0x01	; 1
     144:	90 93 15 08 	sts	0x0815, r25	; 0x800815 <__TEXT_REGION_LENGTH__+0x700815>
     148:	90 91 15 08 	lds	r25, 0x0815	; 0x800815 <__TEXT_REGION_LENGTH__+0x700815>
     14c:	94 6c       	ori	r25, 0xC4	; 196
     14e:	90 93 15 08 	sts	0x0815, r25	; 0x800815 <__TEXT_REGION_LENGTH__+0x700815>
     152:	20 93 14 08 	sts	0x0814, r18	; 0x800814 <__TEXT_REGION_LENGTH__+0x700814>
     156:	80 93 13 08 	sts	0x0813, r24	; 0x800813 <__TEXT_REGION_LENGTH__+0x700813>
     15a:	80 93 21 04 	sts	0x0421, r24	; 0x800421 <__TEXT_REGION_LENGTH__+0x700421>
     15e:	80 91 15 08 	lds	r24, 0x0815	; 0x800815 <__TEXT_REGION_LENGTH__+0x700815>
     162:	81 60       	ori	r24, 0x01	; 1
     164:	80 93 15 08 	sts	0x0815, r24	; 0x800815 <__TEXT_REGION_LENGTH__+0x700815>
     168:	80 91 15 08 	lds	r24, 0x0815	; 0x800815 <__TEXT_REGION_LENGTH__+0x700815>
     16c:	84 6c       	ori	r24, 0xC4	; 196
     16e:	80 93 15 08 	sts	0x0815, r24	; 0x800815 <__TEXT_REGION_LENGTH__+0x700815>
     172:	08 95       	ret

00000174 <I2C_start>:
     174:	28 2f       	mov	r18, r24
     176:	90 91 15 08 	lds	r25, 0x0815	; 0x800815 <__TEXT_REGION_LENGTH__+0x700815>
     17a:	90 6c       	ori	r25, 0xC0	; 192
     17c:	90 93 15 08 	sts	0x0815, r25	; 0x800815 <__TEXT_REGION_LENGTH__+0x700815>
     180:	90 91 15 08 	lds	r25, 0x0815	; 0x800815 <__TEXT_REGION_LENGTH__+0x700815>
     184:	89 2f       	mov	r24, r25
     186:	84 70       	andi	r24, 0x04	; 4
     188:	92 fd       	sbrc	r25, 2
     18a:	03 c0       	rjmp	.+6      	; 0x192 <I2C_start+0x1e>
     18c:	20 93 17 08 	sts	0x0817, r18	; 0x800817 <__TEXT_REGION_LENGTH__+0x700817>
     190:	08 95       	ret
     192:	84 e0       	ldi	r24, 0x04	; 4
     194:	08 95       	ret

00000196 <I2C_wait_ACK>:
     196:	8c e0       	ldi	r24, 0x0C	; 12
     198:	80 93 39 3a 	sts	0x3A39, r24	; 0x803a39 <timeout_I2C>
     19c:	80 91 15 08 	lds	r24, 0x0815	; 0x800815 <__TEXT_REGION_LENGTH__+0x700815>
     1a0:	87 fd       	sbrc	r24, 7
     1a2:	0a c0       	rjmp	.+20     	; 0x1b8 <I2C_wait_ACK+0x22>
     1a4:	80 91 15 08 	lds	r24, 0x0815	; 0x800815 <__TEXT_REGION_LENGTH__+0x700815>
     1a8:	86 fd       	sbrc	r24, 6
     1aa:	06 c0       	rjmp	.+12     	; 0x1b8 <I2C_wait_ACK+0x22>
     1ac:	80 91 39 3a 	lds	r24, 0x3A39	; 0x803a39 <timeout_I2C>
     1b0:	81 11       	cpse	r24, r1
     1b2:	f4 cf       	rjmp	.-24     	; 0x19c <I2C_wait_ACK+0x6>
     1b4:	8f ef       	ldi	r24, 0xFF	; 255
     1b6:	08 95       	ret
     1b8:	80 91 15 08 	lds	r24, 0x0815	; 0x800815 <__TEXT_REGION_LENGTH__+0x700815>
     1bc:	80 6c       	ori	r24, 0xC0	; 192
     1be:	80 93 15 08 	sts	0x0815, r24	; 0x800815 <__TEXT_REGION_LENGTH__+0x700815>
     1c2:	80 91 15 08 	lds	r24, 0x0815	; 0x800815 <__TEXT_REGION_LENGTH__+0x700815>
     1c6:	82 fd       	sbrc	r24, 2
     1c8:	09 c0       	rjmp	.+18     	; 0x1dc <I2C_wait_ACK+0x46>
     1ca:	80 91 15 08 	lds	r24, 0x0815	; 0x800815 <__TEXT_REGION_LENGTH__+0x700815>
     1ce:	83 fd       	sbrc	r24, 3
     1d0:	07 c0       	rjmp	.+14     	; 0x1e0 <I2C_wait_ACK+0x4a>
     1d2:	80 91 15 08 	lds	r24, 0x0815	; 0x800815 <__TEXT_REGION_LENGTH__+0x700815>
     1d6:	82 95       	swap	r24
     1d8:	81 70       	andi	r24, 0x01	; 1
     1da:	08 95       	ret
     1dc:	84 e0       	ldi	r24, 0x04	; 4
     1de:	08 95       	ret
     1e0:	82 e0       	ldi	r24, 0x02	; 2
     1e2:	08 95       	ret

000001e4 <I2C_read>:
}

uint8_t	I2C_read(uint8_t *data, uint8_t ack_flag)					// read data, ack_flag 0: send ACK, 1: send NACK, returns status
{
     1e4:	fc 01       	movw	r30, r24
	timeout_I2C = READ_TIMEOUT;										// reset timeout counter, will be decremented by LED matrix interrupt
     1e6:	8c e0       	ldi	r24, 0x0C	; 12
     1e8:	80 93 39 3a 	sts	0x3A39, r24	; 0x803a39 <timeout_I2C>
	if ((TWI0.MSTATUS & TWI_BUSSTATE_gm) == TWI_BUSSTATE_OWNER_gc)	// if master controls bus
     1ec:	90 91 15 08 	lds	r25, 0x0815	; 0x800815 <__TEXT_REGION_LENGTH__+0x700815>
     1f0:	89 2f       	mov	r24, r25
     1f2:	83 70       	andi	r24, 0x03	; 3
     1f4:	82 30       	cpi	r24, 0x02	; 2
     1f6:	11 f0       	breq	.+4      	; 0x1fc <I2C_read+0x18>
		else		TWI0.MCTRLB |= TWI_ACKACT_NACK_gc;				// setup NACK (last byte read)
		*data = TWI0.MDATA;
		if (ack_flag == 0) TWI0.MCTRLB |= TWI_MCMD_RECVTRANS_gc;	// send ACK, more bytes to follow					
		return 0;
	}
	else return 8;													// master does not control bus
     1f8:	88 e0       	ldi	r24, 0x08	; 8
     1fa:	08 95       	ret
uint8_t	I2C_read(uint8_t *data, uint8_t ack_flag)					// read data, ack_flag 0: send ACK, 1: send NACK, returns status
{
	timeout_I2C = READ_TIMEOUT;										// reset timeout counter, will be decremented by LED matrix interrupt
	if ((TWI0.MSTATUS & TWI_BUSSTATE_gm) == TWI_BUSSTATE_OWNER_gc)	// if master controls bus
	{		
		while (!(TWI0.MSTATUS & TWI_RIF_bm))						// wait for RIF set (data byte received)
     1fc:	90 91 15 08 	lds	r25, 0x0815	; 0x800815 <__TEXT_REGION_LENGTH__+0x700815>
     200:	97 fd       	sbrc	r25, 7
     202:	06 c0       	rjmp	.+12     	; 0x210 <I2C_read+0x2c>
		{
			if (!(timeout_I2C)) return 0xff;			            // return timeout error
     204:	90 91 39 3a 	lds	r25, 0x3A39	; 0x803a39 <timeout_I2C>
     208:	91 11       	cpse	r25, r1
     20a:	f8 cf       	rjmp	.-16     	; 0x1fc <I2C_read+0x18>
     20c:	8f ef       	ldi	r24, 0xFF	; 255
     20e:	08 95       	ret
		}
		TWI0.MSTATUS |= (TWI_RIF_bm | TWI_WIF_bm);					// clear Read and Write interrupt flags	
     210:	90 91 15 08 	lds	r25, 0x0815	; 0x800815 <__TEXT_REGION_LENGTH__+0x700815>
     214:	90 6c       	ori	r25, 0xC0	; 192
     216:	90 93 15 08 	sts	0x0815, r25	; 0x800815 <__TEXT_REGION_LENGTH__+0x700815>
		if (TWI0.MSTATUS & TWI_BUSERR_bm) return 4;					// Bus Error, abort
     21a:	90 91 15 08 	lds	r25, 0x0815	; 0x800815 <__TEXT_REGION_LENGTH__+0x700815>
     21e:	92 fd       	sbrc	r25, 2
     220:	1e c0       	rjmp	.+60     	; 0x25e <I2C_read+0x7a>
		if (TWI0.MSTATUS & TWI_ARBLOST_bm) return 2;				// Arbitration Lost, abort
     222:	90 91 15 08 	lds	r25, 0x0815	; 0x800815 <__TEXT_REGION_LENGTH__+0x700815>
     226:	93 fd       	sbrc	r25, 3
     228:	1d c0       	rjmp	.+58     	; 0x264 <I2C_read+0x80>
		if (TWI0.MSTATUS & TWI_RXACK_bm) return 1;					// Slave replied with NACK, abort				
     22a:	90 91 15 08 	lds	r25, 0x0815	; 0x800815 <__TEXT_REGION_LENGTH__+0x700815>
     22e:	89 2f       	mov	r24, r25
     230:	80 71       	andi	r24, 0x10	; 16
     232:	94 fd       	sbrc	r25, 4
     234:	16 c0       	rjmp	.+44     	; 0x262 <I2C_read+0x7e>
		if (ack_flag == 0) TWI0.MCTRLB &= ~(1 << TWI_ACKACT_bp);	// setup ACK
     236:	90 91 14 08 	lds	r25, 0x0814	; 0x800814 <__TEXT_REGION_LENGTH__+0x700814>
     23a:	61 11       	cpse	r22, r1
     23c:	02 c0       	rjmp	.+4      	; 0x242 <I2C_read+0x5e>
     23e:	9b 7f       	andi	r25, 0xFB	; 251
     240:	01 c0       	rjmp	.+2      	; 0x244 <I2C_read+0x60>
		else		TWI0.MCTRLB |= TWI_ACKACT_NACK_gc;				// setup NACK (last byte read)
     242:	94 60       	ori	r25, 0x04	; 4
     244:	90 93 14 08 	sts	0x0814, r25	; 0x800814 <__TEXT_REGION_LENGTH__+0x700814>
		*data = TWI0.MDATA;
     248:	90 91 18 08 	lds	r25, 0x0818	; 0x800818 <__TEXT_REGION_LENGTH__+0x700818>
     24c:	90 83       	st	Z, r25
		if (ack_flag == 0) TWI0.MCTRLB |= TWI_MCMD_RECVTRANS_gc;	// send ACK, more bytes to follow					
     24e:	61 11       	cpse	r22, r1
     250:	09 c0       	rjmp	.+18     	; 0x264 <I2C_read+0x80>
     252:	90 91 14 08 	lds	r25, 0x0814	; 0x800814 <__TEXT_REGION_LENGTH__+0x700814>
     256:	92 60       	ori	r25, 0x02	; 2
     258:	90 93 14 08 	sts	0x0814, r25	; 0x800814 <__TEXT_REGION_LENGTH__+0x700814>
     25c:	08 95       	ret
		while (!(TWI0.MSTATUS & TWI_RIF_bm))						// wait for RIF set (data byte received)
		{
			if (!(timeout_I2C)) return 0xff;			            // return timeout error
		}
		TWI0.MSTATUS |= (TWI_RIF_bm | TWI_WIF_bm);					// clear Read and Write interrupt flags	
		if (TWI0.MSTATUS & TWI_BUSERR_bm) return 4;					// Bus Error, abort
     25e:	84 e0       	ldi	r24, 0x04	; 4
     260:	08 95       	ret
		if (TWI0.MSTATUS & TWI_ARBLOST_bm) return 2;				// Arbitration Lost, abort
		if (TWI0.MSTATUS & TWI_RXACK_bm) return 1;					// Slave replied with NACK, abort				
     262:	81 e0       	ldi	r24, 0x01	; 1
		*data = TWI0.MDATA;
		if (ack_flag == 0) TWI0.MCTRLB |= TWI_MCMD_RECVTRANS_gc;	// send ACK, more bytes to follow					
		return 0;
	}
	else return 8;													// master does not control bus
}
     264:	08 95       	ret

00000266 <I2C_write>:

uint8_t I2C_write(uint8_t *data)									// write data, return status
{
     266:	fc 01       	movw	r30, r24
	timeout_I2C = WRITE_TIMEOUT;									// reset timeout counter, will be decremented by LED matrix interrupt
     268:	8c e0       	ldi	r24, 0x0C	; 12
     26a:	80 93 39 3a 	sts	0x3A39, r24	; 0x803a39 <timeout_I2C>
	if ((TWI0.MSTATUS & TWI_BUSSTATE_gm) == TWI_BUSSTATE_OWNER_gc)	// if master controls bus
     26e:	90 91 15 08 	lds	r25, 0x0815	; 0x800815 <__TEXT_REGION_LENGTH__+0x700815>
     272:	93 70       	andi	r25, 0x03	; 3
     274:	92 30       	cpi	r25, 0x02	; 2
     276:	b1 f4       	brne	.+44     	; 0x2a4 <I2C_write+0x3e>
	{
		TWI0.MDATA = *data;		
     278:	80 81       	ld	r24, Z
     27a:	80 93 18 08 	sts	0x0818, r24	; 0x800818 <__TEXT_REGION_LENGTH__+0x700818>
		while (!(TWI0.MSTATUS & TWI_WIF_bm))						// wait until WIF set, status register contains ACK/NACK bit
     27e:	80 91 15 08 	lds	r24, 0x0815	; 0x800815 <__TEXT_REGION_LENGTH__+0x700815>
     282:	86 fd       	sbrc	r24, 6
     284:	06 c0       	rjmp	.+12     	; 0x292 <I2C_write+0x2c>
		{
			if (!(timeout_I2C)) return 0xff;			            // return timeout error
     286:	80 91 39 3a 	lds	r24, 0x3A39	; 0x803a39 <timeout_I2C>
     28a:	81 11       	cpse	r24, r1
     28c:	f8 cf       	rjmp	.-16     	; 0x27e <I2C_write+0x18>
     28e:	8f ef       	ldi	r24, 0xFF	; 255
     290:	08 95       	ret
		}
		if (TWI0.MSTATUS & TWI_BUSERR_bm) return 4;					// Bus Error, abort
     292:	80 91 15 08 	lds	r24, 0x0815	; 0x800815 <__TEXT_REGION_LENGTH__+0x700815>
     296:	82 fd       	sbrc	r24, 2
     298:	07 c0       	rjmp	.+14     	; 0x2a8 <I2C_write+0x42>
		if (TWI0.MSTATUS & TWI_RXACK_bm) return 1;					// Slave replied with NACK, abort
     29a:	80 91 15 08 	lds	r24, 0x0815	; 0x800815 <__TEXT_REGION_LENGTH__+0x700815>
	if ((TWI0.MSTATUS & TWI_BUSSTATE_gm) == TWI_BUSSTATE_OWNER_gc)	// if master controls bus
	{
		TWI0.MDATA = *data;		
		while (!(TWI0.MSTATUS & TWI_WIF_bm))						// wait until WIF set, status register contains ACK/NACK bit
		{
			if (!(timeout_I2C)) return 0xff;			            // return timeout error
     29e:	82 95       	swap	r24
     2a0:	81 70       	andi	r24, 0x01	; 1
     2a2:	08 95       	ret
		}
		if (TWI0.MSTATUS & TWI_BUSERR_bm) return 4;					// Bus Error, abort
		if (TWI0.MSTATUS & TWI_RXACK_bm) return 1;					// Slave replied with NACK, abort
		return 0;													// no error	
	}
	else return 8;													// master does not control bus
     2a4:	88 e0       	ldi	r24, 0x08	; 8
     2a6:	08 95       	ret
		TWI0.MDATA = *data;		
		while (!(TWI0.MSTATUS & TWI_WIF_bm))						// wait until WIF set, status register contains ACK/NACK bit
		{
			if (!(timeout_I2C)) return 0xff;			            // return timeout error
		}
		if (TWI0.MSTATUS & TWI_BUSERR_bm) return 4;					// Bus Error, abort
     2a8:	84 e0       	ldi	r24, 0x04	; 4
		if (TWI0.MSTATUS & TWI_RXACK_bm) return 1;					// Slave replied with NACK, abort
		return 0;													// no error	
	}
	else return 8;													// master does not control bus
}
     2aa:	08 95       	ret

000002ac <I2C_stop>:

void I2C_stop()
{
	TWI0.MCTRLB |= TWI_MCMD_STOP_gc;
     2ac:	e0 e1       	ldi	r30, 0x10	; 16
     2ae:	f8 e0       	ldi	r31, 0x08	; 8
     2b0:	84 81       	ldd	r24, Z+4	; 0x04
     2b2:	83 60       	ori	r24, 0x03	; 3
     2b4:	84 83       	std	Z+4, r24	; 0x04
     2b6:	08 95       	ret

000002b8 <I2C_read_bytes>:
// addr_ptr		address of first array element to transfer
// slave reg	starting slave register
// num_bytes	number of bytes to transfer

uint8_t	I2C_read_bytes(uint8_t slave_addr, uint8_t *reg_ptr, uint8_t reg_len, uint8_t *dat_ptr, uint8_t dat_len)
{
     2b8:	cf 92       	push	r12
     2ba:	df 92       	push	r13
     2bc:	ff 92       	push	r15
     2be:	0f 93       	push	r16
     2c0:	1f 93       	push	r17
     2c2:	cf 93       	push	r28
     2c4:	df 93       	push	r29
     2c6:	6b 01       	movw	r12, r22
     2c8:	f4 2e       	mov	r15, r20
     2ca:	e9 01       	movw	r28, r18
	uint8_t status;
	if (dat_len > MAX_LEN) dat_len = MAX_LEN;
	status = I2C_start(slave_addr << 1);							// slave write address, LSB 0
     2cc:	18 2f       	mov	r17, r24
     2ce:	11 0f       	add	r17, r17
     2d0:	81 2f       	mov	r24, r17
     2d2:	50 df       	rcall	.-352    	; 0x174 <I2C_start>
	if (status != 0) goto error;
     2d4:	81 11       	cpse	r24, r1
	status = I2C_wait_ACK();										// wait for slave ACK
     2d6:	2b c0       	rjmp	.+86     	; 0x32e <I2C_read_bytes+0x76>
     2d8:	5e df       	rcall	.-324    	; 0x196 <I2C_wait_ACK>
	if (status == 1) {
     2da:	81 30       	cpi	r24, 0x01	; 1
		I2C_stop();													// NACK, abort
     2dc:	19 f4       	brne	.+6      	; 0x2e4 <I2C_read_bytes+0x2c>
     2de:	e6 df       	rcall	.-52     	; 0x2ac <I2C_stop>
		return 1;
     2e0:	81 e0       	ldi	r24, 0x01	; 1
     2e2:	27 c0       	rjmp	.+78     	; 0x332 <I2C_read_bytes+0x7a>
	}
	if (status != 0) goto error;
     2e4:	81 11       	cpse	r24, r1
     2e6:	23 c0       	rjmp	.+70     	; 0x32e <I2C_read_bytes+0x76>
    while(reg_len > 0){
     2e8:	ff 20       	and	r15, r15
	    status = I2C_write(reg_ptr);    							// send slave start register
     2ea:	49 f0       	breq	.+18     	; 0x2fe <I2C_read_bytes+0x46>
     2ec:	c6 01       	movw	r24, r12
     2ee:	bb df       	rcall	.-138    	; 0x266 <I2C_write>
	    if (status != 0) goto error;
     2f0:	81 11       	cpse	r24, r1
     2f2:	1d c0       	rjmp	.+58     	; 0x32e <I2C_read_bytes+0x76>
        ++reg_ptr;
     2f4:	8f ef       	ldi	r24, 0xFF	; 255
     2f6:	c8 1a       	sub	r12, r24
     2f8:	d8 0a       	sbc	r13, r24
        --reg_len;
     2fa:	fa 94       	dec	r15
     2fc:	f5 cf       	rjmp	.-22     	; 0x2e8 <I2C_read_bytes+0x30>
     2fe:	01 34       	cpi	r16, 0x41	; 65
     300:	08 f0       	brcs	.+2      	; 0x304 <I2C_read_bytes+0x4c>
     302:	00 e4       	ldi	r16, 0x40	; 64
    }
	I2C_rep_start((slave_addr << 1) + 1);							// slave read address, LSB 1
     304:	1f 5f       	subi	r17, 0xFF	; 255
// the Atmel device documentation mentions a special command for repeated start TWI_MCMD_REPSTART_gc,
// but this is not used in Atmel's demo code, so we don't use it either

void I2C_rep_start(uint8_t shifted_addr)						    // send repeated start, device_addr + LSB set if READ
{
	TWI0.MADDR = shifted_addr;	
     306:	10 93 17 08 	sts	0x0817, r17	; 0x800817 <__TEXT_REGION_LENGTH__+0x700817>
	    if (status != 0) goto error;
        ++reg_ptr;
        --reg_len;
    }
	I2C_rep_start((slave_addr << 1) + 1);							// slave read address, LSB 1
	while (dat_len > 1) {
     30a:	02 30       	cpi	r16, 0x02	; 2
		status = I2C_read(dat_ptr, 0);								// first bytes, send ACK
     30c:	40 f0       	brcs	.+16     	; 0x31e <I2C_read_bytes+0x66>
     30e:	60 e0       	ldi	r22, 0x00	; 0
     310:	ce 01       	movw	r24, r28
     312:	68 df       	rcall	.-304    	; 0x1e4 <I2C_read>
		if (status != 0) goto error;
     314:	81 11       	cpse	r24, r1
     316:	0b c0       	rjmp	.+22     	; 0x32e <I2C_read_bytes+0x76>
		++dat_ptr;
		--dat_len;
     318:	21 96       	adiw	r28, 0x01	; 1
     31a:	01 50       	subi	r16, 0x01	; 1
	}
	status = I2C_read(dat_ptr, 1);									// single or last byte, send NACK
     31c:	f6 cf       	rjmp	.-20     	; 0x30a <I2C_read_bytes+0x52>
     31e:	61 e0       	ldi	r22, 0x01	; 1
     320:	ce 01       	movw	r24, r28
	if (status != 0) goto error;
     322:	60 df       	rcall	.-320    	; 0x1e4 <I2C_read>
     324:	81 11       	cpse	r24, r1
	I2C_stop();
     326:	03 c0       	rjmp	.+6      	; 0x32e <I2C_read_bytes+0x76>
     328:	c1 df       	rcall	.-126    	; 0x2ac <I2C_stop>
	return 0;
     32a:	80 e0       	ldi	r24, 0x00	; 0
     32c:	02 c0       	rjmp	.+4      	; 0x332 <I2C_read_bytes+0x7a>
	
error:
	I2C_recover();													// clock out possibly stuck slave, reset master
     32e:	e4 de       	rcall	.-568    	; 0xf8 <I2C_recover>
     330:	8f ef       	ldi	r24, 0xFF	; 255
	return 0xff;													// flag error
     332:	df 91       	pop	r29
}
     334:	cf 91       	pop	r28
     336:	1f 91       	pop	r17
     338:	0f 91       	pop	r16
     33a:	ff 90       	pop	r15
     33c:	df 90       	pop	r13
     33e:	cf 90       	pop	r12
     340:	08 95       	ret

00000342 <LanyardCode>:
     342:	cf 93       	push	r28
uint8_t         lastButtonState = 0xff;
uint8_t         digit = 0xff;

// Main game loop
uint8_t LanyardCode(){
    if (CheckState(LANYARD_COMPLETED)) {
     344:	8b e7       	ldi	r24, 0x7B	; 123
     346:	38 d7       	rcall	.+3696   	; 0x11b8 <CheckState>
     348:	81 11       	cpse	r24, r1
     34a:	f0 c0       	rjmp	.+480    	; 0x52c <__LOCK_REGION_LENGTH__+0x12c>
        }
        */
        return 0;
    }

    if ( gameNow != TEXT && gameNow != LANYARD )
     34c:	80 91 2f 38 	lds	r24, 0x382F	; 0x80382f <gameNow>
     350:	88 23       	and	r24, r24
     352:	19 f0       	breq	.+6      	; 0x35a <LanyardCode+0x18>
     354:	83 30       	cpi	r24, 0x03	; 3
     356:	09 f0       	breq	.+2      	; 0x35a <LanyardCode+0x18>
     358:	e9 c0       	rjmp	.+466    	; 0x52c <__LOCK_REGION_LENGTH__+0x12c>
        return 0;

    /* activate led for buttonstate */
    iLED[SCARAB[G]] = (buttonState==0xff ? 0 : dimValue);
     35a:	c0 91 27 b5 	lds	r28, 0xB527	; 0x80b527 <__bss_end+0x7a1c>
     35e:	ec 2f       	mov	r30, r28
     360:	f0 e0       	ldi	r31, 0x00	; 0
     362:	80 91 07 38 	lds	r24, 0x3807	; 0x803807 <buttonState>
     366:	8f 3f       	cpi	r24, 0xFF	; 255
     368:	19 f0       	breq	.+6      	; 0x370 <LanyardCode+0x2e>
     36a:	90 91 09 38 	lds	r25, 0x3809	; 0x803809 <dimValue>
     36e:	01 c0       	rjmp	.+2      	; 0x372 <LanyardCode+0x30>
     370:	90 e0       	ldi	r25, 0x00	; 0
     372:	e5 54       	subi	r30, 0x45	; 69
     374:	f5 4c       	sbci	r31, 0xC5	; 197
     376:	90 83       	st	Z, r25

    if ( (buttonState & 0xf0) == 0)
     378:	98 2f       	mov	r25, r24
     37a:	90 7f       	andi	r25, 0xF0	; 240
     37c:	09 f4       	brne	.+2      	; 0x380 <LanyardCode+0x3e>
     37e:	d6 c0       	rjmp	.+428    	; 0x52c <__LOCK_REGION_LENGTH__+0x12c>
        return 0;

    if ((buttonState&0x0f) == (lastButtonState&0x0f))
     380:	20 91 01 38 	lds	r18, 0x3801	; 0x803801 <lastButtonState>
     384:	98 2f       	mov	r25, r24
     386:	92 27       	eor	r25, r18
     388:	9f 70       	andi	r25, 0x0F	; 15
     38a:	09 f4       	brne	.+2      	; 0x38e <LanyardCode+0x4c>
     38c:	cf c0       	rjmp	.+414    	; 0x52c <__LOCK_REGION_LENGTH__+0x12c>
        return 0;

    if (lastButtonState == 0xff){
     38e:	2f 3f       	cpi	r18, 0xFF	; 255
     390:	09 f0       	breq	.+2      	; 0x394 <LanyardCode+0x52>
     392:	c8 c0       	rjmp	.+400    	; 0x524 <__LOCK_REGION_LENGTH__+0x124>
        switch (buttonState & 0x0f) {
     394:	8f 70       	andi	r24, 0x0F	; 15
     396:	82 30       	cpi	r24, 0x02	; 2
     398:	61 f0       	breq	.+24     	; 0x3b2 <LanyardCode+0x70>
     39a:	28 f4       	brcc	.+10     	; 0x3a6 <LanyardCode+0x64>
     39c:	81 30       	cpi	r24, 0x01	; 1
     39e:	69 f4       	brne	.+26     	; 0x3ba <LanyardCode+0x78>
            case 0b0001: {
                digit = 0;
     3a0:	10 92 00 38 	sts	0x3800, r1	; 0x803800 <__data_start>
                break;
     3a4:	0d c0       	rjmp	.+26     	; 0x3c0 <LanyardCode+0x7e>

    if ((buttonState&0x0f) == (lastButtonState&0x0f))
        return 0;

    if (lastButtonState == 0xff){
        switch (buttonState & 0x0f) {
     3a6:	84 30       	cpi	r24, 0x04	; 4
     3a8:	31 f0       	breq	.+12     	; 0x3b6 <LanyardCode+0x74>
     3aa:	88 30       	cpi	r24, 0x08	; 8
     3ac:	31 f4       	brne	.+12     	; 0x3ba <LanyardCode+0x78>
                digit = 3;
                break;
            }

            case 0b1000: {
                digit = 2;
     3ae:	82 e0       	ldi	r24, 0x02	; 2
     3b0:	05 c0       	rjmp	.+10     	; 0x3bc <LanyardCode+0x7a>
                digit = 0;
                break;
            }

            case 0b0010: {
                digit = 1;
     3b2:	81 e0       	ldi	r24, 0x01	; 1
     3b4:	03 c0       	rjmp	.+6      	; 0x3bc <LanyardCode+0x7a>
                break;
            }

            case 0b0100: {
                digit = 3;
     3b6:	83 e0       	ldi	r24, 0x03	; 3
     3b8:	01 c0       	rjmp	.+2      	; 0x3bc <LanyardCode+0x7a>
                digit = 2;
                break;
            }

            default: {
                digit = 0xff;
     3ba:	8f ef       	ldi	r24, 0xFF	; 255
     3bc:	80 93 00 38 	sts	0x3800, r24	; 0x803800 <__data_start>
                break;
            }
        }
        gameNow = LANYARD;
     3c0:	83 e0       	ldi	r24, 0x03	; 3
     3c2:	80 93 2f 38 	sts	0x382F, r24	; 0x80382f <gameNow>
        /* play tone for button */

        if (digit == lanyardCode[lanyardPos]) {
     3c6:	80 91 29 38 	lds	r24, 0x3829	; 0x803829 <lanyardPos>
     3ca:	e8 2f       	mov	r30, r24
     3cc:	f0 e0       	ldi	r31, 0x00	; 0
     3ce:	e4 5f       	subi	r30, 0xF4	; 244
     3d0:	fa 44       	sbci	r31, 0x4A	; 74
     3d2:	20 81       	ld	r18, Z
     3d4:	90 91 00 38 	lds	r25, 0x3800	; 0x803800 <__data_start>
     3d8:	e0 91 24 b5 	lds	r30, 0xB524	; 0x80b524 <__bss_end+0x7a19>
     3dc:	29 13       	cpse	r18, r25
     3de:	17 c0       	rjmp	.+46     	; 0x40e <__LOCK_REGION_LENGTH__+0xe>
            lanyardState &= TRUE;
     3e0:	90 91 02 38 	lds	r25, 0x3802	; 0x803802 <lanyardState>
     3e4:	91 70       	andi	r25, 0x01	; 1
     3e6:	90 93 02 38 	sts	0x3802, r25	; 0x803802 <lanyardState>
            iLED[CAT]       = 128;
     3ea:	f0 e0       	ldi	r31, 0x00	; 0
     3ec:	e5 54       	subi	r30, 0x45	; 69
     3ee:	f5 4c       	sbci	r31, 0xC5	; 197
     3f0:	90 e8       	ldi	r25, 0x80	; 128
     3f2:	90 83       	st	Z, r25
            iLED[EYE[R][L]] = 0;
     3f4:	e0 91 33 b5 	lds	r30, 0xB533	; 0x80b533 <__bss_end+0x7a28>
     3f8:	f0 e0       	ldi	r31, 0x00	; 0
     3fa:	e5 54       	subi	r30, 0x45	; 69
     3fc:	f5 4c       	sbci	r31, 0xC5	; 197
     3fe:	10 82       	st	Z, r1
            iLED[EYE[R][R]] = 0;
     400:	e0 91 32 b5 	lds	r30, 0xB532	; 0x80b532 <__bss_end+0x7a27>
     404:	f0 e0       	ldi	r31, 0x00	; 0
     406:	e5 54       	subi	r30, 0x45	; 69
     408:	f5 4c       	sbci	r31, 0xC5	; 197
     40a:	10 82       	st	Z, r1
     40c:	13 c0       	rjmp	.+38     	; 0x434 <__LOCK_REGION_LENGTH__+0x34>
        } else {
            lanyardState = FALSE;
     40e:	10 92 02 38 	sts	0x3802, r1	; 0x803802 <lanyardState>
            iLED[CAT]       = 0;
     412:	f0 e0       	ldi	r31, 0x00	; 0
     414:	e5 54       	subi	r30, 0x45	; 69
     416:	f5 4c       	sbci	r31, 0xC5	; 197
     418:	10 82       	st	Z, r1
            if (lanyardPos < 4 ) {
     41a:	84 30       	cpi	r24, 0x04	; 4
     41c:	58 f4       	brcc	.+22     	; 0x434 <__LOCK_REGION_LENGTH__+0x34>
                /*gameNow         = BASTET;*/
                gameNow         = TEXT;
     41e:	10 92 2f 38 	sts	0x382F, r1	; 0x80382f <gameNow>
                lanyardPos      = 0;
     422:	10 92 29 38 	sts	0x3829, r1	; 0x803829 <lanyardPos>
                lanyardCnt      = 0;
     426:	10 92 28 38 	sts	0x3828, r1	; 0x803828 <__data_end>
                lanyardState    = TRUE;
     42a:	81 e0       	ldi	r24, 0x01	; 1
     42c:	80 93 02 38 	sts	0x3802, r24	; 0x803802 <lanyardState>
                lastButtonState = 0xff;
     430:	8f ef       	ldi	r24, 0xFF	; 255
     432:	7a c0       	rjmp	.+244    	; 0x528 <__LOCK_REGION_LENGTH__+0x128>
                return 0;
            }
        }
        lanyardPos++;
     434:	8f 5f       	subi	r24, 0xFF	; 255
     436:	80 93 29 38 	sts	0x3829, r24	; 0x803829 <lanyardPos>
        lanyardCnt++;            
     43a:	90 91 28 38 	lds	r25, 0x3828	; 0x803828 <__data_end>
     43e:	9f 5f       	subi	r25, 0xFF	; 255
        if (lanyardCnt >= 4) {
     440:	94 30       	cpi	r25, 0x04	; 4
     442:	18 f4       	brcc	.+6      	; 0x44a <__LOCK_REGION_LENGTH__+0x4a>
                lastButtonState = 0xff;
                return 0;
            }
        }
        lanyardPos++;
        lanyardCnt++;            
     444:	90 93 28 38 	sts	0x3828, r25	; 0x803828 <__data_end>
     448:	6d c0       	rjmp	.+218    	; 0x524 <__LOCK_REGION_LENGTH__+0x124>
        if (lanyardCnt >= 4) {
            lanyardCnt = 0;
     44a:	10 92 28 38 	sts	0x3828, r1	; 0x803828 <__data_end>
            if (lanyardState == TRUE) {
     44e:	90 91 02 38 	lds	r25, 0x3802	; 0x803802 <lanyardState>
     452:	91 30       	cpi	r25, 0x01	; 1
     454:	a1 f5       	brne	.+104    	; 0x4be <__LOCK_REGION_LENGTH__+0xbe>
                iLED[HCKR[G][(lanyardPos/4)-1]] = dimValue;
     456:	e8 2f       	mov	r30, r24
     458:	e6 95       	lsr	r30
     45a:	e6 95       	lsr	r30
     45c:	f0 e0       	ldi	r31, 0x00	; 0
     45e:	ea 5c       	subi	r30, 0xCA	; 202
     460:	fa 44       	sbci	r31, 0x4A	; 74
     462:	e5 81       	ldd	r30, Z+5	; 0x05
     464:	f0 e0       	ldi	r31, 0x00	; 0
     466:	90 91 09 38 	lds	r25, 0x3809	; 0x803809 <dimValue>
     46a:	e5 54       	subi	r30, 0x45	; 69
     46c:	f5 4c       	sbci	r31, 0xC5	; 197
     46e:	90 83       	st	Z, r25
                if (lanyardPos == sizeof(lanyardCode)) {
     470:	88 31       	cpi	r24, 0x18	; 24
     472:	09 f0       	breq	.+2      	; 0x476 <__LOCK_REGION_LENGTH__+0x76>
     474:	57 c0       	rjmp	.+174    	; 0x524 <__LOCK_REGION_LENGTH__+0x124>
                    UpdateState(LANYARD_COMPLETED);
     476:	8b e7       	ldi	r24, 0x7B	; 123
     478:	95 d6       	rcall	.+3370   	; 0x11a4 <UpdateState>
                    iLED[SCARAB[G]] = 0;
     47a:	ec 2f       	mov	r30, r28
     47c:	f0 e0       	ldi	r31, 0x00	; 0
     47e:	e5 54       	subi	r30, 0x45	; 69
     480:	f5 4c       	sbci	r31, 0xC5	; 197
     482:	10 82       	st	Z, r1
                    iLED[EYE[R][L]] = 0;
     484:	e0 91 33 b5 	lds	r30, 0xB533	; 0x80b533 <__bss_end+0x7a28>
     488:	f0 e0       	ldi	r31, 0x00	; 0
     48a:	e5 54       	subi	r30, 0x45	; 69
     48c:	f5 4c       	sbci	r31, 0xC5	; 197
     48e:	10 82       	st	Z, r1
                    iLED[EYE[R][R]] = 0;
     490:	e0 91 32 b5 	lds	r30, 0xB532	; 0x80b532 <__bss_end+0x7a27>
     494:	f0 e0       	ldi	r31, 0x00	; 0
     496:	e5 54       	subi	r30, 0x45	; 69
     498:	f5 4c       	sbci	r31, 0xC5	; 197
     49a:	10 82       	st	Z, r1
                    iLED[EYE[G][L]] = dimValue;
     49c:	e0 91 35 b5 	lds	r30, 0xB535	; 0x80b535 <__bss_end+0x7a2a>
     4a0:	f0 e0       	ldi	r31, 0x00	; 0
     4a2:	80 91 09 38 	lds	r24, 0x3809	; 0x803809 <dimValue>
     4a6:	e5 54       	subi	r30, 0x45	; 69
     4a8:	f5 4c       	sbci	r31, 0xC5	; 197
     4aa:	80 83       	st	Z, r24
                    iLED[EYE[G][R]] = dimValue;
     4ac:	e0 91 34 b5 	lds	r30, 0xB534	; 0x80b534 <__bss_end+0x7a29>
     4b0:	f0 e0       	ldi	r31, 0x00	; 0
     4b2:	80 91 09 38 	lds	r24, 0x3809	; 0x803809 <dimValue>
     4b6:	e5 54       	subi	r30, 0x45	; 69
     4b8:	f5 4c       	sbci	r31, 0xC5	; 197
     4ba:	80 83       	st	Z, r24
     4bc:	33 c0       	rjmp	.+102    	; 0x524 <__LOCK_REGION_LENGTH__+0x124>
                    /*state = STATE_MUSIC;*/
                }
            } else {
                gameNow         = TEXT;
     4be:	10 92 2f 38 	sts	0x382F, r1	; 0x80382f <gameNow>
                lanyardPos      = 0;
     4c2:	10 92 29 38 	sts	0x3829, r1	; 0x803829 <lanyardPos>
                lanyardState    = TRUE;
     4c6:	81 e0       	ldi	r24, 0x01	; 1
     4c8:	80 93 02 38 	sts	0x3802, r24	; 0x803802 <lanyardState>
                lastButtonState = 0xff;
                iLED[SCARAB[G]] = 0;
     4cc:	ec 2f       	mov	r30, r28
     4ce:	f0 e0       	ldi	r31, 0x00	; 0
     4d0:	e5 54       	subi	r30, 0x45	; 69
     4d2:	f5 4c       	sbci	r31, 0xC5	; 197
     4d4:	10 82       	st	Z, r1
                iLED[EYE[G][L]] = 0;
     4d6:	e0 91 35 b5 	lds	r30, 0xB535	; 0x80b535 <__bss_end+0x7a2a>
     4da:	f0 e0       	ldi	r31, 0x00	; 0
     4dc:	e5 54       	subi	r30, 0x45	; 69
     4de:	f5 4c       	sbci	r31, 0xC5	; 197
     4e0:	10 82       	st	Z, r1
                iLED[EYE[G][R]] = 0;
     4e2:	e0 91 34 b5 	lds	r30, 0xB534	; 0x80b534 <__bss_end+0x7a29>
     4e6:	f0 e0       	ldi	r31, 0x00	; 0
     4e8:	e5 54       	subi	r30, 0x45	; 69
     4ea:	f5 4c       	sbci	r31, 0xC5	; 197
     4ec:	10 82       	st	Z, r1
                iLED[EYE[R][L]] = dimValue;
     4ee:	e0 91 33 b5 	lds	r30, 0xB533	; 0x80b533 <__bss_end+0x7a28>
     4f2:	f0 e0       	ldi	r31, 0x00	; 0
     4f4:	80 91 09 38 	lds	r24, 0x3809	; 0x803809 <dimValue>
     4f8:	e5 54       	subi	r30, 0x45	; 69
     4fa:	f5 4c       	sbci	r31, 0xC5	; 197
     4fc:	80 83       	st	Z, r24
                iLED[EYE[R][R]] = dimValue;
     4fe:	e0 91 32 b5 	lds	r30, 0xB532	; 0x80b532 <__bss_end+0x7a27>
     502:	f0 e0       	ldi	r31, 0x00	; 0
     504:	80 91 09 38 	lds	r24, 0x3809	; 0x803809 <dimValue>
     508:	e5 54       	subi	r30, 0x45	; 69
     50a:	f5 4c       	sbci	r31, 0xC5	; 197
     50c:	80 83       	st	Z, r24
     50e:	ac e3       	ldi	r26, 0x3C	; 60
     510:	b5 eb       	ldi	r27, 0xB5	; 181
                for (int i=0; i<6; i++ )
                    iLED[HCKR[G][i]] = 0;
     512:	ed 91       	ld	r30, X+
     514:	f0 e0       	ldi	r31, 0x00	; 0
     516:	e5 54       	subi	r30, 0x45	; 69
     518:	f5 4c       	sbci	r31, 0xC5	; 197
     51a:	10 82       	st	Z, r1
                iLED[SCARAB[G]] = 0;
                iLED[EYE[G][L]] = 0;
                iLED[EYE[G][R]] = 0;
                iLED[EYE[R][L]] = dimValue;
                iLED[EYE[R][R]] = dimValue;
                for (int i=0; i<6; i++ )
     51c:	85 eb       	ldi	r24, 0xB5	; 181
     51e:	a2 34       	cpi	r26, 0x42	; 66
     520:	b8 07       	cpc	r27, r24
     522:	b9 f7       	brne	.-18     	; 0x512 <__LOCK_REGION_LENGTH__+0x112>
                    iLED[HCKR[G][i]] = 0;
            }
        }
    }

    lastButtonState = buttonState;
     524:	80 91 07 38 	lds	r24, 0x3807	; 0x803807 <buttonState>
     528:	80 93 01 38 	sts	0x3801, r24	; 0x803801 <lastButtonState>
    return 0;
}
     52c:	80 e0       	ldi	r24, 0x00	; 0
     52e:	cf 91       	pop	r28
     530:	08 95       	ret

00000532 <MagnetMaze>:
uint8_t         mazeCnt = 0;
uint8_t         mazeState = TRUE;
uint8_t         inverted  = FALSE;

// Main game loop
uint8_t MagnetMaze(){
     532:	cf 93       	push	r28
     534:	df 93       	push	r29
    if (CheckState(MAZE_INACTIVE))
     536:	87 ef       	ldi	r24, 0xF7	; 247
     538:	3f d6       	rcall	.+3198   	; 0x11b8 <CheckState>
     53a:	81 11       	cpse	r24, r1
     53c:	3e c1       	rjmp	.+636    	; 0x7ba <MagnetMaze+0x288>
        return 0;

    if (CheckState(MAZE_COMPLETED))
     53e:	8d e7       	ldi	r24, 0x7D	; 125
     540:	3b d6       	rcall	.+3190   	; 0x11b8 <CheckState>
     542:	81 11       	cpse	r24, r1
     544:	3a c1       	rjmp	.+628    	; 0x7ba <MagnetMaze+0x288>
        return 0;

    if ( (gameNow != TEXT) && (gameNow != MAZE) )
     546:	80 91 2f 38 	lds	r24, 0x382F	; 0x80382f <gameNow>
     54a:	82 30       	cpi	r24, 0x02	; 2
     54c:	08 f0       	brcs	.+2      	; 0x550 <MagnetMaze+0x1e>
     54e:	35 c1       	rjmp	.+618    	; 0x7ba <MagnetMaze+0x288>
        return 0;

    if (calHall == 0)
     550:	80 91 e4 3a 	lds	r24, 0x3AE4	; 0x803ae4 <calHall>
     554:	90 91 e5 3a 	lds	r25, 0x3AE5	; 0x803ae5 <calHall+0x1>
     558:	89 2b       	or	r24, r25
     55a:	41 f4       	brne	.+16     	; 0x56c <MagnetMaze+0x3a>
        calHall = adcHall;
     55c:	80 91 94 3a 	lds	r24, 0x3A94	; 0x803a94 <adcHall>
     560:	90 91 95 3a 	lds	r25, 0x3A95	; 0x803a95 <adcHall+0x1>
     564:	80 93 e4 3a 	sts	0x3AE4, r24	; 0x803ae4 <calHall>
     568:	90 93 e5 3a 	sts	0x3AE5, r25	; 0x803ae5 <calHall+0x1>

    int16_t valHall = adcHall - calHall;
     56c:	80 91 94 3a 	lds	r24, 0x3A94	; 0x803a94 <adcHall>
     570:	90 91 95 3a 	lds	r25, 0x3A95	; 0x803a95 <adcHall+0x1>
     574:	20 91 e4 3a 	lds	r18, 0x3AE4	; 0x803ae4 <calHall>
     578:	30 91 e5 3a 	lds	r19, 0x3AE5	; 0x803ae5 <calHall+0x1>
     57c:	82 1b       	sub	r24, r18
     57e:	93 0b       	sbc	r25, r19
    switch (curHallState) {
     580:	30 91 3c 38 	lds	r19, 0x383C	; 0x80383c <curHallState>
     584:	31 30       	cpi	r19, 0x01	; 1
     586:	89 f0       	breq	.+34     	; 0x5aa <MagnetMaze+0x78>
     588:	18 f0       	brcs	.+6      	; 0x590 <MagnetMaze+0x5e>
     58a:	32 30       	cpi	r19, 0x02	; 2
     58c:	c1 f0       	breq	.+48     	; 0x5be <MagnetMaze+0x8c>
     58e:	1f c0       	rjmp	.+62     	; 0x5ce <MagnetMaze+0x9c>
        case 0: {
            if ( valHall + HALL_HIGH < 0 ) {
     590:	84 3d       	cpi	r24, 0xD4	; 212
     592:	2e ef       	ldi	r18, 0xFE	; 254
     594:	92 07       	cpc	r25, r18
     596:	14 f4       	brge	.+4      	; 0x59c <MagnetMaze+0x6a>
                newHallState = 1;
     598:	81 e0       	ldi	r24, 0x01	; 1
     59a:	04 c0       	rjmp	.+8      	; 0x5a4 <MagnetMaze+0x72>
            } else if ( valHall - HALL_HIGH > 0 ) {
     59c:	8d 32       	cpi	r24, 0x2D	; 45
     59e:	91 40       	sbci	r25, 0x01	; 1
     5a0:	5c f0       	brlt	.+22     	; 0x5b8 <MagnetMaze+0x86>
                newHallState = 2;
     5a2:	82 e0       	ldi	r24, 0x02	; 2
     5a4:	80 93 3b 38 	sts	0x383B, r24	; 0x80383b <newHallState>
     5a8:	12 c0       	rjmp	.+36     	; 0x5ce <MagnetMaze+0x9c>
            }
            break;
        }
        
        case 1: {
            if ( valHall - HALL_HIGH > 0 ) {
     5aa:	8d 32       	cpi	r24, 0x2D	; 45
     5ac:	21 e0       	ldi	r18, 0x01	; 1
     5ae:	92 07       	cpc	r25, r18
     5b0:	c4 f7       	brge	.-16     	; 0x5a2 <MagnetMaze+0x70>
                newHallState = 2;
            } else if ( valHall + HALL_LOW > 0 ) {
     5b2:	89 38       	cpi	r24, 0x89	; 137
     5b4:	9f 4f       	sbci	r25, 0xFF	; 255
     5b6:	84 f3       	brlt	.-32     	; 0x598 <MagnetMaze+0x66>
            if ( valHall + HALL_HIGH < 0 ) {
                newHallState = 1;
            } else if ( valHall - HALL_HIGH > 0 ) {
                newHallState = 2;
            } else {
                newHallState = 0;
     5b8:	10 92 3b 38 	sts	0x383B, r1	; 0x80383b <newHallState>
     5bc:	08 c0       	rjmp	.+16     	; 0x5ce <MagnetMaze+0x9c>
            }
            break;
        }
        
        case 2: {
            if ( valHall + HALL_HIGH < 0 ) {
     5be:	84 3d       	cpi	r24, 0xD4	; 212
     5c0:	2e ef       	ldi	r18, 0xFE	; 254
     5c2:	92 07       	cpc	r25, r18
     5c4:	4c f3       	brlt	.-46     	; 0x598 <MagnetMaze+0x66>
                newHallState = 1;
            } else if ( valHall - HALL_LOW < 0 ) {
     5c6:	88 37       	cpi	r24, 0x78	; 120
     5c8:	91 05       	cpc	r25, r1
     5ca:	b4 f3       	brlt	.-20     	; 0x5b8 <MagnetMaze+0x86>
     5cc:	ea cf       	rjmp	.-44     	; 0x5a2 <MagnetMaze+0x70>
            break;
        }
    }

    /* activate led for hallstate */
    iLED[SCARAB[G]] = (newHallState ? dimValue : 0);
     5ce:	c0 91 27 b5 	lds	r28, 0xB527	; 0x80b527 <__bss_end+0x7a1c>
     5d2:	ec 2f       	mov	r30, r28
     5d4:	f0 e0       	ldi	r31, 0x00	; 0
     5d6:	80 91 3b 38 	lds	r24, 0x383B	; 0x80383b <newHallState>
     5da:	88 23       	and	r24, r24
     5dc:	19 f0       	breq	.+6      	; 0x5e4 <MagnetMaze+0xb2>
     5de:	90 91 09 38 	lds	r25, 0x3809	; 0x803809 <dimValue>
     5e2:	01 c0       	rjmp	.+2      	; 0x5e6 <MagnetMaze+0xb4>
     5e4:	90 e0       	ldi	r25, 0x00	; 0
     5e6:	e5 54       	subi	r30, 0x45	; 69
     5e8:	f5 4c       	sbci	r31, 0xC5	; 197
     5ea:	90 83       	st	Z, r25


    /* Make the maze work regardless of badge orientation */
    if (newHallState != 0 && mazePos == 0 )
     5ec:	88 23       	and	r24, r24
     5ee:	59 f0       	breq	.+22     	; 0x606 <MagnetMaze+0xd4>
     5f0:	20 91 3a 38 	lds	r18, 0x383A	; 0x80383a <mazePos>
     5f4:	21 11       	cpse	r18, r1
     5f6:	3d c0       	rjmp	.+122    	; 0x672 <MagnetMaze+0x140>
        inverted = (newHallState != mazeCode[0]) ? TRUE : FALSE;
     5f8:	91 e0       	ldi	r25, 0x01	; 1
     5fa:	81 30       	cpi	r24, 0x01	; 1
     5fc:	09 f4       	brne	.+2      	; 0x600 <MagnetMaze+0xce>
     5fe:	90 e0       	ldi	r25, 0x00	; 0
     600:	90 93 38 38 	sts	0x3838, r25	; 0x803838 <inverted>
     604:	36 c0       	rjmp	.+108    	; 0x672 <MagnetMaze+0x140>

    if (newHallState != curHallState) {
     606:	33 23       	and	r19, r19
     608:	09 f4       	brne	.+2      	; 0x60c <MagnetMaze+0xda>
     60a:	d7 c0       	rjmp	.+430    	; 0x7ba <MagnetMaze+0x288>
        curHallState = newHallState;
     60c:	10 92 3c 38 	sts	0x383C, r1	; 0x80383c <curHallState>
                    for (int i=0; i<6; i++ )
                        iLED[HCKR[G][i]] = 0;
                }
            }
        } else {
            if (mazePos == sizeof(mazeCode)) {
     610:	80 91 3a 38 	lds	r24, 0x383A	; 0x80383a <mazePos>
     614:	82 31       	cpi	r24, 0x12	; 18
     616:	09 f0       	breq	.+2      	; 0x61a <MagnetMaze+0xe8>
     618:	d0 c0       	rjmp	.+416    	; 0x7ba <MagnetMaze+0x288>
                gameNow   = TEXT;
     61a:	10 92 2f 38 	sts	0x382F, r1	; 0x80382f <gameNow>
                mazePos   = 0;
     61e:	10 92 3a 38 	sts	0x383A, r1	; 0x80383a <mazePos>
                mazeState = TRUE;
     622:	81 e0       	ldi	r24, 0x01	; 1
     624:	80 93 0a 38 	sts	0x380A, r24	; 0x80380a <mazeState>
                iLED[SCARAB[G]]    = 0;
     628:	10 82       	st	Z, r1
                iLED[EYE[G][L]] = 0;
     62a:	e0 91 35 b5 	lds	r30, 0xB535	; 0x80b535 <__bss_end+0x7a2a>
     62e:	f0 e0       	ldi	r31, 0x00	; 0
     630:	e5 54       	subi	r30, 0x45	; 69
     632:	f5 4c       	sbci	r31, 0xC5	; 197
     634:	10 82       	st	Z, r1
                iLED[EYE[G][R]] = 0;
     636:	e0 91 34 b5 	lds	r30, 0xB534	; 0x80b534 <__bss_end+0x7a29>
     63a:	f0 e0       	ldi	r31, 0x00	; 0
     63c:	e5 54       	subi	r30, 0x45	; 69
     63e:	f5 4c       	sbci	r31, 0xC5	; 197
     640:	10 82       	st	Z, r1
                iLED[EYE[R][L]] = 0;
     642:	e0 91 33 b5 	lds	r30, 0xB533	; 0x80b533 <__bss_end+0x7a28>
     646:	f0 e0       	ldi	r31, 0x00	; 0
     648:	e5 54       	subi	r30, 0x45	; 69
     64a:	f5 4c       	sbci	r31, 0xC5	; 197
     64c:	10 82       	st	Z, r1
                iLED[EYE[R][R]] = 0;
     64e:	e0 91 32 b5 	lds	r30, 0xB532	; 0x80b532 <__bss_end+0x7a27>
     652:	f0 e0       	ldi	r31, 0x00	; 0
     654:	e5 54       	subi	r30, 0x45	; 69
     656:	f5 4c       	sbci	r31, 0xC5	; 197
     658:	10 82       	st	Z, r1
     65a:	ac e3       	ldi	r26, 0x3C	; 60
     65c:	b5 eb       	ldi	r27, 0xB5	; 181
                for (int i=0; i<6; i++ )
                    iLED[HCKR[G][i]] = 0;
     65e:	ed 91       	ld	r30, X+
     660:	f0 e0       	ldi	r31, 0x00	; 0
     662:	e5 54       	subi	r30, 0x45	; 69
     664:	f5 4c       	sbci	r31, 0xC5	; 197
     666:	10 82       	st	Z, r1
                iLED[SCARAB[G]]    = 0;
                iLED[EYE[G][L]] = 0;
                iLED[EYE[G][R]] = 0;
                iLED[EYE[R][L]] = 0;
                iLED[EYE[R][R]] = 0;
                for (int i=0; i<6; i++ )
     668:	25 eb       	ldi	r18, 0xB5	; 181
     66a:	a2 34       	cpi	r26, 0x42	; 66
     66c:	b2 07       	cpc	r27, r18
     66e:	b9 f7       	brne	.-18     	; 0x65e <MagnetMaze+0x12c>
     670:	a4 c0       	rjmp	.+328    	; 0x7ba <MagnetMaze+0x288>

    /* Make the maze work regardless of badge orientation */
    if (newHallState != 0 && mazePos == 0 )
        inverted = (newHallState != mazeCode[0]) ? TRUE : FALSE;

    if (newHallState != curHallState) {
     672:	38 17       	cp	r19, r24
     674:	09 f4       	brne	.+2      	; 0x678 <MagnetMaze+0x146>
     676:	a1 c0       	rjmp	.+322    	; 0x7ba <MagnetMaze+0x288>
        curHallState = newHallState;
     678:	80 93 3c 38 	sts	0x383C, r24	; 0x80383c <curHallState>
        
        if (curHallState != 0) {
            gameNow = MAZE;
     67c:	91 e0       	ldi	r25, 0x01	; 1
     67e:	90 93 2f 38 	sts	0x382F, r25	; 0x80382f <gameNow>
            if ( (inverted ? curHallState^3 : curHallState) == mazeCode[mazePos]) {
     682:	90 91 38 38 	lds	r25, 0x3838	; 0x803838 <inverted>
     686:	99 23       	and	r25, r25
     688:	11 f0       	breq	.+4      	; 0x68e <MagnetMaze+0x15c>
     68a:	93 e0       	ldi	r25, 0x03	; 3
     68c:	89 27       	eor	r24, r25
     68e:	90 e0       	ldi	r25, 0x00	; 0
     690:	e2 2f       	mov	r30, r18
     692:	f0 e0       	ldi	r31, 0x00	; 0
     694:	ee 5b       	subi	r30, 0xBE	; 190
     696:	fa 44       	sbci	r31, 0x4A	; 74
     698:	40 81       	ld	r20, Z
     69a:	50 e0       	ldi	r21, 0x00	; 0
     69c:	84 17       	cp	r24, r20
     69e:	95 07       	cpc	r25, r21
     6a0:	91 f4       	brne	.+36     	; 0x6c6 <MagnetMaze+0x194>
                mazeState &= TRUE;
     6a2:	80 91 0a 38 	lds	r24, 0x380A	; 0x80380a <mazeState>
     6a6:	81 70       	andi	r24, 0x01	; 1
     6a8:	80 93 0a 38 	sts	0x380A, r24	; 0x80380a <mazeState>
                iLED[EYE[R][L]] = 0;
     6ac:	e0 91 33 b5 	lds	r30, 0xB533	; 0x80b533 <__bss_end+0x7a28>
     6b0:	f0 e0       	ldi	r31, 0x00	; 0
     6b2:	e5 54       	subi	r30, 0x45	; 69
     6b4:	f5 4c       	sbci	r31, 0xC5	; 197
     6b6:	10 82       	st	Z, r1
                iLED[EYE[R][R]] = 0;
     6b8:	e0 91 32 b5 	lds	r30, 0xB532	; 0x80b532 <__bss_end+0x7a27>
     6bc:	f0 e0       	ldi	r31, 0x00	; 0
     6be:	e5 54       	subi	r30, 0x45	; 69
     6c0:	f5 4c       	sbci	r31, 0xC5	; 197
     6c2:	10 82       	st	Z, r1
     6c4:	02 c0       	rjmp	.+4      	; 0x6ca <MagnetMaze+0x198>
            } else {
                mazeState = FALSE;
     6c6:	10 92 0a 38 	sts	0x380A, r1	; 0x80380a <mazeState>
                /* play tone BAD */
            }
            mazePos++;
     6ca:	2f 5f       	subi	r18, 0xFF	; 255
     6cc:	20 93 3a 38 	sts	0x383A, r18	; 0x80383a <mazePos>
            mazeCnt++;            
     6d0:	80 91 39 38 	lds	r24, 0x3839	; 0x803839 <mazeCnt>
     6d4:	8f 5f       	subi	r24, 0xFF	; 255
            if (mazeCnt >= 3) {
     6d6:	83 30       	cpi	r24, 0x03	; 3
     6d8:	18 f4       	brcc	.+6      	; 0x6e0 <MagnetMaze+0x1ae>
            } else {
                mazeState = FALSE;
                /* play tone BAD */
            }
            mazePos++;
            mazeCnt++;            
     6da:	80 93 39 38 	sts	0x3839, r24	; 0x803839 <mazeCnt>
     6de:	6d c0       	rjmp	.+218    	; 0x7ba <MagnetMaze+0x288>
            if (mazeCnt >= 3) {
                mazeCnt = 0;
     6e0:	10 92 39 38 	sts	0x3839, r1	; 0x803839 <mazeCnt>
                if (mazeState == TRUE) {
     6e4:	80 91 0a 38 	lds	r24, 0x380A	; 0x80380a <mazeState>
     6e8:	81 30       	cpi	r24, 0x01	; 1
     6ea:	a9 f5       	brne	.+106    	; 0x756 <MagnetMaze+0x224>
                    /* play tone GOOD */
                    iLED[HCKR[G][(mazePos/3)-1]] = dimValue;
     6ec:	eb ea       	ldi	r30, 0xAB	; 171
     6ee:	2e 9f       	mul	r18, r30
     6f0:	e1 2d       	mov	r30, r1
     6f2:	11 24       	eor	r1, r1
     6f4:	e6 95       	lsr	r30
     6f6:	f0 e0       	ldi	r31, 0x00	; 0
     6f8:	ea 5c       	subi	r30, 0xCA	; 202
     6fa:	fa 44       	sbci	r31, 0x4A	; 74
     6fc:	e5 81       	ldd	r30, Z+5	; 0x05
     6fe:	f0 e0       	ldi	r31, 0x00	; 0
     700:	80 91 09 38 	lds	r24, 0x3809	; 0x803809 <dimValue>
     704:	e5 54       	subi	r30, 0x45	; 69
     706:	f5 4c       	sbci	r31, 0xC5	; 197
     708:	80 83       	st	Z, r24
                    if (mazePos == sizeof(mazeCode)) {
     70a:	22 31       	cpi	r18, 0x12	; 18
     70c:	09 f0       	breq	.+2      	; 0x710 <MagnetMaze+0x1de>
                        UpdateState(MAZE_COMPLETED);
     70e:	55 c0       	rjmp	.+170    	; 0x7ba <MagnetMaze+0x288>
     710:	8d e7       	ldi	r24, 0x7D	; 125
     712:	48 d5       	rcall	.+2704   	; 0x11a4 <UpdateState>
                        iLED[SCARAB[G]]    = 0;
     714:	d0 e0       	ldi	r29, 0x00	; 0
     716:	c5 54       	subi	r28, 0x45	; 69
     718:	d5 4c       	sbci	r29, 0xC5	; 197
     71a:	18 82       	st	Y, r1
                        iLED[EYE[R][L]] = 0;
     71c:	e0 91 33 b5 	lds	r30, 0xB533	; 0x80b533 <__bss_end+0x7a28>
     720:	f0 e0       	ldi	r31, 0x00	; 0
     722:	e5 54       	subi	r30, 0x45	; 69
     724:	f5 4c       	sbci	r31, 0xC5	; 197
     726:	10 82       	st	Z, r1
                        iLED[EYE[R][R]] = 0;
     728:	e0 91 32 b5 	lds	r30, 0xB532	; 0x80b532 <__bss_end+0x7a27>
     72c:	f0 e0       	ldi	r31, 0x00	; 0
     72e:	e5 54       	subi	r30, 0x45	; 69
     730:	f5 4c       	sbci	r31, 0xC5	; 197
     732:	10 82       	st	Z, r1
                        iLED[EYE[G][L]] = dimValue;
     734:	e0 91 35 b5 	lds	r30, 0xB535	; 0x80b535 <__bss_end+0x7a2a>
     738:	f0 e0       	ldi	r31, 0x00	; 0
     73a:	80 91 09 38 	lds	r24, 0x3809	; 0x803809 <dimValue>
     73e:	e5 54       	subi	r30, 0x45	; 69
     740:	f5 4c       	sbci	r31, 0xC5	; 197
     742:	80 83       	st	Z, r24
                        iLED[EYE[G][R]] = dimValue;
     744:	e0 91 34 b5 	lds	r30, 0xB534	; 0x80b534 <__bss_end+0x7a29>
     748:	f0 e0       	ldi	r31, 0x00	; 0
     74a:	80 91 09 38 	lds	r24, 0x3809	; 0x803809 <dimValue>
     74e:	e5 54       	subi	r30, 0x45	; 69
     750:	f5 4c       	sbci	r31, 0xC5	; 197
     752:	80 83       	st	Z, r24
     754:	32 c0       	rjmp	.+100    	; 0x7ba <MagnetMaze+0x288>
                        /*state = STATE_MUSIC;*/
                    }
                } else {
                    gameNow   = TEXT;
     756:	10 92 2f 38 	sts	0x382F, r1	; 0x80382f <gameNow>
                    mazePos   = 0;
     75a:	10 92 3a 38 	sts	0x383A, r1	; 0x80383a <mazePos>
                    mazeState = TRUE;
     75e:	81 e0       	ldi	r24, 0x01	; 1
     760:	80 93 0a 38 	sts	0x380A, r24	; 0x80380a <mazeState>
                    iLED[SCARAB[G]]    = 0;
     764:	d0 e0       	ldi	r29, 0x00	; 0
     766:	c5 54       	subi	r28, 0x45	; 69
     768:	d5 4c       	sbci	r29, 0xC5	; 197
     76a:	18 82       	st	Y, r1
                    iLED[EYE[G][L]] = 0;
     76c:	e0 91 35 b5 	lds	r30, 0xB535	; 0x80b535 <__bss_end+0x7a2a>
     770:	f0 e0       	ldi	r31, 0x00	; 0
     772:	e5 54       	subi	r30, 0x45	; 69
     774:	f5 4c       	sbci	r31, 0xC5	; 197
     776:	10 82       	st	Z, r1
                    iLED[EYE[G][R]] = 0;
     778:	e0 91 34 b5 	lds	r30, 0xB534	; 0x80b534 <__bss_end+0x7a29>
     77c:	f0 e0       	ldi	r31, 0x00	; 0
     77e:	e5 54       	subi	r30, 0x45	; 69
     780:	f5 4c       	sbci	r31, 0xC5	; 197
     782:	10 82       	st	Z, r1
                    iLED[EYE[R][L]] = dimValue;
     784:	e0 91 33 b5 	lds	r30, 0xB533	; 0x80b533 <__bss_end+0x7a28>
     788:	f0 e0       	ldi	r31, 0x00	; 0
     78a:	80 91 09 38 	lds	r24, 0x3809	; 0x803809 <dimValue>
     78e:	e5 54       	subi	r30, 0x45	; 69
     790:	f5 4c       	sbci	r31, 0xC5	; 197
     792:	80 83       	st	Z, r24
                    iLED[EYE[R][R]] = dimValue;
     794:	e0 91 32 b5 	lds	r30, 0xB532	; 0x80b532 <__bss_end+0x7a27>
     798:	f0 e0       	ldi	r31, 0x00	; 0
     79a:	80 91 09 38 	lds	r24, 0x3809	; 0x803809 <dimValue>
     79e:	e5 54       	subi	r30, 0x45	; 69
     7a0:	f5 4c       	sbci	r31, 0xC5	; 197
     7a2:	80 83       	st	Z, r24
     7a4:	ac e3       	ldi	r26, 0x3C	; 60
     7a6:	b5 eb       	ldi	r27, 0xB5	; 181
                    for (int i=0; i<6; i++ )
                        iLED[HCKR[G][i]] = 0;
     7a8:	ed 91       	ld	r30, X+
     7aa:	f0 e0       	ldi	r31, 0x00	; 0
     7ac:	e5 54       	subi	r30, 0x45	; 69
     7ae:	f5 4c       	sbci	r31, 0xC5	; 197
     7b0:	10 82       	st	Z, r1
                    iLED[SCARAB[G]]    = 0;
                    iLED[EYE[G][L]] = 0;
                    iLED[EYE[G][R]] = 0;
                    iLED[EYE[R][L]] = dimValue;
                    iLED[EYE[R][R]] = dimValue;
                    for (int i=0; i<6; i++ )
     7b2:	85 eb       	ldi	r24, 0xB5	; 181
     7b4:	a2 34       	cpi	r26, 0x42	; 66
     7b6:	b8 07       	cpc	r27, r24
     7b8:	b9 f7       	brne	.-18     	; 0x7a8 <MagnetMaze+0x276>
                    iLED[HCKR[G][i]] = 0;
            }
        }
    }
    return 0;
}
     7ba:	80 e0       	ldi	r24, 0x00	; 0
     7bc:	df 91       	pop	r29
     7be:	cf 91       	pop	r28
     7c0:	08 95       	ret

000007c2 <Setup>:
// Select "audio" input (0-2.5V)
void SelectAuIn(){
     VREF_CTRLA   = 0x22;    //0x22 for audio in/out (2.5V), 0x12 for temperature in, audio out (1.1V/2.5V)
     ADC0_CTRLA   &= ~(ADC_RESSEL_bm);
     ADC0_MUXPOS  = 0x07;    //Audio in: AIN7 at (0x07), Temperature: Internal sensor at (0x1E)
     adc0Chg = 1;
     7c2:	cf 93       	push	r28
     7c4:	df 93       	push	r29
     7c6:	f8 94       	cli
     7c8:	88 ed       	ldi	r24, 0xD8	; 216
     7ca:	84 bf       	out	0x34, r24	; 52
     7cc:	c1 e0       	ldi	r28, 0x01	; 1
     7ce:	c0 93 61 00 	sts	0x0061, r28	; 0x800061 <__TEXT_REGION_LENGTH__+0x700061>
     7d2:	8a e4       	ldi	r24, 0x4A	; 74
     7d4:	80 93 00 04 	sts	0x0400, r24	; 0x800400 <__TEXT_REGION_LENGTH__+0x700400>
     7d8:	8c e7       	ldi	r24, 0x7C	; 124
     7da:	80 93 20 04 	sts	0x0420, r24	; 0x800420 <__TEXT_REGION_LENGTH__+0x700420>
     7de:	9f e3       	ldi	r25, 0x3F	; 63
     7e0:	90 93 40 04 	sts	0x0440, r25	; 0x800440 <__TEXT_REGION_LENGTH__+0x700440>
     7e4:	80 91 53 04 	lds	r24, 0x0453	; 0x800453 <__TEXT_REGION_LENGTH__+0x700453>
     7e8:	80 68       	ori	r24, 0x80	; 128
     7ea:	80 93 53 04 	sts	0x0453, r24	; 0x800453 <__TEXT_REGION_LENGTH__+0x700453>
     7ee:	80 91 54 04 	lds	r24, 0x0454	; 0x800454 <__TEXT_REGION_LENGTH__+0x700454>
     7f2:	80 68       	ori	r24, 0x80	; 128
     7f4:	80 93 54 04 	sts	0x0454, r24	; 0x800454 <__TEXT_REGION_LENGTH__+0x700454>
     7f8:	80 91 55 04 	lds	r24, 0x0455	; 0x800455 <__TEXT_REGION_LENGTH__+0x700455>
     7fc:	80 68       	ori	r24, 0x80	; 128
     7fe:	80 93 55 04 	sts	0x0455, r24	; 0x800455 <__TEXT_REGION_LENGTH__+0x700455>
     802:	80 91 33 04 	lds	r24, 0x0433	; 0x800433 <__TEXT_REGION_LENGTH__+0x700433>
     806:	80 68       	ori	r24, 0x80	; 128
     808:	80 93 33 04 	sts	0x0433, r24	; 0x800433 <__TEXT_REGION_LENGTH__+0x700433>
     80c:	80 91 34 04 	lds	r24, 0x0434	; 0x800434 <__TEXT_REGION_LENGTH__+0x700434>
     810:	80 68       	ori	r24, 0x80	; 128
     812:	80 93 34 04 	sts	0x0434, r24	; 0x800434 <__TEXT_REGION_LENGTH__+0x700434>
     816:	80 91 35 04 	lds	r24, 0x0435	; 0x800435 <__TEXT_REGION_LENGTH__+0x700435>
     81a:	80 68       	ori	r24, 0x80	; 128
     81c:	80 93 35 04 	sts	0x0435, r24	; 0x800435 <__TEXT_REGION_LENGTH__+0x700435>
     820:	c0 93 01 02 	sts	0x0201, r28	; 0x800201 <__TEXT_REGION_LENGTH__+0x700201>
     824:	d2 e0       	ldi	r29, 0x02	; 2
     826:	d0 93 05 04 	sts	0x0405, r29	; 0x800405 <__TEXT_REGION_LENGTH__+0x700405>
     82a:	2b e5       	ldi	r18, 0x5B	; 91
     82c:	31 e0       	ldi	r19, 0x01	; 1
     82e:	20 93 08 08 	sts	0x0808, r18	; 0x800808 <__TEXT_REGION_LENGTH__+0x700808>
     832:	30 93 09 08 	sts	0x0809, r19	; 0x800809 <__TEXT_REGION_LENGTH__+0x700809>
     836:	80 ea       	ldi	r24, 0xA0	; 160
     838:	80 93 05 08 	sts	0x0805, r24	; 0x800805 <__TEXT_REGION_LENGTH__+0x700805>
     83c:	80 ec       	ldi	r24, 0xC0	; 192
     83e:	80 93 06 08 	sts	0x0806, r24	; 0x800806 <__TEXT_REGION_LENGTH__+0x700806>
     842:	83 e0       	ldi	r24, 0x03	; 3
     844:	80 93 07 08 	sts	0x0807, r24	; 0x800807 <__TEXT_REGION_LENGTH__+0x700807>
     848:	1c ba       	out	0x1c, r1	; 28
     84a:	1d ba       	out	0x1d, r1	; 29
     84c:	1e ba       	out	0x1e, r1	; 30
     84e:	1f ba       	out	0x1f, r1	; 31
     850:	c0 93 03 0a 	sts	0x0A03, r28	; 0x800a03 <__TEXT_REGION_LENGTH__+0x700a03>
     854:	88 e0       	ldi	r24, 0x08	; 8
     856:	80 93 00 0a 	sts	0x0A00, r24	; 0x800a00 <__TEXT_REGION_LENGTH__+0x700a00>
     85a:	90 93 02 02 	sts	0x0202, r25	; 0x800202 <__TEXT_REGION_LENGTH__+0x700202>
     85e:	87 e7       	ldi	r24, 0x77	; 119
     860:	80 93 01 0a 	sts	0x0A01, r24	; 0x800a01 <__TEXT_REGION_LENGTH__+0x700a01>
     864:	c0 93 0a 0a 	sts	0x0A0A, r28	; 0x800a0a <__TEXT_REGION_LENGTH__+0x700a0a>
     868:	8b e0       	ldi	r24, 0x0B	; 11
     86a:	80 93 05 0a 	sts	0x0A05, r24	; 0x800a05 <__TEXT_REGION_LENGTH__+0x700a05>
     86e:	80 91 00 0a 	lds	r24, 0x0A00	; 0x800a00 <__TEXT_REGION_LENGTH__+0x700a00>
     872:	81 60       	ori	r24, 0x01	; 1
     874:	80 93 00 0a 	sts	0x0A00, r24	; 0x800a00 <__TEXT_REGION_LENGTH__+0x700a00>
     878:	85 e0       	ldi	r24, 0x05	; 5
     87a:	80 93 40 0a 	sts	0x0A40, r24	; 0x800a40 <__TEXT_REGION_LENGTH__+0x700a40>
     87e:	10 92 41 0a 	sts	0x0A41, r1	; 0x800a41 <__TEXT_REGION_LENGTH__+0x700a41>
     882:	8f ef       	ldi	r24, 0xFF	; 255
     884:	91 e0       	ldi	r25, 0x01	; 1
     886:	80 93 4c 0a 	sts	0x0A4C, r24	; 0x800a4c <__TEXT_REGION_LENGTH__+0x700a4c>
     88a:	90 93 4d 0a 	sts	0x0A4D, r25	; 0x800a4d <__TEXT_REGION_LENGTH__+0x700a4d>
     88e:	10 92 45 0a 	sts	0x0A45, r1	; 0x800a45 <__TEXT_REGION_LENGTH__+0x700a45>
     892:	c0 93 50 0a 	sts	0x0A50, r28	; 0x800a50 <__TEXT_REGION_LENGTH__+0x700a50>
     896:	10 92 51 0a 	sts	0x0A51, r1	; 0x800a51 <__TEXT_REGION_LENGTH__+0x700a51>
     89a:	8b e8       	ldi	r24, 0x8B	; 139
     89c:	93 e0       	ldi	r25, 0x03	; 3
     89e:	80 93 5c 0a 	sts	0x0A5C, r24	; 0x800a5c <__TEXT_REGION_LENGTH__+0x700a5c>
     8a2:	90 93 5d 0a 	sts	0x0A5D, r25	; 0x800a5d <__TEXT_REGION_LENGTH__+0x700a5d>
     8a6:	c0 93 55 0a 	sts	0x0A55, r28	; 0x800a55 <__TEXT_REGION_LENGTH__+0x700a55>
     8aa:	08 dc       	rcall	.-2032   	; 0xbc <I2C_init>
     8ac:	82 e1       	ldi	r24, 0x12	; 18
     8ae:	80 93 a0 00 	sts	0x00A0, r24	; 0x8000a0 <__TEXT_REGION_LENGTH__+0x7000a0>
     8b2:	80 e2       	ldi	r24, 0x20	; 32
     8b4:	80 93 a2 00 	sts	0x00A2, r24	; 0x8000a2 <__TEXT_REGION_LENGTH__+0x7000a2>
     8b8:	c0 93 a1 00 	sts	0x00A1, r28	; 0x8000a1 <__TEXT_REGION_LENGTH__+0x7000a1>
     8bc:	86 e0       	ldi	r24, 0x06	; 6
     8be:	80 93 00 06 	sts	0x0600, r24	; 0x800600 <__TEXT_REGION_LENGTH__+0x700600>
     8c2:	84 e4       	ldi	r24, 0x44	; 68
     8c4:	80 93 02 06 	sts	0x0602, r24	; 0x800602 <__TEXT_REGION_LENGTH__+0x700602>
     8c8:	8e e1       	ldi	r24, 0x1E	; 30
     8ca:	80 93 06 06 	sts	0x0606, r24	; 0x800606 <__TEXT_REGION_LENGTH__+0x700606>
     8ce:	c0 93 0a 06 	sts	0x060A, r28	; 0x80060a <__TEXT_REGION_LENGTH__+0x70060a>
     8d2:	80 91 00 06 	lds	r24, 0x0600	; 0x800600 <__TEXT_REGION_LENGTH__+0x700600>
     8d6:	81 60       	ori	r24, 0x01	; 1
     8d8:	80 93 00 06 	sts	0x0600, r24	; 0x800600 <__TEXT_REGION_LENGTH__+0x700600>
     8dc:	c0 93 08 06 	sts	0x0608, r28	; 0x800608 <__TEXT_REGION_LENGTH__+0x700608>
     8e0:	10 92 40 06 	sts	0x0640, r1	; 0x800640 <__TEXT_REGION_LENGTH__+0x700640>
     8e4:	d0 93 41 06 	sts	0x0641, r29	; 0x800641 <__TEXT_REGION_LENGTH__+0x700641>
     8e8:	82 e5       	ldi	r24, 0x52	; 82
     8ea:	80 93 42 06 	sts	0x0642, r24	; 0x800642 <__TEXT_REGION_LENGTH__+0x700642>
     8ee:	84 e0       	ldi	r24, 0x04	; 4
     8f0:	80 93 45 06 	sts	0x0645, r24	; 0x800645 <__TEXT_REGION_LENGTH__+0x700645>
     8f4:	80 93 46 06 	sts	0x0646, r24	; 0x800646 <__TEXT_REGION_LENGTH__+0x700646>
     8f8:	c0 93 4a 06 	sts	0x064A, r28	; 0x80064a <__TEXT_REGION_LENGTH__+0x70064a>
     8fc:	80 91 40 06 	lds	r24, 0x0640	; 0x800640 <__TEXT_REGION_LENGTH__+0x700640>
     900:	81 60       	ori	r24, 0x01	; 1
     902:	80 93 40 06 	sts	0x0640, r24	; 0x800640 <__TEXT_REGION_LENGTH__+0x700640>
     906:	c0 93 48 06 	sts	0x0648, r28	; 0x800648 <__TEXT_REGION_LENGTH__+0x700648>
     90a:	80 e4       	ldi	r24, 0x40	; 64
     90c:	80 93 a0 06 	sts	0x06A0, r24	; 0x8006a0 <__TEXT_REGION_LENGTH__+0x7006a0>
     910:	80 e8       	ldi	r24, 0x80	; 128
     912:	80 93 a1 06 	sts	0x06A1, r24	; 0x8006a1 <__TEXT_REGION_LENGTH__+0x7006a1>
     916:	80 91 a0 06 	lds	r24, 0x06A0	; 0x8006a0 <__TEXT_REGION_LENGTH__+0x7006a0>
     91a:	81 60       	ori	r24, 0x01	; 1
     91c:	80 93 a0 06 	sts	0x06A0, r24	; 0x8006a0 <__TEXT_REGION_LENGTH__+0x7006a0>
     920:	80 91 41 01 	lds	r24, 0x0141	; 0x800141 <__TEXT_REGION_LENGTH__+0x700141>
     924:	80 fd       	sbrc	r24, 0
     926:	fc cf       	rjmp	.-8      	; 0x920 <Setup+0x15e>
     928:	80 e3       	ldi	r24, 0x30	; 48
     92a:	80 93 40 01 	sts	0x0140, r24	; 0x800140 <__TEXT_REGION_LENGTH__+0x700140>
     92e:	10 92 47 01 	sts	0x0147, r1	; 0x800147 <__TEXT_REGION_LENGTH__+0x700147>
     932:	80 91 41 01 	lds	r24, 0x0141	; 0x800141 <__TEXT_REGION_LENGTH__+0x700141>
     936:	82 fd       	sbrc	r24, 2
     938:	fc cf       	rjmp	.-8      	; 0x932 <Setup+0x170>
     93a:	80 e0       	ldi	r24, 0x00	; 0
     93c:	98 e7       	ldi	r25, 0x78	; 120
     93e:	80 93 4a 01 	sts	0x014A, r24	; 0x80014a <__TEXT_REGION_LENGTH__+0x70014a>
     942:	90 93 4b 01 	sts	0x014B, r25	; 0x80014b <__TEXT_REGION_LENGTH__+0x70014b>
     946:	80 91 48 01 	lds	r24, 0x0148	; 0x800148 <__TEXT_REGION_LENGTH__+0x700148>
     94a:	90 91 49 01 	lds	r25, 0x0149	; 0x800149 <__TEXT_REGION_LENGTH__+0x700149>
     94e:	60 91 4a 01 	lds	r22, 0x014A	; 0x80014a <__TEXT_REGION_LENGTH__+0x70014a>
     952:	70 91 4b 01 	lds	r23, 0x014B	; 0x80014b <__TEXT_REGION_LENGTH__+0x70014b>
     956:	82 96       	adiw	r24, 0x22	; 34
     958:	0e 94 33 1a 	call	0x3466	; 0x3466 <__udivmodhi4>
     95c:	80 93 e8 3a 	sts	0x3AE8, r24	; 0x803ae8 <tmp16bit>
     960:	90 93 e9 3a 	sts	0x3AE9, r25	; 0x803ae9 <tmp16bit+0x1>
     964:	80 91 41 01 	lds	r24, 0x0141	; 0x800141 <__TEXT_REGION_LENGTH__+0x700141>
     968:	83 fd       	sbrc	r24, 3
     96a:	fc cf       	rjmp	.-8      	; 0x964 <Setup+0x1a2>
     96c:	80 91 e8 3a 	lds	r24, 0x3AE8	; 0x803ae8 <tmp16bit>
     970:	90 91 e9 3a 	lds	r25, 0x3AE9	; 0x803ae9 <tmp16bit+0x1>
     974:	80 93 4c 01 	sts	0x014C, r24	; 0x80014c <__TEXT_REGION_LENGTH__+0x70014c>
     978:	90 93 4d 01 	sts	0x014D, r25	; 0x80014d <__TEXT_REGION_LENGTH__+0x70014d>
     97c:	83 e0       	ldi	r24, 0x03	; 3
     97e:	80 93 42 01 	sts	0x0142, r24	; 0x800142 <__TEXT_REGION_LENGTH__+0x700142>
     982:	81 e0       	ldi	r24, 0x01	; 1
     984:	80 93 52 01 	sts	0x0152, r24	; 0x800152 <__TEXT_REGION_LENGTH__+0x700152>
     988:	88 e0       	ldi	r24, 0x08	; 8
     98a:	80 93 50 01 	sts	0x0150, r24	; 0x800150 <__TEXT_REGION_LENGTH__+0x700150>
     98e:	80 91 41 01 	lds	r24, 0x0141	; 0x800141 <__TEXT_REGION_LENGTH__+0x700141>
     992:	80 fd       	sbrc	r24, 0
     994:	fc cf       	rjmp	.-8      	; 0x98e <Setup+0x1cc>
     996:	80 91 40 01 	lds	r24, 0x0140	; 0x800140 <__TEXT_REGION_LENGTH__+0x700140>
     99a:	81 60       	ori	r24, 0x01	; 1
     99c:	80 93 40 01 	sts	0x0140, r24	; 0x800140 <__TEXT_REGION_LENGTH__+0x700140>
     9a0:	80 91 50 01 	lds	r24, 0x0150	; 0x800150 <__TEXT_REGION_LENGTH__+0x700150>
     9a4:	81 60       	ori	r24, 0x01	; 1
     9a6:	80 93 50 01 	sts	0x0150, r24	; 0x800150 <__TEXT_REGION_LENGTH__+0x700150>
     9aa:	10 92 4e 3a 	sts	0x3A4E, r1	; 0x803a4e <serRx>
     9ae:	8e e4       	ldi	r24, 0x4E	; 78
     9b0:	9a e3       	ldi	r25, 0x3A	; 58
     9b2:	80 93 92 3a 	sts	0x3A92, r24	; 0x803a92 <serTxAddr>
     9b6:	90 93 93 3a 	sts	0x3A93, r25	; 0x803a93 <serTxAddr+0x1>
     9ba:	78 94       	sei
     9bc:	df 91       	pop	r29
     9be:	cf 91       	pop	r28
     9c0:	08 95       	ret

000009c2 <__vector_8>:
     9c2:	1f 92       	push	r1
     9c4:	0f 92       	push	r0
     9c6:	0f b6       	in	r0, 0x3f	; 63
     9c8:	0f 92       	push	r0
     9ca:	11 24       	eor	r1, r1
     9cc:	8f 93       	push	r24
     9ce:	9f 93       	push	r25
     9d0:	af 93       	push	r26
     9d2:	bf 93       	push	r27
     9d4:	ef 93       	push	r30
     9d6:	ff 93       	push	r31
     9d8:	87 e0       	ldi	r24, 0x07	; 7
     9da:	80 93 46 04 	sts	0x0446, r24	; 0x800446 <__TEXT_REGION_LENGTH__+0x700446>
     9de:	84 e4       	ldi	r24, 0x44	; 68
     9e0:	80 93 26 04 	sts	0x0426, r24	; 0x800426 <__TEXT_REGION_LENGTH__+0x700426>
     9e4:	ec b3       	in	r30, 0x1c	; 28
     9e6:	88 e0       	ldi	r24, 0x08	; 8
     9e8:	e8 9f       	mul	r30, r24
     9ea:	f0 01       	movw	r30, r0
     9ec:	11 24       	eor	r1, r1
     9ee:	e5 54       	subi	r30, 0x45	; 69
     9f0:	f5 4c       	sbci	r31, 0xC5	; 197
     9f2:	a8 e2       	ldi	r26, 0x28	; 40
     9f4:	ba e0       	ldi	r27, 0x0A	; 10
     9f6:	96 e0       	ldi	r25, 0x06	; 6
     9f8:	81 91       	ld	r24, Z+
     9fa:	8d 93       	st	X+, r24
     9fc:	9a 95       	dec	r25
     9fe:	e1 f7       	brne	.-8      	; 0x9f8 <__vector_8+0x36>
     a00:	8b e0       	ldi	r24, 0x0B	; 11
     a02:	80 93 05 0a 	sts	0x0A05, r24	; 0x800a05 <__TEXT_REGION_LENGTH__+0x700a05>
     a06:	8c b3       	in	r24, 0x1c	; 28
     a08:	83 30       	cpi	r24, 0x03	; 3
     a0a:	58 f4       	brcc	.+22     	; 0xa22 <__vector_8+0x60>
     a0c:	8c b3       	in	r24, 0x1c	; 28
     a0e:	91 e0       	ldi	r25, 0x01	; 1
     a10:	01 c0       	rjmp	.+2      	; 0xa14 <__vector_8+0x52>
     a12:	99 0f       	add	r25, r25
     a14:	8a 95       	dec	r24
     a16:	ea f7       	brpl	.-6      	; 0xa12 <__vector_8+0x50>
     a18:	99 b9       	out	0x09, r25	; 9
     a1a:	8c b3       	in	r24, 0x1c	; 28
     a1c:	83 95       	inc	r24
     a1e:	8c bb       	out	0x1c, r24	; 28
     a20:	0a c0       	rjmp	.+20     	; 0xa36 <__vector_8+0x74>
     a22:	8c b3       	in	r24, 0x1c	; 28
     a24:	83 30       	cpi	r24, 0x03	; 3
     a26:	21 f4       	brne	.+8      	; 0xa30 <__vector_8+0x6e>
     a28:	2a 9a       	sbi	0x05, 2	; 5
     a2a:	83 95       	inc	r24
     a2c:	8c bb       	out	0x1c, r24	; 28
     a2e:	03 c0       	rjmp	.+6      	; 0xa36 <__vector_8+0x74>
     a30:	2e 9a       	sbi	0x05, 6	; 5
     a32:	88 27       	eor	r24, r24
     a34:	8c bb       	out	0x1c, r24	; 28
     a36:	80 91 39 3a 	lds	r24, 0x3A39	; 0x803a39 <timeout_I2C>
     a3a:	88 23       	and	r24, r24
     a3c:	29 f0       	breq	.+10     	; 0xa48 <__vector_8+0x86>
     a3e:	80 91 39 3a 	lds	r24, 0x3A39	; 0x803a39 <timeout_I2C>
     a42:	81 50       	subi	r24, 0x01	; 1
     a44:	80 93 39 3a 	sts	0x3A39, r24	; 0x803a39 <timeout_I2C>
     a48:	8f ef       	ldi	r24, 0xFF	; 255
     a4a:	80 93 0b 0a 	sts	0x0A0B, r24	; 0x800a0b <__TEXT_REGION_LENGTH__+0x700a0b>
     a4e:	ff 91       	pop	r31
     a50:	ef 91       	pop	r30
     a52:	bf 91       	pop	r27
     a54:	af 91       	pop	r26
     a56:	9f 91       	pop	r25
     a58:	8f 91       	pop	r24
     a5a:	0f 90       	pop	r0
     a5c:	0f be       	out	0x3f, r0	; 63
     a5e:	0f 90       	pop	r0
     a60:	1f 90       	pop	r1
     a62:	18 95       	reti

00000a64 <__vector_13>:
     a64:	1f 92       	push	r1
     a66:	0f 92       	push	r0
     a68:	0f b6       	in	r0, 0x3f	; 63
     a6a:	0f 92       	push	r0
     a6c:	11 24       	eor	r1, r1
     a6e:	8f 93       	push	r24
     a70:	9f 93       	push	r25
     a72:	ef 93       	push	r30
     a74:	ff 93       	push	r31
     a76:	e0 91 92 3a 	lds	r30, 0x3A92	; 0x803a92 <serTxAddr>
     a7a:	f0 91 93 3a 	lds	r31, 0x3A93	; 0x803a93 <serTxAddr+0x1>
     a7e:	80 81       	ld	r24, Z
     a80:	88 23       	and	r24, r24
     a82:	91 f0       	breq	.+36     	; 0xaa8 <__vector_13+0x44>
     a84:	80 81       	ld	r24, Z
     a86:	80 93 02 08 	sts	0x0802, r24	; 0x800802 <__TEXT_REGION_LENGTH__+0x700802>
     a8a:	80 91 92 3a 	lds	r24, 0x3A92	; 0x803a92 <serTxAddr>
     a8e:	90 91 93 3a 	lds	r25, 0x3A93	; 0x803a93 <serTxAddr+0x1>
     a92:	01 96       	adiw	r24, 0x01	; 1
     a94:	80 93 92 3a 	sts	0x3A92, r24	; 0x803a92 <serTxAddr>
     a98:	90 93 93 3a 	sts	0x3A93, r25	; 0x803a93 <serTxAddr+0x1>
     a9c:	80 91 05 08 	lds	r24, 0x0805	; 0x800805 <__TEXT_REGION_LENGTH__+0x700805>
     aa0:	80 62       	ori	r24, 0x20	; 32
     aa2:	80 93 05 08 	sts	0x0805, r24	; 0x800805 <__TEXT_REGION_LENGTH__+0x700805>
     aa6:	05 c0       	rjmp	.+10     	; 0xab2 <__vector_13+0x4e>
     aa8:	81 e0       	ldi	r24, 0x01	; 1
     aaa:	80 93 08 38 	sts	0x3808, r24	; 0x803808 <serTxDone>
     aae:	10 92 45 0a 	sts	0x0A45, r1	; 0x800a45 <__TEXT_REGION_LENGTH__+0x700a45>
     ab2:	81 e0       	ldi	r24, 0x01	; 1
     ab4:	80 93 46 0a 	sts	0x0A46, r24	; 0x800a46 <__TEXT_REGION_LENGTH__+0x700a46>
     ab8:	ff 91       	pop	r31
     aba:	ef 91       	pop	r30
     abc:	9f 91       	pop	r25
     abe:	8f 91       	pop	r24
     ac0:	0f 90       	pop	r0
     ac2:	0f be       	out	0x3f, r0	; 63
     ac4:	0f 90       	pop	r0
     ac6:	1f 90       	pop	r1
     ac8:	18 95       	reti

00000aca <__vector_14>:
     aca:	1f 92       	push	r1
     acc:	0f 92       	push	r0
     ace:	0f b6       	in	r0, 0x3f	; 63
     ad0:	0f 92       	push	r0
     ad2:	11 24       	eor	r1, r1
     ad4:	2f 93       	push	r18
     ad6:	3f 93       	push	r19
     ad8:	4f 93       	push	r20
     ada:	8f 93       	push	r24
     adc:	9f 93       	push	r25
     ade:	ef 93       	push	r30
     ae0:	ff 93       	push	r31
     ae2:	e0 91 05 38 	lds	r30, 0x3805	; 0x803805 <auSmpAddr>
     ae6:	f0 91 06 38 	lds	r31, 0x3806	; 0x803806 <auSmpAddr+0x1>
     aea:	80 81       	ld	r24, Z
     aec:	81 11       	cpse	r24, r1
     aee:	08 c0       	rjmp	.+16     	; 0xb00 <__vector_14+0x36>
     af0:	80 91 03 38 	lds	r24, 0x3803	; 0x803803 <auRepAddr>
     af4:	90 91 04 38 	lds	r25, 0x3804	; 0x803804 <auRepAddr+0x1>
     af8:	80 93 05 38 	sts	0x3805, r24	; 0x803805 <auSmpAddr>
     afc:	90 93 06 38 	sts	0x3806, r25	; 0x803806 <auSmpAddr+0x1>
     b00:	e0 91 05 38 	lds	r30, 0x3805	; 0x803805 <auSmpAddr>
     b04:	f0 91 06 38 	lds	r31, 0x3806	; 0x803806 <auSmpAddr+0x1>
     b08:	80 81       	ld	r24, Z
     b0a:	88 23       	and	r24, r24
     b0c:	e1 f0       	breq	.+56     	; 0xb46 <__vector_14+0x7c>
     b0e:	20 81       	ld	r18, Z
     b10:	40 91 8f 3a 	lds	r20, 0x3A8F	; 0x803a8f <auVolume>
     b14:	30 e0       	ldi	r19, 0x00	; 0
     b16:	2f 57       	subi	r18, 0x7F	; 127
     b18:	31 09       	sbc	r19, r1
     b1a:	42 9f       	mul	r20, r18
     b1c:	c0 01       	movw	r24, r0
     b1e:	43 9f       	mul	r20, r19
     b20:	90 0d       	add	r25, r0
     b22:	11 24       	eor	r1, r1
     b24:	89 2f       	mov	r24, r25
     b26:	99 0f       	add	r25, r25
     b28:	99 0b       	sbc	r25, r25
     b2a:	80 58       	subi	r24, 0x80	; 128
     b2c:	9f 4f       	sbci	r25, 0xFF	; 255
     b2e:	80 93 a1 06 	sts	0x06A1, r24	; 0x8006a1 <__TEXT_REGION_LENGTH__+0x7006a1>
     b32:	80 91 05 38 	lds	r24, 0x3805	; 0x803805 <auSmpAddr>
     b36:	90 91 06 38 	lds	r25, 0x3806	; 0x803806 <auSmpAddr+0x1>
     b3a:	01 96       	adiw	r24, 0x01	; 1
     b3c:	80 93 05 38 	sts	0x3805, r24	; 0x803805 <auSmpAddr>
     b40:	90 93 06 38 	sts	0x3806, r25	; 0x803806 <auSmpAddr+0x1>
     b44:	06 c0       	rjmp	.+12     	; 0xb52 <__vector_14+0x88>
     b46:	80 e8       	ldi	r24, 0x80	; 128
     b48:	80 93 a1 06 	sts	0x06A1, r24	; 0x8006a1 <__TEXT_REGION_LENGTH__+0x7006a1>
     b4c:	81 e0       	ldi	r24, 0x01	; 1
     b4e:	80 93 e3 3a 	sts	0x3AE3, r24	; 0x803ae3 <auPlayDone>
     b52:	81 e0       	ldi	r24, 0x01	; 1
     b54:	80 93 56 0a 	sts	0x0A56, r24	; 0x800a56 <__TEXT_REGION_LENGTH__+0x700a56>
     b58:	ff 91       	pop	r31
     b5a:	ef 91       	pop	r30
     b5c:	9f 91       	pop	r25
     b5e:	8f 91       	pop	r24
     b60:	4f 91       	pop	r20
     b62:	3f 91       	pop	r19
     b64:	2f 91       	pop	r18
     b66:	0f 90       	pop	r0
     b68:	0f be       	out	0x3f, r0	; 63
     b6a:	0f 90       	pop	r0
     b6c:	1f 90       	pop	r1
     b6e:	18 95       	reti

00000b70 <__vector_27>:
     b70:	1f 92       	push	r1
     b72:	0f 92       	push	r0
     b74:	0f b6       	in	r0, 0x3f	; 63
     b76:	0f 92       	push	r0
     b78:	11 24       	eor	r1, r1
     b7a:	8f 93       	push	r24
     b7c:	ef 93       	push	r30
     b7e:	ff 93       	push	r31
     b80:	80 91 37 38 	lds	r24, 0x3837	; 0x803837 <serRxDone>
     b84:	81 11       	cpse	r24, r1
     b86:	44 c0       	rjmp	.+136    	; 0xc10 <__vector_27+0xa0>
     b88:	ed b3       	in	r30, 0x1d	; 29
     b8a:	f0 e0       	ldi	r31, 0x00	; 0
     b8c:	80 91 00 08 	lds	r24, 0x0800	; 0x800800 <__TEXT_REGION_LENGTH__+0x700800>
     b90:	e2 5b       	subi	r30, 0xB2	; 178
     b92:	f5 4c       	sbci	r31, 0xC5	; 197
     b94:	80 83       	st	Z, r24
     b96:	ed b3       	in	r30, 0x1d	; 29
     b98:	f0 e0       	ldi	r31, 0x00	; 0
     b9a:	e2 5b       	subi	r30, 0xB2	; 178
     b9c:	f5 4c       	sbci	r31, 0xC5	; 197
     b9e:	80 81       	ld	r24, Z
     ba0:	80 93 02 08 	sts	0x0802, r24	; 0x800802 <__TEXT_REGION_LENGTH__+0x700802>
     ba4:	ed b3       	in	r30, 0x1d	; 29
     ba6:	f0 e0       	ldi	r31, 0x00	; 0
     ba8:	e2 5b       	subi	r30, 0xB2	; 178
     baa:	f5 4c       	sbci	r31, 0xC5	; 197
     bac:	80 81       	ld	r24, Z
     bae:	8a 30       	cpi	r24, 0x0A	; 10
     bb0:	39 f0       	breq	.+14     	; 0xbc0 <__vector_27+0x50>
     bb2:	ed b3       	in	r30, 0x1d	; 29
     bb4:	f0 e0       	ldi	r31, 0x00	; 0
     bb6:	e2 5b       	subi	r30, 0xB2	; 178
     bb8:	f5 4c       	sbci	r31, 0xC5	; 197
     bba:	80 81       	ld	r24, Z
     bbc:	8d 30       	cpi	r24, 0x0D	; 13
     bbe:	49 f4       	brne	.+18     	; 0xbd2 <__vector_27+0x62>
     bc0:	ed b3       	in	r30, 0x1d	; 29
     bc2:	f0 e0       	ldi	r31, 0x00	; 0
     bc4:	e2 5b       	subi	r30, 0xB2	; 178
     bc6:	f5 4c       	sbci	r31, 0xC5	; 197
     bc8:	10 82       	st	Z, r1
     bca:	81 e0       	ldi	r24, 0x01	; 1
     bcc:	80 93 37 38 	sts	0x3837, r24	; 0x803837 <serRxDone>
     bd0:	1f c0       	rjmp	.+62     	; 0xc10 <__vector_27+0xa0>
     bd2:	ed b3       	in	r30, 0x1d	; 29
     bd4:	f0 e0       	ldi	r31, 0x00	; 0
     bd6:	e2 5b       	subi	r30, 0xB2	; 178
     bd8:	f5 4c       	sbci	r31, 0xC5	; 197
     bda:	80 81       	ld	r24, Z
     bdc:	88 30       	cpi	r24, 0x08	; 8
     bde:	39 f0       	breq	.+14     	; 0xbee <__vector_27+0x7e>
     be0:	ed b3       	in	r30, 0x1d	; 29
     be2:	f0 e0       	ldi	r31, 0x00	; 0
     be4:	e2 5b       	subi	r30, 0xB2	; 178
     be6:	f5 4c       	sbci	r31, 0xC5	; 197
     be8:	80 81       	ld	r24, Z
     bea:	8f 37       	cpi	r24, 0x7F	; 127
     bec:	59 f4       	brne	.+22     	; 0xc04 <__vector_27+0x94>
     bee:	8d b3       	in	r24, 0x1d	; 29
     bf0:	88 23       	and	r24, r24
     bf2:	41 f0       	breq	.+16     	; 0xc04 <__vector_27+0x94>
     bf4:	ed b3       	in	r30, 0x1d	; 29
     bf6:	f0 e0       	ldi	r31, 0x00	; 0
     bf8:	e2 5b       	subi	r30, 0xB2	; 178
     bfa:	f5 4c       	sbci	r31, 0xC5	; 197
     bfc:	10 82       	st	Z, r1
     bfe:	8d b3       	in	r24, 0x1d	; 29
     c00:	81 50       	subi	r24, 0x01	; 1
     c02:	05 c0       	rjmp	.+10     	; 0xc0e <__vector_27+0x9e>
     c04:	8d b3       	in	r24, 0x1d	; 29
     c06:	80 34       	cpi	r24, 0x40	; 64
     c08:	18 f4       	brcc	.+6      	; 0xc10 <__vector_27+0xa0>
     c0a:	8d b3       	in	r24, 0x1d	; 29
     c0c:	8f 5f       	subi	r24, 0xFF	; 255
     c0e:	8d bb       	out	0x1d, r24	; 29
     c10:	80 e8       	ldi	r24, 0x80	; 128
     c12:	80 93 04 08 	sts	0x0804, r24	; 0x800804 <__TEXT_REGION_LENGTH__+0x700804>
     c16:	ff 91       	pop	r31
     c18:	ef 91       	pop	r30
     c1a:	8f 91       	pop	r24
     c1c:	0f 90       	pop	r0
     c1e:	0f be       	out	0x3f, r0	; 63
     c20:	0f 90       	pop	r0
     c22:	1f 90       	pop	r1
     c24:	18 95       	reti

00000c26 <__vector_28>:
     c26:	1f 92       	push	r1
     c28:	0f 92       	push	r0
     c2a:	0f b6       	in	r0, 0x3f	; 63
     c2c:	0f 92       	push	r0
     c2e:	11 24       	eor	r1, r1
     c30:	8f 93       	push	r24
     c32:	ef 93       	push	r30
     c34:	ff 93       	push	r31
     c36:	10 92 4a 0a 	sts	0x0A4A, r1	; 0x800a4a <__TEXT_REGION_LENGTH__+0x700a4a>
     c3a:	10 92 4b 0a 	sts	0x0A4B, r1	; 0x800a4b <__TEXT_REGION_LENGTH__+0x700a4b>
     c3e:	81 e0       	ldi	r24, 0x01	; 1
     c40:	80 93 45 0a 	sts	0x0A45, r24	; 0x800a45 <__TEXT_REGION_LENGTH__+0x700a45>
     c44:	e5 e0       	ldi	r30, 0x05	; 5
     c46:	f8 e0       	ldi	r31, 0x08	; 8
     c48:	80 81       	ld	r24, Z
     c4a:	8f 7d       	andi	r24, 0xDF	; 223
     c4c:	80 83       	st	Z, r24
     c4e:	ff 91       	pop	r31
     c50:	ef 91       	pop	r30
     c52:	8f 91       	pop	r24
     c54:	0f 90       	pop	r0
     c56:	0f be       	out	0x3f, r0	; 63
     c58:	0f 90       	pop	r0
     c5a:	1f 90       	pop	r1
     c5c:	18 95       	reti

00000c5e <__vector_20>:
     c5e:	1f 92       	push	r1
     c60:	0f 92       	push	r0
     c62:	0f b6       	in	r0, 0x3f	; 63
     c64:	0f 92       	push	r0
     c66:	11 24       	eor	r1, r1
     c68:	8f 93       	push	r24
     c6a:	9f 93       	push	r25
     c6c:	ef 93       	push	r30
     c6e:	ff 93       	push	r31
     c70:	80 91 2a 38 	lds	r24, 0x382A	; 0x80382a <adc0Chg>
     c74:	81 11       	cpse	r24, r1
     c76:	18 c0       	rjmp	.+48     	; 0xca8 <__vector_20+0x4a>
     c78:	8e b3       	in	r24, 0x1e	; 30
     c7a:	8f 5f       	subi	r24, 0xFF	; 255
     c7c:	8f 71       	andi	r24, 0x1F	; 31
     c7e:	8e bb       	out	0x1e, r24	; 30
     c80:	80 91 06 06 	lds	r24, 0x0606	; 0x800606 <__TEXT_REGION_LENGTH__+0x700606>
     c84:	8e 31       	cpi	r24, 0x1E	; 30
     c86:	41 f4       	brne	.+16     	; 0xc98 <__vector_20+0x3a>
     c88:	80 91 10 06 	lds	r24, 0x0610	; 0x800610 <__TEXT_REGION_LENGTH__+0x700610>
     c8c:	90 e0       	ldi	r25, 0x00	; 0
     c8e:	80 93 e6 3a 	sts	0x3AE6, r24	; 0x803ae6 <adcTemp>
     c92:	90 93 e7 3a 	sts	0x3AE7, r25	; 0x803ae7 <adcTemp+0x1>
     c96:	0a c0       	rjmp	.+20     	; 0xcac <__vector_20+0x4e>
     c98:	ee b3       	in	r30, 0x1e	; 30
     c9a:	f0 e0       	ldi	r31, 0x00	; 0
     c9c:	80 91 10 06 	lds	r24, 0x0610	; 0x800610 <__TEXT_REGION_LENGTH__+0x700610>
     ca0:	e5 56       	subi	r30, 0x65	; 101
     ca2:	f5 4c       	sbci	r31, 0xC5	; 197
     ca4:	80 83       	st	Z, r24
     ca6:	02 c0       	rjmp	.+4      	; 0xcac <__vector_20+0x4e>
     ca8:	10 92 2a 38 	sts	0x382A, r1	; 0x80382a <adc0Chg>
     cac:	81 e0       	ldi	r24, 0x01	; 1
     cae:	80 93 0b 06 	sts	0x060B, r24	; 0x80060b <__TEXT_REGION_LENGTH__+0x70060b>
     cb2:	ff 91       	pop	r31
     cb4:	ef 91       	pop	r30
     cb6:	9f 91       	pop	r25
     cb8:	8f 91       	pop	r24
     cba:	0f 90       	pop	r0
     cbc:	0f be       	out	0x3f, r0	; 63
     cbe:	0f 90       	pop	r0
     cc0:	1f 90       	pop	r1
     cc2:	18 95       	reti

00000cc4 <__vector_22>:
     cc4:	1f 92       	push	r1
     cc6:	0f 92       	push	r0
     cc8:	0f b6       	in	r0, 0x3f	; 63
     cca:	0f 92       	push	r0
     ccc:	11 24       	eor	r1, r1
     cce:	8f 93       	push	r24
     cd0:	9f 93       	push	r25
     cd2:	80 91 46 06 	lds	r24, 0x0646	; 0x800646 <__TEXT_REGION_LENGTH__+0x700646>
     cd6:	81 11       	cpse	r24, r1
     cd8:	0a c0       	rjmp	.+20     	; 0xcee <__vector_22+0x2a>
     cda:	80 91 50 06 	lds	r24, 0x0650	; 0x800650 <__TEXT_REGION_LENGTH__+0x700650>
     cde:	90 91 51 06 	lds	r25, 0x0651	; 0x800651 <__TEXT_REGION_LENGTH__+0x700651>
     ce2:	80 93 96 3a 	sts	0x3A96, r24	; 0x803a96 <adcPhot>
     ce6:	90 93 97 3a 	sts	0x3A97, r25	; 0x803a97 <adcPhot+0x1>
     cea:	81 e0       	ldi	r24, 0x01	; 1
     cec:	10 c0       	rjmp	.+32     	; 0xd0e <__vector_22+0x4a>
     cee:	80 91 46 06 	lds	r24, 0x0646	; 0x800646 <__TEXT_REGION_LENGTH__+0x700646>
     cf2:	81 30       	cpi	r24, 0x01	; 1
     cf4:	79 f4       	brne	.+30     	; 0xd14 <__vector_22+0x50>
     cf6:	88 e0       	ldi	r24, 0x08	; 8
     cf8:	80 93 06 04 	sts	0x0406, r24	; 0x800406 <__TEXT_REGION_LENGTH__+0x700406>
     cfc:	80 91 50 06 	lds	r24, 0x0650	; 0x800650 <__TEXT_REGION_LENGTH__+0x700650>
     d00:	90 91 51 06 	lds	r25, 0x0651	; 0x800651 <__TEXT_REGION_LENGTH__+0x700651>
     d04:	80 93 94 3a 	sts	0x3A94, r24	; 0x803a94 <adcHall>
     d08:	90 93 95 3a 	sts	0x3A95, r25	; 0x803a95 <adcHall+0x1>
     d0c:	84 e0       	ldi	r24, 0x04	; 4
     d0e:	80 93 46 06 	sts	0x0646, r24	; 0x800646 <__TEXT_REGION_LENGTH__+0x700646>
     d12:	10 c0       	rjmp	.+32     	; 0xd34 <__vector_22+0x70>
     d14:	80 91 50 06 	lds	r24, 0x0650	; 0x800650 <__TEXT_REGION_LENGTH__+0x700650>
     d18:	90 91 51 06 	lds	r25, 0x0651	; 0x800651 <__TEXT_REGION_LENGTH__+0x700651>
     d1c:	80 93 90 3a 	sts	0x3A90, r24	; 0x803a90 <adcBtns>
     d20:	90 93 91 3a 	sts	0x3A91, r25	; 0x803a91 <adcBtns+0x1>
     d24:	8f b3       	in	r24, 0x1f	; 31
     d26:	8f 30       	cpi	r24, 0x0F	; 15
     d28:	29 f4       	brne	.+10     	; 0xd34 <__vector_22+0x70>
     d2a:	10 92 46 06 	sts	0x0646, r1	; 0x800646 <__TEXT_REGION_LENGTH__+0x700646>
     d2e:	88 e0       	ldi	r24, 0x08	; 8
     d30:	80 93 05 04 	sts	0x0405, r24	; 0x800405 <__TEXT_REGION_LENGTH__+0x700405>
     d34:	8f b3       	in	r24, 0x1f	; 31
     d36:	90 e0       	ldi	r25, 0x00	; 0
     d38:	01 96       	adiw	r24, 0x01	; 1
     d3a:	8f 70       	andi	r24, 0x0F	; 15
     d3c:	99 27       	eor	r25, r25
     d3e:	8f bb       	out	0x1f, r24	; 31
     d40:	81 e0       	ldi	r24, 0x01	; 1
     d42:	80 93 4b 06 	sts	0x064B, r24	; 0x80064b <__TEXT_REGION_LENGTH__+0x70064b>
     d46:	9f 91       	pop	r25
     d48:	8f 91       	pop	r24
     d4a:	0f 90       	pop	r0
     d4c:	0f be       	out	0x3f, r0	; 63
     d4e:	0f 90       	pop	r0
     d50:	1f 90       	pop	r1
     d52:	18 95       	reti

00000d54 <__vector_6>:
     d54:	1f 92       	push	r1
     d56:	0f 92       	push	r0
     d58:	0f b6       	in	r0, 0x3f	; 63
     d5a:	0f 92       	push	r0
     d5c:	11 24       	eor	r1, r1
     d5e:	5f 93       	push	r21
     d60:	6f 93       	push	r22
     d62:	7f 93       	push	r23
     d64:	8f 93       	push	r24
     d66:	9f 93       	push	r25
     d68:	af 93       	push	r26
     d6a:	bf 93       	push	r27
     d6c:	80 91 43 01 	lds	r24, 0x0143	; 0x800143 <__TEXT_REGION_LENGTH__+0x700143>
     d70:	81 ff       	sbrs	r24, 1
     d72:	26 c0       	rjmp	.+76     	; 0xdc0 <__vector_6+0x6c>
     d74:	80 91 35 38 	lds	r24, 0x3835	; 0x803835 <buttonMark>
     d78:	8f 3f       	cpi	r24, 0xFF	; 255
     d7a:	29 f0       	breq	.+10     	; 0xd86 <__vector_6+0x32>
     d7c:	80 91 35 38 	lds	r24, 0x3835	; 0x803835 <buttonMark>
     d80:	8f 5f       	subi	r24, 0xFF	; 255
     d82:	80 93 35 38 	sts	0x3835, r24	; 0x803835 <buttonMark>
     d86:	80 91 48 01 	lds	r24, 0x0148	; 0x800148 <__TEXT_REGION_LENGTH__+0x700148>
     d8a:	90 91 49 01 	lds	r25, 0x0149	; 0x800149 <__TEXT_REGION_LENGTH__+0x700149>
     d8e:	60 91 4a 01 	lds	r22, 0x014A	; 0x80014a <__TEXT_REGION_LENGTH__+0x70014a>
     d92:	70 91 4b 01 	lds	r23, 0x014B	; 0x80014b <__TEXT_REGION_LENGTH__+0x70014b>
     d96:	82 96       	adiw	r24, 0x22	; 34
     d98:	0e 94 33 1a 	call	0x3466	; 0x3466 <__udivmodhi4>
     d9c:	80 93 e8 3a 	sts	0x3AE8, r24	; 0x803ae8 <tmp16bit>
     da0:	90 93 e9 3a 	sts	0x3AE9, r25	; 0x803ae9 <tmp16bit+0x1>
     da4:	80 91 41 01 	lds	r24, 0x0141	; 0x800141 <__TEXT_REGION_LENGTH__+0x700141>
     da8:	83 fd       	sbrc	r24, 3
     daa:	fc cf       	rjmp	.-8      	; 0xda4 <__vector_6+0x50>
     dac:	80 91 e8 3a 	lds	r24, 0x3AE8	; 0x803ae8 <tmp16bit>
     db0:	90 91 e9 3a 	lds	r25, 0x3AE9	; 0x803ae9 <tmp16bit+0x1>
     db4:	80 93 4c 01 	sts	0x014C, r24	; 0x80014c <__TEXT_REGION_LENGTH__+0x70014c>
     db8:	90 93 4d 01 	sts	0x014D, r25	; 0x80014d <__TEXT_REGION_LENGTH__+0x70014d>
     dbc:	82 e0       	ldi	r24, 0x02	; 2
     dbe:	06 c0       	rjmp	.+12     	; 0xdcc <__vector_6+0x78>
     dc0:	80 91 36 38 	lds	r24, 0x3836	; 0x803836 <minuteMark>
     dc4:	8f 5f       	subi	r24, 0xFF	; 255
     dc6:	80 93 36 38 	sts	0x3836, r24	; 0x803836 <minuteMark>
     dca:	81 e0       	ldi	r24, 0x01	; 1
     dcc:	80 93 43 01 	sts	0x0143, r24	; 0x800143 <__TEXT_REGION_LENGTH__+0x700143>
     dd0:	bf 91       	pop	r27
     dd2:	af 91       	pop	r26
     dd4:	9f 91       	pop	r25
     dd6:	8f 91       	pop	r24
     dd8:	7f 91       	pop	r23
     dda:	6f 91       	pop	r22
     ddc:	5f 91       	pop	r21
     dde:	0f 90       	pop	r0
     de0:	0f be       	out	0x3f, r0	; 63
     de2:	0f 90       	pop	r0
     de4:	1f 90       	pop	r1
     de6:	18 95       	reti

00000de8 <__vector_7>:
     de8:	1f 92       	push	r1
     dea:	0f 92       	push	r0
     dec:	0f b6       	in	r0, 0x3f	; 63
     dee:	0f 92       	push	r0
     df0:	11 24       	eor	r1, r1
     df2:	8f 93       	push	r24
     df4:	81 e0       	ldi	r24, 0x01	; 1
     df6:	80 93 48 06 	sts	0x0648, r24	; 0x800648 <__TEXT_REGION_LENGTH__+0x700648>
     dfa:	80 93 53 01 	sts	0x0153, r24	; 0x800153 <__TEXT_REGION_LENGTH__+0x700153>
     dfe:	8f 91       	pop	r24
     e00:	0f 90       	pop	r0
     e02:	0f be       	out	0x3f, r0	; 63
     e04:	0f 90       	pop	r0
     e06:	1f 90       	pop	r1
     e08:	18 95       	reti

00000e0a <EERead>:
     e0a:	90 91 02 10 	lds	r25, 0x1002	; 0x801002 <__TEXT_REGION_LENGTH__+0x701002>
     e0e:	91 fd       	sbrc	r25, 1
     e10:	fc cf       	rjmp	.-8      	; 0xe0a <EERead>
     e12:	fb 01       	movw	r30, r22
     e14:	48 0f       	add	r20, r24
     e16:	84 17       	cp	r24, r20
     e18:	39 f0       	breq	.+14     	; 0xe28 <EERead+0x1e>
     e1a:	a8 2f       	mov	r26, r24
     e1c:	b0 e0       	ldi	r27, 0x00	; 0
     e1e:	bc 5e       	subi	r27, 0xEC	; 236
     e20:	9c 91       	ld	r25, X
     e22:	91 93       	st	Z+, r25
     e24:	8f 5f       	subi	r24, 0xFF	; 255
     e26:	f7 cf       	rjmp	.-18     	; 0xe16 <EERead+0xc>
     e28:	08 95       	ret

00000e2a <EEWrite>:
     e2a:	9d e9       	ldi	r25, 0x9D	; 157
     e2c:	24 e0       	ldi	r18, 0x04	; 4
     e2e:	33 e0       	ldi	r19, 0x03	; 3
     e30:	44 23       	and	r20, r20
     e32:	09 f1       	breq	.+66     	; 0xe76 <EEWrite+0x4c>
     e34:	50 91 02 10 	lds	r21, 0x1002	; 0x801002 <__TEXT_REGION_LENGTH__+0x701002>
     e38:	51 fd       	sbrc	r21, 1
     e3a:	fc cf       	rjmp	.-8      	; 0xe34 <EEWrite+0xa>
     e3c:	94 bf       	out	0x34, r25	; 52
     e3e:	20 93 00 10 	sts	0x1000, r18	; 0x801000 <__TEXT_REGION_LENGTH__+0x701000>
     e42:	e8 2f       	mov	r30, r24
     e44:	58 2f       	mov	r21, r24
     e46:	5f 71       	andi	r21, 0x1F	; 31
     e48:	8f 5f       	subi	r24, 0xFF	; 255
     e4a:	6f 5f       	subi	r22, 0xFF	; 255
     e4c:	7f 4f       	sbci	r23, 0xFF	; 255
     e4e:	db 01       	movw	r26, r22
     e50:	11 97       	sbiw	r26, 0x01	; 1
     e52:	ac 91       	ld	r26, X
     e54:	f0 e0       	ldi	r31, 0x00	; 0
     e56:	fc 5e       	subi	r31, 0xEC	; 236
     e58:	a0 83       	st	Z, r26
     e5a:	41 50       	subi	r20, 0x01	; 1
     e5c:	19 f0       	breq	.+6      	; 0xe64 <EEWrite+0x3a>
     e5e:	e8 2f       	mov	r30, r24
     e60:	5f 31       	cpi	r21, 0x1F	; 31
     e62:	81 f7       	brne	.-32     	; 0xe44 <EEWrite+0x1a>
     e64:	94 bf       	out	0x34, r25	; 52
     e66:	30 93 00 10 	sts	0x1000, r19	; 0x801000 <__TEXT_REGION_LENGTH__+0x701000>
     e6a:	50 91 02 10 	lds	r21, 0x1002	; 0x801002 <__TEXT_REGION_LENGTH__+0x701002>
     e6e:	52 ff       	sbrs	r21, 2
     e70:	df cf       	rjmp	.-66     	; 0xe30 <EEWrite+0x6>
     e72:	81 e0       	ldi	r24, 0x01	; 1
     e74:	08 95       	ret
     e76:	80 e0       	ldi	r24, 0x00	; 0
     e78:	08 95       	ret

00000e7a <SerSend>:
     e7a:	20 91 08 38 	lds	r18, 0x3808	; 0x803808 <serTxDone>
     e7e:	22 23       	and	r18, r18
     e80:	59 f0       	breq	.+22     	; 0xe98 <SerSend+0x1e>
     e82:	80 93 92 3a 	sts	0x3A92, r24	; 0x803a92 <serTxAddr>
     e86:	90 93 93 3a 	sts	0x3A93, r25	; 0x803a93 <serTxAddr+0x1>
     e8a:	10 92 08 38 	sts	0x3808, r1	; 0x803808 <serTxDone>
     e8e:	81 e0       	ldi	r24, 0x01	; 1
     e90:	80 93 45 0a 	sts	0x0A45, r24	; 0x800a45 <__TEXT_REGION_LENGTH__+0x700a45>
     e94:	80 e0       	ldi	r24, 0x00	; 0
     e96:	08 95       	ret
     e98:	81 e0       	ldi	r24, 0x01	; 1
     e9a:	08 95       	ret

00000e9c <SerSpeed>:
     e9c:	28 2f       	mov	r18, r24
     e9e:	81 11       	cpse	r24, r1
     ea0:	01 c0       	rjmp	.+2      	; 0xea4 <SerSpeed+0x8>
     ea2:	21 e0       	ldi	r18, 0x01	; 1
     ea4:	8f ef       	ldi	r24, 0xFF	; 255
     ea6:	90 e0       	ldi	r25, 0x00	; 0
     ea8:	82 1b       	sub	r24, r18
     eaa:	91 09       	sbc	r25, r1
     eac:	98 2f       	mov	r25, r24
     eae:	88 27       	eor	r24, r24
     eb0:	81 50       	subi	r24, 0x01	; 1
     eb2:	9f 4f       	sbci	r25, 0xFF	; 255
     eb4:	80 93 4c 0a 	sts	0x0A4C, r24	; 0x800a4c <__TEXT_REGION_LENGTH__+0x700a4c>
     eb8:	90 93 4d 0a 	sts	0x0A4D, r25	; 0x800a4d <__TEXT_REGION_LENGTH__+0x700a4d>
     ebc:	08 95       	ret

00000ebe <CheckButtons>:
};

// Returns button combination (4LSB) and number of consecutive times this combination is detected. First read should always be ignored! 
uint8_t CheckButtons(uint8_t previousValue){
    uint8_t bADC = (uint8_t)(adcBtns>>4);
     ebe:	20 91 90 3a 	lds	r18, 0x3A90	; 0x803a90 <adcBtns>
     ec2:	30 91 91 3a 	lds	r19, 0x3A91	; 0x803a91 <adcBtns+0x1>
    uint8_t bNibble = 0x0F;     //MSB to LSB: Bottom left, top left, top right, bottom right, 0F is error
    
    switch(bADC){
     ec6:	94 e0       	ldi	r25, 0x04	; 4
     ec8:	36 95       	lsr	r19
     eca:	27 95       	ror	r18
     ecc:	9a 95       	dec	r25
     ece:	e1 f7       	brne	.-8      	; 0xec8 <CheckButtons+0xa>
     ed0:	33 27       	eor	r19, r19
     ed2:	2c 35       	cpi	r18, 0x5C	; 92
     ed4:	31 05       	cpc	r19, r1
     ed6:	d0 f4       	brcc	.+52     	; 0xf0c <CheckButtons+0x4e>
     ed8:	23 35       	cpi	r18, 0x53	; 83
     eda:	31 05       	cpc	r19, r1
     edc:	a8 f5       	brcc	.+106    	; 0xf48 <CheckButtons+0x8a>
     ede:	22 33       	cpi	r18, 0x32	; 50
     ee0:	31 05       	cpc	r19, r1
     ee2:	50 f4       	brcc	.+20     	; 0xef8 <CheckButtons+0x3a>
     ee4:	2d 32       	cpi	r18, 0x2D	; 45
     ee6:	31 05       	cpc	r19, r1
     ee8:	58 f5       	brcc	.+86     	; 0xf40 <CheckButtons+0x82>
     eea:	23 52       	subi	r18, 0x23	; 35
     eec:	31 09       	sbc	r19, r1
     eee:	25 30       	cpi	r18, 0x05	; 5
     ef0:	31 05       	cpc	r19, r1
     ef2:	80 f5       	brcc	.+96     	; 0xf54 <CheckButtons+0x96>

        case 35 ... 39:          //37: Both left
        bNibble = 0b1100;
     ef4:	9c e0       	ldi	r25, 0x0C	; 12
     ef6:	2f c0       	rjmp	.+94     	; 0xf56 <CheckButtons+0x98>
// Returns button combination (4LSB) and number of consecutive times this combination is detected. First read should always be ignored! 
uint8_t CheckButtons(uint8_t previousValue){
    uint8_t bADC = (uint8_t)(adcBtns>>4);
    uint8_t bNibble = 0x0F;     //MSB to LSB: Bottom left, top left, top right, bottom right, 0F is error
    
    switch(bADC){
     ef8:	27 33       	cpi	r18, 0x37	; 55
     efa:	31 05       	cpc	r19, r1
     efc:	18 f1       	brcs	.+70     	; 0xf44 <CheckButtons+0x86>
     efe:	2e 53       	subi	r18, 0x3E	; 62
     f00:	31 09       	sbc	r19, r1
     f02:	27 30       	cpi	r18, 0x07	; 7
     f04:	31 05       	cpc	r19, r1
     f06:	30 f5       	brcc	.+76     	; 0xf54 <CheckButtons+0x96>
        case 50 ... 54:          //52: Bottom left
        bNibble = 0b1000;
        break;

        case 62 ... 68:          //65: Both top
        bNibble = 0b0110;
     f08:	96 e0       	ldi	r25, 0x06	; 6
        break;
     f0a:	25 c0       	rjmp	.+74     	; 0xf56 <CheckButtons+0x98>
// Returns button combination (4LSB) and number of consecutive times this combination is detected. First read should always be ignored! 
uint8_t CheckButtons(uint8_t previousValue){
    uint8_t bADC = (uint8_t)(adcBtns>>4);
    uint8_t bNibble = 0x0F;     //MSB to LSB: Bottom left, top left, top right, bottom right, 0F is error
    
    switch(bADC){
     f0c:	2a 38       	cpi	r18, 0x8A	; 138
     f0e:	31 05       	cpc	r19, r1
     f10:	50 f4       	brcc	.+20     	; 0xf26 <CheckButtons+0x68>
     f12:	29 37       	cpi	r18, 0x79	; 121
     f14:	31 05       	cpc	r19, r1
     f16:	d0 f4       	brcc	.+52     	; 0xf4c <CheckButtons+0x8e>
     f18:	23 56       	subi	r18, 0x63	; 99
     f1a:	31 09       	sbc	r19, r1
     f1c:	2b 30       	cpi	r18, 0x0B	; 11
     f1e:	31 05       	cpc	r19, r1
     f20:	c8 f4       	brcc	.+50     	; 0xf54 <CheckButtons+0x96>
        case 83 ... 91:          //87: Top left
        bNibble = 0b0100;
        break;

        case 99 ... 109:         //104: Both right
        bNibble = 0b0011;
     f22:	93 e0       	ldi	r25, 0x03	; 3
        break;
     f24:	18 c0       	rjmp	.+48     	; 0xf56 <CheckButtons+0x98>
// Returns button combination (4LSB) and number of consecutive times this combination is detected. First read should always be ignored! 
uint8_t CheckButtons(uint8_t previousValue){
    uint8_t bADC = (uint8_t)(adcBtns>>4);
    uint8_t bNibble = 0x0F;     //MSB to LSB: Bottom left, top left, top right, bottom right, 0F is error
    
    switch(bADC){
     f26:	22 3a       	cpi	r18, 0xA2	; 162
     f28:	31 05       	cpc	r19, r1
     f2a:	a0 f0       	brcs	.+40     	; 0xf54 <CheckButtons+0x96>
     f2c:	2b 3b       	cpi	r18, 0xBB	; 187
     f2e:	31 05       	cpc	r19, r1
     f30:	78 f0       	brcs	.+30     	; 0xf50 <CheckButtons+0x92>
     f32:	20 5f       	subi	r18, 0xF0	; 240
     f34:	31 09       	sbc	r19, r1
     f36:	20 31       	cpi	r18, 0x10	; 16
     f38:	31 05       	cpc	r19, r1
     f3a:	60 f4       	brcc	.+24     	; 0xf54 <CheckButtons+0x96>
        case 162 ... 186:        //174: Bottom right
        bNibble = 0b0001;
        break;

        case 240 ... 255:        //255: No button pressed
        bNibble = 0b0000;
     f3c:	90 e0       	ldi	r25, 0x00	; 0
        break;
     f3e:	0b c0       	rjmp	.+22     	; 0xf56 <CheckButtons+0x98>
        case 35 ... 39:          //37: Both left
        bNibble = 0b1100;
        break;

        case 45 ... 49:          //47: Both bottom
        bNibble = 0b1001;
     f40:	99 e0       	ldi	r25, 0x09	; 9
        break;
     f42:	09 c0       	rjmp	.+18     	; 0xf56 <CheckButtons+0x98>

        case 50 ... 54:          //52: Bottom left
        bNibble = 0b1000;
     f44:	98 e0       	ldi	r25, 0x08	; 8
        break;
     f46:	07 c0       	rjmp	.+14     	; 0xf56 <CheckButtons+0x98>
        case 62 ... 68:          //65: Both top
        bNibble = 0b0110;
        break;

        case 83 ... 91:          //87: Top left
        bNibble = 0b0100;
     f48:	94 e0       	ldi	r25, 0x04	; 4
        break;
     f4a:	05 c0       	rjmp	.+10     	; 0xf56 <CheckButtons+0x98>
        case 99 ... 109:         //104: Both right
        bNibble = 0b0011;
        break;

        case 121 ... 137:        //129: Top right
        bNibble = 0b0010;
     f4c:	92 e0       	ldi	r25, 0x02	; 2
        break;
     f4e:	03 c0       	rjmp	.+6      	; 0xf56 <CheckButtons+0x98>

        case 162 ... 186:        //174: Bottom right
        bNibble = 0b0001;
     f50:	91 e0       	ldi	r25, 0x01	; 1
        break;
     f52:	01 c0       	rjmp	.+2      	; 0xf56 <CheckButtons+0x98>
};

// Returns button combination (4LSB) and number of consecutive times this combination is detected. First read should always be ignored! 
uint8_t CheckButtons(uint8_t previousValue){
    uint8_t bADC = (uint8_t)(adcBtns>>4);
    uint8_t bNibble = 0x0F;     //MSB to LSB: Bottom left, top left, top right, bottom right, 0F is error
     f54:	9f e0       	ldi	r25, 0x0F	; 15
        case 240 ... 255:        //255: No button pressed
        bNibble = 0b0000;
        break;
    }

    if ((previousValue&0x0F)==bNibble){
     f56:	28 2f       	mov	r18, r24
     f58:	2f 70       	andi	r18, 0x0F	; 15
     f5a:	92 13       	cpse	r25, r18
     f5c:	06 c0       	rjmp	.+12     	; 0xf6a <CheckButtons+0xac>
        if ((previousValue&0xF0) < 0xF0) previousValue += 0x10; //Same value? Increase time nibble
     f5e:	98 2f       	mov	r25, r24
     f60:	90 7f       	andi	r25, 0xF0	; 240
     f62:	90 3f       	cpi	r25, 0xF0	; 240
     f64:	39 f0       	breq	.+14     	; 0xf74 <CheckButtons+0xb6>
     f66:	80 5f       	subi	r24, 0xF0	; 240
     f68:	08 95       	ret
        return previousValue;       
    } else if (bNibble == 0) return 0xFF; //Buttons released, 0xFF triggers readout, previousValue holds last button value.
     f6a:	99 23       	and	r25, r25
     f6c:	11 f0       	breq	.+4      	; 0xf72 <CheckButtons+0xb4>
     f6e:	89 2f       	mov	r24, r25
     f70:	08 95       	ret
     f72:	8f ef       	ldi	r24, 0xFF	; 255
              else return bNibble;  //New value  
}
     f74:	08 95       	ret

00000f76 <lfsr>:

uint8_t lfsr(){
    static uint16_t state = 0xd401;
    state ^= (state << 13);
     f76:	80 91 1c 38 	lds	r24, 0x381C	; 0x80381c <state.3879>
     f7a:	90 91 1d 38 	lds	r25, 0x381D	; 0x80381d <state.3879+0x1>
     f7e:	9c 01       	movw	r18, r24
     f80:	32 2f       	mov	r19, r18
     f82:	22 27       	eor	r18, r18
     f84:	32 95       	swap	r19
     f86:	33 0f       	add	r19, r19
     f88:	30 7e       	andi	r19, 0xE0	; 224
     f8a:	82 27       	eor	r24, r18
     f8c:	93 27       	eor	r25, r19
    state ^= (state >> 9);
     f8e:	9c 01       	movw	r18, r24
     f90:	23 2f       	mov	r18, r19
     f92:	33 27       	eor	r19, r19
     f94:	26 95       	lsr	r18
     f96:	82 27       	eor	r24, r18
     f98:	93 27       	eor	r25, r19
    state ^= (state << 7);
     f9a:	9c 01       	movw	r18, r24
     f9c:	36 95       	lsr	r19
     f9e:	32 2f       	mov	r19, r18
     fa0:	22 27       	eor	r18, r18
     fa2:	37 95       	ror	r19
     fa4:	27 95       	ror	r18
     fa6:	82 27       	eor	r24, r18
     fa8:	93 27       	eor	r25, r19
     faa:	80 93 1c 38 	sts	0x381C, r24	; 0x80381c <state.3879>
     fae:	90 93 1d 38 	sts	0x381D, r25	; 0x80381d <state.3879+0x1>
    return (state & 0xff);
}
     fb2:	08 95       	ret

00000fb4 <floatSpeed>:

void floatSpeed(uint8_t bits, uint16_t min, uint16_t max){
     fb4:	df 92       	push	r13
     fb6:	ef 92       	push	r14
     fb8:	ff 92       	push	r15
     fba:	0f 93       	push	r16
     fbc:	1f 93       	push	r17
     fbe:	cf 93       	push	r28
     fc0:	df 93       	push	r29
     fc2:	7b 01       	movw	r14, r22
     fc4:	8a 01       	movw	r16, r20
    uint16_t val = TCB1_CCMP;
     fc6:	c0 91 5c 0a 	lds	r28, 0x0A5C	; 0x800a5c <__TEXT_REGION_LENGTH__+0x700a5c>
     fca:	d0 91 5d 0a 	lds	r29, 0x0A5D	; 0x800a5d <__TEXT_REGION_LENGTH__+0x700a5d>
    bits = mask[(bits-1)&0x07];
     fce:	e8 2f       	mov	r30, r24
     fd0:	f0 e0       	ldi	r31, 0x00	; 0
     fd2:	31 97       	sbiw	r30, 0x01	; 1
     fd4:	e7 70       	andi	r30, 0x07	; 7
     fd6:	ff 27       	eor	r31, r31
     fd8:	e2 5e       	subi	r30, 0xE2	; 226
     fda:	f7 4c       	sbci	r31, 0xC7	; 199
     fdc:	d0 80       	ld	r13, Z
    val += (lfsr()&bits);
     fde:	cb df       	rcall	.-106    	; 0xf76 <lfsr>
     fe0:	8d 21       	and	r24, r13
     fe2:	c8 0f       	add	r28, r24
     fe4:	d1 1d       	adc	r29, r1
    val -= (lfsr()&bits);
     fe6:	c7 df       	rcall	.-114    	; 0xf76 <lfsr>
     fe8:	8d 21       	and	r24, r13
     fea:	c8 1b       	sub	r28, r24
     fec:	d1 09       	sbc	r29, r1
     fee:	0c 17       	cp	r16, r28
     ff0:	1d 07       	cpc	r17, r29
     ff2:	08 f4       	brcc	.+2      	; 0xff6 <floatSpeed+0x42>
     ff4:	e8 01       	movw	r28, r16
     ff6:	c7 01       	movw	r24, r14
     ff8:	ec 16       	cp	r14, r28
     ffa:	fd 06       	cpc	r15, r29
     ffc:	08 f4       	brcc	.+2      	; 0x1000 <floatSpeed+0x4c>
     ffe:	ce 01       	movw	r24, r28
    1000:	80 93 5c 0a 	sts	0x0A5C, r24	; 0x800a5c <__TEXT_REGION_LENGTH__+0x700a5c>
    if (val > max) val = max;    //0x038B is normal rate, for wind we need to be a bit slower
    if (val < min) val = min;  
    TCB1_CCMP = val;
    1004:	90 93 5d 0a 	sts	0x0A5D, r25	; 0x800a5d <__TEXT_REGION_LENGTH__+0x700a5d>
    1008:	df 91       	pop	r29
}
    100a:	cf 91       	pop	r28
    100c:	1f 91       	pop	r17
    100e:	0f 91       	pop	r16
    1010:	ff 90       	pop	r15
    1012:	ef 90       	pop	r14
    1014:	df 90       	pop	r13
    1016:	08 95       	ret

00001018 <floatAround>:
    1018:	0f 93       	push	r16

uint8_t floatAround(uint8_t sample, uint8_t bits, uint8_t min, uint8_t max){
    101a:	1f 93       	push	r17
    101c:	cf 93       	push	r28
    101e:	df 93       	push	r29
    1020:	c8 2f       	mov	r28, r24
    1022:	04 2f       	mov	r16, r20
    1024:	12 2f       	mov	r17, r18
    bits = mask[(bits-1)&0x07];
    1026:	e6 2f       	mov	r30, r22
    1028:	f0 e0       	ldi	r31, 0x00	; 0
    102a:	31 97       	sbiw	r30, 0x01	; 1
    102c:	e7 70       	andi	r30, 0x07	; 7
    102e:	ff 27       	eor	r31, r31
    1030:	e2 5e       	subi	r30, 0xE2	; 226
    1032:	f7 4c       	sbci	r31, 0xC7	; 199
    1034:	d0 81       	ld	r29, Z
    sample += lfsr()&bits;
    1036:	9f df       	rcall	.-194    	; 0xf76 <lfsr>
    1038:	8d 23       	and	r24, r29
    103a:	c8 0f       	add	r28, r24
    sample -= lfsr()&bits;
    103c:	9c df       	rcall	.-200    	; 0xf76 <lfsr>
    103e:	8d 23       	and	r24, r29
    1040:	c8 1b       	sub	r28, r24
    1042:	8c 2f       	mov	r24, r28
    1044:	11 23       	and	r17, r17
    if (max){
    1046:	41 f0       	breq	.+16     	; 0x1058 <floatAround+0x40>
    1048:	9c 2f       	mov	r25, r28
    104a:	1c 17       	cp	r17, r28
    104c:	08 f4       	brcc	.+2      	; 0x1050 <floatAround+0x38>
    104e:	91 2f       	mov	r25, r17
    1050:	80 2f       	mov	r24, r16
    1052:	09 17       	cp	r16, r25
    1054:	08 f4       	brcc	.+2      	; 0x1058 <floatAround+0x40>
    1056:	89 2f       	mov	r24, r25
    1058:	df 91       	pop	r29
        if (sample > max) sample = max;
        if (sample < min) sample = min;
    }
    return sample;
}
    105a:	cf 91       	pop	r28
    105c:	1f 91       	pop	r17
    105e:	0f 91       	pop	r16
    1060:	08 95       	ret

00001062 <SaveGameState>:
    1062:	cf 92       	push	r12
    inventory[0] = (gameState[INVADDR]<<8|gameState[INVADDR+1]);
    inventory[1] = (gameState[INVADDR+2]<<8|gameState[INVADDR+3]);
}

//Save changed data to EEPROM
uint8_t SaveGameState(){
    1064:	df 92       	push	r13
    1066:	ff 92       	push	r15
    1068:	0f 93       	push	r16
    106a:	1f 93       	push	r17
    106c:	cf 93       	push	r28
    106e:	df 93       	push	r29
    1070:	cd b7       	in	r28, 0x3d	; 61
    1072:	de b7       	in	r29, 0x3e	; 62
    1074:	64 97       	sbiw	r28, 0x14	; 20
    1076:	cd bf       	out	0x3d, r28	; 61
    1078:	de bf       	out	0x3e, r29	; 62
    uint8_t gameCheck[BOOTCHK];

    //Read all data up to the boot/check result address from EEPROM
    EERead(0, &gameCheck[0], BOOTCHK);
    107a:	44 e1       	ldi	r20, 0x14	; 20
    107c:	be 01       	movw	r22, r28
    107e:	6f 5f       	subi	r22, 0xFF	; 255
    1080:	7f 4f       	sbci	r23, 0xFF	; 255
    1082:	80 e0       	ldi	r24, 0x00	; 0
    1084:	c2 de       	rcall	.-636    	; 0xe0a <EERead>
    1086:	8a e3       	ldi	r24, 0x3A	; 58
    1088:	c8 2e       	mov	r12, r24
    108a:	8a e3       	ldi	r24, 0x3A	; 58
    108c:	d8 2e       	mov	r13, r24
    108e:	8e 01       	movw	r16, r28
    1090:	0f 5f       	subi	r16, 0xFF	; 255
    1092:	1f 4f       	sbci	r17, 0xFF	; 255

    //Check game status bits
    for (uint8_t x=0; x<STATLEN; ++x){
    1094:	f1 2c       	mov	r15, r1
        if (gameState[x] != gameCheck[x]){
    1096:	f8 01       	movw	r30, r16
    1098:	81 91       	ld	r24, Z+
    109a:	8f 01       	movw	r16, r30
    109c:	f6 01       	movw	r30, r12
    109e:	90 81       	ld	r25, Z
    10a0:	98 13       	cpse	r25, r24
    10a2:	08 c0       	rjmp	.+16     	; 0x10b4 <SaveGameState+0x52>

    //Read all data up to the boot/check result address from EEPROM
    EERead(0, &gameCheck[0], BOOTCHK);

    //Check game status bits
    for (uint8_t x=0; x<STATLEN; ++x){
    10a4:	f3 94       	inc	r15
    10a6:	ff ef       	ldi	r31, 0xFF	; 255
    10a8:	cf 1a       	sub	r12, r31
    10aa:	df 0a       	sbc	r13, r31
    10ac:	80 e1       	ldi	r24, 0x10	; 16
    10ae:	f8 12       	cpse	r15, r24
    10b0:	f2 cf       	rjmp	.-28     	; 0x1096 <SaveGameState+0x34>
    10b2:	08 c0       	rjmp	.+16     	; 0x10c4 <SaveGameState+0x62>
        if (gameState[x] != gameCheck[x]){
            if (EEWrite(x, &gameState[x], 1)) return 1;
    10b4:	41 e0       	ldi	r20, 0x01	; 1
    10b6:	b6 01       	movw	r22, r12
    10b8:	8f 2d       	mov	r24, r15
    10ba:	b7 de       	rcall	.-658    	; 0xe2a <EEWrite>
    10bc:	88 23       	and	r24, r24
    10be:	91 f3       	breq	.-28     	; 0x10a4 <SaveGameState+0x42>
    10c0:	91 e0       	ldi	r25, 0x01	; 1
    10c2:	36 c0       	rjmp	.+108    	; 0x1130 <SaveGameState+0xce>
        }
    }

    //Check the inventory too
    gameState[INVADDR] = (uint8_t)(inventory[0]>>8);
    10c4:	20 91 31 38 	lds	r18, 0x3831	; 0x803831 <inventory>
    10c8:	30 91 32 38 	lds	r19, 0x3832	; 0x803832 <inventory+0x1>
    10cc:	30 93 4a 3a 	sts	0x3A4A, r19	; 0x803a4a <gameState+0x10>
    gameState[INVADDR+1] = (uint8_t)(inventory[0]&0xff);
    10d0:	20 93 4b 3a 	sts	0x3A4B, r18	; 0x803a4b <gameState+0x11>
    gameState[INVADDR+2] = (uint8_t)(inventory[1]>>8);
    10d4:	80 91 33 38 	lds	r24, 0x3833	; 0x803833 <inventory+0x2>
    10d8:	90 91 34 38 	lds	r25, 0x3834	; 0x803834 <inventory+0x3>
    10dc:	90 93 4c 3a 	sts	0x3A4C, r25	; 0x803a4c <gameState+0x12>
    gameState[INVADDR+3] = (uint8_t)(inventory[1]&0xff);
    10e0:	80 93 4d 3a 	sts	0x3A4D, r24	; 0x803a4d <gameState+0x13>
    if (inventory[0] != (gameCheck[INVADDR]<<8|gameCheck[INVADDR+1])) {
    10e4:	89 89       	ldd	r24, Y+17	; 0x11
    10e6:	9a 89       	ldd	r25, Y+18	; 0x12
    10e8:	98 27       	eor	r25, r24
    10ea:	89 27       	eor	r24, r25
    10ec:	98 27       	eor	r25, r24
    10ee:	28 17       	cp	r18, r24
    10f0:	39 07       	cpc	r19, r25
    10f2:	69 f4       	brne	.+26     	; 0x110e <SaveGameState+0xac>
        if (EEWrite(INVADDR, &gameState[INVADDR], 2)) return 1;
    }
    if (inventory[1] != (gameCheck[INVADDR+2]<<8|gameCheck[INVADDR+3])) {
    10f4:	8b 89       	ldd	r24, Y+19	; 0x13
    10f6:	9c 89       	ldd	r25, Y+20	; 0x14
    10f8:	98 27       	eor	r25, r24
    10fa:	89 27       	eor	r24, r25
    10fc:	98 27       	eor	r25, r24
    10fe:	20 91 33 38 	lds	r18, 0x3833	; 0x803833 <inventory+0x2>
    1102:	30 91 34 38 	lds	r19, 0x3834	; 0x803834 <inventory+0x3>
    1106:	28 17       	cp	r18, r24
    1108:	39 07       	cpc	r19, r25
    110a:	49 f4       	brne	.+18     	; 0x111e <SaveGameState+0xbc>
    110c:	10 c0       	rjmp	.+32     	; 0x112e <SaveGameState+0xcc>
    gameState[INVADDR] = (uint8_t)(inventory[0]>>8);
    gameState[INVADDR+1] = (uint8_t)(inventory[0]&0xff);
    gameState[INVADDR+2] = (uint8_t)(inventory[1]>>8);
    gameState[INVADDR+3] = (uint8_t)(inventory[1]&0xff);
    if (inventory[0] != (gameCheck[INVADDR]<<8|gameCheck[INVADDR+1])) {
        if (EEWrite(INVADDR, &gameState[INVADDR], 2)) return 1;
    110e:	42 e0       	ldi	r20, 0x02	; 2
    1110:	6a e4       	ldi	r22, 0x4A	; 74
    1112:	7a e3       	ldi	r23, 0x3A	; 58
    1114:	80 e1       	ldi	r24, 0x10	; 16
    1116:	89 de       	rcall	.-750    	; 0xe2a <EEWrite>
    1118:	88 23       	and	r24, r24
    111a:	61 f3       	breq	.-40     	; 0x10f4 <SaveGameState+0x92>
    111c:	d1 cf       	rjmp	.-94     	; 0x10c0 <SaveGameState+0x5e>
    }
    if (inventory[1] != (gameCheck[INVADDR+2]<<8|gameCheck[INVADDR+3])) {
        if (EEWrite(INVADDR+2, &gameState[INVADDR+2], 2)) return 1;
    111e:	42 e0       	ldi	r20, 0x02	; 2
    1120:	6c e4       	ldi	r22, 0x4C	; 76
    1122:	7a e3       	ldi	r23, 0x3A	; 58
    1124:	82 e1       	ldi	r24, 0x12	; 18
    1126:	81 de       	rcall	.-766    	; 0xe2a <EEWrite>
    EERead(0, &gameCheck[0], BOOTCHK);

    //Check game status bits
    for (uint8_t x=0; x<STATLEN; ++x){
        if (gameState[x] != gameCheck[x]){
            if (EEWrite(x, &gameState[x], 1)) return 1;
    1128:	91 e0       	ldi	r25, 0x01	; 1
    112a:	81 11       	cpse	r24, r1
    112c:	01 c0       	rjmp	.+2      	; 0x1130 <SaveGameState+0xce>
    112e:	90 e0       	ldi	r25, 0x00	; 0
    if (inventory[1] != (gameCheck[INVADDR+2]<<8|gameCheck[INVADDR+3])) {
        if (EEWrite(INVADDR+2, &gameState[INVADDR+2], 2)) return 1;
    }

    return 0;
}
    1130:	89 2f       	mov	r24, r25
    1132:	64 96       	adiw	r28, 0x14	; 20
    1134:	cd bf       	out	0x3d, r28	; 61
    1136:	de bf       	out	0x3e, r29	; 62
    1138:	df 91       	pop	r29
    113a:	cf 91       	pop	r28
    113c:	1f 91       	pop	r17
    113e:	0f 91       	pop	r16
    1140:	ff 90       	pop	r15
    1142:	df 90       	pop	r13
    1144:	cf 90       	pop	r12
    1146:	08 95       	ret

00001148 <ReadStatusBit>:

uint8_t ReadStatusBit(uint8_t number){
    number &= 0x7f;
    if (gameState[number>>3] & (1<<(number&7))) return 1; else return 0;
    1148:	e8 2f       	mov	r30, r24
    114a:	ef 77       	andi	r30, 0x7F	; 127
    114c:	e6 95       	lsr	r30
    114e:	e6 95       	lsr	r30
    1150:	e6 95       	lsr	r30
    1152:	f0 e0       	ldi	r31, 0x00	; 0
    1154:	e6 5c       	subi	r30, 0xC6	; 198
    1156:	f5 4c       	sbci	r31, 0xC5	; 197
    1158:	20 81       	ld	r18, Z
    115a:	30 e0       	ldi	r19, 0x00	; 0
    115c:	87 70       	andi	r24, 0x07	; 7
    115e:	a9 01       	movw	r20, r18
    1160:	02 c0       	rjmp	.+4      	; 0x1166 <ReadStatusBit+0x1e>
    1162:	55 95       	asr	r21
    1164:	47 95       	ror	r20
    1166:	8a 95       	dec	r24
    1168:	e2 f7       	brpl	.-8      	; 0x1162 <ReadStatusBit+0x1a>
    116a:	ca 01       	movw	r24, r20
}
    116c:	81 70       	andi	r24, 0x01	; 1
    116e:	08 95       	ret

00001170 <WriteStatusBit>:

void WriteStatusBit(uint8_t number, uint8_t state){
    number &= 0x7f;
    1170:	e8 2f       	mov	r30, r24
    1172:	ef 77       	andi	r30, 0x7F	; 127
    1174:	e6 95       	lsr	r30
    1176:	e6 95       	lsr	r30
    1178:	e6 95       	lsr	r30
    117a:	28 2f       	mov	r18, r24
    117c:	27 70       	andi	r18, 0x07	; 7
    if (state) gameState[number>>3] |= 1<<(number&7);
    117e:	f0 e0       	ldi	r31, 0x00	; 0
    1180:	e6 5c       	subi	r30, 0xC6	; 198
    1182:	f5 4c       	sbci	r31, 0xC5	; 197
    1184:	81 e0       	ldi	r24, 0x01	; 1
    1186:	90 e0       	ldi	r25, 0x00	; 0
    1188:	01 c0       	rjmp	.+2      	; 0x118c <WriteStatusBit+0x1c>
    118a:	88 0f       	add	r24, r24
    118c:	2a 95       	dec	r18
    118e:	ea f7       	brpl	.-6      	; 0x118a <WriteStatusBit+0x1a>
    1190:	66 23       	and	r22, r22
    1192:	19 f0       	breq	.+6      	; 0x119a <WriteStatusBit+0x2a>
    1194:	90 81       	ld	r25, Z
    1196:	89 2b       	or	r24, r25
    1198:	03 c0       	rjmp	.+6      	; 0x11a0 <WriteStatusBit+0x30>
    else gameState[number>>3] &= ~(1<<(number&7));
    119a:	80 95       	com	r24
    119c:	90 81       	ld	r25, Z
    119e:	89 23       	and	r24, r25
    11a0:	80 83       	st	Z, r24
    11a2:	08 95       	ret

000011a4 <UpdateState>:
}

//Update game state: num -> vBBBBbbb v=value(0 is set!), BBBB=Byte number, bbb=bit number
void UpdateState(uint8_t num){
    11a4:	98 2f       	mov	r25, r24
    uint8_t clearBit = num & 0x80;
    num &= 0x7f;
    11a6:	8f 77       	andi	r24, 0x7F	; 127
    if (num) {
    11a8:	31 f0       	breq	.+12     	; 0x11b6 <UpdateState+0x12>
        if (clearBit) {
    11aa:	97 ff       	sbrs	r25, 7
    11ac:	02 c0       	rjmp	.+4      	; 0x11b2 <UpdateState+0xe>
            WriteStatusBit(num, 0);
    11ae:	60 e0       	ldi	r22, 0x00	; 0
    11b0:	01 c0       	rjmp	.+2      	; 0x11b4 <UpdateState+0x10>
        } else {
            WriteStatusBit(num, 1);
    11b2:	61 e0       	ldi	r22, 0x01	; 1
    11b4:	dd cf       	rjmp	.-70     	; 0x1170 <WriteStatusBit>
    11b6:	08 95       	ret

000011b8 <CheckState>:
        }
    }
}

//Checks if state of bit BBBBbbb matches with v (inverted) bit
uint8_t CheckState(uint8_t num){
    11b8:	cf 93       	push	r28
    11ba:	c8 2f       	mov	r28, r24
    uint8_t bitSet = 0;
    if (ReadStatusBit(num & 0x7f)){
    11bc:	8f 77       	andi	r24, 0x7F	; 127
    11be:	c4 df       	rcall	.-120    	; 0x1148 <ReadStatusBit>
    11c0:	2c 2f       	mov	r18, r28
    11c2:	22 1f       	adc	r18, r18
    11c4:	22 27       	eor	r18, r18
    11c6:	22 1f       	adc	r18, r18
    11c8:	91 e0       	ldi	r25, 0x01	; 1
    11ca:	81 11       	cpse	r24, r1
    11cc:	01 c0       	rjmp	.+2      	; 0x11d0 <CheckState+0x18>
    11ce:	90 e0       	ldi	r25, 0x00	; 0
    }
    if (((num & 0x80)>0)^(bitSet>0)){
        return 1;
    }
    return 0;
}
    11d0:	82 2f       	mov	r24, r18
    11d2:	89 27       	eor	r24, r25
    11d4:	cf 91       	pop	r28
    11d6:	08 95       	ret

000011d8 <getID>:

//Give out a number 0..3, calculated using serial number fields
uint8_t getID(){
    uint8_t id = 0;
    uint8_t *serNum;
    serNum = (uint8_t*)&SIGROW_SERNUM0;
    11d8:	e3 e0       	ldi	r30, 0x03	; 3
    11da:	f1 e1       	ldi	r31, 0x11	; 17
    return 0;
}

//Give out a number 0..3, calculated using serial number fields
uint8_t getID(){
    uint8_t id = 0;
    11dc:	80 e0       	ldi	r24, 0x00	; 0
    uint8_t *serNum;
    serNum = (uint8_t*)&SIGROW_SERNUM0;

    for (uint8_t x=0; x<10; ++x){
        id += *serNum;
    11de:	91 91       	ld	r25, Z+
    11e0:	89 0f       	add	r24, r25
uint8_t getID(){
    uint8_t id = 0;
    uint8_t *serNum;
    serNum = (uint8_t*)&SIGROW_SERNUM0;

    for (uint8_t x=0; x<10; ++x){
    11e2:	ed 30       	cpi	r30, 0x0D	; 13
    11e4:	91 e1       	ldi	r25, 0x11	; 17
    11e6:	f9 07       	cpc	r31, r25
    11e8:	d1 f7       	brne	.-12     	; 0x11de <getID+0x6>
        id += *serNum;
        ++serNum;
    }
    id %= 4;
    whoami = id+1;
    11ea:	83 70       	andi	r24, 0x03	; 3
    11ec:	8f 5f       	subi	r24, 0xFF	; 255
    11ee:	80 93 30 38 	sts	0x3830, r24	; 0x803830 <whoami>
    return whoami;
}
    11f2:	08 95       	ret

000011f4 <Reset>:

void Reset(){
    11f4:	ea e3       	ldi	r30, 0x3A	; 58
    11f6:	fa e3       	ldi	r31, 0x3A	; 58
    //# 110   set to 1 by FW if badge UUID mod 4 == 0
    //# 111   set to 1 by FW if badge UUID mod 4 == 1
    //# 112   set to 1 by FW if badge UUID mod 4 == 2
    //# 113   set to 1 by FW if badge UUID mod 4 == 3
    for (uint8_t x=0; x<sizeof(gameState); ++x){
        gameState[x] = 0;
    11f8:	11 92       	st	Z+, r1
    //Reset game progress (all zeroes) and load some bits:
    //# 110   set to 1 by FW if badge UUID mod 4 == 0
    //# 111   set to 1 by FW if badge UUID mod 4 == 1
    //# 112   set to 1 by FW if badge UUID mod 4 == 2
    //# 113   set to 1 by FW if badge UUID mod 4 == 3
    for (uint8_t x=0; x<sizeof(gameState); ++x){
    11fa:	8a e3       	ldi	r24, 0x3A	; 58
    11fc:	ee 34       	cpi	r30, 0x4E	; 78
    11fe:	f8 07       	cpc	r31, r24
    1200:	d9 f7       	brne	.-10     	; 0x11f8 <Reset+0x4>
        gameState[x] = 0;
    }

    uint8_t id = getID();
    1202:	ea df       	rcall	.-44     	; 0x11d8 <getID>

    //Write bit in gameState location 110..113
    if (id == 0) WriteStatusBit(110, 1);
    1204:	81 11       	cpse	r24, r1
    1206:	04 c0       	rjmp	.+8      	; 0x1210 <Reset+0x1c>
    if (gameState[number>>3] & (1<<(number&7))) return 1; else return 0;
}

void WriteStatusBit(uint8_t number, uint8_t state){
    number &= 0x7f;
    if (state) gameState[number>>3] |= 1<<(number&7);
    1208:	80 91 47 3a 	lds	r24, 0x3A47	; 0x803a47 <gameState+0xd>
    120c:	80 64       	ori	r24, 0x40	; 64
    120e:	05 c0       	rjmp	.+10     	; 0x121a <Reset+0x26>

    uint8_t id = getID();

    //Write bit in gameState location 110..113
    if (id == 0) WriteStatusBit(110, 1);
    else if (id == 1) WriteStatusBit(111, 1);
    1210:	81 30       	cpi	r24, 0x01	; 1
    1212:	31 f4       	brne	.+12     	; 0x1220 <Reset+0x2c>
    if (gameState[number>>3] & (1<<(number&7))) return 1; else return 0;
}

void WriteStatusBit(uint8_t number, uint8_t state){
    number &= 0x7f;
    if (state) gameState[number>>3] |= 1<<(number&7);
    1214:	80 91 47 3a 	lds	r24, 0x3A47	; 0x803a47 <gameState+0xd>
    1218:	80 68       	ori	r24, 0x80	; 128
    121a:	80 93 47 3a 	sts	0x3A47, r24	; 0x803a47 <gameState+0xd>
    121e:	0d c0       	rjmp	.+26     	; 0x123a <Reset+0x46>
    uint8_t id = getID();

    //Write bit in gameState location 110..113
    if (id == 0) WriteStatusBit(110, 1);
    else if (id == 1) WriteStatusBit(111, 1);
    else if (id == 2) WriteStatusBit(112, 1);
    1220:	82 30       	cpi	r24, 0x02	; 2
    1222:	21 f4       	brne	.+8      	; 0x122c <Reset+0x38>
    if (gameState[number>>3] & (1<<(number&7))) return 1; else return 0;
}

void WriteStatusBit(uint8_t number, uint8_t state){
    number &= 0x7f;
    if (state) gameState[number>>3] |= 1<<(number&7);
    1224:	80 91 48 3a 	lds	r24, 0x3A48	; 0x803a48 <gameState+0xe>
    1228:	81 60       	ori	r24, 0x01	; 1
    122a:	05 c0       	rjmp	.+10     	; 0x1236 <Reset+0x42>

    //Write bit in gameState location 110..113
    if (id == 0) WriteStatusBit(110, 1);
    else if (id == 1) WriteStatusBit(111, 1);
    else if (id == 2) WriteStatusBit(112, 1);
    else if (id == 3) WriteStatusBit(113, 1);
    122c:	83 30       	cpi	r24, 0x03	; 3
    122e:	29 f4       	brne	.+10     	; 0x123a <Reset+0x46>
    if (gameState[number>>3] & (1<<(number&7))) return 1; else return 0;
}

void WriteStatusBit(uint8_t number, uint8_t state){
    number &= 0x7f;
    if (state) gameState[number>>3] |= 1<<(number&7);
    1230:	80 91 48 3a 	lds	r24, 0x3A48	; 0x803a48 <gameState+0xe>
    1234:	82 60       	ori	r24, 0x02	; 2
    1236:	80 93 48 3a 	sts	0x3A48, r24	; 0x803a48 <gameState+0xe>
    123a:	80 91 3a 3a 	lds	r24, 0x3A3A	; 0x803a3a <gameState>
    123e:	81 60       	ori	r24, 0x01	; 1
    1240:	80 93 3a 3a 	sts	0x3A3A, r24	; 0x803a3a <gameState>
    1244:	08 95       	ret

00001246 <LoadGameState>:
    }
    return sample;
}

//Load game status
void LoadGameState(){
    1246:	cf 93       	push	r28
    1248:	df 93       	push	r29
    EERead(0, &gameState[0], BOOTCHK);   //Load game status bits from EEPROM
    124a:	44 e1       	ldi	r20, 0x14	; 20
    124c:	6a e3       	ldi	r22, 0x3A	; 58
    124e:	7a e3       	ldi	r23, 0x3A	; 58
    1250:	80 e0       	ldi	r24, 0x00	; 0
    1252:	db dd       	rcall	.-1098   	; 0xe0a <EERead>
    1254:	ce e6       	ldi	r28, 0x6E	; 110

    uint8_t idSet = 0;
    1256:	d0 e0       	ldi	r29, 0x00	; 0
    for (uint8_t x=0; x<4; ++x){
        idSet += ReadStatusBit(110+x);
    1258:	8c 2f       	mov	r24, r28
    125a:	76 df       	rcall	.-276    	; 0x1148 <ReadStatusBit>
    125c:	d8 0f       	add	r29, r24
    125e:	cf 5f       	subi	r28, 0xFF	; 255
//Load game status
void LoadGameState(){
    EERead(0, &gameState[0], BOOTCHK);   //Load game status bits from EEPROM

    uint8_t idSet = 0;
    for (uint8_t x=0; x<4; ++x){
    1260:	c2 37       	cpi	r28, 0x72	; 114
    1262:	d1 f7       	brne	.-12     	; 0x1258 <LoadGameState+0x12>
        idSet += ReadStatusBit(110+x);
    }

    //Check if badge is reset(0 = cheated!) or new(3) or error(2)
    if (idSet != 1) {
    1264:	d1 30       	cpi	r29, 0x01	; 1
        Reset();
    1266:	11 f0       	breq	.+4      	; 0x126c <LoadGameState+0x26>
    1268:	c5 df       	rcall	.-118    	; 0x11f4 <Reset>
    } else getID();
    126a:	01 c0       	rjmp	.+2      	; 0x126e <LoadGameState+0x28>
    126c:	b5 df       	rcall	.-150    	; 0x11d8 <getID>

    inventory[0] = (gameState[INVADDR]<<8|gameState[INVADDR+1]);
    126e:	80 91 4a 3a 	lds	r24, 0x3A4A	; 0x803a4a <gameState+0x10>
    1272:	90 91 4b 3a 	lds	r25, 0x3A4B	; 0x803a4b <gameState+0x11>
    1276:	98 27       	eor	r25, r24
    1278:	89 27       	eor	r24, r25
    127a:	98 27       	eor	r25, r24
    127c:	80 93 31 38 	sts	0x3831, r24	; 0x803831 <inventory>
    1280:	90 93 32 38 	sts	0x3832, r25	; 0x803832 <inventory+0x1>
    inventory[1] = (gameState[INVADDR+2]<<8|gameState[INVADDR+3]);
    1284:	80 91 4c 3a 	lds	r24, 0x3A4C	; 0x803a4c <gameState+0x12>
    1288:	90 91 4d 3a 	lds	r25, 0x3A4D	; 0x803a4d <gameState+0x13>
    128c:	98 27       	eor	r25, r24
    128e:	89 27       	eor	r24, r25
    1290:	98 27       	eor	r25, r24
    1292:	80 93 33 38 	sts	0x3833, r24	; 0x803833 <inventory+0x2>
    1296:	90 93 34 38 	sts	0x3834, r25	; 0x803834 <inventory+0x3>
}
    129a:	df 91       	pop	r29
    129c:	cf 91       	pop	r28
    129e:	08 95       	ret

000012a0 <HotSummer>:
    //Write bit 0, must always be 1!
    WriteStatusBit(0, 1);
}

//Sets specific game bits after the badge is heated for one and two times.
uint8_t HotSummer(){
    12a0:	cf 93       	push	r28
    static uint8_t cooledDown = 0;

    if (CheckState(SUMMERS_COMPLETED)){
    12a2:	86 e7       	ldi	r24, 0x76	; 118
    12a4:	89 df       	rcall	.-238    	; 0x11b8 <CheckState>
    12a6:	c8 2f       	mov	r28, r24
    12a8:	88 23       	and	r24, r24
    12aa:	81 f0       	breq	.+32     	; 0x12cc <HotSummer+0x2c>
        iLED[SCARAB[G]] = 0;
    12ac:	e0 91 27 b5 	lds	r30, 0xB527	; 0x80b527 <__bss_end+0x7a1c>
    12b0:	f0 e0       	ldi	r31, 0x00	; 0
    12b2:	e5 54       	subi	r30, 0x45	; 69
    12b4:	f5 4c       	sbci	r31, 0xC5	; 197
    12b6:	10 82       	st	Z, r1
        iLED[SCARAB[R]] = dimValue;
    12b8:	e0 91 26 b5 	lds	r30, 0xB526	; 0x80b526 <__bss_end+0x7a1b>
    12bc:	f0 e0       	ldi	r31, 0x00	; 0
    12be:	80 91 09 38 	lds	r24, 0x3809	; 0x803809 <dimValue>
    12c2:	e5 54       	subi	r30, 0x45	; 69
    12c4:	f5 4c       	sbci	r31, 0xC5	; 197
    12c6:	80 83       	st	Z, r24
        return 1;
    12c8:	c1 e0       	ldi	r28, 0x01	; 1
    12ca:	4c c0       	rjmp	.+152    	; 0x1364 <HotSummer+0xc4>
    }

    if (CheckState(FIRST_SUMMER)) {
    12cc:	85 e7       	ldi	r24, 0x75	; 117
    12ce:	74 df       	rcall	.-280    	; 0x11b8 <CheckState>
    12d0:	88 23       	and	r24, r24
    12d2:	59 f1       	breq	.+86     	; 0x132a <HotSummer+0x8a>
        iLED[SCARAB[G]] = dimValue;
    12d4:	e0 91 27 b5 	lds	r30, 0xB527	; 0x80b527 <__bss_end+0x7a1c>
    12d8:	f0 e0       	ldi	r31, 0x00	; 0
    12da:	80 91 09 38 	lds	r24, 0x3809	; 0x803809 <dimValue>
    12de:	e5 54       	subi	r30, 0x45	; 69
    12e0:	f5 4c       	sbci	r31, 0xC5	; 197
    12e2:	80 83       	st	Z, r24
        if ((cooledDown) && (adcTemp >= (calTemp + 8))) {
    12e4:	80 91 48 38 	lds	r24, 0x3848	; 0x803848 <cooledDown.3938>
    12e8:	88 23       	and	r24, r24
    12ea:	79 f0       	breq	.+30     	; 0x130a <HotSummer+0x6a>
    12ec:	80 91 99 3a 	lds	r24, 0x3A99	; 0x803a99 <calTemp>
    12f0:	90 91 9a 3a 	lds	r25, 0x3A9A	; 0x803a9a <calTemp+0x1>
    12f4:	20 91 e6 3a 	lds	r18, 0x3AE6	; 0x803ae6 <adcTemp>
    12f8:	30 91 e7 3a 	lds	r19, 0x3AE7	; 0x803ae7 <adcTemp+0x1>
    12fc:	08 96       	adiw	r24, 0x08	; 8
    12fe:	28 17       	cp	r18, r24
    1300:	39 07       	cpc	r19, r25
            UpdateState(SUMMERS_COMPLETED);
    1302:	18 f0       	brcs	.+6      	; 0x130a <HotSummer+0x6a>
    1304:	86 e7       	ldi	r24, 0x76	; 118
    1306:	4e df       	rcall	.-356    	; 0x11a4 <UpdateState>
            return 0;
    1308:	2d c0       	rjmp	.+90     	; 0x1364 <HotSummer+0xc4>
        }
        if (adcTemp <= (calTemp + 2)) cooledDown = 1;
    130a:	80 91 99 3a 	lds	r24, 0x3A99	; 0x803a99 <calTemp>
    130e:	90 91 9a 3a 	lds	r25, 0x3A9A	; 0x803a9a <calTemp+0x1>
    1312:	20 91 e6 3a 	lds	r18, 0x3AE6	; 0x803ae6 <adcTemp>
    1316:	30 91 e7 3a 	lds	r19, 0x3AE7	; 0x803ae7 <adcTemp+0x1>
    131a:	02 96       	adiw	r24, 0x02	; 2
    131c:	82 17       	cp	r24, r18
    131e:	93 07       	cpc	r25, r19
    1320:	08 f1       	brcs	.+66     	; 0x1364 <HotSummer+0xc4>
    1322:	81 e0       	ldi	r24, 0x01	; 1
    1324:	80 93 48 38 	sts	0x3848, r24	; 0x803848 <cooledDown.3938>
    1328:	1d c0       	rjmp	.+58     	; 0x1364 <HotSummer+0xc4>
                   
    } else {
        if (calTemp == 0) calTemp = adcTemp;
    132a:	80 91 99 3a 	lds	r24, 0x3A99	; 0x803a99 <calTemp>
    132e:	90 91 9a 3a 	lds	r25, 0x3A9A	; 0x803a9a <calTemp+0x1>
    1332:	89 2b       	or	r24, r25
    1334:	41 f4       	brne	.+16     	; 0x1346 <HotSummer+0xa6>
    1336:	80 91 e6 3a 	lds	r24, 0x3AE6	; 0x803ae6 <adcTemp>
    133a:	90 91 e7 3a 	lds	r25, 0x3AE7	; 0x803ae7 <adcTemp+0x1>
    133e:	80 93 99 3a 	sts	0x3A99, r24	; 0x803a99 <calTemp>
    1342:	90 93 9a 3a 	sts	0x3A9A, r25	; 0x803a9a <calTemp+0x1>
        if (adcTemp >= (calTemp + 8)) {
    1346:	80 91 99 3a 	lds	r24, 0x3A99	; 0x803a99 <calTemp>
    134a:	90 91 9a 3a 	lds	r25, 0x3A9A	; 0x803a9a <calTemp+0x1>
    134e:	20 91 e6 3a 	lds	r18, 0x3AE6	; 0x803ae6 <adcTemp>
    1352:	30 91 e7 3a 	lds	r19, 0x3AE7	; 0x803ae7 <adcTemp+0x1>
    1356:	08 96       	adiw	r24, 0x08	; 8
    1358:	28 17       	cp	r18, r24
    135a:	39 07       	cpc	r19, r25
            UpdateState(FIRST_SUMMER);
    135c:	18 f0       	brcs	.+6      	; 0x1364 <HotSummer+0xc4>
    135e:	85 e7       	ldi	r24, 0x75	; 117
    1360:	21 df       	rcall	.-446    	; 0x11a4 <UpdateState>
        }
    }
    return 0;
    1362:	c0 e0       	ldi	r28, 0x00	; 0
}
    1364:	8c 2f       	mov	r24, r28
    1366:	cf 91       	pop	r28
    1368:	08 95       	ret

0000136a <GenerateBlinks>:

void GenerateBlinks(){
    136a:	cf 93       	push	r28
    136c:	df 93       	push	r29
    static uint8_t test = 0;
    iLED[WING[L][test%5]] = 0;
    136e:	20 91 47 38 	lds	r18, 0x3847	; 0x803847 <test.3941>
    1372:	82 2f       	mov	r24, r18
    1374:	65 e0       	ldi	r22, 0x05	; 5
    1376:	0e 94 27 1a 	call	0x344e	; 0x344e <__udivmodqi4>
    137a:	e9 2f       	mov	r30, r25
    137c:	f0 e0       	ldi	r31, 0x00	; 0
    137e:	e8 5d       	subi	r30, 0xD8	; 216
    1380:	fa 44       	sbci	r31, 0x4A	; 74
    1382:	e5 81       	ldd	r30, Z+5	; 0x05
    1384:	f0 e0       	ldi	r31, 0x00	; 0
    1386:	e5 54       	subi	r30, 0x45	; 69
    1388:	f5 4c       	sbci	r31, 0xC5	; 197
    138a:	10 82       	st	Z, r1
    iLED[WING[L][(test+1)%5]] = dimValue;
    138c:	82 2f       	mov	r24, r18
    138e:	90 e0       	ldi	r25, 0x00	; 0
    1390:	01 96       	adiw	r24, 0x01	; 1
    1392:	65 e0       	ldi	r22, 0x05	; 5
    1394:	70 e0       	ldi	r23, 0x00	; 0
    1396:	0e 94 47 1a 	call	0x348e	; 0x348e <__divmodhi4>
    139a:	fc 01       	movw	r30, r24
    139c:	e8 5d       	subi	r30, 0xD8	; 216
    139e:	fa 44       	sbci	r31, 0x4A	; 74
    13a0:	e5 81       	ldd	r30, Z+5	; 0x05
    13a2:	f0 e0       	ldi	r31, 0x00	; 0
    13a4:	80 91 09 38 	lds	r24, 0x3809	; 0x803809 <dimValue>
    13a8:	e5 54       	subi	r30, 0x45	; 69
    13aa:	f5 4c       	sbci	r31, 0xC5	; 197
    13ac:	80 83       	st	Z, r24
    ++test;
    13ae:	2f 5f       	subi	r18, 0xFF	; 255
    13b0:	20 93 47 38 	sts	0x3847, r18	; 0x803847 <test.3941>
    13b4:	88 e2       	ldi	r24, 0x28	; 40
    13b6:	95 eb       	ldi	r25, 0xB5	; 181
    13b8:	c2 e3       	ldi	r28, 0x32	; 50
    13ba:	d5 eb       	ldi	r29, 0xB5	; 181

    for (uint8_t x=0; x<5; ++x){
        iLED[WING[R][x]] = iLED[WING[L][4-x]];
    13bc:	dc 01       	movw	r26, r24
    13be:	ed 91       	ld	r30, X+
    13c0:	cd 01       	movw	r24, r26
    13c2:	f0 e0       	ldi	r31, 0x00	; 0
    13c4:	aa 91       	ld	r26, -Y
    13c6:	b0 e0       	ldi	r27, 0x00	; 0
    13c8:	a5 54       	subi	r26, 0x45	; 69
    13ca:	b5 4c       	sbci	r27, 0xC5	; 197
    13cc:	2c 91       	ld	r18, X
    13ce:	e5 54       	subi	r30, 0x45	; 69
    13d0:	f5 4c       	sbci	r31, 0xC5	; 197
    13d2:	20 83       	st	Z, r18
    static uint8_t test = 0;
    iLED[WING[L][test%5]] = 0;
    iLED[WING[L][(test+1)%5]] = dimValue;
    ++test;

    for (uint8_t x=0; x<5; ++x){
    13d4:	b5 eb       	ldi	r27, 0xB5	; 181
    13d6:	cd 32       	cpi	r28, 0x2D	; 45
    13d8:	db 07       	cpc	r29, r27
    13da:	81 f7       	brne	.-32     	; 0x13bc <GenerateBlinks+0x52>
        iLED[WING[R][x]] = iLED[WING[L][4-x]];
    }
}
    13dc:	df 91       	pop	r29
    13de:	cf 91       	pop	r28
    13e0:	08 95       	ret

000013e2 <GenerateAudio>:

uint8_t GenerateAudio(){
    13e2:	0f 93       	push	r16
    13e4:	1f 93       	push	r17
    13e6:	cf 93       	push	r28
    13e8:	df 93       	push	r29

    //auRepAddr = &auBuffer[0];

    //Audio for text adventure
    if ((effect&0xff00)==0) {
    13ea:	80 91 2d 38 	lds	r24, 0x382D	; 0x80382d <effect>
    13ee:	90 91 2e 38 	lds	r25, 0x382E	; 0x80382e <effect+0x1>
    13f2:	88 27       	eor	r24, r24
    13f4:	89 2b       	or	r24, r25
    13f6:	09 f0       	breq	.+2      	; 0x13fa <GenerateAudio+0x18>
    13f8:	b8 c0       	rjmp	.+368    	; 0x156a <GenerateAudio+0x188>

        //Silence
        if ((effect&0xE0)==0){
    13fa:	80 91 2d 38 	lds	r24, 0x382D	; 0x80382d <effect>
    13fe:	90 91 2e 38 	lds	r25, 0x382E	; 0x80382e <effect+0x1>
    1402:	80 7e       	andi	r24, 0xE0	; 224
    1404:	99 27       	eor	r25, r25
    1406:	89 2b       	or	r24, r25
    1408:	31 f4       	brne	.+12     	; 0x1416 <GenerateAudio+0x34>
            auRepAddr = &zero;
    140a:	8b e2       	ldi	r24, 0x2B	; 43
    140c:	98 e3       	ldi	r25, 0x38	; 56
    140e:	80 93 03 38 	sts	0x3803, r24	; 0x803803 <auRepAddr>
    1412:	90 93 04 38 	sts	0x3804, r25	; 0x803804 <auRepAddr+0x1>
        }

        //Bad (buzzer)
        if ((effect&0xE0)==32){
    1416:	80 91 2d 38 	lds	r24, 0x382D	; 0x80382d <effect>
    141a:	90 91 2e 38 	lds	r25, 0x382E	; 0x80382e <effect+0x1>
    141e:	80 7e       	andi	r24, 0xE0	; 224
    1420:	99 27       	eor	r25, r25
    1422:	80 97       	sbiw	r24, 0x20	; 32
    1424:	09 f0       	breq	.+2      	; 0x1428 <GenerateAudio+0x46>
    1426:	4e c0       	rjmp	.+156    	; 0x14c4 <GenerateAudio+0xe2>
            static uint8_t auBuffer[17] = {1, 255, 128, 128, 192, 255, 64, 255, 192, 128, 64, 1, 192, 1, 64, 128, 0}; 
            static uint8_t loudness, duration, start;
            floatSpeed(1, 0x2000, 0x2200);
    1428:	40 e0       	ldi	r20, 0x00	; 0
    142a:	52 e2       	ldi	r21, 0x22	; 34
    142c:	60 e0       	ldi	r22, 0x00	; 0
    142e:	70 e2       	ldi	r23, 0x20	; 32
    1430:	81 e0       	ldi	r24, 0x01	; 1
    1432:	c0 dd       	rcall	.-1152   	; 0xfb4 <floatSpeed>

            if (buttonMark) {
    1434:	80 91 35 38 	lds	r24, 0x3835	; 0x803835 <buttonMark>
    1438:	88 23       	and	r24, r24
    143a:	09 f4       	brne	.+2      	; 0x143e <GenerateAudio+0x5c>
    143c:	43 c0       	rjmp	.+134    	; 0x14c4 <GenerateAudio+0xe2>
                if (start == 0) {
    143e:	80 91 46 38 	lds	r24, 0x3846	; 0x803846 <start.3951>
    1442:	81 11       	cpse	r24, r1
    1444:	15 c0       	rjmp	.+42     	; 0x1470 <GenerateAudio+0x8e>
                    duration = 4;
    1446:	84 e0       	ldi	r24, 0x04	; 4
    1448:	80 93 45 38 	sts	0x3845, r24	; 0x803845 <duration.3950>
                    loudness = 0xff;
    144c:	8f ef       	ldi	r24, 0xFF	; 255
    144e:	80 93 44 38 	sts	0x3844, r24	; 0x803844 <loudness.3949>
                    TCB1_CCMP = 0x2000;
    1452:	80 e0       	ldi	r24, 0x00	; 0
    1454:	90 e2       	ldi	r25, 0x20	; 32
    1456:	80 93 5c 0a 	sts	0x0A5C, r24	; 0x800a5c <__TEXT_REGION_LENGTH__+0x700a5c>
    145a:	90 93 5d 0a 	sts	0x0A5D, r25	; 0x800a5d <__TEXT_REGION_LENGTH__+0x700a5d>
                    auRepAddr = &auBuffer[0];
    145e:	8b e0       	ldi	r24, 0x0B	; 11
    1460:	98 e3       	ldi	r25, 0x38	; 56
    1462:	80 93 03 38 	sts	0x3803, r24	; 0x803803 <auRepAddr>
    1466:	90 93 04 38 	sts	0x3804, r25	; 0x803804 <auRepAddr+0x1>
                    start = 1;
    146a:	81 e0       	ldi	r24, 0x01	; 1
    146c:	80 93 46 38 	sts	0x3846, r24	; 0x803846 <start.3951>
                }

                if (loudness) {
    1470:	80 91 44 38 	lds	r24, 0x3844	; 0x803844 <loudness.3949>
    1474:	88 23       	and	r24, r24
    1476:	69 f0       	breq	.+26     	; 0x1492 <GenerateAudio+0xb0>
                    auVolume = loudness;
    1478:	80 93 8f 3a 	sts	0x3A8F, r24	; 0x803a8f <auVolume>
                    if (duration) duration--; else loudness >>= 1;
    147c:	90 91 45 38 	lds	r25, 0x3845	; 0x803845 <duration.3950>
    1480:	99 23       	and	r25, r25
    1482:	21 f0       	breq	.+8      	; 0x148c <GenerateAudio+0xaa>
    1484:	91 50       	subi	r25, 0x01	; 1
    1486:	90 93 45 38 	sts	0x3845, r25	; 0x803845 <duration.3950>
    148a:	03 c0       	rjmp	.+6      	; 0x1492 <GenerateAudio+0xb0>
    148c:	86 95       	lsr	r24
    148e:	80 93 44 38 	sts	0x3844, r24	; 0x803844 <loudness.3949>
                } 

                if (loudness == 0) {
    1492:	80 91 44 38 	lds	r24, 0x3844	; 0x803844 <loudness.3949>
    1496:	81 11       	cpse	r24, r1
    1498:	15 c0       	rjmp	.+42     	; 0x14c4 <GenerateAudio+0xe2>
                    auRepAddr = &zero;
    149a:	8b e2       	ldi	r24, 0x2B	; 43
    149c:	98 e3       	ldi	r25, 0x38	; 56
    149e:	80 93 03 38 	sts	0x3803, r24	; 0x803803 <auRepAddr>
    14a2:	90 93 04 38 	sts	0x3804, r25	; 0x803804 <auRepAddr+0x1>
                    effect &= 0x10;
    14a6:	80 91 2d 38 	lds	r24, 0x382D	; 0x80382d <effect>
    14aa:	90 91 2e 38 	lds	r25, 0x382E	; 0x80382e <effect+0x1>
    14ae:	80 71       	andi	r24, 0x10	; 16
    14b0:	99 27       	eor	r25, r25
    14b2:	80 93 2d 38 	sts	0x382D, r24	; 0x80382d <effect>
    14b6:	90 93 2e 38 	sts	0x382E, r25	; 0x80382e <effect+0x1>
                    auVolume = 255;
    14ba:	8f ef       	ldi	r24, 0xFF	; 255
    14bc:	80 93 8f 3a 	sts	0x3A8F, r24	; 0x803a8f <auVolume>
                    start = 0;
    14c0:	10 92 46 38 	sts	0x3846, r1	; 0x803846 <start.3951>
                }
            }
        }

        //Good (bell)
        if ((effect&0xE0)==64){
    14c4:	80 91 2d 38 	lds	r24, 0x382D	; 0x80382d <effect>
    14c8:	90 91 2e 38 	lds	r25, 0x382E	; 0x80382e <effect+0x1>
            //auBuffer = 
        }

        //Rain storm with whistling wind
        if ((effect&0xE0)==96){
    14cc:	80 91 2d 38 	lds	r24, 0x382D	; 0x80382d <effect>
    14d0:	90 91 2e 38 	lds	r25, 0x382E	; 0x80382e <effect+0x1>
    14d4:	80 7e       	andi	r24, 0xE0	; 224
    14d6:	99 27       	eor	r25, r25
    14d8:	80 36       	cpi	r24, 0x60	; 96
    14da:	91 05       	cpc	r25, r1
    14dc:	d1 f5       	brne	.+116    	; 0x1552 <GenerateAudio+0x170>
            static uint8_t auBuffer[7];
            auBuffer[6]= 0;        
    14de:	10 92 43 38 	sts	0x3843, r1	; 0x803843 <auBuffer.3952+0x6>
            auRepAddr = &auBuffer[0];
    14e2:	8d e3       	ldi	r24, 0x3D	; 61
    14e4:	98 e3       	ldi	r25, 0x38	; 56
    14e6:	80 93 03 38 	sts	0x3803, r24	; 0x803803 <auRepAddr>
    14ea:	90 93 04 38 	sts	0x3804, r25	; 0x803804 <auRepAddr+0x1>
    14ee:	8c 01       	movw	r16, r24

            //Noise is to be generated fast, outside of buttonMark loop
            for (uint8_t x=1; x<6; ++x){
    14f0:	c1 e0       	ldi	r28, 0x01	; 1
                if (x%3) auBuffer[x] = floatAround(0x80, 5, 0x01, 0x00);
    14f2:	d3 e0       	ldi	r29, 0x03	; 3
    14f4:	8c 2f       	mov	r24, r28
    14f6:	6d 2f       	mov	r22, r29
    14f8:	0e 94 27 1a 	call	0x344e	; 0x344e <__udivmodqi4>
    14fc:	99 23       	and	r25, r25
    14fe:	39 f0       	breq	.+14     	; 0x150e <GenerateAudio+0x12c>
    1500:	20 e0       	ldi	r18, 0x00	; 0
    1502:	41 e0       	ldi	r20, 0x01	; 1
    1504:	65 e0       	ldi	r22, 0x05	; 5
    1506:	80 e8       	ldi	r24, 0x80	; 128
    1508:	87 dd       	rcall	.-1266   	; 0x1018 <floatAround>
    150a:	f8 01       	movw	r30, r16
    150c:	81 83       	std	Z+1, r24	; 0x01
            static uint8_t auBuffer[7];
            auBuffer[6]= 0;        
            auRepAddr = &auBuffer[0];

            //Noise is to be generated fast, outside of buttonMark loop
            for (uint8_t x=1; x<6; ++x){
    150e:	cf 5f       	subi	r28, 0xFF	; 255
    1510:	0f 5f       	subi	r16, 0xFF	; 255
    1512:	1f 4f       	sbci	r17, 0xFF	; 255
    1514:	c6 30       	cpi	r28, 0x06	; 6
    1516:	71 f7       	brne	.-36     	; 0x14f4 <GenerateAudio+0x112>
                if (x%3) auBuffer[x] = floatAround(0x80, 5, 0x01, 0x00);
            }

            if (buttonMark){
    1518:	80 91 35 38 	lds	r24, 0x3835	; 0x803835 <buttonMark>
    151c:	88 23       	and	r24, r24
    151e:	c9 f0       	breq	.+50     	; 0x1552 <GenerateAudio+0x170>
                //"Floating" speed for howl (and noise, but that's hardly audible)
                floatSpeed(5, 0x0280, 0x0400);
    1520:	40 e0       	ldi	r20, 0x00	; 0
    1522:	54 e0       	ldi	r21, 0x04	; 4
    1524:	60 e8       	ldi	r22, 0x80	; 128
    1526:	72 e0       	ldi	r23, 0x02	; 2
    1528:	85 e0       	ldi	r24, 0x05	; 5
    152a:	44 dd       	rcall	.-1400   	; 0xfb4 <floatSpeed>
            
                //"Floating" volume and wind howl during 8 bit rainstorm needs some randomness
                auVolume = floatAround(auVolume, 2, 0x10, 0xA0);
    152c:	80 91 8f 3a 	lds	r24, 0x3A8F	; 0x803a8f <auVolume>
    1530:	20 ea       	ldi	r18, 0xA0	; 160
    1532:	40 e1       	ldi	r20, 0x10	; 16
    1534:	62 e0       	ldi	r22, 0x02	; 2
    1536:	70 dd       	rcall	.-1312   	; 0x1018 <floatAround>
    1538:	80 93 8f 3a 	sts	0x3A8F, r24	; 0x803a8f <auVolume>
                auBuffer[0] = floatAround(auBuffer[0], 2, 0x70, 0x90);
    153c:	20 e9       	ldi	r18, 0x90	; 144
    153e:	40 e7       	ldi	r20, 0x70	; 112
    1540:	62 e0       	ldi	r22, 0x02	; 2
    1542:	80 91 3d 38 	lds	r24, 0x383D	; 0x80383d <auBuffer.3952>
    1546:	68 dd       	rcall	.-1328   	; 0x1018 <floatAround>
    1548:	80 93 3d 38 	sts	0x383D, r24	; 0x80383d <auBuffer.3952>
                auBuffer[3] = 0xFF-auBuffer[0];  //Inverse value of wind[0] produces a whistle
    154c:	80 95       	com	r24
    154e:	80 93 40 38 	sts	0x3840, r24	; 0x803840 <auBuffer.3952+0x3>
            }
        }

        //Footsteps
        if ((effect&0xE0)==128){
    1552:	80 91 2d 38 	lds	r24, 0x382D	; 0x80382d <effect>
    1556:	90 91 2e 38 	lds	r25, 0x382E	; 0x80382e <effect+0x1>

        }

        //Knocking
        if ((effect&0xE0)==160){
    155a:	80 91 2d 38 	lds	r24, 0x382D	; 0x80382d <effect>
    155e:	90 91 2e 38 	lds	r25, 0x382E	; 0x80382e <effect+0x1>

        }

        //Scream
        if ((effect&0xE0)==192){
    1562:	80 91 2d 38 	lds	r24, 0x382D	; 0x80382d <effect>
    1566:	90 91 2e 38 	lds	r25, 0x382E	; 0x80382e <effect+0x1>
        //Rain storm with whistling wind
        else {
        }
    }

    return buttonMark;
    156a:	80 91 35 38 	lds	r24, 0x3835	; 0x803835 <buttonMark>
    156e:	df 91       	pop	r29
    1570:	cf 91       	pop	r28
    1572:	1f 91       	pop	r17
    1574:	0f 91       	pop	r16
    1576:	08 95       	ret

00001578 <BastetDictates>:

// Main game loop
uint8_t BastetDictates(){
  
    return 0;
}
    1578:	80 e0       	ldi	r24, 0x00	; 0
    157a:	08 95       	ret

0000157c <Cheat>:

//
void SetResponse(uint8_t number, uint16_t address, uint16_t length, uint8_t type){
    reactStr[0][number]=address;
    reactStr[1][number]=length;
    reactStr[2][number]=type;
    157c:	1f 93       	push	r17
    157e:	cf 93       	push	r28
    1580:	df 93       	push	r29
    1582:	cd b7       	in	r28, 0x3d	; 61
    1584:	de b7       	in	r29, 0x3e	; 62
    1586:	62 97       	sbiw	r28, 0x12	; 18
    1588:	cd bf       	out	0x3d, r28	; 61
    158a:	de bf       	out	0x3e, r29	; 62
    158c:	8a 8b       	std	Y+18, r24	; 0x12
    158e:	80 e1       	ldi	r24, 0x10	; 16
    1590:	ec ef       	ldi	r30, 0xFC	; 252
    1592:	f4 eb       	ldi	r31, 0xB4	; 180
    1594:	de 01       	movw	r26, r28
    1596:	11 96       	adiw	r26, 0x01	; 1
    1598:	01 90       	ld	r0, Z+
    159a:	0d 92       	st	X+, r0
    159c:	8a 95       	dec	r24
    159e:	e1 f7       	brne	.-8      	; 0x1598 <Cheat+0x1c>
    15a0:	fe 01       	movw	r30, r28
    15a2:	31 96       	adiw	r30, 0x01	; 1
    15a4:	90 e0       	ldi	r25, 0x00	; 0
    15a6:	8f ef       	ldi	r24, 0xFF	; 255
    15a8:	21 91       	ld	r18, Z+
    15aa:	31 91       	ld	r19, Z+
    15ac:	26 17       	cp	r18, r22
    15ae:	37 07       	cpc	r19, r23
    15b0:	09 f4       	brne	.+2      	; 0x15b4 <Cheat+0x38>
    15b2:	89 2f       	mov	r24, r25
    15b4:	9f 5f       	subi	r25, 0xFF	; 255
    15b6:	98 30       	cpi	r25, 0x08	; 8
    15b8:	b9 f7       	brne	.-18     	; 0x15a8 <Cheat+0x2c>
    15ba:	88 30       	cpi	r24, 0x08	; 8
    15bc:	10 f0       	brcs	.+4      	; 0x15c2 <Cheat+0x46>
    15be:	80 e0       	ldi	r24, 0x00	; 0
    15c0:	12 c0       	rjmp	.+36     	; 0x15e6 <Cheat+0x6a>
    15c2:	18 e1       	ldi	r17, 0x18	; 24
    15c4:	18 0f       	add	r17, r24
    15c6:	41 e0       	ldi	r20, 0x01	; 1
    15c8:	be 01       	movw	r22, r28
    15ca:	6f 5e       	subi	r22, 0xEF	; 239
    15cc:	7f 4f       	sbci	r23, 0xFF	; 255
    15ce:	81 2f       	mov	r24, r17
    15d0:	1c dc       	rcall	.-1992   	; 0xe0a <EERead>
    15d2:	89 89       	ldd	r24, Y+17	; 0x11
    15d4:	8f 3f       	cpi	r24, 0xFF	; 255
    15d6:	99 f7       	brne	.-26     	; 0x15be <Cheat+0x42>
    15d8:	41 e0       	ldi	r20, 0x01	; 1
    15da:	be 01       	movw	r22, r28
    15dc:	6e 5e       	subi	r22, 0xEE	; 238
    15de:	7f 4f       	sbci	r23, 0xFF	; 255
    15e0:	81 2f       	mov	r24, r17
    15e2:	23 dc       	rcall	.-1978   	; 0xe2a <EEWrite>
    15e4:	81 e0       	ldi	r24, 0x01	; 1
    15e6:	62 96       	adiw	r28, 0x12	; 18
    15e8:	cd bf       	out	0x3d, r28	; 61
    15ea:	de bf       	out	0x3e, r29	; 62
    15ec:	df 91       	pop	r29
    15ee:	cf 91       	pop	r28
    15f0:	1f 91       	pop	r17
    15f2:	08 95       	ret

000015f4 <DecryptData>:
    15f4:	f9 01       	movw	r30, r18
    15f6:	9c 01       	movw	r18, r24
    15f8:	2e 1b       	sub	r18, r30
    15fa:	3f 0b       	sbc	r19, r31
    15fc:	88 e0       	ldi	r24, 0x08	; 8
    15fe:	48 9f       	mul	r20, r24
    1600:	a0 01       	movw	r20, r0
    1602:	11 24       	eor	r1, r1
    1604:	4a 53       	subi	r20, 0x3A	; 58
    1606:	5a 44       	sbci	r21, 0x4A	; 74
    1608:	66 23       	and	r22, r22
    160a:	69 f0       	breq	.+26     	; 0x1626 <DecryptData+0x32>
    160c:	df 01       	movw	r26, r30
    160e:	a2 0f       	add	r26, r18
    1610:	b3 1f       	adc	r27, r19
    1612:	a7 70       	andi	r26, 0x07	; 7
    1614:	bb 27       	eor	r27, r27
    1616:	a4 0f       	add	r26, r20
    1618:	b5 1f       	adc	r27, r21
    161a:	80 81       	ld	r24, Z
    161c:	9c 91       	ld	r25, X
    161e:	98 27       	eor	r25, r24
    1620:	91 93       	st	Z+, r25
    1622:	61 50       	subi	r22, 0x01	; 1
    1624:	f1 cf       	rjmp	.-30     	; 0x1608 <DecryptData+0x14>
    1626:	08 95       	ret

00001628 <UnflipData>:
    1628:	26 2f       	mov	r18, r22
    162a:	fb 01       	movw	r30, r22
    162c:	35 e5       	ldi	r19, 0x55	; 85
    162e:	9e 2f       	mov	r25, r30
    1630:	92 1b       	sub	r25, r18
    1632:	98 17       	cp	r25, r24
    1634:	28 f4       	brcc	.+10     	; 0x1640 <UnflipData+0x18>
    1636:	90 81       	ld	r25, Z
    1638:	92 95       	swap	r25
    163a:	93 27       	eor	r25, r19
    163c:	91 93       	st	Z+, r25
    163e:	f7 cf       	rjmp	.-18     	; 0x162e <UnflipData+0x6>
    1640:	08 95       	ret

00001642 <ExtEERead>:
    1642:	af 92       	push	r10
    1644:	bf 92       	push	r11
    1646:	cf 92       	push	r12
    1648:	df 92       	push	r13
    164a:	ef 92       	push	r14
    164c:	ff 92       	push	r15
    164e:	0f 93       	push	r16
    1650:	1f 93       	push	r17
    1652:	cf 93       	push	r28
    1654:	df 93       	push	r29
    1656:	00 d0       	rcall	.+0      	; 0x1658 <ExtEERead+0x16>
    1658:	cd b7       	in	r28, 0x3d	; 61
    165a:	de b7       	in	r29, 0x3e	; 62
    165c:	d6 2e       	mov	r13, r22
    165e:	c4 2e       	mov	r12, r20
    1660:	59 01       	movw	r10, r18
    1662:	7c 01       	movw	r14, r24
    1664:	e8 94       	clt
    1666:	f7 f8       	bld	r15, 7
    1668:	f9 82       	std	Y+1, r15	; 0x01
    166a:	ea 82       	std	Y+2, r14	; 0x02
    166c:	06 2f       	mov	r16, r22
    166e:	42 e0       	ldi	r20, 0x02	; 2
    1670:	be 01       	movw	r22, r28
    1672:	6f 5f       	subi	r22, 0xFF	; 255
    1674:	7f 4f       	sbci	r23, 0xFF	; 255
    1676:	80 e5       	ldi	r24, 0x50	; 80
    1678:	0e 94 5c 01 	call	0x2b8	; 0x2b8 <I2C_read_bytes>
    167c:	18 2f       	mov	r17, r24
    167e:	81 11       	cpse	r24, r1
    1680:	05 c0       	rjmp	.+10     	; 0x168c <ExtEERead+0x4a>
    1682:	95 01       	movw	r18, r10
    1684:	4c 2d       	mov	r20, r12
    1686:	6d 2d       	mov	r22, r13
    1688:	c7 01       	movw	r24, r14
    168a:	b4 df       	rcall	.-152    	; 0x15f4 <DecryptData>
    168c:	81 2f       	mov	r24, r17
    168e:	0f 90       	pop	r0
    1690:	0f 90       	pop	r0
    1692:	df 91       	pop	r29
    1694:	cf 91       	pop	r28
    1696:	1f 91       	pop	r17
    1698:	0f 91       	pop	r16
    169a:	ff 90       	pop	r15
    169c:	ef 90       	pop	r14
    169e:	df 90       	pop	r13
    16a0:	cf 90       	pop	r12
    16a2:	bf 90       	pop	r11
    16a4:	af 90       	pop	r10
    16a6:	08 95       	ret

000016a8 <ClearTxAfter>:
    16a8:	8f 5f       	subi	r24, 0xFF	; 255
    16aa:	88 30       	cpi	r24, 0x08	; 8
    16ac:	30 f4       	brcc	.+12     	; 0x16ba <ClearTxAfter+0x12>
    16ae:	e8 2f       	mov	r30, r24
    16b0:	f0 e0       	ldi	r31, 0x00	; 0
    16b2:	ef 5d       	subi	r30, 0xDF	; 223
    16b4:	f5 4c       	sbci	r31, 0xC5	; 197
    16b6:	10 82       	st	Z, r1
    16b8:	f7 cf       	rjmp	.-18     	; 0x16a8 <ClearTxAfter>
    16ba:	08 95       	ret

000016bc <StartsWith>:
    16bc:	ac 01       	movw	r20, r24
    16be:	90 e0       	ldi	r25, 0x00	; 0
    16c0:	e9 2f       	mov	r30, r25
    16c2:	f0 e0       	ldi	r31, 0x00	; 0
    16c4:	da 01       	movw	r26, r20
    16c6:	ae 0f       	add	r26, r30
    16c8:	bf 1f       	adc	r27, r31
    16ca:	3c 91       	ld	r19, X
    16cc:	e6 0f       	add	r30, r22
    16ce:	f7 1f       	adc	r31, r23
    16d0:	31 11       	cpse	r19, r1
    16d2:	05 c0       	rjmp	.+10     	; 0x16de <StartsWith+0x22>
    16d4:	81 e0       	ldi	r24, 0x01	; 1
    16d6:	90 81       	ld	r25, Z
    16d8:	99 23       	and	r25, r25
    16da:	49 f0       	breq	.+18     	; 0x16ee <StartsWith+0x32>
    16dc:	07 c0       	rjmp	.+14     	; 0x16ec <StartsWith+0x30>
    16de:	20 81       	ld	r18, Z
    16e0:	22 23       	and	r18, r18
    16e2:	c1 f3       	breq	.-16     	; 0x16d4 <StartsWith+0x18>
    16e4:	32 13       	cpse	r19, r18
    16e6:	02 c0       	rjmp	.+4      	; 0x16ec <StartsWith+0x30>
    16e8:	9f 5f       	subi	r25, 0xFF	; 255
    16ea:	ea cf       	rjmp	.-44     	; 0x16c0 <StartsWith+0x4>
    16ec:	80 e0       	ldi	r24, 0x00	; 0
    16ee:	08 95       	ret

000016f0 <PrepareSending>:
    16f0:	61 15       	cp	r22, r1
    16f2:	71 05       	cpc	r23, r1
    16f4:	51 f1       	breq	.+84     	; 0x174a <PrepareSending+0x5a>
    16f6:	e9 e2       	ldi	r30, 0x29	; 41
    16f8:	fa e3       	ldi	r31, 0x3A	; 58
    16fa:	a1 e2       	ldi	r26, 0x21	; 33
    16fc:	ba e3       	ldi	r27, 0x3A	; 58
    16fe:	20 e0       	ldi	r18, 0x00	; 0
    1700:	3f ef       	ldi	r19, 0xFF	; 255
    1702:	6f 3f       	cpi	r22, 0xFF	; 255
    1704:	71 05       	cpc	r23, r1
    1706:	69 f0       	breq	.+26     	; 0x1722 <PrepareSending+0x32>
    1708:	60 f0       	brcs	.+24     	; 0x1722 <PrepareSending+0x32>
    170a:	81 93       	st	Z+, r24
    170c:	91 93       	st	Z+, r25
    170e:	3d 93       	st	X+, r19
    1710:	81 50       	subi	r24, 0x01	; 1
    1712:	9f 4f       	sbci	r25, 0xFF	; 255
    1714:	6f 5f       	subi	r22, 0xFF	; 255
    1716:	71 09       	sbc	r23, r1
    1718:	2f 5f       	subi	r18, 0xFF	; 255
    171a:	27 30       	cpi	r18, 0x07	; 7
    171c:	91 f7       	brne	.-28     	; 0x1702 <PrepareSending+0x12>
    171e:	81 e0       	ldi	r24, 0x01	; 1
    1720:	08 95       	ret
    1722:	e2 2f       	mov	r30, r18
    1724:	f0 e0       	ldi	r31, 0x00	; 0
    1726:	df 01       	movw	r26, r30
    1728:	aa 0f       	add	r26, r26
    172a:	bb 1f       	adc	r27, r27
    172c:	a7 5d       	subi	r26, 0xD7	; 215
    172e:	b5 4c       	sbci	r27, 0xC5	; 197
    1730:	8d 93       	st	X+, r24
    1732:	9c 93       	st	X, r25
    1734:	ef 5d       	subi	r30, 0xDF	; 223
    1736:	f5 4c       	sbci	r31, 0xC5	; 197
    1738:	cb 01       	movw	r24, r22
    173a:	6f ef       	ldi	r22, 0xFF	; 255
    173c:	70 e0       	ldi	r23, 0x00	; 0
    173e:	0e 94 33 1a 	call	0x3466	; 0x3466 <__udivmodhi4>
    1742:	80 83       	st	Z, r24
    1744:	40 93 1f 3a 	sts	0x3A1F, r20	; 0x803a1f <txTypeNow>
    1748:	05 c0       	rjmp	.+10     	; 0x1754 <PrepareSending+0x64>
    174a:	10 92 29 3a 	sts	0x3A29, r1	; 0x803a29 <txAddrList>
    174e:	10 92 2a 3a 	sts	0x3A2A, r1	; 0x803a2a <txAddrList+0x1>
    1752:	20 e0       	ldi	r18, 0x00	; 0
    1754:	82 2f       	mov	r24, r18
    1756:	a8 df       	rcall	.-176    	; 0x16a8 <ClearTxAfter>
    1758:	10 92 20 3a 	sts	0x3A20, r1	; 0x803a20 <txAddrNow>
    175c:	80 e0       	ldi	r24, 0x00	; 0
    175e:	08 95       	ret

00001760 <SetStandardResponse>:
}

//
uint8_t SetStandardResponse(uint8_t custStrEnd){
    1760:	cf 93       	push	r28
    1762:	df 93       	push	r29
    return 0;
}

//
void SetResponse(uint8_t number, uint16_t address, uint16_t length, uint8_t type){
    reactStr[0][number]=address;
    1764:	28 2f       	mov	r18, r24
    1766:	30 e0       	ldi	r19, 0x00	; 0
    1768:	f9 01       	movw	r30, r18
    176a:	ee 0f       	add	r30, r30
    176c:	ff 1f       	adc	r31, r31
    176e:	ec 50       	subi	r30, 0x0C	; 12
    1770:	f7 4c       	sbci	r31, 0xC7	; 199
    1772:	ab e5       	ldi	r26, 0x5B	; 91
    1774:	ba e7       	ldi	r27, 0x7A	; 122
    1776:	a0 83       	st	Z, r26
    1778:	b1 83       	std	Z+1, r27	; 0x01
    reactStr[1][number]=length;
    177a:	f9 01       	movw	r30, r18
    177c:	ee 0f       	add	r30, r30
    177e:	ff 1f       	adc	r31, r31
    1780:	ec 5c       	subi	r30, 0xCC	; 204
    1782:	f6 4c       	sbci	r31, 0xC6	; 198
    1784:	62 e0       	ldi	r22, 0x02	; 2
    1786:	70 e0       	ldi	r23, 0x00	; 0
    1788:	60 83       	st	Z, r22
    178a:	71 83       	std	Z+1, r23	; 0x01
    reactStr[2][number]=type;
    178c:	22 0f       	add	r18, r18
    178e:	33 1f       	adc	r19, r19
    1790:	f9 01       	movw	r30, r18
    1792:	ec 58       	subi	r30, 0x8C	; 140
    1794:	f6 4c       	sbci	r31, 0xC6	; 198
    1796:	41 e0       	ldi	r20, 0x01	; 1
    1798:	50 e0       	ldi	r21, 0x00	; 0
    179a:	40 83       	st	Z, r20
    179c:	51 83       	std	Z+1, r21	; 0x01
    return 0;
}

//
void SetResponse(uint8_t number, uint16_t address, uint16_t length, uint8_t type){
    reactStr[0][number]=address;
    179e:	21 e0       	ldi	r18, 0x01	; 1
    17a0:	28 0f       	add	r18, r24
    17a2:	30 e0       	ldi	r19, 0x00	; 0
    17a4:	f9 01       	movw	r30, r18
    17a6:	ee 0f       	add	r30, r30
    17a8:	ff 1f       	adc	r31, r31
    17aa:	ec 50       	subi	r30, 0x0C	; 12
    17ac:	f7 4c       	sbci	r31, 0xC7	; 199
    17ae:	c4 e6       	ldi	r28, 0x64	; 100
    17b0:	da e7       	ldi	r29, 0x7A	; 122
    17b2:	c0 83       	st	Z, r28
    17b4:	d1 83       	std	Z+1, r29	; 0x01
    reactStr[1][number]=length;
    17b6:	f9 01       	movw	r30, r18
    17b8:	ee 0f       	add	r30, r30
    17ba:	ff 1f       	adc	r31, r31
    17bc:	ec 5c       	subi	r30, 0xCC	; 204
    17be:	f6 4c       	sbci	r31, 0xC6	; 198
    17c0:	ca e0       	ldi	r28, 0x0A	; 10
    17c2:	d0 e0       	ldi	r29, 0x00	; 0
    17c4:	c0 83       	st	Z, r28
    17c6:	d1 83       	std	Z+1, r29	; 0x01
    reactStr[2][number]=type;
    17c8:	22 0f       	add	r18, r18
    17ca:	33 1f       	adc	r19, r19
    17cc:	f9 01       	movw	r30, r18
    17ce:	ec 58       	subi	r30, 0x8C	; 140
    17d0:	f6 4c       	sbci	r31, 0xC6	; 198
    17d2:	40 83       	st	Z, r20
    17d4:	51 83       	std	Z+1, r21	; 0x01
uint8_t SetStandardResponse(uint8_t custStrEnd){

    SetResponse(custStrEnd++, A_LF, 2, TEASER);
    SetResponse(custStrEnd++, A_LOCATION, L_LOCATION, TEASER);
    //SetResponse(custStrEnd++, A_SPACE, L_SPACE, TEASER);
    reactStr[0][custStrEnd++] = CURR_LOC;
    17d6:	e2 e0       	ldi	r30, 0x02	; 2
    17d8:	e8 0f       	add	r30, r24
    17da:	f0 e0       	ldi	r31, 0x00	; 0
    17dc:	ee 0f       	add	r30, r30
    17de:	ff 1f       	adc	r31, r31
    17e0:	ec 50       	subi	r30, 0x0C	; 12
    17e2:	f7 4c       	sbci	r31, 0xC7	; 199
    17e4:	20 ef       	ldi	r18, 0xF0	; 240
    17e6:	3f ef       	ldi	r19, 0xFF	; 255
    17e8:	20 83       	st	Z, r18
    17ea:	31 83       	std	Z+1, r19	; 0x01
    return 0;
}

//
void SetResponse(uint8_t number, uint16_t address, uint16_t length, uint8_t type){
    reactStr[0][number]=address;
    17ec:	23 e0       	ldi	r18, 0x03	; 3
    17ee:	28 0f       	add	r18, r24
    17f0:	30 e0       	ldi	r19, 0x00	; 0
    17f2:	f9 01       	movw	r30, r18
    17f4:	ee 0f       	add	r30, r30
    17f6:	ff 1f       	adc	r31, r31
    17f8:	ec 50       	subi	r30, 0x0C	; 12
    17fa:	f7 4c       	sbci	r31, 0xC7	; 199
    17fc:	a0 83       	st	Z, r26
    17fe:	b1 83       	std	Z+1, r27	; 0x01
    reactStr[1][number]=length;
    1800:	f9 01       	movw	r30, r18
    1802:	ee 0f       	add	r30, r30
    1804:	ff 1f       	adc	r31, r31
    1806:	ec 5c       	subi	r30, 0xCC	; 204
    1808:	f6 4c       	sbci	r31, 0xC6	; 198
    180a:	60 83       	st	Z, r22
    180c:	71 83       	std	Z+1, r23	; 0x01
    reactStr[2][number]=type;
    180e:	22 0f       	add	r18, r18
    1810:	33 1f       	adc	r19, r19
    1812:	f9 01       	movw	r30, r18
    1814:	ec 58       	subi	r30, 0x8C	; 140
    1816:	f6 4c       	sbci	r31, 0xC6	; 198
    1818:	40 83       	st	Z, r20
    181a:	51 83       	std	Z+1, r21	; 0x01
    return 0;
}

//
void SetResponse(uint8_t number, uint16_t address, uint16_t length, uint8_t type){
    reactStr[0][number]=address;
    181c:	24 e0       	ldi	r18, 0x04	; 4
    181e:	28 0f       	add	r18, r24
    1820:	30 e0       	ldi	r19, 0x00	; 0
    1822:	f9 01       	movw	r30, r18
    1824:	ee 0f       	add	r30, r30
    1826:	ff 1f       	adc	r31, r31
    1828:	ec 50       	subi	r30, 0x0C	; 12
    182a:	f7 4c       	sbci	r31, 0xC7	; 199
    182c:	a7 e5       	ldi	r26, 0x57	; 87
    182e:	ba e7       	ldi	r27, 0x7A	; 122
    1830:	a0 83       	st	Z, r26
    1832:	b1 83       	std	Z+1, r27	; 0x01
    reactStr[1][number]=length;
    1834:	f9 01       	movw	r30, r18
    1836:	ee 0f       	add	r30, r30
    1838:	ff 1f       	adc	r31, r31
    183a:	ec 5c       	subi	r30, 0xCC	; 204
    183c:	f6 4c       	sbci	r31, 0xC6	; 198
    183e:	60 83       	st	Z, r22
    1840:	71 83       	std	Z+1, r23	; 0x01
    reactStr[2][number]=type;
    1842:	22 0f       	add	r18, r18
    1844:	33 1f       	adc	r19, r19
    1846:	f9 01       	movw	r30, r18
    1848:	ec 58       	subi	r30, 0x8C	; 140
    184a:	f6 4c       	sbci	r31, 0xC6	; 198
    184c:	40 83       	st	Z, r20
    184e:	51 83       	std	Z+1, r21	; 0x01
    SetResponse(custStrEnd++, A_LF, 2, TEASER);
    SetResponse(custStrEnd++, A_PROMPT, L_PROMPT, TEASER);
    //SetResponse(custStrEnd++, A_SPACE, L_SPACE, TEASER);

    return custStrEnd;
}
    1850:	8b 5f       	subi	r24, 0xFB	; 251
    1852:	df 91       	pop	r29
    1854:	cf 91       	pop	r28
    1856:	08 95       	ret

00001858 <PopulateObject>:

//Get all the relevant data and string addresses of an object
void PopulateObject(uint16_t offset, object_model_t *object){
    1858:	af 92       	push	r10
    185a:	bf 92       	push	r11
    185c:	df 92       	push	r13
    185e:	ef 92       	push	r14
    1860:	ff 92       	push	r15
    1862:	0f 93       	push	r16
    1864:	1f 93       	push	r17
    1866:	cf 93       	push	r28
    1868:	df 93       	push	r29
    186a:	cd b7       	in	r28, 0x3d	; 61
    186c:	de b7       	in	r29, 0x3e	; 62
    186e:	2c 97       	sbiw	r28, 0x0c	; 12
    1870:	cd bf       	out	0x3d, r28	; 61
    1872:	de bf       	out	0x3e, r29	; 62
    1874:	7c 01       	movw	r14, r24
    1876:	8b 01       	movw	r16, r22
    uint16_t parStr;
    offset += L_BOILER;

    //Fill things with fixed distance to offset
    uint8_t data[OFF_STRINGFLDS];
    ExtEERead(offset, OFF_STRINGFLDS, GAME, &data[0]);
    1878:	9e 01       	movw	r18, r28
    187a:	2f 5f       	subi	r18, 0xFF	; 255
    187c:	3f 4f       	sbci	r19, 0xFF	; 255
    187e:	40 e0       	ldi	r20, 0x00	; 0
    1880:	6c e0       	ldi	r22, 0x0C	; 12
    1882:	80 96       	adiw	r24, 0x20	; 32
    1884:	de de       	rcall	.-580    	; 0x1642 <ExtEERead>
    object->addrNextObj = (data[OFF_NEXTOBJ]<<8|data[OFF_NEXTOBJ+1])+L_BOILER;
    1886:	89 81       	ldd	r24, Y+1	; 0x01
    1888:	9a 81       	ldd	r25, Y+2	; 0x02
    188a:	98 27       	eor	r25, r24
    188c:	89 27       	eor	r24, r25
    188e:	98 27       	eor	r25, r24
    1890:	80 96       	adiw	r24, 0x20	; 32
    1892:	f8 01       	movw	r30, r16
    1894:	80 83       	st	Z, r24
    1896:	91 83       	std	Z+1, r25	; 0x01
    object->addrNextLvl = (data[OFF_NEXTLVL]<<8|data[OFF_NEXTLVL+1])+L_BOILER;
    1898:	8b 81       	ldd	r24, Y+3	; 0x03
    189a:	9c 81       	ldd	r25, Y+4	; 0x04
    189c:	98 27       	eor	r25, r24
    189e:	89 27       	eor	r24, r25
    18a0:	98 27       	eor	r25, r24
    18a2:	80 96       	adiw	r24, 0x20	; 32
    18a4:	82 83       	std	Z+2, r24	; 0x02
    18a6:	93 83       	std	Z+3, r25	; 0x03
    18a8:	de 01       	movw	r26, r28
    18aa:	15 96       	adiw	r26, 0x05	; 5
    18ac:	34 96       	adiw	r30, 0x04	; 4
    18ae:	c8 01       	movw	r24, r16
    18b0:	0c 96       	adiw	r24, 0x0c	; 12
    for (uint8_t x=0; x<BYTE_FIELDS_LEN; ++x){
        object->byteField[x]=data[x+OFF_BYTEFLDS];
    18b2:	2d 91       	ld	r18, X+
    18b4:	21 93       	st	Z+, r18
    //Fill things with fixed distance to offset
    uint8_t data[OFF_STRINGFLDS];
    ExtEERead(offset, OFF_STRINGFLDS, GAME, &data[0]);
    object->addrNextObj = (data[OFF_NEXTOBJ]<<8|data[OFF_NEXTOBJ+1])+L_BOILER;
    object->addrNextLvl = (data[OFF_NEXTLVL]<<8|data[OFF_NEXTLVL+1])+L_BOILER;
    for (uint8_t x=0; x<BYTE_FIELDS_LEN; ++x){
    18b6:	e8 17       	cp	r30, r24
    18b8:	f9 07       	cpc	r31, r25
    18ba:	d9 f7       	brne	.-10     	; 0x18b2 <PopulateObject+0x5a>
        object->byteField[x]=data[x+OFF_BYTEFLDS];
    }

    //Find out where all of the strings begin and how long they are
    offset += OFF_STRINGFLDS;
    18bc:	fc e2       	ldi	r31, 0x2C	; 44
    18be:	ef 0e       	add	r14, r31
    18c0:	f1 1c       	adc	r15, r1
    18c2:	58 01       	movw	r10, r16
    for(uint8_t x=0; x<STRING_FIELDS_LEN; ++x){
    18c4:	d1 2c       	mov	r13, r1
        
        //Determine length
        ExtEERead(offset, 3, GAME, &data[0]);
    18c6:	9e 01       	movw	r18, r28
    18c8:	2f 5f       	subi	r18, 0xFF	; 255
    18ca:	3f 4f       	sbci	r19, 0xFF	; 255
    18cc:	40 e0       	ldi	r20, 0x00	; 0
    18ce:	63 e0       	ldi	r22, 0x03	; 3
    18d0:	c7 01       	movw	r24, r14
    18d2:	b7 de       	rcall	.-658    	; 0x1642 <ExtEERead>
    18d4:	89 81       	ldd	r24, Y+1	; 0x01
    18d6:	9a 81       	ldd	r25, Y+2	; 0x02
    18d8:	98 27       	eor	r25, r24
    18da:	89 27       	eor	r24, r25
    18dc:	98 27       	eor	r25, r24
        parStr = (data[0]<<8|data[1]);
        offset += 2;
    18de:	97 01       	movw	r18, r14
    18e0:	2e 5f       	subi	r18, 0xFE	; 254
    18e2:	3f 4f       	sbci	r19, 0xFF	; 255
        if (x >= OPEN_ACL_MSG){
    18e4:	43 e0       	ldi	r20, 0x03	; 3
    18e6:	4d 15       	cp	r20, r13
    18e8:	80 f4       	brcc	.+32     	; 0x190a <PopulateObject+0xb2>
            object->lenStr[x]= parStr-1;
    18ea:	ac 01       	movw	r20, r24
    18ec:	41 50       	subi	r20, 0x01	; 1
    18ee:	51 09       	sbc	r21, r1
    18f0:	f8 01       	movw	r30, r16
    18f2:	42 8f       	std	Z+26, r20	; 0x1a
    18f4:	53 8f       	std	Z+27, r21	; 0x1b
            object->addrStr[x]=offset+1;
    18f6:	f3 e0       	ldi	r31, 0x03	; 3
    18f8:	ef 0e       	add	r14, r31
    18fa:	f1 1c       	adc	r15, r1
    18fc:	f8 01       	movw	r30, r16
    18fe:	e4 86       	std	Z+12, r14	; 0x0c
    1900:	f5 86       	std	Z+13, r15	; 0x0d
            object->effect[x-OPEN_ACL_MSG] = data[2];
    1902:	4b 81       	ldd	r20, Y+3	; 0x03
    1904:	f5 01       	movw	r30, r10
    1906:	44 a3       	std	Z+36, r20	; 0x24
    1908:	05 c0       	rjmp	.+10     	; 0x1914 <PopulateObject+0xbc>
        } else {
            object->lenStr[x]= parStr;
    190a:	f8 01       	movw	r30, r16
    190c:	82 8f       	std	Z+26, r24	; 0x1a
    190e:	93 8f       	std	Z+27, r25	; 0x1b
            object->addrStr[x]=offset;
    1910:	24 87       	std	Z+12, r18	; 0x0c
    1912:	35 87       	std	Z+13, r19	; 0x0d
        }
        
        //Determine string start location for next field
        offset += parStr;
    1914:	7c 01       	movw	r14, r24
    1916:	e2 0e       	add	r14, r18
    1918:	f3 1e       	adc	r15, r19
        object->byteField[x]=data[x+OFF_BYTEFLDS];
    }

    //Find out where all of the strings begin and how long they are
    offset += OFF_STRINGFLDS;
    for(uint8_t x=0; x<STRING_FIELDS_LEN; ++x){
    191a:	d3 94       	inc	r13
    191c:	0e 5f       	subi	r16, 0xFE	; 254
    191e:	1f 4f       	sbci	r17, 0xFF	; 255
    1920:	ff ef       	ldi	r31, 0xFF	; 255
    1922:	af 1a       	sub	r10, r31
    1924:	bf 0a       	sbc	r11, r31
    1926:	47 e0       	ldi	r20, 0x07	; 7
    1928:	d4 12       	cpse	r13, r20
    192a:	cd cf       	rjmp	.-102    	; 0x18c6 <PopulateObject+0x6e>
        }
        
        //Determine string start location for next field
        offset += parStr;
    }    
}
    192c:	2c 96       	adiw	r28, 0x0c	; 12
    192e:	cd bf       	out	0x3d, r28	; 61
    1930:	de bf       	out	0x3e, r29	; 62
    1932:	df 91       	pop	r29
    1934:	cf 91       	pop	r28
    1936:	1f 91       	pop	r17
    1938:	0f 91       	pop	r16
    193a:	ff 90       	pop	r15
    193c:	ef 90       	pop	r14
    193e:	df 90       	pop	r13
    1940:	bf 90       	pop	r11
    1942:	af 90       	pop	r10
    1944:	08 95       	ret

00001946 <CheckLetter>:

//Check if the entered letter corresponds with a name
uint8_t CheckLetter(uint16_t object, uint8_t letter){
    1946:	cf 92       	push	r12
    1948:	df 92       	push	r13
    194a:	ef 92       	push	r14
    194c:	ff 92       	push	r15
    194e:	0f 93       	push	r16
    1950:	1f 93       	push	r17
    1952:	cf 93       	push	r28
    1954:	df 93       	push	r29
    1956:	cd b7       	in	r28, 0x3d	; 61
    1958:	de b7       	in	r29, 0x3e	; 62
    195a:	a0 97       	sbiw	r28, 0x20	; 32
    195c:	cd bf       	out	0x3d, r28	; 61
    195e:	de bf       	out	0x3e, r29	; 62
    1960:	c6 2e       	mov	r12, r22
    
    uint8_t found = 0;
    uint8_t data[32];

    object += L_BOILER;
    1962:	7c 01       	movw	r14, r24
    1964:	20 e2       	ldi	r18, 0x20	; 32
    1966:	e2 0e       	add	r14, r18
    1968:	f1 1c       	adc	r15, r1
    ExtEERead(object+OFF_STRINGFLDS, 2, GAME, &data[0]);
    196a:	9e 01       	movw	r18, r28
    196c:	2f 5f       	subi	r18, 0xFF	; 255
    196e:	3f 4f       	sbci	r19, 0xFF	; 255
    1970:	40 e0       	ldi	r20, 0x00	; 0
    1972:	62 e0       	ldi	r22, 0x02	; 2
    1974:	8c 96       	adiw	r24, 0x2c	; 44
    1976:	65 de       	rcall	.-822    	; 0x1642 <ExtEERead>
    uint8_t x = data[1]; //Assuming a name is not longer than 255 characters.
    1978:	1a 81       	ldd	r17, Y+2	; 0x02
}

//Check if the entered letter corresponds with a name
uint8_t CheckLetter(uint16_t object, uint8_t letter){
    
    uint8_t found = 0;
    197a:	d1 2c       	mov	r13, r1

    object += L_BOILER;
    ExtEERead(object+OFF_STRINGFLDS, 2, GAME, &data[0]);
    uint8_t x = data[1]; //Assuming a name is not longer than 255 characters.

    while (x){
    197c:	11 23       	and	r17, r17
    197e:	51 f1       	breq	.+84     	; 0x19d4 <CheckLetter+0x8e>
    1980:	01 2f       	mov	r16, r17
    1982:	11 32       	cpi	r17, 0x21	; 33
    1984:	08 f0       	brcs	.+2      	; 0x1988 <CheckLetter+0x42>
    1986:	00 e2       	ldi	r16, 0x20	; 32
        uint8_t max;
        if (x>32) max = 32; else max = x;
        ExtEERead(object+OFF_STRINGFLDS+2, max, GAME, &data[0]);
    1988:	9e 01       	movw	r18, r28
    198a:	2f 5f       	subi	r18, 0xFF	; 255
    198c:	3f 4f       	sbci	r19, 0xFF	; 255
    198e:	40 e0       	ldi	r20, 0x00	; 0
    1990:	60 2f       	mov	r22, r16
    1992:	c7 01       	movw	r24, r14
    1994:	0e 96       	adiw	r24, 0x0e	; 14
    1996:	55 de       	rcall	.-854    	; 0x1642 <ExtEERead>
    1998:	fe 01       	movw	r30, r28
    199a:	31 96       	adiw	r30, 0x01	; 1
        for (uint8_t y=0; y<max; ++y){
    199c:	80 e0       	ldi	r24, 0x00	; 0
            if (found){
    199e:	dd 20       	and	r13, r13
    19a0:	61 f0       	breq	.+24     	; 0x19ba <CheckLetter+0x74>
                if ((data[y]|0x20) == letter) return 1; else return 0;
    19a2:	e1 e0       	ldi	r30, 0x01	; 1
    19a4:	f0 e0       	ldi	r31, 0x00	; 0
    19a6:	ec 0f       	add	r30, r28
    19a8:	fd 1f       	adc	r31, r29
    19aa:	e8 0f       	add	r30, r24
    19ac:	f1 1d       	adc	r31, r1
    19ae:	90 81       	ld	r25, Z
    19b0:	90 62       	ori	r25, 0x20	; 32
    19b2:	81 e0       	ldi	r24, 0x01	; 1
    19b4:	9c 11       	cpse	r25, r12
    19b6:	0e c0       	rjmp	.+28     	; 0x19d4 <CheckLetter+0x8e>
    19b8:	0e c0       	rjmp	.+28     	; 0x19d6 <CheckLetter+0x90>
            }
            if (data[y] == '[') found = 1;
    19ba:	91 91       	ld	r25, Z+
    19bc:	dd 24       	eor	r13, r13
    19be:	d3 94       	inc	r13
    19c0:	9b 35       	cpi	r25, 0x5B	; 91
    19c2:	09 f0       	breq	.+2      	; 0x19c6 <CheckLetter+0x80>
    19c4:	d1 2c       	mov	r13, r1

    while (x){
        uint8_t max;
        if (x>32) max = 32; else max = x;
        ExtEERead(object+OFF_STRINGFLDS+2, max, GAME, &data[0]);
        for (uint8_t y=0; y<max; ++y){
    19c6:	8f 5f       	subi	r24, 0xFF	; 255
    19c8:	80 17       	cp	r24, r16
    19ca:	48 f3       	brcs	.-46     	; 0x199e <CheckLetter+0x58>
            if (found){
                if ((data[y]|0x20) == letter) return 1; else return 0;
            }
            if (data[y] == '[') found = 1;
        }
        object += max;
    19cc:	e0 0e       	add	r14, r16
    19ce:	f1 1c       	adc	r15, r1
        x -= max;
    19d0:	10 1b       	sub	r17, r16
    19d2:	d4 cf       	rjmp	.-88     	; 0x197c <CheckLetter+0x36>
    }
    return 0;
    19d4:	80 e0       	ldi	r24, 0x00	; 0
}
    19d6:	a0 96       	adiw	r28, 0x20	; 32
    19d8:	cd bf       	out	0x3d, r28	; 61
    19da:	de bf       	out	0x3e, r29	; 62
    19dc:	df 91       	pop	r29
    19de:	cf 91       	pop	r28
    19e0:	1f 91       	pop	r17
    19e2:	0f 91       	pop	r16
    19e4:	ff 90       	pop	r15
    19e6:	ef 90       	pop	r14
    19e8:	df 90       	pop	r13
    19ea:	cf 90       	pop	r12
    19ec:	08 95       	ret

000019ee <FindChild>:

//Returns the child's address if the child is visible and the search letter matches
uint16_t FindChild(uint16_t parent, uint8_t letter, uint16_t start){
    19ee:	af 92       	push	r10
    19f0:	bf 92       	push	r11
    19f2:	df 92       	push	r13
    19f4:	ef 92       	push	r14
    19f6:	ff 92       	push	r15
    19f8:	0f 93       	push	r16
    19fa:	1f 93       	push	r17
    19fc:	cf 93       	push	r28
    19fe:	df 93       	push	r29
    1a00:	00 d0       	rcall	.+0      	; 0x1a02 <FindChild+0x14>
    1a02:	00 d0       	rcall	.+0      	; 0x1a04 <FindChild+0x16>
    1a04:	cd b7       	in	r28, 0x3d	; 61
    1a06:	de b7       	in	r29, 0x3e	; 62
    1a08:	d6 2e       	mov	r13, r22
    1a0a:	5a 01       	movw	r10, r20
    
    uint16_t child = parent;
    uint8_t data[4];

    ExtEERead(child+L_BOILER, 4, GAME, &data[0]);
    1a0c:	9e 01       	movw	r18, r28
    1a0e:	2f 5f       	subi	r18, 0xFF	; 255
    1a10:	3f 4f       	sbci	r19, 0xFF	; 255
    1a12:	40 e0       	ldi	r20, 0x00	; 0
    1a14:	64 e0       	ldi	r22, 0x04	; 4
    1a16:	80 96       	adiw	r24, 0x20	; 32
    1a18:	14 de       	rcall	.-984    	; 0x1642 <ExtEERead>
    1a1a:	e9 80       	ldd	r14, Y+1	; 0x01
    1a1c:	fa 80       	ldd	r15, Y+2	; 0x02
    1a1e:	fe 24       	eor	r15, r14
    1a20:	ef 24       	eor	r14, r15
    1a22:	fe 24       	eor	r15, r14
    1a24:	0b 81       	ldd	r16, Y+3	; 0x03
    1a26:	1c 81       	ldd	r17, Y+4	; 0x04
    1a28:	10 27       	eor	r17, r16
    1a2a:	01 27       	eor	r16, r17
    1a2c:	10 27       	eor	r17, r16
    parent = (data[0]<<8|data[1]);    //Next object on parent level
    child =  (data[2]<<8|data[3]);    //First object on child level

    //As long as the child is within the parent's range
    while (parent>child){
    1a2e:	0e 15       	cp	r16, r14
    1a30:	1f 05       	cpc	r17, r15
    1a32:	30 f5       	brcc	.+76     	; 0x1a80 <FindChild+0x92>

        //If child's address is higher than the start address, perform search for letter
        if (child>start){
    1a34:	a0 16       	cp	r10, r16
    1a36:	b1 06       	cpc	r11, r17
    1a38:	58 f0       	brcs	.+22     	; 0x1a50 <FindChild+0x62>
                if ((letter == 0)||(CheckLetter(child, letter))) return child;
            }
        }

        //Not visible or name not right
        ExtEERead(child+L_BOILER, 2, GAME, &data[0]);
    1a3a:	9e 01       	movw	r18, r28
    1a3c:	2f 5f       	subi	r18, 0xFF	; 255
    1a3e:	3f 4f       	sbci	r19, 0xFF	; 255
    1a40:	40 e0       	ldi	r20, 0x00	; 0
    1a42:	62 e0       	ldi	r22, 0x02	; 2
    1a44:	c8 01       	movw	r24, r16
    1a46:	80 96       	adiw	r24, 0x20	; 32
    1a48:	fc dd       	rcall	.-1032   	; 0x1642 <ExtEERead>
    1a4a:	09 81       	ldd	r16, Y+1	; 0x01
    1a4c:	1a 81       	ldd	r17, Y+2	; 0x02
    1a4e:	ec cf       	rjmp	.-40     	; 0x1a28 <FindChild+0x3a>
    //As long as the child is within the parent's range
    while (parent>child){

        //If child's address is higher than the start address, perform search for letter
        if (child>start){
            ExtEERead(child+OFF_BYTEFLDS+VISIBLE_ACL+L_BOILER, 1, GAME, &data[0]);
    1a50:	9e 01       	movw	r18, r28
    1a52:	2f 5f       	subi	r18, 0xFF	; 255
    1a54:	3f 4f       	sbci	r19, 0xFF	; 255
    1a56:	40 e0       	ldi	r20, 0x00	; 0
    1a58:	61 e0       	ldi	r22, 0x01	; 1
    1a5a:	c8 01       	movw	r24, r16
    1a5c:	85 96       	adiw	r24, 0x25	; 37
    1a5e:	f1 dd       	rcall	.-1054   	; 0x1642 <ExtEERead>
            if ((data[0] == 0)||(CheckState(data[0]))) {
    1a60:	89 81       	ldd	r24, Y+1	; 0x01
    1a62:	81 11       	cpse	r24, r1
    1a64:	03 c0       	rjmp	.+6      	; 0x1a6c <FindChild+0x7e>
                if ((letter == 0)||(CheckLetter(child, letter))) return child;
    1a66:	d1 10       	cpse	r13, r1
    1a68:	05 c0       	rjmp	.+10     	; 0x1a74 <FindChild+0x86>
    while (parent>child){

        //If child's address is higher than the start address, perform search for letter
        if (child>start){
            ExtEERead(child+OFF_BYTEFLDS+VISIBLE_ACL+L_BOILER, 1, GAME, &data[0]);
            if ((data[0] == 0)||(CheckState(data[0]))) {
    1a6a:	0d c0       	rjmp	.+26     	; 0x1a86 <FindChild+0x98>
    1a6c:	a5 db       	rcall	.-2230   	; 0x11b8 <CheckState>
    1a6e:	81 11       	cpse	r24, r1
    1a70:	fa cf       	rjmp	.-12     	; 0x1a66 <FindChild+0x78>
                if ((letter == 0)||(CheckLetter(child, letter))) return child;
    1a72:	e3 cf       	rjmp	.-58     	; 0x1a3a <FindChild+0x4c>
    1a74:	6d 2d       	mov	r22, r13
    1a76:	c8 01       	movw	r24, r16
    1a78:	66 df       	rcall	.-308    	; 0x1946 <CheckLetter>
    1a7a:	88 23       	and	r24, r24
    1a7c:	f1 f2       	breq	.-68     	; 0x1a3a <FindChild+0x4c>
    1a7e:	03 c0       	rjmp	.+6      	; 0x1a86 <FindChild+0x98>

        //Not visible or name not right
        ExtEERead(child+L_BOILER, 2, GAME, &data[0]);
        child = (data[0]<<8|data[1]);    //Next object on child level
        
    } return 0;
    1a80:	80 e0       	ldi	r24, 0x00	; 0
    1a82:	90 e0       	ldi	r25, 0x00	; 0
    1a84:	01 c0       	rjmp	.+2      	; 0x1a88 <FindChild+0x9a>
    1a86:	c8 01       	movw	r24, r16
}
    1a88:	24 96       	adiw	r28, 0x04	; 4
    1a8a:	cd bf       	out	0x3d, r28	; 61
    1a8c:	de bf       	out	0x3e, r29	; 62
    1a8e:	df 91       	pop	r29
    1a90:	cf 91       	pop	r28
    1a92:	1f 91       	pop	r17
    1a94:	0f 91       	pop	r16
    1a96:	ff 90       	pop	r15
    1a98:	ef 90       	pop	r14
    1a9a:	df 90       	pop	r13
    1a9c:	bf 90       	pop	r11
    1a9e:	af 90       	pop	r10
    1aa0:	08 95       	ret

00001aa2 <InpOkChk>:

//Allow only a(A) to z(Z) and 0 to 9 as input
uint8_t InpOkChk(uint8_t test){
    test |= 0x20;
    1aa2:	80 62       	ori	r24, 0x20	; 32
    if ((test>='a')&&(test<='z')) return 1;
    1aa4:	9f e9       	ldi	r25, 0x9F	; 159
    1aa6:	98 0f       	add	r25, r24
    1aa8:	9a 31       	cpi	r25, 0x1A	; 26
    1aaa:	38 f0       	brcs	.+14     	; 0x1aba <InpOkChk+0x18>
    1aac:	90 ed       	ldi	r25, 0xD0	; 208
    1aae:	98 0f       	add	r25, r24
    1ab0:	81 e0       	ldi	r24, 0x01	; 1
    1ab2:	9a 30       	cpi	r25, 0x0A	; 10
    1ab4:	18 f0       	brcs	.+6      	; 0x1abc <InpOkChk+0x1a>
    1ab6:	80 e0       	ldi	r24, 0x00	; 0
    1ab8:	08 95       	ret
    1aba:	81 e0       	ldi	r24, 0x01	; 1
    if ((test>='0')&&(test<='9')) return 1;
    return 0;
}
    1abc:	08 95       	ret

00001abe <CleanInput>:

//Cleans input of garbage and returns length of cleaned input "o->d2  !\0" becomes "od2\0"
uint8_t CleanInput(uint8_t *data){
    1abe:	0f 93       	push	r16
    1ac0:	1f 93       	push	r17
    1ac2:	cf 93       	push	r28
    1ac4:	df 93       	push	r29
    1ac6:	8c 01       	movw	r16, r24
    uint8_t cnt = 0;
    for (uint8_t x=0; data[x]!=0; ++x){
    1ac8:	d0 e0       	ldi	r29, 0x00	; 0
    return 0;
}

//Cleans input of garbage and returns length of cleaned input "o->d2  !\0" becomes "od2\0"
uint8_t CleanInput(uint8_t *data){
    uint8_t cnt = 0;
    1aca:	c0 e0       	ldi	r28, 0x00	; 0
    for (uint8_t x=0; data[x]!=0; ++x){
    1acc:	f8 01       	movw	r30, r16
    1ace:	ed 0f       	add	r30, r29
    1ad0:	f1 1d       	adc	r31, r1
    1ad2:	20 81       	ld	r18, Z
    1ad4:	8c 2f       	mov	r24, r28
    1ad6:	90 e0       	ldi	r25, 0x00	; 0
    1ad8:	22 23       	and	r18, r18
    1ada:	51 f0       	breq	.+20     	; 0x1af0 <CleanInput+0x32>
        data[cnt] = data[x];
    1adc:	d8 01       	movw	r26, r16
    1ade:	a8 0f       	add	r26, r24
    1ae0:	b9 1f       	adc	r27, r25
    1ae2:	2c 93       	st	X, r18
        if (InpOkChk(data[x])) ++cnt;
    1ae4:	80 81       	ld	r24, Z
    1ae6:	dd df       	rcall	.-70     	; 0x1aa2 <InpOkChk>
    1ae8:	81 11       	cpse	r24, r1
    1aea:	cf 5f       	subi	r28, 0xFF	; 255
}

//Cleans input of garbage and returns length of cleaned input "o->d2  !\0" becomes "od2\0"
uint8_t CleanInput(uint8_t *data){
    uint8_t cnt = 0;
    for (uint8_t x=0; data[x]!=0; ++x){
    1aec:	df 5f       	subi	r29, 0xFF	; 255
    1aee:	ee cf       	rjmp	.-36     	; 0x1acc <CleanInput+0xe>
        data[cnt] = data[x];
        if (InpOkChk(data[x])) ++cnt;
    }
    data[cnt] = 0;
    1af0:	f8 01       	movw	r30, r16
    1af2:	e8 0f       	add	r30, r24
    1af4:	f9 1f       	adc	r31, r25
    1af6:	10 82       	st	Z, r1
    return cnt;
}
    1af8:	8c 2f       	mov	r24, r28
    1afa:	df 91       	pop	r29
    1afc:	cf 91       	pop	r28
    1afe:	1f 91       	pop	r17
    1b00:	0f 91       	pop	r16
    1b02:	08 95       	ret

00001b04 <CheckSend>:

//Send routine, optimized for low memory usage
uint8_t CheckSend(){
    1b04:	cf 93       	push	r28
    static uint8_t txPart;
    uint8_t EEreadLength=0;

    //Play effects if available and not already playing
    if (effect == 0){
    1b06:	80 91 2d 38 	lds	r24, 0x382D	; 0x80382d <effect>
    1b0a:	90 91 2e 38 	lds	r25, 0x382E	; 0x80382e <effect+0x1>
    1b0e:	89 2b       	or	r24, r25
    1b10:	99 f4       	brne	.+38     	; 0x1b38 <CheckSend+0x34>
        effect = currObj.byteField[EFFECTS];
    1b12:	80 91 f8 39 	lds	r24, 0x39F8	; 0x8039f8 <currObj+0x4>
    1b16:	90 e0       	ldi	r25, 0x00	; 0
    1b18:	80 93 2d 38 	sts	0x382D, r24	; 0x80382d <effect>
    1b1c:	90 93 2e 38 	sts	0x382E, r25	; 0x80382e <effect+0x1>
        auStart = ((effect&0xE0)>0);
    1b20:	80 91 2d 38 	lds	r24, 0x382D	; 0x80382d <effect>
    1b24:	90 91 2e 38 	lds	r25, 0x382E	; 0x80382e <effect+0x1>
    1b28:	80 7e       	andi	r24, 0xE0	; 224
    1b2a:	99 27       	eor	r25, r25
    1b2c:	21 e0       	ldi	r18, 0x01	; 1
    1b2e:	89 2b       	or	r24, r25
    1b30:	09 f4       	brne	.+2      	; 0x1b34 <CheckSend+0x30>
    1b32:	20 e0       	ldi	r18, 0x00	; 0
    1b34:	20 93 2c 38 	sts	0x382C, r18	; 0x80382c <auStart>
    }

    //Check if more string(part)s have to be sent to the serial output if previous send operation is completed
    if ((txAddrNow < TXLISTLEN) && serTxDone){
    1b38:	20 91 20 3a 	lds	r18, 0x3A20	; 0x803a20 <txAddrNow>
    1b3c:	28 30       	cpi	r18, 0x08	; 8
    1b3e:	08 f0       	brcs	.+2      	; 0x1b42 <CheckSend+0x3e>
    1b40:	47 c0       	rjmp	.+142    	; 0x1bd0 <CheckSend+0xcc>
    1b42:	80 91 08 38 	lds	r24, 0x3808	; 0x803808 <serTxDone>
    1b46:	88 23       	and	r24, r24
    1b48:	09 f4       	brne	.+2      	; 0x1b4c <CheckSend+0x48>
    1b4a:	42 c0       	rjmp	.+132    	; 0x1bd0 <CheckSend+0xcc>
        if (txStrLen[txAddrNow] == 0){
    1b4c:	82 2f       	mov	r24, r18
    1b4e:	90 e0       	ldi	r25, 0x00	; 0
    1b50:	fc 01       	movw	r30, r24
    1b52:	ef 5d       	subi	r30, 0xDF	; 223
    1b54:	f5 4c       	sbci	r31, 0xC5	; 197
    1b56:	e0 81       	ld	r30, Z
    1b58:	e1 11       	cpse	r30, r1
    1b5a:	06 c0       	rjmp	.+12     	; 0x1b68 <CheckSend+0x64>
            txPart = 0;
    1b5c:	10 92 e1 38 	sts	0x38E1, r1	; 0x8038e1 <txPart.3937>
            txAddrNow = TXLISTLEN;
    1b60:	88 e0       	ldi	r24, 0x08	; 8
    1b62:	80 93 20 3a 	sts	0x3A20, r24	; 0x803a20 <txAddrNow>
    1b66:	2c c0       	rjmp	.+88     	; 0x1bc0 <CheckSend+0xbc>
        } else if (txPart < txStrLen[txAddrNow]){
    1b68:	50 91 e1 38 	lds	r21, 0x38E1	; 0x8038e1 <txPart.3937>
    1b6c:	5e 17       	cp	r21, r30
    1b6e:	50 f5       	brcc	.+84     	; 0x1bc4 <CheckSend+0xc0>
            EEreadLength = txStrLen[txAddrNow]-txPart;
    1b70:	ce 2f       	mov	r28, r30
    1b72:	c5 1b       	sub	r28, r21
    1b74:	c1 32       	cpi	r28, 0x21	; 33
    1b76:	08 f0       	brcs	.+2      	; 0x1b7a <CheckSend+0x76>
    1b78:	c0 e2       	ldi	r28, 0x20	; 32
            if (EEreadLength>=TXLEN) EEreadLength = TXLEN-1;
            ExtEERead(txAddrList[txAddrNow]+txPart, EEreadLength, txTypeNow, &txBuffer[0]);
    1b7a:	88 0f       	add	r24, r24
    1b7c:	99 1f       	adc	r25, r25
    1b7e:	fc 01       	movw	r30, r24
    1b80:	e7 5d       	subi	r30, 0xD7	; 215
    1b82:	f5 4c       	sbci	r31, 0xC5	; 197
    1b84:	80 81       	ld	r24, Z
    1b86:	91 81       	ldd	r25, Z+1	; 0x01
    1b88:	2a ee       	ldi	r18, 0xEA	; 234
    1b8a:	3a e3       	ldi	r19, 0x3A	; 58
    1b8c:	40 91 1f 3a 	lds	r20, 0x3A1F	; 0x803a1f <txTypeNow>
    1b90:	6c 2f       	mov	r22, r28
    1b92:	85 0f       	add	r24, r21
    1b94:	91 1d       	adc	r25, r1
    1b96:	55 dd       	rcall	.-1366   	; 0x1642 <ExtEERead>
            txPart += EEreadLength;
    1b98:	80 91 e1 38 	lds	r24, 0x38E1	; 0x8038e1 <txPart.3937>
    1b9c:	8c 0f       	add	r24, r28
    1b9e:	80 93 e1 38 	sts	0x38E1, r24	; 0x8038e1 <txPart.3937>
            txBuffer[EEreadLength] = 0; //Add string terminator after piece to send to plug memory leak
    1ba2:	ec 2f       	mov	r30, r28
    1ba4:	f0 e0       	ldi	r31, 0x00	; 0
    1ba6:	e6 51       	subi	r30, 0x16	; 22
    1ba8:	f5 4c       	sbci	r31, 0xC5	; 197
    1baa:	10 82       	st	Z, r1
            if ((txBuffer[0] == 0) && (EEreadLength)) txBuffer[0] = 0xDB; //Block character when data wrong.
    1bac:	80 91 ea 3a 	lds	r24, 0x3AEA	; 0x803aea <txBuffer>
    1bb0:	81 11       	cpse	r24, r1
    1bb2:	03 c0       	rjmp	.+6      	; 0x1bba <CheckSend+0xb6>
    1bb4:	8b ed       	ldi	r24, 0xDB	; 219
    1bb6:	80 93 ea 3a 	sts	0x3AEA, r24	; 0x803aea <txBuffer>
            SerSend(&txBuffer[0]);
    1bba:	8a ee       	ldi	r24, 0xEA	; 234
    1bbc:	9a e3       	ldi	r25, 0x3A	; 58
    1bbe:	5d d9       	rcall	.-3398   	; 0xe7a <SerSend>
        } else {
            txPart = 0;
            ++txAddrNow;
        }
    } else if (serTxDone) return 0; //All is sent!
    return 1; //Still sending, do not change the data in the tx variables
    1bc0:	81 e0       	ldi	r24, 0x01	; 1
    1bc2:	0b c0       	rjmp	.+22     	; 0x1bda <CheckSend+0xd6>
            txPart += EEreadLength;
            txBuffer[EEreadLength] = 0; //Add string terminator after piece to send to plug memory leak
            if ((txBuffer[0] == 0) && (EEreadLength)) txBuffer[0] = 0xDB; //Block character when data wrong.
            SerSend(&txBuffer[0]);
        } else {
            txPart = 0;
    1bc4:	10 92 e1 38 	sts	0x38E1, r1	; 0x8038e1 <txPart.3937>
            ++txAddrNow;
    1bc8:	2f 5f       	subi	r18, 0xFF	; 255
    1bca:	20 93 20 3a 	sts	0x3A20, r18	; 0x803a20 <txAddrNow>
    1bce:	f8 cf       	rjmp	.-16     	; 0x1bc0 <CheckSend+0xbc>
        }
    } else if (serTxDone) return 0; //All is sent!
    1bd0:	90 91 08 38 	lds	r25, 0x3808	; 0x803808 <serTxDone>
    1bd4:	81 e0       	ldi	r24, 0x01	; 1
    1bd6:	91 11       	cpse	r25, r1
    1bd8:	80 e0       	ldi	r24, 0x00	; 0
    return 1; //Still sending, do not change the data in the tx variables
}
    1bda:	cf 91       	pop	r28
    1bdc:	08 95       	ret

00001bde <CheckResponse>:

//Send another part of the response and play the effect afterwards
uint8_t CheckResponse(){
    1bde:	cf 93       	push	r28
    1be0:	df 93       	push	r29
    static uint8_t number = 0;
    if (responseList){
    1be2:	c0 91 f3 38 	lds	r28, 0x38F3	; 0x8038f3 <responseList>
    1be6:	cc 23       	and	r28, r28
    1be8:	e9 f1       	breq	.+122    	; 0x1c64 <CheckResponse+0x86>
        --responseList;
    1bea:	c1 50       	subi	r28, 0x01	; 1
    1bec:	c0 93 f3 38 	sts	0x38F3, r28	; 0x8038f3 <responseList>
        if (reactStr[0][number] == CURR_LOC) {
    1bf0:	d0 91 e0 38 	lds	r29, 0x38E0	; 0x8038e0 <number.3941>
    1bf4:	2d 2f       	mov	r18, r29
    1bf6:	30 e0       	ldi	r19, 0x00	; 0
    1bf8:	f9 01       	movw	r30, r18
    1bfa:	ee 0f       	add	r30, r30
    1bfc:	ff 1f       	adc	r31, r31
    1bfe:	ec 50       	subi	r30, 0x0C	; 12
    1c00:	f7 4c       	sbci	r31, 0xC7	; 199
    1c02:	80 81       	ld	r24, Z
    1c04:	91 81       	ldd	r25, Z+1	; 0x01
    1c06:	80 3f       	cpi	r24, 0xF0	; 240
    1c08:	4f ef       	ldi	r20, 0xFF	; 255
    1c0a:	94 07       	cpc	r25, r20
    1c0c:	51 f4       	brne	.+20     	; 0x1c22 <CheckResponse+0x44>
            PrepareSending(currObj.addrStr[NAME], currObj.lenStr[NAME], GAME);
    1c0e:	60 91 0e 3a 	lds	r22, 0x3A0E	; 0x803a0e <currObj+0x1a>
    1c12:	70 91 0f 3a 	lds	r23, 0x3A0F	; 0x803a0f <currObj+0x1b>
    1c16:	40 e0       	ldi	r20, 0x00	; 0
    1c18:	80 91 00 3a 	lds	r24, 0x3A00	; 0x803a00 <currObj+0xc>
    1c1c:	90 91 01 3a 	lds	r25, 0x3A01	; 0x803a01 <currObj+0xd>
    1c20:	0d c0       	rjmp	.+26     	; 0x1c3c <CheckResponse+0x5e>
        } else {
            PrepareSending(reactStr[0][number], reactStr[1][number], reactStr[2][number]);
    1c22:	d9 01       	movw	r26, r18
    1c24:	aa 0f       	add	r26, r26
    1c26:	bb 1f       	adc	r27, r27
    1c28:	ac 58       	subi	r26, 0x8C	; 140
    1c2a:	b6 4c       	sbci	r27, 0xC6	; 198
    1c2c:	22 0f       	add	r18, r18
    1c2e:	33 1f       	adc	r19, r19
    1c30:	f9 01       	movw	r30, r18
    1c32:	ec 5c       	subi	r30, 0xCC	; 204
    1c34:	f6 4c       	sbci	r31, 0xC6	; 198
    1c36:	60 81       	ld	r22, Z
    1c38:	71 81       	ldd	r23, Z+1	; 0x01
    1c3a:	4c 91       	ld	r20, X
    1c3c:	59 dd       	rcall	.-1358   	; 0x16f0 <PrepareSending>
        }
        ++number;
    1c3e:	df 5f       	subi	r29, 0xFF	; 255
    1c40:	d0 93 e0 38 	sts	0x38E0, r29	; 0x8038e0 <number.3941>

        if (responseList == 0) {
    1c44:	c1 11       	cpse	r28, r1
    1c46:	0d c0       	rjmp	.+26     	; 0x1c62 <CheckResponse+0x84>
            effect = currObj.byteField[EFFECTS];
    1c48:	80 91 f8 39 	lds	r24, 0x39F8	; 0x8039f8 <currObj+0x4>
    1c4c:	90 e0       	ldi	r25, 0x00	; 0
    1c4e:	80 93 2d 38 	sts	0x382D, r24	; 0x80382d <effect>
    1c52:	90 93 2e 38 	sts	0x382E, r25	; 0x80382e <effect+0x1>
            RXCNT = 0;
    1c56:	1d ba       	out	0x1d, r1	; 29
            serRxDone = 0;
    1c58:	10 92 37 38 	sts	0x3837, r1	; 0x803837 <serRxDone>
            number = 0;
    1c5c:	10 92 e0 38 	sts	0x38E0, r1	; 0x8038e0 <number.3941>
    1c60:	01 c0       	rjmp	.+2      	; 0x1c64 <CheckResponse+0x86>
            return 0;
        }
        return 1;
    1c62:	c1 e0       	ldi	r28, 0x01	; 1
    }
    return 0;
}
    1c64:	8c 2f       	mov	r24, r28
    1c66:	df 91       	pop	r29
    1c68:	cf 91       	pop	r28
    1c6a:	08 95       	ret

00001c6c <CheckInput>:

//User input check (and validation)
uint8_t CheckInput(uint8_t *data){
    1c6c:	4f 92       	push	r4
    1c6e:	5f 92       	push	r5
    1c70:	6f 92       	push	r6
    1c72:	7f 92       	push	r7
    1c74:	8f 92       	push	r8
    1c76:	9f 92       	push	r9
    1c78:	af 92       	push	r10
    1c7a:	bf 92       	push	r11
    1c7c:	cf 92       	push	r12
    1c7e:	df 92       	push	r13
    1c80:	ef 92       	push	r14
    1c82:	ff 92       	push	r15
    1c84:	0f 93       	push	r16
    1c86:	1f 93       	push	r17
    1c88:	cf 93       	push	r28
    1c8a:	df 93       	push	r29
    1c8c:	cd b7       	in	r28, 0x3d	; 61
    1c8e:	de b7       	in	r29, 0x3e	; 62
    1c90:	a1 97       	sbiw	r28, 0x21	; 33
    1c92:	cd bf       	out	0x3d, r28	; 61
    1c94:	de bf       	out	0x3e, r29	; 62
    1c96:	8c 01       	movw	r16, r24
    
    //Load game data after reboot
    if (currDepth == 0xff) {
    1c98:	80 91 26 38 	lds	r24, 0x3826	; 0x803826 <currDepth>
    1c9c:	8f 3f       	cpi	r24, 0xFF	; 255
    1c9e:	49 f4       	brne	.+18     	; 0x1cb2 <CheckInput+0x46>
        //Start at first location
        PopulateObject(route[0], &currObj);
    1ca0:	64 ef       	ldi	r22, 0xF4	; 244
    1ca2:	79 e3       	ldi	r23, 0x39	; 57
    1ca4:	80 91 b4 39 	lds	r24, 0x39B4	; 0x8039b4 <route>
    1ca8:	90 91 b5 39 	lds	r25, 0x39B5	; 0x8039b5 <route+0x1>
    1cac:	d5 dd       	rcall	.-1110   	; 0x1858 <PopulateObject>
        currDepth = 0;
    1cae:	10 92 26 38 	sts	0x3826, r1	; 0x803826 <currDepth>
    }

    if (serRxDone){
    1cb2:	80 91 37 38 	lds	r24, 0x3837	; 0x803837 <serRxDone>
    1cb6:	88 23       	and	r24, r24
    1cb8:	09 f4       	brne	.+2      	; 0x1cbc <CheckInput+0x50>
    1cba:	5f c2       	rjmp	.+1214   	; 0x217a <CheckInput+0x50e>

        //Special input requested from user by game
        if (specialInput[0]){
    1cbc:	80 91 e3 38 	lds	r24, 0x38E3	; 0x8038e3 <specialInput>
    1cc0:	88 23       	and	r24, r24
    1cc2:	09 f4       	brne	.+2      	; 0x1cc6 <CheckInput+0x5a>
    1cc4:	57 c0       	rjmp	.+174    	; 0x1d74 <CheckInput+0x108>
            specialPassed = 0;
    1cc6:	10 92 e2 38 	sts	0x38E2, r1	; 0x8038e2 <specialPassed>
            data[0] = 'a';
    1cca:	81 e6       	ldi	r24, 0x61	; 97
    1ccc:	f8 01       	movw	r30, r16
    1cce:	80 83       	st	Z, r24
            
            //Normal code challenge
            if (StartsWith((uint8_t *)&serRx[0], &specialInput[0])) {
    1cd0:	63 ee       	ldi	r22, 0xE3	; 227
    1cd2:	78 e3       	ldi	r23, 0x38	; 56
    1cd4:	8e e4       	ldi	r24, 0x4E	; 78
    1cd6:	9a e3       	ldi	r25, 0x3A	; 58
    1cd8:	f1 dc       	rcall	.-1566   	; 0x16bc <StartsWith>
    1cda:	f8 2e       	mov	r15, r24
    1cdc:	88 23       	and	r24, r24
    1cde:	21 f0       	breq	.+8      	; 0x1ce8 <CheckInput+0x7c>
                specialPassed = 1;
    1ce0:	81 e0       	ldi	r24, 0x01	; 1
    1ce2:	80 93 e2 38 	sts	0x38E2, r24	; 0x8038e2 <specialPassed>
    1ce6:	04 c0       	rjmp	.+8      	; 0x1cf0 <CheckInput+0x84>
                //specialInput[0] = 0;
                //data[1] = 0;

            //Special challenge 1
            } else if ((specialInput[0] == '1')&&(specialInput[2] == 0)) {
    1ce8:	80 91 e3 38 	lds	r24, 0x38E3	; 0x8038e3 <specialInput>
    1cec:	81 33       	cpi	r24, 0x31	; 49
    1cee:	11 f0       	breq	.+4      	; 0x1cf4 <CheckInput+0x88>
                responseList = 32;
                return 1;
            }
        } 
        //Data received, but not any of the commands above
        return 0;
    1cf0:	f1 2c       	mov	r15, r1
    1cf2:	45 c2       	rjmp	.+1162   	; 0x217e <CheckInput+0x512>
                specialPassed = 1;
                //specialInput[0] = 0;
                //data[1] = 0;

            //Special challenge 1
            } else if ((specialInput[0] == '1')&&(specialInput[2] == 0)) {
    1cf4:	80 91 e5 38 	lds	r24, 0x38E5	; 0x8038e5 <specialInput+0x2>
    1cf8:	81 11       	cpse	r24, r1
    1cfa:	fa cf       	rjmp	.-12     	; 0x1cf0 <CheckInput+0x84>
                uint8_t inputLen = CleanInput((uint8_t *)&serRx[0]);
    1cfc:	8e e4       	ldi	r24, 0x4E	; 78
    1cfe:	9a e3       	ldi	r25, 0x3A	; 58
    1d00:	de de       	rcall	.-580    	; 0x1abe <CleanInput>
                specialPassed = 2;
    1d02:	92 e0       	ldi	r25, 0x02	; 2
    1d04:	90 93 e2 38 	sts	0x38E2, r25	; 0x8038e2 <specialPassed>
                data[1] = 0;
    1d08:	f8 01       	movw	r30, r16
    1d0a:	11 82       	std	Z+1, r1	; 0x01

                if (inputLen >= 2) {
    1d0c:	82 30       	cpi	r24, 0x02	; 2
    1d0e:	80 f3       	brcs	.-32     	; 0x1cf0 <CheckInput+0x84>
                    if ((serRx[0] == '1')||(serRx[0] == '2')||(serRx[0] == '3')||(serRx[0] == '4')) {
    1d10:	80 91 4e 3a 	lds	r24, 0x3A4E	; 0x803a4e <serRx>
    1d14:	81 33       	cpi	r24, 0x31	; 49
    1d16:	61 f0       	breq	.+24     	; 0x1d30 <CheckInput+0xc4>
    1d18:	80 91 4e 3a 	lds	r24, 0x3A4E	; 0x803a4e <serRx>
    1d1c:	82 33       	cpi	r24, 0x32	; 50
    1d1e:	41 f0       	breq	.+16     	; 0x1d30 <CheckInput+0xc4>
    1d20:	80 91 4e 3a 	lds	r24, 0x3A4E	; 0x803a4e <serRx>
    1d24:	83 33       	cpi	r24, 0x33	; 51
    1d26:	21 f0       	breq	.+8      	; 0x1d30 <CheckInput+0xc4>
    1d28:	80 91 4e 3a 	lds	r24, 0x3A4E	; 0x803a4e <serRx>
    1d2c:	84 33       	cpi	r24, 0x34	; 52
    1d2e:	01 f7       	brne	.-64     	; 0x1cf0 <CheckInput+0x84>
                        serRx[1] |= 0x20;
    1d30:	80 91 4f 3a 	lds	r24, 0x3A4F	; 0x803a4f <serRx+0x1>
    1d34:	80 62       	ori	r24, 0x20	; 32
    1d36:	80 93 4f 3a 	sts	0x3A4F, r24	; 0x803a4f <serRx+0x1>
                        if ((serRx[1] == 'a')||(serRx[1] == 'e')||(serRx[1] == 'f')||(serRx[1] == 'w')) {
    1d3a:	80 91 4f 3a 	lds	r24, 0x3A4F	; 0x803a4f <serRx+0x1>
    1d3e:	81 36       	cpi	r24, 0x61	; 97
    1d40:	61 f0       	breq	.+24     	; 0x1d5a <CheckInput+0xee>
    1d42:	80 91 4f 3a 	lds	r24, 0x3A4F	; 0x803a4f <serRx+0x1>
    1d46:	85 36       	cpi	r24, 0x65	; 101
    1d48:	41 f0       	breq	.+16     	; 0x1d5a <CheckInput+0xee>
    1d4a:	80 91 4f 3a 	lds	r24, 0x3A4F	; 0x803a4f <serRx+0x1>
    1d4e:	86 36       	cpi	r24, 0x66	; 102
    1d50:	21 f0       	breq	.+8      	; 0x1d5a <CheckInput+0xee>
    1d52:	80 91 4f 3a 	lds	r24, 0x3A4F	; 0x803a4f <serRx+0x1>
    1d56:	87 37       	cpi	r24, 0x77	; 119
    1d58:	59 f6       	brne	.-106    	; 0x1cf0 <CheckInput+0x84>
                            data[1] = specialInput[1]+0x11;
    1d5a:	80 91 e4 38 	lds	r24, 0x38E4	; 0x8038e4 <specialInput+0x1>
    1d5e:	8f 5e       	subi	r24, 0xEF	; 239
    1d60:	f8 01       	movw	r30, r16
    1d62:	81 83       	std	Z+1, r24	; 0x01
                            data[2] = serRx[0];
    1d64:	80 91 4e 3a 	lds	r24, 0x3A4E	; 0x803a4e <serRx>
    1d68:	82 83       	std	Z+2, r24	; 0x02
                            data[3] = serRx[1];
    1d6a:	80 91 4f 3a 	lds	r24, 0x3A4F	; 0x803a4f <serRx+0x1>
    1d6e:	83 83       	std	Z+3, r24	; 0x03
                            data[4] = 0;
    1d70:	14 82       	std	Z+4, r1	; 0x04
    1d72:	05 c2       	rjmp	.+1034   	; 0x217e <CheckInput+0x512>
        
        //Normal input
        } else {

            //Change status bit
            if ((serRx[0] == '#')&&(RXCNT == 6)){
    1d74:	80 91 4e 3a 	lds	r24, 0x3A4E	; 0x803a4e <serRx>
    1d78:	83 32       	cpi	r24, 0x23	; 35
    1d7a:	81 f5       	brne	.+96     	; 0x1ddc <CheckInput+0x170>
    1d7c:	8d b3       	in	r24, 0x1d	; 29
    1d7e:	86 30       	cpi	r24, 0x06	; 6
    1d80:	69 f5       	brne	.+90     	; 0x1ddc <CheckInput+0x170>
    1d82:	81 e0       	ldi	r24, 0x01	; 1
    1d84:	90 e0       	ldi	r25, 0x00	; 0
    1d86:	10 e0       	ldi	r17, 0x00	; 0
                uint8_t bitNr = 0;

                for (uint8_t x=1; x<4; ++x) {
                    serRx[x] -= '0';
    1d88:	fc 01       	movw	r30, r24
    1d8a:	e2 5b       	subi	r30, 0xB2	; 178
    1d8c:	f5 4c       	sbci	r31, 0xC5	; 197
    1d8e:	20 81       	ld	r18, Z
    1d90:	20 53       	subi	r18, 0x30	; 48
    1d92:	20 83       	st	Z, r18
                    bitNr *= 10;
    1d94:	11 0f       	add	r17, r17
    1d96:	21 2f       	mov	r18, r17
    1d98:	22 0f       	add	r18, r18
    1d9a:	22 0f       	add	r18, r18
    1d9c:	12 0f       	add	r17, r18
                    if (serRx[1] > 2) break;
    1d9e:	20 91 4f 3a 	lds	r18, 0x3A4F	; 0x803a4f <serRx+0x1>
    1da2:	23 30       	cpi	r18, 0x03	; 3
    1da4:	48 f4       	brcc	.+18     	; 0x1db8 <CheckInput+0x14c>
                    if (serRx[x] < 10) {
    1da6:	20 81       	ld	r18, Z
    1da8:	2a 30       	cpi	r18, 0x0A	; 10
    1daa:	b0 f4       	brcc	.+44     	; 0x1dd8 <CheckInput+0x16c>
                        bitNr += serRx[x];
    1dac:	20 81       	ld	r18, Z
    1dae:	12 0f       	add	r17, r18
    1db0:	01 96       	adiw	r24, 0x01	; 1

            //Change status bit
            if ((serRx[0] == '#')&&(RXCNT == 6)){
                uint8_t bitNr = 0;

                for (uint8_t x=1; x<4; ++x) {
    1db2:	84 30       	cpi	r24, 0x04	; 4
    1db4:	91 05       	cpc	r25, r1
    1db6:	41 f7       	brne	.-48     	; 0x1d88 <CheckInput+0x11c>
                        continue;
                    }
                    bitNr = 0;
                    break;
                }
                if ((bitNr)&&(bitNr!=128)) {
    1db8:	81 2f       	mov	r24, r17
    1dba:	8f 77       	andi	r24, 0x7F	; 127
    1dbc:	69 f0       	breq	.+26     	; 0x1dd8 <CheckInput+0x16c>
                    if (Cheat(0xff-bitNr, serRx[4]<<8|serRx[5])) UpdateState(bitNr);
    1dbe:	80 91 52 3a 	lds	r24, 0x3A52	; 0x803a52 <serRx+0x4>
    1dc2:	60 91 53 3a 	lds	r22, 0x3A53	; 0x803a53 <serRx+0x5>
    1dc6:	70 e0       	ldi	r23, 0x00	; 0
    1dc8:	78 2b       	or	r23, r24
    1dca:	81 2f       	mov	r24, r17
    1dcc:	80 95       	com	r24
    1dce:	d6 db       	rcall	.-2132   	; 0x157c <Cheat>
    1dd0:	88 23       	and	r24, r24
    1dd2:	11 f0       	breq	.+4      	; 0x1dd8 <CheckInput+0x16c>
    1dd4:	81 2f       	mov	r24, r17
    1dd6:	e6 d9       	rcall	.-3124   	; 0x11a4 <UpdateState>
                }
                responseList = SetStandardResponse(0);
    1dd8:	80 e0       	ldi	r24, 0x00	; 0
    1dda:	50 c0       	rjmp	.+160    	; 0x1e7c <CheckInput+0x210>
    1ddc:	d8 01       	movw	r26, r16
    1dde:	80 e0       	ldi	r24, 0x00	; 0
    1de0:	90 e0       	ldi	r25, 0x00	; 0
                return 1;            
            }
            
            //Read up to the \0 character and convert to lower case.
            for (uint8_t x=0; x<RXLEN; ++x){
                if ((serRx[x]<'A')||(serRx[x]>'Z')) data[x]=serRx[x]; else data[x]=serRx[x]|0x20;
    1de2:	fc 01       	movw	r30, r24
    1de4:	e2 5b       	subi	r30, 0xB2	; 178
    1de6:	f5 4c       	sbci	r31, 0xC5	; 197
    1de8:	20 81       	ld	r18, Z
    1dea:	21 34       	cpi	r18, 0x41	; 65
    1dec:	18 f0       	brcs	.+6      	; 0x1df4 <CheckInput+0x188>
    1dee:	20 81       	ld	r18, Z
    1df0:	2b 35       	cpi	r18, 0x5B	; 91
    1df2:	10 f0       	brcs	.+4      	; 0x1df8 <CheckInput+0x18c>
    1df4:	20 81       	ld	r18, Z
    1df6:	02 c0       	rjmp	.+4      	; 0x1dfc <CheckInput+0x190>
    1df8:	20 81       	ld	r18, Z
    1dfa:	20 62       	ori	r18, 0x20	; 32
    1dfc:	2c 93       	st	X, r18
                if (serRx[x] == 0) {
    1dfe:	20 81       	ld	r18, Z
    1e00:	21 11       	cpse	r18, r1
    1e02:	05 c0       	rjmp	.+10     	; 0x1e0e <CheckInput+0x1a2>
                    data[x] = 0;
    1e04:	f8 01       	movw	r30, r16
    1e06:	e8 0f       	add	r30, r24
    1e08:	f1 1d       	adc	r31, r1
    1e0a:	10 82       	st	Z, r1
                    break;
    1e0c:	05 c0       	rjmp	.+10     	; 0x1e18 <CheckInput+0x1ac>
    1e0e:	01 96       	adiw	r24, 0x01	; 1
    1e10:	11 96       	adiw	r26, 0x01	; 1
                responseList = SetStandardResponse(0);
                return 1;            
            }
            
            //Read up to the \0 character and convert to lower case.
            for (uint8_t x=0; x<RXLEN; ++x){
    1e12:	81 34       	cpi	r24, 0x41	; 65
    1e14:	91 05       	cpc	r25, r1
    1e16:	29 f7       	brne	.-54     	; 0x1de2 <CheckInput+0x176>
                    break;
                }
            }

            //No text
            if (serRx[0] == 0){
    1e18:	80 91 4e 3a 	lds	r24, 0x3A4E	; 0x803a4e <serRx>
                data[0] = 0;
    1e1c:	f8 01       	movw	r30, r16
                    break;
                }
            }

            //No text
            if (serRx[0] == 0){
    1e1e:	81 11       	cpse	r24, r1
    1e20:	05 c0       	rjmp	.+10     	; 0x1e2c <CheckInput+0x1c0>
                data[0] = 0;
    1e22:	10 82       	st	Z, r1
                RXCNT = 0;
    1e24:	1d ba       	out	0x1d, r1	; 29
                serRxDone = 0;
    1e26:	10 92 37 38 	sts	0x3837, r1	; 0x803837 <serRxDone>
    1e2a:	a7 c1       	rjmp	.+846    	; 0x217a <CheckInput+0x50e>
                return 1;
            }

            //Help text
            if ((data[0] == '?')||(data[0] == 'h')){
    1e2c:	80 81       	ld	r24, Z
    1e2e:	8f 33       	cpi	r24, 0x3F	; 63
    1e30:	11 f0       	breq	.+4      	; 0x1e36 <CheckInput+0x1ca>
    1e32:	88 36       	cpi	r24, 0x68	; 104
    1e34:	39 f5       	brne	.+78     	; 0x1e84 <CheckInput+0x218>
    return 0;
}

//
void SetResponse(uint8_t number, uint16_t address, uint16_t length, uint8_t type){
    reactStr[0][number]=address;
    1e36:	8b e5       	ldi	r24, 0x5B	; 91
    1e38:	9a e7       	ldi	r25, 0x7A	; 122
    1e3a:	80 93 f4 38 	sts	0x38F4, r24	; 0x8038f4 <reactStr>
    1e3e:	90 93 f5 38 	sts	0x38F5, r25	; 0x8038f5 <reactStr+0x1>
    reactStr[1][number]=length;
    1e42:	84 e0       	ldi	r24, 0x04	; 4
    1e44:	90 e0       	ldi	r25, 0x00	; 0
    1e46:	80 93 34 39 	sts	0x3934, r24	; 0x803934 <reactStr+0x40>
    1e4a:	90 93 35 39 	sts	0x3935, r25	; 0x803935 <reactStr+0x41>
    reactStr[2][number]=type;
    1e4e:	81 e0       	ldi	r24, 0x01	; 1
    1e50:	90 e0       	ldi	r25, 0x00	; 0
    1e52:	80 93 74 39 	sts	0x3974, r24	; 0x803974 <reactStr+0x80>
    1e56:	90 93 75 39 	sts	0x3975, r25	; 0x803975 <reactStr+0x81>
    return 0;
}

//
void SetResponse(uint8_t number, uint16_t address, uint16_t length, uint8_t type){
    reactStr[0][number]=address;
    1e5a:	23 e9       	ldi	r18, 0x93	; 147
    1e5c:	3b e7       	ldi	r19, 0x7B	; 123
    1e5e:	20 93 f6 38 	sts	0x38F6, r18	; 0x8038f6 <reactStr+0x2>
    1e62:	30 93 f7 38 	sts	0x38F7, r19	; 0x8038f7 <reactStr+0x3>
    reactStr[1][number]=length;
    1e66:	2d e6       	ldi	r18, 0x6D	; 109
    1e68:	34 e0       	ldi	r19, 0x04	; 4
    1e6a:	20 93 36 39 	sts	0x3936, r18	; 0x803936 <reactStr+0x42>
    1e6e:	30 93 37 39 	sts	0x3937, r19	; 0x803937 <reactStr+0x43>
    reactStr[2][number]=type;
    1e72:	80 93 76 39 	sts	0x3976, r24	; 0x803976 <reactStr+0x82>
    1e76:	90 93 77 39 	sts	0x3977, r25	; 0x803977 <reactStr+0x83>

            //Help text
            if ((data[0] == '?')||(data[0] == 'h')){
                SetResponse(0, A_LF, 4, TEASER);
                SetResponse(1, A_HELP, L_HELP, TEASER);
                responseList = SetStandardResponse(2);
    1e7a:	82 e0       	ldi	r24, 0x02	; 2
    1e7c:	71 dc       	rcall	.-1822   	; 0x1760 <SetStandardResponse>
    1e7e:	80 93 f3 38 	sts	0x38F3, r24	; 0x8038f3 <responseList>
    1e82:	7b c1       	rjmp	.+758    	; 0x217a <CheckInput+0x50e>
                return 1;
            }        
        
            //Alphabet text
            if (data[0] == 'a'){
    1e84:	81 36       	cpi	r24, 0x61	; 97
    1e86:	d9 f4       	brne	.+54     	; 0x1ebe <CheckInput+0x252>
    return 0;
}

//
void SetResponse(uint8_t number, uint16_t address, uint16_t length, uint8_t type){
    reactStr[0][number]=address;
    1e88:	8b e5       	ldi	r24, 0x5B	; 91
    1e8a:	9a e7       	ldi	r25, 0x7A	; 122
    1e8c:	80 93 f4 38 	sts	0x38F4, r24	; 0x8038f4 <reactStr>
    1e90:	90 93 f5 38 	sts	0x38F5, r25	; 0x8038f5 <reactStr+0x1>
    reactStr[1][number]=length;
    1e94:	84 e0       	ldi	r24, 0x04	; 4
    1e96:	90 e0       	ldi	r25, 0x00	; 0
    1e98:	80 93 34 39 	sts	0x3934, r24	; 0x803934 <reactStr+0x40>
    1e9c:	90 93 35 39 	sts	0x3935, r25	; 0x803935 <reactStr+0x41>
    reactStr[2][number]=type;
    1ea0:	81 e0       	ldi	r24, 0x01	; 1
    1ea2:	90 e0       	ldi	r25, 0x00	; 0
    1ea4:	80 93 74 39 	sts	0x3974, r24	; 0x803974 <reactStr+0x80>
    1ea8:	90 93 75 39 	sts	0x3975, r25	; 0x803975 <reactStr+0x81>
    return 0;
}

//
void SetResponse(uint8_t number, uint16_t address, uint16_t length, uint8_t type){
    reactStr[0][number]=address;
    1eac:	2e e6       	ldi	r18, 0x6E	; 110
    1eae:	3a e7       	ldi	r19, 0x7A	; 122
    1eb0:	20 93 f6 38 	sts	0x38F6, r18	; 0x8038f6 <reactStr+0x2>
    1eb4:	30 93 f7 38 	sts	0x38F7, r19	; 0x8038f7 <reactStr+0x3>
    reactStr[1][number]=length;
    1eb8:	25 e2       	ldi	r18, 0x25	; 37
    1eba:	31 e0       	ldi	r19, 0x01	; 1
    1ebc:	d6 cf       	rjmp	.-84     	; 0x1e6a <CheckInput+0x1fe>
                responseList = SetStandardResponse(2);
                return 1;
            }

            //Whoami text
            if (data[0] == 'w'){
    1ebe:	87 37       	cpi	r24, 0x77	; 119
    1ec0:	09 f0       	breq	.+2      	; 0x1ec4 <CheckInput+0x258>
    1ec2:	6e c0       	rjmp	.+220    	; 0x1fa0 <CheckInput+0x334>
    return 0;
}

//
void SetResponse(uint8_t number, uint16_t address, uint16_t length, uint8_t type){
    reactStr[0][number]=address;
    1ec4:	8b e5       	ldi	r24, 0x5B	; 91
    1ec6:	9a e7       	ldi	r25, 0x7A	; 122
    1ec8:	80 93 f4 38 	sts	0x38F4, r24	; 0x8038f4 <reactStr>
    1ecc:	90 93 f5 38 	sts	0x38F5, r25	; 0x8038f5 <reactStr+0x1>
    reactStr[1][number]=length;
    1ed0:	84 e0       	ldi	r24, 0x04	; 4
    1ed2:	90 e0       	ldi	r25, 0x00	; 0
    1ed4:	80 93 34 39 	sts	0x3934, r24	; 0x803934 <reactStr+0x40>
    1ed8:	90 93 35 39 	sts	0x3935, r25	; 0x803935 <reactStr+0x41>
    reactStr[2][number]=type;
    1edc:	21 e0       	ldi	r18, 0x01	; 1
    1ede:	30 e0       	ldi	r19, 0x00	; 0
    1ee0:	20 93 74 39 	sts	0x3974, r18	; 0x803974 <reactStr+0x80>
    1ee4:	30 93 75 39 	sts	0x3975, r19	; 0x803975 <reactStr+0x81>
    return 0;
}

//
void SetResponse(uint8_t number, uint16_t address, uint16_t length, uint8_t type){
    reactStr[0][number]=address;
    1ee8:	8b ec       	ldi	r24, 0xCB	; 203
    1eea:	96 e7       	ldi	r25, 0x76	; 118
    1eec:	80 93 f6 38 	sts	0x38F6, r24	; 0x8038f6 <reactStr+0x2>
    1ef0:	90 93 f7 38 	sts	0x38F7, r25	; 0x8038f7 <reactStr+0x3>
    reactStr[1][number]=length;
    1ef4:	82 e1       	ldi	r24, 0x12	; 18
    1ef6:	90 e0       	ldi	r25, 0x00	; 0
    1ef8:	80 93 36 39 	sts	0x3936, r24	; 0x803936 <reactStr+0x42>
    1efc:	90 93 37 39 	sts	0x3937, r25	; 0x803937 <reactStr+0x43>
    reactStr[2][number]=type;
    1f00:	20 93 76 39 	sts	0x3976, r18	; 0x803976 <reactStr+0x82>
    1f04:	30 93 77 39 	sts	0x3977, r19	; 0x803977 <reactStr+0x83>

            //Whoami text
            if (data[0] == 'w'){
                SetResponse(0, A_LF, 4, TEASER);
                SetResponse(1, A_HELLO, L_HELLO, TEASER);
                if (whoami == 1) {
    1f08:	80 91 30 38 	lds	r24, 0x3830	; 0x803830 <whoami>
    1f0c:	81 30       	cpi	r24, 0x01	; 1
    1f0e:	19 f4       	brne	.+6      	; 0x1f16 <CheckInput+0x2aa>
    return 0;
}

//
void SetResponse(uint8_t number, uint16_t address, uint16_t length, uint8_t type){
    reactStr[0][number]=address;
    1f10:	85 ec       	ldi	r24, 0xC5	; 197
    1f12:	96 e7       	ldi	r25, 0x76	; 118
    1f14:	0f c0       	rjmp	.+30     	; 0x1f34 <CheckInput+0x2c8>
            if (data[0] == 'w'){
                SetResponse(0, A_LF, 4, TEASER);
                SetResponse(1, A_HELLO, L_HELLO, TEASER);
                if (whoami == 1) {
                    SetResponse(2, A_ANUBIS, L_ANUBIS, TEASER);
                } else if (whoami == 2) {
    1f16:	82 30       	cpi	r24, 0x02	; 2
    1f18:	49 f4       	brne	.+18     	; 0x1f2c <CheckInput+0x2c0>
    return 0;
}

//
void SetResponse(uint8_t number, uint16_t address, uint16_t length, uint8_t type){
    reactStr[0][number]=address;
    1f1a:	82 ec       	ldi	r24, 0xC2	; 194
    1f1c:	96 e7       	ldi	r25, 0x76	; 118
    1f1e:	80 93 f8 38 	sts	0x38F8, r24	; 0x8038f8 <reactStr+0x4>
    1f22:	90 93 f9 38 	sts	0x38F9, r25	; 0x8038f9 <reactStr+0x5>
    reactStr[1][number]=length;
    1f26:	83 e0       	ldi	r24, 0x03	; 3
    1f28:	90 e0       	ldi	r25, 0x00	; 0
    1f2a:	1e c0       	rjmp	.+60     	; 0x1f68 <CheckInput+0x2fc>
                SetResponse(1, A_HELLO, L_HELLO, TEASER);
                if (whoami == 1) {
                    SetResponse(2, A_ANUBIS, L_ANUBIS, TEASER);
                } else if (whoami == 2) {
                    SetResponse(2, A_BES, L_BES, TEASER);
                } else if (whoami == 3) {
    1f2c:	83 30       	cpi	r24, 0x03	; 3
    1f2e:	49 f4       	brne	.+18     	; 0x1f42 <CheckInput+0x2d6>
    return 0;
}

//
void SetResponse(uint8_t number, uint16_t address, uint16_t length, uint8_t type){
    reactStr[0][number]=address;
    1f30:	8c eb       	ldi	r24, 0xBC	; 188
    1f32:	96 e7       	ldi	r25, 0x76	; 118
    1f34:	80 93 f8 38 	sts	0x38F8, r24	; 0x8038f8 <reactStr+0x4>
    1f38:	90 93 f9 38 	sts	0x38F9, r25	; 0x8038f9 <reactStr+0x5>
    reactStr[1][number]=length;
    1f3c:	86 e0       	ldi	r24, 0x06	; 6
    1f3e:	90 e0       	ldi	r25, 0x00	; 0
    1f40:	13 c0       	rjmp	.+38     	; 0x1f68 <CheckInput+0x2fc>
                    SetResponse(2, A_ANUBIS, L_ANUBIS, TEASER);
                } else if (whoami == 2) {
                    SetResponse(2, A_BES, L_BES, TEASER);
                } else if (whoami == 3) {
                    SetResponse(2, A_KHONSU, L_KHONSU, TEASER);
                } else if (whoami == 4) {
    1f42:	84 30       	cpi	r24, 0x04	; 4
    1f44:	49 f4       	brne	.+18     	; 0x1f58 <CheckInput+0x2ec>
    return 0;
}

//
void SetResponse(uint8_t number, uint16_t address, uint16_t length, uint8_t type){
    reactStr[0][number]=address;
    1f46:	87 eb       	ldi	r24, 0xB7	; 183
    1f48:	96 e7       	ldi	r25, 0x76	; 118
    1f4a:	80 93 f8 38 	sts	0x38F8, r24	; 0x8038f8 <reactStr+0x4>
    1f4e:	90 93 f9 38 	sts	0x38F9, r25	; 0x8038f9 <reactStr+0x5>
    reactStr[1][number]=length;
    1f52:	85 e0       	ldi	r24, 0x05	; 5
    1f54:	90 e0       	ldi	r25, 0x00	; 0
    1f56:	08 c0       	rjmp	.+16     	; 0x1f68 <CheckInput+0x2fc>
    return 0;
}

//
void SetResponse(uint8_t number, uint16_t address, uint16_t length, uint8_t type){
    reactStr[0][number]=address;
    1f58:	80 e4       	ldi	r24, 0x40	; 64
    1f5a:	96 e7       	ldi	r25, 0x76	; 118
    1f5c:	80 93 f8 38 	sts	0x38F8, r24	; 0x8038f8 <reactStr+0x4>
    1f60:	90 93 f9 38 	sts	0x38F9, r25	; 0x8038f9 <reactStr+0x5>
    reactStr[1][number]=length;
    1f64:	82 e4       	ldi	r24, 0x42	; 66
    1f66:	90 e0       	ldi	r25, 0x00	; 0
    1f68:	80 93 38 39 	sts	0x3938, r24	; 0x803938 <reactStr+0x44>
    1f6c:	90 93 39 39 	sts	0x3939, r25	; 0x803939 <reactStr+0x45>
    reactStr[2][number]=type;
    1f70:	20 93 78 39 	sts	0x3978, r18	; 0x803978 <reactStr+0x84>
    1f74:	30 93 79 39 	sts	0x3979, r19	; 0x803979 <reactStr+0x85>
    return 0;
}

//
void SetResponse(uint8_t number, uint16_t address, uint16_t length, uint8_t type){
    reactStr[0][number]=address;
    1f78:	8d e9       	ldi	r24, 0x9D	; 157
    1f7a:	96 e7       	ldi	r25, 0x76	; 118
    1f7c:	80 93 fa 38 	sts	0x38FA, r24	; 0x8038fa <reactStr+0x6>
    1f80:	90 93 fb 38 	sts	0x38FB, r25	; 0x8038fb <reactStr+0x7>
    reactStr[1][number]=length;
    1f84:	8a e1       	ldi	r24, 0x1A	; 26
    1f86:	90 e0       	ldi	r25, 0x00	; 0
    1f88:	80 93 3a 39 	sts	0x393A, r24	; 0x80393a <reactStr+0x46>
    1f8c:	90 93 3b 39 	sts	0x393B, r25	; 0x80393b <reactStr+0x47>
    reactStr[2][number]=type;
    1f90:	81 e0       	ldi	r24, 0x01	; 1
    1f92:	90 e0       	ldi	r25, 0x00	; 0
    1f94:	80 93 7a 39 	sts	0x397A, r24	; 0x80397a <reactStr+0x86>
    1f98:	90 93 7b 39 	sts	0x397B, r25	; 0x80397b <reactStr+0x87>
                    SetResponse(2, A_THOTH, L_THOTH, TEASER);
                } else {
                    SetResponse(2, A_ERROR, L_ERROR, TEASER);
                }
                SetResponse(3, A_PLEASED, L_PLEASED, TEASER);
                responseList = SetStandardResponse(4);
    1f9c:	84 e0       	ldi	r24, 0x04	; 4
    1f9e:	6e cf       	rjmp	.-292    	; 0x1e7c <CheckInput+0x210>
                return 1;
            }

            //Quit text
            if (data[0] == 'q'){
    1fa0:	81 37       	cpi	r24, 0x71	; 113
    1fa2:	d9 f4       	brne	.+54     	; 0x1fda <CheckInput+0x36e>
    return 0;
}

//
void SetResponse(uint8_t number, uint16_t address, uint16_t length, uint8_t type){
    reactStr[0][number]=address;
    1fa4:	8b e5       	ldi	r24, 0x5B	; 91
    1fa6:	9a e7       	ldi	r25, 0x7A	; 122
    1fa8:	80 93 f4 38 	sts	0x38F4, r24	; 0x8038f4 <reactStr>
    1fac:	90 93 f5 38 	sts	0x38F5, r25	; 0x8038f5 <reactStr+0x1>
    reactStr[1][number]=length;
    1fb0:	84 e0       	ldi	r24, 0x04	; 4
    1fb2:	90 e0       	ldi	r25, 0x00	; 0
    1fb4:	80 93 34 39 	sts	0x3934, r24	; 0x803934 <reactStr+0x40>
    1fb8:	90 93 35 39 	sts	0x3935, r25	; 0x803935 <reactStr+0x41>
    reactStr[2][number]=type;
    1fbc:	81 e0       	ldi	r24, 0x01	; 1
    1fbe:	90 e0       	ldi	r25, 0x00	; 0
    1fc0:	80 93 74 39 	sts	0x3974, r24	; 0x803974 <reactStr+0x80>
    1fc4:	90 93 75 39 	sts	0x3975, r25	; 0x803975 <reactStr+0x81>
    return 0;
}

//
void SetResponse(uint8_t number, uint16_t address, uint16_t length, uint8_t type){
    reactStr[0][number]=address;
    1fc8:	23 e0       	ldi	r18, 0x03	; 3
    1fca:	3a e7       	ldi	r19, 0x7A	; 122
    1fcc:	20 93 f6 38 	sts	0x38F6, r18	; 0x8038f6 <reactStr+0x2>
    1fd0:	30 93 f7 38 	sts	0x38F7, r19	; 0x8038f7 <reactStr+0x3>
    reactStr[1][number]=length;
    1fd4:	24 e5       	ldi	r18, 0x54	; 84
    1fd6:	30 e0       	ldi	r19, 0x00	; 0
                responseList = SetStandardResponse(2);
                return 1;
            }

            //Fake cheat = reset badge!
            if (StartsWith(&data[0], "iddqd")){
    1fd8:	48 cf       	rjmp	.-368    	; 0x1e6a <CheckInput+0x1fe>
    1fda:	64 e5       	ldi	r22, 0x54	; 84
    1fdc:	75 eb       	ldi	r23, 0xB5	; 181
    1fde:	c8 01       	movw	r24, r16
    1fe0:	6d db       	rcall	.-2342   	; 0x16bc <StartsWith>
    1fe2:	88 23       	and	r24, r24
    1fe4:	e9 f0       	breq	.+58     	; 0x2020 <CheckInput+0x3b4>
            
                //Reset game data by wiping the UUID bits
                for (uint8_t x=0; x<4; ++x){
                    WriteStatusBit(110+x, 0);
    1fe6:	1e e6       	ldi	r17, 0x6E	; 110
    1fe8:	60 e0       	ldi	r22, 0x00	; 0
    1fea:	81 2f       	mov	r24, r17
    1fec:	c1 d8       	rcall	.-3710   	; 0x1170 <WriteStatusBit>
    1fee:	1f 5f       	subi	r17, 0xFF	; 255

            //Fake cheat = reset badge!
            if (StartsWith(&data[0], "iddqd")){
            
                //Reset game data by wiping the UUID bits
                for (uint8_t x=0; x<4; ++x){
    1ff0:	12 37       	cpi	r17, 0x72	; 114
    1ff2:	d1 f7       	brne	.-12     	; 0x1fe8 <CheckInput+0x37c>
                    WriteStatusBit(110+x, 0);
                }
                SaveGameState();
    1ff4:	36 d8       	rcall	.-3988   	; 0x1062 <SaveGameState>
    1ff6:	80 e2       	ldi	r24, 0x20	; 32

                uint8_t cheat[] = "Cheater! Contact badge team... ";
    1ff8:	e7 e9       	ldi	r30, 0x97	; 151
    1ffa:	f5 eb       	ldi	r31, 0xB5	; 181
    1ffc:	de 01       	movw	r26, r28
    1ffe:	11 96       	adiw	r26, 0x01	; 1
    2000:	01 90       	ld	r0, Z+
    2002:	0d 92       	st	X+, r0
    2004:	8a 95       	dec	r24
    2006:	e1 f7       	brne	.-8      	; 0x2000 <CheckInput+0x394>
    2008:	8c e3       	ldi	r24, 0x3C	; 60
                SerSpeed(60);
    200a:	0e 94 4e 07 	call	0xe9c	; 0xe9c <SerSpeed>
    200e:	80 91 08 38 	lds	r24, 0x3808	; 0x803808 <serTxDone>
                while(1){
                    if (serTxDone) SerSend(&cheat[0]);
    2012:	88 23       	and	r24, r24
    2014:	e1 f3       	breq	.-8      	; 0x200e <CheckInput+0x3a2>
    2016:	ce 01       	movw	r24, r28
    2018:	01 96       	adiw	r24, 0x01	; 1
    201a:	0e 94 3d 07 	call	0xe7a	; 0xe7a <SerSend>
    201e:	f7 cf       	rjmp	.-18     	; 0x200e <CheckInput+0x3a2>
                }
            }
            
            //Cheat reset (Quote from: Donald E. Westlake)
            if (StartsWith(&data[0], "the trouble with real life is, there's no reset button")){
    2020:	6a e5       	ldi	r22, 0x5A	; 90
    2022:	75 eb       	ldi	r23, 0xB5	; 181
    2024:	c8 01       	movw	r24, r16
    2026:	4a db       	rcall	.-2412   	; 0x16bc <StartsWith>
    2028:	68 2e       	mov	r6, r24
    202a:	88 23       	and	r24, r24
    202c:	51 f1       	breq	.+84     	; 0x2082 <CheckInput+0x416>
    202e:	8f ef       	ldi	r24, 0xFF	; 255
                
                //Reset cheat data by resetting the EEPROM bytes
                uint8_t empty=0xff;
    2030:	89 a3       	std	Y+33, r24	; 0x21
    2032:	18 e1       	ldi	r17, 0x18	; 24
    2034:	41 e0       	ldi	r20, 0x01	; 1
                for (uint8_t x=0; x<MAX_CHEATS; ++x){
                    EEWrite(CHEATS+x, &empty, 1);
    2036:	be 01       	movw	r22, r28
    2038:	6f 5d       	subi	r22, 0xDF	; 223
    203a:	7f 4f       	sbci	r23, 0xFF	; 255
    203c:	81 2f       	mov	r24, r17
    203e:	0e 94 15 07 	call	0xe2a	; 0xe2a <EEWrite>
    2042:	1f 5f       	subi	r17, 0xFF	; 255
            //Cheat reset (Quote from: Donald E. Westlake)
            if (StartsWith(&data[0], "the trouble with real life is, there's no reset button")){
                
                //Reset cheat data by resetting the EEPROM bytes
                uint8_t empty=0xff;
                for (uint8_t x=0; x<MAX_CHEATS; ++x){
    2044:	10 32       	cpi	r17, 0x20	; 32
    2046:	b1 f7       	brne	.-20     	; 0x2034 <CheckInput+0x3c8>
    2048:	1e e6       	ldi	r17, 0x6E	; 110
                    EEWrite(CHEATS+x, &empty, 1);
                }
                //Reset game data by wiping the UUID bits
                for (uint8_t x=0; x<4; ++x){
                    WriteStatusBit(110+x, 0);
    204a:	60 e0       	ldi	r22, 0x00	; 0
    204c:	81 2f       	mov	r24, r17
    204e:	90 d8       	rcall	.-3808   	; 0x1170 <WriteStatusBit>
    2050:	1f 5f       	subi	r17, 0xFF	; 255
    2052:	12 37       	cpi	r17, 0x72	; 114
                uint8_t empty=0xff;
                for (uint8_t x=0; x<MAX_CHEATS; ++x){
                    EEWrite(CHEATS+x, &empty, 1);
                }
                //Reset game data by wiping the UUID bits
                for (uint8_t x=0; x<4; ++x){
    2054:	d1 f7       	brne	.-12     	; 0x204a <CheckInput+0x3de>
    2056:	05 d8       	rcall	.-4086   	; 0x1062 <SaveGameState>
                    WriteStatusBit(110+x, 0);
                }
                
                SaveGameState();
    2058:	8f e0       	ldi	r24, 0x0F	; 15
    205a:	e7 eb       	ldi	r30, 0xB7	; 183

                uint8_t cheat[] = "Reset please! ";
    205c:	f5 eb       	ldi	r31, 0xB5	; 181
    205e:	de 01       	movw	r26, r28
    2060:	11 96       	adiw	r26, 0x01	; 1
    2062:	01 90       	ld	r0, Z+
    2064:	0d 92       	st	X+, r0
    2066:	8a 95       	dec	r24
    2068:	e1 f7       	brne	.-8      	; 0x2062 <CheckInput+0x3f6>
    206a:	8c e3       	ldi	r24, 0x3C	; 60
    206c:	0e 94 4e 07 	call	0xe9c	; 0xe9c <SerSpeed>
                SerSpeed(60);
    2070:	80 91 08 38 	lds	r24, 0x3808	; 0x803808 <serTxDone>
                while(1){
                    if (serTxDone) SerSend(&cheat[0]);
    2074:	88 23       	and	r24, r24
    2076:	e1 f3       	breq	.-8      	; 0x2070 <CheckInput+0x404>
    2078:	ce 01       	movw	r24, r28
    207a:	01 96       	adiw	r24, 0x01	; 1
    207c:	0e 94 3d 07 	call	0xe7a	; 0xe7a <SerSend>
    2080:	f7 cf       	rjmp	.-18     	; 0x2070 <CheckInput+0x404>
    2082:	61 e9       	ldi	r22, 0x91	; 145
                }
            }
            if (StartsWith(&data[0], "cheat")){
    2084:	75 eb       	ldi	r23, 0xB5	; 181
    2086:	c8 01       	movw	r24, r16
    2088:	19 db       	rcall	.-2510   	; 0x16bc <StartsWith>
    208a:	88 23       	and	r24, r24
    208c:	09 f4       	brne	.+2      	; 0x2090 <CheckInput+0x424>
    208e:	30 ce       	rjmp	.-928    	; 0x1cf0 <CheckInput+0x84>
    2090:	04 ef       	ldi	r16, 0xF4	; 244
    2092:	18 e3       	ldi	r17, 0x38	; 56
    2094:	78 e1       	ldi	r23, 0x18	; 24
    2096:	77 2e       	mov	r7, r23
    2098:	ea e0       	ldi	r30, 0x0A	; 10
    209a:	5e 2e       	mov	r5, r30
                    
                    //Set up sending out number
                    EERead(CHEATS+x, &bit, 1);
                    bit = 0xff-bit;
                    for (n=2; n>=0; --n) {
                        digit[n] = bit % 10;
    209c:	f4 e6       	ldi	r31, 0x64	; 100
    209e:	4f 2e       	mov	r4, r31
                        bit /= 10;
    20a0:	ee 24       	eor	r14, r14
    20a2:	e3 94       	inc	r14
}

//
void SetResponse(uint8_t number, uint16_t address, uint16_t length, uint8_t type){
    reactStr[0][number]=address;
    reactStr[1][number]=length;
    20a4:	f1 2c       	mov	r15, r1
    20a6:	cc 24       	eor	r12, r12
    20a8:	c3 94       	inc	r12
    20aa:	d1 2c       	mov	r13, r1
    20ac:	89 e5       	ldi	r24, 0x59	; 89
    20ae:	88 2e       	mov	r8, r24
    return 0;
}

//
void SetResponse(uint8_t number, uint16_t address, uint16_t length, uint8_t type){
    reactStr[0][number]=address;
    20b0:	8a e7       	ldi	r24, 0x7A	; 122
    20b2:	98 2e       	mov	r9, r24
    20b4:	92 e0       	ldi	r25, 0x02	; 2
    20b6:	a9 2e       	mov	r10, r25
    reactStr[1][number]=length;
    20b8:	b1 2c       	mov	r11, r1
    20ba:	41 e0       	ldi	r20, 0x01	; 1
    20bc:	be 01       	movw	r22, r28
                uint8_t bit, digit[3];

                for (uint8_t x=0; x<MAX_CHEATS; ++x){
                    
                    //Set up sending out number
                    EERead(CHEATS+x, &bit, 1);
    20be:	6f 5d       	subi	r22, 0xDF	; 223
    20c0:	7f 4f       	sbci	r23, 0xFF	; 255
    20c2:	87 2d       	mov	r24, r7
    20c4:	0e 94 05 07 	call	0xe0a	; 0xe0a <EERead>
    20c8:	29 a1       	ldd	r18, Y+33	; 0x21
    20ca:	20 95       	com	r18
                    bit = 0xff-bit;
    20cc:	82 2f       	mov	r24, r18
    20ce:	65 2d       	mov	r22, r5
                    for (n=2; n>=0; --n) {
                        digit[n] = bit % 10;
    20d0:	0e 94 27 1a 	call	0x344e	; 0x344e <__udivmodqi4>
    20d4:	9b 83       	std	Y+3, r25	; 0x03
    20d6:	0e 94 27 1a 	call	0x344e	; 0x344e <__udivmodqi4>
    20da:	9a 83       	std	Y+2, r25	; 0x02
    20dc:	82 2f       	mov	r24, r18
    20de:	64 2d       	mov	r22, r4
                        bit /= 10;
    20e0:	0e 94 27 1a 	call	0x344e	; 0x344e <__udivmodqi4>
    20e4:	89 83       	std	Y+1, r24	; 0x01
    20e6:	19 a2       	std	Y+33, r1	; 0x21
                    
                    //Set up sending out number
                    EERead(CHEATS+x, &bit, 1);
                    bit = 0xff-bit;
                    for (n=2; n>=0; --n) {
                        digit[n] = bit % 10;
    20e8:	de 01       	movw	r26, r28
    20ea:	11 96       	adiw	r26, 0x01	; 1
    20ec:	40 e0       	ldi	r20, 0x00	; 0
    20ee:	2d 91       	ld	r18, X+
    20f0:	86 2d       	mov	r24, r6
                        bit /= 10;
                    }

                    for (n=0; n<3; ++n) {
                        SetResponse(x*4+n, A_DIGITS+digit[n], 1, TEASER);
    20f2:	84 0f       	add	r24, r20
    return 0;
}

//
void SetResponse(uint8_t number, uint16_t address, uint16_t length, uint8_t type){
    reactStr[0][number]=address;
    20f4:	90 e0       	ldi	r25, 0x00	; 0
    20f6:	fc 01       	movw	r30, r24
    20f8:	ee 0f       	add	r30, r30
    20fa:	ff 1f       	adc	r31, r31
    20fc:	ec 50       	subi	r30, 0x0C	; 12
    20fe:	f7 4c       	sbci	r31, 0xC7	; 199
    2100:	30 e0       	ldi	r19, 0x00	; 0
    2102:	2d 52       	subi	r18, 0x2D	; 45
    2104:	3b 48       	sbci	r19, 0x8B	; 139
    2106:	20 83       	st	Z, r18
    2108:	31 83       	std	Z+1, r19	; 0x01
    210a:	fc 01       	movw	r30, r24
    210c:	ee 0f       	add	r30, r30
    reactStr[1][number]=length;
    210e:	ff 1f       	adc	r31, r31
    2110:	ec 5c       	subi	r30, 0xCC	; 204
    2112:	f6 4c       	sbci	r31, 0xC6	; 198
    2114:	e0 82       	st	Z, r14
    2116:	f1 82       	std	Z+1, r15	; 0x01
    2118:	88 0f       	add	r24, r24
    211a:	99 1f       	adc	r25, r25
    reactStr[2][number]=type;
    211c:	fc 01       	movw	r30, r24
    211e:	ec 58       	subi	r30, 0x8C	; 140
    2120:	f6 4c       	sbci	r31, 0xC6	; 198
    2122:	e0 82       	st	Z, r14
    2124:	f1 82       	std	Z+1, r15	; 0x01
    2126:	4f 5f       	subi	r20, 0xFF	; 255
    2128:	43 30       	cpi	r20, 0x03	; 3
    212a:	09 f7       	brne	.-62     	; 0x20ee <CheckInput+0x482>
                    for (n=2; n>=0; --n) {
                        digit[n] = bit % 10;
                        bit /= 10;
                    }

                    for (n=0; n<3; ++n) {
    212c:	f8 01       	movw	r30, r16
    212e:	86 82       	std	Z+6, r8	; 0x06
    return 0;
}

//
void SetResponse(uint8_t number, uint16_t address, uint16_t length, uint8_t type){
    reactStr[0][number]=address;
    2130:	97 82       	std	Z+7, r9	; 0x07
    2132:	ea 5b       	subi	r30, 0xBA	; 186
    2134:	ff 4f       	sbci	r31, 0xFF	; 255
    reactStr[1][number]=length;
    2136:	a0 82       	st	Z, r10
    2138:	b1 82       	std	Z+1, r11	; 0x01
    213a:	e0 5c       	subi	r30, 0xC0	; 192
    213c:	ff 4f       	sbci	r31, 0xFF	; 255
    reactStr[2][number]=type;
    213e:	c0 82       	st	Z, r12
    2140:	d1 82       	std	Z+1, r13	; 0x01
    2142:	73 94       	inc	r7
    2144:	08 5f       	subi	r16, 0xF8	; 248
    2146:	1f 4f       	sbci	r17, 0xFF	; 255
    2148:	f4 e0       	ldi	r31, 0x04	; 4
    214a:	6f 0e       	add	r6, r31
    214c:	80 e2       	ldi	r24, 0x20	; 32
    214e:	78 12       	cpse	r7, r24
            }
            if (StartsWith(&data[0], "cheat")){
                int8_t n;
                uint8_t bit, digit[3];

                for (uint8_t x=0; x<MAX_CHEATS; ++x){
    2150:	b4 cf       	rjmp	.-152    	; 0x20ba <CheckInput+0x44e>
    2152:	8b e5       	ldi	r24, 0x5B	; 91
    2154:	9a e7       	ldi	r25, 0x7A	; 122
    return 0;
}

//
void SetResponse(uint8_t number, uint16_t address, uint16_t length, uint8_t type){
    reactStr[0][number]=address;
    2156:	80 93 32 39 	sts	0x3932, r24	; 0x803932 <reactStr+0x3e>
    215a:	90 93 33 39 	sts	0x3933, r25	; 0x803933 <reactStr+0x3f>
    215e:	84 e0       	ldi	r24, 0x04	; 4
    2160:	90 e0       	ldi	r25, 0x00	; 0
    reactStr[1][number]=length;
    2162:	80 93 72 39 	sts	0x3972, r24	; 0x803972 <reactStr+0x7e>
    2166:	90 93 73 39 	sts	0x3973, r25	; 0x803973 <reactStr+0x7f>
    216a:	81 e0       	ldi	r24, 0x01	; 1
    216c:	90 e0       	ldi	r25, 0x00	; 0
    reactStr[2][number]=type;
    216e:	80 93 b2 39 	sts	0x39B2, r24	; 0x8039b2 <reactStr+0xbe>
    2172:	90 93 b3 39 	sts	0x39B3, r25	; 0x8039b3 <reactStr+0xbf>
    2176:	70 92 f3 38 	sts	0x38F3, r7	; 0x8038f3 <responseList>
                        SetResponse(x*4+n, A_DIGITS+digit[n], 1, TEASER);
                    }                
                    SetResponse(x*4+3, A_COMMA, L_COMMA, TEASER);
                }
                SetResponse((4*MAX_CHEATS)-1, A_LF, 4, TEASER);
                responseList = 32;
    217a:	ff 24       	eor	r15, r15
    217c:	f3 94       	inc	r15
        //Data received, but not any of the commands above
        return 0;
    }

    //Serial input not available yet
    return 1;
    217e:	8f 2d       	mov	r24, r15
    2180:	a1 96       	adiw	r28, 0x21	; 33
}
    2182:	cd bf       	out	0x3d, r28	; 61
    2184:	de bf       	out	0x3e, r29	; 62
    2186:	df 91       	pop	r29
    2188:	cf 91       	pop	r28
    218a:	1f 91       	pop	r17
    218c:	0f 91       	pop	r16
    218e:	ff 90       	pop	r15
    2190:	ef 90       	pop	r14
    2192:	df 90       	pop	r13
    2194:	cf 90       	pop	r12
    2196:	bf 90       	pop	r11
    2198:	af 90       	pop	r10
    219a:	9f 90       	pop	r9
    219c:	8f 90       	pop	r8
    219e:	7f 90       	pop	r7
    21a0:	6f 90       	pop	r6
    21a2:	5f 90       	pop	r5
    21a4:	4f 90       	pop	r4
    21a6:	08 95       	ret

000021a8 <ProcessInput>:
    21a8:	4f 92       	push	r4
    21aa:	5f 92       	push	r5

//The game logic!
uint8_t ProcessInput(uint8_t *data){
    21ac:	6f 92       	push	r6
    21ae:	7f 92       	push	r7
    21b0:	8f 92       	push	r8
    21b2:	9f 92       	push	r9
    21b4:	af 92       	push	r10
    21b6:	bf 92       	push	r11
    21b8:	cf 92       	push	r12
    21ba:	df 92       	push	r13
    21bc:	ef 92       	push	r14
    21be:	ff 92       	push	r15
    21c0:	0f 93       	push	r16
    21c2:	1f 93       	push	r17
    21c4:	cf 93       	push	r28
    21c6:	df 93       	push	r29
    21c8:	cd b7       	in	r28, 0x3d	; 61
    21ca:	de b7       	in	r29, 0x3e	; 62
    21cc:	2a 97       	sbiw	r28, 0x0a	; 10
    21ce:	cd bf       	out	0x3d, r28	; 61
    21d0:	de bf       	out	0x3e, r29	; 62
    21d2:	8c 01       	movw	r16, r24
    static object_model_t actObj1, actObj2;
    uint8_t elements = 1;

    CleanInput(&data[0]);
    21d4:	74 dc       	rcall	.-1816   	; 0x1abe <CleanInput>
    uint8_t inputLen = CleanInput(&data[0]);
    21d6:	c8 01       	movw	r24, r16
    21d8:	72 dc       	rcall	.-1820   	; 0x1abe <CleanInput>
    21da:	f8 2e       	mov	r15, r24

    if (inputLen) {
    21dc:	88 23       	and	r24, r24
    21de:	09 f4       	brne	.+2      	; 0x21e2 <ProcessInput+0x3a>
    21e0:	d5 c7       	rjmp	.+4010   	; 0x318c <ProcessInput+0xfe4>

        //eXit to previous location
        if (data[0] == 'x'){
    21e2:	d8 01       	movw	r26, r16
    21e4:	8c 91       	ld	r24, X
    21e6:	88 37       	cpi	r24, 0x78	; 120
    21e8:	09 f0       	breq	.+2      	; 0x21ec <ProcessInput+0x44>
    21ea:	3e c0       	rjmp	.+124    	; 0x2268 <ProcessInput+0xc0>

            //Standing in the Lobby?
            if ((route[currDepth] == 0)||(currDepth == 0)){
    21ec:	80 91 26 38 	lds	r24, 0x3826	; 0x803826 <currDepth>
    21f0:	e8 2f       	mov	r30, r24
    21f2:	f0 e0       	ldi	r31, 0x00	; 0
    21f4:	ee 0f       	add	r30, r30
    21f6:	ff 1f       	adc	r31, r31
    21f8:	ec 54       	subi	r30, 0x4C	; 76
    21fa:	f6 4c       	sbci	r31, 0xC6	; 198
    21fc:	20 81       	ld	r18, Z
    21fe:	31 81       	ldd	r19, Z+1	; 0x01
    2200:	23 2b       	or	r18, r19
    2202:	11 f0       	breq	.+4      	; 0x2208 <ProcessInput+0x60>
    2204:	81 11       	cpse	r24, r1
    2206:	03 c0       	rjmp	.+6      	; 0x220e <ProcessInput+0x66>
    return 0;
}

//
void SetResponse(uint8_t number, uint16_t address, uint16_t length, uint8_t type){
    reactStr[0][number]=address;
    2208:	82 e8       	ldi	r24, 0x82	; 130
    220a:	96 e7       	ldi	r25, 0x76	; 118
    220c:	93 c5       	rjmp	.+2854   	; 0x2d34 <ProcessInput+0xb8c>
            //Standing in the Lobby?
            if ((route[currDepth] == 0)||(currDepth == 0)){
                SetResponse(elements++, A_NOTPOSSIBLE, L_NOTPOSSIBLE, TEASER);
            
            //Is there a way to go back?
            } else if (CheckState(currObj.byteField[OPEN_ACL])){
    220e:	80 91 fa 39 	lds	r24, 0x39FA	; 0x8039fa <currObj+0x6>
    2212:	0e 94 dc 08 	call	0x11b8	; 0x11b8 <CheckState>
    2216:	88 23       	and	r24, r24
    2218:	81 f0       	breq	.+32     	; 0x223a <ProcessInput+0x92>
                --currDepth;
    221a:	e0 91 26 38 	lds	r30, 0x3826	; 0x803826 <currDepth>
    221e:	e1 50       	subi	r30, 0x01	; 1
    2220:	e0 93 26 38 	sts	0x3826, r30	; 0x803826 <currDepth>
                PopulateObject(route[currDepth], &currObj);
    2224:	f0 e0       	ldi	r31, 0x00	; 0
    2226:	ee 0f       	add	r30, r30
    2228:	ff 1f       	adc	r31, r31
    222a:	ec 54       	subi	r30, 0x4C	; 76
    222c:	f6 4c       	sbci	r31, 0xC6	; 198
    222e:	64 ef       	ldi	r22, 0xF4	; 244
    2230:	79 e3       	ldi	r23, 0x39	; 57
    2232:	80 81       	ld	r24, Z
    2234:	91 81       	ldd	r25, Z+1	; 0x01
    2236:	10 db       	rcall	.-2528   	; 0x1858 <PopulateObject>
    2238:	2a c2       	rjmp	.+1108   	; 0x268e <ProcessInput+0x4e6>
            
            //No way out, print denied message of location
            } else {
                SetResponse(elements++, currObj.addrStr[OPEN_ACL_MSG], currObj.lenStr[OPEN_ACL_MSG], GAME);
    223a:	80 91 16 3a 	lds	r24, 0x3A16	; 0x803a16 <currObj+0x22>
    223e:	90 91 17 3a 	lds	r25, 0x3A17	; 0x803a17 <currObj+0x23>
    return 0;
}

//
void SetResponse(uint8_t number, uint16_t address, uint16_t length, uint8_t type){
    reactStr[0][number]=address;
    2242:	20 91 08 3a 	lds	r18, 0x3A08	; 0x803a08 <currObj+0x14>
    2246:	30 91 09 3a 	lds	r19, 0x3A09	; 0x803a09 <currObj+0x15>
    224a:	20 93 f6 38 	sts	0x38F6, r18	; 0x8038f6 <reactStr+0x2>
    224e:	30 93 f7 38 	sts	0x38F7, r19	; 0x8038f7 <reactStr+0x3>
    reactStr[1][number]=length;
    2252:	80 93 36 39 	sts	0x3936, r24	; 0x803936 <reactStr+0x42>
    2256:	90 93 37 39 	sts	0x3937, r25	; 0x803937 <reactStr+0x43>
    reactStr[2][number]=type;
    225a:	10 92 76 39 	sts	0x3976, r1	; 0x803976 <reactStr+0x82>
    225e:	10 92 77 39 	sts	0x3977, r1	; 0x803977 <reactStr+0x83>
                PopulateObject(route[currDepth], &currObj);
            
            //No way out, print denied message of location
            } else {
                SetResponse(elements++, currObj.addrStr[OPEN_ACL_MSG], currObj.lenStr[OPEN_ACL_MSG], GAME);
                effect = currObj.effect[0];               
    2262:	80 91 1c 3a 	lds	r24, 0x3A1C	; 0x803a1c <currObj+0x28>
    2266:	33 c6       	rjmp	.+3174   	; 0x2ece <ProcessInput+0xd26>
            }   
        
        //Enter locations or Open objects    
        } else if ((data[0] == 'e')||(data[0] == 'o')) {
    2268:	85 36       	cpi	r24, 0x65	; 101
    226a:	19 f0       	breq	.+6      	; 0x2272 <ProcessInput+0xca>
    226c:	8f 36       	cpi	r24, 0x6F	; 111
    226e:	09 f0       	breq	.+2      	; 0x2272 <ProcessInput+0xca>
    2270:	d8 c0       	rjmp	.+432    	; 0x2422 <ProcessInput+0x27a>
                
            //Not possible, too many/little characters
            if (inputLen != 2){
    2272:	b2 e0       	ldi	r27, 0x02	; 2
    2274:	fb 12       	cpse	r15, r27
    2276:	c8 cf       	rjmp	.-112    	; 0x2208 <ProcessInput+0x60>
                SetResponse(elements++, A_NOTPOSSIBLE, L_NOTPOSSIBLE, TEASER);
            } else {
                uint8_t canDo = 0;
                route[currDepth+1] = FindChild(route[currDepth], data[1], 0);
    2278:	e0 90 26 38 	lds	r14, 0x3826	; 0x803826 <currDepth>
    227c:	f1 2c       	mov	r15, r1
    227e:	f7 01       	movw	r30, r14
    2280:	ee 0f       	add	r30, r30
    2282:	ff 1f       	adc	r31, r31
    2284:	ec 54       	subi	r30, 0x4C	; 76
    2286:	f6 4c       	sbci	r31, 0xC6	; 198
    2288:	40 e0       	ldi	r20, 0x00	; 0
    228a:	50 e0       	ldi	r21, 0x00	; 0
    228c:	d8 01       	movw	r26, r16
    228e:	11 96       	adiw	r26, 0x01	; 1
    2290:	6c 91       	ld	r22, X
    2292:	80 81       	ld	r24, Z
    2294:	91 81       	ldd	r25, Z+1	; 0x01
    2296:	ab db       	rcall	.-2218   	; 0x19ee <FindChild>
    2298:	f7 01       	movw	r30, r14
    229a:	ee 0f       	add	r30, r30
    229c:	ff 1f       	adc	r31, r31
    229e:	ea 54       	subi	r30, 0x4A	; 74
    22a0:	f6 4c       	sbci	r31, 0xC6	; 198
    22a2:	80 83       	st	Z, r24
    22a4:	91 83       	std	Z+1, r25	; 0x01
                    
                //Child found?
                if (route[currDepth+1]) {
    22a6:	90 91 26 38 	lds	r25, 0x3826	; 0x803826 <currDepth>
    22aa:	29 2f       	mov	r18, r25
    22ac:	30 e0       	ldi	r19, 0x00	; 0
    22ae:	f9 01       	movw	r30, r18
    22b0:	ee 0f       	add	r30, r30
    22b2:	ff 1f       	adc	r31, r31
    22b4:	ea 54       	subi	r30, 0x4A	; 74
    22b6:	f6 4c       	sbci	r31, 0xC6	; 198
    22b8:	40 81       	ld	r20, Z
    22ba:	51 81       	ldd	r21, Z+1	; 0x01
    22bc:	41 15       	cp	r20, r1
    22be:	51 05       	cpc	r21, r1
    22c0:	21 f0       	breq	.+8      	; 0x22ca <ProcessInput+0x122>
                    PopulateObject(route[currDepth+1], &actObj1);
    22c2:	65 eb       	ldi	r22, 0xB5	; 181
    22c4:	78 e3       	ldi	r23, 0x38	; 56
    22c6:	ca 01       	movw	r24, r20
    22c8:	1c c0       	rjmp	.+56     	; 0x2302 <ProcessInput+0x15a>
                    canDo = 1;
                //No child, maybe a step back, letter ok?
                } else if (currDepth) {
    22ca:	99 23       	and	r25, r25
    22cc:	09 f4       	brne	.+2      	; 0x22d0 <ProcessInput+0x128>
    22ce:	7a c7       	rjmp	.+3828   	; 0x31c4 <ProcessInput+0x101c>
                    if (CheckLetter(route[currDepth-1], data[1])) {
    22d0:	22 0f       	add	r18, r18
    22d2:	33 1f       	adc	r19, r19
    22d4:	f9 01       	movw	r30, r18
    22d6:	ee 54       	subi	r30, 0x4E	; 78
    22d8:	f6 4c       	sbci	r31, 0xC6	; 198
    22da:	d8 01       	movw	r26, r16
    22dc:	11 96       	adiw	r26, 0x01	; 1
    22de:	6c 91       	ld	r22, X
    22e0:	80 81       	ld	r24, Z
    22e2:	91 81       	ldd	r25, Z+1	; 0x01
    22e4:	30 db       	rcall	.-2464   	; 0x1946 <CheckLetter>
    22e6:	88 23       	and	r24, r24
    22e8:	09 f4       	brne	.+2      	; 0x22ec <ProcessInput+0x144>
    22ea:	6c c7       	rjmp	.+3800   	; 0x31c4 <ProcessInput+0x101c>
                        PopulateObject(route[currDepth-1], &actObj1);
    22ec:	e0 91 26 38 	lds	r30, 0x3826	; 0x803826 <currDepth>
    22f0:	f0 e0       	ldi	r31, 0x00	; 0
    22f2:	ee 0f       	add	r30, r30
    22f4:	ff 1f       	adc	r31, r31
    22f6:	ee 54       	subi	r30, 0x4E	; 78
    22f8:	f6 4c       	sbci	r31, 0xC6	; 198
    22fa:	65 eb       	ldi	r22, 0xB5	; 181
    22fc:	78 e3       	ldi	r23, 0x38	; 56
    22fe:	80 81       	ld	r24, Z
    2300:	91 81       	ldd	r25, Z+1	; 0x01
    2302:	aa da       	rcall	.-2732   	; 0x1858 <PopulateObject>
                    }
                }

                //The candidate is found! Let's check if the action is legit
                if (canDo) {
                    if ((data[0] == 'e') && ((actObj1.byteField[ACTION_MASK]&ENTER)==0)) {
    2304:	d8 01       	movw	r26, r16
    2306:	8c 91       	ld	r24, X
    2308:	85 36       	cpi	r24, 0x65	; 101
    230a:	c9 f4       	brne	.+50     	; 0x233e <ProcessInput+0x196>
    230c:	80 91 bd 38 	lds	r24, 0x38BD	; 0x8038bd <actObj1.3989+0x8>
    2310:	80 fd       	sbrc	r24, 0
    2312:	1e c0       	rjmp	.+60     	; 0x2350 <ProcessInput+0x1a8>
    return 0;
}

//
void SetResponse(uint8_t number, uint16_t address, uint16_t length, uint8_t type){
    reactStr[0][number]=address;
    2314:	80 ea       	ldi	r24, 0xA0	; 160
    2316:	99 e7       	ldi	r25, 0x79	; 121
    2318:	80 93 f6 38 	sts	0x38F6, r24	; 0x8038f6 <reactStr+0x2>
    231c:	90 93 f7 38 	sts	0x38F7, r25	; 0x8038f7 <reactStr+0x3>
    reactStr[1][number]=length;
    2320:	8e e1       	ldi	r24, 0x1E	; 30
    2322:	90 e0       	ldi	r25, 0x00	; 0
    2324:	80 93 36 39 	sts	0x3936, r24	; 0x803936 <reactStr+0x42>
    2328:	90 93 37 39 	sts	0x3937, r25	; 0x803937 <reactStr+0x43>
    reactStr[2][number]=type;
    232c:	81 e0       	ldi	r24, 0x01	; 1
    232e:	90 e0       	ldi	r25, 0x00	; 0
    2330:	80 93 76 39 	sts	0x3976, r24	; 0x803976 <reactStr+0x82>
    2334:	90 93 77 39 	sts	0x3977, r25	; 0x803977 <reactStr+0x83>
                }

                //The candidate is found! Let's check if the action is legit
                if (canDo) {
                    if ((data[0] == 'e') && ((actObj1.byteField[ACTION_MASK]&ENTER)==0)) {
                        SetResponse(elements++, A_CANTENTER, L_CANTENTER, TEASER);
    2338:	72 e0       	ldi	r23, 0x02	; 2
    233a:	77 2e       	mov	r7, r23
    233c:	07 c7       	rjmp	.+3598   	; 0x314c <ProcessInput+0xfa4>
                    } else if ((data[0] == 'o') && ((actObj1.byteField[ACTION_MASK]&OPEN)==0)) {
    233e:	8f 36       	cpi	r24, 0x6F	; 111
    2340:	39 f4       	brne	.+14     	; 0x2350 <ProcessInput+0x1a8>
    2342:	80 91 bd 38 	lds	r24, 0x38BD	; 0x8038bd <actObj1.3989+0x8>
    2346:	81 fd       	sbrc	r24, 1
    2348:	03 c0       	rjmp	.+6      	; 0x2350 <ProcessInput+0x1a8>
    return 0;
}

//
void SetResponse(uint8_t number, uint16_t address, uint16_t length, uint8_t type){
    reactStr[0][number]=address;
    234a:	85 e8       	ldi	r24, 0x85	; 133
    234c:	99 e7       	ldi	r25, 0x79	; 121
    234e:	f2 c4       	rjmp	.+2532   	; 0x2d34 <ProcessInput+0xb8c>
                        SetResponse(elements++, A_CANTENTER, L_CANTENTER, TEASER);
                    } else if ((data[0] == 'o') && ((actObj1.byteField[ACTION_MASK]&OPEN)==0)) {
                        SetResponse(elements++, A_CANTOPEN, L_CANTOPEN, TEASER);
                    
                    //Action legit, permission granted?
                    } else if (CheckState(actObj1.byteField[OPEN_ACL])) {
    2350:	80 91 bb 38 	lds	r24, 0x38BB	; 0x8038bb <actObj1.3989+0x6>
    2354:	0e 94 dc 08 	call	0x11b8	; 0x11b8 <CheckState>
    2358:	e0 91 26 38 	lds	r30, 0x3826	; 0x803826 <currDepth>
    235c:	88 23       	and	r24, r24
    235e:	09 f4       	brne	.+2      	; 0x2362 <ProcessInput+0x1ba>
    2360:	42 c0       	rjmp	.+132    	; 0x23e6 <ProcessInput+0x23e>
                            
                        //Yes! Check if we must move forward or backwards.
                        if (route[currDepth+1]) ++currDepth; else --currDepth;
    2362:	ae 2f       	mov	r26, r30
    2364:	b0 e0       	ldi	r27, 0x00	; 0
    2366:	aa 0f       	add	r26, r26
    2368:	bb 1f       	adc	r27, r27
    236a:	aa 54       	subi	r26, 0x4A	; 74
    236c:	b6 4c       	sbci	r27, 0xC6	; 198
    236e:	8d 91       	ld	r24, X+
    2370:	9c 91       	ld	r25, X
    2372:	89 2b       	or	r24, r25
    2374:	11 f0       	breq	.+4      	; 0x237a <ProcessInput+0x1d2>
    2376:	ef 5f       	subi	r30, 0xFF	; 255
    2378:	01 c0       	rjmp	.+2      	; 0x237c <ProcessInput+0x1d4>
    237a:	e1 50       	subi	r30, 0x01	; 1
    237c:	e0 93 26 38 	sts	0x3826, r30	; 0x803826 <currDepth>
                        PopulateObject(route[currDepth], &currObj);
    2380:	e0 91 26 38 	lds	r30, 0x3826	; 0x803826 <currDepth>
    2384:	f0 e0       	ldi	r31, 0x00	; 0
    2386:	ee 0f       	add	r30, r30
    2388:	ff 1f       	adc	r31, r31
    238a:	ec 54       	subi	r30, 0x4C	; 76
    238c:	f6 4c       	sbci	r31, 0xC6	; 198
    238e:	64 ef       	ldi	r22, 0xF4	; 244
    2390:	79 e3       	ldi	r23, 0x39	; 57
    2392:	80 81       	ld	r24, Z
    2394:	91 81       	ldd	r25, Z+1	; 0x01
    2396:	60 da       	rcall	.-2880   	; 0x1858 <PopulateObject>
                        SetResponse(elements++, currObj.addrStr[DESC], currObj.lenStr[DESC],GAME);
    2398:	80 91 10 3a 	lds	r24, 0x3A10	; 0x803a10 <currObj+0x1c>
    239c:	90 91 11 3a 	lds	r25, 0x3A11	; 0x803a11 <currObj+0x1d>
    return 0;
}

//
void SetResponse(uint8_t number, uint16_t address, uint16_t length, uint8_t type){
    reactStr[0][number]=address;
    23a0:	20 91 02 3a 	lds	r18, 0x3A02	; 0x803a02 <currObj+0xe>
    23a4:	30 91 03 3a 	lds	r19, 0x3A03	; 0x803a03 <currObj+0xf>
    23a8:	20 93 f6 38 	sts	0x38F6, r18	; 0x8038f6 <reactStr+0x2>
    23ac:	30 93 f7 38 	sts	0x38F7, r19	; 0x8038f7 <reactStr+0x3>
    reactStr[1][number]=length;
    23b0:	80 93 36 39 	sts	0x3936, r24	; 0x803936 <reactStr+0x42>
    23b4:	90 93 37 39 	sts	0x3937, r25	; 0x803937 <reactStr+0x43>
    reactStr[2][number]=type;
    23b8:	10 92 76 39 	sts	0x3976, r1	; 0x803976 <reactStr+0x82>
    23bc:	10 92 77 39 	sts	0x3977, r1	; 0x803977 <reactStr+0x83>
    return 0;
}

//
void SetResponse(uint8_t number, uint16_t address, uint16_t length, uint8_t type){
    reactStr[0][number]=address;
    23c0:	8b e5       	ldi	r24, 0x5B	; 91
    23c2:	9a e7       	ldi	r25, 0x7A	; 122
    23c4:	80 93 f8 38 	sts	0x38F8, r24	; 0x8038f8 <reactStr+0x4>
    23c8:	90 93 f9 38 	sts	0x38F9, r25	; 0x8038f9 <reactStr+0x5>
    reactStr[1][number]=length;
    23cc:	82 e0       	ldi	r24, 0x02	; 2
    23ce:	90 e0       	ldi	r25, 0x00	; 0
    23d0:	80 93 38 39 	sts	0x3938, r24	; 0x803938 <reactStr+0x44>
    23d4:	90 93 39 39 	sts	0x3939, r25	; 0x803939 <reactStr+0x45>
    reactStr[2][number]=type;
    23d8:	81 e0       	ldi	r24, 0x01	; 1
    23da:	90 e0       	ldi	r25, 0x00	; 0
    23dc:	80 93 78 39 	sts	0x3978, r24	; 0x803978 <reactStr+0x84>
    23e0:	90 93 79 39 	sts	0x3979, r25	; 0x803979 <reactStr+0x85>
    23e4:	8d c4       	rjmp	.+2330   	; 0x2d00 <ProcessInput+0xb58>
                        SetResponse(elements++, currObj.addrStr[DESC], currObj.lenStr[DESC],GAME);
                        SetResponse(elements++, A_LF, 2, TEASER);
                                                  
                    //Not granted!
                    } else {
                        route[currDepth+1] = 0;
    23e6:	f0 e0       	ldi	r31, 0x00	; 0
    23e8:	ee 0f       	add	r30, r30
    23ea:	ff 1f       	adc	r31, r31
    23ec:	ea 54       	subi	r30, 0x4A	; 74
    23ee:	f6 4c       	sbci	r31, 0xC6	; 198
    23f0:	10 82       	st	Z, r1
    23f2:	11 82       	std	Z+1, r1	; 0x01
                        SetResponse(elements++, actObj1.addrStr[OPEN_ACL_MSG], actObj1.lenStr[OPEN_ACL_MSG], GAME);
    23f4:	80 91 d7 38 	lds	r24, 0x38D7	; 0x8038d7 <actObj1.3989+0x22>
    23f8:	90 91 d8 38 	lds	r25, 0x38D8	; 0x8038d8 <actObj1.3989+0x23>
    return 0;
}

//
void SetResponse(uint8_t number, uint16_t address, uint16_t length, uint8_t type){
    reactStr[0][number]=address;
    23fc:	20 91 c9 38 	lds	r18, 0x38C9	; 0x8038c9 <actObj1.3989+0x14>
    2400:	30 91 ca 38 	lds	r19, 0x38CA	; 0x8038ca <actObj1.3989+0x15>
    2404:	20 93 f6 38 	sts	0x38F6, r18	; 0x8038f6 <reactStr+0x2>
    2408:	30 93 f7 38 	sts	0x38F7, r19	; 0x8038f7 <reactStr+0x3>
    reactStr[1][number]=length;
    240c:	80 93 36 39 	sts	0x3936, r24	; 0x803936 <reactStr+0x42>
    2410:	90 93 37 39 	sts	0x3937, r25	; 0x803937 <reactStr+0x43>
    reactStr[2][number]=type;
    2414:	10 92 76 39 	sts	0x3976, r1	; 0x803976 <reactStr+0x82>
    2418:	10 92 77 39 	sts	0x3977, r1	; 0x803977 <reactStr+0x83>
                                                  
                    //Not granted!
                    } else {
                        route[currDepth+1] = 0;
                        SetResponse(elements++, actObj1.addrStr[OPEN_ACL_MSG], actObj1.lenStr[OPEN_ACL_MSG], GAME);
                        effect = actObj1.effect[0];              
    241c:	80 91 dd 38 	lds	r24, 0x38DD	; 0x8038dd <actObj1.3989+0x28>
    2420:	56 c5       	rjmp	.+2732   	; 0x2ece <ProcessInput+0xd26>
                    SetResponse(elements++, A_DONTSEE, L_DONTSEE, TEASER);                
                }
            }

        //Look around or at objects
        } else if (data[0] == 'l') {
    2422:	8c 36       	cpi	r24, 0x6C	; 108
    2424:	09 f0       	breq	.+2      	; 0x2428 <ProcessInput+0x280>
    2426:	57 c1       	rjmp	.+686    	; 0x26d6 <ProcessInput+0x52e>
    2428:	e0 91 26 38 	lds	r30, 0x3826	; 0x803826 <currDepth>
            if (inputLen == 1) {
    242c:	b1 e0       	ldi	r27, 0x01	; 1
    242e:	fb 12       	cpse	r15, r27
    2430:	f6 c0       	rjmp	.+492    	; 0x261e <ProcessInput+0x476>

                //Show info about this area first
                SetResponse(elements++, currObj.addrStr[DESC], currObj.lenStr[DESC],GAME);
    2432:	80 91 10 3a 	lds	r24, 0x3A10	; 0x803a10 <currObj+0x1c>
    2436:	90 91 11 3a 	lds	r25, 0x3A11	; 0x803a11 <currObj+0x1d>
    return 0;
}

//
void SetResponse(uint8_t number, uint16_t address, uint16_t length, uint8_t type){
    reactStr[0][number]=address;
    243a:	20 91 02 3a 	lds	r18, 0x3A02	; 0x803a02 <currObj+0xe>
    243e:	30 91 03 3a 	lds	r19, 0x3A03	; 0x803a03 <currObj+0xf>
    2442:	20 93 f6 38 	sts	0x38F6, r18	; 0x8038f6 <reactStr+0x2>
    2446:	30 93 f7 38 	sts	0x38F7, r19	; 0x8038f7 <reactStr+0x3>
    reactStr[1][number]=length;
    244a:	80 93 36 39 	sts	0x3936, r24	; 0x803936 <reactStr+0x42>
    244e:	90 93 37 39 	sts	0x3937, r25	; 0x803937 <reactStr+0x43>
    reactStr[2][number]=type;
    2452:	10 92 76 39 	sts	0x3976, r1	; 0x803976 <reactStr+0x82>
    2456:	10 92 77 39 	sts	0x3977, r1	; 0x803977 <reactStr+0x83>
    return 0;
}

//
void SetResponse(uint8_t number, uint16_t address, uint16_t length, uint8_t type){
    reactStr[0][number]=address;
    245a:	8b e5       	ldi	r24, 0x5B	; 91
    245c:	9a e7       	ldi	r25, 0x7A	; 122
    245e:	80 93 f8 38 	sts	0x38F8, r24	; 0x8038f8 <reactStr+0x4>
    2462:	90 93 f9 38 	sts	0x38F9, r25	; 0x8038f9 <reactStr+0x5>
    reactStr[1][number]=length;
    2466:	82 e0       	ldi	r24, 0x02	; 2
    2468:	90 e0       	ldi	r25, 0x00	; 0
    246a:	80 93 38 39 	sts	0x3938, r24	; 0x803938 <reactStr+0x44>
    246e:	90 93 39 39 	sts	0x3939, r25	; 0x803939 <reactStr+0x45>
    reactStr[2][number]=type;
    2472:	81 e0       	ldi	r24, 0x01	; 1
    2474:	90 e0       	ldi	r25, 0x00	; 0
    2476:	80 93 78 39 	sts	0x3978, r24	; 0x803978 <reactStr+0x84>
    247a:	90 93 79 39 	sts	0x3979, r25	; 0x803979 <reactStr+0x85>
    return 0;
}

//
void SetResponse(uint8_t number, uint16_t address, uint16_t length, uint8_t type){
    reactStr[0][number]=address;
    247e:	2e ee       	ldi	r18, 0xEE	; 238
    2480:	39 e7       	ldi	r19, 0x79	; 121
    2482:	20 93 fa 38 	sts	0x38FA, r18	; 0x8038fa <reactStr+0x6>
    2486:	30 93 fb 38 	sts	0x38FB, r19	; 0x8038fb <reactStr+0x7>
    reactStr[1][number]=length;
    248a:	25 e1       	ldi	r18, 0x15	; 21
    248c:	30 e0       	ldi	r19, 0x00	; 0
    248e:	20 93 3a 39 	sts	0x393A, r18	; 0x80393a <reactStr+0x46>
    2492:	30 93 3b 39 	sts	0x393B, r19	; 0x80393b <reactStr+0x47>
    reactStr[2][number]=type;
    2496:	80 93 7a 39 	sts	0x397A, r24	; 0x80397a <reactStr+0x86>
    249a:	90 93 7b 39 	sts	0x397B, r25	; 0x80397b <reactStr+0x87>
                SetResponse(elements++, currObj.addrStr[DESC], currObj.lenStr[DESC],GAME);
                SetResponse(elements++, A_LF, 2, TEASER);
                SetResponse(elements++, A_LOOK, L_LOOK, TEASER);

                //Check the visible children first
                route[currDepth+1] = 0;
    249e:	f0 e0       	ldi	r31, 0x00	; 0
    24a0:	ee 0f       	add	r30, r30
    24a2:	ff 1f       	adc	r31, r31
    24a4:	ea 54       	subi	r30, 0x4A	; 74
    24a6:	f6 4c       	sbci	r31, 0xC6	; 198
    24a8:	10 82       	st	Z, r1
    24aa:	11 82       	std	Z+1, r1	; 0x01
            if (inputLen == 1) {

                //Show info about this area first
                SetResponse(elements++, currObj.addrStr[DESC], currObj.lenStr[DESC],GAME);
                SetResponse(elements++, A_LF, 2, TEASER);
                SetResponse(elements++, A_LOOK, L_LOOK, TEASER);
    24ac:	84 e0       	ldi	r24, 0x04	; 4
    24ae:	68 2e       	mov	r6, r24
    return 0;
}

//
void SetResponse(uint8_t number, uint16_t address, uint16_t length, uint8_t type){
    reactStr[0][number]=address;
    24b0:	99 e5       	ldi	r25, 0x59	; 89
    24b2:	c9 2e       	mov	r12, r25
    24b4:	9a e7       	ldi	r25, 0x7A	; 122
    24b6:	d9 2e       	mov	r13, r25
    reactStr[1][number]=length;
    24b8:	22 e0       	ldi	r18, 0x02	; 2
    24ba:	a2 2e       	mov	r10, r18
    24bc:	b1 2c       	mov	r11, r1
    reactStr[2][number]=type;
    24be:	88 24       	eor	r8, r8
    24c0:	83 94       	inc	r8
    24c2:	91 2c       	mov	r9, r1
                SetResponse(elements++, A_LOOK, L_LOOK, TEASER);

                //Check the visible children first
                route[currDepth+1] = 0;
                do{
                    route[currDepth+1] = FindChild(route[currDepth], 0, route[currDepth+1]);
    24c4:	80 91 26 38 	lds	r24, 0x3826	; 0x803826 <currDepth>
    24c8:	90 e0       	ldi	r25, 0x00	; 0
    24ca:	9c 01       	movw	r18, r24
    24cc:	22 0f       	add	r18, r18
    24ce:	33 1f       	adc	r19, r19
    24d0:	f9 01       	movw	r30, r18
    24d2:	ea 54       	subi	r30, 0x4A	; 74
    24d4:	f6 4c       	sbci	r31, 0xC6	; 198
    24d6:	7f 01       	movw	r14, r30
    24d8:	40 81       	ld	r20, Z
    24da:	51 81       	ldd	r21, Z+1	; 0x01
    24dc:	f9 01       	movw	r30, r18
    24de:	ec 54       	subi	r30, 0x4C	; 76
    24e0:	f6 4c       	sbci	r31, 0xC6	; 198
    24e2:	60 e0       	ldi	r22, 0x00	; 0
    24e4:	80 81       	ld	r24, Z
    24e6:	91 81       	ldd	r25, Z+1	; 0x01
    24e8:	82 da       	rcall	.-2812   	; 0x19ee <FindChild>
    24ea:	d7 01       	movw	r26, r14
    24ec:	8d 93       	st	X+, r24
    24ee:	9c 93       	st	X, r25
                    if (route[currDepth+1]) {
    24f0:	e0 91 26 38 	lds	r30, 0x3826	; 0x803826 <currDepth>
    24f4:	f0 e0       	ldi	r31, 0x00	; 0
    24f6:	ee 0f       	add	r30, r30
    24f8:	ff 1f       	adc	r31, r31
    24fa:	ea 54       	subi	r30, 0x4A	; 74
    24fc:	f6 4c       	sbci	r31, 0xC6	; 198
    24fe:	80 81       	ld	r24, Z
    2500:	91 81       	ldd	r25, Z+1	; 0x01
    2502:	00 97       	sbiw	r24, 0x00	; 0
    2504:	09 f4       	brne	.+2      	; 0x2508 <ProcessInput+0x360>
    2506:	4a c0       	rjmp	.+148    	; 0x259c <ProcessInput+0x3f4>
                        if ((route[currDepth+1] != inventory[0])&&(route[currDepth+1] != inventory[1])) {
    2508:	20 91 31 38 	lds	r18, 0x3831	; 0x803831 <inventory>
    250c:	30 91 32 38 	lds	r19, 0x3832	; 0x803832 <inventory+0x1>
    2510:	82 17       	cp	r24, r18
    2512:	93 07       	cpc	r25, r19
    2514:	09 f4       	brne	.+2      	; 0x2518 <ProcessInput+0x370>
    2516:	42 c0       	rjmp	.+132    	; 0x259c <ProcessInput+0x3f4>
    2518:	20 91 33 38 	lds	r18, 0x3833	; 0x803833 <inventory+0x2>
    251c:	30 91 34 38 	lds	r19, 0x3834	; 0x803834 <inventory+0x3>
    2520:	82 17       	cp	r24, r18
    2522:	93 07       	cpc	r25, r19
                            PopulateObject(route[currDepth+1], &actObj1);
    2524:	d9 f1       	breq	.+118    	; 0x259c <ProcessInput+0x3f4>
    2526:	65 eb       	ldi	r22, 0xB5	; 181
    2528:	78 e3       	ldi	r23, 0x38	; 56
    252a:	96 d9       	rcall	.-3284   	; 0x1858 <PopulateObject>
                            SetResponse(elements++, actObj1.addrStr[NAME], actObj1.lenStr[NAME],GAME);
    252c:	80 91 cf 38 	lds	r24, 0x38CF	; 0x8038cf <actObj1.3989+0x1a>
    2530:	90 91 d0 38 	lds	r25, 0x38D0	; 0x8038d0 <actObj1.3989+0x1b>
    return 0;
}

//
void SetResponse(uint8_t number, uint16_t address, uint16_t length, uint8_t type){
    reactStr[0][number]=address;
    2534:	e6 2d       	mov	r30, r6
    2536:	f0 e0       	ldi	r31, 0x00	; 0
    2538:	df 01       	movw	r26, r30
    253a:	aa 0f       	add	r26, r26
    253c:	bb 1f       	adc	r27, r27
    253e:	ac 50       	subi	r26, 0x0C	; 12
    2540:	b7 4c       	sbci	r27, 0xC7	; 199
    2542:	20 91 c1 38 	lds	r18, 0x38C1	; 0x8038c1 <actObj1.3989+0xc>
    2546:	30 91 c2 38 	lds	r19, 0x38C2	; 0x8038c2 <actObj1.3989+0xd>
    254a:	2d 93       	st	X+, r18
    254c:	3c 93       	st	X, r19
    reactStr[1][number]=length;
    254e:	df 01       	movw	r26, r30
    2550:	aa 0f       	add	r26, r26
    2552:	bb 1f       	adc	r27, r27
    2554:	ac 5c       	subi	r26, 0xCC	; 204
    2556:	b6 4c       	sbci	r27, 0xC6	; 198
    2558:	8d 93       	st	X+, r24
    255a:	9c 93       	st	X, r25
    reactStr[2][number]=type;
    255c:	ee 0f       	add	r30, r30
    255e:	ff 1f       	adc	r31, r31
    2560:	ec 58       	subi	r30, 0x8C	; 140
    2562:	f6 4c       	sbci	r31, 0xC6	; 198
    2564:	10 82       	st	Z, r1
    2566:	11 82       	std	Z+1, r1	; 0x01
    return 0;
}

//
void SetResponse(uint8_t number, uint16_t address, uint16_t length, uint8_t type){
    reactStr[0][number]=address;
    2568:	81 e0       	ldi	r24, 0x01	; 1
    256a:	86 0d       	add	r24, r6
    256c:	90 e0       	ldi	r25, 0x00	; 0
    256e:	63 94       	inc	r6
    2570:	63 94       	inc	r6
    2572:	fc 01       	movw	r30, r24
    2574:	ee 0f       	add	r30, r30
    2576:	ff 1f       	adc	r31, r31
    2578:	ec 50       	subi	r30, 0x0C	; 12
    257a:	f7 4c       	sbci	r31, 0xC7	; 199
    257c:	c0 82       	st	Z, r12
    257e:	d1 82       	std	Z+1, r13	; 0x01
    reactStr[1][number]=length;
    2580:	fc 01       	movw	r30, r24
    2582:	ee 0f       	add	r30, r30
    2584:	ff 1f       	adc	r31, r31
    2586:	ec 5c       	subi	r30, 0xCC	; 204
    2588:	f6 4c       	sbci	r31, 0xC6	; 198
    258a:	a0 82       	st	Z, r10
    258c:	b1 82       	std	Z+1, r11	; 0x01
    reactStr[2][number]=type;
    258e:	88 0f       	add	r24, r24
    2590:	99 1f       	adc	r25, r25
    2592:	fc 01       	movw	r30, r24
    2594:	ec 58       	subi	r30, 0x8C	; 140
    2596:	f6 4c       	sbci	r31, 0xC6	; 198
    2598:	80 82       	st	Z, r8
    259a:	91 82       	std	Z+1, r9	; 0x01
                            PopulateObject(route[currDepth+1], &actObj1);
                            SetResponse(elements++, actObj1.addrStr[NAME], actObj1.lenStr[NAME],GAME);
                            SetResponse(elements++, A_COMMA, L_COMMA, TEASER);
                        }
                    }
                }while (route[currDepth+1]);
    259c:	20 91 26 38 	lds	r18, 0x3826	; 0x803826 <currDepth>
    25a0:	82 2f       	mov	r24, r18
    25a2:	90 e0       	ldi	r25, 0x00	; 0
    25a4:	fc 01       	movw	r30, r24
    25a6:	ee 0f       	add	r30, r30
    25a8:	ff 1f       	adc	r31, r31
    25aa:	ea 54       	subi	r30, 0x4A	; 74
    25ac:	f6 4c       	sbci	r31, 0xC6	; 198
    25ae:	40 81       	ld	r20, Z
    25b0:	51 81       	ldd	r21, Z+1	; 0x01
    25b2:	45 2b       	or	r20, r21
    25b4:	09 f0       	breq	.+2      	; 0x25b8 <ProcessInput+0x410>
    25b6:	86 cf       	rjmp	.-244    	; 0x24c4 <ProcessInput+0x31c>

                //Look back if not on level 0
                if (currDepth) {
    25b8:	22 23       	and	r18, r18
    25ba:	69 f1       	breq	.+90     	; 0x2616 <ProcessInput+0x46e>
                    PopulateObject(route[currDepth-1], &actObj1);
    25bc:	88 0f       	add	r24, r24
    25be:	99 1f       	adc	r25, r25
    25c0:	fc 01       	movw	r30, r24
    25c2:	ee 54       	subi	r30, 0x4E	; 78
    25c4:	f6 4c       	sbci	r31, 0xC6	; 198
    25c6:	65 eb       	ldi	r22, 0xB5	; 181
    25c8:	78 e3       	ldi	r23, 0x38	; 56
    25ca:	80 81       	ld	r24, Z
    25cc:	91 81       	ldd	r25, Z+1	; 0x01
    25ce:	44 d9       	rcall	.-3448   	; 0x1858 <PopulateObject>
                    SetResponse(elements++, actObj1.addrStr[NAME], actObj1.lenStr[NAME],GAME);
    25d0:	20 91 cf 38 	lds	r18, 0x38CF	; 0x8038cf <actObj1.3989+0x1a>
    25d4:	30 91 d0 38 	lds	r19, 0x38D0	; 0x8038d0 <actObj1.3989+0x1b>
    25d8:	77 24       	eor	r7, r7
    25da:	73 94       	inc	r7
    25dc:	76 0c       	add	r7, r6
    return 0;
}

//
void SetResponse(uint8_t number, uint16_t address, uint16_t length, uint8_t type){
    reactStr[0][number]=address;
    25de:	86 2d       	mov	r24, r6
    25e0:	90 e0       	ldi	r25, 0x00	; 0
    25e2:	fc 01       	movw	r30, r24
    25e4:	ee 0f       	add	r30, r30
    25e6:	ff 1f       	adc	r31, r31
    25e8:	ec 50       	subi	r30, 0x0C	; 12
    25ea:	f7 4c       	sbci	r31, 0xC7	; 199
    25ec:	40 91 c1 38 	lds	r20, 0x38C1	; 0x8038c1 <actObj1.3989+0xc>
    25f0:	50 91 c2 38 	lds	r21, 0x38C2	; 0x8038c2 <actObj1.3989+0xd>
    25f4:	40 83       	st	Z, r20
    25f6:	51 83       	std	Z+1, r21	; 0x01
    reactStr[1][number]=length;
    25f8:	fc 01       	movw	r30, r24
    25fa:	ee 0f       	add	r30, r30
    25fc:	ff 1f       	adc	r31, r31
    25fe:	ec 5c       	subi	r30, 0xCC	; 204
    2600:	f6 4c       	sbci	r31, 0xC6	; 198
    2602:	20 83       	st	Z, r18
    2604:	31 83       	std	Z+1, r19	; 0x01
    reactStr[2][number]=type;
    2606:	88 0f       	add	r24, r24
    2608:	99 1f       	adc	r25, r25
    260a:	fc 01       	movw	r30, r24
    260c:	ec 58       	subi	r30, 0x8C	; 140
    260e:	f6 4c       	sbci	r31, 0xC6	; 198
    2610:	10 82       	st	Z, r1
    2612:	11 82       	std	Z+1, r1	; 0x01
    2614:	9b c5       	rjmp	.+2870   	; 0x314c <ProcessInput+0xfa4>

                //Look back if not on level 0
                if (currDepth) {
                    PopulateObject(route[currDepth-1], &actObj1);
                    SetResponse(elements++, actObj1.addrStr[NAME], actObj1.lenStr[NAME],GAME);
                } else elements-=1;
    2616:	77 24       	eor	r7, r7
    2618:	7a 94       	dec	r7
    261a:	76 0c       	add	r7, r6
    261c:	97 c5       	rjmp	.+2862   	; 0x314c <ProcessInput+0xfa4>

            } else {
                route[currDepth+1] = FindChild(route[currDepth], data[1], 0);
    261e:	ee 2e       	mov	r14, r30
    2620:	f1 2c       	mov	r15, r1
    2622:	f7 01       	movw	r30, r14
    2624:	ee 0f       	add	r30, r30
    2626:	ff 1f       	adc	r31, r31
    2628:	ec 54       	subi	r30, 0x4C	; 76
    262a:	f6 4c       	sbci	r31, 0xC6	; 198
    262c:	40 e0       	ldi	r20, 0x00	; 0
    262e:	50 e0       	ldi	r21, 0x00	; 0
    2630:	d8 01       	movw	r26, r16
    2632:	11 96       	adiw	r26, 0x01	; 1
    2634:	6c 91       	ld	r22, X
    2636:	80 81       	ld	r24, Z
    2638:	91 81       	ldd	r25, Z+1	; 0x01
    263a:	d9 d9       	rcall	.-3150   	; 0x19ee <FindChild>
    263c:	f7 01       	movw	r30, r14
    263e:	ee 0f       	add	r30, r30
    2640:	ff 1f       	adc	r31, r31
    2642:	ea 54       	subi	r30, 0x4A	; 74
    2644:	f6 4c       	sbci	r31, 0xC6	; 198
    2646:	80 83       	st	Z, r24
    2648:	91 83       	std	Z+1, r25	; 0x01
                if (route[currDepth+1]) {
    264a:	90 91 26 38 	lds	r25, 0x3826	; 0x803826 <currDepth>
    264e:	29 2f       	mov	r18, r25
    2650:	30 e0       	ldi	r19, 0x00	; 0
    2652:	f9 01       	movw	r30, r18
    2654:	ee 0f       	add	r30, r30
    2656:	ff 1f       	adc	r31, r31
    2658:	ea 54       	subi	r30, 0x4A	; 74
    265a:	f6 4c       	sbci	r31, 0xC6	; 198
    265c:	40 81       	ld	r20, Z
    265e:	51 81       	ldd	r21, Z+1	; 0x01
    2660:	41 15       	cp	r20, r1
    2662:	51 05       	cpc	r21, r1
    2664:	21 f0       	breq	.+8      	; 0x266e <ProcessInput+0x4c6>
                    PopulateObject(route[currDepth+1], &actObj1);
    2666:	65 eb       	ldi	r22, 0xB5	; 181
    2668:	78 e3       	ldi	r23, 0x38	; 56
    266a:	ca 01       	movw	r24, r20
    266c:	1e c0       	rjmp	.+60     	; 0x26aa <ProcessInput+0x502>
//TODO: CHECKSTATE -> A_CANTLOOK item
                    SetResponse(elements++, actObj1.addrStr[DESC], actObj1.lenStr[DESC],GAME);   
                } else if (currDepth) {
    266e:	99 23       	and	r25, r25
    2670:	09 f4       	brne	.+2      	; 0x2674 <ProcessInput+0x4cc>
                    if (CheckLetter(route[currDepth-1], data[1])) {
    2672:	a8 c5       	rjmp	.+2896   	; 0x31c4 <ProcessInput+0x101c>
    2674:	22 0f       	add	r18, r18
    2676:	33 1f       	adc	r19, r19
    2678:	f9 01       	movw	r30, r18
    267a:	ee 54       	subi	r30, 0x4E	; 78
    267c:	f6 4c       	sbci	r31, 0xC6	; 198
    267e:	d8 01       	movw	r26, r16
    2680:	11 96       	adiw	r26, 0x01	; 1
    2682:	6c 91       	ld	r22, X
    2684:	80 81       	ld	r24, Z
    2686:	91 81       	ldd	r25, Z+1	; 0x01
    2688:	5e d9       	rcall	.-3396   	; 0x1946 <CheckLetter>
    268a:	81 11       	cpse	r24, r1
    268c:	03 c0       	rjmp	.+6      	; 0x2694 <ProcessInput+0x4ec>
}

//The game logic!
uint8_t ProcessInput(uint8_t *data){
    static object_model_t actObj1, actObj2;
    uint8_t elements = 1;
    268e:	77 24       	eor	r7, r7
    2690:	73 94       	inc	r7
                    PopulateObject(route[currDepth+1], &actObj1);
//TODO: CHECKSTATE -> A_CANTLOOK item
                    SetResponse(elements++, actObj1.addrStr[DESC], actObj1.lenStr[DESC],GAME);   
                } else if (currDepth) {
                    if (CheckLetter(route[currDepth-1], data[1])) {
                        PopulateObject(route[currDepth-1], &actObj1);
    2692:	5c c5       	rjmp	.+2744   	; 0x314c <ProcessInput+0xfa4>
    2694:	e0 91 26 38 	lds	r30, 0x3826	; 0x803826 <currDepth>
    2698:	f0 e0       	ldi	r31, 0x00	; 0
    269a:	ee 0f       	add	r30, r30
    269c:	ff 1f       	adc	r31, r31
    269e:	ee 54       	subi	r30, 0x4E	; 78
    26a0:	f6 4c       	sbci	r31, 0xC6	; 198
    26a2:	65 eb       	ldi	r22, 0xB5	; 181
    26a4:	78 e3       	ldi	r23, 0x38	; 56
    26a6:	80 81       	ld	r24, Z
    26a8:	91 81       	ldd	r25, Z+1	; 0x01
    26aa:	d6 d8       	rcall	.-3668   	; 0x1858 <PopulateObject>
                        SetResponse(elements++, actObj1.addrStr[DESC], actObj1.lenStr[DESC],GAME);
    26ac:	80 91 d1 38 	lds	r24, 0x38D1	; 0x8038d1 <actObj1.3989+0x1c>
    26b0:	90 91 d2 38 	lds	r25, 0x38D2	; 0x8038d2 <actObj1.3989+0x1d>
    return 0;
}

//
void SetResponse(uint8_t number, uint16_t address, uint16_t length, uint8_t type){
    reactStr[0][number]=address;
    26b4:	20 91 c3 38 	lds	r18, 0x38C3	; 0x8038c3 <actObj1.3989+0xe>
    26b8:	30 91 c4 38 	lds	r19, 0x38C4	; 0x8038c4 <actObj1.3989+0xf>
    26bc:	20 93 f6 38 	sts	0x38F6, r18	; 0x8038f6 <reactStr+0x2>
    26c0:	30 93 f7 38 	sts	0x38F7, r19	; 0x8038f7 <reactStr+0x3>
    reactStr[1][number]=length;
    26c4:	80 93 36 39 	sts	0x3936, r24	; 0x803936 <reactStr+0x42>
    26c8:	90 93 37 39 	sts	0x3937, r25	; 0x803937 <reactStr+0x43>
    reactStr[2][number]=type;
    26cc:	10 92 76 39 	sts	0x3976, r1	; 0x803976 <reactStr+0x82>
    26d0:	10 92 77 39 	sts	0x3977, r1	; 0x803977 <reactStr+0x83>
    26d4:	31 ce       	rjmp	.-926    	; 0x2338 <ProcessInput+0x190>
                    SetResponse(elements++, A_DONTSEE, L_DONTSEE, TEASER);
                }
            }
        
        //Pick up an object
        } else if (data[0] == 'p') {
    26d6:	80 37       	cpi	r24, 0x70	; 112
    26d8:	09 f0       	breq	.+2      	; 0x26dc <ProcessInput+0x534>
    26da:	96 c0       	rjmp	.+300    	; 0x2808 <ProcessInput+0x660>
            if (inventory[0]&&inventory[1]) {
    26dc:	80 91 31 38 	lds	r24, 0x3831	; 0x803831 <inventory>
    26e0:	90 91 32 38 	lds	r25, 0x3832	; 0x803832 <inventory+0x1>
    26e4:	89 2b       	or	r24, r25
    26e6:	79 f0       	breq	.+30     	; 0x2706 <ProcessInput+0x55e>
    26e8:	80 91 33 38 	lds	r24, 0x3833	; 0x803833 <inventory+0x2>
    26ec:	90 91 34 38 	lds	r25, 0x3834	; 0x803834 <inventory+0x3>
    26f0:	89 2b       	or	r24, r25
    26f2:	49 f0       	breq	.+18     	; 0x2706 <ProcessInput+0x55e>
    return 0;
}

//
void SetResponse(uint8_t number, uint16_t address, uint16_t length, uint8_t type){
    reactStr[0][number]=address;
    26f4:	85 e4       	ldi	r24, 0x45	; 69
    26f6:	98 e7       	ldi	r25, 0x78	; 120
    26f8:	80 93 f6 38 	sts	0x38F6, r24	; 0x8038f6 <reactStr+0x2>
    26fc:	90 93 f7 38 	sts	0x38F7, r25	; 0x8038f7 <reactStr+0x3>
    reactStr[1][number]=length;
    2700:	89 e5       	ldi	r24, 0x59	; 89
    2702:	90 e0       	ldi	r25, 0x00	; 0
    2704:	0f ce       	rjmp	.-994    	; 0x2324 <ProcessInput+0x17c>
        
        //Pick up an object
        } else if (data[0] == 'p') {
            if (inventory[0]&&inventory[1]) {
                SetResponse(elements++, A_CARRYTWO, L_CARRYTWO, TEASER);
            } else if (inputLen != 2) {
    2706:	b2 e0       	ldi	r27, 0x02	; 2
    2708:	fb 12       	cpse	r15, r27
    270a:	7e cd       	rjmp	.-1284   	; 0x2208 <ProcessInput+0x60>
                SetResponse(elements++, A_NOTPOSSIBLE, L_NOTPOSSIBLE, TEASER);
            } else {
                route[currDepth+1] = FindChild(route[currDepth], data[1], 0);
    270c:	e0 90 26 38 	lds	r14, 0x3826	; 0x803826 <currDepth>
    2710:	f1 2c       	mov	r15, r1
    2712:	f7 01       	movw	r30, r14
    2714:	ee 0f       	add	r30, r30
    2716:	ff 1f       	adc	r31, r31
    2718:	ec 54       	subi	r30, 0x4C	; 76
    271a:	f6 4c       	sbci	r31, 0xC6	; 198
    271c:	40 e0       	ldi	r20, 0x00	; 0
    271e:	50 e0       	ldi	r21, 0x00	; 0
    2720:	d8 01       	movw	r26, r16
    2722:	11 96       	adiw	r26, 0x01	; 1
    2724:	6c 91       	ld	r22, X
    2726:	80 81       	ld	r24, Z
    2728:	91 81       	ldd	r25, Z+1	; 0x01
    272a:	61 d9       	rcall	.-3390   	; 0x19ee <FindChild>
    272c:	f7 01       	movw	r30, r14
    272e:	ee 0f       	add	r30, r30
    2730:	ff 1f       	adc	r31, r31
    2732:	ea 54       	subi	r30, 0x4A	; 74
    2734:	f6 4c       	sbci	r31, 0xC6	; 198
    2736:	80 83       	st	Z, r24
    2738:	91 83       	std	Z+1, r25	; 0x01
                if (route[currDepth+1]) {
    273a:	20 91 26 38 	lds	r18, 0x3826	; 0x803826 <currDepth>
    273e:	30 e0       	ldi	r19, 0x00	; 0
    2740:	2f 5f       	subi	r18, 0xFF	; 255
    2742:	3f 4f       	sbci	r19, 0xFF	; 255
    2744:	22 0f       	add	r18, r18
    2746:	33 1f       	adc	r19, r19
    2748:	f9 01       	movw	r30, r18
    274a:	ec 54       	subi	r30, 0x4C	; 76
    274c:	f6 4c       	sbci	r31, 0xC6	; 198
    274e:	80 81       	ld	r24, Z
    2750:	91 81       	ldd	r25, Z+1	; 0x01
    2752:	00 97       	sbiw	r24, 0x00	; 0
    2754:	09 f4       	brne	.+2      	; 0x2758 <ProcessInput+0x5b0>
    2756:	ca c3       	rjmp	.+1940   	; 0x2eec <ProcessInput+0xd44>
                    if ((route[currDepth+1] == inventory[0])||(route[currDepth+1] == inventory[1])) {
    2758:	40 91 31 38 	lds	r20, 0x3831	; 0x803831 <inventory>
    275c:	50 91 32 38 	lds	r21, 0x3832	; 0x803832 <inventory+0x1>
    2760:	84 17       	cp	r24, r20
    2762:	95 07       	cpc	r25, r21
    2764:	39 f0       	breq	.+14     	; 0x2774 <ProcessInput+0x5cc>
    2766:	40 91 33 38 	lds	r20, 0x3833	; 0x803833 <inventory+0x2>
    276a:	50 91 34 38 	lds	r21, 0x3834	; 0x803834 <inventory+0x3>
    276e:	84 17       	cp	r24, r20
    2770:	95 07       	cpc	r25, r21
    2772:	c1 f4       	brne	.+48     	; 0x27a4 <ProcessInput+0x5fc>
    return 0;
}

//
void SetResponse(uint8_t number, uint16_t address, uint16_t length, uint8_t type){
    reactStr[0][number]=address;
    2774:	80 e2       	ldi	r24, 0x20	; 32
    2776:	98 e7       	ldi	r25, 0x78	; 120
    2778:	80 93 f6 38 	sts	0x38F6, r24	; 0x8038f6 <reactStr+0x2>
    277c:	90 93 f7 38 	sts	0x38F7, r25	; 0x8038f7 <reactStr+0x3>
    reactStr[1][number]=length;
    2780:	85 e2       	ldi	r24, 0x25	; 37
    2782:	90 e0       	ldi	r25, 0x00	; 0
    2784:	80 93 36 39 	sts	0x3936, r24	; 0x803936 <reactStr+0x42>
    2788:	90 93 37 39 	sts	0x3937, r25	; 0x803937 <reactStr+0x43>
    reactStr[2][number]=type;
    278c:	81 e0       	ldi	r24, 0x01	; 1
    278e:	90 e0       	ldi	r25, 0x00	; 0
    2790:	80 93 76 39 	sts	0x3976, r24	; 0x803976 <reactStr+0x82>
    2794:	90 93 77 39 	sts	0x3977, r25	; 0x803977 <reactStr+0x83>
            } else {
                route[currDepth+1] = FindChild(route[currDepth], data[1], 0);
                if (route[currDepth+1]) {
                    if ((route[currDepth+1] == inventory[0])||(route[currDepth+1] == inventory[1])) {
                        SetResponse(elements++, A_ALREADYCARRYING, L_ALREADYCARRYING, TEASER);
                        route[currDepth+1] = 0;
    2798:	f9 01       	movw	r30, r18
    279a:	ec 54       	subi	r30, 0x4C	; 76
    279c:	f6 4c       	sbci	r31, 0xC6	; 198
    279e:	10 82       	st	Z, r1
    27a0:	11 82       	std	Z+1, r1	; 0x01
                    } else {
                        //Put item in the inventory if possible
                        PopulateObject(route[currDepth+1], &actObj1);  
    27a2:	ca cd       	rjmp	.-1132   	; 0x2338 <ProcessInput+0x190>
    27a4:	65 eb       	ldi	r22, 0xB5	; 181
    27a6:	78 e3       	ldi	r23, 0x38	; 56
    27a8:	57 d8       	rcall	.-3922   	; 0x1858 <PopulateObject>
                        if (CheckState(actObj1.byteField[ACTION_ACL])) {
    27aa:	80 91 bc 38 	lds	r24, 0x38BC	; 0x8038bc <actObj1.3989+0x7>
    27ae:	0e 94 dc 08 	call	0x11b8	; 0x11b8 <CheckState>
    27b2:	88 23       	and	r24, r24
    27b4:	09 f4       	brne	.+2      	; 0x27b8 <ProcessInput+0x610>
    27b6:	75 c3       	rjmp	.+1770   	; 0x2ea2 <ProcessInput+0xcfa>
                            if (actObj1.byteField[ITEM_NR]) {
    27b8:	80 91 c0 38 	lds	r24, 0x38C0	; 0x8038c0 <actObj1.3989+0xb>
    27bc:	88 23       	and	r24, r24
    27be:	09 f4       	brne	.+2      	; 0x27c2 <ProcessInput+0x61a>
    27c0:	23 cd       	rjmp	.-1466   	; 0x2208 <ProcessInput+0x60>
                                if (inventory[0]) {
    27c2:	80 91 31 38 	lds	r24, 0x3831	; 0x803831 <inventory>
    27c6:	90 91 32 38 	lds	r25, 0x3832	; 0x803832 <inventory+0x1>
    27ca:	e0 91 26 38 	lds	r30, 0x3826	; 0x803826 <currDepth>
                                    inventory[1] = route[currDepth+1];
    27ce:	f0 e0       	ldi	r31, 0x00	; 0
    27d0:	ee 0f       	add	r30, r30
    27d2:	ff 1f       	adc	r31, r31
    27d4:	ea 54       	subi	r30, 0x4A	; 74
    27d6:	f6 4c       	sbci	r31, 0xC6	; 198
                    } else {
                        //Put item in the inventory if possible
                        PopulateObject(route[currDepth+1], &actObj1);  
                        if (CheckState(actObj1.byteField[ACTION_ACL])) {
                            if (actObj1.byteField[ITEM_NR]) {
                                if (inventory[0]) {
    27d8:	89 2b       	or	r24, r25
    27da:	39 f0       	breq	.+14     	; 0x27ea <ProcessInput+0x642>
                                    inventory[1] = route[currDepth+1];
    27dc:	80 81       	ld	r24, Z
    27de:	91 81       	ldd	r25, Z+1	; 0x01
    27e0:	80 93 33 38 	sts	0x3833, r24	; 0x803833 <inventory+0x2>
    27e4:	90 93 34 38 	sts	0x3834, r25	; 0x803834 <inventory+0x3>
    27e8:	06 c0       	rjmp	.+12     	; 0x27f6 <ProcessInput+0x64e>
                                } else {
                                    inventory[0] = route[currDepth+1];
    27ea:	80 81       	ld	r24, Z
    27ec:	91 81       	ldd	r25, Z+1	; 0x01
    27ee:	80 93 31 38 	sts	0x3831, r24	; 0x803831 <inventory>
    27f2:	90 93 32 38 	sts	0x3832, r25	; 0x803832 <inventory+0x1>
    return 0;
}

//
void SetResponse(uint8_t number, uint16_t address, uint16_t length, uint8_t type){
    reactStr[0][number]=address;
    27f6:	8a e0       	ldi	r24, 0x0A	; 10
    27f8:	98 e7       	ldi	r25, 0x78	; 120
    27fa:	80 93 f6 38 	sts	0x38F6, r24	; 0x8038f6 <reactStr+0x2>
    27fe:	90 93 f7 38 	sts	0x38F7, r25	; 0x8038f7 <reactStr+0x3>
    reactStr[1][number]=length;
    2802:	86 e1       	ldi	r24, 0x16	; 22
    2804:	90 e0       	ldi	r25, 0x00	; 0
    2806:	5e c2       	rjmp	.+1212   	; 0x2cc4 <ProcessInput+0xb1c>
                } else SetResponse(elements++, A_NOSUCHOBJECT, L_NOSUCHOBJECT, TEASER);
            }
        } else

        //Drop item if in inventory
        if (data[0] == 'd') {
    2808:	84 36       	cpi	r24, 0x64	; 100
    280a:	d9 f4       	brne	.+54     	; 0x2842 <ProcessInput+0x69a>
            if ((inventory[0] == 0)&&(inventory[1] == 0)){
    280c:	80 91 31 38 	lds	r24, 0x3831	; 0x803831 <inventory>
    2810:	90 91 32 38 	lds	r25, 0x3832	; 0x803832 <inventory+0x1>
    2814:	00 97       	sbiw	r24, 0x00	; 0
    2816:	09 f0       	breq	.+2      	; 0x281a <ProcessInput+0x672>
    2818:	d8 c4       	rjmp	.+2480   	; 0x31ca <ProcessInput+0x1022>
    281a:	80 91 33 38 	lds	r24, 0x3833	; 0x803833 <inventory+0x2>
    281e:	90 91 34 38 	lds	r25, 0x3834	; 0x803834 <inventory+0x3>
    2822:	89 2b       	or	r24, r25
    2824:	49 f4       	brne	.+18     	; 0x2838 <ProcessInput+0x690>
    return 0;
}

//
void SetResponse(uint8_t number, uint16_t address, uint16_t length, uint8_t type){
    reactStr[0][number]=address;
    2826:	84 ee       	ldi	r24, 0xE4	; 228
    2828:	97 e7       	ldi	r25, 0x77	; 119
    282a:	80 93 f6 38 	sts	0x38F6, r24	; 0x8038f6 <reactStr+0x2>
    282e:	90 93 f7 38 	sts	0x38F7, r25	; 0x8038f7 <reactStr+0x3>
    reactStr[1][number]=length;
    2832:	86 e2       	ldi	r24, 0x26	; 38
    2834:	90 e0       	ldi	r25, 0x00	; 0
    2836:	76 cd       	rjmp	.-1300   	; 0x2324 <ProcessInput+0x17c>

        //Drop item if in inventory
        if (data[0] == 'd') {
            if ((inventory[0] == 0)&&(inventory[1] == 0)){
                SetResponse(elements++, A_EMPTYHANDS, L_EMPTYHANDS, TEASER);
            } else if (inputLen != 2) {
    2838:	b2 e0       	ldi	r27, 0x02	; 2
    283a:	fb 16       	cp	r15, r27
    283c:	09 f4       	brne	.+2      	; 0x2840 <ProcessInput+0x698>
    283e:	2a c5       	rjmp	.+2644   	; 0x3294 <ProcessInput+0x10ec>
    2840:	e3 cc       	rjmp	.-1594   	; 0x2208 <ProcessInput+0x60>
                    if (x) SetResponse(elements++, A_NOTCARRYING, L_NOTCARRYING, TEASER);
                }
            }

        //Inventory list
        } else if (data[0] == 'i') {
    2842:	89 36       	cpi	r24, 0x69	; 105
    2844:	09 f0       	breq	.+2      	; 0x2848 <ProcessInput+0x6a0>
    2846:	7b c0       	rjmp	.+246    	; 0x293e <ProcessInput+0x796>
            if ((inventory[0] == 0)&&(inventory[1] == 0)){
    2848:	80 91 31 38 	lds	r24, 0x3831	; 0x803831 <inventory>
    284c:	90 91 32 38 	lds	r25, 0x3832	; 0x803832 <inventory+0x1>
    2850:	89 2b       	or	r24, r25
    2852:	31 f4       	brne	.+12     	; 0x2860 <ProcessInput+0x6b8>
    2854:	80 91 33 38 	lds	r24, 0x3833	; 0x803833 <inventory+0x2>
    2858:	90 91 34 38 	lds	r25, 0x3834	; 0x803834 <inventory+0x3>
    285c:	89 2b       	or	r24, r25
    285e:	19 f3       	breq	.-58     	; 0x2826 <ProcessInput+0x67e>
    return 0;
}

//
void SetResponse(uint8_t number, uint16_t address, uint16_t length, uint8_t type){
    reactStr[0][number]=address;
    2860:	8a e0       	ldi	r24, 0x0A	; 10
    2862:	98 e7       	ldi	r25, 0x78	; 120
    2864:	80 93 f6 38 	sts	0x38F6, r24	; 0x8038f6 <reactStr+0x2>
    2868:	90 93 f7 38 	sts	0x38F7, r25	; 0x8038f7 <reactStr+0x3>
    reactStr[1][number]=length;
    286c:	86 e1       	ldi	r24, 0x16	; 22
    286e:	90 e0       	ldi	r25, 0x00	; 0
    2870:	80 93 36 39 	sts	0x3936, r24	; 0x803936 <reactStr+0x42>
    2874:	90 93 37 39 	sts	0x3937, r25	; 0x803937 <reactStr+0x43>
    reactStr[2][number]=type;
    2878:	81 e0       	ldi	r24, 0x01	; 1
    287a:	90 e0       	ldi	r25, 0x00	; 0
    287c:	80 93 76 39 	sts	0x3976, r24	; 0x803976 <reactStr+0x82>
    2880:	90 93 77 39 	sts	0x3977, r25	; 0x803977 <reactStr+0x83>
    2884:	21 e3       	ldi	r18, 0x31	; 49
    2886:	e2 2e       	mov	r14, r18
    2888:	28 e3       	ldi	r18, 0x38	; 56
    288a:	f2 2e       	mov	r15, r18
    288c:	35 e3       	ldi	r19, 0x35	; 53
    288e:	63 2e       	mov	r6, r19
    2890:	38 e3       	ldi	r19, 0x38	; 56
    2892:	73 2e       	mov	r7, r19
        //Inventory list
        } else if (data[0] == 'i') {
            if ((inventory[0] == 0)&&(inventory[1] == 0)){
                SetResponse(elements++, A_EMPTYHANDS, L_EMPTYHANDS, TEASER);
            } else {
                SetResponse(elements++, A_NOWCARRING, L_NOWCARRING, TEASER);
    2894:	42 e0       	ldi	r20, 0x02	; 2
    2896:	54 2e       	mov	r5, r20
    return 0;
}

//
void SetResponse(uint8_t number, uint16_t address, uint16_t length, uint8_t type){
    reactStr[0][number]=address;
    2898:	59 e5       	ldi	r21, 0x59	; 89
    289a:	c5 2e       	mov	r12, r21
    289c:	5a e7       	ldi	r21, 0x7A	; 122
    289e:	d5 2e       	mov	r13, r21
    reactStr[1][number]=length;
    28a0:	62 e0       	ldi	r22, 0x02	; 2
    28a2:	a6 2e       	mov	r10, r22
    28a4:	b1 2c       	mov	r11, r1
    reactStr[2][number]=type;
    28a6:	88 24       	eor	r8, r8
    28a8:	83 94       	inc	r8
    28aa:	91 2c       	mov	r9, r1
            } else {
                SetResponse(elements++, A_NOWCARRING, L_NOWCARRING, TEASER);
                //SetResponse(elements++, A_SPACE, L_SPACE, TEASER);
                
                for (uint8_t x=0; x<2; ++x) {
                    if (inventory[x]) {
    28ac:	d7 01       	movw	r26, r14
    28ae:	8d 91       	ld	r24, X+
    28b0:	9d 91       	ld	r25, X+
    28b2:	7d 01       	movw	r14, r26
    28b4:	00 97       	sbiw	r24, 0x00	; 0
    28b6:	d9 f1       	breq	.+118    	; 0x292e <ProcessInput+0x786>
                        PopulateObject(inventory[x], &actObj1);
    28b8:	65 eb       	ldi	r22, 0xB5	; 181
    28ba:	78 e3       	ldi	r23, 0x38	; 56
    28bc:	0e 94 2c 0c 	call	0x1858	; 0x1858 <PopulateObject>
                        SetResponse(elements++, actObj1.addrStr[NAME], actObj1.lenStr[NAME], GAME);
    28c0:	80 91 cf 38 	lds	r24, 0x38CF	; 0x8038cf <actObj1.3989+0x1a>
    28c4:	90 91 d0 38 	lds	r25, 0x38D0	; 0x8038d0 <actObj1.3989+0x1b>
    return 0;
}

//
void SetResponse(uint8_t number, uint16_t address, uint16_t length, uint8_t type){
    reactStr[0][number]=address;
    28c8:	e5 2d       	mov	r30, r5
    28ca:	f0 e0       	ldi	r31, 0x00	; 0
    28cc:	df 01       	movw	r26, r30
    28ce:	aa 0f       	add	r26, r26
    28d0:	bb 1f       	adc	r27, r27
    28d2:	ac 50       	subi	r26, 0x0C	; 12
    28d4:	b7 4c       	sbci	r27, 0xC7	; 199
    28d6:	20 91 c1 38 	lds	r18, 0x38C1	; 0x8038c1 <actObj1.3989+0xc>
    28da:	30 91 c2 38 	lds	r19, 0x38C2	; 0x8038c2 <actObj1.3989+0xd>
    28de:	2d 93       	st	X+, r18
    28e0:	3c 93       	st	X, r19
    reactStr[1][number]=length;
    28e2:	df 01       	movw	r26, r30
    28e4:	aa 0f       	add	r26, r26
    28e6:	bb 1f       	adc	r27, r27
    28e8:	ac 5c       	subi	r26, 0xCC	; 204
    28ea:	b6 4c       	sbci	r27, 0xC6	; 198
    28ec:	8d 93       	st	X+, r24
    28ee:	9c 93       	st	X, r25
    reactStr[2][number]=type;
    28f0:	ee 0f       	add	r30, r30
    28f2:	ff 1f       	adc	r31, r31
    28f4:	ec 58       	subi	r30, 0x8C	; 140
    28f6:	f6 4c       	sbci	r31, 0xC6	; 198
    28f8:	10 82       	st	Z, r1
    28fa:	11 82       	std	Z+1, r1	; 0x01
    return 0;
}

//
void SetResponse(uint8_t number, uint16_t address, uint16_t length, uint8_t type){
    reactStr[0][number]=address;
    28fc:	e1 e0       	ldi	r30, 0x01	; 1
    28fe:	e5 0d       	add	r30, r5
    2900:	f0 e0       	ldi	r31, 0x00	; 0
    2902:	53 94       	inc	r5
    2904:	53 94       	inc	r5
    2906:	df 01       	movw	r26, r30
    2908:	aa 0f       	add	r26, r26
    290a:	bb 1f       	adc	r27, r27
    290c:	ac 50       	subi	r26, 0x0C	; 12
    290e:	b7 4c       	sbci	r27, 0xC7	; 199
    2910:	cd 92       	st	X+, r12
    2912:	dc 92       	st	X, r13
    reactStr[1][number]=length;
    2914:	df 01       	movw	r26, r30
    2916:	aa 0f       	add	r26, r26
    2918:	bb 1f       	adc	r27, r27
    291a:	ac 5c       	subi	r26, 0xCC	; 204
    291c:	b6 4c       	sbci	r27, 0xC6	; 198
    291e:	ad 92       	st	X+, r10
    2920:	bc 92       	st	X, r11
    reactStr[2][number]=type;
    2922:	ee 0f       	add	r30, r30
    2924:	ff 1f       	adc	r31, r31
    2926:	ec 58       	subi	r30, 0x8C	; 140
    2928:	f6 4c       	sbci	r31, 0xC6	; 198
    292a:	80 82       	st	Z, r8
    292c:	91 82       	std	Z+1, r9	; 0x01
                SetResponse(elements++, A_EMPTYHANDS, L_EMPTYHANDS, TEASER);
            } else {
                SetResponse(elements++, A_NOWCARRING, L_NOWCARRING, TEASER);
                //SetResponse(elements++, A_SPACE, L_SPACE, TEASER);
                
                for (uint8_t x=0; x<2; ++x) {
    292e:	6e 14       	cp	r6, r14
    2930:	7f 04       	cpc	r7, r15
    2932:	09 f0       	breq	.+2      	; 0x2936 <ProcessInput+0x78e>
    2934:	bb cf       	rjmp	.-138    	; 0x28ac <ProcessInput+0x704>
                        SetResponse(elements++, actObj1.addrStr[NAME], actObj1.lenStr[NAME], GAME);
                        SetResponse(elements++, A_COMMA, L_COMMA, TEASER);
                        //SetResponse(elements++, A_SPACE, L_SPACE, TEASER);
                    }
                }
                elements -= 1;
    2936:	77 24       	eor	r7, r7
    2938:	7a 94       	dec	r7
    293a:	75 0c       	add	r7, r5
    293c:	07 c4       	rjmp	.+2062   	; 0x314c <ProcessInput+0xfa4>
            }            
        
        //Talk, use, give, read
        } else if ((data[0] == 't')||(data[0] == 'u')||(data[0] == 'g')||(data[0] == 'r')) {
    293e:	9c e8       	ldi	r25, 0x8C	; 140
    2940:	98 0f       	add	r25, r24
    2942:	92 30       	cpi	r25, 0x02	; 2
    2944:	28 f0       	brcs	.+10     	; 0x2950 <ProcessInput+0x7a8>
    2946:	87 36       	cpi	r24, 0x67	; 103
    2948:	19 f0       	breq	.+6      	; 0x2950 <ProcessInput+0x7a8>
    294a:	82 37       	cpi	r24, 0x72	; 114
    294c:	09 f0       	breq	.+2      	; 0x2950 <ProcessInput+0x7a8>
    294e:	d7 c2       	rjmp	.+1454   	; 0x2efe <ProcessInput+0xd56>
            if ((inputLen<2)||(inputLen>3)) {
    2950:	8e ef       	ldi	r24, 0xFE	; 254
    2952:	8f 0d       	add	r24, r15
    2954:	82 30       	cpi	r24, 0x02	; 2
    2956:	08 f0       	brcs	.+2      	; 0x295a <ProcessInput+0x7b2>
    2958:	57 cc       	rjmp	.-1874   	; 0x2208 <ProcessInput+0x60>
                SetResponse(elements++, A_NOTPOSSIBLE, L_NOTPOSSIBLE, TEASER);                
            
            //Check for visible person or object first
            } else {
                route[currDepth+1] = FindChild(route[currDepth], data[inputLen-1], 0);
    295a:	e0 91 26 38 	lds	r30, 0x3826	; 0x803826 <currDepth>
    295e:	ce 2e       	mov	r12, r30
    2960:	d1 2c       	mov	r13, r1
    2962:	d8 01       	movw	r26, r16
    2964:	af 0d       	add	r26, r15
    2966:	b1 1d       	adc	r27, r1
    2968:	11 97       	sbiw	r26, 0x01	; 1
    296a:	f6 01       	movw	r30, r12
    296c:	ee 0f       	add	r30, r30
    296e:	ff 1f       	adc	r31, r31
    2970:	ec 54       	subi	r30, 0x4C	; 76
    2972:	f6 4c       	sbci	r31, 0xC6	; 198
    2974:	40 e0       	ldi	r20, 0x00	; 0
    2976:	50 e0       	ldi	r21, 0x00	; 0
    2978:	6c 91       	ld	r22, X
    297a:	80 81       	ld	r24, Z
    297c:	91 81       	ldd	r25, Z+1	; 0x01
    297e:	37 d8       	rcall	.-3986   	; 0x19ee <FindChild>
    2980:	f6 01       	movw	r30, r12
    2982:	ee 0f       	add	r30, r30
    2984:	ff 1f       	adc	r31, r31
    2986:	ea 54       	subi	r30, 0x4A	; 74
    2988:	f6 4c       	sbci	r31, 0xC6	; 198
    298a:	80 83       	st	Z, r24
    298c:	91 83       	std	Z+1, r25	; 0x01
                if (route[currDepth+1]) {
    298e:	e0 91 26 38 	lds	r30, 0x3826	; 0x803826 <currDepth>
    2992:	f0 e0       	ldi	r31, 0x00	; 0
    2994:	ee 0f       	add	r30, r30
    2996:	ff 1f       	adc	r31, r31
    2998:	ea 54       	subi	r30, 0x4A	; 74
    299a:	f6 4c       	sbci	r31, 0xC6	; 198
    299c:	80 81       	ld	r24, Z
    299e:	91 81       	ldd	r25, Z+1	; 0x01
    29a0:	00 97       	sbiw	r24, 0x00	; 0
    29a2:	09 f4       	brne	.+2      	; 0x29a6 <ProcessInput+0x7fe>
    29a4:	9a c2       	rjmp	.+1332   	; 0x2eda <ProcessInput+0xd32>
                    
                    //Give item to person / use item on object 
                    if ((inputLen == 3)&&((data[0] == 'u')||(data[0] == 'g'))) {
    29a6:	b3 e0       	ldi	r27, 0x03	; 3
    29a8:	fb 12       	cpse	r15, r27
    29aa:	78 c1       	rjmp	.+752    	; 0x2c9c <ProcessInput+0xaf4>
    29ac:	f8 01       	movw	r30, r16
    29ae:	20 81       	ld	r18, Z
    29b0:	25 37       	cpi	r18, 0x75	; 117
    29b2:	19 f0       	breq	.+6      	; 0x29ba <ProcessInput+0x812>
    29b4:	27 36       	cpi	r18, 0x67	; 103
    29b6:	09 f0       	breq	.+2      	; 0x29ba <ProcessInput+0x812>
    29b8:	71 c1       	rjmp	.+738    	; 0x2c9c <ProcessInput+0xaf4>
    29ba:	61 2c       	mov	r6, r1
    29bc:	77 24       	eor	r7, r7
    29be:	73 94       	inc	r7
    return 0;
}

//
void SetResponse(uint8_t number, uint16_t address, uint16_t length, uint8_t type){
    reactStr[0][number]=address;
    29c0:	54 e6       	ldi	r21, 0x64	; 100
    29c2:	c5 2e       	mov	r12, r21
    29c4:	59 e7       	ldi	r21, 0x79	; 121
    29c6:	d5 2e       	mov	r13, r21
    reactStr[1][number]=length;
    29c8:	61 e2       	ldi	r22, 0x21	; 33
    29ca:	a6 2e       	mov	r10, r22
    29cc:	b1 2c       	mov	r11, r1
    reactStr[2][number]=type;
    29ce:	88 24       	eor	r8, r8
    29d0:	83 94       	inc	r8
    29d2:	91 2c       	mov	r9, r1
                if (route[currDepth+1]) {
                    
                    //Give item to person / use item on object 
                    if ((inputLen == 3)&&((data[0] == 'u')||(data[0] == 'g'))) {
                        for (uint8_t x=0; x<2; x++) {
                            if (inventory[x]) { 
    29d4:	e6 2c       	mov	r14, r6
    29d6:	f1 2c       	mov	r15, r1
    29d8:	c7 01       	movw	r24, r14
    29da:	88 0f       	add	r24, r24
    29dc:	99 1f       	adc	r25, r25
    29de:	9c 01       	movw	r18, r24
    29e0:	2f 5c       	subi	r18, 0xCF	; 207
    29e2:	37 4c       	sbci	r19, 0xC7	; 199
    29e4:	79 01       	movw	r14, r18
    29e6:	d9 01       	movw	r26, r18
    29e8:	8d 91       	ld	r24, X+
    29ea:	9c 91       	ld	r25, X
    29ec:	00 97       	sbiw	r24, 0x00	; 0
    29ee:	81 f0       	breq	.+32     	; 0x2a10 <ProcessInput+0x868>
                                if (CheckLetter(inventory[x], data[1])) {
    29f0:	f8 01       	movw	r30, r16
    29f2:	61 81       	ldd	r22, Z+1	; 0x01
    29f4:	0e 94 a3 0c 	call	0x1946	; 0x1946 <CheckLetter>
    29f8:	88 23       	and	r24, r24
    29fa:	51 f0       	breq	.+20     	; 0x2a10 <ProcessInput+0x868>
                                    PopulateObject(inventory[x], &actObj2);
    29fc:	6a e8       	ldi	r22, 0x8A	; 138
    29fe:	78 e3       	ldi	r23, 0x38	; 56
    2a00:	d7 01       	movw	r26, r14
    2a02:	8d 91       	ld	r24, X+
    2a04:	9c 91       	ld	r25, X
    2a06:	0e 94 2c 0c 	call	0x1858	; 0x1858 <PopulateObject>
                                    x = 2;
    2a0a:	32 e0       	ldi	r19, 0x02	; 2
    2a0c:	63 2e       	mov	r6, r19
    2a0e:	1e c0       	rjmp	.+60     	; 0x2a4c <ProcessInput+0x8a4>
                                }
                            }
                            if (x == 1) { 
    2a10:	b1 e0       	ldi	r27, 0x01	; 1
    2a12:	6b 12       	cpse	r6, r27
    2a14:	1a c0       	rjmp	.+52     	; 0x2a4a <ProcessInput+0x8a2>
    return 0;
}

//
void SetResponse(uint8_t number, uint16_t address, uint16_t length, uint8_t type){
    reactStr[0][number]=address;
    2a16:	e7 2d       	mov	r30, r7
    2a18:	f0 e0       	ldi	r31, 0x00	; 0
    2a1a:	df 01       	movw	r26, r30
    2a1c:	aa 0f       	add	r26, r26
    2a1e:	bb 1f       	adc	r27, r27
    2a20:	ac 50       	subi	r26, 0x0C	; 12
    2a22:	b7 4c       	sbci	r27, 0xC7	; 199
    2a24:	cd 92       	st	X+, r12
    2a26:	dc 92       	st	X, r13
    reactStr[1][number]=length;
    2a28:	df 01       	movw	r26, r30
    2a2a:	aa 0f       	add	r26, r26
    2a2c:	bb 1f       	adc	r27, r27
    2a2e:	ac 5c       	subi	r26, 0xCC	; 204
    2a30:	b6 4c       	sbci	r27, 0xC6	; 198
    2a32:	ad 92       	st	X+, r10
    2a34:	bc 92       	st	X, r11
    reactStr[2][number]=type;
    2a36:	ee 0f       	add	r30, r30
    2a38:	ff 1f       	adc	r31, r31
    2a3a:	ec 58       	subi	r30, 0x8C	; 140
    2a3c:	f6 4c       	sbci	r31, 0xC6	; 198
    2a3e:	80 82       	st	Z, r8
    2a40:	91 82       	std	Z+1, r9	; 0x01
                                    x = 2;
                                }
                            }
                            if (x == 1) { 
                                SetResponse(elements++, A_NOTCARRYING, L_NOTCARRYING, TEASER);
                                data[0] = 0;
    2a42:	f8 01       	movw	r30, r16
    2a44:	10 82       	st	Z, r1
                                    PopulateObject(inventory[x], &actObj2);
                                    x = 2;
                                }
                            }
                            if (x == 1) { 
                                SetResponse(elements++, A_NOTCARRYING, L_NOTCARRYING, TEASER);
    2a46:	73 94       	inc	r7
    2a48:	01 c0       	rjmp	.+2      	; 0x2a4c <ProcessInput+0x8a4>
    2a4a:	61 2c       	mov	r6, r1
                route[currDepth+1] = FindChild(route[currDepth], data[inputLen-1], 0);
                if (route[currDepth+1]) {
                    
                    //Give item to person / use item on object 
                    if ((inputLen == 3)&&((data[0] == 'u')||(data[0] == 'g'))) {
                        for (uint8_t x=0; x<2; x++) {
    2a4c:	63 94       	inc	r6
    2a4e:	f1 e0       	ldi	r31, 0x01	; 1
    2a50:	6f 16       	cp	r6, r31
    2a52:	09 f4       	brne	.+2      	; 0x2a56 <ProcessInput+0x8ae>
    2a54:	bf cf       	rjmp	.-130    	; 0x29d4 <ProcessInput+0x82c>
                                data[0] = 0;
                            }
                        }

                        //Both the item and person/object are found, check if action is legit
                        if (data[0]){
    2a56:	d8 01       	movw	r26, r16
    2a58:	8c 91       	ld	r24, X
    2a5a:	88 23       	and	r24, r24
    2a5c:	09 f4       	brne	.+2      	; 0x2a60 <ProcessInput+0x8b8>
    2a5e:	76 c3       	rjmp	.+1772   	; 0x314c <ProcessInput+0xfa4>
                            PopulateObject(route[currDepth+1], &actObj1);
    2a60:	e0 91 26 38 	lds	r30, 0x3826	; 0x803826 <currDepth>
    2a64:	f0 e0       	ldi	r31, 0x00	; 0
    2a66:	ee 0f       	add	r30, r30
    2a68:	ff 1f       	adc	r31, r31
    2a6a:	ea 54       	subi	r30, 0x4A	; 74
    2a6c:	f6 4c       	sbci	r31, 0xC6	; 198
    2a6e:	65 eb       	ldi	r22, 0xB5	; 181
    2a70:	78 e3       	ldi	r23, 0x38	; 56
    2a72:	80 81       	ld	r24, Z
    2a74:	91 81       	ldd	r25, Z+1	; 0x01
    2a76:	0e 94 2c 0c 	call	0x1858	; 0x1858 <PopulateObject>

                            //Special game
                            if (actObj1.lenStr[ACTION_STR1] == 1) {
    2a7a:	e0 90 d3 38 	lds	r14, 0x38D3	; 0x8038d3 <actObj1.3989+0x1e>
    2a7e:	f0 90 d4 38 	lds	r15, 0x38D4	; 0x8038d4 <actObj1.3989+0x1f>
    2a82:	b1 e0       	ldi	r27, 0x01	; 1
    2a84:	eb 16       	cp	r14, r27
    2a86:	f1 04       	cpc	r15, r1
    2a88:	09 f0       	breq	.+2      	; 0x2a8c <ProcessInput+0x8e4>
    2a8a:	9a c0       	rjmp	.+308    	; 0x2bc0 <ProcessInput+0xa18>
                                ExtEERead(actObj1.addrStr[ACTION_STR1], 1, GAME, &data[2]);
    2a8c:	98 01       	movw	r18, r16
    2a8e:	2e 5f       	subi	r18, 0xFE	; 254
    2a90:	3f 4f       	sbci	r19, 0xFF	; 255
    2a92:	40 e0       	ldi	r20, 0x00	; 0
    2a94:	61 e0       	ldi	r22, 0x01	; 1
    2a96:	80 91 c5 38 	lds	r24, 0x38C5	; 0x8038c5 <actObj1.3989+0x10>
    2a9a:	90 91 c6 38 	lds	r25, 0x38C6	; 0x8038c6 <actObj1.3989+0x11>
    2a9e:	0e 94 21 0b 	call	0x1642	; 0x1642 <ExtEERead>
                                if (data[2] == '1') {
    2aa2:	f8 01       	movw	r30, r16
    2aa4:	42 81       	ldd	r20, Z+2	; 0x02
    2aa6:	21 e0       	ldi	r18, 0x01	; 1
    2aa8:	27 0d       	add	r18, r7
    2aaa:	87 2d       	mov	r24, r7
    2aac:	90 e0       	ldi	r25, 0x00	; 0
    2aae:	41 33       	cpi	r20, 0x31	; 49
    2ab0:	09 f0       	breq	.+2      	; 0x2ab4 <ProcessInput+0x90c>
    2ab2:	6b c0       	rjmp	.+214    	; 0x2b8a <ProcessInput+0x9e2>
                                    uint8_t item = actObj2.byteField[ITEM_NR];
    2ab4:	30 91 95 38 	lds	r19, 0x3895	; 0x803895 <actObj2.3990+0xb>
                                    if ((item < 31)||(item > 34)) {
    2ab8:	51 ee       	ldi	r21, 0xE1	; 225
    2aba:	53 0f       	add	r21, r19
    return 0;
}

//
void SetResponse(uint8_t number, uint16_t address, uint16_t length, uint8_t type){
    reactStr[0][number]=address;
    2abc:	fc 01       	movw	r30, r24
    2abe:	ee 0f       	add	r30, r30
    2ac0:	ff 1f       	adc	r31, r31
    2ac2:	ec 50       	subi	r30, 0x0C	; 12
    2ac4:	f7 4c       	sbci	r31, 0xC7	; 199
                            //Special game
                            if (actObj1.lenStr[ACTION_STR1] == 1) {
                                ExtEERead(actObj1.addrStr[ACTION_STR1], 1, GAME, &data[2]);
                                if (data[2] == '1') {
                                    uint8_t item = actObj2.byteField[ITEM_NR];
                                    if ((item < 31)||(item > 34)) {
    2ac6:	54 30       	cpi	r21, 0x04	; 4
    2ac8:	60 f0       	brcs	.+24     	; 0x2ae2 <ProcessInput+0x93a>
    return 0;
}

//
void SetResponse(uint8_t number, uint16_t address, uint16_t length, uint8_t type){
    reactStr[0][number]=address;
    2aca:	44 e0       	ldi	r20, 0x04	; 4
    2acc:	59 e7       	ldi	r21, 0x79	; 121
    2ace:	40 83       	st	Z, r20
    2ad0:	51 83       	std	Z+1, r21	; 0x01
    reactStr[1][number]=length;
    2ad2:	fc 01       	movw	r30, r24
    2ad4:	ee 0f       	add	r30, r30
    2ad6:	ff 1f       	adc	r31, r31
    2ad8:	ec 5c       	subi	r30, 0xCC	; 204
    2ada:	f6 4c       	sbci	r31, 0xC6	; 198
    2adc:	4a e1       	ldi	r20, 0x1A	; 26
    2ade:	50 e0       	ldi	r21, 0x00	; 0
    2ae0:	64 c0       	rjmp	.+200    	; 0x2baa <ProcessInput+0xa02>
    return 0;
}

//
void SetResponse(uint8_t number, uint16_t address, uint16_t length, uint8_t type){
    reactStr[0][number]=address;
    2ae2:	6e e8       	ldi	r22, 0x8E	; 142
    2ae4:	75 e7       	ldi	r23, 0x75	; 117
    2ae6:	60 83       	st	Z, r22
    2ae8:	71 83       	std	Z+1, r23	; 0x01
    reactStr[1][number]=length;
    2aea:	fc 01       	movw	r30, r24
    2aec:	ee 0f       	add	r30, r30
    2aee:	ff 1f       	adc	r31, r31
    2af0:	ec 5c       	subi	r30, 0xCC	; 204
    2af2:	f6 4c       	sbci	r31, 0xC6	; 198
    2af4:	62 eb       	ldi	r22, 0xB2	; 178
    2af6:	70 e0       	ldi	r23, 0x00	; 0
    2af8:	60 83       	st	Z, r22
    2afa:	71 83       	std	Z+1, r23	; 0x01
    reactStr[2][number]=type;
    2afc:	88 0f       	add	r24, r24
    2afe:	99 1f       	adc	r25, r25
    2b00:	fc 01       	movw	r30, r24
    2b02:	ec 58       	subi	r30, 0x8C	; 140
    2b04:	f6 4c       	sbci	r31, 0xC6	; 198
    2b06:	e0 82       	st	Z, r14
    2b08:	f1 82       	std	Z+1, r15	; 0x01
    return 0;
}

//
void SetResponse(uint8_t number, uint16_t address, uint16_t length, uint8_t type){
    reactStr[0][number]=address;
    2b0a:	82 2f       	mov	r24, r18
    2b0c:	90 e0       	ldi	r25, 0x00	; 0
    2b0e:	fc 01       	movw	r30, r24
    2b10:	ee 0f       	add	r30, r30
    2b12:	ff 1f       	adc	r31, r31
    2b14:	ec 50       	subi	r30, 0x0C	; 12
    2b16:	f7 4c       	sbci	r31, 0xC7	; 199
    2b18:	6b e5       	ldi	r22, 0x5B	; 91
    2b1a:	7a e7       	ldi	r23, 0x7A	; 122
    2b1c:	60 83       	st	Z, r22
    2b1e:	71 83       	std	Z+1, r23	; 0x01
    reactStr[1][number]=length;
    2b20:	fc 01       	movw	r30, r24
    2b22:	ee 0f       	add	r30, r30
    2b24:	ff 1f       	adc	r31, r31
    2b26:	ec 5c       	subi	r30, 0xCC	; 204
    2b28:	f6 4c       	sbci	r31, 0xC6	; 198
    2b2a:	62 e0       	ldi	r22, 0x02	; 2
    2b2c:	70 e0       	ldi	r23, 0x00	; 0
    2b2e:	60 83       	st	Z, r22
    2b30:	71 83       	std	Z+1, r23	; 0x01
    reactStr[2][number]=type;
    2b32:	88 0f       	add	r24, r24
    2b34:	99 1f       	adc	r25, r25
    2b36:	fc 01       	movw	r30, r24
    2b38:	ec 58       	subi	r30, 0x8C	; 140
    2b3a:	f6 4c       	sbci	r31, 0xC6	; 198
    2b3c:	e0 82       	st	Z, r14
    2b3e:	f1 82       	std	Z+1, r15	; 0x01
    return 0;
}

//
void SetResponse(uint8_t number, uint16_t address, uint16_t length, uint8_t type){
    reactStr[0][number]=address;
    2b40:	82 e0       	ldi	r24, 0x02	; 2
    2b42:	87 0d       	add	r24, r7
    2b44:	90 e0       	ldi	r25, 0x00	; 0
    2b46:	f3 e0       	ldi	r31, 0x03	; 3
    2b48:	7f 0e       	add	r7, r31
    2b4a:	fc 01       	movw	r30, r24
    2b4c:	ee 0f       	add	r30, r30
    2b4e:	ff 1f       	adc	r31, r31
    2b50:	ec 50       	subi	r30, 0x0C	; 12
    2b52:	f7 4c       	sbci	r31, 0xC7	; 199
    2b54:	60 eb       	ldi	r22, 0xB0	; 176
    2b56:	78 e7       	ldi	r23, 0x78	; 120
    2b58:	60 83       	st	Z, r22
    2b5a:	71 83       	std	Z+1, r23	; 0x01
    reactStr[1][number]=length;
    2b5c:	fc 01       	movw	r30, r24
    2b5e:	ee 0f       	add	r30, r30
    2b60:	ff 1f       	adc	r31, r31
    2b62:	ec 5c       	subi	r30, 0xCC	; 204
    2b64:	f6 4c       	sbci	r31, 0xC6	; 198
    2b66:	62 e1       	ldi	r22, 0x12	; 18
    2b68:	70 e0       	ldi	r23, 0x00	; 0
    2b6a:	60 83       	st	Z, r22
    2b6c:	71 83       	std	Z+1, r23	; 0x01
    reactStr[2][number]=type;
    2b6e:	88 0f       	add	r24, r24
    2b70:	99 1f       	adc	r25, r25
    2b72:	fc 01       	movw	r30, r24
    2b74:	ec 58       	subi	r30, 0x8C	; 140
    2b76:	f6 4c       	sbci	r31, 0xC6	; 198
    2b78:	e0 82       	st	Z, r14
    2b7a:	f1 82       	std	Z+1, r15	; 0x01
                                        SetResponse(elements++, A_CANTUSE, L_CANTUSE, TEASER);
                                    } else {
                                        SetResponse(elements++, A_PRIEST, L_PRIEST, TEASER);
                                        SetResponse(elements++, A_LF, 2, TEASER);
                                        SetResponse(elements++, A_RESPONSE, L_RESPONSE, TEASER);
                                        specialInput[0] = '1';
    2b7c:	40 93 e3 38 	sts	0x38E3, r20	; 0x8038e3 <specialInput>
                                        specialInput[1] = item;
    2b80:	30 93 e4 38 	sts	0x38E4, r19	; 0x8038e4 <specialInput+0x1>
                                        specialInput[2] = 0;
    2b84:	10 92 e5 38 	sts	0x38E5, r1	; 0x8038e5 <specialInput+0x2>
    2b88:	e1 c2       	rjmp	.+1474   	; 0x314c <ProcessInput+0xfa4>
    return 0;
}

//
void SetResponse(uint8_t number, uint16_t address, uint16_t length, uint8_t type){
    reactStr[0][number]=address;
    2b8a:	fc 01       	movw	r30, r24
    2b8c:	ee 0f       	add	r30, r30
    2b8e:	ff 1f       	adc	r31, r31
    2b90:	ec 50       	subi	r30, 0x0C	; 12
    2b92:	f7 4c       	sbci	r31, 0xC7	; 199
    2b94:	40 e4       	ldi	r20, 0x40	; 64
    2b96:	56 e7       	ldi	r21, 0x76	; 118
    2b98:	40 83       	st	Z, r20
    2b9a:	51 83       	std	Z+1, r21	; 0x01
    reactStr[1][number]=length;
    2b9c:	fc 01       	movw	r30, r24
    2b9e:	ee 0f       	add	r30, r30
    2ba0:	ff 1f       	adc	r31, r31
    2ba2:	ec 5c       	subi	r30, 0xCC	; 204
    2ba4:	f6 4c       	sbci	r31, 0xC6	; 198
    2ba6:	42 e4       	ldi	r20, 0x42	; 66
    2ba8:	50 e0       	ldi	r21, 0x00	; 0
    2baa:	40 83       	st	Z, r20
    2bac:	51 83       	std	Z+1, r21	; 0x01
    reactStr[2][number]=type;
    2bae:	88 0f       	add	r24, r24
    2bb0:	99 1f       	adc	r25, r25
    2bb2:	fc 01       	movw	r30, r24
    2bb4:	ec 58       	subi	r30, 0x8C	; 140
    2bb6:	f6 4c       	sbci	r31, 0xC6	; 198
    2bb8:	e0 82       	st	Z, r14
    2bba:	f1 82       	std	Z+1, r15	; 0x01
                                        specialInput[2] = 0;
                                    }

                                //There should not be another special
                                } else {
                                    SetResponse(elements++, A_ERROR, L_ERROR, TEASER);
    2bbc:	72 2e       	mov	r7, r18
    2bbe:	c6 c2       	rjmp	.+1420   	; 0x314c <ProcessInput+0xfa4>
                                }

                            //Normal "use ... on ..." or "give ... to ..." action
                            } else if (actObj1.byteField[ACTION_ITEM] == actObj2.byteField[ITEM_NR]) {
    2bc0:	90 91 be 38 	lds	r25, 0x38BE	; 0x8038be <actObj1.3989+0x9>
    2bc4:	80 91 95 38 	lds	r24, 0x3895	; 0x803895 <actObj2.3990+0xb>
    2bc8:	98 13       	cpse	r25, r24
    2bca:	2f c0       	rjmp	.+94     	; 0x2c2a <ProcessInput+0xa82>
                                SetResponse(elements++, actObj1.addrStr[ACTION_MSG], actObj1.lenStr[ACTION_MSG], GAME);
    2bcc:	20 91 db 38 	lds	r18, 0x38DB	; 0x8038db <actObj1.3989+0x26>
    2bd0:	30 91 dc 38 	lds	r19, 0x38DC	; 0x8038dc <actObj1.3989+0x27>
    2bd4:	ff 24       	eor	r15, r15
    2bd6:	f3 94       	inc	r15
    2bd8:	f7 0c       	add	r15, r7
    return 0;
}

//
void SetResponse(uint8_t number, uint16_t address, uint16_t length, uint8_t type){
    reactStr[0][number]=address;
    2bda:	87 2d       	mov	r24, r7
    2bdc:	90 e0       	ldi	r25, 0x00	; 0
    2bde:	fc 01       	movw	r30, r24
    2be0:	ee 0f       	add	r30, r30
    2be2:	ff 1f       	adc	r31, r31
    2be4:	ec 50       	subi	r30, 0x0C	; 12
    2be6:	f7 4c       	sbci	r31, 0xC7	; 199
    2be8:	40 91 cd 38 	lds	r20, 0x38CD	; 0x8038cd <actObj1.3989+0x18>
    2bec:	50 91 ce 38 	lds	r21, 0x38CE	; 0x8038ce <actObj1.3989+0x19>
    2bf0:	40 83       	st	Z, r20
    2bf2:	51 83       	std	Z+1, r21	; 0x01
    reactStr[1][number]=length;
    2bf4:	fc 01       	movw	r30, r24
    2bf6:	ee 0f       	add	r30, r30
    2bf8:	ff 1f       	adc	r31, r31
    2bfa:	ec 5c       	subi	r30, 0xCC	; 204
    2bfc:	f6 4c       	sbci	r31, 0xC6	; 198
    2bfe:	20 83       	st	Z, r18
    2c00:	31 83       	std	Z+1, r19	; 0x01
    reactStr[2][number]=type;
    2c02:	88 0f       	add	r24, r24
    2c04:	99 1f       	adc	r25, r25
    2c06:	fc 01       	movw	r30, r24
    2c08:	ec 58       	subi	r30, 0x8C	; 140
    2c0a:	f6 4c       	sbci	r31, 0xC6	; 198
    2c0c:	10 82       	st	Z, r1
    2c0e:	11 82       	std	Z+1, r1	; 0x01
                                }

                            //Normal "use ... on ..." or "give ... to ..." action
                            } else if (actObj1.byteField[ACTION_ITEM] == actObj2.byteField[ITEM_NR]) {
                                SetResponse(elements++, actObj1.addrStr[ACTION_MSG], actObj1.lenStr[ACTION_MSG], GAME);
                                effect = actObj1.effect[2];
    2c10:	80 91 df 38 	lds	r24, 0x38DF	; 0x8038df <actObj1.3989+0x2a>
    2c14:	90 e0       	ldi	r25, 0x00	; 0
    2c16:	80 93 2d 38 	sts	0x382D, r24	; 0x80382d <effect>
    2c1a:	90 93 2e 38 	sts	0x382E, r25	; 0x80382e <effect+0x1>
                                UpdateState(actObj1.byteField[ACTION_STATE]);
    2c1e:	80 91 bf 38 	lds	r24, 0x38BF	; 0x8038bf <actObj1.3989+0xa>
    2c22:	0e 94 d2 08 	call	0x11a4	; 0x11a4 <UpdateState>
                                    SetResponse(elements++, A_ERROR, L_ERROR, TEASER);
                                }

                            //Normal "use ... on ..." or "give ... to ..." action
                            } else if (actObj1.byteField[ACTION_ITEM] == actObj2.byteField[ITEM_NR]) {
                                SetResponse(elements++, actObj1.addrStr[ACTION_MSG], actObj1.lenStr[ACTION_MSG], GAME);
    2c26:	7f 2c       	mov	r7, r15
    2c28:	91 c2       	rjmp	.+1314   	; 0x314c <ProcessInput+0xfa4>
                                effect = actObj1.effect[2];
                                UpdateState(actObj1.byteField[ACTION_STATE]);
                                
                            } else {
                                if (data[0] == 'u') {
    2c2a:	d8 01       	movw	r26, r16
    2c2c:	8c 91       	ld	r24, X
    2c2e:	85 37       	cpi	r24, 0x75	; 117
    2c30:	99 f4       	brne	.+38     	; 0x2c58 <ProcessInput+0xab0>
    return 0;
}

//
void SetResponse(uint8_t number, uint16_t address, uint16_t length, uint8_t type){
    reactStr[0][number]=address;
    2c32:	87 2d       	mov	r24, r7
    2c34:	90 e0       	ldi	r25, 0x00	; 0
    2c36:	fc 01       	movw	r30, r24
    2c38:	ee 0f       	add	r30, r30
    2c3a:	ff 1f       	adc	r31, r31
    2c3c:	ec 50       	subi	r30, 0x0C	; 12
    2c3e:	f7 4c       	sbci	r31, 0xC7	; 199
    2c40:	24 e0       	ldi	r18, 0x04	; 4
    2c42:	39 e7       	ldi	r19, 0x79	; 121
    2c44:	20 83       	st	Z, r18
    2c46:	31 83       	std	Z+1, r19	; 0x01
    reactStr[1][number]=length;
    2c48:	fc 01       	movw	r30, r24
    2c4a:	ee 0f       	add	r30, r30
    2c4c:	ff 1f       	adc	r31, r31
    2c4e:	ec 5c       	subi	r30, 0xCC	; 204
    2c50:	f6 4c       	sbci	r31, 0xC6	; 198
    2c52:	2a e1       	ldi	r18, 0x1A	; 26
    2c54:	30 e0       	ldi	r19, 0x00	; 0
    2c56:	15 c0       	rjmp	.+42     	; 0x2c82 <ProcessInput+0xada>
                                UpdateState(actObj1.byteField[ACTION_STATE]);
                                
                            } else {
                                if (data[0] == 'u') {
                                    SetResponse(elements++, A_CANTUSE, L_CANTUSE, TEASER);
                                } else if (data[0] == 'g') {
    2c58:	87 36       	cpi	r24, 0x67	; 103
    2c5a:	09 f0       	breq	.+2      	; 0x2c5e <ProcessInput+0xab6>
    2c5c:	77 c2       	rjmp	.+1262   	; 0x314c <ProcessInput+0xfa4>
    return 0;
}

//
void SetResponse(uint8_t number, uint16_t address, uint16_t length, uint8_t type){
    reactStr[0][number]=address;
    2c5e:	87 2d       	mov	r24, r7
    2c60:	90 e0       	ldi	r25, 0x00	; 0
    2c62:	fc 01       	movw	r30, r24
    2c64:	ee 0f       	add	r30, r30
    2c66:	ff 1f       	adc	r31, r31
    2c68:	ec 50       	subi	r30, 0x0C	; 12
    2c6a:	f7 4c       	sbci	r31, 0xC7	; 199
    2c6c:	2d ed       	ldi	r18, 0xDD	; 221
    2c6e:	36 e7       	ldi	r19, 0x76	; 118
    2c70:	20 83       	st	Z, r18
    2c72:	31 83       	std	Z+1, r19	; 0x01
    reactStr[1][number]=length;
    2c74:	fc 01       	movw	r30, r24
    2c76:	ee 0f       	add	r30, r30
    2c78:	ff 1f       	adc	r31, r31
    2c7a:	ec 5c       	subi	r30, 0xCC	; 204
    2c7c:	f6 4c       	sbci	r31, 0xC6	; 198
    2c7e:	28 e2       	ldi	r18, 0x28	; 40
    2c80:	30 e0       	ldi	r19, 0x00	; 0
    2c82:	20 83       	st	Z, r18
    2c84:	31 83       	std	Z+1, r19	; 0x01
    reactStr[2][number]=type;
    2c86:	88 0f       	add	r24, r24
    2c88:	99 1f       	adc	r25, r25
    2c8a:	fc 01       	movw	r30, r24
    2c8c:	ec 58       	subi	r30, 0x8C	; 140
    2c8e:	f6 4c       	sbci	r31, 0xC6	; 198
    2c90:	81 e0       	ldi	r24, 0x01	; 1
    2c92:	90 e0       	ldi	r25, 0x00	; 0
    2c94:	80 83       	st	Z, r24
    2c96:	91 83       	std	Z+1, r25	; 0x01
                                
                            } else {
                                if (data[0] == 'u') {
                                    SetResponse(elements++, A_CANTUSE, L_CANTUSE, TEASER);
                                } else if (data[0] == 'g') {
                                    SetResponse(elements++, A_CANTGIVE, L_CANTGIVE, TEASER);                                    
    2c98:	73 94       	inc	r7
    2c9a:	58 c2       	rjmp	.+1200   	; 0x314c <ProcessInput+0xfa4>
                            }
                        }
                    
                    //Talk to person, read or use object (without item)                          
                    } else {
                        PopulateObject(route[currDepth+1], &actObj1);
    2c9c:	65 eb       	ldi	r22, 0xB5	; 181
    2c9e:	78 e3       	ldi	r23, 0x38	; 56
    2ca0:	0e 94 2c 0c 	call	0x1858	; 0x1858 <PopulateObject>
                        if ((data[0] == 't')&&((actObj1.byteField[ACTION_MASK]&TALK) == 0)) {
    2ca4:	f8 01       	movw	r30, r16
    2ca6:	80 81       	ld	r24, Z
    2ca8:	84 37       	cpi	r24, 0x74	; 116
    2caa:	69 f5       	brne	.+90     	; 0x2d06 <ProcessInput+0xb5e>
    2cac:	80 91 bd 38 	lds	r24, 0x38BD	; 0x8038bd <actObj1.3989+0x8>
    2cb0:	83 fd       	sbrc	r24, 3
    2cb2:	4a c0       	rjmp	.+148    	; 0x2d48 <ProcessInput+0xba0>
    return 0;
}

//
void SetResponse(uint8_t number, uint16_t address, uint16_t length, uint8_t type){
    reactStr[0][number]=address;
    2cb4:	8e e1       	ldi	r24, 0x1E	; 30
    2cb6:	99 e7       	ldi	r25, 0x79	; 121
    2cb8:	80 93 f6 38 	sts	0x38F6, r24	; 0x8038f6 <reactStr+0x2>
    2cbc:	90 93 f7 38 	sts	0x38F7, r25	; 0x8038f7 <reactStr+0x3>
    reactStr[1][number]=length;
    2cc0:	8e e1       	ldi	r24, 0x1E	; 30
    2cc2:	90 e0       	ldi	r25, 0x00	; 0
    2cc4:	80 93 36 39 	sts	0x3936, r24	; 0x803936 <reactStr+0x42>
    2cc8:	90 93 37 39 	sts	0x3937, r25	; 0x803937 <reactStr+0x43>
    reactStr[2][number]=type;
    2ccc:	81 e0       	ldi	r24, 0x01	; 1
    2cce:	90 e0       	ldi	r25, 0x00	; 0
    2cd0:	80 93 76 39 	sts	0x3976, r24	; 0x803976 <reactStr+0x82>
    2cd4:	90 93 77 39 	sts	0x3977, r25	; 0x803977 <reactStr+0x83>
                    //Talk to person, read or use object (without item)                          
                    } else {
                        PopulateObject(route[currDepth+1], &actObj1);
                        if ((data[0] == 't')&&((actObj1.byteField[ACTION_MASK]&TALK) == 0)) {
                            SetResponse(elements++, A_WHYTALK, L_WHYTALK, TEASER);
                            SetResponse(elements++, actObj1.addrStr[NAME], actObj1.lenStr[NAME], GAME);
    2cd8:	80 91 cf 38 	lds	r24, 0x38CF	; 0x8038cf <actObj1.3989+0x1a>
    2cdc:	90 91 d0 38 	lds	r25, 0x38D0	; 0x8038d0 <actObj1.3989+0x1b>
    return 0;
}

//
void SetResponse(uint8_t number, uint16_t address, uint16_t length, uint8_t type){
    reactStr[0][number]=address;
    2ce0:	20 91 c1 38 	lds	r18, 0x38C1	; 0x8038c1 <actObj1.3989+0xc>
    2ce4:	30 91 c2 38 	lds	r19, 0x38C2	; 0x8038c2 <actObj1.3989+0xd>
    2ce8:	20 93 f8 38 	sts	0x38F8, r18	; 0x8038f8 <reactStr+0x4>
    2cec:	30 93 f9 38 	sts	0x38F9, r19	; 0x8038f9 <reactStr+0x5>
    reactStr[1][number]=length;
    2cf0:	80 93 38 39 	sts	0x3938, r24	; 0x803938 <reactStr+0x44>
    2cf4:	90 93 39 39 	sts	0x3939, r25	; 0x803939 <reactStr+0x45>
    reactStr[2][number]=type;
    2cf8:	10 92 78 39 	sts	0x3978, r1	; 0x803978 <reactStr+0x84>
    2cfc:	10 92 79 39 	sts	0x3979, r1	; 0x803979 <reactStr+0x85>
                    //Talk to person, read or use object (without item)                          
                    } else {
                        PopulateObject(route[currDepth+1], &actObj1);
                        if ((data[0] == 't')&&((actObj1.byteField[ACTION_MASK]&TALK) == 0)) {
                            SetResponse(elements++, A_WHYTALK, L_WHYTALK, TEASER);
                            SetResponse(elements++, actObj1.addrStr[NAME], actObj1.lenStr[NAME], GAME);
    2d00:	a3 e0       	ldi	r26, 0x03	; 3
    2d02:	7a 2e       	mov	r7, r26
    2d04:	23 c2       	rjmp	.+1094   	; 0x314c <ProcessInput+0xfa4>
                        } else if ((data[0] == 'u')&&((actObj1.byteField[ACTION_MASK]&USE) == 0)) {
    2d06:	85 37       	cpi	r24, 0x75	; 117
    2d08:	69 f4       	brne	.+26     	; 0x2d24 <ProcessInput+0xb7c>
    2d0a:	80 91 bd 38 	lds	r24, 0x38BD	; 0x8038bd <actObj1.3989+0x8>
    2d0e:	84 fd       	sbrc	r24, 4
    2d10:	1b c0       	rjmp	.+54     	; 0x2d48 <ProcessInput+0xba0>
    return 0;
}

//
void SetResponse(uint8_t number, uint16_t address, uint16_t length, uint8_t type){
    reactStr[0][number]=address;
    2d12:	84 e0       	ldi	r24, 0x04	; 4
    2d14:	99 e7       	ldi	r25, 0x79	; 121
    2d16:	80 93 f6 38 	sts	0x38F6, r24	; 0x8038f6 <reactStr+0x2>
    2d1a:	90 93 f7 38 	sts	0x38F7, r25	; 0x8038f7 <reactStr+0x3>
    reactStr[1][number]=length;
    2d1e:	8a e1       	ldi	r24, 0x1A	; 26
    2d20:	90 e0       	ldi	r25, 0x00	; 0
    2d22:	00 cb       	rjmp	.-2560   	; 0x2324 <ProcessInput+0x17c>
                        if ((data[0] == 't')&&((actObj1.byteField[ACTION_MASK]&TALK) == 0)) {
                            SetResponse(elements++, A_WHYTALK, L_WHYTALK, TEASER);
                            SetResponse(elements++, actObj1.addrStr[NAME], actObj1.lenStr[NAME], GAME);
                        } else if ((data[0] == 'u')&&((actObj1.byteField[ACTION_MASK]&USE) == 0)) {
                            SetResponse(elements++, A_CANTUSE, L_CANTUSE, TEASER);
                        } else if ((data[0] == 'r')&&((actObj1.byteField[ACTION_MASK]&READ) == 0)) {
    2d24:	82 37       	cpi	r24, 0x72	; 114
    2d26:	69 f4       	brne	.+26     	; 0x2d42 <ProcessInput+0xb9a>
    2d28:	80 91 bd 38 	lds	r24, 0x38BD	; 0x8038bd <actObj1.3989+0x8>
    2d2c:	85 fd       	sbrc	r24, 5
    2d2e:	0c c0       	rjmp	.+24     	; 0x2d48 <ProcessInput+0xba0>
    return 0;
}

//
void SetResponse(uint8_t number, uint16_t address, uint16_t length, uint8_t type){
    reactStr[0][number]=address;
    2d30:	89 ee       	ldi	r24, 0xE9	; 233
    2d32:	98 e7       	ldi	r25, 0x78	; 120
    2d34:	80 93 f6 38 	sts	0x38F6, r24	; 0x8038f6 <reactStr+0x2>
    2d38:	90 93 f7 38 	sts	0x38F7, r25	; 0x8038f7 <reactStr+0x3>
    reactStr[1][number]=length;
    2d3c:	8b e1       	ldi	r24, 0x1B	; 27
    2d3e:	90 e0       	ldi	r25, 0x00	; 0
    2d40:	f1 ca       	rjmp	.-2590   	; 0x2324 <ProcessInput+0x17c>
                            SetResponse(elements++, actObj1.addrStr[NAME], actObj1.lenStr[NAME], GAME);
                        } else if ((data[0] == 'u')&&((actObj1.byteField[ACTION_MASK]&USE) == 0)) {
                            SetResponse(elements++, A_CANTUSE, L_CANTUSE, TEASER);
                        } else if ((data[0] == 'r')&&((actObj1.byteField[ACTION_MASK]&READ) == 0)) {
                            SetResponse(elements++, A_CANTREAD, L_CANTREAD, TEASER);
                        } else if (data[0] == 'g'){ 
    2d42:	87 36       	cpi	r24, 0x67	; 103
    2d44:	09 f4       	brne	.+2      	; 0x2d48 <ProcessInput+0xba0>
    2d46:	60 ca       	rjmp	.-2880   	; 0x2208 <ProcessInput+0x60>
                            SetResponse(elements++, A_NOTPOSSIBLE, L_NOTPOSSIBLE, TEASER);  
                        } else {

                            //Special game, not enough characters
                            if (actObj1.lenStr[ACTION_STR1] == 1) {
    2d48:	e0 90 d3 38 	lds	r14, 0x38D3	; 0x8038d3 <actObj1.3989+0x1e>
    2d4c:	f0 90 d4 38 	lds	r15, 0x38D4	; 0x8038d4 <actObj1.3989+0x1f>
    2d50:	f1 e0       	ldi	r31, 0x01	; 1
    2d52:	ef 16       	cp	r14, r31
    2d54:	f1 04       	cpc	r15, r1
    2d56:	11 f5       	brne	.+68     	; 0x2d9c <ProcessInput+0xbf4>
                                ExtEERead(actObj1.addrStr[ACTION_STR1], 1, GAME, &data[2]);
    2d58:	98 01       	movw	r18, r16
    2d5a:	2e 5f       	subi	r18, 0xFE	; 254
    2d5c:	3f 4f       	sbci	r19, 0xFF	; 255
    2d5e:	40 e0       	ldi	r20, 0x00	; 0
    2d60:	61 e0       	ldi	r22, 0x01	; 1
    2d62:	80 91 c5 38 	lds	r24, 0x38C5	; 0x8038c5 <actObj1.3989+0x10>
    2d66:	90 91 c6 38 	lds	r25, 0x38C6	; 0x8038c6 <actObj1.3989+0x11>
    2d6a:	0e 94 21 0b 	call	0x1642	; 0x1642 <ExtEERead>
                                if (data[2] == '1') {
    2d6e:	d8 01       	movw	r26, r16
    2d70:	12 96       	adiw	r26, 0x02	; 2
    2d72:	8c 91       	ld	r24, X
    2d74:	81 33       	cpi	r24, 0x31	; 49
    2d76:	09 f0       	breq	.+2      	; 0x2d7a <ProcessInput+0xbd2>
    2d78:	8a cc       	rjmp	.-1772   	; 0x268e <ProcessInput+0x4e6>
    return 0;
}

//
void SetResponse(uint8_t number, uint16_t address, uint16_t length, uint8_t type){
    reactStr[0][number]=address;
    2d7a:	83 e6       	ldi	r24, 0x63	; 99
    2d7c:	95 e7       	ldi	r25, 0x75	; 117
    2d7e:	80 93 f6 38 	sts	0x38F6, r24	; 0x8038f6 <reactStr+0x2>
    2d82:	90 93 f7 38 	sts	0x38F7, r25	; 0x8038f7 <reactStr+0x3>
    reactStr[1][number]=length;
    2d86:	8b e2       	ldi	r24, 0x2B	; 43
    2d88:	90 e0       	ldi	r25, 0x00	; 0
    2d8a:	80 93 36 39 	sts	0x3936, r24	; 0x803936 <reactStr+0x42>
    2d8e:	90 93 37 39 	sts	0x3937, r25	; 0x803937 <reactStr+0x43>
    reactStr[2][number]=type;
    2d92:	e0 92 76 39 	sts	0x3976, r14	; 0x803976 <reactStr+0x82>
    2d96:	f0 92 77 39 	sts	0x3977, r15	; 0x803977 <reactStr+0x83>
    2d9a:	ce ca       	rjmp	.-2660   	; 0x2338 <ProcessInput+0x190>
                                if (data[2] == '1') {
                                    SetResponse(elements++, A_PLEASEOFFER, L_PLEASEOFFER, TEASER);
                                }

                            //General request
                            } else if (actObj1.lenStr[ACTION_STR1]) {
    2d9c:	e1 14       	cp	r14, r1
    2d9e:	f1 04       	cpc	r15, r1
    2da0:	09 f4       	brne	.+2      	; 0x2da4 <ProcessInput+0xbfc>
    2da2:	59 c0       	rjmp	.+178    	; 0x2e56 <ProcessInput+0xcae>
    return 0;
}

//
void SetResponse(uint8_t number, uint16_t address, uint16_t length, uint8_t type){
    reactStr[0][number]=address;
    2da4:	80 91 c5 38 	lds	r24, 0x38C5	; 0x8038c5 <actObj1.3989+0x10>
    2da8:	90 91 c6 38 	lds	r25, 0x38C6	; 0x8038c6 <actObj1.3989+0x11>
    2dac:	80 93 f6 38 	sts	0x38F6, r24	; 0x8038f6 <reactStr+0x2>
    2db0:	90 93 f7 38 	sts	0x38F7, r25	; 0x8038f7 <reactStr+0x3>
    reactStr[1][number]=length;
    2db4:	e0 92 36 39 	sts	0x3936, r14	; 0x803936 <reactStr+0x42>
    2db8:	f0 92 37 39 	sts	0x3937, r15	; 0x803937 <reactStr+0x43>
    reactStr[2][number]=type;
    2dbc:	10 92 76 39 	sts	0x3976, r1	; 0x803976 <reactStr+0x82>
    2dc0:	10 92 77 39 	sts	0x3977, r1	; 0x803977 <reactStr+0x83>
    return 0;
}

//
void SetResponse(uint8_t number, uint16_t address, uint16_t length, uint8_t type){
    reactStr[0][number]=address;
    2dc4:	8b e5       	ldi	r24, 0x5B	; 91
    2dc6:	9a e7       	ldi	r25, 0x7A	; 122
    2dc8:	80 93 f8 38 	sts	0x38F8, r24	; 0x8038f8 <reactStr+0x4>
    2dcc:	90 93 f9 38 	sts	0x38F9, r25	; 0x8038f9 <reactStr+0x5>
    reactStr[1][number]=length;
    2dd0:	82 e0       	ldi	r24, 0x02	; 2
    2dd2:	90 e0       	ldi	r25, 0x00	; 0
    2dd4:	80 93 38 39 	sts	0x3938, r24	; 0x803938 <reactStr+0x44>
    2dd8:	90 93 39 39 	sts	0x3939, r25	; 0x803939 <reactStr+0x45>
    reactStr[2][number]=type;
    2ddc:	81 e0       	ldi	r24, 0x01	; 1
    2dde:	90 e0       	ldi	r25, 0x00	; 0
    2de0:	80 93 78 39 	sts	0x3978, r24	; 0x803978 <reactStr+0x84>
    2de4:	90 93 79 39 	sts	0x3979, r25	; 0x803979 <reactStr+0x85>
    return 0;
}

//
void SetResponse(uint8_t number, uint16_t address, uint16_t length, uint8_t type){
    reactStr[0][number]=address;
    2de8:	20 eb       	ldi	r18, 0xB0	; 176
    2dea:	38 e7       	ldi	r19, 0x78	; 120
    2dec:	20 93 fa 38 	sts	0x38FA, r18	; 0x8038fa <reactStr+0x6>
    2df0:	30 93 fb 38 	sts	0x38FB, r19	; 0x8038fb <reactStr+0x7>
    reactStr[1][number]=length;
    2df4:	22 e1       	ldi	r18, 0x12	; 18
    2df6:	30 e0       	ldi	r19, 0x00	; 0
    2df8:	20 93 3a 39 	sts	0x393A, r18	; 0x80393a <reactStr+0x46>
    2dfc:	30 93 3b 39 	sts	0x393B, r19	; 0x80393b <reactStr+0x47>
    reactStr[2][number]=type;
    2e00:	80 93 7a 39 	sts	0x397A, r24	; 0x80397a <reactStr+0x86>
    2e04:	90 93 7b 39 	sts	0x397B, r25	; 0x80397b <reactStr+0x87>
                            //General request
                            } else if (actObj1.lenStr[ACTION_STR1]) {
                                SetResponse(elements++, actObj1.addrStr[ACTION_STR1], actObj1.lenStr[ACTION_STR1], GAME);
                                SetResponse(elements++, A_LF, 2, TEASER);
                                SetResponse(elements++, A_RESPONSE, L_RESPONSE, TEASER);
                                if (actObj1.lenStr[ACTION_STR2]>(INP_LENGTH-1)) actObj1.lenStr[ACTION_STR2] = (INP_LENGTH-1);
    2e08:	80 91 d5 38 	lds	r24, 0x38D5	; 0x8038d5 <actObj1.3989+0x20>
    2e0c:	90 91 d6 38 	lds	r25, 0x38D6	; 0x8038d6 <actObj1.3989+0x21>
    2e10:	40 97       	sbiw	r24, 0x10	; 16
    2e12:	30 f0       	brcs	.+12     	; 0x2e20 <ProcessInput+0xc78>
    2e14:	8f e0       	ldi	r24, 0x0F	; 15
    2e16:	90 e0       	ldi	r25, 0x00	; 0
    2e18:	80 93 d5 38 	sts	0x38D5, r24	; 0x8038d5 <actObj1.3989+0x20>
    2e1c:	90 93 d6 38 	sts	0x38D6, r25	; 0x8038d6 <actObj1.3989+0x21>
                                ExtEERead(actObj1.addrStr[ACTION_STR2], actObj1.lenStr[ACTION_STR2], GAME, (uint8_t *)&specialInput[0]);
    2e20:	23 ee       	ldi	r18, 0xE3	; 227
    2e22:	38 e3       	ldi	r19, 0x38	; 56
    2e24:	40 e0       	ldi	r20, 0x00	; 0
    2e26:	60 91 d5 38 	lds	r22, 0x38D5	; 0x8038d5 <actObj1.3989+0x20>
    2e2a:	80 91 c7 38 	lds	r24, 0x38C7	; 0x8038c7 <actObj1.3989+0x12>
    2e2e:	90 91 c8 38 	lds	r25, 0x38C8	; 0x8038c8 <actObj1.3989+0x13>
    2e32:	0e 94 21 0b 	call	0x1642	; 0x1642 <ExtEERead>
                                UnflipData(actObj1.lenStr[ACTION_STR2], (uint8_t *)&specialInput[0]);
    2e36:	63 ee       	ldi	r22, 0xE3	; 227
    2e38:	78 e3       	ldi	r23, 0x38	; 56
    2e3a:	80 91 d5 38 	lds	r24, 0x38D5	; 0x8038d5 <actObj1.3989+0x20>
    2e3e:	0e 94 14 0b 	call	0x1628	; 0x1628 <UnflipData>
                                specialInput[actObj1.lenStr[ACTION_STR2]] = 0;
    2e42:	e0 91 d5 38 	lds	r30, 0x38D5	; 0x8038d5 <actObj1.3989+0x20>
    2e46:	f0 91 d6 38 	lds	r31, 0x38D6	; 0x8038d6 <actObj1.3989+0x21>
    2e4a:	ed 51       	subi	r30, 0x1D	; 29
    2e4c:	f7 4c       	sbci	r31, 0xC7	; 199
    2e4e:	10 82       	st	Z, r1

                            //General request
                            } else if (actObj1.lenStr[ACTION_STR1]) {
                                SetResponse(elements++, actObj1.addrStr[ACTION_STR1], actObj1.lenStr[ACTION_STR1], GAME);
                                SetResponse(elements++, A_LF, 2, TEASER);
                                SetResponse(elements++, A_RESPONSE, L_RESPONSE, TEASER);
    2e50:	f4 e0       	ldi	r31, 0x04	; 4
    2e52:	7f 2e       	mov	r7, r31
    2e54:	7b c1       	rjmp	.+758    	; 0x314c <ProcessInput+0xfa4>
                                ExtEERead(actObj1.addrStr[ACTION_STR2], actObj1.lenStr[ACTION_STR2], GAME, (uint8_t *)&specialInput[0]);
                                UnflipData(actObj1.lenStr[ACTION_STR2], (uint8_t *)&specialInput[0]);
                                specialInput[actObj1.lenStr[ACTION_STR2]] = 0;
                            
                            //Normal action    
                            } else if (CheckState(actObj1.byteField[ACTION_ACL])){
    2e56:	80 91 bc 38 	lds	r24, 0x38BC	; 0x8038bc <actObj1.3989+0x7>
    2e5a:	0e 94 dc 08 	call	0x11b8	; 0x11b8 <CheckState>
    2e5e:	88 23       	and	r24, r24
    2e60:	01 f1       	breq	.+64     	; 0x2ea2 <ProcessInput+0xcfa>
                                SetResponse(elements++, actObj1.addrStr[ACTION_MSG], actObj1.lenStr[ACTION_MSG], GAME);
    2e62:	80 91 db 38 	lds	r24, 0x38DB	; 0x8038db <actObj1.3989+0x26>
    2e66:	90 91 dc 38 	lds	r25, 0x38DC	; 0x8038dc <actObj1.3989+0x27>
    return 0;
}

//
void SetResponse(uint8_t number, uint16_t address, uint16_t length, uint8_t type){
    reactStr[0][number]=address;
    2e6a:	20 91 cd 38 	lds	r18, 0x38CD	; 0x8038cd <actObj1.3989+0x18>
    2e6e:	30 91 ce 38 	lds	r19, 0x38CE	; 0x8038ce <actObj1.3989+0x19>
    2e72:	20 93 f6 38 	sts	0x38F6, r18	; 0x8038f6 <reactStr+0x2>
    2e76:	30 93 f7 38 	sts	0x38F7, r19	; 0x8038f7 <reactStr+0x3>
    reactStr[1][number]=length;
    2e7a:	80 93 36 39 	sts	0x3936, r24	; 0x803936 <reactStr+0x42>
    2e7e:	90 93 37 39 	sts	0x3937, r25	; 0x803937 <reactStr+0x43>
    reactStr[2][number]=type;
    2e82:	10 92 76 39 	sts	0x3976, r1	; 0x803976 <reactStr+0x82>
    2e86:	10 92 77 39 	sts	0x3977, r1	; 0x803977 <reactStr+0x83>
                                specialInput[actObj1.lenStr[ACTION_STR2]] = 0;
                            
                            //Normal action    
                            } else if (CheckState(actObj1.byteField[ACTION_ACL])){
                                SetResponse(elements++, actObj1.addrStr[ACTION_MSG], actObj1.lenStr[ACTION_MSG], GAME);
                                effect = actObj1.effect[2];
    2e8a:	80 91 df 38 	lds	r24, 0x38DF	; 0x8038df <actObj1.3989+0x2a>
    2e8e:	90 e0       	ldi	r25, 0x00	; 0
    2e90:	80 93 2d 38 	sts	0x382D, r24	; 0x80382d <effect>
    2e94:	90 93 2e 38 	sts	0x382E, r25	; 0x80382e <effect+0x1>
                                UpdateState(actObj1.byteField[ACTION_STATE]);
    2e98:	80 91 bf 38 	lds	r24, 0x38BF	; 0x8038bf <actObj1.3989+0xa>
    2e9c:	0e 94 d2 08 	call	0x11a4	; 0x11a4 <UpdateState>
    2ea0:	4b ca       	rjmp	.-2922   	; 0x2338 <ProcessInput+0x190>
                            } else {
                                SetResponse(elements++, actObj1.addrStr[ACTION_ACL_MSG], actObj1.lenStr[ACTION_ACL_MSG], GAME);
    2ea2:	80 91 d9 38 	lds	r24, 0x38D9	; 0x8038d9 <actObj1.3989+0x24>
    2ea6:	90 91 da 38 	lds	r25, 0x38DA	; 0x8038da <actObj1.3989+0x25>
    return 0;
}

//
void SetResponse(uint8_t number, uint16_t address, uint16_t length, uint8_t type){
    reactStr[0][number]=address;
    2eaa:	20 91 cb 38 	lds	r18, 0x38CB	; 0x8038cb <actObj1.3989+0x16>
    2eae:	30 91 cc 38 	lds	r19, 0x38CC	; 0x8038cc <actObj1.3989+0x17>
    2eb2:	20 93 f6 38 	sts	0x38F6, r18	; 0x8038f6 <reactStr+0x2>
    2eb6:	30 93 f7 38 	sts	0x38F7, r19	; 0x8038f7 <reactStr+0x3>
    reactStr[1][number]=length;
    2eba:	80 93 36 39 	sts	0x3936, r24	; 0x803936 <reactStr+0x42>
    2ebe:	90 93 37 39 	sts	0x3937, r25	; 0x803937 <reactStr+0x43>
    reactStr[2][number]=type;
    2ec2:	10 92 76 39 	sts	0x3976, r1	; 0x803976 <reactStr+0x82>
    2ec6:	10 92 77 39 	sts	0x3977, r1	; 0x803977 <reactStr+0x83>
                                SetResponse(elements++, actObj1.addrStr[ACTION_MSG], actObj1.lenStr[ACTION_MSG], GAME);
                                effect = actObj1.effect[2];
                                UpdateState(actObj1.byteField[ACTION_STATE]);
                            } else {
                                SetResponse(elements++, actObj1.addrStr[ACTION_ACL_MSG], actObj1.lenStr[ACTION_ACL_MSG], GAME);
                                effect = actObj1.effect[1];
    2eca:	80 91 de 38 	lds	r24, 0x38DE	; 0x8038de <actObj1.3989+0x29>
    2ece:	90 e0       	ldi	r25, 0x00	; 0
    2ed0:	80 93 2d 38 	sts	0x382D, r24	; 0x80382d <effect>
    2ed4:	90 93 2e 38 	sts	0x382E, r25	; 0x80382e <effect+0x1>
    2ed8:	2f ca       	rjmp	.-2978   	; 0x2338 <ProcessInput+0x190>
                        }
                    }

                //Person or object not found
                } else {
                    if ((data[0] == 't')||(data[0] == 'g')){
    2eda:	f8 01       	movw	r30, r16
    2edc:	80 81       	ld	r24, Z
    2ede:	84 37       	cpi	r24, 0x74	; 116
    2ee0:	11 f0       	breq	.+4      	; 0x2ee6 <ProcessInput+0xd3e>
    2ee2:	87 36       	cpi	r24, 0x67	; 103
    2ee4:	19 f4       	brne	.+6      	; 0x2eec <ProcessInput+0xd44>
    return 0;
}

//
void SetResponse(uint8_t number, uint16_t address, uint16_t length, uint8_t type){
    reactStr[0][number]=address;
    2ee6:	8c e3       	ldi	r24, 0x3C	; 60
    2ee8:	99 e7       	ldi	r25, 0x79	; 121
    2eea:	02 c0       	rjmp	.+4      	; 0x2ef0 <ProcessInput+0xd48>
    2eec:	80 e5       	ldi	r24, 0x50	; 80
    2eee:	99 e7       	ldi	r25, 0x79	; 121
    2ef0:	80 93 f6 38 	sts	0x38F6, r24	; 0x8038f6 <reactStr+0x2>
    2ef4:	90 93 f7 38 	sts	0x38F7, r25	; 0x8038f7 <reactStr+0x3>
    reactStr[1][number]=length;
    2ef8:	84 e1       	ldi	r24, 0x14	; 20
    2efa:	90 e0       	ldi	r25, 0x00	; 0
    2efc:	13 ca       	rjmp	.-3034   	; 0x2324 <ProcessInput+0x17c>
                    }
                }
            }
        
        //Special answer given
        } else if (data[0] == 'a'){
    2efe:	81 36       	cpi	r24, 0x61	; 97
    2f00:	09 f0       	breq	.+2      	; 0x2f04 <ProcessInput+0xd5c>
    2f02:	c5 cb       	rjmp	.-2166   	; 0x268e <ProcessInput+0x4e6>
            
            //Priest offerings
            if (specialPassed >= 2) {
    2f04:	80 91 e2 38 	lds	r24, 0x38E2	; 0x8038e2 <specialPassed>
    2f08:	82 30       	cpi	r24, 0x02	; 2
    2f0a:	08 f4       	brcc	.+2      	; 0x2f0e <ProcessInput+0xd66>
    2f0c:	b3 c0       	rjmp	.+358    	; 0x3074 <ProcessInput+0xecc>
                if (data[1] > 0) {
    2f0e:	d8 01       	movw	r26, r16
    2f10:	11 96       	adiw	r26, 0x01	; 1
    2f12:	2c 91       	ld	r18, X
    2f14:	22 23       	and	r18, r18
    2f16:	09 f4       	brne	.+2      	; 0x2f1a <ProcessInput+0xd72>
    2f18:	a4 c0       	rjmp	.+328    	; 0x3062 <ProcessInput+0xeba>

                    uint8_t  digit[10] = {0, 0, 0, 0, 0, 0, 0, 0, 0, 0};
    2f1a:	fe 01       	movw	r30, r28
    2f1c:	31 96       	adiw	r30, 0x01	; 1
    2f1e:	7f 01       	movw	r14, r30
    2f20:	8a e0       	ldi	r24, 0x0A	; 10
    2f22:	df 01       	movw	r26, r30
    2f24:	1d 92       	st	X+, r1
    2f26:	8a 95       	dec	r24
    2f28:	e9 f7       	brne	.-6      	; 0x2f24 <ProcessInput+0xd7c>
                        answer = ((offering  & 2) << 19) + ((offering  & 1) << 8) + \
                        ((element   & 2) << 15) + ((element   & 1) << 4) + \
                        ((kneelings & 2) << 11) + ((kneelings & 1))
                        answer = answer << (3-person)
                    */
                    data[1]-='1';
    2f2a:	21 53       	subi	r18, 0x31	; 49
    2f2c:	f8 01       	movw	r30, r16
    2f2e:	21 83       	std	Z+1, r18	; 0x01
                    data[2]-='1';
    2f30:	32 81       	ldd	r19, Z+2	; 0x02
    2f32:	31 53       	subi	r19, 0x31	; 49
    2f34:	32 83       	std	Z+2, r19	; 0x02
                    if (data[3] == 'a') data[3] = 1;
    2f36:	83 81       	ldd	r24, Z+3	; 0x03
    2f38:	81 36       	cpi	r24, 0x61	; 97
    2f3a:	11 f4       	brne	.+4      	; 0x2f40 <ProcessInput+0xd98>
    2f3c:	81 e0       	ldi	r24, 0x01	; 1
    2f3e:	08 c0       	rjmp	.+16     	; 0x2f50 <ProcessInput+0xda8>
                    else if (data[3] == 'e') data[3] = 0;
    2f40:	85 36       	cpi	r24, 0x65	; 101
    2f42:	11 f4       	brne	.+4      	; 0x2f48 <ProcessInput+0xda0>
    2f44:	13 82       	std	Z+3, r1	; 0x03
    2f46:	08 c0       	rjmp	.+16     	; 0x2f58 <ProcessInput+0xdb0>
                    else if (data[3] == 'f') data[3] = 3;
    2f48:	86 36       	cpi	r24, 0x66	; 102
    2f4a:	21 f4       	brne	.+8      	; 0x2f54 <ProcessInput+0xdac>
    2f4c:	83 e0       	ldi	r24, 0x03	; 3
    2f4e:	f8 01       	movw	r30, r16
    2f50:	83 83       	std	Z+3, r24	; 0x03
    2f52:	02 c0       	rjmp	.+4      	; 0x2f58 <ProcessInput+0xdb0>
                    else data[3] = 2;
    2f54:	82 e0       	ldi	r24, 0x02	; 2
    2f56:	83 83       	std	Z+3, r24	; 0x03

                    if (data[1] & 2) answer += (1UL << 20);
    2f58:	21 fd       	sbrc	r18, 1
    2f5a:	04 c0       	rjmp	.+8      	; 0x2f64 <ProcessInput+0xdbc>
            //Priest offerings
            if (specialPassed >= 2) {
                if (data[1] > 0) {

                    uint8_t  digit[10] = {0, 0, 0, 0, 0, 0, 0, 0, 0, 0};
                    uint32_t answer = 0;
    2f5c:	80 e0       	ldi	r24, 0x00	; 0
    2f5e:	90 e0       	ldi	r25, 0x00	; 0
    2f60:	dc 01       	movw	r26, r24
    2f62:	04 c0       	rjmp	.+8      	; 0x2f6c <ProcessInput+0xdc4>
                    if (data[3] == 'a') data[3] = 1;
                    else if (data[3] == 'e') data[3] = 0;
                    else if (data[3] == 'f') data[3] = 3;
                    else data[3] = 2;

                    if (data[1] & 2) answer += (1UL << 20);
    2f64:	80 e0       	ldi	r24, 0x00	; 0
    2f66:	90 e0       	ldi	r25, 0x00	; 0
    2f68:	a0 e1       	ldi	r26, 0x10	; 16
    2f6a:	b0 e0       	ldi	r27, 0x00	; 0
                    if (data[1] & 1) answer += (1 << 8);
    2f6c:	20 ff       	sbrs	r18, 0
    2f6e:	03 c0       	rjmp	.+6      	; 0x2f76 <ProcessInput+0xdce>
    2f70:	9f 5f       	subi	r25, 0xFF	; 255
    2f72:	af 4f       	sbci	r26, 0xFF	; 255
    2f74:	bf 4f       	sbci	r27, 0xFF	; 255
                    if (data[3] & 2) answer += (1UL << 16);
    2f76:	f8 01       	movw	r30, r16
    2f78:	23 81       	ldd	r18, Z+3	; 0x03
    2f7a:	21 fd       	sbrc	r18, 1
    2f7c:	11 96       	adiw	r26, 0x01	; 1
                    if (data[3] & 1) answer += (1 << 4);
    2f7e:	20 ff       	sbrs	r18, 0
    2f80:	03 c0       	rjmp	.+6      	; 0x2f88 <ProcessInput+0xde0>
    2f82:	40 96       	adiw	r24, 0x10	; 16
    2f84:	a1 1d       	adc	r26, r1
    2f86:	b1 1d       	adc	r27, r1
                    if (data[2] & 2) answer += (1 << 12);
    2f88:	31 ff       	sbrs	r19, 1
    2f8a:	03 c0       	rjmp	.+6      	; 0x2f92 <ProcessInput+0xdea>
    2f8c:	90 5f       	subi	r25, 0xF0	; 240
    2f8e:	af 4f       	sbci	r26, 0xFF	; 255
    2f90:	bf 4f       	sbci	r27, 0xFF	; 255
                    if (data[2] & 1) answer += 1;
    2f92:	30 ff       	sbrs	r19, 0
    2f94:	03 c0       	rjmp	.+6      	; 0x2f9c <ProcessInput+0xdf4>
    2f96:	01 96       	adiw	r24, 0x01	; 1
    2f98:	a1 1d       	adc	r26, r1
    2f9a:	b1 1d       	adc	r27, r1
                    answer <<= (4 - whoami);            
    2f9c:	40 91 30 38 	lds	r20, 0x3830	; 0x803830 <whoami>
    2fa0:	24 e0       	ldi	r18, 0x04	; 4
    2fa2:	30 e0       	ldi	r19, 0x00	; 0
    2fa4:	24 1b       	sub	r18, r20
    2fa6:	31 09       	sbc	r19, r1
    2fa8:	bc 01       	movw	r22, r24
    2faa:	cd 01       	movw	r24, r26
    2fac:	04 c0       	rjmp	.+8      	; 0x2fb6 <ProcessInput+0xe0e>
    2fae:	66 0f       	add	r22, r22
    2fb0:	77 1f       	adc	r23, r23
    2fb2:	88 1f       	adc	r24, r24
    2fb4:	99 1f       	adc	r25, r25
    2fb6:	2a 95       	dec	r18
    2fb8:	d2 f7       	brpl	.-12     	; 0x2fae <ProcessInput+0xe06>
    return 0;
}

//
void SetResponse(uint8_t number, uint16_t address, uint16_t length, uint8_t type){
    reactStr[0][number]=address;
    2fba:	26 e0       	ldi	r18, 0x06	; 6
    2fbc:	35 e7       	ldi	r19, 0x75	; 117
    2fbe:	20 93 f6 38 	sts	0x38F6, r18	; 0x8038f6 <reactStr+0x2>
    2fc2:	30 93 f7 38 	sts	0x38F7, r19	; 0x8038f7 <reactStr+0x3>
    reactStr[1][number]=length;
    2fc6:	20 e2       	ldi	r18, 0x20	; 32
    2fc8:	30 e0       	ldi	r19, 0x00	; 0
    2fca:	20 93 36 39 	sts	0x3936, r18	; 0x803936 <reactStr+0x42>
    2fce:	30 93 37 39 	sts	0x3937, r19	; 0x803937 <reactStr+0x43>
    reactStr[2][number]=type;
    2fd2:	21 e0       	ldi	r18, 0x01	; 1
    2fd4:	30 e0       	ldi	r19, 0x00	; 0
    2fd6:	20 93 76 39 	sts	0x3976, r18	; 0x803976 <reactStr+0x82>
    2fda:	30 93 77 39 	sts	0x3977, r19	; 0x803977 <reactStr+0x83>
                    answer <<= (4 - whoami);            

                    SetResponse(elements++, A_YOURPART, L_YOURPART, TEASER);
                    
                    //Set up sending out number
                    for (n=9; n>=0; --n) {
    2fde:	59 e0       	ldi	r21, 0x09	; 9
                        digit[n] = answer % 10;
    2fe0:	b5 2e       	mov	r11, r21
    2fe2:	ea e0       	ldi	r30, 0x0A	; 10
    2fe4:	4e 2e       	mov	r4, r30
    2fe6:	51 2c       	mov	r5, r1
    2fe8:	61 2c       	mov	r6, r1
    2fea:	71 2c       	mov	r7, r1
    2fec:	67 01       	movw	r12, r14
    2fee:	cb 0c       	add	r12, r11
    2ff0:	d1 1c       	adc	r13, r1
    2ff2:	a3 01       	movw	r20, r6
    2ff4:	92 01       	movw	r18, r4
    2ff6:	5e d2       	rcall	.+1212   	; 0x34b4 <__udivmodsi4>
    2ff8:	d6 01       	movw	r26, r12
    2ffa:	6c 93       	st	X, r22
                        answer /= 10;
    2ffc:	b9 01       	movw	r22, r18
    2ffe:	ca 01       	movw	r24, r20
                        if (answer == 0) break;
    3000:	61 15       	cp	r22, r1
    3002:	71 05       	cpc	r23, r1
    3004:	81 05       	cpc	r24, r1
    3006:	91 05       	cpc	r25, r1
    3008:	51 f4       	brne	.+20     	; 0x301e <ProcessInput+0xe76>
    300a:	24 ef       	ldi	r18, 0xF4	; 244
    300c:	c2 2e       	mov	r12, r18
    300e:	28 e3       	ldi	r18, 0x38	; 56
    3010:	d2 2e       	mov	r13, r18
    3012:	32 e0       	ldi	r19, 0x02	; 2
    3014:	73 2e       	mov	r7, r19
}

//
void SetResponse(uint8_t number, uint16_t address, uint16_t length, uint8_t type){
    reactStr[0][number]=address;
    reactStr[1][number]=length;
    3016:	88 24       	eor	r8, r8
    3018:	83 94       	inc	r8
    301a:	91 2c       	mov	r9, r1
    301c:	02 c0       	rjmp	.+4      	; 0x3022 <ProcessInput+0xe7a>
                    answer <<= (4 - whoami);            

                    SetResponse(elements++, A_YOURPART, L_YOURPART, TEASER);
                    
                    //Set up sending out number
                    for (n=9; n>=0; --n) {
    301e:	ba 94       	dec	r11
                        digit[n] = answer % 10;
                        answer /= 10;
                        if (answer == 0) break;
                    }
    3020:	e5 cf       	rjmp	.-54     	; 0x2fec <ProcessInput+0xe44>
    3022:	f2 e0       	ldi	r31, 0x02	; 2
    3024:	cf 0e       	add	r12, r31
    3026:	d1 1c       	adc	r13, r1
                    for (; n<10; ++n) {
    3028:	29 e0       	ldi	r18, 0x09	; 9
    302a:	2b 15       	cp	r18, r11
    302c:	08 f4       	brcc	.+2      	; 0x3030 <ProcessInput+0xe88>
    302e:	8c c0       	rjmp	.+280    	; 0x3148 <ProcessInput+0xfa0>
                        SetResponse(elements++, A_DIGITS+digit[n], 1, TEASER);
    3030:	73 94       	inc	r7
    3032:	f7 01       	movw	r30, r14
    3034:	eb 0d       	add	r30, r11
    3036:	f1 1d       	adc	r31, r1
    return 0;
}

//
void SetResponse(uint8_t number, uint16_t address, uint16_t length, uint8_t type){
    reactStr[0][number]=address;
    3038:	80 81       	ld	r24, Z
    303a:	90 e0       	ldi	r25, 0x00	; 0
    303c:	8d 52       	subi	r24, 0x2D	; 45
    303e:	9b 48       	sbci	r25, 0x8B	; 139
    3040:	f6 01       	movw	r30, r12
    3042:	82 83       	std	Z+2, r24	; 0x02
    3044:	93 83       	std	Z+3, r25	; 0x03
    reactStr[1][number]=length;
    3046:	ee 5b       	subi	r30, 0xBE	; 190
    3048:	ff 4f       	sbci	r31, 0xFF	; 255
    304a:	80 82       	st	Z, r8
    304c:	91 82       	std	Z+1, r9	; 0x01
    reactStr[2][number]=type;
    304e:	e0 5c       	subi	r30, 0xC0	; 192
    3050:	ff 4f       	sbci	r31, 0xFF	; 255
    3052:	80 82       	st	Z, r8
    3054:	91 82       	std	Z+1, r9	; 0x01
                        answer /= 10;
                        if (answer == 0) break;
                    }
                    for (; n<10; ++n) {
                        SetResponse(elements++, A_DIGITS+digit[n], 1, TEASER);
                        UpdateState(actObj1.byteField[ACTION_STATE]);
    3056:	80 91 bf 38 	lds	r24, 0x38BF	; 0x8038bf <actObj1.3989+0xa>
    305a:	0e 94 d2 08 	call	0x11a4	; 0x11a4 <UpdateState>
                    for (n=9; n>=0; --n) {
                        digit[n] = answer % 10;
                        answer /= 10;
                        if (answer == 0) break;
                    }
                    for (; n<10; ++n) {
    305e:	b3 94       	inc	r11
    3060:	e0 cf       	rjmp	.-64     	; 0x3022 <ProcessInput+0xe7a>
    return 0;
}

//
void SetResponse(uint8_t number, uint16_t address, uint16_t length, uint8_t type){
    reactStr[0][number]=address;
    3062:	86 e2       	ldi	r24, 0x26	; 38
    3064:	95 e7       	ldi	r25, 0x75	; 117
    3066:	80 93 f6 38 	sts	0x38F6, r24	; 0x8038f6 <reactStr+0x2>
    306a:	90 93 f7 38 	sts	0x38F7, r25	; 0x8038f7 <reactStr+0x3>
    reactStr[1][number]=length;
    306e:	8d e3       	ldi	r24, 0x3D	; 61
    3070:	90 e0       	ldi	r25, 0x00	; 0
    3072:	5e c0       	rjmp	.+188    	; 0x3130 <ProcessInput+0xf88>
    3074:	e0 91 26 38 	lds	r30, 0x3826	; 0x803826 <currDepth>
                    SetResponse(elements++, A_BADOFFERING, L_BADOFFERING, TEASER);
                }
            
            //Other questions    
            } else if (specialPassed == 1) {
                PopulateObject(route[currDepth+1], &actObj1);
    3078:	f0 e0       	ldi	r31, 0x00	; 0
    307a:	ee 0f       	add	r30, r30
    307c:	ff 1f       	adc	r31, r31
    307e:	ea 54       	subi	r30, 0x4A	; 74
    3080:	f6 4c       	sbci	r31, 0xC6	; 198
    3082:	65 eb       	ldi	r22, 0xB5	; 181
    3084:	78 e3       	ldi	r23, 0x38	; 56
                } else {
                    SetResponse(elements++, A_BADOFFERING, L_BADOFFERING, TEASER);
                }
            
            //Other questions    
            } else if (specialPassed == 1) {
    3086:	81 30       	cpi	r24, 0x01	; 1
    3088:	09 f0       	breq	.+2      	; 0x308c <ProcessInput+0xee4>
    308a:	46 c0       	rjmp	.+140    	; 0x3118 <ProcessInput+0xf70>
                PopulateObject(route[currDepth+1], &actObj1);
    308c:	80 81       	ld	r24, Z
    308e:	91 81       	ldd	r25, Z+1	; 0x01
    3090:	0e 94 2c 0c 	call	0x1858	; 0x1858 <PopulateObject>
                if (CheckState(actObj1.byteField[ACTION_ACL])){
    3094:	80 91 bc 38 	lds	r24, 0x38BC	; 0x8038bc <actObj1.3989+0x7>
    3098:	0e 94 dc 08 	call	0x11b8	; 0x11b8 <CheckState>
    309c:	88 23       	and	r24, r24
    309e:	01 f1       	breq	.+64     	; 0x30e0 <ProcessInput+0xf38>
                    SetResponse(elements++, actObj1.addrStr[ACTION_MSG], actObj1.lenStr[ACTION_MSG], GAME);
    30a0:	80 91 db 38 	lds	r24, 0x38DB	; 0x8038db <actObj1.3989+0x26>
    30a4:	90 91 dc 38 	lds	r25, 0x38DC	; 0x8038dc <actObj1.3989+0x27>
    return 0;
}

//
void SetResponse(uint8_t number, uint16_t address, uint16_t length, uint8_t type){
    reactStr[0][number]=address;
    30a8:	20 91 cd 38 	lds	r18, 0x38CD	; 0x8038cd <actObj1.3989+0x18>
    30ac:	30 91 ce 38 	lds	r19, 0x38CE	; 0x8038ce <actObj1.3989+0x19>
    30b0:	20 93 f6 38 	sts	0x38F6, r18	; 0x8038f6 <reactStr+0x2>
    30b4:	30 93 f7 38 	sts	0x38F7, r19	; 0x8038f7 <reactStr+0x3>
    reactStr[1][number]=length;
    30b8:	80 93 36 39 	sts	0x3936, r24	; 0x803936 <reactStr+0x42>
    30bc:	90 93 37 39 	sts	0x3937, r25	; 0x803937 <reactStr+0x43>
    reactStr[2][number]=type;
    30c0:	10 92 76 39 	sts	0x3976, r1	; 0x803976 <reactStr+0x82>
    30c4:	10 92 77 39 	sts	0x3977, r1	; 0x803977 <reactStr+0x83>
            //Other questions    
            } else if (specialPassed == 1) {
                PopulateObject(route[currDepth+1], &actObj1);
                if (CheckState(actObj1.byteField[ACTION_ACL])){
                    SetResponse(elements++, actObj1.addrStr[ACTION_MSG], actObj1.lenStr[ACTION_MSG], GAME);
                    effect = actObj1.effect[2];
    30c8:	80 91 df 38 	lds	r24, 0x38DF	; 0x8038df <actObj1.3989+0x2a>
    30cc:	90 e0       	ldi	r25, 0x00	; 0
    30ce:	80 93 2d 38 	sts	0x382D, r24	; 0x80382d <effect>
    30d2:	90 93 2e 38 	sts	0x382E, r25	; 0x80382e <effect+0x1>
                    UpdateState(actObj1.byteField[ACTION_STATE]);
    30d6:	80 91 bf 38 	lds	r24, 0x38BF	; 0x8038bf <actObj1.3989+0xa>
    30da:	0e 94 d2 08 	call	0x11a4	; 0x11a4 <UpdateState>
    30de:	32 c0       	rjmp	.+100    	; 0x3144 <ProcessInput+0xf9c>
                } else {
                    SetResponse(elements++, actObj1.addrStr[ACTION_ACL_MSG], actObj1.lenStr[ACTION_ACL_MSG], GAME);
    30e0:	80 91 d9 38 	lds	r24, 0x38D9	; 0x8038d9 <actObj1.3989+0x24>
    30e4:	90 91 da 38 	lds	r25, 0x38DA	; 0x8038da <actObj1.3989+0x25>
    return 0;
}

//
void SetResponse(uint8_t number, uint16_t address, uint16_t length, uint8_t type){
    reactStr[0][number]=address;
    30e8:	20 91 cb 38 	lds	r18, 0x38CB	; 0x8038cb <actObj1.3989+0x16>
    30ec:	30 91 cc 38 	lds	r19, 0x38CC	; 0x8038cc <actObj1.3989+0x17>
    30f0:	20 93 f6 38 	sts	0x38F6, r18	; 0x8038f6 <reactStr+0x2>
    30f4:	30 93 f7 38 	sts	0x38F7, r19	; 0x8038f7 <reactStr+0x3>
    reactStr[1][number]=length;
    30f8:	80 93 36 39 	sts	0x3936, r24	; 0x803936 <reactStr+0x42>
    30fc:	90 93 37 39 	sts	0x3937, r25	; 0x803937 <reactStr+0x43>
    reactStr[2][number]=type;
    3100:	10 92 76 39 	sts	0x3976, r1	; 0x803976 <reactStr+0x82>
    3104:	10 92 77 39 	sts	0x3977, r1	; 0x803977 <reactStr+0x83>
                    SetResponse(elements++, actObj1.addrStr[ACTION_MSG], actObj1.lenStr[ACTION_MSG], GAME);
                    effect = actObj1.effect[2];
                    UpdateState(actObj1.byteField[ACTION_STATE]);
                } else {
                    SetResponse(elements++, actObj1.addrStr[ACTION_ACL_MSG], actObj1.lenStr[ACTION_ACL_MSG], GAME);
                    effect = actObj1.effect[1];
    3108:	80 91 de 38 	lds	r24, 0x38DE	; 0x8038de <actObj1.3989+0x29>
    310c:	90 e0       	ldi	r25, 0x00	; 0
    310e:	80 93 2d 38 	sts	0x382D, r24	; 0x80382d <effect>
    3112:	90 93 2e 38 	sts	0x382E, r25	; 0x80382e <effect+0x1>
    3116:	16 c0       	rjmp	.+44     	; 0x3144 <ProcessInput+0xf9c>
                }

            } else {
                PopulateObject(route[currDepth+1], &actObj1);
    3118:	80 81       	ld	r24, Z
    311a:	91 81       	ldd	r25, Z+1	; 0x01
    311c:	0e 94 2c 0c 	call	0x1858	; 0x1858 <PopulateObject>
    return 0;
}

//
void SetResponse(uint8_t number, uint16_t address, uint16_t length, uint8_t type){
    reactStr[0][number]=address;
    3120:	8e e9       	ldi	r24, 0x9E	; 158
    3122:	98 e7       	ldi	r25, 0x78	; 120
    3124:	80 93 f6 38 	sts	0x38F6, r24	; 0x8038f6 <reactStr+0x2>
    3128:	90 93 f7 38 	sts	0x38F7, r25	; 0x8038f7 <reactStr+0x3>
    reactStr[1][number]=length;
    312c:	82 e1       	ldi	r24, 0x12	; 18
    312e:	90 e0       	ldi	r25, 0x00	; 0
    3130:	80 93 36 39 	sts	0x3936, r24	; 0x803936 <reactStr+0x42>
    3134:	90 93 37 39 	sts	0x3937, r25	; 0x803937 <reactStr+0x43>
    reactStr[2][number]=type;
    3138:	81 e0       	ldi	r24, 0x01	; 1
    313a:	90 e0       	ldi	r25, 0x00	; 0
    313c:	80 93 76 39 	sts	0x3976, r24	; 0x803976 <reactStr+0x82>
    3140:	90 93 77 39 	sts	0x3977, r25	; 0x803977 <reactStr+0x83>
                    effect = actObj1.effect[1];
                }

            } else {
                PopulateObject(route[currDepth+1], &actObj1);
                SetResponse(elements++, A_INCORRECT, L_INCORRECT, TEASER);
    3144:	82 e0       	ldi	r24, 0x02	; 2
    3146:	78 2e       	mov	r7, r24
            }
            specialInput[0] = 0;
    3148:	10 92 e3 38 	sts	0x38E3, r1	; 0x8038e3 <specialInput>
        } else {
               
        }
            
        //Input handled
        data[0] = 0;
    314c:	d8 01       	movw	r26, r16
    314e:	1c 92       	st	X, r1
        serRxDone = 0;
    3150:	10 92 37 38 	sts	0x3837, r1	; 0x803837 <serRxDone>
        RXCNT = 0;
    3154:	1d ba       	out	0x1d, r1	; 29
    return 0;
}

//
void SetResponse(uint8_t number, uint16_t address, uint16_t length, uint8_t type){
    reactStr[0][number]=address;
    3156:	8b e5       	ldi	r24, 0x5B	; 91
    3158:	9a e7       	ldi	r25, 0x7A	; 122
    315a:	80 93 f4 38 	sts	0x38F4, r24	; 0x8038f4 <reactStr>
    315e:	90 93 f5 38 	sts	0x38F5, r25	; 0x8038f5 <reactStr+0x1>
    reactStr[1][number]=length;
    3162:	82 e0       	ldi	r24, 0x02	; 2
    3164:	90 e0       	ldi	r25, 0x00	; 0
    3166:	80 93 34 39 	sts	0x3934, r24	; 0x803934 <reactStr+0x40>
    316a:	90 93 35 39 	sts	0x3935, r25	; 0x803935 <reactStr+0x41>
    reactStr[2][number]=type;
    316e:	81 e0       	ldi	r24, 0x01	; 1
    3170:	90 e0       	ldi	r25, 0x00	; 0
    3172:	80 93 74 39 	sts	0x3974, r24	; 0x803974 <reactStr+0x80>
    3176:	90 93 75 39 	sts	0x3975, r25	; 0x803975 <reactStr+0x81>
        //Input handled
        data[0] = 0;
        serRxDone = 0;
        RXCNT = 0;
        SetResponse(0, A_LF, 2, TEASER);
        if (specialInput[0]) responseList = elements; else responseList = SetStandardResponse(elements);
    317a:	80 91 e3 38 	lds	r24, 0x38E3	; 0x8038e3 <specialInput>
    317e:	88 23       	and	r24, r24
    3180:	19 f0       	breq	.+6      	; 0x3188 <ProcessInput+0xfe0>
    3182:	70 92 f3 38 	sts	0x38F3, r7	; 0x8038f3 <responseList>
    3186:	9e c0       	rjmp	.+316    	; 0x32c4 <ProcessInput+0x111c>
    3188:	87 2d       	mov	r24, r7
    318a:	17 c0       	rjmp	.+46     	; 0x31ba <ProcessInput+0x1012>

    } else {
        data[0] = 0;
    318c:	f8 01       	movw	r30, r16
    318e:	10 82       	st	Z, r1
        serRxDone = 0;
    3190:	10 92 37 38 	sts	0x3837, r1	; 0x803837 <serRxDone>
        RXCNT = 0;
    3194:	1d ba       	out	0x1d, r1	; 29
    return 0;
}

//
void SetResponse(uint8_t number, uint16_t address, uint16_t length, uint8_t type){
    reactStr[0][number]=address;
    3196:	8b e5       	ldi	r24, 0x5B	; 91
    3198:	9a e7       	ldi	r25, 0x7A	; 122
    319a:	80 93 f4 38 	sts	0x38F4, r24	; 0x8038f4 <reactStr>
    319e:	90 93 f5 38 	sts	0x38F5, r25	; 0x8038f5 <reactStr+0x1>
    reactStr[1][number]=length;
    31a2:	82 e0       	ldi	r24, 0x02	; 2
    31a4:	90 e0       	ldi	r25, 0x00	; 0
    31a6:	80 93 34 39 	sts	0x3934, r24	; 0x803934 <reactStr+0x40>
    31aa:	90 93 35 39 	sts	0x3935, r25	; 0x803935 <reactStr+0x41>
    reactStr[2][number]=type;
    31ae:	81 e0       	ldi	r24, 0x01	; 1
    31b0:	90 e0       	ldi	r25, 0x00	; 0
    31b2:	80 93 74 39 	sts	0x3974, r24	; 0x803974 <reactStr+0x80>
    31b6:	90 93 75 39 	sts	0x3975, r25	; 0x803975 <reactStr+0x81>
    } else {
        data[0] = 0;
        serRxDone = 0;
        RXCNT = 0;
        SetResponse(0, A_LF, 2, TEASER);
        responseList = SetStandardResponse(1);
    31ba:	0e 94 b0 0b 	call	0x1760	; 0x1760 <SetStandardResponse>
    31be:	80 93 f3 38 	sts	0x38F3, r24	; 0x8038f3 <responseList>
    }
    
    return 0;
    31c2:	80 c0       	rjmp	.+256    	; 0x32c4 <ProcessInput+0x111c>
    return 0;
}

//
void SetResponse(uint8_t number, uint16_t address, uint16_t length, uint8_t type){
    reactStr[0][number]=address;
    31c4:	84 ed       	ldi	r24, 0xD4	; 212
    31c6:	99 e7       	ldi	r25, 0x79	; 121
    31c8:	a6 cd       	rjmp	.-1204   	; 0x2d16 <ProcessInput+0xb6e>

        //Drop item if in inventory
        if (data[0] == 'd') {
            if ((inventory[0] == 0)&&(inventory[1] == 0)){
                SetResponse(elements++, A_EMPTYHANDS, L_EMPTYHANDS, TEASER);
            } else if (inputLen != 2) {
    31ca:	f2 e0       	ldi	r31, 0x02	; 2
    31cc:	ff 12       	cpse	r15, r31
    31ce:	1c c8       	rjmp	.-4040   	; 0x2208 <ProcessInput+0x60>
                SetResponse(elements++, A_NOTPOSSIBLE, L_NOTPOSSIBLE, TEASER);
            } else {
                for (uint8_t x=0; x<2; ++x) {
                    if (inventory[x]) {
                        if (CheckLetter(inventory[x], data[1])) {
    31d0:	f8 01       	movw	r30, r16
    31d2:	61 81       	ldd	r22, Z+1	; 0x01
    31d4:	0e 94 a3 0c 	call	0x1946	; 0x1946 <CheckLetter>
    31d8:	88 23       	and	r24, r24
    31da:	09 f4       	brne	.+2      	; 0x31de <ProcessInput+0x1036>
    31dc:	5b c0       	rjmp	.+182    	; 0x3294 <ProcessInput+0x10ec>
                SetResponse(elements++, A_EMPTYHANDS, L_EMPTYHANDS, TEASER);
            } else if (inputLen != 2) {
                SetResponse(elements++, A_NOTPOSSIBLE, L_NOTPOSSIBLE, TEASER);
            } else {
                for (uint8_t x=0; x<2; ++x) {
                    if (inventory[x]) {
    31de:	80 e0       	ldi	r24, 0x00	; 0
    31e0:	90 e0       	ldi	r25, 0x00	; 0
                        if (CheckLetter(inventory[x], data[1])) {
                            PopulateObject(inventory[x], &actObj1);
    31e2:	88 0f       	add	r24, r24
    31e4:	99 1f       	adc	r25, r25
    31e6:	9c 01       	movw	r18, r24
    31e8:	2f 5c       	subi	r18, 0xCF	; 207
    31ea:	37 4c       	sbci	r19, 0xC7	; 199
    31ec:	79 01       	movw	r14, r18
    31ee:	65 eb       	ldi	r22, 0xB5	; 181
    31f0:	78 e3       	ldi	r23, 0x38	; 56
    31f2:	d9 01       	movw	r26, r18
    31f4:	8d 91       	ld	r24, X+
    31f6:	9c 91       	ld	r25, X
    31f8:	0e 94 2c 0c 	call	0x1858	; 0x1858 <PopulateObject>
    return 0;
}

//
void SetResponse(uint8_t number, uint16_t address, uint16_t length, uint8_t type){
    reactStr[0][number]=address;
    31fc:	84 ed       	ldi	r24, 0xD4	; 212
    31fe:	97 e7       	ldi	r25, 0x77	; 119
    3200:	80 93 f6 38 	sts	0x38F6, r24	; 0x8038f6 <reactStr+0x2>
    3204:	90 93 f7 38 	sts	0x38F7, r25	; 0x8038f7 <reactStr+0x3>
    reactStr[1][number]=length;
    3208:	80 e1       	ldi	r24, 0x10	; 16
    320a:	90 e0       	ldi	r25, 0x00	; 0
    320c:	80 93 36 39 	sts	0x3936, r24	; 0x803936 <reactStr+0x42>
    3210:	90 93 37 39 	sts	0x3937, r25	; 0x803937 <reactStr+0x43>
    reactStr[2][number]=type;
    3214:	81 e0       	ldi	r24, 0x01	; 1
    3216:	90 e0       	ldi	r25, 0x00	; 0
    3218:	80 93 76 39 	sts	0x3976, r24	; 0x803976 <reactStr+0x82>
    321c:	90 93 77 39 	sts	0x3977, r25	; 0x803977 <reactStr+0x83>
                for (uint8_t x=0; x<2; ++x) {
                    if (inventory[x]) {
                        if (CheckLetter(inventory[x], data[1])) {
                            PopulateObject(inventory[x], &actObj1);
                            SetResponse(elements++, A_DROPPING, L_DROPPING, TEASER);
                            SetResponse(elements++, actObj1.addrStr[NAME], actObj1.lenStr[NAME], GAME);
    3220:	20 91 cf 38 	lds	r18, 0x38CF	; 0x8038cf <actObj1.3989+0x1a>
    3224:	30 91 d0 38 	lds	r19, 0x38D0	; 0x8038d0 <actObj1.3989+0x1b>
    return 0;
}

//
void SetResponse(uint8_t number, uint16_t address, uint16_t length, uint8_t type){
    reactStr[0][number]=address;
    3228:	40 91 c1 38 	lds	r20, 0x38C1	; 0x8038c1 <actObj1.3989+0xc>
    322c:	50 91 c2 38 	lds	r21, 0x38C2	; 0x8038c2 <actObj1.3989+0xd>
    3230:	40 93 f8 38 	sts	0x38F8, r20	; 0x8038f8 <reactStr+0x4>
    3234:	50 93 f9 38 	sts	0x38F9, r21	; 0x8038f9 <reactStr+0x5>
    reactStr[1][number]=length;
    3238:	20 93 38 39 	sts	0x3938, r18	; 0x803938 <reactStr+0x44>
    323c:	30 93 39 39 	sts	0x3939, r19	; 0x803939 <reactStr+0x45>
    reactStr[2][number]=type;
    3240:	10 92 78 39 	sts	0x3978, r1	; 0x803978 <reactStr+0x84>
    3244:	10 92 79 39 	sts	0x3979, r1	; 0x803979 <reactStr+0x85>
    return 0;
}

//
void SetResponse(uint8_t number, uint16_t address, uint16_t length, uint8_t type){
    reactStr[0][number]=address;
    3248:	2b e5       	ldi	r18, 0x5B	; 91
    324a:	3a e7       	ldi	r19, 0x7A	; 122
    324c:	20 93 fa 38 	sts	0x38FA, r18	; 0x8038fa <reactStr+0x6>
    3250:	30 93 fb 38 	sts	0x38FB, r19	; 0x8038fb <reactStr+0x7>
    reactStr[1][number]=length;
    3254:	22 e0       	ldi	r18, 0x02	; 2
    3256:	30 e0       	ldi	r19, 0x00	; 0
    3258:	20 93 3a 39 	sts	0x393A, r18	; 0x80393a <reactStr+0x46>
    325c:	30 93 3b 39 	sts	0x393B, r19	; 0x80393b <reactStr+0x47>
    reactStr[2][number]=type;
    3260:	80 93 7a 39 	sts	0x397A, r24	; 0x80397a <reactStr+0x86>
    3264:	90 93 7b 39 	sts	0x397B, r25	; 0x80397b <reactStr+0x87>
    return 0;
}

//
void SetResponse(uint8_t number, uint16_t address, uint16_t length, uint8_t type){
    reactStr[0][number]=address;
    3268:	27 e9       	ldi	r18, 0x97	; 151
    326a:	37 e7       	ldi	r19, 0x77	; 119
    326c:	20 93 fc 38 	sts	0x38FC, r18	; 0x8038fc <reactStr+0x8>
    3270:	30 93 fd 38 	sts	0x38FD, r19	; 0x8038fd <reactStr+0x9>
    reactStr[1][number]=length;
    3274:	2d e3       	ldi	r18, 0x3D	; 61
    3276:	30 e0       	ldi	r19, 0x00	; 0
    3278:	20 93 3c 39 	sts	0x393C, r18	; 0x80393c <reactStr+0x48>
    327c:	30 93 3d 39 	sts	0x393D, r19	; 0x80393d <reactStr+0x49>
    reactStr[2][number]=type;
    3280:	80 93 7c 39 	sts	0x397C, r24	; 0x80397c <reactStr+0x88>
    3284:	90 93 7d 39 	sts	0x397D, r25	; 0x80397d <reactStr+0x89>
                            PopulateObject(inventory[x], &actObj1);
                            SetResponse(elements++, A_DROPPING, L_DROPPING, TEASER);
                            SetResponse(elements++, actObj1.addrStr[NAME], actObj1.lenStr[NAME], GAME);
                            SetResponse(elements++, A_LF, 2, TEASER);
                            SetResponse(elements++, A_RETURNING, L_RETURNING, TEASER);
                            inventory[x] = 0;
    3288:	f7 01       	movw	r30, r14
    328a:	10 82       	st	Z, r1
    328c:	11 82       	std	Z+1, r1	; 0x01
                        if (CheckLetter(inventory[x], data[1])) {
                            PopulateObject(inventory[x], &actObj1);
                            SetResponse(elements++, A_DROPPING, L_DROPPING, TEASER);
                            SetResponse(elements++, actObj1.addrStr[NAME], actObj1.lenStr[NAME], GAME);
                            SetResponse(elements++, A_LF, 2, TEASER);
                            SetResponse(elements++, A_RETURNING, L_RETURNING, TEASER);
    328e:	f5 e0       	ldi	r31, 0x05	; 5
    3290:	7f 2e       	mov	r7, r31
                            inventory[x] = 0;
                            break;
    3292:	5c cf       	rjmp	.-328    	; 0x314c <ProcessInput+0xfa4>
                SetResponse(elements++, A_EMPTYHANDS, L_EMPTYHANDS, TEASER);
            } else if (inputLen != 2) {
                SetResponse(elements++, A_NOTPOSSIBLE, L_NOTPOSSIBLE, TEASER);
            } else {
                for (uint8_t x=0; x<2; ++x) {
                    if (inventory[x]) {
    3294:	80 91 33 38 	lds	r24, 0x3833	; 0x803833 <inventory+0x2>
    3298:	90 91 34 38 	lds	r25, 0x3834	; 0x803834 <inventory+0x3>
    329c:	00 97       	sbiw	r24, 0x00	; 0
    329e:	49 f0       	breq	.+18     	; 0x32b2 <ProcessInput+0x110a>
                        if (CheckLetter(inventory[x], data[1])) {
    32a0:	f8 01       	movw	r30, r16
    32a2:	61 81       	ldd	r22, Z+1	; 0x01
    32a4:	0e 94 a3 0c 	call	0x1946	; 0x1946 <CheckLetter>
    32a8:	88 23       	and	r24, r24
    32aa:	19 f0       	breq	.+6      	; 0x32b2 <ProcessInput+0x110a>
                SetResponse(elements++, A_EMPTYHANDS, L_EMPTYHANDS, TEASER);
            } else if (inputLen != 2) {
                SetResponse(elements++, A_NOTPOSSIBLE, L_NOTPOSSIBLE, TEASER);
            } else {
                for (uint8_t x=0; x<2; ++x) {
                    if (inventory[x]) {
    32ac:	81 e0       	ldi	r24, 0x01	; 1
    32ae:	90 e0       	ldi	r25, 0x00	; 0
    32b0:	98 cf       	rjmp	.-208    	; 0x31e2 <ProcessInput+0x103a>
    return 0;
}

//
void SetResponse(uint8_t number, uint16_t address, uint16_t length, uint8_t type){
    reactStr[0][number]=address;
    32b2:	84 e6       	ldi	r24, 0x64	; 100
    32b4:	99 e7       	ldi	r25, 0x79	; 121
    32b6:	80 93 f6 38 	sts	0x38F6, r24	; 0x8038f6 <reactStr+0x2>
    32ba:	90 93 f7 38 	sts	0x38F7, r25	; 0x8038f7 <reactStr+0x3>
    reactStr[1][number]=length;
    32be:	81 e2       	ldi	r24, 0x21	; 33
    32c0:	90 e0       	ldi	r25, 0x00	; 0
    32c2:	30 c8       	rjmp	.-4000   	; 0x2324 <ProcessInput+0x17c>
        SetResponse(0, A_LF, 2, TEASER);
        responseList = SetStandardResponse(1);
    }
    
    return 0;
}
    32c4:	80 e0       	ldi	r24, 0x00	; 0
    32c6:	2a 96       	adiw	r28, 0x0a	; 10
    32c8:	cd bf       	out	0x3d, r28	; 61
    32ca:	de bf       	out	0x3e, r29	; 62
    32cc:	df 91       	pop	r29
    32ce:	cf 91       	pop	r28
    32d0:	1f 91       	pop	r17
    32d2:	0f 91       	pop	r16
    32d4:	ff 90       	pop	r15
    32d6:	ef 90       	pop	r14
    32d8:	df 90       	pop	r13
    32da:	cf 90       	pop	r12
    32dc:	bf 90       	pop	r11
    32de:	af 90       	pop	r10
    32e0:	9f 90       	pop	r9
    32e2:	8f 90       	pop	r8
    32e4:	7f 90       	pop	r7
    32e6:	6f 90       	pop	r6
    32e8:	5f 90       	pop	r5
    32ea:	4f 90       	pop	r4
    32ec:	08 95       	ret

000032ee <TextAdventure>:


//MAIN GAME STRUCTURE
uint8_t TextAdventure(){
    32ee:	cf 93       	push	r28
    static uint8_t serInput[RXLEN];
    
    //Still sending data to serial?
    if (CheckSend()) return 1;
    32f0:	0e 94 82 0d 	call	0x1b04	; 0x1b04 <CheckSend>
    32f4:	88 23       	and	r24, r24
    32f6:	11 f0       	breq	.+4      	; 0x32fc <TextAdventure+0xe>
    32f8:	c1 e0       	ldi	r28, 0x01	; 1
    32fa:	11 c0       	rjmp	.+34     	; 0x331e <TextAdventure+0x30>

    //Not sending? Process next response part to send, if any.
    if (CheckResponse()) return 1;        
    32fc:	0e 94 ef 0d 	call	0x1bde	; 0x1bde <CheckResponse>
    3300:	81 11       	cpse	r24, r1
    3302:	fa cf       	rjmp	.-12     	; 0x32f8 <TextAdventure+0xa>

    //No responses to send, check if there is user input.
    if (CheckInput(&serInput[0])) return 2; 
    3304:	89 e4       	ldi	r24, 0x49	; 73
    3306:	98 e3       	ldi	r25, 0x38	; 56
    3308:	0e 94 36 0e 	call	0x1c6c	; 0x1c6c <CheckInput>
    330c:	c8 2f       	mov	r28, r24
    330e:	81 11       	cpse	r24, r1
    3310:	05 c0       	rjmp	.+10     	; 0x331c <TextAdventure+0x2e>

    //Input found, process and save (changes only)
    ProcessInput(&serInput[0]);
    3312:	89 e4       	ldi	r24, 0x49	; 73
    3314:	98 e3       	ldi	r25, 0x38	; 56
    3316:	0e 94 d4 10 	call	0x21a8	; 0x21a8 <ProcessInput>

    return 0;
    331a:	01 c0       	rjmp	.+2      	; 0x331e <TextAdventure+0x30>

    //Not sending? Process next response part to send, if any.
    if (CheckResponse()) return 1;        

    //No responses to send, check if there is user input.
    if (CheckInput(&serInput[0])) return 2; 
    331c:	c2 e0       	ldi	r28, 0x02	; 2

    //Input found, process and save (changes only)
    ProcessInput(&serInput[0]);

    return 0;
    331e:	8c 2f       	mov	r24, r28
    3320:	cf 91       	pop	r28
    3322:	08 95       	ret

00003324 <main>:


//This is where it begins, inits first and main program in while(1) loop.
int main(void)
{
    Setup();
    3324:	0e 94 e1 03 	call	0x7c2	; 0x7c2 <Setup>

    SerSpeed(0xff);
    3328:	8f ef       	ldi	r24, 0xFF	; 255
    332a:	0e 94 4e 07 	call	0xe9c	; 0xe9c <SerSpeed>
    332e:	a6 e3       	ldi	r26, 0x36	; 54
    3330:	b5 eb       	ldi	r27, 0xB5	; 181
    ////Turn on LEDs on low setting to check for interrupt glitches

    //"Hacker"
    for (uint8_t n=0; n<6; n++){
        iLED[HCKR[R][n]] = 1;
    3332:	81 e0       	ldi	r24, 0x01	; 1
    3334:	ed 91       	ld	r30, X+
    3336:	f0 e0       	ldi	r31, 0x00	; 0
    3338:	e5 54       	subi	r30, 0x45	; 69
    333a:	f5 4c       	sbci	r31, 0xC5	; 197
    333c:	80 83       	st	Z, r24
        iLED[HCKR[G][n]] = 1;
    333e:	15 96       	adiw	r26, 0x05	; 5
    3340:	ec 91       	ld	r30, X
    3342:	15 97       	sbiw	r26, 0x05	; 5
    3344:	f0 e0       	ldi	r31, 0x00	; 0
    3346:	e5 54       	subi	r30, 0x45	; 69
    3348:	f5 4c       	sbci	r31, 0xC5	; 197
    334a:	80 83       	st	Z, r24

    SerSpeed(0xff);
    ////Turn on LEDs on low setting to check for interrupt glitches

    //"Hacker"
    for (uint8_t n=0; n<6; n++){
    334c:	25 eb       	ldi	r18, 0xB5	; 181
    334e:	ac 33       	cpi	r26, 0x3C	; 60
    3350:	b2 07       	cpc	r27, r18
    3352:	81 f7       	brne	.-32     	; 0x3334 <main+0x10>
    3354:	e8 e2       	ldi	r30, 0x28	; 40
    3356:	f5 eb       	ldi	r31, 0xB5	; 181
        iLED[HCKR[G][n]] = 1;
    }

    //"Wings"
    for (uint8_t n=0; n<5; n++){
        iLED[WING[L][n]] = 1;
    3358:	91 e0       	ldi	r25, 0x01	; 1
    335a:	ef 01       	movw	r28, r30
    335c:	a5 81       	ldd	r26, Z+5	; 0x05
    335e:	b0 e0       	ldi	r27, 0x00	; 0
    3360:	a5 54       	subi	r26, 0x45	; 69
    3362:	b5 4c       	sbci	r27, 0xC5	; 197
    3364:	81 e0       	ldi	r24, 0x01	; 1
    3366:	9c 93       	st	X, r25
    3368:	31 96       	adiw	r30, 0x01	; 1
        iLED[WING[R][n]] = 1;
    336a:	a8 81       	ld	r26, Y
    336c:	b0 e0       	ldi	r27, 0x00	; 0
    336e:	a5 54       	subi	r26, 0x45	; 69
    3370:	b5 4c       	sbci	r27, 0xC5	; 197
    3372:	9c 93       	st	X, r25
        iLED[HCKR[R][n]] = 1;
        iLED[HCKR[G][n]] = 1;
    }

    //"Wings"
    for (uint8_t n=0; n<5; n++){
    3374:	25 eb       	ldi	r18, 0xB5	; 181
    3376:	ed 32       	cpi	r30, 0x2D	; 45
    3378:	f2 07       	cpc	r31, r18
    337a:	79 f7       	brne	.-34     	; 0x335a <main+0x36>
        iLED[WING[L][n]] = 1;
        iLED[WING[R][n]] = 1;
    }    

    //"Others"
    iLED[EYE[G][R]] = 1;
    337c:	e0 91 34 b5 	lds	r30, 0xB534	; 0x80b534 <__bss_end+0x7a29>
    3380:	f0 e0       	ldi	r31, 0x00	; 0
    3382:	e5 54       	subi	r30, 0x45	; 69
    3384:	f5 4c       	sbci	r31, 0xC5	; 197
    3386:	80 83       	st	Z, r24
    iLED[EYE[G][L]] = 1;
    3388:	e0 91 35 b5 	lds	r30, 0xB535	; 0x80b535 <__bss_end+0x7a2a>
    338c:	f0 e0       	ldi	r31, 0x00	; 0
    338e:	e5 54       	subi	r30, 0x45	; 69
    3390:	f5 4c       	sbci	r31, 0xC5	; 197
    3392:	80 83       	st	Z, r24
    iLED[EYE[R][R]] = 1;
    3394:	e0 91 32 b5 	lds	r30, 0xB532	; 0x80b532 <__bss_end+0x7a27>
    3398:	f0 e0       	ldi	r31, 0x00	; 0
    339a:	e5 54       	subi	r30, 0x45	; 69
    339c:	f5 4c       	sbci	r31, 0xC5	; 197
    339e:	80 83       	st	Z, r24
    iLED[EYE[R][L]] = 1;
    33a0:	e0 91 33 b5 	lds	r30, 0xB533	; 0x80b533 <__bss_end+0x7a28>
    33a4:	f0 e0       	ldi	r31, 0x00	; 0
    33a6:	e5 54       	subi	r30, 0x45	; 69
    33a8:	f5 4c       	sbci	r31, 0xC5	; 197
    33aa:	80 83       	st	Z, r24
    iLED[SCARAB[R]] = 1;
    33ac:	e0 91 26 b5 	lds	r30, 0xB526	; 0x80b526 <__bss_end+0x7a1b>
    33b0:	f0 e0       	ldi	r31, 0x00	; 0
    33b2:	e5 54       	subi	r30, 0x45	; 69
    33b4:	f5 4c       	sbci	r31, 0xC5	; 197
    33b6:	80 83       	st	Z, r24
    iLED[SCARAB[G]] = 1;
    33b8:	e0 91 27 b5 	lds	r30, 0xB527	; 0x80b527 <__bss_end+0x7a1c>
    33bc:	f0 e0       	ldi	r31, 0x00	; 0
    33be:	e5 54       	subi	r30, 0x45	; 69
    33c0:	f5 4c       	sbci	r31, 0xC5	; 197
    33c2:	80 83       	st	Z, r24
    iLED[BADGER] = 1;
    33c4:	e0 91 25 b5 	lds	r30, 0xB525	; 0x80b525 <__bss_end+0x7a1a>
    33c8:	f0 e0       	ldi	r31, 0x00	; 0
    33ca:	e5 54       	subi	r30, 0x45	; 69
    33cc:	f5 4c       	sbci	r31, 0xC5	; 197
    33ce:	80 83       	st	Z, r24
    iLED[CAT] = 1;
    33d0:	e0 91 24 b5 	lds	r30, 0xB524	; 0x80b524 <__bss_end+0x7a19>
    33d4:	f0 e0       	ldi	r31, 0x00	; 0
    33d6:	e5 54       	subi	r30, 0x45	; 69
    33d8:	f5 4c       	sbci	r31, 0xC5	; 197
    33da:	80 83       	st	Z, r24

    effect = 32;
    33dc:	80 e2       	ldi	r24, 0x20	; 32
    33de:	90 e0       	ldi	r25, 0x00	; 0
    33e0:	80 93 2d 38 	sts	0x382D, r24	; 0x80382d <effect>
    33e4:	90 93 2e 38 	sts	0x382E, r25	; 0x80382e <effect+0x1>
    LoadGameState();
    33e8:	0e 94 23 09 	call	0x1246	; 0x1246 <LoadGameState>
    while (1)
    {
        


        if (GenerateAudio()){
    33ec:	0e 94 f1 09 	call	0x13e2	; 0x13e2 <GenerateAudio>
    33f0:	88 23       	and	r24, r24
    33f2:	e1 f3       	breq	.-8      	; 0x33ec <main+0xc8>
            buttonState = CheckButtons(buttonState);
    33f4:	80 91 07 38 	lds	r24, 0x3807	; 0x803807 <buttonState>
    33f8:	0e 94 5f 07 	call	0xebe	; 0xebe <CheckButtons>
    33fc:	80 93 07 38 	sts	0x3807, r24	; 0x803807 <buttonState>
            buttonMark = 0;
    3400:	10 92 35 38 	sts	0x3835, r1	; 0x803835 <buttonMark>
            
            GenerateBlinks();           
    3404:	0e 94 b5 09 	call	0x136a	; 0x136a <GenerateBlinks>
            
            //Main game, to complete: Finish sub-game MagnetMaze and MakeFriends too.
            TextAdventure();
    3408:	72 df       	rcall	.-284    	; 0x32ee <TextAdventure>
          
            //Other games & user interaction checks
            MagnetMaze();
    340a:	0e 94 99 02 	call	0x532	; 0x532 <MagnetMaze>
            BastetDictates();
    340e:	0e 94 bc 0a 	call	0x1578	; 0x1578 <BastetDictates>
            LanyardCode();
    3412:	0e 94 a1 01 	call	0x342	; 0x342 <LanyardCode>
            MakeFriends();
    3416:	0e 94 5c 00 	call	0xb8	; 0xb8 <MakeFriends>
            SaveGameState(); 
    341a:	0e 94 31 08 	call	0x1062	; 0x1062 <SaveGameState>
            
            //Check light sensor status (added hysteresis to preserve writing cycles to internal EEPROM)
            if (adcPhot < 10) WriteStatusBit(116, 1);
    341e:	80 91 96 3a 	lds	r24, 0x3A96	; 0x803a96 <adcPhot>
    3422:	90 91 97 3a 	lds	r25, 0x3A97	; 0x803a97 <adcPhot+0x1>
    3426:	0a 97       	sbiw	r24, 0x0a	; 10
    3428:	20 f4       	brcc	.+8      	; 0x3432 <main+0x10e>
    342a:	61 e0       	ldi	r22, 0x01	; 1
    342c:	84 e7       	ldi	r24, 0x74	; 116
    342e:	0e 94 b8 08 	call	0x1170	; 0x1170 <WriteStatusBit>
            if (adcPhot > 100) WriteStatusBit(116, 0);
    3432:	80 91 96 3a 	lds	r24, 0x3A96	; 0x803a96 <adcPhot>
    3436:	90 91 97 3a 	lds	r25, 0x3A97	; 0x803a97 <adcPhot+0x1>
    343a:	85 36       	cpi	r24, 0x65	; 101
    343c:	91 05       	cpc	r25, r1
    343e:	20 f0       	brcs	.+8      	; 0x3448 <main+0x124>
    3440:	60 e0       	ldi	r22, 0x00	; 0
    3442:	84 e7       	ldi	r24, 0x74	; 116
    3444:	0e 94 b8 08 	call	0x1170	; 0x1170 <WriteStatusBit>

            //Check temperature 
            HotSummer();
    3448:	0e 94 50 09 	call	0x12a0	; 0x12a0 <HotSummer>
    344c:	cf cf       	rjmp	.-98     	; 0x33ec <main+0xc8>

0000344e <__udivmodqi4>:
    344e:	99 1b       	sub	r25, r25
    3450:	79 e0       	ldi	r23, 0x09	; 9
    3452:	04 c0       	rjmp	.+8      	; 0x345c <__udivmodqi4_ep>

00003454 <__udivmodqi4_loop>:
    3454:	99 1f       	adc	r25, r25
    3456:	96 17       	cp	r25, r22
    3458:	08 f0       	brcs	.+2      	; 0x345c <__udivmodqi4_ep>
    345a:	96 1b       	sub	r25, r22

0000345c <__udivmodqi4_ep>:
    345c:	88 1f       	adc	r24, r24
    345e:	7a 95       	dec	r23
    3460:	c9 f7       	brne	.-14     	; 0x3454 <__udivmodqi4_loop>
    3462:	80 95       	com	r24
    3464:	08 95       	ret

00003466 <__udivmodhi4>:
    3466:	aa 1b       	sub	r26, r26
    3468:	bb 1b       	sub	r27, r27
    346a:	51 e1       	ldi	r21, 0x11	; 17
    346c:	07 c0       	rjmp	.+14     	; 0x347c <__udivmodhi4_ep>

0000346e <__udivmodhi4_loop>:
    346e:	aa 1f       	adc	r26, r26
    3470:	bb 1f       	adc	r27, r27
    3472:	a6 17       	cp	r26, r22
    3474:	b7 07       	cpc	r27, r23
    3476:	10 f0       	brcs	.+4      	; 0x347c <__udivmodhi4_ep>
    3478:	a6 1b       	sub	r26, r22
    347a:	b7 0b       	sbc	r27, r23

0000347c <__udivmodhi4_ep>:
    347c:	88 1f       	adc	r24, r24
    347e:	99 1f       	adc	r25, r25
    3480:	5a 95       	dec	r21
    3482:	a9 f7       	brne	.-22     	; 0x346e <__udivmodhi4_loop>
    3484:	80 95       	com	r24
    3486:	90 95       	com	r25
    3488:	bc 01       	movw	r22, r24
    348a:	cd 01       	movw	r24, r26
    348c:	08 95       	ret

0000348e <__divmodhi4>:
    348e:	97 fb       	bst	r25, 7
    3490:	07 2e       	mov	r0, r23
    3492:	16 f4       	brtc	.+4      	; 0x3498 <__divmodhi4+0xa>
    3494:	00 94       	com	r0
    3496:	06 d0       	rcall	.+12     	; 0x34a4 <__divmodhi4_neg1>
    3498:	77 fd       	sbrc	r23, 7
    349a:	08 d0       	rcall	.+16     	; 0x34ac <__divmodhi4_neg2>
    349c:	e4 df       	rcall	.-56     	; 0x3466 <__udivmodhi4>
    349e:	07 fc       	sbrc	r0, 7
    34a0:	05 d0       	rcall	.+10     	; 0x34ac <__divmodhi4_neg2>
    34a2:	3e f4       	brtc	.+14     	; 0x34b2 <__divmodhi4_exit>

000034a4 <__divmodhi4_neg1>:
    34a4:	90 95       	com	r25
    34a6:	81 95       	neg	r24
    34a8:	9f 4f       	sbci	r25, 0xFF	; 255
    34aa:	08 95       	ret

000034ac <__divmodhi4_neg2>:
    34ac:	70 95       	com	r23
    34ae:	61 95       	neg	r22
    34b0:	7f 4f       	sbci	r23, 0xFF	; 255

000034b2 <__divmodhi4_exit>:
    34b2:	08 95       	ret

000034b4 <__udivmodsi4>:
    34b4:	a1 e2       	ldi	r26, 0x21	; 33
    34b6:	1a 2e       	mov	r1, r26
    34b8:	aa 1b       	sub	r26, r26
    34ba:	bb 1b       	sub	r27, r27
    34bc:	fd 01       	movw	r30, r26
    34be:	0d c0       	rjmp	.+26     	; 0x34da <__udivmodsi4_ep>

000034c0 <__udivmodsi4_loop>:
    34c0:	aa 1f       	adc	r26, r26
    34c2:	bb 1f       	adc	r27, r27
    34c4:	ee 1f       	adc	r30, r30
    34c6:	ff 1f       	adc	r31, r31
    34c8:	a2 17       	cp	r26, r18
    34ca:	b3 07       	cpc	r27, r19
    34cc:	e4 07       	cpc	r30, r20
    34ce:	f5 07       	cpc	r31, r21
    34d0:	20 f0       	brcs	.+8      	; 0x34da <__udivmodsi4_ep>
    34d2:	a2 1b       	sub	r26, r18
    34d4:	b3 0b       	sbc	r27, r19
    34d6:	e4 0b       	sbc	r30, r20
    34d8:	f5 0b       	sbc	r31, r21

000034da <__udivmodsi4_ep>:
    34da:	66 1f       	adc	r22, r22
    34dc:	77 1f       	adc	r23, r23
    34de:	88 1f       	adc	r24, r24
    34e0:	99 1f       	adc	r25, r25
    34e2:	1a 94       	dec	r1
    34e4:	69 f7       	brne	.-38     	; 0x34c0 <__udivmodsi4_loop>
    34e6:	60 95       	com	r22
    34e8:	70 95       	com	r23
    34ea:	80 95       	com	r24
    34ec:	90 95       	com	r25
    34ee:	9b 01       	movw	r18, r22
    34f0:	ac 01       	movw	r20, r24
    34f2:	bd 01       	movw	r22, r26
    34f4:	cf 01       	movw	r24, r30
    34f6:	08 95       	ret

000034f8 <_exit>:
    34f8:	f8 94       	cli

000034fa <__stop_program>:
    34fa:	ff cf       	rjmp	.-2      	; 0x34fa <__stop_program>
