
ISR_IO.elf:     file format elf32-avr

Sections:
Idx Name          Size      VMA       LMA       File off  Algn
  0 .data         00000028  00803800  000037e8  0000389c  2**0
                  CONTENTS, ALLOC, LOAD, DATA
  1 .text         00003706  00000000  00000000  000000b4  2**1
                  CONTENTS, ALLOC, LOAD, READONLY, CODE
  2 .rodata       000000e2  0000b706  00003706  000037ba  2**0
                  CONTENTS, ALLOC, LOAD, READONLY, DATA
  3 .bss          000002de  00803828  00803828  000038c4  2**0
                  ALLOC
  4 .comment      00000030  00000000  00000000  000038c4  2**0
                  CONTENTS, READONLY
  5 .note.gnu.avr.deviceinfo 00000040  00000000  00000000  000038f4  2**2
                  CONTENTS, READONLY
  6 .debug_aranges 000002d8  00000000  00000000  00003934  2**0
                  CONTENTS, READONLY, DEBUGGING
  7 .debug_info   000065d6  00000000  00000000  00003c0c  2**0
                  CONTENTS, READONLY, DEBUGGING
  8 .debug_abbrev 0000271f  00000000  00000000  0000a1e2  2**0
                  CONTENTS, READONLY, DEBUGGING
  9 .debug_line   000034d1  00000000  00000000  0000c901  2**0
                  CONTENTS, READONLY, DEBUGGING
 10 .debug_frame  000008d4  00000000  00000000  0000fdd4  2**2
                  CONTENTS, READONLY, DEBUGGING
 11 .debug_str    00001938  00000000  00000000  000106a8  2**0
                  CONTENTS, READONLY, DEBUGGING
 12 .debug_loc    00004241  00000000  00000000  00011fe0  2**0
                  CONTENTS, READONLY, DEBUGGING
 13 .debug_ranges 00000358  00000000  00000000  00016221  2**0
                  CONTENTS, READONLY, DEBUGGING

Disassembly of section .text:

00000000 <__vectors>:
       0:	3d c0       	rjmp	.+122    	; 0x7c <__ctors_end>
       2:	00 00       	nop
       4:	58 c0       	rjmp	.+176    	; 0xb6 <__bad_interrupt>
       6:	00 00       	nop
       8:	56 c0       	rjmp	.+172    	; 0xb6 <__bad_interrupt>
       a:	00 00       	nop
       c:	54 c0       	rjmp	.+168    	; 0xb6 <__bad_interrupt>
       e:	00 00       	nop
      10:	52 c0       	rjmp	.+164    	; 0xb6 <__bad_interrupt>
      12:	00 00       	nop
      14:	50 c0       	rjmp	.+160    	; 0xb6 <__bad_interrupt>
      16:	00 00       	nop
      18:	85 c6       	rjmp	.+3338   	; 0xd24 <__vector_6>
      1a:	00 00       	nop
      1c:	cd c6       	rjmp	.+3482   	; 0xdb8 <__vector_7>
      1e:	00 00       	nop
      20:	b5 c4       	rjmp	.+2410   	; 0x98c <__vector_8>
      22:	00 00       	nop
      24:	48 c0       	rjmp	.+144    	; 0xb6 <__bad_interrupt>
      26:	00 00       	nop
      28:	46 c0       	rjmp	.+140    	; 0xb6 <__bad_interrupt>
      2a:	00 00       	nop
      2c:	44 c0       	rjmp	.+136    	; 0xb6 <__bad_interrupt>
      2e:	00 00       	nop
      30:	42 c0       	rjmp	.+132    	; 0xb6 <__bad_interrupt>
      32:	00 00       	nop
      34:	fc c4       	rjmp	.+2552   	; 0xa2e <__vector_13>
      36:	00 00       	nop
      38:	2d c5       	rjmp	.+2650   	; 0xa94 <__vector_14>
      3a:	00 00       	nop
      3c:	3c c0       	rjmp	.+120    	; 0xb6 <__bad_interrupt>
      3e:	00 00       	nop
      40:	3a c0       	rjmp	.+116    	; 0xb6 <__bad_interrupt>
      42:	00 00       	nop
      44:	38 c0       	rjmp	.+112    	; 0xb6 <__bad_interrupt>
      46:	00 00       	nop
      48:	36 c0       	rjmp	.+108    	; 0xb6 <__bad_interrupt>
      4a:	00 00       	nop
      4c:	34 c0       	rjmp	.+104    	; 0xb6 <__bad_interrupt>
      4e:	00 00       	nop
      50:	eb c5       	rjmp	.+3030   	; 0xc28 <__vector_20>
      52:	00 00       	nop
      54:	30 c0       	rjmp	.+96     	; 0xb6 <__bad_interrupt>
      56:	00 00       	nop
      58:	1d c6       	rjmp	.+3130   	; 0xc94 <__vector_22>
      5a:	00 00       	nop
      5c:	2c c0       	rjmp	.+88     	; 0xb6 <__bad_interrupt>
      5e:	00 00       	nop
      60:	2a c0       	rjmp	.+84     	; 0xb6 <__bad_interrupt>
      62:	00 00       	nop
      64:	28 c0       	rjmp	.+80     	; 0xb6 <__bad_interrupt>
      66:	00 00       	nop
      68:	26 c0       	rjmp	.+76     	; 0xb6 <__bad_interrupt>
      6a:	00 00       	nop
      6c:	66 c5       	rjmp	.+2764   	; 0xb3a <__vector_27>
      6e:	00 00       	nop
      70:	bf c5       	rjmp	.+2942   	; 0xbf0 <__vector_28>
      72:	00 00       	nop
      74:	20 c0       	rjmp	.+64     	; 0xb6 <__bad_interrupt>
      76:	00 00       	nop
      78:	1e c0       	rjmp	.+60     	; 0xb6 <__bad_interrupt>
	...

0000007c <__ctors_end>:
      7c:	11 24       	eor	r1, r1
      7e:	1f be       	out	0x3f, r1	; 63
      80:	cf ef       	ldi	r28, 0xFF	; 255
      82:	cd bf       	out	0x3d, r28	; 61
      84:	df e3       	ldi	r29, 0x3F	; 63
      86:	de bf       	out	0x3e, r29	; 62

00000088 <__do_copy_data>:
      88:	18 e3       	ldi	r17, 0x38	; 56
      8a:	a0 e0       	ldi	r26, 0x00	; 0
      8c:	b8 e3       	ldi	r27, 0x38	; 56
      8e:	e8 ee       	ldi	r30, 0xE8	; 232
      90:	f7 e3       	ldi	r31, 0x37	; 55
      92:	02 c0       	rjmp	.+4      	; 0x98 <__do_copy_data+0x10>
      94:	05 90       	lpm	r0, Z+
      96:	0d 92       	st	X+, r0
      98:	a8 32       	cpi	r26, 0x28	; 40
      9a:	b1 07       	cpc	r27, r17
      9c:	d9 f7       	brne	.-10     	; 0x94 <__do_copy_data+0xc>

0000009e <__do_clear_bss>:
      9e:	2b e3       	ldi	r18, 0x3B	; 59
      a0:	a8 e2       	ldi	r26, 0x28	; 40
      a2:	b8 e3       	ldi	r27, 0x38	; 56
      a4:	01 c0       	rjmp	.+2      	; 0xa8 <.do_clear_bss_start>

000000a6 <.do_clear_bss_loop>:
      a6:	1d 92       	st	X+, r1

000000a8 <.do_clear_bss_start>:
      a8:	a6 30       	cpi	r26, 0x06	; 6
      aa:	b2 07       	cpc	r27, r18
      ac:	e1 f7       	brne	.-8      	; 0xa6 <.do_clear_bss_loop>
      ae:	0e 94 98 1a 	call	0x3530	; 0x3530 <main>
      b2:	0c 94 81 1b 	jmp	0x3702	; 0x3702 <_exit>

000000b6 <__bad_interrupt>:
      b6:	a4 cf       	rjmp	.-184    	; 0x0 <__vectors>

000000b8 <I2C_init>:
// the Atmel device documentation mentions a special command for repeated start TWI_MCMD_REPSTART_gc,
// but this is not used in Atmel's demo code, so we don't use it either

void I2C_rep_start(uint8_t shifted_addr)						    // send repeated start, device_addr + LSB set if READ
{
	TWI0.MADDR = shifted_addr;	
      b8:	81 e0       	ldi	r24, 0x01	; 1
      ba:	80 93 22 04 	sts	0x0422, r24	; 0x800422 <__TEXT_REGION_LENGTH__+0x700422>
      be:	e6 e2       	ldi	r30, 0x26	; 38
      c0:	f4 e0       	ldi	r31, 0x04	; 4
      c2:	80 83       	st	Z, r24
      c4:	10 92 30 04 	sts	0x0430, r1	; 0x800430 <__TEXT_REGION_LENGTH__+0x700430>
      c8:	a1 e2       	ldi	r26, 0x21	; 33
      ca:	b4 e0       	ldi	r27, 0x04	; 4
      cc:	92 e0       	ldi	r25, 0x02	; 2
      ce:	9c 93       	st	X, r25
      d0:	90 83       	st	Z, r25
      d2:	10 92 31 04 	sts	0x0431, r1	; 0x800431 <__TEXT_REGION_LENGTH__+0x700431>
      d6:	e0 e1       	ldi	r30, 0x10	; 16
      d8:	f8 e0       	ldi	r31, 0x08	; 8
      da:	97 e0       	ldi	r25, 0x07	; 7
      dc:	96 83       	std	Z+6, r25	; 0x06
      de:	98 e0       	ldi	r25, 0x08	; 8
      e0:	94 83       	std	Z+4, r25	; 0x04
      e2:	83 83       	std	Z+3, r24	; 0x03
      e4:	8c 93       	st	X, r24
      e6:	85 81       	ldd	r24, Z+5	; 0x05
      e8:	81 60       	ori	r24, 0x01	; 1
      ea:	85 83       	std	Z+5, r24	; 0x05
      ec:	85 81       	ldd	r24, Z+5	; 0x05
      ee:	84 6c       	ori	r24, 0xC4	; 196
      f0:	85 83       	std	Z+5, r24	; 0x05
      f2:	08 95       	ret

000000f4 <I2C_recover>:
      f4:	80 91 14 08 	lds	r24, 0x0814	; 0x800814 <__TEXT_REGION_LENGTH__+0x700814>
      f8:	88 60       	ori	r24, 0x08	; 8
      fa:	80 93 14 08 	sts	0x0814, r24	; 0x800814 <__TEXT_REGION_LENGTH__+0x700814>
      fe:	10 92 13 08 	sts	0x0813, r1	; 0x800813 <__TEXT_REGION_LENGTH__+0x700813>
     102:	82 e0       	ldi	r24, 0x02	; 2
     104:	80 93 22 04 	sts	0x0422, r24	; 0x800422 <__TEXT_REGION_LENGTH__+0x700422>
     108:	99 e0       	ldi	r25, 0x09	; 9
     10a:	21 e0       	ldi	r18, 0x01	; 1
     10c:	81 e0       	ldi	r24, 0x01	; 1
     10e:	20 93 21 04 	sts	0x0421, r18	; 0x800421 <__TEXT_REGION_LENGTH__+0x700421>
     112:	30 e1       	ldi	r19, 0x10	; 16
     114:	3a 95       	dec	r19
     116:	f1 f7       	brne	.-4      	; 0x114 <I2C_recover+0x20>
     118:	00 c0       	rjmp	.+0      	; 0x11a <I2C_recover+0x26>
     11a:	20 93 22 04 	sts	0x0422, r18	; 0x800422 <__TEXT_REGION_LENGTH__+0x700422>
     11e:	30 e1       	ldi	r19, 0x10	; 16
     120:	3a 95       	dec	r19
     122:	f1 f7       	brne	.-4      	; 0x120 <I2C_recover+0x2c>
     124:	00 c0       	rjmp	.+0      	; 0x126 <I2C_recover+0x32>
     126:	91 50       	subi	r25, 0x01	; 1
     128:	89 f7       	brne	.-30     	; 0x10c <I2C_recover+0x18>
     12a:	28 e0       	ldi	r18, 0x08	; 8
     12c:	20 93 14 08 	sts	0x0814, r18	; 0x800814 <__TEXT_REGION_LENGTH__+0x700814>
     130:	80 93 13 08 	sts	0x0813, r24	; 0x800813 <__TEXT_REGION_LENGTH__+0x700813>
     134:	92 e0       	ldi	r25, 0x02	; 2
     136:	90 93 21 04 	sts	0x0421, r25	; 0x800421 <__TEXT_REGION_LENGTH__+0x700421>
     13a:	90 91 15 08 	lds	r25, 0x0815	; 0x800815 <__TEXT_REGION_LENGTH__+0x700815>
     13e:	91 60       	ori	r25, 0x01	; 1
     140:	90 93 15 08 	sts	0x0815, r25	; 0x800815 <__TEXT_REGION_LENGTH__+0x700815>
     144:	90 91 15 08 	lds	r25, 0x0815	; 0x800815 <__TEXT_REGION_LENGTH__+0x700815>
     148:	94 6c       	ori	r25, 0xC4	; 196
     14a:	90 93 15 08 	sts	0x0815, r25	; 0x800815 <__TEXT_REGION_LENGTH__+0x700815>
     14e:	20 93 14 08 	sts	0x0814, r18	; 0x800814 <__TEXT_REGION_LENGTH__+0x700814>
     152:	80 93 13 08 	sts	0x0813, r24	; 0x800813 <__TEXT_REGION_LENGTH__+0x700813>
     156:	80 93 21 04 	sts	0x0421, r24	; 0x800421 <__TEXT_REGION_LENGTH__+0x700421>
     15a:	80 91 15 08 	lds	r24, 0x0815	; 0x800815 <__TEXT_REGION_LENGTH__+0x700815>
     15e:	81 60       	ori	r24, 0x01	; 1
     160:	80 93 15 08 	sts	0x0815, r24	; 0x800815 <__TEXT_REGION_LENGTH__+0x700815>
     164:	80 91 15 08 	lds	r24, 0x0815	; 0x800815 <__TEXT_REGION_LENGTH__+0x700815>
     168:	84 6c       	ori	r24, 0xC4	; 196
     16a:	80 93 15 08 	sts	0x0815, r24	; 0x800815 <__TEXT_REGION_LENGTH__+0x700815>
     16e:	08 95       	ret

00000170 <I2C_start>:
     170:	28 2f       	mov	r18, r24
     172:	90 91 15 08 	lds	r25, 0x0815	; 0x800815 <__TEXT_REGION_LENGTH__+0x700815>
     176:	90 6c       	ori	r25, 0xC0	; 192
     178:	90 93 15 08 	sts	0x0815, r25	; 0x800815 <__TEXT_REGION_LENGTH__+0x700815>
     17c:	90 91 15 08 	lds	r25, 0x0815	; 0x800815 <__TEXT_REGION_LENGTH__+0x700815>
     180:	89 2f       	mov	r24, r25
     182:	84 70       	andi	r24, 0x04	; 4
     184:	92 fd       	sbrc	r25, 2
     186:	03 c0       	rjmp	.+6      	; 0x18e <I2C_start+0x1e>
     188:	20 93 17 08 	sts	0x0817, r18	; 0x800817 <__TEXT_REGION_LENGTH__+0x700817>
     18c:	08 95       	ret
     18e:	84 e0       	ldi	r24, 0x04	; 4
     190:	08 95       	ret

00000192 <I2C_wait_ACK>:
     192:	8c e0       	ldi	r24, 0x0C	; 12
     194:	80 93 4c 3a 	sts	0x3A4C, r24	; 0x803a4c <timeout_I2C>
     198:	80 91 15 08 	lds	r24, 0x0815	; 0x800815 <__TEXT_REGION_LENGTH__+0x700815>
     19c:	87 fd       	sbrc	r24, 7
     19e:	0a c0       	rjmp	.+20     	; 0x1b4 <I2C_wait_ACK+0x22>
     1a0:	80 91 15 08 	lds	r24, 0x0815	; 0x800815 <__TEXT_REGION_LENGTH__+0x700815>
     1a4:	86 fd       	sbrc	r24, 6
     1a6:	06 c0       	rjmp	.+12     	; 0x1b4 <I2C_wait_ACK+0x22>
     1a8:	80 91 4c 3a 	lds	r24, 0x3A4C	; 0x803a4c <timeout_I2C>
     1ac:	81 11       	cpse	r24, r1
     1ae:	f4 cf       	rjmp	.-24     	; 0x198 <I2C_wait_ACK+0x6>
     1b0:	8f ef       	ldi	r24, 0xFF	; 255
     1b2:	08 95       	ret
     1b4:	80 91 15 08 	lds	r24, 0x0815	; 0x800815 <__TEXT_REGION_LENGTH__+0x700815>
     1b8:	80 6c       	ori	r24, 0xC0	; 192
     1ba:	80 93 15 08 	sts	0x0815, r24	; 0x800815 <__TEXT_REGION_LENGTH__+0x700815>
     1be:	80 91 15 08 	lds	r24, 0x0815	; 0x800815 <__TEXT_REGION_LENGTH__+0x700815>
     1c2:	82 fd       	sbrc	r24, 2
     1c4:	09 c0       	rjmp	.+18     	; 0x1d8 <I2C_wait_ACK+0x46>
     1c6:	80 91 15 08 	lds	r24, 0x0815	; 0x800815 <__TEXT_REGION_LENGTH__+0x700815>
     1ca:	83 fd       	sbrc	r24, 3
     1cc:	07 c0       	rjmp	.+14     	; 0x1dc <I2C_wait_ACK+0x4a>
     1ce:	80 91 15 08 	lds	r24, 0x0815	; 0x800815 <__TEXT_REGION_LENGTH__+0x700815>
     1d2:	82 95       	swap	r24
     1d4:	81 70       	andi	r24, 0x01	; 1
     1d6:	08 95       	ret
     1d8:	84 e0       	ldi	r24, 0x04	; 4
     1da:	08 95       	ret
     1dc:	82 e0       	ldi	r24, 0x02	; 2
     1de:	08 95       	ret

000001e0 <I2C_read>:
}

uint8_t	I2C_read(uint8_t *data, uint8_t ack_flag)					// read data, ack_flag 0: send ACK, 1: send NACK, returns status
{
     1e0:	fc 01       	movw	r30, r24
	timeout_I2C = READ_TIMEOUT;										// reset timeout counter, will be decremented by LED matrix interrupt
     1e2:	8c e0       	ldi	r24, 0x0C	; 12
     1e4:	80 93 4c 3a 	sts	0x3A4C, r24	; 0x803a4c <timeout_I2C>
	if ((TWI0.MSTATUS & TWI_BUSSTATE_gm) == TWI_BUSSTATE_OWNER_gc)	// if master controls bus
     1e8:	90 91 15 08 	lds	r25, 0x0815	; 0x800815 <__TEXT_REGION_LENGTH__+0x700815>
     1ec:	89 2f       	mov	r24, r25
     1ee:	83 70       	andi	r24, 0x03	; 3
     1f0:	82 30       	cpi	r24, 0x02	; 2
     1f2:	11 f0       	breq	.+4      	; 0x1f8 <I2C_read+0x18>
		else		TWI0.MCTRLB |= TWI_ACKACT_NACK_gc;				// setup NACK (last byte read)
		*data = TWI0.MDATA;
		if (ack_flag == 0) TWI0.MCTRLB |= TWI_MCMD_RECVTRANS_gc;	// send ACK, more bytes to follow					
		return 0;
	}
	else return 8;													// master does not control bus
     1f4:	88 e0       	ldi	r24, 0x08	; 8
     1f6:	08 95       	ret
uint8_t	I2C_read(uint8_t *data, uint8_t ack_flag)					// read data, ack_flag 0: send ACK, 1: send NACK, returns status
{
	timeout_I2C = READ_TIMEOUT;										// reset timeout counter, will be decremented by LED matrix interrupt
	if ((TWI0.MSTATUS & TWI_BUSSTATE_gm) == TWI_BUSSTATE_OWNER_gc)	// if master controls bus
	{		
		while (!(TWI0.MSTATUS & TWI_RIF_bm))						// wait for RIF set (data byte received)
     1f8:	90 91 15 08 	lds	r25, 0x0815	; 0x800815 <__TEXT_REGION_LENGTH__+0x700815>
     1fc:	97 fd       	sbrc	r25, 7
     1fe:	06 c0       	rjmp	.+12     	; 0x20c <I2C_read+0x2c>
		{
			if (!(timeout_I2C)) return 0xff;			            // return timeout error
     200:	90 91 4c 3a 	lds	r25, 0x3A4C	; 0x803a4c <timeout_I2C>
     204:	91 11       	cpse	r25, r1
     206:	f8 cf       	rjmp	.-16     	; 0x1f8 <I2C_read+0x18>
     208:	8f ef       	ldi	r24, 0xFF	; 255
     20a:	08 95       	ret
		}
		TWI0.MSTATUS |= (TWI_RIF_bm | TWI_WIF_bm);					// clear Read and Write interrupt flags	
     20c:	90 91 15 08 	lds	r25, 0x0815	; 0x800815 <__TEXT_REGION_LENGTH__+0x700815>
     210:	90 6c       	ori	r25, 0xC0	; 192
     212:	90 93 15 08 	sts	0x0815, r25	; 0x800815 <__TEXT_REGION_LENGTH__+0x700815>
		if (TWI0.MSTATUS & TWI_BUSERR_bm) return 4;					// Bus Error, abort
     216:	90 91 15 08 	lds	r25, 0x0815	; 0x800815 <__TEXT_REGION_LENGTH__+0x700815>
     21a:	92 fd       	sbrc	r25, 2
     21c:	1e c0       	rjmp	.+60     	; 0x25a <I2C_read+0x7a>
		if (TWI0.MSTATUS & TWI_ARBLOST_bm) return 2;				// Arbitration Lost, abort
     21e:	90 91 15 08 	lds	r25, 0x0815	; 0x800815 <__TEXT_REGION_LENGTH__+0x700815>
     222:	93 fd       	sbrc	r25, 3
     224:	1d c0       	rjmp	.+58     	; 0x260 <I2C_read+0x80>
		if (TWI0.MSTATUS & TWI_RXACK_bm) return 1;					// Slave replied with NACK, abort				
     226:	90 91 15 08 	lds	r25, 0x0815	; 0x800815 <__TEXT_REGION_LENGTH__+0x700815>
     22a:	89 2f       	mov	r24, r25
     22c:	80 71       	andi	r24, 0x10	; 16
     22e:	94 fd       	sbrc	r25, 4
     230:	16 c0       	rjmp	.+44     	; 0x25e <I2C_read+0x7e>
		if (ack_flag == 0) TWI0.MCTRLB &= ~(1 << TWI_ACKACT_bp);	// setup ACK
     232:	90 91 14 08 	lds	r25, 0x0814	; 0x800814 <__TEXT_REGION_LENGTH__+0x700814>
     236:	61 11       	cpse	r22, r1
     238:	02 c0       	rjmp	.+4      	; 0x23e <I2C_read+0x5e>
     23a:	9b 7f       	andi	r25, 0xFB	; 251
     23c:	01 c0       	rjmp	.+2      	; 0x240 <I2C_read+0x60>
		else		TWI0.MCTRLB |= TWI_ACKACT_NACK_gc;				// setup NACK (last byte read)
     23e:	94 60       	ori	r25, 0x04	; 4
     240:	90 93 14 08 	sts	0x0814, r25	; 0x800814 <__TEXT_REGION_LENGTH__+0x700814>
		*data = TWI0.MDATA;
     244:	90 91 18 08 	lds	r25, 0x0818	; 0x800818 <__TEXT_REGION_LENGTH__+0x700818>
     248:	90 83       	st	Z, r25
		if (ack_flag == 0) TWI0.MCTRLB |= TWI_MCMD_RECVTRANS_gc;	// send ACK, more bytes to follow					
     24a:	61 11       	cpse	r22, r1
     24c:	09 c0       	rjmp	.+18     	; 0x260 <I2C_read+0x80>
     24e:	90 91 14 08 	lds	r25, 0x0814	; 0x800814 <__TEXT_REGION_LENGTH__+0x700814>
     252:	92 60       	ori	r25, 0x02	; 2
     254:	90 93 14 08 	sts	0x0814, r25	; 0x800814 <__TEXT_REGION_LENGTH__+0x700814>
     258:	08 95       	ret
		while (!(TWI0.MSTATUS & TWI_RIF_bm))						// wait for RIF set (data byte received)
		{
			if (!(timeout_I2C)) return 0xff;			            // return timeout error
		}
		TWI0.MSTATUS |= (TWI_RIF_bm | TWI_WIF_bm);					// clear Read and Write interrupt flags	
		if (TWI0.MSTATUS & TWI_BUSERR_bm) return 4;					// Bus Error, abort
     25a:	84 e0       	ldi	r24, 0x04	; 4
     25c:	08 95       	ret
		if (TWI0.MSTATUS & TWI_ARBLOST_bm) return 2;				// Arbitration Lost, abort
		if (TWI0.MSTATUS & TWI_RXACK_bm) return 1;					// Slave replied with NACK, abort				
     25e:	81 e0       	ldi	r24, 0x01	; 1
		*data = TWI0.MDATA;
		if (ack_flag == 0) TWI0.MCTRLB |= TWI_MCMD_RECVTRANS_gc;	// send ACK, more bytes to follow					
		return 0;
	}
	else return 8;													// master does not control bus
}
     260:	08 95       	ret

00000262 <I2C_write>:

uint8_t I2C_write(uint8_t *data)									// write data, return status
{
     262:	fc 01       	movw	r30, r24
	timeout_I2C = WRITE_TIMEOUT;									// reset timeout counter, will be decremented by LED matrix interrupt
     264:	8c e0       	ldi	r24, 0x0C	; 12
     266:	80 93 4c 3a 	sts	0x3A4C, r24	; 0x803a4c <timeout_I2C>
	if ((TWI0.MSTATUS & TWI_BUSSTATE_gm) == TWI_BUSSTATE_OWNER_gc)	// if master controls bus
     26a:	90 91 15 08 	lds	r25, 0x0815	; 0x800815 <__TEXT_REGION_LENGTH__+0x700815>
     26e:	93 70       	andi	r25, 0x03	; 3
     270:	92 30       	cpi	r25, 0x02	; 2
     272:	b1 f4       	brne	.+44     	; 0x2a0 <I2C_write+0x3e>
	{
		TWI0.MDATA = *data;		
     274:	80 81       	ld	r24, Z
     276:	80 93 18 08 	sts	0x0818, r24	; 0x800818 <__TEXT_REGION_LENGTH__+0x700818>
		while (!(TWI0.MSTATUS & TWI_WIF_bm))						// wait until WIF set, status register contains ACK/NACK bit
     27a:	80 91 15 08 	lds	r24, 0x0815	; 0x800815 <__TEXT_REGION_LENGTH__+0x700815>
     27e:	86 fd       	sbrc	r24, 6
     280:	06 c0       	rjmp	.+12     	; 0x28e <I2C_write+0x2c>
		{
			if (!(timeout_I2C)) return 0xff;			            // return timeout error
     282:	80 91 4c 3a 	lds	r24, 0x3A4C	; 0x803a4c <timeout_I2C>
     286:	81 11       	cpse	r24, r1
     288:	f8 cf       	rjmp	.-16     	; 0x27a <I2C_write+0x18>
     28a:	8f ef       	ldi	r24, 0xFF	; 255
     28c:	08 95       	ret
		}
		if (TWI0.MSTATUS & TWI_BUSERR_bm) return 4;					// Bus Error, abort
     28e:	80 91 15 08 	lds	r24, 0x0815	; 0x800815 <__TEXT_REGION_LENGTH__+0x700815>
     292:	82 fd       	sbrc	r24, 2
     294:	07 c0       	rjmp	.+14     	; 0x2a4 <I2C_write+0x42>
		if (TWI0.MSTATUS & TWI_RXACK_bm) return 1;					// Slave replied with NACK, abort
     296:	80 91 15 08 	lds	r24, 0x0815	; 0x800815 <__TEXT_REGION_LENGTH__+0x700815>
	if ((TWI0.MSTATUS & TWI_BUSSTATE_gm) == TWI_BUSSTATE_OWNER_gc)	// if master controls bus
	{
		TWI0.MDATA = *data;		
		while (!(TWI0.MSTATUS & TWI_WIF_bm))						// wait until WIF set, status register contains ACK/NACK bit
		{
			if (!(timeout_I2C)) return 0xff;			            // return timeout error
     29a:	82 95       	swap	r24
     29c:	81 70       	andi	r24, 0x01	; 1
     29e:	08 95       	ret
		}
		if (TWI0.MSTATUS & TWI_BUSERR_bm) return 4;					// Bus Error, abort
		if (TWI0.MSTATUS & TWI_RXACK_bm) return 1;					// Slave replied with NACK, abort
		return 0;													// no error	
	}
	else return 8;													// master does not control bus
     2a0:	88 e0       	ldi	r24, 0x08	; 8
     2a2:	08 95       	ret
		TWI0.MDATA = *data;		
		while (!(TWI0.MSTATUS & TWI_WIF_bm))						// wait until WIF set, status register contains ACK/NACK bit
		{
			if (!(timeout_I2C)) return 0xff;			            // return timeout error
		}
		if (TWI0.MSTATUS & TWI_BUSERR_bm) return 4;					// Bus Error, abort
     2a4:	84 e0       	ldi	r24, 0x04	; 4
		if (TWI0.MSTATUS & TWI_RXACK_bm) return 1;					// Slave replied with NACK, abort
		return 0;													// no error	
	}
	else return 8;													// master does not control bus
}
     2a6:	08 95       	ret

000002a8 <I2C_stop>:

void I2C_stop()
{
	TWI0.MCTRLB |= TWI_MCMD_STOP_gc;
     2a8:	e0 e1       	ldi	r30, 0x10	; 16
     2aa:	f8 e0       	ldi	r31, 0x08	; 8
     2ac:	84 81       	ldd	r24, Z+4	; 0x04
     2ae:	83 60       	ori	r24, 0x03	; 3
     2b0:	84 83       	std	Z+4, r24	; 0x04
     2b2:	08 95       	ret

000002b4 <I2C_read_bytes>:
// addr_ptr		address of first array element to transfer
// slave reg	starting slave register
// num_bytes	number of bytes to transfer

uint8_t	I2C_read_bytes(uint8_t slave_addr, uint8_t *reg_ptr, uint8_t reg_len, uint8_t *dat_ptr, uint8_t dat_len)
{
     2b4:	cf 92       	push	r12
     2b6:	df 92       	push	r13
     2b8:	ff 92       	push	r15
     2ba:	0f 93       	push	r16
     2bc:	1f 93       	push	r17
     2be:	cf 93       	push	r28
     2c0:	df 93       	push	r29
     2c2:	6b 01       	movw	r12, r22
     2c4:	f4 2e       	mov	r15, r20
     2c6:	e9 01       	movw	r28, r18
	uint8_t status;
	if (dat_len > MAX_LEN) dat_len = MAX_LEN;
	status = I2C_start(slave_addr << 1);							// slave write address, LSB 0
     2c8:	18 2f       	mov	r17, r24
     2ca:	11 0f       	add	r17, r17
     2cc:	81 2f       	mov	r24, r17
     2ce:	50 df       	rcall	.-352    	; 0x170 <I2C_start>
	if (status != 0) goto error;
     2d0:	81 11       	cpse	r24, r1
	status = I2C_wait_ACK();										// wait for slave ACK
     2d2:	2b c0       	rjmp	.+86     	; 0x32a <I2C_read_bytes+0x76>
     2d4:	5e df       	rcall	.-324    	; 0x192 <I2C_wait_ACK>
	if (status == 1) {
     2d6:	81 30       	cpi	r24, 0x01	; 1
		I2C_stop();													// NACK, abort
     2d8:	19 f4       	brne	.+6      	; 0x2e0 <I2C_read_bytes+0x2c>
     2da:	e6 df       	rcall	.-52     	; 0x2a8 <I2C_stop>
		return 1;
     2dc:	81 e0       	ldi	r24, 0x01	; 1
     2de:	27 c0       	rjmp	.+78     	; 0x32e <I2C_read_bytes+0x7a>
	}
	if (status != 0) goto error;
     2e0:	81 11       	cpse	r24, r1
     2e2:	23 c0       	rjmp	.+70     	; 0x32a <I2C_read_bytes+0x76>
    while(reg_len > 0){
     2e4:	ff 20       	and	r15, r15
	    status = I2C_write(reg_ptr);    							// send slave start register
     2e6:	49 f0       	breq	.+18     	; 0x2fa <I2C_read_bytes+0x46>
     2e8:	c6 01       	movw	r24, r12
     2ea:	bb df       	rcall	.-138    	; 0x262 <I2C_write>
	    if (status != 0) goto error;
     2ec:	81 11       	cpse	r24, r1
     2ee:	1d c0       	rjmp	.+58     	; 0x32a <I2C_read_bytes+0x76>
        ++reg_ptr;
     2f0:	8f ef       	ldi	r24, 0xFF	; 255
     2f2:	c8 1a       	sub	r12, r24
     2f4:	d8 0a       	sbc	r13, r24
        --reg_len;
     2f6:	fa 94       	dec	r15
     2f8:	f5 cf       	rjmp	.-22     	; 0x2e4 <I2C_read_bytes+0x30>
     2fa:	01 34       	cpi	r16, 0x41	; 65
     2fc:	08 f0       	brcs	.+2      	; 0x300 <I2C_read_bytes+0x4c>
     2fe:	00 e4       	ldi	r16, 0x40	; 64
    }
	I2C_rep_start((slave_addr << 1) + 1);							// slave read address, LSB 1
     300:	1f 5f       	subi	r17, 0xFF	; 255
// the Atmel device documentation mentions a special command for repeated start TWI_MCMD_REPSTART_gc,
// but this is not used in Atmel's demo code, so we don't use it either

void I2C_rep_start(uint8_t shifted_addr)						    // send repeated start, device_addr + LSB set if READ
{
	TWI0.MADDR = shifted_addr;	
     302:	10 93 17 08 	sts	0x0817, r17	; 0x800817 <__TEXT_REGION_LENGTH__+0x700817>
	    if (status != 0) goto error;
        ++reg_ptr;
        --reg_len;
    }
	I2C_rep_start((slave_addr << 1) + 1);							// slave read address, LSB 1
	while (dat_len > 1) {
     306:	02 30       	cpi	r16, 0x02	; 2
		status = I2C_read(dat_ptr, 0);								// first bytes, send ACK
     308:	40 f0       	brcs	.+16     	; 0x31a <I2C_read_bytes+0x66>
     30a:	60 e0       	ldi	r22, 0x00	; 0
     30c:	ce 01       	movw	r24, r28
     30e:	68 df       	rcall	.-304    	; 0x1e0 <I2C_read>
		if (status != 0) goto error;
     310:	81 11       	cpse	r24, r1
     312:	0b c0       	rjmp	.+22     	; 0x32a <I2C_read_bytes+0x76>
		++dat_ptr;
		--dat_len;
     314:	21 96       	adiw	r28, 0x01	; 1
     316:	01 50       	subi	r16, 0x01	; 1
	}
	status = I2C_read(dat_ptr, 1);									// single or last byte, send NACK
     318:	f6 cf       	rjmp	.-20     	; 0x306 <I2C_read_bytes+0x52>
     31a:	61 e0       	ldi	r22, 0x01	; 1
     31c:	ce 01       	movw	r24, r28
	if (status != 0) goto error;
     31e:	60 df       	rcall	.-320    	; 0x1e0 <I2C_read>
     320:	81 11       	cpse	r24, r1
	I2C_stop();
     322:	03 c0       	rjmp	.+6      	; 0x32a <I2C_read_bytes+0x76>
     324:	c1 df       	rcall	.-126    	; 0x2a8 <I2C_stop>
	return 0;
     326:	80 e0       	ldi	r24, 0x00	; 0
     328:	02 c0       	rjmp	.+4      	; 0x32e <I2C_read_bytes+0x7a>
	
error:
	I2C_recover();													// clock out possibly stuck slave, reset master
     32a:	e4 de       	rcall	.-568    	; 0xf4 <I2C_recover>
     32c:	8f ef       	ldi	r24, 0xFF	; 255
	return 0xff;													// flag error
     32e:	df 91       	pop	r29
}
     330:	cf 91       	pop	r28
     332:	1f 91       	pop	r17
     334:	0f 91       	pop	r16
     336:	ff 90       	pop	r15
     338:	df 90       	pop	r13
     33a:	cf 90       	pop	r12
     33c:	08 95       	ret

0000033e <LanyardCode>:
     33e:	8b e7       	ldi	r24, 0x7B	; 123
uint8_t         lastButtonState = 0xff;
uint8_t         digit = 0xff;

// Main game loop
uint8_t LanyardCode(){
    if (CheckState(LANYARD_COMPLETED)) {
     340:	4e d7       	rcall	.+3740   	; 0x11de <CheckState>
     342:	81 11       	cpse	r24, r1
     344:	d9 c0       	rjmp	.+434    	; 0x4f8 <__LOCK_REGION_LENGTH__+0xf8>
        }
        */
        return 0;
    }

    if ( gameNow != TEXT && gameNow != LANYARD )
     346:	80 91 2f 38 	lds	r24, 0x382F	; 0x80382f <gameNow>
     34a:	88 23       	and	r24, r24
     34c:	19 f0       	breq	.+6      	; 0x354 <LanyardCode+0x16>
     34e:	83 30       	cpi	r24, 0x03	; 3
     350:	09 f0       	breq	.+2      	; 0x354 <LanyardCode+0x16>
     352:	d2 c0       	rjmp	.+420    	; 0x4f8 <__LOCK_REGION_LENGTH__+0xf8>
        return 0;

    /* activate led for buttonstate */
    //iLED[SCARAB[G]] = (buttonState==0xff ? 0 : dimValue);

    if ( (buttonState & 0xf0) == 0)
     354:	80 91 07 38 	lds	r24, 0x3807	; 0x803807 <buttonState>
     358:	98 2f       	mov	r25, r24
     35a:	90 7f       	andi	r25, 0xF0	; 240
     35c:	09 f4       	brne	.+2      	; 0x360 <LanyardCode+0x22>
     35e:	cc c0       	rjmp	.+408    	; 0x4f8 <__LOCK_REGION_LENGTH__+0xf8>
        return 0;

    if ((buttonState&0x0f) == (lastButtonState&0x0f))
     360:	20 91 01 38 	lds	r18, 0x3801	; 0x803801 <lastButtonState>
     364:	98 2f       	mov	r25, r24
     366:	92 27       	eor	r25, r18
     368:	9f 70       	andi	r25, 0x0F	; 15
     36a:	09 f4       	brne	.+2      	; 0x36e <LanyardCode+0x30>
     36c:	c5 c0       	rjmp	.+394    	; 0x4f8 <__LOCK_REGION_LENGTH__+0xf8>
        return 0;

    if (lastButtonState == 0xff){
     36e:	2f 3f       	cpi	r18, 0xFF	; 255
     370:	09 f0       	breq	.+2      	; 0x374 <LanyardCode+0x36>
     372:	be c0       	rjmp	.+380    	; 0x4f0 <__LOCK_REGION_LENGTH__+0xf0>
        switch (buttonState & 0x0f) {
     374:	8f 70       	andi	r24, 0x0F	; 15
     376:	82 30       	cpi	r24, 0x02	; 2
     378:	61 f0       	breq	.+24     	; 0x392 <LanyardCode+0x54>
     37a:	28 f4       	brcc	.+10     	; 0x386 <LanyardCode+0x48>
     37c:	81 30       	cpi	r24, 0x01	; 1
     37e:	69 f4       	brne	.+26     	; 0x39a <LanyardCode+0x5c>
            case 0b0001: {
                digit = 0;
     380:	10 92 00 38 	sts	0x3800, r1	; 0x803800 <__data_start>
                break;
     384:	0d c0       	rjmp	.+26     	; 0x3a0 <LanyardCode+0x62>

    if ((buttonState&0x0f) == (lastButtonState&0x0f))
        return 0;

    if (lastButtonState == 0xff){
        switch (buttonState & 0x0f) {
     386:	84 30       	cpi	r24, 0x04	; 4
     388:	31 f0       	breq	.+12     	; 0x396 <LanyardCode+0x58>
     38a:	88 30       	cpi	r24, 0x08	; 8
     38c:	31 f4       	brne	.+12     	; 0x39a <LanyardCode+0x5c>
                digit = 3;
                break;
            }

            case 0b1000: {
                digit = 2;
     38e:	82 e0       	ldi	r24, 0x02	; 2
     390:	05 c0       	rjmp	.+10     	; 0x39c <LanyardCode+0x5e>
                digit = 0;
                break;
            }

            case 0b0010: {
                digit = 1;
     392:	81 e0       	ldi	r24, 0x01	; 1
     394:	03 c0       	rjmp	.+6      	; 0x39c <LanyardCode+0x5e>
                break;
            }

            case 0b0100: {
                digit = 3;
     396:	83 e0       	ldi	r24, 0x03	; 3
     398:	01 c0       	rjmp	.+2      	; 0x39c <LanyardCode+0x5e>
                digit = 2;
                break;
            }

            default: {
                digit = 0xff;
     39a:	8f ef       	ldi	r24, 0xFF	; 255
     39c:	80 93 00 38 	sts	0x3800, r24	; 0x803800 <__data_start>
                break;
            }
        }
        gameNow = LANYARD;
     3a0:	83 e0       	ldi	r24, 0x03	; 3
     3a2:	80 93 2f 38 	sts	0x382F, r24	; 0x80382f <gameNow>
        /* play tone for button */

        if (digit == lanyardCode[lanyardPos]) {
     3a6:	80 91 29 38 	lds	r24, 0x3829	; 0x803829 <lanyardPos>
     3aa:	e8 2f       	mov	r30, r24
     3ac:	f0 e0       	ldi	r31, 0x00	; 0
     3ae:	ea 5e       	subi	r30, 0xEA	; 234
     3b0:	f8 44       	sbci	r31, 0x48	; 72
     3b2:	20 81       	ld	r18, Z
     3b4:	90 91 00 38 	lds	r25, 0x3800	; 0x803800 <__data_start>
     3b8:	e0 91 2e b7 	lds	r30, 0xB72E	; 0x80b72e <__bss_end+0x7c28>
     3bc:	29 13       	cpse	r18, r25
     3be:	17 c0       	rjmp	.+46     	; 0x3ee <LanyardCode+0xb0>
            lanyardState &= TRUE;
     3c0:	90 91 02 38 	lds	r25, 0x3802	; 0x803802 <lanyardState>
     3c4:	91 70       	andi	r25, 0x01	; 1
     3c6:	90 93 02 38 	sts	0x3802, r25	; 0x803802 <lanyardState>
            iLED[CAT]       = 128;
     3ca:	f0 e0       	ldi	r31, 0x00	; 0
     3cc:	ea 54       	subi	r30, 0x4A	; 74
     3ce:	f5 4c       	sbci	r31, 0xC5	; 197
     3d0:	90 e8       	ldi	r25, 0x80	; 128
     3d2:	90 83       	st	Z, r25
            iLED[EYE[R][L]] = 0;
     3d4:	e0 91 3d b7 	lds	r30, 0xB73D	; 0x80b73d <__bss_end+0x7c37>
     3d8:	f0 e0       	ldi	r31, 0x00	; 0
     3da:	ea 54       	subi	r30, 0x4A	; 74
     3dc:	f5 4c       	sbci	r31, 0xC5	; 197
     3de:	10 82       	st	Z, r1
            iLED[EYE[R][R]] = 0;
     3e0:	e0 91 3c b7 	lds	r30, 0xB73C	; 0x80b73c <__bss_end+0x7c36>
     3e4:	f0 e0       	ldi	r31, 0x00	; 0
     3e6:	ea 54       	subi	r30, 0x4A	; 74
     3e8:	f5 4c       	sbci	r31, 0xC5	; 197
     3ea:	10 82       	st	Z, r1
     3ec:	13 c0       	rjmp	.+38     	; 0x414 <__LOCK_REGION_LENGTH__+0x14>
        } else {
            lanyardState = FALSE;
     3ee:	10 92 02 38 	sts	0x3802, r1	; 0x803802 <lanyardState>
            iLED[CAT]       = 0;
     3f2:	f0 e0       	ldi	r31, 0x00	; 0
     3f4:	ea 54       	subi	r30, 0x4A	; 74
     3f6:	f5 4c       	sbci	r31, 0xC5	; 197
     3f8:	10 82       	st	Z, r1
            if (lanyardPos < 4 ) {
     3fa:	84 30       	cpi	r24, 0x04	; 4
     3fc:	58 f4       	brcc	.+22     	; 0x414 <__LOCK_REGION_LENGTH__+0x14>
                /*gameNow         = BASTET;*/
                gameNow         = TEXT;
     3fe:	10 92 2f 38 	sts	0x382F, r1	; 0x80382f <gameNow>
                lanyardPos      = 0;
     402:	10 92 29 38 	sts	0x3829, r1	; 0x803829 <lanyardPos>
                lanyardCnt      = 0;
     406:	10 92 28 38 	sts	0x3828, r1	; 0x803828 <__data_end>
                lanyardState    = TRUE;
     40a:	81 e0       	ldi	r24, 0x01	; 1
     40c:	80 93 02 38 	sts	0x3802, r24	; 0x803802 <lanyardState>
                lastButtonState = 0xff;
     410:	8f ef       	ldi	r24, 0xFF	; 255
     412:	70 c0       	rjmp	.+224    	; 0x4f4 <__LOCK_REGION_LENGTH__+0xf4>
                return 0;
            }
        }
        lanyardPos++;
     414:	8f 5f       	subi	r24, 0xFF	; 255
     416:	80 93 29 38 	sts	0x3829, r24	; 0x803829 <lanyardPos>
        lanyardCnt++;            
     41a:	90 91 28 38 	lds	r25, 0x3828	; 0x803828 <__data_end>
     41e:	9f 5f       	subi	r25, 0xFF	; 255
        if (lanyardCnt >= 4) {
     420:	94 30       	cpi	r25, 0x04	; 4
     422:	18 f4       	brcc	.+6      	; 0x42a <__LOCK_REGION_LENGTH__+0x2a>
                lastButtonState = 0xff;
                return 0;
            }
        }
        lanyardPos++;
        lanyardCnt++;            
     424:	90 93 28 38 	sts	0x3828, r25	; 0x803828 <__data_end>
     428:	63 c0       	rjmp	.+198    	; 0x4f0 <__LOCK_REGION_LENGTH__+0xf0>
        if (lanyardCnt >= 4) {
            lanyardCnt = 0;
     42a:	10 92 28 38 	sts	0x3828, r1	; 0x803828 <__data_end>
            if (lanyardState == TRUE) {
     42e:	90 91 02 38 	lds	r25, 0x3802	; 0x803802 <lanyardState>
     432:	91 30       	cpi	r25, 0x01	; 1
     434:	79 f5       	brne	.+94     	; 0x494 <__LOCK_REGION_LENGTH__+0x94>
                iLED[HCKR[G][(lanyardPos/4)-1]] = dimValue;
     436:	e8 2f       	mov	r30, r24
     438:	e6 95       	lsr	r30
     43a:	e6 95       	lsr	r30
     43c:	f0 e0       	ldi	r31, 0x00	; 0
     43e:	e0 5c       	subi	r30, 0xC0	; 192
     440:	f8 44       	sbci	r31, 0x48	; 72
     442:	e5 81       	ldd	r30, Z+5	; 0x05
     444:	f0 e0       	ldi	r31, 0x00	; 0
     446:	90 91 09 38 	lds	r25, 0x3809	; 0x803809 <dimValue>
     44a:	ea 54       	subi	r30, 0x4A	; 74
     44c:	f5 4c       	sbci	r31, 0xC5	; 197
     44e:	90 83       	st	Z, r25
                if (lanyardPos == sizeof(lanyardCode)) {
     450:	88 31       	cpi	r24, 0x18	; 24
     452:	09 f0       	breq	.+2      	; 0x456 <__LOCK_REGION_LENGTH__+0x56>
     454:	4d c0       	rjmp	.+154    	; 0x4f0 <__LOCK_REGION_LENGTH__+0xf0>
                    UpdateState(LANYARD_COMPLETED);
     456:	8b e7       	ldi	r24, 0x7B	; 123
     458:	b8 d6       	rcall	.+3440   	; 0x11ca <UpdateState>
                    //iLED[SCARAB[G]] = 0;
                    iLED[EYE[R][L]] = 0;
     45a:	e0 91 3d b7 	lds	r30, 0xB73D	; 0x80b73d <__bss_end+0x7c37>
     45e:	f0 e0       	ldi	r31, 0x00	; 0
     460:	ea 54       	subi	r30, 0x4A	; 74
     462:	f5 4c       	sbci	r31, 0xC5	; 197
     464:	10 82       	st	Z, r1
                    iLED[EYE[R][R]] = 0;
     466:	e0 91 3c b7 	lds	r30, 0xB73C	; 0x80b73c <__bss_end+0x7c36>
     46a:	f0 e0       	ldi	r31, 0x00	; 0
     46c:	ea 54       	subi	r30, 0x4A	; 74
     46e:	f5 4c       	sbci	r31, 0xC5	; 197
     470:	10 82       	st	Z, r1
                    iLED[EYE[G][L]] = dimValue;
     472:	e0 91 3f b7 	lds	r30, 0xB73F	; 0x80b73f <__bss_end+0x7c39>
     476:	f0 e0       	ldi	r31, 0x00	; 0
     478:	80 91 09 38 	lds	r24, 0x3809	; 0x803809 <dimValue>
     47c:	ea 54       	subi	r30, 0x4A	; 74
     47e:	f5 4c       	sbci	r31, 0xC5	; 197
     480:	80 83       	st	Z, r24
                    iLED[EYE[G][R]] = dimValue;
     482:	e0 91 3e b7 	lds	r30, 0xB73E	; 0x80b73e <__bss_end+0x7c38>
     486:	f0 e0       	ldi	r31, 0x00	; 0
     488:	80 91 09 38 	lds	r24, 0x3809	; 0x803809 <dimValue>
     48c:	ea 54       	subi	r30, 0x4A	; 74
     48e:	f5 4c       	sbci	r31, 0xC5	; 197
     490:	80 83       	st	Z, r24
     492:	2e c0       	rjmp	.+92     	; 0x4f0 <__LOCK_REGION_LENGTH__+0xf0>
                    /*state = STATE_MUSIC;*/
                }
            } else {
                gameNow         = TEXT;
     494:	10 92 2f 38 	sts	0x382F, r1	; 0x80382f <gameNow>
                lanyardPos      = 0;
     498:	10 92 29 38 	sts	0x3829, r1	; 0x803829 <lanyardPos>
                lanyardState    = TRUE;
     49c:	81 e0       	ldi	r24, 0x01	; 1
     49e:	80 93 02 38 	sts	0x3802, r24	; 0x803802 <lanyardState>
                lastButtonState = 0xff;
                //iLED[SCARAB[G]] = 0;
                iLED[EYE[G][L]] = 0;
     4a2:	e0 91 3f b7 	lds	r30, 0xB73F	; 0x80b73f <__bss_end+0x7c39>
     4a6:	f0 e0       	ldi	r31, 0x00	; 0
     4a8:	ea 54       	subi	r30, 0x4A	; 74
     4aa:	f5 4c       	sbci	r31, 0xC5	; 197
     4ac:	10 82       	st	Z, r1
                iLED[EYE[G][R]] = 0;
     4ae:	e0 91 3e b7 	lds	r30, 0xB73E	; 0x80b73e <__bss_end+0x7c38>
     4b2:	f0 e0       	ldi	r31, 0x00	; 0
     4b4:	ea 54       	subi	r30, 0x4A	; 74
     4b6:	f5 4c       	sbci	r31, 0xC5	; 197
     4b8:	10 82       	st	Z, r1
                iLED[EYE[R][L]] = dimValue;
     4ba:	e0 91 3d b7 	lds	r30, 0xB73D	; 0x80b73d <__bss_end+0x7c37>
     4be:	f0 e0       	ldi	r31, 0x00	; 0
     4c0:	80 91 09 38 	lds	r24, 0x3809	; 0x803809 <dimValue>
     4c4:	ea 54       	subi	r30, 0x4A	; 74
     4c6:	f5 4c       	sbci	r31, 0xC5	; 197
     4c8:	80 83       	st	Z, r24
                iLED[EYE[R][R]] = dimValue;
     4ca:	e0 91 3c b7 	lds	r30, 0xB73C	; 0x80b73c <__bss_end+0x7c36>
     4ce:	f0 e0       	ldi	r31, 0x00	; 0
     4d0:	80 91 09 38 	lds	r24, 0x3809	; 0x803809 <dimValue>
     4d4:	ea 54       	subi	r30, 0x4A	; 74
     4d6:	f5 4c       	sbci	r31, 0xC5	; 197
     4d8:	80 83       	st	Z, r24
     4da:	a6 e4       	ldi	r26, 0x46	; 70
     4dc:	b7 eb       	ldi	r27, 0xB7	; 183
                for (int i=0; i<6; i++ )
                    iLED[HCKR[G][i]] = 0;
     4de:	ed 91       	ld	r30, X+
     4e0:	f0 e0       	ldi	r31, 0x00	; 0
     4e2:	ea 54       	subi	r30, 0x4A	; 74
     4e4:	f5 4c       	sbci	r31, 0xC5	; 197
     4e6:	10 82       	st	Z, r1
                //iLED[SCARAB[G]] = 0;
                iLED[EYE[G][L]] = 0;
                iLED[EYE[G][R]] = 0;
                iLED[EYE[R][L]] = dimValue;
                iLED[EYE[R][R]] = dimValue;
                for (int i=0; i<6; i++ )
     4e8:	87 eb       	ldi	r24, 0xB7	; 183
     4ea:	ac 34       	cpi	r26, 0x4C	; 76
     4ec:	b8 07       	cpc	r27, r24
     4ee:	b9 f7       	brne	.-18     	; 0x4de <__LOCK_REGION_LENGTH__+0xde>
                    iLED[HCKR[G][i]] = 0;
            }
        }
    }

    lastButtonState = buttonState;
     4f0:	80 91 07 38 	lds	r24, 0x3807	; 0x803807 <buttonState>
     4f4:	80 93 01 38 	sts	0x3801, r24	; 0x803801 <lastButtonState>
    return 0;
}
     4f8:	80 e0       	ldi	r24, 0x00	; 0
     4fa:	08 95       	ret

000004fc <MagnetMaze>:
uint8_t         mazeCnt = 0;
uint8_t         mazeState = TRUE;
uint8_t         inverted  = FALSE;

// Main game loop
uint8_t MagnetMaze(){
     4fc:	cf 93       	push	r28
     4fe:	df 93       	push	r29
    if (CheckState(MAZE_INACTIVE))
     500:	87 ef       	ldi	r24, 0xF7	; 247
     502:	6d d6       	rcall	.+3290   	; 0x11de <CheckState>
     504:	81 11       	cpse	r24, r1
     506:	3e c1       	rjmp	.+636    	; 0x784 <MagnetMaze+0x288>
        return 0;

    if (CheckState(MAZE_COMPLETED))
     508:	8d e7       	ldi	r24, 0x7D	; 125
     50a:	69 d6       	rcall	.+3282   	; 0x11de <CheckState>
     50c:	81 11       	cpse	r24, r1
     50e:	3a c1       	rjmp	.+628    	; 0x784 <MagnetMaze+0x288>
        return 0;

    if ( (gameNow != TEXT) && (gameNow != MAZE) )
     510:	80 91 2f 38 	lds	r24, 0x382F	; 0x80382f <gameNow>
     514:	82 30       	cpi	r24, 0x02	; 2
     516:	08 f0       	brcs	.+2      	; 0x51a <MagnetMaze+0x1e>
     518:	35 c1       	rjmp	.+618    	; 0x784 <MagnetMaze+0x288>
        return 0;

    if (calHall == 0)
     51a:	80 91 df 3a 	lds	r24, 0x3ADF	; 0x803adf <calHall>
     51e:	90 91 e0 3a 	lds	r25, 0x3AE0	; 0x803ae0 <calHall+0x1>
     522:	89 2b       	or	r24, r25
     524:	41 f4       	brne	.+16     	; 0x536 <MagnetMaze+0x3a>
        calHall = adcHall;
     526:	80 91 a7 3a 	lds	r24, 0x3AA7	; 0x803aa7 <adcHall>
     52a:	90 91 a8 3a 	lds	r25, 0x3AA8	; 0x803aa8 <adcHall+0x1>
     52e:	80 93 df 3a 	sts	0x3ADF, r24	; 0x803adf <calHall>
     532:	90 93 e0 3a 	sts	0x3AE0, r25	; 0x803ae0 <calHall+0x1>

    int16_t valHall = adcHall - calHall;
     536:	80 91 a7 3a 	lds	r24, 0x3AA7	; 0x803aa7 <adcHall>
     53a:	90 91 a8 3a 	lds	r25, 0x3AA8	; 0x803aa8 <adcHall+0x1>
     53e:	20 91 df 3a 	lds	r18, 0x3ADF	; 0x803adf <calHall>
     542:	30 91 e0 3a 	lds	r19, 0x3AE0	; 0x803ae0 <calHall+0x1>
     546:	82 1b       	sub	r24, r18
     548:	93 0b       	sbc	r25, r19
    switch (curHallState) {
     54a:	30 91 3c 38 	lds	r19, 0x383C	; 0x80383c <curHallState>
     54e:	31 30       	cpi	r19, 0x01	; 1
     550:	89 f0       	breq	.+34     	; 0x574 <MagnetMaze+0x78>
     552:	18 f0       	brcs	.+6      	; 0x55a <MagnetMaze+0x5e>
     554:	32 30       	cpi	r19, 0x02	; 2
     556:	c1 f0       	breq	.+48     	; 0x588 <MagnetMaze+0x8c>
     558:	1f c0       	rjmp	.+62     	; 0x598 <MagnetMaze+0x9c>
        case 0: {
            if ( valHall + HALL_HIGH < 0 ) {
     55a:	84 3d       	cpi	r24, 0xD4	; 212
     55c:	2e ef       	ldi	r18, 0xFE	; 254
     55e:	92 07       	cpc	r25, r18
     560:	14 f4       	brge	.+4      	; 0x566 <MagnetMaze+0x6a>
                newHallState = 1;
     562:	81 e0       	ldi	r24, 0x01	; 1
     564:	04 c0       	rjmp	.+8      	; 0x56e <MagnetMaze+0x72>
            } else if ( valHall - HALL_HIGH > 0 ) {
     566:	8d 32       	cpi	r24, 0x2D	; 45
     568:	91 40       	sbci	r25, 0x01	; 1
     56a:	5c f0       	brlt	.+22     	; 0x582 <MagnetMaze+0x86>
                newHallState = 2;
     56c:	82 e0       	ldi	r24, 0x02	; 2
     56e:	80 93 3b 38 	sts	0x383B, r24	; 0x80383b <newHallState>
     572:	12 c0       	rjmp	.+36     	; 0x598 <MagnetMaze+0x9c>
            }
            break;
        }
        
        case 1: {
            if ( valHall - HALL_HIGH > 0 ) {
     574:	8d 32       	cpi	r24, 0x2D	; 45
     576:	21 e0       	ldi	r18, 0x01	; 1
     578:	92 07       	cpc	r25, r18
     57a:	c4 f7       	brge	.-16     	; 0x56c <MagnetMaze+0x70>
                newHallState = 2;
            } else if ( valHall + HALL_LOW > 0 ) {
     57c:	89 38       	cpi	r24, 0x89	; 137
     57e:	9f 4f       	sbci	r25, 0xFF	; 255
     580:	84 f3       	brlt	.-32     	; 0x562 <MagnetMaze+0x66>
            if ( valHall + HALL_HIGH < 0 ) {
                newHallState = 1;
            } else if ( valHall - HALL_HIGH > 0 ) {
                newHallState = 2;
            } else {
                newHallState = 0;
     582:	10 92 3b 38 	sts	0x383B, r1	; 0x80383b <newHallState>
     586:	08 c0       	rjmp	.+16     	; 0x598 <MagnetMaze+0x9c>
            }
            break;
        }
        
        case 2: {
            if ( valHall + HALL_HIGH < 0 ) {
     588:	84 3d       	cpi	r24, 0xD4	; 212
     58a:	2e ef       	ldi	r18, 0xFE	; 254
     58c:	92 07       	cpc	r25, r18
     58e:	4c f3       	brlt	.-46     	; 0x562 <MagnetMaze+0x66>
                newHallState = 1;
            } else if ( valHall - HALL_LOW < 0 ) {
     590:	88 37       	cpi	r24, 0x78	; 120
     592:	91 05       	cpc	r25, r1
     594:	b4 f3       	brlt	.-20     	; 0x582 <MagnetMaze+0x86>
     596:	ea cf       	rjmp	.-44     	; 0x56c <MagnetMaze+0x70>
            break;
        }
    }

    /* activate led for hallstate */
    iLED[SCARAB[G]] = (newHallState ? dimValue : 0);
     598:	c0 91 31 b7 	lds	r28, 0xB731	; 0x80b731 <__bss_end+0x7c2b>
     59c:	ec 2f       	mov	r30, r28
     59e:	f0 e0       	ldi	r31, 0x00	; 0
     5a0:	80 91 3b 38 	lds	r24, 0x383B	; 0x80383b <newHallState>
     5a4:	88 23       	and	r24, r24
     5a6:	19 f0       	breq	.+6      	; 0x5ae <MagnetMaze+0xb2>
     5a8:	90 91 09 38 	lds	r25, 0x3809	; 0x803809 <dimValue>
     5ac:	01 c0       	rjmp	.+2      	; 0x5b0 <MagnetMaze+0xb4>
     5ae:	90 e0       	ldi	r25, 0x00	; 0
     5b0:	ea 54       	subi	r30, 0x4A	; 74
     5b2:	f5 4c       	sbci	r31, 0xC5	; 197
     5b4:	90 83       	st	Z, r25


    /* Make the maze work regardless of badge orientation */
    if (newHallState != 0 && mazePos == 0 )
     5b6:	88 23       	and	r24, r24
     5b8:	59 f0       	breq	.+22     	; 0x5d0 <MagnetMaze+0xd4>
     5ba:	20 91 3a 38 	lds	r18, 0x383A	; 0x80383a <mazePos>
     5be:	21 11       	cpse	r18, r1
     5c0:	3d c0       	rjmp	.+122    	; 0x63c <MagnetMaze+0x140>
        inverted = (newHallState != mazeCode[0]) ? TRUE : FALSE;
     5c2:	91 e0       	ldi	r25, 0x01	; 1
     5c4:	81 30       	cpi	r24, 0x01	; 1
     5c6:	09 f4       	brne	.+2      	; 0x5ca <MagnetMaze+0xce>
     5c8:	90 e0       	ldi	r25, 0x00	; 0
     5ca:	90 93 38 38 	sts	0x3838, r25	; 0x803838 <inverted>
     5ce:	36 c0       	rjmp	.+108    	; 0x63c <MagnetMaze+0x140>

    if (newHallState != curHallState) {
     5d0:	33 23       	and	r19, r19
     5d2:	09 f4       	brne	.+2      	; 0x5d6 <MagnetMaze+0xda>
     5d4:	d7 c0       	rjmp	.+430    	; 0x784 <MagnetMaze+0x288>
        curHallState = newHallState;
     5d6:	10 92 3c 38 	sts	0x383C, r1	; 0x80383c <curHallState>
                    for (int i=0; i<6; i++ )
                        iLED[HCKR[G][i]] = 0;
                }
            }
        } else {
            if (mazePos == sizeof(mazeCode)) {
     5da:	80 91 3a 38 	lds	r24, 0x383A	; 0x80383a <mazePos>
     5de:	82 31       	cpi	r24, 0x12	; 18
     5e0:	09 f0       	breq	.+2      	; 0x5e4 <MagnetMaze+0xe8>
     5e2:	d0 c0       	rjmp	.+416    	; 0x784 <MagnetMaze+0x288>
                gameNow   = TEXT;
     5e4:	10 92 2f 38 	sts	0x382F, r1	; 0x80382f <gameNow>
                mazePos   = 0;
     5e8:	10 92 3a 38 	sts	0x383A, r1	; 0x80383a <mazePos>
                mazeState = TRUE;
     5ec:	81 e0       	ldi	r24, 0x01	; 1
     5ee:	80 93 0a 38 	sts	0x380A, r24	; 0x80380a <mazeState>
                iLED[SCARAB[G]]    = 0;
     5f2:	10 82       	st	Z, r1
                iLED[EYE[G][L]] = 0;
     5f4:	e0 91 3f b7 	lds	r30, 0xB73F	; 0x80b73f <__bss_end+0x7c39>
     5f8:	f0 e0       	ldi	r31, 0x00	; 0
     5fa:	ea 54       	subi	r30, 0x4A	; 74
     5fc:	f5 4c       	sbci	r31, 0xC5	; 197
     5fe:	10 82       	st	Z, r1
                iLED[EYE[G][R]] = 0;
     600:	e0 91 3e b7 	lds	r30, 0xB73E	; 0x80b73e <__bss_end+0x7c38>
     604:	f0 e0       	ldi	r31, 0x00	; 0
     606:	ea 54       	subi	r30, 0x4A	; 74
     608:	f5 4c       	sbci	r31, 0xC5	; 197
     60a:	10 82       	st	Z, r1
                iLED[EYE[R][L]] = 0;
     60c:	e0 91 3d b7 	lds	r30, 0xB73D	; 0x80b73d <__bss_end+0x7c37>
     610:	f0 e0       	ldi	r31, 0x00	; 0
     612:	ea 54       	subi	r30, 0x4A	; 74
     614:	f5 4c       	sbci	r31, 0xC5	; 197
     616:	10 82       	st	Z, r1
                iLED[EYE[R][R]] = 0;
     618:	e0 91 3c b7 	lds	r30, 0xB73C	; 0x80b73c <__bss_end+0x7c36>
     61c:	f0 e0       	ldi	r31, 0x00	; 0
     61e:	ea 54       	subi	r30, 0x4A	; 74
     620:	f5 4c       	sbci	r31, 0xC5	; 197
     622:	10 82       	st	Z, r1
     624:	a6 e4       	ldi	r26, 0x46	; 70
     626:	b7 eb       	ldi	r27, 0xB7	; 183
                for (int i=0; i<6; i++ )
                    iLED[HCKR[G][i]] = 0;
     628:	ed 91       	ld	r30, X+
     62a:	f0 e0       	ldi	r31, 0x00	; 0
     62c:	ea 54       	subi	r30, 0x4A	; 74
     62e:	f5 4c       	sbci	r31, 0xC5	; 197
     630:	10 82       	st	Z, r1
                iLED[SCARAB[G]]    = 0;
                iLED[EYE[G][L]] = 0;
                iLED[EYE[G][R]] = 0;
                iLED[EYE[R][L]] = 0;
                iLED[EYE[R][R]] = 0;
                for (int i=0; i<6; i++ )
     632:	27 eb       	ldi	r18, 0xB7	; 183
     634:	ac 34       	cpi	r26, 0x4C	; 76
     636:	b2 07       	cpc	r27, r18
     638:	b9 f7       	brne	.-18     	; 0x628 <MagnetMaze+0x12c>
     63a:	a4 c0       	rjmp	.+328    	; 0x784 <MagnetMaze+0x288>

    /* Make the maze work regardless of badge orientation */
    if (newHallState != 0 && mazePos == 0 )
        inverted = (newHallState != mazeCode[0]) ? TRUE : FALSE;

    if (newHallState != curHallState) {
     63c:	38 17       	cp	r19, r24
     63e:	09 f4       	brne	.+2      	; 0x642 <MagnetMaze+0x146>
     640:	a1 c0       	rjmp	.+322    	; 0x784 <MagnetMaze+0x288>
        curHallState = newHallState;
     642:	80 93 3c 38 	sts	0x383C, r24	; 0x80383c <curHallState>
        
        if (curHallState != 0) {
            gameNow = MAZE;
     646:	91 e0       	ldi	r25, 0x01	; 1
     648:	90 93 2f 38 	sts	0x382F, r25	; 0x80382f <gameNow>
            if ( (inverted ? curHallState^3 : curHallState) == mazeCode[mazePos]) {
     64c:	90 91 38 38 	lds	r25, 0x3838	; 0x803838 <inverted>
     650:	99 23       	and	r25, r25
     652:	11 f0       	breq	.+4      	; 0x658 <MagnetMaze+0x15c>
     654:	93 e0       	ldi	r25, 0x03	; 3
     656:	89 27       	eor	r24, r25
     658:	90 e0       	ldi	r25, 0x00	; 0
     65a:	e2 2f       	mov	r30, r18
     65c:	f0 e0       	ldi	r31, 0x00	; 0
     65e:	e4 5b       	subi	r30, 0xB4	; 180
     660:	f8 44       	sbci	r31, 0x48	; 72
     662:	40 81       	ld	r20, Z
     664:	50 e0       	ldi	r21, 0x00	; 0
     666:	84 17       	cp	r24, r20
     668:	95 07       	cpc	r25, r21
     66a:	91 f4       	brne	.+36     	; 0x690 <MagnetMaze+0x194>
                mazeState &= TRUE;
     66c:	80 91 0a 38 	lds	r24, 0x380A	; 0x80380a <mazeState>
     670:	81 70       	andi	r24, 0x01	; 1
     672:	80 93 0a 38 	sts	0x380A, r24	; 0x80380a <mazeState>
                iLED[EYE[R][L]] = 0;
     676:	e0 91 3d b7 	lds	r30, 0xB73D	; 0x80b73d <__bss_end+0x7c37>
     67a:	f0 e0       	ldi	r31, 0x00	; 0
     67c:	ea 54       	subi	r30, 0x4A	; 74
     67e:	f5 4c       	sbci	r31, 0xC5	; 197
     680:	10 82       	st	Z, r1
                iLED[EYE[R][R]] = 0;
     682:	e0 91 3c b7 	lds	r30, 0xB73C	; 0x80b73c <__bss_end+0x7c36>
     686:	f0 e0       	ldi	r31, 0x00	; 0
     688:	ea 54       	subi	r30, 0x4A	; 74
     68a:	f5 4c       	sbci	r31, 0xC5	; 197
     68c:	10 82       	st	Z, r1
     68e:	02 c0       	rjmp	.+4      	; 0x694 <MagnetMaze+0x198>
            } else {
                mazeState = FALSE;
     690:	10 92 0a 38 	sts	0x380A, r1	; 0x80380a <mazeState>
                /* play tone BAD */
            }
            mazePos++;
     694:	2f 5f       	subi	r18, 0xFF	; 255
     696:	20 93 3a 38 	sts	0x383A, r18	; 0x80383a <mazePos>
            mazeCnt++;            
     69a:	80 91 39 38 	lds	r24, 0x3839	; 0x803839 <mazeCnt>
     69e:	8f 5f       	subi	r24, 0xFF	; 255
            if (mazeCnt >= 3) {
     6a0:	83 30       	cpi	r24, 0x03	; 3
     6a2:	18 f4       	brcc	.+6      	; 0x6aa <MagnetMaze+0x1ae>
            } else {
                mazeState = FALSE;
                /* play tone BAD */
            }
            mazePos++;
            mazeCnt++;            
     6a4:	80 93 39 38 	sts	0x3839, r24	; 0x803839 <mazeCnt>
     6a8:	6d c0       	rjmp	.+218    	; 0x784 <MagnetMaze+0x288>
            if (mazeCnt >= 3) {
                mazeCnt = 0;
     6aa:	10 92 39 38 	sts	0x3839, r1	; 0x803839 <mazeCnt>
                if (mazeState == TRUE) {
     6ae:	80 91 0a 38 	lds	r24, 0x380A	; 0x80380a <mazeState>
     6b2:	81 30       	cpi	r24, 0x01	; 1
     6b4:	a9 f5       	brne	.+106    	; 0x720 <MagnetMaze+0x224>
                    /* play tone GOOD */
                    iLED[HCKR[G][(mazePos/3)-1]] = dimValue;
     6b6:	eb ea       	ldi	r30, 0xAB	; 171
     6b8:	2e 9f       	mul	r18, r30
     6ba:	e1 2d       	mov	r30, r1
     6bc:	11 24       	eor	r1, r1
     6be:	e6 95       	lsr	r30
     6c0:	f0 e0       	ldi	r31, 0x00	; 0
     6c2:	e0 5c       	subi	r30, 0xC0	; 192
     6c4:	f8 44       	sbci	r31, 0x48	; 72
     6c6:	e5 81       	ldd	r30, Z+5	; 0x05
     6c8:	f0 e0       	ldi	r31, 0x00	; 0
     6ca:	80 91 09 38 	lds	r24, 0x3809	; 0x803809 <dimValue>
     6ce:	ea 54       	subi	r30, 0x4A	; 74
     6d0:	f5 4c       	sbci	r31, 0xC5	; 197
     6d2:	80 83       	st	Z, r24
                    if (mazePos == sizeof(mazeCode)) {
     6d4:	22 31       	cpi	r18, 0x12	; 18
     6d6:	09 f0       	breq	.+2      	; 0x6da <MagnetMaze+0x1de>
                        UpdateState(MAZE_COMPLETED);
     6d8:	55 c0       	rjmp	.+170    	; 0x784 <MagnetMaze+0x288>
     6da:	8d e7       	ldi	r24, 0x7D	; 125
     6dc:	76 d5       	rcall	.+2796   	; 0x11ca <UpdateState>
                        iLED[SCARAB[G]]    = 0;
     6de:	d0 e0       	ldi	r29, 0x00	; 0
     6e0:	ca 54       	subi	r28, 0x4A	; 74
     6e2:	d5 4c       	sbci	r29, 0xC5	; 197
     6e4:	18 82       	st	Y, r1
                        iLED[EYE[R][L]] = 0;
     6e6:	e0 91 3d b7 	lds	r30, 0xB73D	; 0x80b73d <__bss_end+0x7c37>
     6ea:	f0 e0       	ldi	r31, 0x00	; 0
     6ec:	ea 54       	subi	r30, 0x4A	; 74
     6ee:	f5 4c       	sbci	r31, 0xC5	; 197
     6f0:	10 82       	st	Z, r1
                        iLED[EYE[R][R]] = 0;
     6f2:	e0 91 3c b7 	lds	r30, 0xB73C	; 0x80b73c <__bss_end+0x7c36>
     6f6:	f0 e0       	ldi	r31, 0x00	; 0
     6f8:	ea 54       	subi	r30, 0x4A	; 74
     6fa:	f5 4c       	sbci	r31, 0xC5	; 197
     6fc:	10 82       	st	Z, r1
                        iLED[EYE[G][L]] = dimValue;
     6fe:	e0 91 3f b7 	lds	r30, 0xB73F	; 0x80b73f <__bss_end+0x7c39>
     702:	f0 e0       	ldi	r31, 0x00	; 0
     704:	80 91 09 38 	lds	r24, 0x3809	; 0x803809 <dimValue>
     708:	ea 54       	subi	r30, 0x4A	; 74
     70a:	f5 4c       	sbci	r31, 0xC5	; 197
     70c:	80 83       	st	Z, r24
                        iLED[EYE[G][R]] = dimValue;
     70e:	e0 91 3e b7 	lds	r30, 0xB73E	; 0x80b73e <__bss_end+0x7c38>
     712:	f0 e0       	ldi	r31, 0x00	; 0
     714:	80 91 09 38 	lds	r24, 0x3809	; 0x803809 <dimValue>
     718:	ea 54       	subi	r30, 0x4A	; 74
     71a:	f5 4c       	sbci	r31, 0xC5	; 197
     71c:	80 83       	st	Z, r24
     71e:	32 c0       	rjmp	.+100    	; 0x784 <MagnetMaze+0x288>
                        /*state = STATE_MUSIC;*/
                    }
                } else {
                    gameNow   = TEXT;
     720:	10 92 2f 38 	sts	0x382F, r1	; 0x80382f <gameNow>
                    mazePos   = 0;
     724:	10 92 3a 38 	sts	0x383A, r1	; 0x80383a <mazePos>
                    mazeState = TRUE;
     728:	81 e0       	ldi	r24, 0x01	; 1
     72a:	80 93 0a 38 	sts	0x380A, r24	; 0x80380a <mazeState>
                    iLED[SCARAB[G]]    = 0;
     72e:	d0 e0       	ldi	r29, 0x00	; 0
     730:	ca 54       	subi	r28, 0x4A	; 74
     732:	d5 4c       	sbci	r29, 0xC5	; 197
     734:	18 82       	st	Y, r1
                    iLED[EYE[G][L]] = 0;
     736:	e0 91 3f b7 	lds	r30, 0xB73F	; 0x80b73f <__bss_end+0x7c39>
     73a:	f0 e0       	ldi	r31, 0x00	; 0
     73c:	ea 54       	subi	r30, 0x4A	; 74
     73e:	f5 4c       	sbci	r31, 0xC5	; 197
     740:	10 82       	st	Z, r1
                    iLED[EYE[G][R]] = 0;
     742:	e0 91 3e b7 	lds	r30, 0xB73E	; 0x80b73e <__bss_end+0x7c38>
     746:	f0 e0       	ldi	r31, 0x00	; 0
     748:	ea 54       	subi	r30, 0x4A	; 74
     74a:	f5 4c       	sbci	r31, 0xC5	; 197
     74c:	10 82       	st	Z, r1
                    iLED[EYE[R][L]] = dimValue;
     74e:	e0 91 3d b7 	lds	r30, 0xB73D	; 0x80b73d <__bss_end+0x7c37>
     752:	f0 e0       	ldi	r31, 0x00	; 0
     754:	80 91 09 38 	lds	r24, 0x3809	; 0x803809 <dimValue>
     758:	ea 54       	subi	r30, 0x4A	; 74
     75a:	f5 4c       	sbci	r31, 0xC5	; 197
     75c:	80 83       	st	Z, r24
                    iLED[EYE[R][R]] = dimValue;
     75e:	e0 91 3c b7 	lds	r30, 0xB73C	; 0x80b73c <__bss_end+0x7c36>
     762:	f0 e0       	ldi	r31, 0x00	; 0
     764:	80 91 09 38 	lds	r24, 0x3809	; 0x803809 <dimValue>
     768:	ea 54       	subi	r30, 0x4A	; 74
     76a:	f5 4c       	sbci	r31, 0xC5	; 197
     76c:	80 83       	st	Z, r24
     76e:	a6 e4       	ldi	r26, 0x46	; 70
     770:	b7 eb       	ldi	r27, 0xB7	; 183
                    for (int i=0; i<6; i++ )
                        iLED[HCKR[G][i]] = 0;
     772:	ed 91       	ld	r30, X+
     774:	f0 e0       	ldi	r31, 0x00	; 0
     776:	ea 54       	subi	r30, 0x4A	; 74
     778:	f5 4c       	sbci	r31, 0xC5	; 197
     77a:	10 82       	st	Z, r1
                    iLED[SCARAB[G]]    = 0;
                    iLED[EYE[G][L]] = 0;
                    iLED[EYE[G][R]] = 0;
                    iLED[EYE[R][L]] = dimValue;
                    iLED[EYE[R][R]] = dimValue;
                    for (int i=0; i<6; i++ )
     77c:	87 eb       	ldi	r24, 0xB7	; 183
     77e:	ac 34       	cpi	r26, 0x4C	; 76
     780:	b8 07       	cpc	r27, r24
     782:	b9 f7       	brne	.-18     	; 0x772 <MagnetMaze+0x276>
                    iLED[HCKR[G][i]] = 0;
            }
        }
    }
    return 0;
}
     784:	80 e0       	ldi	r24, 0x00	; 0
     786:	df 91       	pop	r29
     788:	cf 91       	pop	r28
     78a:	08 95       	ret

0000078c <Setup>:
    ++test;

    for (uint8_t x=0; x<5; ++x){
        iLED[WING[R][x]] = iLED[WING[L][4-x]];
    }
}
     78c:	cf 93       	push	r28
     78e:	df 93       	push	r29
     790:	f8 94       	cli
     792:	88 ed       	ldi	r24, 0xD8	; 216
     794:	84 bf       	out	0x34, r24	; 52
     796:	c1 e0       	ldi	r28, 0x01	; 1
     798:	c0 93 61 00 	sts	0x0061, r28	; 0x800061 <__TEXT_REGION_LENGTH__+0x700061>
     79c:	8a e4       	ldi	r24, 0x4A	; 74
     79e:	80 93 00 04 	sts	0x0400, r24	; 0x800400 <__TEXT_REGION_LENGTH__+0x700400>
     7a2:	8c e7       	ldi	r24, 0x7C	; 124
     7a4:	80 93 20 04 	sts	0x0420, r24	; 0x800420 <__TEXT_REGION_LENGTH__+0x700420>
     7a8:	9f e3       	ldi	r25, 0x3F	; 63
     7aa:	90 93 40 04 	sts	0x0440, r25	; 0x800440 <__TEXT_REGION_LENGTH__+0x700440>
     7ae:	80 91 53 04 	lds	r24, 0x0453	; 0x800453 <__TEXT_REGION_LENGTH__+0x700453>
     7b2:	80 68       	ori	r24, 0x80	; 128
     7b4:	80 93 53 04 	sts	0x0453, r24	; 0x800453 <__TEXT_REGION_LENGTH__+0x700453>
     7b8:	80 91 54 04 	lds	r24, 0x0454	; 0x800454 <__TEXT_REGION_LENGTH__+0x700454>
     7bc:	80 68       	ori	r24, 0x80	; 128
     7be:	80 93 54 04 	sts	0x0454, r24	; 0x800454 <__TEXT_REGION_LENGTH__+0x700454>
     7c2:	80 91 55 04 	lds	r24, 0x0455	; 0x800455 <__TEXT_REGION_LENGTH__+0x700455>
     7c6:	80 68       	ori	r24, 0x80	; 128
     7c8:	80 93 55 04 	sts	0x0455, r24	; 0x800455 <__TEXT_REGION_LENGTH__+0x700455>
     7cc:	80 91 33 04 	lds	r24, 0x0433	; 0x800433 <__TEXT_REGION_LENGTH__+0x700433>
     7d0:	80 68       	ori	r24, 0x80	; 128
     7d2:	80 93 33 04 	sts	0x0433, r24	; 0x800433 <__TEXT_REGION_LENGTH__+0x700433>
     7d6:	80 91 34 04 	lds	r24, 0x0434	; 0x800434 <__TEXT_REGION_LENGTH__+0x700434>
     7da:	80 68       	ori	r24, 0x80	; 128
     7dc:	80 93 34 04 	sts	0x0434, r24	; 0x800434 <__TEXT_REGION_LENGTH__+0x700434>
     7e0:	80 91 35 04 	lds	r24, 0x0435	; 0x800435 <__TEXT_REGION_LENGTH__+0x700435>
     7e4:	80 68       	ori	r24, 0x80	; 128
     7e6:	80 93 35 04 	sts	0x0435, r24	; 0x800435 <__TEXT_REGION_LENGTH__+0x700435>
     7ea:	c0 93 01 02 	sts	0x0201, r28	; 0x800201 <__TEXT_REGION_LENGTH__+0x700201>
     7ee:	d2 e0       	ldi	r29, 0x02	; 2
     7f0:	d0 93 05 04 	sts	0x0405, r29	; 0x800405 <__TEXT_REGION_LENGTH__+0x700405>
     7f4:	2b e5       	ldi	r18, 0x5B	; 91
     7f6:	31 e0       	ldi	r19, 0x01	; 1
     7f8:	20 93 08 08 	sts	0x0808, r18	; 0x800808 <__TEXT_REGION_LENGTH__+0x700808>
     7fc:	30 93 09 08 	sts	0x0809, r19	; 0x800809 <__TEXT_REGION_LENGTH__+0x700809>
     800:	80 ea       	ldi	r24, 0xA0	; 160
     802:	80 93 05 08 	sts	0x0805, r24	; 0x800805 <__TEXT_REGION_LENGTH__+0x700805>
     806:	80 ec       	ldi	r24, 0xC0	; 192
     808:	80 93 06 08 	sts	0x0806, r24	; 0x800806 <__TEXT_REGION_LENGTH__+0x700806>
     80c:	83 e0       	ldi	r24, 0x03	; 3
     80e:	80 93 07 08 	sts	0x0807, r24	; 0x800807 <__TEXT_REGION_LENGTH__+0x700807>
     812:	1c ba       	out	0x1c, r1	; 28
     814:	1d ba       	out	0x1d, r1	; 29
     816:	1e ba       	out	0x1e, r1	; 30
     818:	1f ba       	out	0x1f, r1	; 31
     81a:	c0 93 03 0a 	sts	0x0A03, r28	; 0x800a03 <__TEXT_REGION_LENGTH__+0x700a03>
     81e:	88 e0       	ldi	r24, 0x08	; 8
     820:	80 93 00 0a 	sts	0x0A00, r24	; 0x800a00 <__TEXT_REGION_LENGTH__+0x700a00>
     824:	90 93 02 02 	sts	0x0202, r25	; 0x800202 <__TEXT_REGION_LENGTH__+0x700202>
     828:	87 e7       	ldi	r24, 0x77	; 119
     82a:	80 93 01 0a 	sts	0x0A01, r24	; 0x800a01 <__TEXT_REGION_LENGTH__+0x700a01>
     82e:	c0 93 0a 0a 	sts	0x0A0A, r28	; 0x800a0a <__TEXT_REGION_LENGTH__+0x700a0a>
     832:	8b e0       	ldi	r24, 0x0B	; 11
     834:	80 93 05 0a 	sts	0x0A05, r24	; 0x800a05 <__TEXT_REGION_LENGTH__+0x700a05>
     838:	80 91 00 0a 	lds	r24, 0x0A00	; 0x800a00 <__TEXT_REGION_LENGTH__+0x700a00>
     83c:	81 60       	ori	r24, 0x01	; 1
     83e:	80 93 00 0a 	sts	0x0A00, r24	; 0x800a00 <__TEXT_REGION_LENGTH__+0x700a00>
     842:	85 e0       	ldi	r24, 0x05	; 5
     844:	80 93 40 0a 	sts	0x0A40, r24	; 0x800a40 <__TEXT_REGION_LENGTH__+0x700a40>
     848:	10 92 41 0a 	sts	0x0A41, r1	; 0x800a41 <__TEXT_REGION_LENGTH__+0x700a41>
     84c:	8f ef       	ldi	r24, 0xFF	; 255
     84e:	91 e0       	ldi	r25, 0x01	; 1
     850:	80 93 4c 0a 	sts	0x0A4C, r24	; 0x800a4c <__TEXT_REGION_LENGTH__+0x700a4c>
     854:	90 93 4d 0a 	sts	0x0A4D, r25	; 0x800a4d <__TEXT_REGION_LENGTH__+0x700a4d>
     858:	10 92 45 0a 	sts	0x0A45, r1	; 0x800a45 <__TEXT_REGION_LENGTH__+0x700a45>
     85c:	c0 93 50 0a 	sts	0x0A50, r28	; 0x800a50 <__TEXT_REGION_LENGTH__+0x700a50>
     860:	10 92 51 0a 	sts	0x0A51, r1	; 0x800a51 <__TEXT_REGION_LENGTH__+0x700a51>
     864:	8b e8       	ldi	r24, 0x8B	; 139
     866:	93 e0       	ldi	r25, 0x03	; 3
     868:	80 93 5c 0a 	sts	0x0A5C, r24	; 0x800a5c <__TEXT_REGION_LENGTH__+0x700a5c>
     86c:	90 93 5d 0a 	sts	0x0A5D, r25	; 0x800a5d <__TEXT_REGION_LENGTH__+0x700a5d>
     870:	c0 93 55 0a 	sts	0x0A55, r28	; 0x800a55 <__TEXT_REGION_LENGTH__+0x700a55>
     874:	21 dc       	rcall	.-1982   	; 0xb8 <I2C_init>
     876:	82 e1       	ldi	r24, 0x12	; 18
     878:	80 93 a0 00 	sts	0x00A0, r24	; 0x8000a0 <__TEXT_REGION_LENGTH__+0x7000a0>
     87c:	80 e2       	ldi	r24, 0x20	; 32
     87e:	80 93 a2 00 	sts	0x00A2, r24	; 0x8000a2 <__TEXT_REGION_LENGTH__+0x7000a2>
     882:	c0 93 a1 00 	sts	0x00A1, r28	; 0x8000a1 <__TEXT_REGION_LENGTH__+0x7000a1>
     886:	86 e0       	ldi	r24, 0x06	; 6
     888:	80 93 00 06 	sts	0x0600, r24	; 0x800600 <__TEXT_REGION_LENGTH__+0x700600>
     88c:	84 e4       	ldi	r24, 0x44	; 68
     88e:	80 93 02 06 	sts	0x0602, r24	; 0x800602 <__TEXT_REGION_LENGTH__+0x700602>
     892:	8e e1       	ldi	r24, 0x1E	; 30
     894:	80 93 06 06 	sts	0x0606, r24	; 0x800606 <__TEXT_REGION_LENGTH__+0x700606>
     898:	c0 93 0a 06 	sts	0x060A, r28	; 0x80060a <__TEXT_REGION_LENGTH__+0x70060a>
     89c:	80 91 00 06 	lds	r24, 0x0600	; 0x800600 <__TEXT_REGION_LENGTH__+0x700600>
     8a0:	81 60       	ori	r24, 0x01	; 1
     8a2:	80 93 00 06 	sts	0x0600, r24	; 0x800600 <__TEXT_REGION_LENGTH__+0x700600>
     8a6:	c0 93 08 06 	sts	0x0608, r28	; 0x800608 <__TEXT_REGION_LENGTH__+0x700608>
     8aa:	10 92 40 06 	sts	0x0640, r1	; 0x800640 <__TEXT_REGION_LENGTH__+0x700640>
     8ae:	d0 93 41 06 	sts	0x0641, r29	; 0x800641 <__TEXT_REGION_LENGTH__+0x700641>
     8b2:	82 e5       	ldi	r24, 0x52	; 82
     8b4:	80 93 42 06 	sts	0x0642, r24	; 0x800642 <__TEXT_REGION_LENGTH__+0x700642>
     8b8:	84 e0       	ldi	r24, 0x04	; 4
     8ba:	80 93 45 06 	sts	0x0645, r24	; 0x800645 <__TEXT_REGION_LENGTH__+0x700645>
     8be:	80 93 46 06 	sts	0x0646, r24	; 0x800646 <__TEXT_REGION_LENGTH__+0x700646>
     8c2:	c0 93 4a 06 	sts	0x064A, r28	; 0x80064a <__TEXT_REGION_LENGTH__+0x70064a>
     8c6:	80 91 40 06 	lds	r24, 0x0640	; 0x800640 <__TEXT_REGION_LENGTH__+0x700640>
     8ca:	81 60       	ori	r24, 0x01	; 1
     8cc:	80 93 40 06 	sts	0x0640, r24	; 0x800640 <__TEXT_REGION_LENGTH__+0x700640>
     8d0:	c0 93 48 06 	sts	0x0648, r28	; 0x800648 <__TEXT_REGION_LENGTH__+0x700648>
     8d4:	80 e4       	ldi	r24, 0x40	; 64
     8d6:	80 93 a0 06 	sts	0x06A0, r24	; 0x8006a0 <__TEXT_REGION_LENGTH__+0x7006a0>
     8da:	80 e8       	ldi	r24, 0x80	; 128
     8dc:	80 93 a1 06 	sts	0x06A1, r24	; 0x8006a1 <__TEXT_REGION_LENGTH__+0x7006a1>
     8e0:	80 91 a0 06 	lds	r24, 0x06A0	; 0x8006a0 <__TEXT_REGION_LENGTH__+0x7006a0>
     8e4:	81 60       	ori	r24, 0x01	; 1
     8e6:	80 93 a0 06 	sts	0x06A0, r24	; 0x8006a0 <__TEXT_REGION_LENGTH__+0x7006a0>
     8ea:	80 91 41 01 	lds	r24, 0x0141	; 0x800141 <__TEXT_REGION_LENGTH__+0x700141>
     8ee:	80 fd       	sbrc	r24, 0
     8f0:	fc cf       	rjmp	.-8      	; 0x8ea <Setup+0x15e>
     8f2:	80 e3       	ldi	r24, 0x30	; 48
     8f4:	80 93 40 01 	sts	0x0140, r24	; 0x800140 <__TEXT_REGION_LENGTH__+0x700140>
     8f8:	10 92 47 01 	sts	0x0147, r1	; 0x800147 <__TEXT_REGION_LENGTH__+0x700147>
     8fc:	80 91 41 01 	lds	r24, 0x0141	; 0x800141 <__TEXT_REGION_LENGTH__+0x700141>
     900:	82 fd       	sbrc	r24, 2
     902:	fc cf       	rjmp	.-8      	; 0x8fc <Setup+0x170>
     904:	80 e0       	ldi	r24, 0x00	; 0
     906:	98 e7       	ldi	r25, 0x78	; 120
     908:	80 93 4a 01 	sts	0x014A, r24	; 0x80014a <__TEXT_REGION_LENGTH__+0x70014a>
     90c:	90 93 4b 01 	sts	0x014B, r25	; 0x80014b <__TEXT_REGION_LENGTH__+0x70014b>
     910:	80 91 48 01 	lds	r24, 0x0148	; 0x800148 <__TEXT_REGION_LENGTH__+0x700148>
     914:	90 91 49 01 	lds	r25, 0x0149	; 0x800149 <__TEXT_REGION_LENGTH__+0x700149>
     918:	60 91 4a 01 	lds	r22, 0x014A	; 0x80014a <__TEXT_REGION_LENGTH__+0x70014a>
     91c:	70 91 4b 01 	lds	r23, 0x014B	; 0x80014b <__TEXT_REGION_LENGTH__+0x70014b>
     920:	82 96       	adiw	r24, 0x22	; 34
     922:	0e 94 38 1b 	call	0x3670	; 0x3670 <__udivmodhi4>
     926:	80 93 e3 3a 	sts	0x3AE3, r24	; 0x803ae3 <tmp16bit>
     92a:	90 93 e4 3a 	sts	0x3AE4, r25	; 0x803ae4 <tmp16bit+0x1>
     92e:	80 91 41 01 	lds	r24, 0x0141	; 0x800141 <__TEXT_REGION_LENGTH__+0x700141>
     932:	83 fd       	sbrc	r24, 3
     934:	fc cf       	rjmp	.-8      	; 0x92e <Setup+0x1a2>
     936:	80 91 e3 3a 	lds	r24, 0x3AE3	; 0x803ae3 <tmp16bit>
     93a:	90 91 e4 3a 	lds	r25, 0x3AE4	; 0x803ae4 <tmp16bit+0x1>
     93e:	80 93 4c 01 	sts	0x014C, r24	; 0x80014c <__TEXT_REGION_LENGTH__+0x70014c>
     942:	90 93 4d 01 	sts	0x014D, r25	; 0x80014d <__TEXT_REGION_LENGTH__+0x70014d>
     946:	83 e0       	ldi	r24, 0x03	; 3
     948:	80 93 42 01 	sts	0x0142, r24	; 0x800142 <__TEXT_REGION_LENGTH__+0x700142>
     94c:	81 e0       	ldi	r24, 0x01	; 1
     94e:	80 93 52 01 	sts	0x0152, r24	; 0x800152 <__TEXT_REGION_LENGTH__+0x700152>
     952:	88 e0       	ldi	r24, 0x08	; 8
     954:	80 93 50 01 	sts	0x0150, r24	; 0x800150 <__TEXT_REGION_LENGTH__+0x700150>
     958:	80 91 41 01 	lds	r24, 0x0141	; 0x800141 <__TEXT_REGION_LENGTH__+0x700141>
     95c:	80 fd       	sbrc	r24, 0
     95e:	fc cf       	rjmp	.-8      	; 0x958 <Setup+0x1cc>
     960:	80 91 40 01 	lds	r24, 0x0140	; 0x800140 <__TEXT_REGION_LENGTH__+0x700140>
     964:	81 60       	ori	r24, 0x01	; 1
     966:	80 93 40 01 	sts	0x0140, r24	; 0x800140 <__TEXT_REGION_LENGTH__+0x700140>
     96a:	80 91 50 01 	lds	r24, 0x0150	; 0x800150 <__TEXT_REGION_LENGTH__+0x700150>
     96e:	81 60       	ori	r24, 0x01	; 1
     970:	80 93 50 01 	sts	0x0150, r24	; 0x800150 <__TEXT_REGION_LENGTH__+0x700150>
     974:	10 92 61 3a 	sts	0x3A61, r1	; 0x803a61 <serRx>
     978:	81 e6       	ldi	r24, 0x61	; 97
     97a:	9a e3       	ldi	r25, 0x3A	; 58
     97c:	80 93 a5 3a 	sts	0x3AA5, r24	; 0x803aa5 <serTxAddr>
     980:	90 93 a6 3a 	sts	0x3AA6, r25	; 0x803aa6 <serTxAddr+0x1>
     984:	78 94       	sei
     986:	df 91       	pop	r29
     988:	cf 91       	pop	r28
     98a:	08 95       	ret

0000098c <__vector_8>:
     98c:	1f 92       	push	r1
     98e:	0f 92       	push	r0
     990:	0f b6       	in	r0, 0x3f	; 63
     992:	0f 92       	push	r0
     994:	11 24       	eor	r1, r1
     996:	8f 93       	push	r24
     998:	9f 93       	push	r25
     99a:	af 93       	push	r26
     99c:	bf 93       	push	r27
     99e:	ef 93       	push	r30
     9a0:	ff 93       	push	r31
     9a2:	87 e0       	ldi	r24, 0x07	; 7
     9a4:	80 93 46 04 	sts	0x0446, r24	; 0x800446 <__TEXT_REGION_LENGTH__+0x700446>
     9a8:	84 e4       	ldi	r24, 0x44	; 68
     9aa:	80 93 26 04 	sts	0x0426, r24	; 0x800426 <__TEXT_REGION_LENGTH__+0x700426>
     9ae:	ec b3       	in	r30, 0x1c	; 28
     9b0:	88 e0       	ldi	r24, 0x08	; 8
     9b2:	e8 9f       	mul	r30, r24
     9b4:	f0 01       	movw	r30, r0
     9b6:	11 24       	eor	r1, r1
     9b8:	ea 54       	subi	r30, 0x4A	; 74
     9ba:	f5 4c       	sbci	r31, 0xC5	; 197
     9bc:	a8 e2       	ldi	r26, 0x28	; 40
     9be:	ba e0       	ldi	r27, 0x0A	; 10
     9c0:	96 e0       	ldi	r25, 0x06	; 6
     9c2:	81 91       	ld	r24, Z+
     9c4:	8d 93       	st	X+, r24
     9c6:	9a 95       	dec	r25
     9c8:	e1 f7       	brne	.-8      	; 0x9c2 <__vector_8+0x36>
     9ca:	8b e0       	ldi	r24, 0x0B	; 11
     9cc:	80 93 05 0a 	sts	0x0A05, r24	; 0x800a05 <__TEXT_REGION_LENGTH__+0x700a05>
     9d0:	8c b3       	in	r24, 0x1c	; 28
     9d2:	83 30       	cpi	r24, 0x03	; 3
     9d4:	58 f4       	brcc	.+22     	; 0x9ec <__vector_8+0x60>
     9d6:	8c b3       	in	r24, 0x1c	; 28
     9d8:	91 e0       	ldi	r25, 0x01	; 1
     9da:	01 c0       	rjmp	.+2      	; 0x9de <__vector_8+0x52>
     9dc:	99 0f       	add	r25, r25
     9de:	8a 95       	dec	r24
     9e0:	ea f7       	brpl	.-6      	; 0x9dc <__vector_8+0x50>
     9e2:	99 b9       	out	0x09, r25	; 9
     9e4:	8c b3       	in	r24, 0x1c	; 28
     9e6:	83 95       	inc	r24
     9e8:	8c bb       	out	0x1c, r24	; 28
     9ea:	0a c0       	rjmp	.+20     	; 0xa00 <__vector_8+0x74>
     9ec:	8c b3       	in	r24, 0x1c	; 28
     9ee:	83 30       	cpi	r24, 0x03	; 3
     9f0:	21 f4       	brne	.+8      	; 0x9fa <__vector_8+0x6e>
     9f2:	2a 9a       	sbi	0x05, 2	; 5
     9f4:	83 95       	inc	r24
     9f6:	8c bb       	out	0x1c, r24	; 28
     9f8:	03 c0       	rjmp	.+6      	; 0xa00 <__vector_8+0x74>
     9fa:	2e 9a       	sbi	0x05, 6	; 5
     9fc:	88 27       	eor	r24, r24
     9fe:	8c bb       	out	0x1c, r24	; 28
     a00:	80 91 4c 3a 	lds	r24, 0x3A4C	; 0x803a4c <timeout_I2C>
     a04:	88 23       	and	r24, r24
     a06:	29 f0       	breq	.+10     	; 0xa12 <__vector_8+0x86>
     a08:	80 91 4c 3a 	lds	r24, 0x3A4C	; 0x803a4c <timeout_I2C>
     a0c:	81 50       	subi	r24, 0x01	; 1
     a0e:	80 93 4c 3a 	sts	0x3A4C, r24	; 0x803a4c <timeout_I2C>
     a12:	8f ef       	ldi	r24, 0xFF	; 255
     a14:	80 93 0b 0a 	sts	0x0A0B, r24	; 0x800a0b <__TEXT_REGION_LENGTH__+0x700a0b>
     a18:	ff 91       	pop	r31
     a1a:	ef 91       	pop	r30
     a1c:	bf 91       	pop	r27
     a1e:	af 91       	pop	r26
     a20:	9f 91       	pop	r25
     a22:	8f 91       	pop	r24
     a24:	0f 90       	pop	r0
     a26:	0f be       	out	0x3f, r0	; 63
     a28:	0f 90       	pop	r0
     a2a:	1f 90       	pop	r1
     a2c:	18 95       	reti

00000a2e <__vector_13>:
     a2e:	1f 92       	push	r1
     a30:	0f 92       	push	r0
     a32:	0f b6       	in	r0, 0x3f	; 63
     a34:	0f 92       	push	r0
     a36:	11 24       	eor	r1, r1
     a38:	8f 93       	push	r24
     a3a:	9f 93       	push	r25
     a3c:	ef 93       	push	r30
     a3e:	ff 93       	push	r31
     a40:	e0 91 a5 3a 	lds	r30, 0x3AA5	; 0x803aa5 <serTxAddr>
     a44:	f0 91 a6 3a 	lds	r31, 0x3AA6	; 0x803aa6 <serTxAddr+0x1>
     a48:	80 81       	ld	r24, Z
     a4a:	88 23       	and	r24, r24
     a4c:	91 f0       	breq	.+36     	; 0xa72 <__vector_13+0x44>
     a4e:	80 81       	ld	r24, Z
     a50:	80 93 02 08 	sts	0x0802, r24	; 0x800802 <__TEXT_REGION_LENGTH__+0x700802>
     a54:	80 91 a5 3a 	lds	r24, 0x3AA5	; 0x803aa5 <serTxAddr>
     a58:	90 91 a6 3a 	lds	r25, 0x3AA6	; 0x803aa6 <serTxAddr+0x1>
     a5c:	01 96       	adiw	r24, 0x01	; 1
     a5e:	80 93 a5 3a 	sts	0x3AA5, r24	; 0x803aa5 <serTxAddr>
     a62:	90 93 a6 3a 	sts	0x3AA6, r25	; 0x803aa6 <serTxAddr+0x1>
     a66:	80 91 05 08 	lds	r24, 0x0805	; 0x800805 <__TEXT_REGION_LENGTH__+0x700805>
     a6a:	80 62       	ori	r24, 0x20	; 32
     a6c:	80 93 05 08 	sts	0x0805, r24	; 0x800805 <__TEXT_REGION_LENGTH__+0x700805>
     a70:	05 c0       	rjmp	.+10     	; 0xa7c <__vector_13+0x4e>
     a72:	81 e0       	ldi	r24, 0x01	; 1
     a74:	80 93 08 38 	sts	0x3808, r24	; 0x803808 <serTxDone>
     a78:	10 92 45 0a 	sts	0x0A45, r1	; 0x800a45 <__TEXT_REGION_LENGTH__+0x700a45>
     a7c:	81 e0       	ldi	r24, 0x01	; 1
     a7e:	80 93 46 0a 	sts	0x0A46, r24	; 0x800a46 <__TEXT_REGION_LENGTH__+0x700a46>
     a82:	ff 91       	pop	r31
     a84:	ef 91       	pop	r30
     a86:	9f 91       	pop	r25
     a88:	8f 91       	pop	r24
     a8a:	0f 90       	pop	r0
     a8c:	0f be       	out	0x3f, r0	; 63
     a8e:	0f 90       	pop	r0
     a90:	1f 90       	pop	r1
     a92:	18 95       	reti

00000a94 <__vector_14>:
     a94:	1f 92       	push	r1
     a96:	0f 92       	push	r0
     a98:	0f b6       	in	r0, 0x3f	; 63
     a9a:	0f 92       	push	r0
     a9c:	11 24       	eor	r1, r1
     a9e:	2f 93       	push	r18
     aa0:	3f 93       	push	r19
     aa2:	4f 93       	push	r20
     aa4:	8f 93       	push	r24
     aa6:	9f 93       	push	r25
     aa8:	ef 93       	push	r30
     aaa:	ff 93       	push	r31
     aac:	e0 91 05 38 	lds	r30, 0x3805	; 0x803805 <auSmpAddr>
     ab0:	f0 91 06 38 	lds	r31, 0x3806	; 0x803806 <auSmpAddr+0x1>
     ab4:	80 81       	ld	r24, Z
     ab6:	81 11       	cpse	r24, r1
     ab8:	08 c0       	rjmp	.+16     	; 0xaca <__vector_14+0x36>
     aba:	80 91 03 38 	lds	r24, 0x3803	; 0x803803 <auRepAddr>
     abe:	90 91 04 38 	lds	r25, 0x3804	; 0x803804 <auRepAddr+0x1>
     ac2:	80 93 05 38 	sts	0x3805, r24	; 0x803805 <auSmpAddr>
     ac6:	90 93 06 38 	sts	0x3806, r25	; 0x803806 <auSmpAddr+0x1>
     aca:	e0 91 05 38 	lds	r30, 0x3805	; 0x803805 <auSmpAddr>
     ace:	f0 91 06 38 	lds	r31, 0x3806	; 0x803806 <auSmpAddr+0x1>
     ad2:	80 81       	ld	r24, Z
     ad4:	88 23       	and	r24, r24
     ad6:	e1 f0       	breq	.+56     	; 0xb10 <__vector_14+0x7c>
     ad8:	20 81       	ld	r18, Z
     ada:	40 91 a2 3a 	lds	r20, 0x3AA2	; 0x803aa2 <auVolume>
     ade:	30 e0       	ldi	r19, 0x00	; 0
     ae0:	2f 57       	subi	r18, 0x7F	; 127
     ae2:	31 09       	sbc	r19, r1
     ae4:	42 9f       	mul	r20, r18
     ae6:	c0 01       	movw	r24, r0
     ae8:	43 9f       	mul	r20, r19
     aea:	90 0d       	add	r25, r0
     aec:	11 24       	eor	r1, r1
     aee:	89 2f       	mov	r24, r25
     af0:	99 0f       	add	r25, r25
     af2:	99 0b       	sbc	r25, r25
     af4:	80 58       	subi	r24, 0x80	; 128
     af6:	9f 4f       	sbci	r25, 0xFF	; 255
     af8:	80 93 a1 06 	sts	0x06A1, r24	; 0x8006a1 <__TEXT_REGION_LENGTH__+0x7006a1>
     afc:	80 91 05 38 	lds	r24, 0x3805	; 0x803805 <auSmpAddr>
     b00:	90 91 06 38 	lds	r25, 0x3806	; 0x803806 <auSmpAddr+0x1>
     b04:	01 96       	adiw	r24, 0x01	; 1
     b06:	80 93 05 38 	sts	0x3805, r24	; 0x803805 <auSmpAddr>
     b0a:	90 93 06 38 	sts	0x3806, r25	; 0x803806 <auSmpAddr+0x1>
     b0e:	06 c0       	rjmp	.+12     	; 0xb1c <__vector_14+0x88>
     b10:	80 e8       	ldi	r24, 0x80	; 128
     b12:	80 93 a1 06 	sts	0x06A1, r24	; 0x8006a1 <__TEXT_REGION_LENGTH__+0x7006a1>
     b16:	81 e0       	ldi	r24, 0x01	; 1
     b18:	80 93 de 3a 	sts	0x3ADE, r24	; 0x803ade <auPlayDone>
     b1c:	81 e0       	ldi	r24, 0x01	; 1
     b1e:	80 93 56 0a 	sts	0x0A56, r24	; 0x800a56 <__TEXT_REGION_LENGTH__+0x700a56>
     b22:	ff 91       	pop	r31
     b24:	ef 91       	pop	r30
     b26:	9f 91       	pop	r25
     b28:	8f 91       	pop	r24
     b2a:	4f 91       	pop	r20
     b2c:	3f 91       	pop	r19
     b2e:	2f 91       	pop	r18
     b30:	0f 90       	pop	r0
     b32:	0f be       	out	0x3f, r0	; 63
     b34:	0f 90       	pop	r0
     b36:	1f 90       	pop	r1
     b38:	18 95       	reti

00000b3a <__vector_27>:
     b3a:	1f 92       	push	r1
     b3c:	0f 92       	push	r0
     b3e:	0f b6       	in	r0, 0x3f	; 63
     b40:	0f 92       	push	r0
     b42:	11 24       	eor	r1, r1
     b44:	8f 93       	push	r24
     b46:	ef 93       	push	r30
     b48:	ff 93       	push	r31
     b4a:	80 91 37 38 	lds	r24, 0x3837	; 0x803837 <serRxDone>
     b4e:	81 11       	cpse	r24, r1
     b50:	44 c0       	rjmp	.+136    	; 0xbda <__vector_27+0xa0>
     b52:	ed b3       	in	r30, 0x1d	; 29
     b54:	f0 e0       	ldi	r31, 0x00	; 0
     b56:	80 91 00 08 	lds	r24, 0x0800	; 0x800800 <__TEXT_REGION_LENGTH__+0x700800>
     b5a:	ef 59       	subi	r30, 0x9F	; 159
     b5c:	f5 4c       	sbci	r31, 0xC5	; 197
     b5e:	80 83       	st	Z, r24
     b60:	ed b3       	in	r30, 0x1d	; 29
     b62:	f0 e0       	ldi	r31, 0x00	; 0
     b64:	ef 59       	subi	r30, 0x9F	; 159
     b66:	f5 4c       	sbci	r31, 0xC5	; 197
     b68:	80 81       	ld	r24, Z
     b6a:	80 93 02 08 	sts	0x0802, r24	; 0x800802 <__TEXT_REGION_LENGTH__+0x700802>
     b6e:	ed b3       	in	r30, 0x1d	; 29
     b70:	f0 e0       	ldi	r31, 0x00	; 0
     b72:	ef 59       	subi	r30, 0x9F	; 159
     b74:	f5 4c       	sbci	r31, 0xC5	; 197
     b76:	80 81       	ld	r24, Z
     b78:	8a 30       	cpi	r24, 0x0A	; 10
     b7a:	39 f0       	breq	.+14     	; 0xb8a <__vector_27+0x50>
     b7c:	ed b3       	in	r30, 0x1d	; 29
     b7e:	f0 e0       	ldi	r31, 0x00	; 0
     b80:	ef 59       	subi	r30, 0x9F	; 159
     b82:	f5 4c       	sbci	r31, 0xC5	; 197
     b84:	80 81       	ld	r24, Z
     b86:	8d 30       	cpi	r24, 0x0D	; 13
     b88:	49 f4       	brne	.+18     	; 0xb9c <__vector_27+0x62>
     b8a:	ed b3       	in	r30, 0x1d	; 29
     b8c:	f0 e0       	ldi	r31, 0x00	; 0
     b8e:	ef 59       	subi	r30, 0x9F	; 159
     b90:	f5 4c       	sbci	r31, 0xC5	; 197
     b92:	10 82       	st	Z, r1
     b94:	81 e0       	ldi	r24, 0x01	; 1
     b96:	80 93 37 38 	sts	0x3837, r24	; 0x803837 <serRxDone>
     b9a:	1f c0       	rjmp	.+62     	; 0xbda <__vector_27+0xa0>
     b9c:	ed b3       	in	r30, 0x1d	; 29
     b9e:	f0 e0       	ldi	r31, 0x00	; 0
     ba0:	ef 59       	subi	r30, 0x9F	; 159
     ba2:	f5 4c       	sbci	r31, 0xC5	; 197
     ba4:	80 81       	ld	r24, Z
     ba6:	88 30       	cpi	r24, 0x08	; 8
     ba8:	39 f0       	breq	.+14     	; 0xbb8 <__vector_27+0x7e>
     baa:	ed b3       	in	r30, 0x1d	; 29
     bac:	f0 e0       	ldi	r31, 0x00	; 0
     bae:	ef 59       	subi	r30, 0x9F	; 159
     bb0:	f5 4c       	sbci	r31, 0xC5	; 197
     bb2:	80 81       	ld	r24, Z
     bb4:	8f 37       	cpi	r24, 0x7F	; 127
     bb6:	59 f4       	brne	.+22     	; 0xbce <__vector_27+0x94>
     bb8:	8d b3       	in	r24, 0x1d	; 29
     bba:	88 23       	and	r24, r24
     bbc:	41 f0       	breq	.+16     	; 0xbce <__vector_27+0x94>
     bbe:	ed b3       	in	r30, 0x1d	; 29
     bc0:	f0 e0       	ldi	r31, 0x00	; 0
     bc2:	ef 59       	subi	r30, 0x9F	; 159
     bc4:	f5 4c       	sbci	r31, 0xC5	; 197
     bc6:	10 82       	st	Z, r1
     bc8:	8d b3       	in	r24, 0x1d	; 29
     bca:	81 50       	subi	r24, 0x01	; 1
     bcc:	05 c0       	rjmp	.+10     	; 0xbd8 <__vector_27+0x9e>
     bce:	8d b3       	in	r24, 0x1d	; 29
     bd0:	80 34       	cpi	r24, 0x40	; 64
     bd2:	18 f4       	brcc	.+6      	; 0xbda <__vector_27+0xa0>
     bd4:	8d b3       	in	r24, 0x1d	; 29
     bd6:	8f 5f       	subi	r24, 0xFF	; 255
     bd8:	8d bb       	out	0x1d, r24	; 29
     bda:	80 e8       	ldi	r24, 0x80	; 128
     bdc:	80 93 04 08 	sts	0x0804, r24	; 0x800804 <__TEXT_REGION_LENGTH__+0x700804>
     be0:	ff 91       	pop	r31
     be2:	ef 91       	pop	r30
     be4:	8f 91       	pop	r24
     be6:	0f 90       	pop	r0
     be8:	0f be       	out	0x3f, r0	; 63
     bea:	0f 90       	pop	r0
     bec:	1f 90       	pop	r1
     bee:	18 95       	reti

00000bf0 <__vector_28>:
     bf0:	1f 92       	push	r1
     bf2:	0f 92       	push	r0
     bf4:	0f b6       	in	r0, 0x3f	; 63
     bf6:	0f 92       	push	r0
     bf8:	11 24       	eor	r1, r1
     bfa:	8f 93       	push	r24
     bfc:	ef 93       	push	r30
     bfe:	ff 93       	push	r31
     c00:	10 92 4a 0a 	sts	0x0A4A, r1	; 0x800a4a <__TEXT_REGION_LENGTH__+0x700a4a>
     c04:	10 92 4b 0a 	sts	0x0A4B, r1	; 0x800a4b <__TEXT_REGION_LENGTH__+0x700a4b>
     c08:	81 e0       	ldi	r24, 0x01	; 1
     c0a:	80 93 45 0a 	sts	0x0A45, r24	; 0x800a45 <__TEXT_REGION_LENGTH__+0x700a45>
     c0e:	e5 e0       	ldi	r30, 0x05	; 5
     c10:	f8 e0       	ldi	r31, 0x08	; 8
     c12:	80 81       	ld	r24, Z
     c14:	8f 7d       	andi	r24, 0xDF	; 223
     c16:	80 83       	st	Z, r24
     c18:	ff 91       	pop	r31
     c1a:	ef 91       	pop	r30
     c1c:	8f 91       	pop	r24
     c1e:	0f 90       	pop	r0
     c20:	0f be       	out	0x3f, r0	; 63
     c22:	0f 90       	pop	r0
     c24:	1f 90       	pop	r1
     c26:	18 95       	reti

00000c28 <__vector_20>:
     c28:	1f 92       	push	r1
     c2a:	0f 92       	push	r0
     c2c:	0f b6       	in	r0, 0x3f	; 63
     c2e:	0f 92       	push	r0
     c30:	11 24       	eor	r1, r1
     c32:	8f 93       	push	r24
     c34:	9f 93       	push	r25
     c36:	ef 93       	push	r30
     c38:	ff 93       	push	r31
     c3a:	80 91 2a 38 	lds	r24, 0x382A	; 0x80382a <adc0Chg>
     c3e:	81 11       	cpse	r24, r1
     c40:	18 c0       	rjmp	.+48     	; 0xc72 <__vector_20+0x4a>
     c42:	8e b3       	in	r24, 0x1e	; 30
     c44:	8f 5f       	subi	r24, 0xFF	; 255
     c46:	87 70       	andi	r24, 0x07	; 7
     c48:	8e bb       	out	0x1e, r24	; 30
     c4a:	80 91 06 06 	lds	r24, 0x0606	; 0x800606 <__TEXT_REGION_LENGTH__+0x700606>
     c4e:	8e 31       	cpi	r24, 0x1E	; 30
     c50:	41 f4       	brne	.+16     	; 0xc62 <__vector_20+0x3a>
     c52:	80 91 10 06 	lds	r24, 0x0610	; 0x800610 <__TEXT_REGION_LENGTH__+0x700610>
     c56:	90 e0       	ldi	r25, 0x00	; 0
     c58:	80 93 e1 3a 	sts	0x3AE1, r24	; 0x803ae1 <adcTemp>
     c5c:	90 93 e2 3a 	sts	0x3AE2, r25	; 0x803ae2 <adcTemp+0x1>
     c60:	0d c0       	rjmp	.+26     	; 0xc7c <__vector_20+0x54>
     c62:	ee b3       	in	r30, 0x1e	; 30
     c64:	f0 e0       	ldi	r31, 0x00	; 0
     c66:	80 91 10 06 	lds	r24, 0x0610	; 0x800610 <__TEXT_REGION_LENGTH__+0x700610>
     c6a:	e2 55       	subi	r30, 0x52	; 82
     c6c:	f5 4c       	sbci	r31, 0xC5	; 197
     c6e:	80 83       	st	Z, r24
     c70:	05 c0       	rjmp	.+10     	; 0xc7c <__vector_20+0x54>
     c72:	80 91 2a 38 	lds	r24, 0x382A	; 0x80382a <adc0Chg>
     c76:	81 50       	subi	r24, 0x01	; 1
     c78:	80 93 2a 38 	sts	0x382A, r24	; 0x80382a <adc0Chg>
     c7c:	81 e0       	ldi	r24, 0x01	; 1
     c7e:	80 93 0b 06 	sts	0x060B, r24	; 0x80060b <__TEXT_REGION_LENGTH__+0x70060b>
     c82:	ff 91       	pop	r31
     c84:	ef 91       	pop	r30
     c86:	9f 91       	pop	r25
     c88:	8f 91       	pop	r24
     c8a:	0f 90       	pop	r0
     c8c:	0f be       	out	0x3f, r0	; 63
     c8e:	0f 90       	pop	r0
     c90:	1f 90       	pop	r1
     c92:	18 95       	reti

00000c94 <__vector_22>:
     c94:	1f 92       	push	r1
     c96:	0f 92       	push	r0
     c98:	0f b6       	in	r0, 0x3f	; 63
     c9a:	0f 92       	push	r0
     c9c:	11 24       	eor	r1, r1
     c9e:	8f 93       	push	r24
     ca0:	9f 93       	push	r25
     ca2:	80 91 46 06 	lds	r24, 0x0646	; 0x800646 <__TEXT_REGION_LENGTH__+0x700646>
     ca6:	81 11       	cpse	r24, r1
     ca8:	0a c0       	rjmp	.+20     	; 0xcbe <__vector_22+0x2a>
     caa:	80 91 50 06 	lds	r24, 0x0650	; 0x800650 <__TEXT_REGION_LENGTH__+0x700650>
     cae:	90 91 51 06 	lds	r25, 0x0651	; 0x800651 <__TEXT_REGION_LENGTH__+0x700651>
     cb2:	80 93 a9 3a 	sts	0x3AA9, r24	; 0x803aa9 <adcPhot>
     cb6:	90 93 aa 3a 	sts	0x3AAA, r25	; 0x803aaa <adcPhot+0x1>
     cba:	81 e0       	ldi	r24, 0x01	; 1
     cbc:	10 c0       	rjmp	.+32     	; 0xcde <__vector_22+0x4a>
     cbe:	80 91 46 06 	lds	r24, 0x0646	; 0x800646 <__TEXT_REGION_LENGTH__+0x700646>
     cc2:	81 30       	cpi	r24, 0x01	; 1
     cc4:	79 f4       	brne	.+30     	; 0xce4 <__vector_22+0x50>
     cc6:	88 e0       	ldi	r24, 0x08	; 8
     cc8:	80 93 06 04 	sts	0x0406, r24	; 0x800406 <__TEXT_REGION_LENGTH__+0x700406>
     ccc:	80 91 50 06 	lds	r24, 0x0650	; 0x800650 <__TEXT_REGION_LENGTH__+0x700650>
     cd0:	90 91 51 06 	lds	r25, 0x0651	; 0x800651 <__TEXT_REGION_LENGTH__+0x700651>
     cd4:	80 93 a7 3a 	sts	0x3AA7, r24	; 0x803aa7 <adcHall>
     cd8:	90 93 a8 3a 	sts	0x3AA8, r25	; 0x803aa8 <adcHall+0x1>
     cdc:	84 e0       	ldi	r24, 0x04	; 4
     cde:	80 93 46 06 	sts	0x0646, r24	; 0x800646 <__TEXT_REGION_LENGTH__+0x700646>
     ce2:	10 c0       	rjmp	.+32     	; 0xd04 <__vector_22+0x70>
     ce4:	80 91 50 06 	lds	r24, 0x0650	; 0x800650 <__TEXT_REGION_LENGTH__+0x700650>
     ce8:	90 91 51 06 	lds	r25, 0x0651	; 0x800651 <__TEXT_REGION_LENGTH__+0x700651>
     cec:	80 93 a3 3a 	sts	0x3AA3, r24	; 0x803aa3 <adcBtns>
     cf0:	90 93 a4 3a 	sts	0x3AA4, r25	; 0x803aa4 <adcBtns+0x1>
     cf4:	8f b3       	in	r24, 0x1f	; 31
     cf6:	8f 30       	cpi	r24, 0x0F	; 15
     cf8:	29 f4       	brne	.+10     	; 0xd04 <__vector_22+0x70>
     cfa:	10 92 46 06 	sts	0x0646, r1	; 0x800646 <__TEXT_REGION_LENGTH__+0x700646>
     cfe:	88 e0       	ldi	r24, 0x08	; 8
     d00:	80 93 05 04 	sts	0x0405, r24	; 0x800405 <__TEXT_REGION_LENGTH__+0x700405>
     d04:	8f b3       	in	r24, 0x1f	; 31
     d06:	90 e0       	ldi	r25, 0x00	; 0
     d08:	01 96       	adiw	r24, 0x01	; 1
     d0a:	8f 70       	andi	r24, 0x0F	; 15
     d0c:	99 27       	eor	r25, r25
     d0e:	8f bb       	out	0x1f, r24	; 31
     d10:	81 e0       	ldi	r24, 0x01	; 1
     d12:	80 93 4b 06 	sts	0x064B, r24	; 0x80064b <__TEXT_REGION_LENGTH__+0x70064b>
     d16:	9f 91       	pop	r25
     d18:	8f 91       	pop	r24
     d1a:	0f 90       	pop	r0
     d1c:	0f be       	out	0x3f, r0	; 63
     d1e:	0f 90       	pop	r0
     d20:	1f 90       	pop	r1
     d22:	18 95       	reti

00000d24 <__vector_6>:
     d24:	1f 92       	push	r1
     d26:	0f 92       	push	r0
     d28:	0f b6       	in	r0, 0x3f	; 63
     d2a:	0f 92       	push	r0
     d2c:	11 24       	eor	r1, r1
     d2e:	5f 93       	push	r21
     d30:	6f 93       	push	r22
     d32:	7f 93       	push	r23
     d34:	8f 93       	push	r24
     d36:	9f 93       	push	r25
     d38:	af 93       	push	r26
     d3a:	bf 93       	push	r27
     d3c:	80 91 43 01 	lds	r24, 0x0143	; 0x800143 <__TEXT_REGION_LENGTH__+0x700143>
     d40:	81 ff       	sbrs	r24, 1
     d42:	26 c0       	rjmp	.+76     	; 0xd90 <__vector_6+0x6c>
     d44:	80 91 35 38 	lds	r24, 0x3835	; 0x803835 <buttonMark>
     d48:	8f 3f       	cpi	r24, 0xFF	; 255
     d4a:	29 f0       	breq	.+10     	; 0xd56 <__vector_6+0x32>
     d4c:	80 91 35 38 	lds	r24, 0x3835	; 0x803835 <buttonMark>
     d50:	8f 5f       	subi	r24, 0xFF	; 255
     d52:	80 93 35 38 	sts	0x3835, r24	; 0x803835 <buttonMark>
     d56:	80 91 48 01 	lds	r24, 0x0148	; 0x800148 <__TEXT_REGION_LENGTH__+0x700148>
     d5a:	90 91 49 01 	lds	r25, 0x0149	; 0x800149 <__TEXT_REGION_LENGTH__+0x700149>
     d5e:	60 91 4a 01 	lds	r22, 0x014A	; 0x80014a <__TEXT_REGION_LENGTH__+0x70014a>
     d62:	70 91 4b 01 	lds	r23, 0x014B	; 0x80014b <__TEXT_REGION_LENGTH__+0x70014b>
     d66:	82 96       	adiw	r24, 0x22	; 34
     d68:	0e 94 38 1b 	call	0x3670	; 0x3670 <__udivmodhi4>
     d6c:	80 93 e3 3a 	sts	0x3AE3, r24	; 0x803ae3 <tmp16bit>
     d70:	90 93 e4 3a 	sts	0x3AE4, r25	; 0x803ae4 <tmp16bit+0x1>
     d74:	80 91 41 01 	lds	r24, 0x0141	; 0x800141 <__TEXT_REGION_LENGTH__+0x700141>
     d78:	83 fd       	sbrc	r24, 3
     d7a:	fc cf       	rjmp	.-8      	; 0xd74 <__vector_6+0x50>
     d7c:	80 91 e3 3a 	lds	r24, 0x3AE3	; 0x803ae3 <tmp16bit>
     d80:	90 91 e4 3a 	lds	r25, 0x3AE4	; 0x803ae4 <tmp16bit+0x1>
     d84:	80 93 4c 01 	sts	0x014C, r24	; 0x80014c <__TEXT_REGION_LENGTH__+0x70014c>
     d88:	90 93 4d 01 	sts	0x014D, r25	; 0x80014d <__TEXT_REGION_LENGTH__+0x70014d>
     d8c:	82 e0       	ldi	r24, 0x02	; 2
     d8e:	06 c0       	rjmp	.+12     	; 0xd9c <__vector_6+0x78>
     d90:	80 91 36 38 	lds	r24, 0x3836	; 0x803836 <minuteMark>
     d94:	8f 5f       	subi	r24, 0xFF	; 255
     d96:	80 93 36 38 	sts	0x3836, r24	; 0x803836 <minuteMark>
     d9a:	81 e0       	ldi	r24, 0x01	; 1
     d9c:	80 93 43 01 	sts	0x0143, r24	; 0x800143 <__TEXT_REGION_LENGTH__+0x700143>
     da0:	bf 91       	pop	r27
     da2:	af 91       	pop	r26
     da4:	9f 91       	pop	r25
     da6:	8f 91       	pop	r24
     da8:	7f 91       	pop	r23
     daa:	6f 91       	pop	r22
     dac:	5f 91       	pop	r21
     dae:	0f 90       	pop	r0
     db0:	0f be       	out	0x3f, r0	; 63
     db2:	0f 90       	pop	r0
     db4:	1f 90       	pop	r1
     db6:	18 95       	reti

00000db8 <__vector_7>:
     db8:	1f 92       	push	r1
     dba:	0f 92       	push	r0
     dbc:	0f b6       	in	r0, 0x3f	; 63
     dbe:	0f 92       	push	r0
     dc0:	11 24       	eor	r1, r1
     dc2:	8f 93       	push	r24
     dc4:	81 e0       	ldi	r24, 0x01	; 1
     dc6:	80 93 48 06 	sts	0x0648, r24	; 0x800648 <__TEXT_REGION_LENGTH__+0x700648>
     dca:	80 93 53 01 	sts	0x0153, r24	; 0x800153 <__TEXT_REGION_LENGTH__+0x700153>
     dce:	8f 91       	pop	r24
     dd0:	0f 90       	pop	r0
     dd2:	0f be       	out	0x3f, r0	; 63
     dd4:	0f 90       	pop	r0
     dd6:	1f 90       	pop	r1
     dd8:	18 95       	reti

00000dda <EERead>:
     dda:	90 91 02 10 	lds	r25, 0x1002	; 0x801002 <__TEXT_REGION_LENGTH__+0x701002>
     dde:	91 fd       	sbrc	r25, 1
     de0:	fc cf       	rjmp	.-8      	; 0xdda <EERead>
     de2:	fb 01       	movw	r30, r22
     de4:	48 0f       	add	r20, r24
     de6:	84 17       	cp	r24, r20
     de8:	39 f0       	breq	.+14     	; 0xdf8 <EERead+0x1e>
     dea:	a8 2f       	mov	r26, r24
     dec:	b0 e0       	ldi	r27, 0x00	; 0
     dee:	bc 5e       	subi	r27, 0xEC	; 236
     df0:	9c 91       	ld	r25, X
     df2:	91 93       	st	Z+, r25
     df4:	8f 5f       	subi	r24, 0xFF	; 255
     df6:	f7 cf       	rjmp	.-18     	; 0xde6 <EERead+0xc>
     df8:	08 95       	ret

00000dfa <EEWrite>:
     dfa:	9d e9       	ldi	r25, 0x9D	; 157
     dfc:	24 e0       	ldi	r18, 0x04	; 4
     dfe:	33 e0       	ldi	r19, 0x03	; 3
     e00:	44 23       	and	r20, r20
     e02:	09 f1       	breq	.+66     	; 0xe46 <EEWrite+0x4c>
     e04:	50 91 02 10 	lds	r21, 0x1002	; 0x801002 <__TEXT_REGION_LENGTH__+0x701002>
     e08:	51 fd       	sbrc	r21, 1
     e0a:	fc cf       	rjmp	.-8      	; 0xe04 <EEWrite+0xa>
     e0c:	94 bf       	out	0x34, r25	; 52
     e0e:	20 93 00 10 	sts	0x1000, r18	; 0x801000 <__TEXT_REGION_LENGTH__+0x701000>
     e12:	e8 2f       	mov	r30, r24
     e14:	58 2f       	mov	r21, r24
     e16:	5f 71       	andi	r21, 0x1F	; 31
     e18:	8f 5f       	subi	r24, 0xFF	; 255
     e1a:	6f 5f       	subi	r22, 0xFF	; 255
     e1c:	7f 4f       	sbci	r23, 0xFF	; 255
     e1e:	db 01       	movw	r26, r22
     e20:	11 97       	sbiw	r26, 0x01	; 1
     e22:	ac 91       	ld	r26, X
     e24:	f0 e0       	ldi	r31, 0x00	; 0
     e26:	fc 5e       	subi	r31, 0xEC	; 236
     e28:	a0 83       	st	Z, r26
     e2a:	41 50       	subi	r20, 0x01	; 1
     e2c:	19 f0       	breq	.+6      	; 0xe34 <EEWrite+0x3a>
     e2e:	e8 2f       	mov	r30, r24
     e30:	5f 31       	cpi	r21, 0x1F	; 31
     e32:	81 f7       	brne	.-32     	; 0xe14 <EEWrite+0x1a>
     e34:	94 bf       	out	0x34, r25	; 52
     e36:	30 93 00 10 	sts	0x1000, r19	; 0x801000 <__TEXT_REGION_LENGTH__+0x701000>
     e3a:	50 91 02 10 	lds	r21, 0x1002	; 0x801002 <__TEXT_REGION_LENGTH__+0x701002>
     e3e:	52 ff       	sbrs	r21, 2
     e40:	df cf       	rjmp	.-66     	; 0xe00 <EEWrite+0x6>
     e42:	81 e0       	ldi	r24, 0x01	; 1
     e44:	08 95       	ret
     e46:	80 e0       	ldi	r24, 0x00	; 0
     e48:	08 95       	ret

00000e4a <SerSend>:
     e4a:	20 91 08 38 	lds	r18, 0x3808	; 0x803808 <serTxDone>
     e4e:	22 23       	and	r18, r18
     e50:	59 f0       	breq	.+22     	; 0xe68 <SerSend+0x1e>
     e52:	80 93 a5 3a 	sts	0x3AA5, r24	; 0x803aa5 <serTxAddr>
     e56:	90 93 a6 3a 	sts	0x3AA6, r25	; 0x803aa6 <serTxAddr+0x1>
     e5a:	10 92 08 38 	sts	0x3808, r1	; 0x803808 <serTxDone>
     e5e:	81 e0       	ldi	r24, 0x01	; 1
     e60:	80 93 45 0a 	sts	0x0A45, r24	; 0x800a45 <__TEXT_REGION_LENGTH__+0x700a45>
     e64:	80 e0       	ldi	r24, 0x00	; 0
     e66:	08 95       	ret
     e68:	81 e0       	ldi	r24, 0x01	; 1
     e6a:	08 95       	ret

00000e6c <SerSpeed>:
     e6c:	28 2f       	mov	r18, r24
     e6e:	81 11       	cpse	r24, r1
     e70:	01 c0       	rjmp	.+2      	; 0xe74 <SerSpeed+0x8>
     e72:	21 e0       	ldi	r18, 0x01	; 1
     e74:	8f ef       	ldi	r24, 0xFF	; 255
     e76:	90 e0       	ldi	r25, 0x00	; 0
     e78:	82 1b       	sub	r24, r18
     e7a:	91 09       	sbc	r25, r1
     e7c:	98 2f       	mov	r25, r24
     e7e:	88 27       	eor	r24, r24
     e80:	81 50       	subi	r24, 0x01	; 1
     e82:	9f 4f       	sbci	r25, 0xFF	; 255
     e84:	80 93 4c 0a 	sts	0x0A4C, r24	; 0x800a4c <__TEXT_REGION_LENGTH__+0x700a4c>
     e88:	90 93 4d 0a 	sts	0x0A4D, r25	; 0x800a4d <__TEXT_REGION_LENGTH__+0x700a4d>
     e8c:	08 95       	ret

00000e8e <SelectTSens>:
     e8e:	82 e1       	ldi	r24, 0x12	; 18
     e90:	80 93 a0 00 	sts	0x00A0, r24	; 0x8000a0 <__TEXT_REGION_LENGTH__+0x7000a0>
     e94:	e0 e0       	ldi	r30, 0x00	; 0
     e96:	f6 e0       	ldi	r31, 0x06	; 6
     e98:	80 81       	ld	r24, Z
     e9a:	84 60       	ori	r24, 0x04	; 4
     e9c:	80 83       	st	Z, r24
     e9e:	8e e1       	ldi	r24, 0x1E	; 30
     ea0:	80 93 06 06 	sts	0x0606, r24	; 0x800606 <__TEXT_REGION_LENGTH__+0x700606>
     ea4:	83 e0       	ldi	r24, 0x03	; 3
     ea6:	80 93 2a 38 	sts	0x382A, r24	; 0x80382a <adc0Chg>
     eaa:	08 95       	ret

00000eac <SelectAuIn>:
     eac:	82 e2       	ldi	r24, 0x22	; 34
     eae:	80 93 a0 00 	sts	0x00A0, r24	; 0x8000a0 <__TEXT_REGION_LENGTH__+0x7000a0>
     eb2:	e0 e0       	ldi	r30, 0x00	; 0
     eb4:	f6 e0       	ldi	r31, 0x06	; 6
     eb6:	80 81       	ld	r24, Z
     eb8:	8b 7f       	andi	r24, 0xFB	; 251
     eba:	80 83       	st	Z, r24
     ebc:	87 e0       	ldi	r24, 0x07	; 7
     ebe:	80 93 06 06 	sts	0x0606, r24	; 0x800606 <__TEXT_REGION_LENGTH__+0x700606>
     ec2:	83 e0       	ldi	r24, 0x03	; 3
     ec4:	80 93 2a 38 	sts	0x382A, r24	; 0x80382a <adc0Chg>
     ec8:	08 95       	ret

00000eca <CheckButtons>:
     eca:	20 91 a3 3a 	lds	r18, 0x3AA3	; 0x803aa3 <adcBtns>
     ece:	30 91 a4 3a 	lds	r19, 0x3AA4	; 0x803aa4 <adcBtns+0x1>
     ed2:	94 e0       	ldi	r25, 0x04	; 4
     ed4:	36 95       	lsr	r19
     ed6:	27 95       	ror	r18
     ed8:	9a 95       	dec	r25
     eda:	e1 f7       	brne	.-8      	; 0xed4 <CheckButtons+0xa>
     edc:	33 27       	eor	r19, r19
     ede:	2c 35       	cpi	r18, 0x5C	; 92
     ee0:	31 05       	cpc	r19, r1
     ee2:	d0 f4       	brcc	.+52     	; 0xf18 <CheckButtons+0x4e>
     ee4:	23 35       	cpi	r18, 0x53	; 83
     ee6:	31 05       	cpc	r19, r1
     ee8:	a8 f5       	brcc	.+106    	; 0xf54 <CheckButtons+0x8a>
     eea:	22 33       	cpi	r18, 0x32	; 50
     eec:	31 05       	cpc	r19, r1
     eee:	50 f4       	brcc	.+20     	; 0xf04 <CheckButtons+0x3a>
     ef0:	2d 32       	cpi	r18, 0x2D	; 45
     ef2:	31 05       	cpc	r19, r1
     ef4:	58 f5       	brcc	.+86     	; 0xf4c <CheckButtons+0x82>
     ef6:	23 52       	subi	r18, 0x23	; 35
     ef8:	31 09       	sbc	r19, r1
     efa:	25 30       	cpi	r18, 0x05	; 5
     efc:	31 05       	cpc	r19, r1
     efe:	80 f5       	brcc	.+96     	; 0xf60 <CheckButtons+0x96>
     f00:	9c e0       	ldi	r25, 0x0C	; 12
     f02:	2f c0       	rjmp	.+94     	; 0xf62 <CheckButtons+0x98>
     f04:	27 33       	cpi	r18, 0x37	; 55
     f06:	31 05       	cpc	r19, r1
     f08:	18 f1       	brcs	.+70     	; 0xf50 <CheckButtons+0x86>
     f0a:	2e 53       	subi	r18, 0x3E	; 62
     f0c:	31 09       	sbc	r19, r1
     f0e:	27 30       	cpi	r18, 0x07	; 7
     f10:	31 05       	cpc	r19, r1
     f12:	30 f5       	brcc	.+76     	; 0xf60 <CheckButtons+0x96>
     f14:	96 e0       	ldi	r25, 0x06	; 6
     f16:	25 c0       	rjmp	.+74     	; 0xf62 <CheckButtons+0x98>
     f18:	2a 38       	cpi	r18, 0x8A	; 138
     f1a:	31 05       	cpc	r19, r1
     f1c:	50 f4       	brcc	.+20     	; 0xf32 <CheckButtons+0x68>
     f1e:	29 37       	cpi	r18, 0x79	; 121
     f20:	31 05       	cpc	r19, r1
     f22:	d0 f4       	brcc	.+52     	; 0xf58 <CheckButtons+0x8e>
     f24:	23 56       	subi	r18, 0x63	; 99
     f26:	31 09       	sbc	r19, r1
     f28:	2b 30       	cpi	r18, 0x0B	; 11
     f2a:	31 05       	cpc	r19, r1
     f2c:	c8 f4       	brcc	.+50     	; 0xf60 <CheckButtons+0x96>
     f2e:	93 e0       	ldi	r25, 0x03	; 3
     f30:	18 c0       	rjmp	.+48     	; 0xf62 <CheckButtons+0x98>
     f32:	22 3a       	cpi	r18, 0xA2	; 162
     f34:	31 05       	cpc	r19, r1
     f36:	a0 f0       	brcs	.+40     	; 0xf60 <CheckButtons+0x96>
     f38:	2b 3b       	cpi	r18, 0xBB	; 187
     f3a:	31 05       	cpc	r19, r1
     f3c:	78 f0       	brcs	.+30     	; 0xf5c <CheckButtons+0x92>
     f3e:	20 5f       	subi	r18, 0xF0	; 240
     f40:	31 09       	sbc	r19, r1
     f42:	20 31       	cpi	r18, 0x10	; 16
     f44:	31 05       	cpc	r19, r1
     f46:	60 f4       	brcc	.+24     	; 0xf60 <CheckButtons+0x96>
     f48:	90 e0       	ldi	r25, 0x00	; 0
     f4a:	0b c0       	rjmp	.+22     	; 0xf62 <CheckButtons+0x98>
     f4c:	99 e0       	ldi	r25, 0x09	; 9
     f4e:	09 c0       	rjmp	.+18     	; 0xf62 <CheckButtons+0x98>
     f50:	98 e0       	ldi	r25, 0x08	; 8
     f52:	07 c0       	rjmp	.+14     	; 0xf62 <CheckButtons+0x98>
     f54:	94 e0       	ldi	r25, 0x04	; 4
     f56:	05 c0       	rjmp	.+10     	; 0xf62 <CheckButtons+0x98>
     f58:	92 e0       	ldi	r25, 0x02	; 2
     f5a:	03 c0       	rjmp	.+6      	; 0xf62 <CheckButtons+0x98>
     f5c:	91 e0       	ldi	r25, 0x01	; 1
     f5e:	01 c0       	rjmp	.+2      	; 0xf62 <CheckButtons+0x98>
     f60:	9f e0       	ldi	r25, 0x0F	; 15
     f62:	28 2f       	mov	r18, r24
     f64:	2f 70       	andi	r18, 0x0F	; 15
     f66:	92 13       	cpse	r25, r18
     f68:	06 c0       	rjmp	.+12     	; 0xf76 <CheckButtons+0xac>
     f6a:	98 2f       	mov	r25, r24
     f6c:	90 7f       	andi	r25, 0xF0	; 240
     f6e:	90 3f       	cpi	r25, 0xF0	; 240
     f70:	39 f0       	breq	.+14     	; 0xf80 <CheckButtons+0xb6>
     f72:	80 5f       	subi	r24, 0xF0	; 240
     f74:	08 95       	ret
     f76:	99 23       	and	r25, r25
     f78:	11 f0       	breq	.+4      	; 0xf7e <CheckButtons+0xb4>
     f7a:	89 2f       	mov	r24, r25
     f7c:	08 95       	ret
     f7e:	8f ef       	ldi	r24, 0xFF	; 255
     f80:	08 95       	ret

00000f82 <lfsr>:
     f82:	80 91 1c 38 	lds	r24, 0x381C	; 0x80381c <state.3879>
     f86:	90 91 1d 38 	lds	r25, 0x381D	; 0x80381d <state.3879+0x1>
     f8a:	9c 01       	movw	r18, r24
     f8c:	32 2f       	mov	r19, r18
     f8e:	22 27       	eor	r18, r18
     f90:	32 95       	swap	r19
     f92:	33 0f       	add	r19, r19
     f94:	30 7e       	andi	r19, 0xE0	; 224
     f96:	82 27       	eor	r24, r18
     f98:	93 27       	eor	r25, r19
     f9a:	9c 01       	movw	r18, r24
     f9c:	23 2f       	mov	r18, r19
     f9e:	33 27       	eor	r19, r19
     fa0:	26 95       	lsr	r18
     fa2:	82 27       	eor	r24, r18
     fa4:	93 27       	eor	r25, r19
     fa6:	9c 01       	movw	r18, r24
     fa8:	36 95       	lsr	r19
     faa:	32 2f       	mov	r19, r18
     fac:	22 27       	eor	r18, r18
     fae:	37 95       	ror	r19
     fb0:	27 95       	ror	r18
     fb2:	82 27       	eor	r24, r18
     fb4:	93 27       	eor	r25, r19
     fb6:	80 93 1c 38 	sts	0x381C, r24	; 0x80381c <state.3879>
     fba:	90 93 1d 38 	sts	0x381D, r25	; 0x80381d <state.3879+0x1>
     fbe:	08 95       	ret

00000fc0 <floatSpeed>:
     fc0:	df 92       	push	r13
     fc2:	ef 92       	push	r14
     fc4:	ff 92       	push	r15
     fc6:	0f 93       	push	r16
     fc8:	1f 93       	push	r17
     fca:	cf 93       	push	r28
     fcc:	df 93       	push	r29
     fce:	7b 01       	movw	r14, r22
     fd0:	8a 01       	movw	r16, r20
     fd2:	c0 91 5c 0a 	lds	r28, 0x0A5C	; 0x800a5c <__TEXT_REGION_LENGTH__+0x700a5c>
     fd6:	d0 91 5d 0a 	lds	r29, 0x0A5D	; 0x800a5d <__TEXT_REGION_LENGTH__+0x700a5d>
     fda:	e8 2f       	mov	r30, r24
     fdc:	f0 e0       	ldi	r31, 0x00	; 0
     fde:	31 97       	sbiw	r30, 0x01	; 1
     fe0:	e7 70       	andi	r30, 0x07	; 7
     fe2:	ff 27       	eor	r31, r31
     fe4:	e2 5e       	subi	r30, 0xE2	; 226
     fe6:	f7 4c       	sbci	r31, 0xC7	; 199
     fe8:	d0 80       	ld	r13, Z
     fea:	cb df       	rcall	.-106    	; 0xf82 <lfsr>
     fec:	8d 21       	and	r24, r13
     fee:	c8 0f       	add	r28, r24
     ff0:	d1 1d       	adc	r29, r1
     ff2:	c7 df       	rcall	.-114    	; 0xf82 <lfsr>
     ff4:	8d 21       	and	r24, r13
     ff6:	c8 1b       	sub	r28, r24
     ff8:	d1 09       	sbc	r29, r1
     ffa:	0c 17       	cp	r16, r28
     ffc:	1d 07       	cpc	r17, r29
     ffe:	08 f4       	brcc	.+2      	; 0x1002 <floatSpeed+0x42>
    1000:	e8 01       	movw	r28, r16
    1002:	c7 01       	movw	r24, r14
    1004:	ec 16       	cp	r14, r28
    1006:	fd 06       	cpc	r15, r29
    1008:	08 f4       	brcc	.+2      	; 0x100c <floatSpeed+0x4c>
    100a:	ce 01       	movw	r24, r28
    100c:	80 93 5c 0a 	sts	0x0A5C, r24	; 0x800a5c <__TEXT_REGION_LENGTH__+0x700a5c>
    1010:	90 93 5d 0a 	sts	0x0A5D, r25	; 0x800a5d <__TEXT_REGION_LENGTH__+0x700a5d>
    1014:	df 91       	pop	r29
    1016:	cf 91       	pop	r28
    1018:	1f 91       	pop	r17
    101a:	0f 91       	pop	r16
    101c:	ff 90       	pop	r15
    101e:	ef 90       	pop	r14
    1020:	df 90       	pop	r13
    1022:	08 95       	ret

00001024 <floatAround>:
    1024:	0f 93       	push	r16
    1026:	1f 93       	push	r17
    1028:	cf 93       	push	r28
    102a:	df 93       	push	r29
    102c:	c8 2f       	mov	r28, r24
    102e:	d4 2f       	mov	r29, r20
    1030:	02 2f       	mov	r16, r18
    1032:	e6 2f       	mov	r30, r22
    1034:	f0 e0       	ldi	r31, 0x00	; 0
    1036:	31 97       	sbiw	r30, 0x01	; 1
    1038:	e7 70       	andi	r30, 0x07	; 7
    103a:	ff 27       	eor	r31, r31
    103c:	e2 5e       	subi	r30, 0xE2	; 226
    103e:	f7 4c       	sbci	r31, 0xC7	; 199
    1040:	10 81       	ld	r17, Z
    1042:	9f df       	rcall	.-194    	; 0xf82 <lfsr>
    1044:	81 23       	and	r24, r17
    1046:	c8 0f       	add	r28, r24
    1048:	9c df       	rcall	.-200    	; 0xf82 <lfsr>
    104a:	81 23       	and	r24, r17
    104c:	c8 1b       	sub	r28, r24
    104e:	8c 2f       	mov	r24, r28
    1050:	00 23       	and	r16, r16
    1052:	41 f0       	breq	.+16     	; 0x1064 <floatAround+0x40>
    1054:	9c 2f       	mov	r25, r28
    1056:	0c 17       	cp	r16, r28
    1058:	08 f4       	brcc	.+2      	; 0x105c <floatAround+0x38>
    105a:	90 2f       	mov	r25, r16
    105c:	8d 2f       	mov	r24, r29
    105e:	d9 17       	cp	r29, r25
    1060:	08 f4       	brcc	.+2      	; 0x1064 <floatAround+0x40>
    1062:	89 2f       	mov	r24, r25
    1064:	41 e0       	ldi	r20, 0x01	; 1
    1066:	50 e0       	ldi	r21, 0x00	; 0
    1068:	8d 17       	cp	r24, r29
    106a:	10 f0       	brcs	.+4      	; 0x1070 <floatAround+0x4c>
    106c:	40 e0       	ldi	r20, 0x00	; 0
    106e:	50 e0       	ldi	r21, 0x00	; 0
    1070:	2d 2f       	mov	r18, r29
    1072:	30 e0       	ldi	r19, 0x00	; 0
    1074:	24 23       	and	r18, r20
    1076:	35 23       	and	r19, r21
    1078:	23 2b       	or	r18, r19
    107a:	09 f0       	breq	.+2      	; 0x107e <floatAround+0x5a>
    107c:	8d 2f       	mov	r24, r29
    107e:	df 91       	pop	r29
    1080:	cf 91       	pop	r28
    1082:	1f 91       	pop	r17
    1084:	0f 91       	pop	r16
    1086:	08 95       	ret

00001088 <SaveGameState>:
    1088:	cf 92       	push	r12
    108a:	df 92       	push	r13
    108c:	ff 92       	push	r15
    108e:	0f 93       	push	r16
    1090:	1f 93       	push	r17
    1092:	cf 93       	push	r28
    1094:	df 93       	push	r29
    1096:	cd b7       	in	r28, 0x3d	; 61
    1098:	de b7       	in	r29, 0x3e	; 62
    109a:	64 97       	sbiw	r28, 0x14	; 20
    109c:	cd bf       	out	0x3d, r28	; 61
    109e:	de bf       	out	0x3e, r29	; 62
    10a0:	44 e1       	ldi	r20, 0x14	; 20
    10a2:	be 01       	movw	r22, r28
    10a4:	6f 5f       	subi	r22, 0xFF	; 255
    10a6:	7f 4f       	sbci	r23, 0xFF	; 255
    10a8:	80 e0       	ldi	r24, 0x00	; 0
    10aa:	97 de       	rcall	.-722    	; 0xdda <EERead>
    10ac:	8d e4       	ldi	r24, 0x4D	; 77
    10ae:	c8 2e       	mov	r12, r24
    10b0:	8a e3       	ldi	r24, 0x3A	; 58
    10b2:	d8 2e       	mov	r13, r24
    10b4:	8e 01       	movw	r16, r28
    10b6:	0f 5f       	subi	r16, 0xFF	; 255
    10b8:	1f 4f       	sbci	r17, 0xFF	; 255
    10ba:	f1 2c       	mov	r15, r1
    10bc:	f8 01       	movw	r30, r16
    10be:	81 91       	ld	r24, Z+
    10c0:	8f 01       	movw	r16, r30
    10c2:	f6 01       	movw	r30, r12
    10c4:	90 81       	ld	r25, Z
    10c6:	98 13       	cpse	r25, r24
    10c8:	08 c0       	rjmp	.+16     	; 0x10da <SaveGameState+0x52>
    10ca:	f3 94       	inc	r15
    10cc:	ff ef       	ldi	r31, 0xFF	; 255
    10ce:	cf 1a       	sub	r12, r31
    10d0:	df 0a       	sbc	r13, r31
    10d2:	80 e1       	ldi	r24, 0x10	; 16
    10d4:	f8 12       	cpse	r15, r24
    10d6:	f2 cf       	rjmp	.-28     	; 0x10bc <SaveGameState+0x34>
    10d8:	08 c0       	rjmp	.+16     	; 0x10ea <SaveGameState+0x62>
    10da:	41 e0       	ldi	r20, 0x01	; 1
    10dc:	b6 01       	movw	r22, r12
    10de:	8f 2d       	mov	r24, r15
    10e0:	8c de       	rcall	.-744    	; 0xdfa <EEWrite>
    10e2:	88 23       	and	r24, r24
    10e4:	91 f3       	breq	.-28     	; 0x10ca <SaveGameState+0x42>
    10e6:	91 e0       	ldi	r25, 0x01	; 1
    10e8:	36 c0       	rjmp	.+108    	; 0x1156 <SaveGameState+0xce>
    10ea:	20 91 31 38 	lds	r18, 0x3831	; 0x803831 <inventory>
    10ee:	30 91 32 38 	lds	r19, 0x3832	; 0x803832 <inventory+0x1>
    10f2:	30 93 5d 3a 	sts	0x3A5D, r19	; 0x803a5d <gameState+0x10>
    10f6:	20 93 5e 3a 	sts	0x3A5E, r18	; 0x803a5e <gameState+0x11>
    10fa:	80 91 33 38 	lds	r24, 0x3833	; 0x803833 <inventory+0x2>
    10fe:	90 91 34 38 	lds	r25, 0x3834	; 0x803834 <inventory+0x3>
    1102:	90 93 5f 3a 	sts	0x3A5F, r25	; 0x803a5f <gameState+0x12>
    1106:	80 93 60 3a 	sts	0x3A60, r24	; 0x803a60 <gameState+0x13>
    110a:	89 89       	ldd	r24, Y+17	; 0x11
    110c:	9a 89       	ldd	r25, Y+18	; 0x12
    110e:	98 27       	eor	r25, r24
    1110:	89 27       	eor	r24, r25
    1112:	98 27       	eor	r25, r24
    1114:	28 17       	cp	r18, r24
    1116:	39 07       	cpc	r19, r25
    1118:	69 f4       	brne	.+26     	; 0x1134 <SaveGameState+0xac>
    111a:	8b 89       	ldd	r24, Y+19	; 0x13
    111c:	9c 89       	ldd	r25, Y+20	; 0x14
    111e:	98 27       	eor	r25, r24
    1120:	89 27       	eor	r24, r25
    1122:	98 27       	eor	r25, r24
    1124:	20 91 33 38 	lds	r18, 0x3833	; 0x803833 <inventory+0x2>
    1128:	30 91 34 38 	lds	r19, 0x3834	; 0x803834 <inventory+0x3>
    112c:	28 17       	cp	r18, r24
    112e:	39 07       	cpc	r19, r25
    1130:	49 f4       	brne	.+18     	; 0x1144 <SaveGameState+0xbc>
    1132:	10 c0       	rjmp	.+32     	; 0x1154 <SaveGameState+0xcc>
    1134:	42 e0       	ldi	r20, 0x02	; 2
    1136:	6d e5       	ldi	r22, 0x5D	; 93
    1138:	7a e3       	ldi	r23, 0x3A	; 58
    113a:	80 e1       	ldi	r24, 0x10	; 16
    113c:	5e de       	rcall	.-836    	; 0xdfa <EEWrite>
    113e:	88 23       	and	r24, r24
    1140:	61 f3       	breq	.-40     	; 0x111a <SaveGameState+0x92>
    1142:	d1 cf       	rjmp	.-94     	; 0x10e6 <SaveGameState+0x5e>
    1144:	42 e0       	ldi	r20, 0x02	; 2
    1146:	6f e5       	ldi	r22, 0x5F	; 95
    1148:	7a e3       	ldi	r23, 0x3A	; 58
    114a:	82 e1       	ldi	r24, 0x12	; 18
    114c:	56 de       	rcall	.-852    	; 0xdfa <EEWrite>
    114e:	91 e0       	ldi	r25, 0x01	; 1
    1150:	81 11       	cpse	r24, r1
    1152:	01 c0       	rjmp	.+2      	; 0x1156 <SaveGameState+0xce>
    1154:	90 e0       	ldi	r25, 0x00	; 0
    1156:	89 2f       	mov	r24, r25
    1158:	64 96       	adiw	r28, 0x14	; 20
    115a:	cd bf       	out	0x3d, r28	; 61
    115c:	de bf       	out	0x3e, r29	; 62
    115e:	df 91       	pop	r29
    1160:	cf 91       	pop	r28
    1162:	1f 91       	pop	r17
    1164:	0f 91       	pop	r16
    1166:	ff 90       	pop	r15
    1168:	df 90       	pop	r13
    116a:	cf 90       	pop	r12
    116c:	08 95       	ret

0000116e <ReadStatusBit>:
    116e:	e8 2f       	mov	r30, r24
    1170:	ef 77       	andi	r30, 0x7F	; 127
    1172:	e6 95       	lsr	r30
    1174:	e6 95       	lsr	r30
    1176:	e6 95       	lsr	r30
    1178:	f0 e0       	ldi	r31, 0x00	; 0
    117a:	e3 5b       	subi	r30, 0xB3	; 179
    117c:	f5 4c       	sbci	r31, 0xC5	; 197
    117e:	20 81       	ld	r18, Z
    1180:	30 e0       	ldi	r19, 0x00	; 0
    1182:	87 70       	andi	r24, 0x07	; 7
    1184:	a9 01       	movw	r20, r18
    1186:	02 c0       	rjmp	.+4      	; 0x118c <ReadStatusBit+0x1e>
    1188:	55 95       	asr	r21
    118a:	47 95       	ror	r20
    118c:	8a 95       	dec	r24
    118e:	e2 f7       	brpl	.-8      	; 0x1188 <ReadStatusBit+0x1a>
    1190:	ca 01       	movw	r24, r20
    1192:	81 70       	andi	r24, 0x01	; 1
    1194:	08 95       	ret

00001196 <WriteStatusBit>:
    1196:	e8 2f       	mov	r30, r24
    1198:	ef 77       	andi	r30, 0x7F	; 127
    119a:	e6 95       	lsr	r30
    119c:	e6 95       	lsr	r30
    119e:	e6 95       	lsr	r30
    11a0:	28 2f       	mov	r18, r24
    11a2:	27 70       	andi	r18, 0x07	; 7
    11a4:	f0 e0       	ldi	r31, 0x00	; 0
    11a6:	e3 5b       	subi	r30, 0xB3	; 179
    11a8:	f5 4c       	sbci	r31, 0xC5	; 197
    11aa:	81 e0       	ldi	r24, 0x01	; 1
    11ac:	90 e0       	ldi	r25, 0x00	; 0
    11ae:	01 c0       	rjmp	.+2      	; 0x11b2 <WriteStatusBit+0x1c>
    11b0:	88 0f       	add	r24, r24
    11b2:	2a 95       	dec	r18
    11b4:	ea f7       	brpl	.-6      	; 0x11b0 <WriteStatusBit+0x1a>
    11b6:	66 23       	and	r22, r22
    11b8:	19 f0       	breq	.+6      	; 0x11c0 <WriteStatusBit+0x2a>
    11ba:	90 81       	ld	r25, Z
    11bc:	89 2b       	or	r24, r25
    11be:	03 c0       	rjmp	.+6      	; 0x11c6 <WriteStatusBit+0x30>
    11c0:	80 95       	com	r24
    11c2:	90 81       	ld	r25, Z
    11c4:	89 23       	and	r24, r25
    11c6:	80 83       	st	Z, r24
    11c8:	08 95       	ret

000011ca <UpdateState>:
    11ca:	98 2f       	mov	r25, r24
    11cc:	8f 77       	andi	r24, 0x7F	; 127
    11ce:	31 f0       	breq	.+12     	; 0x11dc <UpdateState+0x12>
    11d0:	97 ff       	sbrs	r25, 7
    11d2:	02 c0       	rjmp	.+4      	; 0x11d8 <UpdateState+0xe>
    11d4:	60 e0       	ldi	r22, 0x00	; 0
    11d6:	01 c0       	rjmp	.+2      	; 0x11da <UpdateState+0x10>
    11d8:	61 e0       	ldi	r22, 0x01	; 1
    11da:	dd cf       	rjmp	.-70     	; 0x1196 <WriteStatusBit>
    11dc:	08 95       	ret

000011de <CheckState>:
    11de:	cf 93       	push	r28
    11e0:	c8 2f       	mov	r28, r24
    11e2:	8f 77       	andi	r24, 0x7F	; 127
    11e4:	c4 df       	rcall	.-120    	; 0x116e <ReadStatusBit>
    11e6:	2c 2f       	mov	r18, r28
    11e8:	22 1f       	adc	r18, r18
    11ea:	22 27       	eor	r18, r18
    11ec:	22 1f       	adc	r18, r18
    11ee:	91 e0       	ldi	r25, 0x01	; 1
    11f0:	81 11       	cpse	r24, r1
    11f2:	01 c0       	rjmp	.+2      	; 0x11f6 <CheckState+0x18>
    11f4:	90 e0       	ldi	r25, 0x00	; 0
    11f6:	82 2f       	mov	r24, r18
    11f8:	89 27       	eor	r24, r25
    11fa:	cf 91       	pop	r28
    11fc:	08 95       	ret

000011fe <getID>:
    11fe:	e3 e0       	ldi	r30, 0x03	; 3
    1200:	f1 e1       	ldi	r31, 0x11	; 17
    1202:	80 e0       	ldi	r24, 0x00	; 0
    1204:	91 91       	ld	r25, Z+
    1206:	89 0f       	add	r24, r25
    1208:	ed 30       	cpi	r30, 0x0D	; 13
    120a:	91 e1       	ldi	r25, 0x11	; 17
    120c:	f9 07       	cpc	r31, r25
    120e:	d1 f7       	brne	.-12     	; 0x1204 <getID+0x6>
    1210:	83 70       	andi	r24, 0x03	; 3
    1212:	8f 5f       	subi	r24, 0xFF	; 255
    1214:	80 93 30 38 	sts	0x3830, r24	; 0x803830 <whoami>
    1218:	08 95       	ret

0000121a <Reset>:
    121a:	ed e4       	ldi	r30, 0x4D	; 77
    121c:	fa e3       	ldi	r31, 0x3A	; 58
    121e:	11 92       	st	Z+, r1
    1220:	8a e3       	ldi	r24, 0x3A	; 58
    1222:	e1 36       	cpi	r30, 0x61	; 97
    1224:	f8 07       	cpc	r31, r24
    1226:	d9 f7       	brne	.-10     	; 0x121e <Reset+0x4>
    1228:	ea df       	rcall	.-44     	; 0x11fe <getID>
    122a:	81 11       	cpse	r24, r1
    122c:	04 c0       	rjmp	.+8      	; 0x1236 <Reset+0x1c>
    122e:	80 91 5a 3a 	lds	r24, 0x3A5A	; 0x803a5a <gameState+0xd>
    1232:	80 64       	ori	r24, 0x40	; 64
    1234:	05 c0       	rjmp	.+10     	; 0x1240 <Reset+0x26>
    1236:	81 30       	cpi	r24, 0x01	; 1
    1238:	31 f4       	brne	.+12     	; 0x1246 <Reset+0x2c>
    123a:	80 91 5a 3a 	lds	r24, 0x3A5A	; 0x803a5a <gameState+0xd>
    123e:	80 68       	ori	r24, 0x80	; 128
    1240:	80 93 5a 3a 	sts	0x3A5A, r24	; 0x803a5a <gameState+0xd>
    1244:	0d c0       	rjmp	.+26     	; 0x1260 <Reset+0x46>
    1246:	82 30       	cpi	r24, 0x02	; 2
    1248:	21 f4       	brne	.+8      	; 0x1252 <Reset+0x38>
    124a:	80 91 5b 3a 	lds	r24, 0x3A5B	; 0x803a5b <gameState+0xe>
    124e:	81 60       	ori	r24, 0x01	; 1
    1250:	05 c0       	rjmp	.+10     	; 0x125c <Reset+0x42>
    1252:	83 30       	cpi	r24, 0x03	; 3
    1254:	29 f4       	brne	.+10     	; 0x1260 <Reset+0x46>
    1256:	80 91 5b 3a 	lds	r24, 0x3A5B	; 0x803a5b <gameState+0xe>
    125a:	82 60       	ori	r24, 0x02	; 2
    125c:	80 93 5b 3a 	sts	0x3A5B, r24	; 0x803a5b <gameState+0xe>
    1260:	80 91 4d 3a 	lds	r24, 0x3A4D	; 0x803a4d <gameState>
    1264:	81 60       	ori	r24, 0x01	; 1
    1266:	80 93 4d 3a 	sts	0x3A4D, r24	; 0x803a4d <gameState>
    126a:	08 95       	ret

0000126c <LoadGameState>:
    126c:	cf 93       	push	r28
    126e:	df 93       	push	r29
    1270:	44 e1       	ldi	r20, 0x14	; 20
    1272:	6d e4       	ldi	r22, 0x4D	; 77
    1274:	7a e3       	ldi	r23, 0x3A	; 58
    1276:	80 e0       	ldi	r24, 0x00	; 0
    1278:	b0 dd       	rcall	.-1184   	; 0xdda <EERead>
    127a:	ce e6       	ldi	r28, 0x6E	; 110
    127c:	d0 e0       	ldi	r29, 0x00	; 0
    127e:	8c 2f       	mov	r24, r28
    1280:	76 df       	rcall	.-276    	; 0x116e <ReadStatusBit>
    1282:	d8 0f       	add	r29, r24
    1284:	cf 5f       	subi	r28, 0xFF	; 255
    1286:	c2 37       	cpi	r28, 0x72	; 114
    1288:	d1 f7       	brne	.-12     	; 0x127e <LoadGameState+0x12>
    128a:	d1 30       	cpi	r29, 0x01	; 1
    128c:	11 f0       	breq	.+4      	; 0x1292 <LoadGameState+0x26>
    128e:	c5 df       	rcall	.-118    	; 0x121a <Reset>
    1290:	01 c0       	rjmp	.+2      	; 0x1294 <LoadGameState+0x28>
    1292:	b5 df       	rcall	.-150    	; 0x11fe <getID>
    1294:	80 91 5d 3a 	lds	r24, 0x3A5D	; 0x803a5d <gameState+0x10>
    1298:	90 91 5e 3a 	lds	r25, 0x3A5E	; 0x803a5e <gameState+0x11>
    129c:	98 27       	eor	r25, r24
    129e:	89 27       	eor	r24, r25
    12a0:	98 27       	eor	r25, r24
    12a2:	80 93 31 38 	sts	0x3831, r24	; 0x803831 <inventory>
    12a6:	90 93 32 38 	sts	0x3832, r25	; 0x803832 <inventory+0x1>
    12aa:	80 91 5f 3a 	lds	r24, 0x3A5F	; 0x803a5f <gameState+0x12>
    12ae:	90 91 60 3a 	lds	r25, 0x3A60	; 0x803a60 <gameState+0x13>
    12b2:	98 27       	eor	r25, r24
    12b4:	89 27       	eor	r24, r25
    12b6:	98 27       	eor	r25, r24
    12b8:	80 93 33 38 	sts	0x3833, r24	; 0x803833 <inventory+0x2>
    12bc:	90 93 34 38 	sts	0x3834, r25	; 0x803834 <inventory+0x3>
    12c0:	df 91       	pop	r29
    12c2:	cf 91       	pop	r28
    12c4:	08 95       	ret

000012c6 <HotSummer>:
    12c6:	cf 93       	push	r28
    12c8:	86 e7       	ldi	r24, 0x76	; 118
    12ca:	89 df       	rcall	.-238    	; 0x11de <CheckState>
    12cc:	c8 2f       	mov	r28, r24
    12ce:	88 23       	and	r24, r24
    12d0:	81 f0       	breq	.+32     	; 0x12f2 <HotSummer+0x2c>
    12d2:	e0 91 31 b7 	lds	r30, 0xB731	; 0x80b731 <__bss_end+0x7c2b>
    12d6:	f0 e0       	ldi	r31, 0x00	; 0
    12d8:	ea 54       	subi	r30, 0x4A	; 74
    12da:	f5 4c       	sbci	r31, 0xC5	; 197
    12dc:	10 82       	st	Z, r1
    12de:	e0 91 30 b7 	lds	r30, 0xB730	; 0x80b730 <__bss_end+0x7c2a>
    12e2:	f0 e0       	ldi	r31, 0x00	; 0
    12e4:	80 91 09 38 	lds	r24, 0x3809	; 0x803809 <dimValue>
    12e8:	ea 54       	subi	r30, 0x4A	; 74
    12ea:	f5 4c       	sbci	r31, 0xC5	; 197
    12ec:	80 83       	st	Z, r24
    12ee:	c1 e0       	ldi	r28, 0x01	; 1
    12f0:	4c c0       	rjmp	.+152    	; 0x138a <HotSummer+0xc4>
    12f2:	85 e7       	ldi	r24, 0x75	; 117
    12f4:	74 df       	rcall	.-280    	; 0x11de <CheckState>
    12f6:	88 23       	and	r24, r24
    12f8:	59 f1       	breq	.+86     	; 0x1350 <HotSummer+0x8a>
    12fa:	e0 91 31 b7 	lds	r30, 0xB731	; 0x80b731 <__bss_end+0x7c2b>
    12fe:	f0 e0       	ldi	r31, 0x00	; 0
    1300:	80 91 09 38 	lds	r24, 0x3809	; 0x803809 <dimValue>
    1304:	ea 54       	subi	r30, 0x4A	; 74
    1306:	f5 4c       	sbci	r31, 0xC5	; 197
    1308:	80 83       	st	Z, r24
    130a:	80 91 47 38 	lds	r24, 0x3847	; 0x803847 <cooledDown.3938>
    130e:	88 23       	and	r24, r24
    1310:	79 f0       	breq	.+30     	; 0x1330 <HotSummer+0x6a>
    1312:	80 91 ac 3a 	lds	r24, 0x3AAC	; 0x803aac <calTemp>
    1316:	90 91 ad 3a 	lds	r25, 0x3AAD	; 0x803aad <calTemp+0x1>
    131a:	20 91 e1 3a 	lds	r18, 0x3AE1	; 0x803ae1 <adcTemp>
    131e:	30 91 e2 3a 	lds	r19, 0x3AE2	; 0x803ae2 <adcTemp+0x1>
    1322:	08 96       	adiw	r24, 0x08	; 8
    1324:	28 17       	cp	r18, r24
    1326:	39 07       	cpc	r19, r25
    1328:	18 f0       	brcs	.+6      	; 0x1330 <HotSummer+0x6a>
    132a:	86 e7       	ldi	r24, 0x76	; 118
    132c:	4e df       	rcall	.-356    	; 0x11ca <UpdateState>
    132e:	2d c0       	rjmp	.+90     	; 0x138a <HotSummer+0xc4>
    1330:	80 91 ac 3a 	lds	r24, 0x3AAC	; 0x803aac <calTemp>
    1334:	90 91 ad 3a 	lds	r25, 0x3AAD	; 0x803aad <calTemp+0x1>
    1338:	20 91 e1 3a 	lds	r18, 0x3AE1	; 0x803ae1 <adcTemp>
    133c:	30 91 e2 3a 	lds	r19, 0x3AE2	; 0x803ae2 <adcTemp+0x1>
    1340:	02 96       	adiw	r24, 0x02	; 2
    1342:	82 17       	cp	r24, r18
    1344:	93 07       	cpc	r25, r19
    1346:	08 f1       	brcs	.+66     	; 0x138a <HotSummer+0xc4>
    1348:	81 e0       	ldi	r24, 0x01	; 1
    134a:	80 93 47 38 	sts	0x3847, r24	; 0x803847 <cooledDown.3938>
    134e:	1d c0       	rjmp	.+58     	; 0x138a <HotSummer+0xc4>
    1350:	80 91 ac 3a 	lds	r24, 0x3AAC	; 0x803aac <calTemp>
    1354:	90 91 ad 3a 	lds	r25, 0x3AAD	; 0x803aad <calTemp+0x1>
    1358:	89 2b       	or	r24, r25
    135a:	41 f4       	brne	.+16     	; 0x136c <HotSummer+0xa6>
    135c:	80 91 e1 3a 	lds	r24, 0x3AE1	; 0x803ae1 <adcTemp>
    1360:	90 91 e2 3a 	lds	r25, 0x3AE2	; 0x803ae2 <adcTemp+0x1>
    1364:	80 93 ac 3a 	sts	0x3AAC, r24	; 0x803aac <calTemp>
    1368:	90 93 ad 3a 	sts	0x3AAD, r25	; 0x803aad <calTemp+0x1>
    136c:	80 91 ac 3a 	lds	r24, 0x3AAC	; 0x803aac <calTemp>
    1370:	90 91 ad 3a 	lds	r25, 0x3AAD	; 0x803aad <calTemp+0x1>
    1374:	20 91 e1 3a 	lds	r18, 0x3AE1	; 0x803ae1 <adcTemp>
    1378:	30 91 e2 3a 	lds	r19, 0x3AE2	; 0x803ae2 <adcTemp+0x1>
    137c:	08 96       	adiw	r24, 0x08	; 8
    137e:	28 17       	cp	r18, r24
    1380:	39 07       	cpc	r19, r25
    1382:	18 f0       	brcs	.+6      	; 0x138a <HotSummer+0xc4>
    1384:	85 e7       	ldi	r24, 0x75	; 117
    1386:	21 df       	rcall	.-446    	; 0x11ca <UpdateState>
    1388:	c0 e0       	ldi	r28, 0x00	; 0
    138a:	8c 2f       	mov	r24, r28
    138c:	cf 91       	pop	r28
    138e:	08 95       	ret

00001390 <GenerateAudio>:


uint8_t GenerateAudio(){
    1390:	0f 93       	push	r16
    1392:	1f 93       	push	r17
    1394:	cf 93       	push	r28
    1396:	df 93       	push	r29

    if (auIn[AULEN>>1] < HPLVL) {
    1398:	80 91 b2 3a 	lds	r24, 0x3AB2	; 0x803ab2 <auIn+0x4>
    139c:	89 31       	cpi	r24, 0x19	; 25
    139e:	08 f0       	brcs	.+2      	; 0x13a2 <GenerateAudio+0x12>
    13a0:	cf c0       	rjmp	.+414    	; 0x1540 <GenerateAudio+0x1b0>

        detHdPh = 1;
    13a2:	81 e0       	ldi	r24, 0x01	; 1
    13a4:	80 93 ab 3a 	sts	0x3AAB, r24	; 0x803aab <detHdPh>

        //Audio for text adventure
        if ((effect&0xff00)==0) {
    13a8:	80 91 2d 38 	lds	r24, 0x382D	; 0x80382d <effect>
    13ac:	90 91 2e 38 	lds	r25, 0x382E	; 0x80382e <effect+0x1>
    13b0:	88 27       	eor	r24, r24
    13b2:	89 2b       	or	r24, r25
    13b4:	09 f0       	breq	.+2      	; 0x13b8 <GenerateAudio+0x28>
    13b6:	c6 c0       	rjmp	.+396    	; 0x1544 <GenerateAudio+0x1b4>

            //Silence
            if ((effect&0xE0)==0){
    13b8:	80 91 2d 38 	lds	r24, 0x382D	; 0x80382d <effect>
    13bc:	90 91 2e 38 	lds	r25, 0x382E	; 0x80382e <effect+0x1>
    13c0:	80 7e       	andi	r24, 0xE0	; 224
    13c2:	99 27       	eor	r25, r25
    13c4:	89 2b       	or	r24, r25
    13c6:	31 f4       	brne	.+12     	; 0x13d4 <GenerateAudio+0x44>
                auRepAddr = &zero;
    13c8:	8b e2       	ldi	r24, 0x2B	; 43
    13ca:	98 e3       	ldi	r25, 0x38	; 56
    13cc:	80 93 03 38 	sts	0x3803, r24	; 0x803803 <auRepAddr>
    13d0:	90 93 04 38 	sts	0x3804, r25	; 0x803804 <auRepAddr+0x1>
            }

            //Bad (buzzer)
            if ((effect&0xE0)==32){
    13d4:	80 91 2d 38 	lds	r24, 0x382D	; 0x80382d <effect>
    13d8:	90 91 2e 38 	lds	r25, 0x382E	; 0x80382e <effect+0x1>
    13dc:	80 7e       	andi	r24, 0xE0	; 224
    13de:	99 27       	eor	r25, r25
    13e0:	80 97       	sbiw	r24, 0x20	; 32
    13e2:	09 f0       	breq	.+2      	; 0x13e6 <GenerateAudio+0x56>
    13e4:	59 c0       	rjmp	.+178    	; 0x1498 <GenerateAudio+0x108>
                static uint8_t auBuffer[17] = {1, 255, 128, 128, 192, 255, 64, 255, 192, 128, 64, 1, 192, 1, 64, 128, 0}; 
                static uint8_t loudness, duration, start;
                floatSpeed(1, 0x2000, 0x2200);
    13e6:	40 e0       	ldi	r20, 0x00	; 0
    13e8:	52 e2       	ldi	r21, 0x22	; 34
    13ea:	60 e0       	ldi	r22, 0x00	; 0
    13ec:	70 e2       	ldi	r23, 0x20	; 32
    13ee:	81 e0       	ldi	r24, 0x01	; 1
    13f0:	e7 dd       	rcall	.-1074   	; 0xfc0 <floatSpeed>
                auBuffer[2] = floatAround(0x80, 5, 0x01, 0x00);
    13f2:	20 e0       	ldi	r18, 0x00	; 0
    13f4:	41 e0       	ldi	r20, 0x01	; 1
    13f6:	65 e0       	ldi	r22, 0x05	; 5
    13f8:	80 e8       	ldi	r24, 0x80	; 128
    13fa:	14 de       	rcall	.-984    	; 0x1024 <floatAround>
    13fc:	80 93 0d 38 	sts	0x380D, r24	; 0x80380d <auBuffer.3948+0x2>

                if (buttonMark) {
    1400:	80 91 35 38 	lds	r24, 0x3835	; 0x803835 <buttonMark>
    1404:	88 23       	and	r24, r24
    1406:	09 f4       	brne	.+2      	; 0x140a <GenerateAudio+0x7a>
    1408:	47 c0       	rjmp	.+142    	; 0x1498 <GenerateAudio+0x108>
                    if (start == 0) {
    140a:	80 91 46 38 	lds	r24, 0x3846	; 0x803846 <start.3951>
    140e:	81 11       	cpse	r24, r1
    1410:	15 c0       	rjmp	.+42     	; 0x143c <GenerateAudio+0xac>
                        duration = 4;
    1412:	84 e0       	ldi	r24, 0x04	; 4
    1414:	80 93 45 38 	sts	0x3845, r24	; 0x803845 <duration.3950>
                        loudness = 0xff;
    1418:	8f ef       	ldi	r24, 0xFF	; 255
    141a:	80 93 44 38 	sts	0x3844, r24	; 0x803844 <loudness.3949>
                        TCB1_CCMP = 0x2000;
    141e:	80 e0       	ldi	r24, 0x00	; 0
    1420:	90 e2       	ldi	r25, 0x20	; 32
    1422:	80 93 5c 0a 	sts	0x0A5C, r24	; 0x800a5c <__TEXT_REGION_LENGTH__+0x700a5c>
    1426:	90 93 5d 0a 	sts	0x0A5D, r25	; 0x800a5d <__TEXT_REGION_LENGTH__+0x700a5d>
                        auRepAddr = &auBuffer[0];
    142a:	8b e0       	ldi	r24, 0x0B	; 11
    142c:	98 e3       	ldi	r25, 0x38	; 56
    142e:	80 93 03 38 	sts	0x3803, r24	; 0x803803 <auRepAddr>
    1432:	90 93 04 38 	sts	0x3804, r25	; 0x803804 <auRepAddr+0x1>
                        start = 1;
    1436:	81 e0       	ldi	r24, 0x01	; 1
    1438:	80 93 46 38 	sts	0x3846, r24	; 0x803846 <start.3951>
                    }

                    if (loudness) {
    143c:	80 91 44 38 	lds	r24, 0x3844	; 0x803844 <loudness.3949>
    1440:	88 23       	and	r24, r24
    1442:	69 f0       	breq	.+26     	; 0x145e <GenerateAudio+0xce>
                        auVolume = loudness;
    1444:	80 93 a2 3a 	sts	0x3AA2, r24	; 0x803aa2 <auVolume>
                        if (duration) duration--; else loudness >>= 1;
    1448:	90 91 45 38 	lds	r25, 0x3845	; 0x803845 <duration.3950>
    144c:	99 23       	and	r25, r25
    144e:	21 f0       	breq	.+8      	; 0x1458 <GenerateAudio+0xc8>
    1450:	91 50       	subi	r25, 0x01	; 1
    1452:	90 93 45 38 	sts	0x3845, r25	; 0x803845 <duration.3950>
    1456:	03 c0       	rjmp	.+6      	; 0x145e <GenerateAudio+0xce>
    1458:	86 95       	lsr	r24
    145a:	80 93 44 38 	sts	0x3844, r24	; 0x803844 <loudness.3949>
                    } 

                    if (loudness == 0) {
    145e:	80 91 44 38 	lds	r24, 0x3844	; 0x803844 <loudness.3949>
    1462:	81 11       	cpse	r24, r1
    1464:	19 c0       	rjmp	.+50     	; 0x1498 <GenerateAudio+0x108>
                        effect &= 0x10;
    1466:	80 91 2d 38 	lds	r24, 0x382D	; 0x80382d <effect>
    146a:	90 91 2e 38 	lds	r25, 0x382E	; 0x80382e <effect+0x1>
    146e:	80 71       	andi	r24, 0x10	; 16
    1470:	99 27       	eor	r25, r25
    1472:	80 93 2d 38 	sts	0x382D, r24	; 0x80382d <effect>
    1476:	90 93 2e 38 	sts	0x382E, r25	; 0x80382e <effect+0x1>
                        auRepAddr = &zero;
    147a:	8b e2       	ldi	r24, 0x2B	; 43
    147c:	98 e3       	ldi	r25, 0x38	; 56
    147e:	80 93 03 38 	sts	0x3803, r24	; 0x803803 <auRepAddr>
    1482:	90 93 04 38 	sts	0x3804, r25	; 0x803804 <auRepAddr+0x1>
                        auSmpAddr = &zero;
    1486:	80 93 05 38 	sts	0x3805, r24	; 0x803805 <auSmpAddr>
    148a:	90 93 06 38 	sts	0x3806, r25	; 0x803806 <auSmpAddr+0x1>
                        auVolume = 0xff;
    148e:	8f ef       	ldi	r24, 0xFF	; 255
    1490:	80 93 a2 3a 	sts	0x3AA2, r24	; 0x803aa2 <auVolume>
                        start = 0;
    1494:	10 92 46 38 	sts	0x3846, r1	; 0x803846 <start.3951>
                    }
                }
            }

            //Good (bell)
            if ((effect&0xE0)==64){
    1498:	80 91 2d 38 	lds	r24, 0x382D	; 0x80382d <effect>
    149c:	90 91 2e 38 	lds	r25, 0x382E	; 0x80382e <effect+0x1>
                //auBuffer = 
            }

            //Rain storm with whistling wind
            if ((effect&0xE0)==96){
    14a0:	80 91 2d 38 	lds	r24, 0x382D	; 0x80382d <effect>
    14a4:	90 91 2e 38 	lds	r25, 0x382E	; 0x80382e <effect+0x1>
    14a8:	80 7e       	andi	r24, 0xE0	; 224
    14aa:	99 27       	eor	r25, r25
    14ac:	80 36       	cpi	r24, 0x60	; 96
    14ae:	91 05       	cpc	r25, r1
    14b0:	d1 f5       	brne	.+116    	; 0x1526 <GenerateAudio+0x196>
                static uint8_t auBuffer[7];
                auBuffer[6]= 0;        
    14b2:	10 92 43 38 	sts	0x3843, r1	; 0x803843 <auBuffer.3952+0x6>
                auRepAddr = &auBuffer[0];
    14b6:	8d e3       	ldi	r24, 0x3D	; 61
    14b8:	98 e3       	ldi	r25, 0x38	; 56
    14ba:	80 93 03 38 	sts	0x3803, r24	; 0x803803 <auRepAddr>
    14be:	90 93 04 38 	sts	0x3804, r25	; 0x803804 <auRepAddr+0x1>
    14c2:	8c 01       	movw	r16, r24

                //Noise is to be generated fast, outside of buttonMark loop
                for (uint8_t x=1; x<6; ++x){
    14c4:	c1 e0       	ldi	r28, 0x01	; 1
                    if (x%3) auBuffer[x] = floatAround(0x80, 5, 0x01, 0x00);
    14c6:	d3 e0       	ldi	r29, 0x03	; 3
    14c8:	8c 2f       	mov	r24, r28
    14ca:	6d 2f       	mov	r22, r29
    14cc:	0e 94 2c 1b 	call	0x3658	; 0x3658 <__udivmodqi4>
    14d0:	99 23       	and	r25, r25
    14d2:	39 f0       	breq	.+14     	; 0x14e2 <GenerateAudio+0x152>
    14d4:	20 e0       	ldi	r18, 0x00	; 0
    14d6:	41 e0       	ldi	r20, 0x01	; 1
    14d8:	65 e0       	ldi	r22, 0x05	; 5
    14da:	80 e8       	ldi	r24, 0x80	; 128
    14dc:	a3 dd       	rcall	.-1210   	; 0x1024 <floatAround>
    14de:	f8 01       	movw	r30, r16
    14e0:	81 83       	std	Z+1, r24	; 0x01
                static uint8_t auBuffer[7];
                auBuffer[6]= 0;        
                auRepAddr = &auBuffer[0];

                //Noise is to be generated fast, outside of buttonMark loop
                for (uint8_t x=1; x<6; ++x){
    14e2:	cf 5f       	subi	r28, 0xFF	; 255
    14e4:	0f 5f       	subi	r16, 0xFF	; 255
    14e6:	1f 4f       	sbci	r17, 0xFF	; 255
    14e8:	c6 30       	cpi	r28, 0x06	; 6
    14ea:	71 f7       	brne	.-36     	; 0x14c8 <GenerateAudio+0x138>
                    if (x%3) auBuffer[x] = floatAround(0x80, 5, 0x01, 0x00);
                }

                if (buttonMark){
    14ec:	80 91 35 38 	lds	r24, 0x3835	; 0x803835 <buttonMark>
    14f0:	88 23       	and	r24, r24
    14f2:	c9 f0       	breq	.+50     	; 0x1526 <GenerateAudio+0x196>
                    //"Floating" speed for howl (and noise, but that's hardly audible)
                    floatSpeed(5, 0x0280, 0x0400);
    14f4:	40 e0       	ldi	r20, 0x00	; 0
    14f6:	54 e0       	ldi	r21, 0x04	; 4
    14f8:	60 e8       	ldi	r22, 0x80	; 128
    14fa:	72 e0       	ldi	r23, 0x02	; 2
    14fc:	85 e0       	ldi	r24, 0x05	; 5
    14fe:	60 dd       	rcall	.-1344   	; 0xfc0 <floatSpeed>
            
                    //"Floating" volume and wind howl during 8 bit rainstorm needs some randomness
                    auVolume = floatAround(auVolume, 2, 0x10, 0xA0);
    1500:	80 91 a2 3a 	lds	r24, 0x3AA2	; 0x803aa2 <auVolume>
    1504:	20 ea       	ldi	r18, 0xA0	; 160
    1506:	40 e1       	ldi	r20, 0x10	; 16
    1508:	62 e0       	ldi	r22, 0x02	; 2
    150a:	8c dd       	rcall	.-1256   	; 0x1024 <floatAround>
    150c:	80 93 a2 3a 	sts	0x3AA2, r24	; 0x803aa2 <auVolume>
                    auBuffer[0] = floatAround(auBuffer[0], 2, 0x70, 0x90);
    1510:	20 e9       	ldi	r18, 0x90	; 144
    1512:	40 e7       	ldi	r20, 0x70	; 112
    1514:	62 e0       	ldi	r22, 0x02	; 2
    1516:	80 91 3d 38 	lds	r24, 0x383D	; 0x80383d <auBuffer.3952>
    151a:	84 dd       	rcall	.-1272   	; 0x1024 <floatAround>
    151c:	80 93 3d 38 	sts	0x383D, r24	; 0x80383d <auBuffer.3952>
                    auBuffer[3] = 0xFF-auBuffer[0];  //Inverse value of wind[0] produces a whistle
    1520:	80 95       	com	r24
    1522:	80 93 40 38 	sts	0x3840, r24	; 0x803840 <auBuffer.3952+0x3>
                }
            }

            //Footsteps
            if ((effect&0xE0)==128){
    1526:	80 91 2d 38 	lds	r24, 0x382D	; 0x80382d <effect>
    152a:	90 91 2e 38 	lds	r25, 0x382E	; 0x80382e <effect+0x1>

            }

            //
            if ((effect&0xE0)==160){
    152e:	80 91 2d 38 	lds	r24, 0x382D	; 0x80382d <effect>
    1532:	90 91 2e 38 	lds	r25, 0x382E	; 0x80382e <effect+0x1>

            }

            //
            if ((effect&0xE0)==192){
    1536:	80 91 2d 38 	lds	r24, 0x382D	; 0x80382d <effect>
    153a:	90 91 2e 38 	lds	r25, 0x382E	; 0x80382e <effect+0x1>
    153e:	02 c0       	rjmp	.+4      	; 0x1544 <GenerateAudio+0x1b4>
            //
            else {
            }
        }
    } else {
        detHdPh = 0;
    1540:	10 92 ab 3a 	sts	0x3AAB, r1	; 0x803aab <detHdPh>
    }
    return buttonMark;
    1544:	80 91 35 38 	lds	r24, 0x3835	; 0x803835 <buttonMark>
    1548:	df 91       	pop	r29
    154a:	cf 91       	pop	r28
    154c:	1f 91       	pop	r17
    154e:	0f 91       	pop	r16
    1550:	08 95       	ret

00001552 <simonLed>:

void simonTone(uint8_t val) {
    // TODO some way to set teh audio stuff
}

void simonLed(uint8_t val) {
    1552:	cf 93       	push	r28
    1554:	df 93       	push	r29
    1556:	e2 e3       	ldi	r30, 0x32	; 50
    1558:	f7 eb       	ldi	r31, 0xB7	; 183
    155a:	ef 01       	movw	r28, r30
    for (uint8_t n = 0; n < 5; n++) {
        iLED[WING[L][n]] = 0;
    155c:	a5 81       	ldd	r26, Z+5	; 0x05
    155e:	b0 e0       	ldi	r27, 0x00	; 0
    1560:	aa 54       	subi	r26, 0x4A	; 74
    1562:	b5 4c       	sbci	r27, 0xC5	; 197
    1564:	1c 92       	st	X, r1
    1566:	31 96       	adiw	r30, 0x01	; 1
        iLED[WING[R][n]] = 0;
    1568:	a8 81       	ld	r26, Y
    156a:	b0 e0       	ldi	r27, 0x00	; 0
    156c:	aa 54       	subi	r26, 0x4A	; 74
    156e:	b5 4c       	sbci	r27, 0xC5	; 197
    1570:	1c 92       	st	X, r1
void simonTone(uint8_t val) {
    // TODO some way to set teh audio stuff
}

void simonLed(uint8_t val) {
    for (uint8_t n = 0; n < 5; n++) {
    1572:	97 eb       	ldi	r25, 0xB7	; 183
    1574:	e7 33       	cpi	r30, 0x37	; 55
    1576:	f9 07       	cpc	r31, r25
    1578:	81 f7       	brne	.-32     	; 0x155a <simonLed+0x8>
        iLED[WING[L][n]] = 0;
        iLED[WING[R][n]] = 0;
    }
    if (val == 1) {
    157a:	81 30       	cpi	r24, 0x01	; 1
    157c:	99 f4       	brne	.+38     	; 0x15a4 <simonLed+0x52>
        iLED[WING[L][0]] = dimValue;
    157e:	e0 91 37 b7 	lds	r30, 0xB737	; 0x80b737 <__bss_end+0x7c31>
    1582:	f0 e0       	ldi	r31, 0x00	; 0
    1584:	80 91 09 38 	lds	r24, 0x3809	; 0x803809 <dimValue>
    1588:	ea 54       	subi	r30, 0x4A	; 74
    158a:	f5 4c       	sbci	r31, 0xC5	; 197
    158c:	80 83       	st	Z, r24
        iLED[WING[L][1]] = dimValue;
    158e:	e0 91 38 b7 	lds	r30, 0xB738	; 0x80b738 <__bss_end+0x7c32>
    1592:	f0 e0       	ldi	r31, 0x00	; 0
    1594:	80 91 09 38 	lds	r24, 0x3809	; 0x803809 <dimValue>
    1598:	ea 54       	subi	r30, 0x4A	; 74
    159a:	f5 4c       	sbci	r31, 0xC5	; 197
    159c:	80 83       	st	Z, r24
        iLED[WING[L][2]] = dimValue;
    159e:	e0 91 39 b7 	lds	r30, 0xB739	; 0x80b739 <__bss_end+0x7c33>
    15a2:	2e c0       	rjmp	.+92     	; 0x1600 <simonLed+0xae>
    } else if (val == 2) {
    15a4:	82 30       	cpi	r24, 0x02	; 2
    15a6:	59 f4       	brne	.+22     	; 0x15be <simonLed+0x6c>
        iLED[WING[L][3]] = dimValue;
    15a8:	e0 91 3a b7 	lds	r30, 0xB73A	; 0x80b73a <__bss_end+0x7c34>
    15ac:	f0 e0       	ldi	r31, 0x00	; 0
    15ae:	80 91 09 38 	lds	r24, 0x3809	; 0x803809 <dimValue>
    15b2:	ea 54       	subi	r30, 0x4A	; 74
    15b4:	f5 4c       	sbci	r31, 0xC5	; 197
    15b6:	80 83       	st	Z, r24
        iLED[WING[L][4]] = dimValue;
    15b8:	e0 91 3b b7 	lds	r30, 0xB73B	; 0x80b73b <__bss_end+0x7c35>
    15bc:	21 c0       	rjmp	.+66     	; 0x1600 <simonLed+0xae>
    } else if (val == 3) {
    15be:	83 30       	cpi	r24, 0x03	; 3
    15c0:	99 f4       	brne	.+38     	; 0x15e8 <simonLed+0x96>
        iLED[WING[R][0]] = dimValue;
    15c2:	e0 91 32 b7 	lds	r30, 0xB732	; 0x80b732 <__bss_end+0x7c2c>
    15c6:	f0 e0       	ldi	r31, 0x00	; 0
    15c8:	80 91 09 38 	lds	r24, 0x3809	; 0x803809 <dimValue>
    15cc:	ea 54       	subi	r30, 0x4A	; 74
    15ce:	f5 4c       	sbci	r31, 0xC5	; 197
    15d0:	80 83       	st	Z, r24
        iLED[WING[R][1]] = dimValue;
    15d2:	e0 91 33 b7 	lds	r30, 0xB733	; 0x80b733 <__bss_end+0x7c2d>
    15d6:	f0 e0       	ldi	r31, 0x00	; 0
    15d8:	80 91 09 38 	lds	r24, 0x3809	; 0x803809 <dimValue>
    15dc:	ea 54       	subi	r30, 0x4A	; 74
    15de:	f5 4c       	sbci	r31, 0xC5	; 197
    15e0:	80 83       	st	Z, r24
        iLED[WING[R][2]] = dimValue;
    15e2:	e0 91 34 b7 	lds	r30, 0xB734	; 0x80b734 <__bss_end+0x7c2e>
    15e6:	0c c0       	rjmp	.+24     	; 0x1600 <simonLed+0xae>
    } else if (val == 4) {
    15e8:	84 30       	cpi	r24, 0x04	; 4
    15ea:	81 f4       	brne	.+32     	; 0x160c <simonLed+0xba>
        iLED[WING[R][3]] = dimValue;
    15ec:	e0 91 35 b7 	lds	r30, 0xB735	; 0x80b735 <__bss_end+0x7c2f>
    15f0:	f0 e0       	ldi	r31, 0x00	; 0
    15f2:	80 91 09 38 	lds	r24, 0x3809	; 0x803809 <dimValue>
    15f6:	ea 54       	subi	r30, 0x4A	; 74
    15f8:	f5 4c       	sbci	r31, 0xC5	; 197
    15fa:	80 83       	st	Z, r24
        iLED[WING[R][4]] = dimValue;
    15fc:	e0 91 36 b7 	lds	r30, 0xB736	; 0x80b736 <__bss_end+0x7c30>
    1600:	f0 e0       	ldi	r31, 0x00	; 0
    1602:	80 91 09 38 	lds	r24, 0x3809	; 0x803809 <dimValue>
    1606:	ea 54       	subi	r30, 0x4A	; 74
    1608:	f5 4c       	sbci	r31, 0xC5	; 197
    160a:	80 83       	st	Z, r24
    }
    simonTone(val);
}
    160c:	df 91       	pop	r29
    160e:	cf 91       	pop	r28
    1610:	08 95       	ret

00001612 <BastetDictates>:

// Main game loop
uint8_t BastetDictates() {
    1612:	cf 93       	push	r28
    1614:	df 93       	push	r29
    if (CheckState(BASTET_COMPLETED))
    1616:	8a e7       	ldi	r24, 0x7A	; 122
    1618:	e2 dd       	rcall	.-1084   	; 0x11de <CheckState>
    161a:	81 11       	cpse	r24, r1
    161c:	a3 c0       	rjmp	.+326    	; 0x1764 <BastetDictates+0x152>
        return 0;

    if ((TEXT != gameNow) && (BASTET != gameNow))
    161e:	80 91 2f 38 	lds	r24, 0x382F	; 0x80382f <gameNow>
    1622:	8d 7f       	andi	r24, 0xFD	; 253
    1624:	09 f0       	breq	.+2      	; 0x1628 <BastetDictates+0x16>
    1626:	9e c0       	rjmp	.+316    	; 0x1764 <BastetDictates+0x152>
        return 0;

    if (BASTET_BOOT == simonGameState) {
    1628:	80 91 4a 38 	lds	r24, 0x384A	; 0x80384a <simonGameState>
    162c:	81 11       	cpse	r24, r1
    162e:	0d c0       	rjmp	.+26     	; 0x164a <BastetDictates+0x38>
    1630:	cc e4       	ldi	r28, 0x4C	; 76
        for (uint8_t i = 0; i < BASTET_LENGTH; i++) {
            simonState[i] = 1+(lfsr() % 4);
    1632:	d8 e3       	ldi	r29, 0x38	; 56
    1634:	a6 dc       	rcall	.-1716   	; 0xf82 <lfsr>
    1636:	83 70       	andi	r24, 0x03	; 3
    1638:	8f 5f       	subi	r24, 0xFF	; 255
    163a:	89 93       	st	Y+, r24

    if ((TEXT != gameNow) && (BASTET != gameNow))
        return 0;

    if (BASTET_BOOT == simonGameState) {
        for (uint8_t i = 0; i < BASTET_LENGTH; i++) {
    163c:	88 e3       	ldi	r24, 0x38	; 56
    163e:	cc 35       	cpi	r28, 0x5C	; 92
    1640:	d8 07       	cpc	r29, r24
    1642:	c1 f7       	brne	.-16     	; 0x1634 <BastetDictates+0x22>
            simonState[i] = 1+(lfsr() % 4);
        }
        simonGameState = BASTET_GAME_START;
    1644:	81 e0       	ldi	r24, 0x01	; 1
    1646:	80 93 4a 38 	sts	0x384A, r24	; 0x80384a <simonGameState>
    }

    if (BASTET_GAME_START == simonGameState) {
    164a:	80 91 4a 38 	lds	r24, 0x384A	; 0x80384a <simonGameState>
    164e:	81 30       	cpi	r24, 0x01	; 1
    1650:	29 f4       	brne	.+10     	; 0x165c <BastetDictates+0x4a>
        // TODO start animu
        simonGameState = BASTET_GAME_SHOW_PATTERN;
    1652:	83 e0       	ldi	r24, 0x03	; 3
    1654:	80 93 4a 38 	sts	0x384A, r24	; 0x80384a <simonGameState>
        simonTimer = 0;
    1658:	10 92 49 38 	sts	0x3849, r1	; 0x803849 <simonTimer>
    }

    if (BASTET_GAME_SHOW_PATTERN == simonGameState) {
    165c:	80 91 4a 38 	lds	r24, 0x384A	; 0x80384a <simonGameState>
    1660:	83 30       	cpi	r24, 0x03	; 3
    1662:	d9 f4       	brne	.+54     	; 0x169a <BastetDictates+0x88>
        // assuming 15Hz
        uint8_t pos = simonTimer / (15 - (simonPos>>1));
    1664:	20 91 26 38 	lds	r18, 0x3826	; 0x803826 <simonPos>
    1668:	80 91 49 38 	lds	r24, 0x3849	; 0x803849 <simonTimer>
    166c:	90 e0       	ldi	r25, 0x00	; 0
    166e:	32 2f       	mov	r19, r18
    1670:	36 95       	lsr	r19
    1672:	6f e0       	ldi	r22, 0x0F	; 15
    1674:	70 e0       	ldi	r23, 0x00	; 0
    1676:	63 1b       	sub	r22, r19
    1678:	71 09       	sbc	r23, r1
    167a:	0e 94 4c 1b 	call	0x3698	; 0x3698 <__divmodhi4>
        if (pos > simonPos) {
    167e:	26 17       	cp	r18, r22
    1680:	30 f4       	brcc	.+12     	; 0x168e <BastetDictates+0x7c>
            simonGameState = BASTET_GAME_INPUT;
    1682:	85 e0       	ldi	r24, 0x05	; 5
    1684:	80 93 4a 38 	sts	0x384A, r24	; 0x80384a <simonGameState>
            simonLed(0);
    1688:	80 e0       	ldi	r24, 0x00	; 0
    168a:	63 df       	rcall	.-314    	; 0x1552 <simonLed>
            return 0;
    168c:	6b c0       	rjmp	.+214    	; 0x1764 <BastetDictates+0x152>
        }
        simonLed(simonState[pos]);
    168e:	77 27       	eor	r23, r23
    1690:	fb 01       	movw	r30, r22
    1692:	e4 5b       	subi	r30, 0xB4	; 180
    1694:	f7 4c       	sbci	r31, 0xC7	; 199
    1696:	80 81       	ld	r24, Z
    1698:	5c df       	rcall	.-328    	; 0x1552 <simonLed>
    }

    if (BASTET_GAME_INPUT == simonGameState) {
    169a:	80 91 4a 38 	lds	r24, 0x384A	; 0x80384a <simonGameState>
    169e:	85 30       	cpi	r24, 0x05	; 5
    16a0:	09 f0       	breq	.+2      	; 0x16a4 <BastetDictates+0x92>
    16a2:	4e c0       	rjmp	.+156    	; 0x1740 <BastetDictates+0x12e>
        uint8_t choice = 0;
        if ((buttonState & 0xf0)&&(buttonState < 0xff)) {
    16a4:	e0 91 07 38 	lds	r30, 0x3807	; 0x803807 <buttonState>
    16a8:	8e 2f       	mov	r24, r30
    16aa:	80 7f       	andi	r24, 0xF0	; 240
    16ac:	c9 f1       	breq	.+114    	; 0x1720 <BastetDictates+0x10e>
    16ae:	ef 3f       	cpi	r30, 0xFF	; 255
    16b0:	b9 f1       	breq	.+110    	; 0x1720 <BastetDictates+0x10e>
    16b2:	ef 70       	andi	r30, 0x0F	; 15
    16b4:	e1 50       	subi	r30, 0x01	; 1
    16b6:	e8 30       	cpi	r30, 0x08	; 8
    16b8:	98 f5       	brcc	.+102    	; 0x1720 <BastetDictates+0x10e>
    16ba:	f0 e0       	ldi	r31, 0x00	; 0
    16bc:	e2 5a       	subi	r30, 0xA2	; 162
    16be:	f8 44       	sbci	r31, 0x48	; 72
    16c0:	c0 81       	ld	r28, Z
                    break;
            }
        }

        //Button pressed
        if (choice > 0) {
    16c2:	cc 23       	and	r28, r28
    16c4:	69 f1       	breq	.+90     	; 0x1720 <BastetDictates+0x10e>
            gameNow = BASTET;
    16c6:	82 e0       	ldi	r24, 0x02	; 2
    16c8:	80 93 2f 38 	sts	0x382F, r24	; 0x80382f <gameNow>
            if (simonProcessed == 0) {
    16cc:	80 91 48 38 	lds	r24, 0x3848	; 0x803848 <simonProcessed>
    16d0:	81 11       	cpse	r24, r1
                simonTimer = 0;
    16d2:	43 c0       	rjmp	.+134    	; 0x175a <BastetDictates+0x148>
    16d4:	10 92 49 38 	sts	0x3849, r1	; 0x803849 <simonTimer>
                simonLed(choice);
    16d8:	8c 2f       	mov	r24, r28
    16da:	3b df       	rcall	.-394    	; 0x1552 <simonLed>
                // TODO something timer something 
                if (simonState[simonInputPos]+1 == choice) {
    16dc:	40 91 4b 38 	lds	r20, 0x384B	; 0x80384b <simonInputPos>
    16e0:	e4 2f       	mov	r30, r20
    16e2:	f0 e0       	ldi	r31, 0x00	; 0
    16e4:	e4 5b       	subi	r30, 0xB4	; 180
    16e6:	f7 4c       	sbci	r31, 0xC7	; 199
    16e8:	20 81       	ld	r18, Z
    16ea:	30 e0       	ldi	r19, 0x00	; 0
    16ec:	2f 5f       	subi	r18, 0xFF	; 255
    16ee:	3f 4f       	sbci	r19, 0xFF	; 255
    16f0:	8c 2f       	mov	r24, r28
    16f2:	90 e0       	ldi	r25, 0x00	; 0
    16f4:	28 17       	cp	r18, r24
    16f6:	39 07       	cpc	r19, r25
    16f8:	21 f4       	brne	.+8      	; 0x1702 <BastetDictates+0xf0>
                    // TODO correct sound
                    simonInputPos++;
    16fa:	4f 5f       	subi	r20, 0xFF	; 255
    16fc:	40 93 4b 38 	sts	0x384B, r20	; 0x80384b <simonInputPos>
    1700:	06 c0       	rjmp	.+12     	; 0x170e <BastetDictates+0xfc>
                } else {
                    // TODO fail sound
                    simonInputPos = 0;
    1702:	10 92 4b 38 	sts	0x384B, r1	; 0x80384b <simonInputPos>
                    gameNow = TEXT;
    1706:	10 92 2f 38 	sts	0x382F, r1	; 0x80382f <gameNow>
                    simonLed(0);
    170a:	80 e0       	ldi	r24, 0x00	; 0
                }

                if (simonInputPos == BASTET_LENGTH) {
    170c:	22 df       	rcall	.-444    	; 0x1552 <simonLed>
    170e:	80 91 4b 38 	lds	r24, 0x384B	; 0x80384b <simonInputPos>
    1712:	80 31       	cpi	r24, 0x10	; 16
                    // TODO win animu
                    UpdateState(BASTET_COMPLETED);
    1714:	a9 f4       	brne	.+42     	; 0x1740 <BastetDictates+0x12e>
    1716:	8a e7       	ldi	r24, 0x7A	; 122
    1718:	58 dd       	rcall	.-1360   	; 0x11ca <UpdateState>
                    gameNow = TEXT;
    171a:	10 92 2f 38 	sts	0x382F, r1	; 0x80382f <gameNow>
    171e:	10 c0       	rjmp	.+32     	; 0x1740 <BastetDictates+0x12e>
                }
            }
        
        //Button released, next or reset!
        } else {    
            if (simonInputPos == simonPos) {
    1720:	80 91 4b 38 	lds	r24, 0x384B	; 0x80384b <simonInputPos>
    1724:	90 91 26 38 	lds	r25, 0x3826	; 0x803826 <simonPos>
    1728:	89 13       	cpse	r24, r25
    172a:	08 c0       	rjmp	.+16     	; 0x173c <BastetDictates+0x12a>
                simonPos++;
    172c:	8f 5f       	subi	r24, 0xFF	; 255
    172e:	80 93 26 38 	sts	0x3826, r24	; 0x803826 <simonPos>
                simonInputPos = 0;
    1732:	10 92 4b 38 	sts	0x384B, r1	; 0x80384b <simonInputPos>
                simonGameState = BASTET_GAME_SHOW_PATTERN;
    1736:	83 e0       	ldi	r24, 0x03	; 3
    1738:	80 93 4a 38 	sts	0x384A, r24	; 0x80384a <simonGameState>
            }                    
            simonProcessed = 0;
    173c:	10 92 48 38 	sts	0x3848, r1	; 0x803848 <simonProcessed>
        }
    }

    if (BASTET_GAME_WAIT_LEDS == simonGameState) {
    1740:	80 91 4a 38 	lds	r24, 0x384A	; 0x80384a <simonGameState>
    1744:	84 30       	cpi	r24, 0x04	; 4
        if (simonTimer >= 7) {
    1746:	49 f4       	brne	.+18     	; 0x175a <BastetDictates+0x148>
    1748:	80 91 49 38 	lds	r24, 0x3849	; 0x803849 <simonTimer>
    174c:	87 30       	cpi	r24, 0x07	; 7
            // on to next state after .5 second
            simonLed(0);  // LEDs off
    174e:	28 f0       	brcs	.+10     	; 0x175a <BastetDictates+0x148>
    1750:	80 e0       	ldi	r24, 0x00	; 0
    1752:	ff de       	rcall	.-514    	; 0x1552 <simonLed>
            simonGameState = BASTET_GAME_INPUT;
    1754:	85 e0       	ldi	r24, 0x05	; 5
    1756:	80 93 4a 38 	sts	0x384A, r24	; 0x80384a <simonGameState>
        }
    }

    ++simonTimer;
    175a:	80 91 49 38 	lds	r24, 0x3849	; 0x803849 <simonTimer>
    175e:	8f 5f       	subi	r24, 0xFF	; 255
    1760:	80 93 49 38 	sts	0x3849, r24	; 0x803849 <simonTimer>
    return 0;
}
    1764:	80 e0       	ldi	r24, 0x00	; 0
    1766:	df 91       	pop	r29
    1768:	cf 91       	pop	r28
    176a:	08 95       	ret

0000176c <Cheat>:

//
void SetResponse(uint8_t number, uint16_t address, uint16_t length, uint8_t type){
    reactStr[0][number]=address;
    reactStr[1][number]=length;
    reactStr[2][number]=type;
    176c:	1f 93       	push	r17
    176e:	cf 93       	push	r28
    1770:	df 93       	push	r29
    1772:	cd b7       	in	r28, 0x3d	; 61
    1774:	de b7       	in	r29, 0x3e	; 62
    1776:	62 97       	sbiw	r28, 0x12	; 18
    1778:	cd bf       	out	0x3d, r28	; 61
    177a:	de bf       	out	0x3e, r29	; 62
    177c:	8a 8b       	std	Y+18, r24	; 0x12
    177e:	80 e1       	ldi	r24, 0x10	; 16
    1780:	e6 e0       	ldi	r30, 0x06	; 6
    1782:	f7 eb       	ldi	r31, 0xB7	; 183
    1784:	de 01       	movw	r26, r28
    1786:	11 96       	adiw	r26, 0x01	; 1
    1788:	01 90       	ld	r0, Z+
    178a:	0d 92       	st	X+, r0
    178c:	8a 95       	dec	r24
    178e:	e1 f7       	brne	.-8      	; 0x1788 <Cheat+0x1c>
    1790:	fe 01       	movw	r30, r28
    1792:	31 96       	adiw	r30, 0x01	; 1
    1794:	90 e0       	ldi	r25, 0x00	; 0
    1796:	8f ef       	ldi	r24, 0xFF	; 255
    1798:	21 91       	ld	r18, Z+
    179a:	31 91       	ld	r19, Z+
    179c:	26 17       	cp	r18, r22
    179e:	37 07       	cpc	r19, r23
    17a0:	09 f4       	brne	.+2      	; 0x17a4 <Cheat+0x38>
    17a2:	89 2f       	mov	r24, r25
    17a4:	9f 5f       	subi	r25, 0xFF	; 255
    17a6:	98 30       	cpi	r25, 0x08	; 8
    17a8:	b9 f7       	brne	.-18     	; 0x1798 <Cheat+0x2c>
    17aa:	88 30       	cpi	r24, 0x08	; 8
    17ac:	10 f0       	brcs	.+4      	; 0x17b2 <Cheat+0x46>
    17ae:	80 e0       	ldi	r24, 0x00	; 0
    17b0:	12 c0       	rjmp	.+36     	; 0x17d6 <Cheat+0x6a>
    17b2:	18 e1       	ldi	r17, 0x18	; 24
    17b4:	18 0f       	add	r17, r24
    17b6:	41 e0       	ldi	r20, 0x01	; 1
    17b8:	be 01       	movw	r22, r28
    17ba:	6f 5e       	subi	r22, 0xEF	; 239
    17bc:	7f 4f       	sbci	r23, 0xFF	; 255
    17be:	81 2f       	mov	r24, r17
    17c0:	0c db       	rcall	.-2536   	; 0xdda <EERead>
    17c2:	89 89       	ldd	r24, Y+17	; 0x11
    17c4:	8f 3f       	cpi	r24, 0xFF	; 255
    17c6:	99 f7       	brne	.-26     	; 0x17ae <Cheat+0x42>
    17c8:	41 e0       	ldi	r20, 0x01	; 1
    17ca:	be 01       	movw	r22, r28
    17cc:	6e 5e       	subi	r22, 0xEE	; 238
    17ce:	7f 4f       	sbci	r23, 0xFF	; 255
    17d0:	81 2f       	mov	r24, r17
    17d2:	13 db       	rcall	.-2522   	; 0xdfa <EEWrite>
    17d4:	81 e0       	ldi	r24, 0x01	; 1
    17d6:	62 96       	adiw	r28, 0x12	; 18
    17d8:	cd bf       	out	0x3d, r28	; 61
    17da:	de bf       	out	0x3e, r29	; 62
    17dc:	df 91       	pop	r29
    17de:	cf 91       	pop	r28
    17e0:	1f 91       	pop	r17
    17e2:	08 95       	ret

000017e4 <DecryptData>:
    17e4:	f9 01       	movw	r30, r18
    17e6:	9c 01       	movw	r18, r24
    17e8:	2e 1b       	sub	r18, r30
    17ea:	3f 0b       	sbc	r19, r31
    17ec:	88 e0       	ldi	r24, 0x08	; 8
    17ee:	48 9f       	mul	r20, r24
    17f0:	a0 01       	movw	r20, r0
    17f2:	11 24       	eor	r1, r1
    17f4:	48 52       	subi	r20, 0x28	; 40
    17f6:	58 44       	sbci	r21, 0x48	; 72
    17f8:	66 23       	and	r22, r22
    17fa:	69 f0       	breq	.+26     	; 0x1816 <DecryptData+0x32>
    17fc:	df 01       	movw	r26, r30
    17fe:	a2 0f       	add	r26, r18
    1800:	b3 1f       	adc	r27, r19
    1802:	a7 70       	andi	r26, 0x07	; 7
    1804:	bb 27       	eor	r27, r27
    1806:	a4 0f       	add	r26, r20
    1808:	b5 1f       	adc	r27, r21
    180a:	80 81       	ld	r24, Z
    180c:	9c 91       	ld	r25, X
    180e:	98 27       	eor	r25, r24
    1810:	91 93       	st	Z+, r25
    1812:	61 50       	subi	r22, 0x01	; 1
    1814:	f1 cf       	rjmp	.-30     	; 0x17f8 <DecryptData+0x14>
    1816:	08 95       	ret

00001818 <UnflipData>:
    1818:	26 2f       	mov	r18, r22
    181a:	fb 01       	movw	r30, r22
    181c:	35 e5       	ldi	r19, 0x55	; 85
    181e:	9e 2f       	mov	r25, r30
    1820:	92 1b       	sub	r25, r18
    1822:	98 17       	cp	r25, r24
    1824:	28 f4       	brcc	.+10     	; 0x1830 <UnflipData+0x18>
    1826:	90 81       	ld	r25, Z
    1828:	92 95       	swap	r25
    182a:	93 27       	eor	r25, r19
    182c:	91 93       	st	Z+, r25
    182e:	f7 cf       	rjmp	.-18     	; 0x181e <UnflipData+0x6>
    1830:	08 95       	ret

00001832 <ExtEERead>:
    1832:	af 92       	push	r10
    1834:	bf 92       	push	r11
    1836:	cf 92       	push	r12
    1838:	df 92       	push	r13
    183a:	ef 92       	push	r14
    183c:	ff 92       	push	r15
    183e:	0f 93       	push	r16
    1840:	1f 93       	push	r17
    1842:	cf 93       	push	r28
    1844:	df 93       	push	r29
    1846:	00 d0       	rcall	.+0      	; 0x1848 <ExtEERead+0x16>
    1848:	cd b7       	in	r28, 0x3d	; 61
    184a:	de b7       	in	r29, 0x3e	; 62
    184c:	d6 2e       	mov	r13, r22
    184e:	c4 2e       	mov	r12, r20
    1850:	59 01       	movw	r10, r18
    1852:	7c 01       	movw	r14, r24
    1854:	e8 94       	clt
    1856:	f7 f8       	bld	r15, 7
    1858:	f9 82       	std	Y+1, r15	; 0x01
    185a:	ea 82       	std	Y+2, r14	; 0x02
    185c:	06 2f       	mov	r16, r22
    185e:	42 e0       	ldi	r20, 0x02	; 2
    1860:	be 01       	movw	r22, r28
    1862:	6f 5f       	subi	r22, 0xFF	; 255
    1864:	7f 4f       	sbci	r23, 0xFF	; 255
    1866:	80 e5       	ldi	r24, 0x50	; 80
    1868:	0e 94 5a 01 	call	0x2b4	; 0x2b4 <I2C_read_bytes>
    186c:	18 2f       	mov	r17, r24
    186e:	81 11       	cpse	r24, r1
    1870:	05 c0       	rjmp	.+10     	; 0x187c <ExtEERead+0x4a>
    1872:	95 01       	movw	r18, r10
    1874:	4c 2d       	mov	r20, r12
    1876:	6d 2d       	mov	r22, r13
    1878:	c7 01       	movw	r24, r14
    187a:	b4 df       	rcall	.-152    	; 0x17e4 <DecryptData>
    187c:	81 2f       	mov	r24, r17
    187e:	0f 90       	pop	r0
    1880:	0f 90       	pop	r0
    1882:	df 91       	pop	r29
    1884:	cf 91       	pop	r28
    1886:	1f 91       	pop	r17
    1888:	0f 91       	pop	r16
    188a:	ff 90       	pop	r15
    188c:	ef 90       	pop	r14
    188e:	df 90       	pop	r13
    1890:	cf 90       	pop	r12
    1892:	bf 90       	pop	r11
    1894:	af 90       	pop	r10
    1896:	08 95       	ret

00001898 <ClearTxAfter>:
    1898:	8f 5f       	subi	r24, 0xFF	; 255
    189a:	88 30       	cpi	r24, 0x08	; 8
    189c:	30 f4       	brcc	.+12     	; 0x18aa <ClearTxAfter+0x12>
    189e:	e8 2f       	mov	r30, r24
    18a0:	f0 e0       	ldi	r31, 0x00	; 0
    18a2:	ec 5c       	subi	r30, 0xCC	; 204
    18a4:	f5 4c       	sbci	r31, 0xC5	; 197
    18a6:	10 82       	st	Z, r1
    18a8:	f7 cf       	rjmp	.-18     	; 0x1898 <ClearTxAfter>
    18aa:	08 95       	ret

000018ac <StartsWith>:
    18ac:	ac 01       	movw	r20, r24
    18ae:	90 e0       	ldi	r25, 0x00	; 0
    18b0:	e9 2f       	mov	r30, r25
    18b2:	f0 e0       	ldi	r31, 0x00	; 0
    18b4:	da 01       	movw	r26, r20
    18b6:	ae 0f       	add	r26, r30
    18b8:	bf 1f       	adc	r27, r31
    18ba:	3c 91       	ld	r19, X
    18bc:	e6 0f       	add	r30, r22
    18be:	f7 1f       	adc	r31, r23
    18c0:	31 11       	cpse	r19, r1
    18c2:	05 c0       	rjmp	.+10     	; 0x18ce <StartsWith+0x22>
    18c4:	81 e0       	ldi	r24, 0x01	; 1
    18c6:	90 81       	ld	r25, Z
    18c8:	99 23       	and	r25, r25
    18ca:	49 f0       	breq	.+18     	; 0x18de <StartsWith+0x32>
    18cc:	07 c0       	rjmp	.+14     	; 0x18dc <StartsWith+0x30>
    18ce:	20 81       	ld	r18, Z
    18d0:	22 23       	and	r18, r18
    18d2:	c1 f3       	breq	.-16     	; 0x18c4 <StartsWith+0x18>
    18d4:	32 13       	cpse	r19, r18
    18d6:	02 c0       	rjmp	.+4      	; 0x18dc <StartsWith+0x30>
    18d8:	9f 5f       	subi	r25, 0xFF	; 255
    18da:	ea cf       	rjmp	.-44     	; 0x18b0 <StartsWith+0x4>
    18dc:	80 e0       	ldi	r24, 0x00	; 0
    18de:	08 95       	ret

000018e0 <PrepareSending>:
    18e0:	61 15       	cp	r22, r1
    18e2:	71 05       	cpc	r23, r1
    18e4:	51 f1       	breq	.+84     	; 0x193a <PrepareSending+0x5a>
    18e6:	ec e3       	ldi	r30, 0x3C	; 60
    18e8:	fa e3       	ldi	r31, 0x3A	; 58
    18ea:	a4 e3       	ldi	r26, 0x34	; 52
    18ec:	ba e3       	ldi	r27, 0x3A	; 58
    18ee:	20 e0       	ldi	r18, 0x00	; 0
    18f0:	3f ef       	ldi	r19, 0xFF	; 255
    18f2:	6f 3f       	cpi	r22, 0xFF	; 255
    18f4:	71 05       	cpc	r23, r1
    18f6:	69 f0       	breq	.+26     	; 0x1912 <PrepareSending+0x32>
    18f8:	60 f0       	brcs	.+24     	; 0x1912 <PrepareSending+0x32>
    18fa:	81 93       	st	Z+, r24
    18fc:	91 93       	st	Z+, r25
    18fe:	3d 93       	st	X+, r19
    1900:	81 50       	subi	r24, 0x01	; 1
    1902:	9f 4f       	sbci	r25, 0xFF	; 255
    1904:	6f 5f       	subi	r22, 0xFF	; 255
    1906:	71 09       	sbc	r23, r1
    1908:	2f 5f       	subi	r18, 0xFF	; 255
    190a:	27 30       	cpi	r18, 0x07	; 7
    190c:	91 f7       	brne	.-28     	; 0x18f2 <PrepareSending+0x12>
    190e:	81 e0       	ldi	r24, 0x01	; 1
    1910:	08 95       	ret
    1912:	e2 2f       	mov	r30, r18
    1914:	f0 e0       	ldi	r31, 0x00	; 0
    1916:	df 01       	movw	r26, r30
    1918:	aa 0f       	add	r26, r26
    191a:	bb 1f       	adc	r27, r27
    191c:	a4 5c       	subi	r26, 0xC4	; 196
    191e:	b5 4c       	sbci	r27, 0xC5	; 197
    1920:	8d 93       	st	X+, r24
    1922:	9c 93       	st	X, r25
    1924:	ec 5c       	subi	r30, 0xCC	; 204
    1926:	f5 4c       	sbci	r31, 0xC5	; 197
    1928:	cb 01       	movw	r24, r22
    192a:	6f ef       	ldi	r22, 0xFF	; 255
    192c:	70 e0       	ldi	r23, 0x00	; 0
    192e:	0e 94 38 1b 	call	0x3670	; 0x3670 <__udivmodhi4>
    1932:	80 83       	st	Z, r24
    1934:	40 93 32 3a 	sts	0x3A32, r20	; 0x803a32 <txTypeNow>
    1938:	05 c0       	rjmp	.+10     	; 0x1944 <PrepareSending+0x64>
    193a:	10 92 3c 3a 	sts	0x3A3C, r1	; 0x803a3c <txAddrList>
    193e:	10 92 3d 3a 	sts	0x3A3D, r1	; 0x803a3d <txAddrList+0x1>
    1942:	20 e0       	ldi	r18, 0x00	; 0
    1944:	82 2f       	mov	r24, r18
    1946:	a8 df       	rcall	.-176    	; 0x1898 <ClearTxAfter>
    1948:	10 92 33 3a 	sts	0x3A33, r1	; 0x803a33 <txAddrNow>
    194c:	80 e0       	ldi	r24, 0x00	; 0
    194e:	08 95       	ret

00001950 <SetStandardResponse>:
}

//
uint8_t SetStandardResponse(uint8_t custStrEnd){
    1950:	cf 93       	push	r28
    1952:	df 93       	push	r29
    return 0;
}

//
void SetResponse(uint8_t number, uint16_t address, uint16_t length, uint8_t type){
    reactStr[0][number]=address;
    1954:	28 2f       	mov	r18, r24
    1956:	30 e0       	ldi	r19, 0x00	; 0
    1958:	f9 01       	movw	r30, r18
    195a:	ee 0f       	add	r30, r30
    195c:	ff 1f       	adc	r31, r31
    195e:	e9 5f       	subi	r30, 0xF9	; 249
    1960:	f6 4c       	sbci	r31, 0xC6	; 198
    1962:	ab e5       	ldi	r26, 0x5B	; 91
    1964:	ba e7       	ldi	r27, 0x7A	; 122
    1966:	a0 83       	st	Z, r26
    1968:	b1 83       	std	Z+1, r27	; 0x01
    reactStr[1][number]=length;
    196a:	f9 01       	movw	r30, r18
    196c:	ee 0f       	add	r30, r30
    196e:	ff 1f       	adc	r31, r31
    1970:	e9 5b       	subi	r30, 0xB9	; 185
    1972:	f6 4c       	sbci	r31, 0xC6	; 198
    1974:	62 e0       	ldi	r22, 0x02	; 2
    1976:	70 e0       	ldi	r23, 0x00	; 0
    1978:	60 83       	st	Z, r22
    197a:	71 83       	std	Z+1, r23	; 0x01
    reactStr[2][number]=type;
    197c:	22 0f       	add	r18, r18
    197e:	33 1f       	adc	r19, r19
    1980:	f9 01       	movw	r30, r18
    1982:	e9 57       	subi	r30, 0x79	; 121
    1984:	f6 4c       	sbci	r31, 0xC6	; 198
    1986:	41 e0       	ldi	r20, 0x01	; 1
    1988:	50 e0       	ldi	r21, 0x00	; 0
    198a:	40 83       	st	Z, r20
    198c:	51 83       	std	Z+1, r21	; 0x01
    return 0;
}

//
void SetResponse(uint8_t number, uint16_t address, uint16_t length, uint8_t type){
    reactStr[0][number]=address;
    198e:	21 e0       	ldi	r18, 0x01	; 1
    1990:	28 0f       	add	r18, r24
    1992:	30 e0       	ldi	r19, 0x00	; 0
    1994:	f9 01       	movw	r30, r18
    1996:	ee 0f       	add	r30, r30
    1998:	ff 1f       	adc	r31, r31
    199a:	e9 5f       	subi	r30, 0xF9	; 249
    199c:	f6 4c       	sbci	r31, 0xC6	; 198
    199e:	c4 e6       	ldi	r28, 0x64	; 100
    19a0:	da e7       	ldi	r29, 0x7A	; 122
    19a2:	c0 83       	st	Z, r28
    19a4:	d1 83       	std	Z+1, r29	; 0x01
    reactStr[1][number]=length;
    19a6:	f9 01       	movw	r30, r18
    19a8:	ee 0f       	add	r30, r30
    19aa:	ff 1f       	adc	r31, r31
    19ac:	e9 5b       	subi	r30, 0xB9	; 185
    19ae:	f6 4c       	sbci	r31, 0xC6	; 198
    19b0:	ca e0       	ldi	r28, 0x0A	; 10
    19b2:	d0 e0       	ldi	r29, 0x00	; 0
    19b4:	c0 83       	st	Z, r28
    19b6:	d1 83       	std	Z+1, r29	; 0x01
    reactStr[2][number]=type;
    19b8:	22 0f       	add	r18, r18
    19ba:	33 1f       	adc	r19, r19
    19bc:	f9 01       	movw	r30, r18
    19be:	e9 57       	subi	r30, 0x79	; 121
    19c0:	f6 4c       	sbci	r31, 0xC6	; 198
    19c2:	40 83       	st	Z, r20
    19c4:	51 83       	std	Z+1, r21	; 0x01
uint8_t SetStandardResponse(uint8_t custStrEnd){

    SetResponse(custStrEnd++, A_LF, 2, TEASER);
    SetResponse(custStrEnd++, A_LOCATION, L_LOCATION, TEASER);
    //SetResponse(custStrEnd++, A_SPACE, L_SPACE, TEASER);
    reactStr[0][custStrEnd++] = CURR_LOC;
    19c6:	e2 e0       	ldi	r30, 0x02	; 2
    19c8:	e8 0f       	add	r30, r24
    19ca:	f0 e0       	ldi	r31, 0x00	; 0
    19cc:	ee 0f       	add	r30, r30
    19ce:	ff 1f       	adc	r31, r31
    19d0:	e9 5f       	subi	r30, 0xF9	; 249
    19d2:	f6 4c       	sbci	r31, 0xC6	; 198
    19d4:	20 ef       	ldi	r18, 0xF0	; 240
    19d6:	3f ef       	ldi	r19, 0xFF	; 255
    19d8:	20 83       	st	Z, r18
    19da:	31 83       	std	Z+1, r19	; 0x01
    return 0;
}

//
void SetResponse(uint8_t number, uint16_t address, uint16_t length, uint8_t type){
    reactStr[0][number]=address;
    19dc:	23 e0       	ldi	r18, 0x03	; 3
    19de:	28 0f       	add	r18, r24
    19e0:	30 e0       	ldi	r19, 0x00	; 0
    19e2:	f9 01       	movw	r30, r18
    19e4:	ee 0f       	add	r30, r30
    19e6:	ff 1f       	adc	r31, r31
    19e8:	e9 5f       	subi	r30, 0xF9	; 249
    19ea:	f6 4c       	sbci	r31, 0xC6	; 198
    19ec:	a0 83       	st	Z, r26
    19ee:	b1 83       	std	Z+1, r27	; 0x01
    reactStr[1][number]=length;
    19f0:	f9 01       	movw	r30, r18
    19f2:	ee 0f       	add	r30, r30
    19f4:	ff 1f       	adc	r31, r31
    19f6:	e9 5b       	subi	r30, 0xB9	; 185
    19f8:	f6 4c       	sbci	r31, 0xC6	; 198
    19fa:	60 83       	st	Z, r22
    19fc:	71 83       	std	Z+1, r23	; 0x01
    reactStr[2][number]=type;
    19fe:	22 0f       	add	r18, r18
    1a00:	33 1f       	adc	r19, r19
    1a02:	f9 01       	movw	r30, r18
    1a04:	e9 57       	subi	r30, 0x79	; 121
    1a06:	f6 4c       	sbci	r31, 0xC6	; 198
    1a08:	40 83       	st	Z, r20
    1a0a:	51 83       	std	Z+1, r21	; 0x01
    return 0;
}

//
void SetResponse(uint8_t number, uint16_t address, uint16_t length, uint8_t type){
    reactStr[0][number]=address;
    1a0c:	24 e0       	ldi	r18, 0x04	; 4
    1a0e:	28 0f       	add	r18, r24
    1a10:	30 e0       	ldi	r19, 0x00	; 0
    1a12:	f9 01       	movw	r30, r18
    1a14:	ee 0f       	add	r30, r30
    1a16:	ff 1f       	adc	r31, r31
    1a18:	e9 5f       	subi	r30, 0xF9	; 249
    1a1a:	f6 4c       	sbci	r31, 0xC6	; 198
    1a1c:	a7 e5       	ldi	r26, 0x57	; 87
    1a1e:	ba e7       	ldi	r27, 0x7A	; 122
    1a20:	a0 83       	st	Z, r26
    1a22:	b1 83       	std	Z+1, r27	; 0x01
    reactStr[1][number]=length;
    1a24:	f9 01       	movw	r30, r18
    1a26:	ee 0f       	add	r30, r30
    1a28:	ff 1f       	adc	r31, r31
    1a2a:	e9 5b       	subi	r30, 0xB9	; 185
    1a2c:	f6 4c       	sbci	r31, 0xC6	; 198
    1a2e:	60 83       	st	Z, r22
    1a30:	71 83       	std	Z+1, r23	; 0x01
    reactStr[2][number]=type;
    1a32:	22 0f       	add	r18, r18
    1a34:	33 1f       	adc	r19, r19
    1a36:	f9 01       	movw	r30, r18
    1a38:	e9 57       	subi	r30, 0x79	; 121
    1a3a:	f6 4c       	sbci	r31, 0xC6	; 198
    1a3c:	40 83       	st	Z, r20
    1a3e:	51 83       	std	Z+1, r21	; 0x01
    SetResponse(custStrEnd++, A_LF, 2, TEASER);
    SetResponse(custStrEnd++, A_PROMPT, L_PROMPT, TEASER);
    //SetResponse(custStrEnd++, A_SPACE, L_SPACE, TEASER);

    return custStrEnd;
}
    1a40:	8b 5f       	subi	r24, 0xFB	; 251
    1a42:	df 91       	pop	r29
    1a44:	cf 91       	pop	r28
    1a46:	08 95       	ret

00001a48 <PopulateObject>:

//Get all the relevant data and string addresses of an object
void PopulateObject(uint16_t offset, object_model_t *object){
    1a48:	af 92       	push	r10
    1a4a:	bf 92       	push	r11
    1a4c:	df 92       	push	r13
    1a4e:	ef 92       	push	r14
    1a50:	ff 92       	push	r15
    1a52:	0f 93       	push	r16
    1a54:	1f 93       	push	r17
    1a56:	cf 93       	push	r28
    1a58:	df 93       	push	r29
    1a5a:	cd b7       	in	r28, 0x3d	; 61
    1a5c:	de b7       	in	r29, 0x3e	; 62
    1a5e:	2c 97       	sbiw	r28, 0x0c	; 12
    1a60:	cd bf       	out	0x3d, r28	; 61
    1a62:	de bf       	out	0x3e, r29	; 62
    1a64:	7c 01       	movw	r14, r24
    1a66:	8b 01       	movw	r16, r22
    uint16_t parStr;
    offset += L_BOILER;

    //Fill things with fixed distance to offset
    uint8_t data[OFF_STRINGFLDS];
    ExtEERead(offset, OFF_STRINGFLDS, GAME, &data[0]);
    1a68:	9e 01       	movw	r18, r28
    1a6a:	2f 5f       	subi	r18, 0xFF	; 255
    1a6c:	3f 4f       	sbci	r19, 0xFF	; 255
    1a6e:	40 e0       	ldi	r20, 0x00	; 0
    1a70:	6c e0       	ldi	r22, 0x0C	; 12
    1a72:	80 96       	adiw	r24, 0x20	; 32
    1a74:	de de       	rcall	.-580    	; 0x1832 <ExtEERead>
    object->addrNextObj = (data[OFF_NEXTOBJ]<<8|data[OFF_NEXTOBJ+1])+L_BOILER;
    1a76:	89 81       	ldd	r24, Y+1	; 0x01
    1a78:	9a 81       	ldd	r25, Y+2	; 0x02
    1a7a:	98 27       	eor	r25, r24
    1a7c:	89 27       	eor	r24, r25
    1a7e:	98 27       	eor	r25, r24
    1a80:	80 96       	adiw	r24, 0x20	; 32
    1a82:	f8 01       	movw	r30, r16
    1a84:	80 83       	st	Z, r24
    1a86:	91 83       	std	Z+1, r25	; 0x01
    object->addrNextLvl = (data[OFF_NEXTLVL]<<8|data[OFF_NEXTLVL+1])+L_BOILER;
    1a88:	8b 81       	ldd	r24, Y+3	; 0x03
    1a8a:	9c 81       	ldd	r25, Y+4	; 0x04
    1a8c:	98 27       	eor	r25, r24
    1a8e:	89 27       	eor	r24, r25
    1a90:	98 27       	eor	r25, r24
    1a92:	80 96       	adiw	r24, 0x20	; 32
    1a94:	82 83       	std	Z+2, r24	; 0x02
    1a96:	93 83       	std	Z+3, r25	; 0x03
    1a98:	de 01       	movw	r26, r28
    1a9a:	15 96       	adiw	r26, 0x05	; 5
    1a9c:	34 96       	adiw	r30, 0x04	; 4
    1a9e:	c8 01       	movw	r24, r16
    1aa0:	0c 96       	adiw	r24, 0x0c	; 12
    for (uint8_t x=0; x<BYTE_FIELDS_LEN; ++x){
        object->byteField[x]=data[x+OFF_BYTEFLDS];
    1aa2:	2d 91       	ld	r18, X+
    1aa4:	21 93       	st	Z+, r18
    //Fill things with fixed distance to offset
    uint8_t data[OFF_STRINGFLDS];
    ExtEERead(offset, OFF_STRINGFLDS, GAME, &data[0]);
    object->addrNextObj = (data[OFF_NEXTOBJ]<<8|data[OFF_NEXTOBJ+1])+L_BOILER;
    object->addrNextLvl = (data[OFF_NEXTLVL]<<8|data[OFF_NEXTLVL+1])+L_BOILER;
    for (uint8_t x=0; x<BYTE_FIELDS_LEN; ++x){
    1aa6:	e8 17       	cp	r30, r24
    1aa8:	f9 07       	cpc	r31, r25
    1aaa:	d9 f7       	brne	.-10     	; 0x1aa2 <PopulateObject+0x5a>
        object->byteField[x]=data[x+OFF_BYTEFLDS];
    }

    //Find out where all of the strings begin and how long they are
    offset += OFF_STRINGFLDS;
    1aac:	fc e2       	ldi	r31, 0x2C	; 44
    1aae:	ef 0e       	add	r14, r31
    1ab0:	f1 1c       	adc	r15, r1
    1ab2:	58 01       	movw	r10, r16
    for(uint8_t x=0; x<STRING_FIELDS_LEN; ++x){
    1ab4:	d1 2c       	mov	r13, r1
        
        //Determine length
        ExtEERead(offset, 3, GAME, &data[0]);
    1ab6:	9e 01       	movw	r18, r28
    1ab8:	2f 5f       	subi	r18, 0xFF	; 255
    1aba:	3f 4f       	sbci	r19, 0xFF	; 255
    1abc:	40 e0       	ldi	r20, 0x00	; 0
    1abe:	63 e0       	ldi	r22, 0x03	; 3
    1ac0:	c7 01       	movw	r24, r14
    1ac2:	b7 de       	rcall	.-658    	; 0x1832 <ExtEERead>
    1ac4:	89 81       	ldd	r24, Y+1	; 0x01
    1ac6:	9a 81       	ldd	r25, Y+2	; 0x02
    1ac8:	98 27       	eor	r25, r24
    1aca:	89 27       	eor	r24, r25
    1acc:	98 27       	eor	r25, r24
        parStr = (data[0]<<8|data[1]);
        offset += 2;
    1ace:	97 01       	movw	r18, r14
    1ad0:	2e 5f       	subi	r18, 0xFE	; 254
    1ad2:	3f 4f       	sbci	r19, 0xFF	; 255
        if (x >= OPEN_ACL_MSG){
    1ad4:	43 e0       	ldi	r20, 0x03	; 3
    1ad6:	4d 15       	cp	r20, r13
    1ad8:	80 f4       	brcc	.+32     	; 0x1afa <PopulateObject+0xb2>
            object->lenStr[x]= parStr-1;
    1ada:	ac 01       	movw	r20, r24
    1adc:	41 50       	subi	r20, 0x01	; 1
    1ade:	51 09       	sbc	r21, r1
    1ae0:	f8 01       	movw	r30, r16
    1ae2:	42 8f       	std	Z+26, r20	; 0x1a
    1ae4:	53 8f       	std	Z+27, r21	; 0x1b
            object->addrStr[x]=offset+1;
    1ae6:	f3 e0       	ldi	r31, 0x03	; 3
    1ae8:	ef 0e       	add	r14, r31
    1aea:	f1 1c       	adc	r15, r1
    1aec:	f8 01       	movw	r30, r16
    1aee:	e4 86       	std	Z+12, r14	; 0x0c
    1af0:	f5 86       	std	Z+13, r15	; 0x0d
            object->effect[x-OPEN_ACL_MSG] = data[2];
    1af2:	4b 81       	ldd	r20, Y+3	; 0x03
    1af4:	f5 01       	movw	r30, r10
    1af6:	44 a3       	std	Z+36, r20	; 0x24
    1af8:	05 c0       	rjmp	.+10     	; 0x1b04 <PopulateObject+0xbc>
        } else {
            object->lenStr[x]= parStr;
    1afa:	f8 01       	movw	r30, r16
    1afc:	82 8f       	std	Z+26, r24	; 0x1a
    1afe:	93 8f       	std	Z+27, r25	; 0x1b
            object->addrStr[x]=offset;
    1b00:	24 87       	std	Z+12, r18	; 0x0c
    1b02:	35 87       	std	Z+13, r19	; 0x0d
        }
        
        //Determine string start location for next field
        offset += parStr;
    1b04:	7c 01       	movw	r14, r24
    1b06:	e2 0e       	add	r14, r18
    1b08:	f3 1e       	adc	r15, r19
        object->byteField[x]=data[x+OFF_BYTEFLDS];
    }

    //Find out where all of the strings begin and how long they are
    offset += OFF_STRINGFLDS;
    for(uint8_t x=0; x<STRING_FIELDS_LEN; ++x){
    1b0a:	d3 94       	inc	r13
    1b0c:	0e 5f       	subi	r16, 0xFE	; 254
    1b0e:	1f 4f       	sbci	r17, 0xFF	; 255
    1b10:	ff ef       	ldi	r31, 0xFF	; 255
    1b12:	af 1a       	sub	r10, r31
    1b14:	bf 0a       	sbc	r11, r31
    1b16:	47 e0       	ldi	r20, 0x07	; 7
    1b18:	d4 12       	cpse	r13, r20
    1b1a:	cd cf       	rjmp	.-102    	; 0x1ab6 <PopulateObject+0x6e>
        }
        
        //Determine string start location for next field
        offset += parStr;
    }    
}
    1b1c:	2c 96       	adiw	r28, 0x0c	; 12
    1b1e:	cd bf       	out	0x3d, r28	; 61
    1b20:	de bf       	out	0x3e, r29	; 62
    1b22:	df 91       	pop	r29
    1b24:	cf 91       	pop	r28
    1b26:	1f 91       	pop	r17
    1b28:	0f 91       	pop	r16
    1b2a:	ff 90       	pop	r15
    1b2c:	ef 90       	pop	r14
    1b2e:	df 90       	pop	r13
    1b30:	bf 90       	pop	r11
    1b32:	af 90       	pop	r10
    1b34:	08 95       	ret

00001b36 <CheckLetter>:

//Check if the entered letter corresponds with a name
uint8_t CheckLetter(uint16_t object, uint8_t letter){
    1b36:	cf 92       	push	r12
    1b38:	df 92       	push	r13
    1b3a:	ef 92       	push	r14
    1b3c:	ff 92       	push	r15
    1b3e:	0f 93       	push	r16
    1b40:	1f 93       	push	r17
    1b42:	cf 93       	push	r28
    1b44:	df 93       	push	r29
    1b46:	cd b7       	in	r28, 0x3d	; 61
    1b48:	de b7       	in	r29, 0x3e	; 62
    1b4a:	a0 97       	sbiw	r28, 0x20	; 32
    1b4c:	cd bf       	out	0x3d, r28	; 61
    1b4e:	de bf       	out	0x3e, r29	; 62
    1b50:	c6 2e       	mov	r12, r22
    
    uint8_t found = 0;
    uint8_t data[32];

    object += L_BOILER;
    1b52:	7c 01       	movw	r14, r24
    1b54:	20 e2       	ldi	r18, 0x20	; 32
    1b56:	e2 0e       	add	r14, r18
    1b58:	f1 1c       	adc	r15, r1
    ExtEERead(object+OFF_STRINGFLDS, 2, GAME, &data[0]);
    1b5a:	9e 01       	movw	r18, r28
    1b5c:	2f 5f       	subi	r18, 0xFF	; 255
    1b5e:	3f 4f       	sbci	r19, 0xFF	; 255
    1b60:	40 e0       	ldi	r20, 0x00	; 0
    1b62:	62 e0       	ldi	r22, 0x02	; 2
    1b64:	8c 96       	adiw	r24, 0x2c	; 44
    1b66:	65 de       	rcall	.-822    	; 0x1832 <ExtEERead>
    uint8_t x = data[1]; //Assuming a name is not longer than 255 characters.
    1b68:	1a 81       	ldd	r17, Y+2	; 0x02
}

//Check if the entered letter corresponds with a name
uint8_t CheckLetter(uint16_t object, uint8_t letter){
    
    uint8_t found = 0;
    1b6a:	d1 2c       	mov	r13, r1

    object += L_BOILER;
    ExtEERead(object+OFF_STRINGFLDS, 2, GAME, &data[0]);
    uint8_t x = data[1]; //Assuming a name is not longer than 255 characters.

    while (x){
    1b6c:	11 23       	and	r17, r17
    1b6e:	51 f1       	breq	.+84     	; 0x1bc4 <CheckLetter+0x8e>
    1b70:	01 2f       	mov	r16, r17
    1b72:	11 32       	cpi	r17, 0x21	; 33
    1b74:	08 f0       	brcs	.+2      	; 0x1b78 <CheckLetter+0x42>
    1b76:	00 e2       	ldi	r16, 0x20	; 32
        uint8_t max;
        if (x>32) max = 32; else max = x;
        ExtEERead(object+OFF_STRINGFLDS+2, max, GAME, &data[0]);
    1b78:	9e 01       	movw	r18, r28
    1b7a:	2f 5f       	subi	r18, 0xFF	; 255
    1b7c:	3f 4f       	sbci	r19, 0xFF	; 255
    1b7e:	40 e0       	ldi	r20, 0x00	; 0
    1b80:	60 2f       	mov	r22, r16
    1b82:	c7 01       	movw	r24, r14
    1b84:	0e 96       	adiw	r24, 0x0e	; 14
    1b86:	55 de       	rcall	.-854    	; 0x1832 <ExtEERead>
    1b88:	fe 01       	movw	r30, r28
    1b8a:	31 96       	adiw	r30, 0x01	; 1
        for (uint8_t y=0; y<max; ++y){
    1b8c:	80 e0       	ldi	r24, 0x00	; 0
            if (found){
    1b8e:	dd 20       	and	r13, r13
    1b90:	61 f0       	breq	.+24     	; 0x1baa <CheckLetter+0x74>
                if ((data[y]|0x20) == letter) return 1; else return 0;
    1b92:	e1 e0       	ldi	r30, 0x01	; 1
    1b94:	f0 e0       	ldi	r31, 0x00	; 0
    1b96:	ec 0f       	add	r30, r28
    1b98:	fd 1f       	adc	r31, r29
    1b9a:	e8 0f       	add	r30, r24
    1b9c:	f1 1d       	adc	r31, r1
    1b9e:	90 81       	ld	r25, Z
    1ba0:	90 62       	ori	r25, 0x20	; 32
    1ba2:	81 e0       	ldi	r24, 0x01	; 1
    1ba4:	9c 11       	cpse	r25, r12
    1ba6:	0e c0       	rjmp	.+28     	; 0x1bc4 <CheckLetter+0x8e>
    1ba8:	0e c0       	rjmp	.+28     	; 0x1bc6 <CheckLetter+0x90>
            }
            if (data[y] == '[') found = 1;
    1baa:	91 91       	ld	r25, Z+
    1bac:	dd 24       	eor	r13, r13
    1bae:	d3 94       	inc	r13
    1bb0:	9b 35       	cpi	r25, 0x5B	; 91
    1bb2:	09 f0       	breq	.+2      	; 0x1bb6 <CheckLetter+0x80>
    1bb4:	d1 2c       	mov	r13, r1

    while (x){
        uint8_t max;
        if (x>32) max = 32; else max = x;
        ExtEERead(object+OFF_STRINGFLDS+2, max, GAME, &data[0]);
        for (uint8_t y=0; y<max; ++y){
    1bb6:	8f 5f       	subi	r24, 0xFF	; 255
    1bb8:	80 17       	cp	r24, r16
    1bba:	48 f3       	brcs	.-46     	; 0x1b8e <CheckLetter+0x58>
            if (found){
                if ((data[y]|0x20) == letter) return 1; else return 0;
            }
            if (data[y] == '[') found = 1;
        }
        object += max;
    1bbc:	e0 0e       	add	r14, r16
    1bbe:	f1 1c       	adc	r15, r1
        x -= max;
    1bc0:	10 1b       	sub	r17, r16
    1bc2:	d4 cf       	rjmp	.-88     	; 0x1b6c <CheckLetter+0x36>
    }
    return 0;
    1bc4:	80 e0       	ldi	r24, 0x00	; 0
}
    1bc6:	a0 96       	adiw	r28, 0x20	; 32
    1bc8:	cd bf       	out	0x3d, r28	; 61
    1bca:	de bf       	out	0x3e, r29	; 62
    1bcc:	df 91       	pop	r29
    1bce:	cf 91       	pop	r28
    1bd0:	1f 91       	pop	r17
    1bd2:	0f 91       	pop	r16
    1bd4:	ff 90       	pop	r15
    1bd6:	ef 90       	pop	r14
    1bd8:	df 90       	pop	r13
    1bda:	cf 90       	pop	r12
    1bdc:	08 95       	ret

00001bde <FindChild>:

//Returns the child's address if the child is visible and the search letter matches
uint16_t FindChild(uint16_t parent, uint8_t letter, uint16_t start){
    1bde:	af 92       	push	r10
    1be0:	bf 92       	push	r11
    1be2:	df 92       	push	r13
    1be4:	ef 92       	push	r14
    1be6:	ff 92       	push	r15
    1be8:	0f 93       	push	r16
    1bea:	1f 93       	push	r17
    1bec:	cf 93       	push	r28
    1bee:	df 93       	push	r29
    1bf0:	00 d0       	rcall	.+0      	; 0x1bf2 <FindChild+0x14>
    1bf2:	00 d0       	rcall	.+0      	; 0x1bf4 <FindChild+0x16>
    1bf4:	cd b7       	in	r28, 0x3d	; 61
    1bf6:	de b7       	in	r29, 0x3e	; 62
    1bf8:	d6 2e       	mov	r13, r22
    1bfa:	5a 01       	movw	r10, r20
    
    uint16_t child = parent;
    uint8_t data[4];

    ExtEERead(child+L_BOILER, 4, GAME, &data[0]);
    1bfc:	9e 01       	movw	r18, r28
    1bfe:	2f 5f       	subi	r18, 0xFF	; 255
    1c00:	3f 4f       	sbci	r19, 0xFF	; 255
    1c02:	40 e0       	ldi	r20, 0x00	; 0
    1c04:	64 e0       	ldi	r22, 0x04	; 4
    1c06:	80 96       	adiw	r24, 0x20	; 32
    1c08:	14 de       	rcall	.-984    	; 0x1832 <ExtEERead>
    1c0a:	e9 80       	ldd	r14, Y+1	; 0x01
    1c0c:	fa 80       	ldd	r15, Y+2	; 0x02
    1c0e:	fe 24       	eor	r15, r14
    1c10:	ef 24       	eor	r14, r15
    1c12:	fe 24       	eor	r15, r14
    1c14:	0b 81       	ldd	r16, Y+3	; 0x03
    1c16:	1c 81       	ldd	r17, Y+4	; 0x04
    1c18:	10 27       	eor	r17, r16
    1c1a:	01 27       	eor	r16, r17
    1c1c:	10 27       	eor	r17, r16
    parent = (data[0]<<8|data[1]);    //Next object on parent level
    child =  (data[2]<<8|data[3]);    //First object on child level

    //As long as the child is within the parent's range
    while (parent>child){
    1c1e:	0e 15       	cp	r16, r14
    1c20:	1f 05       	cpc	r17, r15
    1c22:	30 f5       	brcc	.+76     	; 0x1c70 <FindChild+0x92>

        //If child's address is higher than the start address, perform search for letter
        if (child>start){
    1c24:	a0 16       	cp	r10, r16
    1c26:	b1 06       	cpc	r11, r17
    1c28:	58 f0       	brcs	.+22     	; 0x1c40 <FindChild+0x62>
                if ((letter == 0)||(CheckLetter(child, letter))) return child;
            }
        }

        //Not visible or name not right
        ExtEERead(child+L_BOILER, 2, GAME, &data[0]);
    1c2a:	9e 01       	movw	r18, r28
    1c2c:	2f 5f       	subi	r18, 0xFF	; 255
    1c2e:	3f 4f       	sbci	r19, 0xFF	; 255
    1c30:	40 e0       	ldi	r20, 0x00	; 0
    1c32:	62 e0       	ldi	r22, 0x02	; 2
    1c34:	c8 01       	movw	r24, r16
    1c36:	80 96       	adiw	r24, 0x20	; 32
    1c38:	fc dd       	rcall	.-1032   	; 0x1832 <ExtEERead>
    1c3a:	09 81       	ldd	r16, Y+1	; 0x01
    1c3c:	1a 81       	ldd	r17, Y+2	; 0x02
    1c3e:	ec cf       	rjmp	.-40     	; 0x1c18 <FindChild+0x3a>
    //As long as the child is within the parent's range
    while (parent>child){

        //If child's address is higher than the start address, perform search for letter
        if (child>start){
            ExtEERead(child+OFF_BYTEFLDS+VISIBLE_ACL+L_BOILER, 1, GAME, &data[0]);
    1c40:	9e 01       	movw	r18, r28
    1c42:	2f 5f       	subi	r18, 0xFF	; 255
    1c44:	3f 4f       	sbci	r19, 0xFF	; 255
    1c46:	40 e0       	ldi	r20, 0x00	; 0
    1c48:	61 e0       	ldi	r22, 0x01	; 1
    1c4a:	c8 01       	movw	r24, r16
    1c4c:	85 96       	adiw	r24, 0x25	; 37
    1c4e:	f1 dd       	rcall	.-1054   	; 0x1832 <ExtEERead>
            if ((data[0] == 0)||(CheckState(data[0]))) {
    1c50:	89 81       	ldd	r24, Y+1	; 0x01
    1c52:	81 11       	cpse	r24, r1
    1c54:	03 c0       	rjmp	.+6      	; 0x1c5c <FindChild+0x7e>
                if ((letter == 0)||(CheckLetter(child, letter))) return child;
    1c56:	d1 10       	cpse	r13, r1
    1c58:	05 c0       	rjmp	.+10     	; 0x1c64 <FindChild+0x86>
    while (parent>child){

        //If child's address is higher than the start address, perform search for letter
        if (child>start){
            ExtEERead(child+OFF_BYTEFLDS+VISIBLE_ACL+L_BOILER, 1, GAME, &data[0]);
            if ((data[0] == 0)||(CheckState(data[0]))) {
    1c5a:	0d c0       	rjmp	.+26     	; 0x1c76 <FindChild+0x98>
    1c5c:	c0 da       	rcall	.-2688   	; 0x11de <CheckState>
    1c5e:	81 11       	cpse	r24, r1
    1c60:	fa cf       	rjmp	.-12     	; 0x1c56 <FindChild+0x78>
                if ((letter == 0)||(CheckLetter(child, letter))) return child;
    1c62:	e3 cf       	rjmp	.-58     	; 0x1c2a <FindChild+0x4c>
    1c64:	6d 2d       	mov	r22, r13
    1c66:	c8 01       	movw	r24, r16
    1c68:	66 df       	rcall	.-308    	; 0x1b36 <CheckLetter>
    1c6a:	88 23       	and	r24, r24
    1c6c:	f1 f2       	breq	.-68     	; 0x1c2a <FindChild+0x4c>
    1c6e:	03 c0       	rjmp	.+6      	; 0x1c76 <FindChild+0x98>

        //Not visible or name not right
        ExtEERead(child+L_BOILER, 2, GAME, &data[0]);
        child = (data[0]<<8|data[1]);    //Next object on child level
        
    } return 0;
    1c70:	80 e0       	ldi	r24, 0x00	; 0
    1c72:	90 e0       	ldi	r25, 0x00	; 0
    1c74:	01 c0       	rjmp	.+2      	; 0x1c78 <FindChild+0x9a>
    1c76:	c8 01       	movw	r24, r16
}
    1c78:	24 96       	adiw	r28, 0x04	; 4
    1c7a:	cd bf       	out	0x3d, r28	; 61
    1c7c:	de bf       	out	0x3e, r29	; 62
    1c7e:	df 91       	pop	r29
    1c80:	cf 91       	pop	r28
    1c82:	1f 91       	pop	r17
    1c84:	0f 91       	pop	r16
    1c86:	ff 90       	pop	r15
    1c88:	ef 90       	pop	r14
    1c8a:	df 90       	pop	r13
    1c8c:	bf 90       	pop	r11
    1c8e:	af 90       	pop	r10
    1c90:	08 95       	ret

00001c92 <InpOkChk>:

//Allow only a(A) to z(Z) and 0 to 9 as input
uint8_t InpOkChk(uint8_t test){
    test |= 0x20;
    1c92:	80 62       	ori	r24, 0x20	; 32
    if ((test>='a')&&(test<='z')) return 1;
    1c94:	9f e9       	ldi	r25, 0x9F	; 159
    1c96:	98 0f       	add	r25, r24
    1c98:	9a 31       	cpi	r25, 0x1A	; 26
    1c9a:	38 f0       	brcs	.+14     	; 0x1caa <InpOkChk+0x18>
    1c9c:	90 ed       	ldi	r25, 0xD0	; 208
    1c9e:	98 0f       	add	r25, r24
    1ca0:	81 e0       	ldi	r24, 0x01	; 1
    1ca2:	9a 30       	cpi	r25, 0x0A	; 10
    1ca4:	18 f0       	brcs	.+6      	; 0x1cac <InpOkChk+0x1a>
    1ca6:	80 e0       	ldi	r24, 0x00	; 0
    1ca8:	08 95       	ret
    1caa:	81 e0       	ldi	r24, 0x01	; 1
    if ((test>='0')&&(test<='9')) return 1;
    return 0;
}
    1cac:	08 95       	ret

00001cae <CleanInput>:

//Cleans input of garbage and returns length of cleaned input "o->d2  !\0" becomes "od2\0"
uint8_t CleanInput(uint8_t *data){
    1cae:	0f 93       	push	r16
    1cb0:	1f 93       	push	r17
    1cb2:	cf 93       	push	r28
    1cb4:	df 93       	push	r29
    1cb6:	8c 01       	movw	r16, r24
    uint8_t cnt = 0;
    for (uint8_t x=0; data[x]!=0; ++x){
    1cb8:	d0 e0       	ldi	r29, 0x00	; 0
    return 0;
}

//Cleans input of garbage and returns length of cleaned input "o->d2  !\0" becomes "od2\0"
uint8_t CleanInput(uint8_t *data){
    uint8_t cnt = 0;
    1cba:	c0 e0       	ldi	r28, 0x00	; 0
    for (uint8_t x=0; data[x]!=0; ++x){
    1cbc:	f8 01       	movw	r30, r16
    1cbe:	ed 0f       	add	r30, r29
    1cc0:	f1 1d       	adc	r31, r1
    1cc2:	20 81       	ld	r18, Z
    1cc4:	8c 2f       	mov	r24, r28
    1cc6:	90 e0       	ldi	r25, 0x00	; 0
    1cc8:	22 23       	and	r18, r18
    1cca:	51 f0       	breq	.+20     	; 0x1ce0 <CleanInput+0x32>
        data[cnt] = data[x];
    1ccc:	d8 01       	movw	r26, r16
    1cce:	a8 0f       	add	r26, r24
    1cd0:	b9 1f       	adc	r27, r25
    1cd2:	2c 93       	st	X, r18
        if (InpOkChk(data[x])) ++cnt;
    1cd4:	80 81       	ld	r24, Z
    1cd6:	dd df       	rcall	.-70     	; 0x1c92 <InpOkChk>
    1cd8:	81 11       	cpse	r24, r1
    1cda:	cf 5f       	subi	r28, 0xFF	; 255
}

//Cleans input of garbage and returns length of cleaned input "o->d2  !\0" becomes "od2\0"
uint8_t CleanInput(uint8_t *data){
    uint8_t cnt = 0;
    for (uint8_t x=0; data[x]!=0; ++x){
    1cdc:	df 5f       	subi	r29, 0xFF	; 255
    1cde:	ee cf       	rjmp	.-36     	; 0x1cbc <CleanInput+0xe>
        data[cnt] = data[x];
        if (InpOkChk(data[x])) ++cnt;
    }
    data[cnt] = 0;
    1ce0:	f8 01       	movw	r30, r16
    1ce2:	e8 0f       	add	r30, r24
    1ce4:	f9 1f       	adc	r31, r25
    1ce6:	10 82       	st	Z, r1
    return cnt;
}
    1ce8:	8c 2f       	mov	r24, r28
    1cea:	df 91       	pop	r29
    1cec:	cf 91       	pop	r28
    1cee:	1f 91       	pop	r17
    1cf0:	0f 91       	pop	r16
    1cf2:	08 95       	ret

00001cf4 <CheckSend>:

//Send routine, optimized for low memory usage
uint8_t CheckSend(){
    1cf4:	cf 93       	push	r28
    static uint8_t txPart;
    uint8_t EEreadLength=0;

    //Play effects if available and not already playing
    if (effect == 0){
    1cf6:	80 91 2d 38 	lds	r24, 0x382D	; 0x80382d <effect>
    1cfa:	90 91 2e 38 	lds	r25, 0x382E	; 0x80382e <effect+0x1>
    1cfe:	89 2b       	or	r24, r25
    1d00:	99 f4       	brne	.+38     	; 0x1d28 <CheckSend+0x34>
        effect = currObj.byteField[EFFECTS];
    1d02:	80 91 0b 3a 	lds	r24, 0x3A0B	; 0x803a0b <currObj+0x4>
    1d06:	90 e0       	ldi	r25, 0x00	; 0
    1d08:	80 93 2d 38 	sts	0x382D, r24	; 0x80382d <effect>
    1d0c:	90 93 2e 38 	sts	0x382E, r25	; 0x80382e <effect+0x1>
        auStart = ((effect&0xE0)>0);
    1d10:	80 91 2d 38 	lds	r24, 0x382D	; 0x80382d <effect>
    1d14:	90 91 2e 38 	lds	r25, 0x382E	; 0x80382e <effect+0x1>
    1d18:	80 7e       	andi	r24, 0xE0	; 224
    1d1a:	99 27       	eor	r25, r25
    1d1c:	21 e0       	ldi	r18, 0x01	; 1
    1d1e:	89 2b       	or	r24, r25
    1d20:	09 f4       	brne	.+2      	; 0x1d24 <CheckSend+0x30>
    1d22:	20 e0       	ldi	r18, 0x00	; 0
    1d24:	20 93 2c 38 	sts	0x382C, r18	; 0x80382c <auStart>
    }

    //Check if more string(part)s have to be sent to the serial output if previous send operation is completed
    if ((txAddrNow < TXLISTLEN) && serTxDone){
    1d28:	20 91 33 3a 	lds	r18, 0x3A33	; 0x803a33 <txAddrNow>
    1d2c:	28 30       	cpi	r18, 0x08	; 8
    1d2e:	08 f0       	brcs	.+2      	; 0x1d32 <CheckSend+0x3e>
    1d30:	47 c0       	rjmp	.+142    	; 0x1dc0 <CheckSend+0xcc>
    1d32:	80 91 08 38 	lds	r24, 0x3808	; 0x803808 <serTxDone>
    1d36:	88 23       	and	r24, r24
    1d38:	09 f4       	brne	.+2      	; 0x1d3c <CheckSend+0x48>
    1d3a:	42 c0       	rjmp	.+132    	; 0x1dc0 <CheckSend+0xcc>
        if (txStrLen[txAddrNow] == 0){
    1d3c:	82 2f       	mov	r24, r18
    1d3e:	90 e0       	ldi	r25, 0x00	; 0
    1d40:	fc 01       	movw	r30, r24
    1d42:	ec 5c       	subi	r30, 0xCC	; 204
    1d44:	f5 4c       	sbci	r31, 0xC5	; 197
    1d46:	e0 81       	ld	r30, Z
    1d48:	e1 11       	cpse	r30, r1
    1d4a:	06 c0       	rjmp	.+12     	; 0x1d58 <CheckSend+0x64>
            txPart = 0;
    1d4c:	10 92 f4 38 	sts	0x38F4, r1	; 0x8038f4 <txPart.3937>
            txAddrNow = TXLISTLEN;
    1d50:	88 e0       	ldi	r24, 0x08	; 8
    1d52:	80 93 33 3a 	sts	0x3A33, r24	; 0x803a33 <txAddrNow>
    1d56:	2c c0       	rjmp	.+88     	; 0x1db0 <CheckSend+0xbc>
        } else if (txPart < txStrLen[txAddrNow]){
    1d58:	50 91 f4 38 	lds	r21, 0x38F4	; 0x8038f4 <txPart.3937>
    1d5c:	5e 17       	cp	r21, r30
    1d5e:	50 f5       	brcc	.+84     	; 0x1db4 <CheckSend+0xc0>
            EEreadLength = txStrLen[txAddrNow]-txPart;
    1d60:	ce 2f       	mov	r28, r30
    1d62:	c5 1b       	sub	r28, r21
    1d64:	c1 32       	cpi	r28, 0x21	; 33
    1d66:	08 f0       	brcs	.+2      	; 0x1d6a <CheckSend+0x76>
    1d68:	c0 e2       	ldi	r28, 0x20	; 32
            if (EEreadLength>=TXLEN) EEreadLength = TXLEN-1;
            ExtEERead(txAddrList[txAddrNow]+txPart, EEreadLength, txTypeNow, &txBuffer[0]);
    1d6a:	88 0f       	add	r24, r24
    1d6c:	99 1f       	adc	r25, r25
    1d6e:	fc 01       	movw	r30, r24
    1d70:	e4 5c       	subi	r30, 0xC4	; 196
    1d72:	f5 4c       	sbci	r31, 0xC5	; 197
    1d74:	80 81       	ld	r24, Z
    1d76:	91 81       	ldd	r25, Z+1	; 0x01
    1d78:	25 ee       	ldi	r18, 0xE5	; 229
    1d7a:	3a e3       	ldi	r19, 0x3A	; 58
    1d7c:	40 91 32 3a 	lds	r20, 0x3A32	; 0x803a32 <txTypeNow>
    1d80:	6c 2f       	mov	r22, r28
    1d82:	85 0f       	add	r24, r21
    1d84:	91 1d       	adc	r25, r1
    1d86:	55 dd       	rcall	.-1366   	; 0x1832 <ExtEERead>
            txPart += EEreadLength;
    1d88:	80 91 f4 38 	lds	r24, 0x38F4	; 0x8038f4 <txPart.3937>
    1d8c:	8c 0f       	add	r24, r28
    1d8e:	80 93 f4 38 	sts	0x38F4, r24	; 0x8038f4 <txPart.3937>
            txBuffer[EEreadLength] = 0; //Add string terminator after piece to send to plug memory leak
    1d92:	ec 2f       	mov	r30, r28
    1d94:	f0 e0       	ldi	r31, 0x00	; 0
    1d96:	eb 51       	subi	r30, 0x1B	; 27
    1d98:	f5 4c       	sbci	r31, 0xC5	; 197
    1d9a:	10 82       	st	Z, r1
            if ((txBuffer[0] == 0) && (EEreadLength)) txBuffer[0] = 0xDB; //Block character when data wrong.
    1d9c:	80 91 e5 3a 	lds	r24, 0x3AE5	; 0x803ae5 <txBuffer>
    1da0:	81 11       	cpse	r24, r1
    1da2:	03 c0       	rjmp	.+6      	; 0x1daa <CheckSend+0xb6>
    1da4:	8b ed       	ldi	r24, 0xDB	; 219
    1da6:	80 93 e5 3a 	sts	0x3AE5, r24	; 0x803ae5 <txBuffer>
            SerSend(&txBuffer[0]);
    1daa:	85 ee       	ldi	r24, 0xE5	; 229
    1dac:	9a e3       	ldi	r25, 0x3A	; 58
    1dae:	4d d8       	rcall	.-3942   	; 0xe4a <SerSend>
        } else {
            txPart = 0;
            ++txAddrNow;
        }
    } else if (serTxDone) return 0; //All is sent!
    return 1; //Still sending, do not change the data in the tx variables
    1db0:	81 e0       	ldi	r24, 0x01	; 1
    1db2:	0b c0       	rjmp	.+22     	; 0x1dca <CheckSend+0xd6>
            txPart += EEreadLength;
            txBuffer[EEreadLength] = 0; //Add string terminator after piece to send to plug memory leak
            if ((txBuffer[0] == 0) && (EEreadLength)) txBuffer[0] = 0xDB; //Block character when data wrong.
            SerSend(&txBuffer[0]);
        } else {
            txPart = 0;
    1db4:	10 92 f4 38 	sts	0x38F4, r1	; 0x8038f4 <txPart.3937>
            ++txAddrNow;
    1db8:	2f 5f       	subi	r18, 0xFF	; 255
    1dba:	20 93 33 3a 	sts	0x3A33, r18	; 0x803a33 <txAddrNow>
    1dbe:	f8 cf       	rjmp	.-16     	; 0x1db0 <CheckSend+0xbc>
        }
    } else if (serTxDone) return 0; //All is sent!
    1dc0:	90 91 08 38 	lds	r25, 0x3808	; 0x803808 <serTxDone>
    1dc4:	81 e0       	ldi	r24, 0x01	; 1
    1dc6:	91 11       	cpse	r25, r1
    1dc8:	80 e0       	ldi	r24, 0x00	; 0
    return 1; //Still sending, do not change the data in the tx variables
}
    1dca:	cf 91       	pop	r28
    1dcc:	08 95       	ret

00001dce <CheckResponse>:

//Send another part of the response and play the effect afterwards
uint8_t CheckResponse(){
    1dce:	cf 93       	push	r28
    1dd0:	df 93       	push	r29
    static uint8_t number = 0;
    if (responseList){
    1dd2:	c0 91 06 39 	lds	r28, 0x3906	; 0x803906 <responseList>
    1dd6:	cc 23       	and	r28, r28
    1dd8:	e9 f1       	breq	.+122    	; 0x1e54 <CheckResponse+0x86>
        --responseList;
    1dda:	c1 50       	subi	r28, 0x01	; 1
    1ddc:	c0 93 06 39 	sts	0x3906, r28	; 0x803906 <responseList>
        if (reactStr[0][number] == CURR_LOC) {
    1de0:	d0 91 f3 38 	lds	r29, 0x38F3	; 0x8038f3 <number.3941>
    1de4:	2d 2f       	mov	r18, r29
    1de6:	30 e0       	ldi	r19, 0x00	; 0
    1de8:	f9 01       	movw	r30, r18
    1dea:	ee 0f       	add	r30, r30
    1dec:	ff 1f       	adc	r31, r31
    1dee:	e9 5f       	subi	r30, 0xF9	; 249
    1df0:	f6 4c       	sbci	r31, 0xC6	; 198
    1df2:	80 81       	ld	r24, Z
    1df4:	91 81       	ldd	r25, Z+1	; 0x01
    1df6:	80 3f       	cpi	r24, 0xF0	; 240
    1df8:	4f ef       	ldi	r20, 0xFF	; 255
    1dfa:	94 07       	cpc	r25, r20
    1dfc:	51 f4       	brne	.+20     	; 0x1e12 <CheckResponse+0x44>
            PrepareSending(currObj.addrStr[NAME], currObj.lenStr[NAME], GAME);
    1dfe:	60 91 21 3a 	lds	r22, 0x3A21	; 0x803a21 <currObj+0x1a>
    1e02:	70 91 22 3a 	lds	r23, 0x3A22	; 0x803a22 <currObj+0x1b>
    1e06:	40 e0       	ldi	r20, 0x00	; 0
    1e08:	80 91 13 3a 	lds	r24, 0x3A13	; 0x803a13 <currObj+0xc>
    1e0c:	90 91 14 3a 	lds	r25, 0x3A14	; 0x803a14 <currObj+0xd>
    1e10:	0d c0       	rjmp	.+26     	; 0x1e2c <CheckResponse+0x5e>
        } else {
            PrepareSending(reactStr[0][number], reactStr[1][number], reactStr[2][number]);
    1e12:	d9 01       	movw	r26, r18
    1e14:	aa 0f       	add	r26, r26
    1e16:	bb 1f       	adc	r27, r27
    1e18:	a9 57       	subi	r26, 0x79	; 121
    1e1a:	b6 4c       	sbci	r27, 0xC6	; 198
    1e1c:	22 0f       	add	r18, r18
    1e1e:	33 1f       	adc	r19, r19
    1e20:	f9 01       	movw	r30, r18
    1e22:	e9 5b       	subi	r30, 0xB9	; 185
    1e24:	f6 4c       	sbci	r31, 0xC6	; 198
    1e26:	60 81       	ld	r22, Z
    1e28:	71 81       	ldd	r23, Z+1	; 0x01
    1e2a:	4c 91       	ld	r20, X
    1e2c:	59 dd       	rcall	.-1358   	; 0x18e0 <PrepareSending>
        }
        ++number;
    1e2e:	df 5f       	subi	r29, 0xFF	; 255
    1e30:	d0 93 f3 38 	sts	0x38F3, r29	; 0x8038f3 <number.3941>

        if (responseList == 0) {
    1e34:	c1 11       	cpse	r28, r1
    1e36:	0d c0       	rjmp	.+26     	; 0x1e52 <CheckResponse+0x84>
            effect = currObj.byteField[EFFECTS];
    1e38:	80 91 0b 3a 	lds	r24, 0x3A0B	; 0x803a0b <currObj+0x4>
    1e3c:	90 e0       	ldi	r25, 0x00	; 0
    1e3e:	80 93 2d 38 	sts	0x382D, r24	; 0x80382d <effect>
    1e42:	90 93 2e 38 	sts	0x382E, r25	; 0x80382e <effect+0x1>
            RXCNT = 0;
    1e46:	1d ba       	out	0x1d, r1	; 29
            serRxDone = 0;
    1e48:	10 92 37 38 	sts	0x3837, r1	; 0x803837 <serRxDone>
            number = 0;
    1e4c:	10 92 f3 38 	sts	0x38F3, r1	; 0x8038f3 <number.3941>
    1e50:	01 c0       	rjmp	.+2      	; 0x1e54 <CheckResponse+0x86>
            return 0;
        }
        return 1;
    1e52:	c1 e0       	ldi	r28, 0x01	; 1
    }
    return 0;
}
    1e54:	8c 2f       	mov	r24, r28
    1e56:	df 91       	pop	r29
    1e58:	cf 91       	pop	r28
    1e5a:	08 95       	ret

00001e5c <CheckInput>:

//User input check (and validation)
uint8_t CheckInput(uint8_t *data){
    1e5c:	4f 92       	push	r4
    1e5e:	5f 92       	push	r5
    1e60:	6f 92       	push	r6
    1e62:	7f 92       	push	r7
    1e64:	8f 92       	push	r8
    1e66:	9f 92       	push	r9
    1e68:	af 92       	push	r10
    1e6a:	bf 92       	push	r11
    1e6c:	cf 92       	push	r12
    1e6e:	df 92       	push	r13
    1e70:	ef 92       	push	r14
    1e72:	ff 92       	push	r15
    1e74:	0f 93       	push	r16
    1e76:	1f 93       	push	r17
    1e78:	cf 93       	push	r28
    1e7a:	df 93       	push	r29
    1e7c:	cd b7       	in	r28, 0x3d	; 61
    1e7e:	de b7       	in	r29, 0x3e	; 62
    1e80:	a1 97       	sbiw	r28, 0x21	; 33
    1e82:	cd bf       	out	0x3d, r28	; 61
    1e84:	de bf       	out	0x3e, r29	; 62
    1e86:	8c 01       	movw	r16, r24
    
    //Load game data after reboot
    if (currDepth == 0xff) {
    1e88:	80 91 27 38 	lds	r24, 0x3827	; 0x803827 <currDepth>
    1e8c:	8f 3f       	cpi	r24, 0xFF	; 255
    1e8e:	49 f4       	brne	.+18     	; 0x1ea2 <CheckInput+0x46>
        //Start at first location
        PopulateObject(route[0], &currObj);
    1e90:	67 e0       	ldi	r22, 0x07	; 7
    1e92:	7a e3       	ldi	r23, 0x3A	; 58
    1e94:	80 91 c7 39 	lds	r24, 0x39C7	; 0x8039c7 <route>
    1e98:	90 91 c8 39 	lds	r25, 0x39C8	; 0x8039c8 <route+0x1>
    1e9c:	d5 dd       	rcall	.-1110   	; 0x1a48 <PopulateObject>
        currDepth = 0;
    1e9e:	10 92 27 38 	sts	0x3827, r1	; 0x803827 <currDepth>
    }

    if (serRxDone){
    1ea2:	80 91 37 38 	lds	r24, 0x3837	; 0x803837 <serRxDone>
    1ea6:	88 23       	and	r24, r24
    1ea8:	09 f4       	brne	.+2      	; 0x1eac <CheckInput+0x50>
    1eaa:	63 c2       	rjmp	.+1222   	; 0x2372 <CheckInput+0x516>

        //Special input requested from user by game
        if (specialInput[0]){
    1eac:	80 91 f6 38 	lds	r24, 0x38F6	; 0x8038f6 <specialInput>
    1eb0:	88 23       	and	r24, r24
    1eb2:	09 f4       	brne	.+2      	; 0x1eb6 <CheckInput+0x5a>
    1eb4:	57 c0       	rjmp	.+174    	; 0x1f64 <CheckInput+0x108>
            specialPassed = 0;
    1eb6:	10 92 f5 38 	sts	0x38F5, r1	; 0x8038f5 <specialPassed>
            data[0] = 'a';
    1eba:	81 e6       	ldi	r24, 0x61	; 97
    1ebc:	f8 01       	movw	r30, r16
    1ebe:	80 83       	st	Z, r24
            
            //Normal code challenge
            if (StartsWith((uint8_t *)&serRx[0], &specialInput[0])) {
    1ec0:	66 ef       	ldi	r22, 0xF6	; 246
    1ec2:	78 e3       	ldi	r23, 0x38	; 56
    1ec4:	81 e6       	ldi	r24, 0x61	; 97
    1ec6:	9a e3       	ldi	r25, 0x3A	; 58
    1ec8:	f1 dc       	rcall	.-1566   	; 0x18ac <StartsWith>
    1eca:	f8 2e       	mov	r15, r24
    1ecc:	88 23       	and	r24, r24
    1ece:	21 f0       	breq	.+8      	; 0x1ed8 <CheckInput+0x7c>
                specialPassed = 1;
    1ed0:	81 e0       	ldi	r24, 0x01	; 1
    1ed2:	80 93 f5 38 	sts	0x38F5, r24	; 0x8038f5 <specialPassed>
    1ed6:	04 c0       	rjmp	.+8      	; 0x1ee0 <CheckInput+0x84>
                //specialInput[0] = 0;
                //data[1] = 0;

            //Special challenge 1
            } else if ((specialInput[0] == '1')&&(specialInput[2] == 0)) {
    1ed8:	80 91 f6 38 	lds	r24, 0x38F6	; 0x8038f6 <specialInput>
    1edc:	81 33       	cpi	r24, 0x31	; 49
    1ede:	11 f0       	breq	.+4      	; 0x1ee4 <CheckInput+0x88>
                responseList = 32;
                return 1;
            }
        } 
        //Data received, but not any of the commands above
        return 0;
    1ee0:	f1 2c       	mov	r15, r1
    1ee2:	49 c2       	rjmp	.+1170   	; 0x2376 <CheckInput+0x51a>
                specialPassed = 1;
                //specialInput[0] = 0;
                //data[1] = 0;

            //Special challenge 1
            } else if ((specialInput[0] == '1')&&(specialInput[2] == 0)) {
    1ee4:	80 91 f8 38 	lds	r24, 0x38F8	; 0x8038f8 <specialInput+0x2>
    1ee8:	81 11       	cpse	r24, r1
    1eea:	fa cf       	rjmp	.-12     	; 0x1ee0 <CheckInput+0x84>
                uint8_t inputLen = CleanInput((uint8_t *)&serRx[0]);
    1eec:	81 e6       	ldi	r24, 0x61	; 97
    1eee:	9a e3       	ldi	r25, 0x3A	; 58
    1ef0:	de de       	rcall	.-580    	; 0x1cae <CleanInput>
                specialPassed = 2;
    1ef2:	92 e0       	ldi	r25, 0x02	; 2
    1ef4:	90 93 f5 38 	sts	0x38F5, r25	; 0x8038f5 <specialPassed>
                data[1] = 0;
    1ef8:	f8 01       	movw	r30, r16
    1efa:	11 82       	std	Z+1, r1	; 0x01

                if (inputLen >= 2) {
    1efc:	82 30       	cpi	r24, 0x02	; 2
    1efe:	80 f3       	brcs	.-32     	; 0x1ee0 <CheckInput+0x84>
                    if ((serRx[0] == '1')||(serRx[0] == '2')||(serRx[0] == '3')||(serRx[0] == '4')) {
    1f00:	80 91 61 3a 	lds	r24, 0x3A61	; 0x803a61 <serRx>
    1f04:	81 33       	cpi	r24, 0x31	; 49
    1f06:	61 f0       	breq	.+24     	; 0x1f20 <CheckInput+0xc4>
    1f08:	80 91 61 3a 	lds	r24, 0x3A61	; 0x803a61 <serRx>
    1f0c:	82 33       	cpi	r24, 0x32	; 50
    1f0e:	41 f0       	breq	.+16     	; 0x1f20 <CheckInput+0xc4>
    1f10:	80 91 61 3a 	lds	r24, 0x3A61	; 0x803a61 <serRx>
    1f14:	83 33       	cpi	r24, 0x33	; 51
    1f16:	21 f0       	breq	.+8      	; 0x1f20 <CheckInput+0xc4>
    1f18:	80 91 61 3a 	lds	r24, 0x3A61	; 0x803a61 <serRx>
    1f1c:	84 33       	cpi	r24, 0x34	; 52
    1f1e:	01 f7       	brne	.-64     	; 0x1ee0 <CheckInput+0x84>
                        serRx[1] |= 0x20;
    1f20:	80 91 62 3a 	lds	r24, 0x3A62	; 0x803a62 <serRx+0x1>
    1f24:	80 62       	ori	r24, 0x20	; 32
    1f26:	80 93 62 3a 	sts	0x3A62, r24	; 0x803a62 <serRx+0x1>
                        if ((serRx[1] == 'a')||(serRx[1] == 'e')||(serRx[1] == 'f')||(serRx[1] == 'w')) {
    1f2a:	80 91 62 3a 	lds	r24, 0x3A62	; 0x803a62 <serRx+0x1>
    1f2e:	81 36       	cpi	r24, 0x61	; 97
    1f30:	61 f0       	breq	.+24     	; 0x1f4a <CheckInput+0xee>
    1f32:	80 91 62 3a 	lds	r24, 0x3A62	; 0x803a62 <serRx+0x1>
    1f36:	85 36       	cpi	r24, 0x65	; 101
    1f38:	41 f0       	breq	.+16     	; 0x1f4a <CheckInput+0xee>
    1f3a:	80 91 62 3a 	lds	r24, 0x3A62	; 0x803a62 <serRx+0x1>
    1f3e:	86 36       	cpi	r24, 0x66	; 102
    1f40:	21 f0       	breq	.+8      	; 0x1f4a <CheckInput+0xee>
    1f42:	80 91 62 3a 	lds	r24, 0x3A62	; 0x803a62 <serRx+0x1>
    1f46:	87 37       	cpi	r24, 0x77	; 119
    1f48:	59 f6       	brne	.-106    	; 0x1ee0 <CheckInput+0x84>
                            data[1] = specialInput[1]+0x11;
    1f4a:	80 91 f7 38 	lds	r24, 0x38F7	; 0x8038f7 <specialInput+0x1>
    1f4e:	8f 5e       	subi	r24, 0xEF	; 239
    1f50:	f8 01       	movw	r30, r16
    1f52:	81 83       	std	Z+1, r24	; 0x01
                            data[2] = serRx[0];
    1f54:	80 91 61 3a 	lds	r24, 0x3A61	; 0x803a61 <serRx>
    1f58:	82 83       	std	Z+2, r24	; 0x02
                            data[3] = serRx[1];
    1f5a:	80 91 62 3a 	lds	r24, 0x3A62	; 0x803a62 <serRx+0x1>
    1f5e:	83 83       	std	Z+3, r24	; 0x03
                            data[4] = 0;
    1f60:	14 82       	std	Z+4, r1	; 0x04
    1f62:	09 c2       	rjmp	.+1042   	; 0x2376 <CheckInput+0x51a>
        
        //Normal input
        } else {

            //Change status bit
            if ((serRx[0] == '#')&&(RXCNT == 6)){
    1f64:	80 91 61 3a 	lds	r24, 0x3A61	; 0x803a61 <serRx>
    1f68:	83 32       	cpi	r24, 0x23	; 35
    1f6a:	81 f5       	brne	.+96     	; 0x1fcc <CheckInput+0x170>
    1f6c:	8d b3       	in	r24, 0x1d	; 29
    1f6e:	86 30       	cpi	r24, 0x06	; 6
    1f70:	69 f5       	brne	.+90     	; 0x1fcc <CheckInput+0x170>
    1f72:	81 e0       	ldi	r24, 0x01	; 1
    1f74:	90 e0       	ldi	r25, 0x00	; 0
    1f76:	10 e0       	ldi	r17, 0x00	; 0
                uint8_t bitNr = 0;

                for (uint8_t x=1; x<4; ++x) {
                    serRx[x] -= '0';
    1f78:	fc 01       	movw	r30, r24
    1f7a:	ef 59       	subi	r30, 0x9F	; 159
    1f7c:	f5 4c       	sbci	r31, 0xC5	; 197
    1f7e:	20 81       	ld	r18, Z
    1f80:	20 53       	subi	r18, 0x30	; 48
    1f82:	20 83       	st	Z, r18
                    bitNr *= 10;
    1f84:	11 0f       	add	r17, r17
    1f86:	21 2f       	mov	r18, r17
    1f88:	22 0f       	add	r18, r18
    1f8a:	22 0f       	add	r18, r18
    1f8c:	12 0f       	add	r17, r18
                    if (serRx[1] > 2) break;
    1f8e:	20 91 62 3a 	lds	r18, 0x3A62	; 0x803a62 <serRx+0x1>
    1f92:	23 30       	cpi	r18, 0x03	; 3
    1f94:	48 f4       	brcc	.+18     	; 0x1fa8 <CheckInput+0x14c>
                    if (serRx[x] < 10) {
    1f96:	20 81       	ld	r18, Z
    1f98:	2a 30       	cpi	r18, 0x0A	; 10
    1f9a:	b0 f4       	brcc	.+44     	; 0x1fc8 <CheckInput+0x16c>
                        bitNr += serRx[x];
    1f9c:	20 81       	ld	r18, Z
    1f9e:	12 0f       	add	r17, r18
    1fa0:	01 96       	adiw	r24, 0x01	; 1

            //Change status bit
            if ((serRx[0] == '#')&&(RXCNT == 6)){
                uint8_t bitNr = 0;

                for (uint8_t x=1; x<4; ++x) {
    1fa2:	84 30       	cpi	r24, 0x04	; 4
    1fa4:	91 05       	cpc	r25, r1
    1fa6:	41 f7       	brne	.-48     	; 0x1f78 <CheckInput+0x11c>
                        continue;
                    }
                    bitNr = 0;
                    break;
                }
                if ((bitNr)&&(bitNr!=128)) {
    1fa8:	81 2f       	mov	r24, r17
    1faa:	8f 77       	andi	r24, 0x7F	; 127
    1fac:	69 f0       	breq	.+26     	; 0x1fc8 <CheckInput+0x16c>
                    if (Cheat(0xff-bitNr, serRx[4]<<8|serRx[5])) UpdateState(bitNr);
    1fae:	80 91 65 3a 	lds	r24, 0x3A65	; 0x803a65 <serRx+0x4>
    1fb2:	60 91 66 3a 	lds	r22, 0x3A66	; 0x803a66 <serRx+0x5>
    1fb6:	70 e0       	ldi	r23, 0x00	; 0
    1fb8:	78 2b       	or	r23, r24
    1fba:	81 2f       	mov	r24, r17
    1fbc:	80 95       	com	r24
    1fbe:	d6 db       	rcall	.-2132   	; 0x176c <Cheat>
    1fc0:	88 23       	and	r24, r24
    1fc2:	11 f0       	breq	.+4      	; 0x1fc8 <CheckInput+0x16c>
    1fc4:	81 2f       	mov	r24, r17
    1fc6:	01 d9       	rcall	.-3582   	; 0x11ca <UpdateState>
                }
                responseList = SetStandardResponse(0);
    1fc8:	80 e0       	ldi	r24, 0x00	; 0
    1fca:	50 c0       	rjmp	.+160    	; 0x206c <CheckInput+0x210>
    1fcc:	d8 01       	movw	r26, r16
    1fce:	80 e0       	ldi	r24, 0x00	; 0
    1fd0:	90 e0       	ldi	r25, 0x00	; 0
                return 1;            
            }
            
            //Read up to the \0 character and convert to lower case.
            for (uint8_t x=0; x<RXLEN; ++x){
                if ((serRx[x]<'A')||(serRx[x]>'Z')) data[x]=serRx[x]; else data[x]=serRx[x]|0x20;
    1fd2:	fc 01       	movw	r30, r24
    1fd4:	ef 59       	subi	r30, 0x9F	; 159
    1fd6:	f5 4c       	sbci	r31, 0xC5	; 197
    1fd8:	20 81       	ld	r18, Z
    1fda:	21 34       	cpi	r18, 0x41	; 65
    1fdc:	18 f0       	brcs	.+6      	; 0x1fe4 <CheckInput+0x188>
    1fde:	20 81       	ld	r18, Z
    1fe0:	2b 35       	cpi	r18, 0x5B	; 91
    1fe2:	10 f0       	brcs	.+4      	; 0x1fe8 <CheckInput+0x18c>
    1fe4:	20 81       	ld	r18, Z
    1fe6:	02 c0       	rjmp	.+4      	; 0x1fec <CheckInput+0x190>
    1fe8:	20 81       	ld	r18, Z
    1fea:	20 62       	ori	r18, 0x20	; 32
    1fec:	2c 93       	st	X, r18
                if (serRx[x] == 0) {
    1fee:	20 81       	ld	r18, Z
    1ff0:	21 11       	cpse	r18, r1
    1ff2:	05 c0       	rjmp	.+10     	; 0x1ffe <CheckInput+0x1a2>
                    data[x] = 0;
    1ff4:	f8 01       	movw	r30, r16
    1ff6:	e8 0f       	add	r30, r24
    1ff8:	f1 1d       	adc	r31, r1
    1ffa:	10 82       	st	Z, r1
                    break;
    1ffc:	05 c0       	rjmp	.+10     	; 0x2008 <CheckInput+0x1ac>
    1ffe:	01 96       	adiw	r24, 0x01	; 1
    2000:	11 96       	adiw	r26, 0x01	; 1
                responseList = SetStandardResponse(0);
                return 1;            
            }
            
            //Read up to the \0 character and convert to lower case.
            for (uint8_t x=0; x<RXLEN; ++x){
    2002:	81 34       	cpi	r24, 0x41	; 65
    2004:	91 05       	cpc	r25, r1
    2006:	29 f7       	brne	.-54     	; 0x1fd2 <CheckInput+0x176>
                    break;
                }
            }

            //No text
            if (serRx[0] == 0){
    2008:	80 91 61 3a 	lds	r24, 0x3A61	; 0x803a61 <serRx>
                data[0] = 0;
    200c:	f8 01       	movw	r30, r16
                    break;
                }
            }

            //No text
            if (serRx[0] == 0){
    200e:	81 11       	cpse	r24, r1
    2010:	05 c0       	rjmp	.+10     	; 0x201c <CheckInput+0x1c0>
                data[0] = 0;
    2012:	10 82       	st	Z, r1
                RXCNT = 0;
    2014:	1d ba       	out	0x1d, r1	; 29
                serRxDone = 0;
    2016:	10 92 37 38 	sts	0x3837, r1	; 0x803837 <serRxDone>
    201a:	ab c1       	rjmp	.+854    	; 0x2372 <CheckInput+0x516>
                return 1;
            }

            //Help text
            if ((data[0] == '?')||(data[0] == 'h')){
    201c:	80 81       	ld	r24, Z
    201e:	8f 33       	cpi	r24, 0x3F	; 63
    2020:	11 f0       	breq	.+4      	; 0x2026 <CheckInput+0x1ca>
    2022:	88 36       	cpi	r24, 0x68	; 104
    2024:	39 f5       	brne	.+78     	; 0x2074 <CheckInput+0x218>
    return 0;
}

//
void SetResponse(uint8_t number, uint16_t address, uint16_t length, uint8_t type){
    reactStr[0][number]=address;
    2026:	8b e5       	ldi	r24, 0x5B	; 91
    2028:	9a e7       	ldi	r25, 0x7A	; 122
    202a:	80 93 07 39 	sts	0x3907, r24	; 0x803907 <reactStr>
    202e:	90 93 08 39 	sts	0x3908, r25	; 0x803908 <reactStr+0x1>
    reactStr[1][number]=length;
    2032:	84 e0       	ldi	r24, 0x04	; 4
    2034:	90 e0       	ldi	r25, 0x00	; 0
    2036:	80 93 47 39 	sts	0x3947, r24	; 0x803947 <reactStr+0x40>
    203a:	90 93 48 39 	sts	0x3948, r25	; 0x803948 <reactStr+0x41>
    reactStr[2][number]=type;
    203e:	81 e0       	ldi	r24, 0x01	; 1
    2040:	90 e0       	ldi	r25, 0x00	; 0
    2042:	80 93 87 39 	sts	0x3987, r24	; 0x803987 <reactStr+0x80>
    2046:	90 93 88 39 	sts	0x3988, r25	; 0x803988 <reactStr+0x81>
    return 0;
}

//
void SetResponse(uint8_t number, uint16_t address, uint16_t length, uint8_t type){
    reactStr[0][number]=address;
    204a:	23 e9       	ldi	r18, 0x93	; 147
    204c:	3b e7       	ldi	r19, 0x7B	; 123
    204e:	20 93 09 39 	sts	0x3909, r18	; 0x803909 <reactStr+0x2>
    2052:	30 93 0a 39 	sts	0x390A, r19	; 0x80390a <reactStr+0x3>
    reactStr[1][number]=length;
    2056:	2d e6       	ldi	r18, 0x6D	; 109
    2058:	34 e0       	ldi	r19, 0x04	; 4
    205a:	20 93 49 39 	sts	0x3949, r18	; 0x803949 <reactStr+0x42>
    205e:	30 93 4a 39 	sts	0x394A, r19	; 0x80394a <reactStr+0x43>
    reactStr[2][number]=type;
    2062:	80 93 89 39 	sts	0x3989, r24	; 0x803989 <reactStr+0x82>
    2066:	90 93 8a 39 	sts	0x398A, r25	; 0x80398a <reactStr+0x83>

            //Help text
            if ((data[0] == '?')||(data[0] == 'h')){
                SetResponse(0, A_LF, 4, TEASER);
                SetResponse(1, A_HELP, L_HELP, TEASER);
                responseList = SetStandardResponse(2);
    206a:	82 e0       	ldi	r24, 0x02	; 2
    206c:	71 dc       	rcall	.-1822   	; 0x1950 <SetStandardResponse>
    206e:	80 93 06 39 	sts	0x3906, r24	; 0x803906 <responseList>
    2072:	7f c1       	rjmp	.+766    	; 0x2372 <CheckInput+0x516>
                return 1;
            }        
        
            //Alphabet text
            if (data[0] == 'a'){
    2074:	81 36       	cpi	r24, 0x61	; 97
    2076:	d9 f4       	brne	.+54     	; 0x20ae <CheckInput+0x252>
    return 0;
}

//
void SetResponse(uint8_t number, uint16_t address, uint16_t length, uint8_t type){
    reactStr[0][number]=address;
    2078:	8b e5       	ldi	r24, 0x5B	; 91
    207a:	9a e7       	ldi	r25, 0x7A	; 122
    207c:	80 93 07 39 	sts	0x3907, r24	; 0x803907 <reactStr>
    2080:	90 93 08 39 	sts	0x3908, r25	; 0x803908 <reactStr+0x1>
    reactStr[1][number]=length;
    2084:	84 e0       	ldi	r24, 0x04	; 4
    2086:	90 e0       	ldi	r25, 0x00	; 0
    2088:	80 93 47 39 	sts	0x3947, r24	; 0x803947 <reactStr+0x40>
    208c:	90 93 48 39 	sts	0x3948, r25	; 0x803948 <reactStr+0x41>
    reactStr[2][number]=type;
    2090:	81 e0       	ldi	r24, 0x01	; 1
    2092:	90 e0       	ldi	r25, 0x00	; 0
    2094:	80 93 87 39 	sts	0x3987, r24	; 0x803987 <reactStr+0x80>
    2098:	90 93 88 39 	sts	0x3988, r25	; 0x803988 <reactStr+0x81>
    return 0;
}

//
void SetResponse(uint8_t number, uint16_t address, uint16_t length, uint8_t type){
    reactStr[0][number]=address;
    209c:	2e e6       	ldi	r18, 0x6E	; 110
    209e:	3a e7       	ldi	r19, 0x7A	; 122
    20a0:	20 93 09 39 	sts	0x3909, r18	; 0x803909 <reactStr+0x2>
    20a4:	30 93 0a 39 	sts	0x390A, r19	; 0x80390a <reactStr+0x3>
    reactStr[1][number]=length;
    20a8:	25 e2       	ldi	r18, 0x25	; 37
    20aa:	31 e0       	ldi	r19, 0x01	; 1
    20ac:	d6 cf       	rjmp	.-84     	; 0x205a <CheckInput+0x1fe>
                responseList = SetStandardResponse(2);
                return 1;
            }

            //Whoami text
            if (data[0] == 'w'){
    20ae:	87 37       	cpi	r24, 0x77	; 119
    20b0:	09 f0       	breq	.+2      	; 0x20b4 <CheckInput+0x258>
    20b2:	6e c0       	rjmp	.+220    	; 0x2190 <CheckInput+0x334>
    return 0;
}

//
void SetResponse(uint8_t number, uint16_t address, uint16_t length, uint8_t type){
    reactStr[0][number]=address;
    20b4:	8b e5       	ldi	r24, 0x5B	; 91
    20b6:	9a e7       	ldi	r25, 0x7A	; 122
    20b8:	80 93 07 39 	sts	0x3907, r24	; 0x803907 <reactStr>
    20bc:	90 93 08 39 	sts	0x3908, r25	; 0x803908 <reactStr+0x1>
    reactStr[1][number]=length;
    20c0:	84 e0       	ldi	r24, 0x04	; 4
    20c2:	90 e0       	ldi	r25, 0x00	; 0
    20c4:	80 93 47 39 	sts	0x3947, r24	; 0x803947 <reactStr+0x40>
    20c8:	90 93 48 39 	sts	0x3948, r25	; 0x803948 <reactStr+0x41>
    reactStr[2][number]=type;
    20cc:	21 e0       	ldi	r18, 0x01	; 1
    20ce:	30 e0       	ldi	r19, 0x00	; 0
    20d0:	20 93 87 39 	sts	0x3987, r18	; 0x803987 <reactStr+0x80>
    20d4:	30 93 88 39 	sts	0x3988, r19	; 0x803988 <reactStr+0x81>
    return 0;
}

//
void SetResponse(uint8_t number, uint16_t address, uint16_t length, uint8_t type){
    reactStr[0][number]=address;
    20d8:	8b ec       	ldi	r24, 0xCB	; 203
    20da:	96 e7       	ldi	r25, 0x76	; 118
    20dc:	80 93 09 39 	sts	0x3909, r24	; 0x803909 <reactStr+0x2>
    20e0:	90 93 0a 39 	sts	0x390A, r25	; 0x80390a <reactStr+0x3>
    reactStr[1][number]=length;
    20e4:	82 e1       	ldi	r24, 0x12	; 18
    20e6:	90 e0       	ldi	r25, 0x00	; 0
    20e8:	80 93 49 39 	sts	0x3949, r24	; 0x803949 <reactStr+0x42>
    20ec:	90 93 4a 39 	sts	0x394A, r25	; 0x80394a <reactStr+0x43>
    reactStr[2][number]=type;
    20f0:	20 93 89 39 	sts	0x3989, r18	; 0x803989 <reactStr+0x82>
    20f4:	30 93 8a 39 	sts	0x398A, r19	; 0x80398a <reactStr+0x83>

            //Whoami text
            if (data[0] == 'w'){
                SetResponse(0, A_LF, 4, TEASER);
                SetResponse(1, A_HELLO, L_HELLO, TEASER);
                if (whoami == 1) {
    20f8:	80 91 30 38 	lds	r24, 0x3830	; 0x803830 <whoami>
    20fc:	81 30       	cpi	r24, 0x01	; 1
    20fe:	19 f4       	brne	.+6      	; 0x2106 <CheckInput+0x2aa>
    return 0;
}

//
void SetResponse(uint8_t number, uint16_t address, uint16_t length, uint8_t type){
    reactStr[0][number]=address;
    2100:	85 ec       	ldi	r24, 0xC5	; 197
    2102:	96 e7       	ldi	r25, 0x76	; 118
    2104:	0f c0       	rjmp	.+30     	; 0x2124 <CheckInput+0x2c8>
            if (data[0] == 'w'){
                SetResponse(0, A_LF, 4, TEASER);
                SetResponse(1, A_HELLO, L_HELLO, TEASER);
                if (whoami == 1) {
                    SetResponse(2, A_ANUBIS, L_ANUBIS, TEASER);
                } else if (whoami == 2) {
    2106:	82 30       	cpi	r24, 0x02	; 2
    2108:	49 f4       	brne	.+18     	; 0x211c <CheckInput+0x2c0>
    return 0;
}

//
void SetResponse(uint8_t number, uint16_t address, uint16_t length, uint8_t type){
    reactStr[0][number]=address;
    210a:	82 ec       	ldi	r24, 0xC2	; 194
    210c:	96 e7       	ldi	r25, 0x76	; 118
    210e:	80 93 0b 39 	sts	0x390B, r24	; 0x80390b <reactStr+0x4>
    2112:	90 93 0c 39 	sts	0x390C, r25	; 0x80390c <reactStr+0x5>
    reactStr[1][number]=length;
    2116:	83 e0       	ldi	r24, 0x03	; 3
    2118:	90 e0       	ldi	r25, 0x00	; 0
    211a:	1e c0       	rjmp	.+60     	; 0x2158 <CheckInput+0x2fc>
                SetResponse(1, A_HELLO, L_HELLO, TEASER);
                if (whoami == 1) {
                    SetResponse(2, A_ANUBIS, L_ANUBIS, TEASER);
                } else if (whoami == 2) {
                    SetResponse(2, A_BES, L_BES, TEASER);
                } else if (whoami == 3) {
    211c:	83 30       	cpi	r24, 0x03	; 3
    211e:	49 f4       	brne	.+18     	; 0x2132 <CheckInput+0x2d6>
    return 0;
}

//
void SetResponse(uint8_t number, uint16_t address, uint16_t length, uint8_t type){
    reactStr[0][number]=address;
    2120:	8c eb       	ldi	r24, 0xBC	; 188
    2122:	96 e7       	ldi	r25, 0x76	; 118
    2124:	80 93 0b 39 	sts	0x390B, r24	; 0x80390b <reactStr+0x4>
    2128:	90 93 0c 39 	sts	0x390C, r25	; 0x80390c <reactStr+0x5>
    reactStr[1][number]=length;
    212c:	86 e0       	ldi	r24, 0x06	; 6
    212e:	90 e0       	ldi	r25, 0x00	; 0
    2130:	13 c0       	rjmp	.+38     	; 0x2158 <CheckInput+0x2fc>
                    SetResponse(2, A_ANUBIS, L_ANUBIS, TEASER);
                } else if (whoami == 2) {
                    SetResponse(2, A_BES, L_BES, TEASER);
                } else if (whoami == 3) {
                    SetResponse(2, A_KHONSU, L_KHONSU, TEASER);
                } else if (whoami == 4) {
    2132:	84 30       	cpi	r24, 0x04	; 4
    2134:	49 f4       	brne	.+18     	; 0x2148 <CheckInput+0x2ec>
    return 0;
}

//
void SetResponse(uint8_t number, uint16_t address, uint16_t length, uint8_t type){
    reactStr[0][number]=address;
    2136:	87 eb       	ldi	r24, 0xB7	; 183
    2138:	96 e7       	ldi	r25, 0x76	; 118
    213a:	80 93 0b 39 	sts	0x390B, r24	; 0x80390b <reactStr+0x4>
    213e:	90 93 0c 39 	sts	0x390C, r25	; 0x80390c <reactStr+0x5>
    reactStr[1][number]=length;
    2142:	85 e0       	ldi	r24, 0x05	; 5
    2144:	90 e0       	ldi	r25, 0x00	; 0
    2146:	08 c0       	rjmp	.+16     	; 0x2158 <CheckInput+0x2fc>
    return 0;
}

//
void SetResponse(uint8_t number, uint16_t address, uint16_t length, uint8_t type){
    reactStr[0][number]=address;
    2148:	80 e4       	ldi	r24, 0x40	; 64
    214a:	96 e7       	ldi	r25, 0x76	; 118
    214c:	80 93 0b 39 	sts	0x390B, r24	; 0x80390b <reactStr+0x4>
    2150:	90 93 0c 39 	sts	0x390C, r25	; 0x80390c <reactStr+0x5>
    reactStr[1][number]=length;
    2154:	82 e4       	ldi	r24, 0x42	; 66
    2156:	90 e0       	ldi	r25, 0x00	; 0
    2158:	80 93 4b 39 	sts	0x394B, r24	; 0x80394b <reactStr+0x44>
    215c:	90 93 4c 39 	sts	0x394C, r25	; 0x80394c <reactStr+0x45>
    reactStr[2][number]=type;
    2160:	20 93 8b 39 	sts	0x398B, r18	; 0x80398b <reactStr+0x84>
    2164:	30 93 8c 39 	sts	0x398C, r19	; 0x80398c <reactStr+0x85>
    return 0;
}

//
void SetResponse(uint8_t number, uint16_t address, uint16_t length, uint8_t type){
    reactStr[0][number]=address;
    2168:	8d e9       	ldi	r24, 0x9D	; 157
    216a:	96 e7       	ldi	r25, 0x76	; 118
    216c:	80 93 0d 39 	sts	0x390D, r24	; 0x80390d <reactStr+0x6>
    2170:	90 93 0e 39 	sts	0x390E, r25	; 0x80390e <reactStr+0x7>
    reactStr[1][number]=length;
    2174:	8a e1       	ldi	r24, 0x1A	; 26
    2176:	90 e0       	ldi	r25, 0x00	; 0
    2178:	80 93 4d 39 	sts	0x394D, r24	; 0x80394d <reactStr+0x46>
    217c:	90 93 4e 39 	sts	0x394E, r25	; 0x80394e <reactStr+0x47>
    reactStr[2][number]=type;
    2180:	81 e0       	ldi	r24, 0x01	; 1
    2182:	90 e0       	ldi	r25, 0x00	; 0
    2184:	80 93 8d 39 	sts	0x398D, r24	; 0x80398d <reactStr+0x86>
    2188:	90 93 8e 39 	sts	0x398E, r25	; 0x80398e <reactStr+0x87>
                    SetResponse(2, A_THOTH, L_THOTH, TEASER);
                } else {
                    SetResponse(2, A_ERROR, L_ERROR, TEASER);
                }
                SetResponse(3, A_PLEASED, L_PLEASED, TEASER);
                responseList = SetStandardResponse(4);
    218c:	84 e0       	ldi	r24, 0x04	; 4
    218e:	6e cf       	rjmp	.-292    	; 0x206c <CheckInput+0x210>
                return 1;
            }

            //Quit text
            if (data[0] == 'q'){
    2190:	81 37       	cpi	r24, 0x71	; 113
    2192:	d9 f4       	brne	.+54     	; 0x21ca <CheckInput+0x36e>
    return 0;
}

//
void SetResponse(uint8_t number, uint16_t address, uint16_t length, uint8_t type){
    reactStr[0][number]=address;
    2194:	8b e5       	ldi	r24, 0x5B	; 91
    2196:	9a e7       	ldi	r25, 0x7A	; 122
    2198:	80 93 07 39 	sts	0x3907, r24	; 0x803907 <reactStr>
    219c:	90 93 08 39 	sts	0x3908, r25	; 0x803908 <reactStr+0x1>
    reactStr[1][number]=length;
    21a0:	84 e0       	ldi	r24, 0x04	; 4
    21a2:	90 e0       	ldi	r25, 0x00	; 0
    21a4:	80 93 47 39 	sts	0x3947, r24	; 0x803947 <reactStr+0x40>
    21a8:	90 93 48 39 	sts	0x3948, r25	; 0x803948 <reactStr+0x41>
    reactStr[2][number]=type;
    21ac:	81 e0       	ldi	r24, 0x01	; 1
    21ae:	90 e0       	ldi	r25, 0x00	; 0
    21b0:	80 93 87 39 	sts	0x3987, r24	; 0x803987 <reactStr+0x80>
    21b4:	90 93 88 39 	sts	0x3988, r25	; 0x803988 <reactStr+0x81>
    return 0;
}

//
void SetResponse(uint8_t number, uint16_t address, uint16_t length, uint8_t type){
    reactStr[0][number]=address;
    21b8:	23 e0       	ldi	r18, 0x03	; 3
    21ba:	3a e7       	ldi	r19, 0x7A	; 122
    21bc:	20 93 09 39 	sts	0x3909, r18	; 0x803909 <reactStr+0x2>
    21c0:	30 93 0a 39 	sts	0x390A, r19	; 0x80390a <reactStr+0x3>
    reactStr[1][number]=length;
    21c4:	24 e5       	ldi	r18, 0x54	; 84
    21c6:	30 e0       	ldi	r19, 0x00	; 0
                responseList = SetStandardResponse(2);
                return 1;
            }

            //Fake cheat = reset badge!
            if (StartsWith(&data[0], "iddqd")){
    21c8:	48 cf       	rjmp	.-368    	; 0x205a <CheckInput+0x1fe>
    21ca:	66 e6       	ldi	r22, 0x66	; 102
    21cc:	77 eb       	ldi	r23, 0xB7	; 183
    21ce:	c8 01       	movw	r24, r16
    21d0:	6d db       	rcall	.-2342   	; 0x18ac <StartsWith>
    21d2:	88 23       	and	r24, r24
    21d4:	f9 f0       	breq	.+62     	; 0x2214 <CheckInput+0x3b8>
    21d6:	1e e6       	ldi	r17, 0x6E	; 110
            
                //Reset game data by wiping the UUID bits
                for (uint8_t x=0; x<4; ++x){
                    WriteStatusBit(110+x, 0);
    21d8:	60 e0       	ldi	r22, 0x00	; 0
    21da:	81 2f       	mov	r24, r17
    21dc:	0e 94 cb 08 	call	0x1196	; 0x1196 <WriteStatusBit>
    21e0:	1f 5f       	subi	r17, 0xFF	; 255

            //Fake cheat = reset badge!
            if (StartsWith(&data[0], "iddqd")){
            
                //Reset game data by wiping the UUID bits
                for (uint8_t x=0; x<4; ++x){
    21e2:	12 37       	cpi	r17, 0x72	; 114
    21e4:	c9 f7       	brne	.-14     	; 0x21d8 <CheckInput+0x37c>
                    WriteStatusBit(110+x, 0);
                }
                SaveGameState();
    21e6:	0e 94 44 08 	call	0x1088	; 0x1088 <SaveGameState>

                uint8_t cheat[] = "Cheater! Contact badge team... ";
    21ea:	80 e2       	ldi	r24, 0x20	; 32
    21ec:	e9 ea       	ldi	r30, 0xA9	; 169
    21ee:	f7 eb       	ldi	r31, 0xB7	; 183
    21f0:	de 01       	movw	r26, r28
    21f2:	11 96       	adiw	r26, 0x01	; 1
    21f4:	01 90       	ld	r0, Z+
    21f6:	0d 92       	st	X+, r0
    21f8:	8a 95       	dec	r24
    21fa:	e1 f7       	brne	.-8      	; 0x21f4 <CheckInput+0x398>
                SerSpeed(60);
    21fc:	8c e3       	ldi	r24, 0x3C	; 60
    21fe:	0e 94 36 07 	call	0xe6c	; 0xe6c <SerSpeed>
                while(1){
                    if (serTxDone) SerSend(&cheat[0]);
    2202:	80 91 08 38 	lds	r24, 0x3808	; 0x803808 <serTxDone>
    2206:	88 23       	and	r24, r24
    2208:	e1 f3       	breq	.-8      	; 0x2202 <CheckInput+0x3a6>
    220a:	ce 01       	movw	r24, r28
    220c:	01 96       	adiw	r24, 0x01	; 1
    220e:	0e 94 25 07 	call	0xe4a	; 0xe4a <SerSend>
                }
            }
            
            //Cheat reset (Quote from: Donald E. Westlake)
            if (StartsWith(&data[0], "the trouble with real life is, there's no reset button")){
    2212:	f7 cf       	rjmp	.-18     	; 0x2202 <CheckInput+0x3a6>
    2214:	6c e6       	ldi	r22, 0x6C	; 108
    2216:	77 eb       	ldi	r23, 0xB7	; 183
    2218:	c8 01       	movw	r24, r16
    221a:	48 db       	rcall	.-2416   	; 0x18ac <StartsWith>
    221c:	68 2e       	mov	r6, r24
    221e:	88 23       	and	r24, r24
    2220:	61 f1       	breq	.+88     	; 0x227a <CheckInput+0x41e>
                
                //Reset cheat data by resetting the EEPROM bytes
                uint8_t empty=0xff;
    2222:	8f ef       	ldi	r24, 0xFF	; 255
    2224:	89 a3       	std	Y+33, r24	; 0x21
    2226:	18 e1       	ldi	r17, 0x18	; 24
                for (uint8_t x=0; x<MAX_CHEATS; ++x){
                    EEWrite(CHEATS+x, &empty, 1);
    2228:	41 e0       	ldi	r20, 0x01	; 1
    222a:	be 01       	movw	r22, r28
    222c:	6f 5d       	subi	r22, 0xDF	; 223
    222e:	7f 4f       	sbci	r23, 0xFF	; 255
    2230:	81 2f       	mov	r24, r17
    2232:	0e 94 fd 06 	call	0xdfa	; 0xdfa <EEWrite>
    2236:	1f 5f       	subi	r17, 0xFF	; 255
            //Cheat reset (Quote from: Donald E. Westlake)
            if (StartsWith(&data[0], "the trouble with real life is, there's no reset button")){
                
                //Reset cheat data by resetting the EEPROM bytes
                uint8_t empty=0xff;
                for (uint8_t x=0; x<MAX_CHEATS; ++x){
    2238:	10 32       	cpi	r17, 0x20	; 32
    223a:	b1 f7       	brne	.-20     	; 0x2228 <CheckInput+0x3cc>
    223c:	1e e6       	ldi	r17, 0x6E	; 110
                    EEWrite(CHEATS+x, &empty, 1);
                }
                //Reset game data by wiping the UUID bits
                for (uint8_t x=0; x<4; ++x){
                    WriteStatusBit(110+x, 0);
    223e:	60 e0       	ldi	r22, 0x00	; 0
    2240:	81 2f       	mov	r24, r17
    2242:	0e 94 cb 08 	call	0x1196	; 0x1196 <WriteStatusBit>
    2246:	1f 5f       	subi	r17, 0xFF	; 255
                uint8_t empty=0xff;
                for (uint8_t x=0; x<MAX_CHEATS; ++x){
                    EEWrite(CHEATS+x, &empty, 1);
                }
                //Reset game data by wiping the UUID bits
                for (uint8_t x=0; x<4; ++x){
    2248:	12 37       	cpi	r17, 0x72	; 114
    224a:	c9 f7       	brne	.-14     	; 0x223e <CheckInput+0x3e2>
                    WriteStatusBit(110+x, 0);
                }
                
                SaveGameState();
    224c:	0e 94 44 08 	call	0x1088	; 0x1088 <SaveGameState>

                uint8_t cheat[] = "Reset please! ";
    2250:	8f e0       	ldi	r24, 0x0F	; 15
    2252:	e9 ec       	ldi	r30, 0xC9	; 201
    2254:	f7 eb       	ldi	r31, 0xB7	; 183
    2256:	de 01       	movw	r26, r28
    2258:	11 96       	adiw	r26, 0x01	; 1
    225a:	01 90       	ld	r0, Z+
    225c:	0d 92       	st	X+, r0
    225e:	8a 95       	dec	r24
    2260:	e1 f7       	brne	.-8      	; 0x225a <CheckInput+0x3fe>
                SerSpeed(60);
    2262:	8c e3       	ldi	r24, 0x3C	; 60
    2264:	0e 94 36 07 	call	0xe6c	; 0xe6c <SerSpeed>
                while(1){
                    if (serTxDone) SerSend(&cheat[0]);
    2268:	80 91 08 38 	lds	r24, 0x3808	; 0x803808 <serTxDone>
    226c:	88 23       	and	r24, r24
    226e:	e1 f3       	breq	.-8      	; 0x2268 <CheckInput+0x40c>
    2270:	ce 01       	movw	r24, r28
    2272:	01 96       	adiw	r24, 0x01	; 1
    2274:	0e 94 25 07 	call	0xe4a	; 0xe4a <SerSend>
                }
            }
            if (StartsWith(&data[0], "cheat")){
    2278:	f7 cf       	rjmp	.-18     	; 0x2268 <CheckInput+0x40c>
    227a:	63 ea       	ldi	r22, 0xA3	; 163
    227c:	77 eb       	ldi	r23, 0xB7	; 183
    227e:	c8 01       	movw	r24, r16
    2280:	15 db       	rcall	.-2518   	; 0x18ac <StartsWith>
    2282:	88 23       	and	r24, r24
    2284:	09 f4       	brne	.+2      	; 0x2288 <CheckInput+0x42c>
    2286:	2c ce       	rjmp	.-936    	; 0x1ee0 <CheckInput+0x84>
    2288:	07 e0       	ldi	r16, 0x07	; 7
    228a:	19 e3       	ldi	r17, 0x39	; 57
    228c:	78 e1       	ldi	r23, 0x18	; 24
    228e:	77 2e       	mov	r7, r23
                    
                    //Set up sending out number
                    EERead(CHEATS+x, &bit, 1);
                    bit = 0xff-bit;
                    for (n=2; n>=0; --n) {
                        digit[n] = bit % 10;
    2290:	ea e0       	ldi	r30, 0x0A	; 10
    2292:	5e 2e       	mov	r5, r30
                        bit /= 10;
    2294:	f4 e6       	ldi	r31, 0x64	; 100
    2296:	4f 2e       	mov	r4, r31
}

//
void SetResponse(uint8_t number, uint16_t address, uint16_t length, uint8_t type){
    reactStr[0][number]=address;
    reactStr[1][number]=length;
    2298:	ee 24       	eor	r14, r14
    229a:	e3 94       	inc	r14
    229c:	f1 2c       	mov	r15, r1
    229e:	cc 24       	eor	r12, r12
    22a0:	c3 94       	inc	r12
    22a2:	d1 2c       	mov	r13, r1
    return 0;
}

//
void SetResponse(uint8_t number, uint16_t address, uint16_t length, uint8_t type){
    reactStr[0][number]=address;
    22a4:	89 e5       	ldi	r24, 0x59	; 89
    22a6:	88 2e       	mov	r8, r24
    22a8:	8a e7       	ldi	r24, 0x7A	; 122
    22aa:	98 2e       	mov	r9, r24
    reactStr[1][number]=length;
    22ac:	92 e0       	ldi	r25, 0x02	; 2
    22ae:	a9 2e       	mov	r10, r25
    22b0:	b1 2c       	mov	r11, r1
                uint8_t bit, digit[3];

                for (uint8_t x=0; x<MAX_CHEATS; ++x){
                    
                    //Set up sending out number
                    EERead(CHEATS+x, &bit, 1);
    22b2:	41 e0       	ldi	r20, 0x01	; 1
    22b4:	be 01       	movw	r22, r28
    22b6:	6f 5d       	subi	r22, 0xDF	; 223
    22b8:	7f 4f       	sbci	r23, 0xFF	; 255
    22ba:	87 2d       	mov	r24, r7
    22bc:	0e 94 ed 06 	call	0xdda	; 0xdda <EERead>
                    bit = 0xff-bit;
    22c0:	29 a1       	ldd	r18, Y+33	; 0x21
    22c2:	20 95       	com	r18
                    for (n=2; n>=0; --n) {
                        digit[n] = bit % 10;
    22c4:	82 2f       	mov	r24, r18
    22c6:	65 2d       	mov	r22, r5
    22c8:	0e 94 2c 1b 	call	0x3658	; 0x3658 <__udivmodqi4>
    22cc:	9b 83       	std	Y+3, r25	; 0x03
    22ce:	0e 94 2c 1b 	call	0x3658	; 0x3658 <__udivmodqi4>
    22d2:	9a 83       	std	Y+2, r25	; 0x02
                        bit /= 10;
    22d4:	82 2f       	mov	r24, r18
    22d6:	64 2d       	mov	r22, r4
    22d8:	0e 94 2c 1b 	call	0x3658	; 0x3658 <__udivmodqi4>
                    
                    //Set up sending out number
                    EERead(CHEATS+x, &bit, 1);
                    bit = 0xff-bit;
                    for (n=2; n>=0; --n) {
                        digit[n] = bit % 10;
    22dc:	89 83       	std	Y+1, r24	; 0x01
    22de:	19 a2       	std	Y+33, r1	; 0x21
    22e0:	de 01       	movw	r26, r28
    22e2:	11 96       	adiw	r26, 0x01	; 1
    22e4:	40 e0       	ldi	r20, 0x00	; 0
                        bit /= 10;
                    }

                    for (n=0; n<3; ++n) {
                        SetResponse(x*4+n, A_DIGITS+digit[n], 1, TEASER);
    22e6:	2d 91       	ld	r18, X+
    return 0;
}

//
void SetResponse(uint8_t number, uint16_t address, uint16_t length, uint8_t type){
    reactStr[0][number]=address;
    22e8:	86 2d       	mov	r24, r6
    22ea:	84 0f       	add	r24, r20
    22ec:	90 e0       	ldi	r25, 0x00	; 0
    22ee:	fc 01       	movw	r30, r24
    22f0:	ee 0f       	add	r30, r30
    22f2:	ff 1f       	adc	r31, r31
    22f4:	e9 5f       	subi	r30, 0xF9	; 249
    22f6:	f6 4c       	sbci	r31, 0xC6	; 198
    22f8:	30 e0       	ldi	r19, 0x00	; 0
    22fa:	2d 52       	subi	r18, 0x2D	; 45
    22fc:	3b 48       	sbci	r19, 0x8B	; 139
    22fe:	20 83       	st	Z, r18
    2300:	31 83       	std	Z+1, r19	; 0x01
    reactStr[1][number]=length;
    2302:	fc 01       	movw	r30, r24
    2304:	ee 0f       	add	r30, r30
    2306:	ff 1f       	adc	r31, r31
    2308:	e9 5b       	subi	r30, 0xB9	; 185
    230a:	f6 4c       	sbci	r31, 0xC6	; 198
    230c:	e0 82       	st	Z, r14
    230e:	f1 82       	std	Z+1, r15	; 0x01
    reactStr[2][number]=type;
    2310:	88 0f       	add	r24, r24
    2312:	99 1f       	adc	r25, r25
    2314:	fc 01       	movw	r30, r24
    2316:	e9 57       	subi	r30, 0x79	; 121
    2318:	f6 4c       	sbci	r31, 0xC6	; 198
    231a:	e0 82       	st	Z, r14
    231c:	f1 82       	std	Z+1, r15	; 0x01
    231e:	4f 5f       	subi	r20, 0xFF	; 255
                    for (n=2; n>=0; --n) {
                        digit[n] = bit % 10;
                        bit /= 10;
                    }

                    for (n=0; n<3; ++n) {
    2320:	43 30       	cpi	r20, 0x03	; 3
    2322:	09 f7       	brne	.-62     	; 0x22e6 <CheckInput+0x48a>
    return 0;
}

//
void SetResponse(uint8_t number, uint16_t address, uint16_t length, uint8_t type){
    reactStr[0][number]=address;
    2324:	f8 01       	movw	r30, r16
    2326:	86 82       	std	Z+6, r8	; 0x06
    2328:	97 82       	std	Z+7, r9	; 0x07
    reactStr[1][number]=length;
    232a:	ea 5b       	subi	r30, 0xBA	; 186
    232c:	ff 4f       	sbci	r31, 0xFF	; 255
    232e:	a0 82       	st	Z, r10
    2330:	b1 82       	std	Z+1, r11	; 0x01
    reactStr[2][number]=type;
    2332:	e0 5c       	subi	r30, 0xC0	; 192
    2334:	ff 4f       	sbci	r31, 0xFF	; 255
    2336:	c0 82       	st	Z, r12
    2338:	d1 82       	std	Z+1, r13	; 0x01
    233a:	73 94       	inc	r7
    233c:	08 5f       	subi	r16, 0xF8	; 248
    233e:	1f 4f       	sbci	r17, 0xFF	; 255
    2340:	f4 e0       	ldi	r31, 0x04	; 4
    2342:	6f 0e       	add	r6, r31
            }
            if (StartsWith(&data[0], "cheat")){
                int8_t n;
                uint8_t bit, digit[3];

                for (uint8_t x=0; x<MAX_CHEATS; ++x){
    2344:	80 e2       	ldi	r24, 0x20	; 32
    2346:	78 12       	cpse	r7, r24
    2348:	b4 cf       	rjmp	.-152    	; 0x22b2 <CheckInput+0x456>
    return 0;
}

//
void SetResponse(uint8_t number, uint16_t address, uint16_t length, uint8_t type){
    reactStr[0][number]=address;
    234a:	8b e5       	ldi	r24, 0x5B	; 91
    234c:	9a e7       	ldi	r25, 0x7A	; 122
    234e:	80 93 45 39 	sts	0x3945, r24	; 0x803945 <reactStr+0x3e>
    2352:	90 93 46 39 	sts	0x3946, r25	; 0x803946 <reactStr+0x3f>
    reactStr[1][number]=length;
    2356:	84 e0       	ldi	r24, 0x04	; 4
    2358:	90 e0       	ldi	r25, 0x00	; 0
    235a:	80 93 85 39 	sts	0x3985, r24	; 0x803985 <reactStr+0x7e>
    235e:	90 93 86 39 	sts	0x3986, r25	; 0x803986 <reactStr+0x7f>
    reactStr[2][number]=type;
    2362:	81 e0       	ldi	r24, 0x01	; 1
    2364:	90 e0       	ldi	r25, 0x00	; 0
    2366:	80 93 c5 39 	sts	0x39C5, r24	; 0x8039c5 <reactStr+0xbe>
    236a:	90 93 c6 39 	sts	0x39C6, r25	; 0x8039c6 <reactStr+0xbf>
                        SetResponse(x*4+n, A_DIGITS+digit[n], 1, TEASER);
                    }                
                    SetResponse(x*4+3, A_COMMA, L_COMMA, TEASER);
                }
                SetResponse((4*MAX_CHEATS)-1, A_LF, 4, TEASER);
                responseList = 32;
    236e:	70 92 06 39 	sts	0x3906, r7	; 0x803906 <responseList>
        //Data received, but not any of the commands above
        return 0;
    }

    //Serial input not available yet
    return 1;
    2372:	ff 24       	eor	r15, r15
    2374:	f3 94       	inc	r15
}
    2376:	8f 2d       	mov	r24, r15
    2378:	a1 96       	adiw	r28, 0x21	; 33
    237a:	cd bf       	out	0x3d, r28	; 61
    237c:	de bf       	out	0x3e, r29	; 62
    237e:	df 91       	pop	r29
    2380:	cf 91       	pop	r28
    2382:	1f 91       	pop	r17
    2384:	0f 91       	pop	r16
    2386:	ff 90       	pop	r15
    2388:	ef 90       	pop	r14
    238a:	df 90       	pop	r13
    238c:	cf 90       	pop	r12
    238e:	bf 90       	pop	r11
    2390:	af 90       	pop	r10
    2392:	9f 90       	pop	r9
    2394:	8f 90       	pop	r8
    2396:	7f 90       	pop	r7
    2398:	6f 90       	pop	r6
    239a:	5f 90       	pop	r5
    239c:	4f 90       	pop	r4
    239e:	08 95       	ret

000023a0 <ProcessInput>:

//The game logic!
uint8_t ProcessInput(uint8_t *data){
    23a0:	4f 92       	push	r4
    23a2:	5f 92       	push	r5
    23a4:	6f 92       	push	r6
    23a6:	7f 92       	push	r7
    23a8:	8f 92       	push	r8
    23aa:	9f 92       	push	r9
    23ac:	af 92       	push	r10
    23ae:	bf 92       	push	r11
    23b0:	cf 92       	push	r12
    23b2:	df 92       	push	r13
    23b4:	ef 92       	push	r14
    23b6:	ff 92       	push	r15
    23b8:	0f 93       	push	r16
    23ba:	1f 93       	push	r17
    23bc:	cf 93       	push	r28
    23be:	df 93       	push	r29
    23c0:	cd b7       	in	r28, 0x3d	; 61
    23c2:	de b7       	in	r29, 0x3e	; 62
    23c4:	2a 97       	sbiw	r28, 0x0a	; 10
    23c6:	cd bf       	out	0x3d, r28	; 61
    23c8:	de bf       	out	0x3e, r29	; 62
    23ca:	8c 01       	movw	r16, r24
    static object_model_t actObj1, actObj2;
    uint8_t elements = 1;

    CleanInput(&data[0]);
    23cc:	70 dc       	rcall	.-1824   	; 0x1cae <CleanInput>
    uint8_t inputLen = CleanInput(&data[0]);
    23ce:	c8 01       	movw	r24, r16
    23d0:	6e dc       	rcall	.-1828   	; 0x1cae <CleanInput>
    23d2:	f8 2e       	mov	r15, r24

    if (inputLen) {
    23d4:	88 23       	and	r24, r24
    23d6:	09 f4       	brne	.+2      	; 0x23da <ProcessInput+0x3a>
    23d8:	de c7       	rjmp	.+4028   	; 0x3396 <ProcessInput+0xff6>

        //eXit to previous location
        if (data[0] == 'x'){
    23da:	d8 01       	movw	r26, r16
    23dc:	8c 91       	ld	r24, X
    23de:	88 37       	cpi	r24, 0x78	; 120
    23e0:	09 f0       	breq	.+2      	; 0x23e4 <ProcessInput+0x44>
    23e2:	45 c0       	rjmp	.+138    	; 0x246e <ProcessInput+0xce>

            //Standing in the Lobby?
            if ((route[currDepth] == 0)||(currDepth == 0)){
    23e4:	80 91 27 38 	lds	r24, 0x3827	; 0x803827 <currDepth>
    23e8:	e8 2f       	mov	r30, r24
    23ea:	f0 e0       	ldi	r31, 0x00	; 0
    23ec:	ee 0f       	add	r30, r30
    23ee:	ff 1f       	adc	r31, r31
    23f0:	e9 53       	subi	r30, 0x39	; 57
    23f2:	f6 4c       	sbci	r31, 0xC6	; 198
    23f4:	20 81       	ld	r18, Z
    23f6:	31 81       	ldd	r19, Z+1	; 0x01
    23f8:	23 2b       	or	r18, r19
    23fa:	11 f0       	breq	.+4      	; 0x2400 <ProcessInput+0x60>
    23fc:	81 11       	cpse	r24, r1
    23fe:	03 c0       	rjmp	.+6      	; 0x2406 <ProcessInput+0x66>
    return 0;
}

//
void SetResponse(uint8_t number, uint16_t address, uint16_t length, uint8_t type){
    reactStr[0][number]=address;
    2400:	82 e8       	ldi	r24, 0x82	; 130
    2402:	96 e7       	ldi	r25, 0x76	; 118
    2404:	a1 c5       	rjmp	.+2882   	; 0x2f48 <ProcessInput+0xba8>
            //Standing in the Lobby?
            if ((route[currDepth] == 0)||(currDepth == 0)){
                SetResponse(elements++, A_NOTPOSSIBLE, L_NOTPOSSIBLE, TEASER);
            
            //Is there a way to go back?
            } else if (CheckState(currObj.byteField[OPEN_ACL])){
    2406:	80 91 0d 3a 	lds	r24, 0x3A0D	; 0x803a0d <currObj+0x6>
    240a:	0e 94 ef 08 	call	0x11de	; 0x11de <CheckState>
    240e:	88 23       	and	r24, r24
    2410:	b9 f0       	breq	.+46     	; 0x2440 <ProcessInput+0xa0>
                --currDepth;
    2412:	e0 91 27 38 	lds	r30, 0x3827	; 0x803827 <currDepth>
    2416:	e1 50       	subi	r30, 0x01	; 1
    2418:	e0 93 27 38 	sts	0x3827, r30	; 0x803827 <currDepth>
                PopulateObject(route[currDepth], &currObj);
    241c:	f0 e0       	ldi	r31, 0x00	; 0
    241e:	ee 0f       	add	r30, r30
    2420:	ff 1f       	adc	r31, r31
    2422:	e9 53       	subi	r30, 0x39	; 57
    2424:	f6 4c       	sbci	r31, 0xC6	; 198
    2426:	67 e0       	ldi	r22, 0x07	; 7
    2428:	7a e3       	ldi	r23, 0x3A	; 58
    242a:	80 81       	ld	r24, Z
    242c:	91 81       	ldd	r25, Z+1	; 0x01
    242e:	0c db       	rcall	.-2536   	; 0x1a48 <PopulateObject>
                effect = currObj.byteField[EFFECTS];
    2430:	80 91 0b 3a 	lds	r24, 0x3A0B	; 0x803a0b <currObj+0x4>
    2434:	90 e0       	ldi	r25, 0x00	; 0
    2436:	80 93 2d 38 	sts	0x382D, r24	; 0x80382d <effect>
    243a:	90 93 2e 38 	sts	0x382E, r25	; 0x80382e <effect+0x1>
    243e:	31 c2       	rjmp	.+1122   	; 0x28a2 <ProcessInput+0x502>
            
            //No way out, print denied message of location
            } else {
                SetResponse(elements++, currObj.addrStr[OPEN_ACL_MSG], currObj.lenStr[OPEN_ACL_MSG], GAME);
    2440:	80 91 29 3a 	lds	r24, 0x3A29	; 0x803a29 <currObj+0x22>
    2444:	90 91 2a 3a 	lds	r25, 0x3A2A	; 0x803a2a <currObj+0x23>
    return 0;
}

//
void SetResponse(uint8_t number, uint16_t address, uint16_t length, uint8_t type){
    reactStr[0][number]=address;
    2448:	20 91 1b 3a 	lds	r18, 0x3A1B	; 0x803a1b <currObj+0x14>
    244c:	30 91 1c 3a 	lds	r19, 0x3A1C	; 0x803a1c <currObj+0x15>
    2450:	20 93 09 39 	sts	0x3909, r18	; 0x803909 <reactStr+0x2>
    2454:	30 93 0a 39 	sts	0x390A, r19	; 0x80390a <reactStr+0x3>
    reactStr[1][number]=length;
    2458:	80 93 49 39 	sts	0x3949, r24	; 0x803949 <reactStr+0x42>
    245c:	90 93 4a 39 	sts	0x394A, r25	; 0x80394a <reactStr+0x43>
    reactStr[2][number]=type;
    2460:	10 92 89 39 	sts	0x3989, r1	; 0x803989 <reactStr+0x82>
    2464:	10 92 8a 39 	sts	0x398A, r1	; 0x80398a <reactStr+0x83>
                effect = currObj.byteField[EFFECTS];
            
            //No way out, print denied message of location
            } else {
                SetResponse(elements++, currObj.addrStr[OPEN_ACL_MSG], currObj.lenStr[OPEN_ACL_MSG], GAME);
                effect = currObj.effect[0];               
    2468:	80 91 2f 3a 	lds	r24, 0x3A2F	; 0x803a2f <currObj+0x28>
    246c:	3a c6       	rjmp	.+3188   	; 0x30e2 <ProcessInput+0xd42>
            }   
        
        //Enter locations or Open objects    
        } else if ((data[0] == 'e')||(data[0] == 'o')) {
    246e:	85 36       	cpi	r24, 0x65	; 101
    2470:	19 f0       	breq	.+6      	; 0x2478 <ProcessInput+0xd8>
    2472:	8f 36       	cpi	r24, 0x6F	; 111
    2474:	09 f0       	breq	.+2      	; 0x2478 <ProcessInput+0xd8>
    2476:	df c0       	rjmp	.+446    	; 0x2636 <ProcessInput+0x296>
                
            //Not possible, too many/little characters
            if (inputLen != 2){
    2478:	b2 e0       	ldi	r27, 0x02	; 2
    247a:	fb 12       	cpse	r15, r27
    247c:	c1 cf       	rjmp	.-126    	; 0x2400 <ProcessInput+0x60>
                SetResponse(elements++, A_NOTPOSSIBLE, L_NOTPOSSIBLE, TEASER);
            } else {
                uint8_t canDo = 0;
                route[currDepth+1] = FindChild(route[currDepth], data[1], 0);
    247e:	e0 90 27 38 	lds	r14, 0x3827	; 0x803827 <currDepth>
    2482:	f1 2c       	mov	r15, r1
    2484:	f7 01       	movw	r30, r14
    2486:	ee 0f       	add	r30, r30
    2488:	ff 1f       	adc	r31, r31
    248a:	e9 53       	subi	r30, 0x39	; 57
    248c:	f6 4c       	sbci	r31, 0xC6	; 198
    248e:	40 e0       	ldi	r20, 0x00	; 0
    2490:	50 e0       	ldi	r21, 0x00	; 0
    2492:	d8 01       	movw	r26, r16
    2494:	11 96       	adiw	r26, 0x01	; 1
    2496:	6c 91       	ld	r22, X
    2498:	80 81       	ld	r24, Z
    249a:	91 81       	ldd	r25, Z+1	; 0x01
    249c:	a0 db       	rcall	.-2240   	; 0x1bde <FindChild>
    249e:	f7 01       	movw	r30, r14
    24a0:	ee 0f       	add	r30, r30
    24a2:	ff 1f       	adc	r31, r31
    24a4:	e7 53       	subi	r30, 0x37	; 55
    24a6:	f6 4c       	sbci	r31, 0xC6	; 198
    24a8:	80 83       	st	Z, r24
    24aa:	91 83       	std	Z+1, r25	; 0x01
                    
                //Child found?
                if (route[currDepth+1]) {
    24ac:	90 91 27 38 	lds	r25, 0x3827	; 0x803827 <currDepth>
    24b0:	29 2f       	mov	r18, r25
    24b2:	30 e0       	ldi	r19, 0x00	; 0
    24b4:	f9 01       	movw	r30, r18
    24b6:	ee 0f       	add	r30, r30
    24b8:	ff 1f       	adc	r31, r31
    24ba:	e7 53       	subi	r30, 0x37	; 55
    24bc:	f6 4c       	sbci	r31, 0xC6	; 198
    24be:	40 81       	ld	r20, Z
    24c0:	51 81       	ldd	r21, Z+1	; 0x01
    24c2:	41 15       	cp	r20, r1
    24c4:	51 05       	cpc	r21, r1
    24c6:	21 f0       	breq	.+8      	; 0x24d0 <ProcessInput+0x130>
                    PopulateObject(route[currDepth+1], &actObj1);
    24c8:	68 ec       	ldi	r22, 0xC8	; 200
    24ca:	78 e3       	ldi	r23, 0x38	; 56
    24cc:	ca 01       	movw	r24, r20
    24ce:	1c c0       	rjmp	.+56     	; 0x2508 <ProcessInput+0x168>
                    canDo = 1;
                //No child, maybe a step back, letter ok?
                } else if (currDepth) {
    24d0:	99 23       	and	r25, r25
    24d2:	09 f4       	brne	.+2      	; 0x24d6 <ProcessInput+0x136>
    24d4:	77 c7       	rjmp	.+3822   	; 0x33c4 <ProcessInput+0x1024>
                    if (CheckLetter(route[currDepth-1], data[1])) {
    24d6:	22 0f       	add	r18, r18
    24d8:	33 1f       	adc	r19, r19
    24da:	f9 01       	movw	r30, r18
    24dc:	eb 53       	subi	r30, 0x3B	; 59
    24de:	f6 4c       	sbci	r31, 0xC6	; 198
    24e0:	d8 01       	movw	r26, r16
    24e2:	11 96       	adiw	r26, 0x01	; 1
    24e4:	6c 91       	ld	r22, X
    24e6:	80 81       	ld	r24, Z
    24e8:	91 81       	ldd	r25, Z+1	; 0x01
    24ea:	25 db       	rcall	.-2486   	; 0x1b36 <CheckLetter>
    24ec:	88 23       	and	r24, r24
    24ee:	09 f4       	brne	.+2      	; 0x24f2 <ProcessInput+0x152>
    24f0:	69 c7       	rjmp	.+3794   	; 0x33c4 <ProcessInput+0x1024>
                        PopulateObject(route[currDepth-1], &actObj1);
    24f2:	e0 91 27 38 	lds	r30, 0x3827	; 0x803827 <currDepth>
    24f6:	f0 e0       	ldi	r31, 0x00	; 0
    24f8:	ee 0f       	add	r30, r30
    24fa:	ff 1f       	adc	r31, r31
    24fc:	eb 53       	subi	r30, 0x3B	; 59
    24fe:	f6 4c       	sbci	r31, 0xC6	; 198
    2500:	68 ec       	ldi	r22, 0xC8	; 200
    2502:	78 e3       	ldi	r23, 0x38	; 56
    2504:	80 81       	ld	r24, Z
    2506:	91 81       	ldd	r25, Z+1	; 0x01
    2508:	9f da       	rcall	.-2754   	; 0x1a48 <PopulateObject>
                    }
                }

                //The candidate is found! Let's check if the action is legit
                if (canDo) {
                    if ((data[0] == 'e') && ((actObj1.byteField[ACTION_MASK]&ENTER)==0)) {
    250a:	f8 01       	movw	r30, r16
    250c:	80 81       	ld	r24, Z
    250e:	85 36       	cpi	r24, 0x65	; 101
    2510:	c9 f4       	brne	.+50     	; 0x2544 <ProcessInput+0x1a4>
    2512:	80 91 d0 38 	lds	r24, 0x38D0	; 0x8038d0 <actObj1.3989+0x8>
    2516:	80 fd       	sbrc	r24, 0
    2518:	1e c0       	rjmp	.+60     	; 0x2556 <ProcessInput+0x1b6>
    return 0;
}

//
void SetResponse(uint8_t number, uint16_t address, uint16_t length, uint8_t type){
    reactStr[0][number]=address;
    251a:	80 ea       	ldi	r24, 0xA0	; 160
    251c:	99 e7       	ldi	r25, 0x79	; 121
    251e:	80 93 09 39 	sts	0x3909, r24	; 0x803909 <reactStr+0x2>
    2522:	90 93 0a 39 	sts	0x390A, r25	; 0x80390a <reactStr+0x3>
    reactStr[1][number]=length;
    2526:	8e e1       	ldi	r24, 0x1E	; 30
    2528:	90 e0       	ldi	r25, 0x00	; 0
    252a:	80 93 49 39 	sts	0x3949, r24	; 0x803949 <reactStr+0x42>
    252e:	90 93 4a 39 	sts	0x394A, r25	; 0x80394a <reactStr+0x43>
    reactStr[2][number]=type;
    2532:	81 e0       	ldi	r24, 0x01	; 1
    2534:	90 e0       	ldi	r25, 0x00	; 0
    2536:	80 93 89 39 	sts	0x3989, r24	; 0x803989 <reactStr+0x82>
    253a:	90 93 8a 39 	sts	0x398A, r25	; 0x80398a <reactStr+0x83>
                }

                //The candidate is found! Let's check if the action is legit
                if (canDo) {
                    if ((data[0] == 'e') && ((actObj1.byteField[ACTION_MASK]&ENTER)==0)) {
                        SetResponse(elements++, A_CANTENTER, L_CANTENTER, TEASER);
    253e:	72 e0       	ldi	r23, 0x02	; 2
    2540:	77 2e       	mov	r7, r23
    2542:	0e c7       	rjmp	.+3612   	; 0x3360 <ProcessInput+0xfc0>
                    } else if ((data[0] == 'o') && ((actObj1.byteField[ACTION_MASK]&OPEN)==0)) {
    2544:	8f 36       	cpi	r24, 0x6F	; 111
    2546:	39 f4       	brne	.+14     	; 0x2556 <ProcessInput+0x1b6>
    2548:	80 91 d0 38 	lds	r24, 0x38D0	; 0x8038d0 <actObj1.3989+0x8>
    254c:	81 fd       	sbrc	r24, 1
    254e:	03 c0       	rjmp	.+6      	; 0x2556 <ProcessInput+0x1b6>
    return 0;
}

//
void SetResponse(uint8_t number, uint16_t address, uint16_t length, uint8_t type){
    reactStr[0][number]=address;
    2550:	85 e8       	ldi	r24, 0x85	; 133
    2552:	99 e7       	ldi	r25, 0x79	; 121
    2554:	f9 c4       	rjmp	.+2546   	; 0x2f48 <ProcessInput+0xba8>
                        SetResponse(elements++, A_CANTENTER, L_CANTENTER, TEASER);
                    } else if ((data[0] == 'o') && ((actObj1.byteField[ACTION_MASK]&OPEN)==0)) {
                        SetResponse(elements++, A_CANTOPEN, L_CANTOPEN, TEASER);
                    
                    //Action legit, permission granted?
                    } else if (CheckState(actObj1.byteField[OPEN_ACL])) {
    2556:	80 91 ce 38 	lds	r24, 0x38CE	; 0x8038ce <actObj1.3989+0x6>
    255a:	0e 94 ef 08 	call	0x11de	; 0x11de <CheckState>
    255e:	e0 91 27 38 	lds	r30, 0x3827	; 0x803827 <currDepth>
    2562:	88 23       	and	r24, r24
    2564:	09 f4       	brne	.+2      	; 0x2568 <ProcessInput+0x1c8>
    2566:	49 c0       	rjmp	.+146    	; 0x25fa <ProcessInput+0x25a>
                            
                        //Yes! Check if we must move forward or backwards.
                        if (route[currDepth+1]) ++currDepth; else --currDepth;
    2568:	ae 2f       	mov	r26, r30
    256a:	b0 e0       	ldi	r27, 0x00	; 0
    256c:	aa 0f       	add	r26, r26
    256e:	bb 1f       	adc	r27, r27
    2570:	a7 53       	subi	r26, 0x37	; 55
    2572:	b6 4c       	sbci	r27, 0xC6	; 198
    2574:	8d 91       	ld	r24, X+
    2576:	9c 91       	ld	r25, X
    2578:	89 2b       	or	r24, r25
    257a:	11 f0       	breq	.+4      	; 0x2580 <ProcessInput+0x1e0>
    257c:	ef 5f       	subi	r30, 0xFF	; 255
    257e:	01 c0       	rjmp	.+2      	; 0x2582 <ProcessInput+0x1e2>
    2580:	e1 50       	subi	r30, 0x01	; 1
    2582:	e0 93 27 38 	sts	0x3827, r30	; 0x803827 <currDepth>
                        PopulateObject(route[currDepth], &currObj);
    2586:	e0 91 27 38 	lds	r30, 0x3827	; 0x803827 <currDepth>
    258a:	f0 e0       	ldi	r31, 0x00	; 0
    258c:	ee 0f       	add	r30, r30
    258e:	ff 1f       	adc	r31, r31
    2590:	e9 53       	subi	r30, 0x39	; 57
    2592:	f6 4c       	sbci	r31, 0xC6	; 198
    2594:	67 e0       	ldi	r22, 0x07	; 7
    2596:	7a e3       	ldi	r23, 0x3A	; 58
    2598:	80 81       	ld	r24, Z
    259a:	91 81       	ldd	r25, Z+1	; 0x01
    259c:	55 da       	rcall	.-2902   	; 0x1a48 <PopulateObject>
                        SetResponse(elements++, currObj.addrStr[DESC], currObj.lenStr[DESC],GAME);
    259e:	80 91 23 3a 	lds	r24, 0x3A23	; 0x803a23 <currObj+0x1c>
    25a2:	90 91 24 3a 	lds	r25, 0x3A24	; 0x803a24 <currObj+0x1d>
    return 0;
}

//
void SetResponse(uint8_t number, uint16_t address, uint16_t length, uint8_t type){
    reactStr[0][number]=address;
    25a6:	20 91 15 3a 	lds	r18, 0x3A15	; 0x803a15 <currObj+0xe>
    25aa:	30 91 16 3a 	lds	r19, 0x3A16	; 0x803a16 <currObj+0xf>
    25ae:	20 93 09 39 	sts	0x3909, r18	; 0x803909 <reactStr+0x2>
    25b2:	30 93 0a 39 	sts	0x390A, r19	; 0x80390a <reactStr+0x3>
    reactStr[1][number]=length;
    25b6:	80 93 49 39 	sts	0x3949, r24	; 0x803949 <reactStr+0x42>
    25ba:	90 93 4a 39 	sts	0x394A, r25	; 0x80394a <reactStr+0x43>
    reactStr[2][number]=type;
    25be:	10 92 89 39 	sts	0x3989, r1	; 0x803989 <reactStr+0x82>
    25c2:	10 92 8a 39 	sts	0x398A, r1	; 0x80398a <reactStr+0x83>
    return 0;
}

//
void SetResponse(uint8_t number, uint16_t address, uint16_t length, uint8_t type){
    reactStr[0][number]=address;
    25c6:	8b e5       	ldi	r24, 0x5B	; 91
    25c8:	9a e7       	ldi	r25, 0x7A	; 122
    25ca:	80 93 0b 39 	sts	0x390B, r24	; 0x80390b <reactStr+0x4>
    25ce:	90 93 0c 39 	sts	0x390C, r25	; 0x80390c <reactStr+0x5>
    reactStr[1][number]=length;
    25d2:	82 e0       	ldi	r24, 0x02	; 2
    25d4:	90 e0       	ldi	r25, 0x00	; 0
    25d6:	80 93 4b 39 	sts	0x394B, r24	; 0x80394b <reactStr+0x44>
    25da:	90 93 4c 39 	sts	0x394C, r25	; 0x80394c <reactStr+0x45>
    reactStr[2][number]=type;
    25de:	81 e0       	ldi	r24, 0x01	; 1
    25e0:	90 e0       	ldi	r25, 0x00	; 0
    25e2:	80 93 8b 39 	sts	0x398B, r24	; 0x80398b <reactStr+0x84>
    25e6:	90 93 8c 39 	sts	0x398C, r25	; 0x80398c <reactStr+0x85>
                        //Yes! Check if we must move forward or backwards.
                        if (route[currDepth+1]) ++currDepth; else --currDepth;
                        PopulateObject(route[currDepth], &currObj);
                        SetResponse(elements++, currObj.addrStr[DESC], currObj.lenStr[DESC],GAME);
                        SetResponse(elements++, A_LF, 2, TEASER);
                        effect = currObj.byteField[EFFECTS];
    25ea:	80 91 0b 3a 	lds	r24, 0x3A0B	; 0x803a0b <currObj+0x4>
    25ee:	90 e0       	ldi	r25, 0x00	; 0
    25f0:	80 93 2d 38 	sts	0x382D, r24	; 0x80382d <effect>
    25f4:	90 93 2e 38 	sts	0x382E, r25	; 0x80382e <effect+0x1>
    25f8:	8d c4       	rjmp	.+2330   	; 0x2f14 <ProcessInput+0xb74>
                                                  
                    //Not granted!
                    } else {
                        route[currDepth+1] = 0;
    25fa:	f0 e0       	ldi	r31, 0x00	; 0
    25fc:	ee 0f       	add	r30, r30
    25fe:	ff 1f       	adc	r31, r31
    2600:	e7 53       	subi	r30, 0x37	; 55
    2602:	f6 4c       	sbci	r31, 0xC6	; 198
    2604:	10 82       	st	Z, r1
    2606:	11 82       	std	Z+1, r1	; 0x01
                        SetResponse(elements++, actObj1.addrStr[OPEN_ACL_MSG], actObj1.lenStr[OPEN_ACL_MSG], GAME);
    2608:	80 91 ea 38 	lds	r24, 0x38EA	; 0x8038ea <actObj1.3989+0x22>
    260c:	90 91 eb 38 	lds	r25, 0x38EB	; 0x8038eb <actObj1.3989+0x23>
    return 0;
}

//
void SetResponse(uint8_t number, uint16_t address, uint16_t length, uint8_t type){
    reactStr[0][number]=address;
    2610:	20 91 dc 38 	lds	r18, 0x38DC	; 0x8038dc <actObj1.3989+0x14>
    2614:	30 91 dd 38 	lds	r19, 0x38DD	; 0x8038dd <actObj1.3989+0x15>
    2618:	20 93 09 39 	sts	0x3909, r18	; 0x803909 <reactStr+0x2>
    261c:	30 93 0a 39 	sts	0x390A, r19	; 0x80390a <reactStr+0x3>
    reactStr[1][number]=length;
    2620:	80 93 49 39 	sts	0x3949, r24	; 0x803949 <reactStr+0x42>
    2624:	90 93 4a 39 	sts	0x394A, r25	; 0x80394a <reactStr+0x43>
    reactStr[2][number]=type;
    2628:	10 92 89 39 	sts	0x3989, r1	; 0x803989 <reactStr+0x82>
    262c:	10 92 8a 39 	sts	0x398A, r1	; 0x80398a <reactStr+0x83>
                                                  
                    //Not granted!
                    } else {
                        route[currDepth+1] = 0;
                        SetResponse(elements++, actObj1.addrStr[OPEN_ACL_MSG], actObj1.lenStr[OPEN_ACL_MSG], GAME);
                        effect = actObj1.effect[0];              
    2630:	80 91 f0 38 	lds	r24, 0x38F0	; 0x8038f0 <actObj1.3989+0x28>
    2634:	56 c5       	rjmp	.+2732   	; 0x30e2 <ProcessInput+0xd42>
                    SetResponse(elements++, A_DONTSEE, L_DONTSEE, TEASER);                
                }
            }

        //Look around or at objects
        } else if (data[0] == 'l') {
    2636:	8c 36       	cpi	r24, 0x6C	; 108
    2638:	09 f0       	breq	.+2      	; 0x263c <ProcessInput+0x29c>
    263a:	57 c1       	rjmp	.+686    	; 0x28ea <ProcessInput+0x54a>
    263c:	e0 91 27 38 	lds	r30, 0x3827	; 0x803827 <currDepth>
            if (inputLen == 1) {
    2640:	b1 e0       	ldi	r27, 0x01	; 1
    2642:	fb 12       	cpse	r15, r27
    2644:	f6 c0       	rjmp	.+492    	; 0x2832 <ProcessInput+0x492>

                //Show info about this area first
                SetResponse(elements++, currObj.addrStr[DESC], currObj.lenStr[DESC],GAME);
    2646:	80 91 23 3a 	lds	r24, 0x3A23	; 0x803a23 <currObj+0x1c>
    264a:	90 91 24 3a 	lds	r25, 0x3A24	; 0x803a24 <currObj+0x1d>
    return 0;
}

//
void SetResponse(uint8_t number, uint16_t address, uint16_t length, uint8_t type){
    reactStr[0][number]=address;
    264e:	20 91 15 3a 	lds	r18, 0x3A15	; 0x803a15 <currObj+0xe>
    2652:	30 91 16 3a 	lds	r19, 0x3A16	; 0x803a16 <currObj+0xf>
    2656:	20 93 09 39 	sts	0x3909, r18	; 0x803909 <reactStr+0x2>
    265a:	30 93 0a 39 	sts	0x390A, r19	; 0x80390a <reactStr+0x3>
    reactStr[1][number]=length;
    265e:	80 93 49 39 	sts	0x3949, r24	; 0x803949 <reactStr+0x42>
    2662:	90 93 4a 39 	sts	0x394A, r25	; 0x80394a <reactStr+0x43>
    reactStr[2][number]=type;
    2666:	10 92 89 39 	sts	0x3989, r1	; 0x803989 <reactStr+0x82>
    266a:	10 92 8a 39 	sts	0x398A, r1	; 0x80398a <reactStr+0x83>
    return 0;
}

//
void SetResponse(uint8_t number, uint16_t address, uint16_t length, uint8_t type){
    reactStr[0][number]=address;
    266e:	8b e5       	ldi	r24, 0x5B	; 91
    2670:	9a e7       	ldi	r25, 0x7A	; 122
    2672:	80 93 0b 39 	sts	0x390B, r24	; 0x80390b <reactStr+0x4>
    2676:	90 93 0c 39 	sts	0x390C, r25	; 0x80390c <reactStr+0x5>
    reactStr[1][number]=length;
    267a:	82 e0       	ldi	r24, 0x02	; 2
    267c:	90 e0       	ldi	r25, 0x00	; 0
    267e:	80 93 4b 39 	sts	0x394B, r24	; 0x80394b <reactStr+0x44>
    2682:	90 93 4c 39 	sts	0x394C, r25	; 0x80394c <reactStr+0x45>
    reactStr[2][number]=type;
    2686:	81 e0       	ldi	r24, 0x01	; 1
    2688:	90 e0       	ldi	r25, 0x00	; 0
    268a:	80 93 8b 39 	sts	0x398B, r24	; 0x80398b <reactStr+0x84>
    268e:	90 93 8c 39 	sts	0x398C, r25	; 0x80398c <reactStr+0x85>
    return 0;
}

//
void SetResponse(uint8_t number, uint16_t address, uint16_t length, uint8_t type){
    reactStr[0][number]=address;
    2692:	2e ee       	ldi	r18, 0xEE	; 238
    2694:	39 e7       	ldi	r19, 0x79	; 121
    2696:	20 93 0d 39 	sts	0x390D, r18	; 0x80390d <reactStr+0x6>
    269a:	30 93 0e 39 	sts	0x390E, r19	; 0x80390e <reactStr+0x7>
    reactStr[1][number]=length;
    269e:	25 e1       	ldi	r18, 0x15	; 21
    26a0:	30 e0       	ldi	r19, 0x00	; 0
    26a2:	20 93 4d 39 	sts	0x394D, r18	; 0x80394d <reactStr+0x46>
    26a6:	30 93 4e 39 	sts	0x394E, r19	; 0x80394e <reactStr+0x47>
    reactStr[2][number]=type;
    26aa:	80 93 8d 39 	sts	0x398D, r24	; 0x80398d <reactStr+0x86>
    26ae:	90 93 8e 39 	sts	0x398E, r25	; 0x80398e <reactStr+0x87>
                SetResponse(elements++, currObj.addrStr[DESC], currObj.lenStr[DESC],GAME);
                SetResponse(elements++, A_LF, 2, TEASER);
                SetResponse(elements++, A_LOOK, L_LOOK, TEASER);

                //Check the visible children first
                route[currDepth+1] = 0;
    26b2:	f0 e0       	ldi	r31, 0x00	; 0
    26b4:	ee 0f       	add	r30, r30
    26b6:	ff 1f       	adc	r31, r31
    26b8:	e7 53       	subi	r30, 0x37	; 55
    26ba:	f6 4c       	sbci	r31, 0xC6	; 198
    26bc:	10 82       	st	Z, r1
    26be:	11 82       	std	Z+1, r1	; 0x01
            if (inputLen == 1) {

                //Show info about this area first
                SetResponse(elements++, currObj.addrStr[DESC], currObj.lenStr[DESC],GAME);
                SetResponse(elements++, A_LF, 2, TEASER);
                SetResponse(elements++, A_LOOK, L_LOOK, TEASER);
    26c0:	84 e0       	ldi	r24, 0x04	; 4
    26c2:	68 2e       	mov	r6, r24
    return 0;
}

//
void SetResponse(uint8_t number, uint16_t address, uint16_t length, uint8_t type){
    reactStr[0][number]=address;
    26c4:	99 e5       	ldi	r25, 0x59	; 89
    26c6:	c9 2e       	mov	r12, r25
    26c8:	9a e7       	ldi	r25, 0x7A	; 122
    26ca:	d9 2e       	mov	r13, r25
    reactStr[1][number]=length;
    26cc:	22 e0       	ldi	r18, 0x02	; 2
    26ce:	a2 2e       	mov	r10, r18
    26d0:	b1 2c       	mov	r11, r1
    reactStr[2][number]=type;
    26d2:	88 24       	eor	r8, r8
    26d4:	83 94       	inc	r8
    26d6:	91 2c       	mov	r9, r1
                SetResponse(elements++, A_LOOK, L_LOOK, TEASER);

                //Check the visible children first
                route[currDepth+1] = 0;
                do{
                    route[currDepth+1] = FindChild(route[currDepth], 0, route[currDepth+1]);
    26d8:	80 91 27 38 	lds	r24, 0x3827	; 0x803827 <currDepth>
    26dc:	90 e0       	ldi	r25, 0x00	; 0
    26de:	9c 01       	movw	r18, r24
    26e0:	22 0f       	add	r18, r18
    26e2:	33 1f       	adc	r19, r19
    26e4:	f9 01       	movw	r30, r18
    26e6:	e7 53       	subi	r30, 0x37	; 55
    26e8:	f6 4c       	sbci	r31, 0xC6	; 198
    26ea:	7f 01       	movw	r14, r30
    26ec:	40 81       	ld	r20, Z
    26ee:	51 81       	ldd	r21, Z+1	; 0x01
    26f0:	f9 01       	movw	r30, r18
    26f2:	e9 53       	subi	r30, 0x39	; 57
    26f4:	f6 4c       	sbci	r31, 0xC6	; 198
    26f6:	60 e0       	ldi	r22, 0x00	; 0
    26f8:	80 81       	ld	r24, Z
    26fa:	91 81       	ldd	r25, Z+1	; 0x01
    26fc:	70 da       	rcall	.-2848   	; 0x1bde <FindChild>
    26fe:	d7 01       	movw	r26, r14
    2700:	8d 93       	st	X+, r24
    2702:	9c 93       	st	X, r25
                    if (route[currDepth+1]) {
    2704:	e0 91 27 38 	lds	r30, 0x3827	; 0x803827 <currDepth>
    2708:	f0 e0       	ldi	r31, 0x00	; 0
    270a:	ee 0f       	add	r30, r30
    270c:	ff 1f       	adc	r31, r31
    270e:	e7 53       	subi	r30, 0x37	; 55
    2710:	f6 4c       	sbci	r31, 0xC6	; 198
    2712:	80 81       	ld	r24, Z
    2714:	91 81       	ldd	r25, Z+1	; 0x01
    2716:	00 97       	sbiw	r24, 0x00	; 0
    2718:	09 f4       	brne	.+2      	; 0x271c <ProcessInput+0x37c>
    271a:	4a c0       	rjmp	.+148    	; 0x27b0 <ProcessInput+0x410>
                        if ((route[currDepth+1] != inventory[0])&&(route[currDepth+1] != inventory[1])) {
    271c:	20 91 31 38 	lds	r18, 0x3831	; 0x803831 <inventory>
    2720:	30 91 32 38 	lds	r19, 0x3832	; 0x803832 <inventory+0x1>
    2724:	82 17       	cp	r24, r18
    2726:	93 07       	cpc	r25, r19
    2728:	09 f4       	brne	.+2      	; 0x272c <ProcessInput+0x38c>
    272a:	42 c0       	rjmp	.+132    	; 0x27b0 <ProcessInput+0x410>
    272c:	20 91 33 38 	lds	r18, 0x3833	; 0x803833 <inventory+0x2>
    2730:	30 91 34 38 	lds	r19, 0x3834	; 0x803834 <inventory+0x3>
    2734:	82 17       	cp	r24, r18
    2736:	93 07       	cpc	r25, r19
                            PopulateObject(route[currDepth+1], &actObj1);
    2738:	d9 f1       	breq	.+118    	; 0x27b0 <ProcessInput+0x410>
    273a:	68 ec       	ldi	r22, 0xC8	; 200
    273c:	78 e3       	ldi	r23, 0x38	; 56
    273e:	84 d9       	rcall	.-3320   	; 0x1a48 <PopulateObject>
                            SetResponse(elements++, actObj1.addrStr[NAME], actObj1.lenStr[NAME],GAME);
    2740:	80 91 e2 38 	lds	r24, 0x38E2	; 0x8038e2 <actObj1.3989+0x1a>
    2744:	90 91 e3 38 	lds	r25, 0x38E3	; 0x8038e3 <actObj1.3989+0x1b>
    return 0;
}

//
void SetResponse(uint8_t number, uint16_t address, uint16_t length, uint8_t type){
    reactStr[0][number]=address;
    2748:	e6 2d       	mov	r30, r6
    274a:	f0 e0       	ldi	r31, 0x00	; 0
    274c:	df 01       	movw	r26, r30
    274e:	aa 0f       	add	r26, r26
    2750:	bb 1f       	adc	r27, r27
    2752:	a9 5f       	subi	r26, 0xF9	; 249
    2754:	b6 4c       	sbci	r27, 0xC6	; 198
    2756:	20 91 d4 38 	lds	r18, 0x38D4	; 0x8038d4 <actObj1.3989+0xc>
    275a:	30 91 d5 38 	lds	r19, 0x38D5	; 0x8038d5 <actObj1.3989+0xd>
    275e:	2d 93       	st	X+, r18
    2760:	3c 93       	st	X, r19
    reactStr[1][number]=length;
    2762:	df 01       	movw	r26, r30
    2764:	aa 0f       	add	r26, r26
    2766:	bb 1f       	adc	r27, r27
    2768:	a9 5b       	subi	r26, 0xB9	; 185
    276a:	b6 4c       	sbci	r27, 0xC6	; 198
    276c:	8d 93       	st	X+, r24
    276e:	9c 93       	st	X, r25
    reactStr[2][number]=type;
    2770:	ee 0f       	add	r30, r30
    2772:	ff 1f       	adc	r31, r31
    2774:	e9 57       	subi	r30, 0x79	; 121
    2776:	f6 4c       	sbci	r31, 0xC6	; 198
    2778:	10 82       	st	Z, r1
    277a:	11 82       	std	Z+1, r1	; 0x01
    return 0;
}

//
void SetResponse(uint8_t number, uint16_t address, uint16_t length, uint8_t type){
    reactStr[0][number]=address;
    277c:	81 e0       	ldi	r24, 0x01	; 1
    277e:	86 0d       	add	r24, r6
    2780:	90 e0       	ldi	r25, 0x00	; 0
    2782:	63 94       	inc	r6
    2784:	63 94       	inc	r6
    2786:	fc 01       	movw	r30, r24
    2788:	ee 0f       	add	r30, r30
    278a:	ff 1f       	adc	r31, r31
    278c:	e9 5f       	subi	r30, 0xF9	; 249
    278e:	f6 4c       	sbci	r31, 0xC6	; 198
    2790:	c0 82       	st	Z, r12
    2792:	d1 82       	std	Z+1, r13	; 0x01
    reactStr[1][number]=length;
    2794:	fc 01       	movw	r30, r24
    2796:	ee 0f       	add	r30, r30
    2798:	ff 1f       	adc	r31, r31
    279a:	e9 5b       	subi	r30, 0xB9	; 185
    279c:	f6 4c       	sbci	r31, 0xC6	; 198
    279e:	a0 82       	st	Z, r10
    27a0:	b1 82       	std	Z+1, r11	; 0x01
    reactStr[2][number]=type;
    27a2:	88 0f       	add	r24, r24
    27a4:	99 1f       	adc	r25, r25
    27a6:	fc 01       	movw	r30, r24
    27a8:	e9 57       	subi	r30, 0x79	; 121
    27aa:	f6 4c       	sbci	r31, 0xC6	; 198
    27ac:	80 82       	st	Z, r8
    27ae:	91 82       	std	Z+1, r9	; 0x01
                            PopulateObject(route[currDepth+1], &actObj1);
                            SetResponse(elements++, actObj1.addrStr[NAME], actObj1.lenStr[NAME],GAME);
                            SetResponse(elements++, A_COMMA, L_COMMA, TEASER);
                        }
                    }
                }while (route[currDepth+1]);
    27b0:	20 91 27 38 	lds	r18, 0x3827	; 0x803827 <currDepth>
    27b4:	82 2f       	mov	r24, r18
    27b6:	90 e0       	ldi	r25, 0x00	; 0
    27b8:	fc 01       	movw	r30, r24
    27ba:	ee 0f       	add	r30, r30
    27bc:	ff 1f       	adc	r31, r31
    27be:	e7 53       	subi	r30, 0x37	; 55
    27c0:	f6 4c       	sbci	r31, 0xC6	; 198
    27c2:	40 81       	ld	r20, Z
    27c4:	51 81       	ldd	r21, Z+1	; 0x01
    27c6:	45 2b       	or	r20, r21
    27c8:	09 f0       	breq	.+2      	; 0x27cc <ProcessInput+0x42c>
    27ca:	86 cf       	rjmp	.-244    	; 0x26d8 <ProcessInput+0x338>

                //Look back if not on level 0
                if (currDepth) {
    27cc:	22 23       	and	r18, r18
    27ce:	69 f1       	breq	.+90     	; 0x282a <ProcessInput+0x48a>
                    PopulateObject(route[currDepth-1], &actObj1);
    27d0:	88 0f       	add	r24, r24
    27d2:	99 1f       	adc	r25, r25
    27d4:	fc 01       	movw	r30, r24
    27d6:	eb 53       	subi	r30, 0x3B	; 59
    27d8:	f6 4c       	sbci	r31, 0xC6	; 198
    27da:	68 ec       	ldi	r22, 0xC8	; 200
    27dc:	78 e3       	ldi	r23, 0x38	; 56
    27de:	80 81       	ld	r24, Z
    27e0:	91 81       	ldd	r25, Z+1	; 0x01
    27e2:	32 d9       	rcall	.-3484   	; 0x1a48 <PopulateObject>
                    SetResponse(elements++, actObj1.addrStr[NAME], actObj1.lenStr[NAME],GAME);
    27e4:	20 91 e2 38 	lds	r18, 0x38E2	; 0x8038e2 <actObj1.3989+0x1a>
    27e8:	30 91 e3 38 	lds	r19, 0x38E3	; 0x8038e3 <actObj1.3989+0x1b>
    27ec:	77 24       	eor	r7, r7
    27ee:	73 94       	inc	r7
    27f0:	76 0c       	add	r7, r6
    return 0;
}

//
void SetResponse(uint8_t number, uint16_t address, uint16_t length, uint8_t type){
    reactStr[0][number]=address;
    27f2:	86 2d       	mov	r24, r6
    27f4:	90 e0       	ldi	r25, 0x00	; 0
    27f6:	fc 01       	movw	r30, r24
    27f8:	ee 0f       	add	r30, r30
    27fa:	ff 1f       	adc	r31, r31
    27fc:	e9 5f       	subi	r30, 0xF9	; 249
    27fe:	f6 4c       	sbci	r31, 0xC6	; 198
    2800:	40 91 d4 38 	lds	r20, 0x38D4	; 0x8038d4 <actObj1.3989+0xc>
    2804:	50 91 d5 38 	lds	r21, 0x38D5	; 0x8038d5 <actObj1.3989+0xd>
    2808:	40 83       	st	Z, r20
    280a:	51 83       	std	Z+1, r21	; 0x01
    reactStr[1][number]=length;
    280c:	fc 01       	movw	r30, r24
    280e:	ee 0f       	add	r30, r30
    2810:	ff 1f       	adc	r31, r31
    2812:	e9 5b       	subi	r30, 0xB9	; 185
    2814:	f6 4c       	sbci	r31, 0xC6	; 198
    2816:	20 83       	st	Z, r18
    2818:	31 83       	std	Z+1, r19	; 0x01
    reactStr[2][number]=type;
    281a:	88 0f       	add	r24, r24
    281c:	99 1f       	adc	r25, r25
    281e:	fc 01       	movw	r30, r24
    2820:	e9 57       	subi	r30, 0x79	; 121
    2822:	f6 4c       	sbci	r31, 0xC6	; 198
    2824:	10 82       	st	Z, r1
    2826:	11 82       	std	Z+1, r1	; 0x01
    2828:	9b c5       	rjmp	.+2870   	; 0x3360 <ProcessInput+0xfc0>

                //Look back if not on level 0
                if (currDepth) {
                    PopulateObject(route[currDepth-1], &actObj1);
                    SetResponse(elements++, actObj1.addrStr[NAME], actObj1.lenStr[NAME],GAME);
                } else elements-=1;
    282a:	77 24       	eor	r7, r7
    282c:	7a 94       	dec	r7
    282e:	76 0c       	add	r7, r6
    2830:	97 c5       	rjmp	.+2862   	; 0x3360 <ProcessInput+0xfc0>

            } else {
                route[currDepth+1] = FindChild(route[currDepth], data[1], 0);
    2832:	ee 2e       	mov	r14, r30
    2834:	f1 2c       	mov	r15, r1
    2836:	f7 01       	movw	r30, r14
    2838:	ee 0f       	add	r30, r30
    283a:	ff 1f       	adc	r31, r31
    283c:	e9 53       	subi	r30, 0x39	; 57
    283e:	f6 4c       	sbci	r31, 0xC6	; 198
    2840:	40 e0       	ldi	r20, 0x00	; 0
    2842:	50 e0       	ldi	r21, 0x00	; 0
    2844:	d8 01       	movw	r26, r16
    2846:	11 96       	adiw	r26, 0x01	; 1
    2848:	6c 91       	ld	r22, X
    284a:	80 81       	ld	r24, Z
    284c:	91 81       	ldd	r25, Z+1	; 0x01
    284e:	c7 d9       	rcall	.-3186   	; 0x1bde <FindChild>
    2850:	f7 01       	movw	r30, r14
    2852:	ee 0f       	add	r30, r30
    2854:	ff 1f       	adc	r31, r31
    2856:	e7 53       	subi	r30, 0x37	; 55
    2858:	f6 4c       	sbci	r31, 0xC6	; 198
    285a:	80 83       	st	Z, r24
    285c:	91 83       	std	Z+1, r25	; 0x01
                if (route[currDepth+1]) {
    285e:	90 91 27 38 	lds	r25, 0x3827	; 0x803827 <currDepth>
    2862:	29 2f       	mov	r18, r25
    2864:	30 e0       	ldi	r19, 0x00	; 0
    2866:	f9 01       	movw	r30, r18
    2868:	ee 0f       	add	r30, r30
    286a:	ff 1f       	adc	r31, r31
    286c:	e7 53       	subi	r30, 0x37	; 55
    286e:	f6 4c       	sbci	r31, 0xC6	; 198
    2870:	40 81       	ld	r20, Z
    2872:	51 81       	ldd	r21, Z+1	; 0x01
    2874:	41 15       	cp	r20, r1
    2876:	51 05       	cpc	r21, r1
    2878:	21 f0       	breq	.+8      	; 0x2882 <ProcessInput+0x4e2>
                    PopulateObject(route[currDepth+1], &actObj1);
    287a:	68 ec       	ldi	r22, 0xC8	; 200
    287c:	78 e3       	ldi	r23, 0x38	; 56
    287e:	ca 01       	movw	r24, r20
    2880:	1e c0       	rjmp	.+60     	; 0x28be <ProcessInput+0x51e>
//TODO: CHECKSTATE -> A_CANTLOOK item
                    SetResponse(elements++, actObj1.addrStr[DESC], actObj1.lenStr[DESC],GAME);   
                } else if (currDepth) {
    2882:	99 23       	and	r25, r25
    2884:	09 f4       	brne	.+2      	; 0x2888 <ProcessInput+0x4e8>
                    if (CheckLetter(route[currDepth-1], data[1])) {
    2886:	9e c5       	rjmp	.+2876   	; 0x33c4 <ProcessInput+0x1024>
    2888:	22 0f       	add	r18, r18
    288a:	33 1f       	adc	r19, r19
    288c:	f9 01       	movw	r30, r18
    288e:	eb 53       	subi	r30, 0x3B	; 59
    2890:	f6 4c       	sbci	r31, 0xC6	; 198
    2892:	d8 01       	movw	r26, r16
    2894:	11 96       	adiw	r26, 0x01	; 1
    2896:	6c 91       	ld	r22, X
    2898:	80 81       	ld	r24, Z
    289a:	91 81       	ldd	r25, Z+1	; 0x01
    289c:	4c d9       	rcall	.-3432   	; 0x1b36 <CheckLetter>
    289e:	81 11       	cpse	r24, r1
    28a0:	03 c0       	rjmp	.+6      	; 0x28a8 <ProcessInput+0x508>
}

//The game logic!
uint8_t ProcessInput(uint8_t *data){
    static object_model_t actObj1, actObj2;
    uint8_t elements = 1;
    28a2:	77 24       	eor	r7, r7
    28a4:	73 94       	inc	r7
                    PopulateObject(route[currDepth+1], &actObj1);
//TODO: CHECKSTATE -> A_CANTLOOK item
                    SetResponse(elements++, actObj1.addrStr[DESC], actObj1.lenStr[DESC],GAME);   
                } else if (currDepth) {
                    if (CheckLetter(route[currDepth-1], data[1])) {
                        PopulateObject(route[currDepth-1], &actObj1);
    28a6:	5c c5       	rjmp	.+2744   	; 0x3360 <ProcessInput+0xfc0>
    28a8:	e0 91 27 38 	lds	r30, 0x3827	; 0x803827 <currDepth>
    28ac:	f0 e0       	ldi	r31, 0x00	; 0
    28ae:	ee 0f       	add	r30, r30
    28b0:	ff 1f       	adc	r31, r31
    28b2:	eb 53       	subi	r30, 0x3B	; 59
    28b4:	f6 4c       	sbci	r31, 0xC6	; 198
    28b6:	68 ec       	ldi	r22, 0xC8	; 200
    28b8:	78 e3       	ldi	r23, 0x38	; 56
    28ba:	80 81       	ld	r24, Z
    28bc:	91 81       	ldd	r25, Z+1	; 0x01
    28be:	c4 d8       	rcall	.-3704   	; 0x1a48 <PopulateObject>
                        SetResponse(elements++, actObj1.addrStr[DESC], actObj1.lenStr[DESC],GAME);
    28c0:	80 91 e4 38 	lds	r24, 0x38E4	; 0x8038e4 <actObj1.3989+0x1c>
    28c4:	90 91 e5 38 	lds	r25, 0x38E5	; 0x8038e5 <actObj1.3989+0x1d>
    return 0;
}

//
void SetResponse(uint8_t number, uint16_t address, uint16_t length, uint8_t type){
    reactStr[0][number]=address;
    28c8:	20 91 d6 38 	lds	r18, 0x38D6	; 0x8038d6 <actObj1.3989+0xe>
    28cc:	30 91 d7 38 	lds	r19, 0x38D7	; 0x8038d7 <actObj1.3989+0xf>
    28d0:	20 93 09 39 	sts	0x3909, r18	; 0x803909 <reactStr+0x2>
    28d4:	30 93 0a 39 	sts	0x390A, r19	; 0x80390a <reactStr+0x3>
    reactStr[1][number]=length;
    28d8:	80 93 49 39 	sts	0x3949, r24	; 0x803949 <reactStr+0x42>
    28dc:	90 93 4a 39 	sts	0x394A, r25	; 0x80394a <reactStr+0x43>
    reactStr[2][number]=type;
    28e0:	10 92 89 39 	sts	0x3989, r1	; 0x803989 <reactStr+0x82>
    28e4:	10 92 8a 39 	sts	0x398A, r1	; 0x80398a <reactStr+0x83>
    28e8:	2a ce       	rjmp	.-940    	; 0x253e <ProcessInput+0x19e>
                    SetResponse(elements++, A_DONTSEE, L_DONTSEE, TEASER);
                }
            }
        
        //Pick up an object
        } else if (data[0] == 'p') {
    28ea:	80 37       	cpi	r24, 0x70	; 112
    28ec:	09 f0       	breq	.+2      	; 0x28f0 <ProcessInput+0x550>
    28ee:	96 c0       	rjmp	.+300    	; 0x2a1c <ProcessInput+0x67c>
            if (inventory[0]&&inventory[1]) {
    28f0:	80 91 31 38 	lds	r24, 0x3831	; 0x803831 <inventory>
    28f4:	90 91 32 38 	lds	r25, 0x3832	; 0x803832 <inventory+0x1>
    28f8:	89 2b       	or	r24, r25
    28fa:	79 f0       	breq	.+30     	; 0x291a <ProcessInput+0x57a>
    28fc:	80 91 33 38 	lds	r24, 0x3833	; 0x803833 <inventory+0x2>
    2900:	90 91 34 38 	lds	r25, 0x3834	; 0x803834 <inventory+0x3>
    2904:	89 2b       	or	r24, r25
    2906:	49 f0       	breq	.+18     	; 0x291a <ProcessInput+0x57a>
    return 0;
}

//
void SetResponse(uint8_t number, uint16_t address, uint16_t length, uint8_t type){
    reactStr[0][number]=address;
    2908:	85 e4       	ldi	r24, 0x45	; 69
    290a:	98 e7       	ldi	r25, 0x78	; 120
    290c:	80 93 09 39 	sts	0x3909, r24	; 0x803909 <reactStr+0x2>
    2910:	90 93 0a 39 	sts	0x390A, r25	; 0x80390a <reactStr+0x3>
    reactStr[1][number]=length;
    2914:	89 e5       	ldi	r24, 0x59	; 89
    2916:	90 e0       	ldi	r25, 0x00	; 0
    2918:	08 ce       	rjmp	.-1008   	; 0x252a <ProcessInput+0x18a>
        
        //Pick up an object
        } else if (data[0] == 'p') {
            if (inventory[0]&&inventory[1]) {
                SetResponse(elements++, A_CARRYTWO, L_CARRYTWO, TEASER);
            } else if (inputLen != 2) {
    291a:	b2 e0       	ldi	r27, 0x02	; 2
    291c:	fb 12       	cpse	r15, r27
    291e:	70 cd       	rjmp	.-1312   	; 0x2400 <ProcessInput+0x60>
                SetResponse(elements++, A_NOTPOSSIBLE, L_NOTPOSSIBLE, TEASER);
            } else {
                route[currDepth+1] = FindChild(route[currDepth], data[1], 0);
    2920:	e0 90 27 38 	lds	r14, 0x3827	; 0x803827 <currDepth>
    2924:	f1 2c       	mov	r15, r1
    2926:	f7 01       	movw	r30, r14
    2928:	ee 0f       	add	r30, r30
    292a:	ff 1f       	adc	r31, r31
    292c:	e9 53       	subi	r30, 0x39	; 57
    292e:	f6 4c       	sbci	r31, 0xC6	; 198
    2930:	40 e0       	ldi	r20, 0x00	; 0
    2932:	50 e0       	ldi	r21, 0x00	; 0
    2934:	d8 01       	movw	r26, r16
    2936:	11 96       	adiw	r26, 0x01	; 1
    2938:	6c 91       	ld	r22, X
    293a:	80 81       	ld	r24, Z
    293c:	91 81       	ldd	r25, Z+1	; 0x01
    293e:	4f d9       	rcall	.-3426   	; 0x1bde <FindChild>
    2940:	f7 01       	movw	r30, r14
    2942:	ee 0f       	add	r30, r30
    2944:	ff 1f       	adc	r31, r31
    2946:	e7 53       	subi	r30, 0x37	; 55
    2948:	f6 4c       	sbci	r31, 0xC6	; 198
    294a:	80 83       	st	Z, r24
    294c:	91 83       	std	Z+1, r25	; 0x01
                if (route[currDepth+1]) {
    294e:	20 91 27 38 	lds	r18, 0x3827	; 0x803827 <currDepth>
    2952:	30 e0       	ldi	r19, 0x00	; 0
    2954:	2f 5f       	subi	r18, 0xFF	; 255
    2956:	3f 4f       	sbci	r19, 0xFF	; 255
    2958:	22 0f       	add	r18, r18
    295a:	33 1f       	adc	r19, r19
    295c:	f9 01       	movw	r30, r18
    295e:	e9 53       	subi	r30, 0x39	; 57
    2960:	f6 4c       	sbci	r31, 0xC6	; 198
    2962:	80 81       	ld	r24, Z
    2964:	91 81       	ldd	r25, Z+1	; 0x01
    2966:	00 97       	sbiw	r24, 0x00	; 0
    2968:	09 f4       	brne	.+2      	; 0x296c <ProcessInput+0x5cc>
    296a:	ca c3       	rjmp	.+1940   	; 0x3100 <ProcessInput+0xd60>
                    if ((route[currDepth+1] == inventory[0])||(route[currDepth+1] == inventory[1])) {
    296c:	40 91 31 38 	lds	r20, 0x3831	; 0x803831 <inventory>
    2970:	50 91 32 38 	lds	r21, 0x3832	; 0x803832 <inventory+0x1>
    2974:	84 17       	cp	r24, r20
    2976:	95 07       	cpc	r25, r21
    2978:	39 f0       	breq	.+14     	; 0x2988 <ProcessInput+0x5e8>
    297a:	40 91 33 38 	lds	r20, 0x3833	; 0x803833 <inventory+0x2>
    297e:	50 91 34 38 	lds	r21, 0x3834	; 0x803834 <inventory+0x3>
    2982:	84 17       	cp	r24, r20
    2984:	95 07       	cpc	r25, r21
    2986:	c1 f4       	brne	.+48     	; 0x29b8 <ProcessInput+0x618>
    return 0;
}

//
void SetResponse(uint8_t number, uint16_t address, uint16_t length, uint8_t type){
    reactStr[0][number]=address;
    2988:	80 e2       	ldi	r24, 0x20	; 32
    298a:	98 e7       	ldi	r25, 0x78	; 120
    298c:	80 93 09 39 	sts	0x3909, r24	; 0x803909 <reactStr+0x2>
    2990:	90 93 0a 39 	sts	0x390A, r25	; 0x80390a <reactStr+0x3>
    reactStr[1][number]=length;
    2994:	85 e2       	ldi	r24, 0x25	; 37
    2996:	90 e0       	ldi	r25, 0x00	; 0
    2998:	80 93 49 39 	sts	0x3949, r24	; 0x803949 <reactStr+0x42>
    299c:	90 93 4a 39 	sts	0x394A, r25	; 0x80394a <reactStr+0x43>
    reactStr[2][number]=type;
    29a0:	81 e0       	ldi	r24, 0x01	; 1
    29a2:	90 e0       	ldi	r25, 0x00	; 0
    29a4:	80 93 89 39 	sts	0x3989, r24	; 0x803989 <reactStr+0x82>
    29a8:	90 93 8a 39 	sts	0x398A, r25	; 0x80398a <reactStr+0x83>
            } else {
                route[currDepth+1] = FindChild(route[currDepth], data[1], 0);
                if (route[currDepth+1]) {
                    if ((route[currDepth+1] == inventory[0])||(route[currDepth+1] == inventory[1])) {
                        SetResponse(elements++, A_ALREADYCARRYING, L_ALREADYCARRYING, TEASER);
                        route[currDepth+1] = 0;
    29ac:	f9 01       	movw	r30, r18
    29ae:	e9 53       	subi	r30, 0x39	; 57
    29b0:	f6 4c       	sbci	r31, 0xC6	; 198
    29b2:	10 82       	st	Z, r1
    29b4:	11 82       	std	Z+1, r1	; 0x01
                    } else {
                        //Put item in the inventory if possible
                        PopulateObject(route[currDepth+1], &actObj1);  
    29b6:	c3 cd       	rjmp	.-1146   	; 0x253e <ProcessInput+0x19e>
    29b8:	68 ec       	ldi	r22, 0xC8	; 200
    29ba:	78 e3       	ldi	r23, 0x38	; 56
    29bc:	45 d8       	rcall	.-3958   	; 0x1a48 <PopulateObject>
                        if (CheckState(actObj1.byteField[ACTION_ACL])) {
    29be:	80 91 cf 38 	lds	r24, 0x38CF	; 0x8038cf <actObj1.3989+0x7>
    29c2:	0e 94 ef 08 	call	0x11de	; 0x11de <CheckState>
    29c6:	88 23       	and	r24, r24
    29c8:	09 f4       	brne	.+2      	; 0x29cc <ProcessInput+0x62c>
    29ca:	75 c3       	rjmp	.+1770   	; 0x30b6 <ProcessInput+0xd16>
                            if (actObj1.byteField[ITEM_NR]) {
    29cc:	80 91 d3 38 	lds	r24, 0x38D3	; 0x8038d3 <actObj1.3989+0xb>
    29d0:	88 23       	and	r24, r24
    29d2:	09 f4       	brne	.+2      	; 0x29d6 <ProcessInput+0x636>
    29d4:	15 cd       	rjmp	.-1494   	; 0x2400 <ProcessInput+0x60>
                                if (inventory[0]) {
    29d6:	80 91 31 38 	lds	r24, 0x3831	; 0x803831 <inventory>
    29da:	90 91 32 38 	lds	r25, 0x3832	; 0x803832 <inventory+0x1>
    29de:	e0 91 27 38 	lds	r30, 0x3827	; 0x803827 <currDepth>
                                    inventory[1] = route[currDepth+1];
    29e2:	f0 e0       	ldi	r31, 0x00	; 0
    29e4:	ee 0f       	add	r30, r30
    29e6:	ff 1f       	adc	r31, r31
    29e8:	e7 53       	subi	r30, 0x37	; 55
    29ea:	f6 4c       	sbci	r31, 0xC6	; 198
                    } else {
                        //Put item in the inventory if possible
                        PopulateObject(route[currDepth+1], &actObj1);  
                        if (CheckState(actObj1.byteField[ACTION_ACL])) {
                            if (actObj1.byteField[ITEM_NR]) {
                                if (inventory[0]) {
    29ec:	89 2b       	or	r24, r25
    29ee:	39 f0       	breq	.+14     	; 0x29fe <ProcessInput+0x65e>
                                    inventory[1] = route[currDepth+1];
    29f0:	80 81       	ld	r24, Z
    29f2:	91 81       	ldd	r25, Z+1	; 0x01
    29f4:	80 93 33 38 	sts	0x3833, r24	; 0x803833 <inventory+0x2>
    29f8:	90 93 34 38 	sts	0x3834, r25	; 0x803834 <inventory+0x3>
    29fc:	06 c0       	rjmp	.+12     	; 0x2a0a <ProcessInput+0x66a>
                                } else {
                                    inventory[0] = route[currDepth+1];
    29fe:	80 81       	ld	r24, Z
    2a00:	91 81       	ldd	r25, Z+1	; 0x01
    2a02:	80 93 31 38 	sts	0x3831, r24	; 0x803831 <inventory>
    2a06:	90 93 32 38 	sts	0x3832, r25	; 0x803832 <inventory+0x1>
    return 0;
}

//
void SetResponse(uint8_t number, uint16_t address, uint16_t length, uint8_t type){
    reactStr[0][number]=address;
    2a0a:	8a e0       	ldi	r24, 0x0A	; 10
    2a0c:	98 e7       	ldi	r25, 0x78	; 120
    2a0e:	80 93 09 39 	sts	0x3909, r24	; 0x803909 <reactStr+0x2>
    2a12:	90 93 0a 39 	sts	0x390A, r25	; 0x80390a <reactStr+0x3>
    reactStr[1][number]=length;
    2a16:	86 e1       	ldi	r24, 0x16	; 22
    2a18:	90 e0       	ldi	r25, 0x00	; 0
    2a1a:	5e c2       	rjmp	.+1212   	; 0x2ed8 <ProcessInput+0xb38>
                } else SetResponse(elements++, A_NOSUCHOBJECT, L_NOSUCHOBJECT, TEASER);
            }
        } else

        //Drop item if in inventory
        if (data[0] == 'd') {
    2a1c:	84 36       	cpi	r24, 0x64	; 100
    2a1e:	d9 f4       	brne	.+54     	; 0x2a56 <ProcessInput+0x6b6>
            if ((inventory[0] == 0)&&(inventory[1] == 0)){
    2a20:	80 91 31 38 	lds	r24, 0x3831	; 0x803831 <inventory>
    2a24:	90 91 32 38 	lds	r25, 0x3832	; 0x803832 <inventory+0x1>
    2a28:	00 97       	sbiw	r24, 0x00	; 0
    2a2a:	09 f0       	breq	.+2      	; 0x2a2e <ProcessInput+0x68e>
    2a2c:	ce c4       	rjmp	.+2460   	; 0x33ca <ProcessInput+0x102a>
    2a2e:	80 91 33 38 	lds	r24, 0x3833	; 0x803833 <inventory+0x2>
    2a32:	90 91 34 38 	lds	r25, 0x3834	; 0x803834 <inventory+0x3>
    2a36:	89 2b       	or	r24, r25
    2a38:	49 f4       	brne	.+18     	; 0x2a4c <ProcessInput+0x6ac>
    return 0;
}

//
void SetResponse(uint8_t number, uint16_t address, uint16_t length, uint8_t type){
    reactStr[0][number]=address;
    2a3a:	84 ee       	ldi	r24, 0xE4	; 228
    2a3c:	97 e7       	ldi	r25, 0x77	; 119
    2a3e:	80 93 09 39 	sts	0x3909, r24	; 0x803909 <reactStr+0x2>
    2a42:	90 93 0a 39 	sts	0x390A, r25	; 0x80390a <reactStr+0x3>
    reactStr[1][number]=length;
    2a46:	86 e2       	ldi	r24, 0x26	; 38
    2a48:	90 e0       	ldi	r25, 0x00	; 0
    2a4a:	6f cd       	rjmp	.-1314   	; 0x252a <ProcessInput+0x18a>

        //Drop item if in inventory
        if (data[0] == 'd') {
            if ((inventory[0] == 0)&&(inventory[1] == 0)){
                SetResponse(elements++, A_EMPTYHANDS, L_EMPTYHANDS, TEASER);
            } else if (inputLen != 2) {
    2a4c:	b2 e0       	ldi	r27, 0x02	; 2
    2a4e:	fb 16       	cp	r15, r27
    2a50:	09 f4       	brne	.+2      	; 0x2a54 <ProcessInput+0x6b4>
    2a52:	21 c5       	rjmp	.+2626   	; 0x3496 <ProcessInput+0x10f6>
    2a54:	d5 cc       	rjmp	.-1622   	; 0x2400 <ProcessInput+0x60>
                    if (x) SetResponse(elements++, A_NOTCARRYING, L_NOTCARRYING, TEASER);
                }
            }

        //Inventory list
        } else if (data[0] == 'i') {
    2a56:	89 36       	cpi	r24, 0x69	; 105
    2a58:	09 f0       	breq	.+2      	; 0x2a5c <ProcessInput+0x6bc>
    2a5a:	7b c0       	rjmp	.+246    	; 0x2b52 <ProcessInput+0x7b2>
            if ((inventory[0] == 0)&&(inventory[1] == 0)){
    2a5c:	80 91 31 38 	lds	r24, 0x3831	; 0x803831 <inventory>
    2a60:	90 91 32 38 	lds	r25, 0x3832	; 0x803832 <inventory+0x1>
    2a64:	89 2b       	or	r24, r25
    2a66:	31 f4       	brne	.+12     	; 0x2a74 <ProcessInput+0x6d4>
    2a68:	80 91 33 38 	lds	r24, 0x3833	; 0x803833 <inventory+0x2>
    2a6c:	90 91 34 38 	lds	r25, 0x3834	; 0x803834 <inventory+0x3>
    2a70:	89 2b       	or	r24, r25
    2a72:	19 f3       	breq	.-58     	; 0x2a3a <ProcessInput+0x69a>
    return 0;
}

//
void SetResponse(uint8_t number, uint16_t address, uint16_t length, uint8_t type){
    reactStr[0][number]=address;
    2a74:	8a e0       	ldi	r24, 0x0A	; 10
    2a76:	98 e7       	ldi	r25, 0x78	; 120
    2a78:	80 93 09 39 	sts	0x3909, r24	; 0x803909 <reactStr+0x2>
    2a7c:	90 93 0a 39 	sts	0x390A, r25	; 0x80390a <reactStr+0x3>
    reactStr[1][number]=length;
    2a80:	86 e1       	ldi	r24, 0x16	; 22
    2a82:	90 e0       	ldi	r25, 0x00	; 0
    2a84:	80 93 49 39 	sts	0x3949, r24	; 0x803949 <reactStr+0x42>
    2a88:	90 93 4a 39 	sts	0x394A, r25	; 0x80394a <reactStr+0x43>
    reactStr[2][number]=type;
    2a8c:	81 e0       	ldi	r24, 0x01	; 1
    2a8e:	90 e0       	ldi	r25, 0x00	; 0
    2a90:	80 93 89 39 	sts	0x3989, r24	; 0x803989 <reactStr+0x82>
    2a94:	90 93 8a 39 	sts	0x398A, r25	; 0x80398a <reactStr+0x83>
    2a98:	21 e3       	ldi	r18, 0x31	; 49
    2a9a:	e2 2e       	mov	r14, r18
    2a9c:	28 e3       	ldi	r18, 0x38	; 56
    2a9e:	f2 2e       	mov	r15, r18
    2aa0:	35 e3       	ldi	r19, 0x35	; 53
    2aa2:	63 2e       	mov	r6, r19
    2aa4:	38 e3       	ldi	r19, 0x38	; 56
    2aa6:	73 2e       	mov	r7, r19
        //Inventory list
        } else if (data[0] == 'i') {
            if ((inventory[0] == 0)&&(inventory[1] == 0)){
                SetResponse(elements++, A_EMPTYHANDS, L_EMPTYHANDS, TEASER);
            } else {
                SetResponse(elements++, A_NOWCARRING, L_NOWCARRING, TEASER);
    2aa8:	42 e0       	ldi	r20, 0x02	; 2
    2aaa:	54 2e       	mov	r5, r20
    return 0;
}

//
void SetResponse(uint8_t number, uint16_t address, uint16_t length, uint8_t type){
    reactStr[0][number]=address;
    2aac:	59 e5       	ldi	r21, 0x59	; 89
    2aae:	c5 2e       	mov	r12, r21
    2ab0:	5a e7       	ldi	r21, 0x7A	; 122
    2ab2:	d5 2e       	mov	r13, r21
    reactStr[1][number]=length;
    2ab4:	62 e0       	ldi	r22, 0x02	; 2
    2ab6:	a6 2e       	mov	r10, r22
    2ab8:	b1 2c       	mov	r11, r1
    reactStr[2][number]=type;
    2aba:	88 24       	eor	r8, r8
    2abc:	83 94       	inc	r8
    2abe:	91 2c       	mov	r9, r1
            } else {
                SetResponse(elements++, A_NOWCARRING, L_NOWCARRING, TEASER);
                //SetResponse(elements++, A_SPACE, L_SPACE, TEASER);
                
                for (uint8_t x=0; x<2; ++x) {
                    if (inventory[x]) {
    2ac0:	d7 01       	movw	r26, r14
    2ac2:	8d 91       	ld	r24, X+
    2ac4:	9d 91       	ld	r25, X+
    2ac6:	7d 01       	movw	r14, r26
    2ac8:	00 97       	sbiw	r24, 0x00	; 0
    2aca:	d9 f1       	breq	.+118    	; 0x2b42 <ProcessInput+0x7a2>
                        PopulateObject(inventory[x], &actObj1);
    2acc:	68 ec       	ldi	r22, 0xC8	; 200
    2ace:	78 e3       	ldi	r23, 0x38	; 56
    2ad0:	0e 94 24 0d 	call	0x1a48	; 0x1a48 <PopulateObject>
                        SetResponse(elements++, actObj1.addrStr[NAME], actObj1.lenStr[NAME], GAME);
    2ad4:	80 91 e2 38 	lds	r24, 0x38E2	; 0x8038e2 <actObj1.3989+0x1a>
    2ad8:	90 91 e3 38 	lds	r25, 0x38E3	; 0x8038e3 <actObj1.3989+0x1b>
    return 0;
}

//
void SetResponse(uint8_t number, uint16_t address, uint16_t length, uint8_t type){
    reactStr[0][number]=address;
    2adc:	e5 2d       	mov	r30, r5
    2ade:	f0 e0       	ldi	r31, 0x00	; 0
    2ae0:	df 01       	movw	r26, r30
    2ae2:	aa 0f       	add	r26, r26
    2ae4:	bb 1f       	adc	r27, r27
    2ae6:	a9 5f       	subi	r26, 0xF9	; 249
    2ae8:	b6 4c       	sbci	r27, 0xC6	; 198
    2aea:	20 91 d4 38 	lds	r18, 0x38D4	; 0x8038d4 <actObj1.3989+0xc>
    2aee:	30 91 d5 38 	lds	r19, 0x38D5	; 0x8038d5 <actObj1.3989+0xd>
    2af2:	2d 93       	st	X+, r18
    2af4:	3c 93       	st	X, r19
    reactStr[1][number]=length;
    2af6:	df 01       	movw	r26, r30
    2af8:	aa 0f       	add	r26, r26
    2afa:	bb 1f       	adc	r27, r27
    2afc:	a9 5b       	subi	r26, 0xB9	; 185
    2afe:	b6 4c       	sbci	r27, 0xC6	; 198
    2b00:	8d 93       	st	X+, r24
    2b02:	9c 93       	st	X, r25
    reactStr[2][number]=type;
    2b04:	ee 0f       	add	r30, r30
    2b06:	ff 1f       	adc	r31, r31
    2b08:	e9 57       	subi	r30, 0x79	; 121
    2b0a:	f6 4c       	sbci	r31, 0xC6	; 198
    2b0c:	10 82       	st	Z, r1
    2b0e:	11 82       	std	Z+1, r1	; 0x01
    return 0;
}

//
void SetResponse(uint8_t number, uint16_t address, uint16_t length, uint8_t type){
    reactStr[0][number]=address;
    2b10:	e1 e0       	ldi	r30, 0x01	; 1
    2b12:	e5 0d       	add	r30, r5
    2b14:	f0 e0       	ldi	r31, 0x00	; 0
    2b16:	53 94       	inc	r5
    2b18:	53 94       	inc	r5
    2b1a:	df 01       	movw	r26, r30
    2b1c:	aa 0f       	add	r26, r26
    2b1e:	bb 1f       	adc	r27, r27
    2b20:	a9 5f       	subi	r26, 0xF9	; 249
    2b22:	b6 4c       	sbci	r27, 0xC6	; 198
    2b24:	cd 92       	st	X+, r12
    2b26:	dc 92       	st	X, r13
    reactStr[1][number]=length;
    2b28:	df 01       	movw	r26, r30
    2b2a:	aa 0f       	add	r26, r26
    2b2c:	bb 1f       	adc	r27, r27
    2b2e:	a9 5b       	subi	r26, 0xB9	; 185
    2b30:	b6 4c       	sbci	r27, 0xC6	; 198
    2b32:	ad 92       	st	X+, r10
    2b34:	bc 92       	st	X, r11
    reactStr[2][number]=type;
    2b36:	ee 0f       	add	r30, r30
    2b38:	ff 1f       	adc	r31, r31
    2b3a:	e9 57       	subi	r30, 0x79	; 121
    2b3c:	f6 4c       	sbci	r31, 0xC6	; 198
    2b3e:	80 82       	st	Z, r8
    2b40:	91 82       	std	Z+1, r9	; 0x01
                SetResponse(elements++, A_EMPTYHANDS, L_EMPTYHANDS, TEASER);
            } else {
                SetResponse(elements++, A_NOWCARRING, L_NOWCARRING, TEASER);
                //SetResponse(elements++, A_SPACE, L_SPACE, TEASER);
                
                for (uint8_t x=0; x<2; ++x) {
    2b42:	6e 14       	cp	r6, r14
    2b44:	7f 04       	cpc	r7, r15
    2b46:	09 f0       	breq	.+2      	; 0x2b4a <ProcessInput+0x7aa>
    2b48:	bb cf       	rjmp	.-138    	; 0x2ac0 <ProcessInput+0x720>
                        SetResponse(elements++, actObj1.addrStr[NAME], actObj1.lenStr[NAME], GAME);
                        SetResponse(elements++, A_COMMA, L_COMMA, TEASER);
                        //SetResponse(elements++, A_SPACE, L_SPACE, TEASER);
                    }
                }
                elements -= 1;
    2b4a:	77 24       	eor	r7, r7
    2b4c:	7a 94       	dec	r7
    2b4e:	75 0c       	add	r7, r5
    2b50:	07 c4       	rjmp	.+2062   	; 0x3360 <ProcessInput+0xfc0>
            }            
        
        //Talk, use, give, read
        } else if ((data[0] == 't')||(data[0] == 'u')||(data[0] == 'g')||(data[0] == 'r')) {
    2b52:	9c e8       	ldi	r25, 0x8C	; 140
    2b54:	98 0f       	add	r25, r24
    2b56:	92 30       	cpi	r25, 0x02	; 2
    2b58:	28 f0       	brcs	.+10     	; 0x2b64 <ProcessInput+0x7c4>
    2b5a:	87 36       	cpi	r24, 0x67	; 103
    2b5c:	19 f0       	breq	.+6      	; 0x2b64 <ProcessInput+0x7c4>
    2b5e:	82 37       	cpi	r24, 0x72	; 114
    2b60:	09 f0       	breq	.+2      	; 0x2b64 <ProcessInput+0x7c4>
    2b62:	d7 c2       	rjmp	.+1454   	; 0x3112 <ProcessInput+0xd72>
            if ((inputLen<2)||(inputLen>3)) {
    2b64:	8e ef       	ldi	r24, 0xFE	; 254
    2b66:	8f 0d       	add	r24, r15
    2b68:	82 30       	cpi	r24, 0x02	; 2
    2b6a:	08 f0       	brcs	.+2      	; 0x2b6e <ProcessInput+0x7ce>
    2b6c:	49 cc       	rjmp	.-1902   	; 0x2400 <ProcessInput+0x60>
                SetResponse(elements++, A_NOTPOSSIBLE, L_NOTPOSSIBLE, TEASER);                
            
            //Check for visible person or object first
            } else {
                route[currDepth+1] = FindChild(route[currDepth], data[inputLen-1], 0);
    2b6e:	e0 91 27 38 	lds	r30, 0x3827	; 0x803827 <currDepth>
    2b72:	ce 2e       	mov	r12, r30
    2b74:	d1 2c       	mov	r13, r1
    2b76:	d8 01       	movw	r26, r16
    2b78:	af 0d       	add	r26, r15
    2b7a:	b1 1d       	adc	r27, r1
    2b7c:	11 97       	sbiw	r26, 0x01	; 1
    2b7e:	f6 01       	movw	r30, r12
    2b80:	ee 0f       	add	r30, r30
    2b82:	ff 1f       	adc	r31, r31
    2b84:	e9 53       	subi	r30, 0x39	; 57
    2b86:	f6 4c       	sbci	r31, 0xC6	; 198
    2b88:	40 e0       	ldi	r20, 0x00	; 0
    2b8a:	50 e0       	ldi	r21, 0x00	; 0
    2b8c:	6c 91       	ld	r22, X
    2b8e:	80 81       	ld	r24, Z
    2b90:	91 81       	ldd	r25, Z+1	; 0x01
    2b92:	25 d8       	rcall	.-4022   	; 0x1bde <FindChild>
    2b94:	f6 01       	movw	r30, r12
    2b96:	ee 0f       	add	r30, r30
    2b98:	ff 1f       	adc	r31, r31
    2b9a:	e7 53       	subi	r30, 0x37	; 55
    2b9c:	f6 4c       	sbci	r31, 0xC6	; 198
    2b9e:	80 83       	st	Z, r24
    2ba0:	91 83       	std	Z+1, r25	; 0x01
                if (route[currDepth+1]) {
    2ba2:	e0 91 27 38 	lds	r30, 0x3827	; 0x803827 <currDepth>
    2ba6:	f0 e0       	ldi	r31, 0x00	; 0
    2ba8:	ee 0f       	add	r30, r30
    2baa:	ff 1f       	adc	r31, r31
    2bac:	e7 53       	subi	r30, 0x37	; 55
    2bae:	f6 4c       	sbci	r31, 0xC6	; 198
    2bb0:	80 81       	ld	r24, Z
    2bb2:	91 81       	ldd	r25, Z+1	; 0x01
    2bb4:	00 97       	sbiw	r24, 0x00	; 0
    2bb6:	09 f4       	brne	.+2      	; 0x2bba <ProcessInput+0x81a>
    2bb8:	9a c2       	rjmp	.+1332   	; 0x30ee <ProcessInput+0xd4e>
                    
                    //Give item to person / use item on object 
                    if ((inputLen == 3)&&((data[0] == 'u')||(data[0] == 'g'))) {
    2bba:	b3 e0       	ldi	r27, 0x03	; 3
    2bbc:	fb 12       	cpse	r15, r27
    2bbe:	78 c1       	rjmp	.+752    	; 0x2eb0 <ProcessInput+0xb10>
    2bc0:	f8 01       	movw	r30, r16
    2bc2:	20 81       	ld	r18, Z
    2bc4:	25 37       	cpi	r18, 0x75	; 117
    2bc6:	19 f0       	breq	.+6      	; 0x2bce <ProcessInput+0x82e>
    2bc8:	27 36       	cpi	r18, 0x67	; 103
    2bca:	09 f0       	breq	.+2      	; 0x2bce <ProcessInput+0x82e>
    2bcc:	71 c1       	rjmp	.+738    	; 0x2eb0 <ProcessInput+0xb10>
    2bce:	61 2c       	mov	r6, r1
    2bd0:	77 24       	eor	r7, r7
    2bd2:	73 94       	inc	r7
    return 0;
}

//
void SetResponse(uint8_t number, uint16_t address, uint16_t length, uint8_t type){
    reactStr[0][number]=address;
    2bd4:	54 e6       	ldi	r21, 0x64	; 100
    2bd6:	c5 2e       	mov	r12, r21
    2bd8:	59 e7       	ldi	r21, 0x79	; 121
    2bda:	d5 2e       	mov	r13, r21
    reactStr[1][number]=length;
    2bdc:	61 e2       	ldi	r22, 0x21	; 33
    2bde:	a6 2e       	mov	r10, r22
    2be0:	b1 2c       	mov	r11, r1
    reactStr[2][number]=type;
    2be2:	88 24       	eor	r8, r8
    2be4:	83 94       	inc	r8
    2be6:	91 2c       	mov	r9, r1
                if (route[currDepth+1]) {
                    
                    //Give item to person / use item on object 
                    if ((inputLen == 3)&&((data[0] == 'u')||(data[0] == 'g'))) {
                        for (uint8_t x=0; x<2; x++) {
                            if (inventory[x]) { 
    2be8:	e6 2c       	mov	r14, r6
    2bea:	f1 2c       	mov	r15, r1
    2bec:	c7 01       	movw	r24, r14
    2bee:	88 0f       	add	r24, r24
    2bf0:	99 1f       	adc	r25, r25
    2bf2:	9c 01       	movw	r18, r24
    2bf4:	2f 5c       	subi	r18, 0xCF	; 207
    2bf6:	37 4c       	sbci	r19, 0xC7	; 199
    2bf8:	79 01       	movw	r14, r18
    2bfa:	d9 01       	movw	r26, r18
    2bfc:	8d 91       	ld	r24, X+
    2bfe:	9c 91       	ld	r25, X
    2c00:	00 97       	sbiw	r24, 0x00	; 0
    2c02:	81 f0       	breq	.+32     	; 0x2c24 <ProcessInput+0x884>
                                if (CheckLetter(inventory[x], data[1])) {
    2c04:	f8 01       	movw	r30, r16
    2c06:	61 81       	ldd	r22, Z+1	; 0x01
    2c08:	0e 94 9b 0d 	call	0x1b36	; 0x1b36 <CheckLetter>
    2c0c:	88 23       	and	r24, r24
    2c0e:	51 f0       	breq	.+20     	; 0x2c24 <ProcessInput+0x884>
                                    PopulateObject(inventory[x], &actObj2);
    2c10:	6d e9       	ldi	r22, 0x9D	; 157
    2c12:	78 e3       	ldi	r23, 0x38	; 56
    2c14:	d7 01       	movw	r26, r14
    2c16:	8d 91       	ld	r24, X+
    2c18:	9c 91       	ld	r25, X
    2c1a:	0e 94 24 0d 	call	0x1a48	; 0x1a48 <PopulateObject>
                                    x = 2;
    2c1e:	32 e0       	ldi	r19, 0x02	; 2
    2c20:	63 2e       	mov	r6, r19
    2c22:	1e c0       	rjmp	.+60     	; 0x2c60 <ProcessInput+0x8c0>
                                }
                            }
                            if (x == 1) { 
    2c24:	b1 e0       	ldi	r27, 0x01	; 1
    2c26:	6b 12       	cpse	r6, r27
    2c28:	1a c0       	rjmp	.+52     	; 0x2c5e <ProcessInput+0x8be>
    return 0;
}

//
void SetResponse(uint8_t number, uint16_t address, uint16_t length, uint8_t type){
    reactStr[0][number]=address;
    2c2a:	e7 2d       	mov	r30, r7
    2c2c:	f0 e0       	ldi	r31, 0x00	; 0
    2c2e:	df 01       	movw	r26, r30
    2c30:	aa 0f       	add	r26, r26
    2c32:	bb 1f       	adc	r27, r27
    2c34:	a9 5f       	subi	r26, 0xF9	; 249
    2c36:	b6 4c       	sbci	r27, 0xC6	; 198
    2c38:	cd 92       	st	X+, r12
    2c3a:	dc 92       	st	X, r13
    reactStr[1][number]=length;
    2c3c:	df 01       	movw	r26, r30
    2c3e:	aa 0f       	add	r26, r26
    2c40:	bb 1f       	adc	r27, r27
    2c42:	a9 5b       	subi	r26, 0xB9	; 185
    2c44:	b6 4c       	sbci	r27, 0xC6	; 198
    2c46:	ad 92       	st	X+, r10
    2c48:	bc 92       	st	X, r11
    reactStr[2][number]=type;
    2c4a:	ee 0f       	add	r30, r30
    2c4c:	ff 1f       	adc	r31, r31
    2c4e:	e9 57       	subi	r30, 0x79	; 121
    2c50:	f6 4c       	sbci	r31, 0xC6	; 198
    2c52:	80 82       	st	Z, r8
    2c54:	91 82       	std	Z+1, r9	; 0x01
                                    x = 2;
                                }
                            }
                            if (x == 1) { 
                                SetResponse(elements++, A_NOTCARRYING, L_NOTCARRYING, TEASER);
                                data[0] = 0;
    2c56:	f8 01       	movw	r30, r16
    2c58:	10 82       	st	Z, r1
                                    PopulateObject(inventory[x], &actObj2);
                                    x = 2;
                                }
                            }
                            if (x == 1) { 
                                SetResponse(elements++, A_NOTCARRYING, L_NOTCARRYING, TEASER);
    2c5a:	73 94       	inc	r7
    2c5c:	01 c0       	rjmp	.+2      	; 0x2c60 <ProcessInput+0x8c0>
    2c5e:	61 2c       	mov	r6, r1
                route[currDepth+1] = FindChild(route[currDepth], data[inputLen-1], 0);
                if (route[currDepth+1]) {
                    
                    //Give item to person / use item on object 
                    if ((inputLen == 3)&&((data[0] == 'u')||(data[0] == 'g'))) {
                        for (uint8_t x=0; x<2; x++) {
    2c60:	63 94       	inc	r6
    2c62:	f1 e0       	ldi	r31, 0x01	; 1
    2c64:	6f 16       	cp	r6, r31
    2c66:	09 f4       	brne	.+2      	; 0x2c6a <ProcessInput+0x8ca>
    2c68:	bf cf       	rjmp	.-130    	; 0x2be8 <ProcessInput+0x848>
                                data[0] = 0;
                            }
                        }

                        //Both the item and person/object are found, check if action is legit
                        if (data[0]){
    2c6a:	d8 01       	movw	r26, r16
    2c6c:	8c 91       	ld	r24, X
    2c6e:	88 23       	and	r24, r24
    2c70:	09 f4       	brne	.+2      	; 0x2c74 <ProcessInput+0x8d4>
    2c72:	76 c3       	rjmp	.+1772   	; 0x3360 <ProcessInput+0xfc0>
                            PopulateObject(route[currDepth+1], &actObj1);
    2c74:	e0 91 27 38 	lds	r30, 0x3827	; 0x803827 <currDepth>
    2c78:	f0 e0       	ldi	r31, 0x00	; 0
    2c7a:	ee 0f       	add	r30, r30
    2c7c:	ff 1f       	adc	r31, r31
    2c7e:	e7 53       	subi	r30, 0x37	; 55
    2c80:	f6 4c       	sbci	r31, 0xC6	; 198
    2c82:	68 ec       	ldi	r22, 0xC8	; 200
    2c84:	78 e3       	ldi	r23, 0x38	; 56
    2c86:	80 81       	ld	r24, Z
    2c88:	91 81       	ldd	r25, Z+1	; 0x01
    2c8a:	0e 94 24 0d 	call	0x1a48	; 0x1a48 <PopulateObject>

                            //Special game
                            if (actObj1.lenStr[ACTION_STR1] == 1) {
    2c8e:	e0 90 e6 38 	lds	r14, 0x38E6	; 0x8038e6 <actObj1.3989+0x1e>
    2c92:	f0 90 e7 38 	lds	r15, 0x38E7	; 0x8038e7 <actObj1.3989+0x1f>
    2c96:	b1 e0       	ldi	r27, 0x01	; 1
    2c98:	eb 16       	cp	r14, r27
    2c9a:	f1 04       	cpc	r15, r1
    2c9c:	09 f0       	breq	.+2      	; 0x2ca0 <ProcessInput+0x900>
    2c9e:	9a c0       	rjmp	.+308    	; 0x2dd4 <ProcessInput+0xa34>
                                ExtEERead(actObj1.addrStr[ACTION_STR1], 1, GAME, &data[2]);
    2ca0:	98 01       	movw	r18, r16
    2ca2:	2e 5f       	subi	r18, 0xFE	; 254
    2ca4:	3f 4f       	sbci	r19, 0xFF	; 255
    2ca6:	40 e0       	ldi	r20, 0x00	; 0
    2ca8:	61 e0       	ldi	r22, 0x01	; 1
    2caa:	80 91 d8 38 	lds	r24, 0x38D8	; 0x8038d8 <actObj1.3989+0x10>
    2cae:	90 91 d9 38 	lds	r25, 0x38D9	; 0x8038d9 <actObj1.3989+0x11>
    2cb2:	0e 94 19 0c 	call	0x1832	; 0x1832 <ExtEERead>
                                if (data[2] == '1') {
    2cb6:	f8 01       	movw	r30, r16
    2cb8:	42 81       	ldd	r20, Z+2	; 0x02
    2cba:	21 e0       	ldi	r18, 0x01	; 1
    2cbc:	27 0d       	add	r18, r7
    2cbe:	87 2d       	mov	r24, r7
    2cc0:	90 e0       	ldi	r25, 0x00	; 0
    2cc2:	41 33       	cpi	r20, 0x31	; 49
    2cc4:	09 f0       	breq	.+2      	; 0x2cc8 <ProcessInput+0x928>
    2cc6:	6b c0       	rjmp	.+214    	; 0x2d9e <ProcessInput+0x9fe>
                                    uint8_t item = actObj2.byteField[ITEM_NR];
    2cc8:	30 91 a8 38 	lds	r19, 0x38A8	; 0x8038a8 <actObj2.3990+0xb>
                                    if ((item < 31)||(item > 34)) {
    2ccc:	51 ee       	ldi	r21, 0xE1	; 225
    2cce:	53 0f       	add	r21, r19
    return 0;
}

//
void SetResponse(uint8_t number, uint16_t address, uint16_t length, uint8_t type){
    reactStr[0][number]=address;
    2cd0:	fc 01       	movw	r30, r24
    2cd2:	ee 0f       	add	r30, r30
    2cd4:	ff 1f       	adc	r31, r31
    2cd6:	e9 5f       	subi	r30, 0xF9	; 249
    2cd8:	f6 4c       	sbci	r31, 0xC6	; 198
                            //Special game
                            if (actObj1.lenStr[ACTION_STR1] == 1) {
                                ExtEERead(actObj1.addrStr[ACTION_STR1], 1, GAME, &data[2]);
                                if (data[2] == '1') {
                                    uint8_t item = actObj2.byteField[ITEM_NR];
                                    if ((item < 31)||(item > 34)) {
    2cda:	54 30       	cpi	r21, 0x04	; 4
    2cdc:	60 f0       	brcs	.+24     	; 0x2cf6 <ProcessInput+0x956>
    return 0;
}

//
void SetResponse(uint8_t number, uint16_t address, uint16_t length, uint8_t type){
    reactStr[0][number]=address;
    2cde:	44 e0       	ldi	r20, 0x04	; 4
    2ce0:	59 e7       	ldi	r21, 0x79	; 121
    2ce2:	40 83       	st	Z, r20
    2ce4:	51 83       	std	Z+1, r21	; 0x01
    reactStr[1][number]=length;
    2ce6:	fc 01       	movw	r30, r24
    2ce8:	ee 0f       	add	r30, r30
    2cea:	ff 1f       	adc	r31, r31
    2cec:	e9 5b       	subi	r30, 0xB9	; 185
    2cee:	f6 4c       	sbci	r31, 0xC6	; 198
    2cf0:	4a e1       	ldi	r20, 0x1A	; 26
    2cf2:	50 e0       	ldi	r21, 0x00	; 0
    2cf4:	64 c0       	rjmp	.+200    	; 0x2dbe <ProcessInput+0xa1e>
    return 0;
}

//
void SetResponse(uint8_t number, uint16_t address, uint16_t length, uint8_t type){
    reactStr[0][number]=address;
    2cf6:	6e e8       	ldi	r22, 0x8E	; 142
    2cf8:	75 e7       	ldi	r23, 0x75	; 117
    2cfa:	60 83       	st	Z, r22
    2cfc:	71 83       	std	Z+1, r23	; 0x01
    reactStr[1][number]=length;
    2cfe:	fc 01       	movw	r30, r24
    2d00:	ee 0f       	add	r30, r30
    2d02:	ff 1f       	adc	r31, r31
    2d04:	e9 5b       	subi	r30, 0xB9	; 185
    2d06:	f6 4c       	sbci	r31, 0xC6	; 198
    2d08:	62 eb       	ldi	r22, 0xB2	; 178
    2d0a:	70 e0       	ldi	r23, 0x00	; 0
    2d0c:	60 83       	st	Z, r22
    2d0e:	71 83       	std	Z+1, r23	; 0x01
    reactStr[2][number]=type;
    2d10:	88 0f       	add	r24, r24
    2d12:	99 1f       	adc	r25, r25
    2d14:	fc 01       	movw	r30, r24
    2d16:	e9 57       	subi	r30, 0x79	; 121
    2d18:	f6 4c       	sbci	r31, 0xC6	; 198
    2d1a:	e0 82       	st	Z, r14
    2d1c:	f1 82       	std	Z+1, r15	; 0x01
    return 0;
}

//
void SetResponse(uint8_t number, uint16_t address, uint16_t length, uint8_t type){
    reactStr[0][number]=address;
    2d1e:	82 2f       	mov	r24, r18
    2d20:	90 e0       	ldi	r25, 0x00	; 0
    2d22:	fc 01       	movw	r30, r24
    2d24:	ee 0f       	add	r30, r30
    2d26:	ff 1f       	adc	r31, r31
    2d28:	e9 5f       	subi	r30, 0xF9	; 249
    2d2a:	f6 4c       	sbci	r31, 0xC6	; 198
    2d2c:	6b e5       	ldi	r22, 0x5B	; 91
    2d2e:	7a e7       	ldi	r23, 0x7A	; 122
    2d30:	60 83       	st	Z, r22
    2d32:	71 83       	std	Z+1, r23	; 0x01
    reactStr[1][number]=length;
    2d34:	fc 01       	movw	r30, r24
    2d36:	ee 0f       	add	r30, r30
    2d38:	ff 1f       	adc	r31, r31
    2d3a:	e9 5b       	subi	r30, 0xB9	; 185
    2d3c:	f6 4c       	sbci	r31, 0xC6	; 198
    2d3e:	62 e0       	ldi	r22, 0x02	; 2
    2d40:	70 e0       	ldi	r23, 0x00	; 0
    2d42:	60 83       	st	Z, r22
    2d44:	71 83       	std	Z+1, r23	; 0x01
    reactStr[2][number]=type;
    2d46:	88 0f       	add	r24, r24
    2d48:	99 1f       	adc	r25, r25
    2d4a:	fc 01       	movw	r30, r24
    2d4c:	e9 57       	subi	r30, 0x79	; 121
    2d4e:	f6 4c       	sbci	r31, 0xC6	; 198
    2d50:	e0 82       	st	Z, r14
    2d52:	f1 82       	std	Z+1, r15	; 0x01
    return 0;
}

//
void SetResponse(uint8_t number, uint16_t address, uint16_t length, uint8_t type){
    reactStr[0][number]=address;
    2d54:	82 e0       	ldi	r24, 0x02	; 2
    2d56:	87 0d       	add	r24, r7
    2d58:	90 e0       	ldi	r25, 0x00	; 0
    2d5a:	f3 e0       	ldi	r31, 0x03	; 3
    2d5c:	7f 0e       	add	r7, r31
    2d5e:	fc 01       	movw	r30, r24
    2d60:	ee 0f       	add	r30, r30
    2d62:	ff 1f       	adc	r31, r31
    2d64:	e9 5f       	subi	r30, 0xF9	; 249
    2d66:	f6 4c       	sbci	r31, 0xC6	; 198
    2d68:	60 eb       	ldi	r22, 0xB0	; 176
    2d6a:	78 e7       	ldi	r23, 0x78	; 120
    2d6c:	60 83       	st	Z, r22
    2d6e:	71 83       	std	Z+1, r23	; 0x01
    reactStr[1][number]=length;
    2d70:	fc 01       	movw	r30, r24
    2d72:	ee 0f       	add	r30, r30
    2d74:	ff 1f       	adc	r31, r31
    2d76:	e9 5b       	subi	r30, 0xB9	; 185
    2d78:	f6 4c       	sbci	r31, 0xC6	; 198
    2d7a:	62 e1       	ldi	r22, 0x12	; 18
    2d7c:	70 e0       	ldi	r23, 0x00	; 0
    2d7e:	60 83       	st	Z, r22
    2d80:	71 83       	std	Z+1, r23	; 0x01
    reactStr[2][number]=type;
    2d82:	88 0f       	add	r24, r24
    2d84:	99 1f       	adc	r25, r25
    2d86:	fc 01       	movw	r30, r24
    2d88:	e9 57       	subi	r30, 0x79	; 121
    2d8a:	f6 4c       	sbci	r31, 0xC6	; 198
    2d8c:	e0 82       	st	Z, r14
    2d8e:	f1 82       	std	Z+1, r15	; 0x01
                                        SetResponse(elements++, A_CANTUSE, L_CANTUSE, TEASER);
                                    } else {
                                        SetResponse(elements++, A_PRIEST, L_PRIEST, TEASER);
                                        SetResponse(elements++, A_LF, 2, TEASER);
                                        SetResponse(elements++, A_RESPONSE, L_RESPONSE, TEASER);
                                        specialInput[0] = '1';
    2d90:	40 93 f6 38 	sts	0x38F6, r20	; 0x8038f6 <specialInput>
                                        specialInput[1] = item;
    2d94:	30 93 f7 38 	sts	0x38F7, r19	; 0x8038f7 <specialInput+0x1>
                                        specialInput[2] = 0;
    2d98:	10 92 f8 38 	sts	0x38F8, r1	; 0x8038f8 <specialInput+0x2>
    2d9c:	e1 c2       	rjmp	.+1474   	; 0x3360 <ProcessInput+0xfc0>
    return 0;
}

//
void SetResponse(uint8_t number, uint16_t address, uint16_t length, uint8_t type){
    reactStr[0][number]=address;
    2d9e:	fc 01       	movw	r30, r24
    2da0:	ee 0f       	add	r30, r30
    2da2:	ff 1f       	adc	r31, r31
    2da4:	e9 5f       	subi	r30, 0xF9	; 249
    2da6:	f6 4c       	sbci	r31, 0xC6	; 198
    2da8:	40 e4       	ldi	r20, 0x40	; 64
    2daa:	56 e7       	ldi	r21, 0x76	; 118
    2dac:	40 83       	st	Z, r20
    2dae:	51 83       	std	Z+1, r21	; 0x01
    reactStr[1][number]=length;
    2db0:	fc 01       	movw	r30, r24
    2db2:	ee 0f       	add	r30, r30
    2db4:	ff 1f       	adc	r31, r31
    2db6:	e9 5b       	subi	r30, 0xB9	; 185
    2db8:	f6 4c       	sbci	r31, 0xC6	; 198
    2dba:	42 e4       	ldi	r20, 0x42	; 66
    2dbc:	50 e0       	ldi	r21, 0x00	; 0
    2dbe:	40 83       	st	Z, r20
    2dc0:	51 83       	std	Z+1, r21	; 0x01
    reactStr[2][number]=type;
    2dc2:	88 0f       	add	r24, r24
    2dc4:	99 1f       	adc	r25, r25
    2dc6:	fc 01       	movw	r30, r24
    2dc8:	e9 57       	subi	r30, 0x79	; 121
    2dca:	f6 4c       	sbci	r31, 0xC6	; 198
    2dcc:	e0 82       	st	Z, r14
    2dce:	f1 82       	std	Z+1, r15	; 0x01
                                        specialInput[2] = 0;
                                    }

                                //There should not be another special
                                } else {
                                    SetResponse(elements++, A_ERROR, L_ERROR, TEASER);
    2dd0:	72 2e       	mov	r7, r18
    2dd2:	c6 c2       	rjmp	.+1420   	; 0x3360 <ProcessInput+0xfc0>
                                }

                            //Normal "use ... on ..." or "give ... to ..." action
                            } else if (actObj1.byteField[ACTION_ITEM] == actObj2.byteField[ITEM_NR]) {
    2dd4:	90 91 d1 38 	lds	r25, 0x38D1	; 0x8038d1 <actObj1.3989+0x9>
    2dd8:	80 91 a8 38 	lds	r24, 0x38A8	; 0x8038a8 <actObj2.3990+0xb>
    2ddc:	98 13       	cpse	r25, r24
    2dde:	2f c0       	rjmp	.+94     	; 0x2e3e <ProcessInput+0xa9e>
                                SetResponse(elements++, actObj1.addrStr[ACTION_MSG], actObj1.lenStr[ACTION_MSG], GAME);
    2de0:	20 91 ee 38 	lds	r18, 0x38EE	; 0x8038ee <actObj1.3989+0x26>
    2de4:	30 91 ef 38 	lds	r19, 0x38EF	; 0x8038ef <actObj1.3989+0x27>
    2de8:	ff 24       	eor	r15, r15
    2dea:	f3 94       	inc	r15
    2dec:	f7 0c       	add	r15, r7
    return 0;
}

//
void SetResponse(uint8_t number, uint16_t address, uint16_t length, uint8_t type){
    reactStr[0][number]=address;
    2dee:	87 2d       	mov	r24, r7
    2df0:	90 e0       	ldi	r25, 0x00	; 0
    2df2:	fc 01       	movw	r30, r24
    2df4:	ee 0f       	add	r30, r30
    2df6:	ff 1f       	adc	r31, r31
    2df8:	e9 5f       	subi	r30, 0xF9	; 249
    2dfa:	f6 4c       	sbci	r31, 0xC6	; 198
    2dfc:	40 91 e0 38 	lds	r20, 0x38E0	; 0x8038e0 <actObj1.3989+0x18>
    2e00:	50 91 e1 38 	lds	r21, 0x38E1	; 0x8038e1 <actObj1.3989+0x19>
    2e04:	40 83       	st	Z, r20
    2e06:	51 83       	std	Z+1, r21	; 0x01
    reactStr[1][number]=length;
    2e08:	fc 01       	movw	r30, r24
    2e0a:	ee 0f       	add	r30, r30
    2e0c:	ff 1f       	adc	r31, r31
    2e0e:	e9 5b       	subi	r30, 0xB9	; 185
    2e10:	f6 4c       	sbci	r31, 0xC6	; 198
    2e12:	20 83       	st	Z, r18
    2e14:	31 83       	std	Z+1, r19	; 0x01
    reactStr[2][number]=type;
    2e16:	88 0f       	add	r24, r24
    2e18:	99 1f       	adc	r25, r25
    2e1a:	fc 01       	movw	r30, r24
    2e1c:	e9 57       	subi	r30, 0x79	; 121
    2e1e:	f6 4c       	sbci	r31, 0xC6	; 198
    2e20:	10 82       	st	Z, r1
    2e22:	11 82       	std	Z+1, r1	; 0x01
                                }

                            //Normal "use ... on ..." or "give ... to ..." action
                            } else if (actObj1.byteField[ACTION_ITEM] == actObj2.byteField[ITEM_NR]) {
                                SetResponse(elements++, actObj1.addrStr[ACTION_MSG], actObj1.lenStr[ACTION_MSG], GAME);
                                effect = actObj1.effect[2];
    2e24:	80 91 f2 38 	lds	r24, 0x38F2	; 0x8038f2 <actObj1.3989+0x2a>
    2e28:	90 e0       	ldi	r25, 0x00	; 0
    2e2a:	80 93 2d 38 	sts	0x382D, r24	; 0x80382d <effect>
    2e2e:	90 93 2e 38 	sts	0x382E, r25	; 0x80382e <effect+0x1>
                                UpdateState(actObj1.byteField[ACTION_STATE]);
    2e32:	80 91 d2 38 	lds	r24, 0x38D2	; 0x8038d2 <actObj1.3989+0xa>
    2e36:	0e 94 e5 08 	call	0x11ca	; 0x11ca <UpdateState>
                                    SetResponse(elements++, A_ERROR, L_ERROR, TEASER);
                                }

                            //Normal "use ... on ..." or "give ... to ..." action
                            } else if (actObj1.byteField[ACTION_ITEM] == actObj2.byteField[ITEM_NR]) {
                                SetResponse(elements++, actObj1.addrStr[ACTION_MSG], actObj1.lenStr[ACTION_MSG], GAME);
    2e3a:	7f 2c       	mov	r7, r15
    2e3c:	91 c2       	rjmp	.+1314   	; 0x3360 <ProcessInput+0xfc0>
                                effect = actObj1.effect[2];
                                UpdateState(actObj1.byteField[ACTION_STATE]);
                                
                            } else {
                                if (data[0] == 'u') {
    2e3e:	d8 01       	movw	r26, r16
    2e40:	8c 91       	ld	r24, X
    2e42:	85 37       	cpi	r24, 0x75	; 117
    2e44:	99 f4       	brne	.+38     	; 0x2e6c <ProcessInput+0xacc>
    return 0;
}

//
void SetResponse(uint8_t number, uint16_t address, uint16_t length, uint8_t type){
    reactStr[0][number]=address;
    2e46:	87 2d       	mov	r24, r7
    2e48:	90 e0       	ldi	r25, 0x00	; 0
    2e4a:	fc 01       	movw	r30, r24
    2e4c:	ee 0f       	add	r30, r30
    2e4e:	ff 1f       	adc	r31, r31
    2e50:	e9 5f       	subi	r30, 0xF9	; 249
    2e52:	f6 4c       	sbci	r31, 0xC6	; 198
    2e54:	24 e0       	ldi	r18, 0x04	; 4
    2e56:	39 e7       	ldi	r19, 0x79	; 121
    2e58:	20 83       	st	Z, r18
    2e5a:	31 83       	std	Z+1, r19	; 0x01
    reactStr[1][number]=length;
    2e5c:	fc 01       	movw	r30, r24
    2e5e:	ee 0f       	add	r30, r30
    2e60:	ff 1f       	adc	r31, r31
    2e62:	e9 5b       	subi	r30, 0xB9	; 185
    2e64:	f6 4c       	sbci	r31, 0xC6	; 198
    2e66:	2a e1       	ldi	r18, 0x1A	; 26
    2e68:	30 e0       	ldi	r19, 0x00	; 0
    2e6a:	15 c0       	rjmp	.+42     	; 0x2e96 <ProcessInput+0xaf6>
                                UpdateState(actObj1.byteField[ACTION_STATE]);
                                
                            } else {
                                if (data[0] == 'u') {
                                    SetResponse(elements++, A_CANTUSE, L_CANTUSE, TEASER);
                                } else if (data[0] == 'g') {
    2e6c:	87 36       	cpi	r24, 0x67	; 103
    2e6e:	09 f0       	breq	.+2      	; 0x2e72 <ProcessInput+0xad2>
    2e70:	77 c2       	rjmp	.+1262   	; 0x3360 <ProcessInput+0xfc0>
    return 0;
}

//
void SetResponse(uint8_t number, uint16_t address, uint16_t length, uint8_t type){
    reactStr[0][number]=address;
    2e72:	87 2d       	mov	r24, r7
    2e74:	90 e0       	ldi	r25, 0x00	; 0
    2e76:	fc 01       	movw	r30, r24
    2e78:	ee 0f       	add	r30, r30
    2e7a:	ff 1f       	adc	r31, r31
    2e7c:	e9 5f       	subi	r30, 0xF9	; 249
    2e7e:	f6 4c       	sbci	r31, 0xC6	; 198
    2e80:	2d ed       	ldi	r18, 0xDD	; 221
    2e82:	36 e7       	ldi	r19, 0x76	; 118
    2e84:	20 83       	st	Z, r18
    2e86:	31 83       	std	Z+1, r19	; 0x01
    reactStr[1][number]=length;
    2e88:	fc 01       	movw	r30, r24
    2e8a:	ee 0f       	add	r30, r30
    2e8c:	ff 1f       	adc	r31, r31
    2e8e:	e9 5b       	subi	r30, 0xB9	; 185
    2e90:	f6 4c       	sbci	r31, 0xC6	; 198
    2e92:	28 e2       	ldi	r18, 0x28	; 40
    2e94:	30 e0       	ldi	r19, 0x00	; 0
    2e96:	20 83       	st	Z, r18
    2e98:	31 83       	std	Z+1, r19	; 0x01
    reactStr[2][number]=type;
    2e9a:	88 0f       	add	r24, r24
    2e9c:	99 1f       	adc	r25, r25
    2e9e:	fc 01       	movw	r30, r24
    2ea0:	e9 57       	subi	r30, 0x79	; 121
    2ea2:	f6 4c       	sbci	r31, 0xC6	; 198
    2ea4:	81 e0       	ldi	r24, 0x01	; 1
    2ea6:	90 e0       	ldi	r25, 0x00	; 0
    2ea8:	80 83       	st	Z, r24
    2eaa:	91 83       	std	Z+1, r25	; 0x01
                                
                            } else {
                                if (data[0] == 'u') {
                                    SetResponse(elements++, A_CANTUSE, L_CANTUSE, TEASER);
                                } else if (data[0] == 'g') {
                                    SetResponse(elements++, A_CANTGIVE, L_CANTGIVE, TEASER);                                    
    2eac:	73 94       	inc	r7
    2eae:	58 c2       	rjmp	.+1200   	; 0x3360 <ProcessInput+0xfc0>
                            }
                        }
                    
                    //Talk to person, read or use object (without item)                          
                    } else {
                        PopulateObject(route[currDepth+1], &actObj1);
    2eb0:	68 ec       	ldi	r22, 0xC8	; 200
    2eb2:	78 e3       	ldi	r23, 0x38	; 56
    2eb4:	0e 94 24 0d 	call	0x1a48	; 0x1a48 <PopulateObject>
                        if ((data[0] == 't')&&((actObj1.byteField[ACTION_MASK]&TALK) == 0)) {
    2eb8:	f8 01       	movw	r30, r16
    2eba:	80 81       	ld	r24, Z
    2ebc:	84 37       	cpi	r24, 0x74	; 116
    2ebe:	69 f5       	brne	.+90     	; 0x2f1a <ProcessInput+0xb7a>
    2ec0:	80 91 d0 38 	lds	r24, 0x38D0	; 0x8038d0 <actObj1.3989+0x8>
    2ec4:	83 fd       	sbrc	r24, 3
    2ec6:	4a c0       	rjmp	.+148    	; 0x2f5c <ProcessInput+0xbbc>
    return 0;
}

//
void SetResponse(uint8_t number, uint16_t address, uint16_t length, uint8_t type){
    reactStr[0][number]=address;
    2ec8:	8e e1       	ldi	r24, 0x1E	; 30
    2eca:	99 e7       	ldi	r25, 0x79	; 121
    2ecc:	80 93 09 39 	sts	0x3909, r24	; 0x803909 <reactStr+0x2>
    2ed0:	90 93 0a 39 	sts	0x390A, r25	; 0x80390a <reactStr+0x3>
    reactStr[1][number]=length;
    2ed4:	8e e1       	ldi	r24, 0x1E	; 30
    2ed6:	90 e0       	ldi	r25, 0x00	; 0
    2ed8:	80 93 49 39 	sts	0x3949, r24	; 0x803949 <reactStr+0x42>
    2edc:	90 93 4a 39 	sts	0x394A, r25	; 0x80394a <reactStr+0x43>
    reactStr[2][number]=type;
    2ee0:	81 e0       	ldi	r24, 0x01	; 1
    2ee2:	90 e0       	ldi	r25, 0x00	; 0
    2ee4:	80 93 89 39 	sts	0x3989, r24	; 0x803989 <reactStr+0x82>
    2ee8:	90 93 8a 39 	sts	0x398A, r25	; 0x80398a <reactStr+0x83>
                    //Talk to person, read or use object (without item)                          
                    } else {
                        PopulateObject(route[currDepth+1], &actObj1);
                        if ((data[0] == 't')&&((actObj1.byteField[ACTION_MASK]&TALK) == 0)) {
                            SetResponse(elements++, A_WHYTALK, L_WHYTALK, TEASER);
                            SetResponse(elements++, actObj1.addrStr[NAME], actObj1.lenStr[NAME], GAME);
    2eec:	80 91 e2 38 	lds	r24, 0x38E2	; 0x8038e2 <actObj1.3989+0x1a>
    2ef0:	90 91 e3 38 	lds	r25, 0x38E3	; 0x8038e3 <actObj1.3989+0x1b>
    return 0;
}

//
void SetResponse(uint8_t number, uint16_t address, uint16_t length, uint8_t type){
    reactStr[0][number]=address;
    2ef4:	20 91 d4 38 	lds	r18, 0x38D4	; 0x8038d4 <actObj1.3989+0xc>
    2ef8:	30 91 d5 38 	lds	r19, 0x38D5	; 0x8038d5 <actObj1.3989+0xd>
    2efc:	20 93 0b 39 	sts	0x390B, r18	; 0x80390b <reactStr+0x4>
    2f00:	30 93 0c 39 	sts	0x390C, r19	; 0x80390c <reactStr+0x5>
    reactStr[1][number]=length;
    2f04:	80 93 4b 39 	sts	0x394B, r24	; 0x80394b <reactStr+0x44>
    2f08:	90 93 4c 39 	sts	0x394C, r25	; 0x80394c <reactStr+0x45>
    reactStr[2][number]=type;
    2f0c:	10 92 8b 39 	sts	0x398B, r1	; 0x80398b <reactStr+0x84>
    2f10:	10 92 8c 39 	sts	0x398C, r1	; 0x80398c <reactStr+0x85>
                    //Talk to person, read or use object (without item)                          
                    } else {
                        PopulateObject(route[currDepth+1], &actObj1);
                        if ((data[0] == 't')&&((actObj1.byteField[ACTION_MASK]&TALK) == 0)) {
                            SetResponse(elements++, A_WHYTALK, L_WHYTALK, TEASER);
                            SetResponse(elements++, actObj1.addrStr[NAME], actObj1.lenStr[NAME], GAME);
    2f14:	a3 e0       	ldi	r26, 0x03	; 3
    2f16:	7a 2e       	mov	r7, r26
    2f18:	23 c2       	rjmp	.+1094   	; 0x3360 <ProcessInput+0xfc0>
                        } else if ((data[0] == 'u')&&((actObj1.byteField[ACTION_MASK]&USE) == 0)) {
    2f1a:	85 37       	cpi	r24, 0x75	; 117
    2f1c:	69 f4       	brne	.+26     	; 0x2f38 <ProcessInput+0xb98>
    2f1e:	80 91 d0 38 	lds	r24, 0x38D0	; 0x8038d0 <actObj1.3989+0x8>
    2f22:	84 fd       	sbrc	r24, 4
    2f24:	1b c0       	rjmp	.+54     	; 0x2f5c <ProcessInput+0xbbc>
    return 0;
}

//
void SetResponse(uint8_t number, uint16_t address, uint16_t length, uint8_t type){
    reactStr[0][number]=address;
    2f26:	84 e0       	ldi	r24, 0x04	; 4
    2f28:	99 e7       	ldi	r25, 0x79	; 121
    2f2a:	80 93 09 39 	sts	0x3909, r24	; 0x803909 <reactStr+0x2>
    2f2e:	90 93 0a 39 	sts	0x390A, r25	; 0x80390a <reactStr+0x3>
    reactStr[1][number]=length;
    2f32:	8a e1       	ldi	r24, 0x1A	; 26
    2f34:	90 e0       	ldi	r25, 0x00	; 0
    2f36:	f9 ca       	rjmp	.-2574   	; 0x252a <ProcessInput+0x18a>
                        if ((data[0] == 't')&&((actObj1.byteField[ACTION_MASK]&TALK) == 0)) {
                            SetResponse(elements++, A_WHYTALK, L_WHYTALK, TEASER);
                            SetResponse(elements++, actObj1.addrStr[NAME], actObj1.lenStr[NAME], GAME);
                        } else if ((data[0] == 'u')&&((actObj1.byteField[ACTION_MASK]&USE) == 0)) {
                            SetResponse(elements++, A_CANTUSE, L_CANTUSE, TEASER);
                        } else if ((data[0] == 'r')&&((actObj1.byteField[ACTION_MASK]&READ) == 0)) {
    2f38:	82 37       	cpi	r24, 0x72	; 114
    2f3a:	69 f4       	brne	.+26     	; 0x2f56 <ProcessInput+0xbb6>
    2f3c:	80 91 d0 38 	lds	r24, 0x38D0	; 0x8038d0 <actObj1.3989+0x8>
    2f40:	85 fd       	sbrc	r24, 5
    2f42:	0c c0       	rjmp	.+24     	; 0x2f5c <ProcessInput+0xbbc>
    return 0;
}

//
void SetResponse(uint8_t number, uint16_t address, uint16_t length, uint8_t type){
    reactStr[0][number]=address;
    2f44:	89 ee       	ldi	r24, 0xE9	; 233
    2f46:	98 e7       	ldi	r25, 0x78	; 120
    2f48:	80 93 09 39 	sts	0x3909, r24	; 0x803909 <reactStr+0x2>
    2f4c:	90 93 0a 39 	sts	0x390A, r25	; 0x80390a <reactStr+0x3>
    reactStr[1][number]=length;
    2f50:	8b e1       	ldi	r24, 0x1B	; 27
    2f52:	90 e0       	ldi	r25, 0x00	; 0
    2f54:	ea ca       	rjmp	.-2604   	; 0x252a <ProcessInput+0x18a>
                            SetResponse(elements++, actObj1.addrStr[NAME], actObj1.lenStr[NAME], GAME);
                        } else if ((data[0] == 'u')&&((actObj1.byteField[ACTION_MASK]&USE) == 0)) {
                            SetResponse(elements++, A_CANTUSE, L_CANTUSE, TEASER);
                        } else if ((data[0] == 'r')&&((actObj1.byteField[ACTION_MASK]&READ) == 0)) {
                            SetResponse(elements++, A_CANTREAD, L_CANTREAD, TEASER);
                        } else if (data[0] == 'g'){ 
    2f56:	87 36       	cpi	r24, 0x67	; 103
    2f58:	09 f4       	brne	.+2      	; 0x2f5c <ProcessInput+0xbbc>
    2f5a:	52 ca       	rjmp	.-2908   	; 0x2400 <ProcessInput+0x60>
                            SetResponse(elements++, A_NOTPOSSIBLE, L_NOTPOSSIBLE, TEASER);  
                        } else {

                            //Special game, not enough characters
                            if (actObj1.lenStr[ACTION_STR1] == 1) {
    2f5c:	e0 90 e6 38 	lds	r14, 0x38E6	; 0x8038e6 <actObj1.3989+0x1e>
    2f60:	f0 90 e7 38 	lds	r15, 0x38E7	; 0x8038e7 <actObj1.3989+0x1f>
    2f64:	f1 e0       	ldi	r31, 0x01	; 1
    2f66:	ef 16       	cp	r14, r31
    2f68:	f1 04       	cpc	r15, r1
    2f6a:	11 f5       	brne	.+68     	; 0x2fb0 <ProcessInput+0xc10>
                                ExtEERead(actObj1.addrStr[ACTION_STR1], 1, GAME, &data[2]);
    2f6c:	98 01       	movw	r18, r16
    2f6e:	2e 5f       	subi	r18, 0xFE	; 254
    2f70:	3f 4f       	sbci	r19, 0xFF	; 255
    2f72:	40 e0       	ldi	r20, 0x00	; 0
    2f74:	61 e0       	ldi	r22, 0x01	; 1
    2f76:	80 91 d8 38 	lds	r24, 0x38D8	; 0x8038d8 <actObj1.3989+0x10>
    2f7a:	90 91 d9 38 	lds	r25, 0x38D9	; 0x8038d9 <actObj1.3989+0x11>
    2f7e:	0e 94 19 0c 	call	0x1832	; 0x1832 <ExtEERead>
                                if (data[2] == '1') {
    2f82:	d8 01       	movw	r26, r16
    2f84:	12 96       	adiw	r26, 0x02	; 2
    2f86:	8c 91       	ld	r24, X
    2f88:	81 33       	cpi	r24, 0x31	; 49
    2f8a:	09 f0       	breq	.+2      	; 0x2f8e <ProcessInput+0xbee>
    2f8c:	8a cc       	rjmp	.-1772   	; 0x28a2 <ProcessInput+0x502>
    return 0;
}

//
void SetResponse(uint8_t number, uint16_t address, uint16_t length, uint8_t type){
    reactStr[0][number]=address;
    2f8e:	83 e6       	ldi	r24, 0x63	; 99
    2f90:	95 e7       	ldi	r25, 0x75	; 117
    2f92:	80 93 09 39 	sts	0x3909, r24	; 0x803909 <reactStr+0x2>
    2f96:	90 93 0a 39 	sts	0x390A, r25	; 0x80390a <reactStr+0x3>
    reactStr[1][number]=length;
    2f9a:	8b e2       	ldi	r24, 0x2B	; 43
    2f9c:	90 e0       	ldi	r25, 0x00	; 0
    2f9e:	80 93 49 39 	sts	0x3949, r24	; 0x803949 <reactStr+0x42>
    2fa2:	90 93 4a 39 	sts	0x394A, r25	; 0x80394a <reactStr+0x43>
    reactStr[2][number]=type;
    2fa6:	e0 92 89 39 	sts	0x3989, r14	; 0x803989 <reactStr+0x82>
    2faa:	f0 92 8a 39 	sts	0x398A, r15	; 0x80398a <reactStr+0x83>
    2fae:	c7 ca       	rjmp	.-2674   	; 0x253e <ProcessInput+0x19e>
                                if (data[2] == '1') {
                                    SetResponse(elements++, A_PLEASEOFFER, L_PLEASEOFFER, TEASER);
                                }

                            //General request
                            } else if (actObj1.lenStr[ACTION_STR1]) {
    2fb0:	e1 14       	cp	r14, r1
    2fb2:	f1 04       	cpc	r15, r1
    2fb4:	09 f4       	brne	.+2      	; 0x2fb8 <ProcessInput+0xc18>
    2fb6:	59 c0       	rjmp	.+178    	; 0x306a <ProcessInput+0xcca>
    return 0;
}

//
void SetResponse(uint8_t number, uint16_t address, uint16_t length, uint8_t type){
    reactStr[0][number]=address;
    2fb8:	80 91 d8 38 	lds	r24, 0x38D8	; 0x8038d8 <actObj1.3989+0x10>
    2fbc:	90 91 d9 38 	lds	r25, 0x38D9	; 0x8038d9 <actObj1.3989+0x11>
    2fc0:	80 93 09 39 	sts	0x3909, r24	; 0x803909 <reactStr+0x2>
    2fc4:	90 93 0a 39 	sts	0x390A, r25	; 0x80390a <reactStr+0x3>
    reactStr[1][number]=length;
    2fc8:	e0 92 49 39 	sts	0x3949, r14	; 0x803949 <reactStr+0x42>
    2fcc:	f0 92 4a 39 	sts	0x394A, r15	; 0x80394a <reactStr+0x43>
    reactStr[2][number]=type;
    2fd0:	10 92 89 39 	sts	0x3989, r1	; 0x803989 <reactStr+0x82>
    2fd4:	10 92 8a 39 	sts	0x398A, r1	; 0x80398a <reactStr+0x83>
    return 0;
}

//
void SetResponse(uint8_t number, uint16_t address, uint16_t length, uint8_t type){
    reactStr[0][number]=address;
    2fd8:	8b e5       	ldi	r24, 0x5B	; 91
    2fda:	9a e7       	ldi	r25, 0x7A	; 122
    2fdc:	80 93 0b 39 	sts	0x390B, r24	; 0x80390b <reactStr+0x4>
    2fe0:	90 93 0c 39 	sts	0x390C, r25	; 0x80390c <reactStr+0x5>
    reactStr[1][number]=length;
    2fe4:	82 e0       	ldi	r24, 0x02	; 2
    2fe6:	90 e0       	ldi	r25, 0x00	; 0
    2fe8:	80 93 4b 39 	sts	0x394B, r24	; 0x80394b <reactStr+0x44>
    2fec:	90 93 4c 39 	sts	0x394C, r25	; 0x80394c <reactStr+0x45>
    reactStr[2][number]=type;
    2ff0:	81 e0       	ldi	r24, 0x01	; 1
    2ff2:	90 e0       	ldi	r25, 0x00	; 0
    2ff4:	80 93 8b 39 	sts	0x398B, r24	; 0x80398b <reactStr+0x84>
    2ff8:	90 93 8c 39 	sts	0x398C, r25	; 0x80398c <reactStr+0x85>
    return 0;
}

//
void SetResponse(uint8_t number, uint16_t address, uint16_t length, uint8_t type){
    reactStr[0][number]=address;
    2ffc:	20 eb       	ldi	r18, 0xB0	; 176
    2ffe:	38 e7       	ldi	r19, 0x78	; 120
    3000:	20 93 0d 39 	sts	0x390D, r18	; 0x80390d <reactStr+0x6>
    3004:	30 93 0e 39 	sts	0x390E, r19	; 0x80390e <reactStr+0x7>
    reactStr[1][number]=length;
    3008:	22 e1       	ldi	r18, 0x12	; 18
    300a:	30 e0       	ldi	r19, 0x00	; 0
    300c:	20 93 4d 39 	sts	0x394D, r18	; 0x80394d <reactStr+0x46>
    3010:	30 93 4e 39 	sts	0x394E, r19	; 0x80394e <reactStr+0x47>
    reactStr[2][number]=type;
    3014:	80 93 8d 39 	sts	0x398D, r24	; 0x80398d <reactStr+0x86>
    3018:	90 93 8e 39 	sts	0x398E, r25	; 0x80398e <reactStr+0x87>
                            //General request
                            } else if (actObj1.lenStr[ACTION_STR1]) {
                                SetResponse(elements++, actObj1.addrStr[ACTION_STR1], actObj1.lenStr[ACTION_STR1], GAME);
                                SetResponse(elements++, A_LF, 2, TEASER);
                                SetResponse(elements++, A_RESPONSE, L_RESPONSE, TEASER);
                                if (actObj1.lenStr[ACTION_STR2]>(INP_LENGTH-1)) actObj1.lenStr[ACTION_STR2] = (INP_LENGTH-1);
    301c:	80 91 e8 38 	lds	r24, 0x38E8	; 0x8038e8 <actObj1.3989+0x20>
    3020:	90 91 e9 38 	lds	r25, 0x38E9	; 0x8038e9 <actObj1.3989+0x21>
    3024:	40 97       	sbiw	r24, 0x10	; 16
    3026:	30 f0       	brcs	.+12     	; 0x3034 <ProcessInput+0xc94>
    3028:	8f e0       	ldi	r24, 0x0F	; 15
    302a:	90 e0       	ldi	r25, 0x00	; 0
    302c:	80 93 e8 38 	sts	0x38E8, r24	; 0x8038e8 <actObj1.3989+0x20>
    3030:	90 93 e9 38 	sts	0x38E9, r25	; 0x8038e9 <actObj1.3989+0x21>
                                ExtEERead(actObj1.addrStr[ACTION_STR2], actObj1.lenStr[ACTION_STR2], GAME, (uint8_t *)&specialInput[0]);
    3034:	26 ef       	ldi	r18, 0xF6	; 246
    3036:	38 e3       	ldi	r19, 0x38	; 56
    3038:	40 e0       	ldi	r20, 0x00	; 0
    303a:	60 91 e8 38 	lds	r22, 0x38E8	; 0x8038e8 <actObj1.3989+0x20>
    303e:	80 91 da 38 	lds	r24, 0x38DA	; 0x8038da <actObj1.3989+0x12>
    3042:	90 91 db 38 	lds	r25, 0x38DB	; 0x8038db <actObj1.3989+0x13>
    3046:	0e 94 19 0c 	call	0x1832	; 0x1832 <ExtEERead>
                                UnflipData(actObj1.lenStr[ACTION_STR2], (uint8_t *)&specialInput[0]);
    304a:	66 ef       	ldi	r22, 0xF6	; 246
    304c:	78 e3       	ldi	r23, 0x38	; 56
    304e:	80 91 e8 38 	lds	r24, 0x38E8	; 0x8038e8 <actObj1.3989+0x20>
    3052:	0e 94 0c 0c 	call	0x1818	; 0x1818 <UnflipData>
                                specialInput[actObj1.lenStr[ACTION_STR2]] = 0;
    3056:	e0 91 e8 38 	lds	r30, 0x38E8	; 0x8038e8 <actObj1.3989+0x20>
    305a:	f0 91 e9 38 	lds	r31, 0x38E9	; 0x8038e9 <actObj1.3989+0x21>
    305e:	ea 50       	subi	r30, 0x0A	; 10
    3060:	f7 4c       	sbci	r31, 0xC7	; 199
    3062:	10 82       	st	Z, r1

                            //General request
                            } else if (actObj1.lenStr[ACTION_STR1]) {
                                SetResponse(elements++, actObj1.addrStr[ACTION_STR1], actObj1.lenStr[ACTION_STR1], GAME);
                                SetResponse(elements++, A_LF, 2, TEASER);
                                SetResponse(elements++, A_RESPONSE, L_RESPONSE, TEASER);
    3064:	f4 e0       	ldi	r31, 0x04	; 4
    3066:	7f 2e       	mov	r7, r31
    3068:	7b c1       	rjmp	.+758    	; 0x3360 <ProcessInput+0xfc0>
                                ExtEERead(actObj1.addrStr[ACTION_STR2], actObj1.lenStr[ACTION_STR2], GAME, (uint8_t *)&specialInput[0]);
                                UnflipData(actObj1.lenStr[ACTION_STR2], (uint8_t *)&specialInput[0]);
                                specialInput[actObj1.lenStr[ACTION_STR2]] = 0;
                            
                            //Normal action    
                            } else if (CheckState(actObj1.byteField[ACTION_ACL])){
    306a:	80 91 cf 38 	lds	r24, 0x38CF	; 0x8038cf <actObj1.3989+0x7>
    306e:	0e 94 ef 08 	call	0x11de	; 0x11de <CheckState>
    3072:	88 23       	and	r24, r24
    3074:	01 f1       	breq	.+64     	; 0x30b6 <ProcessInput+0xd16>
                                SetResponse(elements++, actObj1.addrStr[ACTION_MSG], actObj1.lenStr[ACTION_MSG], GAME);
    3076:	80 91 ee 38 	lds	r24, 0x38EE	; 0x8038ee <actObj1.3989+0x26>
    307a:	90 91 ef 38 	lds	r25, 0x38EF	; 0x8038ef <actObj1.3989+0x27>
    return 0;
}

//
void SetResponse(uint8_t number, uint16_t address, uint16_t length, uint8_t type){
    reactStr[0][number]=address;
    307e:	20 91 e0 38 	lds	r18, 0x38E0	; 0x8038e0 <actObj1.3989+0x18>
    3082:	30 91 e1 38 	lds	r19, 0x38E1	; 0x8038e1 <actObj1.3989+0x19>
    3086:	20 93 09 39 	sts	0x3909, r18	; 0x803909 <reactStr+0x2>
    308a:	30 93 0a 39 	sts	0x390A, r19	; 0x80390a <reactStr+0x3>
    reactStr[1][number]=length;
    308e:	80 93 49 39 	sts	0x3949, r24	; 0x803949 <reactStr+0x42>
    3092:	90 93 4a 39 	sts	0x394A, r25	; 0x80394a <reactStr+0x43>
    reactStr[2][number]=type;
    3096:	10 92 89 39 	sts	0x3989, r1	; 0x803989 <reactStr+0x82>
    309a:	10 92 8a 39 	sts	0x398A, r1	; 0x80398a <reactStr+0x83>
                                specialInput[actObj1.lenStr[ACTION_STR2]] = 0;
                            
                            //Normal action    
                            } else if (CheckState(actObj1.byteField[ACTION_ACL])){
                                SetResponse(elements++, actObj1.addrStr[ACTION_MSG], actObj1.lenStr[ACTION_MSG], GAME);
                                effect = actObj1.effect[2];
    309e:	80 91 f2 38 	lds	r24, 0x38F2	; 0x8038f2 <actObj1.3989+0x2a>
    30a2:	90 e0       	ldi	r25, 0x00	; 0
    30a4:	80 93 2d 38 	sts	0x382D, r24	; 0x80382d <effect>
    30a8:	90 93 2e 38 	sts	0x382E, r25	; 0x80382e <effect+0x1>
                                UpdateState(actObj1.byteField[ACTION_STATE]);
    30ac:	80 91 d2 38 	lds	r24, 0x38D2	; 0x8038d2 <actObj1.3989+0xa>
    30b0:	0e 94 e5 08 	call	0x11ca	; 0x11ca <UpdateState>
    30b4:	44 ca       	rjmp	.-2936   	; 0x253e <ProcessInput+0x19e>
                            } else {
                                SetResponse(elements++, actObj1.addrStr[ACTION_ACL_MSG], actObj1.lenStr[ACTION_ACL_MSG], GAME);
    30b6:	80 91 ec 38 	lds	r24, 0x38EC	; 0x8038ec <actObj1.3989+0x24>
    30ba:	90 91 ed 38 	lds	r25, 0x38ED	; 0x8038ed <actObj1.3989+0x25>
    return 0;
}

//
void SetResponse(uint8_t number, uint16_t address, uint16_t length, uint8_t type){
    reactStr[0][number]=address;
    30be:	20 91 de 38 	lds	r18, 0x38DE	; 0x8038de <actObj1.3989+0x16>
    30c2:	30 91 df 38 	lds	r19, 0x38DF	; 0x8038df <actObj1.3989+0x17>
    30c6:	20 93 09 39 	sts	0x3909, r18	; 0x803909 <reactStr+0x2>
    30ca:	30 93 0a 39 	sts	0x390A, r19	; 0x80390a <reactStr+0x3>
    reactStr[1][number]=length;
    30ce:	80 93 49 39 	sts	0x3949, r24	; 0x803949 <reactStr+0x42>
    30d2:	90 93 4a 39 	sts	0x394A, r25	; 0x80394a <reactStr+0x43>
    reactStr[2][number]=type;
    30d6:	10 92 89 39 	sts	0x3989, r1	; 0x803989 <reactStr+0x82>
    30da:	10 92 8a 39 	sts	0x398A, r1	; 0x80398a <reactStr+0x83>
                                SetResponse(elements++, actObj1.addrStr[ACTION_MSG], actObj1.lenStr[ACTION_MSG], GAME);
                                effect = actObj1.effect[2];
                                UpdateState(actObj1.byteField[ACTION_STATE]);
                            } else {
                                SetResponse(elements++, actObj1.addrStr[ACTION_ACL_MSG], actObj1.lenStr[ACTION_ACL_MSG], GAME);
                                effect = actObj1.effect[1];
    30de:	80 91 f1 38 	lds	r24, 0x38F1	; 0x8038f1 <actObj1.3989+0x29>
    30e2:	90 e0       	ldi	r25, 0x00	; 0
    30e4:	80 93 2d 38 	sts	0x382D, r24	; 0x80382d <effect>
    30e8:	90 93 2e 38 	sts	0x382E, r25	; 0x80382e <effect+0x1>
    30ec:	28 ca       	rjmp	.-2992   	; 0x253e <ProcessInput+0x19e>
                        }
                    }

                //Person or object not found
                } else {
                    if ((data[0] == 't')||(data[0] == 'g')){
    30ee:	f8 01       	movw	r30, r16
    30f0:	80 81       	ld	r24, Z
    30f2:	84 37       	cpi	r24, 0x74	; 116
    30f4:	11 f0       	breq	.+4      	; 0x30fa <ProcessInput+0xd5a>
    30f6:	87 36       	cpi	r24, 0x67	; 103
    30f8:	19 f4       	brne	.+6      	; 0x3100 <ProcessInput+0xd60>
    return 0;
}

//
void SetResponse(uint8_t number, uint16_t address, uint16_t length, uint8_t type){
    reactStr[0][number]=address;
    30fa:	8c e3       	ldi	r24, 0x3C	; 60
    30fc:	99 e7       	ldi	r25, 0x79	; 121
    30fe:	02 c0       	rjmp	.+4      	; 0x3104 <ProcessInput+0xd64>
    3100:	80 e5       	ldi	r24, 0x50	; 80
    3102:	99 e7       	ldi	r25, 0x79	; 121
    3104:	80 93 09 39 	sts	0x3909, r24	; 0x803909 <reactStr+0x2>
    3108:	90 93 0a 39 	sts	0x390A, r25	; 0x80390a <reactStr+0x3>
    reactStr[1][number]=length;
    310c:	84 e1       	ldi	r24, 0x14	; 20
    310e:	90 e0       	ldi	r25, 0x00	; 0
    3110:	0c ca       	rjmp	.-3048   	; 0x252a <ProcessInput+0x18a>
                    }
                }
            }
        
        //Special answer given
        } else if (data[0] == 'a'){
    3112:	81 36       	cpi	r24, 0x61	; 97
    3114:	09 f0       	breq	.+2      	; 0x3118 <ProcessInput+0xd78>
    3116:	c5 cb       	rjmp	.-2166   	; 0x28a2 <ProcessInput+0x502>
            
            //Priest offerings
            if (specialPassed >= 2) {
    3118:	80 91 f5 38 	lds	r24, 0x38F5	; 0x8038f5 <specialPassed>
    311c:	82 30       	cpi	r24, 0x02	; 2
    311e:	08 f4       	brcc	.+2      	; 0x3122 <ProcessInput+0xd82>
    3120:	b3 c0       	rjmp	.+358    	; 0x3288 <ProcessInput+0xee8>
                if (data[1] > 0) {
    3122:	d8 01       	movw	r26, r16
    3124:	11 96       	adiw	r26, 0x01	; 1
    3126:	2c 91       	ld	r18, X
    3128:	22 23       	and	r18, r18
    312a:	09 f4       	brne	.+2      	; 0x312e <ProcessInput+0xd8e>
    312c:	a4 c0       	rjmp	.+328    	; 0x3276 <ProcessInput+0xed6>

                    uint8_t  digit[10] = {0, 0, 0, 0, 0, 0, 0, 0, 0, 0};
    312e:	fe 01       	movw	r30, r28
    3130:	31 96       	adiw	r30, 0x01	; 1
    3132:	7f 01       	movw	r14, r30
    3134:	8a e0       	ldi	r24, 0x0A	; 10
    3136:	df 01       	movw	r26, r30
    3138:	1d 92       	st	X+, r1
    313a:	8a 95       	dec	r24
    313c:	e9 f7       	brne	.-6      	; 0x3138 <ProcessInput+0xd98>
                        answer = ((offering  & 2) << 19) + ((offering  & 1) << 8) + \
                        ((element   & 2) << 15) + ((element   & 1) << 4) + \
                        ((kneelings & 2) << 11) + ((kneelings & 1))
                        answer = answer << (3-person)
                    */
                    data[1]-='1';
    313e:	21 53       	subi	r18, 0x31	; 49
    3140:	f8 01       	movw	r30, r16
    3142:	21 83       	std	Z+1, r18	; 0x01
                    data[2]-='1';
    3144:	32 81       	ldd	r19, Z+2	; 0x02
    3146:	31 53       	subi	r19, 0x31	; 49
    3148:	32 83       	std	Z+2, r19	; 0x02
                    if (data[3] == 'a') data[3] = 1;
    314a:	83 81       	ldd	r24, Z+3	; 0x03
    314c:	81 36       	cpi	r24, 0x61	; 97
    314e:	11 f4       	brne	.+4      	; 0x3154 <ProcessInput+0xdb4>
    3150:	81 e0       	ldi	r24, 0x01	; 1
    3152:	08 c0       	rjmp	.+16     	; 0x3164 <ProcessInput+0xdc4>
                    else if (data[3] == 'e') data[3] = 0;
    3154:	85 36       	cpi	r24, 0x65	; 101
    3156:	11 f4       	brne	.+4      	; 0x315c <ProcessInput+0xdbc>
    3158:	13 82       	std	Z+3, r1	; 0x03
    315a:	08 c0       	rjmp	.+16     	; 0x316c <ProcessInput+0xdcc>
                    else if (data[3] == 'f') data[3] = 3;
    315c:	86 36       	cpi	r24, 0x66	; 102
    315e:	21 f4       	brne	.+8      	; 0x3168 <ProcessInput+0xdc8>
    3160:	83 e0       	ldi	r24, 0x03	; 3
    3162:	f8 01       	movw	r30, r16
    3164:	83 83       	std	Z+3, r24	; 0x03
    3166:	02 c0       	rjmp	.+4      	; 0x316c <ProcessInput+0xdcc>
                    else data[3] = 2;
    3168:	82 e0       	ldi	r24, 0x02	; 2
    316a:	83 83       	std	Z+3, r24	; 0x03

                    if (data[1] & 2) answer += (1UL << 20);
    316c:	21 fd       	sbrc	r18, 1
    316e:	04 c0       	rjmp	.+8      	; 0x3178 <ProcessInput+0xdd8>
            //Priest offerings
            if (specialPassed >= 2) {
                if (data[1] > 0) {

                    uint8_t  digit[10] = {0, 0, 0, 0, 0, 0, 0, 0, 0, 0};
                    uint32_t answer = 0;
    3170:	80 e0       	ldi	r24, 0x00	; 0
    3172:	90 e0       	ldi	r25, 0x00	; 0
    3174:	dc 01       	movw	r26, r24
    3176:	04 c0       	rjmp	.+8      	; 0x3180 <ProcessInput+0xde0>
                    if (data[3] == 'a') data[3] = 1;
                    else if (data[3] == 'e') data[3] = 0;
                    else if (data[3] == 'f') data[3] = 3;
                    else data[3] = 2;

                    if (data[1] & 2) answer += (1UL << 20);
    3178:	80 e0       	ldi	r24, 0x00	; 0
    317a:	90 e0       	ldi	r25, 0x00	; 0
    317c:	a0 e1       	ldi	r26, 0x10	; 16
    317e:	b0 e0       	ldi	r27, 0x00	; 0
                    if (data[1] & 1) answer += (1 << 8);
    3180:	20 ff       	sbrs	r18, 0
    3182:	03 c0       	rjmp	.+6      	; 0x318a <ProcessInput+0xdea>
    3184:	9f 5f       	subi	r25, 0xFF	; 255
    3186:	af 4f       	sbci	r26, 0xFF	; 255
    3188:	bf 4f       	sbci	r27, 0xFF	; 255
                    if (data[3] & 2) answer += (1UL << 16);
    318a:	f8 01       	movw	r30, r16
    318c:	23 81       	ldd	r18, Z+3	; 0x03
    318e:	21 fd       	sbrc	r18, 1
    3190:	11 96       	adiw	r26, 0x01	; 1
                    if (data[3] & 1) answer += (1 << 4);
    3192:	20 ff       	sbrs	r18, 0
    3194:	03 c0       	rjmp	.+6      	; 0x319c <ProcessInput+0xdfc>
    3196:	40 96       	adiw	r24, 0x10	; 16
    3198:	a1 1d       	adc	r26, r1
    319a:	b1 1d       	adc	r27, r1
                    if (data[2] & 2) answer += (1 << 12);
    319c:	31 ff       	sbrs	r19, 1
    319e:	03 c0       	rjmp	.+6      	; 0x31a6 <ProcessInput+0xe06>
    31a0:	90 5f       	subi	r25, 0xF0	; 240
    31a2:	af 4f       	sbci	r26, 0xFF	; 255
    31a4:	bf 4f       	sbci	r27, 0xFF	; 255
                    if (data[2] & 1) answer += 1;
    31a6:	30 ff       	sbrs	r19, 0
    31a8:	03 c0       	rjmp	.+6      	; 0x31b0 <ProcessInput+0xe10>
    31aa:	01 96       	adiw	r24, 0x01	; 1
    31ac:	a1 1d       	adc	r26, r1
    31ae:	b1 1d       	adc	r27, r1
                    answer <<= (4 - whoami);            
    31b0:	40 91 30 38 	lds	r20, 0x3830	; 0x803830 <whoami>
    31b4:	24 e0       	ldi	r18, 0x04	; 4
    31b6:	30 e0       	ldi	r19, 0x00	; 0
    31b8:	24 1b       	sub	r18, r20
    31ba:	31 09       	sbc	r19, r1
    31bc:	bc 01       	movw	r22, r24
    31be:	cd 01       	movw	r24, r26
    31c0:	04 c0       	rjmp	.+8      	; 0x31ca <ProcessInput+0xe2a>
    31c2:	66 0f       	add	r22, r22
    31c4:	77 1f       	adc	r23, r23
    31c6:	88 1f       	adc	r24, r24
    31c8:	99 1f       	adc	r25, r25
    31ca:	2a 95       	dec	r18
    31cc:	d2 f7       	brpl	.-12     	; 0x31c2 <ProcessInput+0xe22>
    return 0;
}

//
void SetResponse(uint8_t number, uint16_t address, uint16_t length, uint8_t type){
    reactStr[0][number]=address;
    31ce:	26 e0       	ldi	r18, 0x06	; 6
    31d0:	35 e7       	ldi	r19, 0x75	; 117
    31d2:	20 93 09 39 	sts	0x3909, r18	; 0x803909 <reactStr+0x2>
    31d6:	30 93 0a 39 	sts	0x390A, r19	; 0x80390a <reactStr+0x3>
    reactStr[1][number]=length;
    31da:	20 e2       	ldi	r18, 0x20	; 32
    31dc:	30 e0       	ldi	r19, 0x00	; 0
    31de:	20 93 49 39 	sts	0x3949, r18	; 0x803949 <reactStr+0x42>
    31e2:	30 93 4a 39 	sts	0x394A, r19	; 0x80394a <reactStr+0x43>
    reactStr[2][number]=type;
    31e6:	21 e0       	ldi	r18, 0x01	; 1
    31e8:	30 e0       	ldi	r19, 0x00	; 0
    31ea:	20 93 89 39 	sts	0x3989, r18	; 0x803989 <reactStr+0x82>
    31ee:	30 93 8a 39 	sts	0x398A, r19	; 0x80398a <reactStr+0x83>
                    answer <<= (4 - whoami);            

                    SetResponse(elements++, A_YOURPART, L_YOURPART, TEASER);
                    
                    //Set up sending out number
                    for (n=9; n>=0; --n) {
    31f2:	59 e0       	ldi	r21, 0x09	; 9
                        digit[n] = answer % 10;
    31f4:	b5 2e       	mov	r11, r21
    31f6:	ea e0       	ldi	r30, 0x0A	; 10
    31f8:	4e 2e       	mov	r4, r30
    31fa:	51 2c       	mov	r5, r1
    31fc:	61 2c       	mov	r6, r1
    31fe:	71 2c       	mov	r7, r1
    3200:	67 01       	movw	r12, r14
    3202:	cb 0c       	add	r12, r11
    3204:	d1 1c       	adc	r13, r1
    3206:	a3 01       	movw	r20, r6
    3208:	92 01       	movw	r18, r4
    320a:	59 d2       	rcall	.+1202   	; 0x36be <__udivmodsi4>
    320c:	d6 01       	movw	r26, r12
    320e:	6c 93       	st	X, r22
                        answer /= 10;
    3210:	b9 01       	movw	r22, r18
    3212:	ca 01       	movw	r24, r20
                        if (answer == 0) break;
    3214:	61 15       	cp	r22, r1
    3216:	71 05       	cpc	r23, r1
    3218:	81 05       	cpc	r24, r1
    321a:	91 05       	cpc	r25, r1
    321c:	51 f4       	brne	.+20     	; 0x3232 <ProcessInput+0xe92>
    321e:	27 e0       	ldi	r18, 0x07	; 7
    3220:	c2 2e       	mov	r12, r18
    3222:	29 e3       	ldi	r18, 0x39	; 57
    3224:	d2 2e       	mov	r13, r18
    3226:	32 e0       	ldi	r19, 0x02	; 2
    3228:	73 2e       	mov	r7, r19
}

//
void SetResponse(uint8_t number, uint16_t address, uint16_t length, uint8_t type){
    reactStr[0][number]=address;
    reactStr[1][number]=length;
    322a:	88 24       	eor	r8, r8
    322c:	83 94       	inc	r8
    322e:	91 2c       	mov	r9, r1
    3230:	02 c0       	rjmp	.+4      	; 0x3236 <ProcessInput+0xe96>
                    answer <<= (4 - whoami);            

                    SetResponse(elements++, A_YOURPART, L_YOURPART, TEASER);
                    
                    //Set up sending out number
                    for (n=9; n>=0; --n) {
    3232:	ba 94       	dec	r11
                        digit[n] = answer % 10;
                        answer /= 10;
                        if (answer == 0) break;
                    }
    3234:	e5 cf       	rjmp	.-54     	; 0x3200 <ProcessInput+0xe60>
    3236:	f2 e0       	ldi	r31, 0x02	; 2
    3238:	cf 0e       	add	r12, r31
    323a:	d1 1c       	adc	r13, r1
                    for (; n<10; ++n) {
    323c:	29 e0       	ldi	r18, 0x09	; 9
    323e:	2b 15       	cp	r18, r11
    3240:	08 f4       	brcc	.+2      	; 0x3244 <ProcessInput+0xea4>
    3242:	8c c0       	rjmp	.+280    	; 0x335c <ProcessInput+0xfbc>
                        SetResponse(elements++, A_DIGITS+digit[n], 1, TEASER);
    3244:	73 94       	inc	r7
    3246:	f7 01       	movw	r30, r14
    3248:	eb 0d       	add	r30, r11
    324a:	f1 1d       	adc	r31, r1
    return 0;
}

//
void SetResponse(uint8_t number, uint16_t address, uint16_t length, uint8_t type){
    reactStr[0][number]=address;
    324c:	80 81       	ld	r24, Z
    324e:	90 e0       	ldi	r25, 0x00	; 0
    3250:	8d 52       	subi	r24, 0x2D	; 45
    3252:	9b 48       	sbci	r25, 0x8B	; 139
    3254:	f6 01       	movw	r30, r12
    3256:	82 83       	std	Z+2, r24	; 0x02
    3258:	93 83       	std	Z+3, r25	; 0x03
    reactStr[1][number]=length;
    325a:	ee 5b       	subi	r30, 0xBE	; 190
    325c:	ff 4f       	sbci	r31, 0xFF	; 255
    325e:	80 82       	st	Z, r8
    3260:	91 82       	std	Z+1, r9	; 0x01
    reactStr[2][number]=type;
    3262:	e0 5c       	subi	r30, 0xC0	; 192
    3264:	ff 4f       	sbci	r31, 0xFF	; 255
    3266:	80 82       	st	Z, r8
    3268:	91 82       	std	Z+1, r9	; 0x01
                        answer /= 10;
                        if (answer == 0) break;
                    }
                    for (; n<10; ++n) {
                        SetResponse(elements++, A_DIGITS+digit[n], 1, TEASER);
                        UpdateState(actObj1.byteField[ACTION_STATE]);
    326a:	80 91 d2 38 	lds	r24, 0x38D2	; 0x8038d2 <actObj1.3989+0xa>
    326e:	0e 94 e5 08 	call	0x11ca	; 0x11ca <UpdateState>
                    for (n=9; n>=0; --n) {
                        digit[n] = answer % 10;
                        answer /= 10;
                        if (answer == 0) break;
                    }
                    for (; n<10; ++n) {
    3272:	b3 94       	inc	r11
    3274:	e0 cf       	rjmp	.-64     	; 0x3236 <ProcessInput+0xe96>
    return 0;
}

//
void SetResponse(uint8_t number, uint16_t address, uint16_t length, uint8_t type){
    reactStr[0][number]=address;
    3276:	86 e2       	ldi	r24, 0x26	; 38
    3278:	95 e7       	ldi	r25, 0x75	; 117
    327a:	80 93 09 39 	sts	0x3909, r24	; 0x803909 <reactStr+0x2>
    327e:	90 93 0a 39 	sts	0x390A, r25	; 0x80390a <reactStr+0x3>
    reactStr[1][number]=length;
    3282:	8d e3       	ldi	r24, 0x3D	; 61
    3284:	90 e0       	ldi	r25, 0x00	; 0
    3286:	5e c0       	rjmp	.+188    	; 0x3344 <ProcessInput+0xfa4>
    3288:	e0 91 27 38 	lds	r30, 0x3827	; 0x803827 <currDepth>
                    SetResponse(elements++, A_BADOFFERING, L_BADOFFERING, TEASER);
                }
            
            //Other questions    
            } else if (specialPassed == 1) {
                PopulateObject(route[currDepth+1], &actObj1);
    328c:	f0 e0       	ldi	r31, 0x00	; 0
    328e:	ee 0f       	add	r30, r30
    3290:	ff 1f       	adc	r31, r31
    3292:	e7 53       	subi	r30, 0x37	; 55
    3294:	f6 4c       	sbci	r31, 0xC6	; 198
    3296:	68 ec       	ldi	r22, 0xC8	; 200
    3298:	78 e3       	ldi	r23, 0x38	; 56
                } else {
                    SetResponse(elements++, A_BADOFFERING, L_BADOFFERING, TEASER);
                }
            
            //Other questions    
            } else if (specialPassed == 1) {
    329a:	81 30       	cpi	r24, 0x01	; 1
    329c:	09 f0       	breq	.+2      	; 0x32a0 <ProcessInput+0xf00>
    329e:	46 c0       	rjmp	.+140    	; 0x332c <ProcessInput+0xf8c>
                PopulateObject(route[currDepth+1], &actObj1);
    32a0:	80 81       	ld	r24, Z
    32a2:	91 81       	ldd	r25, Z+1	; 0x01
    32a4:	0e 94 24 0d 	call	0x1a48	; 0x1a48 <PopulateObject>
                if (CheckState(actObj1.byteField[ACTION_ACL])){
    32a8:	80 91 cf 38 	lds	r24, 0x38CF	; 0x8038cf <actObj1.3989+0x7>
    32ac:	0e 94 ef 08 	call	0x11de	; 0x11de <CheckState>
    32b0:	88 23       	and	r24, r24
    32b2:	01 f1       	breq	.+64     	; 0x32f4 <ProcessInput+0xf54>
                    SetResponse(elements++, actObj1.addrStr[ACTION_MSG], actObj1.lenStr[ACTION_MSG], GAME);
    32b4:	80 91 ee 38 	lds	r24, 0x38EE	; 0x8038ee <actObj1.3989+0x26>
    32b8:	90 91 ef 38 	lds	r25, 0x38EF	; 0x8038ef <actObj1.3989+0x27>
    return 0;
}

//
void SetResponse(uint8_t number, uint16_t address, uint16_t length, uint8_t type){
    reactStr[0][number]=address;
    32bc:	20 91 e0 38 	lds	r18, 0x38E0	; 0x8038e0 <actObj1.3989+0x18>
    32c0:	30 91 e1 38 	lds	r19, 0x38E1	; 0x8038e1 <actObj1.3989+0x19>
    32c4:	20 93 09 39 	sts	0x3909, r18	; 0x803909 <reactStr+0x2>
    32c8:	30 93 0a 39 	sts	0x390A, r19	; 0x80390a <reactStr+0x3>
    reactStr[1][number]=length;
    32cc:	80 93 49 39 	sts	0x3949, r24	; 0x803949 <reactStr+0x42>
    32d0:	90 93 4a 39 	sts	0x394A, r25	; 0x80394a <reactStr+0x43>
    reactStr[2][number]=type;
    32d4:	10 92 89 39 	sts	0x3989, r1	; 0x803989 <reactStr+0x82>
    32d8:	10 92 8a 39 	sts	0x398A, r1	; 0x80398a <reactStr+0x83>
            //Other questions    
            } else if (specialPassed == 1) {
                PopulateObject(route[currDepth+1], &actObj1);
                if (CheckState(actObj1.byteField[ACTION_ACL])){
                    SetResponse(elements++, actObj1.addrStr[ACTION_MSG], actObj1.lenStr[ACTION_MSG], GAME);
                    effect = actObj1.effect[2];
    32dc:	80 91 f2 38 	lds	r24, 0x38F2	; 0x8038f2 <actObj1.3989+0x2a>
    32e0:	90 e0       	ldi	r25, 0x00	; 0
    32e2:	80 93 2d 38 	sts	0x382D, r24	; 0x80382d <effect>
    32e6:	90 93 2e 38 	sts	0x382E, r25	; 0x80382e <effect+0x1>
                    UpdateState(actObj1.byteField[ACTION_STATE]);
    32ea:	80 91 d2 38 	lds	r24, 0x38D2	; 0x8038d2 <actObj1.3989+0xa>
    32ee:	0e 94 e5 08 	call	0x11ca	; 0x11ca <UpdateState>
    32f2:	32 c0       	rjmp	.+100    	; 0x3358 <ProcessInput+0xfb8>
                } else {
                    SetResponse(elements++, actObj1.addrStr[ACTION_ACL_MSG], actObj1.lenStr[ACTION_ACL_MSG], GAME);
    32f4:	80 91 ec 38 	lds	r24, 0x38EC	; 0x8038ec <actObj1.3989+0x24>
    32f8:	90 91 ed 38 	lds	r25, 0x38ED	; 0x8038ed <actObj1.3989+0x25>
    return 0;
}

//
void SetResponse(uint8_t number, uint16_t address, uint16_t length, uint8_t type){
    reactStr[0][number]=address;
    32fc:	20 91 de 38 	lds	r18, 0x38DE	; 0x8038de <actObj1.3989+0x16>
    3300:	30 91 df 38 	lds	r19, 0x38DF	; 0x8038df <actObj1.3989+0x17>
    3304:	20 93 09 39 	sts	0x3909, r18	; 0x803909 <reactStr+0x2>
    3308:	30 93 0a 39 	sts	0x390A, r19	; 0x80390a <reactStr+0x3>
    reactStr[1][number]=length;
    330c:	80 93 49 39 	sts	0x3949, r24	; 0x803949 <reactStr+0x42>
    3310:	90 93 4a 39 	sts	0x394A, r25	; 0x80394a <reactStr+0x43>
    reactStr[2][number]=type;
    3314:	10 92 89 39 	sts	0x3989, r1	; 0x803989 <reactStr+0x82>
    3318:	10 92 8a 39 	sts	0x398A, r1	; 0x80398a <reactStr+0x83>
                    SetResponse(elements++, actObj1.addrStr[ACTION_MSG], actObj1.lenStr[ACTION_MSG], GAME);
                    effect = actObj1.effect[2];
                    UpdateState(actObj1.byteField[ACTION_STATE]);
                } else {
                    SetResponse(elements++, actObj1.addrStr[ACTION_ACL_MSG], actObj1.lenStr[ACTION_ACL_MSG], GAME);
                    effect = actObj1.effect[1];
    331c:	80 91 f1 38 	lds	r24, 0x38F1	; 0x8038f1 <actObj1.3989+0x29>
    3320:	90 e0       	ldi	r25, 0x00	; 0
    3322:	80 93 2d 38 	sts	0x382D, r24	; 0x80382d <effect>
    3326:	90 93 2e 38 	sts	0x382E, r25	; 0x80382e <effect+0x1>
    332a:	16 c0       	rjmp	.+44     	; 0x3358 <ProcessInput+0xfb8>
                }

            } else {
                PopulateObject(route[currDepth+1], &actObj1);
    332c:	80 81       	ld	r24, Z
    332e:	91 81       	ldd	r25, Z+1	; 0x01
    3330:	0e 94 24 0d 	call	0x1a48	; 0x1a48 <PopulateObject>
    return 0;
}

//
void SetResponse(uint8_t number, uint16_t address, uint16_t length, uint8_t type){
    reactStr[0][number]=address;
    3334:	8e e9       	ldi	r24, 0x9E	; 158
    3336:	98 e7       	ldi	r25, 0x78	; 120
    3338:	80 93 09 39 	sts	0x3909, r24	; 0x803909 <reactStr+0x2>
    333c:	90 93 0a 39 	sts	0x390A, r25	; 0x80390a <reactStr+0x3>
    reactStr[1][number]=length;
    3340:	82 e1       	ldi	r24, 0x12	; 18
    3342:	90 e0       	ldi	r25, 0x00	; 0
    3344:	80 93 49 39 	sts	0x3949, r24	; 0x803949 <reactStr+0x42>
    3348:	90 93 4a 39 	sts	0x394A, r25	; 0x80394a <reactStr+0x43>
    reactStr[2][number]=type;
    334c:	81 e0       	ldi	r24, 0x01	; 1
    334e:	90 e0       	ldi	r25, 0x00	; 0
    3350:	80 93 89 39 	sts	0x3989, r24	; 0x803989 <reactStr+0x82>
    3354:	90 93 8a 39 	sts	0x398A, r25	; 0x80398a <reactStr+0x83>
                    effect = actObj1.effect[1];
                }

            } else {
                PopulateObject(route[currDepth+1], &actObj1);
                SetResponse(elements++, A_INCORRECT, L_INCORRECT, TEASER);
    3358:	82 e0       	ldi	r24, 0x02	; 2
    335a:	78 2e       	mov	r7, r24
            }
            specialInput[0] = 0;
    335c:	10 92 f6 38 	sts	0x38F6, r1	; 0x8038f6 <specialInput>
    return 0;
}

//
void SetResponse(uint8_t number, uint16_t address, uint16_t length, uint8_t type){
    reactStr[0][number]=address;
    3360:	8b e5       	ldi	r24, 0x5B	; 91
    3362:	9a e7       	ldi	r25, 0x7A	; 122
    3364:	80 93 07 39 	sts	0x3907, r24	; 0x803907 <reactStr>
    3368:	90 93 08 39 	sts	0x3908, r25	; 0x803908 <reactStr+0x1>
    reactStr[1][number]=length;
    336c:	82 e0       	ldi	r24, 0x02	; 2
    336e:	90 e0       	ldi	r25, 0x00	; 0
    3370:	80 93 47 39 	sts	0x3947, r24	; 0x803947 <reactStr+0x40>
    3374:	90 93 48 39 	sts	0x3948, r25	; 0x803948 <reactStr+0x41>
    reactStr[2][number]=type;
    3378:	81 e0       	ldi	r24, 0x01	; 1
    337a:	90 e0       	ldi	r25, 0x00	; 0
    337c:	80 93 87 39 	sts	0x3987, r24	; 0x803987 <reactStr+0x80>
    3380:	90 93 88 39 	sts	0x3988, r25	; 0x803988 <reactStr+0x81>
               
        }
            
        //Input handled
        SetResponse(0, A_LF, 2, TEASER);
        if (specialInput[0]) responseList = elements; else responseList = SetStandardResponse(elements);
    3384:	80 91 f6 38 	lds	r24, 0x38F6	; 0x8038f6 <specialInput>
    3388:	88 23       	and	r24, r24
    338a:	19 f0       	breq	.+6      	; 0x3392 <ProcessInput+0xff2>
    338c:	70 92 06 39 	sts	0x3906, r7	; 0x803906 <responseList>
    3390:	9a c0       	rjmp	.+308    	; 0x34c6 <ProcessInput+0x1126>
    3392:	87 2d       	mov	r24, r7
    3394:	12 c0       	rjmp	.+36     	; 0x33ba <ProcessInput+0x101a>
    return 0;
}

//
void SetResponse(uint8_t number, uint16_t address, uint16_t length, uint8_t type){
    reactStr[0][number]=address;
    3396:	8b e5       	ldi	r24, 0x5B	; 91
    3398:	9a e7       	ldi	r25, 0x7A	; 122
    339a:	80 93 07 39 	sts	0x3907, r24	; 0x803907 <reactStr>
    339e:	90 93 08 39 	sts	0x3908, r25	; 0x803908 <reactStr+0x1>
    reactStr[1][number]=length;
    33a2:	82 e0       	ldi	r24, 0x02	; 2
    33a4:	90 e0       	ldi	r25, 0x00	; 0
    33a6:	80 93 47 39 	sts	0x3947, r24	; 0x803947 <reactStr+0x40>
    33aa:	90 93 48 39 	sts	0x3948, r25	; 0x803948 <reactStr+0x41>
    reactStr[2][number]=type;
    33ae:	81 e0       	ldi	r24, 0x01	; 1
    33b0:	90 e0       	ldi	r25, 0x00	; 0
    33b2:	80 93 87 39 	sts	0x3987, r24	; 0x803987 <reactStr+0x80>
    33b6:	90 93 88 39 	sts	0x3988, r25	; 0x803988 <reactStr+0x81>
        SetResponse(0, A_LF, 2, TEASER);
        if (specialInput[0]) responseList = elements; else responseList = SetStandardResponse(elements);

    } else {
        SetResponse(0, A_LF, 2, TEASER);
        responseList = SetStandardResponse(1);
    33ba:	0e 94 a8 0c 	call	0x1950	; 0x1950 <SetStandardResponse>
    33be:	80 93 06 39 	sts	0x3906, r24	; 0x803906 <responseList>
    33c2:	81 c0       	rjmp	.+258    	; 0x34c6 <ProcessInput+0x1126>
    return 0;
}

//
void SetResponse(uint8_t number, uint16_t address, uint16_t length, uint8_t type){
    reactStr[0][number]=address;
    33c4:	84 ed       	ldi	r24, 0xD4	; 212
    33c6:	99 e7       	ldi	r25, 0x79	; 121
    33c8:	b0 cd       	rjmp	.-1184   	; 0x2f2a <ProcessInput+0xb8a>

        //Drop item if in inventory
        if (data[0] == 'd') {
            if ((inventory[0] == 0)&&(inventory[1] == 0)){
                SetResponse(elements++, A_EMPTYHANDS, L_EMPTYHANDS, TEASER);
            } else if (inputLen != 2) {
    33ca:	b2 e0       	ldi	r27, 0x02	; 2
    33cc:	fb 12       	cpse	r15, r27
    33ce:	18 c8       	rjmp	.-4048   	; 0x2400 <ProcessInput+0x60>
                SetResponse(elements++, A_NOTPOSSIBLE, L_NOTPOSSIBLE, TEASER);
            } else {
                for (uint8_t x=0; x<2; ++x) {
                    if (inventory[x]) {
                        if (CheckLetter(inventory[x], data[1])) {
    33d0:	d8 01       	movw	r26, r16
    33d2:	11 96       	adiw	r26, 0x01	; 1
    33d4:	6c 91       	ld	r22, X
    33d6:	0e 94 9b 0d 	call	0x1b36	; 0x1b36 <CheckLetter>
    33da:	88 23       	and	r24, r24
    33dc:	09 f4       	brne	.+2      	; 0x33e0 <ProcessInput+0x1040>
    33de:	5b c0       	rjmp	.+182    	; 0x3496 <ProcessInput+0x10f6>
                SetResponse(elements++, A_EMPTYHANDS, L_EMPTYHANDS, TEASER);
            } else if (inputLen != 2) {
                SetResponse(elements++, A_NOTPOSSIBLE, L_NOTPOSSIBLE, TEASER);
            } else {
                for (uint8_t x=0; x<2; ++x) {
                    if (inventory[x]) {
    33e0:	80 e0       	ldi	r24, 0x00	; 0
    33e2:	90 e0       	ldi	r25, 0x00	; 0
                        if (CheckLetter(inventory[x], data[1])) {
                            PopulateObject(inventory[x], &actObj1);
    33e4:	88 0f       	add	r24, r24
    33e6:	99 1f       	adc	r25, r25
    33e8:	9c 01       	movw	r18, r24
    33ea:	2f 5c       	subi	r18, 0xCF	; 207
    33ec:	37 4c       	sbci	r19, 0xC7	; 199
    33ee:	79 01       	movw	r14, r18
    33f0:	68 ec       	ldi	r22, 0xC8	; 200
    33f2:	78 e3       	ldi	r23, 0x38	; 56
    33f4:	d9 01       	movw	r26, r18
    33f6:	8d 91       	ld	r24, X+
    33f8:	9c 91       	ld	r25, X
    33fa:	0e 94 24 0d 	call	0x1a48	; 0x1a48 <PopulateObject>
    return 0;
}

//
void SetResponse(uint8_t number, uint16_t address, uint16_t length, uint8_t type){
    reactStr[0][number]=address;
    33fe:	84 ed       	ldi	r24, 0xD4	; 212
    3400:	97 e7       	ldi	r25, 0x77	; 119
    3402:	80 93 09 39 	sts	0x3909, r24	; 0x803909 <reactStr+0x2>
    3406:	90 93 0a 39 	sts	0x390A, r25	; 0x80390a <reactStr+0x3>
    reactStr[1][number]=length;
    340a:	80 e1       	ldi	r24, 0x10	; 16
    340c:	90 e0       	ldi	r25, 0x00	; 0
    340e:	80 93 49 39 	sts	0x3949, r24	; 0x803949 <reactStr+0x42>
    3412:	90 93 4a 39 	sts	0x394A, r25	; 0x80394a <reactStr+0x43>
    reactStr[2][number]=type;
    3416:	81 e0       	ldi	r24, 0x01	; 1
    3418:	90 e0       	ldi	r25, 0x00	; 0
    341a:	80 93 89 39 	sts	0x3989, r24	; 0x803989 <reactStr+0x82>
    341e:	90 93 8a 39 	sts	0x398A, r25	; 0x80398a <reactStr+0x83>
                for (uint8_t x=0; x<2; ++x) {
                    if (inventory[x]) {
                        if (CheckLetter(inventory[x], data[1])) {
                            PopulateObject(inventory[x], &actObj1);
                            SetResponse(elements++, A_DROPPING, L_DROPPING, TEASER);
                            SetResponse(elements++, actObj1.addrStr[NAME], actObj1.lenStr[NAME], GAME);
    3422:	20 91 e2 38 	lds	r18, 0x38E2	; 0x8038e2 <actObj1.3989+0x1a>
    3426:	30 91 e3 38 	lds	r19, 0x38E3	; 0x8038e3 <actObj1.3989+0x1b>
    return 0;
}

//
void SetResponse(uint8_t number, uint16_t address, uint16_t length, uint8_t type){
    reactStr[0][number]=address;
    342a:	40 91 d4 38 	lds	r20, 0x38D4	; 0x8038d4 <actObj1.3989+0xc>
    342e:	50 91 d5 38 	lds	r21, 0x38D5	; 0x8038d5 <actObj1.3989+0xd>
    3432:	40 93 0b 39 	sts	0x390B, r20	; 0x80390b <reactStr+0x4>
    3436:	50 93 0c 39 	sts	0x390C, r21	; 0x80390c <reactStr+0x5>
    reactStr[1][number]=length;
    343a:	20 93 4b 39 	sts	0x394B, r18	; 0x80394b <reactStr+0x44>
    343e:	30 93 4c 39 	sts	0x394C, r19	; 0x80394c <reactStr+0x45>
    reactStr[2][number]=type;
    3442:	10 92 8b 39 	sts	0x398B, r1	; 0x80398b <reactStr+0x84>
    3446:	10 92 8c 39 	sts	0x398C, r1	; 0x80398c <reactStr+0x85>
    return 0;
}

//
void SetResponse(uint8_t number, uint16_t address, uint16_t length, uint8_t type){
    reactStr[0][number]=address;
    344a:	2b e5       	ldi	r18, 0x5B	; 91
    344c:	3a e7       	ldi	r19, 0x7A	; 122
    344e:	20 93 0d 39 	sts	0x390D, r18	; 0x80390d <reactStr+0x6>
    3452:	30 93 0e 39 	sts	0x390E, r19	; 0x80390e <reactStr+0x7>
    reactStr[1][number]=length;
    3456:	22 e0       	ldi	r18, 0x02	; 2
    3458:	30 e0       	ldi	r19, 0x00	; 0
    345a:	20 93 4d 39 	sts	0x394D, r18	; 0x80394d <reactStr+0x46>
    345e:	30 93 4e 39 	sts	0x394E, r19	; 0x80394e <reactStr+0x47>
    reactStr[2][number]=type;
    3462:	80 93 8d 39 	sts	0x398D, r24	; 0x80398d <reactStr+0x86>
    3466:	90 93 8e 39 	sts	0x398E, r25	; 0x80398e <reactStr+0x87>
    return 0;
}

//
void SetResponse(uint8_t number, uint16_t address, uint16_t length, uint8_t type){
    reactStr[0][number]=address;
    346a:	27 e9       	ldi	r18, 0x97	; 151
    346c:	37 e7       	ldi	r19, 0x77	; 119
    346e:	20 93 0f 39 	sts	0x390F, r18	; 0x80390f <reactStr+0x8>
    3472:	30 93 10 39 	sts	0x3910, r19	; 0x803910 <reactStr+0x9>
    reactStr[1][number]=length;
    3476:	2d e3       	ldi	r18, 0x3D	; 61
    3478:	30 e0       	ldi	r19, 0x00	; 0
    347a:	20 93 4f 39 	sts	0x394F, r18	; 0x80394f <reactStr+0x48>
    347e:	30 93 50 39 	sts	0x3950, r19	; 0x803950 <reactStr+0x49>
    reactStr[2][number]=type;
    3482:	80 93 8f 39 	sts	0x398F, r24	; 0x80398f <reactStr+0x88>
    3486:	90 93 90 39 	sts	0x3990, r25	; 0x803990 <reactStr+0x89>
                            PopulateObject(inventory[x], &actObj1);
                            SetResponse(elements++, A_DROPPING, L_DROPPING, TEASER);
                            SetResponse(elements++, actObj1.addrStr[NAME], actObj1.lenStr[NAME], GAME);
                            SetResponse(elements++, A_LF, 2, TEASER);
                            SetResponse(elements++, A_RETURNING, L_RETURNING, TEASER);
                            inventory[x] = 0;
    348a:	f7 01       	movw	r30, r14
    348c:	10 82       	st	Z, r1
    348e:	11 82       	std	Z+1, r1	; 0x01
                        if (CheckLetter(inventory[x], data[1])) {
                            PopulateObject(inventory[x], &actObj1);
                            SetResponse(elements++, A_DROPPING, L_DROPPING, TEASER);
                            SetResponse(elements++, actObj1.addrStr[NAME], actObj1.lenStr[NAME], GAME);
                            SetResponse(elements++, A_LF, 2, TEASER);
                            SetResponse(elements++, A_RETURNING, L_RETURNING, TEASER);
    3490:	f5 e0       	ldi	r31, 0x05	; 5
    3492:	7f 2e       	mov	r7, r31
                            inventory[x] = 0;
                            break;
    3494:	65 cf       	rjmp	.-310    	; 0x3360 <ProcessInput+0xfc0>
                SetResponse(elements++, A_EMPTYHANDS, L_EMPTYHANDS, TEASER);
            } else if (inputLen != 2) {
                SetResponse(elements++, A_NOTPOSSIBLE, L_NOTPOSSIBLE, TEASER);
            } else {
                for (uint8_t x=0; x<2; ++x) {
                    if (inventory[x]) {
    3496:	80 91 33 38 	lds	r24, 0x3833	; 0x803833 <inventory+0x2>
    349a:	90 91 34 38 	lds	r25, 0x3834	; 0x803834 <inventory+0x3>
    349e:	00 97       	sbiw	r24, 0x00	; 0
    34a0:	49 f0       	breq	.+18     	; 0x34b4 <ProcessInput+0x1114>
                        if (CheckLetter(inventory[x], data[1])) {
    34a2:	f8 01       	movw	r30, r16
    34a4:	61 81       	ldd	r22, Z+1	; 0x01
    34a6:	0e 94 9b 0d 	call	0x1b36	; 0x1b36 <CheckLetter>
    34aa:	88 23       	and	r24, r24
    34ac:	19 f0       	breq	.+6      	; 0x34b4 <ProcessInput+0x1114>
                SetResponse(elements++, A_EMPTYHANDS, L_EMPTYHANDS, TEASER);
            } else if (inputLen != 2) {
                SetResponse(elements++, A_NOTPOSSIBLE, L_NOTPOSSIBLE, TEASER);
            } else {
                for (uint8_t x=0; x<2; ++x) {
                    if (inventory[x]) {
    34ae:	81 e0       	ldi	r24, 0x01	; 1
    34b0:	90 e0       	ldi	r25, 0x00	; 0
    34b2:	98 cf       	rjmp	.-208    	; 0x33e4 <ProcessInput+0x1044>
    return 0;
}

//
void SetResponse(uint8_t number, uint16_t address, uint16_t length, uint8_t type){
    reactStr[0][number]=address;
    34b4:	84 e6       	ldi	r24, 0x64	; 100
    34b6:	99 e7       	ldi	r25, 0x79	; 121
    34b8:	80 93 09 39 	sts	0x3909, r24	; 0x803909 <reactStr+0x2>
    34bc:	90 93 0a 39 	sts	0x390A, r25	; 0x80390a <reactStr+0x3>
    reactStr[1][number]=length;
    34c0:	81 e2       	ldi	r24, 0x21	; 33
    34c2:	90 e0       	ldi	r25, 0x00	; 0
    34c4:	32 c8       	rjmp	.-3996   	; 0x252a <ProcessInput+0x18a>
    } else {
        SetResponse(0, A_LF, 2, TEASER);
        responseList = SetStandardResponse(1);
    }

    data[0] = 0;
    34c6:	d8 01       	movw	r26, r16
    34c8:	1c 92       	st	X, r1
    serRxDone = 0;
    34ca:	10 92 37 38 	sts	0x3837, r1	; 0x803837 <serRxDone>
    RXCNT = 0;    
    34ce:	1d ba       	out	0x1d, r1	; 29
    return 0;
}
    34d0:	80 e0       	ldi	r24, 0x00	; 0
    34d2:	2a 96       	adiw	r28, 0x0a	; 10
    34d4:	cd bf       	out	0x3d, r28	; 61
    34d6:	de bf       	out	0x3e, r29	; 62
    34d8:	df 91       	pop	r29
    34da:	cf 91       	pop	r28
    34dc:	1f 91       	pop	r17
    34de:	0f 91       	pop	r16
    34e0:	ff 90       	pop	r15
    34e2:	ef 90       	pop	r14
    34e4:	df 90       	pop	r13
    34e6:	cf 90       	pop	r12
    34e8:	bf 90       	pop	r11
    34ea:	af 90       	pop	r10
    34ec:	9f 90       	pop	r9
    34ee:	8f 90       	pop	r8
    34f0:	7f 90       	pop	r7
    34f2:	6f 90       	pop	r6
    34f4:	5f 90       	pop	r5
    34f6:	4f 90       	pop	r4
    34f8:	08 95       	ret

000034fa <TextAdventure>:


//MAIN GAME STRUCTURE
uint8_t TextAdventure(){
    34fa:	cf 93       	push	r28
    static uint8_t serInput[RXLEN];
    
    //Still sending data to serial?
    if (CheckSend()) return 1;
    34fc:	0e 94 7a 0e 	call	0x1cf4	; 0x1cf4 <CheckSend>
    3500:	88 23       	and	r24, r24
    3502:	11 f0       	breq	.+4      	; 0x3508 <TextAdventure+0xe>
    3504:	c1 e0       	ldi	r28, 0x01	; 1
    3506:	11 c0       	rjmp	.+34     	; 0x352a <TextAdventure+0x30>

    //Not sending? Process next response part to send, if any.
    if (CheckResponse()) return 1;        
    3508:	0e 94 e7 0e 	call	0x1dce	; 0x1dce <CheckResponse>
    350c:	81 11       	cpse	r24, r1
    350e:	fa cf       	rjmp	.-12     	; 0x3504 <TextAdventure+0xa>

    //No responses to send, check if there is user input.
    if (CheckInput(&serInput[0])) return 2; 
    3510:	8c e5       	ldi	r24, 0x5C	; 92
    3512:	98 e3       	ldi	r25, 0x38	; 56
    3514:	0e 94 2e 0f 	call	0x1e5c	; 0x1e5c <CheckInput>
    3518:	c8 2f       	mov	r28, r24
    351a:	81 11       	cpse	r24, r1
    351c:	05 c0       	rjmp	.+10     	; 0x3528 <TextAdventure+0x2e>

    //Input found, process and save (changes only)
    ProcessInput(&serInput[0]);
    351e:	8c e5       	ldi	r24, 0x5C	; 92
    3520:	98 e3       	ldi	r25, 0x38	; 56
    3522:	0e 94 d0 11 	call	0x23a0	; 0x23a0 <ProcessInput>

    return 0;
    3526:	01 c0       	rjmp	.+2      	; 0x352a <TextAdventure+0x30>

    //Not sending? Process next response part to send, if any.
    if (CheckResponse()) return 1;        

    //No responses to send, check if there is user input.
    if (CheckInput(&serInput[0])) return 2; 
    3528:	c2 e0       	ldi	r28, 0x02	; 2

    //Input found, process and save (changes only)
    ProcessInput(&serInput[0]);

    return 0;
    352a:	8c 2f       	mov	r24, r28
    352c:	cf 91       	pop	r28
    352e:	08 95       	ret

00003530 <main>:


//This is where it begins, inits first and main program in while(1) loop.
int main(void)
{
    Setup();
    3530:	0e 94 c6 03 	call	0x78c	; 0x78c <Setup>

    SerSpeed(0xff);
    3534:	8f ef       	ldi	r24, 0xFF	; 255
    3536:	0e 94 36 07 	call	0xe6c	; 0xe6c <SerSpeed>
    353a:	a0 e4       	ldi	r26, 0x40	; 64
    353c:	b7 eb       	ldi	r27, 0xB7	; 183
    ////Turn on LEDs on low setting to check for interrupt glitches

    //"Hacker"
    for (uint8_t n=0; n<6; n++){
        iLED[HCKR[R][n]] = 1;
    353e:	81 e0       	ldi	r24, 0x01	; 1
    3540:	ed 91       	ld	r30, X+
    3542:	f0 e0       	ldi	r31, 0x00	; 0
    3544:	ea 54       	subi	r30, 0x4A	; 74
    3546:	f5 4c       	sbci	r31, 0xC5	; 197
    3548:	80 83       	st	Z, r24
        iLED[HCKR[G][n]] = 1;
    354a:	15 96       	adiw	r26, 0x05	; 5
    354c:	ec 91       	ld	r30, X
    354e:	15 97       	sbiw	r26, 0x05	; 5
    3550:	f0 e0       	ldi	r31, 0x00	; 0
    3552:	ea 54       	subi	r30, 0x4A	; 74
    3554:	f5 4c       	sbci	r31, 0xC5	; 197
    3556:	80 83       	st	Z, r24

    SerSpeed(0xff);
    ////Turn on LEDs on low setting to check for interrupt glitches

    //"Hacker"
    for (uint8_t n=0; n<6; n++){
    3558:	27 eb       	ldi	r18, 0xB7	; 183
    355a:	a6 34       	cpi	r26, 0x46	; 70
    355c:	b2 07       	cpc	r27, r18
    355e:	81 f7       	brne	.-32     	; 0x3540 <main+0x10>
    3560:	e2 e3       	ldi	r30, 0x32	; 50
    3562:	f7 eb       	ldi	r31, 0xB7	; 183
        iLED[HCKR[G][n]] = 1;
    }

    //"Wings"
    for (uint8_t n=0; n<5; n++){
        iLED[WING[L][n]] = 1;
    3564:	91 e0       	ldi	r25, 0x01	; 1
    3566:	ef 01       	movw	r28, r30
    3568:	a5 81       	ldd	r26, Z+5	; 0x05
    356a:	b0 e0       	ldi	r27, 0x00	; 0
    356c:	aa 54       	subi	r26, 0x4A	; 74
    356e:	b5 4c       	sbci	r27, 0xC5	; 197
    3570:	81 e0       	ldi	r24, 0x01	; 1
    3572:	9c 93       	st	X, r25
    3574:	31 96       	adiw	r30, 0x01	; 1
        iLED[WING[R][n]] = 1;
    3576:	a8 81       	ld	r26, Y
    3578:	b0 e0       	ldi	r27, 0x00	; 0
    357a:	aa 54       	subi	r26, 0x4A	; 74
    357c:	b5 4c       	sbci	r27, 0xC5	; 197
    357e:	9c 93       	st	X, r25
        iLED[HCKR[R][n]] = 1;
        iLED[HCKR[G][n]] = 1;
    }

    //"Wings"
    for (uint8_t n=0; n<5; n++){
    3580:	27 eb       	ldi	r18, 0xB7	; 183
    3582:	e7 33       	cpi	r30, 0x37	; 55
    3584:	f2 07       	cpc	r31, r18
    3586:	79 f7       	brne	.-34     	; 0x3566 <main+0x36>
        iLED[WING[L][n]] = 1;
        iLED[WING[R][n]] = 1;
    }

    //"Others"
    iLED[EYE[G][R]] = 1;
    3588:	e0 91 3e b7 	lds	r30, 0xB73E	; 0x80b73e <__bss_end+0x7c38>
    358c:	f0 e0       	ldi	r31, 0x00	; 0
    358e:	ea 54       	subi	r30, 0x4A	; 74
    3590:	f5 4c       	sbci	r31, 0xC5	; 197
    3592:	80 83       	st	Z, r24
    iLED[EYE[G][L]] = 1;
    3594:	e0 91 3f b7 	lds	r30, 0xB73F	; 0x80b73f <__bss_end+0x7c39>
    3598:	f0 e0       	ldi	r31, 0x00	; 0
    359a:	ea 54       	subi	r30, 0x4A	; 74
    359c:	f5 4c       	sbci	r31, 0xC5	; 197
    359e:	80 83       	st	Z, r24
    iLED[EYE[R][R]] = 1;
    35a0:	e0 91 3c b7 	lds	r30, 0xB73C	; 0x80b73c <__bss_end+0x7c36>
    35a4:	f0 e0       	ldi	r31, 0x00	; 0
    35a6:	ea 54       	subi	r30, 0x4A	; 74
    35a8:	f5 4c       	sbci	r31, 0xC5	; 197
    35aa:	80 83       	st	Z, r24
    iLED[EYE[R][L]] = 1;
    35ac:	e0 91 3d b7 	lds	r30, 0xB73D	; 0x80b73d <__bss_end+0x7c37>
    35b0:	f0 e0       	ldi	r31, 0x00	; 0
    35b2:	ea 54       	subi	r30, 0x4A	; 74
    35b4:	f5 4c       	sbci	r31, 0xC5	; 197
    35b6:	80 83       	st	Z, r24
    iLED[SCARAB[R]] = 1;
    35b8:	e0 91 30 b7 	lds	r30, 0xB730	; 0x80b730 <__bss_end+0x7c2a>
    35bc:	f0 e0       	ldi	r31, 0x00	; 0
    35be:	ea 54       	subi	r30, 0x4A	; 74
    35c0:	f5 4c       	sbci	r31, 0xC5	; 197
    35c2:	80 83       	st	Z, r24
    iLED[SCARAB[G]] = 1;
    35c4:	e0 91 31 b7 	lds	r30, 0xB731	; 0x80b731 <__bss_end+0x7c2b>
    35c8:	f0 e0       	ldi	r31, 0x00	; 0
    35ca:	ea 54       	subi	r30, 0x4A	; 74
    35cc:	f5 4c       	sbci	r31, 0xC5	; 197
    35ce:	80 83       	st	Z, r24
    iLED[BADGER] = 1;
    35d0:	e0 91 2f b7 	lds	r30, 0xB72F	; 0x80b72f <__bss_end+0x7c29>
    35d4:	f0 e0       	ldi	r31, 0x00	; 0
    35d6:	ea 54       	subi	r30, 0x4A	; 74
    35d8:	f5 4c       	sbci	r31, 0xC5	; 197
    35da:	80 83       	st	Z, r24
    iLED[CAT] = 1;
    35dc:	e0 91 2e b7 	lds	r30, 0xB72E	; 0x80b72e <__bss_end+0x7c28>
    35e0:	f0 e0       	ldi	r31, 0x00	; 0
    35e2:	ea 54       	subi	r30, 0x4A	; 74
    35e4:	f5 4c       	sbci	r31, 0xC5	; 197
    35e6:	80 83       	st	Z, r24

    LoadGameState();
    35e8:	0e 94 36 09 	call	0x126c	; 0x126c <LoadGameState>

    while (TRUE) {
        if (GenerateAudio()) {
    35ec:	0e 94 c8 09 	call	0x1390	; 0x1390 <GenerateAudio>
    35f0:	88 23       	and	r24, r24
    35f2:	e1 f3       	breq	.-8      	; 0x35ec <main+0xbc>
            buttonState = CheckButtons(buttonState);
    35f4:	80 91 07 38 	lds	r24, 0x3807	; 0x803807 <buttonState>
    35f8:	0e 94 65 07 	call	0xeca	; 0xeca <CheckButtons>
    35fc:	80 93 07 38 	sts	0x3807, r24	; 0x803807 <buttonState>
            buttonMark = 0;
    3600:	10 92 35 38 	sts	0x3835, r1	; 0x803835 <buttonMark>

            if (VREF_CTRLA == 0x12) SelectAuIn(); else SelectTSens();
    3604:	80 91 a0 00 	lds	r24, 0x00A0	; 0x8000a0 <__TEXT_REGION_LENGTH__+0x7000a0>
    3608:	82 31       	cpi	r24, 0x12	; 18
    360a:	19 f4       	brne	.+6      	; 0x3612 <main+0xe2>
    360c:	0e 94 56 07 	call	0xeac	; 0xeac <SelectAuIn>
    3610:	02 c0       	rjmp	.+4      	; 0x3616 <main+0xe6>
    3612:	0e 94 47 07 	call	0xe8e	; 0xe8e <SelectTSens>

            //GenerateBlinks();

            //Main game, to complete: Finish sub-game MagnetMaze and MakeFriends too.
            TextAdventure();
    3616:	71 df       	rcall	.-286    	; 0x34fa <TextAdventure>

            //Other games & user interaction checks
            MagnetMaze();
    3618:	0e 94 7e 02 	call	0x4fc	; 0x4fc <MagnetMaze>
            BastetDictates();
    361c:	0e 94 09 0b 	call	0x1612	; 0x1612 <BastetDictates>
            LanyardCode();
    3620:	0e 94 9f 01 	call	0x33e	; 0x33e <LanyardCode>
            //MakeFriends();

            //Save progress
            SaveGameState();
    3624:	0e 94 44 08 	call	0x1088	; 0x1088 <SaveGameState>

            //Check light sensor status (added hysteresis to preserve writing cycles to internal EEPROM)
            if (adcPhot < 10) WriteStatusBit(116, 1);
    3628:	80 91 a9 3a 	lds	r24, 0x3AA9	; 0x803aa9 <adcPhot>
    362c:	90 91 aa 3a 	lds	r25, 0x3AAA	; 0x803aaa <adcPhot+0x1>
    3630:	0a 97       	sbiw	r24, 0x0a	; 10
    3632:	20 f4       	brcc	.+8      	; 0x363c <main+0x10c>
    3634:	61 e0       	ldi	r22, 0x01	; 1
    3636:	84 e7       	ldi	r24, 0x74	; 116
    3638:	0e 94 cb 08 	call	0x1196	; 0x1196 <WriteStatusBit>
            if (adcPhot > 100) WriteStatusBit(116, 0);
    363c:	80 91 a9 3a 	lds	r24, 0x3AA9	; 0x803aa9 <adcPhot>
    3640:	90 91 aa 3a 	lds	r25, 0x3AAA	; 0x803aaa <adcPhot+0x1>
    3644:	85 36       	cpi	r24, 0x65	; 101
    3646:	91 05       	cpc	r25, r1
    3648:	20 f0       	brcs	.+8      	; 0x3652 <main+0x122>
    364a:	60 e0       	ldi	r22, 0x00	; 0
    364c:	84 e7       	ldi	r24, 0x74	; 116
    364e:	0e 94 cb 08 	call	0x1196	; 0x1196 <WriteStatusBit>

            //Check temperature
            HotSummer();
    3652:	0e 94 63 09 	call	0x12c6	; 0x12c6 <HotSummer>
    3656:	ca cf       	rjmp	.-108    	; 0x35ec <main+0xbc>

00003658 <__udivmodqi4>:
    3658:	99 1b       	sub	r25, r25
    365a:	79 e0       	ldi	r23, 0x09	; 9
    365c:	04 c0       	rjmp	.+8      	; 0x3666 <__udivmodqi4_ep>

0000365e <__udivmodqi4_loop>:
    365e:	99 1f       	adc	r25, r25
    3660:	96 17       	cp	r25, r22
    3662:	08 f0       	brcs	.+2      	; 0x3666 <__udivmodqi4_ep>
    3664:	96 1b       	sub	r25, r22

00003666 <__udivmodqi4_ep>:
    3666:	88 1f       	adc	r24, r24
    3668:	7a 95       	dec	r23
    366a:	c9 f7       	brne	.-14     	; 0x365e <__udivmodqi4_loop>
    366c:	80 95       	com	r24
    366e:	08 95       	ret

00003670 <__udivmodhi4>:
    3670:	aa 1b       	sub	r26, r26
    3672:	bb 1b       	sub	r27, r27
    3674:	51 e1       	ldi	r21, 0x11	; 17
    3676:	07 c0       	rjmp	.+14     	; 0x3686 <__udivmodhi4_ep>

00003678 <__udivmodhi4_loop>:
    3678:	aa 1f       	adc	r26, r26
    367a:	bb 1f       	adc	r27, r27
    367c:	a6 17       	cp	r26, r22
    367e:	b7 07       	cpc	r27, r23
    3680:	10 f0       	brcs	.+4      	; 0x3686 <__udivmodhi4_ep>
    3682:	a6 1b       	sub	r26, r22
    3684:	b7 0b       	sbc	r27, r23

00003686 <__udivmodhi4_ep>:
    3686:	88 1f       	adc	r24, r24
    3688:	99 1f       	adc	r25, r25
    368a:	5a 95       	dec	r21
    368c:	a9 f7       	brne	.-22     	; 0x3678 <__udivmodhi4_loop>
    368e:	80 95       	com	r24
    3690:	90 95       	com	r25
    3692:	bc 01       	movw	r22, r24
    3694:	cd 01       	movw	r24, r26
    3696:	08 95       	ret

00003698 <__divmodhi4>:
    3698:	97 fb       	bst	r25, 7
    369a:	07 2e       	mov	r0, r23
    369c:	16 f4       	brtc	.+4      	; 0x36a2 <__divmodhi4+0xa>
    369e:	00 94       	com	r0
    36a0:	06 d0       	rcall	.+12     	; 0x36ae <__divmodhi4_neg1>
    36a2:	77 fd       	sbrc	r23, 7
    36a4:	08 d0       	rcall	.+16     	; 0x36b6 <__divmodhi4_neg2>
    36a6:	e4 df       	rcall	.-56     	; 0x3670 <__udivmodhi4>
    36a8:	07 fc       	sbrc	r0, 7
    36aa:	05 d0       	rcall	.+10     	; 0x36b6 <__divmodhi4_neg2>
    36ac:	3e f4       	brtc	.+14     	; 0x36bc <__divmodhi4_exit>

000036ae <__divmodhi4_neg1>:
    36ae:	90 95       	com	r25
    36b0:	81 95       	neg	r24
    36b2:	9f 4f       	sbci	r25, 0xFF	; 255
    36b4:	08 95       	ret

000036b6 <__divmodhi4_neg2>:
    36b6:	70 95       	com	r23
    36b8:	61 95       	neg	r22
    36ba:	7f 4f       	sbci	r23, 0xFF	; 255

000036bc <__divmodhi4_exit>:
    36bc:	08 95       	ret

000036be <__udivmodsi4>:
    36be:	a1 e2       	ldi	r26, 0x21	; 33
    36c0:	1a 2e       	mov	r1, r26
    36c2:	aa 1b       	sub	r26, r26
    36c4:	bb 1b       	sub	r27, r27
    36c6:	fd 01       	movw	r30, r26
    36c8:	0d c0       	rjmp	.+26     	; 0x36e4 <__udivmodsi4_ep>

000036ca <__udivmodsi4_loop>:
    36ca:	aa 1f       	adc	r26, r26
    36cc:	bb 1f       	adc	r27, r27
    36ce:	ee 1f       	adc	r30, r30
    36d0:	ff 1f       	adc	r31, r31
    36d2:	a2 17       	cp	r26, r18
    36d4:	b3 07       	cpc	r27, r19
    36d6:	e4 07       	cpc	r30, r20
    36d8:	f5 07       	cpc	r31, r21
    36da:	20 f0       	brcs	.+8      	; 0x36e4 <__udivmodsi4_ep>
    36dc:	a2 1b       	sub	r26, r18
    36de:	b3 0b       	sbc	r27, r19
    36e0:	e4 0b       	sbc	r30, r20
    36e2:	f5 0b       	sbc	r31, r21

000036e4 <__udivmodsi4_ep>:
    36e4:	66 1f       	adc	r22, r22
    36e6:	77 1f       	adc	r23, r23
    36e8:	88 1f       	adc	r24, r24
    36ea:	99 1f       	adc	r25, r25
    36ec:	1a 94       	dec	r1
    36ee:	69 f7       	brne	.-38     	; 0x36ca <__udivmodsi4_loop>
    36f0:	60 95       	com	r22
    36f2:	70 95       	com	r23
    36f4:	80 95       	com	r24
    36f6:	90 95       	com	r25
    36f8:	9b 01       	movw	r18, r22
    36fa:	ac 01       	movw	r20, r24
    36fc:	bd 01       	movw	r22, r26
    36fe:	cf 01       	movw	r24, r30
    3700:	08 95       	ret

00003702 <_exit>:
    3702:	f8 94       	cli

00003704 <__stop_program>:
    3704:	ff cf       	rjmp	.-2      	; 0x3704 <__stop_program>
