
ISR_IO.elf:     file format elf32-avr

Sections:
Idx Name          Size      VMA       LMA       File off  Algn
  0 .data         00000028  00803800  000033a2  00003456  2**0
                  CONTENTS, ALLOC, LOAD, DATA
  1 .text         000032c8  00000000  00000000  000000b4  2**1
                  CONTENTS, ALLOC, LOAD, READONLY, CODE
  2 .rodata       000000da  0000b2c8  000032c8  0000337c  2**0
                  CONTENTS, ALLOC, LOAD, READONLY, DATA
  3 .bss          000002de  00803828  00803828  0000347e  2**0
                  ALLOC
  4 .comment      00000030  00000000  00000000  0000347e  2**0
                  CONTENTS, READONLY
  5 .note.gnu.avr.deviceinfo 00000040  00000000  00000000  000034b0  2**2
                  CONTENTS, READONLY
  6 .debug_aranges 000002b0  00000000  00000000  000034f0  2**0
                  CONTENTS, READONLY, DEBUGGING
  7 .debug_info   000061a7  00000000  00000000  000037a0  2**0
                  CONTENTS, READONLY, DEBUGGING
  8 .debug_abbrev 000025ee  00000000  00000000  00009947  2**0
                  CONTENTS, READONLY, DEBUGGING
  9 .debug_line   00003133  00000000  00000000  0000bf35  2**0
                  CONTENTS, READONLY, DEBUGGING
 10 .debug_frame  0000084c  00000000  00000000  0000f068  2**2
                  CONTENTS, READONLY, DEBUGGING
 11 .debug_str    00001897  00000000  00000000  0000f8b4  2**0
                  CONTENTS, READONLY, DEBUGGING
 12 .debug_loc    00004002  00000000  00000000  0001114b  2**0
                  CONTENTS, READONLY, DEBUGGING
 13 .debug_ranges 00000330  00000000  00000000  0001514d  2**0
                  CONTENTS, READONLY, DEBUGGING

Disassembly of section .text:

00000000 <__vectors>:
       0:	3d c0       	rjmp	.+122    	; 0x7c <__ctors_end>
       2:	00 00       	nop
       4:	58 c0       	rjmp	.+176    	; 0xb6 <__bad_interrupt>
       6:	00 00       	nop
       8:	56 c0       	rjmp	.+172    	; 0xb6 <__bad_interrupt>
       a:	00 00       	nop
       c:	54 c0       	rjmp	.+168    	; 0xb6 <__bad_interrupt>
       e:	00 00       	nop
      10:	52 c0       	rjmp	.+164    	; 0xb6 <__bad_interrupt>
      12:	00 00       	nop
      14:	50 c0       	rjmp	.+160    	; 0xb6 <__bad_interrupt>
      16:	00 00       	nop
      18:	8b c6       	rjmp	.+3350   	; 0xd30 <__vector_6>
      1a:	00 00       	nop
      1c:	d3 c6       	rjmp	.+3494   	; 0xdc4 <__vector_7>
      1e:	00 00       	nop
      20:	be c4       	rjmp	.+2428   	; 0x99e <__vector_8>
      22:	00 00       	nop
      24:	48 c0       	rjmp	.+144    	; 0xb6 <__bad_interrupt>
      26:	00 00       	nop
      28:	46 c0       	rjmp	.+140    	; 0xb6 <__bad_interrupt>
      2a:	00 00       	nop
      2c:	44 c0       	rjmp	.+136    	; 0xb6 <__bad_interrupt>
      2e:	00 00       	nop
      30:	42 c0       	rjmp	.+132    	; 0xb6 <__bad_interrupt>
      32:	00 00       	nop
      34:	05 c5       	rjmp	.+2570   	; 0xa40 <__vector_13>
      36:	00 00       	nop
      38:	36 c5       	rjmp	.+2668   	; 0xaa6 <__vector_14>
      3a:	00 00       	nop
      3c:	3c c0       	rjmp	.+120    	; 0xb6 <__bad_interrupt>
      3e:	00 00       	nop
      40:	3a c0       	rjmp	.+116    	; 0xb6 <__bad_interrupt>
      42:	00 00       	nop
      44:	38 c0       	rjmp	.+112    	; 0xb6 <__bad_interrupt>
      46:	00 00       	nop
      48:	36 c0       	rjmp	.+108    	; 0xb6 <__bad_interrupt>
      4a:	00 00       	nop
      4c:	34 c0       	rjmp	.+104    	; 0xb6 <__bad_interrupt>
      4e:	00 00       	nop
      50:	f4 c5       	rjmp	.+3048   	; 0xc3a <__vector_20>
      52:	00 00       	nop
      54:	30 c0       	rjmp	.+96     	; 0xb6 <__bad_interrupt>
      56:	00 00       	nop
      58:	23 c6       	rjmp	.+3142   	; 0xca0 <__vector_22>
      5a:	00 00       	nop
      5c:	2c c0       	rjmp	.+88     	; 0xb6 <__bad_interrupt>
      5e:	00 00       	nop
      60:	2a c0       	rjmp	.+84     	; 0xb6 <__bad_interrupt>
      62:	00 00       	nop
      64:	28 c0       	rjmp	.+80     	; 0xb6 <__bad_interrupt>
      66:	00 00       	nop
      68:	26 c0       	rjmp	.+76     	; 0xb6 <__bad_interrupt>
      6a:	00 00       	nop
      6c:	6f c5       	rjmp	.+2782   	; 0xb4c <__vector_27>
      6e:	00 00       	nop
      70:	c8 c5       	rjmp	.+2960   	; 0xc02 <__vector_28>
      72:	00 00       	nop
      74:	20 c0       	rjmp	.+64     	; 0xb6 <__bad_interrupt>
      76:	00 00       	nop
      78:	1e c0       	rjmp	.+60     	; 0xb6 <__bad_interrupt>
	...

0000007c <__ctors_end>:
      7c:	11 24       	eor	r1, r1
      7e:	1f be       	out	0x3f, r1	; 63
      80:	cf ef       	ldi	r28, 0xFF	; 255
      82:	cd bf       	out	0x3d, r28	; 61
      84:	df e3       	ldi	r29, 0x3F	; 63
      86:	de bf       	out	0x3e, r29	; 62

00000088 <__do_copy_data>:
      88:	18 e3       	ldi	r17, 0x38	; 56
      8a:	a0 e0       	ldi	r26, 0x00	; 0
      8c:	b8 e3       	ldi	r27, 0x38	; 56
      8e:	e2 ea       	ldi	r30, 0xA2	; 162
      90:	f3 e3       	ldi	r31, 0x33	; 51
      92:	02 c0       	rjmp	.+4      	; 0x98 <__do_copy_data+0x10>
      94:	05 90       	lpm	r0, Z+
      96:	0d 92       	st	X+, r0
      98:	a8 32       	cpi	r26, 0x28	; 40
      9a:	b1 07       	cpc	r27, r17
      9c:	d9 f7       	brne	.-10     	; 0x94 <__do_copy_data+0xc>

0000009e <__do_clear_bss>:
      9e:	2b e3       	ldi	r18, 0x3B	; 59
      a0:	a8 e2       	ldi	r26, 0x28	; 40
      a2:	b8 e3       	ldi	r27, 0x38	; 56
      a4:	01 c0       	rjmp	.+2      	; 0xa8 <.do_clear_bss_start>

000000a6 <.do_clear_bss_loop>:
      a6:	1d 92       	st	X+, r1

000000a8 <.do_clear_bss_start>:
      a8:	a6 30       	cpi	r26, 0x06	; 6
      aa:	b2 07       	cpc	r27, r18
      ac:	e1 f7       	brne	.-8      	; 0xa6 <.do_clear_bss_loop>
      ae:	0e 94 97 18 	call	0x312e	; 0x312e <main>
      b2:	0c 94 62 19 	jmp	0x32c4	; 0x32c4 <_exit>

000000b6 <__bad_interrupt>:
      b6:	a4 cf       	rjmp	.-184    	; 0x0 <__vectors>

000000b8 <I2C_init>:
// the Atmel device documentation mentions a special command for repeated start TWI_MCMD_REPSTART_gc,
// but this is not used in Atmel's demo code, so we don't use it either

void I2C_rep_start(uint8_t shifted_addr)						    // send repeated start, device_addr + LSB set if READ
{
	TWI0.MADDR = shifted_addr;	
      b8:	81 e0       	ldi	r24, 0x01	; 1
      ba:	80 93 22 04 	sts	0x0422, r24	; 0x800422 <__TEXT_REGION_LENGTH__+0x700422>
      be:	e6 e2       	ldi	r30, 0x26	; 38
      c0:	f4 e0       	ldi	r31, 0x04	; 4
      c2:	80 83       	st	Z, r24
      c4:	10 92 30 04 	sts	0x0430, r1	; 0x800430 <__TEXT_REGION_LENGTH__+0x700430>
      c8:	a1 e2       	ldi	r26, 0x21	; 33
      ca:	b4 e0       	ldi	r27, 0x04	; 4
      cc:	92 e0       	ldi	r25, 0x02	; 2
      ce:	9c 93       	st	X, r25
      d0:	90 83       	st	Z, r25
      d2:	10 92 31 04 	sts	0x0431, r1	; 0x800431 <__TEXT_REGION_LENGTH__+0x700431>
      d6:	e0 e1       	ldi	r30, 0x10	; 16
      d8:	f8 e0       	ldi	r31, 0x08	; 8
      da:	97 e0       	ldi	r25, 0x07	; 7
      dc:	96 83       	std	Z+6, r25	; 0x06
      de:	98 e0       	ldi	r25, 0x08	; 8
      e0:	94 83       	std	Z+4, r25	; 0x04
      e2:	83 83       	std	Z+3, r24	; 0x03
      e4:	8c 93       	st	X, r24
      e6:	85 81       	ldd	r24, Z+5	; 0x05
      e8:	81 60       	ori	r24, 0x01	; 1
      ea:	85 83       	std	Z+5, r24	; 0x05
      ec:	85 81       	ldd	r24, Z+5	; 0x05
      ee:	84 6c       	ori	r24, 0xC4	; 196
      f0:	85 83       	std	Z+5, r24	; 0x05
      f2:	08 95       	ret

000000f4 <I2C_recover>:
      f4:	80 91 14 08 	lds	r24, 0x0814	; 0x800814 <__TEXT_REGION_LENGTH__+0x700814>
      f8:	88 60       	ori	r24, 0x08	; 8
      fa:	80 93 14 08 	sts	0x0814, r24	; 0x800814 <__TEXT_REGION_LENGTH__+0x700814>
      fe:	10 92 13 08 	sts	0x0813, r1	; 0x800813 <__TEXT_REGION_LENGTH__+0x700813>
     102:	82 e0       	ldi	r24, 0x02	; 2
     104:	80 93 22 04 	sts	0x0422, r24	; 0x800422 <__TEXT_REGION_LENGTH__+0x700422>
     108:	99 e0       	ldi	r25, 0x09	; 9
     10a:	21 e0       	ldi	r18, 0x01	; 1
     10c:	81 e0       	ldi	r24, 0x01	; 1
     10e:	20 93 21 04 	sts	0x0421, r18	; 0x800421 <__TEXT_REGION_LENGTH__+0x700421>
     112:	30 e1       	ldi	r19, 0x10	; 16
     114:	3a 95       	dec	r19
     116:	f1 f7       	brne	.-4      	; 0x114 <I2C_recover+0x20>
     118:	00 c0       	rjmp	.+0      	; 0x11a <I2C_recover+0x26>
     11a:	20 93 22 04 	sts	0x0422, r18	; 0x800422 <__TEXT_REGION_LENGTH__+0x700422>
     11e:	30 e1       	ldi	r19, 0x10	; 16
     120:	3a 95       	dec	r19
     122:	f1 f7       	brne	.-4      	; 0x120 <I2C_recover+0x2c>
     124:	00 c0       	rjmp	.+0      	; 0x126 <I2C_recover+0x32>
     126:	91 50       	subi	r25, 0x01	; 1
     128:	89 f7       	brne	.-30     	; 0x10c <I2C_recover+0x18>
     12a:	28 e0       	ldi	r18, 0x08	; 8
     12c:	20 93 14 08 	sts	0x0814, r18	; 0x800814 <__TEXT_REGION_LENGTH__+0x700814>
     130:	80 93 13 08 	sts	0x0813, r24	; 0x800813 <__TEXT_REGION_LENGTH__+0x700813>
     134:	92 e0       	ldi	r25, 0x02	; 2
     136:	90 93 21 04 	sts	0x0421, r25	; 0x800421 <__TEXT_REGION_LENGTH__+0x700421>
     13a:	90 91 15 08 	lds	r25, 0x0815	; 0x800815 <__TEXT_REGION_LENGTH__+0x700815>
     13e:	91 60       	ori	r25, 0x01	; 1
     140:	90 93 15 08 	sts	0x0815, r25	; 0x800815 <__TEXT_REGION_LENGTH__+0x700815>
     144:	90 91 15 08 	lds	r25, 0x0815	; 0x800815 <__TEXT_REGION_LENGTH__+0x700815>
     148:	94 6c       	ori	r25, 0xC4	; 196
     14a:	90 93 15 08 	sts	0x0815, r25	; 0x800815 <__TEXT_REGION_LENGTH__+0x700815>
     14e:	20 93 14 08 	sts	0x0814, r18	; 0x800814 <__TEXT_REGION_LENGTH__+0x700814>
     152:	80 93 13 08 	sts	0x0813, r24	; 0x800813 <__TEXT_REGION_LENGTH__+0x700813>
     156:	80 93 21 04 	sts	0x0421, r24	; 0x800421 <__TEXT_REGION_LENGTH__+0x700421>
     15a:	80 91 15 08 	lds	r24, 0x0815	; 0x800815 <__TEXT_REGION_LENGTH__+0x700815>
     15e:	81 60       	ori	r24, 0x01	; 1
     160:	80 93 15 08 	sts	0x0815, r24	; 0x800815 <__TEXT_REGION_LENGTH__+0x700815>
     164:	80 91 15 08 	lds	r24, 0x0815	; 0x800815 <__TEXT_REGION_LENGTH__+0x700815>
     168:	84 6c       	ori	r24, 0xC4	; 196
     16a:	80 93 15 08 	sts	0x0815, r24	; 0x800815 <__TEXT_REGION_LENGTH__+0x700815>
     16e:	08 95       	ret

00000170 <I2C_start>:
     170:	28 2f       	mov	r18, r24
     172:	90 91 15 08 	lds	r25, 0x0815	; 0x800815 <__TEXT_REGION_LENGTH__+0x700815>
     176:	90 6c       	ori	r25, 0xC0	; 192
     178:	90 93 15 08 	sts	0x0815, r25	; 0x800815 <__TEXT_REGION_LENGTH__+0x700815>
     17c:	90 91 15 08 	lds	r25, 0x0815	; 0x800815 <__TEXT_REGION_LENGTH__+0x700815>
     180:	89 2f       	mov	r24, r25
     182:	84 70       	andi	r24, 0x04	; 4
     184:	92 fd       	sbrc	r25, 2
     186:	03 c0       	rjmp	.+6      	; 0x18e <I2C_start+0x1e>
     188:	20 93 17 08 	sts	0x0817, r18	; 0x800817 <__TEXT_REGION_LENGTH__+0x700817>
     18c:	08 95       	ret
     18e:	84 e0       	ldi	r24, 0x04	; 4
     190:	08 95       	ret

00000192 <I2C_wait_ACK>:
     192:	8c e0       	ldi	r24, 0x0C	; 12
     194:	80 93 34 3a 	sts	0x3A34, r24	; 0x803a34 <timeout_I2C>
     198:	80 91 15 08 	lds	r24, 0x0815	; 0x800815 <__TEXT_REGION_LENGTH__+0x700815>
     19c:	87 fd       	sbrc	r24, 7
     19e:	0a c0       	rjmp	.+20     	; 0x1b4 <I2C_wait_ACK+0x22>
     1a0:	80 91 15 08 	lds	r24, 0x0815	; 0x800815 <__TEXT_REGION_LENGTH__+0x700815>
     1a4:	86 fd       	sbrc	r24, 6
     1a6:	06 c0       	rjmp	.+12     	; 0x1b4 <I2C_wait_ACK+0x22>
     1a8:	80 91 34 3a 	lds	r24, 0x3A34	; 0x803a34 <timeout_I2C>
     1ac:	81 11       	cpse	r24, r1
     1ae:	f4 cf       	rjmp	.-24     	; 0x198 <I2C_wait_ACK+0x6>
     1b0:	8f ef       	ldi	r24, 0xFF	; 255
     1b2:	08 95       	ret
     1b4:	80 91 15 08 	lds	r24, 0x0815	; 0x800815 <__TEXT_REGION_LENGTH__+0x700815>
     1b8:	80 6c       	ori	r24, 0xC0	; 192
     1ba:	80 93 15 08 	sts	0x0815, r24	; 0x800815 <__TEXT_REGION_LENGTH__+0x700815>
     1be:	80 91 15 08 	lds	r24, 0x0815	; 0x800815 <__TEXT_REGION_LENGTH__+0x700815>
     1c2:	82 fd       	sbrc	r24, 2
     1c4:	09 c0       	rjmp	.+18     	; 0x1d8 <I2C_wait_ACK+0x46>
     1c6:	80 91 15 08 	lds	r24, 0x0815	; 0x800815 <__TEXT_REGION_LENGTH__+0x700815>
     1ca:	83 fd       	sbrc	r24, 3
     1cc:	07 c0       	rjmp	.+14     	; 0x1dc <I2C_wait_ACK+0x4a>
     1ce:	80 91 15 08 	lds	r24, 0x0815	; 0x800815 <__TEXT_REGION_LENGTH__+0x700815>
     1d2:	82 95       	swap	r24
     1d4:	81 70       	andi	r24, 0x01	; 1
     1d6:	08 95       	ret
     1d8:	84 e0       	ldi	r24, 0x04	; 4
     1da:	08 95       	ret
     1dc:	82 e0       	ldi	r24, 0x02	; 2
     1de:	08 95       	ret

000001e0 <I2C_read>:
}

uint8_t	I2C_read(uint8_t *data, uint8_t ack_flag)					// read data, ack_flag 0: send ACK, 1: send NACK, returns status
{
     1e0:	fc 01       	movw	r30, r24
	timeout_I2C = READ_TIMEOUT;										// reset timeout counter, will be decremented by LED matrix interrupt
     1e2:	8c e0       	ldi	r24, 0x0C	; 12
     1e4:	80 93 34 3a 	sts	0x3A34, r24	; 0x803a34 <timeout_I2C>
	if ((TWI0.MSTATUS & TWI_BUSSTATE_gm) == TWI_BUSSTATE_OWNER_gc)	// if master controls bus
     1e8:	90 91 15 08 	lds	r25, 0x0815	; 0x800815 <__TEXT_REGION_LENGTH__+0x700815>
     1ec:	89 2f       	mov	r24, r25
     1ee:	83 70       	andi	r24, 0x03	; 3
     1f0:	82 30       	cpi	r24, 0x02	; 2
     1f2:	11 f0       	breq	.+4      	; 0x1f8 <I2C_read+0x18>
		else		TWI0.MCTRLB |= TWI_ACKACT_NACK_gc;				// setup NACK (last byte read)
		*data = TWI0.MDATA;
		if (ack_flag == 0) TWI0.MCTRLB |= TWI_MCMD_RECVTRANS_gc;	// send ACK, more bytes to follow					
		return 0;
	}
	else return 8;													// master does not control bus
     1f4:	88 e0       	ldi	r24, 0x08	; 8
     1f6:	08 95       	ret
uint8_t	I2C_read(uint8_t *data, uint8_t ack_flag)					// read data, ack_flag 0: send ACK, 1: send NACK, returns status
{
	timeout_I2C = READ_TIMEOUT;										// reset timeout counter, will be decremented by LED matrix interrupt
	if ((TWI0.MSTATUS & TWI_BUSSTATE_gm) == TWI_BUSSTATE_OWNER_gc)	// if master controls bus
	{		
		while (!(TWI0.MSTATUS & TWI_RIF_bm))						// wait for RIF set (data byte received)
     1f8:	90 91 15 08 	lds	r25, 0x0815	; 0x800815 <__TEXT_REGION_LENGTH__+0x700815>
     1fc:	97 fd       	sbrc	r25, 7
     1fe:	06 c0       	rjmp	.+12     	; 0x20c <I2C_read+0x2c>
		{
			if (!(timeout_I2C)) return 0xff;			            // return timeout error
     200:	90 91 34 3a 	lds	r25, 0x3A34	; 0x803a34 <timeout_I2C>
     204:	91 11       	cpse	r25, r1
     206:	f8 cf       	rjmp	.-16     	; 0x1f8 <I2C_read+0x18>
     208:	8f ef       	ldi	r24, 0xFF	; 255
     20a:	08 95       	ret
		}
		TWI0.MSTATUS |= (TWI_RIF_bm | TWI_WIF_bm);					// clear Read and Write interrupt flags	
     20c:	90 91 15 08 	lds	r25, 0x0815	; 0x800815 <__TEXT_REGION_LENGTH__+0x700815>
     210:	90 6c       	ori	r25, 0xC0	; 192
     212:	90 93 15 08 	sts	0x0815, r25	; 0x800815 <__TEXT_REGION_LENGTH__+0x700815>
		if (TWI0.MSTATUS & TWI_BUSERR_bm) return 4;					// Bus Error, abort
     216:	90 91 15 08 	lds	r25, 0x0815	; 0x800815 <__TEXT_REGION_LENGTH__+0x700815>
     21a:	92 fd       	sbrc	r25, 2
     21c:	1e c0       	rjmp	.+60     	; 0x25a <I2C_read+0x7a>
		if (TWI0.MSTATUS & TWI_ARBLOST_bm) return 2;				// Arbitration Lost, abort
     21e:	90 91 15 08 	lds	r25, 0x0815	; 0x800815 <__TEXT_REGION_LENGTH__+0x700815>
     222:	93 fd       	sbrc	r25, 3
     224:	1d c0       	rjmp	.+58     	; 0x260 <I2C_read+0x80>
		if (TWI0.MSTATUS & TWI_RXACK_bm) return 1;					// Slave replied with NACK, abort				
     226:	90 91 15 08 	lds	r25, 0x0815	; 0x800815 <__TEXT_REGION_LENGTH__+0x700815>
     22a:	89 2f       	mov	r24, r25
     22c:	80 71       	andi	r24, 0x10	; 16
     22e:	94 fd       	sbrc	r25, 4
     230:	16 c0       	rjmp	.+44     	; 0x25e <I2C_read+0x7e>
		if (ack_flag == 0) TWI0.MCTRLB &= ~(1 << TWI_ACKACT_bp);	// setup ACK
     232:	90 91 14 08 	lds	r25, 0x0814	; 0x800814 <__TEXT_REGION_LENGTH__+0x700814>
     236:	61 11       	cpse	r22, r1
     238:	02 c0       	rjmp	.+4      	; 0x23e <I2C_read+0x5e>
     23a:	9b 7f       	andi	r25, 0xFB	; 251
     23c:	01 c0       	rjmp	.+2      	; 0x240 <I2C_read+0x60>
		else		TWI0.MCTRLB |= TWI_ACKACT_NACK_gc;				// setup NACK (last byte read)
     23e:	94 60       	ori	r25, 0x04	; 4
     240:	90 93 14 08 	sts	0x0814, r25	; 0x800814 <__TEXT_REGION_LENGTH__+0x700814>
		*data = TWI0.MDATA;
     244:	90 91 18 08 	lds	r25, 0x0818	; 0x800818 <__TEXT_REGION_LENGTH__+0x700818>
     248:	90 83       	st	Z, r25
		if (ack_flag == 0) TWI0.MCTRLB |= TWI_MCMD_RECVTRANS_gc;	// send ACK, more bytes to follow					
     24a:	61 11       	cpse	r22, r1
     24c:	09 c0       	rjmp	.+18     	; 0x260 <I2C_read+0x80>
     24e:	90 91 14 08 	lds	r25, 0x0814	; 0x800814 <__TEXT_REGION_LENGTH__+0x700814>
     252:	92 60       	ori	r25, 0x02	; 2
     254:	90 93 14 08 	sts	0x0814, r25	; 0x800814 <__TEXT_REGION_LENGTH__+0x700814>
     258:	08 95       	ret
		while (!(TWI0.MSTATUS & TWI_RIF_bm))						// wait for RIF set (data byte received)
		{
			if (!(timeout_I2C)) return 0xff;			            // return timeout error
		}
		TWI0.MSTATUS |= (TWI_RIF_bm | TWI_WIF_bm);					// clear Read and Write interrupt flags	
		if (TWI0.MSTATUS & TWI_BUSERR_bm) return 4;					// Bus Error, abort
     25a:	84 e0       	ldi	r24, 0x04	; 4
     25c:	08 95       	ret
		if (TWI0.MSTATUS & TWI_ARBLOST_bm) return 2;				// Arbitration Lost, abort
		if (TWI0.MSTATUS & TWI_RXACK_bm) return 1;					// Slave replied with NACK, abort				
     25e:	81 e0       	ldi	r24, 0x01	; 1
		*data = TWI0.MDATA;
		if (ack_flag == 0) TWI0.MCTRLB |= TWI_MCMD_RECVTRANS_gc;	// send ACK, more bytes to follow					
		return 0;
	}
	else return 8;													// master does not control bus
}
     260:	08 95       	ret

00000262 <I2C_write>:

uint8_t I2C_write(uint8_t *data)									// write data, return status
{
     262:	fc 01       	movw	r30, r24
	timeout_I2C = WRITE_TIMEOUT;									// reset timeout counter, will be decremented by LED matrix interrupt
     264:	8c e0       	ldi	r24, 0x0C	; 12
     266:	80 93 34 3a 	sts	0x3A34, r24	; 0x803a34 <timeout_I2C>
	if ((TWI0.MSTATUS & TWI_BUSSTATE_gm) == TWI_BUSSTATE_OWNER_gc)	// if master controls bus
     26a:	90 91 15 08 	lds	r25, 0x0815	; 0x800815 <__TEXT_REGION_LENGTH__+0x700815>
     26e:	93 70       	andi	r25, 0x03	; 3
     270:	92 30       	cpi	r25, 0x02	; 2
     272:	b1 f4       	brne	.+44     	; 0x2a0 <I2C_write+0x3e>
	{
		TWI0.MDATA = *data;		
     274:	80 81       	ld	r24, Z
     276:	80 93 18 08 	sts	0x0818, r24	; 0x800818 <__TEXT_REGION_LENGTH__+0x700818>
		while (!(TWI0.MSTATUS & TWI_WIF_bm))						// wait until WIF set, status register contains ACK/NACK bit
     27a:	80 91 15 08 	lds	r24, 0x0815	; 0x800815 <__TEXT_REGION_LENGTH__+0x700815>
     27e:	86 fd       	sbrc	r24, 6
     280:	06 c0       	rjmp	.+12     	; 0x28e <I2C_write+0x2c>
		{
			if (!(timeout_I2C)) return 0xff;			            // return timeout error
     282:	80 91 34 3a 	lds	r24, 0x3A34	; 0x803a34 <timeout_I2C>
     286:	81 11       	cpse	r24, r1
     288:	f8 cf       	rjmp	.-16     	; 0x27a <I2C_write+0x18>
     28a:	8f ef       	ldi	r24, 0xFF	; 255
     28c:	08 95       	ret
		}
		if (TWI0.MSTATUS & TWI_BUSERR_bm) return 4;					// Bus Error, abort
     28e:	80 91 15 08 	lds	r24, 0x0815	; 0x800815 <__TEXT_REGION_LENGTH__+0x700815>
     292:	82 fd       	sbrc	r24, 2
     294:	07 c0       	rjmp	.+14     	; 0x2a4 <I2C_write+0x42>
		if (TWI0.MSTATUS & TWI_RXACK_bm) return 1;					// Slave replied with NACK, abort
     296:	80 91 15 08 	lds	r24, 0x0815	; 0x800815 <__TEXT_REGION_LENGTH__+0x700815>
	if ((TWI0.MSTATUS & TWI_BUSSTATE_gm) == TWI_BUSSTATE_OWNER_gc)	// if master controls bus
	{
		TWI0.MDATA = *data;		
		while (!(TWI0.MSTATUS & TWI_WIF_bm))						// wait until WIF set, status register contains ACK/NACK bit
		{
			if (!(timeout_I2C)) return 0xff;			            // return timeout error
     29a:	82 95       	swap	r24
     29c:	81 70       	andi	r24, 0x01	; 1
     29e:	08 95       	ret
		}
		if (TWI0.MSTATUS & TWI_BUSERR_bm) return 4;					// Bus Error, abort
		if (TWI0.MSTATUS & TWI_RXACK_bm) return 1;					// Slave replied with NACK, abort
		return 0;													// no error	
	}
	else return 8;													// master does not control bus
     2a0:	88 e0       	ldi	r24, 0x08	; 8
     2a2:	08 95       	ret
		TWI0.MDATA = *data;		
		while (!(TWI0.MSTATUS & TWI_WIF_bm))						// wait until WIF set, status register contains ACK/NACK bit
		{
			if (!(timeout_I2C)) return 0xff;			            // return timeout error
		}
		if (TWI0.MSTATUS & TWI_BUSERR_bm) return 4;					// Bus Error, abort
     2a4:	84 e0       	ldi	r24, 0x04	; 4
		if (TWI0.MSTATUS & TWI_RXACK_bm) return 1;					// Slave replied with NACK, abort
		return 0;													// no error	
	}
	else return 8;													// master does not control bus
}
     2a6:	08 95       	ret

000002a8 <I2C_stop>:

void I2C_stop()
{
	TWI0.MCTRLB |= TWI_MCMD_STOP_gc;
     2a8:	e0 e1       	ldi	r30, 0x10	; 16
     2aa:	f8 e0       	ldi	r31, 0x08	; 8
     2ac:	84 81       	ldd	r24, Z+4	; 0x04
     2ae:	83 60       	ori	r24, 0x03	; 3
     2b0:	84 83       	std	Z+4, r24	; 0x04
     2b2:	08 95       	ret

000002b4 <I2C_read_bytes>:
// addr_ptr		address of first array element to transfer
// slave reg	starting slave register
// num_bytes	number of bytes to transfer

uint8_t	I2C_read_bytes(uint8_t slave_addr, uint8_t *reg_ptr, uint8_t reg_len, uint8_t *dat_ptr, uint8_t dat_len)
{
     2b4:	cf 92       	push	r12
     2b6:	df 92       	push	r13
     2b8:	ff 92       	push	r15
     2ba:	0f 93       	push	r16
     2bc:	1f 93       	push	r17
     2be:	cf 93       	push	r28
     2c0:	df 93       	push	r29
     2c2:	6b 01       	movw	r12, r22
     2c4:	f4 2e       	mov	r15, r20
     2c6:	e9 01       	movw	r28, r18
	uint8_t status;
	if (dat_len > MAX_LEN) dat_len = MAX_LEN;
	status = I2C_start(slave_addr << 1);							// slave write address, LSB 0
     2c8:	18 2f       	mov	r17, r24
     2ca:	11 0f       	add	r17, r17
     2cc:	81 2f       	mov	r24, r17
     2ce:	50 df       	rcall	.-352    	; 0x170 <I2C_start>
	if (status != 0) goto error;
     2d0:	81 11       	cpse	r24, r1
	status = I2C_wait_ACK();										// wait for slave ACK
     2d2:	2b c0       	rjmp	.+86     	; 0x32a <I2C_read_bytes+0x76>
     2d4:	5e df       	rcall	.-324    	; 0x192 <I2C_wait_ACK>
	if (status == 1) {
     2d6:	81 30       	cpi	r24, 0x01	; 1
		I2C_stop();													// NACK, abort
     2d8:	19 f4       	brne	.+6      	; 0x2e0 <I2C_read_bytes+0x2c>
     2da:	e6 df       	rcall	.-52     	; 0x2a8 <I2C_stop>
		return 1;
     2dc:	81 e0       	ldi	r24, 0x01	; 1
     2de:	27 c0       	rjmp	.+78     	; 0x32e <I2C_read_bytes+0x7a>
	}
	if (status != 0) goto error;
     2e0:	81 11       	cpse	r24, r1
     2e2:	23 c0       	rjmp	.+70     	; 0x32a <I2C_read_bytes+0x76>
    while(reg_len > 0){
     2e4:	ff 20       	and	r15, r15
	    status = I2C_write(reg_ptr);    							// send slave start register
     2e6:	49 f0       	breq	.+18     	; 0x2fa <I2C_read_bytes+0x46>
     2e8:	c6 01       	movw	r24, r12
     2ea:	bb df       	rcall	.-138    	; 0x262 <I2C_write>
	    if (status != 0) goto error;
     2ec:	81 11       	cpse	r24, r1
     2ee:	1d c0       	rjmp	.+58     	; 0x32a <I2C_read_bytes+0x76>
        ++reg_ptr;
     2f0:	8f ef       	ldi	r24, 0xFF	; 255
     2f2:	c8 1a       	sub	r12, r24
     2f4:	d8 0a       	sbc	r13, r24
        --reg_len;
     2f6:	fa 94       	dec	r15
     2f8:	f5 cf       	rjmp	.-22     	; 0x2e4 <I2C_read_bytes+0x30>
     2fa:	01 34       	cpi	r16, 0x41	; 65
     2fc:	08 f0       	brcs	.+2      	; 0x300 <I2C_read_bytes+0x4c>
     2fe:	00 e4       	ldi	r16, 0x40	; 64
    }
	I2C_rep_start((slave_addr << 1) + 1);							// slave read address, LSB 1
     300:	1f 5f       	subi	r17, 0xFF	; 255
// the Atmel device documentation mentions a special command for repeated start TWI_MCMD_REPSTART_gc,
// but this is not used in Atmel's demo code, so we don't use it either

void I2C_rep_start(uint8_t shifted_addr)						    // send repeated start, device_addr + LSB set if READ
{
	TWI0.MADDR = shifted_addr;	
     302:	10 93 17 08 	sts	0x0817, r17	; 0x800817 <__TEXT_REGION_LENGTH__+0x700817>
	    if (status != 0) goto error;
        ++reg_ptr;
        --reg_len;
    }
	I2C_rep_start((slave_addr << 1) + 1);							// slave read address, LSB 1
	while (dat_len > 1) {
     306:	02 30       	cpi	r16, 0x02	; 2
		status = I2C_read(dat_ptr, 0);								// first bytes, send ACK
     308:	40 f0       	brcs	.+16     	; 0x31a <I2C_read_bytes+0x66>
     30a:	60 e0       	ldi	r22, 0x00	; 0
     30c:	ce 01       	movw	r24, r28
     30e:	68 df       	rcall	.-304    	; 0x1e0 <I2C_read>
		if (status != 0) goto error;
     310:	81 11       	cpse	r24, r1
     312:	0b c0       	rjmp	.+22     	; 0x32a <I2C_read_bytes+0x76>
		++dat_ptr;
		--dat_len;
     314:	21 96       	adiw	r28, 0x01	; 1
     316:	01 50       	subi	r16, 0x01	; 1
	}
	status = I2C_read(dat_ptr, 1);									// single or last byte, send NACK
     318:	f6 cf       	rjmp	.-20     	; 0x306 <I2C_read_bytes+0x52>
     31a:	61 e0       	ldi	r22, 0x01	; 1
     31c:	ce 01       	movw	r24, r28
	if (status != 0) goto error;
     31e:	60 df       	rcall	.-320    	; 0x1e0 <I2C_read>
     320:	81 11       	cpse	r24, r1
	I2C_stop();
     322:	03 c0       	rjmp	.+6      	; 0x32a <I2C_read_bytes+0x76>
     324:	c1 df       	rcall	.-126    	; 0x2a8 <I2C_stop>
	return 0;
     326:	80 e0       	ldi	r24, 0x00	; 0
     328:	02 c0       	rjmp	.+4      	; 0x32e <I2C_read_bytes+0x7a>
	
error:
	I2C_recover();													// clock out possibly stuck slave, reset master
     32a:	e4 de       	rcall	.-568    	; 0xf4 <I2C_recover>
     32c:	8f ef       	ldi	r24, 0xFF	; 255
	return 0xff;													// flag error
     32e:	df 91       	pop	r29
}
     330:	cf 91       	pop	r28
     332:	1f 91       	pop	r17
     334:	0f 91       	pop	r16
     336:	ff 90       	pop	r15
     338:	df 90       	pop	r13
     33a:	cf 90       	pop	r12
     33c:	08 95       	ret

0000033e <LanyardCode>:
     33e:	cf 93       	push	r28
uint8_t         lanyardState = TRUE;
uint8_t         lastButtonState = 0xff;
uint8_t         digit = 0xff;

// Main game loop
uint8_t LanyardCode(){
     340:	df 93       	push	r29
    if (CheckState(LANYARD_COMPLETED)) {
     342:	8b e7       	ldi	r24, 0x7B	; 123
     344:	25 d7       	rcall	.+3658   	; 0x1190 <CheckState>
     346:	81 11       	cpse	r24, r1
     348:	e7 c0       	rjmp	.+462    	; 0x518 <__LOCK_REGION_LENGTH__+0x118>
        }
        */
        return 0;
    }

    if ( gameNow != TEXT && gameNow != LANYARD )
     34a:	80 91 2f 38 	lds	r24, 0x382F	; 0x80382f <gameNow>
     34e:	88 23       	and	r24, r24
     350:	19 f0       	breq	.+6      	; 0x358 <LanyardCode+0x1a>
     352:	83 30       	cpi	r24, 0x03	; 3
     354:	09 f0       	breq	.+2      	; 0x358 <LanyardCode+0x1a>
     356:	e0 c0       	rjmp	.+448    	; 0x518 <__LOCK_REGION_LENGTH__+0x118>
        return 0;

    /* activate led for buttonstate */
    iLED[SCARAB[G]] = (buttonState==0xff ? 0 : 255);
     358:	c0 91 f3 b2 	lds	r28, 0xB2F3	; 0x80b2f3 <__bss_end+0x77ed>
     35c:	ec 2f       	mov	r30, r28
     35e:	f0 e0       	ldi	r31, 0x00	; 0
     360:	80 91 07 38 	lds	r24, 0x3807	; 0x803807 <buttonState>
     364:	91 e0       	ldi	r25, 0x01	; 1
     366:	8f 3f       	cpi	r24, 0xFF	; 255
     368:	09 f4       	brne	.+2      	; 0x36c <LanyardCode+0x2e>
     36a:	90 e0       	ldi	r25, 0x00	; 0
     36c:	91 95       	neg	r25
     36e:	ea 54       	subi	r30, 0x4A	; 74
     370:	f5 4c       	sbci	r31, 0xC5	; 197
     372:	90 83       	st	Z, r25

    if ( (buttonState & 0xf0) == 0)
     374:	98 2f       	mov	r25, r24
     376:	90 7f       	andi	r25, 0xF0	; 240
     378:	09 f4       	brne	.+2      	; 0x37c <LanyardCode+0x3e>
     37a:	ce c0       	rjmp	.+412    	; 0x518 <__LOCK_REGION_LENGTH__+0x118>
        return 0;

    if ((buttonState&0x0f) == (lastButtonState&0x0f))
     37c:	20 91 01 38 	lds	r18, 0x3801	; 0x803801 <lastButtonState>
     380:	98 2f       	mov	r25, r24
     382:	92 27       	eor	r25, r18
     384:	9f 70       	andi	r25, 0x0F	; 15
     386:	09 f4       	brne	.+2      	; 0x38a <LanyardCode+0x4c>
     388:	c7 c0       	rjmp	.+398    	; 0x518 <__LOCK_REGION_LENGTH__+0x118>
        return 0;

    if (lastButtonState == 0xff){
     38a:	2f 3f       	cpi	r18, 0xFF	; 255
     38c:	09 f0       	breq	.+2      	; 0x390 <LanyardCode+0x52>
     38e:	c0 c0       	rjmp	.+384    	; 0x510 <__LOCK_REGION_LENGTH__+0x110>
        switch (buttonState & 0x0f) {
     390:	8f 70       	andi	r24, 0x0F	; 15
     392:	82 30       	cpi	r24, 0x02	; 2
     394:	61 f0       	breq	.+24     	; 0x3ae <LanyardCode+0x70>
     396:	28 f4       	brcc	.+10     	; 0x3a2 <LanyardCode+0x64>
     398:	81 30       	cpi	r24, 0x01	; 1
     39a:	69 f4       	brne	.+26     	; 0x3b6 <LanyardCode+0x78>
            case 0b0001: {
                digit = 0;
     39c:	10 92 00 38 	sts	0x3800, r1	; 0x803800 <__data_start>
                break;
     3a0:	0d c0       	rjmp	.+26     	; 0x3bc <LanyardCode+0x7e>

    if ((buttonState&0x0f) == (lastButtonState&0x0f))
        return 0;

    if (lastButtonState == 0xff){
        switch (buttonState & 0x0f) {
     3a2:	84 30       	cpi	r24, 0x04	; 4
     3a4:	31 f0       	breq	.+12     	; 0x3b2 <LanyardCode+0x74>
     3a6:	88 30       	cpi	r24, 0x08	; 8
     3a8:	31 f4       	brne	.+12     	; 0x3b6 <LanyardCode+0x78>
                digit = 3;
                break;
            }

            case 0b1000: {
                digit = 2;
     3aa:	82 e0       	ldi	r24, 0x02	; 2
     3ac:	05 c0       	rjmp	.+10     	; 0x3b8 <LanyardCode+0x7a>
                digit = 0;
                break;
            }

            case 0b0010: {
                digit = 1;
     3ae:	81 e0       	ldi	r24, 0x01	; 1
     3b0:	03 c0       	rjmp	.+6      	; 0x3b8 <LanyardCode+0x7a>
                break;
            }

            case 0b0100: {
                digit = 3;
     3b2:	83 e0       	ldi	r24, 0x03	; 3
     3b4:	01 c0       	rjmp	.+2      	; 0x3b8 <LanyardCode+0x7a>
                digit = 2;
                break;
            }

            default: {
                digit = 0xff;
     3b6:	8f ef       	ldi	r24, 0xFF	; 255
     3b8:	80 93 00 38 	sts	0x3800, r24	; 0x803800 <__data_start>
                break;
            }
        }
        gameNow = LANYARD;
     3bc:	83 e0       	ldi	r24, 0x03	; 3
     3be:	80 93 2f 38 	sts	0x382F, r24	; 0x80382f <gameNow>
        /* play tone for button */

        if (digit == lanyardCode[lanyardPos]) {
     3c2:	80 91 29 38 	lds	r24, 0x3829	; 0x803829 <lanyardPos>
     3c6:	e8 2f       	mov	r30, r24
     3c8:	f0 e0       	ldi	r31, 0x00	; 0
     3ca:	e8 52       	subi	r30, 0x28	; 40
     3cc:	fd 44       	sbci	r31, 0x4D	; 77
     3ce:	20 81       	ld	r18, Z
     3d0:	90 91 00 38 	lds	r25, 0x3800	; 0x803800 <__data_start>
     3d4:	e0 91 f0 b2 	lds	r30, 0xB2F0	; 0x80b2f0 <__bss_end+0x77ea>
     3d8:	29 13       	cpse	r18, r25
     3da:	17 c0       	rjmp	.+46     	; 0x40a <__LOCK_REGION_LENGTH__+0xa>
            lanyardState &= TRUE;
     3dc:	90 91 02 38 	lds	r25, 0x3802	; 0x803802 <lanyardState>
     3e0:	91 70       	andi	r25, 0x01	; 1
     3e2:	90 93 02 38 	sts	0x3802, r25	; 0x803802 <lanyardState>
            iLED[CAT]       = 128;
     3e6:	f0 e0       	ldi	r31, 0x00	; 0
     3e8:	ea 54       	subi	r30, 0x4A	; 74
     3ea:	f5 4c       	sbci	r31, 0xC5	; 197
     3ec:	90 e8       	ldi	r25, 0x80	; 128
     3ee:	90 83       	st	Z, r25
            iLED[EYE[R][L]] = 0;
     3f0:	e0 91 ff b2 	lds	r30, 0xB2FF	; 0x80b2ff <__bss_end+0x77f9>
     3f4:	f0 e0       	ldi	r31, 0x00	; 0
     3f6:	ea 54       	subi	r30, 0x4A	; 74
     3f8:	f5 4c       	sbci	r31, 0xC5	; 197
     3fa:	10 82       	st	Z, r1
            iLED[EYE[R][R]] = 0;
     3fc:	e0 91 fe b2 	lds	r30, 0xB2FE	; 0x80b2fe <__bss_end+0x77f8>
     400:	f0 e0       	ldi	r31, 0x00	; 0
     402:	ea 54       	subi	r30, 0x4A	; 74
     404:	f5 4c       	sbci	r31, 0xC5	; 197
     406:	10 82       	st	Z, r1
     408:	13 c0       	rjmp	.+38     	; 0x430 <__LOCK_REGION_LENGTH__+0x30>
        } else {
            lanyardState = FALSE;
     40a:	10 92 02 38 	sts	0x3802, r1	; 0x803802 <lanyardState>
            iLED[CAT]       = 0;
     40e:	f0 e0       	ldi	r31, 0x00	; 0
     410:	ea 54       	subi	r30, 0x4A	; 74
     412:	f5 4c       	sbci	r31, 0xC5	; 197
     414:	10 82       	st	Z, r1
            if (lanyardPos < 4 ) {
     416:	84 30       	cpi	r24, 0x04	; 4
     418:	58 f4       	brcc	.+22     	; 0x430 <__LOCK_REGION_LENGTH__+0x30>
                /*gameNow         = BASTET;*/
                gameNow         = TEXT;
     41a:	10 92 2f 38 	sts	0x382F, r1	; 0x80382f <gameNow>
                lanyardPos      = 0;
     41e:	10 92 29 38 	sts	0x3829, r1	; 0x803829 <lanyardPos>
                lanyardCnt      = 0;
     422:	10 92 28 38 	sts	0x3828, r1	; 0x803828 <__data_end>
                lanyardState    = TRUE;
     426:	81 e0       	ldi	r24, 0x01	; 1
     428:	80 93 02 38 	sts	0x3802, r24	; 0x803802 <lanyardState>
                lastButtonState = 0xff;
     42c:	8f ef       	ldi	r24, 0xFF	; 255
     42e:	72 c0       	rjmp	.+228    	; 0x514 <__LOCK_REGION_LENGTH__+0x114>
                return 0;
            }
        }
        lanyardPos++;
     430:	8f 5f       	subi	r24, 0xFF	; 255
     432:	80 93 29 38 	sts	0x3829, r24	; 0x803829 <lanyardPos>
        lanyardCnt++;            
     436:	90 91 28 38 	lds	r25, 0x3828	; 0x803828 <__data_end>
     43a:	9f 5f       	subi	r25, 0xFF	; 255
        if (lanyardCnt >= 4) {
     43c:	94 30       	cpi	r25, 0x04	; 4
     43e:	18 f4       	brcc	.+6      	; 0x446 <__LOCK_REGION_LENGTH__+0x46>
                lastButtonState = 0xff;
                return 0;
            }
        }
        lanyardPos++;
        lanyardCnt++;            
     440:	90 93 28 38 	sts	0x3828, r25	; 0x803828 <__data_end>
     444:	65 c0       	rjmp	.+202    	; 0x510 <__LOCK_REGION_LENGTH__+0x110>
        if (lanyardCnt >= 4) {
            lanyardCnt = 0;
     446:	10 92 28 38 	sts	0x3828, r1	; 0x803828 <__data_end>
            if (lanyardState == TRUE) {
     44a:	90 91 02 38 	lds	r25, 0x3802	; 0x803802 <lanyardState>
     44e:	91 30       	cpi	r25, 0x01	; 1
     450:	79 f5       	brne	.+94     	; 0x4b0 <__LOCK_REGION_LENGTH__+0xb0>
                iLED[HCKR[G][(lanyardPos/4)-1]] = 255;
     452:	e8 2f       	mov	r30, r24
     454:	e6 95       	lsr	r30
     456:	e6 95       	lsr	r30
     458:	f0 e0       	ldi	r31, 0x00	; 0
     45a:	ee 5f       	subi	r30, 0xFE	; 254
     45c:	fc 44       	sbci	r31, 0x4C	; 76
     45e:	e5 81       	ldd	r30, Z+5	; 0x05
     460:	f0 e0       	ldi	r31, 0x00	; 0
     462:	ea 54       	subi	r30, 0x4A	; 74
     464:	f5 4c       	sbci	r31, 0xC5	; 197
     466:	df ef       	ldi	r29, 0xFF	; 255
     468:	d0 83       	st	Z, r29
                if (lanyardPos == sizeof(lanyardCode)) {
     46a:	88 31       	cpi	r24, 0x18	; 24
     46c:	09 f0       	breq	.+2      	; 0x470 <__LOCK_REGION_LENGTH__+0x70>
     46e:	50 c0       	rjmp	.+160    	; 0x510 <__LOCK_REGION_LENGTH__+0x110>
                    UpdateState(LANYARD_COMPLETED);
     470:	8b e7       	ldi	r24, 0x7B	; 123
     472:	86 d6       	rcall	.+3340   	; 0x1180 <UpdateState>
                    iLED[SCARAB[G]]    = 0;
     474:	ec 2f       	mov	r30, r28
     476:	f0 e0       	ldi	r31, 0x00	; 0
     478:	ea 54       	subi	r30, 0x4A	; 74
     47a:	f5 4c       	sbci	r31, 0xC5	; 197
     47c:	10 82       	st	Z, r1
                    iLED[EYE[R][L]] = 0;
     47e:	e0 91 ff b2 	lds	r30, 0xB2FF	; 0x80b2ff <__bss_end+0x77f9>
     482:	f0 e0       	ldi	r31, 0x00	; 0
     484:	ea 54       	subi	r30, 0x4A	; 74
     486:	f5 4c       	sbci	r31, 0xC5	; 197
     488:	10 82       	st	Z, r1
                    iLED[EYE[R][R]] = 0;
     48a:	e0 91 fe b2 	lds	r30, 0xB2FE	; 0x80b2fe <__bss_end+0x77f8>
     48e:	f0 e0       	ldi	r31, 0x00	; 0
     490:	ea 54       	subi	r30, 0x4A	; 74
     492:	f5 4c       	sbci	r31, 0xC5	; 197
     494:	10 82       	st	Z, r1
                    iLED[EYE[G][L]] = 255;
     496:	e0 91 01 b3 	lds	r30, 0xB301	; 0x80b301 <__bss_end+0x77fb>
     49a:	f0 e0       	ldi	r31, 0x00	; 0
     49c:	ea 54       	subi	r30, 0x4A	; 74
     49e:	f5 4c       	sbci	r31, 0xC5	; 197
     4a0:	d0 83       	st	Z, r29
                    iLED[EYE[G][R]] = 255;
     4a2:	e0 91 00 b3 	lds	r30, 0xB300	; 0x80b300 <__bss_end+0x77fa>
     4a6:	f0 e0       	ldi	r31, 0x00	; 0
     4a8:	ea 54       	subi	r30, 0x4A	; 74
     4aa:	f5 4c       	sbci	r31, 0xC5	; 197
     4ac:	d0 83       	st	Z, r29
     4ae:	30 c0       	rjmp	.+96     	; 0x510 <__LOCK_REGION_LENGTH__+0x110>
                    /*state = STATE_MUSIC;*/
                }
            } else {
                gameNow         = TEXT;
     4b0:	10 92 2f 38 	sts	0x382F, r1	; 0x80382f <gameNow>
                lanyardPos      = 0;
     4b4:	10 92 29 38 	sts	0x3829, r1	; 0x803829 <lanyardPos>
                lanyardState    = TRUE;
     4b8:	81 e0       	ldi	r24, 0x01	; 1
     4ba:	80 93 02 38 	sts	0x3802, r24	; 0x803802 <lanyardState>
                lastButtonState = 0xff;
                iLED[SCARAB[G]]    = 0;
     4be:	ec 2f       	mov	r30, r28
     4c0:	f0 e0       	ldi	r31, 0x00	; 0
     4c2:	ea 54       	subi	r30, 0x4A	; 74
     4c4:	f5 4c       	sbci	r31, 0xC5	; 197
     4c6:	10 82       	st	Z, r1
                iLED[EYE[G][L]] = 0;
     4c8:	e0 91 01 b3 	lds	r30, 0xB301	; 0x80b301 <__bss_end+0x77fb>
     4cc:	f0 e0       	ldi	r31, 0x00	; 0
     4ce:	ea 54       	subi	r30, 0x4A	; 74
     4d0:	f5 4c       	sbci	r31, 0xC5	; 197
     4d2:	10 82       	st	Z, r1
                iLED[EYE[G][R]] = 0;
     4d4:	e0 91 00 b3 	lds	r30, 0xB300	; 0x80b300 <__bss_end+0x77fa>
     4d8:	f0 e0       	ldi	r31, 0x00	; 0
     4da:	ea 54       	subi	r30, 0x4A	; 74
     4dc:	f5 4c       	sbci	r31, 0xC5	; 197
     4de:	10 82       	st	Z, r1
                iLED[EYE[R][L]] = 255;
     4e0:	e0 91 ff b2 	lds	r30, 0xB2FF	; 0x80b2ff <__bss_end+0x77f9>
     4e4:	f0 e0       	ldi	r31, 0x00	; 0
     4e6:	ea 54       	subi	r30, 0x4A	; 74
     4e8:	f5 4c       	sbci	r31, 0xC5	; 197
     4ea:	8f ef       	ldi	r24, 0xFF	; 255
     4ec:	80 83       	st	Z, r24
                iLED[EYE[R][R]] = 255;
     4ee:	e0 91 fe b2 	lds	r30, 0xB2FE	; 0x80b2fe <__bss_end+0x77f8>
     4f2:	f0 e0       	ldi	r31, 0x00	; 0
     4f4:	ea 54       	subi	r30, 0x4A	; 74
     4f6:	f5 4c       	sbci	r31, 0xC5	; 197
     4f8:	80 83       	st	Z, r24
     4fa:	a8 e0       	ldi	r26, 0x08	; 8
     4fc:	b3 eb       	ldi	r27, 0xB3	; 179
                for (int i=0; i<6; i++ )
                    iLED[HCKR[G][i]] = 0;
     4fe:	ed 91       	ld	r30, X+
     500:	f0 e0       	ldi	r31, 0x00	; 0
     502:	ea 54       	subi	r30, 0x4A	; 74
     504:	f5 4c       	sbci	r31, 0xC5	; 197
     506:	10 82       	st	Z, r1
                iLED[SCARAB[G]]    = 0;
                iLED[EYE[G][L]] = 0;
                iLED[EYE[G][R]] = 0;
                iLED[EYE[R][L]] = 255;
                iLED[EYE[R][R]] = 255;
                for (int i=0; i<6; i++ )
     508:	83 eb       	ldi	r24, 0xB3	; 179
     50a:	ae 30       	cpi	r26, 0x0E	; 14
     50c:	b8 07       	cpc	r27, r24
     50e:	b9 f7       	brne	.-18     	; 0x4fe <__LOCK_REGION_LENGTH__+0xfe>
                    iLED[HCKR[G][i]] = 0;
            }
        }
    }

    lastButtonState = buttonState;
     510:	80 91 07 38 	lds	r24, 0x3807	; 0x803807 <buttonState>
     514:	80 93 01 38 	sts	0x3801, r24	; 0x803801 <lastButtonState>
    return 0;
}
     518:	80 e0       	ldi	r24, 0x00	; 0
     51a:	df 91       	pop	r29
     51c:	cf 91       	pop	r28
     51e:	08 95       	ret

00000520 <MagnetMaze>:
uint8_t         mazeCnt = 0;
uint8_t         mazeState = TRUE;
uint8_t         inverted  = FALSE;

// Main game loop
uint8_t MagnetMaze(){
     520:	cf 93       	push	r28
     522:	df 93       	push	r29
    if (CheckState(MAZE_INACTIVE))
     524:	87 ef       	ldi	r24, 0xF7	; 247
     526:	34 d6       	rcall	.+3176   	; 0x1190 <CheckState>
     528:	81 11       	cpse	r24, r1
     52a:	35 c1       	rjmp	.+618    	; 0x796 <MagnetMaze+0x276>
        return 0;

    if (CheckState(MAZE_COMPLETED))
     52c:	8d e7       	ldi	r24, 0x7D	; 125
     52e:	30 d6       	rcall	.+3168   	; 0x1190 <CheckState>
     530:	81 11       	cpse	r24, r1
     532:	31 c1       	rjmp	.+610    	; 0x796 <MagnetMaze+0x276>
        return 0;

    if ( (gameNow != TEXT) && (gameNow != MAZE) )
     534:	80 91 2f 38 	lds	r24, 0x382F	; 0x80382f <gameNow>
     538:	82 30       	cpi	r24, 0x02	; 2
     53a:	08 f0       	brcs	.+2      	; 0x53e <MagnetMaze+0x1e>
     53c:	2c c1       	rjmp	.+600    	; 0x796 <MagnetMaze+0x276>
        return 0;

    if (calHall == 0)
     53e:	80 91 df 3a 	lds	r24, 0x3ADF	; 0x803adf <calHall>
     542:	90 91 e0 3a 	lds	r25, 0x3AE0	; 0x803ae0 <calHall+0x1>
     546:	89 2b       	or	r24, r25
     548:	41 f4       	brne	.+16     	; 0x55a <MagnetMaze+0x3a>
        calHall = adcHall;
     54a:	80 91 8f 3a 	lds	r24, 0x3A8F	; 0x803a8f <adcHall>
     54e:	90 91 90 3a 	lds	r25, 0x3A90	; 0x803a90 <adcHall+0x1>
     552:	80 93 df 3a 	sts	0x3ADF, r24	; 0x803adf <calHall>
     556:	90 93 e0 3a 	sts	0x3AE0, r25	; 0x803ae0 <calHall+0x1>

    int16_t valHall = adcHall - calHall;
     55a:	80 91 8f 3a 	lds	r24, 0x3A8F	; 0x803a8f <adcHall>
     55e:	90 91 90 3a 	lds	r25, 0x3A90	; 0x803a90 <adcHall+0x1>
     562:	20 91 df 3a 	lds	r18, 0x3ADF	; 0x803adf <calHall>
     566:	30 91 e0 3a 	lds	r19, 0x3AE0	; 0x803ae0 <calHall+0x1>
     56a:	82 1b       	sub	r24, r18
     56c:	93 0b       	sbc	r25, r19
    switch (curHallState) {
     56e:	30 91 3c 38 	lds	r19, 0x383C	; 0x80383c <curHallState>
     572:	31 30       	cpi	r19, 0x01	; 1
     574:	89 f0       	breq	.+34     	; 0x598 <MagnetMaze+0x78>
     576:	18 f0       	brcs	.+6      	; 0x57e <MagnetMaze+0x5e>
     578:	32 30       	cpi	r19, 0x02	; 2
     57a:	c1 f0       	breq	.+48     	; 0x5ac <MagnetMaze+0x8c>
     57c:	1f c0       	rjmp	.+62     	; 0x5bc <MagnetMaze+0x9c>
        case 0: {
            if ( valHall + HALL_HIGH < 0 ) {
     57e:	84 3d       	cpi	r24, 0xD4	; 212
     580:	2e ef       	ldi	r18, 0xFE	; 254
     582:	92 07       	cpc	r25, r18
     584:	14 f4       	brge	.+4      	; 0x58a <MagnetMaze+0x6a>
                newHallState = 1;
     586:	81 e0       	ldi	r24, 0x01	; 1
     588:	04 c0       	rjmp	.+8      	; 0x592 <MagnetMaze+0x72>
            } else if ( valHall - HALL_HIGH > 0 ) {
     58a:	8d 32       	cpi	r24, 0x2D	; 45
     58c:	91 40       	sbci	r25, 0x01	; 1
     58e:	5c f0       	brlt	.+22     	; 0x5a6 <MagnetMaze+0x86>
                newHallState = 2;
     590:	82 e0       	ldi	r24, 0x02	; 2
     592:	80 93 3b 38 	sts	0x383B, r24	; 0x80383b <newHallState>
     596:	12 c0       	rjmp	.+36     	; 0x5bc <MagnetMaze+0x9c>
            }
            break;
        }
        
        case 1: {
            if ( valHall - HALL_HIGH > 0 ) {
     598:	8d 32       	cpi	r24, 0x2D	; 45
     59a:	21 e0       	ldi	r18, 0x01	; 1
     59c:	92 07       	cpc	r25, r18
     59e:	c4 f7       	brge	.-16     	; 0x590 <MagnetMaze+0x70>
                newHallState = 2;
            } else if ( valHall + HALL_LOW > 0 ) {
     5a0:	89 38       	cpi	r24, 0x89	; 137
     5a2:	9f 4f       	sbci	r25, 0xFF	; 255
     5a4:	84 f3       	brlt	.-32     	; 0x586 <MagnetMaze+0x66>
            if ( valHall + HALL_HIGH < 0 ) {
                newHallState = 1;
            } else if ( valHall - HALL_HIGH > 0 ) {
                newHallState = 2;
            } else {
                newHallState = 0;
     5a6:	10 92 3b 38 	sts	0x383B, r1	; 0x80383b <newHallState>
     5aa:	08 c0       	rjmp	.+16     	; 0x5bc <MagnetMaze+0x9c>
            }
            break;
        }
        
        case 2: {
            if ( valHall + HALL_HIGH < 0 ) {
     5ac:	84 3d       	cpi	r24, 0xD4	; 212
     5ae:	2e ef       	ldi	r18, 0xFE	; 254
     5b0:	92 07       	cpc	r25, r18
     5b2:	4c f3       	brlt	.-46     	; 0x586 <MagnetMaze+0x66>
                newHallState = 1;
            } else if ( valHall - HALL_LOW < 0 ) {
     5b4:	88 37       	cpi	r24, 0x78	; 120
     5b6:	91 05       	cpc	r25, r1
     5b8:	b4 f3       	brlt	.-20     	; 0x5a6 <MagnetMaze+0x86>
     5ba:	ea cf       	rjmp	.-44     	; 0x590 <MagnetMaze+0x70>
            break;
        }
    }

    /* activate led for hallstate */
    iLED[SCARAB[G]] = (newHallState ? 255 : 0);
     5bc:	c0 91 f3 b2 	lds	r28, 0xB2F3	; 0x80b2f3 <__bss_end+0x77ed>
     5c0:	ec 2f       	mov	r30, r28
     5c2:	f0 e0       	ldi	r31, 0x00	; 0
     5c4:	80 91 3b 38 	lds	r24, 0x383B	; 0x80383b <newHallState>
     5c8:	91 e0       	ldi	r25, 0x01	; 1
     5ca:	81 11       	cpse	r24, r1
     5cc:	01 c0       	rjmp	.+2      	; 0x5d0 <MagnetMaze+0xb0>
     5ce:	90 e0       	ldi	r25, 0x00	; 0
     5d0:	91 95       	neg	r25
     5d2:	ea 54       	subi	r30, 0x4A	; 74
     5d4:	f5 4c       	sbci	r31, 0xC5	; 197
     5d6:	90 83       	st	Z, r25


    /* Make the maze work regardless of badge orientation */
    if (newHallState != 0 && mazePos == 0 )
     5d8:	88 23       	and	r24, r24
     5da:	09 f4       	brne	.+2      	; 0x5de <MagnetMaze+0xbe>
     5dc:	a8 c0       	rjmp	.+336    	; 0x72e <MagnetMaze+0x20e>
     5de:	20 91 3a 38 	lds	r18, 0x383A	; 0x80383a <mazePos>
     5e2:	21 11       	cpse	r18, r1
     5e4:	06 c0       	rjmp	.+12     	; 0x5f2 <MagnetMaze+0xd2>
        inverted = (newHallState != mazeCode[0]) ? TRUE : FALSE;
     5e6:	91 e0       	ldi	r25, 0x01	; 1
     5e8:	81 30       	cpi	r24, 0x01	; 1
     5ea:	09 f4       	brne	.+2      	; 0x5ee <MagnetMaze+0xce>
     5ec:	90 e0       	ldi	r25, 0x00	; 0
     5ee:	90 93 38 38 	sts	0x3838, r25	; 0x803838 <inverted>

    if (newHallState != curHallState) {
     5f2:	38 17       	cp	r19, r24
     5f4:	09 f4       	brne	.+2      	; 0x5f8 <MagnetMaze+0xd8>
     5f6:	cf c0       	rjmp	.+414    	; 0x796 <MagnetMaze+0x276>
        curHallState = newHallState;
     5f8:	80 93 3c 38 	sts	0x383C, r24	; 0x80383c <curHallState>
        
        if (curHallState != 0) {
            gameNow = MAZE;
     5fc:	91 e0       	ldi	r25, 0x01	; 1
     5fe:	90 93 2f 38 	sts	0x382F, r25	; 0x80382f <gameNow>
            if ( (inverted ? curHallState^3 : curHallState) == mazeCode[mazePos]) {
     602:	90 91 38 38 	lds	r25, 0x3838	; 0x803838 <inverted>
     606:	99 23       	and	r25, r25
     608:	11 f0       	breq	.+4      	; 0x60e <MagnetMaze+0xee>
     60a:	93 e0       	ldi	r25, 0x03	; 3
     60c:	89 27       	eor	r24, r25
     60e:	90 e0       	ldi	r25, 0x00	; 0
     610:	e2 2f       	mov	r30, r18
     612:	f0 e0       	ldi	r31, 0x00	; 0
     614:	e2 5f       	subi	r30, 0xF2	; 242
     616:	fc 44       	sbci	r31, 0x4C	; 76
     618:	40 81       	ld	r20, Z
     61a:	50 e0       	ldi	r21, 0x00	; 0
     61c:	84 17       	cp	r24, r20
     61e:	95 07       	cpc	r25, r21
     620:	91 f4       	brne	.+36     	; 0x646 <MagnetMaze+0x126>
                mazeState &= TRUE;
     622:	80 91 0a 38 	lds	r24, 0x380A	; 0x80380a <mazeState>
     626:	81 70       	andi	r24, 0x01	; 1
     628:	80 93 0a 38 	sts	0x380A, r24	; 0x80380a <mazeState>
                iLED[EYE[R][L]] = 0;
     62c:	e0 91 ff b2 	lds	r30, 0xB2FF	; 0x80b2ff <__bss_end+0x77f9>
     630:	f0 e0       	ldi	r31, 0x00	; 0
     632:	ea 54       	subi	r30, 0x4A	; 74
     634:	f5 4c       	sbci	r31, 0xC5	; 197
     636:	10 82       	st	Z, r1
                iLED[EYE[R][R]] = 0;
     638:	e0 91 fe b2 	lds	r30, 0xB2FE	; 0x80b2fe <__bss_end+0x77f8>
     63c:	f0 e0       	ldi	r31, 0x00	; 0
     63e:	ea 54       	subi	r30, 0x4A	; 74
     640:	f5 4c       	sbci	r31, 0xC5	; 197
     642:	10 82       	st	Z, r1
     644:	02 c0       	rjmp	.+4      	; 0x64a <MagnetMaze+0x12a>
            } else {
                mazeState = FALSE;
     646:	10 92 0a 38 	sts	0x380A, r1	; 0x80380a <mazeState>
                /* play tone BAD */
            }
            mazePos++;
     64a:	2f 5f       	subi	r18, 0xFF	; 255
     64c:	20 93 3a 38 	sts	0x383A, r18	; 0x80383a <mazePos>
            mazeCnt++;            
     650:	80 91 39 38 	lds	r24, 0x3839	; 0x803839 <mazeCnt>
     654:	8f 5f       	subi	r24, 0xFF	; 255
            if (mazeCnt >= 3) {
     656:	83 30       	cpi	r24, 0x03	; 3
     658:	18 f4       	brcc	.+6      	; 0x660 <MagnetMaze+0x140>
            } else {
                mazeState = FALSE;
                /* play tone BAD */
            }
            mazePos++;
            mazeCnt++;            
     65a:	80 93 39 38 	sts	0x3839, r24	; 0x803839 <mazeCnt>
     65e:	9b c0       	rjmp	.+310    	; 0x796 <MagnetMaze+0x276>
            if (mazeCnt >= 3) {
                mazeCnt = 0;
     660:	10 92 39 38 	sts	0x3839, r1	; 0x803839 <mazeCnt>
                if (mazeState == TRUE) {
     664:	80 91 0a 38 	lds	r24, 0x380A	; 0x80380a <mazeState>
     668:	81 30       	cpi	r24, 0x01	; 1
     66a:	89 f5       	brne	.+98     	; 0x6ce <MagnetMaze+0x1ae>
                    /* play tone GOOD */
                    iLED[HCKR[G][(mazePos/3)-1]] = 255;
     66c:	eb ea       	ldi	r30, 0xAB	; 171
     66e:	2e 9f       	mul	r18, r30
     670:	e1 2d       	mov	r30, r1
     672:	11 24       	eor	r1, r1
     674:	e6 95       	lsr	r30
     676:	f0 e0       	ldi	r31, 0x00	; 0
     678:	ee 5f       	subi	r30, 0xFE	; 254
     67a:	fc 44       	sbci	r31, 0x4C	; 76
     67c:	e5 81       	ldd	r30, Z+5	; 0x05
     67e:	f0 e0       	ldi	r31, 0x00	; 0
     680:	ea 54       	subi	r30, 0x4A	; 74
     682:	f5 4c       	sbci	r31, 0xC5	; 197
     684:	df ef       	ldi	r29, 0xFF	; 255
     686:	d0 83       	st	Z, r29
                    if (mazePos == sizeof(mazeCode)) {
     688:	22 31       	cpi	r18, 0x12	; 18
     68a:	09 f0       	breq	.+2      	; 0x68e <MagnetMaze+0x16e>
                        UpdateState(MAZE_COMPLETED);
     68c:	84 c0       	rjmp	.+264    	; 0x796 <MagnetMaze+0x276>
     68e:	8d e7       	ldi	r24, 0x7D	; 125
     690:	77 d5       	rcall	.+2798   	; 0x1180 <UpdateState>
                        iLED[SCARAB[G]]    = 0;
     692:	ec 2f       	mov	r30, r28
     694:	f0 e0       	ldi	r31, 0x00	; 0
     696:	ea 54       	subi	r30, 0x4A	; 74
     698:	f5 4c       	sbci	r31, 0xC5	; 197
     69a:	10 82       	st	Z, r1
                        iLED[EYE[R][L]] = 0;
     69c:	e0 91 ff b2 	lds	r30, 0xB2FF	; 0x80b2ff <__bss_end+0x77f9>
     6a0:	f0 e0       	ldi	r31, 0x00	; 0
     6a2:	ea 54       	subi	r30, 0x4A	; 74
     6a4:	f5 4c       	sbci	r31, 0xC5	; 197
     6a6:	10 82       	st	Z, r1
                        iLED[EYE[R][R]] = 0;
     6a8:	e0 91 fe b2 	lds	r30, 0xB2FE	; 0x80b2fe <__bss_end+0x77f8>
     6ac:	f0 e0       	ldi	r31, 0x00	; 0
     6ae:	ea 54       	subi	r30, 0x4A	; 74
     6b0:	f5 4c       	sbci	r31, 0xC5	; 197
     6b2:	10 82       	st	Z, r1
                        iLED[EYE[G][L]] = 255;
     6b4:	e0 91 01 b3 	lds	r30, 0xB301	; 0x80b301 <__bss_end+0x77fb>
     6b8:	f0 e0       	ldi	r31, 0x00	; 0
     6ba:	ea 54       	subi	r30, 0x4A	; 74
     6bc:	f5 4c       	sbci	r31, 0xC5	; 197
     6be:	d0 83       	st	Z, r29
                        iLED[EYE[G][R]] = 255;
     6c0:	e0 91 00 b3 	lds	r30, 0xB300	; 0x80b300 <__bss_end+0x77fa>
     6c4:	f0 e0       	ldi	r31, 0x00	; 0
     6c6:	ea 54       	subi	r30, 0x4A	; 74
     6c8:	f5 4c       	sbci	r31, 0xC5	; 197
     6ca:	d0 83       	st	Z, r29
     6cc:	64 c0       	rjmp	.+200    	; 0x796 <MagnetMaze+0x276>
                        /*state = STATE_MUSIC;*/
                    }
                } else {
                    gameNow   = TEXT;
     6ce:	10 92 2f 38 	sts	0x382F, r1	; 0x80382f <gameNow>
                    mazePos   = 0;
     6d2:	10 92 3a 38 	sts	0x383A, r1	; 0x80383a <mazePos>
                    mazeState = TRUE;
     6d6:	81 e0       	ldi	r24, 0x01	; 1
     6d8:	80 93 0a 38 	sts	0x380A, r24	; 0x80380a <mazeState>
                    iLED[SCARAB[G]]    = 0;
     6dc:	d0 e0       	ldi	r29, 0x00	; 0
     6de:	ca 54       	subi	r28, 0x4A	; 74
     6e0:	d5 4c       	sbci	r29, 0xC5	; 197
     6e2:	18 82       	st	Y, r1
                    iLED[EYE[G][L]] = 0;
     6e4:	e0 91 01 b3 	lds	r30, 0xB301	; 0x80b301 <__bss_end+0x77fb>
     6e8:	f0 e0       	ldi	r31, 0x00	; 0
     6ea:	ea 54       	subi	r30, 0x4A	; 74
     6ec:	f5 4c       	sbci	r31, 0xC5	; 197
     6ee:	10 82       	st	Z, r1
                    iLED[EYE[G][R]] = 0;
     6f0:	e0 91 00 b3 	lds	r30, 0xB300	; 0x80b300 <__bss_end+0x77fa>
     6f4:	f0 e0       	ldi	r31, 0x00	; 0
     6f6:	ea 54       	subi	r30, 0x4A	; 74
     6f8:	f5 4c       	sbci	r31, 0xC5	; 197
     6fa:	10 82       	st	Z, r1
                    iLED[EYE[R][L]] = 255;
     6fc:	e0 91 ff b2 	lds	r30, 0xB2FF	; 0x80b2ff <__bss_end+0x77f9>
     700:	f0 e0       	ldi	r31, 0x00	; 0
     702:	ea 54       	subi	r30, 0x4A	; 74
     704:	f5 4c       	sbci	r31, 0xC5	; 197
     706:	8f ef       	ldi	r24, 0xFF	; 255
     708:	80 83       	st	Z, r24
                    iLED[EYE[R][R]] = 255;
     70a:	e0 91 fe b2 	lds	r30, 0xB2FE	; 0x80b2fe <__bss_end+0x77f8>
     70e:	f0 e0       	ldi	r31, 0x00	; 0
     710:	ea 54       	subi	r30, 0x4A	; 74
     712:	f5 4c       	sbci	r31, 0xC5	; 197
     714:	80 83       	st	Z, r24
     716:	a8 e0       	ldi	r26, 0x08	; 8
     718:	b3 eb       	ldi	r27, 0xB3	; 179
                    for (int i=0; i<6; i++ )
                        iLED[HCKR[G][i]] = 0;
     71a:	ed 91       	ld	r30, X+
     71c:	f0 e0       	ldi	r31, 0x00	; 0
     71e:	ea 54       	subi	r30, 0x4A	; 74
     720:	f5 4c       	sbci	r31, 0xC5	; 197
     722:	10 82       	st	Z, r1
                    iLED[SCARAB[G]]    = 0;
                    iLED[EYE[G][L]] = 0;
                    iLED[EYE[G][R]] = 0;
                    iLED[EYE[R][L]] = 255;
                    iLED[EYE[R][R]] = 255;
                    for (int i=0; i<6; i++ )
     724:	83 eb       	ldi	r24, 0xB3	; 179
     726:	ae 30       	cpi	r26, 0x0E	; 14
     728:	b8 07       	cpc	r27, r24
     72a:	b9 f7       	brne	.-18     	; 0x71a <MagnetMaze+0x1fa>
     72c:	34 c0       	rjmp	.+104    	; 0x796 <MagnetMaze+0x276>

    /* Make the maze work regardless of badge orientation */
    if (newHallState != 0 && mazePos == 0 )
        inverted = (newHallState != mazeCode[0]) ? TRUE : FALSE;

    if (newHallState != curHallState) {
     72e:	33 23       	and	r19, r19
     730:	91 f1       	breq	.+100    	; 0x796 <MagnetMaze+0x276>
        curHallState = newHallState;
     732:	10 92 3c 38 	sts	0x383C, r1	; 0x80383c <curHallState>
                    for (int i=0; i<6; i++ )
                        iLED[HCKR[G][i]] = 0;
                }
            }
        } else {
            if (mazePos == sizeof(mazeCode)) {
     736:	80 91 3a 38 	lds	r24, 0x383A	; 0x80383a <mazePos>
     73a:	82 31       	cpi	r24, 0x12	; 18
     73c:	61 f5       	brne	.+88     	; 0x796 <MagnetMaze+0x276>
                gameNow   = TEXT;
     73e:	10 92 2f 38 	sts	0x382F, r1	; 0x80382f <gameNow>
                mazePos   = 0;
     742:	10 92 3a 38 	sts	0x383A, r1	; 0x80383a <mazePos>
                mazeState = TRUE;
     746:	81 e0       	ldi	r24, 0x01	; 1
     748:	80 93 0a 38 	sts	0x380A, r24	; 0x80380a <mazeState>
                iLED[SCARAB[G]]    = 0;
     74c:	10 82       	st	Z, r1
                iLED[EYE[G][L]] = 0;
     74e:	e0 91 01 b3 	lds	r30, 0xB301	; 0x80b301 <__bss_end+0x77fb>
     752:	f0 e0       	ldi	r31, 0x00	; 0
     754:	ea 54       	subi	r30, 0x4A	; 74
     756:	f5 4c       	sbci	r31, 0xC5	; 197
     758:	10 82       	st	Z, r1
                iLED[EYE[G][R]] = 0;
     75a:	e0 91 00 b3 	lds	r30, 0xB300	; 0x80b300 <__bss_end+0x77fa>
     75e:	f0 e0       	ldi	r31, 0x00	; 0
     760:	ea 54       	subi	r30, 0x4A	; 74
     762:	f5 4c       	sbci	r31, 0xC5	; 197
     764:	10 82       	st	Z, r1
                iLED[EYE[R][L]] = 0;
     766:	e0 91 ff b2 	lds	r30, 0xB2FF	; 0x80b2ff <__bss_end+0x77f9>
     76a:	f0 e0       	ldi	r31, 0x00	; 0
     76c:	ea 54       	subi	r30, 0x4A	; 74
     76e:	f5 4c       	sbci	r31, 0xC5	; 197
     770:	10 82       	st	Z, r1
                iLED[EYE[R][R]] = 0;
     772:	e0 91 fe b2 	lds	r30, 0xB2FE	; 0x80b2fe <__bss_end+0x77f8>
     776:	f0 e0       	ldi	r31, 0x00	; 0
     778:	ea 54       	subi	r30, 0x4A	; 74
     77a:	f5 4c       	sbci	r31, 0xC5	; 197
     77c:	10 82       	st	Z, r1
     77e:	a8 e0       	ldi	r26, 0x08	; 8
     780:	b3 eb       	ldi	r27, 0xB3	; 179
     782:	8e e0       	ldi	r24, 0x0E	; 14
     784:	93 eb       	ldi	r25, 0xB3	; 179
                for (int i=0; i<6; i++ )
                    iLED[HCKR[G][i]] = 0;
     786:	ed 91       	ld	r30, X+
     788:	f0 e0       	ldi	r31, 0x00	; 0
     78a:	ea 54       	subi	r30, 0x4A	; 74
     78c:	f5 4c       	sbci	r31, 0xC5	; 197
     78e:	10 82       	st	Z, r1
                iLED[SCARAB[G]]    = 0;
                iLED[EYE[G][L]] = 0;
                iLED[EYE[G][R]] = 0;
                iLED[EYE[R][L]] = 0;
                iLED[EYE[R][R]] = 0;
                for (int i=0; i<6; i++ )
     790:	8a 17       	cp	r24, r26
     792:	9b 07       	cpc	r25, r27
     794:	c1 f7       	brne	.-16     	; 0x786 <MagnetMaze+0x266>
                    iLED[HCKR[G][i]] = 0;
            }
        }
    }
    return 0;
}
     796:	80 e0       	ldi	r24, 0x00	; 0
     798:	df 91       	pop	r29
     79a:	cf 91       	pop	r28
     79c:	08 95       	ret

0000079e <Setup>:
// Select "audio" input (0-2.5V)
void SelectAuIn(){
     VREF_CTRLA   = 0x22;    //0x22 for audio in/out (2.5V), 0x12 for temperature in, audio out (1.1V/2.5V)
     ADC0_CTRLA   &= ~(ADC_RESSEL_bm);
     ADC0_MUXPOS  = 0x07;    //Audio in: AIN7 at (0x07), Temperature: Internal sensor at (0x1E)
     adc0Chg = 1;
     79e:	cf 93       	push	r28
     7a0:	df 93       	push	r29
     7a2:	f8 94       	cli
     7a4:	88 ed       	ldi	r24, 0xD8	; 216
     7a6:	84 bf       	out	0x34, r24	; 52
     7a8:	c1 e0       	ldi	r28, 0x01	; 1
     7aa:	c0 93 61 00 	sts	0x0061, r28	; 0x800061 <__TEXT_REGION_LENGTH__+0x700061>
     7ae:	8a e4       	ldi	r24, 0x4A	; 74
     7b0:	80 93 00 04 	sts	0x0400, r24	; 0x800400 <__TEXT_REGION_LENGTH__+0x700400>
     7b4:	8c e7       	ldi	r24, 0x7C	; 124
     7b6:	80 93 20 04 	sts	0x0420, r24	; 0x800420 <__TEXT_REGION_LENGTH__+0x700420>
     7ba:	9f e3       	ldi	r25, 0x3F	; 63
     7bc:	90 93 40 04 	sts	0x0440, r25	; 0x800440 <__TEXT_REGION_LENGTH__+0x700440>
     7c0:	80 91 53 04 	lds	r24, 0x0453	; 0x800453 <__TEXT_REGION_LENGTH__+0x700453>
     7c4:	80 68       	ori	r24, 0x80	; 128
     7c6:	80 93 53 04 	sts	0x0453, r24	; 0x800453 <__TEXT_REGION_LENGTH__+0x700453>
     7ca:	80 91 54 04 	lds	r24, 0x0454	; 0x800454 <__TEXT_REGION_LENGTH__+0x700454>
     7ce:	80 68       	ori	r24, 0x80	; 128
     7d0:	80 93 54 04 	sts	0x0454, r24	; 0x800454 <__TEXT_REGION_LENGTH__+0x700454>
     7d4:	80 91 55 04 	lds	r24, 0x0455	; 0x800455 <__TEXT_REGION_LENGTH__+0x700455>
     7d8:	80 68       	ori	r24, 0x80	; 128
     7da:	80 93 55 04 	sts	0x0455, r24	; 0x800455 <__TEXT_REGION_LENGTH__+0x700455>
     7de:	80 91 33 04 	lds	r24, 0x0433	; 0x800433 <__TEXT_REGION_LENGTH__+0x700433>
     7e2:	80 68       	ori	r24, 0x80	; 128
     7e4:	80 93 33 04 	sts	0x0433, r24	; 0x800433 <__TEXT_REGION_LENGTH__+0x700433>
     7e8:	80 91 34 04 	lds	r24, 0x0434	; 0x800434 <__TEXT_REGION_LENGTH__+0x700434>
     7ec:	80 68       	ori	r24, 0x80	; 128
     7ee:	80 93 34 04 	sts	0x0434, r24	; 0x800434 <__TEXT_REGION_LENGTH__+0x700434>
     7f2:	80 91 35 04 	lds	r24, 0x0435	; 0x800435 <__TEXT_REGION_LENGTH__+0x700435>
     7f6:	80 68       	ori	r24, 0x80	; 128
     7f8:	80 93 35 04 	sts	0x0435, r24	; 0x800435 <__TEXT_REGION_LENGTH__+0x700435>
     7fc:	c0 93 01 02 	sts	0x0201, r28	; 0x800201 <__TEXT_REGION_LENGTH__+0x700201>
     800:	d2 e0       	ldi	r29, 0x02	; 2
     802:	d0 93 05 04 	sts	0x0405, r29	; 0x800405 <__TEXT_REGION_LENGTH__+0x700405>
     806:	2b e5       	ldi	r18, 0x5B	; 91
     808:	31 e0       	ldi	r19, 0x01	; 1
     80a:	20 93 08 08 	sts	0x0808, r18	; 0x800808 <__TEXT_REGION_LENGTH__+0x700808>
     80e:	30 93 09 08 	sts	0x0809, r19	; 0x800809 <__TEXT_REGION_LENGTH__+0x700809>
     812:	80 ea       	ldi	r24, 0xA0	; 160
     814:	80 93 05 08 	sts	0x0805, r24	; 0x800805 <__TEXT_REGION_LENGTH__+0x700805>
     818:	80 ec       	ldi	r24, 0xC0	; 192
     81a:	80 93 06 08 	sts	0x0806, r24	; 0x800806 <__TEXT_REGION_LENGTH__+0x700806>
     81e:	83 e0       	ldi	r24, 0x03	; 3
     820:	80 93 07 08 	sts	0x0807, r24	; 0x800807 <__TEXT_REGION_LENGTH__+0x700807>
     824:	1c ba       	out	0x1c, r1	; 28
     826:	1d ba       	out	0x1d, r1	; 29
     828:	1e ba       	out	0x1e, r1	; 30
     82a:	1f ba       	out	0x1f, r1	; 31
     82c:	c0 93 03 0a 	sts	0x0A03, r28	; 0x800a03 <__TEXT_REGION_LENGTH__+0x700a03>
     830:	88 e0       	ldi	r24, 0x08	; 8
     832:	80 93 00 0a 	sts	0x0A00, r24	; 0x800a00 <__TEXT_REGION_LENGTH__+0x700a00>
     836:	90 93 02 02 	sts	0x0202, r25	; 0x800202 <__TEXT_REGION_LENGTH__+0x700202>
     83a:	87 e7       	ldi	r24, 0x77	; 119
     83c:	80 93 01 0a 	sts	0x0A01, r24	; 0x800a01 <__TEXT_REGION_LENGTH__+0x700a01>
     840:	c0 93 0a 0a 	sts	0x0A0A, r28	; 0x800a0a <__TEXT_REGION_LENGTH__+0x700a0a>
     844:	8b e0       	ldi	r24, 0x0B	; 11
     846:	80 93 05 0a 	sts	0x0A05, r24	; 0x800a05 <__TEXT_REGION_LENGTH__+0x700a05>
     84a:	80 91 00 0a 	lds	r24, 0x0A00	; 0x800a00 <__TEXT_REGION_LENGTH__+0x700a00>
     84e:	81 60       	ori	r24, 0x01	; 1
     850:	80 93 00 0a 	sts	0x0A00, r24	; 0x800a00 <__TEXT_REGION_LENGTH__+0x700a00>
     854:	85 e0       	ldi	r24, 0x05	; 5
     856:	80 93 40 0a 	sts	0x0A40, r24	; 0x800a40 <__TEXT_REGION_LENGTH__+0x700a40>
     85a:	10 92 41 0a 	sts	0x0A41, r1	; 0x800a41 <__TEXT_REGION_LENGTH__+0x700a41>
     85e:	8f ef       	ldi	r24, 0xFF	; 255
     860:	91 e0       	ldi	r25, 0x01	; 1
     862:	80 93 4c 0a 	sts	0x0A4C, r24	; 0x800a4c <__TEXT_REGION_LENGTH__+0x700a4c>
     866:	90 93 4d 0a 	sts	0x0A4D, r25	; 0x800a4d <__TEXT_REGION_LENGTH__+0x700a4d>
     86a:	10 92 45 0a 	sts	0x0A45, r1	; 0x800a45 <__TEXT_REGION_LENGTH__+0x700a45>
     86e:	c0 93 50 0a 	sts	0x0A50, r28	; 0x800a50 <__TEXT_REGION_LENGTH__+0x700a50>
     872:	10 92 51 0a 	sts	0x0A51, r1	; 0x800a51 <__TEXT_REGION_LENGTH__+0x700a51>
     876:	8b e8       	ldi	r24, 0x8B	; 139
     878:	93 e0       	ldi	r25, 0x03	; 3
     87a:	80 93 5c 0a 	sts	0x0A5C, r24	; 0x800a5c <__TEXT_REGION_LENGTH__+0x700a5c>
     87e:	90 93 5d 0a 	sts	0x0A5D, r25	; 0x800a5d <__TEXT_REGION_LENGTH__+0x700a5d>
     882:	c0 93 55 0a 	sts	0x0A55, r28	; 0x800a55 <__TEXT_REGION_LENGTH__+0x700a55>
     886:	18 dc       	rcall	.-2000   	; 0xb8 <I2C_init>
     888:	82 e1       	ldi	r24, 0x12	; 18
     88a:	80 93 a0 00 	sts	0x00A0, r24	; 0x8000a0 <__TEXT_REGION_LENGTH__+0x7000a0>
     88e:	80 e2       	ldi	r24, 0x20	; 32
     890:	80 93 a2 00 	sts	0x00A2, r24	; 0x8000a2 <__TEXT_REGION_LENGTH__+0x7000a2>
     894:	c0 93 a1 00 	sts	0x00A1, r28	; 0x8000a1 <__TEXT_REGION_LENGTH__+0x7000a1>
     898:	86 e0       	ldi	r24, 0x06	; 6
     89a:	80 93 00 06 	sts	0x0600, r24	; 0x800600 <__TEXT_REGION_LENGTH__+0x700600>
     89e:	84 e4       	ldi	r24, 0x44	; 68
     8a0:	80 93 02 06 	sts	0x0602, r24	; 0x800602 <__TEXT_REGION_LENGTH__+0x700602>
     8a4:	8e e1       	ldi	r24, 0x1E	; 30
     8a6:	80 93 06 06 	sts	0x0606, r24	; 0x800606 <__TEXT_REGION_LENGTH__+0x700606>
     8aa:	c0 93 0a 06 	sts	0x060A, r28	; 0x80060a <__TEXT_REGION_LENGTH__+0x70060a>
     8ae:	80 91 00 06 	lds	r24, 0x0600	; 0x800600 <__TEXT_REGION_LENGTH__+0x700600>
     8b2:	81 60       	ori	r24, 0x01	; 1
     8b4:	80 93 00 06 	sts	0x0600, r24	; 0x800600 <__TEXT_REGION_LENGTH__+0x700600>
     8b8:	c0 93 08 06 	sts	0x0608, r28	; 0x800608 <__TEXT_REGION_LENGTH__+0x700608>
     8bc:	10 92 40 06 	sts	0x0640, r1	; 0x800640 <__TEXT_REGION_LENGTH__+0x700640>
     8c0:	d0 93 41 06 	sts	0x0641, r29	; 0x800641 <__TEXT_REGION_LENGTH__+0x700641>
     8c4:	82 e5       	ldi	r24, 0x52	; 82
     8c6:	80 93 42 06 	sts	0x0642, r24	; 0x800642 <__TEXT_REGION_LENGTH__+0x700642>
     8ca:	84 e0       	ldi	r24, 0x04	; 4
     8cc:	80 93 45 06 	sts	0x0645, r24	; 0x800645 <__TEXT_REGION_LENGTH__+0x700645>
     8d0:	80 93 46 06 	sts	0x0646, r24	; 0x800646 <__TEXT_REGION_LENGTH__+0x700646>
     8d4:	c0 93 4a 06 	sts	0x064A, r28	; 0x80064a <__TEXT_REGION_LENGTH__+0x70064a>
     8d8:	80 91 40 06 	lds	r24, 0x0640	; 0x800640 <__TEXT_REGION_LENGTH__+0x700640>
     8dc:	81 60       	ori	r24, 0x01	; 1
     8de:	80 93 40 06 	sts	0x0640, r24	; 0x800640 <__TEXT_REGION_LENGTH__+0x700640>
     8e2:	c0 93 48 06 	sts	0x0648, r28	; 0x800648 <__TEXT_REGION_LENGTH__+0x700648>
     8e6:	80 e4       	ldi	r24, 0x40	; 64
     8e8:	80 93 a0 06 	sts	0x06A0, r24	; 0x8006a0 <__TEXT_REGION_LENGTH__+0x7006a0>
     8ec:	80 e8       	ldi	r24, 0x80	; 128
     8ee:	80 93 a1 06 	sts	0x06A1, r24	; 0x8006a1 <__TEXT_REGION_LENGTH__+0x7006a1>
     8f2:	80 91 a0 06 	lds	r24, 0x06A0	; 0x8006a0 <__TEXT_REGION_LENGTH__+0x7006a0>
     8f6:	81 60       	ori	r24, 0x01	; 1
     8f8:	80 93 a0 06 	sts	0x06A0, r24	; 0x8006a0 <__TEXT_REGION_LENGTH__+0x7006a0>
     8fc:	80 91 41 01 	lds	r24, 0x0141	; 0x800141 <__TEXT_REGION_LENGTH__+0x700141>
     900:	80 fd       	sbrc	r24, 0
     902:	fc cf       	rjmp	.-8      	; 0x8fc <Setup+0x15e>
     904:	80 e3       	ldi	r24, 0x30	; 48
     906:	80 93 40 01 	sts	0x0140, r24	; 0x800140 <__TEXT_REGION_LENGTH__+0x700140>
     90a:	10 92 47 01 	sts	0x0147, r1	; 0x800147 <__TEXT_REGION_LENGTH__+0x700147>
     90e:	80 91 41 01 	lds	r24, 0x0141	; 0x800141 <__TEXT_REGION_LENGTH__+0x700141>
     912:	82 fd       	sbrc	r24, 2
     914:	fc cf       	rjmp	.-8      	; 0x90e <Setup+0x170>
     916:	80 e0       	ldi	r24, 0x00	; 0
     918:	98 e7       	ldi	r25, 0x78	; 120
     91a:	80 93 4a 01 	sts	0x014A, r24	; 0x80014a <__TEXT_REGION_LENGTH__+0x70014a>
     91e:	90 93 4b 01 	sts	0x014B, r25	; 0x80014b <__TEXT_REGION_LENGTH__+0x70014b>
     922:	80 91 48 01 	lds	r24, 0x0148	; 0x800148 <__TEXT_REGION_LENGTH__+0x700148>
     926:	90 91 49 01 	lds	r25, 0x0149	; 0x800149 <__TEXT_REGION_LENGTH__+0x700149>
     92a:	60 91 4a 01 	lds	r22, 0x014A	; 0x80014a <__TEXT_REGION_LENGTH__+0x70014a>
     92e:	70 91 4b 01 	lds	r23, 0x014B	; 0x80014b <__TEXT_REGION_LENGTH__+0x70014b>
     932:	82 96       	adiw	r24, 0x22	; 34
     934:	0e 94 2c 19 	call	0x3258	; 0x3258 <__udivmodhi4>
     938:	80 93 e3 3a 	sts	0x3AE3, r24	; 0x803ae3 <tmp16bit>
     93c:	90 93 e4 3a 	sts	0x3AE4, r25	; 0x803ae4 <tmp16bit+0x1>
     940:	80 91 41 01 	lds	r24, 0x0141	; 0x800141 <__TEXT_REGION_LENGTH__+0x700141>
     944:	83 fd       	sbrc	r24, 3
     946:	fc cf       	rjmp	.-8      	; 0x940 <Setup+0x1a2>
     948:	80 91 e3 3a 	lds	r24, 0x3AE3	; 0x803ae3 <tmp16bit>
     94c:	90 91 e4 3a 	lds	r25, 0x3AE4	; 0x803ae4 <tmp16bit+0x1>
     950:	80 93 4c 01 	sts	0x014C, r24	; 0x80014c <__TEXT_REGION_LENGTH__+0x70014c>
     954:	90 93 4d 01 	sts	0x014D, r25	; 0x80014d <__TEXT_REGION_LENGTH__+0x70014d>
     958:	83 e0       	ldi	r24, 0x03	; 3
     95a:	80 93 42 01 	sts	0x0142, r24	; 0x800142 <__TEXT_REGION_LENGTH__+0x700142>
     95e:	81 e0       	ldi	r24, 0x01	; 1
     960:	80 93 52 01 	sts	0x0152, r24	; 0x800152 <__TEXT_REGION_LENGTH__+0x700152>
     964:	88 e0       	ldi	r24, 0x08	; 8
     966:	80 93 50 01 	sts	0x0150, r24	; 0x800150 <__TEXT_REGION_LENGTH__+0x700150>
     96a:	80 91 41 01 	lds	r24, 0x0141	; 0x800141 <__TEXT_REGION_LENGTH__+0x700141>
     96e:	80 fd       	sbrc	r24, 0
     970:	fc cf       	rjmp	.-8      	; 0x96a <Setup+0x1cc>
     972:	80 91 40 01 	lds	r24, 0x0140	; 0x800140 <__TEXT_REGION_LENGTH__+0x700140>
     976:	81 60       	ori	r24, 0x01	; 1
     978:	80 93 40 01 	sts	0x0140, r24	; 0x800140 <__TEXT_REGION_LENGTH__+0x700140>
     97c:	80 91 50 01 	lds	r24, 0x0150	; 0x800150 <__TEXT_REGION_LENGTH__+0x700150>
     980:	81 60       	ori	r24, 0x01	; 1
     982:	80 93 50 01 	sts	0x0150, r24	; 0x800150 <__TEXT_REGION_LENGTH__+0x700150>
     986:	10 92 49 3a 	sts	0x3A49, r1	; 0x803a49 <serRx>
     98a:	89 e4       	ldi	r24, 0x49	; 73
     98c:	9a e3       	ldi	r25, 0x3A	; 58
     98e:	80 93 8d 3a 	sts	0x3A8D, r24	; 0x803a8d <serTxAddr>
     992:	90 93 8e 3a 	sts	0x3A8E, r25	; 0x803a8e <serTxAddr+0x1>
     996:	78 94       	sei
     998:	df 91       	pop	r29
     99a:	cf 91       	pop	r28
     99c:	08 95       	ret

0000099e <__vector_8>:
     99e:	1f 92       	push	r1
     9a0:	0f 92       	push	r0
     9a2:	0f b6       	in	r0, 0x3f	; 63
     9a4:	0f 92       	push	r0
     9a6:	11 24       	eor	r1, r1
     9a8:	8f 93       	push	r24
     9aa:	9f 93       	push	r25
     9ac:	af 93       	push	r26
     9ae:	bf 93       	push	r27
     9b0:	ef 93       	push	r30
     9b2:	ff 93       	push	r31
     9b4:	87 e0       	ldi	r24, 0x07	; 7
     9b6:	80 93 46 04 	sts	0x0446, r24	; 0x800446 <__TEXT_REGION_LENGTH__+0x700446>
     9ba:	84 e4       	ldi	r24, 0x44	; 68
     9bc:	80 93 26 04 	sts	0x0426, r24	; 0x800426 <__TEXT_REGION_LENGTH__+0x700426>
     9c0:	ec b3       	in	r30, 0x1c	; 28
     9c2:	88 e0       	ldi	r24, 0x08	; 8
     9c4:	e8 9f       	mul	r30, r24
     9c6:	f0 01       	movw	r30, r0
     9c8:	11 24       	eor	r1, r1
     9ca:	ea 54       	subi	r30, 0x4A	; 74
     9cc:	f5 4c       	sbci	r31, 0xC5	; 197
     9ce:	a8 e2       	ldi	r26, 0x28	; 40
     9d0:	ba e0       	ldi	r27, 0x0A	; 10
     9d2:	96 e0       	ldi	r25, 0x06	; 6
     9d4:	81 91       	ld	r24, Z+
     9d6:	8d 93       	st	X+, r24
     9d8:	9a 95       	dec	r25
     9da:	e1 f7       	brne	.-8      	; 0x9d4 <__vector_8+0x36>
     9dc:	8b e0       	ldi	r24, 0x0B	; 11
     9de:	80 93 05 0a 	sts	0x0A05, r24	; 0x800a05 <__TEXT_REGION_LENGTH__+0x700a05>
     9e2:	8c b3       	in	r24, 0x1c	; 28
     9e4:	83 30       	cpi	r24, 0x03	; 3
     9e6:	58 f4       	brcc	.+22     	; 0x9fe <__vector_8+0x60>
     9e8:	8c b3       	in	r24, 0x1c	; 28
     9ea:	91 e0       	ldi	r25, 0x01	; 1
     9ec:	01 c0       	rjmp	.+2      	; 0x9f0 <__vector_8+0x52>
     9ee:	99 0f       	add	r25, r25
     9f0:	8a 95       	dec	r24
     9f2:	ea f7       	brpl	.-6      	; 0x9ee <__vector_8+0x50>
     9f4:	99 b9       	out	0x09, r25	; 9
     9f6:	8c b3       	in	r24, 0x1c	; 28
     9f8:	83 95       	inc	r24
     9fa:	8c bb       	out	0x1c, r24	; 28
     9fc:	0a c0       	rjmp	.+20     	; 0xa12 <__vector_8+0x74>
     9fe:	8c b3       	in	r24, 0x1c	; 28
     a00:	83 30       	cpi	r24, 0x03	; 3
     a02:	21 f4       	brne	.+8      	; 0xa0c <__vector_8+0x6e>
     a04:	2a 9a       	sbi	0x05, 2	; 5
     a06:	83 95       	inc	r24
     a08:	8c bb       	out	0x1c, r24	; 28
     a0a:	03 c0       	rjmp	.+6      	; 0xa12 <__vector_8+0x74>
     a0c:	2e 9a       	sbi	0x05, 6	; 5
     a0e:	88 27       	eor	r24, r24
     a10:	8c bb       	out	0x1c, r24	; 28
     a12:	80 91 34 3a 	lds	r24, 0x3A34	; 0x803a34 <timeout_I2C>
     a16:	88 23       	and	r24, r24
     a18:	29 f0       	breq	.+10     	; 0xa24 <__vector_8+0x86>
     a1a:	80 91 34 3a 	lds	r24, 0x3A34	; 0x803a34 <timeout_I2C>
     a1e:	81 50       	subi	r24, 0x01	; 1
     a20:	80 93 34 3a 	sts	0x3A34, r24	; 0x803a34 <timeout_I2C>
     a24:	8f ef       	ldi	r24, 0xFF	; 255
     a26:	80 93 0b 0a 	sts	0x0A0B, r24	; 0x800a0b <__TEXT_REGION_LENGTH__+0x700a0b>
     a2a:	ff 91       	pop	r31
     a2c:	ef 91       	pop	r30
     a2e:	bf 91       	pop	r27
     a30:	af 91       	pop	r26
     a32:	9f 91       	pop	r25
     a34:	8f 91       	pop	r24
     a36:	0f 90       	pop	r0
     a38:	0f be       	out	0x3f, r0	; 63
     a3a:	0f 90       	pop	r0
     a3c:	1f 90       	pop	r1
     a3e:	18 95       	reti

00000a40 <__vector_13>:
     a40:	1f 92       	push	r1
     a42:	0f 92       	push	r0
     a44:	0f b6       	in	r0, 0x3f	; 63
     a46:	0f 92       	push	r0
     a48:	11 24       	eor	r1, r1
     a4a:	8f 93       	push	r24
     a4c:	9f 93       	push	r25
     a4e:	ef 93       	push	r30
     a50:	ff 93       	push	r31
     a52:	e0 91 8d 3a 	lds	r30, 0x3A8D	; 0x803a8d <serTxAddr>
     a56:	f0 91 8e 3a 	lds	r31, 0x3A8E	; 0x803a8e <serTxAddr+0x1>
     a5a:	80 81       	ld	r24, Z
     a5c:	88 23       	and	r24, r24
     a5e:	91 f0       	breq	.+36     	; 0xa84 <__vector_13+0x44>
     a60:	80 81       	ld	r24, Z
     a62:	80 93 02 08 	sts	0x0802, r24	; 0x800802 <__TEXT_REGION_LENGTH__+0x700802>
     a66:	80 91 8d 3a 	lds	r24, 0x3A8D	; 0x803a8d <serTxAddr>
     a6a:	90 91 8e 3a 	lds	r25, 0x3A8E	; 0x803a8e <serTxAddr+0x1>
     a6e:	01 96       	adiw	r24, 0x01	; 1
     a70:	80 93 8d 3a 	sts	0x3A8D, r24	; 0x803a8d <serTxAddr>
     a74:	90 93 8e 3a 	sts	0x3A8E, r25	; 0x803a8e <serTxAddr+0x1>
     a78:	80 91 05 08 	lds	r24, 0x0805	; 0x800805 <__TEXT_REGION_LENGTH__+0x700805>
     a7c:	80 62       	ori	r24, 0x20	; 32
     a7e:	80 93 05 08 	sts	0x0805, r24	; 0x800805 <__TEXT_REGION_LENGTH__+0x700805>
     a82:	05 c0       	rjmp	.+10     	; 0xa8e <__vector_13+0x4e>
     a84:	81 e0       	ldi	r24, 0x01	; 1
     a86:	80 93 08 38 	sts	0x3808, r24	; 0x803808 <serTxDone>
     a8a:	10 92 45 0a 	sts	0x0A45, r1	; 0x800a45 <__TEXT_REGION_LENGTH__+0x700a45>
     a8e:	81 e0       	ldi	r24, 0x01	; 1
     a90:	80 93 46 0a 	sts	0x0A46, r24	; 0x800a46 <__TEXT_REGION_LENGTH__+0x700a46>
     a94:	ff 91       	pop	r31
     a96:	ef 91       	pop	r30
     a98:	9f 91       	pop	r25
     a9a:	8f 91       	pop	r24
     a9c:	0f 90       	pop	r0
     a9e:	0f be       	out	0x3f, r0	; 63
     aa0:	0f 90       	pop	r0
     aa2:	1f 90       	pop	r1
     aa4:	18 95       	reti

00000aa6 <__vector_14>:
     aa6:	1f 92       	push	r1
     aa8:	0f 92       	push	r0
     aaa:	0f b6       	in	r0, 0x3f	; 63
     aac:	0f 92       	push	r0
     aae:	11 24       	eor	r1, r1
     ab0:	2f 93       	push	r18
     ab2:	3f 93       	push	r19
     ab4:	4f 93       	push	r20
     ab6:	8f 93       	push	r24
     ab8:	9f 93       	push	r25
     aba:	ef 93       	push	r30
     abc:	ff 93       	push	r31
     abe:	e0 91 05 38 	lds	r30, 0x3805	; 0x803805 <auSmpAddr>
     ac2:	f0 91 06 38 	lds	r31, 0x3806	; 0x803806 <auSmpAddr+0x1>
     ac6:	80 81       	ld	r24, Z
     ac8:	81 11       	cpse	r24, r1
     aca:	08 c0       	rjmp	.+16     	; 0xadc <__vector_14+0x36>
     acc:	80 91 03 38 	lds	r24, 0x3803	; 0x803803 <auRepAddr>
     ad0:	90 91 04 38 	lds	r25, 0x3804	; 0x803804 <auRepAddr+0x1>
     ad4:	80 93 05 38 	sts	0x3805, r24	; 0x803805 <auSmpAddr>
     ad8:	90 93 06 38 	sts	0x3806, r25	; 0x803806 <auSmpAddr+0x1>
     adc:	e0 91 05 38 	lds	r30, 0x3805	; 0x803805 <auSmpAddr>
     ae0:	f0 91 06 38 	lds	r31, 0x3806	; 0x803806 <auSmpAddr+0x1>
     ae4:	80 81       	ld	r24, Z
     ae6:	88 23       	and	r24, r24
     ae8:	e1 f0       	breq	.+56     	; 0xb22 <__vector_14+0x7c>
     aea:	20 81       	ld	r18, Z
     aec:	40 91 8a 3a 	lds	r20, 0x3A8A	; 0x803a8a <auVolume>
     af0:	30 e0       	ldi	r19, 0x00	; 0
     af2:	2f 57       	subi	r18, 0x7F	; 127
     af4:	31 09       	sbc	r19, r1
     af6:	42 9f       	mul	r20, r18
     af8:	c0 01       	movw	r24, r0
     afa:	43 9f       	mul	r20, r19
     afc:	90 0d       	add	r25, r0
     afe:	11 24       	eor	r1, r1
     b00:	89 2f       	mov	r24, r25
     b02:	99 0f       	add	r25, r25
     b04:	99 0b       	sbc	r25, r25
     b06:	80 58       	subi	r24, 0x80	; 128
     b08:	9f 4f       	sbci	r25, 0xFF	; 255
     b0a:	80 93 a1 06 	sts	0x06A1, r24	; 0x8006a1 <__TEXT_REGION_LENGTH__+0x7006a1>
     b0e:	80 91 05 38 	lds	r24, 0x3805	; 0x803805 <auSmpAddr>
     b12:	90 91 06 38 	lds	r25, 0x3806	; 0x803806 <auSmpAddr+0x1>
     b16:	01 96       	adiw	r24, 0x01	; 1
     b18:	80 93 05 38 	sts	0x3805, r24	; 0x803805 <auSmpAddr>
     b1c:	90 93 06 38 	sts	0x3806, r25	; 0x803806 <auSmpAddr+0x1>
     b20:	06 c0       	rjmp	.+12     	; 0xb2e <__vector_14+0x88>
     b22:	80 e8       	ldi	r24, 0x80	; 128
     b24:	80 93 a1 06 	sts	0x06A1, r24	; 0x8006a1 <__TEXT_REGION_LENGTH__+0x7006a1>
     b28:	81 e0       	ldi	r24, 0x01	; 1
     b2a:	80 93 de 3a 	sts	0x3ADE, r24	; 0x803ade <auPlayDone>
     b2e:	81 e0       	ldi	r24, 0x01	; 1
     b30:	80 93 56 0a 	sts	0x0A56, r24	; 0x800a56 <__TEXT_REGION_LENGTH__+0x700a56>
     b34:	ff 91       	pop	r31
     b36:	ef 91       	pop	r30
     b38:	9f 91       	pop	r25
     b3a:	8f 91       	pop	r24
     b3c:	4f 91       	pop	r20
     b3e:	3f 91       	pop	r19
     b40:	2f 91       	pop	r18
     b42:	0f 90       	pop	r0
     b44:	0f be       	out	0x3f, r0	; 63
     b46:	0f 90       	pop	r0
     b48:	1f 90       	pop	r1
     b4a:	18 95       	reti

00000b4c <__vector_27>:
     b4c:	1f 92       	push	r1
     b4e:	0f 92       	push	r0
     b50:	0f b6       	in	r0, 0x3f	; 63
     b52:	0f 92       	push	r0
     b54:	11 24       	eor	r1, r1
     b56:	8f 93       	push	r24
     b58:	ef 93       	push	r30
     b5a:	ff 93       	push	r31
     b5c:	80 91 37 38 	lds	r24, 0x3837	; 0x803837 <serRxDone>
     b60:	81 11       	cpse	r24, r1
     b62:	44 c0       	rjmp	.+136    	; 0xbec <__vector_27+0xa0>
     b64:	ed b3       	in	r30, 0x1d	; 29
     b66:	f0 e0       	ldi	r31, 0x00	; 0
     b68:	80 91 00 08 	lds	r24, 0x0800	; 0x800800 <__TEXT_REGION_LENGTH__+0x700800>
     b6c:	e7 5b       	subi	r30, 0xB7	; 183
     b6e:	f5 4c       	sbci	r31, 0xC5	; 197
     b70:	80 83       	st	Z, r24
     b72:	ed b3       	in	r30, 0x1d	; 29
     b74:	f0 e0       	ldi	r31, 0x00	; 0
     b76:	e7 5b       	subi	r30, 0xB7	; 183
     b78:	f5 4c       	sbci	r31, 0xC5	; 197
     b7a:	80 81       	ld	r24, Z
     b7c:	80 93 02 08 	sts	0x0802, r24	; 0x800802 <__TEXT_REGION_LENGTH__+0x700802>
     b80:	ed b3       	in	r30, 0x1d	; 29
     b82:	f0 e0       	ldi	r31, 0x00	; 0
     b84:	e7 5b       	subi	r30, 0xB7	; 183
     b86:	f5 4c       	sbci	r31, 0xC5	; 197
     b88:	80 81       	ld	r24, Z
     b8a:	8a 30       	cpi	r24, 0x0A	; 10
     b8c:	39 f0       	breq	.+14     	; 0xb9c <__vector_27+0x50>
     b8e:	ed b3       	in	r30, 0x1d	; 29
     b90:	f0 e0       	ldi	r31, 0x00	; 0
     b92:	e7 5b       	subi	r30, 0xB7	; 183
     b94:	f5 4c       	sbci	r31, 0xC5	; 197
     b96:	80 81       	ld	r24, Z
     b98:	8d 30       	cpi	r24, 0x0D	; 13
     b9a:	49 f4       	brne	.+18     	; 0xbae <__vector_27+0x62>
     b9c:	ed b3       	in	r30, 0x1d	; 29
     b9e:	f0 e0       	ldi	r31, 0x00	; 0
     ba0:	e7 5b       	subi	r30, 0xB7	; 183
     ba2:	f5 4c       	sbci	r31, 0xC5	; 197
     ba4:	10 82       	st	Z, r1
     ba6:	81 e0       	ldi	r24, 0x01	; 1
     ba8:	80 93 37 38 	sts	0x3837, r24	; 0x803837 <serRxDone>
     bac:	1f c0       	rjmp	.+62     	; 0xbec <__vector_27+0xa0>
     bae:	ed b3       	in	r30, 0x1d	; 29
     bb0:	f0 e0       	ldi	r31, 0x00	; 0
     bb2:	e7 5b       	subi	r30, 0xB7	; 183
     bb4:	f5 4c       	sbci	r31, 0xC5	; 197
     bb6:	80 81       	ld	r24, Z
     bb8:	88 30       	cpi	r24, 0x08	; 8
     bba:	39 f0       	breq	.+14     	; 0xbca <__vector_27+0x7e>
     bbc:	ed b3       	in	r30, 0x1d	; 29
     bbe:	f0 e0       	ldi	r31, 0x00	; 0
     bc0:	e7 5b       	subi	r30, 0xB7	; 183
     bc2:	f5 4c       	sbci	r31, 0xC5	; 197
     bc4:	80 81       	ld	r24, Z
     bc6:	8f 37       	cpi	r24, 0x7F	; 127
     bc8:	59 f4       	brne	.+22     	; 0xbe0 <__vector_27+0x94>
     bca:	8d b3       	in	r24, 0x1d	; 29
     bcc:	88 23       	and	r24, r24
     bce:	41 f0       	breq	.+16     	; 0xbe0 <__vector_27+0x94>
     bd0:	ed b3       	in	r30, 0x1d	; 29
     bd2:	f0 e0       	ldi	r31, 0x00	; 0
     bd4:	e7 5b       	subi	r30, 0xB7	; 183
     bd6:	f5 4c       	sbci	r31, 0xC5	; 197
     bd8:	10 82       	st	Z, r1
     bda:	8d b3       	in	r24, 0x1d	; 29
     bdc:	81 50       	subi	r24, 0x01	; 1
     bde:	05 c0       	rjmp	.+10     	; 0xbea <__vector_27+0x9e>
     be0:	8d b3       	in	r24, 0x1d	; 29
     be2:	80 34       	cpi	r24, 0x40	; 64
     be4:	18 f4       	brcc	.+6      	; 0xbec <__vector_27+0xa0>
     be6:	8d b3       	in	r24, 0x1d	; 29
     be8:	8f 5f       	subi	r24, 0xFF	; 255
     bea:	8d bb       	out	0x1d, r24	; 29
     bec:	80 e8       	ldi	r24, 0x80	; 128
     bee:	80 93 04 08 	sts	0x0804, r24	; 0x800804 <__TEXT_REGION_LENGTH__+0x700804>
     bf2:	ff 91       	pop	r31
     bf4:	ef 91       	pop	r30
     bf6:	8f 91       	pop	r24
     bf8:	0f 90       	pop	r0
     bfa:	0f be       	out	0x3f, r0	; 63
     bfc:	0f 90       	pop	r0
     bfe:	1f 90       	pop	r1
     c00:	18 95       	reti

00000c02 <__vector_28>:
     c02:	1f 92       	push	r1
     c04:	0f 92       	push	r0
     c06:	0f b6       	in	r0, 0x3f	; 63
     c08:	0f 92       	push	r0
     c0a:	11 24       	eor	r1, r1
     c0c:	8f 93       	push	r24
     c0e:	ef 93       	push	r30
     c10:	ff 93       	push	r31
     c12:	10 92 4a 0a 	sts	0x0A4A, r1	; 0x800a4a <__TEXT_REGION_LENGTH__+0x700a4a>
     c16:	10 92 4b 0a 	sts	0x0A4B, r1	; 0x800a4b <__TEXT_REGION_LENGTH__+0x700a4b>
     c1a:	81 e0       	ldi	r24, 0x01	; 1
     c1c:	80 93 45 0a 	sts	0x0A45, r24	; 0x800a45 <__TEXT_REGION_LENGTH__+0x700a45>
     c20:	e5 e0       	ldi	r30, 0x05	; 5
     c22:	f8 e0       	ldi	r31, 0x08	; 8
     c24:	80 81       	ld	r24, Z
     c26:	8f 7d       	andi	r24, 0xDF	; 223
     c28:	80 83       	st	Z, r24
     c2a:	ff 91       	pop	r31
     c2c:	ef 91       	pop	r30
     c2e:	8f 91       	pop	r24
     c30:	0f 90       	pop	r0
     c32:	0f be       	out	0x3f, r0	; 63
     c34:	0f 90       	pop	r0
     c36:	1f 90       	pop	r1
     c38:	18 95       	reti

00000c3a <__vector_20>:
     c3a:	1f 92       	push	r1
     c3c:	0f 92       	push	r0
     c3e:	0f b6       	in	r0, 0x3f	; 63
     c40:	0f 92       	push	r0
     c42:	11 24       	eor	r1, r1
     c44:	8f 93       	push	r24
     c46:	9f 93       	push	r25
     c48:	ef 93       	push	r30
     c4a:	ff 93       	push	r31
     c4c:	80 91 2a 38 	lds	r24, 0x382A	; 0x80382a <adc0Chg>
     c50:	81 11       	cpse	r24, r1
     c52:	18 c0       	rjmp	.+48     	; 0xc84 <__vector_20+0x4a>
     c54:	8e b3       	in	r24, 0x1e	; 30
     c56:	8f 5f       	subi	r24, 0xFF	; 255
     c58:	8f 71       	andi	r24, 0x1F	; 31
     c5a:	8e bb       	out	0x1e, r24	; 30
     c5c:	80 91 06 06 	lds	r24, 0x0606	; 0x800606 <__TEXT_REGION_LENGTH__+0x700606>
     c60:	8e 31       	cpi	r24, 0x1E	; 30
     c62:	41 f4       	brne	.+16     	; 0xc74 <__vector_20+0x3a>
     c64:	80 91 10 06 	lds	r24, 0x0610	; 0x800610 <__TEXT_REGION_LENGTH__+0x700610>
     c68:	90 e0       	ldi	r25, 0x00	; 0
     c6a:	80 93 e1 3a 	sts	0x3AE1, r24	; 0x803ae1 <adcTemp>
     c6e:	90 93 e2 3a 	sts	0x3AE2, r25	; 0x803ae2 <adcTemp+0x1>
     c72:	0a c0       	rjmp	.+20     	; 0xc88 <__vector_20+0x4e>
     c74:	ee b3       	in	r30, 0x1e	; 30
     c76:	f0 e0       	ldi	r31, 0x00	; 0
     c78:	80 91 10 06 	lds	r24, 0x0610	; 0x800610 <__TEXT_REGION_LENGTH__+0x700610>
     c7c:	ea 56       	subi	r30, 0x6A	; 106
     c7e:	f5 4c       	sbci	r31, 0xC5	; 197
     c80:	80 83       	st	Z, r24
     c82:	02 c0       	rjmp	.+4      	; 0xc88 <__vector_20+0x4e>
     c84:	10 92 2a 38 	sts	0x382A, r1	; 0x80382a <adc0Chg>
     c88:	81 e0       	ldi	r24, 0x01	; 1
     c8a:	80 93 0b 06 	sts	0x060B, r24	; 0x80060b <__TEXT_REGION_LENGTH__+0x70060b>
     c8e:	ff 91       	pop	r31
     c90:	ef 91       	pop	r30
     c92:	9f 91       	pop	r25
     c94:	8f 91       	pop	r24
     c96:	0f 90       	pop	r0
     c98:	0f be       	out	0x3f, r0	; 63
     c9a:	0f 90       	pop	r0
     c9c:	1f 90       	pop	r1
     c9e:	18 95       	reti

00000ca0 <__vector_22>:
     ca0:	1f 92       	push	r1
     ca2:	0f 92       	push	r0
     ca4:	0f b6       	in	r0, 0x3f	; 63
     ca6:	0f 92       	push	r0
     ca8:	11 24       	eor	r1, r1
     caa:	8f 93       	push	r24
     cac:	9f 93       	push	r25
     cae:	80 91 46 06 	lds	r24, 0x0646	; 0x800646 <__TEXT_REGION_LENGTH__+0x700646>
     cb2:	81 11       	cpse	r24, r1
     cb4:	0a c0       	rjmp	.+20     	; 0xcca <__vector_22+0x2a>
     cb6:	80 91 50 06 	lds	r24, 0x0650	; 0x800650 <__TEXT_REGION_LENGTH__+0x700650>
     cba:	90 91 51 06 	lds	r25, 0x0651	; 0x800651 <__TEXT_REGION_LENGTH__+0x700651>
     cbe:	80 93 91 3a 	sts	0x3A91, r24	; 0x803a91 <adcPhot>
     cc2:	90 93 92 3a 	sts	0x3A92, r25	; 0x803a92 <adcPhot+0x1>
     cc6:	81 e0       	ldi	r24, 0x01	; 1
     cc8:	10 c0       	rjmp	.+32     	; 0xcea <__vector_22+0x4a>
     cca:	80 91 46 06 	lds	r24, 0x0646	; 0x800646 <__TEXT_REGION_LENGTH__+0x700646>
     cce:	81 30       	cpi	r24, 0x01	; 1
     cd0:	79 f4       	brne	.+30     	; 0xcf0 <__vector_22+0x50>
     cd2:	88 e0       	ldi	r24, 0x08	; 8
     cd4:	80 93 06 04 	sts	0x0406, r24	; 0x800406 <__TEXT_REGION_LENGTH__+0x700406>
     cd8:	80 91 50 06 	lds	r24, 0x0650	; 0x800650 <__TEXT_REGION_LENGTH__+0x700650>
     cdc:	90 91 51 06 	lds	r25, 0x0651	; 0x800651 <__TEXT_REGION_LENGTH__+0x700651>
     ce0:	80 93 8f 3a 	sts	0x3A8F, r24	; 0x803a8f <adcHall>
     ce4:	90 93 90 3a 	sts	0x3A90, r25	; 0x803a90 <adcHall+0x1>
     ce8:	84 e0       	ldi	r24, 0x04	; 4
     cea:	80 93 46 06 	sts	0x0646, r24	; 0x800646 <__TEXT_REGION_LENGTH__+0x700646>
     cee:	10 c0       	rjmp	.+32     	; 0xd10 <__vector_22+0x70>
     cf0:	80 91 50 06 	lds	r24, 0x0650	; 0x800650 <__TEXT_REGION_LENGTH__+0x700650>
     cf4:	90 91 51 06 	lds	r25, 0x0651	; 0x800651 <__TEXT_REGION_LENGTH__+0x700651>
     cf8:	80 93 8b 3a 	sts	0x3A8B, r24	; 0x803a8b <adcBtns>
     cfc:	90 93 8c 3a 	sts	0x3A8C, r25	; 0x803a8c <adcBtns+0x1>
     d00:	8f b3       	in	r24, 0x1f	; 31
     d02:	8f 30       	cpi	r24, 0x0F	; 15
     d04:	29 f4       	brne	.+10     	; 0xd10 <__vector_22+0x70>
     d06:	10 92 46 06 	sts	0x0646, r1	; 0x800646 <__TEXT_REGION_LENGTH__+0x700646>
     d0a:	88 e0       	ldi	r24, 0x08	; 8
     d0c:	80 93 05 04 	sts	0x0405, r24	; 0x800405 <__TEXT_REGION_LENGTH__+0x700405>
     d10:	8f b3       	in	r24, 0x1f	; 31
     d12:	90 e0       	ldi	r25, 0x00	; 0
     d14:	01 96       	adiw	r24, 0x01	; 1
     d16:	8f 70       	andi	r24, 0x0F	; 15
     d18:	99 27       	eor	r25, r25
     d1a:	8f bb       	out	0x1f, r24	; 31
     d1c:	81 e0       	ldi	r24, 0x01	; 1
     d1e:	80 93 4b 06 	sts	0x064B, r24	; 0x80064b <__TEXT_REGION_LENGTH__+0x70064b>
     d22:	9f 91       	pop	r25
     d24:	8f 91       	pop	r24
     d26:	0f 90       	pop	r0
     d28:	0f be       	out	0x3f, r0	; 63
     d2a:	0f 90       	pop	r0
     d2c:	1f 90       	pop	r1
     d2e:	18 95       	reti

00000d30 <__vector_6>:
     d30:	1f 92       	push	r1
     d32:	0f 92       	push	r0
     d34:	0f b6       	in	r0, 0x3f	; 63
     d36:	0f 92       	push	r0
     d38:	11 24       	eor	r1, r1
     d3a:	5f 93       	push	r21
     d3c:	6f 93       	push	r22
     d3e:	7f 93       	push	r23
     d40:	8f 93       	push	r24
     d42:	9f 93       	push	r25
     d44:	af 93       	push	r26
     d46:	bf 93       	push	r27
     d48:	80 91 43 01 	lds	r24, 0x0143	; 0x800143 <__TEXT_REGION_LENGTH__+0x700143>
     d4c:	81 ff       	sbrs	r24, 1
     d4e:	26 c0       	rjmp	.+76     	; 0xd9c <__vector_6+0x6c>
     d50:	80 91 35 38 	lds	r24, 0x3835	; 0x803835 <buttonMark>
     d54:	8f 3f       	cpi	r24, 0xFF	; 255
     d56:	29 f0       	breq	.+10     	; 0xd62 <__vector_6+0x32>
     d58:	80 91 35 38 	lds	r24, 0x3835	; 0x803835 <buttonMark>
     d5c:	8f 5f       	subi	r24, 0xFF	; 255
     d5e:	80 93 35 38 	sts	0x3835, r24	; 0x803835 <buttonMark>
     d62:	80 91 48 01 	lds	r24, 0x0148	; 0x800148 <__TEXT_REGION_LENGTH__+0x700148>
     d66:	90 91 49 01 	lds	r25, 0x0149	; 0x800149 <__TEXT_REGION_LENGTH__+0x700149>
     d6a:	60 91 4a 01 	lds	r22, 0x014A	; 0x80014a <__TEXT_REGION_LENGTH__+0x70014a>
     d6e:	70 91 4b 01 	lds	r23, 0x014B	; 0x80014b <__TEXT_REGION_LENGTH__+0x70014b>
     d72:	82 96       	adiw	r24, 0x22	; 34
     d74:	0e 94 2c 19 	call	0x3258	; 0x3258 <__udivmodhi4>
     d78:	80 93 e3 3a 	sts	0x3AE3, r24	; 0x803ae3 <tmp16bit>
     d7c:	90 93 e4 3a 	sts	0x3AE4, r25	; 0x803ae4 <tmp16bit+0x1>
     d80:	80 91 41 01 	lds	r24, 0x0141	; 0x800141 <__TEXT_REGION_LENGTH__+0x700141>
     d84:	83 fd       	sbrc	r24, 3
     d86:	fc cf       	rjmp	.-8      	; 0xd80 <__vector_6+0x50>
     d88:	80 91 e3 3a 	lds	r24, 0x3AE3	; 0x803ae3 <tmp16bit>
     d8c:	90 91 e4 3a 	lds	r25, 0x3AE4	; 0x803ae4 <tmp16bit+0x1>
     d90:	80 93 4c 01 	sts	0x014C, r24	; 0x80014c <__TEXT_REGION_LENGTH__+0x70014c>
     d94:	90 93 4d 01 	sts	0x014D, r25	; 0x80014d <__TEXT_REGION_LENGTH__+0x70014d>
     d98:	82 e0       	ldi	r24, 0x02	; 2
     d9a:	06 c0       	rjmp	.+12     	; 0xda8 <__vector_6+0x78>
     d9c:	80 91 36 38 	lds	r24, 0x3836	; 0x803836 <minuteMark>
     da0:	8f 5f       	subi	r24, 0xFF	; 255
     da2:	80 93 36 38 	sts	0x3836, r24	; 0x803836 <minuteMark>
     da6:	81 e0       	ldi	r24, 0x01	; 1
     da8:	80 93 43 01 	sts	0x0143, r24	; 0x800143 <__TEXT_REGION_LENGTH__+0x700143>
     dac:	bf 91       	pop	r27
     dae:	af 91       	pop	r26
     db0:	9f 91       	pop	r25
     db2:	8f 91       	pop	r24
     db4:	7f 91       	pop	r23
     db6:	6f 91       	pop	r22
     db8:	5f 91       	pop	r21
     dba:	0f 90       	pop	r0
     dbc:	0f be       	out	0x3f, r0	; 63
     dbe:	0f 90       	pop	r0
     dc0:	1f 90       	pop	r1
     dc2:	18 95       	reti

00000dc4 <__vector_7>:
     dc4:	1f 92       	push	r1
     dc6:	0f 92       	push	r0
     dc8:	0f b6       	in	r0, 0x3f	; 63
     dca:	0f 92       	push	r0
     dcc:	11 24       	eor	r1, r1
     dce:	8f 93       	push	r24
     dd0:	81 e0       	ldi	r24, 0x01	; 1
     dd2:	80 93 48 06 	sts	0x0648, r24	; 0x800648 <__TEXT_REGION_LENGTH__+0x700648>
     dd6:	80 93 53 01 	sts	0x0153, r24	; 0x800153 <__TEXT_REGION_LENGTH__+0x700153>
     dda:	8f 91       	pop	r24
     ddc:	0f 90       	pop	r0
     dde:	0f be       	out	0x3f, r0	; 63
     de0:	0f 90       	pop	r0
     de2:	1f 90       	pop	r1
     de4:	18 95       	reti

00000de6 <EERead>:
     de6:	90 91 02 10 	lds	r25, 0x1002	; 0x801002 <__TEXT_REGION_LENGTH__+0x701002>
     dea:	91 fd       	sbrc	r25, 1
     dec:	fc cf       	rjmp	.-8      	; 0xde6 <EERead>
     dee:	fb 01       	movw	r30, r22
     df0:	48 0f       	add	r20, r24
     df2:	84 17       	cp	r24, r20
     df4:	39 f0       	breq	.+14     	; 0xe04 <EERead+0x1e>
     df6:	a8 2f       	mov	r26, r24
     df8:	b0 e0       	ldi	r27, 0x00	; 0
     dfa:	bc 5e       	subi	r27, 0xEC	; 236
     dfc:	9c 91       	ld	r25, X
     dfe:	91 93       	st	Z+, r25
     e00:	8f 5f       	subi	r24, 0xFF	; 255
     e02:	f7 cf       	rjmp	.-18     	; 0xdf2 <EERead+0xc>
     e04:	08 95       	ret

00000e06 <EEWrite>:
     e06:	9d e9       	ldi	r25, 0x9D	; 157
     e08:	24 e0       	ldi	r18, 0x04	; 4
     e0a:	33 e0       	ldi	r19, 0x03	; 3
     e0c:	44 23       	and	r20, r20
     e0e:	09 f1       	breq	.+66     	; 0xe52 <EEWrite+0x4c>
     e10:	50 91 02 10 	lds	r21, 0x1002	; 0x801002 <__TEXT_REGION_LENGTH__+0x701002>
     e14:	51 fd       	sbrc	r21, 1
     e16:	fc cf       	rjmp	.-8      	; 0xe10 <EEWrite+0xa>
     e18:	94 bf       	out	0x34, r25	; 52
     e1a:	20 93 00 10 	sts	0x1000, r18	; 0x801000 <__TEXT_REGION_LENGTH__+0x701000>
     e1e:	e8 2f       	mov	r30, r24
     e20:	58 2f       	mov	r21, r24
     e22:	5f 71       	andi	r21, 0x1F	; 31
     e24:	8f 5f       	subi	r24, 0xFF	; 255
     e26:	6f 5f       	subi	r22, 0xFF	; 255
     e28:	7f 4f       	sbci	r23, 0xFF	; 255
     e2a:	db 01       	movw	r26, r22
     e2c:	11 97       	sbiw	r26, 0x01	; 1
     e2e:	ac 91       	ld	r26, X
     e30:	f0 e0       	ldi	r31, 0x00	; 0
     e32:	fc 5e       	subi	r31, 0xEC	; 236
     e34:	a0 83       	st	Z, r26
     e36:	41 50       	subi	r20, 0x01	; 1
     e38:	19 f0       	breq	.+6      	; 0xe40 <EEWrite+0x3a>
     e3a:	e8 2f       	mov	r30, r24
     e3c:	5f 31       	cpi	r21, 0x1F	; 31
     e3e:	81 f7       	brne	.-32     	; 0xe20 <EEWrite+0x1a>
     e40:	94 bf       	out	0x34, r25	; 52
     e42:	30 93 00 10 	sts	0x1000, r19	; 0x801000 <__TEXT_REGION_LENGTH__+0x701000>
     e46:	50 91 02 10 	lds	r21, 0x1002	; 0x801002 <__TEXT_REGION_LENGTH__+0x701002>
     e4a:	52 ff       	sbrs	r21, 2
     e4c:	df cf       	rjmp	.-66     	; 0xe0c <EEWrite+0x6>
     e4e:	81 e0       	ldi	r24, 0x01	; 1
     e50:	08 95       	ret
     e52:	80 e0       	ldi	r24, 0x00	; 0
     e54:	08 95       	ret

00000e56 <SerSend>:
     e56:	20 91 08 38 	lds	r18, 0x3808	; 0x803808 <serTxDone>
     e5a:	22 23       	and	r18, r18
     e5c:	59 f0       	breq	.+22     	; 0xe74 <SerSend+0x1e>
     e5e:	80 93 8d 3a 	sts	0x3A8D, r24	; 0x803a8d <serTxAddr>
     e62:	90 93 8e 3a 	sts	0x3A8E, r25	; 0x803a8e <serTxAddr+0x1>
     e66:	10 92 08 38 	sts	0x3808, r1	; 0x803808 <serTxDone>
     e6a:	81 e0       	ldi	r24, 0x01	; 1
     e6c:	80 93 45 0a 	sts	0x0A45, r24	; 0x800a45 <__TEXT_REGION_LENGTH__+0x700a45>
     e70:	80 e0       	ldi	r24, 0x00	; 0
     e72:	08 95       	ret
     e74:	81 e0       	ldi	r24, 0x01	; 1
     e76:	08 95       	ret

00000e78 <SerSpeed>:
     e78:	28 2f       	mov	r18, r24
     e7a:	81 11       	cpse	r24, r1
     e7c:	01 c0       	rjmp	.+2      	; 0xe80 <SerSpeed+0x8>
     e7e:	21 e0       	ldi	r18, 0x01	; 1
     e80:	8f ef       	ldi	r24, 0xFF	; 255
     e82:	90 e0       	ldi	r25, 0x00	; 0
     e84:	82 1b       	sub	r24, r18
     e86:	91 09       	sbc	r25, r1
     e88:	98 2f       	mov	r25, r24
     e8a:	88 27       	eor	r24, r24
     e8c:	81 50       	subi	r24, 0x01	; 1
     e8e:	9f 4f       	sbci	r25, 0xFF	; 255
     e90:	80 93 4c 0a 	sts	0x0A4C, r24	; 0x800a4c <__TEXT_REGION_LENGTH__+0x700a4c>
     e94:	90 93 4d 0a 	sts	0x0A4D, r25	; 0x800a4d <__TEXT_REGION_LENGTH__+0x700a4d>
     e98:	08 95       	ret

00000e9a <CheckButtons>:
};

// Returns button combination (4LSB) and number of consecutive times this combination is detected. First read should always be ignored! 
uint8_t CheckButtons(uint8_t previousValue){
    uint8_t bADC = (uint8_t)(adcBtns>>4);
     e9a:	20 91 8b 3a 	lds	r18, 0x3A8B	; 0x803a8b <adcBtns>
     e9e:	30 91 8c 3a 	lds	r19, 0x3A8C	; 0x803a8c <adcBtns+0x1>
    uint8_t bNibble = 0x0F;     //MSB to LSB: Bottom left, top left, top right, bottom right, 0F is error
    
    switch(bADC){
     ea2:	94 e0       	ldi	r25, 0x04	; 4
     ea4:	36 95       	lsr	r19
     ea6:	27 95       	ror	r18
     ea8:	9a 95       	dec	r25
     eaa:	e1 f7       	brne	.-8      	; 0xea4 <CheckButtons+0xa>
     eac:	33 27       	eor	r19, r19
     eae:	2c 35       	cpi	r18, 0x5C	; 92
     eb0:	31 05       	cpc	r19, r1
     eb2:	d0 f4       	brcc	.+52     	; 0xee8 <CheckButtons+0x4e>
     eb4:	23 35       	cpi	r18, 0x53	; 83
     eb6:	31 05       	cpc	r19, r1
     eb8:	a8 f5       	brcc	.+106    	; 0xf24 <CheckButtons+0x8a>
     eba:	22 33       	cpi	r18, 0x32	; 50
     ebc:	31 05       	cpc	r19, r1
     ebe:	50 f4       	brcc	.+20     	; 0xed4 <CheckButtons+0x3a>
     ec0:	2d 32       	cpi	r18, 0x2D	; 45
     ec2:	31 05       	cpc	r19, r1
     ec4:	58 f5       	brcc	.+86     	; 0xf1c <CheckButtons+0x82>
     ec6:	23 52       	subi	r18, 0x23	; 35
     ec8:	31 09       	sbc	r19, r1
     eca:	25 30       	cpi	r18, 0x05	; 5
     ecc:	31 05       	cpc	r19, r1
     ece:	80 f5       	brcc	.+96     	; 0xf30 <CheckButtons+0x96>

        case 35 ... 39:          //37: Both left
        bNibble = 0b1100;
     ed0:	9c e0       	ldi	r25, 0x0C	; 12
     ed2:	2f c0       	rjmp	.+94     	; 0xf32 <CheckButtons+0x98>
// Returns button combination (4LSB) and number of consecutive times this combination is detected. First read should always be ignored! 
uint8_t CheckButtons(uint8_t previousValue){
    uint8_t bADC = (uint8_t)(adcBtns>>4);
    uint8_t bNibble = 0x0F;     //MSB to LSB: Bottom left, top left, top right, bottom right, 0F is error
    
    switch(bADC){
     ed4:	27 33       	cpi	r18, 0x37	; 55
     ed6:	31 05       	cpc	r19, r1
     ed8:	18 f1       	brcs	.+70     	; 0xf20 <CheckButtons+0x86>
     eda:	2e 53       	subi	r18, 0x3E	; 62
     edc:	31 09       	sbc	r19, r1
     ede:	27 30       	cpi	r18, 0x07	; 7
     ee0:	31 05       	cpc	r19, r1
     ee2:	30 f5       	brcc	.+76     	; 0xf30 <CheckButtons+0x96>
        case 50 ... 54:          //52: Bottom left
        bNibble = 0b1000;
        break;

        case 62 ... 68:          //65: Both top
        bNibble = 0b0110;
     ee4:	96 e0       	ldi	r25, 0x06	; 6
        break;
     ee6:	25 c0       	rjmp	.+74     	; 0xf32 <CheckButtons+0x98>
// Returns button combination (4LSB) and number of consecutive times this combination is detected. First read should always be ignored! 
uint8_t CheckButtons(uint8_t previousValue){
    uint8_t bADC = (uint8_t)(adcBtns>>4);
    uint8_t bNibble = 0x0F;     //MSB to LSB: Bottom left, top left, top right, bottom right, 0F is error
    
    switch(bADC){
     ee8:	2a 38       	cpi	r18, 0x8A	; 138
     eea:	31 05       	cpc	r19, r1
     eec:	50 f4       	brcc	.+20     	; 0xf02 <CheckButtons+0x68>
     eee:	29 37       	cpi	r18, 0x79	; 121
     ef0:	31 05       	cpc	r19, r1
     ef2:	d0 f4       	brcc	.+52     	; 0xf28 <CheckButtons+0x8e>
     ef4:	23 56       	subi	r18, 0x63	; 99
     ef6:	31 09       	sbc	r19, r1
     ef8:	2b 30       	cpi	r18, 0x0B	; 11
     efa:	31 05       	cpc	r19, r1
     efc:	c8 f4       	brcc	.+50     	; 0xf30 <CheckButtons+0x96>
        case 83 ... 91:          //87: Top left
        bNibble = 0b0100;
        break;

        case 99 ... 109:         //104: Both right
        bNibble = 0b0011;
     efe:	93 e0       	ldi	r25, 0x03	; 3
        break;
     f00:	18 c0       	rjmp	.+48     	; 0xf32 <CheckButtons+0x98>
// Returns button combination (4LSB) and number of consecutive times this combination is detected. First read should always be ignored! 
uint8_t CheckButtons(uint8_t previousValue){
    uint8_t bADC = (uint8_t)(adcBtns>>4);
    uint8_t bNibble = 0x0F;     //MSB to LSB: Bottom left, top left, top right, bottom right, 0F is error
    
    switch(bADC){
     f02:	22 3a       	cpi	r18, 0xA2	; 162
     f04:	31 05       	cpc	r19, r1
     f06:	a0 f0       	brcs	.+40     	; 0xf30 <CheckButtons+0x96>
     f08:	2b 3b       	cpi	r18, 0xBB	; 187
     f0a:	31 05       	cpc	r19, r1
     f0c:	78 f0       	brcs	.+30     	; 0xf2c <CheckButtons+0x92>
     f0e:	20 5f       	subi	r18, 0xF0	; 240
     f10:	31 09       	sbc	r19, r1
     f12:	20 31       	cpi	r18, 0x10	; 16
     f14:	31 05       	cpc	r19, r1
     f16:	60 f4       	brcc	.+24     	; 0xf30 <CheckButtons+0x96>
        case 162 ... 186:        //174: Bottom right
        bNibble = 0b0001;
        break;

        case 240 ... 255:        //255: No button pressed
        bNibble = 0b0000;
     f18:	90 e0       	ldi	r25, 0x00	; 0
        break;
     f1a:	0b c0       	rjmp	.+22     	; 0xf32 <CheckButtons+0x98>
        case 35 ... 39:          //37: Both left
        bNibble = 0b1100;
        break;

        case 45 ... 49:          //47: Both bottom
        bNibble = 0b1001;
     f1c:	99 e0       	ldi	r25, 0x09	; 9
        break;
     f1e:	09 c0       	rjmp	.+18     	; 0xf32 <CheckButtons+0x98>

        case 50 ... 54:          //52: Bottom left
        bNibble = 0b1000;
     f20:	98 e0       	ldi	r25, 0x08	; 8
        break;
     f22:	07 c0       	rjmp	.+14     	; 0xf32 <CheckButtons+0x98>
        case 62 ... 68:          //65: Both top
        bNibble = 0b0110;
        break;

        case 83 ... 91:          //87: Top left
        bNibble = 0b0100;
     f24:	94 e0       	ldi	r25, 0x04	; 4
        break;
     f26:	05 c0       	rjmp	.+10     	; 0xf32 <CheckButtons+0x98>
        case 99 ... 109:         //104: Both right
        bNibble = 0b0011;
        break;

        case 121 ... 137:        //129: Top right
        bNibble = 0b0010;
     f28:	92 e0       	ldi	r25, 0x02	; 2
        break;
     f2a:	03 c0       	rjmp	.+6      	; 0xf32 <CheckButtons+0x98>

        case 162 ... 186:        //174: Bottom right
        bNibble = 0b0001;
     f2c:	91 e0       	ldi	r25, 0x01	; 1
        break;
     f2e:	01 c0       	rjmp	.+2      	; 0xf32 <CheckButtons+0x98>
};

// Returns button combination (4LSB) and number of consecutive times this combination is detected. First read should always be ignored! 
uint8_t CheckButtons(uint8_t previousValue){
    uint8_t bADC = (uint8_t)(adcBtns>>4);
    uint8_t bNibble = 0x0F;     //MSB to LSB: Bottom left, top left, top right, bottom right, 0F is error
     f30:	9f e0       	ldi	r25, 0x0F	; 15
        case 240 ... 255:        //255: No button pressed
        bNibble = 0b0000;
        break;
    }

    if ((previousValue&0x0F)==bNibble){
     f32:	28 2f       	mov	r18, r24
     f34:	2f 70       	andi	r18, 0x0F	; 15
     f36:	92 13       	cpse	r25, r18
     f38:	06 c0       	rjmp	.+12     	; 0xf46 <CheckButtons+0xac>
        if ((previousValue&0xF0) < 0xF0) previousValue += 0x10; //Same value? Increase time nibble
     f3a:	98 2f       	mov	r25, r24
     f3c:	90 7f       	andi	r25, 0xF0	; 240
     f3e:	90 3f       	cpi	r25, 0xF0	; 240
     f40:	39 f0       	breq	.+14     	; 0xf50 <CheckButtons+0xb6>
     f42:	80 5f       	subi	r24, 0xF0	; 240
     f44:	08 95       	ret
        return previousValue;       
    } else if (bNibble == 0) return 0xFF; //Buttons released, 0xFF triggers readout, previousValue holds last button value.
     f46:	99 23       	and	r25, r25
     f48:	11 f0       	breq	.+4      	; 0xf4e <CheckButtons+0xb4>
     f4a:	89 2f       	mov	r24, r25
     f4c:	08 95       	ret
     f4e:	8f ef       	ldi	r24, 0xFF	; 255
              else return bNibble;  //New value  
}
     f50:	08 95       	ret

00000f52 <lfsr>:

uint8_t lfsr(){
    static uint16_t state = 0xd401;
    state ^= (state << 13);
     f52:	80 91 1d 38 	lds	r24, 0x381D	; 0x80381d <state.3877>
     f56:	90 91 1e 38 	lds	r25, 0x381E	; 0x80381e <state.3877+0x1>
     f5a:	9c 01       	movw	r18, r24
     f5c:	32 2f       	mov	r19, r18
     f5e:	22 27       	eor	r18, r18
     f60:	32 95       	swap	r19
     f62:	33 0f       	add	r19, r19
     f64:	30 7e       	andi	r19, 0xE0	; 224
     f66:	82 27       	eor	r24, r18
     f68:	93 27       	eor	r25, r19
    state ^= (state >> 9);
     f6a:	9c 01       	movw	r18, r24
     f6c:	23 2f       	mov	r18, r19
     f6e:	33 27       	eor	r19, r19
     f70:	26 95       	lsr	r18
     f72:	82 27       	eor	r24, r18
     f74:	93 27       	eor	r25, r19
    state ^= (state << 7);
     f76:	9c 01       	movw	r18, r24
     f78:	36 95       	lsr	r19
     f7a:	32 2f       	mov	r19, r18
     f7c:	22 27       	eor	r18, r18
     f7e:	37 95       	ror	r19
     f80:	27 95       	ror	r18
     f82:	82 27       	eor	r24, r18
     f84:	93 27       	eor	r25, r19
     f86:	80 93 1d 38 	sts	0x381D, r24	; 0x80381d <state.3877>
     f8a:	90 93 1e 38 	sts	0x381E, r25	; 0x80381e <state.3877+0x1>
    return (state & 0xff);
}
     f8e:	08 95       	ret

00000f90 <floatSpeed>:

void floatSpeed(uint8_t bits, uint16_t min, uint16_t max){
     f90:	df 92       	push	r13
     f92:	ef 92       	push	r14
     f94:	ff 92       	push	r15
     f96:	0f 93       	push	r16
     f98:	1f 93       	push	r17
     f9a:	cf 93       	push	r28
     f9c:	df 93       	push	r29
     f9e:	7b 01       	movw	r14, r22
     fa0:	8a 01       	movw	r16, r20
    uint16_t val = TCB1_CCMP;
     fa2:	c0 91 5c 0a 	lds	r28, 0x0A5C	; 0x800a5c <__TEXT_REGION_LENGTH__+0x700a5c>
     fa6:	d0 91 5d 0a 	lds	r29, 0x0A5D	; 0x800a5d <__TEXT_REGION_LENGTH__+0x700a5d>
    bits = mask[(bits-1)&0x07];
     faa:	e8 2f       	mov	r30, r24
     fac:	f0 e0       	ldi	r31, 0x00	; 0
     fae:	31 97       	sbiw	r30, 0x01	; 1
     fb0:	e7 70       	andi	r30, 0x07	; 7
     fb2:	ff 27       	eor	r31, r31
     fb4:	e1 5e       	subi	r30, 0xE1	; 225
     fb6:	f7 4c       	sbci	r31, 0xC7	; 199
     fb8:	d0 80       	ld	r13, Z
    val += (lfsr()&bits);
     fba:	cb df       	rcall	.-106    	; 0xf52 <lfsr>
     fbc:	8d 21       	and	r24, r13
     fbe:	c8 0f       	add	r28, r24
     fc0:	d1 1d       	adc	r29, r1
    val -= (lfsr()&bits);
     fc2:	c7 df       	rcall	.-114    	; 0xf52 <lfsr>
     fc4:	8d 21       	and	r24, r13
     fc6:	c8 1b       	sub	r28, r24
     fc8:	d1 09       	sbc	r29, r1
     fca:	0c 17       	cp	r16, r28
     fcc:	1d 07       	cpc	r17, r29
     fce:	08 f4       	brcc	.+2      	; 0xfd2 <floatSpeed+0x42>
     fd0:	e8 01       	movw	r28, r16
     fd2:	c7 01       	movw	r24, r14
     fd4:	ec 16       	cp	r14, r28
     fd6:	fd 06       	cpc	r15, r29
     fd8:	08 f4       	brcc	.+2      	; 0xfdc <floatSpeed+0x4c>
     fda:	ce 01       	movw	r24, r28
     fdc:	80 93 5c 0a 	sts	0x0A5C, r24	; 0x800a5c <__TEXT_REGION_LENGTH__+0x700a5c>
    if (val > max) val = max;    //0x038B is normal rate, for wind we need to be a bit slower
    if (val < min) val = min;  
    TCB1_CCMP = val;
     fe0:	90 93 5d 0a 	sts	0x0A5D, r25	; 0x800a5d <__TEXT_REGION_LENGTH__+0x700a5d>
     fe4:	df 91       	pop	r29
}
     fe6:	cf 91       	pop	r28
     fe8:	1f 91       	pop	r17
     fea:	0f 91       	pop	r16
     fec:	ff 90       	pop	r15
     fee:	ef 90       	pop	r14
     ff0:	df 90       	pop	r13
     ff2:	08 95       	ret

00000ff4 <floatAround>:
     ff4:	0f 93       	push	r16

uint8_t floatAround(uint8_t sample, uint8_t bits, uint8_t min, uint8_t max){
     ff6:	1f 93       	push	r17
     ff8:	cf 93       	push	r28
     ffa:	df 93       	push	r29
     ffc:	c8 2f       	mov	r28, r24
     ffe:	04 2f       	mov	r16, r20
    1000:	12 2f       	mov	r17, r18
    bits = mask[(bits-1)&0x07];
    1002:	e6 2f       	mov	r30, r22
    1004:	f0 e0       	ldi	r31, 0x00	; 0
    1006:	31 97       	sbiw	r30, 0x01	; 1
    1008:	e7 70       	andi	r30, 0x07	; 7
    100a:	ff 27       	eor	r31, r31
    100c:	e1 5e       	subi	r30, 0xE1	; 225
    100e:	f7 4c       	sbci	r31, 0xC7	; 199
    1010:	d0 81       	ld	r29, Z
    sample += lfsr()&bits;
    1012:	9f df       	rcall	.-194    	; 0xf52 <lfsr>
    1014:	8d 23       	and	r24, r29
    1016:	c8 0f       	add	r28, r24
    sample -= lfsr()&bits;
    1018:	9c df       	rcall	.-200    	; 0xf52 <lfsr>
    101a:	8d 23       	and	r24, r29
    101c:	c8 1b       	sub	r28, r24
    101e:	8c 2f       	mov	r24, r28
    1020:	11 23       	and	r17, r17
    if (max){
    1022:	41 f0       	breq	.+16     	; 0x1034 <floatAround+0x40>
    1024:	9c 2f       	mov	r25, r28
    1026:	1c 17       	cp	r17, r28
    1028:	08 f4       	brcc	.+2      	; 0x102c <floatAround+0x38>
    102a:	91 2f       	mov	r25, r17
    102c:	80 2f       	mov	r24, r16
    102e:	09 17       	cp	r16, r25
    1030:	08 f4       	brcc	.+2      	; 0x1034 <floatAround+0x40>
    1032:	89 2f       	mov	r24, r25
    1034:	df 91       	pop	r29
        if (sample > max) sample = max;
        if (sample < min) sample = min;
    }
    return sample;
}
    1036:	cf 91       	pop	r28
    1038:	1f 91       	pop	r17
    103a:	0f 91       	pop	r16
    103c:	08 95       	ret

0000103e <SaveGameState>:
    103e:	cf 92       	push	r12

//Save changed data to EEPROM
uint8_t SaveGameState(){
    1040:	df 92       	push	r13
    1042:	ff 92       	push	r15
    1044:	0f 93       	push	r16
    1046:	1f 93       	push	r17
    1048:	cf 93       	push	r28
    104a:	df 93       	push	r29
    104c:	cd b7       	in	r28, 0x3d	; 61
    104e:	de b7       	in	r29, 0x3e	; 62
    1050:	64 97       	sbiw	r28, 0x14	; 20
    1052:	cd bf       	out	0x3d, r28	; 61
    1054:	de bf       	out	0x3e, r29	; 62
    uint8_t gameCheck[BOOTCHK];

    //Read all data up to the boot/check result address from EEPROM
    EERead(0, &gameCheck[0], BOOTCHK);
    1056:	44 e1       	ldi	r20, 0x14	; 20
    1058:	be 01       	movw	r22, r28
    105a:	6f 5f       	subi	r22, 0xFF	; 255
    105c:	7f 4f       	sbci	r23, 0xFF	; 255
    105e:	80 e0       	ldi	r24, 0x00	; 0
    1060:	c2 de       	rcall	.-636    	; 0xde6 <EERead>
    1062:	85 e3       	ldi	r24, 0x35	; 53
    1064:	c8 2e       	mov	r12, r24
    1066:	8a e3       	ldi	r24, 0x3A	; 58
    1068:	d8 2e       	mov	r13, r24
    106a:	8e 01       	movw	r16, r28
    106c:	0f 5f       	subi	r16, 0xFF	; 255
    106e:	1f 4f       	sbci	r17, 0xFF	; 255

    //Check game status bits
    for (uint8_t x=0; x<STATLEN; ++x){
    1070:	f1 2c       	mov	r15, r1
        if (gameState[x] != gameCheck[x]){
    1072:	f8 01       	movw	r30, r16
    1074:	81 91       	ld	r24, Z+
    1076:	8f 01       	movw	r16, r30
    1078:	f6 01       	movw	r30, r12
    107a:	90 81       	ld	r25, Z
    107c:	98 13       	cpse	r25, r24
    107e:	08 c0       	rjmp	.+16     	; 0x1090 <SaveGameState+0x52>

    //Read all data up to the boot/check result address from EEPROM
    EERead(0, &gameCheck[0], BOOTCHK);

    //Check game status bits
    for (uint8_t x=0; x<STATLEN; ++x){
    1080:	f3 94       	inc	r15
    1082:	ff ef       	ldi	r31, 0xFF	; 255
    1084:	cf 1a       	sub	r12, r31
    1086:	df 0a       	sbc	r13, r31
    1088:	80 e1       	ldi	r24, 0x10	; 16
    108a:	f8 12       	cpse	r15, r24
    108c:	f2 cf       	rjmp	.-28     	; 0x1072 <SaveGameState+0x34>
    108e:	08 c0       	rjmp	.+16     	; 0x10a0 <SaveGameState+0x62>
        if (gameState[x] != gameCheck[x]){
            if (EEWrite(x, &gameState[x], 1)) return 1;
    1090:	41 e0       	ldi	r20, 0x01	; 1
    1092:	b6 01       	movw	r22, r12
    1094:	8f 2d       	mov	r24, r15
    1096:	b7 de       	rcall	.-658    	; 0xe06 <EEWrite>
    1098:	88 23       	and	r24, r24
    109a:	91 f3       	breq	.-28     	; 0x1080 <SaveGameState+0x42>
    109c:	91 e0       	ldi	r25, 0x01	; 1
    109e:	36 c0       	rjmp	.+108    	; 0x110c <SaveGameState+0xce>
        }
    }

    //Check the inventory too
    gameState[INVADDR] = (uint8_t)(inventory[0]>>8);
    10a0:	20 91 31 38 	lds	r18, 0x3831	; 0x803831 <inventory>
    10a4:	30 91 32 38 	lds	r19, 0x3832	; 0x803832 <inventory+0x1>
    10a8:	30 93 45 3a 	sts	0x3A45, r19	; 0x803a45 <gameState+0x10>
    gameState[INVADDR+1] = (uint8_t)(inventory[0]&0xff);
    10ac:	20 93 46 3a 	sts	0x3A46, r18	; 0x803a46 <gameState+0x11>
    gameState[INVADDR+2] = (uint8_t)(inventory[1]>>8);
    10b0:	80 91 33 38 	lds	r24, 0x3833	; 0x803833 <inventory+0x2>
    10b4:	90 91 34 38 	lds	r25, 0x3834	; 0x803834 <inventory+0x3>
    10b8:	90 93 47 3a 	sts	0x3A47, r25	; 0x803a47 <gameState+0x12>
    gameState[INVADDR+3] = (uint8_t)(inventory[1]&0xff);
    10bc:	80 93 48 3a 	sts	0x3A48, r24	; 0x803a48 <gameState+0x13>
    if (inventory[0] != (gameCheck[INVADDR]<<8|gameCheck[INVADDR+1])) {
    10c0:	89 89       	ldd	r24, Y+17	; 0x11
    10c2:	9a 89       	ldd	r25, Y+18	; 0x12
    10c4:	98 27       	eor	r25, r24
    10c6:	89 27       	eor	r24, r25
    10c8:	98 27       	eor	r25, r24
    10ca:	28 17       	cp	r18, r24
    10cc:	39 07       	cpc	r19, r25
    10ce:	69 f4       	brne	.+26     	; 0x10ea <SaveGameState+0xac>
        if (EEWrite(INVADDR, &gameState[INVADDR], 2)) return 1;
    }
    if (inventory[1] != (gameCheck[INVADDR+2]<<8|gameCheck[INVADDR+3])) {
    10d0:	8b 89       	ldd	r24, Y+19	; 0x13
    10d2:	9c 89       	ldd	r25, Y+20	; 0x14
    10d4:	98 27       	eor	r25, r24
    10d6:	89 27       	eor	r24, r25
    10d8:	98 27       	eor	r25, r24
    10da:	20 91 33 38 	lds	r18, 0x3833	; 0x803833 <inventory+0x2>
    10de:	30 91 34 38 	lds	r19, 0x3834	; 0x803834 <inventory+0x3>
    10e2:	28 17       	cp	r18, r24
    10e4:	39 07       	cpc	r19, r25
    10e6:	49 f4       	brne	.+18     	; 0x10fa <SaveGameState+0xbc>
    10e8:	10 c0       	rjmp	.+32     	; 0x110a <SaveGameState+0xcc>
    gameState[INVADDR] = (uint8_t)(inventory[0]>>8);
    gameState[INVADDR+1] = (uint8_t)(inventory[0]&0xff);
    gameState[INVADDR+2] = (uint8_t)(inventory[1]>>8);
    gameState[INVADDR+3] = (uint8_t)(inventory[1]&0xff);
    if (inventory[0] != (gameCheck[INVADDR]<<8|gameCheck[INVADDR+1])) {
        if (EEWrite(INVADDR, &gameState[INVADDR], 2)) return 1;
    10ea:	42 e0       	ldi	r20, 0x02	; 2
    10ec:	65 e4       	ldi	r22, 0x45	; 69
    10ee:	7a e3       	ldi	r23, 0x3A	; 58
    10f0:	80 e1       	ldi	r24, 0x10	; 16
    10f2:	89 de       	rcall	.-750    	; 0xe06 <EEWrite>
    10f4:	88 23       	and	r24, r24
    10f6:	61 f3       	breq	.-40     	; 0x10d0 <SaveGameState+0x92>
    10f8:	d1 cf       	rjmp	.-94     	; 0x109c <SaveGameState+0x5e>
    }
    if (inventory[1] != (gameCheck[INVADDR+2]<<8|gameCheck[INVADDR+3])) {
        if (EEWrite(INVADDR+2, &gameState[INVADDR+2], 2)) return 1;
    10fa:	42 e0       	ldi	r20, 0x02	; 2
    10fc:	67 e4       	ldi	r22, 0x47	; 71
    10fe:	7a e3       	ldi	r23, 0x3A	; 58
    1100:	82 e1       	ldi	r24, 0x12	; 18
    1102:	81 de       	rcall	.-766    	; 0xe06 <EEWrite>
    EERead(0, &gameCheck[0], BOOTCHK);

    //Check game status bits
    for (uint8_t x=0; x<STATLEN; ++x){
        if (gameState[x] != gameCheck[x]){
            if (EEWrite(x, &gameState[x], 1)) return 1;
    1104:	91 e0       	ldi	r25, 0x01	; 1
    1106:	81 11       	cpse	r24, r1
    1108:	01 c0       	rjmp	.+2      	; 0x110c <SaveGameState+0xce>
    110a:	90 e0       	ldi	r25, 0x00	; 0
    if (inventory[1] != (gameCheck[INVADDR+2]<<8|gameCheck[INVADDR+3])) {
        if (EEWrite(INVADDR+2, &gameState[INVADDR+2], 2)) return 1;
    }

    return 0;
}
    110c:	89 2f       	mov	r24, r25
    110e:	64 96       	adiw	r28, 0x14	; 20
    1110:	cd bf       	out	0x3d, r28	; 61
    1112:	de bf       	out	0x3e, r29	; 62
    1114:	df 91       	pop	r29
    1116:	cf 91       	pop	r28
    1118:	1f 91       	pop	r17
    111a:	0f 91       	pop	r16
    111c:	ff 90       	pop	r15
    111e:	df 90       	pop	r13
    1120:	cf 90       	pop	r12
    1122:	08 95       	ret

00001124 <ReadStatusBit>:

uint8_t ReadStatusBit(uint8_t number){
    number &= 0x7f;
    if (gameState[number>>3] & (1<<(number&7))) return 1; else return 0;
    1124:	e8 2f       	mov	r30, r24
    1126:	ef 77       	andi	r30, 0x7F	; 127
    1128:	e6 95       	lsr	r30
    112a:	e6 95       	lsr	r30
    112c:	e6 95       	lsr	r30
    112e:	f0 e0       	ldi	r31, 0x00	; 0
    1130:	eb 5c       	subi	r30, 0xCB	; 203
    1132:	f5 4c       	sbci	r31, 0xC5	; 197
    1134:	20 81       	ld	r18, Z
    1136:	30 e0       	ldi	r19, 0x00	; 0
    1138:	87 70       	andi	r24, 0x07	; 7
    113a:	a9 01       	movw	r20, r18
    113c:	02 c0       	rjmp	.+4      	; 0x1142 <ReadStatusBit+0x1e>
    113e:	55 95       	asr	r21
    1140:	47 95       	ror	r20
    1142:	8a 95       	dec	r24
    1144:	e2 f7       	brpl	.-8      	; 0x113e <ReadStatusBit+0x1a>
    1146:	ca 01       	movw	r24, r20
}
    1148:	81 70       	andi	r24, 0x01	; 1
    114a:	08 95       	ret

0000114c <WriteStatusBit>:

void WriteStatusBit(uint8_t number, uint8_t state){
    number &= 0x7f;
    114c:	e8 2f       	mov	r30, r24
    114e:	ef 77       	andi	r30, 0x7F	; 127
    1150:	e6 95       	lsr	r30
    1152:	e6 95       	lsr	r30
    1154:	e6 95       	lsr	r30
    1156:	28 2f       	mov	r18, r24
    1158:	27 70       	andi	r18, 0x07	; 7
    if (state) gameState[number>>3] |= 1<<(number&7);
    115a:	f0 e0       	ldi	r31, 0x00	; 0
    115c:	eb 5c       	subi	r30, 0xCB	; 203
    115e:	f5 4c       	sbci	r31, 0xC5	; 197
    1160:	81 e0       	ldi	r24, 0x01	; 1
    1162:	90 e0       	ldi	r25, 0x00	; 0
    1164:	01 c0       	rjmp	.+2      	; 0x1168 <WriteStatusBit+0x1c>
    1166:	88 0f       	add	r24, r24
    1168:	2a 95       	dec	r18
    116a:	ea f7       	brpl	.-6      	; 0x1166 <WriteStatusBit+0x1a>
    116c:	66 23       	and	r22, r22
    116e:	19 f0       	breq	.+6      	; 0x1176 <WriteStatusBit+0x2a>
    1170:	90 81       	ld	r25, Z
    1172:	89 2b       	or	r24, r25
    1174:	03 c0       	rjmp	.+6      	; 0x117c <WriteStatusBit+0x30>
    else gameState[number>>3] &= ~(1<<(number&7));
    1176:	80 95       	com	r24
    1178:	90 81       	ld	r25, Z
    117a:	89 23       	and	r24, r25
    117c:	80 83       	st	Z, r24
    117e:	08 95       	ret

00001180 <UpdateState>:
}

//Update game state: num -> vBBBBbbb v=value(0 is set!), BBBB=Byte number, bbb=bit number
void UpdateState(uint8_t num){
    1180:	98 2f       	mov	r25, r24
    uint8_t clearBit = num & 0x80;
    num &= 0x7f;
    1182:	8f 77       	andi	r24, 0x7F	; 127
    if (clearBit) {
    1184:	97 ff       	sbrs	r25, 7
    1186:	02 c0       	rjmp	.+4      	; 0x118c <UpdateState+0xc>
        WriteStatusBit(num, 0);
    1188:	60 e0       	ldi	r22, 0x00	; 0
    118a:	01 c0       	rjmp	.+2      	; 0x118e <UpdateState+0xe>
    } else {
        WriteStatusBit(num, 1);
    118c:	61 e0       	ldi	r22, 0x01	; 1
    118e:	de cf       	rjmp	.-68     	; 0x114c <WriteStatusBit>

00001190 <CheckState>:
    }
}

//Checks if state of bit BBBBbbb matches with v (inverted) bit
uint8_t CheckState(uint8_t num){
    1190:	cf 93       	push	r28
    1192:	c8 2f       	mov	r28, r24
    uint8_t bitSet = 0;
    if (ReadStatusBit(num & 0x7f)){
    1194:	8f 77       	andi	r24, 0x7F	; 127
    1196:	c6 df       	rcall	.-116    	; 0x1124 <ReadStatusBit>
    1198:	2c 2f       	mov	r18, r28
    119a:	22 1f       	adc	r18, r18
    119c:	22 27       	eor	r18, r18
    119e:	22 1f       	adc	r18, r18
    11a0:	91 e0       	ldi	r25, 0x01	; 1
    11a2:	81 11       	cpse	r24, r1
    11a4:	01 c0       	rjmp	.+2      	; 0x11a8 <CheckState+0x18>
    11a6:	90 e0       	ldi	r25, 0x00	; 0
    }
    if (((num & 0x80)>0)^(bitSet>0)){
        return 1;
    }
    return 0;
}
    11a8:	82 2f       	mov	r24, r18
    11aa:	89 27       	eor	r24, r25
    11ac:	cf 91       	pop	r28
    11ae:	08 95       	ret

000011b0 <getID>:
uint8_t getID(){
    //Give out a number 0..3, calculated using serial number fields
    uint8_t id = 0;
    uint8_t *serNum;
    serNum = (uint8_t*)&SIGROW_SERNUM0;
    11b0:	e3 e0       	ldi	r30, 0x03	; 3
    11b2:	f1 e1       	ldi	r31, 0x11	; 17
    }
    return 0;
}
uint8_t getID(){
    //Give out a number 0..3, calculated using serial number fields
    uint8_t id = 0;
    11b4:	80 e0       	ldi	r24, 0x00	; 0
    uint8_t *serNum;
    serNum = (uint8_t*)&SIGROW_SERNUM0;

    for (uint8_t x=0; x<10; ++x){
        id += *serNum;
    11b6:	91 91       	ld	r25, Z+
    11b8:	89 0f       	add	r24, r25
    //Give out a number 0..3, calculated using serial number fields
    uint8_t id = 0;
    uint8_t *serNum;
    serNum = (uint8_t*)&SIGROW_SERNUM0;

    for (uint8_t x=0; x<10; ++x){
    11ba:	ed 30       	cpi	r30, 0x0D	; 13
    11bc:	91 e1       	ldi	r25, 0x11	; 17
    11be:	f9 07       	cpc	r31, r25
    11c0:	d1 f7       	brne	.-12     	; 0x11b6 <getID+0x6>
        id += *serNum;
        ++serNum;
    }
    id %= 4;
    whoami = id+1;
    11c2:	83 70       	andi	r24, 0x03	; 3
    11c4:	8f 5f       	subi	r24, 0xFF	; 255
    11c6:	80 93 30 38 	sts	0x3830, r24	; 0x803830 <whoami>
    return whoami;
}
    11ca:	08 95       	ret

000011cc <Reset>:

void Reset(){
    11cc:	e5 e3       	ldi	r30, 0x35	; 53
    11ce:	fa e3       	ldi	r31, 0x3A	; 58
    //# 110   set to 1 by FW if badge UUID mod 4 == 0
    //# 111   set to 1 by FW if badge UUID mod 4 == 1
    //# 112   set to 1 by FW if badge UUID mod 4 == 2
    //# 113   set to 1 by FW if badge UUID mod 4 == 3
    for (uint8_t x=0; x<sizeof(gameState); ++x){
        gameState[x] = 0;
    11d0:	11 92       	st	Z+, r1
    //Reset game progress (all zeroes) and load some bits:
    //# 110   set to 1 by FW if badge UUID mod 4 == 0
    //# 111   set to 1 by FW if badge UUID mod 4 == 1
    //# 112   set to 1 by FW if badge UUID mod 4 == 2
    //# 113   set to 1 by FW if badge UUID mod 4 == 3
    for (uint8_t x=0; x<sizeof(gameState); ++x){
    11d2:	8a e3       	ldi	r24, 0x3A	; 58
    11d4:	e9 34       	cpi	r30, 0x49	; 73
    11d6:	f8 07       	cpc	r31, r24
    11d8:	d9 f7       	brne	.-10     	; 0x11d0 <Reset+0x4>
        gameState[x] = 0;
    }

    uint8_t id = getID();
    11da:	ea df       	rcall	.-44     	; 0x11b0 <getID>

    //Write bit in gameState location 110..113
    if (id == 0) WriteStatusBit(110, 1);
    11dc:	81 11       	cpse	r24, r1
    11de:	04 c0       	rjmp	.+8      	; 0x11e8 <Reset+0x1c>
    if (gameState[number>>3] & (1<<(number&7))) return 1; else return 0;
}

void WriteStatusBit(uint8_t number, uint8_t state){
    number &= 0x7f;
    if (state) gameState[number>>3] |= 1<<(number&7);
    11e0:	80 91 42 3a 	lds	r24, 0x3A42	; 0x803a42 <gameState+0xd>
    11e4:	80 64       	ori	r24, 0x40	; 64
    11e6:	05 c0       	rjmp	.+10     	; 0x11f2 <Reset+0x26>

    uint8_t id = getID();

    //Write bit in gameState location 110..113
    if (id == 0) WriteStatusBit(110, 1);
    else if (id == 1) WriteStatusBit(111, 1);
    11e8:	81 30       	cpi	r24, 0x01	; 1
    11ea:	31 f4       	brne	.+12     	; 0x11f8 <Reset+0x2c>
    if (gameState[number>>3] & (1<<(number&7))) return 1; else return 0;
}

void WriteStatusBit(uint8_t number, uint8_t state){
    number &= 0x7f;
    if (state) gameState[number>>3] |= 1<<(number&7);
    11ec:	80 91 42 3a 	lds	r24, 0x3A42	; 0x803a42 <gameState+0xd>
    11f0:	80 68       	ori	r24, 0x80	; 128
    11f2:	80 93 42 3a 	sts	0x3A42, r24	; 0x803a42 <gameState+0xd>
    11f6:	0d c0       	rjmp	.+26     	; 0x1212 <Reset+0x46>
    uint8_t id = getID();

    //Write bit in gameState location 110..113
    if (id == 0) WriteStatusBit(110, 1);
    else if (id == 1) WriteStatusBit(111, 1);
    else if (id == 2) WriteStatusBit(112, 1);
    11f8:	82 30       	cpi	r24, 0x02	; 2
    11fa:	21 f4       	brne	.+8      	; 0x1204 <Reset+0x38>
    if (gameState[number>>3] & (1<<(number&7))) return 1; else return 0;
}

void WriteStatusBit(uint8_t number, uint8_t state){
    number &= 0x7f;
    if (state) gameState[number>>3] |= 1<<(number&7);
    11fc:	80 91 43 3a 	lds	r24, 0x3A43	; 0x803a43 <gameState+0xe>
    1200:	81 60       	ori	r24, 0x01	; 1
    1202:	05 c0       	rjmp	.+10     	; 0x120e <Reset+0x42>

    //Write bit in gameState location 110..113
    if (id == 0) WriteStatusBit(110, 1);
    else if (id == 1) WriteStatusBit(111, 1);
    else if (id == 2) WriteStatusBit(112, 1);
    else if (id == 3) WriteStatusBit(113, 1);
    1204:	83 30       	cpi	r24, 0x03	; 3
    1206:	29 f4       	brne	.+10     	; 0x1212 <Reset+0x46>
    if (gameState[number>>3] & (1<<(number&7))) return 1; else return 0;
}

void WriteStatusBit(uint8_t number, uint8_t state){
    number &= 0x7f;
    if (state) gameState[number>>3] |= 1<<(number&7);
    1208:	80 91 43 3a 	lds	r24, 0x3A43	; 0x803a43 <gameState+0xe>
    120c:	82 60       	ori	r24, 0x02	; 2
    120e:	80 93 43 3a 	sts	0x3A43, r24	; 0x803a43 <gameState+0xe>
    1212:	80 91 35 3a 	lds	r24, 0x3A35	; 0x803a35 <gameState>
    1216:	81 60       	ori	r24, 0x01	; 1
    1218:	80 93 35 3a 	sts	0x3A35, r24	; 0x803a35 <gameState>
    121c:	08 95       	ret

0000121e <HotSummer>:

//Sets specific game bits after the badge is heated for one and two times.
uint8_t HotSummer(){
    static uint8_t cooledDown = 0;

    if (CheckState(SUMMERS_COMPLETED)) return 0;
    121e:	86 e7       	ldi	r24, 0x76	; 118
    1220:	b7 df       	rcall	.-146    	; 0x1190 <CheckState>
    1222:	81 11       	cpse	r24, r1
    1224:	28 c0       	rjmp	.+80     	; 0x1276 <HotSummer+0x58>
    if (CheckState(FIRST_SUMMER)) {
    1226:	85 e7       	ldi	r24, 0x75	; 117
    1228:	b3 df       	rcall	.-154    	; 0x1190 <CheckState>
    122a:	81 11       	cpse	r24, r1
    122c:	24 c0       	rjmp	.+72     	; 0x1276 <HotSummer+0x58>
            
    } else {
        if (calTemp == 0) calTemp = adcTemp;
    122e:	80 91 94 3a 	lds	r24, 0x3A94	; 0x803a94 <calTemp>
    1232:	90 91 95 3a 	lds	r25, 0x3A95	; 0x803a95 <calTemp+0x1>
    1236:	89 2b       	or	r24, r25
    1238:	41 f4       	brne	.+16     	; 0x124a <HotSummer+0x2c>
    123a:	80 91 e1 3a 	lds	r24, 0x3AE1	; 0x803ae1 <adcTemp>
    123e:	90 91 e2 3a 	lds	r25, 0x3AE2	; 0x803ae2 <adcTemp+0x1>
    1242:	80 93 94 3a 	sts	0x3A94, r24	; 0x803a94 <calTemp>
    1246:	90 93 95 3a 	sts	0x3A95, r25	; 0x803a95 <calTemp+0x1>
        if (adcTemp >= (calTemp + 8)) {
    124a:	80 91 94 3a 	lds	r24, 0x3A94	; 0x803a94 <calTemp>
    124e:	90 91 95 3a 	lds	r25, 0x3A95	; 0x803a95 <calTemp+0x1>
    1252:	20 91 e1 3a 	lds	r18, 0x3AE1	; 0x803ae1 <adcTemp>
    1256:	30 91 e2 3a 	lds	r19, 0x3AE2	; 0x803ae2 <adcTemp+0x1>
    125a:	08 96       	adiw	r24, 0x08	; 8
    125c:	28 17       	cp	r18, r24
    125e:	39 07       	cpc	r19, r25
            UpdateState(FIRST_SUMMER);
    1260:	50 f0       	brcs	.+20     	; 0x1276 <HotSummer+0x58>
    1262:	85 e7       	ldi	r24, 0x75	; 117
    1264:	8d df       	rcall	.-230    	; 0x1180 <UpdateState>
            iLED[SCARAB[G]] = dimValue;
    1266:	e0 91 f3 b2 	lds	r30, 0xB2F3	; 0x80b2f3 <__bss_end+0x77ed>
    126a:	f0 e0       	ldi	r31, 0x00	; 0
    126c:	80 91 09 38 	lds	r24, 0x3809	; 0x803809 <dimValue>
    1270:	ea 54       	subi	r30, 0x4A	; 74
    1272:	f5 4c       	sbci	r31, 0xC5	; 197
    1274:	80 83       	st	Z, r24
        }
    }
    return 0;
}
    1276:	80 e0       	ldi	r24, 0x00	; 0
    1278:	08 95       	ret

0000127a <GenerateAudio>:

void GenerateAudio(){
    127a:	0f 93       	push	r16
    127c:	1f 93       	push	r17
    127e:	cf 93       	push	r28
    1280:	df 93       	push	r29

    //auRepAddr = &auBuffer[0];

    //Audio for text adventure
    if ((effect&0xff00)==0) {
    1282:	80 91 2d 38 	lds	r24, 0x382D	; 0x80382d <effect>
    1286:	90 91 2e 38 	lds	r25, 0x382E	; 0x80382e <effect+0x1>
    128a:	88 27       	eor	r24, r24
    128c:	89 2b       	or	r24, r25
    128e:	09 f0       	breq	.+2      	; 0x1292 <GenerateAudio+0x18>
    1290:	8d c0       	rjmp	.+282    	; 0x13ac <GenerateAudio+0x132>

        //Silence
        if ((effect&0xE0)==0){
    1292:	80 91 2d 38 	lds	r24, 0x382D	; 0x80382d <effect>
    1296:	90 91 2e 38 	lds	r25, 0x382E	; 0x80382e <effect+0x1>
    129a:	80 7e       	andi	r24, 0xE0	; 224
    129c:	99 27       	eor	r25, r25
    129e:	89 2b       	or	r24, r25
    12a0:	31 f4       	brne	.+12     	; 0x12ae <GenerateAudio+0x34>
            auRepAddr = &zero;
    12a2:	8b e2       	ldi	r24, 0x2B	; 43
    12a4:	98 e3       	ldi	r25, 0x38	; 56
    12a6:	80 93 03 38 	sts	0x3803, r24	; 0x803803 <auRepAddr>
    12aa:	90 93 04 38 	sts	0x3804, r25	; 0x803804 <auRepAddr+0x1>
        }

        //Bad (buzzer)
        if ((effect&0xE0)==32){
    12ae:	80 91 2d 38 	lds	r24, 0x382D	; 0x80382d <effect>
    12b2:	90 91 2e 38 	lds	r25, 0x382E	; 0x80382e <effect+0x1>
    12b6:	80 7e       	andi	r24, 0xE0	; 224
    12b8:	99 27       	eor	r25, r25
    12ba:	80 97       	sbiw	r24, 0x20	; 32
    12bc:	21 f5       	brne	.+72     	; 0x1306 <GenerateAudio+0x8c>
            static uint8_t auBuffer[17] = {1, 255, 128, 128, 192, 255, 192, 255, 192, 128, 64, 1, 64, 1, 64, 128, 0}; 
            static uint8_t loudness = 255;
            auRepAddr = &auBuffer[0];
    12be:	8c e0       	ldi	r24, 0x0C	; 12
    12c0:	98 e3       	ldi	r25, 0x38	; 56
    12c2:	80 93 03 38 	sts	0x3803, r24	; 0x803803 <auRepAddr>
    12c6:	90 93 04 38 	sts	0x3804, r25	; 0x803804 <auRepAddr+0x1>
            if (buttonMark) {
    12ca:	80 91 35 38 	lds	r24, 0x3835	; 0x803835 <buttonMark>
    12ce:	88 23       	and	r24, r24
    12d0:	d1 f0       	breq	.+52     	; 0x1306 <GenerateAudio+0x8c>
                if (loudness) {
    12d2:	80 91 0b 38 	lds	r24, 0x380B	; 0x80380b <loudness.3933>
    12d6:	88 23       	and	r24, r24
    12d8:	31 f0       	breq	.+12     	; 0x12e6 <GenerateAudio+0x6c>
                    auVolume = loudness;
    12da:	80 93 8a 3a 	sts	0x3A8A, r24	; 0x803a8a <auVolume>
                    --loudness;
    12de:	81 50       	subi	r24, 0x01	; 1
    12e0:	80 93 0b 38 	sts	0x380B, r24	; 0x80380b <loudness.3933>
    12e4:	10 c0       	rjmp	.+32     	; 0x1306 <GenerateAudio+0x8c>
                } else {
                    auRepAddr = &zero;
    12e6:	8b e2       	ldi	r24, 0x2B	; 43
    12e8:	98 e3       	ldi	r25, 0x38	; 56
    12ea:	80 93 03 38 	sts	0x3803, r24	; 0x803803 <auRepAddr>
    12ee:	90 93 04 38 	sts	0x3804, r25	; 0x803804 <auRepAddr+0x1>
                    effect &= 0x10;
    12f2:	80 91 2d 38 	lds	r24, 0x382D	; 0x80382d <effect>
    12f6:	90 91 2e 38 	lds	r25, 0x382E	; 0x80382e <effect+0x1>
    12fa:	80 71       	andi	r24, 0x10	; 16
    12fc:	99 27       	eor	r25, r25
    12fe:	80 93 2d 38 	sts	0x382D, r24	; 0x80382d <effect>
    1302:	90 93 2e 38 	sts	0x382E, r25	; 0x80382e <effect+0x1>
                }
            }
        }

        //Good (bell)
        if ((effect&0xE0)==64){
    1306:	80 91 2d 38 	lds	r24, 0x382D	; 0x80382d <effect>
    130a:	90 91 2e 38 	lds	r25, 0x382E	; 0x80382e <effect+0x1>
            //auBuffer = 
        }

        //Rain storm with whistling wind
        if ((effect&0xE0)==96){
    130e:	80 91 2d 38 	lds	r24, 0x382D	; 0x80382d <effect>
    1312:	90 91 2e 38 	lds	r25, 0x382E	; 0x80382e <effect+0x1>
    1316:	80 7e       	andi	r24, 0xE0	; 224
    1318:	99 27       	eor	r25, r25
    131a:	80 36       	cpi	r24, 0x60	; 96
    131c:	91 05       	cpc	r25, r1
    131e:	d1 f5       	brne	.+116    	; 0x1394 <GenerateAudio+0x11a>
            static uint8_t auBuffer[7];
            auBuffer[6]= 0;        
    1320:	10 92 43 38 	sts	0x3843, r1	; 0x803843 <auBuffer.3934+0x6>
            auRepAddr = &auBuffer[0];
    1324:	8d e3       	ldi	r24, 0x3D	; 61
    1326:	98 e3       	ldi	r25, 0x38	; 56
    1328:	80 93 03 38 	sts	0x3803, r24	; 0x803803 <auRepAddr>
    132c:	90 93 04 38 	sts	0x3804, r25	; 0x803804 <auRepAddr+0x1>
    1330:	8c 01       	movw	r16, r24

            //Noise is to be generated fast, outside of buttonMark loop
            for (uint8_t x=1; x<6; ++x){
    1332:	c1 e0       	ldi	r28, 0x01	; 1
                if (x%3) auBuffer[x] = floatAround(0x80, 5, 0x01, 0x00);
    1334:	d3 e0       	ldi	r29, 0x03	; 3
    1336:	8c 2f       	mov	r24, r28
    1338:	6d 2f       	mov	r22, r29
    133a:	0e 94 20 19 	call	0x3240	; 0x3240 <__udivmodqi4>
    133e:	99 23       	and	r25, r25
    1340:	39 f0       	breq	.+14     	; 0x1350 <GenerateAudio+0xd6>
    1342:	20 e0       	ldi	r18, 0x00	; 0
    1344:	41 e0       	ldi	r20, 0x01	; 1
    1346:	65 e0       	ldi	r22, 0x05	; 5
    1348:	80 e8       	ldi	r24, 0x80	; 128
    134a:	54 de       	rcall	.-856    	; 0xff4 <floatAround>
    134c:	f8 01       	movw	r30, r16
    134e:	81 83       	std	Z+1, r24	; 0x01
            static uint8_t auBuffer[7];
            auBuffer[6]= 0;        
            auRepAddr = &auBuffer[0];

            //Noise is to be generated fast, outside of buttonMark loop
            for (uint8_t x=1; x<6; ++x){
    1350:	cf 5f       	subi	r28, 0xFF	; 255
    1352:	0f 5f       	subi	r16, 0xFF	; 255
    1354:	1f 4f       	sbci	r17, 0xFF	; 255
    1356:	c6 30       	cpi	r28, 0x06	; 6
    1358:	71 f7       	brne	.-36     	; 0x1336 <GenerateAudio+0xbc>
                if (x%3) auBuffer[x] = floatAround(0x80, 5, 0x01, 0x00);
            }

            if (buttonMark){
    135a:	80 91 35 38 	lds	r24, 0x3835	; 0x803835 <buttonMark>
    135e:	88 23       	and	r24, r24
    1360:	c9 f0       	breq	.+50     	; 0x1394 <GenerateAudio+0x11a>
                //"Floating" speed for howl (and noise, but that's hardly audible)
                floatSpeed(5, 0x0280, 0x0400);
    1362:	40 e0       	ldi	r20, 0x00	; 0
    1364:	54 e0       	ldi	r21, 0x04	; 4
    1366:	60 e8       	ldi	r22, 0x80	; 128
    1368:	72 e0       	ldi	r23, 0x02	; 2
    136a:	85 e0       	ldi	r24, 0x05	; 5
    136c:	11 de       	rcall	.-990    	; 0xf90 <floatSpeed>
            
                //"Floating" volume and wind howl during 8 bit rainstorm needs some randomness
                auVolume = floatAround(auVolume, 2, 0x10, 0xA0);
    136e:	80 91 8a 3a 	lds	r24, 0x3A8A	; 0x803a8a <auVolume>
    1372:	20 ea       	ldi	r18, 0xA0	; 160
    1374:	40 e1       	ldi	r20, 0x10	; 16
    1376:	62 e0       	ldi	r22, 0x02	; 2
    1378:	3d de       	rcall	.-902    	; 0xff4 <floatAround>
    137a:	80 93 8a 3a 	sts	0x3A8A, r24	; 0x803a8a <auVolume>
                auBuffer[0] = floatAround(auBuffer[0], 2, 0x70, 0x90);
    137e:	20 e9       	ldi	r18, 0x90	; 144
    1380:	40 e7       	ldi	r20, 0x70	; 112
    1382:	62 e0       	ldi	r22, 0x02	; 2
    1384:	80 91 3d 38 	lds	r24, 0x383D	; 0x80383d <auBuffer.3934>
    1388:	35 de       	rcall	.-918    	; 0xff4 <floatAround>
    138a:	80 93 3d 38 	sts	0x383D, r24	; 0x80383d <auBuffer.3934>
                auBuffer[3] = 0xFF-auBuffer[0];  //Inverse value of wind[0] produces a whistle
    138e:	80 95       	com	r24
    1390:	80 93 40 38 	sts	0x3840, r24	; 0x803840 <auBuffer.3934+0x3>
            }
        }

        //Footsteps
        if ((effect&0xE0)==128){
    1394:	80 91 2d 38 	lds	r24, 0x382D	; 0x80382d <effect>
    1398:	90 91 2e 38 	lds	r25, 0x382E	; 0x80382e <effect+0x1>

        }

        //Knocking
        if ((effect&0xE0)==160){
    139c:	80 91 2d 38 	lds	r24, 0x382D	; 0x80382d <effect>
    13a0:	90 91 2e 38 	lds	r25, 0x382E	; 0x80382e <effect+0x1>

        }

        //Scream
        if ((effect&0xE0)==192){
    13a4:	80 91 2d 38 	lds	r24, 0x382D	; 0x80382d <effect>
    13a8:	90 91 2e 38 	lds	r25, 0x382E	; 0x80382e <effect+0x1>

        //Rain storm with whistling wind
        else {
        }
    }
    13ac:	df 91       	pop	r29
    13ae:	cf 91       	pop	r28
    13b0:	1f 91       	pop	r17
    13b2:	0f 91       	pop	r16
    13b4:	08 95       	ret

000013b6 <BastetDictates>:

// Main game loop
uint8_t BastetDictates(){
  
    return 0;
}
    13b6:	80 e0       	ldi	r24, 0x00	; 0
    13b8:	08 95       	ret

000013ba <Cheat>:

//
void SetResponse(uint8_t number, uint16_t address, uint16_t length, uint8_t type){
    reactStr[0][number]=address;
    reactStr[1][number]=length;
    reactStr[2][number]=type;
    13ba:	1f 93       	push	r17
    13bc:	cf 93       	push	r28
    13be:	df 93       	push	r29
    13c0:	cd b7       	in	r28, 0x3d	; 61
    13c2:	de b7       	in	r29, 0x3e	; 62
    13c4:	62 97       	sbiw	r28, 0x12	; 18
    13c6:	cd bf       	out	0x3d, r28	; 61
    13c8:	de bf       	out	0x3e, r29	; 62
    13ca:	8a 8b       	std	Y+18, r24	; 0x12
    13cc:	80 e1       	ldi	r24, 0x10	; 16
    13ce:	e8 ec       	ldi	r30, 0xC8	; 200
    13d0:	f2 eb       	ldi	r31, 0xB2	; 178
    13d2:	de 01       	movw	r26, r28
    13d4:	11 96       	adiw	r26, 0x01	; 1
    13d6:	01 90       	ld	r0, Z+
    13d8:	0d 92       	st	X+, r0
    13da:	8a 95       	dec	r24
    13dc:	e1 f7       	brne	.-8      	; 0x13d6 <Cheat+0x1c>
    13de:	fe 01       	movw	r30, r28
    13e0:	31 96       	adiw	r30, 0x01	; 1
    13e2:	90 e0       	ldi	r25, 0x00	; 0
    13e4:	8f ef       	ldi	r24, 0xFF	; 255
    13e6:	21 91       	ld	r18, Z+
    13e8:	31 91       	ld	r19, Z+
    13ea:	26 17       	cp	r18, r22
    13ec:	37 07       	cpc	r19, r23
    13ee:	09 f4       	brne	.+2      	; 0x13f2 <Cheat+0x38>
    13f0:	89 2f       	mov	r24, r25
    13f2:	9f 5f       	subi	r25, 0xFF	; 255
    13f4:	98 30       	cpi	r25, 0x08	; 8
    13f6:	b9 f7       	brne	.-18     	; 0x13e6 <Cheat+0x2c>
    13f8:	88 30       	cpi	r24, 0x08	; 8
    13fa:	10 f0       	brcs	.+4      	; 0x1400 <Cheat+0x46>
    13fc:	80 e0       	ldi	r24, 0x00	; 0
    13fe:	12 c0       	rjmp	.+36     	; 0x1424 <Cheat+0x6a>
    1400:	18 e1       	ldi	r17, 0x18	; 24
    1402:	18 0f       	add	r17, r24
    1404:	41 e0       	ldi	r20, 0x01	; 1
    1406:	be 01       	movw	r22, r28
    1408:	6f 5e       	subi	r22, 0xEF	; 239
    140a:	7f 4f       	sbci	r23, 0xFF	; 255
    140c:	81 2f       	mov	r24, r17
    140e:	eb dc       	rcall	.-1578   	; 0xde6 <EERead>
    1410:	89 89       	ldd	r24, Y+17	; 0x11
    1412:	8f 3f       	cpi	r24, 0xFF	; 255
    1414:	99 f7       	brne	.-26     	; 0x13fc <Cheat+0x42>
    1416:	41 e0       	ldi	r20, 0x01	; 1
    1418:	be 01       	movw	r22, r28
    141a:	6e 5e       	subi	r22, 0xEE	; 238
    141c:	7f 4f       	sbci	r23, 0xFF	; 255
    141e:	81 2f       	mov	r24, r17
    1420:	f2 dc       	rcall	.-1564   	; 0xe06 <EEWrite>
    1422:	81 e0       	ldi	r24, 0x01	; 1
    1424:	62 96       	adiw	r28, 0x12	; 18
    1426:	cd bf       	out	0x3d, r28	; 61
    1428:	de bf       	out	0x3e, r29	; 62
    142a:	df 91       	pop	r29
    142c:	cf 91       	pop	r28
    142e:	1f 91       	pop	r17
    1430:	08 95       	ret

00001432 <DecryptData>:
    1432:	f9 01       	movw	r30, r18
    1434:	9c 01       	movw	r18, r24
    1436:	2e 1b       	sub	r18, r30
    1438:	3f 0b       	sbc	r19, r31
    143a:	88 e0       	ldi	r24, 0x08	; 8
    143c:	48 9f       	mul	r20, r24
    143e:	a0 01       	movw	r20, r0
    1440:	11 24       	eor	r1, r1
    1442:	4e 56       	subi	r20, 0x6E	; 110
    1444:	5c 44       	sbci	r21, 0x4C	; 76
    1446:	66 23       	and	r22, r22
    1448:	69 f0       	breq	.+26     	; 0x1464 <DecryptData+0x32>
    144a:	df 01       	movw	r26, r30
    144c:	a2 0f       	add	r26, r18
    144e:	b3 1f       	adc	r27, r19
    1450:	a7 70       	andi	r26, 0x07	; 7
    1452:	bb 27       	eor	r27, r27
    1454:	a4 0f       	add	r26, r20
    1456:	b5 1f       	adc	r27, r21
    1458:	80 81       	ld	r24, Z
    145a:	9c 91       	ld	r25, X
    145c:	98 27       	eor	r25, r24
    145e:	91 93       	st	Z+, r25
    1460:	61 50       	subi	r22, 0x01	; 1
    1462:	f1 cf       	rjmp	.-30     	; 0x1446 <DecryptData+0x14>
    1464:	08 95       	ret

00001466 <UnflipData>:
    1466:	26 2f       	mov	r18, r22
    1468:	fb 01       	movw	r30, r22
    146a:	35 e5       	ldi	r19, 0x55	; 85
    146c:	9e 2f       	mov	r25, r30
    146e:	92 1b       	sub	r25, r18
    1470:	98 17       	cp	r25, r24
    1472:	28 f4       	brcc	.+10     	; 0x147e <UnflipData+0x18>
    1474:	90 81       	ld	r25, Z
    1476:	92 95       	swap	r25
    1478:	93 27       	eor	r25, r19
    147a:	91 93       	st	Z+, r25
    147c:	f7 cf       	rjmp	.-18     	; 0x146c <UnflipData+0x6>
    147e:	08 95       	ret

00001480 <ExtEERead>:
    1480:	af 92       	push	r10
    1482:	bf 92       	push	r11
    1484:	cf 92       	push	r12
    1486:	df 92       	push	r13
    1488:	ef 92       	push	r14
    148a:	ff 92       	push	r15
    148c:	0f 93       	push	r16
    148e:	1f 93       	push	r17
    1490:	cf 93       	push	r28
    1492:	df 93       	push	r29
    1494:	00 d0       	rcall	.+0      	; 0x1496 <ExtEERead+0x16>
    1496:	cd b7       	in	r28, 0x3d	; 61
    1498:	de b7       	in	r29, 0x3e	; 62
    149a:	d6 2e       	mov	r13, r22
    149c:	c4 2e       	mov	r12, r20
    149e:	59 01       	movw	r10, r18
    14a0:	7c 01       	movw	r14, r24
    14a2:	e8 94       	clt
    14a4:	f7 f8       	bld	r15, 7
    14a6:	f9 82       	std	Y+1, r15	; 0x01
    14a8:	ea 82       	std	Y+2, r14	; 0x02
    14aa:	06 2f       	mov	r16, r22
    14ac:	42 e0       	ldi	r20, 0x02	; 2
    14ae:	be 01       	movw	r22, r28
    14b0:	6f 5f       	subi	r22, 0xFF	; 255
    14b2:	7f 4f       	sbci	r23, 0xFF	; 255
    14b4:	80 e5       	ldi	r24, 0x50	; 80
    14b6:	0e 94 5a 01 	call	0x2b4	; 0x2b4 <I2C_read_bytes>
    14ba:	18 2f       	mov	r17, r24
    14bc:	81 11       	cpse	r24, r1
    14be:	05 c0       	rjmp	.+10     	; 0x14ca <ExtEERead+0x4a>
    14c0:	95 01       	movw	r18, r10
    14c2:	4c 2d       	mov	r20, r12
    14c4:	6d 2d       	mov	r22, r13
    14c6:	c7 01       	movw	r24, r14
    14c8:	b4 df       	rcall	.-152    	; 0x1432 <DecryptData>
    14ca:	81 2f       	mov	r24, r17
    14cc:	0f 90       	pop	r0
    14ce:	0f 90       	pop	r0
    14d0:	df 91       	pop	r29
    14d2:	cf 91       	pop	r28
    14d4:	1f 91       	pop	r17
    14d6:	0f 91       	pop	r16
    14d8:	ff 90       	pop	r15
    14da:	ef 90       	pop	r14
    14dc:	df 90       	pop	r13
    14de:	cf 90       	pop	r12
    14e0:	bf 90       	pop	r11
    14e2:	af 90       	pop	r10
    14e4:	08 95       	ret

000014e6 <ClearTxAfter>:
    14e6:	8f 5f       	subi	r24, 0xFF	; 255
    14e8:	88 30       	cpi	r24, 0x08	; 8
    14ea:	30 f4       	brcc	.+12     	; 0x14f8 <ClearTxAfter+0x12>
    14ec:	e8 2f       	mov	r30, r24
    14ee:	f0 e0       	ldi	r31, 0x00	; 0
    14f0:	e4 5e       	subi	r30, 0xE4	; 228
    14f2:	f5 4c       	sbci	r31, 0xC5	; 197
    14f4:	10 82       	st	Z, r1
    14f6:	f7 cf       	rjmp	.-18     	; 0x14e6 <ClearTxAfter>
    14f8:	08 95       	ret

000014fa <StartsWith>:
    14fa:	ac 01       	movw	r20, r24
    14fc:	90 e0       	ldi	r25, 0x00	; 0
    14fe:	e9 2f       	mov	r30, r25
    1500:	f0 e0       	ldi	r31, 0x00	; 0
    1502:	da 01       	movw	r26, r20
    1504:	ae 0f       	add	r26, r30
    1506:	bf 1f       	adc	r27, r31
    1508:	3c 91       	ld	r19, X
    150a:	e6 0f       	add	r30, r22
    150c:	f7 1f       	adc	r31, r23
    150e:	31 11       	cpse	r19, r1
    1510:	05 c0       	rjmp	.+10     	; 0x151c <StartsWith+0x22>
    1512:	81 e0       	ldi	r24, 0x01	; 1
    1514:	90 81       	ld	r25, Z
    1516:	99 23       	and	r25, r25
    1518:	49 f0       	breq	.+18     	; 0x152c <StartsWith+0x32>
    151a:	07 c0       	rjmp	.+14     	; 0x152a <StartsWith+0x30>
    151c:	20 81       	ld	r18, Z
    151e:	22 23       	and	r18, r18
    1520:	c1 f3       	breq	.-16     	; 0x1512 <StartsWith+0x18>
    1522:	32 13       	cpse	r19, r18
    1524:	02 c0       	rjmp	.+4      	; 0x152a <StartsWith+0x30>
    1526:	9f 5f       	subi	r25, 0xFF	; 255
    1528:	ea cf       	rjmp	.-44     	; 0x14fe <StartsWith+0x4>
    152a:	80 e0       	ldi	r24, 0x00	; 0
    152c:	08 95       	ret

0000152e <PrepareSending>:
    152e:	61 15       	cp	r22, r1
    1530:	71 05       	cpc	r23, r1
    1532:	51 f1       	breq	.+84     	; 0x1588 <PrepareSending+0x5a>
    1534:	e4 e2       	ldi	r30, 0x24	; 36
    1536:	fa e3       	ldi	r31, 0x3A	; 58
    1538:	ac e1       	ldi	r26, 0x1C	; 28
    153a:	ba e3       	ldi	r27, 0x3A	; 58
    153c:	20 e0       	ldi	r18, 0x00	; 0
    153e:	3f ef       	ldi	r19, 0xFF	; 255
    1540:	6f 3f       	cpi	r22, 0xFF	; 255
    1542:	71 05       	cpc	r23, r1
    1544:	69 f0       	breq	.+26     	; 0x1560 <PrepareSending+0x32>
    1546:	60 f0       	brcs	.+24     	; 0x1560 <PrepareSending+0x32>
    1548:	81 93       	st	Z+, r24
    154a:	91 93       	st	Z+, r25
    154c:	3d 93       	st	X+, r19
    154e:	81 50       	subi	r24, 0x01	; 1
    1550:	9f 4f       	sbci	r25, 0xFF	; 255
    1552:	6f 5f       	subi	r22, 0xFF	; 255
    1554:	71 09       	sbc	r23, r1
    1556:	2f 5f       	subi	r18, 0xFF	; 255
    1558:	27 30       	cpi	r18, 0x07	; 7
    155a:	91 f7       	brne	.-28     	; 0x1540 <PrepareSending+0x12>
    155c:	81 e0       	ldi	r24, 0x01	; 1
    155e:	08 95       	ret
    1560:	e2 2f       	mov	r30, r18
    1562:	f0 e0       	ldi	r31, 0x00	; 0
    1564:	df 01       	movw	r26, r30
    1566:	aa 0f       	add	r26, r26
    1568:	bb 1f       	adc	r27, r27
    156a:	ac 5d       	subi	r26, 0xDC	; 220
    156c:	b5 4c       	sbci	r27, 0xC5	; 197
    156e:	8d 93       	st	X+, r24
    1570:	9c 93       	st	X, r25
    1572:	e4 5e       	subi	r30, 0xE4	; 228
    1574:	f5 4c       	sbci	r31, 0xC5	; 197
    1576:	cb 01       	movw	r24, r22
    1578:	6f ef       	ldi	r22, 0xFF	; 255
    157a:	70 e0       	ldi	r23, 0x00	; 0
    157c:	0e 94 2c 19 	call	0x3258	; 0x3258 <__udivmodhi4>
    1580:	80 83       	st	Z, r24
    1582:	40 93 1a 3a 	sts	0x3A1A, r20	; 0x803a1a <txTypeNow>
    1586:	05 c0       	rjmp	.+10     	; 0x1592 <PrepareSending+0x64>
    1588:	10 92 24 3a 	sts	0x3A24, r1	; 0x803a24 <txAddrList>
    158c:	10 92 25 3a 	sts	0x3A25, r1	; 0x803a25 <txAddrList+0x1>
    1590:	20 e0       	ldi	r18, 0x00	; 0
    1592:	82 2f       	mov	r24, r18
    1594:	a8 df       	rcall	.-176    	; 0x14e6 <ClearTxAfter>
    1596:	10 92 1b 3a 	sts	0x3A1B, r1	; 0x803a1b <txAddrNow>
    159a:	80 e0       	ldi	r24, 0x00	; 0
    159c:	08 95       	ret

0000159e <SetStandardResponse>:
}

//
uint8_t SetStandardResponse(uint8_t custStrEnd){
    159e:	cf 93       	push	r28
    15a0:	df 93       	push	r29
    return 0;
}

//
void SetResponse(uint8_t number, uint16_t address, uint16_t length, uint8_t type){
    reactStr[0][number]=address;
    15a2:	28 2f       	mov	r18, r24
    15a4:	30 e0       	ldi	r19, 0x00	; 0
    15a6:	f9 01       	movw	r30, r18
    15a8:	ee 0f       	add	r30, r30
    15aa:	ff 1f       	adc	r31, r31
    15ac:	e1 51       	subi	r30, 0x11	; 17
    15ae:	f7 4c       	sbci	r31, 0xC7	; 199
    15b0:	ab e5       	ldi	r26, 0x5B	; 91
    15b2:	ba e7       	ldi	r27, 0x7A	; 122
    15b4:	a0 83       	st	Z, r26
    15b6:	b1 83       	std	Z+1, r27	; 0x01
    reactStr[1][number]=length;
    15b8:	f9 01       	movw	r30, r18
    15ba:	ee 0f       	add	r30, r30
    15bc:	ff 1f       	adc	r31, r31
    15be:	e1 5d       	subi	r30, 0xD1	; 209
    15c0:	f6 4c       	sbci	r31, 0xC6	; 198
    15c2:	62 e0       	ldi	r22, 0x02	; 2
    15c4:	70 e0       	ldi	r23, 0x00	; 0
    15c6:	60 83       	st	Z, r22
    15c8:	71 83       	std	Z+1, r23	; 0x01
    reactStr[2][number]=type;
    15ca:	22 0f       	add	r18, r18
    15cc:	33 1f       	adc	r19, r19
    15ce:	f9 01       	movw	r30, r18
    15d0:	e1 59       	subi	r30, 0x91	; 145
    15d2:	f6 4c       	sbci	r31, 0xC6	; 198
    15d4:	41 e0       	ldi	r20, 0x01	; 1
    15d6:	50 e0       	ldi	r21, 0x00	; 0
    15d8:	40 83       	st	Z, r20
    15da:	51 83       	std	Z+1, r21	; 0x01
    return 0;
}

//
void SetResponse(uint8_t number, uint16_t address, uint16_t length, uint8_t type){
    reactStr[0][number]=address;
    15dc:	21 e0       	ldi	r18, 0x01	; 1
    15de:	28 0f       	add	r18, r24
    15e0:	30 e0       	ldi	r19, 0x00	; 0
    15e2:	f9 01       	movw	r30, r18
    15e4:	ee 0f       	add	r30, r30
    15e6:	ff 1f       	adc	r31, r31
    15e8:	e1 51       	subi	r30, 0x11	; 17
    15ea:	f7 4c       	sbci	r31, 0xC7	; 199
    15ec:	c4 e6       	ldi	r28, 0x64	; 100
    15ee:	da e7       	ldi	r29, 0x7A	; 122
    15f0:	c0 83       	st	Z, r28
    15f2:	d1 83       	std	Z+1, r29	; 0x01
    reactStr[1][number]=length;
    15f4:	f9 01       	movw	r30, r18
    15f6:	ee 0f       	add	r30, r30
    15f8:	ff 1f       	adc	r31, r31
    15fa:	e1 5d       	subi	r30, 0xD1	; 209
    15fc:	f6 4c       	sbci	r31, 0xC6	; 198
    15fe:	ca e0       	ldi	r28, 0x0A	; 10
    1600:	d0 e0       	ldi	r29, 0x00	; 0
    1602:	c0 83       	st	Z, r28
    1604:	d1 83       	std	Z+1, r29	; 0x01
    reactStr[2][number]=type;
    1606:	22 0f       	add	r18, r18
    1608:	33 1f       	adc	r19, r19
    160a:	f9 01       	movw	r30, r18
    160c:	e1 59       	subi	r30, 0x91	; 145
    160e:	f6 4c       	sbci	r31, 0xC6	; 198
    1610:	40 83       	st	Z, r20
    1612:	51 83       	std	Z+1, r21	; 0x01
uint8_t SetStandardResponse(uint8_t custStrEnd){

    SetResponse(custStrEnd++, A_LF, 2, TEASER);
    SetResponse(custStrEnd++, A_LOCATION, L_LOCATION, TEASER);
    //SetResponse(custStrEnd++, A_SPACE, L_SPACE, TEASER);
    reactStr[0][custStrEnd++] = CURR_LOC;
    1614:	e2 e0       	ldi	r30, 0x02	; 2
    1616:	e8 0f       	add	r30, r24
    1618:	f0 e0       	ldi	r31, 0x00	; 0
    161a:	ee 0f       	add	r30, r30
    161c:	ff 1f       	adc	r31, r31
    161e:	e1 51       	subi	r30, 0x11	; 17
    1620:	f7 4c       	sbci	r31, 0xC7	; 199
    1622:	20 ef       	ldi	r18, 0xF0	; 240
    1624:	3f ef       	ldi	r19, 0xFF	; 255
    1626:	20 83       	st	Z, r18
    1628:	31 83       	std	Z+1, r19	; 0x01
    return 0;
}

//
void SetResponse(uint8_t number, uint16_t address, uint16_t length, uint8_t type){
    reactStr[0][number]=address;
    162a:	23 e0       	ldi	r18, 0x03	; 3
    162c:	28 0f       	add	r18, r24
    162e:	30 e0       	ldi	r19, 0x00	; 0
    1630:	f9 01       	movw	r30, r18
    1632:	ee 0f       	add	r30, r30
    1634:	ff 1f       	adc	r31, r31
    1636:	e1 51       	subi	r30, 0x11	; 17
    1638:	f7 4c       	sbci	r31, 0xC7	; 199
    163a:	a0 83       	st	Z, r26
    163c:	b1 83       	std	Z+1, r27	; 0x01
    reactStr[1][number]=length;
    163e:	f9 01       	movw	r30, r18
    1640:	ee 0f       	add	r30, r30
    1642:	ff 1f       	adc	r31, r31
    1644:	e1 5d       	subi	r30, 0xD1	; 209
    1646:	f6 4c       	sbci	r31, 0xC6	; 198
    1648:	60 83       	st	Z, r22
    164a:	71 83       	std	Z+1, r23	; 0x01
    reactStr[2][number]=type;
    164c:	22 0f       	add	r18, r18
    164e:	33 1f       	adc	r19, r19
    1650:	f9 01       	movw	r30, r18
    1652:	e1 59       	subi	r30, 0x91	; 145
    1654:	f6 4c       	sbci	r31, 0xC6	; 198
    1656:	40 83       	st	Z, r20
    1658:	51 83       	std	Z+1, r21	; 0x01
    return 0;
}

//
void SetResponse(uint8_t number, uint16_t address, uint16_t length, uint8_t type){
    reactStr[0][number]=address;
    165a:	24 e0       	ldi	r18, 0x04	; 4
    165c:	28 0f       	add	r18, r24
    165e:	30 e0       	ldi	r19, 0x00	; 0
    1660:	f9 01       	movw	r30, r18
    1662:	ee 0f       	add	r30, r30
    1664:	ff 1f       	adc	r31, r31
    1666:	e1 51       	subi	r30, 0x11	; 17
    1668:	f7 4c       	sbci	r31, 0xC7	; 199
    166a:	a7 e5       	ldi	r26, 0x57	; 87
    166c:	ba e7       	ldi	r27, 0x7A	; 122
    166e:	a0 83       	st	Z, r26
    1670:	b1 83       	std	Z+1, r27	; 0x01
    reactStr[1][number]=length;
    1672:	f9 01       	movw	r30, r18
    1674:	ee 0f       	add	r30, r30
    1676:	ff 1f       	adc	r31, r31
    1678:	e1 5d       	subi	r30, 0xD1	; 209
    167a:	f6 4c       	sbci	r31, 0xC6	; 198
    167c:	60 83       	st	Z, r22
    167e:	71 83       	std	Z+1, r23	; 0x01
    reactStr[2][number]=type;
    1680:	22 0f       	add	r18, r18
    1682:	33 1f       	adc	r19, r19
    1684:	f9 01       	movw	r30, r18
    1686:	e1 59       	subi	r30, 0x91	; 145
    1688:	f6 4c       	sbci	r31, 0xC6	; 198
    168a:	40 83       	st	Z, r20
    168c:	51 83       	std	Z+1, r21	; 0x01
    SetResponse(custStrEnd++, A_LF, 2, TEASER);
    SetResponse(custStrEnd++, A_PROMPT, L_PROMPT, TEASER);
    //SetResponse(custStrEnd++, A_SPACE, L_SPACE, TEASER);

    return custStrEnd;
}
    168e:	8b 5f       	subi	r24, 0xFB	; 251
    1690:	df 91       	pop	r29
    1692:	cf 91       	pop	r28
    1694:	08 95       	ret

00001696 <PopulateObject>:

//Get all the relevant data and string addresses of an object
void PopulateObject(uint16_t offset, object_model_t *object){
    1696:	af 92       	push	r10
    1698:	bf 92       	push	r11
    169a:	df 92       	push	r13
    169c:	ef 92       	push	r14
    169e:	ff 92       	push	r15
    16a0:	0f 93       	push	r16
    16a2:	1f 93       	push	r17
    16a4:	cf 93       	push	r28
    16a6:	df 93       	push	r29
    16a8:	cd b7       	in	r28, 0x3d	; 61
    16aa:	de b7       	in	r29, 0x3e	; 62
    16ac:	2c 97       	sbiw	r28, 0x0c	; 12
    16ae:	cd bf       	out	0x3d, r28	; 61
    16b0:	de bf       	out	0x3e, r29	; 62
    16b2:	7c 01       	movw	r14, r24
    16b4:	8b 01       	movw	r16, r22
    uint16_t parStr;
    offset += L_BOILER;

    //Fill things with fixed distance to offset
    uint8_t data[OFF_STRINGFLDS];
    ExtEERead(offset, OFF_STRINGFLDS, GAME, &data[0]);
    16b6:	9e 01       	movw	r18, r28
    16b8:	2f 5f       	subi	r18, 0xFF	; 255
    16ba:	3f 4f       	sbci	r19, 0xFF	; 255
    16bc:	40 e0       	ldi	r20, 0x00	; 0
    16be:	6c e0       	ldi	r22, 0x0C	; 12
    16c0:	80 96       	adiw	r24, 0x20	; 32
    16c2:	de de       	rcall	.-580    	; 0x1480 <ExtEERead>
    object->addrNextObj = (data[OFF_NEXTOBJ]<<8|data[OFF_NEXTOBJ+1])+L_BOILER;
    16c4:	89 81       	ldd	r24, Y+1	; 0x01
    16c6:	9a 81       	ldd	r25, Y+2	; 0x02
    16c8:	98 27       	eor	r25, r24
    16ca:	89 27       	eor	r24, r25
    16cc:	98 27       	eor	r25, r24
    16ce:	80 96       	adiw	r24, 0x20	; 32
    16d0:	f8 01       	movw	r30, r16
    16d2:	80 83       	st	Z, r24
    16d4:	91 83       	std	Z+1, r25	; 0x01
    object->addrNextLvl = (data[OFF_NEXTLVL]<<8|data[OFF_NEXTLVL+1])+L_BOILER;
    16d6:	8b 81       	ldd	r24, Y+3	; 0x03
    16d8:	9c 81       	ldd	r25, Y+4	; 0x04
    16da:	98 27       	eor	r25, r24
    16dc:	89 27       	eor	r24, r25
    16de:	98 27       	eor	r25, r24
    16e0:	80 96       	adiw	r24, 0x20	; 32
    16e2:	82 83       	std	Z+2, r24	; 0x02
    16e4:	93 83       	std	Z+3, r25	; 0x03
    16e6:	de 01       	movw	r26, r28
    16e8:	15 96       	adiw	r26, 0x05	; 5
    16ea:	34 96       	adiw	r30, 0x04	; 4
    16ec:	c8 01       	movw	r24, r16
    16ee:	0c 96       	adiw	r24, 0x0c	; 12
    for (uint8_t x=0; x<BYTE_FIELDS_LEN; ++x){
        object->byteField[x]=data[x+OFF_BYTEFLDS];
    16f0:	2d 91       	ld	r18, X+
    16f2:	21 93       	st	Z+, r18
    //Fill things with fixed distance to offset
    uint8_t data[OFF_STRINGFLDS];
    ExtEERead(offset, OFF_STRINGFLDS, GAME, &data[0]);
    object->addrNextObj = (data[OFF_NEXTOBJ]<<8|data[OFF_NEXTOBJ+1])+L_BOILER;
    object->addrNextLvl = (data[OFF_NEXTLVL]<<8|data[OFF_NEXTLVL+1])+L_BOILER;
    for (uint8_t x=0; x<BYTE_FIELDS_LEN; ++x){
    16f4:	e8 17       	cp	r30, r24
    16f6:	f9 07       	cpc	r31, r25
    16f8:	d9 f7       	brne	.-10     	; 0x16f0 <PopulateObject+0x5a>
        object->byteField[x]=data[x+OFF_BYTEFLDS];
    }

    //Find out where all of the strings begin and how long they are
    offset += OFF_STRINGFLDS;
    16fa:	fc e2       	ldi	r31, 0x2C	; 44
    16fc:	ef 0e       	add	r14, r31
    16fe:	f1 1c       	adc	r15, r1
    1700:	58 01       	movw	r10, r16
    for(uint8_t x=0; x<STRING_FIELDS_LEN; ++x){
    1702:	d1 2c       	mov	r13, r1
        
        //Determine length
        ExtEERead(offset, 3, GAME, &data[0]);
    1704:	9e 01       	movw	r18, r28
    1706:	2f 5f       	subi	r18, 0xFF	; 255
    1708:	3f 4f       	sbci	r19, 0xFF	; 255
    170a:	40 e0       	ldi	r20, 0x00	; 0
    170c:	63 e0       	ldi	r22, 0x03	; 3
    170e:	c7 01       	movw	r24, r14
    1710:	b7 de       	rcall	.-658    	; 0x1480 <ExtEERead>
    1712:	89 81       	ldd	r24, Y+1	; 0x01
    1714:	9a 81       	ldd	r25, Y+2	; 0x02
    1716:	98 27       	eor	r25, r24
    1718:	89 27       	eor	r24, r25
    171a:	98 27       	eor	r25, r24
        parStr = (data[0]<<8|data[1]);
        offset += 2;
    171c:	97 01       	movw	r18, r14
    171e:	2e 5f       	subi	r18, 0xFE	; 254
    1720:	3f 4f       	sbci	r19, 0xFF	; 255
        if (x >= OPEN_ACL_MSG){
    1722:	43 e0       	ldi	r20, 0x03	; 3
    1724:	4d 15       	cp	r20, r13
    1726:	80 f4       	brcc	.+32     	; 0x1748 <PopulateObject+0xb2>
            object->lenStr[x]= parStr-1;
    1728:	ac 01       	movw	r20, r24
    172a:	41 50       	subi	r20, 0x01	; 1
    172c:	51 09       	sbc	r21, r1
    172e:	f8 01       	movw	r30, r16
    1730:	42 8f       	std	Z+26, r20	; 0x1a
    1732:	53 8f       	std	Z+27, r21	; 0x1b
            object->addrStr[x]=offset+1;
    1734:	f3 e0       	ldi	r31, 0x03	; 3
    1736:	ef 0e       	add	r14, r31
    1738:	f1 1c       	adc	r15, r1
    173a:	f8 01       	movw	r30, r16
    173c:	e4 86       	std	Z+12, r14	; 0x0c
    173e:	f5 86       	std	Z+13, r15	; 0x0d
            object->effect[x-OPEN_ACL_MSG] = data[2];
    1740:	4b 81       	ldd	r20, Y+3	; 0x03
    1742:	f5 01       	movw	r30, r10
    1744:	44 a3       	std	Z+36, r20	; 0x24
    1746:	05 c0       	rjmp	.+10     	; 0x1752 <PopulateObject+0xbc>
        } else {
            object->lenStr[x]= parStr;
    1748:	f8 01       	movw	r30, r16
    174a:	82 8f       	std	Z+26, r24	; 0x1a
    174c:	93 8f       	std	Z+27, r25	; 0x1b
            object->addrStr[x]=offset;
    174e:	24 87       	std	Z+12, r18	; 0x0c
    1750:	35 87       	std	Z+13, r19	; 0x0d
        }
        
        //Determine string start location for next field
        offset += parStr;
    1752:	7c 01       	movw	r14, r24
    1754:	e2 0e       	add	r14, r18
    1756:	f3 1e       	adc	r15, r19
        object->byteField[x]=data[x+OFF_BYTEFLDS];
    }

    //Find out where all of the strings begin and how long they are
    offset += OFF_STRINGFLDS;
    for(uint8_t x=0; x<STRING_FIELDS_LEN; ++x){
    1758:	d3 94       	inc	r13
    175a:	0e 5f       	subi	r16, 0xFE	; 254
    175c:	1f 4f       	sbci	r17, 0xFF	; 255
    175e:	ff ef       	ldi	r31, 0xFF	; 255
    1760:	af 1a       	sub	r10, r31
    1762:	bf 0a       	sbc	r11, r31
    1764:	47 e0       	ldi	r20, 0x07	; 7
    1766:	d4 12       	cpse	r13, r20
    1768:	cd cf       	rjmp	.-102    	; 0x1704 <PopulateObject+0x6e>
        }
        
        //Determine string start location for next field
        offset += parStr;
    }    
}
    176a:	2c 96       	adiw	r28, 0x0c	; 12
    176c:	cd bf       	out	0x3d, r28	; 61
    176e:	de bf       	out	0x3e, r29	; 62
    1770:	df 91       	pop	r29
    1772:	cf 91       	pop	r28
    1774:	1f 91       	pop	r17
    1776:	0f 91       	pop	r16
    1778:	ff 90       	pop	r15
    177a:	ef 90       	pop	r14
    177c:	df 90       	pop	r13
    177e:	bf 90       	pop	r11
    1780:	af 90       	pop	r10
    1782:	08 95       	ret

00001784 <CheckLetter>:

//Check if the entered letter corresponds with a name
uint8_t CheckLetter(uint16_t object, uint8_t letter){
    1784:	cf 92       	push	r12
    1786:	df 92       	push	r13
    1788:	ef 92       	push	r14
    178a:	ff 92       	push	r15
    178c:	0f 93       	push	r16
    178e:	1f 93       	push	r17
    1790:	cf 93       	push	r28
    1792:	df 93       	push	r29
    1794:	cd b7       	in	r28, 0x3d	; 61
    1796:	de b7       	in	r29, 0x3e	; 62
    1798:	a0 97       	sbiw	r28, 0x20	; 32
    179a:	cd bf       	out	0x3d, r28	; 61
    179c:	de bf       	out	0x3e, r29	; 62
    179e:	c6 2e       	mov	r12, r22
    
    uint8_t found = 0;
    uint8_t data[32];

    object += L_BOILER;
    17a0:	7c 01       	movw	r14, r24
    17a2:	20 e2       	ldi	r18, 0x20	; 32
    17a4:	e2 0e       	add	r14, r18
    17a6:	f1 1c       	adc	r15, r1
    ExtEERead(object+OFF_STRINGFLDS, 2, GAME, &data[0]);
    17a8:	9e 01       	movw	r18, r28
    17aa:	2f 5f       	subi	r18, 0xFF	; 255
    17ac:	3f 4f       	sbci	r19, 0xFF	; 255
    17ae:	40 e0       	ldi	r20, 0x00	; 0
    17b0:	62 e0       	ldi	r22, 0x02	; 2
    17b2:	8c 96       	adiw	r24, 0x2c	; 44
    17b4:	65 de       	rcall	.-822    	; 0x1480 <ExtEERead>
    uint8_t x = data[1]; //Assuming a name is not longer than 255 characters.
    17b6:	1a 81       	ldd	r17, Y+2	; 0x02
}

//Check if the entered letter corresponds with a name
uint8_t CheckLetter(uint16_t object, uint8_t letter){
    
    uint8_t found = 0;
    17b8:	d1 2c       	mov	r13, r1

    object += L_BOILER;
    ExtEERead(object+OFF_STRINGFLDS, 2, GAME, &data[0]);
    uint8_t x = data[1]; //Assuming a name is not longer than 255 characters.

    while (x){
    17ba:	11 23       	and	r17, r17
    17bc:	51 f1       	breq	.+84     	; 0x1812 <CheckLetter+0x8e>
    17be:	01 2f       	mov	r16, r17
    17c0:	11 32       	cpi	r17, 0x21	; 33
    17c2:	08 f0       	brcs	.+2      	; 0x17c6 <CheckLetter+0x42>
    17c4:	00 e2       	ldi	r16, 0x20	; 32
        uint8_t max;
        if (x>32) max = 32; else max = x;
        ExtEERead(object+OFF_STRINGFLDS+2, max, GAME, &data[0]);
    17c6:	9e 01       	movw	r18, r28
    17c8:	2f 5f       	subi	r18, 0xFF	; 255
    17ca:	3f 4f       	sbci	r19, 0xFF	; 255
    17cc:	40 e0       	ldi	r20, 0x00	; 0
    17ce:	60 2f       	mov	r22, r16
    17d0:	c7 01       	movw	r24, r14
    17d2:	0e 96       	adiw	r24, 0x0e	; 14
    17d4:	55 de       	rcall	.-854    	; 0x1480 <ExtEERead>
    17d6:	fe 01       	movw	r30, r28
    17d8:	31 96       	adiw	r30, 0x01	; 1
        for (uint8_t y=0; y<max; ++y){
    17da:	80 e0       	ldi	r24, 0x00	; 0
            if (found){
    17dc:	dd 20       	and	r13, r13
    17de:	61 f0       	breq	.+24     	; 0x17f8 <CheckLetter+0x74>
                if ((data[y]|0x20) == letter) return 1; else return 0;
    17e0:	e1 e0       	ldi	r30, 0x01	; 1
    17e2:	f0 e0       	ldi	r31, 0x00	; 0
    17e4:	ec 0f       	add	r30, r28
    17e6:	fd 1f       	adc	r31, r29
    17e8:	e8 0f       	add	r30, r24
    17ea:	f1 1d       	adc	r31, r1
    17ec:	90 81       	ld	r25, Z
    17ee:	90 62       	ori	r25, 0x20	; 32
    17f0:	81 e0       	ldi	r24, 0x01	; 1
    17f2:	9c 11       	cpse	r25, r12
    17f4:	0e c0       	rjmp	.+28     	; 0x1812 <CheckLetter+0x8e>
    17f6:	0e c0       	rjmp	.+28     	; 0x1814 <CheckLetter+0x90>
            }
            if (data[y] == '[') found = 1;
    17f8:	91 91       	ld	r25, Z+
    17fa:	dd 24       	eor	r13, r13
    17fc:	d3 94       	inc	r13
    17fe:	9b 35       	cpi	r25, 0x5B	; 91
    1800:	09 f0       	breq	.+2      	; 0x1804 <CheckLetter+0x80>
    1802:	d1 2c       	mov	r13, r1

    while (x){
        uint8_t max;
        if (x>32) max = 32; else max = x;
        ExtEERead(object+OFF_STRINGFLDS+2, max, GAME, &data[0]);
        for (uint8_t y=0; y<max; ++y){
    1804:	8f 5f       	subi	r24, 0xFF	; 255
    1806:	80 17       	cp	r24, r16
    1808:	48 f3       	brcs	.-46     	; 0x17dc <CheckLetter+0x58>
            if (found){
                if ((data[y]|0x20) == letter) return 1; else return 0;
            }
            if (data[y] == '[') found = 1;
        }
        object += max;
    180a:	e0 0e       	add	r14, r16
    180c:	f1 1c       	adc	r15, r1
        x -= max;
    180e:	10 1b       	sub	r17, r16
    1810:	d4 cf       	rjmp	.-88     	; 0x17ba <CheckLetter+0x36>
    }
    return 0;
    1812:	80 e0       	ldi	r24, 0x00	; 0
}
    1814:	a0 96       	adiw	r28, 0x20	; 32
    1816:	cd bf       	out	0x3d, r28	; 61
    1818:	de bf       	out	0x3e, r29	; 62
    181a:	df 91       	pop	r29
    181c:	cf 91       	pop	r28
    181e:	1f 91       	pop	r17
    1820:	0f 91       	pop	r16
    1822:	ff 90       	pop	r15
    1824:	ef 90       	pop	r14
    1826:	df 90       	pop	r13
    1828:	cf 90       	pop	r12
    182a:	08 95       	ret

0000182c <FindChild>:

//Returns the child's address if the child is visible and the search letter matches
uint16_t FindChild(uint16_t parent, uint8_t letter, uint16_t start){
    182c:	af 92       	push	r10
    182e:	bf 92       	push	r11
    1830:	df 92       	push	r13
    1832:	ef 92       	push	r14
    1834:	ff 92       	push	r15
    1836:	0f 93       	push	r16
    1838:	1f 93       	push	r17
    183a:	cf 93       	push	r28
    183c:	df 93       	push	r29
    183e:	00 d0       	rcall	.+0      	; 0x1840 <FindChild+0x14>
    1840:	00 d0       	rcall	.+0      	; 0x1842 <FindChild+0x16>
    1842:	cd b7       	in	r28, 0x3d	; 61
    1844:	de b7       	in	r29, 0x3e	; 62
    1846:	d6 2e       	mov	r13, r22
    1848:	5a 01       	movw	r10, r20
    
    uint16_t child = parent;
    uint8_t data[4];

    ExtEERead(child+L_BOILER, 4, GAME, &data[0]);
    184a:	9e 01       	movw	r18, r28
    184c:	2f 5f       	subi	r18, 0xFF	; 255
    184e:	3f 4f       	sbci	r19, 0xFF	; 255
    1850:	40 e0       	ldi	r20, 0x00	; 0
    1852:	64 e0       	ldi	r22, 0x04	; 4
    1854:	80 96       	adiw	r24, 0x20	; 32
    1856:	14 de       	rcall	.-984    	; 0x1480 <ExtEERead>
    1858:	e9 80       	ldd	r14, Y+1	; 0x01
    185a:	fa 80       	ldd	r15, Y+2	; 0x02
    185c:	fe 24       	eor	r15, r14
    185e:	ef 24       	eor	r14, r15
    1860:	fe 24       	eor	r15, r14
    1862:	0b 81       	ldd	r16, Y+3	; 0x03
    1864:	1c 81       	ldd	r17, Y+4	; 0x04
    1866:	10 27       	eor	r17, r16
    1868:	01 27       	eor	r16, r17
    186a:	10 27       	eor	r17, r16
    parent = (data[0]<<8|data[1]);    //Next object on parent level
    child =  (data[2]<<8|data[3]);    //First object on child level

    //As long as the child is within the parent's range
    while (parent>child){
    186c:	0e 15       	cp	r16, r14
    186e:	1f 05       	cpc	r17, r15
    1870:	30 f5       	brcc	.+76     	; 0x18be <FindChild+0x92>

        //If child's address is higher than the start address, perform search for letter
        if (child>start){
    1872:	a0 16       	cp	r10, r16
    1874:	b1 06       	cpc	r11, r17
    1876:	58 f0       	brcs	.+22     	; 0x188e <FindChild+0x62>
                if ((letter == 0)||(CheckLetter(child, letter))) return child;
            }
        }

        //Not visible or name not right
        ExtEERead(child+L_BOILER, 2, GAME, &data[0]);
    1878:	9e 01       	movw	r18, r28
    187a:	2f 5f       	subi	r18, 0xFF	; 255
    187c:	3f 4f       	sbci	r19, 0xFF	; 255
    187e:	40 e0       	ldi	r20, 0x00	; 0
    1880:	62 e0       	ldi	r22, 0x02	; 2
    1882:	c8 01       	movw	r24, r16
    1884:	80 96       	adiw	r24, 0x20	; 32
    1886:	fc dd       	rcall	.-1032   	; 0x1480 <ExtEERead>
    1888:	09 81       	ldd	r16, Y+1	; 0x01
    188a:	1a 81       	ldd	r17, Y+2	; 0x02
    188c:	ec cf       	rjmp	.-40     	; 0x1866 <FindChild+0x3a>
    //As long as the child is within the parent's range
    while (parent>child){

        //If child's address is higher than the start address, perform search for letter
        if (child>start){
            ExtEERead(child+OFF_BYTEFLDS+VISIBLE_ACL+L_BOILER, 1, GAME, &data[0]);
    188e:	9e 01       	movw	r18, r28
    1890:	2f 5f       	subi	r18, 0xFF	; 255
    1892:	3f 4f       	sbci	r19, 0xFF	; 255
    1894:	40 e0       	ldi	r20, 0x00	; 0
    1896:	61 e0       	ldi	r22, 0x01	; 1
    1898:	c8 01       	movw	r24, r16
    189a:	85 96       	adiw	r24, 0x25	; 37
    189c:	f1 dd       	rcall	.-1054   	; 0x1480 <ExtEERead>
            if ((data[0] == 0)||(CheckState(data[0]))) {
    189e:	89 81       	ldd	r24, Y+1	; 0x01
    18a0:	81 11       	cpse	r24, r1
    18a2:	03 c0       	rjmp	.+6      	; 0x18aa <FindChild+0x7e>
                if ((letter == 0)||(CheckLetter(child, letter))) return child;
    18a4:	d1 10       	cpse	r13, r1
    18a6:	05 c0       	rjmp	.+10     	; 0x18b2 <FindChild+0x86>
    while (parent>child){

        //If child's address is higher than the start address, perform search for letter
        if (child>start){
            ExtEERead(child+OFF_BYTEFLDS+VISIBLE_ACL+L_BOILER, 1, GAME, &data[0]);
            if ((data[0] == 0)||(CheckState(data[0]))) {
    18a8:	0d c0       	rjmp	.+26     	; 0x18c4 <FindChild+0x98>
    18aa:	72 dc       	rcall	.-1820   	; 0x1190 <CheckState>
    18ac:	81 11       	cpse	r24, r1
    18ae:	fa cf       	rjmp	.-12     	; 0x18a4 <FindChild+0x78>
                if ((letter == 0)||(CheckLetter(child, letter))) return child;
    18b0:	e3 cf       	rjmp	.-58     	; 0x1878 <FindChild+0x4c>
    18b2:	6d 2d       	mov	r22, r13
    18b4:	c8 01       	movw	r24, r16
    18b6:	66 df       	rcall	.-308    	; 0x1784 <CheckLetter>
    18b8:	88 23       	and	r24, r24
    18ba:	f1 f2       	breq	.-68     	; 0x1878 <FindChild+0x4c>
    18bc:	03 c0       	rjmp	.+6      	; 0x18c4 <FindChild+0x98>

        //Not visible or name not right
        ExtEERead(child+L_BOILER, 2, GAME, &data[0]);
        child = (data[0]<<8|data[1]);    //Next object on child level
        
    } return 0;
    18be:	80 e0       	ldi	r24, 0x00	; 0
    18c0:	90 e0       	ldi	r25, 0x00	; 0
    18c2:	01 c0       	rjmp	.+2      	; 0x18c6 <FindChild+0x9a>
    18c4:	c8 01       	movw	r24, r16
}
    18c6:	24 96       	adiw	r28, 0x04	; 4
    18c8:	cd bf       	out	0x3d, r28	; 61
    18ca:	de bf       	out	0x3e, r29	; 62
    18cc:	df 91       	pop	r29
    18ce:	cf 91       	pop	r28
    18d0:	1f 91       	pop	r17
    18d2:	0f 91       	pop	r16
    18d4:	ff 90       	pop	r15
    18d6:	ef 90       	pop	r14
    18d8:	df 90       	pop	r13
    18da:	bf 90       	pop	r11
    18dc:	af 90       	pop	r10
    18de:	08 95       	ret

000018e0 <InpOkChk>:

//Allow only a(A) to z(Z) and 0 to 9 as input
uint8_t InpOkChk(uint8_t test){
    test |= 0x20;
    18e0:	80 62       	ori	r24, 0x20	; 32
    if ((test>='a')&&(test<='z')) return 1;
    18e2:	9f e9       	ldi	r25, 0x9F	; 159
    18e4:	98 0f       	add	r25, r24
    18e6:	9a 31       	cpi	r25, 0x1A	; 26
    18e8:	38 f0       	brcs	.+14     	; 0x18f8 <InpOkChk+0x18>
    18ea:	90 ed       	ldi	r25, 0xD0	; 208
    18ec:	98 0f       	add	r25, r24
    18ee:	81 e0       	ldi	r24, 0x01	; 1
    18f0:	9a 30       	cpi	r25, 0x0A	; 10
    18f2:	18 f0       	brcs	.+6      	; 0x18fa <InpOkChk+0x1a>
    18f4:	80 e0       	ldi	r24, 0x00	; 0
    18f6:	08 95       	ret
    18f8:	81 e0       	ldi	r24, 0x01	; 1
    if ((test>='0')&&(test<='9')) return 1;
    return 0;
}
    18fa:	08 95       	ret

000018fc <CleanInput>:

//Cleans input of garbage and returns length of cleaned input "o->d2  !\0" becomes "od2\0"
uint8_t CleanInput(uint8_t *data){
    18fc:	0f 93       	push	r16
    18fe:	1f 93       	push	r17
    1900:	cf 93       	push	r28
    1902:	df 93       	push	r29
    1904:	8c 01       	movw	r16, r24
    uint8_t cnt = 0;
    for (uint8_t x=0; data[x]!=0; ++x){
    1906:	d0 e0       	ldi	r29, 0x00	; 0
    return 0;
}

//Cleans input of garbage and returns length of cleaned input "o->d2  !\0" becomes "od2\0"
uint8_t CleanInput(uint8_t *data){
    uint8_t cnt = 0;
    1908:	c0 e0       	ldi	r28, 0x00	; 0
    for (uint8_t x=0; data[x]!=0; ++x){
    190a:	f8 01       	movw	r30, r16
    190c:	ed 0f       	add	r30, r29
    190e:	f1 1d       	adc	r31, r1
    1910:	20 81       	ld	r18, Z
    1912:	8c 2f       	mov	r24, r28
    1914:	90 e0       	ldi	r25, 0x00	; 0
    1916:	22 23       	and	r18, r18
    1918:	51 f0       	breq	.+20     	; 0x192e <CleanInput+0x32>
        data[cnt] = data[x];
    191a:	d8 01       	movw	r26, r16
    191c:	a8 0f       	add	r26, r24
    191e:	b9 1f       	adc	r27, r25
    1920:	2c 93       	st	X, r18
        if (InpOkChk(data[x])) ++cnt;
    1922:	80 81       	ld	r24, Z
    1924:	dd df       	rcall	.-70     	; 0x18e0 <InpOkChk>
    1926:	81 11       	cpse	r24, r1
    1928:	cf 5f       	subi	r28, 0xFF	; 255
}

//Cleans input of garbage and returns length of cleaned input "o->d2  !\0" becomes "od2\0"
uint8_t CleanInput(uint8_t *data){
    uint8_t cnt = 0;
    for (uint8_t x=0; data[x]!=0; ++x){
    192a:	df 5f       	subi	r29, 0xFF	; 255
    192c:	ee cf       	rjmp	.-36     	; 0x190a <CleanInput+0xe>
        data[cnt] = data[x];
        if (InpOkChk(data[x])) ++cnt;
    }
    data[cnt] = 0;
    192e:	f8 01       	movw	r30, r16
    1930:	e8 0f       	add	r30, r24
    1932:	f9 1f       	adc	r31, r25
    1934:	10 82       	st	Z, r1
    return cnt;
}
    1936:	8c 2f       	mov	r24, r28
    1938:	df 91       	pop	r29
    193a:	cf 91       	pop	r28
    193c:	1f 91       	pop	r17
    193e:	0f 91       	pop	r16
    1940:	08 95       	ret

00001942 <CheckSend>:

//Send routine, optimized for low memory usage
uint8_t CheckSend(){
    1942:	cf 93       	push	r28
    static uint8_t txPart;
    uint8_t EEreadLength=0;

    //Check if more string(part)s have to be sent to the serial output if previous send operation is completed
    if ((txAddrNow < TXLISTLEN) && serTxDone){
    1944:	20 91 1b 3a 	lds	r18, 0x3A1B	; 0x803a1b <txAddrNow>
    1948:	28 30       	cpi	r18, 0x08	; 8
    194a:	08 f0       	brcs	.+2      	; 0x194e <CheckSend+0xc>
    194c:	47 c0       	rjmp	.+142    	; 0x19dc <CheckSend+0x9a>
    194e:	80 91 08 38 	lds	r24, 0x3808	; 0x803808 <serTxDone>
    1952:	88 23       	and	r24, r24
    1954:	09 f4       	brne	.+2      	; 0x1958 <CheckSend+0x16>
    1956:	42 c0       	rjmp	.+132    	; 0x19dc <CheckSend+0x9a>
        if (txStrLen[txAddrNow] == 0){
    1958:	82 2f       	mov	r24, r18
    195a:	90 e0       	ldi	r25, 0x00	; 0
    195c:	fc 01       	movw	r30, r24
    195e:	e4 5e       	subi	r30, 0xE4	; 228
    1960:	f5 4c       	sbci	r31, 0xC5	; 197
    1962:	e0 81       	ld	r30, Z
    1964:	e1 11       	cpse	r30, r1
    1966:	06 c0       	rjmp	.+12     	; 0x1974 <CheckSend+0x32>
            txPart = 0;
    1968:	10 92 dc 38 	sts	0x38DC, r1	; 0x8038dc <txPart.3935>
            txAddrNow = TXLISTLEN;
    196c:	88 e0       	ldi	r24, 0x08	; 8
    196e:	80 93 1b 3a 	sts	0x3A1B, r24	; 0x803a1b <txAddrNow>
    1972:	2c c0       	rjmp	.+88     	; 0x19cc <CheckSend+0x8a>
        } else if (txPart < txStrLen[txAddrNow]){
    1974:	50 91 dc 38 	lds	r21, 0x38DC	; 0x8038dc <txPart.3935>
    1978:	5e 17       	cp	r21, r30
    197a:	50 f5       	brcc	.+84     	; 0x19d0 <CheckSend+0x8e>
            EEreadLength = txStrLen[txAddrNow]-txPart;
    197c:	ce 2f       	mov	r28, r30
    197e:	c5 1b       	sub	r28, r21
    1980:	c1 32       	cpi	r28, 0x21	; 33
    1982:	08 f0       	brcs	.+2      	; 0x1986 <CheckSend+0x44>
    1984:	c0 e2       	ldi	r28, 0x20	; 32
            if (EEreadLength>=TXLEN) EEreadLength = TXLEN-1;
            ExtEERead(txAddrList[txAddrNow]+txPart, EEreadLength, txTypeNow, &txBuffer[0]);
    1986:	88 0f       	add	r24, r24
    1988:	99 1f       	adc	r25, r25
    198a:	fc 01       	movw	r30, r24
    198c:	ec 5d       	subi	r30, 0xDC	; 220
    198e:	f5 4c       	sbci	r31, 0xC5	; 197
    1990:	80 81       	ld	r24, Z
    1992:	91 81       	ldd	r25, Z+1	; 0x01
    1994:	25 ee       	ldi	r18, 0xE5	; 229
    1996:	3a e3       	ldi	r19, 0x3A	; 58
    1998:	40 91 1a 3a 	lds	r20, 0x3A1A	; 0x803a1a <txTypeNow>
    199c:	6c 2f       	mov	r22, r28
    199e:	85 0f       	add	r24, r21
    19a0:	91 1d       	adc	r25, r1
    19a2:	6e dd       	rcall	.-1316   	; 0x1480 <ExtEERead>
            txPart += EEreadLength;
    19a4:	80 91 dc 38 	lds	r24, 0x38DC	; 0x8038dc <txPart.3935>
    19a8:	8c 0f       	add	r24, r28
    19aa:	80 93 dc 38 	sts	0x38DC, r24	; 0x8038dc <txPart.3935>
            txBuffer[EEreadLength] = 0; //Add string terminator after piece to send to plug memory leak
    19ae:	ec 2f       	mov	r30, r28
    19b0:	f0 e0       	ldi	r31, 0x00	; 0
    19b2:	eb 51       	subi	r30, 0x1B	; 27
    19b4:	f5 4c       	sbci	r31, 0xC5	; 197
    19b6:	10 82       	st	Z, r1
            if ((txBuffer[0] == 0) && (EEreadLength)) txBuffer[0] = 0xDB; //Block character when data wrong.
    19b8:	80 91 e5 3a 	lds	r24, 0x3AE5	; 0x803ae5 <txBuffer>
    19bc:	81 11       	cpse	r24, r1
    19be:	03 c0       	rjmp	.+6      	; 0x19c6 <CheckSend+0x84>
    19c0:	8b ed       	ldi	r24, 0xDB	; 219
    19c2:	80 93 e5 3a 	sts	0x3AE5, r24	; 0x803ae5 <txBuffer>
            SerSend(&txBuffer[0]);
    19c6:	85 ee       	ldi	r24, 0xE5	; 229
    19c8:	9a e3       	ldi	r25, 0x3A	; 58
    19ca:	45 da       	rcall	.-2934   	; 0xe56 <SerSend>
        } else {
            txPart = 0;
            ++txAddrNow;
        }
    } else if (serTxDone) return 0; //All is sent!
    return 1; //Still sending, do not change the data in the tx variables
    19cc:	81 e0       	ldi	r24, 0x01	; 1
    19ce:	0b c0       	rjmp	.+22     	; 0x19e6 <CheckSend+0xa4>
            txPart += EEreadLength;
            txBuffer[EEreadLength] = 0; //Add string terminator after piece to send to plug memory leak
            if ((txBuffer[0] == 0) && (EEreadLength)) txBuffer[0] = 0xDB; //Block character when data wrong.
            SerSend(&txBuffer[0]);
        } else {
            txPart = 0;
    19d0:	10 92 dc 38 	sts	0x38DC, r1	; 0x8038dc <txPart.3935>
            ++txAddrNow;
    19d4:	2f 5f       	subi	r18, 0xFF	; 255
    19d6:	20 93 1b 3a 	sts	0x3A1B, r18	; 0x803a1b <txAddrNow>
    19da:	f8 cf       	rjmp	.-16     	; 0x19cc <CheckSend+0x8a>
        }
    } else if (serTxDone) return 0; //All is sent!
    19dc:	90 91 08 38 	lds	r25, 0x3808	; 0x803808 <serTxDone>
    19e0:	81 e0       	ldi	r24, 0x01	; 1
    19e2:	91 11       	cpse	r25, r1
    19e4:	80 e0       	ldi	r24, 0x00	; 0
    return 1; //Still sending, do not change the data in the tx variables
}
    19e6:	cf 91       	pop	r28
    19e8:	08 95       	ret

000019ea <CheckResponse>:

//Send another part of the response and play the effect afterwards
uint8_t CheckResponse(){
    19ea:	cf 93       	push	r28
    19ec:	df 93       	push	r29
    static uint8_t number = 0;
    if (responseList){
    19ee:	c0 91 ee 38 	lds	r28, 0x38EE	; 0x8038ee <responseList>
    19f2:	cc 23       	and	r28, r28
    19f4:	e9 f1       	breq	.+122    	; 0x1a70 <CheckResponse+0x86>
        --responseList;
    19f6:	c1 50       	subi	r28, 0x01	; 1
    19f8:	c0 93 ee 38 	sts	0x38EE, r28	; 0x8038ee <responseList>
        if (reactStr[0][number] == CURR_LOC) {
    19fc:	d0 91 db 38 	lds	r29, 0x38DB	; 0x8038db <number.3939>
    1a00:	2d 2f       	mov	r18, r29
    1a02:	30 e0       	ldi	r19, 0x00	; 0
    1a04:	f9 01       	movw	r30, r18
    1a06:	ee 0f       	add	r30, r30
    1a08:	ff 1f       	adc	r31, r31
    1a0a:	e1 51       	subi	r30, 0x11	; 17
    1a0c:	f7 4c       	sbci	r31, 0xC7	; 199
    1a0e:	80 81       	ld	r24, Z
    1a10:	91 81       	ldd	r25, Z+1	; 0x01
    1a12:	80 3f       	cpi	r24, 0xF0	; 240
    1a14:	4f ef       	ldi	r20, 0xFF	; 255
    1a16:	94 07       	cpc	r25, r20
    1a18:	51 f4       	brne	.+20     	; 0x1a2e <CheckResponse+0x44>
            PrepareSending(currObj.addrStr[NAME], currObj.lenStr[NAME], GAME);
    1a1a:	60 91 09 3a 	lds	r22, 0x3A09	; 0x803a09 <currObj+0x1a>
    1a1e:	70 91 0a 3a 	lds	r23, 0x3A0A	; 0x803a0a <currObj+0x1b>
    1a22:	40 e0       	ldi	r20, 0x00	; 0
    1a24:	80 91 fb 39 	lds	r24, 0x39FB	; 0x8039fb <currObj+0xc>
    1a28:	90 91 fc 39 	lds	r25, 0x39FC	; 0x8039fc <currObj+0xd>
    1a2c:	0d c0       	rjmp	.+26     	; 0x1a48 <CheckResponse+0x5e>
        } else {
            PrepareSending(reactStr[0][number], reactStr[1][number], reactStr[2][number]);
    1a2e:	d9 01       	movw	r26, r18
    1a30:	aa 0f       	add	r26, r26
    1a32:	bb 1f       	adc	r27, r27
    1a34:	a1 59       	subi	r26, 0x91	; 145
    1a36:	b6 4c       	sbci	r27, 0xC6	; 198
    1a38:	22 0f       	add	r18, r18
    1a3a:	33 1f       	adc	r19, r19
    1a3c:	f9 01       	movw	r30, r18
    1a3e:	e1 5d       	subi	r30, 0xD1	; 209
    1a40:	f6 4c       	sbci	r31, 0xC6	; 198
    1a42:	60 81       	ld	r22, Z
    1a44:	71 81       	ldd	r23, Z+1	; 0x01
    1a46:	4c 91       	ld	r20, X
    1a48:	72 dd       	rcall	.-1308   	; 0x152e <PrepareSending>
        }
        ++number;
    1a4a:	df 5f       	subi	r29, 0xFF	; 255
    1a4c:	d0 93 db 38 	sts	0x38DB, r29	; 0x8038db <number.3939>

        if (responseList == 0) {
    1a50:	c1 11       	cpse	r28, r1
    1a52:	0d c0       	rjmp	.+26     	; 0x1a6e <CheckResponse+0x84>
            effect = currObj.byteField[EFFECTS];
    1a54:	80 91 f3 39 	lds	r24, 0x39F3	; 0x8039f3 <currObj+0x4>
    1a58:	90 e0       	ldi	r25, 0x00	; 0
    1a5a:	80 93 2d 38 	sts	0x382D, r24	; 0x80382d <effect>
    1a5e:	90 93 2e 38 	sts	0x382E, r25	; 0x80382e <effect+0x1>
            RXCNT = 0;
    1a62:	1d ba       	out	0x1d, r1	; 29
            serRxDone = 0;
    1a64:	10 92 37 38 	sts	0x3837, r1	; 0x803837 <serRxDone>
            number = 0;
    1a68:	10 92 db 38 	sts	0x38DB, r1	; 0x8038db <number.3939>
    1a6c:	01 c0       	rjmp	.+2      	; 0x1a70 <CheckResponse+0x86>
            return 0;
        }
        return 1;
    1a6e:	c1 e0       	ldi	r28, 0x01	; 1
    }
    return 0;
}
    1a70:	8c 2f       	mov	r24, r28
    1a72:	df 91       	pop	r29
    1a74:	cf 91       	pop	r28
    1a76:	08 95       	ret

00001a78 <CheckInput>:

//User input check (and validation)
uint8_t CheckInput(uint8_t *data){
    1a78:	4f 92       	push	r4
    1a7a:	5f 92       	push	r5
    1a7c:	6f 92       	push	r6
    1a7e:	7f 92       	push	r7
    1a80:	8f 92       	push	r8
    1a82:	9f 92       	push	r9
    1a84:	af 92       	push	r10
    1a86:	bf 92       	push	r11
    1a88:	cf 92       	push	r12
    1a8a:	df 92       	push	r13
    1a8c:	ef 92       	push	r14
    1a8e:	ff 92       	push	r15
    1a90:	0f 93       	push	r16
    1a92:	1f 93       	push	r17
    1a94:	cf 93       	push	r28
    1a96:	df 93       	push	r29
    1a98:	cd b7       	in	r28, 0x3d	; 61
    1a9a:	de b7       	in	r29, 0x3e	; 62
    1a9c:	a1 97       	sbiw	r28, 0x21	; 33
    1a9e:	cd bf       	out	0x3d, r28	; 61
    1aa0:	de bf       	out	0x3e, r29	; 62
    1aa2:	8c 01       	movw	r16, r24
    
    //Load game data after reboot
    if (currDepth == 0xff) {
    1aa4:	80 91 27 38 	lds	r24, 0x3827	; 0x803827 <currDepth>
    1aa8:	8f 3f       	cpi	r24, 0xFF	; 255
    1aaa:	09 f0       	breq	.+2      	; 0x1aae <CheckInput+0x36>
    1aac:	57 c0       	rjmp	.+174    	; 0x1b5c <CheckInput+0xe4>
        //Load things from EEPROM
        EERead(0, &gameState[0], BOOTCHK);   //Load game status bits from EEPROM
    1aae:	44 e1       	ldi	r20, 0x14	; 20
    1ab0:	65 e3       	ldi	r22, 0x35	; 53
    1ab2:	7a e3       	ldi	r23, 0x3A	; 58
    1ab4:	80 e0       	ldi	r24, 0x00	; 0
    1ab6:	97 d9       	rcall	.-3282   	; 0xde6 <EERead>
    1ab8:	2e e6       	ldi	r18, 0x6E	; 110
    1aba:	f2 2e       	mov	r15, r18

        uint8_t idSet = 0;
    1abc:	e1 2c       	mov	r14, r1
        for (uint8_t x=0; x<4; ++x){
            idSet += ReadStatusBit(110+x);
    1abe:	8f 2d       	mov	r24, r15
    1ac0:	31 db       	rcall	.-2462   	; 0x1124 <ReadStatusBit>
    1ac2:	e8 0e       	add	r14, r24
    1ac4:	f3 94       	inc	r15
    if (currDepth == 0xff) {
        //Load things from EEPROM
        EERead(0, &gameState[0], BOOTCHK);   //Load game status bits from EEPROM

        uint8_t idSet = 0;
        for (uint8_t x=0; x<4; ++x){
    1ac6:	82 e7       	ldi	r24, 0x72	; 114
    1ac8:	f8 12       	cpse	r15, r24
    1aca:	f9 cf       	rjmp	.-14     	; 0x1abe <CheckInput+0x46>
            idSet += ReadStatusBit(110+x);
        }

        //Check if badge is reset(0 = cheated!) or new(3) or error(2)
        if (idSet != 1) {
    1acc:	e1 e0       	ldi	r30, 0x01	; 1
    1ace:	ee 16       	cp	r14, r30
            Reset();
    1ad0:	11 f0       	breq	.+4      	; 0x1ad6 <CheckInput+0x5e>
    1ad2:	7c db       	rcall	.-2312   	; 0x11cc <Reset>
        } else getID();
    1ad4:	01 c0       	rjmp	.+2      	; 0x1ad8 <CheckInput+0x60>
    1ad6:	6c db       	rcall	.-2344   	; 0x11b0 <getID>

        inventory[0] = (gameState[INVADDR]<<8|gameState[INVADDR+1]);
    1ad8:	80 91 45 3a 	lds	r24, 0x3A45	; 0x803a45 <gameState+0x10>
    1adc:	90 91 46 3a 	lds	r25, 0x3A46	; 0x803a46 <gameState+0x11>
    1ae0:	98 27       	eor	r25, r24
    1ae2:	89 27       	eor	r24, r25
    1ae4:	98 27       	eor	r25, r24
    1ae6:	80 93 31 38 	sts	0x3831, r24	; 0x803831 <inventory>
    1aea:	90 93 32 38 	sts	0x3832, r25	; 0x803832 <inventory+0x1>
        inventory[1] = (gameState[INVADDR+2]<<8|gameState[INVADDR+3]);
    1aee:	80 91 47 3a 	lds	r24, 0x3A47	; 0x803a47 <gameState+0x12>
    1af2:	90 91 48 3a 	lds	r25, 0x3A48	; 0x803a48 <gameState+0x13>
    1af6:	98 27       	eor	r25, r24
    1af8:	89 27       	eor	r24, r25
    1afa:	98 27       	eor	r25, r24
    1afc:	80 93 33 38 	sts	0x3833, r24	; 0x803833 <inventory+0x2>
    1b00:	90 93 34 38 	sts	0x3834, r25	; 0x803834 <inventory+0x3>
        SaveGameState();
    1b04:	9c da       	rcall	.-2760   	; 0x103e <SaveGameState>

        //Start at first location
        PopulateObject(route[0], &currObj);
    1b06:	6f ee       	ldi	r22, 0xEF	; 239
    1b08:	79 e3       	ldi	r23, 0x39	; 57
    1b0a:	80 91 af 39 	lds	r24, 0x39AF	; 0x8039af <route>
    1b0e:	90 91 b0 39 	lds	r25, 0x39B0	; 0x8039b0 <route+0x1>
    1b12:	c1 dd       	rcall	.-1150   	; 0x1696 <PopulateObject>
        currDepth = 0;
    1b14:	10 92 27 38 	sts	0x3827, r1	; 0x803827 <currDepth>

        //Play an effect if configured
        if ((effect < 0x0100) && (effect ^ currObj.byteField[EFFECTS])){
    1b18:	80 91 2d 38 	lds	r24, 0x382D	; 0x80382d <effect>
    1b1c:	90 91 2e 38 	lds	r25, 0x382E	; 0x80382e <effect+0x1>
    1b20:	8f 3f       	cpi	r24, 0xFF	; 255
    1b22:	91 05       	cpc	r25, r1
    1b24:	09 f0       	breq	.+2      	; 0x1b28 <CheckInput+0xb0>
    1b26:	d0 f4       	brcc	.+52     	; 0x1b5c <CheckInput+0xe4>
    1b28:	80 91 f3 39 	lds	r24, 0x39F3	; 0x8039f3 <currObj+0x4>
    1b2c:	90 e0       	ldi	r25, 0x00	; 0
    1b2e:	20 91 2d 38 	lds	r18, 0x382D	; 0x80382d <effect>
    1b32:	30 91 2e 38 	lds	r19, 0x382E	; 0x80382e <effect+0x1>
    1b36:	82 17       	cp	r24, r18
    1b38:	93 07       	cpc	r25, r19
    1b3a:	81 f0       	breq	.+32     	; 0x1b5c <CheckInput+0xe4>
            effect = currObj.byteField[EFFECTS];
    1b3c:	80 93 2d 38 	sts	0x382D, r24	; 0x80382d <effect>
    1b40:	90 93 2e 38 	sts	0x382E, r25	; 0x80382e <effect+0x1>
            auStart = ((effect&0xE0)>0);
    1b44:	80 91 2d 38 	lds	r24, 0x382D	; 0x80382d <effect>
    1b48:	90 91 2e 38 	lds	r25, 0x382E	; 0x80382e <effect+0x1>
    1b4c:	80 7e       	andi	r24, 0xE0	; 224
    1b4e:	99 27       	eor	r25, r25
    1b50:	21 e0       	ldi	r18, 0x01	; 1
    1b52:	89 2b       	or	r24, r25
    1b54:	09 f4       	brne	.+2      	; 0x1b58 <CheckInput+0xe0>
    1b56:	20 e0       	ldi	r18, 0x00	; 0
    1b58:	20 93 2c 38 	sts	0x382C, r18	; 0x80382c <auStart>
        }
    }

    if (serRxDone){
    1b5c:	80 91 37 38 	lds	r24, 0x3837	; 0x803837 <serRxDone>
    1b60:	88 23       	and	r24, r24
    1b62:	09 f4       	brne	.+2      	; 0x1b66 <CheckInput+0xee>
    1b64:	5f c2       	rjmp	.+1214   	; 0x2024 <CheckInput+0x5ac>

        //Special input requested from user by game
        if (specialInput[0]){
    1b66:	80 91 de 38 	lds	r24, 0x38DE	; 0x8038de <specialInput>
    1b6a:	88 23       	and	r24, r24
    1b6c:	09 f4       	brne	.+2      	; 0x1b70 <CheckInput+0xf8>
    1b6e:	57 c0       	rjmp	.+174    	; 0x1c1e <CheckInput+0x1a6>
            specialPassed = 0;
    1b70:	10 92 dd 38 	sts	0x38DD, r1	; 0x8038dd <specialPassed>
            data[0] = 'a';
    1b74:	81 e6       	ldi	r24, 0x61	; 97
    1b76:	f8 01       	movw	r30, r16
            
            //Normal code challenge
            if (StartsWith((uint8_t *)&serRx[0], &specialInput[0])) {
    1b78:	80 83       	st	Z, r24
    1b7a:	6e ed       	ldi	r22, 0xDE	; 222
    1b7c:	78 e3       	ldi	r23, 0x38	; 56
    1b7e:	89 e4       	ldi	r24, 0x49	; 73
    1b80:	9a e3       	ldi	r25, 0x3A	; 58
    1b82:	bb dc       	rcall	.-1674   	; 0x14fa <StartsWith>
    1b84:	f8 2e       	mov	r15, r24
    1b86:	88 23       	and	r24, r24
    1b88:	21 f0       	breq	.+8      	; 0x1b92 <CheckInput+0x11a>
                specialPassed = 1;
    1b8a:	81 e0       	ldi	r24, 0x01	; 1
    1b8c:	80 93 dd 38 	sts	0x38DD, r24	; 0x8038dd <specialPassed>
    1b90:	04 c0       	rjmp	.+8      	; 0x1b9a <CheckInput+0x122>
                //specialInput[0] = 0;
                //data[1] = 0;

            //Special challenge 1
            } else if ((specialInput[0] == '1')&&(specialInput[2] == 0)) {
    1b92:	80 91 de 38 	lds	r24, 0x38DE	; 0x8038de <specialInput>
    1b96:	81 33       	cpi	r24, 0x31	; 49
    1b98:	11 f0       	breq	.+4      	; 0x1b9e <CheckInput+0x126>
                responseList = 32;
                return 1;
            }
        } 
        //Data received, but not any of the commands above
        return 0;
    1b9a:	f1 2c       	mov	r15, r1
                specialPassed = 1;
                //specialInput[0] = 0;
                //data[1] = 0;

            //Special challenge 1
            } else if ((specialInput[0] == '1')&&(specialInput[2] == 0)) {
    1b9c:	45 c2       	rjmp	.+1162   	; 0x2028 <CheckInput+0x5b0>
    1b9e:	80 91 e0 38 	lds	r24, 0x38E0	; 0x8038e0 <specialInput+0x2>
    1ba2:	81 11       	cpse	r24, r1
                uint8_t inputLen = CleanInput((uint8_t *)&serRx[0]);
    1ba4:	fa cf       	rjmp	.-12     	; 0x1b9a <CheckInput+0x122>
    1ba6:	89 e4       	ldi	r24, 0x49	; 73
    1ba8:	9a e3       	ldi	r25, 0x3A	; 58
    1baa:	a8 de       	rcall	.-688    	; 0x18fc <CleanInput>
                specialPassed = 2;
    1bac:	92 e0       	ldi	r25, 0x02	; 2
    1bae:	90 93 dd 38 	sts	0x38DD, r25	; 0x8038dd <specialPassed>
                data[1] = 0;
    1bb2:	f8 01       	movw	r30, r16
    1bb4:	11 82       	std	Z+1, r1	; 0x01

                if (inputLen >= 2) {
    1bb6:	82 30       	cpi	r24, 0x02	; 2
    1bb8:	80 f3       	brcs	.-32     	; 0x1b9a <CheckInput+0x122>
                    if ((serRx[0] == '1')||(serRx[0] == '2')||(serRx[0] == '3')||(serRx[0] == '4')) {
    1bba:	80 91 49 3a 	lds	r24, 0x3A49	; 0x803a49 <serRx>
    1bbe:	81 33       	cpi	r24, 0x31	; 49
    1bc0:	61 f0       	breq	.+24     	; 0x1bda <CheckInput+0x162>
    1bc2:	80 91 49 3a 	lds	r24, 0x3A49	; 0x803a49 <serRx>
    1bc6:	82 33       	cpi	r24, 0x32	; 50
    1bc8:	41 f0       	breq	.+16     	; 0x1bda <CheckInput+0x162>
    1bca:	80 91 49 3a 	lds	r24, 0x3A49	; 0x803a49 <serRx>
    1bce:	83 33       	cpi	r24, 0x33	; 51
    1bd0:	21 f0       	breq	.+8      	; 0x1bda <CheckInput+0x162>
    1bd2:	80 91 49 3a 	lds	r24, 0x3A49	; 0x803a49 <serRx>
    1bd6:	84 33       	cpi	r24, 0x34	; 52
    1bd8:	01 f7       	brne	.-64     	; 0x1b9a <CheckInput+0x122>
                        serRx[1] |= 0x20;
    1bda:	80 91 4a 3a 	lds	r24, 0x3A4A	; 0x803a4a <serRx+0x1>
    1bde:	80 62       	ori	r24, 0x20	; 32
    1be0:	80 93 4a 3a 	sts	0x3A4A, r24	; 0x803a4a <serRx+0x1>
                        if ((serRx[1] == 'a')||(serRx[1] == 'e')||(serRx[1] == 'f')||(serRx[1] == 'w')) {
    1be4:	80 91 4a 3a 	lds	r24, 0x3A4A	; 0x803a4a <serRx+0x1>
    1be8:	81 36       	cpi	r24, 0x61	; 97
    1bea:	61 f0       	breq	.+24     	; 0x1c04 <CheckInput+0x18c>
    1bec:	80 91 4a 3a 	lds	r24, 0x3A4A	; 0x803a4a <serRx+0x1>
    1bf0:	85 36       	cpi	r24, 0x65	; 101
    1bf2:	41 f0       	breq	.+16     	; 0x1c04 <CheckInput+0x18c>
    1bf4:	80 91 4a 3a 	lds	r24, 0x3A4A	; 0x803a4a <serRx+0x1>
    1bf8:	86 36       	cpi	r24, 0x66	; 102
    1bfa:	21 f0       	breq	.+8      	; 0x1c04 <CheckInput+0x18c>
    1bfc:	80 91 4a 3a 	lds	r24, 0x3A4A	; 0x803a4a <serRx+0x1>
    1c00:	87 37       	cpi	r24, 0x77	; 119
    1c02:	59 f6       	brne	.-106    	; 0x1b9a <CheckInput+0x122>
                            data[1] = specialInput[1]+0x11;
    1c04:	80 91 df 38 	lds	r24, 0x38DF	; 0x8038df <specialInput+0x1>
    1c08:	8f 5e       	subi	r24, 0xEF	; 239
    1c0a:	f8 01       	movw	r30, r16
    1c0c:	81 83       	std	Z+1, r24	; 0x01
                            data[2] = serRx[0];
    1c0e:	80 91 49 3a 	lds	r24, 0x3A49	; 0x803a49 <serRx>
    1c12:	82 83       	std	Z+2, r24	; 0x02
                            data[3] = serRx[1];
    1c14:	80 91 4a 3a 	lds	r24, 0x3A4A	; 0x803a4a <serRx+0x1>
    1c18:	83 83       	std	Z+3, r24	; 0x03
                            data[4] = 0;
    1c1a:	14 82       	std	Z+4, r1	; 0x04
    1c1c:	05 c2       	rjmp	.+1034   	; 0x2028 <CheckInput+0x5b0>
        
        //Normal input
        } else {

            //Change status bit
            if ((serRx[0] == '#')&&(RXCNT == 6)){
    1c1e:	80 91 49 3a 	lds	r24, 0x3A49	; 0x803a49 <serRx>
    1c22:	83 32       	cpi	r24, 0x23	; 35
    1c24:	81 f5       	brne	.+96     	; 0x1c86 <CheckInput+0x20e>
    1c26:	8d b3       	in	r24, 0x1d	; 29
    1c28:	86 30       	cpi	r24, 0x06	; 6
    1c2a:	69 f5       	brne	.+90     	; 0x1c86 <CheckInput+0x20e>
    1c2c:	81 e0       	ldi	r24, 0x01	; 1
    1c2e:	90 e0       	ldi	r25, 0x00	; 0
    1c30:	10 e0       	ldi	r17, 0x00	; 0
                uint8_t bitNr = 0;

                for (uint8_t x=1; x<4; ++x) {
                    serRx[x] -= '0';
    1c32:	fc 01       	movw	r30, r24
    1c34:	e7 5b       	subi	r30, 0xB7	; 183
    1c36:	f5 4c       	sbci	r31, 0xC5	; 197
    1c38:	20 81       	ld	r18, Z
    1c3a:	20 53       	subi	r18, 0x30	; 48
    1c3c:	20 83       	st	Z, r18
                    bitNr *= 10;
    1c3e:	11 0f       	add	r17, r17
    1c40:	21 2f       	mov	r18, r17
    1c42:	22 0f       	add	r18, r18
    1c44:	22 0f       	add	r18, r18
    1c46:	12 0f       	add	r17, r18
                    if (serRx[1] > 2) break;
    1c48:	20 91 4a 3a 	lds	r18, 0x3A4A	; 0x803a4a <serRx+0x1>
    1c4c:	23 30       	cpi	r18, 0x03	; 3
    1c4e:	48 f4       	brcc	.+18     	; 0x1c62 <CheckInput+0x1ea>
                    if (serRx[x] < 10) {
    1c50:	20 81       	ld	r18, Z
    1c52:	2a 30       	cpi	r18, 0x0A	; 10
    1c54:	b0 f4       	brcc	.+44     	; 0x1c82 <CheckInput+0x20a>
                        bitNr += serRx[x];
    1c56:	20 81       	ld	r18, Z
    1c58:	12 0f       	add	r17, r18
    1c5a:	01 96       	adiw	r24, 0x01	; 1

            //Change status bit
            if ((serRx[0] == '#')&&(RXCNT == 6)){
                uint8_t bitNr = 0;

                for (uint8_t x=1; x<4; ++x) {
    1c5c:	84 30       	cpi	r24, 0x04	; 4
    1c5e:	91 05       	cpc	r25, r1
    1c60:	41 f7       	brne	.-48     	; 0x1c32 <CheckInput+0x1ba>
                        continue;
                    }
                    bitNr = 0;
                    break;
                }
                if ((bitNr)&&(bitNr!=128)) {
    1c62:	81 2f       	mov	r24, r17
    1c64:	8f 77       	andi	r24, 0x7F	; 127
    1c66:	69 f0       	breq	.+26     	; 0x1c82 <CheckInput+0x20a>
                    if (Cheat(255-bitNr, serRx[4]<<8|serRx[5])) UpdateState(bitNr);
    1c68:	80 91 4d 3a 	lds	r24, 0x3A4D	; 0x803a4d <serRx+0x4>
    1c6c:	60 91 4e 3a 	lds	r22, 0x3A4E	; 0x803a4e <serRx+0x5>
    1c70:	70 e0       	ldi	r23, 0x00	; 0
    1c72:	78 2b       	or	r23, r24
    1c74:	81 2f       	mov	r24, r17
    1c76:	80 95       	com	r24
    1c78:	a0 db       	rcall	.-2240   	; 0x13ba <Cheat>
    1c7a:	88 23       	and	r24, r24
    1c7c:	11 f0       	breq	.+4      	; 0x1c82 <CheckInput+0x20a>
    1c7e:	81 2f       	mov	r24, r17
    1c80:	7f da       	rcall	.-2818   	; 0x1180 <UpdateState>
                }
                responseList = SetStandardResponse(0);
    1c82:	80 e0       	ldi	r24, 0x00	; 0
    1c84:	50 c0       	rjmp	.+160    	; 0x1d26 <CheckInput+0x2ae>
    1c86:	d8 01       	movw	r26, r16
    1c88:	80 e0       	ldi	r24, 0x00	; 0
    1c8a:	90 e0       	ldi	r25, 0x00	; 0
                return 1;            
            }
            
            //Read up to the \0 character and convert to lower case.
            for (uint8_t x=0; x<RXLEN; ++x){
                if ((serRx[x]<'A')||(serRx[x]>'Z')) data[x]=serRx[x]; else data[x]=serRx[x]|0x20;
    1c8c:	fc 01       	movw	r30, r24
    1c8e:	e7 5b       	subi	r30, 0xB7	; 183
    1c90:	f5 4c       	sbci	r31, 0xC5	; 197
    1c92:	20 81       	ld	r18, Z
    1c94:	21 34       	cpi	r18, 0x41	; 65
    1c96:	18 f0       	brcs	.+6      	; 0x1c9e <CheckInput+0x226>
    1c98:	20 81       	ld	r18, Z
    1c9a:	2b 35       	cpi	r18, 0x5B	; 91
    1c9c:	10 f0       	brcs	.+4      	; 0x1ca2 <CheckInput+0x22a>
    1c9e:	20 81       	ld	r18, Z
    1ca0:	02 c0       	rjmp	.+4      	; 0x1ca6 <CheckInput+0x22e>
    1ca2:	20 81       	ld	r18, Z
    1ca4:	20 62       	ori	r18, 0x20	; 32
    1ca6:	2c 93       	st	X, r18
                if (serRx[x] == 0) {
    1ca8:	20 81       	ld	r18, Z
    1caa:	21 11       	cpse	r18, r1
    1cac:	05 c0       	rjmp	.+10     	; 0x1cb8 <CheckInput+0x240>
                    data[x] = 0;
    1cae:	f8 01       	movw	r30, r16
    1cb0:	e8 0f       	add	r30, r24
    1cb2:	f1 1d       	adc	r31, r1
    1cb4:	10 82       	st	Z, r1
                    break;
    1cb6:	05 c0       	rjmp	.+10     	; 0x1cc2 <CheckInput+0x24a>
    1cb8:	01 96       	adiw	r24, 0x01	; 1
    1cba:	11 96       	adiw	r26, 0x01	; 1
                responseList = SetStandardResponse(0);
                return 1;            
            }
            
            //Read up to the \0 character and convert to lower case.
            for (uint8_t x=0; x<RXLEN; ++x){
    1cbc:	81 34       	cpi	r24, 0x41	; 65
    1cbe:	91 05       	cpc	r25, r1
    1cc0:	29 f7       	brne	.-54     	; 0x1c8c <CheckInput+0x214>
                    break;
                }
            }

            //No text
            if (serRx[0] == 0){
    1cc2:	80 91 49 3a 	lds	r24, 0x3A49	; 0x803a49 <serRx>
                data[0] = 0;
    1cc6:	f8 01       	movw	r30, r16
                    break;
                }
            }

            //No text
            if (serRx[0] == 0){
    1cc8:	81 11       	cpse	r24, r1
    1cca:	05 c0       	rjmp	.+10     	; 0x1cd6 <CheckInput+0x25e>
                data[0] = 0;
    1ccc:	10 82       	st	Z, r1
                RXCNT = 0;
    1cce:	1d ba       	out	0x1d, r1	; 29
                serRxDone = 0;
    1cd0:	10 92 37 38 	sts	0x3837, r1	; 0x803837 <serRxDone>
    1cd4:	a7 c1       	rjmp	.+846    	; 0x2024 <CheckInput+0x5ac>
                return 1;
            }

            //Help text
            if ((data[0] == '?')||(data[0] == 'h')){
    1cd6:	80 81       	ld	r24, Z
    1cd8:	8f 33       	cpi	r24, 0x3F	; 63
    1cda:	11 f0       	breq	.+4      	; 0x1ce0 <CheckInput+0x268>
    1cdc:	88 36       	cpi	r24, 0x68	; 104
    1cde:	39 f5       	brne	.+78     	; 0x1d2e <CheckInput+0x2b6>
    return 0;
}

//
void SetResponse(uint8_t number, uint16_t address, uint16_t length, uint8_t type){
    reactStr[0][number]=address;
    1ce0:	8b e5       	ldi	r24, 0x5B	; 91
    1ce2:	9a e7       	ldi	r25, 0x7A	; 122
    1ce4:	80 93 ef 38 	sts	0x38EF, r24	; 0x8038ef <reactStr>
    1ce8:	90 93 f0 38 	sts	0x38F0, r25	; 0x8038f0 <reactStr+0x1>
    reactStr[1][number]=length;
    1cec:	84 e0       	ldi	r24, 0x04	; 4
    1cee:	90 e0       	ldi	r25, 0x00	; 0
    1cf0:	80 93 2f 39 	sts	0x392F, r24	; 0x80392f <reactStr+0x40>
    1cf4:	90 93 30 39 	sts	0x3930, r25	; 0x803930 <reactStr+0x41>
    reactStr[2][number]=type;
    1cf8:	81 e0       	ldi	r24, 0x01	; 1
    1cfa:	90 e0       	ldi	r25, 0x00	; 0
    1cfc:	80 93 6f 39 	sts	0x396F, r24	; 0x80396f <reactStr+0x80>
    1d00:	90 93 70 39 	sts	0x3970, r25	; 0x803970 <reactStr+0x81>
    return 0;
}

//
void SetResponse(uint8_t number, uint16_t address, uint16_t length, uint8_t type){
    reactStr[0][number]=address;
    1d04:	23 e9       	ldi	r18, 0x93	; 147
    1d06:	3b e7       	ldi	r19, 0x7B	; 123
    1d08:	20 93 f1 38 	sts	0x38F1, r18	; 0x8038f1 <reactStr+0x2>
    1d0c:	30 93 f2 38 	sts	0x38F2, r19	; 0x8038f2 <reactStr+0x3>
    reactStr[1][number]=length;
    1d10:	2d e6       	ldi	r18, 0x6D	; 109
    1d12:	34 e0       	ldi	r19, 0x04	; 4
    1d14:	20 93 31 39 	sts	0x3931, r18	; 0x803931 <reactStr+0x42>
    1d18:	30 93 32 39 	sts	0x3932, r19	; 0x803932 <reactStr+0x43>
    reactStr[2][number]=type;
    1d1c:	80 93 71 39 	sts	0x3971, r24	; 0x803971 <reactStr+0x82>
    1d20:	90 93 72 39 	sts	0x3972, r25	; 0x803972 <reactStr+0x83>

            //Help text
            if ((data[0] == '?')||(data[0] == 'h')){
                SetResponse(0, A_LF, 4, TEASER);
                SetResponse(1, A_HELP, L_HELP, TEASER);
                responseList = SetStandardResponse(2);
    1d24:	82 e0       	ldi	r24, 0x02	; 2
    1d26:	3b dc       	rcall	.-1930   	; 0x159e <SetStandardResponse>
    1d28:	80 93 ee 38 	sts	0x38EE, r24	; 0x8038ee <responseList>
    1d2c:	7b c1       	rjmp	.+758    	; 0x2024 <CheckInput+0x5ac>
                return 1;
            }        
        
            //Alphabet text
            if (data[0] == 'a'){
    1d2e:	81 36       	cpi	r24, 0x61	; 97
    1d30:	d9 f4       	brne	.+54     	; 0x1d68 <CheckInput+0x2f0>
    return 0;
}

//
void SetResponse(uint8_t number, uint16_t address, uint16_t length, uint8_t type){
    reactStr[0][number]=address;
    1d32:	8b e5       	ldi	r24, 0x5B	; 91
    1d34:	9a e7       	ldi	r25, 0x7A	; 122
    1d36:	80 93 ef 38 	sts	0x38EF, r24	; 0x8038ef <reactStr>
    1d3a:	90 93 f0 38 	sts	0x38F0, r25	; 0x8038f0 <reactStr+0x1>
    reactStr[1][number]=length;
    1d3e:	84 e0       	ldi	r24, 0x04	; 4
    1d40:	90 e0       	ldi	r25, 0x00	; 0
    1d42:	80 93 2f 39 	sts	0x392F, r24	; 0x80392f <reactStr+0x40>
    1d46:	90 93 30 39 	sts	0x3930, r25	; 0x803930 <reactStr+0x41>
    reactStr[2][number]=type;
    1d4a:	81 e0       	ldi	r24, 0x01	; 1
    1d4c:	90 e0       	ldi	r25, 0x00	; 0
    1d4e:	80 93 6f 39 	sts	0x396F, r24	; 0x80396f <reactStr+0x80>
    1d52:	90 93 70 39 	sts	0x3970, r25	; 0x803970 <reactStr+0x81>
    return 0;
}

//
void SetResponse(uint8_t number, uint16_t address, uint16_t length, uint8_t type){
    reactStr[0][number]=address;
    1d56:	2e e6       	ldi	r18, 0x6E	; 110
    1d58:	3a e7       	ldi	r19, 0x7A	; 122
    1d5a:	20 93 f1 38 	sts	0x38F1, r18	; 0x8038f1 <reactStr+0x2>
    1d5e:	30 93 f2 38 	sts	0x38F2, r19	; 0x8038f2 <reactStr+0x3>
    reactStr[1][number]=length;
    1d62:	25 e2       	ldi	r18, 0x25	; 37
    1d64:	31 e0       	ldi	r19, 0x01	; 1
    1d66:	d6 cf       	rjmp	.-84     	; 0x1d14 <CheckInput+0x29c>
                responseList = SetStandardResponse(2);
                return 1;
            }

            //Whoami text
            if (data[0] == 'w'){
    1d68:	87 37       	cpi	r24, 0x77	; 119
    1d6a:	09 f0       	breq	.+2      	; 0x1d6e <CheckInput+0x2f6>
    1d6c:	6e c0       	rjmp	.+220    	; 0x1e4a <CheckInput+0x3d2>
    return 0;
}

//
void SetResponse(uint8_t number, uint16_t address, uint16_t length, uint8_t type){
    reactStr[0][number]=address;
    1d6e:	8b e5       	ldi	r24, 0x5B	; 91
    1d70:	9a e7       	ldi	r25, 0x7A	; 122
    1d72:	80 93 ef 38 	sts	0x38EF, r24	; 0x8038ef <reactStr>
    1d76:	90 93 f0 38 	sts	0x38F0, r25	; 0x8038f0 <reactStr+0x1>
    reactStr[1][number]=length;
    1d7a:	84 e0       	ldi	r24, 0x04	; 4
    1d7c:	90 e0       	ldi	r25, 0x00	; 0
    1d7e:	80 93 2f 39 	sts	0x392F, r24	; 0x80392f <reactStr+0x40>
    1d82:	90 93 30 39 	sts	0x3930, r25	; 0x803930 <reactStr+0x41>
    reactStr[2][number]=type;
    1d86:	21 e0       	ldi	r18, 0x01	; 1
    1d88:	30 e0       	ldi	r19, 0x00	; 0
    1d8a:	20 93 6f 39 	sts	0x396F, r18	; 0x80396f <reactStr+0x80>
    1d8e:	30 93 70 39 	sts	0x3970, r19	; 0x803970 <reactStr+0x81>
    return 0;
}

//
void SetResponse(uint8_t number, uint16_t address, uint16_t length, uint8_t type){
    reactStr[0][number]=address;
    1d92:	8b ec       	ldi	r24, 0xCB	; 203
    1d94:	96 e7       	ldi	r25, 0x76	; 118
    1d96:	80 93 f1 38 	sts	0x38F1, r24	; 0x8038f1 <reactStr+0x2>
    1d9a:	90 93 f2 38 	sts	0x38F2, r25	; 0x8038f2 <reactStr+0x3>
    reactStr[1][number]=length;
    1d9e:	82 e1       	ldi	r24, 0x12	; 18
    1da0:	90 e0       	ldi	r25, 0x00	; 0
    1da2:	80 93 31 39 	sts	0x3931, r24	; 0x803931 <reactStr+0x42>
    1da6:	90 93 32 39 	sts	0x3932, r25	; 0x803932 <reactStr+0x43>
    reactStr[2][number]=type;
    1daa:	20 93 71 39 	sts	0x3971, r18	; 0x803971 <reactStr+0x82>
    1dae:	30 93 72 39 	sts	0x3972, r19	; 0x803972 <reactStr+0x83>

            //Whoami text
            if (data[0] == 'w'){
                SetResponse(0, A_LF, 4, TEASER);
                SetResponse(1, A_HELLO, L_HELLO, TEASER);
                if (whoami == 1) {
    1db2:	80 91 30 38 	lds	r24, 0x3830	; 0x803830 <whoami>
    1db6:	81 30       	cpi	r24, 0x01	; 1
    1db8:	19 f4       	brne	.+6      	; 0x1dc0 <CheckInput+0x348>
    return 0;
}

//
void SetResponse(uint8_t number, uint16_t address, uint16_t length, uint8_t type){
    reactStr[0][number]=address;
    1dba:	85 ec       	ldi	r24, 0xC5	; 197
    1dbc:	96 e7       	ldi	r25, 0x76	; 118
    1dbe:	0f c0       	rjmp	.+30     	; 0x1dde <CheckInput+0x366>
            if (data[0] == 'w'){
                SetResponse(0, A_LF, 4, TEASER);
                SetResponse(1, A_HELLO, L_HELLO, TEASER);
                if (whoami == 1) {
                    SetResponse(2, A_ANUBIS, L_ANUBIS, TEASER);
                } else if (whoami == 2) {
    1dc0:	82 30       	cpi	r24, 0x02	; 2
    1dc2:	49 f4       	brne	.+18     	; 0x1dd6 <CheckInput+0x35e>
    return 0;
}

//
void SetResponse(uint8_t number, uint16_t address, uint16_t length, uint8_t type){
    reactStr[0][number]=address;
    1dc4:	82 ec       	ldi	r24, 0xC2	; 194
    1dc6:	96 e7       	ldi	r25, 0x76	; 118
    1dc8:	80 93 f3 38 	sts	0x38F3, r24	; 0x8038f3 <reactStr+0x4>
    1dcc:	90 93 f4 38 	sts	0x38F4, r25	; 0x8038f4 <reactStr+0x5>
    reactStr[1][number]=length;
    1dd0:	83 e0       	ldi	r24, 0x03	; 3
    1dd2:	90 e0       	ldi	r25, 0x00	; 0
    1dd4:	1e c0       	rjmp	.+60     	; 0x1e12 <CheckInput+0x39a>
                SetResponse(1, A_HELLO, L_HELLO, TEASER);
                if (whoami == 1) {
                    SetResponse(2, A_ANUBIS, L_ANUBIS, TEASER);
                } else if (whoami == 2) {
                    SetResponse(2, A_BES, L_BES, TEASER);
                } else if (whoami == 3) {
    1dd6:	83 30       	cpi	r24, 0x03	; 3
    1dd8:	49 f4       	brne	.+18     	; 0x1dec <CheckInput+0x374>
    return 0;
}

//
void SetResponse(uint8_t number, uint16_t address, uint16_t length, uint8_t type){
    reactStr[0][number]=address;
    1dda:	8c eb       	ldi	r24, 0xBC	; 188
    1ddc:	96 e7       	ldi	r25, 0x76	; 118
    1dde:	80 93 f3 38 	sts	0x38F3, r24	; 0x8038f3 <reactStr+0x4>
    1de2:	90 93 f4 38 	sts	0x38F4, r25	; 0x8038f4 <reactStr+0x5>
    reactStr[1][number]=length;
    1de6:	86 e0       	ldi	r24, 0x06	; 6
    1de8:	90 e0       	ldi	r25, 0x00	; 0
    1dea:	13 c0       	rjmp	.+38     	; 0x1e12 <CheckInput+0x39a>
                    SetResponse(2, A_ANUBIS, L_ANUBIS, TEASER);
                } else if (whoami == 2) {
                    SetResponse(2, A_BES, L_BES, TEASER);
                } else if (whoami == 3) {
                    SetResponse(2, A_KHONSU, L_KHONSU, TEASER);
                } else if (whoami == 4) {
    1dec:	84 30       	cpi	r24, 0x04	; 4
    1dee:	49 f4       	brne	.+18     	; 0x1e02 <CheckInput+0x38a>
    return 0;
}

//
void SetResponse(uint8_t number, uint16_t address, uint16_t length, uint8_t type){
    reactStr[0][number]=address;
    1df0:	87 eb       	ldi	r24, 0xB7	; 183
    1df2:	96 e7       	ldi	r25, 0x76	; 118
    1df4:	80 93 f3 38 	sts	0x38F3, r24	; 0x8038f3 <reactStr+0x4>
    1df8:	90 93 f4 38 	sts	0x38F4, r25	; 0x8038f4 <reactStr+0x5>
    reactStr[1][number]=length;
    1dfc:	85 e0       	ldi	r24, 0x05	; 5
    1dfe:	90 e0       	ldi	r25, 0x00	; 0
    1e00:	08 c0       	rjmp	.+16     	; 0x1e12 <CheckInput+0x39a>
    return 0;
}

//
void SetResponse(uint8_t number, uint16_t address, uint16_t length, uint8_t type){
    reactStr[0][number]=address;
    1e02:	80 e4       	ldi	r24, 0x40	; 64
    1e04:	96 e7       	ldi	r25, 0x76	; 118
    1e06:	80 93 f3 38 	sts	0x38F3, r24	; 0x8038f3 <reactStr+0x4>
    1e0a:	90 93 f4 38 	sts	0x38F4, r25	; 0x8038f4 <reactStr+0x5>
    reactStr[1][number]=length;
    1e0e:	82 e4       	ldi	r24, 0x42	; 66
    1e10:	90 e0       	ldi	r25, 0x00	; 0
    1e12:	80 93 33 39 	sts	0x3933, r24	; 0x803933 <reactStr+0x44>
    1e16:	90 93 34 39 	sts	0x3934, r25	; 0x803934 <reactStr+0x45>
    reactStr[2][number]=type;
    1e1a:	20 93 73 39 	sts	0x3973, r18	; 0x803973 <reactStr+0x84>
    1e1e:	30 93 74 39 	sts	0x3974, r19	; 0x803974 <reactStr+0x85>
    return 0;
}

//
void SetResponse(uint8_t number, uint16_t address, uint16_t length, uint8_t type){
    reactStr[0][number]=address;
    1e22:	8d e9       	ldi	r24, 0x9D	; 157
    1e24:	96 e7       	ldi	r25, 0x76	; 118
    1e26:	80 93 f5 38 	sts	0x38F5, r24	; 0x8038f5 <reactStr+0x6>
    1e2a:	90 93 f6 38 	sts	0x38F6, r25	; 0x8038f6 <reactStr+0x7>
    reactStr[1][number]=length;
    1e2e:	8a e1       	ldi	r24, 0x1A	; 26
    1e30:	90 e0       	ldi	r25, 0x00	; 0
    1e32:	80 93 35 39 	sts	0x3935, r24	; 0x803935 <reactStr+0x46>
    1e36:	90 93 36 39 	sts	0x3936, r25	; 0x803936 <reactStr+0x47>
    reactStr[2][number]=type;
    1e3a:	81 e0       	ldi	r24, 0x01	; 1
    1e3c:	90 e0       	ldi	r25, 0x00	; 0
    1e3e:	80 93 75 39 	sts	0x3975, r24	; 0x803975 <reactStr+0x86>
    1e42:	90 93 76 39 	sts	0x3976, r25	; 0x803976 <reactStr+0x87>
                    SetResponse(2, A_THOTH, L_THOTH, TEASER);
                } else {
                    SetResponse(2, A_ERROR, L_ERROR, TEASER);
                }
                SetResponse(3, A_PLEASED, L_PLEASED, TEASER);
                responseList = SetStandardResponse(4);
    1e46:	84 e0       	ldi	r24, 0x04	; 4
    1e48:	6e cf       	rjmp	.-292    	; 0x1d26 <CheckInput+0x2ae>
                return 1;
            }

            //Quit text
            if (data[0] == 'q'){
    1e4a:	81 37       	cpi	r24, 0x71	; 113
    1e4c:	d9 f4       	brne	.+54     	; 0x1e84 <CheckInput+0x40c>
    return 0;
}

//
void SetResponse(uint8_t number, uint16_t address, uint16_t length, uint8_t type){
    reactStr[0][number]=address;
    1e4e:	8b e5       	ldi	r24, 0x5B	; 91
    1e50:	9a e7       	ldi	r25, 0x7A	; 122
    1e52:	80 93 ef 38 	sts	0x38EF, r24	; 0x8038ef <reactStr>
    1e56:	90 93 f0 38 	sts	0x38F0, r25	; 0x8038f0 <reactStr+0x1>
    reactStr[1][number]=length;
    1e5a:	84 e0       	ldi	r24, 0x04	; 4
    1e5c:	90 e0       	ldi	r25, 0x00	; 0
    1e5e:	80 93 2f 39 	sts	0x392F, r24	; 0x80392f <reactStr+0x40>
    1e62:	90 93 30 39 	sts	0x3930, r25	; 0x803930 <reactStr+0x41>
    reactStr[2][number]=type;
    1e66:	81 e0       	ldi	r24, 0x01	; 1
    1e68:	90 e0       	ldi	r25, 0x00	; 0
    1e6a:	80 93 6f 39 	sts	0x396F, r24	; 0x80396f <reactStr+0x80>
    1e6e:	90 93 70 39 	sts	0x3970, r25	; 0x803970 <reactStr+0x81>
    return 0;
}

//
void SetResponse(uint8_t number, uint16_t address, uint16_t length, uint8_t type){
    reactStr[0][number]=address;
    1e72:	23 e0       	ldi	r18, 0x03	; 3
    1e74:	3a e7       	ldi	r19, 0x7A	; 122
    1e76:	20 93 f1 38 	sts	0x38F1, r18	; 0x8038f1 <reactStr+0x2>
    1e7a:	30 93 f2 38 	sts	0x38F2, r19	; 0x8038f2 <reactStr+0x3>
    reactStr[1][number]=length;
    1e7e:	24 e5       	ldi	r18, 0x54	; 84
                responseList = SetStandardResponse(2);
                return 1;
            }

            //Fake cheat = reset badge!
            if (StartsWith(&data[0], "iddqd")){
    1e80:	30 e0       	ldi	r19, 0x00	; 0
    1e82:	48 cf       	rjmp	.-368    	; 0x1d14 <CheckInput+0x29c>
    1e84:	60 e2       	ldi	r22, 0x20	; 32
    1e86:	73 eb       	ldi	r23, 0xB3	; 179
    1e88:	c8 01       	movw	r24, r16
    1e8a:	37 db       	rcall	.-2450   	; 0x14fa <StartsWith>
    1e8c:	88 23       	and	r24, r24
            
                //Reset game data by wiping the UUID bits
                for (uint8_t x=0; x<4; ++x){
                    WriteStatusBit(110+x, 0);
    1e8e:	e9 f0       	breq	.+58     	; 0x1eca <CheckInput+0x452>
    1e90:	1e e6       	ldi	r17, 0x6E	; 110
    1e92:	60 e0       	ldi	r22, 0x00	; 0
    1e94:	81 2f       	mov	r24, r17
    1e96:	5a d9       	rcall	.-3404   	; 0x114c <WriteStatusBit>

            //Fake cheat = reset badge!
            if (StartsWith(&data[0], "iddqd")){
            
                //Reset game data by wiping the UUID bits
                for (uint8_t x=0; x<4; ++x){
    1e98:	1f 5f       	subi	r17, 0xFF	; 255
    1e9a:	12 37       	cpi	r17, 0x72	; 114
                    WriteStatusBit(110+x, 0);
                }
                SaveGameState();
    1e9c:	d1 f7       	brne	.-12     	; 0x1e92 <CheckInput+0x41a>
    1e9e:	cf d8       	rcall	.-3682   	; 0x103e <SaveGameState>

                uint8_t cheat[] = "Cheater! Contact badge team... ";
    1ea0:	80 e2       	ldi	r24, 0x20	; 32
    1ea2:	e3 e6       	ldi	r30, 0x63	; 99
    1ea4:	f3 eb       	ldi	r31, 0xB3	; 179
    1ea6:	de 01       	movw	r26, r28
    1ea8:	11 96       	adiw	r26, 0x01	; 1
    1eaa:	01 90       	ld	r0, Z+
    1eac:	0d 92       	st	X+, r0
    1eae:	8a 95       	dec	r24
    1eb0:	e1 f7       	brne	.-8      	; 0x1eaa <CheckInput+0x432>
                SerSpeed(60);
    1eb2:	8c e3       	ldi	r24, 0x3C	; 60
    1eb4:	0e 94 3c 07 	call	0xe78	; 0xe78 <SerSpeed>
                while(1){
                    if (serTxDone) SerSend(&cheat[0]);
    1eb8:	80 91 08 38 	lds	r24, 0x3808	; 0x803808 <serTxDone>
    1ebc:	88 23       	and	r24, r24
    1ebe:	e1 f3       	breq	.-8      	; 0x1eb8 <CheckInput+0x440>
    1ec0:	ce 01       	movw	r24, r28
    1ec2:	01 96       	adiw	r24, 0x01	; 1
    1ec4:	0e 94 2b 07 	call	0xe56	; 0xe56 <SerSend>
                }
            }
            
            //Cheat reset (Quote from: Donald E. Westlake)
            if (StartsWith(&data[0], "the trouble with real life is, there's no reset button")){
    1ec8:	f7 cf       	rjmp	.-18     	; 0x1eb8 <CheckInput+0x440>
    1eca:	66 e2       	ldi	r22, 0x26	; 38
    1ecc:	73 eb       	ldi	r23, 0xB3	; 179
    1ece:	c8 01       	movw	r24, r16
    1ed0:	14 db       	rcall	.-2520   	; 0x14fa <StartsWith>
    1ed2:	68 2e       	mov	r6, r24
    1ed4:	88 23       	and	r24, r24
    1ed6:	51 f1       	breq	.+84     	; 0x1f2c <CheckInput+0x4b4>
                
                //Reset cheat data by resetting the EEPROM bytes
                uint8_t empty=0xff;
    1ed8:	8f ef       	ldi	r24, 0xFF	; 255
    1eda:	89 a3       	std	Y+33, r24	; 0x21
                for (uint8_t x=0; x<MAX_CHEATS; ++x){
                    EEWrite(CHEATS+x, &empty, 1);
    1edc:	18 e1       	ldi	r17, 0x18	; 24
    1ede:	41 e0       	ldi	r20, 0x01	; 1
    1ee0:	be 01       	movw	r22, r28
    1ee2:	6f 5d       	subi	r22, 0xDF	; 223
    1ee4:	7f 4f       	sbci	r23, 0xFF	; 255
    1ee6:	81 2f       	mov	r24, r17
    1ee8:	0e 94 03 07 	call	0xe06	; 0xe06 <EEWrite>
            //Cheat reset (Quote from: Donald E. Westlake)
            if (StartsWith(&data[0], "the trouble with real life is, there's no reset button")){
                
                //Reset cheat data by resetting the EEPROM bytes
                uint8_t empty=0xff;
                for (uint8_t x=0; x<MAX_CHEATS; ++x){
    1eec:	1f 5f       	subi	r17, 0xFF	; 255
    1eee:	10 32       	cpi	r17, 0x20	; 32
                    EEWrite(CHEATS+x, &empty, 1);
                }
                //Reset game data by wiping the UUID bits
                for (uint8_t x=0; x<4; ++x){
                    WriteStatusBit(110+x, 0);
    1ef0:	b1 f7       	brne	.-20     	; 0x1ede <CheckInput+0x466>
    1ef2:	1e e6       	ldi	r17, 0x6E	; 110
    1ef4:	60 e0       	ldi	r22, 0x00	; 0
    1ef6:	81 2f       	mov	r24, r17
    1ef8:	29 d9       	rcall	.-3502   	; 0x114c <WriteStatusBit>
                uint8_t empty=0xff;
                for (uint8_t x=0; x<MAX_CHEATS; ++x){
                    EEWrite(CHEATS+x, &empty, 1);
                }
                //Reset game data by wiping the UUID bits
                for (uint8_t x=0; x<4; ++x){
    1efa:	1f 5f       	subi	r17, 0xFF	; 255
    1efc:	12 37       	cpi	r17, 0x72	; 114
                    WriteStatusBit(110+x, 0);
                }
                
                SaveGameState();
    1efe:	d1 f7       	brne	.-12     	; 0x1ef4 <CheckInput+0x47c>
    1f00:	9e d8       	rcall	.-3780   	; 0x103e <SaveGameState>

                uint8_t cheat[] = "Reset please! ";
    1f02:	8f e0       	ldi	r24, 0x0F	; 15
    1f04:	e3 e8       	ldi	r30, 0x83	; 131
    1f06:	f3 eb       	ldi	r31, 0xB3	; 179
    1f08:	de 01       	movw	r26, r28
    1f0a:	11 96       	adiw	r26, 0x01	; 1
    1f0c:	01 90       	ld	r0, Z+
    1f0e:	0d 92       	st	X+, r0
    1f10:	8a 95       	dec	r24
                SerSpeed(60);
    1f12:	e1 f7       	brne	.-8      	; 0x1f0c <CheckInput+0x494>
    1f14:	8c e3       	ldi	r24, 0x3C	; 60
    1f16:	0e 94 3c 07 	call	0xe78	; 0xe78 <SerSpeed>
                while(1){
                    if (serTxDone) SerSend(&cheat[0]);
    1f1a:	80 91 08 38 	lds	r24, 0x3808	; 0x803808 <serTxDone>
    1f1e:	88 23       	and	r24, r24
    1f20:	e1 f3       	breq	.-8      	; 0x1f1a <CheckInput+0x4a2>
    1f22:	ce 01       	movw	r24, r28
    1f24:	01 96       	adiw	r24, 0x01	; 1
    1f26:	0e 94 2b 07 	call	0xe56	; 0xe56 <SerSend>
                }
            }
            if (StartsWith(&data[0], "cheat")){
    1f2a:	f7 cf       	rjmp	.-18     	; 0x1f1a <CheckInput+0x4a2>
    1f2c:	6d e5       	ldi	r22, 0x5D	; 93
    1f2e:	73 eb       	ldi	r23, 0xB3	; 179
    1f30:	c8 01       	movw	r24, r16
    1f32:	e3 da       	rcall	.-2618   	; 0x14fa <StartsWith>
    1f34:	88 23       	and	r24, r24
    1f36:	09 f4       	brne	.+2      	; 0x1f3a <CheckInput+0x4c2>
    1f38:	30 ce       	rjmp	.-928    	; 0x1b9a <CheckInput+0x122>
    1f3a:	0f ee       	ldi	r16, 0xEF	; 239
    1f3c:	18 e3       	ldi	r17, 0x38	; 56
    1f3e:	78 e1       	ldi	r23, 0x18	; 24
    1f40:	77 2e       	mov	r7, r23
                    
                    //Set up sending out number
                    EERead(CHEATS+x, &bit, 1);
                    bit = 255-bit;
                    for (n=2; n>=0; --n) {
                        digit[n] = bit % 10;
    1f42:	ea e0       	ldi	r30, 0x0A	; 10
    1f44:	5e 2e       	mov	r5, r30
                        bit /= 10;
    1f46:	f4 e6       	ldi	r31, 0x64	; 100
    1f48:	4f 2e       	mov	r4, r31
}

//
void SetResponse(uint8_t number, uint16_t address, uint16_t length, uint8_t type){
    reactStr[0][number]=address;
    reactStr[1][number]=length;
    1f4a:	ee 24       	eor	r14, r14
    1f4c:	e3 94       	inc	r14
    1f4e:	f1 2c       	mov	r15, r1
    1f50:	cc 24       	eor	r12, r12
    1f52:	c3 94       	inc	r12
    1f54:	d1 2c       	mov	r13, r1
    return 0;
}

//
void SetResponse(uint8_t number, uint16_t address, uint16_t length, uint8_t type){
    reactStr[0][number]=address;
    1f56:	89 e5       	ldi	r24, 0x59	; 89
    1f58:	88 2e       	mov	r8, r24
    1f5a:	8a e7       	ldi	r24, 0x7A	; 122
    1f5c:	98 2e       	mov	r9, r24
    reactStr[1][number]=length;
    1f5e:	92 e0       	ldi	r25, 0x02	; 2
    1f60:	a9 2e       	mov	r10, r25
    1f62:	b1 2c       	mov	r11, r1
                uint8_t bit, digit[3];

                for (uint8_t x=0; x<MAX_CHEATS; ++x){
                    
                    //Set up sending out number
                    EERead(CHEATS+x, &bit, 1);
    1f64:	41 e0       	ldi	r20, 0x01	; 1
    1f66:	be 01       	movw	r22, r28
    1f68:	6f 5d       	subi	r22, 0xDF	; 223
    1f6a:	7f 4f       	sbci	r23, 0xFF	; 255
    1f6c:	87 2d       	mov	r24, r7
    1f6e:	0e 94 f3 06 	call	0xde6	; 0xde6 <EERead>
                    bit = 255-bit;
    1f72:	29 a1       	ldd	r18, Y+33	; 0x21
    1f74:	20 95       	com	r18
                    for (n=2; n>=0; --n) {
                        digit[n] = bit % 10;
    1f76:	82 2f       	mov	r24, r18
    1f78:	65 2d       	mov	r22, r5
    1f7a:	0e 94 20 19 	call	0x3240	; 0x3240 <__udivmodqi4>
    1f7e:	9b 83       	std	Y+3, r25	; 0x03
    1f80:	0e 94 20 19 	call	0x3240	; 0x3240 <__udivmodqi4>
    1f84:	9a 83       	std	Y+2, r25	; 0x02
                        bit /= 10;
    1f86:	82 2f       	mov	r24, r18
    1f88:	64 2d       	mov	r22, r4
    1f8a:	0e 94 20 19 	call	0x3240	; 0x3240 <__udivmodqi4>
                    
                    //Set up sending out number
                    EERead(CHEATS+x, &bit, 1);
                    bit = 255-bit;
                    for (n=2; n>=0; --n) {
                        digit[n] = bit % 10;
    1f8e:	89 83       	std	Y+1, r24	; 0x01
    1f90:	19 a2       	std	Y+33, r1	; 0x21
    1f92:	de 01       	movw	r26, r28
    1f94:	11 96       	adiw	r26, 0x01	; 1
    1f96:	40 e0       	ldi	r20, 0x00	; 0
                        bit /= 10;
                    }

                    for (n=0; n<3; ++n) {
                        SetResponse(x*4+n, A_DIGITS+digit[n], 1, TEASER);
    1f98:	2d 91       	ld	r18, X+
    return 0;
}

//
void SetResponse(uint8_t number, uint16_t address, uint16_t length, uint8_t type){
    reactStr[0][number]=address;
    1f9a:	86 2d       	mov	r24, r6
    1f9c:	84 0f       	add	r24, r20
    1f9e:	90 e0       	ldi	r25, 0x00	; 0
    1fa0:	fc 01       	movw	r30, r24
    1fa2:	ee 0f       	add	r30, r30
    1fa4:	ff 1f       	adc	r31, r31
    1fa6:	e1 51       	subi	r30, 0x11	; 17
    1fa8:	f7 4c       	sbci	r31, 0xC7	; 199
    1faa:	30 e0       	ldi	r19, 0x00	; 0
    1fac:	2d 52       	subi	r18, 0x2D	; 45
    1fae:	3b 48       	sbci	r19, 0x8B	; 139
    1fb0:	20 83       	st	Z, r18
    1fb2:	31 83       	std	Z+1, r19	; 0x01
    reactStr[1][number]=length;
    1fb4:	fc 01       	movw	r30, r24
    1fb6:	ee 0f       	add	r30, r30
    1fb8:	ff 1f       	adc	r31, r31
    1fba:	e1 5d       	subi	r30, 0xD1	; 209
    1fbc:	f6 4c       	sbci	r31, 0xC6	; 198
    1fbe:	e0 82       	st	Z, r14
    1fc0:	f1 82       	std	Z+1, r15	; 0x01
    reactStr[2][number]=type;
    1fc2:	88 0f       	add	r24, r24
    1fc4:	99 1f       	adc	r25, r25
    1fc6:	fc 01       	movw	r30, r24
    1fc8:	e1 59       	subi	r30, 0x91	; 145
    1fca:	f6 4c       	sbci	r31, 0xC6	; 198
    1fcc:	e0 82       	st	Z, r14
    1fce:	f1 82       	std	Z+1, r15	; 0x01
    1fd0:	4f 5f       	subi	r20, 0xFF	; 255
                    for (n=2; n>=0; --n) {
                        digit[n] = bit % 10;
                        bit /= 10;
                    }

                    for (n=0; n<3; ++n) {
    1fd2:	43 30       	cpi	r20, 0x03	; 3
    1fd4:	09 f7       	brne	.-62     	; 0x1f98 <CheckInput+0x520>
    return 0;
}

//
void SetResponse(uint8_t number, uint16_t address, uint16_t length, uint8_t type){
    reactStr[0][number]=address;
    1fd6:	f8 01       	movw	r30, r16
    1fd8:	86 82       	std	Z+6, r8	; 0x06
    1fda:	97 82       	std	Z+7, r9	; 0x07
    reactStr[1][number]=length;
    1fdc:	ea 5b       	subi	r30, 0xBA	; 186
    1fde:	ff 4f       	sbci	r31, 0xFF	; 255
    1fe0:	a0 82       	st	Z, r10
    1fe2:	b1 82       	std	Z+1, r11	; 0x01
    reactStr[2][number]=type;
    1fe4:	e0 5c       	subi	r30, 0xC0	; 192
    1fe6:	ff 4f       	sbci	r31, 0xFF	; 255
    1fe8:	c0 82       	st	Z, r12
    1fea:	d1 82       	std	Z+1, r13	; 0x01
    1fec:	73 94       	inc	r7
    1fee:	08 5f       	subi	r16, 0xF8	; 248
    1ff0:	1f 4f       	sbci	r17, 0xFF	; 255
    1ff2:	f4 e0       	ldi	r31, 0x04	; 4
    1ff4:	6f 0e       	add	r6, r31
            }
            if (StartsWith(&data[0], "cheat")){
                int8_t n;
                uint8_t bit, digit[3];

                for (uint8_t x=0; x<MAX_CHEATS; ++x){
    1ff6:	80 e2       	ldi	r24, 0x20	; 32
    1ff8:	78 12       	cpse	r7, r24
    1ffa:	b4 cf       	rjmp	.-152    	; 0x1f64 <CheckInput+0x4ec>
    return 0;
}

//
void SetResponse(uint8_t number, uint16_t address, uint16_t length, uint8_t type){
    reactStr[0][number]=address;
    1ffc:	8b e5       	ldi	r24, 0x5B	; 91
    1ffe:	9a e7       	ldi	r25, 0x7A	; 122
    2000:	80 93 2d 39 	sts	0x392D, r24	; 0x80392d <reactStr+0x3e>
    2004:	90 93 2e 39 	sts	0x392E, r25	; 0x80392e <reactStr+0x3f>
    reactStr[1][number]=length;
    2008:	84 e0       	ldi	r24, 0x04	; 4
    200a:	90 e0       	ldi	r25, 0x00	; 0
    200c:	80 93 6d 39 	sts	0x396D, r24	; 0x80396d <reactStr+0x7e>
    2010:	90 93 6e 39 	sts	0x396E, r25	; 0x80396e <reactStr+0x7f>
    reactStr[2][number]=type;
    2014:	81 e0       	ldi	r24, 0x01	; 1
    2016:	90 e0       	ldi	r25, 0x00	; 0
    2018:	80 93 ad 39 	sts	0x39AD, r24	; 0x8039ad <reactStr+0xbe>
    201c:	90 93 ae 39 	sts	0x39AE, r25	; 0x8039ae <reactStr+0xbf>
                        SetResponse(x*4+n, A_DIGITS+digit[n], 1, TEASER);
                    }                
                    SetResponse(x*4+3, A_COMMA, L_COMMA, TEASER);
                }
                SetResponse((4*MAX_CHEATS)-1, A_LF, 4, TEASER);
                responseList = 32;
    2020:	70 92 ee 38 	sts	0x38EE, r7	; 0x8038ee <responseList>
        //Data received, but not any of the commands above
        return 0;
    }

    //Serial input not available yet
    return 1;
    2024:	ff 24       	eor	r15, r15
    2026:	f3 94       	inc	r15
}
    2028:	8f 2d       	mov	r24, r15
    202a:	a1 96       	adiw	r28, 0x21	; 33
    202c:	cd bf       	out	0x3d, r28	; 61
    202e:	de bf       	out	0x3e, r29	; 62
    2030:	df 91       	pop	r29
    2032:	cf 91       	pop	r28
    2034:	1f 91       	pop	r17
    2036:	0f 91       	pop	r16
    2038:	ff 90       	pop	r15
    203a:	ef 90       	pop	r14
    203c:	df 90       	pop	r13
    203e:	cf 90       	pop	r12
    2040:	bf 90       	pop	r11
    2042:	af 90       	pop	r10
    2044:	9f 90       	pop	r9
    2046:	8f 90       	pop	r8
    2048:	7f 90       	pop	r7
    204a:	6f 90       	pop	r6
    204c:	5f 90       	pop	r5
    204e:	4f 90       	pop	r4
    2050:	08 95       	ret

00002052 <ProcessInput>:

//The game logic!
uint8_t ProcessInput(uint8_t *data){
    2052:	4f 92       	push	r4
    2054:	5f 92       	push	r5
    2056:	6f 92       	push	r6
    2058:	7f 92       	push	r7
    205a:	8f 92       	push	r8
    205c:	9f 92       	push	r9
    205e:	af 92       	push	r10
    2060:	bf 92       	push	r11
    2062:	cf 92       	push	r12
    2064:	df 92       	push	r13
    2066:	ef 92       	push	r14
    2068:	ff 92       	push	r15
    206a:	0f 93       	push	r16
    206c:	1f 93       	push	r17
    206e:	cf 93       	push	r28
    2070:	df 93       	push	r29
    2072:	cd b7       	in	r28, 0x3d	; 61
    2074:	de b7       	in	r29, 0x3e	; 62
    2076:	2a 97       	sbiw	r28, 0x0a	; 10
    2078:	cd bf       	out	0x3d, r28	; 61
    207a:	de bf       	out	0x3e, r29	; 62
    207c:	8c 01       	movw	r16, r24
    static object_model_t actObj1, actObj2;
    uint8_t elements = 1;

    CleanInput(&data[0]);
    207e:	3e dc       	rcall	.-1924   	; 0x18fc <CleanInput>
    uint8_t inputLen = CleanInput(&data[0]);
    2080:	c8 01       	movw	r24, r16
    2082:	3c dc       	rcall	.-1928   	; 0x18fc <CleanInput>
    2084:	f8 2e       	mov	r15, r24

    if (inputLen) {
    2086:	88 23       	and	r24, r24
    2088:	09 f4       	brne	.+2      	; 0x208c <ProcessInput+0x3a>
    208a:	7d c7       	rjmp	.+3834   	; 0x2f86 <ProcessInput+0xf34>

        //eXit to previous location
        if (data[0] == 'x'){
    208c:	d8 01       	movw	r26, r16
    208e:	8c 91       	ld	r24, X
    2090:	88 37       	cpi	r24, 0x78	; 120
    2092:	79 f5       	brne	.+94     	; 0x20f2 <ProcessInput+0xa0>

            //Standing in the Lobby?
            if ((route[currDepth] == 0)||(currDepth == 0)){
    2094:	80 91 27 38 	lds	r24, 0x3827	; 0x803827 <currDepth>
    2098:	e8 2f       	mov	r30, r24
    209a:	f0 e0       	ldi	r31, 0x00	; 0
    209c:	ee 0f       	add	r30, r30
    209e:	ff 1f       	adc	r31, r31
    20a0:	e1 55       	subi	r30, 0x51	; 81
    20a2:	f6 4c       	sbci	r31, 0xC6	; 198
    20a4:	20 81       	ld	r18, Z
    20a6:	31 81       	ldd	r19, Z+1	; 0x01
    20a8:	23 2b       	or	r18, r19
    20aa:	11 f0       	breq	.+4      	; 0x20b0 <ProcessInput+0x5e>
    20ac:	81 11       	cpse	r24, r1
    20ae:	03 c0       	rjmp	.+6      	; 0x20b6 <ProcessInput+0x64>
    return 0;
}

//
void SetResponse(uint8_t number, uint16_t address, uint16_t length, uint8_t type){
    reactStr[0][number]=address;
    20b0:	82 e8       	ldi	r24, 0x82	; 130
    20b2:	96 e7       	ldi	r25, 0x76	; 118
    20b4:	59 c5       	rjmp	.+2738   	; 0x2b68 <ProcessInput+0xb16>
            //Standing in the Lobby?
            if ((route[currDepth] == 0)||(currDepth == 0)){
                SetResponse(elements++, A_NOTPOSSIBLE, L_NOTPOSSIBLE, TEASER);
            
            //Is there a way to go back?
            } else if (CheckState(currObj.byteField[OPEN_ACL])){
    20b6:	80 91 f5 39 	lds	r24, 0x39F5	; 0x8039f5 <currObj+0x6>
    20ba:	6a d8       	rcall	.-3884   	; 0x1190 <CheckState>
    20bc:	88 23       	and	r24, r24
    20be:	81 f0       	breq	.+32     	; 0x20e0 <ProcessInput+0x8e>
                --currDepth;
    20c0:	e0 91 27 38 	lds	r30, 0x3827	; 0x803827 <currDepth>
    20c4:	e1 50       	subi	r30, 0x01	; 1
    20c6:	e0 93 27 38 	sts	0x3827, r30	; 0x803827 <currDepth>
                PopulateObject(route[currDepth], &currObj);
    20ca:	f0 e0       	ldi	r31, 0x00	; 0
    20cc:	ee 0f       	add	r30, r30
    20ce:	ff 1f       	adc	r31, r31
    20d0:	e1 55       	subi	r30, 0x51	; 81
    20d2:	f6 4c       	sbci	r31, 0xC6	; 198
    20d4:	6f ee       	ldi	r22, 0xEF	; 239
    20d6:	79 e3       	ldi	r23, 0x39	; 57
    20d8:	80 81       	ld	r24, Z
    20da:	91 81       	ldd	r25, Z+1	; 0x01
    20dc:	dc da       	rcall	.-2632   	; 0x1696 <PopulateObject>
    20de:	0e c2       	rjmp	.+1052   	; 0x24fc <ProcessInput+0x4aa>
            
            //No way out, print denied message of location
            } else {
                SetResponse(elements++, currObj.addrStr[OPEN_ACL_MSG], currObj.lenStr[OPEN_ACL_MSG], GAME);               
    20e0:	80 91 11 3a 	lds	r24, 0x3A11	; 0x803a11 <currObj+0x22>
    20e4:	90 91 12 3a 	lds	r25, 0x3A12	; 0x803a12 <currObj+0x23>
    return 0;
}

//
void SetResponse(uint8_t number, uint16_t address, uint16_t length, uint8_t type){
    reactStr[0][number]=address;
    20e8:	20 91 03 3a 	lds	r18, 0x3A03	; 0x803a03 <currObj+0x14>
    20ec:	30 91 04 3a 	lds	r19, 0x3A04	; 0x803a04 <currObj+0x15>
    20f0:	f3 c5       	rjmp	.+3046   	; 0x2cd8 <ProcessInput+0xc86>
            } else {
                SetResponse(elements++, currObj.addrStr[OPEN_ACL_MSG], currObj.lenStr[OPEN_ACL_MSG], GAME);               
            }   
        
        //Enter locations or Open objects    
        } else if ((data[0] == 'e')||(data[0] == 'o')) {
    20f2:	85 36       	cpi	r24, 0x65	; 101
    20f4:	19 f0       	breq	.+6      	; 0x20fc <ProcessInput+0xaa>
    20f6:	8f 36       	cpi	r24, 0x6F	; 111
    20f8:	09 f0       	breq	.+2      	; 0x20fc <ProcessInput+0xaa>
    20fa:	ca c0       	rjmp	.+404    	; 0x2290 <ProcessInput+0x23e>
                
            //Not possible, too many/little characters
            if (inputLen != 2){
    20fc:	b2 e0       	ldi	r27, 0x02	; 2
    20fe:	fb 12       	cpse	r15, r27
    2100:	d7 cf       	rjmp	.-82     	; 0x20b0 <ProcessInput+0x5e>
                SetResponse(elements++, A_NOTPOSSIBLE, L_NOTPOSSIBLE, TEASER);
            } else {
                uint8_t canDo = 0;
                route[currDepth+1] = FindChild(route[currDepth], data[1], 0);
    2102:	e0 90 27 38 	lds	r14, 0x3827	; 0x803827 <currDepth>
    2106:	f1 2c       	mov	r15, r1
    2108:	f7 01       	movw	r30, r14
    210a:	ee 0f       	add	r30, r30
    210c:	ff 1f       	adc	r31, r31
    210e:	e1 55       	subi	r30, 0x51	; 81
    2110:	f6 4c       	sbci	r31, 0xC6	; 198
    2112:	40 e0       	ldi	r20, 0x00	; 0
    2114:	50 e0       	ldi	r21, 0x00	; 0
    2116:	d8 01       	movw	r26, r16
    2118:	11 96       	adiw	r26, 0x01	; 1
    211a:	6c 91       	ld	r22, X
    211c:	80 81       	ld	r24, Z
    211e:	91 81       	ldd	r25, Z+1	; 0x01
    2120:	85 db       	rcall	.-2294   	; 0x182c <FindChild>
    2122:	f7 01       	movw	r30, r14
    2124:	ee 0f       	add	r30, r30
    2126:	ff 1f       	adc	r31, r31
    2128:	ef 54       	subi	r30, 0x4F	; 79
    212a:	f6 4c       	sbci	r31, 0xC6	; 198
    212c:	80 83       	st	Z, r24
    212e:	91 83       	std	Z+1, r25	; 0x01
                    
                //Child found?
                if (route[currDepth+1]) {
    2130:	90 91 27 38 	lds	r25, 0x3827	; 0x803827 <currDepth>
    2134:	29 2f       	mov	r18, r25
    2136:	30 e0       	ldi	r19, 0x00	; 0
    2138:	f9 01       	movw	r30, r18
    213a:	ee 0f       	add	r30, r30
    213c:	ff 1f       	adc	r31, r31
    213e:	ef 54       	subi	r30, 0x4F	; 79
    2140:	f6 4c       	sbci	r31, 0xC6	; 198
    2142:	40 81       	ld	r20, Z
    2144:	51 81       	ldd	r21, Z+1	; 0x01
    2146:	41 15       	cp	r20, r1
    2148:	51 05       	cpc	r21, r1
    214a:	21 f0       	breq	.+8      	; 0x2154 <ProcessInput+0x102>
                    PopulateObject(route[currDepth+1], &actObj1);
    214c:	60 eb       	ldi	r22, 0xB0	; 176
    214e:	78 e3       	ldi	r23, 0x38	; 56
    2150:	ca 01       	movw	r24, r20
    2152:	1c c0       	rjmp	.+56     	; 0x218c <ProcessInput+0x13a>
                    canDo = 1;
                //No child, maybe a step back, letter ok?
                } else if (currDepth) {
    2154:	99 23       	and	r25, r25
    2156:	09 f4       	brne	.+2      	; 0x215a <ProcessInput+0x108>
    2158:	32 c7       	rjmp	.+3684   	; 0x2fbe <ProcessInput+0xf6c>
                    if (CheckLetter(route[currDepth-1], data[1])) {
    215a:	22 0f       	add	r18, r18
    215c:	33 1f       	adc	r19, r19
    215e:	f9 01       	movw	r30, r18
    2160:	e3 55       	subi	r30, 0x53	; 83
    2162:	f6 4c       	sbci	r31, 0xC6	; 198
    2164:	d8 01       	movw	r26, r16
    2166:	11 96       	adiw	r26, 0x01	; 1
    2168:	6c 91       	ld	r22, X
    216a:	80 81       	ld	r24, Z
    216c:	91 81       	ldd	r25, Z+1	; 0x01
    216e:	0a db       	rcall	.-2540   	; 0x1784 <CheckLetter>
    2170:	88 23       	and	r24, r24
    2172:	09 f4       	brne	.+2      	; 0x2176 <ProcessInput+0x124>
    2174:	24 c7       	rjmp	.+3656   	; 0x2fbe <ProcessInput+0xf6c>
                        PopulateObject(route[currDepth-1], &actObj1);
    2176:	e0 91 27 38 	lds	r30, 0x3827	; 0x803827 <currDepth>
    217a:	f0 e0       	ldi	r31, 0x00	; 0
    217c:	ee 0f       	add	r30, r30
    217e:	ff 1f       	adc	r31, r31
    2180:	e3 55       	subi	r30, 0x53	; 83
    2182:	f6 4c       	sbci	r31, 0xC6	; 198
    2184:	60 eb       	ldi	r22, 0xB0	; 176
    2186:	78 e3       	ldi	r23, 0x38	; 56
    2188:	80 81       	ld	r24, Z
    218a:	91 81       	ldd	r25, Z+1	; 0x01
    218c:	84 da       	rcall	.-2808   	; 0x1696 <PopulateObject>
                    }
                }

                //The candidate is found! Let's check if the action is legit
                if (canDo) {
                    if ((data[0] == 'e') && ((actObj1.byteField[ACTION_MASK]&ENTER)==0)) {
    218e:	d8 01       	movw	r26, r16
    2190:	8c 91       	ld	r24, X
    2192:	85 36       	cpi	r24, 0x65	; 101
    2194:	c9 f4       	brne	.+50     	; 0x21c8 <ProcessInput+0x176>
    2196:	80 91 b8 38 	lds	r24, 0x38B8	; 0x8038b8 <actObj1.3992+0x8>
    219a:	80 fd       	sbrc	r24, 0
    219c:	1e c0       	rjmp	.+60     	; 0x21da <ProcessInput+0x188>
    return 0;
}

//
void SetResponse(uint8_t number, uint16_t address, uint16_t length, uint8_t type){
    reactStr[0][number]=address;
    219e:	80 ea       	ldi	r24, 0xA0	; 160
    21a0:	99 e7       	ldi	r25, 0x79	; 121
    21a2:	80 93 f1 38 	sts	0x38F1, r24	; 0x8038f1 <reactStr+0x2>
    21a6:	90 93 f2 38 	sts	0x38F2, r25	; 0x8038f2 <reactStr+0x3>
    reactStr[1][number]=length;
    21aa:	8e e1       	ldi	r24, 0x1E	; 30
    21ac:	90 e0       	ldi	r25, 0x00	; 0
    21ae:	80 93 31 39 	sts	0x3931, r24	; 0x803931 <reactStr+0x42>
    21b2:	90 93 32 39 	sts	0x3932, r25	; 0x803932 <reactStr+0x43>
    reactStr[2][number]=type;
    21b6:	81 e0       	ldi	r24, 0x01	; 1
    21b8:	90 e0       	ldi	r25, 0x00	; 0
    21ba:	80 93 71 39 	sts	0x3971, r24	; 0x803971 <reactStr+0x82>
    21be:	90 93 72 39 	sts	0x3972, r25	; 0x803972 <reactStr+0x83>
                }

                //The candidate is found! Let's check if the action is legit
                if (canDo) {
                    if ((data[0] == 'e') && ((actObj1.byteField[ACTION_MASK]&ENTER)==0)) {
                        SetResponse(elements++, A_CANTENTER, L_CANTENTER, TEASER);
    21c2:	72 e0       	ldi	r23, 0x02	; 2
    21c4:	77 2e       	mov	r7, r23
    21c6:	bf c6       	rjmp	.+3454   	; 0x2f46 <ProcessInput+0xef4>
                    } else if ((data[0] == 'o') && ((actObj1.byteField[ACTION_MASK]&OPEN)==0)) {
    21c8:	8f 36       	cpi	r24, 0x6F	; 111
    21ca:	39 f4       	brne	.+14     	; 0x21da <ProcessInput+0x188>
    21cc:	80 91 b8 38 	lds	r24, 0x38B8	; 0x8038b8 <actObj1.3992+0x8>
    21d0:	81 fd       	sbrc	r24, 1
    21d2:	03 c0       	rjmp	.+6      	; 0x21da <ProcessInput+0x188>
    return 0;
}

//
void SetResponse(uint8_t number, uint16_t address, uint16_t length, uint8_t type){
    reactStr[0][number]=address;
    21d4:	85 e8       	ldi	r24, 0x85	; 133
    21d6:	99 e7       	ldi	r25, 0x79	; 121
    21d8:	c7 c4       	rjmp	.+2446   	; 0x2b68 <ProcessInput+0xb16>
                        SetResponse(elements++, A_CANTENTER, L_CANTENTER, TEASER);
                    } else if ((data[0] == 'o') && ((actObj1.byteField[ACTION_MASK]&OPEN)==0)) {
                        SetResponse(elements++, A_CANTOPEN, L_CANTOPEN, TEASER);
                    
                    //Action legit, permission granted?
                    } else if (CheckState(actObj1.byteField[OPEN_ACL])) {
    21da:	80 91 b6 38 	lds	r24, 0x38B6	; 0x8038b6 <actObj1.3992+0x6>
    21de:	0e 94 c8 08 	call	0x1190	; 0x1190 <CheckState>
    21e2:	e0 91 27 38 	lds	r30, 0x3827	; 0x803827 <currDepth>
    21e6:	88 23       	and	r24, r24
    21e8:	09 f4       	brne	.+2      	; 0x21ec <ProcessInput+0x19a>
    21ea:	42 c0       	rjmp	.+132    	; 0x2270 <ProcessInput+0x21e>
                            
                        //Yes! Check if we must move forward or backwards.
                        if (route[currDepth+1]) ++currDepth; else --currDepth;
    21ec:	ae 2f       	mov	r26, r30
    21ee:	b0 e0       	ldi	r27, 0x00	; 0
    21f0:	aa 0f       	add	r26, r26
    21f2:	bb 1f       	adc	r27, r27
    21f4:	af 54       	subi	r26, 0x4F	; 79
    21f6:	b6 4c       	sbci	r27, 0xC6	; 198
    21f8:	8d 91       	ld	r24, X+
    21fa:	9c 91       	ld	r25, X
    21fc:	89 2b       	or	r24, r25
    21fe:	11 f0       	breq	.+4      	; 0x2204 <ProcessInput+0x1b2>
    2200:	ef 5f       	subi	r30, 0xFF	; 255
    2202:	01 c0       	rjmp	.+2      	; 0x2206 <ProcessInput+0x1b4>
    2204:	e1 50       	subi	r30, 0x01	; 1
    2206:	e0 93 27 38 	sts	0x3827, r30	; 0x803827 <currDepth>
                        PopulateObject(route[currDepth], &currObj);
    220a:	e0 91 27 38 	lds	r30, 0x3827	; 0x803827 <currDepth>
    220e:	f0 e0       	ldi	r31, 0x00	; 0
    2210:	ee 0f       	add	r30, r30
    2212:	ff 1f       	adc	r31, r31
    2214:	e1 55       	subi	r30, 0x51	; 81
    2216:	f6 4c       	sbci	r31, 0xC6	; 198
    2218:	6f ee       	ldi	r22, 0xEF	; 239
    221a:	79 e3       	ldi	r23, 0x39	; 57
    221c:	80 81       	ld	r24, Z
    221e:	91 81       	ldd	r25, Z+1	; 0x01
    2220:	3a da       	rcall	.-2956   	; 0x1696 <PopulateObject>
                        SetResponse(elements++, currObj.addrStr[DESC], currObj.lenStr[DESC],GAME);
    2222:	80 91 0b 3a 	lds	r24, 0x3A0B	; 0x803a0b <currObj+0x1c>
    2226:	90 91 0c 3a 	lds	r25, 0x3A0C	; 0x803a0c <currObj+0x1d>
    return 0;
}

//
void SetResponse(uint8_t number, uint16_t address, uint16_t length, uint8_t type){
    reactStr[0][number]=address;
    222a:	20 91 fd 39 	lds	r18, 0x39FD	; 0x8039fd <currObj+0xe>
    222e:	30 91 fe 39 	lds	r19, 0x39FE	; 0x8039fe <currObj+0xf>
    2232:	20 93 f1 38 	sts	0x38F1, r18	; 0x8038f1 <reactStr+0x2>
    2236:	30 93 f2 38 	sts	0x38F2, r19	; 0x8038f2 <reactStr+0x3>
    reactStr[1][number]=length;
    223a:	80 93 31 39 	sts	0x3931, r24	; 0x803931 <reactStr+0x42>
    223e:	90 93 32 39 	sts	0x3932, r25	; 0x803932 <reactStr+0x43>
    reactStr[2][number]=type;
    2242:	10 92 71 39 	sts	0x3971, r1	; 0x803971 <reactStr+0x82>
    2246:	10 92 72 39 	sts	0x3972, r1	; 0x803972 <reactStr+0x83>
    return 0;
}

//
void SetResponse(uint8_t number, uint16_t address, uint16_t length, uint8_t type){
    reactStr[0][number]=address;
    224a:	8b e5       	ldi	r24, 0x5B	; 91
    224c:	9a e7       	ldi	r25, 0x7A	; 122
    224e:	80 93 f3 38 	sts	0x38F3, r24	; 0x8038f3 <reactStr+0x4>
    2252:	90 93 f4 38 	sts	0x38F4, r25	; 0x8038f4 <reactStr+0x5>
    reactStr[1][number]=length;
    2256:	82 e0       	ldi	r24, 0x02	; 2
    2258:	90 e0       	ldi	r25, 0x00	; 0
    225a:	80 93 33 39 	sts	0x3933, r24	; 0x803933 <reactStr+0x44>
    225e:	90 93 34 39 	sts	0x3934, r25	; 0x803934 <reactStr+0x45>
    reactStr[2][number]=type;
    2262:	81 e0       	ldi	r24, 0x01	; 1
    2264:	90 e0       	ldi	r25, 0x00	; 0
    2266:	80 93 73 39 	sts	0x3973, r24	; 0x803973 <reactStr+0x84>
    226a:	90 93 74 39 	sts	0x3974, r25	; 0x803974 <reactStr+0x85>
    226e:	68 c4       	rjmp	.+2256   	; 0x2b40 <ProcessInput+0xaee>
                        SetResponse(elements++, currObj.addrStr[DESC], currObj.lenStr[DESC],GAME);
                        SetResponse(elements++, A_LF, 2, TEASER);
                                                  
                    //Not granted!
                    } else {
                        route[currDepth+1] = 0;
    2270:	f0 e0       	ldi	r31, 0x00	; 0
    2272:	ee 0f       	add	r30, r30
    2274:	ff 1f       	adc	r31, r31
    2276:	ef 54       	subi	r30, 0x4F	; 79
    2278:	f6 4c       	sbci	r31, 0xC6	; 198
    227a:	10 82       	st	Z, r1
    227c:	11 82       	std	Z+1, r1	; 0x01
                        SetResponse(elements++, actObj1.addrStr[OPEN_ACL_MSG], actObj1.lenStr[OPEN_ACL_MSG], GAME);                
    227e:	80 91 d2 38 	lds	r24, 0x38D2	; 0x8038d2 <actObj1.3992+0x22>
    2282:	90 91 d3 38 	lds	r25, 0x38D3	; 0x8038d3 <actObj1.3992+0x23>
    return 0;
}

//
void SetResponse(uint8_t number, uint16_t address, uint16_t length, uint8_t type){
    reactStr[0][number]=address;
    2286:	20 91 c4 38 	lds	r18, 0x38C4	; 0x8038c4 <actObj1.3992+0x14>
    228a:	30 91 c5 38 	lds	r19, 0x38C5	; 0x8038c5 <actObj1.3992+0x15>
    228e:	24 c5       	rjmp	.+2632   	; 0x2cd8 <ProcessInput+0xc86>
                    SetResponse(elements++, A_DONTSEE, L_DONTSEE, TEASER);                
                }
            }

        //Look around or at objects
        } else if (data[0] == 'l') {
    2290:	8c 36       	cpi	r24, 0x6C	; 108
    2292:	09 f0       	breq	.+2      	; 0x2296 <ProcessInput+0x244>
    2294:	4b c1       	rjmp	.+662    	; 0x252c <ProcessInput+0x4da>
    2296:	e0 91 27 38 	lds	r30, 0x3827	; 0x803827 <currDepth>
            if (inputLen == 1) {
    229a:	b1 e0       	ldi	r27, 0x01	; 1
    229c:	fb 12       	cpse	r15, r27
    229e:	f6 c0       	rjmp	.+492    	; 0x248c <ProcessInput+0x43a>

                //Show info about this area first
                SetResponse(elements++, currObj.addrStr[DESC], currObj.lenStr[DESC],GAME);
    22a0:	80 91 0b 3a 	lds	r24, 0x3A0B	; 0x803a0b <currObj+0x1c>
    22a4:	90 91 0c 3a 	lds	r25, 0x3A0C	; 0x803a0c <currObj+0x1d>
    return 0;
}

//
void SetResponse(uint8_t number, uint16_t address, uint16_t length, uint8_t type){
    reactStr[0][number]=address;
    22a8:	20 91 fd 39 	lds	r18, 0x39FD	; 0x8039fd <currObj+0xe>
    22ac:	30 91 fe 39 	lds	r19, 0x39FE	; 0x8039fe <currObj+0xf>
    22b0:	20 93 f1 38 	sts	0x38F1, r18	; 0x8038f1 <reactStr+0x2>
    22b4:	30 93 f2 38 	sts	0x38F2, r19	; 0x8038f2 <reactStr+0x3>
    reactStr[1][number]=length;
    22b8:	80 93 31 39 	sts	0x3931, r24	; 0x803931 <reactStr+0x42>
    22bc:	90 93 32 39 	sts	0x3932, r25	; 0x803932 <reactStr+0x43>
    reactStr[2][number]=type;
    22c0:	10 92 71 39 	sts	0x3971, r1	; 0x803971 <reactStr+0x82>
    22c4:	10 92 72 39 	sts	0x3972, r1	; 0x803972 <reactStr+0x83>
    return 0;
}

//
void SetResponse(uint8_t number, uint16_t address, uint16_t length, uint8_t type){
    reactStr[0][number]=address;
    22c8:	8b e5       	ldi	r24, 0x5B	; 91
    22ca:	9a e7       	ldi	r25, 0x7A	; 122
    22cc:	80 93 f3 38 	sts	0x38F3, r24	; 0x8038f3 <reactStr+0x4>
    22d0:	90 93 f4 38 	sts	0x38F4, r25	; 0x8038f4 <reactStr+0x5>
    reactStr[1][number]=length;
    22d4:	82 e0       	ldi	r24, 0x02	; 2
    22d6:	90 e0       	ldi	r25, 0x00	; 0
    22d8:	80 93 33 39 	sts	0x3933, r24	; 0x803933 <reactStr+0x44>
    22dc:	90 93 34 39 	sts	0x3934, r25	; 0x803934 <reactStr+0x45>
    reactStr[2][number]=type;
    22e0:	81 e0       	ldi	r24, 0x01	; 1
    22e2:	90 e0       	ldi	r25, 0x00	; 0
    22e4:	80 93 73 39 	sts	0x3973, r24	; 0x803973 <reactStr+0x84>
    22e8:	90 93 74 39 	sts	0x3974, r25	; 0x803974 <reactStr+0x85>
    return 0;
}

//
void SetResponse(uint8_t number, uint16_t address, uint16_t length, uint8_t type){
    reactStr[0][number]=address;
    22ec:	2e ee       	ldi	r18, 0xEE	; 238
    22ee:	39 e7       	ldi	r19, 0x79	; 121
    22f0:	20 93 f5 38 	sts	0x38F5, r18	; 0x8038f5 <reactStr+0x6>
    22f4:	30 93 f6 38 	sts	0x38F6, r19	; 0x8038f6 <reactStr+0x7>
    reactStr[1][number]=length;
    22f8:	25 e1       	ldi	r18, 0x15	; 21
    22fa:	30 e0       	ldi	r19, 0x00	; 0
    22fc:	20 93 35 39 	sts	0x3935, r18	; 0x803935 <reactStr+0x46>
    2300:	30 93 36 39 	sts	0x3936, r19	; 0x803936 <reactStr+0x47>
    reactStr[2][number]=type;
    2304:	80 93 75 39 	sts	0x3975, r24	; 0x803975 <reactStr+0x86>
    2308:	90 93 76 39 	sts	0x3976, r25	; 0x803976 <reactStr+0x87>
                SetResponse(elements++, currObj.addrStr[DESC], currObj.lenStr[DESC],GAME);
                SetResponse(elements++, A_LF, 2, TEASER);
                SetResponse(elements++, A_LOOK, L_LOOK, TEASER);

                //Check the visible children first
                route[currDepth+1] = 0;
    230c:	f0 e0       	ldi	r31, 0x00	; 0
    230e:	ee 0f       	add	r30, r30
    2310:	ff 1f       	adc	r31, r31
    2312:	ef 54       	subi	r30, 0x4F	; 79
    2314:	f6 4c       	sbci	r31, 0xC6	; 198
    2316:	10 82       	st	Z, r1
    2318:	11 82       	std	Z+1, r1	; 0x01
            if (inputLen == 1) {

                //Show info about this area first
                SetResponse(elements++, currObj.addrStr[DESC], currObj.lenStr[DESC],GAME);
                SetResponse(elements++, A_LF, 2, TEASER);
                SetResponse(elements++, A_LOOK, L_LOOK, TEASER);
    231a:	84 e0       	ldi	r24, 0x04	; 4
    231c:	68 2e       	mov	r6, r24
    return 0;
}

//
void SetResponse(uint8_t number, uint16_t address, uint16_t length, uint8_t type){
    reactStr[0][number]=address;
    231e:	99 e5       	ldi	r25, 0x59	; 89
    2320:	c9 2e       	mov	r12, r25
    2322:	9a e7       	ldi	r25, 0x7A	; 122
    2324:	d9 2e       	mov	r13, r25
    reactStr[1][number]=length;
    2326:	22 e0       	ldi	r18, 0x02	; 2
    2328:	a2 2e       	mov	r10, r18
    232a:	b1 2c       	mov	r11, r1
    reactStr[2][number]=type;
    232c:	88 24       	eor	r8, r8
    232e:	83 94       	inc	r8
    2330:	91 2c       	mov	r9, r1
                SetResponse(elements++, A_LOOK, L_LOOK, TEASER);

                //Check the visible children first
                route[currDepth+1] = 0;
                do{
                    route[currDepth+1] = FindChild(route[currDepth], 0, route[currDepth+1]);
    2332:	80 91 27 38 	lds	r24, 0x3827	; 0x803827 <currDepth>
    2336:	90 e0       	ldi	r25, 0x00	; 0
    2338:	9c 01       	movw	r18, r24
    233a:	22 0f       	add	r18, r18
    233c:	33 1f       	adc	r19, r19
    233e:	f9 01       	movw	r30, r18
    2340:	ef 54       	subi	r30, 0x4F	; 79
    2342:	f6 4c       	sbci	r31, 0xC6	; 198
    2344:	7f 01       	movw	r14, r30
    2346:	40 81       	ld	r20, Z
    2348:	51 81       	ldd	r21, Z+1	; 0x01
    234a:	f9 01       	movw	r30, r18
    234c:	e1 55       	subi	r30, 0x51	; 81
    234e:	f6 4c       	sbci	r31, 0xC6	; 198
    2350:	60 e0       	ldi	r22, 0x00	; 0
    2352:	80 81       	ld	r24, Z
    2354:	91 81       	ldd	r25, Z+1	; 0x01
    2356:	6a da       	rcall	.-2860   	; 0x182c <FindChild>
    2358:	d7 01       	movw	r26, r14
    235a:	8d 93       	st	X+, r24
    235c:	9c 93       	st	X, r25
                    if (route[currDepth+1]) {
    235e:	e0 91 27 38 	lds	r30, 0x3827	; 0x803827 <currDepth>
    2362:	f0 e0       	ldi	r31, 0x00	; 0
    2364:	ee 0f       	add	r30, r30
    2366:	ff 1f       	adc	r31, r31
    2368:	ef 54       	subi	r30, 0x4F	; 79
    236a:	f6 4c       	sbci	r31, 0xC6	; 198
    236c:	80 81       	ld	r24, Z
    236e:	91 81       	ldd	r25, Z+1	; 0x01
    2370:	00 97       	sbiw	r24, 0x00	; 0
    2372:	09 f4       	brne	.+2      	; 0x2376 <ProcessInput+0x324>
    2374:	4a c0       	rjmp	.+148    	; 0x240a <ProcessInput+0x3b8>
                        if ((route[currDepth+1] != inventory[0])&&(route[currDepth+1] != inventory[1])) {
    2376:	20 91 31 38 	lds	r18, 0x3831	; 0x803831 <inventory>
    237a:	30 91 32 38 	lds	r19, 0x3832	; 0x803832 <inventory+0x1>
    237e:	82 17       	cp	r24, r18
    2380:	93 07       	cpc	r25, r19
    2382:	09 f4       	brne	.+2      	; 0x2386 <ProcessInput+0x334>
    2384:	42 c0       	rjmp	.+132    	; 0x240a <ProcessInput+0x3b8>
    2386:	20 91 33 38 	lds	r18, 0x3833	; 0x803833 <inventory+0x2>
    238a:	30 91 34 38 	lds	r19, 0x3834	; 0x803834 <inventory+0x3>
    238e:	82 17       	cp	r24, r18
    2390:	93 07       	cpc	r25, r19
                            PopulateObject(route[currDepth+1], &actObj1);
    2392:	d9 f1       	breq	.+118    	; 0x240a <ProcessInput+0x3b8>
    2394:	60 eb       	ldi	r22, 0xB0	; 176
    2396:	78 e3       	ldi	r23, 0x38	; 56
    2398:	7e d9       	rcall	.-3332   	; 0x1696 <PopulateObject>
                            SetResponse(elements++, actObj1.addrStr[NAME], actObj1.lenStr[NAME],GAME);
    239a:	80 91 ca 38 	lds	r24, 0x38CA	; 0x8038ca <actObj1.3992+0x1a>
    239e:	90 91 cb 38 	lds	r25, 0x38CB	; 0x8038cb <actObj1.3992+0x1b>
    return 0;
}

//
void SetResponse(uint8_t number, uint16_t address, uint16_t length, uint8_t type){
    reactStr[0][number]=address;
    23a2:	e6 2d       	mov	r30, r6
    23a4:	f0 e0       	ldi	r31, 0x00	; 0
    23a6:	df 01       	movw	r26, r30
    23a8:	aa 0f       	add	r26, r26
    23aa:	bb 1f       	adc	r27, r27
    23ac:	a1 51       	subi	r26, 0x11	; 17
    23ae:	b7 4c       	sbci	r27, 0xC7	; 199
    23b0:	20 91 bc 38 	lds	r18, 0x38BC	; 0x8038bc <actObj1.3992+0xc>
    23b4:	30 91 bd 38 	lds	r19, 0x38BD	; 0x8038bd <actObj1.3992+0xd>
    23b8:	2d 93       	st	X+, r18
    23ba:	3c 93       	st	X, r19
    reactStr[1][number]=length;
    23bc:	df 01       	movw	r26, r30
    23be:	aa 0f       	add	r26, r26
    23c0:	bb 1f       	adc	r27, r27
    23c2:	a1 5d       	subi	r26, 0xD1	; 209
    23c4:	b6 4c       	sbci	r27, 0xC6	; 198
    23c6:	8d 93       	st	X+, r24
    23c8:	9c 93       	st	X, r25
    reactStr[2][number]=type;
    23ca:	ee 0f       	add	r30, r30
    23cc:	ff 1f       	adc	r31, r31
    23ce:	e1 59       	subi	r30, 0x91	; 145
    23d0:	f6 4c       	sbci	r31, 0xC6	; 198
    23d2:	10 82       	st	Z, r1
    23d4:	11 82       	std	Z+1, r1	; 0x01
    return 0;
}

//
void SetResponse(uint8_t number, uint16_t address, uint16_t length, uint8_t type){
    reactStr[0][number]=address;
    23d6:	81 e0       	ldi	r24, 0x01	; 1
    23d8:	86 0d       	add	r24, r6
    23da:	90 e0       	ldi	r25, 0x00	; 0
    23dc:	63 94       	inc	r6
    23de:	63 94       	inc	r6
    23e0:	fc 01       	movw	r30, r24
    23e2:	ee 0f       	add	r30, r30
    23e4:	ff 1f       	adc	r31, r31
    23e6:	e1 51       	subi	r30, 0x11	; 17
    23e8:	f7 4c       	sbci	r31, 0xC7	; 199
    23ea:	c0 82       	st	Z, r12
    23ec:	d1 82       	std	Z+1, r13	; 0x01
    reactStr[1][number]=length;
    23ee:	fc 01       	movw	r30, r24
    23f0:	ee 0f       	add	r30, r30
    23f2:	ff 1f       	adc	r31, r31
    23f4:	e1 5d       	subi	r30, 0xD1	; 209
    23f6:	f6 4c       	sbci	r31, 0xC6	; 198
    23f8:	a0 82       	st	Z, r10
    23fa:	b1 82       	std	Z+1, r11	; 0x01
    reactStr[2][number]=type;
    23fc:	88 0f       	add	r24, r24
    23fe:	99 1f       	adc	r25, r25
    2400:	fc 01       	movw	r30, r24
    2402:	e1 59       	subi	r30, 0x91	; 145
    2404:	f6 4c       	sbci	r31, 0xC6	; 198
    2406:	80 82       	st	Z, r8
    2408:	91 82       	std	Z+1, r9	; 0x01
                            PopulateObject(route[currDepth+1], &actObj1);
                            SetResponse(elements++, actObj1.addrStr[NAME], actObj1.lenStr[NAME],GAME);
                            SetResponse(elements++, A_COMMA, L_COMMA, TEASER);
                        }
                    }
                }while (route[currDepth+1]);
    240a:	20 91 27 38 	lds	r18, 0x3827	; 0x803827 <currDepth>
    240e:	82 2f       	mov	r24, r18
    2410:	90 e0       	ldi	r25, 0x00	; 0
    2412:	fc 01       	movw	r30, r24
    2414:	ee 0f       	add	r30, r30
    2416:	ff 1f       	adc	r31, r31
    2418:	ef 54       	subi	r30, 0x4F	; 79
    241a:	f6 4c       	sbci	r31, 0xC6	; 198
    241c:	40 81       	ld	r20, Z
    241e:	51 81       	ldd	r21, Z+1	; 0x01
    2420:	45 2b       	or	r20, r21
    2422:	09 f0       	breq	.+2      	; 0x2426 <ProcessInput+0x3d4>
    2424:	86 cf       	rjmp	.-244    	; 0x2332 <ProcessInput+0x2e0>

                //Look back if not on level 0
                if (currDepth) {
    2426:	22 23       	and	r18, r18
                    PopulateObject(route[currDepth-1], &actObj1);
    2428:	69 f1       	breq	.+90     	; 0x2484 <ProcessInput+0x432>
    242a:	88 0f       	add	r24, r24
    242c:	99 1f       	adc	r25, r25
    242e:	fc 01       	movw	r30, r24
    2430:	e3 55       	subi	r30, 0x53	; 83
    2432:	f6 4c       	sbci	r31, 0xC6	; 198
    2434:	60 eb       	ldi	r22, 0xB0	; 176
    2436:	78 e3       	ldi	r23, 0x38	; 56
    2438:	80 81       	ld	r24, Z
    243a:	91 81       	ldd	r25, Z+1	; 0x01
    243c:	2c d9       	rcall	.-3496   	; 0x1696 <PopulateObject>
                    SetResponse(elements++, actObj1.addrStr[NAME], actObj1.lenStr[NAME],GAME);
    243e:	20 91 ca 38 	lds	r18, 0x38CA	; 0x8038ca <actObj1.3992+0x1a>
    2442:	30 91 cb 38 	lds	r19, 0x38CB	; 0x8038cb <actObj1.3992+0x1b>
    2446:	77 24       	eor	r7, r7
    2448:	73 94       	inc	r7
    244a:	76 0c       	add	r7, r6
    return 0;
}

//
void SetResponse(uint8_t number, uint16_t address, uint16_t length, uint8_t type){
    reactStr[0][number]=address;
    244c:	86 2d       	mov	r24, r6
    244e:	90 e0       	ldi	r25, 0x00	; 0
    2450:	fc 01       	movw	r30, r24
    2452:	ee 0f       	add	r30, r30
    2454:	ff 1f       	adc	r31, r31
    2456:	e1 51       	subi	r30, 0x11	; 17
    2458:	f7 4c       	sbci	r31, 0xC7	; 199
    245a:	40 91 bc 38 	lds	r20, 0x38BC	; 0x8038bc <actObj1.3992+0xc>
    245e:	50 91 bd 38 	lds	r21, 0x38BD	; 0x8038bd <actObj1.3992+0xd>
    2462:	40 83       	st	Z, r20
    2464:	51 83       	std	Z+1, r21	; 0x01
    reactStr[1][number]=length;
    2466:	fc 01       	movw	r30, r24
    2468:	ee 0f       	add	r30, r30
    246a:	ff 1f       	adc	r31, r31
    246c:	e1 5d       	subi	r30, 0xD1	; 209
    246e:	f6 4c       	sbci	r31, 0xC6	; 198
    2470:	20 83       	st	Z, r18
    2472:	31 83       	std	Z+1, r19	; 0x01
    reactStr[2][number]=type;
    2474:	88 0f       	add	r24, r24
    2476:	99 1f       	adc	r25, r25
    2478:	fc 01       	movw	r30, r24
    247a:	e1 59       	subi	r30, 0x91	; 145
    247c:	f6 4c       	sbci	r31, 0xC6	; 198
    247e:	10 82       	st	Z, r1
    2480:	11 82       	std	Z+1, r1	; 0x01
    2482:	61 c5       	rjmp	.+2754   	; 0x2f46 <ProcessInput+0xef4>

                //Look back if not on level 0
                if (currDepth) {
                    PopulateObject(route[currDepth-1], &actObj1);
                    SetResponse(elements++, actObj1.addrStr[NAME], actObj1.lenStr[NAME],GAME);
                } else elements-=1;
    2484:	77 24       	eor	r7, r7
    2486:	7a 94       	dec	r7
    2488:	76 0c       	add	r7, r6
    248a:	5d c5       	rjmp	.+2746   	; 0x2f46 <ProcessInput+0xef4>

            } else {
                route[currDepth+1] = FindChild(route[currDepth], data[1], 0);
    248c:	ee 2e       	mov	r14, r30
    248e:	f1 2c       	mov	r15, r1
    2490:	f7 01       	movw	r30, r14
    2492:	ee 0f       	add	r30, r30
    2494:	ff 1f       	adc	r31, r31
    2496:	e1 55       	subi	r30, 0x51	; 81
    2498:	f6 4c       	sbci	r31, 0xC6	; 198
    249a:	40 e0       	ldi	r20, 0x00	; 0
    249c:	50 e0       	ldi	r21, 0x00	; 0
    249e:	d8 01       	movw	r26, r16
    24a0:	11 96       	adiw	r26, 0x01	; 1
    24a2:	6c 91       	ld	r22, X
    24a4:	80 81       	ld	r24, Z
    24a6:	91 81       	ldd	r25, Z+1	; 0x01
    24a8:	c1 d9       	rcall	.-3198   	; 0x182c <FindChild>
    24aa:	f7 01       	movw	r30, r14
    24ac:	ee 0f       	add	r30, r30
    24ae:	ff 1f       	adc	r31, r31
    24b0:	ef 54       	subi	r30, 0x4F	; 79
    24b2:	f6 4c       	sbci	r31, 0xC6	; 198
    24b4:	80 83       	st	Z, r24
    24b6:	91 83       	std	Z+1, r25	; 0x01
                if (route[currDepth+1]) {
    24b8:	90 91 27 38 	lds	r25, 0x3827	; 0x803827 <currDepth>
    24bc:	29 2f       	mov	r18, r25
    24be:	30 e0       	ldi	r19, 0x00	; 0
    24c0:	f9 01       	movw	r30, r18
    24c2:	ee 0f       	add	r30, r30
    24c4:	ff 1f       	adc	r31, r31
    24c6:	ef 54       	subi	r30, 0x4F	; 79
    24c8:	f6 4c       	sbci	r31, 0xC6	; 198
    24ca:	40 81       	ld	r20, Z
    24cc:	51 81       	ldd	r21, Z+1	; 0x01
    24ce:	41 15       	cp	r20, r1
    24d0:	51 05       	cpc	r21, r1
    24d2:	21 f0       	breq	.+8      	; 0x24dc <ProcessInput+0x48a>
                    PopulateObject(route[currDepth+1], &actObj1);
    24d4:	60 eb       	ldi	r22, 0xB0	; 176
    24d6:	78 e3       	ldi	r23, 0x38	; 56
    24d8:	ca 01       	movw	r24, r20
    24da:	1e c0       	rjmp	.+60     	; 0x2518 <ProcessInput+0x4c6>
//TODO: CHECKSTATE -> A_CANTLOOK item
                    SetResponse(elements++, actObj1.addrStr[DESC], actObj1.lenStr[DESC],GAME);   
                } else if (currDepth) {
    24dc:	99 23       	and	r25, r25
    24de:	09 f4       	brne	.+2      	; 0x24e2 <ProcessInput+0x490>
                    if (CheckLetter(route[currDepth-1], data[1])) {
    24e0:	6e c5       	rjmp	.+2780   	; 0x2fbe <ProcessInput+0xf6c>
    24e2:	22 0f       	add	r18, r18
    24e4:	33 1f       	adc	r19, r19
    24e6:	f9 01       	movw	r30, r18
    24e8:	e3 55       	subi	r30, 0x53	; 83
    24ea:	f6 4c       	sbci	r31, 0xC6	; 198
    24ec:	d8 01       	movw	r26, r16
    24ee:	11 96       	adiw	r26, 0x01	; 1
    24f0:	6c 91       	ld	r22, X
    24f2:	80 81       	ld	r24, Z
    24f4:	91 81       	ldd	r25, Z+1	; 0x01
    24f6:	46 d9       	rcall	.-3444   	; 0x1784 <CheckLetter>
    24f8:	81 11       	cpse	r24, r1
    24fa:	03 c0       	rjmp	.+6      	; 0x2502 <ProcessInput+0x4b0>
}

//The game logic!
uint8_t ProcessInput(uint8_t *data){
    static object_model_t actObj1, actObj2;
    uint8_t elements = 1;
    24fc:	77 24       	eor	r7, r7
    24fe:	73 94       	inc	r7
                    PopulateObject(route[currDepth+1], &actObj1);
//TODO: CHECKSTATE -> A_CANTLOOK item
                    SetResponse(elements++, actObj1.addrStr[DESC], actObj1.lenStr[DESC],GAME);   
                } else if (currDepth) {
                    if (CheckLetter(route[currDepth-1], data[1])) {
                        PopulateObject(route[currDepth-1], &actObj1);
    2500:	22 c5       	rjmp	.+2628   	; 0x2f46 <ProcessInput+0xef4>
    2502:	e0 91 27 38 	lds	r30, 0x3827	; 0x803827 <currDepth>
    2506:	f0 e0       	ldi	r31, 0x00	; 0
    2508:	ee 0f       	add	r30, r30
    250a:	ff 1f       	adc	r31, r31
    250c:	e3 55       	subi	r30, 0x53	; 83
    250e:	f6 4c       	sbci	r31, 0xC6	; 198
    2510:	60 eb       	ldi	r22, 0xB0	; 176
    2512:	78 e3       	ldi	r23, 0x38	; 56
    2514:	80 81       	ld	r24, Z
    2516:	91 81       	ldd	r25, Z+1	; 0x01
    2518:	be d8       	rcall	.-3716   	; 0x1696 <PopulateObject>
                        SetResponse(elements++, actObj1.addrStr[DESC], actObj1.lenStr[DESC],GAME);
    251a:	80 91 cc 38 	lds	r24, 0x38CC	; 0x8038cc <actObj1.3992+0x1c>
    251e:	90 91 cd 38 	lds	r25, 0x38CD	; 0x8038cd <actObj1.3992+0x1d>
    return 0;
}

//
void SetResponse(uint8_t number, uint16_t address, uint16_t length, uint8_t type){
    reactStr[0][number]=address;
    2522:	20 91 be 38 	lds	r18, 0x38BE	; 0x8038be <actObj1.3992+0xe>
    2526:	30 91 bf 38 	lds	r19, 0x38BF	; 0x8038bf <actObj1.3992+0xf>
    252a:	d6 c3       	rjmp	.+1964   	; 0x2cd8 <ProcessInput+0xc86>
                    SetResponse(elements++, A_DONTSEE, L_DONTSEE, TEASER);
                }
            }
        
        //Pick up an object
        } else if (data[0] == 'p') {
    252c:	80 37       	cpi	r24, 0x70	; 112
    252e:	09 f0       	breq	.+2      	; 0x2532 <ProcessInput+0x4e0>
    2530:	96 c0       	rjmp	.+300    	; 0x265e <ProcessInput+0x60c>
            if (inventory[0]&&inventory[1]) {
    2532:	80 91 31 38 	lds	r24, 0x3831	; 0x803831 <inventory>
    2536:	90 91 32 38 	lds	r25, 0x3832	; 0x803832 <inventory+0x1>
    253a:	89 2b       	or	r24, r25
    253c:	79 f0       	breq	.+30     	; 0x255c <ProcessInput+0x50a>
    253e:	80 91 33 38 	lds	r24, 0x3833	; 0x803833 <inventory+0x2>
    2542:	90 91 34 38 	lds	r25, 0x3834	; 0x803834 <inventory+0x3>
    2546:	89 2b       	or	r24, r25
    2548:	49 f0       	breq	.+18     	; 0x255c <ProcessInput+0x50a>
    return 0;
}

//
void SetResponse(uint8_t number, uint16_t address, uint16_t length, uint8_t type){
    reactStr[0][number]=address;
    254a:	85 e4       	ldi	r24, 0x45	; 69
    254c:	98 e7       	ldi	r25, 0x78	; 120
    254e:	80 93 f1 38 	sts	0x38F1, r24	; 0x8038f1 <reactStr+0x2>
    2552:	90 93 f2 38 	sts	0x38F2, r25	; 0x8038f2 <reactStr+0x3>
    reactStr[1][number]=length;
    2556:	89 e5       	ldi	r24, 0x59	; 89
    2558:	90 e0       	ldi	r25, 0x00	; 0
    255a:	29 ce       	rjmp	.-942    	; 0x21ae <ProcessInput+0x15c>
        
        //Pick up an object
        } else if (data[0] == 'p') {
            if (inventory[0]&&inventory[1]) {
                SetResponse(elements++, A_CARRYTWO, L_CARRYTWO, TEASER);
            } else if (inputLen != 2) {
    255c:	b2 e0       	ldi	r27, 0x02	; 2
    255e:	fb 12       	cpse	r15, r27
    2560:	a7 cd       	rjmp	.-1202   	; 0x20b0 <ProcessInput+0x5e>
                SetResponse(elements++, A_NOTPOSSIBLE, L_NOTPOSSIBLE, TEASER);
            } else {
                route[currDepth+1] = FindChild(route[currDepth], data[1], 0);
    2562:	e0 90 27 38 	lds	r14, 0x3827	; 0x803827 <currDepth>
    2566:	f1 2c       	mov	r15, r1
    2568:	f7 01       	movw	r30, r14
    256a:	ee 0f       	add	r30, r30
    256c:	ff 1f       	adc	r31, r31
    256e:	e1 55       	subi	r30, 0x51	; 81
    2570:	f6 4c       	sbci	r31, 0xC6	; 198
    2572:	40 e0       	ldi	r20, 0x00	; 0
    2574:	50 e0       	ldi	r21, 0x00	; 0
    2576:	d8 01       	movw	r26, r16
    2578:	11 96       	adiw	r26, 0x01	; 1
    257a:	6c 91       	ld	r22, X
    257c:	80 81       	ld	r24, Z
    257e:	91 81       	ldd	r25, Z+1	; 0x01
    2580:	55 d9       	rcall	.-3414   	; 0x182c <FindChild>
    2582:	f7 01       	movw	r30, r14
    2584:	ee 0f       	add	r30, r30
    2586:	ff 1f       	adc	r31, r31
    2588:	ef 54       	subi	r30, 0x4F	; 79
    258a:	f6 4c       	sbci	r31, 0xC6	; 198
    258c:	80 83       	st	Z, r24
    258e:	91 83       	std	Z+1, r25	; 0x01
                if (route[currDepth+1]) {
    2590:	20 91 27 38 	lds	r18, 0x3827	; 0x803827 <currDepth>
    2594:	30 e0       	ldi	r19, 0x00	; 0
    2596:	2f 5f       	subi	r18, 0xFF	; 255
    2598:	3f 4f       	sbci	r19, 0xFF	; 255
    259a:	22 0f       	add	r18, r18
    259c:	33 1f       	adc	r19, r19
    259e:	f9 01       	movw	r30, r18
    25a0:	e1 55       	subi	r30, 0x51	; 81
    25a2:	f6 4c       	sbci	r31, 0xC6	; 198
    25a4:	80 81       	ld	r24, Z
    25a6:	91 81       	ldd	r25, Z+1	; 0x01
    25a8:	00 97       	sbiw	r24, 0x00	; 0
    25aa:	09 f4       	brne	.+2      	; 0x25ae <ProcessInput+0x55c>
    25ac:	ab c3       	rjmp	.+1878   	; 0x2d04 <ProcessInput+0xcb2>
                    if ((route[currDepth+1] == inventory[0])||(route[currDepth+1] == inventory[1])) {
    25ae:	40 91 31 38 	lds	r20, 0x3831	; 0x803831 <inventory>
    25b2:	50 91 32 38 	lds	r21, 0x3832	; 0x803832 <inventory+0x1>
    25b6:	84 17       	cp	r24, r20
    25b8:	95 07       	cpc	r25, r21
    25ba:	39 f0       	breq	.+14     	; 0x25ca <ProcessInput+0x578>
    25bc:	40 91 33 38 	lds	r20, 0x3833	; 0x803833 <inventory+0x2>
    25c0:	50 91 34 38 	lds	r21, 0x3834	; 0x803834 <inventory+0x3>
    25c4:	84 17       	cp	r24, r20
    25c6:	95 07       	cpc	r25, r21
    25c8:	c1 f4       	brne	.+48     	; 0x25fa <ProcessInput+0x5a8>
    return 0;
}

//
void SetResponse(uint8_t number, uint16_t address, uint16_t length, uint8_t type){
    reactStr[0][number]=address;
    25ca:	80 e2       	ldi	r24, 0x20	; 32
    25cc:	98 e7       	ldi	r25, 0x78	; 120
    25ce:	80 93 f1 38 	sts	0x38F1, r24	; 0x8038f1 <reactStr+0x2>
    25d2:	90 93 f2 38 	sts	0x38F2, r25	; 0x8038f2 <reactStr+0x3>
    reactStr[1][number]=length;
    25d6:	85 e2       	ldi	r24, 0x25	; 37
    25d8:	90 e0       	ldi	r25, 0x00	; 0
    25da:	80 93 31 39 	sts	0x3931, r24	; 0x803931 <reactStr+0x42>
    25de:	90 93 32 39 	sts	0x3932, r25	; 0x803932 <reactStr+0x43>
    reactStr[2][number]=type;
    25e2:	81 e0       	ldi	r24, 0x01	; 1
    25e4:	90 e0       	ldi	r25, 0x00	; 0
    25e6:	80 93 71 39 	sts	0x3971, r24	; 0x803971 <reactStr+0x82>
    25ea:	90 93 72 39 	sts	0x3972, r25	; 0x803972 <reactStr+0x83>
            } else {
                route[currDepth+1] = FindChild(route[currDepth], data[1], 0);
                if (route[currDepth+1]) {
                    if ((route[currDepth+1] == inventory[0])||(route[currDepth+1] == inventory[1])) {
                        SetResponse(elements++, A_ALREADYCARRYING, L_ALREADYCARRYING, TEASER);
                        route[currDepth+1] = 0;
    25ee:	f9 01       	movw	r30, r18
    25f0:	e1 55       	subi	r30, 0x51	; 81
    25f2:	f6 4c       	sbci	r31, 0xC6	; 198
    25f4:	10 82       	st	Z, r1
    25f6:	11 82       	std	Z+1, r1	; 0x01
                    } else {
                        //Put item in the inventory if possible
                        PopulateObject(route[currDepth+1], &actObj1);  
    25f8:	e4 cd       	rjmp	.-1080   	; 0x21c2 <ProcessInput+0x170>
    25fa:	60 eb       	ldi	r22, 0xB0	; 176
    25fc:	78 e3       	ldi	r23, 0x38	; 56
    25fe:	4b d8       	rcall	.-3946   	; 0x1696 <PopulateObject>
                        if (CheckState(actObj1.byteField[ACTION_ACL])) {
    2600:	80 91 b7 38 	lds	r24, 0x38B7	; 0x8038b7 <actObj1.3992+0x7>
    2604:	0e 94 c8 08 	call	0x1190	; 0x1190 <CheckState>
    2608:	88 23       	and	r24, r24
    260a:	09 f4       	brne	.+2      	; 0x260e <ProcessInput+0x5bc>
    260c:	5d c3       	rjmp	.+1722   	; 0x2cc8 <ProcessInput+0xc76>
                            if (actObj1.byteField[ITEM_NR]) {
    260e:	80 91 bb 38 	lds	r24, 0x38BB	; 0x8038bb <actObj1.3992+0xb>
    2612:	88 23       	and	r24, r24
    2614:	09 f4       	brne	.+2      	; 0x2618 <ProcessInput+0x5c6>
    2616:	4c cd       	rjmp	.-1384   	; 0x20b0 <ProcessInput+0x5e>
                                if (inventory[0]) {
    2618:	80 91 31 38 	lds	r24, 0x3831	; 0x803831 <inventory>
    261c:	90 91 32 38 	lds	r25, 0x3832	; 0x803832 <inventory+0x1>
    2620:	e0 91 27 38 	lds	r30, 0x3827	; 0x803827 <currDepth>
                                    inventory[1] = route[currDepth+1];
    2624:	f0 e0       	ldi	r31, 0x00	; 0
    2626:	ee 0f       	add	r30, r30
    2628:	ff 1f       	adc	r31, r31
    262a:	ef 54       	subi	r30, 0x4F	; 79
    262c:	f6 4c       	sbci	r31, 0xC6	; 198
                    } else {
                        //Put item in the inventory if possible
                        PopulateObject(route[currDepth+1], &actObj1);  
                        if (CheckState(actObj1.byteField[ACTION_ACL])) {
                            if (actObj1.byteField[ITEM_NR]) {
                                if (inventory[0]) {
    262e:	89 2b       	or	r24, r25
    2630:	39 f0       	breq	.+14     	; 0x2640 <ProcessInput+0x5ee>
                                    inventory[1] = route[currDepth+1];
    2632:	80 81       	ld	r24, Z
    2634:	91 81       	ldd	r25, Z+1	; 0x01
    2636:	80 93 33 38 	sts	0x3833, r24	; 0x803833 <inventory+0x2>
    263a:	90 93 34 38 	sts	0x3834, r25	; 0x803834 <inventory+0x3>
    263e:	06 c0       	rjmp	.+12     	; 0x264c <ProcessInput+0x5fa>
                                } else {
                                    inventory[0] = route[currDepth+1];
    2640:	80 81       	ld	r24, Z
    2642:	91 81       	ldd	r25, Z+1	; 0x01
    2644:	80 93 31 38 	sts	0x3831, r24	; 0x803831 <inventory>
    2648:	90 93 32 38 	sts	0x3832, r25	; 0x803832 <inventory+0x1>
    return 0;
}

//
void SetResponse(uint8_t number, uint16_t address, uint16_t length, uint8_t type){
    reactStr[0][number]=address;
    264c:	8a e0       	ldi	r24, 0x0A	; 10
    264e:	98 e7       	ldi	r25, 0x78	; 120
    2650:	80 93 f1 38 	sts	0x38F1, r24	; 0x8038f1 <reactStr+0x2>
    2654:	90 93 f2 38 	sts	0x38F2, r25	; 0x8038f2 <reactStr+0x3>
    reactStr[1][number]=length;
    2658:	86 e1       	ldi	r24, 0x16	; 22
    265a:	90 e0       	ldi	r25, 0x00	; 0
    265c:	53 c2       	rjmp	.+1190   	; 0x2b04 <ProcessInput+0xab2>
                } else SetResponse(elements++, A_NOSUCHOBJECT, L_NOSUCHOBJECT, TEASER);
            }
        } else

        //Drop item if in inventory
        if (data[0] == 'd') {
    265e:	84 36       	cpi	r24, 0x64	; 100
    2660:	d9 f4       	brne	.+54     	; 0x2698 <ProcessInput+0x646>
            if ((inventory[0] == 0)&&(inventory[1] == 0)){
    2662:	80 91 31 38 	lds	r24, 0x3831	; 0x803831 <inventory>
    2666:	90 91 32 38 	lds	r25, 0x3832	; 0x803832 <inventory+0x1>
    266a:	00 97       	sbiw	r24, 0x00	; 0
    266c:	09 f0       	breq	.+2      	; 0x2670 <ProcessInput+0x61e>
    266e:	b0 c4       	rjmp	.+2400   	; 0x2fd0 <ProcessInput+0xf7e>
    2670:	80 91 33 38 	lds	r24, 0x3833	; 0x803833 <inventory+0x2>
    2674:	90 91 34 38 	lds	r25, 0x3834	; 0x803834 <inventory+0x3>
    2678:	89 2b       	or	r24, r25
    267a:	49 f4       	brne	.+18     	; 0x268e <ProcessInput+0x63c>
    return 0;
}

//
void SetResponse(uint8_t number, uint16_t address, uint16_t length, uint8_t type){
    reactStr[0][number]=address;
    267c:	84 ee       	ldi	r24, 0xE4	; 228
    267e:	97 e7       	ldi	r25, 0x77	; 119
    2680:	80 93 f1 38 	sts	0x38F1, r24	; 0x8038f1 <reactStr+0x2>
    2684:	90 93 f2 38 	sts	0x38F2, r25	; 0x8038f2 <reactStr+0x3>
    reactStr[1][number]=length;
    2688:	86 e2       	ldi	r24, 0x26	; 38
    268a:	90 e0       	ldi	r25, 0x00	; 0
    268c:	90 cd       	rjmp	.-1248   	; 0x21ae <ProcessInput+0x15c>

        //Drop item if in inventory
        if (data[0] == 'd') {
            if ((inventory[0] == 0)&&(inventory[1] == 0)){
                SetResponse(elements++, A_EMPTYHANDS, L_EMPTYHANDS, TEASER);
            } else if (inputLen != 2) {
    268e:	b2 e0       	ldi	r27, 0x02	; 2
    2690:	fb 16       	cp	r15, r27
    2692:	09 f4       	brne	.+2      	; 0x2696 <ProcessInput+0x644>
    2694:	02 c5       	rjmp	.+2564   	; 0x309a <ProcessInput+0x1048>
    2696:	0c cd       	rjmp	.-1512   	; 0x20b0 <ProcessInput+0x5e>
                    if (x) SetResponse(elements++, A_NOTCARRYING, L_NOTCARRYING, TEASER);
                }
            }

        //Inventory list
        } else if (data[0] == 'i') {
    2698:	89 36       	cpi	r24, 0x69	; 105
    269a:	09 f0       	breq	.+2      	; 0x269e <ProcessInput+0x64c>
    269c:	7b c0       	rjmp	.+246    	; 0x2794 <ProcessInput+0x742>
            if ((inventory[0] == 0)&&(inventory[1] == 0)){
    269e:	80 91 31 38 	lds	r24, 0x3831	; 0x803831 <inventory>
    26a2:	90 91 32 38 	lds	r25, 0x3832	; 0x803832 <inventory+0x1>
    26a6:	89 2b       	or	r24, r25
    26a8:	31 f4       	brne	.+12     	; 0x26b6 <ProcessInput+0x664>
    26aa:	80 91 33 38 	lds	r24, 0x3833	; 0x803833 <inventory+0x2>
    26ae:	90 91 34 38 	lds	r25, 0x3834	; 0x803834 <inventory+0x3>
    26b2:	89 2b       	or	r24, r25
    26b4:	19 f3       	breq	.-58     	; 0x267c <ProcessInput+0x62a>
    return 0;
}

//
void SetResponse(uint8_t number, uint16_t address, uint16_t length, uint8_t type){
    reactStr[0][number]=address;
    26b6:	8a e0       	ldi	r24, 0x0A	; 10
    26b8:	98 e7       	ldi	r25, 0x78	; 120
    26ba:	80 93 f1 38 	sts	0x38F1, r24	; 0x8038f1 <reactStr+0x2>
    26be:	90 93 f2 38 	sts	0x38F2, r25	; 0x8038f2 <reactStr+0x3>
    reactStr[1][number]=length;
    26c2:	86 e1       	ldi	r24, 0x16	; 22
    26c4:	90 e0       	ldi	r25, 0x00	; 0
    26c6:	80 93 31 39 	sts	0x3931, r24	; 0x803931 <reactStr+0x42>
    26ca:	90 93 32 39 	sts	0x3932, r25	; 0x803932 <reactStr+0x43>
    reactStr[2][number]=type;
    26ce:	81 e0       	ldi	r24, 0x01	; 1
    26d0:	90 e0       	ldi	r25, 0x00	; 0
    26d2:	80 93 71 39 	sts	0x3971, r24	; 0x803971 <reactStr+0x82>
    26d6:	90 93 72 39 	sts	0x3972, r25	; 0x803972 <reactStr+0x83>
    26da:	21 e3       	ldi	r18, 0x31	; 49
    26dc:	e2 2e       	mov	r14, r18
    26de:	28 e3       	ldi	r18, 0x38	; 56
    26e0:	f2 2e       	mov	r15, r18
    26e2:	35 e3       	ldi	r19, 0x35	; 53
    26e4:	63 2e       	mov	r6, r19
    26e6:	38 e3       	ldi	r19, 0x38	; 56
    26e8:	73 2e       	mov	r7, r19
        //Inventory list
        } else if (data[0] == 'i') {
            if ((inventory[0] == 0)&&(inventory[1] == 0)){
                SetResponse(elements++, A_EMPTYHANDS, L_EMPTYHANDS, TEASER);
            } else {
                SetResponse(elements++, A_NOWCARRING, L_NOWCARRING, TEASER);
    26ea:	42 e0       	ldi	r20, 0x02	; 2
    26ec:	54 2e       	mov	r5, r20
    return 0;
}

//
void SetResponse(uint8_t number, uint16_t address, uint16_t length, uint8_t type){
    reactStr[0][number]=address;
    26ee:	59 e5       	ldi	r21, 0x59	; 89
    26f0:	c5 2e       	mov	r12, r21
    26f2:	5a e7       	ldi	r21, 0x7A	; 122
    26f4:	d5 2e       	mov	r13, r21
    reactStr[1][number]=length;
    26f6:	62 e0       	ldi	r22, 0x02	; 2
    26f8:	a6 2e       	mov	r10, r22
    26fa:	b1 2c       	mov	r11, r1
    reactStr[2][number]=type;
    26fc:	88 24       	eor	r8, r8
    26fe:	83 94       	inc	r8
    2700:	91 2c       	mov	r9, r1
            } else {
                SetResponse(elements++, A_NOWCARRING, L_NOWCARRING, TEASER);
                //SetResponse(elements++, A_SPACE, L_SPACE, TEASER);
                
                for (uint8_t x=0; x<2; ++x) {
                    if (inventory[x]) {
    2702:	d7 01       	movw	r26, r14
    2704:	8d 91       	ld	r24, X+
    2706:	9d 91       	ld	r25, X+
    2708:	7d 01       	movw	r14, r26
    270a:	00 97       	sbiw	r24, 0x00	; 0
    270c:	d9 f1       	breq	.+118    	; 0x2784 <ProcessInput+0x732>
                        PopulateObject(inventory[x], &actObj1);
    270e:	60 eb       	ldi	r22, 0xB0	; 176
    2710:	78 e3       	ldi	r23, 0x38	; 56
    2712:	0e 94 4b 0b 	call	0x1696	; 0x1696 <PopulateObject>
                        SetResponse(elements++, actObj1.addrStr[NAME], actObj1.lenStr[NAME], GAME);
    2716:	80 91 ca 38 	lds	r24, 0x38CA	; 0x8038ca <actObj1.3992+0x1a>
    271a:	90 91 cb 38 	lds	r25, 0x38CB	; 0x8038cb <actObj1.3992+0x1b>
    return 0;
}

//
void SetResponse(uint8_t number, uint16_t address, uint16_t length, uint8_t type){
    reactStr[0][number]=address;
    271e:	e5 2d       	mov	r30, r5
    2720:	f0 e0       	ldi	r31, 0x00	; 0
    2722:	df 01       	movw	r26, r30
    2724:	aa 0f       	add	r26, r26
    2726:	bb 1f       	adc	r27, r27
    2728:	a1 51       	subi	r26, 0x11	; 17
    272a:	b7 4c       	sbci	r27, 0xC7	; 199
    272c:	20 91 bc 38 	lds	r18, 0x38BC	; 0x8038bc <actObj1.3992+0xc>
    2730:	30 91 bd 38 	lds	r19, 0x38BD	; 0x8038bd <actObj1.3992+0xd>
    2734:	2d 93       	st	X+, r18
    2736:	3c 93       	st	X, r19
    reactStr[1][number]=length;
    2738:	df 01       	movw	r26, r30
    273a:	aa 0f       	add	r26, r26
    273c:	bb 1f       	adc	r27, r27
    273e:	a1 5d       	subi	r26, 0xD1	; 209
    2740:	b6 4c       	sbci	r27, 0xC6	; 198
    2742:	8d 93       	st	X+, r24
    2744:	9c 93       	st	X, r25
    reactStr[2][number]=type;
    2746:	ee 0f       	add	r30, r30
    2748:	ff 1f       	adc	r31, r31
    274a:	e1 59       	subi	r30, 0x91	; 145
    274c:	f6 4c       	sbci	r31, 0xC6	; 198
    274e:	10 82       	st	Z, r1
    2750:	11 82       	std	Z+1, r1	; 0x01
    return 0;
}

//
void SetResponse(uint8_t number, uint16_t address, uint16_t length, uint8_t type){
    reactStr[0][number]=address;
    2752:	e1 e0       	ldi	r30, 0x01	; 1
    2754:	e5 0d       	add	r30, r5
    2756:	f0 e0       	ldi	r31, 0x00	; 0
    2758:	53 94       	inc	r5
    275a:	53 94       	inc	r5
    275c:	df 01       	movw	r26, r30
    275e:	aa 0f       	add	r26, r26
    2760:	bb 1f       	adc	r27, r27
    2762:	a1 51       	subi	r26, 0x11	; 17
    2764:	b7 4c       	sbci	r27, 0xC7	; 199
    2766:	cd 92       	st	X+, r12
    2768:	dc 92       	st	X, r13
    reactStr[1][number]=length;
    276a:	df 01       	movw	r26, r30
    276c:	aa 0f       	add	r26, r26
    276e:	bb 1f       	adc	r27, r27
    2770:	a1 5d       	subi	r26, 0xD1	; 209
    2772:	b6 4c       	sbci	r27, 0xC6	; 198
    2774:	ad 92       	st	X+, r10
    2776:	bc 92       	st	X, r11
    reactStr[2][number]=type;
    2778:	ee 0f       	add	r30, r30
    277a:	ff 1f       	adc	r31, r31
    277c:	e1 59       	subi	r30, 0x91	; 145
    277e:	f6 4c       	sbci	r31, 0xC6	; 198
    2780:	80 82       	st	Z, r8
    2782:	91 82       	std	Z+1, r9	; 0x01
                SetResponse(elements++, A_EMPTYHANDS, L_EMPTYHANDS, TEASER);
            } else {
                SetResponse(elements++, A_NOWCARRING, L_NOWCARRING, TEASER);
                //SetResponse(elements++, A_SPACE, L_SPACE, TEASER);
                
                for (uint8_t x=0; x<2; ++x) {
    2784:	6e 14       	cp	r6, r14
    2786:	7f 04       	cpc	r7, r15
    2788:	09 f0       	breq	.+2      	; 0x278c <ProcessInput+0x73a>
    278a:	bb cf       	rjmp	.-138    	; 0x2702 <ProcessInput+0x6b0>
                        SetResponse(elements++, actObj1.addrStr[NAME], actObj1.lenStr[NAME], GAME);
                        SetResponse(elements++, A_COMMA, L_COMMA, TEASER);
                        //SetResponse(elements++, A_SPACE, L_SPACE, TEASER);
                    }
                }
                elements -= 1;
    278c:	77 24       	eor	r7, r7
    278e:	7a 94       	dec	r7
    2790:	75 0c       	add	r7, r5
    2792:	d9 c3       	rjmp	.+1970   	; 0x2f46 <ProcessInput+0xef4>
            }            
        
        //Talk, use, give, read
        } else if ((data[0] == 't')||(data[0] == 'u')||(data[0] == 'g')||(data[0] == 'r')) {
    2794:	9c e8       	ldi	r25, 0x8C	; 140
    2796:	98 0f       	add	r25, r24
    2798:	92 30       	cpi	r25, 0x02	; 2
    279a:	28 f0       	brcs	.+10     	; 0x27a6 <ProcessInput+0x754>
    279c:	87 36       	cpi	r24, 0x67	; 103
    279e:	19 f0       	breq	.+6      	; 0x27a6 <ProcessInput+0x754>
    27a0:	82 37       	cpi	r24, 0x72	; 114
    27a2:	09 f0       	breq	.+2      	; 0x27a6 <ProcessInput+0x754>
    27a4:	b8 c2       	rjmp	.+1392   	; 0x2d16 <ProcessInput+0xcc4>
            if ((inputLen<2)||(inputLen>3)) {
    27a6:	8e ef       	ldi	r24, 0xFE	; 254
    27a8:	8f 0d       	add	r24, r15
    27aa:	82 30       	cpi	r24, 0x02	; 2
    27ac:	08 f0       	brcs	.+2      	; 0x27b0 <ProcessInput+0x75e>
    27ae:	80 cc       	rjmp	.-1792   	; 0x20b0 <ProcessInput+0x5e>
                SetResponse(elements++, A_NOTPOSSIBLE, L_NOTPOSSIBLE, TEASER);                
            
            //Check for visible person or object first
            } else {
                route[currDepth+1] = FindChild(route[currDepth], data[inputLen-1], 0);
    27b0:	e0 91 27 38 	lds	r30, 0x3827	; 0x803827 <currDepth>
    27b4:	ce 2e       	mov	r12, r30
    27b6:	d1 2c       	mov	r13, r1
    27b8:	d8 01       	movw	r26, r16
    27ba:	af 0d       	add	r26, r15
    27bc:	b1 1d       	adc	r27, r1
    27be:	11 97       	sbiw	r26, 0x01	; 1
    27c0:	f6 01       	movw	r30, r12
    27c2:	ee 0f       	add	r30, r30
    27c4:	ff 1f       	adc	r31, r31
    27c6:	e1 55       	subi	r30, 0x51	; 81
    27c8:	f6 4c       	sbci	r31, 0xC6	; 198
    27ca:	40 e0       	ldi	r20, 0x00	; 0
    27cc:	50 e0       	ldi	r21, 0x00	; 0
    27ce:	6c 91       	ld	r22, X
    27d0:	80 81       	ld	r24, Z
    27d2:	91 81       	ldd	r25, Z+1	; 0x01
    27d4:	2b d8       	rcall	.-4010   	; 0x182c <FindChild>
    27d6:	f6 01       	movw	r30, r12
    27d8:	ee 0f       	add	r30, r30
    27da:	ff 1f       	adc	r31, r31
    27dc:	ef 54       	subi	r30, 0x4F	; 79
    27de:	f6 4c       	sbci	r31, 0xC6	; 198
    27e0:	80 83       	st	Z, r24
    27e2:	91 83       	std	Z+1, r25	; 0x01
                if (route[currDepth+1]) {
    27e4:	e0 91 27 38 	lds	r30, 0x3827	; 0x803827 <currDepth>
    27e8:	f0 e0       	ldi	r31, 0x00	; 0
    27ea:	ee 0f       	add	r30, r30
    27ec:	ff 1f       	adc	r31, r31
    27ee:	ef 54       	subi	r30, 0x4F	; 79
    27f0:	f6 4c       	sbci	r31, 0xC6	; 198
    27f2:	80 81       	ld	r24, Z
    27f4:	91 81       	ldd	r25, Z+1	; 0x01
    27f6:	00 97       	sbiw	r24, 0x00	; 0
    27f8:	09 f4       	brne	.+2      	; 0x27fc <ProcessInput+0x7aa>
    27fa:	7b c2       	rjmp	.+1270   	; 0x2cf2 <ProcessInput+0xca0>
                    
                    //Give item to person / use item on object 
                    if ((inputLen == 3)&&((data[0] == 'u')||(data[0] == 'g'))) {
    27fc:	b3 e0       	ldi	r27, 0x03	; 3
    27fe:	fb 12       	cpse	r15, r27
    2800:	6d c1       	rjmp	.+730    	; 0x2adc <ProcessInput+0xa8a>
    2802:	f8 01       	movw	r30, r16
    2804:	20 81       	ld	r18, Z
    2806:	25 37       	cpi	r18, 0x75	; 117
    2808:	19 f0       	breq	.+6      	; 0x2810 <ProcessInput+0x7be>
    280a:	27 36       	cpi	r18, 0x67	; 103
    280c:	09 f0       	breq	.+2      	; 0x2810 <ProcessInput+0x7be>
    280e:	66 c1       	rjmp	.+716    	; 0x2adc <ProcessInput+0xa8a>
    2810:	61 2c       	mov	r6, r1
    2812:	77 24       	eor	r7, r7
    2814:	73 94       	inc	r7
    return 0;
}

//
void SetResponse(uint8_t number, uint16_t address, uint16_t length, uint8_t type){
    reactStr[0][number]=address;
    2816:	54 e6       	ldi	r21, 0x64	; 100
    2818:	c5 2e       	mov	r12, r21
    281a:	59 e7       	ldi	r21, 0x79	; 121
    281c:	d5 2e       	mov	r13, r21
    reactStr[1][number]=length;
    281e:	61 e2       	ldi	r22, 0x21	; 33
    2820:	a6 2e       	mov	r10, r22
    2822:	b1 2c       	mov	r11, r1
    reactStr[2][number]=type;
    2824:	88 24       	eor	r8, r8
    2826:	83 94       	inc	r8
    2828:	91 2c       	mov	r9, r1
                if (route[currDepth+1]) {
                    
                    //Give item to person / use item on object 
                    if ((inputLen == 3)&&((data[0] == 'u')||(data[0] == 'g'))) {
                        for (uint8_t x=0; x<2; x++) {
                            if (inventory[x]) { 
    282a:	e6 2c       	mov	r14, r6
    282c:	f1 2c       	mov	r15, r1
    282e:	c7 01       	movw	r24, r14
    2830:	88 0f       	add	r24, r24
    2832:	99 1f       	adc	r25, r25
    2834:	9c 01       	movw	r18, r24
    2836:	2f 5c       	subi	r18, 0xCF	; 207
    2838:	37 4c       	sbci	r19, 0xC7	; 199
    283a:	79 01       	movw	r14, r18
    283c:	d9 01       	movw	r26, r18
    283e:	8d 91       	ld	r24, X+
    2840:	9c 91       	ld	r25, X
    2842:	00 97       	sbiw	r24, 0x00	; 0
    2844:	81 f0       	breq	.+32     	; 0x2866 <ProcessInput+0x814>
                                if (CheckLetter(inventory[x], data[1])) {
    2846:	f8 01       	movw	r30, r16
    2848:	61 81       	ldd	r22, Z+1	; 0x01
    284a:	0e 94 c2 0b 	call	0x1784	; 0x1784 <CheckLetter>
    284e:	88 23       	and	r24, r24
    2850:	51 f0       	breq	.+20     	; 0x2866 <ProcessInput+0x814>
                                    PopulateObject(inventory[x], &actObj2);
    2852:	65 e8       	ldi	r22, 0x85	; 133
    2854:	78 e3       	ldi	r23, 0x38	; 56
    2856:	d7 01       	movw	r26, r14
    2858:	8d 91       	ld	r24, X+
    285a:	9c 91       	ld	r25, X
    285c:	0e 94 4b 0b 	call	0x1696	; 0x1696 <PopulateObject>
                                    x = 2;
    2860:	32 e0       	ldi	r19, 0x02	; 2
    2862:	63 2e       	mov	r6, r19
    2864:	1e c0       	rjmp	.+60     	; 0x28a2 <ProcessInput+0x850>
                                }
                            }
                            if (x == 1) { 
    2866:	b1 e0       	ldi	r27, 0x01	; 1
    2868:	6b 12       	cpse	r6, r27
    286a:	1a c0       	rjmp	.+52     	; 0x28a0 <ProcessInput+0x84e>
    return 0;
}

//
void SetResponse(uint8_t number, uint16_t address, uint16_t length, uint8_t type){
    reactStr[0][number]=address;
    286c:	e7 2d       	mov	r30, r7
    286e:	f0 e0       	ldi	r31, 0x00	; 0
    2870:	df 01       	movw	r26, r30
    2872:	aa 0f       	add	r26, r26
    2874:	bb 1f       	adc	r27, r27
    2876:	a1 51       	subi	r26, 0x11	; 17
    2878:	b7 4c       	sbci	r27, 0xC7	; 199
    287a:	cd 92       	st	X+, r12
    287c:	dc 92       	st	X, r13
    reactStr[1][number]=length;
    287e:	df 01       	movw	r26, r30
    2880:	aa 0f       	add	r26, r26
    2882:	bb 1f       	adc	r27, r27
    2884:	a1 5d       	subi	r26, 0xD1	; 209
    2886:	b6 4c       	sbci	r27, 0xC6	; 198
    2888:	ad 92       	st	X+, r10
    288a:	bc 92       	st	X, r11
    reactStr[2][number]=type;
    288c:	ee 0f       	add	r30, r30
    288e:	ff 1f       	adc	r31, r31
    2890:	e1 59       	subi	r30, 0x91	; 145
    2892:	f6 4c       	sbci	r31, 0xC6	; 198
    2894:	80 82       	st	Z, r8
    2896:	91 82       	std	Z+1, r9	; 0x01
                                    x = 2;
                                }
                            }
                            if (x == 1) { 
                                SetResponse(elements++, A_NOTCARRYING, L_NOTCARRYING, TEASER);
                                data[0] = 0;
    2898:	f8 01       	movw	r30, r16
    289a:	10 82       	st	Z, r1
                                    PopulateObject(inventory[x], &actObj2);
                                    x = 2;
                                }
                            }
                            if (x == 1) { 
                                SetResponse(elements++, A_NOTCARRYING, L_NOTCARRYING, TEASER);
    289c:	73 94       	inc	r7
    289e:	01 c0       	rjmp	.+2      	; 0x28a2 <ProcessInput+0x850>
    28a0:	61 2c       	mov	r6, r1
                route[currDepth+1] = FindChild(route[currDepth], data[inputLen-1], 0);
                if (route[currDepth+1]) {
                    
                    //Give item to person / use item on object 
                    if ((inputLen == 3)&&((data[0] == 'u')||(data[0] == 'g'))) {
                        for (uint8_t x=0; x<2; x++) {
    28a2:	63 94       	inc	r6
    28a4:	f1 e0       	ldi	r31, 0x01	; 1
    28a6:	6f 16       	cp	r6, r31
    28a8:	09 f4       	brne	.+2      	; 0x28ac <ProcessInput+0x85a>
    28aa:	bf cf       	rjmp	.-130    	; 0x282a <ProcessInput+0x7d8>
                                data[0] = 0;
                            }
                        }

                        //Both the item and person/object are found, check if action is legit
                        if (data[0]){
    28ac:	d8 01       	movw	r26, r16
    28ae:	8c 91       	ld	r24, X
    28b0:	88 23       	and	r24, r24
    28b2:	09 f4       	brne	.+2      	; 0x28b6 <ProcessInput+0x864>
    28b4:	48 c3       	rjmp	.+1680   	; 0x2f46 <ProcessInput+0xef4>
                            PopulateObject(route[currDepth+1], &actObj1);
    28b6:	e0 91 27 38 	lds	r30, 0x3827	; 0x803827 <currDepth>
    28ba:	f0 e0       	ldi	r31, 0x00	; 0
    28bc:	ee 0f       	add	r30, r30
    28be:	ff 1f       	adc	r31, r31
    28c0:	ef 54       	subi	r30, 0x4F	; 79
    28c2:	f6 4c       	sbci	r31, 0xC6	; 198
    28c4:	60 eb       	ldi	r22, 0xB0	; 176
    28c6:	78 e3       	ldi	r23, 0x38	; 56
    28c8:	80 81       	ld	r24, Z
    28ca:	91 81       	ldd	r25, Z+1	; 0x01
    28cc:	0e 94 4b 0b 	call	0x1696	; 0x1696 <PopulateObject>

                            //Special game
                            if (actObj1.lenStr[ACTION_STR1] == 1) {
    28d0:	e0 90 ce 38 	lds	r14, 0x38CE	; 0x8038ce <actObj1.3992+0x1e>
    28d4:	f0 90 cf 38 	lds	r15, 0x38CF	; 0x8038cf <actObj1.3992+0x1f>
    28d8:	b1 e0       	ldi	r27, 0x01	; 1
    28da:	eb 16       	cp	r14, r27
    28dc:	f1 04       	cpc	r15, r1
    28de:	09 f0       	breq	.+2      	; 0x28e2 <ProcessInput+0x890>
    28e0:	9a c0       	rjmp	.+308    	; 0x2a16 <ProcessInput+0x9c4>
                                ExtEERead(actObj1.addrStr[ACTION_STR1], 1, GAME, &data[2]);
    28e2:	98 01       	movw	r18, r16
    28e4:	2e 5f       	subi	r18, 0xFE	; 254
    28e6:	3f 4f       	sbci	r19, 0xFF	; 255
    28e8:	40 e0       	ldi	r20, 0x00	; 0
    28ea:	61 e0       	ldi	r22, 0x01	; 1
    28ec:	80 91 c0 38 	lds	r24, 0x38C0	; 0x8038c0 <actObj1.3992+0x10>
    28f0:	90 91 c1 38 	lds	r25, 0x38C1	; 0x8038c1 <actObj1.3992+0x11>
    28f4:	0e 94 40 0a 	call	0x1480	; 0x1480 <ExtEERead>
                                if (data[2] == '1') {
    28f8:	f8 01       	movw	r30, r16
    28fa:	42 81       	ldd	r20, Z+2	; 0x02
    28fc:	21 e0       	ldi	r18, 0x01	; 1
    28fe:	27 0d       	add	r18, r7
    2900:	87 2d       	mov	r24, r7
    2902:	90 e0       	ldi	r25, 0x00	; 0
    2904:	41 33       	cpi	r20, 0x31	; 49
    2906:	09 f0       	breq	.+2      	; 0x290a <ProcessInput+0x8b8>
    2908:	6b c0       	rjmp	.+214    	; 0x29e0 <ProcessInput+0x98e>
                                    uint8_t item = actObj2.byteField[ITEM_NR];
    290a:	30 91 90 38 	lds	r19, 0x3890	; 0x803890 <actObj2.3993+0xb>
                                    if ((item < 31)||(item > 34)) {
    290e:	51 ee       	ldi	r21, 0xE1	; 225
    2910:	53 0f       	add	r21, r19
    return 0;
}

//
void SetResponse(uint8_t number, uint16_t address, uint16_t length, uint8_t type){
    reactStr[0][number]=address;
    2912:	fc 01       	movw	r30, r24
    2914:	ee 0f       	add	r30, r30
    2916:	ff 1f       	adc	r31, r31
    2918:	e1 51       	subi	r30, 0x11	; 17
    291a:	f7 4c       	sbci	r31, 0xC7	; 199
                            //Special game
                            if (actObj1.lenStr[ACTION_STR1] == 1) {
                                ExtEERead(actObj1.addrStr[ACTION_STR1], 1, GAME, &data[2]);
                                if (data[2] == '1') {
                                    uint8_t item = actObj2.byteField[ITEM_NR];
                                    if ((item < 31)||(item > 34)) {
    291c:	54 30       	cpi	r21, 0x04	; 4
    291e:	60 f0       	brcs	.+24     	; 0x2938 <ProcessInput+0x8e6>
    return 0;
}

//
void SetResponse(uint8_t number, uint16_t address, uint16_t length, uint8_t type){
    reactStr[0][number]=address;
    2920:	44 e0       	ldi	r20, 0x04	; 4
    2922:	59 e7       	ldi	r21, 0x79	; 121
    2924:	40 83       	st	Z, r20
    2926:	51 83       	std	Z+1, r21	; 0x01
    reactStr[1][number]=length;
    2928:	fc 01       	movw	r30, r24
    292a:	ee 0f       	add	r30, r30
    292c:	ff 1f       	adc	r31, r31
    292e:	e1 5d       	subi	r30, 0xD1	; 209
    2930:	f6 4c       	sbci	r31, 0xC6	; 198
    2932:	4a e1       	ldi	r20, 0x1A	; 26
    2934:	50 e0       	ldi	r21, 0x00	; 0
    2936:	64 c0       	rjmp	.+200    	; 0x2a00 <ProcessInput+0x9ae>
    return 0;
}

//
void SetResponse(uint8_t number, uint16_t address, uint16_t length, uint8_t type){
    reactStr[0][number]=address;
    2938:	6e e8       	ldi	r22, 0x8E	; 142
    293a:	75 e7       	ldi	r23, 0x75	; 117
    293c:	60 83       	st	Z, r22
    293e:	71 83       	std	Z+1, r23	; 0x01
    reactStr[1][number]=length;
    2940:	fc 01       	movw	r30, r24
    2942:	ee 0f       	add	r30, r30
    2944:	ff 1f       	adc	r31, r31
    2946:	e1 5d       	subi	r30, 0xD1	; 209
    2948:	f6 4c       	sbci	r31, 0xC6	; 198
    294a:	62 eb       	ldi	r22, 0xB2	; 178
    294c:	70 e0       	ldi	r23, 0x00	; 0
    294e:	60 83       	st	Z, r22
    2950:	71 83       	std	Z+1, r23	; 0x01
    reactStr[2][number]=type;
    2952:	88 0f       	add	r24, r24
    2954:	99 1f       	adc	r25, r25
    2956:	fc 01       	movw	r30, r24
    2958:	e1 59       	subi	r30, 0x91	; 145
    295a:	f6 4c       	sbci	r31, 0xC6	; 198
    295c:	e0 82       	st	Z, r14
    295e:	f1 82       	std	Z+1, r15	; 0x01
    return 0;
}

//
void SetResponse(uint8_t number, uint16_t address, uint16_t length, uint8_t type){
    reactStr[0][number]=address;
    2960:	82 2f       	mov	r24, r18
    2962:	90 e0       	ldi	r25, 0x00	; 0
    2964:	fc 01       	movw	r30, r24
    2966:	ee 0f       	add	r30, r30
    2968:	ff 1f       	adc	r31, r31
    296a:	e1 51       	subi	r30, 0x11	; 17
    296c:	f7 4c       	sbci	r31, 0xC7	; 199
    296e:	6b e5       	ldi	r22, 0x5B	; 91
    2970:	7a e7       	ldi	r23, 0x7A	; 122
    2972:	60 83       	st	Z, r22
    2974:	71 83       	std	Z+1, r23	; 0x01
    reactStr[1][number]=length;
    2976:	fc 01       	movw	r30, r24
    2978:	ee 0f       	add	r30, r30
    297a:	ff 1f       	adc	r31, r31
    297c:	e1 5d       	subi	r30, 0xD1	; 209
    297e:	f6 4c       	sbci	r31, 0xC6	; 198
    2980:	62 e0       	ldi	r22, 0x02	; 2
    2982:	70 e0       	ldi	r23, 0x00	; 0
    2984:	60 83       	st	Z, r22
    2986:	71 83       	std	Z+1, r23	; 0x01
    reactStr[2][number]=type;
    2988:	88 0f       	add	r24, r24
    298a:	99 1f       	adc	r25, r25
    298c:	fc 01       	movw	r30, r24
    298e:	e1 59       	subi	r30, 0x91	; 145
    2990:	f6 4c       	sbci	r31, 0xC6	; 198
    2992:	e0 82       	st	Z, r14
    2994:	f1 82       	std	Z+1, r15	; 0x01
    return 0;
}

//
void SetResponse(uint8_t number, uint16_t address, uint16_t length, uint8_t type){
    reactStr[0][number]=address;
    2996:	82 e0       	ldi	r24, 0x02	; 2
    2998:	87 0d       	add	r24, r7
    299a:	90 e0       	ldi	r25, 0x00	; 0
    299c:	f3 e0       	ldi	r31, 0x03	; 3
    299e:	7f 0e       	add	r7, r31
    29a0:	fc 01       	movw	r30, r24
    29a2:	ee 0f       	add	r30, r30
    29a4:	ff 1f       	adc	r31, r31
    29a6:	e1 51       	subi	r30, 0x11	; 17
    29a8:	f7 4c       	sbci	r31, 0xC7	; 199
    29aa:	60 eb       	ldi	r22, 0xB0	; 176
    29ac:	78 e7       	ldi	r23, 0x78	; 120
    29ae:	60 83       	st	Z, r22
    29b0:	71 83       	std	Z+1, r23	; 0x01
    reactStr[1][number]=length;
    29b2:	fc 01       	movw	r30, r24
    29b4:	ee 0f       	add	r30, r30
    29b6:	ff 1f       	adc	r31, r31
    29b8:	e1 5d       	subi	r30, 0xD1	; 209
    29ba:	f6 4c       	sbci	r31, 0xC6	; 198
    29bc:	62 e1       	ldi	r22, 0x12	; 18
    29be:	70 e0       	ldi	r23, 0x00	; 0
    29c0:	60 83       	st	Z, r22
    29c2:	71 83       	std	Z+1, r23	; 0x01
    reactStr[2][number]=type;
    29c4:	88 0f       	add	r24, r24
    29c6:	99 1f       	adc	r25, r25
    29c8:	fc 01       	movw	r30, r24
    29ca:	e1 59       	subi	r30, 0x91	; 145
    29cc:	f6 4c       	sbci	r31, 0xC6	; 198
    29ce:	e0 82       	st	Z, r14
    29d0:	f1 82       	std	Z+1, r15	; 0x01
                                        SetResponse(elements++, A_CANTUSE, L_CANTUSE, TEASER);
                                    } else {
                                        SetResponse(elements++, A_PRIEST, L_PRIEST, TEASER);
                                        SetResponse(elements++, A_LF, 2, TEASER);
                                        SetResponse(elements++, A_RESPONSE, L_RESPONSE, TEASER);
                                        specialInput[0] = '1';
    29d2:	40 93 de 38 	sts	0x38DE, r20	; 0x8038de <specialInput>
                                        specialInput[1] = item;
    29d6:	30 93 df 38 	sts	0x38DF, r19	; 0x8038df <specialInput+0x1>
                                        specialInput[2] = 0;
    29da:	10 92 e0 38 	sts	0x38E0, r1	; 0x8038e0 <specialInput+0x2>
    29de:	b3 c2       	rjmp	.+1382   	; 0x2f46 <ProcessInput+0xef4>
    return 0;
}

//
void SetResponse(uint8_t number, uint16_t address, uint16_t length, uint8_t type){
    reactStr[0][number]=address;
    29e0:	fc 01       	movw	r30, r24
    29e2:	ee 0f       	add	r30, r30
    29e4:	ff 1f       	adc	r31, r31
    29e6:	e1 51       	subi	r30, 0x11	; 17
    29e8:	f7 4c       	sbci	r31, 0xC7	; 199
    29ea:	40 e4       	ldi	r20, 0x40	; 64
    29ec:	56 e7       	ldi	r21, 0x76	; 118
    29ee:	40 83       	st	Z, r20
    29f0:	51 83       	std	Z+1, r21	; 0x01
    reactStr[1][number]=length;
    29f2:	fc 01       	movw	r30, r24
    29f4:	ee 0f       	add	r30, r30
    29f6:	ff 1f       	adc	r31, r31
    29f8:	e1 5d       	subi	r30, 0xD1	; 209
    29fa:	f6 4c       	sbci	r31, 0xC6	; 198
    29fc:	42 e4       	ldi	r20, 0x42	; 66
    29fe:	50 e0       	ldi	r21, 0x00	; 0
    2a00:	40 83       	st	Z, r20
    2a02:	51 83       	std	Z+1, r21	; 0x01
    reactStr[2][number]=type;
    2a04:	88 0f       	add	r24, r24
    2a06:	99 1f       	adc	r25, r25
    2a08:	fc 01       	movw	r30, r24
    2a0a:	e1 59       	subi	r30, 0x91	; 145
    2a0c:	f6 4c       	sbci	r31, 0xC6	; 198
    2a0e:	e0 82       	st	Z, r14
    2a10:	f1 82       	std	Z+1, r15	; 0x01
                                        specialInput[2] = 0;
                                    }

                                //There should not be another special
                                } else {
                                    SetResponse(elements++, A_ERROR, L_ERROR, TEASER);
    2a12:	72 2e       	mov	r7, r18
    2a14:	98 c2       	rjmp	.+1328   	; 0x2f46 <ProcessInput+0xef4>
                                }

                            //Normal "use ... on ..." or "give ... to ..." action
                            } else if (actObj1.byteField[ACTION_ITEM] == actObj2.byteField[ITEM_NR]) {
    2a16:	90 91 b9 38 	lds	r25, 0x38B9	; 0x8038b9 <actObj1.3992+0x9>
    2a1a:	80 91 90 38 	lds	r24, 0x3890	; 0x803890 <actObj2.3993+0xb>
    2a1e:	98 13       	cpse	r25, r24
    2a20:	24 c0       	rjmp	.+72     	; 0x2a6a <ProcessInput+0xa18>
                                UpdateState(actObj1.byteField[ACTION_STATE]);
    2a22:	80 91 ba 38 	lds	r24, 0x38BA	; 0x8038ba <actObj1.3992+0xa>
    2a26:	0e 94 c0 08 	call	0x1180	; 0x1180 <UpdateState>
                                SetResponse(elements++, actObj1.addrStr[ACTION_MSG], actObj1.lenStr[ACTION_MSG], GAME);
    2a2a:	20 91 d6 38 	lds	r18, 0x38D6	; 0x8038d6 <actObj1.3992+0x26>
    2a2e:	30 91 d7 38 	lds	r19, 0x38D7	; 0x8038d7 <actObj1.3992+0x27>
    return 0;
}

//
void SetResponse(uint8_t number, uint16_t address, uint16_t length, uint8_t type){
    reactStr[0][number]=address;
    2a32:	87 2d       	mov	r24, r7
    2a34:	90 e0       	ldi	r25, 0x00	; 0
    2a36:	fc 01       	movw	r30, r24
    2a38:	ee 0f       	add	r30, r30
    2a3a:	ff 1f       	adc	r31, r31
    2a3c:	e1 51       	subi	r30, 0x11	; 17
    2a3e:	f7 4c       	sbci	r31, 0xC7	; 199
    2a40:	40 91 c8 38 	lds	r20, 0x38C8	; 0x8038c8 <actObj1.3992+0x18>
    2a44:	50 91 c9 38 	lds	r21, 0x38C9	; 0x8038c9 <actObj1.3992+0x19>
    2a48:	40 83       	st	Z, r20
    2a4a:	51 83       	std	Z+1, r21	; 0x01
    reactStr[1][number]=length;
    2a4c:	fc 01       	movw	r30, r24
    2a4e:	ee 0f       	add	r30, r30
    2a50:	ff 1f       	adc	r31, r31
    2a52:	e1 5d       	subi	r30, 0xD1	; 209
    2a54:	f6 4c       	sbci	r31, 0xC6	; 198
    2a56:	20 83       	st	Z, r18
    2a58:	31 83       	std	Z+1, r19	; 0x01
    reactStr[2][number]=type;
    2a5a:	88 0f       	add	r24, r24
    2a5c:	99 1f       	adc	r25, r25
    2a5e:	fc 01       	movw	r30, r24
    2a60:	e1 59       	subi	r30, 0x91	; 145
    2a62:	f6 4c       	sbci	r31, 0xC6	; 198
    2a64:	10 82       	st	Z, r1
    2a66:	11 82       	std	Z+1, r1	; 0x01
    2a68:	37 c0       	rjmp	.+110    	; 0x2ad8 <ProcessInput+0xa86>
                            //Normal "use ... on ..." or "give ... to ..." action
                            } else if (actObj1.byteField[ACTION_ITEM] == actObj2.byteField[ITEM_NR]) {
                                UpdateState(actObj1.byteField[ACTION_STATE]);
                                SetResponse(elements++, actObj1.addrStr[ACTION_MSG], actObj1.lenStr[ACTION_MSG], GAME);
                            } else {
                                if (data[0] == 'u') {
    2a6a:	d8 01       	movw	r26, r16
    2a6c:	8c 91       	ld	r24, X
    2a6e:	85 37       	cpi	r24, 0x75	; 117
    2a70:	99 f4       	brne	.+38     	; 0x2a98 <ProcessInput+0xa46>
    return 0;
}

//
void SetResponse(uint8_t number, uint16_t address, uint16_t length, uint8_t type){
    reactStr[0][number]=address;
    2a72:	87 2d       	mov	r24, r7
    2a74:	90 e0       	ldi	r25, 0x00	; 0
    2a76:	fc 01       	movw	r30, r24
    2a78:	ee 0f       	add	r30, r30
    2a7a:	ff 1f       	adc	r31, r31
    2a7c:	e1 51       	subi	r30, 0x11	; 17
    2a7e:	f7 4c       	sbci	r31, 0xC7	; 199
    2a80:	24 e0       	ldi	r18, 0x04	; 4
    2a82:	39 e7       	ldi	r19, 0x79	; 121
    2a84:	20 83       	st	Z, r18
    2a86:	31 83       	std	Z+1, r19	; 0x01
    reactStr[1][number]=length;
    2a88:	fc 01       	movw	r30, r24
    2a8a:	ee 0f       	add	r30, r30
    2a8c:	ff 1f       	adc	r31, r31
    2a8e:	e1 5d       	subi	r30, 0xD1	; 209
    2a90:	f6 4c       	sbci	r31, 0xC6	; 198
    2a92:	2a e1       	ldi	r18, 0x1A	; 26
    2a94:	30 e0       	ldi	r19, 0x00	; 0
    2a96:	15 c0       	rjmp	.+42     	; 0x2ac2 <ProcessInput+0xa70>
                                UpdateState(actObj1.byteField[ACTION_STATE]);
                                SetResponse(elements++, actObj1.addrStr[ACTION_MSG], actObj1.lenStr[ACTION_MSG], GAME);
                            } else {
                                if (data[0] == 'u') {
                                    SetResponse(elements++, A_CANTUSE, L_CANTUSE, TEASER);
                                } else if (data[0] == 'g') {
    2a98:	87 36       	cpi	r24, 0x67	; 103
    2a9a:	09 f0       	breq	.+2      	; 0x2a9e <ProcessInput+0xa4c>
    2a9c:	54 c2       	rjmp	.+1192   	; 0x2f46 <ProcessInput+0xef4>
    return 0;
}

//
void SetResponse(uint8_t number, uint16_t address, uint16_t length, uint8_t type){
    reactStr[0][number]=address;
    2a9e:	87 2d       	mov	r24, r7
    2aa0:	90 e0       	ldi	r25, 0x00	; 0
    2aa2:	fc 01       	movw	r30, r24
    2aa4:	ee 0f       	add	r30, r30
    2aa6:	ff 1f       	adc	r31, r31
    2aa8:	e1 51       	subi	r30, 0x11	; 17
    2aaa:	f7 4c       	sbci	r31, 0xC7	; 199
    2aac:	2d ed       	ldi	r18, 0xDD	; 221
    2aae:	36 e7       	ldi	r19, 0x76	; 118
    2ab0:	20 83       	st	Z, r18
    2ab2:	31 83       	std	Z+1, r19	; 0x01
    reactStr[1][number]=length;
    2ab4:	fc 01       	movw	r30, r24
    2ab6:	ee 0f       	add	r30, r30
    2ab8:	ff 1f       	adc	r31, r31
    2aba:	e1 5d       	subi	r30, 0xD1	; 209
    2abc:	f6 4c       	sbci	r31, 0xC6	; 198
    2abe:	28 e2       	ldi	r18, 0x28	; 40
    2ac0:	30 e0       	ldi	r19, 0x00	; 0
    2ac2:	20 83       	st	Z, r18
    2ac4:	31 83       	std	Z+1, r19	; 0x01
    reactStr[2][number]=type;
    2ac6:	88 0f       	add	r24, r24
    2ac8:	99 1f       	adc	r25, r25
    2aca:	fc 01       	movw	r30, r24
    2acc:	e1 59       	subi	r30, 0x91	; 145
    2ace:	f6 4c       	sbci	r31, 0xC6	; 198
    2ad0:	81 e0       	ldi	r24, 0x01	; 1
    2ad2:	90 e0       	ldi	r25, 0x00	; 0
    2ad4:	80 83       	st	Z, r24
    2ad6:	91 83       	std	Z+1, r25	; 0x01
                                SetResponse(elements++, actObj1.addrStr[ACTION_MSG], actObj1.lenStr[ACTION_MSG], GAME);
                            } else {
                                if (data[0] == 'u') {
                                    SetResponse(elements++, A_CANTUSE, L_CANTUSE, TEASER);
                                } else if (data[0] == 'g') {
                                    SetResponse(elements++, A_CANTGIVE, L_CANTGIVE, TEASER);                                    
    2ad8:	73 94       	inc	r7
    2ada:	35 c2       	rjmp	.+1130   	; 0x2f46 <ProcessInput+0xef4>
                            }
                        }
                    
                    //Talk to person, read or use object (without item)                          
                    } else {
                        PopulateObject(route[currDepth+1], &actObj1);
    2adc:	60 eb       	ldi	r22, 0xB0	; 176
    2ade:	78 e3       	ldi	r23, 0x38	; 56
    2ae0:	0e 94 4b 0b 	call	0x1696	; 0x1696 <PopulateObject>
                        if ((data[0] == 't')&&((actObj1.byteField[ACTION_MASK]&TALK) == 0)) {
    2ae4:	f8 01       	movw	r30, r16
    2ae6:	80 81       	ld	r24, Z
    2ae8:	84 37       	cpi	r24, 0x74	; 116
    2aea:	69 f5       	brne	.+90     	; 0x2b46 <ProcessInput+0xaf4>
    2aec:	80 91 b8 38 	lds	r24, 0x38B8	; 0x8038b8 <actObj1.3992+0x8>
    2af0:	83 fd       	sbrc	r24, 3
    2af2:	44 c0       	rjmp	.+136    	; 0x2b7c <ProcessInput+0xb2a>
    return 0;
}

//
void SetResponse(uint8_t number, uint16_t address, uint16_t length, uint8_t type){
    reactStr[0][number]=address;
    2af4:	8e e1       	ldi	r24, 0x1E	; 30
    2af6:	99 e7       	ldi	r25, 0x79	; 121
    2af8:	80 93 f1 38 	sts	0x38F1, r24	; 0x8038f1 <reactStr+0x2>
    2afc:	90 93 f2 38 	sts	0x38F2, r25	; 0x8038f2 <reactStr+0x3>
    reactStr[1][number]=length;
    2b00:	8e e1       	ldi	r24, 0x1E	; 30
    2b02:	90 e0       	ldi	r25, 0x00	; 0
    2b04:	80 93 31 39 	sts	0x3931, r24	; 0x803931 <reactStr+0x42>
    2b08:	90 93 32 39 	sts	0x3932, r25	; 0x803932 <reactStr+0x43>
    reactStr[2][number]=type;
    2b0c:	81 e0       	ldi	r24, 0x01	; 1
    2b0e:	90 e0       	ldi	r25, 0x00	; 0
    2b10:	80 93 71 39 	sts	0x3971, r24	; 0x803971 <reactStr+0x82>
    2b14:	90 93 72 39 	sts	0x3972, r25	; 0x803972 <reactStr+0x83>
                    //Talk to person, read or use object (without item)                          
                    } else {
                        PopulateObject(route[currDepth+1], &actObj1);
                        if ((data[0] == 't')&&((actObj1.byteField[ACTION_MASK]&TALK) == 0)) {
                            SetResponse(elements++, A_WHYTALK, L_WHYTALK, TEASER);
                            SetResponse(elements++, actObj1.addrStr[NAME], actObj1.lenStr[NAME], GAME);
    2b18:	80 91 ca 38 	lds	r24, 0x38CA	; 0x8038ca <actObj1.3992+0x1a>
    2b1c:	90 91 cb 38 	lds	r25, 0x38CB	; 0x8038cb <actObj1.3992+0x1b>
    return 0;
}

//
void SetResponse(uint8_t number, uint16_t address, uint16_t length, uint8_t type){
    reactStr[0][number]=address;
    2b20:	20 91 bc 38 	lds	r18, 0x38BC	; 0x8038bc <actObj1.3992+0xc>
    2b24:	30 91 bd 38 	lds	r19, 0x38BD	; 0x8038bd <actObj1.3992+0xd>
    2b28:	20 93 f3 38 	sts	0x38F3, r18	; 0x8038f3 <reactStr+0x4>
    2b2c:	30 93 f4 38 	sts	0x38F4, r19	; 0x8038f4 <reactStr+0x5>
    reactStr[1][number]=length;
    2b30:	80 93 33 39 	sts	0x3933, r24	; 0x803933 <reactStr+0x44>
    2b34:	90 93 34 39 	sts	0x3934, r25	; 0x803934 <reactStr+0x45>
    reactStr[2][number]=type;
    2b38:	10 92 73 39 	sts	0x3973, r1	; 0x803973 <reactStr+0x84>
    2b3c:	10 92 74 39 	sts	0x3974, r1	; 0x803974 <reactStr+0x85>
                    //Talk to person, read or use object (without item)                          
                    } else {
                        PopulateObject(route[currDepth+1], &actObj1);
                        if ((data[0] == 't')&&((actObj1.byteField[ACTION_MASK]&TALK) == 0)) {
                            SetResponse(elements++, A_WHYTALK, L_WHYTALK, TEASER);
                            SetResponse(elements++, actObj1.addrStr[NAME], actObj1.lenStr[NAME], GAME);
    2b40:	a3 e0       	ldi	r26, 0x03	; 3
    2b42:	7a 2e       	mov	r7, r26
    2b44:	00 c2       	rjmp	.+1024   	; 0x2f46 <ProcessInput+0xef4>
                        } else if ((data[0] == 'u')&&((actObj1.byteField[ACTION_MASK]&USE) == 0)) {
    2b46:	85 37       	cpi	r24, 0x75	; 117
    2b48:	39 f4       	brne	.+14     	; 0x2b58 <ProcessInput+0xb06>
    2b4a:	80 91 b8 38 	lds	r24, 0x38B8	; 0x8038b8 <actObj1.3992+0x8>
    2b4e:	84 fd       	sbrc	r24, 4
    2b50:	15 c0       	rjmp	.+42     	; 0x2b7c <ProcessInput+0xb2a>
    return 0;
}

//
void SetResponse(uint8_t number, uint16_t address, uint16_t length, uint8_t type){
    reactStr[0][number]=address;
    2b52:	84 e0       	ldi	r24, 0x04	; 4
    2b54:	99 e7       	ldi	r25, 0x79	; 121
    2b56:	35 c2       	rjmp	.+1130   	; 0x2fc2 <ProcessInput+0xf70>
                        if ((data[0] == 't')&&((actObj1.byteField[ACTION_MASK]&TALK) == 0)) {
                            SetResponse(elements++, A_WHYTALK, L_WHYTALK, TEASER);
                            SetResponse(elements++, actObj1.addrStr[NAME], actObj1.lenStr[NAME], GAME);
                        } else if ((data[0] == 'u')&&((actObj1.byteField[ACTION_MASK]&USE) == 0)) {
                            SetResponse(elements++, A_CANTUSE, L_CANTUSE, TEASER);
                        } else if ((data[0] == 'r')&&((actObj1.byteField[ACTION_MASK]&READ) == 0)) {
    2b58:	82 37       	cpi	r24, 0x72	; 114
    2b5a:	69 f4       	brne	.+26     	; 0x2b76 <ProcessInput+0xb24>
    2b5c:	80 91 b8 38 	lds	r24, 0x38B8	; 0x8038b8 <actObj1.3992+0x8>
    2b60:	85 fd       	sbrc	r24, 5
    2b62:	0c c0       	rjmp	.+24     	; 0x2b7c <ProcessInput+0xb2a>
    return 0;
}

//
void SetResponse(uint8_t number, uint16_t address, uint16_t length, uint8_t type){
    reactStr[0][number]=address;
    2b64:	89 ee       	ldi	r24, 0xE9	; 233
    2b66:	98 e7       	ldi	r25, 0x78	; 120
    2b68:	80 93 f1 38 	sts	0x38F1, r24	; 0x8038f1 <reactStr+0x2>
    2b6c:	90 93 f2 38 	sts	0x38F2, r25	; 0x8038f2 <reactStr+0x3>
    reactStr[1][number]=length;
    2b70:	8b e1       	ldi	r24, 0x1B	; 27
    2b72:	90 e0       	ldi	r25, 0x00	; 0
    2b74:	1c cb       	rjmp	.-2504   	; 0x21ae <ProcessInput+0x15c>
                            SetResponse(elements++, actObj1.addrStr[NAME], actObj1.lenStr[NAME], GAME);
                        } else if ((data[0] == 'u')&&((actObj1.byteField[ACTION_MASK]&USE) == 0)) {
                            SetResponse(elements++, A_CANTUSE, L_CANTUSE, TEASER);
                        } else if ((data[0] == 'r')&&((actObj1.byteField[ACTION_MASK]&READ) == 0)) {
                            SetResponse(elements++, A_CANTREAD, L_CANTREAD, TEASER);
                        } else if (data[0] == 'g'){ 
    2b76:	87 36       	cpi	r24, 0x67	; 103
    2b78:	09 f4       	brne	.+2      	; 0x2b7c <ProcessInput+0xb2a>
    2b7a:	9a ca       	rjmp	.-2764   	; 0x20b0 <ProcessInput+0x5e>
                            SetResponse(elements++, A_NOTPOSSIBLE, L_NOTPOSSIBLE, TEASER);  
                        } else {

                            //Special game, not enough characters
                            if (actObj1.lenStr[ACTION_STR1] == 1) {
    2b7c:	e0 90 ce 38 	lds	r14, 0x38CE	; 0x8038ce <actObj1.3992+0x1e>
    2b80:	f0 90 cf 38 	lds	r15, 0x38CF	; 0x8038cf <actObj1.3992+0x1f>
    2b84:	f1 e0       	ldi	r31, 0x01	; 1
    2b86:	ef 16       	cp	r14, r31
    2b88:	f1 04       	cpc	r15, r1
    2b8a:	11 f5       	brne	.+68     	; 0x2bd0 <ProcessInput+0xb7e>
                                ExtEERead(actObj1.addrStr[ACTION_STR1], 1, GAME, &data[2]);
    2b8c:	98 01       	movw	r18, r16
    2b8e:	2e 5f       	subi	r18, 0xFE	; 254
    2b90:	3f 4f       	sbci	r19, 0xFF	; 255
    2b92:	40 e0       	ldi	r20, 0x00	; 0
    2b94:	61 e0       	ldi	r22, 0x01	; 1
    2b96:	80 91 c0 38 	lds	r24, 0x38C0	; 0x8038c0 <actObj1.3992+0x10>
    2b9a:	90 91 c1 38 	lds	r25, 0x38C1	; 0x8038c1 <actObj1.3992+0x11>
    2b9e:	0e 94 40 0a 	call	0x1480	; 0x1480 <ExtEERead>
                                if (data[2] == '1') {
    2ba2:	d8 01       	movw	r26, r16
    2ba4:	12 96       	adiw	r26, 0x02	; 2
    2ba6:	8c 91       	ld	r24, X
    2ba8:	81 33       	cpi	r24, 0x31	; 49
    2baa:	09 f0       	breq	.+2      	; 0x2bae <ProcessInput+0xb5c>
    2bac:	a7 cc       	rjmp	.-1714   	; 0x24fc <ProcessInput+0x4aa>
    return 0;
}

//
void SetResponse(uint8_t number, uint16_t address, uint16_t length, uint8_t type){
    reactStr[0][number]=address;
    2bae:	83 e6       	ldi	r24, 0x63	; 99
    2bb0:	95 e7       	ldi	r25, 0x75	; 117
    2bb2:	80 93 f1 38 	sts	0x38F1, r24	; 0x8038f1 <reactStr+0x2>
    2bb6:	90 93 f2 38 	sts	0x38F2, r25	; 0x8038f2 <reactStr+0x3>
    reactStr[1][number]=length;
    2bba:	8b e2       	ldi	r24, 0x2B	; 43
    2bbc:	90 e0       	ldi	r25, 0x00	; 0
    2bbe:	80 93 31 39 	sts	0x3931, r24	; 0x803931 <reactStr+0x42>
    2bc2:	90 93 32 39 	sts	0x3932, r25	; 0x803932 <reactStr+0x43>
    reactStr[2][number]=type;
    2bc6:	e0 92 71 39 	sts	0x3971, r14	; 0x803971 <reactStr+0x82>
    2bca:	f0 92 72 39 	sts	0x3972, r15	; 0x803972 <reactStr+0x83>
    2bce:	f9 ca       	rjmp	.-2574   	; 0x21c2 <ProcessInput+0x170>
                                if (data[2] == '1') {
                                    SetResponse(elements++, A_PLEASEOFFER, L_PLEASEOFFER, TEASER);
                                }

                            //General request
                            } else if (actObj1.lenStr[ACTION_STR1]) {
    2bd0:	e1 14       	cp	r14, r1
    2bd2:	f1 04       	cpc	r15, r1
    2bd4:	09 f4       	brne	.+2      	; 0x2bd8 <ProcessInput+0xb86>
    2bd6:	59 c0       	rjmp	.+178    	; 0x2c8a <ProcessInput+0xc38>
    return 0;
}

//
void SetResponse(uint8_t number, uint16_t address, uint16_t length, uint8_t type){
    reactStr[0][number]=address;
    2bd8:	80 91 c0 38 	lds	r24, 0x38C0	; 0x8038c0 <actObj1.3992+0x10>
    2bdc:	90 91 c1 38 	lds	r25, 0x38C1	; 0x8038c1 <actObj1.3992+0x11>
    2be0:	80 93 f1 38 	sts	0x38F1, r24	; 0x8038f1 <reactStr+0x2>
    2be4:	90 93 f2 38 	sts	0x38F2, r25	; 0x8038f2 <reactStr+0x3>
    reactStr[1][number]=length;
    2be8:	e0 92 31 39 	sts	0x3931, r14	; 0x803931 <reactStr+0x42>
    2bec:	f0 92 32 39 	sts	0x3932, r15	; 0x803932 <reactStr+0x43>
    reactStr[2][number]=type;
    2bf0:	10 92 71 39 	sts	0x3971, r1	; 0x803971 <reactStr+0x82>
    2bf4:	10 92 72 39 	sts	0x3972, r1	; 0x803972 <reactStr+0x83>
    return 0;
}

//
void SetResponse(uint8_t number, uint16_t address, uint16_t length, uint8_t type){
    reactStr[0][number]=address;
    2bf8:	8b e5       	ldi	r24, 0x5B	; 91
    2bfa:	9a e7       	ldi	r25, 0x7A	; 122
    2bfc:	80 93 f3 38 	sts	0x38F3, r24	; 0x8038f3 <reactStr+0x4>
    2c00:	90 93 f4 38 	sts	0x38F4, r25	; 0x8038f4 <reactStr+0x5>
    reactStr[1][number]=length;
    2c04:	82 e0       	ldi	r24, 0x02	; 2
    2c06:	90 e0       	ldi	r25, 0x00	; 0
    2c08:	80 93 33 39 	sts	0x3933, r24	; 0x803933 <reactStr+0x44>
    2c0c:	90 93 34 39 	sts	0x3934, r25	; 0x803934 <reactStr+0x45>
    reactStr[2][number]=type;
    2c10:	81 e0       	ldi	r24, 0x01	; 1
    2c12:	90 e0       	ldi	r25, 0x00	; 0
    2c14:	80 93 73 39 	sts	0x3973, r24	; 0x803973 <reactStr+0x84>
    2c18:	90 93 74 39 	sts	0x3974, r25	; 0x803974 <reactStr+0x85>
    return 0;
}

//
void SetResponse(uint8_t number, uint16_t address, uint16_t length, uint8_t type){
    reactStr[0][number]=address;
    2c1c:	20 eb       	ldi	r18, 0xB0	; 176
    2c1e:	38 e7       	ldi	r19, 0x78	; 120
    2c20:	20 93 f5 38 	sts	0x38F5, r18	; 0x8038f5 <reactStr+0x6>
    2c24:	30 93 f6 38 	sts	0x38F6, r19	; 0x8038f6 <reactStr+0x7>
    reactStr[1][number]=length;
    2c28:	22 e1       	ldi	r18, 0x12	; 18
    2c2a:	30 e0       	ldi	r19, 0x00	; 0
    2c2c:	20 93 35 39 	sts	0x3935, r18	; 0x803935 <reactStr+0x46>
    2c30:	30 93 36 39 	sts	0x3936, r19	; 0x803936 <reactStr+0x47>
    reactStr[2][number]=type;
    2c34:	80 93 75 39 	sts	0x3975, r24	; 0x803975 <reactStr+0x86>
    2c38:	90 93 76 39 	sts	0x3976, r25	; 0x803976 <reactStr+0x87>
                            //General request
                            } else if (actObj1.lenStr[ACTION_STR1]) {
                                SetResponse(elements++, actObj1.addrStr[ACTION_STR1], actObj1.lenStr[ACTION_STR1], GAME);
                                SetResponse(elements++, A_LF, 2, TEASER);
                                SetResponse(elements++, A_RESPONSE, L_RESPONSE, TEASER);
                                if (actObj1.lenStr[ACTION_STR2]>(INP_LENGTH-1)) actObj1.lenStr[ACTION_STR2] = (INP_LENGTH-1);
    2c3c:	80 91 d0 38 	lds	r24, 0x38D0	; 0x8038d0 <actObj1.3992+0x20>
    2c40:	90 91 d1 38 	lds	r25, 0x38D1	; 0x8038d1 <actObj1.3992+0x21>
    2c44:	40 97       	sbiw	r24, 0x10	; 16
    2c46:	30 f0       	brcs	.+12     	; 0x2c54 <ProcessInput+0xc02>
    2c48:	8f e0       	ldi	r24, 0x0F	; 15
    2c4a:	90 e0       	ldi	r25, 0x00	; 0
    2c4c:	80 93 d0 38 	sts	0x38D0, r24	; 0x8038d0 <actObj1.3992+0x20>
    2c50:	90 93 d1 38 	sts	0x38D1, r25	; 0x8038d1 <actObj1.3992+0x21>
                                ExtEERead(actObj1.addrStr[ACTION_STR2], actObj1.lenStr[ACTION_STR2], GAME, (uint8_t *)&specialInput[0]);
    2c54:	2e ed       	ldi	r18, 0xDE	; 222
    2c56:	38 e3       	ldi	r19, 0x38	; 56
    2c58:	40 e0       	ldi	r20, 0x00	; 0
    2c5a:	60 91 d0 38 	lds	r22, 0x38D0	; 0x8038d0 <actObj1.3992+0x20>
    2c5e:	80 91 c2 38 	lds	r24, 0x38C2	; 0x8038c2 <actObj1.3992+0x12>
    2c62:	90 91 c3 38 	lds	r25, 0x38C3	; 0x8038c3 <actObj1.3992+0x13>
    2c66:	0e 94 40 0a 	call	0x1480	; 0x1480 <ExtEERead>
                                UnflipData(actObj1.lenStr[ACTION_STR2], (uint8_t *)&specialInput[0]);
    2c6a:	6e ed       	ldi	r22, 0xDE	; 222
    2c6c:	78 e3       	ldi	r23, 0x38	; 56
    2c6e:	80 91 d0 38 	lds	r24, 0x38D0	; 0x8038d0 <actObj1.3992+0x20>
    2c72:	0e 94 33 0a 	call	0x1466	; 0x1466 <UnflipData>
                                specialInput[actObj1.lenStr[ACTION_STR2]] = 0;
    2c76:	e0 91 d0 38 	lds	r30, 0x38D0	; 0x8038d0 <actObj1.3992+0x20>
    2c7a:	f0 91 d1 38 	lds	r31, 0x38D1	; 0x8038d1 <actObj1.3992+0x21>
    2c7e:	e2 52       	subi	r30, 0x22	; 34
    2c80:	f7 4c       	sbci	r31, 0xC7	; 199
    2c82:	10 82       	st	Z, r1

                            //General request
                            } else if (actObj1.lenStr[ACTION_STR1]) {
                                SetResponse(elements++, actObj1.addrStr[ACTION_STR1], actObj1.lenStr[ACTION_STR1], GAME);
                                SetResponse(elements++, A_LF, 2, TEASER);
                                SetResponse(elements++, A_RESPONSE, L_RESPONSE, TEASER);
    2c84:	f4 e0       	ldi	r31, 0x04	; 4
    2c86:	7f 2e       	mov	r7, r31
    2c88:	5e c1       	rjmp	.+700    	; 0x2f46 <ProcessInput+0xef4>
                                if (actObj1.lenStr[ACTION_STR2]>(INP_LENGTH-1)) actObj1.lenStr[ACTION_STR2] = (INP_LENGTH-1);
                                ExtEERead(actObj1.addrStr[ACTION_STR2], actObj1.lenStr[ACTION_STR2], GAME, (uint8_t *)&specialInput[0]);
                                UnflipData(actObj1.lenStr[ACTION_STR2], (uint8_t *)&specialInput[0]);
                                specialInput[actObj1.lenStr[ACTION_STR2]] = 0;
                                //specialPassed = 0;
                            } else if (CheckState(actObj1.byteField[ACTION_ACL])){
    2c8a:	80 91 b7 38 	lds	r24, 0x38B7	; 0x8038b7 <actObj1.3992+0x7>
    2c8e:	0e 94 c8 08 	call	0x1190	; 0x1190 <CheckState>
    2c92:	88 23       	and	r24, r24
    2c94:	c9 f0       	breq	.+50     	; 0x2cc8 <ProcessInput+0xc76>
                                SetResponse(elements++, actObj1.addrStr[ACTION_MSG], actObj1.lenStr[ACTION_MSG], GAME);
    2c96:	80 91 d6 38 	lds	r24, 0x38D6	; 0x8038d6 <actObj1.3992+0x26>
    2c9a:	90 91 d7 38 	lds	r25, 0x38D7	; 0x8038d7 <actObj1.3992+0x27>
    return 0;
}

//
void SetResponse(uint8_t number, uint16_t address, uint16_t length, uint8_t type){
    reactStr[0][number]=address;
    2c9e:	20 91 c8 38 	lds	r18, 0x38C8	; 0x8038c8 <actObj1.3992+0x18>
    2ca2:	30 91 c9 38 	lds	r19, 0x38C9	; 0x8038c9 <actObj1.3992+0x19>
    2ca6:	20 93 f1 38 	sts	0x38F1, r18	; 0x8038f1 <reactStr+0x2>
    2caa:	30 93 f2 38 	sts	0x38F2, r19	; 0x8038f2 <reactStr+0x3>
    reactStr[1][number]=length;
    2cae:	80 93 31 39 	sts	0x3931, r24	; 0x803931 <reactStr+0x42>
    2cb2:	90 93 32 39 	sts	0x3932, r25	; 0x803932 <reactStr+0x43>
    reactStr[2][number]=type;
    2cb6:	10 92 71 39 	sts	0x3971, r1	; 0x803971 <reactStr+0x82>
    2cba:	10 92 72 39 	sts	0x3972, r1	; 0x803972 <reactStr+0x83>
                                UnflipData(actObj1.lenStr[ACTION_STR2], (uint8_t *)&specialInput[0]);
                                specialInput[actObj1.lenStr[ACTION_STR2]] = 0;
                                //specialPassed = 0;
                            } else if (CheckState(actObj1.byteField[ACTION_ACL])){
                                SetResponse(elements++, actObj1.addrStr[ACTION_MSG], actObj1.lenStr[ACTION_MSG], GAME);
                                UpdateState(actObj1.byteField[ACTION_STATE]);
    2cbe:	80 91 ba 38 	lds	r24, 0x38BA	; 0x8038ba <actObj1.3992+0xa>
    2cc2:	0e 94 c0 08 	call	0x1180	; 0x1180 <UpdateState>
    2cc6:	7d ca       	rjmp	.-2822   	; 0x21c2 <ProcessInput+0x170>
                            } else {
                                SetResponse(elements++, actObj1.addrStr[ACTION_ACL_MSG], actObj1.lenStr[ACTION_ACL_MSG], GAME);
    2cc8:	80 91 d4 38 	lds	r24, 0x38D4	; 0x8038d4 <actObj1.3992+0x24>
    2ccc:	90 91 d5 38 	lds	r25, 0x38D5	; 0x8038d5 <actObj1.3992+0x25>
    return 0;
}

//
void SetResponse(uint8_t number, uint16_t address, uint16_t length, uint8_t type){
    reactStr[0][number]=address;
    2cd0:	20 91 c6 38 	lds	r18, 0x38C6	; 0x8038c6 <actObj1.3992+0x16>
    2cd4:	30 91 c7 38 	lds	r19, 0x38C7	; 0x8038c7 <actObj1.3992+0x17>
    2cd8:	20 93 f1 38 	sts	0x38F1, r18	; 0x8038f1 <reactStr+0x2>
    2cdc:	30 93 f2 38 	sts	0x38F2, r19	; 0x8038f2 <reactStr+0x3>
    reactStr[1][number]=length;
    2ce0:	80 93 31 39 	sts	0x3931, r24	; 0x803931 <reactStr+0x42>
    2ce4:	90 93 32 39 	sts	0x3932, r25	; 0x803932 <reactStr+0x43>
    reactStr[2][number]=type;
    2ce8:	10 92 71 39 	sts	0x3971, r1	; 0x803971 <reactStr+0x82>
    2cec:	10 92 72 39 	sts	0x3972, r1	; 0x803972 <reactStr+0x83>
    2cf0:	68 ca       	rjmp	.-2864   	; 0x21c2 <ProcessInput+0x170>
                        }
                    }

                //Person or object not found
                } else {
                    if ((data[0] == 't')||(data[0] == 'g')){
    2cf2:	f8 01       	movw	r30, r16
    2cf4:	80 81       	ld	r24, Z
    2cf6:	84 37       	cpi	r24, 0x74	; 116
    2cf8:	11 f0       	breq	.+4      	; 0x2cfe <ProcessInput+0xcac>
    2cfa:	87 36       	cpi	r24, 0x67	; 103
    2cfc:	19 f4       	brne	.+6      	; 0x2d04 <ProcessInput+0xcb2>
    return 0;
}

//
void SetResponse(uint8_t number, uint16_t address, uint16_t length, uint8_t type){
    reactStr[0][number]=address;
    2cfe:	8c e3       	ldi	r24, 0x3C	; 60
    2d00:	99 e7       	ldi	r25, 0x79	; 121
    2d02:	02 c0       	rjmp	.+4      	; 0x2d08 <ProcessInput+0xcb6>
    2d04:	80 e5       	ldi	r24, 0x50	; 80
    2d06:	99 e7       	ldi	r25, 0x79	; 121
    2d08:	80 93 f1 38 	sts	0x38F1, r24	; 0x8038f1 <reactStr+0x2>
    2d0c:	90 93 f2 38 	sts	0x38F2, r25	; 0x8038f2 <reactStr+0x3>
    reactStr[1][number]=length;
    2d10:	84 e1       	ldi	r24, 0x14	; 20
    2d12:	90 e0       	ldi	r25, 0x00	; 0
    2d14:	4c ca       	rjmp	.-2920   	; 0x21ae <ProcessInput+0x15c>
                    }
                }
            }
        
        //Special answer given
        } else if (data[0] == 'a'){
    2d16:	81 36       	cpi	r24, 0x61	; 97
    2d18:	09 f0       	breq	.+2      	; 0x2d1c <ProcessInput+0xcca>
    2d1a:	f0 cb       	rjmp	.-2080   	; 0x24fc <ProcessInput+0x4aa>
            
            //Priest offerings
            if (specialPassed >= 2) {
    2d1c:	80 91 dd 38 	lds	r24, 0x38DD	; 0x8038dd <specialPassed>
    2d20:	82 30       	cpi	r24, 0x02	; 2
    2d22:	08 f4       	brcc	.+2      	; 0x2d26 <ProcessInput+0xcd4>
    2d24:	b3 c0       	rjmp	.+358    	; 0x2e8c <ProcessInput+0xe3a>
                if (data[1] > 0) {
    2d26:	d8 01       	movw	r26, r16
    2d28:	11 96       	adiw	r26, 0x01	; 1
    2d2a:	2c 91       	ld	r18, X
    2d2c:	22 23       	and	r18, r18
    2d2e:	09 f4       	brne	.+2      	; 0x2d32 <ProcessInput+0xce0>
    2d30:	a4 c0       	rjmp	.+328    	; 0x2e7a <ProcessInput+0xe28>

                    uint8_t  digit[10] = {0, 0, 0, 0, 0, 0, 0, 0, 0, 0};
    2d32:	fe 01       	movw	r30, r28
    2d34:	31 96       	adiw	r30, 0x01	; 1
    2d36:	7f 01       	movw	r14, r30
    2d38:	8a e0       	ldi	r24, 0x0A	; 10
    2d3a:	df 01       	movw	r26, r30
    2d3c:	1d 92       	st	X+, r1
    2d3e:	8a 95       	dec	r24
    2d40:	e9 f7       	brne	.-6      	; 0x2d3c <ProcessInput+0xcea>
                        answer = ((offering  & 2) << 19) + ((offering  & 1) << 8) + \
                        ((element   & 2) << 15) + ((element   & 1) << 4) + \
                        ((kneelings & 2) << 11) + ((kneelings & 1))
                        answer = answer << (3-person)
                    */
                    data[1]-='1';
    2d42:	21 53       	subi	r18, 0x31	; 49
    2d44:	f8 01       	movw	r30, r16
    2d46:	21 83       	std	Z+1, r18	; 0x01
                    data[2]-='1';
    2d48:	32 81       	ldd	r19, Z+2	; 0x02
    2d4a:	31 53       	subi	r19, 0x31	; 49
    2d4c:	32 83       	std	Z+2, r19	; 0x02
                    if (data[3] == 'a') data[3] = 1;
    2d4e:	83 81       	ldd	r24, Z+3	; 0x03
    2d50:	81 36       	cpi	r24, 0x61	; 97
    2d52:	11 f4       	brne	.+4      	; 0x2d58 <ProcessInput+0xd06>
    2d54:	81 e0       	ldi	r24, 0x01	; 1
    2d56:	08 c0       	rjmp	.+16     	; 0x2d68 <ProcessInput+0xd16>
                    else if (data[3] == 'e') data[3] = 0;
    2d58:	85 36       	cpi	r24, 0x65	; 101
    2d5a:	11 f4       	brne	.+4      	; 0x2d60 <ProcessInput+0xd0e>
    2d5c:	13 82       	std	Z+3, r1	; 0x03
    2d5e:	08 c0       	rjmp	.+16     	; 0x2d70 <ProcessInput+0xd1e>
                    else if (data[3] == 'f') data[3] = 3;
    2d60:	86 36       	cpi	r24, 0x66	; 102
    2d62:	21 f4       	brne	.+8      	; 0x2d6c <ProcessInput+0xd1a>
    2d64:	83 e0       	ldi	r24, 0x03	; 3
    2d66:	f8 01       	movw	r30, r16
    2d68:	83 83       	std	Z+3, r24	; 0x03
    2d6a:	02 c0       	rjmp	.+4      	; 0x2d70 <ProcessInput+0xd1e>
                    else data[3] = 2;
    2d6c:	82 e0       	ldi	r24, 0x02	; 2
    2d6e:	83 83       	std	Z+3, r24	; 0x03

                    if (data[1] & 2) answer += (1UL << 20);
    2d70:	21 fd       	sbrc	r18, 1
    2d72:	04 c0       	rjmp	.+8      	; 0x2d7c <ProcessInput+0xd2a>
            //Priest offerings
            if (specialPassed >= 2) {
                if (data[1] > 0) {

                    uint8_t  digit[10] = {0, 0, 0, 0, 0, 0, 0, 0, 0, 0};
                    uint32_t answer = 0;
    2d74:	80 e0       	ldi	r24, 0x00	; 0
    2d76:	90 e0       	ldi	r25, 0x00	; 0
    2d78:	dc 01       	movw	r26, r24
    2d7a:	04 c0       	rjmp	.+8      	; 0x2d84 <ProcessInput+0xd32>
                    if (data[3] == 'a') data[3] = 1;
                    else if (data[3] == 'e') data[3] = 0;
                    else if (data[3] == 'f') data[3] = 3;
                    else data[3] = 2;

                    if (data[1] & 2) answer += (1UL << 20);
    2d7c:	80 e0       	ldi	r24, 0x00	; 0
    2d7e:	90 e0       	ldi	r25, 0x00	; 0
    2d80:	a0 e1       	ldi	r26, 0x10	; 16
    2d82:	b0 e0       	ldi	r27, 0x00	; 0
                    if (data[1] & 1) answer += (1 << 8);
    2d84:	20 ff       	sbrs	r18, 0
    2d86:	03 c0       	rjmp	.+6      	; 0x2d8e <ProcessInput+0xd3c>
    2d88:	9f 5f       	subi	r25, 0xFF	; 255
    2d8a:	af 4f       	sbci	r26, 0xFF	; 255
    2d8c:	bf 4f       	sbci	r27, 0xFF	; 255
                    if (data[3] & 2) answer += (1UL << 16);
    2d8e:	f8 01       	movw	r30, r16
    2d90:	23 81       	ldd	r18, Z+3	; 0x03
    2d92:	21 fd       	sbrc	r18, 1
    2d94:	11 96       	adiw	r26, 0x01	; 1
                    if (data[3] & 1) answer += (1 << 4);
    2d96:	20 ff       	sbrs	r18, 0
    2d98:	03 c0       	rjmp	.+6      	; 0x2da0 <ProcessInput+0xd4e>
    2d9a:	40 96       	adiw	r24, 0x10	; 16
    2d9c:	a1 1d       	adc	r26, r1
    2d9e:	b1 1d       	adc	r27, r1
                    if (data[2] & 2) answer += (1 << 12);
    2da0:	31 ff       	sbrs	r19, 1
    2da2:	03 c0       	rjmp	.+6      	; 0x2daa <ProcessInput+0xd58>
    2da4:	90 5f       	subi	r25, 0xF0	; 240
    2da6:	af 4f       	sbci	r26, 0xFF	; 255
    2da8:	bf 4f       	sbci	r27, 0xFF	; 255
                    if (data[2] & 1) answer += 1;
    2daa:	30 ff       	sbrs	r19, 0
    2dac:	03 c0       	rjmp	.+6      	; 0x2db4 <ProcessInput+0xd62>
    2dae:	01 96       	adiw	r24, 0x01	; 1
    2db0:	a1 1d       	adc	r26, r1
    2db2:	b1 1d       	adc	r27, r1
                    answer <<= (4 - whoami);            
    2db4:	40 91 30 38 	lds	r20, 0x3830	; 0x803830 <whoami>
    2db8:	24 e0       	ldi	r18, 0x04	; 4
    2dba:	30 e0       	ldi	r19, 0x00	; 0
    2dbc:	24 1b       	sub	r18, r20
    2dbe:	31 09       	sbc	r19, r1
    2dc0:	bc 01       	movw	r22, r24
    2dc2:	cd 01       	movw	r24, r26
    2dc4:	04 c0       	rjmp	.+8      	; 0x2dce <ProcessInput+0xd7c>
    2dc6:	66 0f       	add	r22, r22
    2dc8:	77 1f       	adc	r23, r23
    2dca:	88 1f       	adc	r24, r24
    2dcc:	99 1f       	adc	r25, r25
    2dce:	2a 95       	dec	r18
    2dd0:	d2 f7       	brpl	.-12     	; 0x2dc6 <ProcessInput+0xd74>
    return 0;
}

//
void SetResponse(uint8_t number, uint16_t address, uint16_t length, uint8_t type){
    reactStr[0][number]=address;
    2dd2:	26 e0       	ldi	r18, 0x06	; 6
    2dd4:	35 e7       	ldi	r19, 0x75	; 117
    2dd6:	20 93 f1 38 	sts	0x38F1, r18	; 0x8038f1 <reactStr+0x2>
    2dda:	30 93 f2 38 	sts	0x38F2, r19	; 0x8038f2 <reactStr+0x3>
    reactStr[1][number]=length;
    2dde:	20 e2       	ldi	r18, 0x20	; 32
    2de0:	30 e0       	ldi	r19, 0x00	; 0
    2de2:	20 93 31 39 	sts	0x3931, r18	; 0x803931 <reactStr+0x42>
    2de6:	30 93 32 39 	sts	0x3932, r19	; 0x803932 <reactStr+0x43>
    reactStr[2][number]=type;
    2dea:	21 e0       	ldi	r18, 0x01	; 1
    2dec:	30 e0       	ldi	r19, 0x00	; 0
    2dee:	20 93 71 39 	sts	0x3971, r18	; 0x803971 <reactStr+0x82>
    2df2:	30 93 72 39 	sts	0x3972, r19	; 0x803972 <reactStr+0x83>
                    answer <<= (4 - whoami);            

                    SetResponse(elements++, A_YOURPART, L_YOURPART, TEASER);
                    
                    //Set up sending out number
                    for (n=9; n>=0; --n) {
    2df6:	59 e0       	ldi	r21, 0x09	; 9
                        digit[n] = answer % 10;
    2df8:	b5 2e       	mov	r11, r21
    2dfa:	ea e0       	ldi	r30, 0x0A	; 10
    2dfc:	4e 2e       	mov	r4, r30
    2dfe:	51 2c       	mov	r5, r1
    2e00:	61 2c       	mov	r6, r1
    2e02:	71 2c       	mov	r7, r1
    2e04:	67 01       	movw	r12, r14
    2e06:	cb 0c       	add	r12, r11
    2e08:	d1 1c       	adc	r13, r1
    2e0a:	a3 01       	movw	r20, r6
    2e0c:	92 01       	movw	r18, r4
    2e0e:	38 d2       	rcall	.+1136   	; 0x3280 <__udivmodsi4>
    2e10:	d6 01       	movw	r26, r12
    2e12:	6c 93       	st	X, r22
                        answer /= 10;
    2e14:	b9 01       	movw	r22, r18
    2e16:	ca 01       	movw	r24, r20
                        if (answer == 0) break;
    2e18:	61 15       	cp	r22, r1
    2e1a:	71 05       	cpc	r23, r1
    2e1c:	81 05       	cpc	r24, r1
    2e1e:	91 05       	cpc	r25, r1
    2e20:	51 f4       	brne	.+20     	; 0x2e36 <ProcessInput+0xde4>
    2e22:	2f ee       	ldi	r18, 0xEF	; 239
    2e24:	c2 2e       	mov	r12, r18
    2e26:	28 e3       	ldi	r18, 0x38	; 56
    2e28:	d2 2e       	mov	r13, r18
    2e2a:	32 e0       	ldi	r19, 0x02	; 2
    2e2c:	73 2e       	mov	r7, r19
}

//
void SetResponse(uint8_t number, uint16_t address, uint16_t length, uint8_t type){
    reactStr[0][number]=address;
    reactStr[1][number]=length;
    2e2e:	88 24       	eor	r8, r8
    2e30:	83 94       	inc	r8
    2e32:	91 2c       	mov	r9, r1
    2e34:	02 c0       	rjmp	.+4      	; 0x2e3a <ProcessInput+0xde8>
                    answer <<= (4 - whoami);            

                    SetResponse(elements++, A_YOURPART, L_YOURPART, TEASER);
                    
                    //Set up sending out number
                    for (n=9; n>=0; --n) {
    2e36:	ba 94       	dec	r11
                        digit[n] = answer % 10;
                        answer /= 10;
                        if (answer == 0) break;
                    }
    2e38:	e5 cf       	rjmp	.-54     	; 0x2e04 <ProcessInput+0xdb2>
    2e3a:	f2 e0       	ldi	r31, 0x02	; 2
    2e3c:	cf 0e       	add	r12, r31
    2e3e:	d1 1c       	adc	r13, r1
                    for (; n<10; ++n) {
    2e40:	29 e0       	ldi	r18, 0x09	; 9
    2e42:	2b 15       	cp	r18, r11
    2e44:	08 f4       	brcc	.+2      	; 0x2e48 <ProcessInput+0xdf6>
    2e46:	7d c0       	rjmp	.+250    	; 0x2f42 <ProcessInput+0xef0>
                        SetResponse(elements++, A_DIGITS+digit[n], 1, TEASER);
    2e48:	73 94       	inc	r7
    2e4a:	f7 01       	movw	r30, r14
    2e4c:	eb 0d       	add	r30, r11
    2e4e:	f1 1d       	adc	r31, r1
    return 0;
}

//
void SetResponse(uint8_t number, uint16_t address, uint16_t length, uint8_t type){
    reactStr[0][number]=address;
    2e50:	80 81       	ld	r24, Z
    2e52:	90 e0       	ldi	r25, 0x00	; 0
    2e54:	8d 52       	subi	r24, 0x2D	; 45
    2e56:	9b 48       	sbci	r25, 0x8B	; 139
    2e58:	f6 01       	movw	r30, r12
    2e5a:	82 83       	std	Z+2, r24	; 0x02
    2e5c:	93 83       	std	Z+3, r25	; 0x03
    reactStr[1][number]=length;
    2e5e:	ee 5b       	subi	r30, 0xBE	; 190
    2e60:	ff 4f       	sbci	r31, 0xFF	; 255
    2e62:	80 82       	st	Z, r8
    2e64:	91 82       	std	Z+1, r9	; 0x01
    reactStr[2][number]=type;
    2e66:	e0 5c       	subi	r30, 0xC0	; 192
    2e68:	ff 4f       	sbci	r31, 0xFF	; 255
    2e6a:	80 82       	st	Z, r8
    2e6c:	91 82       	std	Z+1, r9	; 0x01
                        answer /= 10;
                        if (answer == 0) break;
                    }
                    for (; n<10; ++n) {
                        SetResponse(elements++, A_DIGITS+digit[n], 1, TEASER);
                        UpdateState(actObj1.byteField[ACTION_STATE]);
    2e6e:	80 91 ba 38 	lds	r24, 0x38BA	; 0x8038ba <actObj1.3992+0xa>
    2e72:	0e 94 c0 08 	call	0x1180	; 0x1180 <UpdateState>
                    for (n=9; n>=0; --n) {
                        digit[n] = answer % 10;
                        answer /= 10;
                        if (answer == 0) break;
                    }
                    for (; n<10; ++n) {
    2e76:	b3 94       	inc	r11
    2e78:	e0 cf       	rjmp	.-64     	; 0x2e3a <ProcessInput+0xde8>
    return 0;
}

//
void SetResponse(uint8_t number, uint16_t address, uint16_t length, uint8_t type){
    reactStr[0][number]=address;
    2e7a:	86 e2       	ldi	r24, 0x26	; 38
    2e7c:	95 e7       	ldi	r25, 0x75	; 117
    2e7e:	80 93 f1 38 	sts	0x38F1, r24	; 0x8038f1 <reactStr+0x2>
    2e82:	90 93 f2 38 	sts	0x38F2, r25	; 0x8038f2 <reactStr+0x3>
    reactStr[1][number]=length;
    2e86:	8d e3       	ldi	r24, 0x3D	; 61
    2e88:	90 e0       	ldi	r25, 0x00	; 0
    2e8a:	4f c0       	rjmp	.+158    	; 0x2f2a <ProcessInput+0xed8>
    2e8c:	e0 91 27 38 	lds	r30, 0x3827	; 0x803827 <currDepth>
                    SetResponse(elements++, A_BADOFFERING, L_BADOFFERING, TEASER);
                }
            
            //Other questions    
            } else if (specialPassed == 1) {
                PopulateObject(route[currDepth+1], &actObj1);
    2e90:	f0 e0       	ldi	r31, 0x00	; 0
    2e92:	ee 0f       	add	r30, r30
    2e94:	ff 1f       	adc	r31, r31
    2e96:	ef 54       	subi	r30, 0x4F	; 79
    2e98:	f6 4c       	sbci	r31, 0xC6	; 198
    2e9a:	60 eb       	ldi	r22, 0xB0	; 176
    2e9c:	78 e3       	ldi	r23, 0x38	; 56
                } else {
                    SetResponse(elements++, A_BADOFFERING, L_BADOFFERING, TEASER);
                }
            
            //Other questions    
            } else if (specialPassed == 1) {
    2e9e:	81 30       	cpi	r24, 0x01	; 1
    2ea0:	c1 f5       	brne	.+112    	; 0x2f12 <ProcessInput+0xec0>
                PopulateObject(route[currDepth+1], &actObj1);
    2ea2:	80 81       	ld	r24, Z
    2ea4:	91 81       	ldd	r25, Z+1	; 0x01
    2ea6:	0e 94 4b 0b 	call	0x1696	; 0x1696 <PopulateObject>
                if (CheckState(actObj1.byteField[ACTION_ACL])){
    2eaa:	80 91 b7 38 	lds	r24, 0x38B7	; 0x8038b7 <actObj1.3992+0x7>
    2eae:	0e 94 c8 08 	call	0x1190	; 0x1190 <CheckState>
    2eb2:	88 23       	and	r24, r24
    2eb4:	c9 f0       	breq	.+50     	; 0x2ee8 <ProcessInput+0xe96>
                    SetResponse(elements++, actObj1.addrStr[ACTION_MSG], actObj1.lenStr[ACTION_MSG], GAME);
    2eb6:	80 91 d6 38 	lds	r24, 0x38D6	; 0x8038d6 <actObj1.3992+0x26>
    2eba:	90 91 d7 38 	lds	r25, 0x38D7	; 0x8038d7 <actObj1.3992+0x27>
    return 0;
}

//
void SetResponse(uint8_t number, uint16_t address, uint16_t length, uint8_t type){
    reactStr[0][number]=address;
    2ebe:	20 91 c8 38 	lds	r18, 0x38C8	; 0x8038c8 <actObj1.3992+0x18>
    2ec2:	30 91 c9 38 	lds	r19, 0x38C9	; 0x8038c9 <actObj1.3992+0x19>
    2ec6:	20 93 f1 38 	sts	0x38F1, r18	; 0x8038f1 <reactStr+0x2>
    2eca:	30 93 f2 38 	sts	0x38F2, r19	; 0x8038f2 <reactStr+0x3>
    reactStr[1][number]=length;
    2ece:	80 93 31 39 	sts	0x3931, r24	; 0x803931 <reactStr+0x42>
    2ed2:	90 93 32 39 	sts	0x3932, r25	; 0x803932 <reactStr+0x43>
    reactStr[2][number]=type;
    2ed6:	10 92 71 39 	sts	0x3971, r1	; 0x803971 <reactStr+0x82>
    2eda:	10 92 72 39 	sts	0x3972, r1	; 0x803972 <reactStr+0x83>
            //Other questions    
            } else if (specialPassed == 1) {
                PopulateObject(route[currDepth+1], &actObj1);
                if (CheckState(actObj1.byteField[ACTION_ACL])){
                    SetResponse(elements++, actObj1.addrStr[ACTION_MSG], actObj1.lenStr[ACTION_MSG], GAME);
                    UpdateState(actObj1.byteField[ACTION_STATE]);
    2ede:	80 91 ba 38 	lds	r24, 0x38BA	; 0x8038ba <actObj1.3992+0xa>
    2ee2:	0e 94 c0 08 	call	0x1180	; 0x1180 <UpdateState>
    2ee6:	2b c0       	rjmp	.+86     	; 0x2f3e <ProcessInput+0xeec>
                } else {
                    SetResponse(elements++, actObj1.addrStr[ACTION_ACL_MSG], actObj1.lenStr[ACTION_ACL_MSG], GAME);
    2ee8:	80 91 d4 38 	lds	r24, 0x38D4	; 0x8038d4 <actObj1.3992+0x24>
    2eec:	90 91 d5 38 	lds	r25, 0x38D5	; 0x8038d5 <actObj1.3992+0x25>
    return 0;
}

//
void SetResponse(uint8_t number, uint16_t address, uint16_t length, uint8_t type){
    reactStr[0][number]=address;
    2ef0:	20 91 c6 38 	lds	r18, 0x38C6	; 0x8038c6 <actObj1.3992+0x16>
    2ef4:	30 91 c7 38 	lds	r19, 0x38C7	; 0x8038c7 <actObj1.3992+0x17>
    2ef8:	20 93 f1 38 	sts	0x38F1, r18	; 0x8038f1 <reactStr+0x2>
    2efc:	30 93 f2 38 	sts	0x38F2, r19	; 0x8038f2 <reactStr+0x3>
    reactStr[1][number]=length;
    2f00:	80 93 31 39 	sts	0x3931, r24	; 0x803931 <reactStr+0x42>
    2f04:	90 93 32 39 	sts	0x3932, r25	; 0x803932 <reactStr+0x43>
    reactStr[2][number]=type;
    2f08:	10 92 71 39 	sts	0x3971, r1	; 0x803971 <reactStr+0x82>
    2f0c:	10 92 72 39 	sts	0x3972, r1	; 0x803972 <reactStr+0x83>
    2f10:	16 c0       	rjmp	.+44     	; 0x2f3e <ProcessInput+0xeec>
                } else {
                    SetResponse(elements++, actObj1.addrStr[ACTION_ACL_MSG], actObj1.lenStr[ACTION_ACL_MSG], GAME);
                }

            } else {
                PopulateObject(route[currDepth+1], &actObj1);
    2f12:	80 81       	ld	r24, Z
    2f14:	91 81       	ldd	r25, Z+1	; 0x01
    2f16:	0e 94 4b 0b 	call	0x1696	; 0x1696 <PopulateObject>
    return 0;
}

//
void SetResponse(uint8_t number, uint16_t address, uint16_t length, uint8_t type){
    reactStr[0][number]=address;
    2f1a:	8e e9       	ldi	r24, 0x9E	; 158
    2f1c:	98 e7       	ldi	r25, 0x78	; 120
    2f1e:	80 93 f1 38 	sts	0x38F1, r24	; 0x8038f1 <reactStr+0x2>
    2f22:	90 93 f2 38 	sts	0x38F2, r25	; 0x8038f2 <reactStr+0x3>
    reactStr[1][number]=length;
    2f26:	82 e1       	ldi	r24, 0x12	; 18
    2f28:	90 e0       	ldi	r25, 0x00	; 0
    2f2a:	80 93 31 39 	sts	0x3931, r24	; 0x803931 <reactStr+0x42>
    2f2e:	90 93 32 39 	sts	0x3932, r25	; 0x803932 <reactStr+0x43>
    reactStr[2][number]=type;
    2f32:	81 e0       	ldi	r24, 0x01	; 1
    2f34:	90 e0       	ldi	r25, 0x00	; 0
    2f36:	80 93 71 39 	sts	0x3971, r24	; 0x803971 <reactStr+0x82>
    2f3a:	90 93 72 39 	sts	0x3972, r25	; 0x803972 <reactStr+0x83>
                    SetResponse(elements++, actObj1.addrStr[ACTION_ACL_MSG], actObj1.lenStr[ACTION_ACL_MSG], GAME);
                }

            } else {
                PopulateObject(route[currDepth+1], &actObj1);
                SetResponse(elements++, A_INCORRECT, L_INCORRECT, TEASER);
    2f3e:	82 e0       	ldi	r24, 0x02	; 2
    2f40:	78 2e       	mov	r7, r24
            }
            specialInput[0] = 0;
    2f42:	10 92 de 38 	sts	0x38DE, r1	; 0x8038de <specialInput>
        } else {
               
        }
            
        //Input handled
        data[0] = 0;
    2f46:	d8 01       	movw	r26, r16
    2f48:	1c 92       	st	X, r1
        serRxDone = 0;
    2f4a:	10 92 37 38 	sts	0x3837, r1	; 0x803837 <serRxDone>
        RXCNT = 0;
    2f4e:	1d ba       	out	0x1d, r1	; 29
    return 0;
}

//
void SetResponse(uint8_t number, uint16_t address, uint16_t length, uint8_t type){
    reactStr[0][number]=address;
    2f50:	8b e5       	ldi	r24, 0x5B	; 91
    2f52:	9a e7       	ldi	r25, 0x7A	; 122
    2f54:	80 93 ef 38 	sts	0x38EF, r24	; 0x8038ef <reactStr>
    2f58:	90 93 f0 38 	sts	0x38F0, r25	; 0x8038f0 <reactStr+0x1>
    reactStr[1][number]=length;
    2f5c:	82 e0       	ldi	r24, 0x02	; 2
    2f5e:	90 e0       	ldi	r25, 0x00	; 0
    2f60:	80 93 2f 39 	sts	0x392F, r24	; 0x80392f <reactStr+0x40>
    2f64:	90 93 30 39 	sts	0x3930, r25	; 0x803930 <reactStr+0x41>
    reactStr[2][number]=type;
    2f68:	81 e0       	ldi	r24, 0x01	; 1
    2f6a:	90 e0       	ldi	r25, 0x00	; 0
    2f6c:	80 93 6f 39 	sts	0x396F, r24	; 0x80396f <reactStr+0x80>
    2f70:	90 93 70 39 	sts	0x3970, r25	; 0x803970 <reactStr+0x81>
        //Input handled
        data[0] = 0;
        serRxDone = 0;
        RXCNT = 0;
        SetResponse(0, A_LF, 2, TEASER);
        if (specialInput[0]) responseList = elements; else responseList = SetStandardResponse(elements);
    2f74:	80 91 de 38 	lds	r24, 0x38DE	; 0x8038de <specialInput>
    2f78:	88 23       	and	r24, r24
    2f7a:	19 f0       	breq	.+6      	; 0x2f82 <ProcessInput+0xf30>
    2f7c:	70 92 ee 38 	sts	0x38EE, r7	; 0x8038ee <responseList>
    2f80:	a4 c0       	rjmp	.+328    	; 0x30ca <ProcessInput+0x1078>
    2f82:	87 2d       	mov	r24, r7
    2f84:	17 c0       	rjmp	.+46     	; 0x2fb4 <ProcessInput+0xf62>

    } else {
        data[0] = 0;
    2f86:	f8 01       	movw	r30, r16
    2f88:	10 82       	st	Z, r1
        serRxDone = 0;
    2f8a:	10 92 37 38 	sts	0x3837, r1	; 0x803837 <serRxDone>
        RXCNT = 0;
    2f8e:	1d ba       	out	0x1d, r1	; 29
    return 0;
}

//
void SetResponse(uint8_t number, uint16_t address, uint16_t length, uint8_t type){
    reactStr[0][number]=address;
    2f90:	8b e5       	ldi	r24, 0x5B	; 91
    2f92:	9a e7       	ldi	r25, 0x7A	; 122
    2f94:	80 93 ef 38 	sts	0x38EF, r24	; 0x8038ef <reactStr>
    2f98:	90 93 f0 38 	sts	0x38F0, r25	; 0x8038f0 <reactStr+0x1>
    reactStr[1][number]=length;
    2f9c:	82 e0       	ldi	r24, 0x02	; 2
    2f9e:	90 e0       	ldi	r25, 0x00	; 0
    2fa0:	80 93 2f 39 	sts	0x392F, r24	; 0x80392f <reactStr+0x40>
    2fa4:	90 93 30 39 	sts	0x3930, r25	; 0x803930 <reactStr+0x41>
    reactStr[2][number]=type;
    2fa8:	81 e0       	ldi	r24, 0x01	; 1
    2faa:	90 e0       	ldi	r25, 0x00	; 0
    2fac:	80 93 6f 39 	sts	0x396F, r24	; 0x80396f <reactStr+0x80>
    2fb0:	90 93 70 39 	sts	0x3970, r25	; 0x803970 <reactStr+0x81>
    } else {
        data[0] = 0;
        serRxDone = 0;
        RXCNT = 0;
        SetResponse(0, A_LF, 2, TEASER);
        responseList = SetStandardResponse(1);
    2fb4:	0e 94 cf 0a 	call	0x159e	; 0x159e <SetStandardResponse>
    2fb8:	80 93 ee 38 	sts	0x38EE, r24	; 0x8038ee <responseList>
    }
    
    return 0;
    2fbc:	86 c0       	rjmp	.+268    	; 0x30ca <ProcessInput+0x1078>
    return 0;
}

//
void SetResponse(uint8_t number, uint16_t address, uint16_t length, uint8_t type){
    reactStr[0][number]=address;
    2fbe:	84 ed       	ldi	r24, 0xD4	; 212
    2fc0:	99 e7       	ldi	r25, 0x79	; 121
    2fc2:	80 93 f1 38 	sts	0x38F1, r24	; 0x8038f1 <reactStr+0x2>
    2fc6:	90 93 f2 38 	sts	0x38F2, r25	; 0x8038f2 <reactStr+0x3>
    reactStr[1][number]=length;
    2fca:	8a e1       	ldi	r24, 0x1A	; 26
    2fcc:	90 e0       	ldi	r25, 0x00	; 0
    2fce:	ef c8       	rjmp	.-3618   	; 0x21ae <ProcessInput+0x15c>

        //Drop item if in inventory
        if (data[0] == 'd') {
            if ((inventory[0] == 0)&&(inventory[1] == 0)){
                SetResponse(elements++, A_EMPTYHANDS, L_EMPTYHANDS, TEASER);
            } else if (inputLen != 2) {
    2fd0:	f2 e0       	ldi	r31, 0x02	; 2
    2fd2:	ff 12       	cpse	r15, r31
    2fd4:	6d c8       	rjmp	.-3878   	; 0x20b0 <ProcessInput+0x5e>
                SetResponse(elements++, A_NOTPOSSIBLE, L_NOTPOSSIBLE, TEASER);
            } else {
                for (uint8_t x=0; x<2; ++x) {
                    if (inventory[x]) {
                        if (CheckLetter(inventory[x], data[1])) {
    2fd6:	f8 01       	movw	r30, r16
    2fd8:	61 81       	ldd	r22, Z+1	; 0x01
    2fda:	0e 94 c2 0b 	call	0x1784	; 0x1784 <CheckLetter>
    2fde:	88 23       	and	r24, r24
    2fe0:	09 f4       	brne	.+2      	; 0x2fe4 <ProcessInput+0xf92>
    2fe2:	5b c0       	rjmp	.+182    	; 0x309a <ProcessInput+0x1048>
                SetResponse(elements++, A_EMPTYHANDS, L_EMPTYHANDS, TEASER);
            } else if (inputLen != 2) {
                SetResponse(elements++, A_NOTPOSSIBLE, L_NOTPOSSIBLE, TEASER);
            } else {
                for (uint8_t x=0; x<2; ++x) {
                    if (inventory[x]) {
    2fe4:	80 e0       	ldi	r24, 0x00	; 0
    2fe6:	90 e0       	ldi	r25, 0x00	; 0
                        if (CheckLetter(inventory[x], data[1])) {
                            PopulateObject(inventory[x], &actObj1);
    2fe8:	88 0f       	add	r24, r24
    2fea:	99 1f       	adc	r25, r25
    2fec:	9c 01       	movw	r18, r24
    2fee:	2f 5c       	subi	r18, 0xCF	; 207
    2ff0:	37 4c       	sbci	r19, 0xC7	; 199
    2ff2:	79 01       	movw	r14, r18
    2ff4:	60 eb       	ldi	r22, 0xB0	; 176
    2ff6:	78 e3       	ldi	r23, 0x38	; 56
    2ff8:	d9 01       	movw	r26, r18
    2ffa:	8d 91       	ld	r24, X+
    2ffc:	9c 91       	ld	r25, X
    2ffe:	0e 94 4b 0b 	call	0x1696	; 0x1696 <PopulateObject>
    return 0;
}

//
void SetResponse(uint8_t number, uint16_t address, uint16_t length, uint8_t type){
    reactStr[0][number]=address;
    3002:	84 ed       	ldi	r24, 0xD4	; 212
    3004:	97 e7       	ldi	r25, 0x77	; 119
    3006:	80 93 f1 38 	sts	0x38F1, r24	; 0x8038f1 <reactStr+0x2>
    300a:	90 93 f2 38 	sts	0x38F2, r25	; 0x8038f2 <reactStr+0x3>
    reactStr[1][number]=length;
    300e:	80 e1       	ldi	r24, 0x10	; 16
    3010:	90 e0       	ldi	r25, 0x00	; 0
    3012:	80 93 31 39 	sts	0x3931, r24	; 0x803931 <reactStr+0x42>
    3016:	90 93 32 39 	sts	0x3932, r25	; 0x803932 <reactStr+0x43>
    reactStr[2][number]=type;
    301a:	81 e0       	ldi	r24, 0x01	; 1
    301c:	90 e0       	ldi	r25, 0x00	; 0
    301e:	80 93 71 39 	sts	0x3971, r24	; 0x803971 <reactStr+0x82>
    3022:	90 93 72 39 	sts	0x3972, r25	; 0x803972 <reactStr+0x83>
                for (uint8_t x=0; x<2; ++x) {
                    if (inventory[x]) {
                        if (CheckLetter(inventory[x], data[1])) {
                            PopulateObject(inventory[x], &actObj1);
                            SetResponse(elements++, A_DROPPING, L_DROPPING, TEASER);
                            SetResponse(elements++, actObj1.addrStr[NAME], actObj1.lenStr[NAME], GAME);
    3026:	20 91 ca 38 	lds	r18, 0x38CA	; 0x8038ca <actObj1.3992+0x1a>
    302a:	30 91 cb 38 	lds	r19, 0x38CB	; 0x8038cb <actObj1.3992+0x1b>
    return 0;
}

//
void SetResponse(uint8_t number, uint16_t address, uint16_t length, uint8_t type){
    reactStr[0][number]=address;
    302e:	40 91 bc 38 	lds	r20, 0x38BC	; 0x8038bc <actObj1.3992+0xc>
    3032:	50 91 bd 38 	lds	r21, 0x38BD	; 0x8038bd <actObj1.3992+0xd>
    3036:	40 93 f3 38 	sts	0x38F3, r20	; 0x8038f3 <reactStr+0x4>
    303a:	50 93 f4 38 	sts	0x38F4, r21	; 0x8038f4 <reactStr+0x5>
    reactStr[1][number]=length;
    303e:	20 93 33 39 	sts	0x3933, r18	; 0x803933 <reactStr+0x44>
    3042:	30 93 34 39 	sts	0x3934, r19	; 0x803934 <reactStr+0x45>
    reactStr[2][number]=type;
    3046:	10 92 73 39 	sts	0x3973, r1	; 0x803973 <reactStr+0x84>
    304a:	10 92 74 39 	sts	0x3974, r1	; 0x803974 <reactStr+0x85>
    return 0;
}

//
void SetResponse(uint8_t number, uint16_t address, uint16_t length, uint8_t type){
    reactStr[0][number]=address;
    304e:	2b e5       	ldi	r18, 0x5B	; 91
    3050:	3a e7       	ldi	r19, 0x7A	; 122
    3052:	20 93 f5 38 	sts	0x38F5, r18	; 0x8038f5 <reactStr+0x6>
    3056:	30 93 f6 38 	sts	0x38F6, r19	; 0x8038f6 <reactStr+0x7>
    reactStr[1][number]=length;
    305a:	22 e0       	ldi	r18, 0x02	; 2
    305c:	30 e0       	ldi	r19, 0x00	; 0
    305e:	20 93 35 39 	sts	0x3935, r18	; 0x803935 <reactStr+0x46>
    3062:	30 93 36 39 	sts	0x3936, r19	; 0x803936 <reactStr+0x47>
    reactStr[2][number]=type;
    3066:	80 93 75 39 	sts	0x3975, r24	; 0x803975 <reactStr+0x86>
    306a:	90 93 76 39 	sts	0x3976, r25	; 0x803976 <reactStr+0x87>
    return 0;
}

//
void SetResponse(uint8_t number, uint16_t address, uint16_t length, uint8_t type){
    reactStr[0][number]=address;
    306e:	27 e9       	ldi	r18, 0x97	; 151
    3070:	37 e7       	ldi	r19, 0x77	; 119
    3072:	20 93 f7 38 	sts	0x38F7, r18	; 0x8038f7 <reactStr+0x8>
    3076:	30 93 f8 38 	sts	0x38F8, r19	; 0x8038f8 <reactStr+0x9>
    reactStr[1][number]=length;
    307a:	2d e3       	ldi	r18, 0x3D	; 61
    307c:	30 e0       	ldi	r19, 0x00	; 0
    307e:	20 93 37 39 	sts	0x3937, r18	; 0x803937 <reactStr+0x48>
    3082:	30 93 38 39 	sts	0x3938, r19	; 0x803938 <reactStr+0x49>
    reactStr[2][number]=type;
    3086:	80 93 77 39 	sts	0x3977, r24	; 0x803977 <reactStr+0x88>
    308a:	90 93 78 39 	sts	0x3978, r25	; 0x803978 <reactStr+0x89>
                            PopulateObject(inventory[x], &actObj1);
                            SetResponse(elements++, A_DROPPING, L_DROPPING, TEASER);
                            SetResponse(elements++, actObj1.addrStr[NAME], actObj1.lenStr[NAME], GAME);
                            SetResponse(elements++, A_LF, 2, TEASER);
                            SetResponse(elements++, A_RETURNING, L_RETURNING, TEASER);
                            inventory[x] = 0;
    308e:	f7 01       	movw	r30, r14
    3090:	10 82       	st	Z, r1
    3092:	11 82       	std	Z+1, r1	; 0x01
                        if (CheckLetter(inventory[x], data[1])) {
                            PopulateObject(inventory[x], &actObj1);
                            SetResponse(elements++, A_DROPPING, L_DROPPING, TEASER);
                            SetResponse(elements++, actObj1.addrStr[NAME], actObj1.lenStr[NAME], GAME);
                            SetResponse(elements++, A_LF, 2, TEASER);
                            SetResponse(elements++, A_RETURNING, L_RETURNING, TEASER);
    3094:	f5 e0       	ldi	r31, 0x05	; 5
    3096:	7f 2e       	mov	r7, r31
                            inventory[x] = 0;
                            break;
    3098:	56 cf       	rjmp	.-340    	; 0x2f46 <ProcessInput+0xef4>
                SetResponse(elements++, A_EMPTYHANDS, L_EMPTYHANDS, TEASER);
            } else if (inputLen != 2) {
                SetResponse(elements++, A_NOTPOSSIBLE, L_NOTPOSSIBLE, TEASER);
            } else {
                for (uint8_t x=0; x<2; ++x) {
                    if (inventory[x]) {
    309a:	80 91 33 38 	lds	r24, 0x3833	; 0x803833 <inventory+0x2>
    309e:	90 91 34 38 	lds	r25, 0x3834	; 0x803834 <inventory+0x3>
    30a2:	00 97       	sbiw	r24, 0x00	; 0
    30a4:	49 f0       	breq	.+18     	; 0x30b8 <ProcessInput+0x1066>
                        if (CheckLetter(inventory[x], data[1])) {
    30a6:	f8 01       	movw	r30, r16
    30a8:	61 81       	ldd	r22, Z+1	; 0x01
    30aa:	0e 94 c2 0b 	call	0x1784	; 0x1784 <CheckLetter>
    30ae:	88 23       	and	r24, r24
    30b0:	19 f0       	breq	.+6      	; 0x30b8 <ProcessInput+0x1066>
                SetResponse(elements++, A_EMPTYHANDS, L_EMPTYHANDS, TEASER);
            } else if (inputLen != 2) {
                SetResponse(elements++, A_NOTPOSSIBLE, L_NOTPOSSIBLE, TEASER);
            } else {
                for (uint8_t x=0; x<2; ++x) {
                    if (inventory[x]) {
    30b2:	81 e0       	ldi	r24, 0x01	; 1
    30b4:	90 e0       	ldi	r25, 0x00	; 0
    30b6:	98 cf       	rjmp	.-208    	; 0x2fe8 <ProcessInput+0xf96>
    return 0;
}

//
void SetResponse(uint8_t number, uint16_t address, uint16_t length, uint8_t type){
    reactStr[0][number]=address;
    30b8:	84 e6       	ldi	r24, 0x64	; 100
    30ba:	99 e7       	ldi	r25, 0x79	; 121
    30bc:	80 93 f1 38 	sts	0x38F1, r24	; 0x8038f1 <reactStr+0x2>
    30c0:	90 93 f2 38 	sts	0x38F2, r25	; 0x8038f2 <reactStr+0x3>
    reactStr[1][number]=length;
    30c4:	81 e2       	ldi	r24, 0x21	; 33
    30c6:	90 e0       	ldi	r25, 0x00	; 0
    30c8:	72 c8       	rjmp	.-3868   	; 0x21ae <ProcessInput+0x15c>
        SetResponse(0, A_LF, 2, TEASER);
        responseList = SetStandardResponse(1);
    }
    
    return 0;
}
    30ca:	80 e0       	ldi	r24, 0x00	; 0
    30cc:	2a 96       	adiw	r28, 0x0a	; 10
    30ce:	cd bf       	out	0x3d, r28	; 61
    30d0:	de bf       	out	0x3e, r29	; 62
    30d2:	df 91       	pop	r29
    30d4:	cf 91       	pop	r28
    30d6:	1f 91       	pop	r17
    30d8:	0f 91       	pop	r16
    30da:	ff 90       	pop	r15
    30dc:	ef 90       	pop	r14
    30de:	df 90       	pop	r13
    30e0:	cf 90       	pop	r12
    30e2:	bf 90       	pop	r11
    30e4:	af 90       	pop	r10
    30e6:	9f 90       	pop	r9
    30e8:	8f 90       	pop	r8
    30ea:	7f 90       	pop	r7
    30ec:	6f 90       	pop	r6
    30ee:	5f 90       	pop	r5
    30f0:	4f 90       	pop	r4
    30f2:	08 95       	ret

000030f4 <TextAdventure>:


//MAIN GAME STRUCTURE
uint8_t TextAdventure(){
    30f4:	cf 93       	push	r28
    static uint8_t serInput[RXLEN];
    
    //Still sending data to serial?
    if (CheckSend()) return 1;
    30f6:	0e 94 a1 0c 	call	0x1942	; 0x1942 <CheckSend>
    30fa:	88 23       	and	r24, r24
    30fc:	11 f0       	breq	.+4      	; 0x3102 <TextAdventure+0xe>
    30fe:	c1 e0       	ldi	r28, 0x01	; 1
    3100:	13 c0       	rjmp	.+38     	; 0x3128 <TextAdventure+0x34>

    //Not sending? Process next response part to send, if any.
    if (CheckResponse()) return 1;        
    3102:	0e 94 f5 0c 	call	0x19ea	; 0x19ea <CheckResponse>
    3106:	81 11       	cpse	r24, r1
    3108:	fa cf       	rjmp	.-12     	; 0x30fe <TextAdventure+0xa>

    //No responses to send, check if there is user input.
    if (CheckInput(&serInput[0])) return 2; 
    310a:	84 e4       	ldi	r24, 0x44	; 68
    310c:	98 e3       	ldi	r25, 0x38	; 56
    310e:	0e 94 3c 0d 	call	0x1a78	; 0x1a78 <CheckInput>
    3112:	c8 2f       	mov	r28, r24
    3114:	81 11       	cpse	r24, r1
    3116:	07 c0       	rjmp	.+14     	; 0x3126 <TextAdventure+0x32>

    //Input found, process and save (changes only)
    ProcessInput(&serInput[0]);
    3118:	84 e4       	ldi	r24, 0x44	; 68
    311a:	98 e3       	ldi	r25, 0x38	; 56
    311c:	0e 94 29 10 	call	0x2052	; 0x2052 <ProcessInput>
    SaveGameState();
    3120:	0e 94 1f 08 	call	0x103e	; 0x103e <SaveGameState>

    return 0;
    3124:	01 c0       	rjmp	.+2      	; 0x3128 <TextAdventure+0x34>

    //Not sending? Process next response part to send, if any.
    if (CheckResponse()) return 1;        

    //No responses to send, check if there is user input.
    if (CheckInput(&serInput[0])) return 2; 
    3126:	c2 e0       	ldi	r28, 0x02	; 2
    //Input found, process and save (changes only)
    ProcessInput(&serInput[0]);
    SaveGameState();

    return 0;
    3128:	8c 2f       	mov	r24, r28
    312a:	cf 91       	pop	r28
    312c:	08 95       	ret

0000312e <main>:


//This is where it begins, inits first and main program in while(1) loop.
int main(void)
{
    Setup();
    312e:	0e 94 cf 03 	call	0x79e	; 0x79e <Setup>

    SerSpeed(255);
    3132:	8f ef       	ldi	r24, 0xFF	; 255
    3134:	0e 94 3c 07 	call	0xe78	; 0xe78 <SerSpeed>
    3138:	a2 e0       	ldi	r26, 0x02	; 2
    313a:	b3 eb       	ldi	r27, 0xB3	; 179
    ////Turn on LEDs on low setting to check for interrupt glitches

    //"Hacker"
    for (uint8_t n=0; n<6; n++){
        iLED[HCKR[R][n]] = 1;
    313c:	81 e0       	ldi	r24, 0x01	; 1
    313e:	ed 91       	ld	r30, X+
    3140:	f0 e0       	ldi	r31, 0x00	; 0
    3142:	ea 54       	subi	r30, 0x4A	; 74
    3144:	f5 4c       	sbci	r31, 0xC5	; 197
    3146:	80 83       	st	Z, r24
        iLED[HCKR[G][n]] = 1;
    3148:	15 96       	adiw	r26, 0x05	; 5
    314a:	ec 91       	ld	r30, X
    314c:	15 97       	sbiw	r26, 0x05	; 5
    314e:	f0 e0       	ldi	r31, 0x00	; 0
    3150:	ea 54       	subi	r30, 0x4A	; 74
    3152:	f5 4c       	sbci	r31, 0xC5	; 197
    3154:	80 83       	st	Z, r24

    SerSpeed(255);
    ////Turn on LEDs on low setting to check for interrupt glitches

    //"Hacker"
    for (uint8_t n=0; n<6; n++){
    3156:	23 eb       	ldi	r18, 0xB3	; 179
    3158:	a8 30       	cpi	r26, 0x08	; 8
    315a:	b2 07       	cpc	r27, r18
    315c:	81 f7       	brne	.-32     	; 0x313e <main+0x10>
    315e:	e4 ef       	ldi	r30, 0xF4	; 244
    3160:	f2 eb       	ldi	r31, 0xB2	; 178
        iLED[HCKR[G][n]] = 1;
    }

    //"Wings"
    for (uint8_t n=0; n<5; n++){
        iLED[WING[L][n]] = 1;
    3162:	91 e0       	ldi	r25, 0x01	; 1
    3164:	ef 01       	movw	r28, r30
    3166:	a5 81       	ldd	r26, Z+5	; 0x05
    3168:	b0 e0       	ldi	r27, 0x00	; 0
    316a:	aa 54       	subi	r26, 0x4A	; 74
    316c:	b5 4c       	sbci	r27, 0xC5	; 197
    316e:	81 e0       	ldi	r24, 0x01	; 1
    3170:	9c 93       	st	X, r25
    3172:	31 96       	adiw	r30, 0x01	; 1
        iLED[WING[R][n]] = 1;
    3174:	a8 81       	ld	r26, Y
    3176:	b0 e0       	ldi	r27, 0x00	; 0
    3178:	aa 54       	subi	r26, 0x4A	; 74
    317a:	b5 4c       	sbci	r27, 0xC5	; 197
    317c:	9c 93       	st	X, r25
        iLED[HCKR[R][n]] = 1;
        iLED[HCKR[G][n]] = 1;
    }

    //"Wings"
    for (uint8_t n=0; n<5; n++){
    317e:	22 eb       	ldi	r18, 0xB2	; 178
    3180:	e9 3f       	cpi	r30, 0xF9	; 249
    3182:	f2 07       	cpc	r31, r18
    3184:	79 f7       	brne	.-34     	; 0x3164 <main+0x36>
        iLED[WING[L][n]] = 1;
        iLED[WING[R][n]] = 1;
    }    

    //"Others"
    iLED[EYE[G][R]] = 1;
    3186:	e0 91 00 b3 	lds	r30, 0xB300	; 0x80b300 <__bss_end+0x77fa>
    318a:	f0 e0       	ldi	r31, 0x00	; 0
    318c:	ea 54       	subi	r30, 0x4A	; 74
    318e:	f5 4c       	sbci	r31, 0xC5	; 197
    3190:	80 83       	st	Z, r24
    iLED[EYE[G][L]] = 1;
    3192:	e0 91 01 b3 	lds	r30, 0xB301	; 0x80b301 <__bss_end+0x77fb>
    3196:	f0 e0       	ldi	r31, 0x00	; 0
    3198:	ea 54       	subi	r30, 0x4A	; 74
    319a:	f5 4c       	sbci	r31, 0xC5	; 197
    319c:	80 83       	st	Z, r24
    iLED[EYE[R][R]] = 1;
    319e:	e0 91 fe b2 	lds	r30, 0xB2FE	; 0x80b2fe <__bss_end+0x77f8>
    31a2:	f0 e0       	ldi	r31, 0x00	; 0
    31a4:	ea 54       	subi	r30, 0x4A	; 74
    31a6:	f5 4c       	sbci	r31, 0xC5	; 197
    31a8:	80 83       	st	Z, r24
    iLED[EYE[R][L]] = 1;
    31aa:	e0 91 ff b2 	lds	r30, 0xB2FF	; 0x80b2ff <__bss_end+0x77f9>
    31ae:	f0 e0       	ldi	r31, 0x00	; 0
    31b0:	ea 54       	subi	r30, 0x4A	; 74
    31b2:	f5 4c       	sbci	r31, 0xC5	; 197
    31b4:	80 83       	st	Z, r24
    iLED[SCARAB[R]] = 1;
    31b6:	e0 91 f2 b2 	lds	r30, 0xB2F2	; 0x80b2f2 <__bss_end+0x77ec>
    31ba:	f0 e0       	ldi	r31, 0x00	; 0
    31bc:	ea 54       	subi	r30, 0x4A	; 74
    31be:	f5 4c       	sbci	r31, 0xC5	; 197
    31c0:	80 83       	st	Z, r24
    iLED[SCARAB[G]] = 1;
    31c2:	e0 91 f3 b2 	lds	r30, 0xB2F3	; 0x80b2f3 <__bss_end+0x77ed>
    31c6:	f0 e0       	ldi	r31, 0x00	; 0
    31c8:	ea 54       	subi	r30, 0x4A	; 74
    31ca:	f5 4c       	sbci	r31, 0xC5	; 197
    31cc:	80 83       	st	Z, r24
    iLED[BADGER] = 1;
    31ce:	e0 91 f1 b2 	lds	r30, 0xB2F1	; 0x80b2f1 <__bss_end+0x77eb>
    31d2:	f0 e0       	ldi	r31, 0x00	; 0
    31d4:	ea 54       	subi	r30, 0x4A	; 74
    31d6:	f5 4c       	sbci	r31, 0xC5	; 197
    31d8:	80 83       	st	Z, r24
    iLED[CAT] = 1;
    31da:	e0 91 f0 b2 	lds	r30, 0xB2F0	; 0x80b2f0 <__bss_end+0x77ea>
    31de:	f0 e0       	ldi	r31, 0x00	; 0
    31e0:	ea 54       	subi	r30, 0x4A	; 74
    31e2:	f5 4c       	sbci	r31, 0xC5	; 197
    31e4:	80 83       	st	Z, r24

    while (1)
    {
        GenerateAudio();
    31e6:	0e 94 3d 09 	call	0x127a	; 0x127a <GenerateAudio>


        if (buttonMark){
    31ea:	80 91 35 38 	lds	r24, 0x3835	; 0x803835 <buttonMark>
    31ee:	88 23       	and	r24, r24
    31f0:	d1 f3       	breq	.-12     	; 0x31e6 <main+0xb8>
            buttonState = CheckButtons(buttonState);
    31f2:	80 91 07 38 	lds	r24, 0x3807	; 0x803807 <buttonState>
    31f6:	0e 94 4d 07 	call	0xe9a	; 0xe9a <CheckButtons>
    31fa:	80 93 07 38 	sts	0x3807, r24	; 0x803807 <buttonState>
            buttonMark = 0;
    31fe:	10 92 35 38 	sts	0x3835, r1	; 0x803835 <buttonMark>
            
            //GenerateBlinks();           
            
            //Main game, to complete: Finish sub-game MagnetMaze and MakeFriends too.
            TextAdventure();
    3202:	78 df       	rcall	.-272    	; 0x30f4 <TextAdventure>
          
            //Other games & user interaction checks
            MagnetMaze();
    3204:	0e 94 90 02 	call	0x520	; 0x520 <MagnetMaze>
            BastetDictates();
    3208:	0e 94 db 09 	call	0x13b6	; 0x13b6 <BastetDictates>
            LanyardCode();
    320c:	0e 94 9f 01 	call	0x33e	; 0x33e <LanyardCode>
            //MakeFriends();
             
            //Check light sensor status (added hysteresis to preserve writing cycles to internal EEPROM)
            if (adcPhot < 10) WriteStatusBit(116, 1);
    3210:	80 91 91 3a 	lds	r24, 0x3A91	; 0x803a91 <adcPhot>
    3214:	90 91 92 3a 	lds	r25, 0x3A92	; 0x803a92 <adcPhot+0x1>
    3218:	0a 97       	sbiw	r24, 0x0a	; 10
    321a:	20 f4       	brcc	.+8      	; 0x3224 <main+0xf6>
    321c:	61 e0       	ldi	r22, 0x01	; 1
    321e:	84 e7       	ldi	r24, 0x74	; 116
    3220:	0e 94 a6 08 	call	0x114c	; 0x114c <WriteStatusBit>
            if (adcPhot > 100) WriteStatusBit(116, 0);
    3224:	80 91 91 3a 	lds	r24, 0x3A91	; 0x803a91 <adcPhot>
    3228:	90 91 92 3a 	lds	r25, 0x3A92	; 0x803a92 <adcPhot+0x1>
    322c:	85 36       	cpi	r24, 0x65	; 101
    322e:	91 05       	cpc	r25, r1
    3230:	20 f0       	brcs	.+8      	; 0x323a <main+0x10c>
    3232:	60 e0       	ldi	r22, 0x00	; 0
    3234:	84 e7       	ldi	r24, 0x74	; 116
    3236:	0e 94 a6 08 	call	0x114c	; 0x114c <WriteStatusBit>

            //Check temperature 
            HotSummer();
    323a:	0e 94 0f 09 	call	0x121e	; 0x121e <HotSummer>
    323e:	d3 cf       	rjmp	.-90     	; 0x31e6 <main+0xb8>

00003240 <__udivmodqi4>:
    3240:	99 1b       	sub	r25, r25
    3242:	79 e0       	ldi	r23, 0x09	; 9
    3244:	04 c0       	rjmp	.+8      	; 0x324e <__udivmodqi4_ep>

00003246 <__udivmodqi4_loop>:
    3246:	99 1f       	adc	r25, r25
    3248:	96 17       	cp	r25, r22
    324a:	08 f0       	brcs	.+2      	; 0x324e <__udivmodqi4_ep>
    324c:	96 1b       	sub	r25, r22

0000324e <__udivmodqi4_ep>:
    324e:	88 1f       	adc	r24, r24
    3250:	7a 95       	dec	r23
    3252:	c9 f7       	brne	.-14     	; 0x3246 <__udivmodqi4_loop>
    3254:	80 95       	com	r24
    3256:	08 95       	ret

00003258 <__udivmodhi4>:
    3258:	aa 1b       	sub	r26, r26
    325a:	bb 1b       	sub	r27, r27
    325c:	51 e1       	ldi	r21, 0x11	; 17
    325e:	07 c0       	rjmp	.+14     	; 0x326e <__udivmodhi4_ep>

00003260 <__udivmodhi4_loop>:
    3260:	aa 1f       	adc	r26, r26
    3262:	bb 1f       	adc	r27, r27
    3264:	a6 17       	cp	r26, r22
    3266:	b7 07       	cpc	r27, r23
    3268:	10 f0       	brcs	.+4      	; 0x326e <__udivmodhi4_ep>
    326a:	a6 1b       	sub	r26, r22
    326c:	b7 0b       	sbc	r27, r23

0000326e <__udivmodhi4_ep>:
    326e:	88 1f       	adc	r24, r24
    3270:	99 1f       	adc	r25, r25
    3272:	5a 95       	dec	r21
    3274:	a9 f7       	brne	.-22     	; 0x3260 <__udivmodhi4_loop>
    3276:	80 95       	com	r24
    3278:	90 95       	com	r25
    327a:	bc 01       	movw	r22, r24
    327c:	cd 01       	movw	r24, r26
    327e:	08 95       	ret

00003280 <__udivmodsi4>:
    3280:	a1 e2       	ldi	r26, 0x21	; 33
    3282:	1a 2e       	mov	r1, r26
    3284:	aa 1b       	sub	r26, r26
    3286:	bb 1b       	sub	r27, r27
    3288:	fd 01       	movw	r30, r26
    328a:	0d c0       	rjmp	.+26     	; 0x32a6 <__udivmodsi4_ep>

0000328c <__udivmodsi4_loop>:
    328c:	aa 1f       	adc	r26, r26
    328e:	bb 1f       	adc	r27, r27
    3290:	ee 1f       	adc	r30, r30
    3292:	ff 1f       	adc	r31, r31
    3294:	a2 17       	cp	r26, r18
    3296:	b3 07       	cpc	r27, r19
    3298:	e4 07       	cpc	r30, r20
    329a:	f5 07       	cpc	r31, r21
    329c:	20 f0       	brcs	.+8      	; 0x32a6 <__udivmodsi4_ep>
    329e:	a2 1b       	sub	r26, r18
    32a0:	b3 0b       	sbc	r27, r19
    32a2:	e4 0b       	sbc	r30, r20
    32a4:	f5 0b       	sbc	r31, r21

000032a6 <__udivmodsi4_ep>:
    32a6:	66 1f       	adc	r22, r22
    32a8:	77 1f       	adc	r23, r23
    32aa:	88 1f       	adc	r24, r24
    32ac:	99 1f       	adc	r25, r25
    32ae:	1a 94       	dec	r1
    32b0:	69 f7       	brne	.-38     	; 0x328c <__udivmodsi4_loop>
    32b2:	60 95       	com	r22
    32b4:	70 95       	com	r23
    32b6:	80 95       	com	r24
    32b8:	90 95       	com	r25
    32ba:	9b 01       	movw	r18, r22
    32bc:	ac 01       	movw	r20, r24
    32be:	bd 01       	movw	r22, r26
    32c0:	cf 01       	movw	r24, r30
    32c2:	08 95       	ret

000032c4 <_exit>:
    32c4:	f8 94       	cli

000032c6 <__stop_program>:
    32c6:	ff cf       	rjmp	.-2      	; 0x32c6 <__stop_program>
