
ISR_IO.elf:     file format elf32-avr

Sections:
Idx Name          Size      VMA       LMA       File off  Algn
  0 .data         00000032  00803800  00003fce  00004082  2**0
                  CONTENTS, ALLOC, LOAD, DATA
  1 .text         00003f12  00000000  00000000  000000b4  2**1
                  CONTENTS, ALLOC, LOAD, READONLY, CODE
  2 .rodata       000000bc  0000bf12  00003f12  00003fc6  2**0
                  CONTENTS, ALLOC, LOAD, READONLY, DATA
  3 .bss          000002e3  00803832  00803832  000040b4  2**0
                  ALLOC
  4 .comment      00000030  00000000  00000000  000040b4  2**0
                  CONTENTS, READONLY
  5 .note.gnu.avr.deviceinfo 00000040  00000000  00000000  000040e4  2**2
                  CONTENTS, READONLY
  6 .debug_aranges 00000338  00000000  00000000  00004124  2**0
                  CONTENTS, READONLY, DEBUGGING
  7 .debug_info   00006c43  00000000  00000000  0000445c  2**0
                  CONTENTS, READONLY, DEBUGGING
  8 .debug_abbrev 00002895  00000000  00000000  0000b09f  2**0
                  CONTENTS, READONLY, DEBUGGING
  9 .debug_line   00003da9  00000000  00000000  0000d934  2**0
                  CONTENTS, READONLY, DEBUGGING
 10 .debug_frame  000009f8  00000000  00000000  000116e0  2**2
                  CONTENTS, READONLY, DEBUGGING
 11 .debug_str    00001a89  00000000  00000000  000120d8  2**0
                  CONTENTS, READONLY, DEBUGGING
 12 .debug_loc    00004178  00000000  00000000  00013b61  2**0
                  CONTENTS, READONLY, DEBUGGING
 13 .debug_ranges 000003a8  00000000  00000000  00017cd9  2**0
                  CONTENTS, READONLY, DEBUGGING

Disassembly of section .text:

00000000 <__vectors>:
       0:	46 c0       	rjmp	.+140    	; 0x8e <__ctors_end>
       2:	00 00       	nop
       4:	61 c0       	rjmp	.+194    	; 0xc8 <__bad_interrupt>
       6:	00 00       	nop
       8:	5f c0       	rjmp	.+190    	; 0xc8 <__bad_interrupt>
       a:	00 00       	nop
       c:	5d c0       	rjmp	.+186    	; 0xc8 <__bad_interrupt>
       e:	00 00       	nop
      10:	5b c0       	rjmp	.+182    	; 0xc8 <__bad_interrupt>
      12:	00 00       	nop
      14:	59 c0       	rjmp	.+178    	; 0xc8 <__bad_interrupt>
      16:	00 00       	nop
      18:	86 c7       	rjmp	.+3852   	; 0xf26 <__vector_6>
      1a:	00 00       	nop
      1c:	db c7       	rjmp	.+4022   	; 0xfd4 <__vector_7>
      1e:	00 00       	nop
      20:	c3 c5       	rjmp	.+2950   	; 0xba8 <__vector_8>
      22:	00 00       	nop
      24:	51 c0       	rjmp	.+162    	; 0xc8 <__bad_interrupt>
      26:	00 00       	nop
      28:	4f c0       	rjmp	.+158    	; 0xc8 <__bad_interrupt>
      2a:	00 00       	nop
      2c:	4d c0       	rjmp	.+154    	; 0xc8 <__bad_interrupt>
      2e:	00 00       	nop
      30:	4b c0       	rjmp	.+150    	; 0xc8 <__bad_interrupt>
      32:	00 00       	nop
      34:	0a c6       	rjmp	.+3092   	; 0xc4a <__vector_13>
      36:	00 00       	nop
      38:	3b c6       	rjmp	.+3190   	; 0xcb0 <__vector_14>
      3a:	00 00       	nop
      3c:	45 c0       	rjmp	.+138    	; 0xc8 <__bad_interrupt>
      3e:	00 00       	nop
      40:	43 c0       	rjmp	.+134    	; 0xc8 <__bad_interrupt>
      42:	00 00       	nop
      44:	41 c0       	rjmp	.+130    	; 0xc8 <__bad_interrupt>
      46:	00 00       	nop
      48:	3f c0       	rjmp	.+126    	; 0xc8 <__bad_interrupt>
      4a:	00 00       	nop
      4c:	3d c0       	rjmp	.+122    	; 0xc8 <__bad_interrupt>
      4e:	00 00       	nop
      50:	f6 c6       	rjmp	.+3564   	; 0xe3e <__vector_20>
      52:	00 00       	nop
      54:	39 c0       	rjmp	.+114    	; 0xc8 <__bad_interrupt>
      56:	00 00       	nop
      58:	1e c7       	rjmp	.+3644   	; 0xe96 <__vector_22>
      5a:	00 00       	nop
      5c:	35 c0       	rjmp	.+106    	; 0xc8 <__bad_interrupt>
      5e:	00 00       	nop
      60:	33 c0       	rjmp	.+102    	; 0xc8 <__bad_interrupt>
      62:	00 00       	nop
      64:	31 c0       	rjmp	.+98     	; 0xc8 <__bad_interrupt>
      66:	00 00       	nop
      68:	2f c0       	rjmp	.+94     	; 0xc8 <__bad_interrupt>
      6a:	00 00       	nop
      6c:	71 c6       	rjmp	.+3298   	; 0xd50 <__vector_27>
      6e:	00 00       	nop
      70:	ca c6       	rjmp	.+3476   	; 0xe06 <__vector_28>
      72:	00 00       	nop
      74:	29 c0       	rjmp	.+82     	; 0xc8 <__bad_interrupt>
      76:	00 00       	nop
      78:	27 c0       	rjmp	.+78     	; 0xc8 <__bad_interrupt>
      7a:	00 00       	nop
      7c:	b0 0b       	sbc	r27, r16
      7e:	de 0b       	sbc	r29, r30
      80:	e5 0b       	sbc	r30, r21
      82:	ae 0c       	add	r10, r14
      84:	ae 0c       	add	r10, r14
      86:	fb 0b       	sbc	r31, r27
      88:	0f 0c       	add	r0, r15
      8a:	4d 0c       	add	r4, r13
      8c:	74 0c       	add	r7, r4

0000008e <__ctors_end>:
      8e:	11 24       	eor	r1, r1
      90:	1f be       	out	0x3f, r1	; 63
      92:	cf ef       	ldi	r28, 0xFF	; 255
      94:	cd bf       	out	0x3d, r28	; 61
      96:	df e3       	ldi	r29, 0x3F	; 63
      98:	de bf       	out	0x3e, r29	; 62

0000009a <__do_copy_data>:
      9a:	18 e3       	ldi	r17, 0x38	; 56
      9c:	a0 e0       	ldi	r26, 0x00	; 0
      9e:	b8 e3       	ldi	r27, 0x38	; 56
      a0:	ee ec       	ldi	r30, 0xCE	; 206
      a2:	ff e3       	ldi	r31, 0x3F	; 63
      a4:	02 c0       	rjmp	.+4      	; 0xaa <__do_copy_data+0x10>
      a6:	05 90       	lpm	r0, Z+
      a8:	0d 92       	st	X+, r0
      aa:	a2 33       	cpi	r26, 0x32	; 50
      ac:	b1 07       	cpc	r27, r17
      ae:	d9 f7       	brne	.-10     	; 0xa6 <__do_copy_data+0xc>

000000b0 <__do_clear_bss>:
      b0:	2b e3       	ldi	r18, 0x3B	; 59
      b2:	a2 e3       	ldi	r26, 0x32	; 50
      b4:	b8 e3       	ldi	r27, 0x38	; 56
      b6:	01 c0       	rjmp	.+2      	; 0xba <.do_clear_bss_start>

000000b8 <.do_clear_bss_loop>:
      b8:	1d 92       	st	X+, r1

000000ba <.do_clear_bss_start>:
      ba:	a5 31       	cpi	r26, 0x15	; 21
      bc:	b2 07       	cpc	r27, r18
      be:	e1 f7       	brne	.-8      	; 0xb8 <.do_clear_bss_loop>
      c0:	0e 94 fa 1e 	call	0x3df4	; 0x3df4 <main>
      c4:	0c 94 87 1f 	jmp	0x3f0e	; 0x3f0e <_exit>

000000c8 <__bad_interrupt>:
      c8:	9b cf       	rjmp	.-202    	; 0x0 <__vectors>

000000ca <chkVolt250>:
#include <main_def.h>
#include <resources.h>
#include <I2C.h>

//Returns measured voltage * 4 (2V returns 8) if it is in the expected range (DELTA)
uint8_t chkVolt250(){
      ca:	28 ed       	ldi	r18, 0xD8	; 216
      cc:	30 e0       	ldi	r19, 0x00	; 0
    uint8_t avgVolt = 9;
      ce:	89 e0       	ldi	r24, 0x09	; 9
        
    for (uint8_t x=225; x>24; x-=25) {
        if ((auIn > (x-DELTA)) && (auIn < (x+DELTA))) {
      d0:	40 91 c5 3a 	lds	r20, 0x3AC5	; 0x803ac5 <auIn>
      d4:	50 e0       	ldi	r21, 0x00	; 0
      d6:	42 17       	cp	r20, r18
      d8:	53 07       	cpc	r21, r19
      da:	4c f0       	brlt	.+18     	; 0xee <chkVolt250+0x24>
      dc:	40 91 c5 3a 	lds	r20, 0x3AC5	; 0x803ac5 <auIn>
      e0:	50 e0       	ldi	r21, 0x00	; 0
      e2:	b9 01       	movw	r22, r18
      e4:	6e 5e       	subi	r22, 0xEE	; 238
      e6:	7f 4f       	sbci	r23, 0xFF	; 255
      e8:	64 17       	cp	r22, r20
      ea:	75 07       	cpc	r23, r21
      ec:	2c f4       	brge	.+10     	; 0xf8 <chkVolt250+0x2e>
            break;
        }
        --avgVolt;
      ee:	81 50       	subi	r24, 0x01	; 1
      f0:	29 51       	subi	r18, 0x19	; 25
      f2:	31 09       	sbc	r19, r1

//Returns measured voltage * 4 (2V returns 8) if it is in the expected range (DELTA)
uint8_t chkVolt250(){
    uint8_t avgVolt = 9;
        
    for (uint8_t x=225; x>24; x-=25) {
      f4:	81 11       	cpse	r24, r1
      f6:	ec cf       	rjmp	.-40     	; 0xd0 <chkVolt250+0x6>
            break;
        }
        --avgVolt;
    }
    return avgVolt;
}
      f8:	08 95       	ret

000000fa <MakeFriends>:

// Main game loop
uint8_t MakeFriends(){
      fa:	cf 93       	push	r28
      fc:	df 93       	push	r29
    static uint8_t setDAC[2] = {255, 0};
    static uint8_t chkTmr = 0;
    static uint8_t jackIn = 0;
    static uint8_t candidate = 0;

    ++chkTmr;
      fe:	80 91 35 38 	lds	r24, 0x3835	; 0x803835 <chkTmr.3790>
     102:	8f 5f       	subi	r24, 0xFF	; 255
     104:	80 93 35 38 	sts	0x3835, r24	; 0x803835 <chkTmr.3790>
     108:	c4 e6       	ldi	r28, 0x64	; 100

    //Check if badge has found 3 friends
    uint8_t foundAll = 1;
     10a:	d1 e0       	ldi	r29, 0x01	; 1
    for (uint8_t x=0; x<4; ++x){
        if (CheckState(100+x) == 0) foundAll = 0;
     10c:	8c 2f       	mov	r24, r28
     10e:	0e 94 18 0a 	call	0x1430	; 0x1430 <CheckState>
     112:	81 11       	cpse	r24, r1
     114:	01 c0       	rjmp	.+2      	; 0x118 <MakeFriends+0x1e>
     116:	d0 e0       	ldi	r29, 0x00	; 0
     118:	cf 5f       	subi	r28, 0xFF	; 255

    ++chkTmr;

    //Check if badge has found 3 friends
    uint8_t foundAll = 1;
    for (uint8_t x=0; x<4; ++x){
     11a:	c8 36       	cpi	r28, 0x68	; 104
     11c:	b9 f7       	brne	.-18     	; 0x10c <MakeFriends+0x12>
        if (CheckState(100+x) == 0) foundAll = 0;
    }
    if (foundAll) UpdateState(124);
     11e:	dd 23       	and	r29, r29
     120:	19 f0       	breq	.+6      	; 0x128 <MakeFriends+0x2e>
     122:	8c e7       	ldi	r24, 0x7C	; 124
     124:	0e 94 f7 09 	call	0x13ee	; 0x13ee <UpdateState>

    //Set game state, must be able to hijack from other games.
    if (progress > FIRST_CONTACT) { 
     128:	80 91 34 38 	lds	r24, 0x3834	; 0x803834 <progress.3788>
     12c:	82 30       	cpi	r24, 0x02	; 2
     12e:	20 f0       	brcs	.+8      	; 0x138 <MakeFriends+0x3e>
        gameNow = FRIENDS; 
     130:	94 e0       	ldi	r25, 0x04	; 4
     132:	90 93 3e 38 	sts	0x383E, r25	; 0x80383e <gameNow>
     136:	0d c0       	rjmp	.+26     	; 0x152 <MakeFriends+0x58>
    }
    
    //Clear game state if not communicating properly or headphones detected
    if (((progress == NO_OTHER) || detHdPh) && (gameNow == FRIENDS)) {
     138:	81 11       	cpse	r24, r1
     13a:	0b c0       	rjmp	.+22     	; 0x152 <MakeFriends+0x58>
     13c:	90 91 3e 38 	lds	r25, 0x383E	; 0x80383e <gameNow>
     140:	94 30       	cpi	r25, 0x04	; 4
     142:	61 f4       	brne	.+24     	; 0x15c <MakeFriends+0x62>
        gameNow = TEXT; 
     144:	10 92 3e 38 	sts	0x383E, r1	; 0x80383e <gameNow>
        effect = 0;
     148:	10 92 3c 38 	sts	0x383C, r1	; 0x80383c <effect>
     14c:	10 92 3d 38 	sts	0x383D, r1	; 0x80383d <effect+0x1>
     150:	05 c0       	rjmp	.+10     	; 0x15c <MakeFriends+0x62>
    if (progress > FIRST_CONTACT) { 
        gameNow = FRIENDS; 
    }
    
    //Clear game state if not communicating properly or headphones detected
    if (((progress == NO_OTHER) || detHdPh) && (gameNow == FRIENDS)) {
     152:	90 91 c2 3a 	lds	r25, 0x3AC2	; 0x803ac2 <detHdPh>
     156:	91 11       	cpse	r25, r1
     158:	f1 cf       	rjmp	.-30     	; 0x13c <MakeFriends+0x42>
     15a:	18 c0       	rjmp	.+48     	; 0x18c <MakeFriends+0x92>
        gameNow = TEXT; 
        effect = 0;
    }

    //Audio off, set voltage level (setDAC[0]*10mV)
    if ((progress == NO_OTHER) && (detHdPh == 0)) {
     15c:	81 11       	cpse	r24, r1
     15e:	16 c0       	rjmp	.+44     	; 0x18c <MakeFriends+0x92>
     160:	90 91 c2 3a 	lds	r25, 0x3AC2	; 0x803ac2 <detHdPh>
     164:	91 11       	cpse	r25, r1
     166:	12 c0       	rjmp	.+36     	; 0x18c <MakeFriends+0x92>
        setDAC[0] = whoami * 51;
     168:	80 91 3f 38 	lds	r24, 0x383F	; 0x80383f <whoami>
     16c:	93 e3       	ldi	r25, 0x33	; 51
     16e:	89 9f       	mul	r24, r25
     170:	80 2d       	mov	r24, r0
     172:	11 24       	eor	r1, r1
     174:	80 93 00 38 	sts	0x3800, r24	; 0x803800 <__data_start>
        auRepAddr = &setDAC[0];
     178:	80 e0       	ldi	r24, 0x00	; 0
     17a:	98 e3       	ldi	r25, 0x38	; 56
     17c:	80 93 03 38 	sts	0x3803, r24	; 0x803803 <auRepAddr>
     180:	90 93 04 38 	sts	0x3804, r25	; 0x803804 <auRepAddr+0x1>
        auVolume = 255;
     184:	8f ef       	ldi	r24, 0xFF	; 255
     186:	80 93 b9 3a 	sts	0x3AB9, r24	; 0x803ab9 <auVolume>
     18a:	09 c0       	rjmp	.+18     	; 0x19e <MakeFriends+0xa4>
    } else {
        if (progress & NEXT){
     18c:	98 2f       	mov	r25, r24
     18e:	90 7f       	andi	r25, 0xF0	; 240
     190:	31 f0       	breq	.+12     	; 0x19e <MakeFriends+0xa4>
            progress++;
            progress&=0x0f;
     192:	8f 5f       	subi	r24, 0xFF	; 255
     194:	8f 70       	andi	r24, 0x0F	; 15
     196:	80 93 34 38 	sts	0x3834, r24	; 0x803834 <progress.3788>
            chkTmr = 0;
     19a:	10 92 35 38 	sts	0x3835, r1	; 0x803835 <chkTmr.3790>
        }
    }

    //Check for other badges ()
    if ((auIn < (setDAC[0] - DELTA)) || (auIn > (setDAC[0] + DELTA)) || (progress > FIRST_CONTACT)) {
     19e:	40 91 c5 3a 	lds	r20, 0x3AC5	; 0x803ac5 <auIn>
     1a2:	20 91 00 38 	lds	r18, 0x3800	; 0x803800 <__data_start>
     1a6:	30 e0       	ldi	r19, 0x00	; 0
     1a8:	50 e0       	ldi	r21, 0x00	; 0
     1aa:	b9 01       	movw	r22, r18
     1ac:	6a 50       	subi	r22, 0x0A	; 10
     1ae:	71 09       	sbc	r23, r1
     1b0:	80 91 34 38 	lds	r24, 0x3834	; 0x803834 <progress.3788>
     1b4:	46 17       	cp	r20, r22
     1b6:	57 07       	cpc	r21, r23
     1b8:	5c f0       	brlt	.+22     	; 0x1d0 <MakeFriends+0xd6>
     1ba:	40 91 c5 3a 	lds	r20, 0x3AC5	; 0x803ac5 <auIn>
     1be:	50 e0       	ldi	r21, 0x00	; 0
     1c0:	26 5f       	subi	r18, 0xF6	; 246
     1c2:	3f 4f       	sbci	r19, 0xFF	; 255
     1c4:	24 17       	cp	r18, r20
     1c6:	35 07       	cpc	r19, r21
     1c8:	1c f0       	brlt	.+6      	; 0x1d0 <MakeFriends+0xd6>
     1ca:	82 30       	cpi	r24, 0x02	; 2
     1cc:	08 f4       	brcc	.+2      	; 0x1d0 <MakeFriends+0xd6>
     1ce:	43 c0       	rjmp	.+134    	; 0x256 <MakeFriends+0x15c>
        if ((progress == NO_OTHER) && (detHdPh == 0)) {
     1d0:	81 11       	cpse	r24, r1
     1d2:	0b c0       	rjmp	.+22     	; 0x1ea <MakeFriends+0xf0>
     1d4:	80 91 c2 3a 	lds	r24, 0x3AC2	; 0x803ac2 <detHdPh>
     1d8:	81 11       	cpse	r24, r1
     1da:	90 c0       	rjmp	.+288    	; 0x2fc <MakeFriends+0x202>
            if (chkTmr >= 8) {
     1dc:	80 91 35 38 	lds	r24, 0x3835	; 0x803835 <chkTmr.3790>
     1e0:	88 30       	cpi	r24, 0x08	; 8
     1e2:	08 f4       	brcc	.+2      	; 0x1e6 <MakeFriends+0xec>
     1e4:	8b c0       	rjmp	.+278    	; 0x2fc <MakeFriends+0x202>
                progress |= NEXT;
     1e6:	80 ef       	ldi	r24, 0xF0	; 240
     1e8:	5e c0       	rjmp	.+188    	; 0x2a6 <MakeFriends+0x1ac>
            }
        }

        //Candidate found, check ranges
        else if (progress == FIRST_CONTACT) {
     1ea:	81 30       	cpi	r24, 0x01	; 1
     1ec:	41 f5       	brne	.+80     	; 0x23e <MakeFriends+0x144>
            jackIn = chkVolt250();
     1ee:	6d df       	rcall	.-294    	; 0xca <chkVolt250>
     1f0:	80 93 33 38 	sts	0x3833, r24	; 0x803833 <jackIn.3791>
            if (jackIn) {
     1f4:	88 23       	and	r24, r24
     1f6:	79 f1       	breq	.+94     	; 0x256 <MakeFriends+0x15c>
                if (chkTmr >= SHORT_WAIT){
     1f8:	90 91 35 38 	lds	r25, 0x3835	; 0x803835 <chkTmr.3790>
     1fc:	98 30       	cpi	r25, 0x08	; 8
     1fe:	08 f4       	brcc	.+2      	; 0x202 <MakeFriends+0x108>
     200:	7d c0       	rjmp	.+250    	; 0x2fc <MakeFriends+0x202>
                    if (   ((whoami == 1)&&((jackIn >= 3)&&(jackIn <= 5))) 
     202:	90 91 3f 38 	lds	r25, 0x383F	; 0x80383f <whoami>
     206:	91 30       	cpi	r25, 0x01	; 1
     208:	11 f4       	brne	.+4      	; 0x20e <MakeFriends+0x114>
     20a:	83 50       	subi	r24, 0x03	; 3
     20c:	14 c0       	rjmp	.+40     	; 0x236 <MakeFriends+0x13c>
                    || ((whoami == 2)&&((jackIn == 3)||(jackIn == 5)||(jackIn == 6)))  
     20e:	92 30       	cpi	r25, 0x02	; 2
     210:	31 f4       	brne	.+12     	; 0x21e <MakeFriends+0x124>
     212:	83 30       	cpi	r24, 0x03	; 3
     214:	91 f0       	breq	.+36     	; 0x23a <MakeFriends+0x140>
     216:	85 50       	subi	r24, 0x05	; 5
     218:	82 30       	cpi	r24, 0x02	; 2
     21a:	e8 f4       	brcc	.+58     	; 0x256 <MakeFriends+0x15c>
     21c:	0e c0       	rjmp	.+28     	; 0x23a <MakeFriends+0x140>
                    || ((whoami == 3)&&((jackIn == 4)||(jackIn == 5)||(jackIn == 7))) 
     21e:	93 30       	cpi	r25, 0x03	; 3
     220:	39 f4       	brne	.+14     	; 0x230 <MakeFriends+0x136>
     222:	9c ef       	ldi	r25, 0xFC	; 252
     224:	98 0f       	add	r25, r24
     226:	92 30       	cpi	r25, 0x02	; 2
     228:	40 f0       	brcs	.+16     	; 0x23a <MakeFriends+0x140>
     22a:	87 30       	cpi	r24, 0x07	; 7
     22c:	a1 f4       	brne	.+40     	; 0x256 <MakeFriends+0x15c>
     22e:	05 c0       	rjmp	.+10     	; 0x23a <MakeFriends+0x140>
                    || ((whoami == 4)&&((jackIn >= 5)&&(jackIn <= 7)))   ) {
     230:	94 30       	cpi	r25, 0x04	; 4
     232:	89 f4       	brne	.+34     	; 0x256 <MakeFriends+0x15c>
     234:	85 50       	subi	r24, 0x05	; 5
     236:	83 30       	cpi	r24, 0x03	; 3
     238:	70 f4       	brcc	.+28     	; 0x256 <MakeFriends+0x15c>
                        progress |= NEXT;
     23a:	81 ef       	ldi	r24, 0xF1	; 241
     23c:	34 c0       	rjmp	.+104    	; 0x2a6 <MakeFriends+0x1ac>
                progress = NO_OTHER;
            }
        }

        //Wait for the other badge (and a bit longer for effect)
        else if (progress == SECOND_LOVE){
     23e:	82 30       	cpi	r24, 0x02	; 2
     240:	69 f0       	breq	.+26     	; 0x25c <MakeFriends+0x162>
                progress |= NEXT;
            }
        } 
        
        //Wait a bit, check Voltage again, if ok show who you connected with and your own number, save, exit
        else if (progress == THIRD_KISS) {
     242:	83 30       	cpi	r24, 0x03	; 3
     244:	99 f1       	breq	.+102    	; 0x2ac <MakeFriends+0x1b2>
                    progress |= NEXT;
                } else progress = NO_OTHER;                
            }

        //Wait for quit
        } else if (progress == FOURTH_BASE) {
     246:	84 30       	cpi	r24, 0x04	; 4
     248:	09 f0       	breq	.+2      	; 0x24c <MakeFriends+0x152>
     24a:	58 c0       	rjmp	.+176    	; 0x2fc <MakeFriends+0x202>
            if (chkTmr >= (SHORT_WAIT<<3)) {
     24c:	80 91 35 38 	lds	r24, 0x3835	; 0x803835 <chkTmr.3790>
     250:	80 34       	cpi	r24, 0x40	; 64
     252:	08 f4       	brcc	.+2      	; 0x256 <MakeFriends+0x15c>
     254:	53 c0       	rjmp	.+166    	; 0x2fc <MakeFriends+0x202>
                    if (   ((whoami == 1)&&((jackIn >= 3)&&(jackIn <= 5))) 
                    || ((whoami == 2)&&((jackIn == 3)||(jackIn == 5)||(jackIn == 6)))  
                    || ((whoami == 3)&&((jackIn == 4)||(jackIn == 5)||(jackIn == 7))) 
                    || ((whoami == 4)&&((jackIn >= 5)&&(jackIn <= 7)))   ) {
                        progress |= NEXT;
                    } else progress = NO_OTHER;
     256:	10 92 34 38 	sts	0x3834, r1	; 0x803834 <progress.3788>
     25a:	50 c0       	rjmp	.+160    	; 0x2fc <MakeFriends+0x202>
        }

        //Wait for the other badge (and a bit longer for effect)
        else if (progress == SECOND_LOVE){
            
            effect = 7;
     25c:	87 e0       	ldi	r24, 0x07	; 7
     25e:	90 e0       	ldi	r25, 0x00	; 0
     260:	80 93 3c 38 	sts	0x383C, r24	; 0x80383c <effect>
     264:	90 93 3d 38 	sts	0x383D, r25	; 0x80383d <effect+0x1>
            if (chkTmr >= SHORT_WAIT) {
     268:	80 91 35 38 	lds	r24, 0x3835	; 0x803835 <chkTmr.3790>
     26c:	88 30       	cpi	r24, 0x08	; 8
     26e:	40 f0       	brcs	.+16     	; 0x280 <MakeFriends+0x186>
                setDAC[0] = floatAround(0x80, 8, 100, 255); 
     270:	2f ef       	ldi	r18, 0xFF	; 255
     272:	44 e6       	ldi	r20, 0x64	; 100
     274:	68 e0       	ldi	r22, 0x08	; 8
     276:	80 e8       	ldi	r24, 0x80	; 128
     278:	0e 94 3e 09 	call	0x127c	; 0x127c <floatAround>
     27c:	80 93 00 38 	sts	0x3800, r24	; 0x803800 <__data_start>
            }

            //The badge with the lowest voltage will now go to 2.5V (impedance check, for people tricking the things with a power supply)
            if (chkTmr >= LONG_WAIT){
     280:	80 91 35 38 	lds	r24, 0x3835	; 0x803835 <chkTmr.3790>
     284:	8a 3f       	cpi	r24, 0xFA	; 250
     286:	d0 f1       	brcs	.+116    	; 0x2fc <MakeFriends+0x202>
                candidate = jackIn-whoami;
     288:	90 91 3f 38 	lds	r25, 0x383F	; 0x80383f <whoami>
     28c:	80 91 33 38 	lds	r24, 0x3833	; 0x803833 <jackIn.3791>
     290:	89 1b       	sub	r24, r25
     292:	80 93 32 38 	sts	0x3832, r24	; 0x803832 <__data_end>
                if (candidate > whoami) {
     296:	98 17       	cp	r25, r24
     298:	18 f4       	brcc	.+6      	; 0x2a0 <MakeFriends+0x1a6>
                    setDAC[0] = 249;
     29a:	89 ef       	ldi	r24, 0xF9	; 249
     29c:	80 93 00 38 	sts	0x3800, r24	; 0x803800 <__data_start>
                }
                progress |= NEXT;
     2a0:	80 91 34 38 	lds	r24, 0x3834	; 0x803834 <progress.3788>
     2a4:	80 6f       	ori	r24, 0xF0	; 240
     2a6:	80 93 34 38 	sts	0x3834, r24	; 0x803834 <progress.3788>
     2aa:	28 c0       	rjmp	.+80     	; 0x2fc <MakeFriends+0x202>
            }
        } 
        
        //Wait a bit, check Voltage again, if ok show who you connected with and your own number, save, exit
        else if (progress == THIRD_KISS) {
            if (chkTmr >= SHORT_WAIT) {
     2ac:	80 91 35 38 	lds	r24, 0x3835	; 0x803835 <chkTmr.3790>
     2b0:	88 30       	cpi	r24, 0x08	; 8
                jackIn = chkVolt250();
     2b2:	20 f1       	brcs	.+72     	; 0x2fc <MakeFriends+0x202>
     2b4:	0a df       	rcall	.-492    	; 0xca <chkVolt250>
     2b6:	80 93 33 38 	sts	0x3833, r24	; 0x803833 <jackIn.3791>
                if (jackIn == (((candidate > whoami)?candidate:whoami) + 5)) {
     2ba:	90 91 32 38 	lds	r25, 0x3832	; 0x803832 <__data_end>
     2be:	48 2f       	mov	r20, r24
     2c0:	50 e0       	ldi	r21, 0x00	; 0
     2c2:	20 91 3f 38 	lds	r18, 0x383F	; 0x80383f <whoami>
     2c6:	29 17       	cp	r18, r25
     2c8:	08 f4       	brcc	.+2      	; 0x2cc <MakeFriends+0x1d2>
     2ca:	29 2f       	mov	r18, r25
     2cc:	30 e0       	ldi	r19, 0x00	; 0
     2ce:	2b 5f       	subi	r18, 0xFB	; 251
     2d0:	3f 4f       	sbci	r19, 0xFF	; 255
     2d2:	42 17       	cp	r20, r18
     2d4:	53 07       	cpc	r21, r19
     2d6:	09 f0       	breq	.+2      	; 0x2da <MakeFriends+0x1e0>
     2d8:	be cf       	rjmp	.-132    	; 0x256 <MakeFriends+0x15c>
                    UpdateState(99+candidate);
     2da:	83 e6       	ldi	r24, 0x63	; 99
     2dc:	89 0f       	add	r24, r25
     2de:	0e 94 f7 09 	call	0x13ee	; 0x13ee <UpdateState>
                 
                    effect = 31;
     2e2:	8f e1       	ldi	r24, 0x1F	; 31
     2e4:	90 e0       	ldi	r25, 0x00	; 0
     2e6:	80 93 3c 38 	sts	0x383C, r24	; 0x80383c <effect>
     2ea:	90 93 3d 38 	sts	0x383D, r25	; 0x80383d <effect+0x1>
                    WingBar(candidate, whoami);
     2ee:	60 91 3f 38 	lds	r22, 0x383F	; 0x80383f <whoami>
     2f2:	80 91 32 38 	lds	r24, 0x3832	; 0x803832 <__data_end>
     2f6:	0e 94 e7 0a 	call	0x15ce	; 0x15ce <WingBar>
     2fa:	d2 cf       	rjmp	.-92     	; 0x2a0 <MakeFriends+0x1a6>
    } else {
        progress = NO_OTHER;
    }
      
    return 0;
}
     2fc:	80 e0       	ldi	r24, 0x00	; 0
     2fe:	df 91       	pop	r29
     300:	cf 91       	pop	r28
     302:	08 95       	ret

00000304 <I2C_init>:
// the Atmel device documentation mentions a special command for repeated start TWI_MCMD_REPSTART_gc,
// but this is not used in Atmel's demo code, so we don't use it either

void I2C_rep_start(uint8_t shifted_addr)						    // send repeated start, device_addr + LSB set if READ
{
	TWI0.MADDR = shifted_addr;	
     304:	81 e0       	ldi	r24, 0x01	; 1
     306:	80 93 22 04 	sts	0x0422, r24	; 0x800422 <__TEXT_REGION_LENGTH__+0x700422>
     30a:	e6 e2       	ldi	r30, 0x26	; 38
     30c:	f4 e0       	ldi	r31, 0x04	; 4
     30e:	80 83       	st	Z, r24
     310:	10 92 30 04 	sts	0x0430, r1	; 0x800430 <__TEXT_REGION_LENGTH__+0x700430>
     314:	a1 e2       	ldi	r26, 0x21	; 33
     316:	b4 e0       	ldi	r27, 0x04	; 4
     318:	92 e0       	ldi	r25, 0x02	; 2
     31a:	9c 93       	st	X, r25
     31c:	90 83       	st	Z, r25
     31e:	10 92 31 04 	sts	0x0431, r1	; 0x800431 <__TEXT_REGION_LENGTH__+0x700431>
     322:	e0 e1       	ldi	r30, 0x10	; 16
     324:	f8 e0       	ldi	r31, 0x08	; 8
     326:	97 e0       	ldi	r25, 0x07	; 7
     328:	96 83       	std	Z+6, r25	; 0x06
     32a:	98 e0       	ldi	r25, 0x08	; 8
     32c:	94 83       	std	Z+4, r25	; 0x04
     32e:	83 83       	std	Z+3, r24	; 0x03
     330:	8c 93       	st	X, r24
     332:	85 81       	ldd	r24, Z+5	; 0x05
     334:	81 60       	ori	r24, 0x01	; 1
     336:	85 83       	std	Z+5, r24	; 0x05
     338:	85 81       	ldd	r24, Z+5	; 0x05
     33a:	84 6c       	ori	r24, 0xC4	; 196
     33c:	85 83       	std	Z+5, r24	; 0x05
     33e:	08 95       	ret

00000340 <I2C_recover>:
     340:	80 91 14 08 	lds	r24, 0x0814	; 0x800814 <__TEXT_REGION_LENGTH__+0x700814>
     344:	88 60       	ori	r24, 0x08	; 8
     346:	80 93 14 08 	sts	0x0814, r24	; 0x800814 <__TEXT_REGION_LENGTH__+0x700814>
     34a:	10 92 13 08 	sts	0x0813, r1	; 0x800813 <__TEXT_REGION_LENGTH__+0x700813>
     34e:	82 e0       	ldi	r24, 0x02	; 2
     350:	80 93 22 04 	sts	0x0422, r24	; 0x800422 <__TEXT_REGION_LENGTH__+0x700422>
     354:	99 e0       	ldi	r25, 0x09	; 9
     356:	21 e0       	ldi	r18, 0x01	; 1
     358:	81 e0       	ldi	r24, 0x01	; 1
     35a:	20 93 21 04 	sts	0x0421, r18	; 0x800421 <__TEXT_REGION_LENGTH__+0x700421>
     35e:	30 e1       	ldi	r19, 0x10	; 16
     360:	3a 95       	dec	r19
     362:	f1 f7       	brne	.-4      	; 0x360 <I2C_recover+0x20>
     364:	00 c0       	rjmp	.+0      	; 0x366 <I2C_recover+0x26>
     366:	20 93 22 04 	sts	0x0422, r18	; 0x800422 <__TEXT_REGION_LENGTH__+0x700422>
     36a:	30 e1       	ldi	r19, 0x10	; 16
     36c:	3a 95       	dec	r19
     36e:	f1 f7       	brne	.-4      	; 0x36c <I2C_recover+0x2c>
     370:	00 c0       	rjmp	.+0      	; 0x372 <I2C_recover+0x32>
     372:	91 50       	subi	r25, 0x01	; 1
     374:	89 f7       	brne	.-30     	; 0x358 <I2C_recover+0x18>
     376:	28 e0       	ldi	r18, 0x08	; 8
     378:	20 93 14 08 	sts	0x0814, r18	; 0x800814 <__TEXT_REGION_LENGTH__+0x700814>
     37c:	80 93 13 08 	sts	0x0813, r24	; 0x800813 <__TEXT_REGION_LENGTH__+0x700813>
     380:	92 e0       	ldi	r25, 0x02	; 2
     382:	90 93 21 04 	sts	0x0421, r25	; 0x800421 <__TEXT_REGION_LENGTH__+0x700421>
     386:	90 91 15 08 	lds	r25, 0x0815	; 0x800815 <__TEXT_REGION_LENGTH__+0x700815>
     38a:	91 60       	ori	r25, 0x01	; 1
     38c:	90 93 15 08 	sts	0x0815, r25	; 0x800815 <__TEXT_REGION_LENGTH__+0x700815>
     390:	90 91 15 08 	lds	r25, 0x0815	; 0x800815 <__TEXT_REGION_LENGTH__+0x700815>
     394:	94 6c       	ori	r25, 0xC4	; 196
     396:	90 93 15 08 	sts	0x0815, r25	; 0x800815 <__TEXT_REGION_LENGTH__+0x700815>
     39a:	20 93 14 08 	sts	0x0814, r18	; 0x800814 <__TEXT_REGION_LENGTH__+0x700814>
     39e:	80 93 13 08 	sts	0x0813, r24	; 0x800813 <__TEXT_REGION_LENGTH__+0x700813>
     3a2:	80 93 21 04 	sts	0x0421, r24	; 0x800421 <__TEXT_REGION_LENGTH__+0x700421>
     3a6:	80 91 15 08 	lds	r24, 0x0815	; 0x800815 <__TEXT_REGION_LENGTH__+0x700815>
     3aa:	81 60       	ori	r24, 0x01	; 1
     3ac:	80 93 15 08 	sts	0x0815, r24	; 0x800815 <__TEXT_REGION_LENGTH__+0x700815>
     3b0:	80 91 15 08 	lds	r24, 0x0815	; 0x800815 <__TEXT_REGION_LENGTH__+0x700815>
     3b4:	84 6c       	ori	r24, 0xC4	; 196
     3b6:	80 93 15 08 	sts	0x0815, r24	; 0x800815 <__TEXT_REGION_LENGTH__+0x700815>
     3ba:	08 95       	ret

000003bc <I2C_start>:
     3bc:	28 2f       	mov	r18, r24
     3be:	90 91 15 08 	lds	r25, 0x0815	; 0x800815 <__TEXT_REGION_LENGTH__+0x700815>
     3c2:	90 6c       	ori	r25, 0xC0	; 192
     3c4:	90 93 15 08 	sts	0x0815, r25	; 0x800815 <__TEXT_REGION_LENGTH__+0x700815>
     3c8:	90 91 15 08 	lds	r25, 0x0815	; 0x800815 <__TEXT_REGION_LENGTH__+0x700815>
     3cc:	89 2f       	mov	r24, r25
     3ce:	84 70       	andi	r24, 0x04	; 4
     3d0:	92 fd       	sbrc	r25, 2
     3d2:	03 c0       	rjmp	.+6      	; 0x3da <I2C_start+0x1e>
     3d4:	20 93 17 08 	sts	0x0817, r18	; 0x800817 <__TEXT_REGION_LENGTH__+0x700817>
     3d8:	08 95       	ret
     3da:	84 e0       	ldi	r24, 0x04	; 4
     3dc:	08 95       	ret

000003de <I2C_wait_ACK>:
     3de:	8c e0       	ldi	r24, 0x0C	; 12
     3e0:	80 93 63 3a 	sts	0x3A63, r24	; 0x803a63 <timeout_I2C>
     3e4:	80 91 15 08 	lds	r24, 0x0815	; 0x800815 <__TEXT_REGION_LENGTH__+0x700815>
     3e8:	87 fd       	sbrc	r24, 7
     3ea:	0a c0       	rjmp	.+20     	; 0x400 <__LOCK_REGION_LENGTH__>
     3ec:	80 91 15 08 	lds	r24, 0x0815	; 0x800815 <__TEXT_REGION_LENGTH__+0x700815>
     3f0:	86 fd       	sbrc	r24, 6
     3f2:	06 c0       	rjmp	.+12     	; 0x400 <__LOCK_REGION_LENGTH__>
     3f4:	80 91 63 3a 	lds	r24, 0x3A63	; 0x803a63 <timeout_I2C>
     3f8:	81 11       	cpse	r24, r1
     3fa:	f4 cf       	rjmp	.-24     	; 0x3e4 <I2C_wait_ACK+0x6>
     3fc:	8f ef       	ldi	r24, 0xFF	; 255
     3fe:	08 95       	ret
     400:	80 91 15 08 	lds	r24, 0x0815	; 0x800815 <__TEXT_REGION_LENGTH__+0x700815>
     404:	80 6c       	ori	r24, 0xC0	; 192
     406:	80 93 15 08 	sts	0x0815, r24	; 0x800815 <__TEXT_REGION_LENGTH__+0x700815>
     40a:	80 91 15 08 	lds	r24, 0x0815	; 0x800815 <__TEXT_REGION_LENGTH__+0x700815>
     40e:	82 fd       	sbrc	r24, 2
     410:	09 c0       	rjmp	.+18     	; 0x424 <__LOCK_REGION_LENGTH__+0x24>
     412:	80 91 15 08 	lds	r24, 0x0815	; 0x800815 <__TEXT_REGION_LENGTH__+0x700815>
     416:	83 fd       	sbrc	r24, 3
     418:	07 c0       	rjmp	.+14     	; 0x428 <__LOCK_REGION_LENGTH__+0x28>
     41a:	80 91 15 08 	lds	r24, 0x0815	; 0x800815 <__TEXT_REGION_LENGTH__+0x700815>
     41e:	82 95       	swap	r24
     420:	81 70       	andi	r24, 0x01	; 1
     422:	08 95       	ret
     424:	84 e0       	ldi	r24, 0x04	; 4
     426:	08 95       	ret
     428:	82 e0       	ldi	r24, 0x02	; 2
     42a:	08 95       	ret

0000042c <I2C_read>:
}

uint8_t	I2C_read(uint8_t *data, uint8_t ack_flag)					// read data, ack_flag 0: send ACK, 1: send NACK, returns status
{
     42c:	fc 01       	movw	r30, r24
	timeout_I2C = READ_TIMEOUT;										// reset timeout counter, will be decremented by LED matrix interrupt
     42e:	8c e0       	ldi	r24, 0x0C	; 12
     430:	80 93 63 3a 	sts	0x3A63, r24	; 0x803a63 <timeout_I2C>
	if ((TWI0.MSTATUS & TWI_BUSSTATE_gm) == TWI_BUSSTATE_OWNER_gc)	// if master controls bus
     434:	90 91 15 08 	lds	r25, 0x0815	; 0x800815 <__TEXT_REGION_LENGTH__+0x700815>
     438:	89 2f       	mov	r24, r25
     43a:	83 70       	andi	r24, 0x03	; 3
     43c:	82 30       	cpi	r24, 0x02	; 2
     43e:	11 f0       	breq	.+4      	; 0x444 <I2C_read+0x18>
		else		TWI0.MCTRLB |= TWI_ACKACT_NACK_gc;				// setup NACK (last byte read)
		*data = TWI0.MDATA;
		if (ack_flag == 0) TWI0.MCTRLB |= TWI_MCMD_RECVTRANS_gc;	// send ACK, more bytes to follow					
		return 0;
	}
	else return 8;													// master does not control bus
     440:	88 e0       	ldi	r24, 0x08	; 8
     442:	08 95       	ret
uint8_t	I2C_read(uint8_t *data, uint8_t ack_flag)					// read data, ack_flag 0: send ACK, 1: send NACK, returns status
{
	timeout_I2C = READ_TIMEOUT;										// reset timeout counter, will be decremented by LED matrix interrupt
	if ((TWI0.MSTATUS & TWI_BUSSTATE_gm) == TWI_BUSSTATE_OWNER_gc)	// if master controls bus
	{		
		while (!(TWI0.MSTATUS & TWI_RIF_bm))						// wait for RIF set (data byte received)
     444:	90 91 15 08 	lds	r25, 0x0815	; 0x800815 <__TEXT_REGION_LENGTH__+0x700815>
     448:	97 fd       	sbrc	r25, 7
     44a:	06 c0       	rjmp	.+12     	; 0x458 <I2C_read+0x2c>
		{
			if (!(timeout_I2C)) return 0xff;			            // return timeout error
     44c:	90 91 63 3a 	lds	r25, 0x3A63	; 0x803a63 <timeout_I2C>
     450:	91 11       	cpse	r25, r1
     452:	f8 cf       	rjmp	.-16     	; 0x444 <I2C_read+0x18>
     454:	8f ef       	ldi	r24, 0xFF	; 255
     456:	08 95       	ret
		}
		TWI0.MSTATUS |= (TWI_RIF_bm | TWI_WIF_bm);					// clear Read and Write interrupt flags	
     458:	90 91 15 08 	lds	r25, 0x0815	; 0x800815 <__TEXT_REGION_LENGTH__+0x700815>
     45c:	90 6c       	ori	r25, 0xC0	; 192
     45e:	90 93 15 08 	sts	0x0815, r25	; 0x800815 <__TEXT_REGION_LENGTH__+0x700815>
		if (TWI0.MSTATUS & TWI_BUSERR_bm) return 4;					// Bus Error, abort
     462:	90 91 15 08 	lds	r25, 0x0815	; 0x800815 <__TEXT_REGION_LENGTH__+0x700815>
     466:	92 fd       	sbrc	r25, 2
     468:	1e c0       	rjmp	.+60     	; 0x4a6 <I2C_read+0x7a>
		if (TWI0.MSTATUS & TWI_ARBLOST_bm) return 2;				// Arbitration Lost, abort
     46a:	90 91 15 08 	lds	r25, 0x0815	; 0x800815 <__TEXT_REGION_LENGTH__+0x700815>
     46e:	93 fd       	sbrc	r25, 3
     470:	1d c0       	rjmp	.+58     	; 0x4ac <I2C_read+0x80>
		if (TWI0.MSTATUS & TWI_RXACK_bm) return 1;					// Slave replied with NACK, abort				
     472:	90 91 15 08 	lds	r25, 0x0815	; 0x800815 <__TEXT_REGION_LENGTH__+0x700815>
     476:	89 2f       	mov	r24, r25
     478:	80 71       	andi	r24, 0x10	; 16
     47a:	94 fd       	sbrc	r25, 4
     47c:	16 c0       	rjmp	.+44     	; 0x4aa <I2C_read+0x7e>
		if (ack_flag == 0) TWI0.MCTRLB &= ~(1 << TWI_ACKACT_bp);	// setup ACK
     47e:	90 91 14 08 	lds	r25, 0x0814	; 0x800814 <__TEXT_REGION_LENGTH__+0x700814>
     482:	61 11       	cpse	r22, r1
     484:	02 c0       	rjmp	.+4      	; 0x48a <I2C_read+0x5e>
     486:	9b 7f       	andi	r25, 0xFB	; 251
     488:	01 c0       	rjmp	.+2      	; 0x48c <I2C_read+0x60>
		else		TWI0.MCTRLB |= TWI_ACKACT_NACK_gc;				// setup NACK (last byte read)
     48a:	94 60       	ori	r25, 0x04	; 4
     48c:	90 93 14 08 	sts	0x0814, r25	; 0x800814 <__TEXT_REGION_LENGTH__+0x700814>
		*data = TWI0.MDATA;
     490:	90 91 18 08 	lds	r25, 0x0818	; 0x800818 <__TEXT_REGION_LENGTH__+0x700818>
     494:	90 83       	st	Z, r25
		if (ack_flag == 0) TWI0.MCTRLB |= TWI_MCMD_RECVTRANS_gc;	// send ACK, more bytes to follow					
     496:	61 11       	cpse	r22, r1
     498:	09 c0       	rjmp	.+18     	; 0x4ac <I2C_read+0x80>
     49a:	90 91 14 08 	lds	r25, 0x0814	; 0x800814 <__TEXT_REGION_LENGTH__+0x700814>
     49e:	92 60       	ori	r25, 0x02	; 2
     4a0:	90 93 14 08 	sts	0x0814, r25	; 0x800814 <__TEXT_REGION_LENGTH__+0x700814>
     4a4:	08 95       	ret
		while (!(TWI0.MSTATUS & TWI_RIF_bm))						// wait for RIF set (data byte received)
		{
			if (!(timeout_I2C)) return 0xff;			            // return timeout error
		}
		TWI0.MSTATUS |= (TWI_RIF_bm | TWI_WIF_bm);					// clear Read and Write interrupt flags	
		if (TWI0.MSTATUS & TWI_BUSERR_bm) return 4;					// Bus Error, abort
     4a6:	84 e0       	ldi	r24, 0x04	; 4
     4a8:	08 95       	ret
		if (TWI0.MSTATUS & TWI_ARBLOST_bm) return 2;				// Arbitration Lost, abort
		if (TWI0.MSTATUS & TWI_RXACK_bm) return 1;					// Slave replied with NACK, abort				
     4aa:	81 e0       	ldi	r24, 0x01	; 1
		*data = TWI0.MDATA;
		if (ack_flag == 0) TWI0.MCTRLB |= TWI_MCMD_RECVTRANS_gc;	// send ACK, more bytes to follow					
		return 0;
	}
	else return 8;													// master does not control bus
}
     4ac:	08 95       	ret

000004ae <I2C_write>:

uint8_t I2C_write(uint8_t *data)									// write data, return status
{
     4ae:	fc 01       	movw	r30, r24
	timeout_I2C = WRITE_TIMEOUT;									// reset timeout counter, will be decremented by LED matrix interrupt
     4b0:	8c e0       	ldi	r24, 0x0C	; 12
     4b2:	80 93 63 3a 	sts	0x3A63, r24	; 0x803a63 <timeout_I2C>
	if ((TWI0.MSTATUS & TWI_BUSSTATE_gm) == TWI_BUSSTATE_OWNER_gc)	// if master controls bus
     4b6:	90 91 15 08 	lds	r25, 0x0815	; 0x800815 <__TEXT_REGION_LENGTH__+0x700815>
     4ba:	93 70       	andi	r25, 0x03	; 3
     4bc:	92 30       	cpi	r25, 0x02	; 2
     4be:	b1 f4       	brne	.+44     	; 0x4ec <I2C_write+0x3e>
	{
		TWI0.MDATA = *data;		
     4c0:	80 81       	ld	r24, Z
     4c2:	80 93 18 08 	sts	0x0818, r24	; 0x800818 <__TEXT_REGION_LENGTH__+0x700818>
		while (!(TWI0.MSTATUS & TWI_WIF_bm))						// wait until WIF set, status register contains ACK/NACK bit
     4c6:	80 91 15 08 	lds	r24, 0x0815	; 0x800815 <__TEXT_REGION_LENGTH__+0x700815>
     4ca:	86 fd       	sbrc	r24, 6
     4cc:	06 c0       	rjmp	.+12     	; 0x4da <I2C_write+0x2c>
		{
			if (!(timeout_I2C)) return 0xff;			            // return timeout error
     4ce:	80 91 63 3a 	lds	r24, 0x3A63	; 0x803a63 <timeout_I2C>
     4d2:	81 11       	cpse	r24, r1
     4d4:	f8 cf       	rjmp	.-16     	; 0x4c6 <I2C_write+0x18>
     4d6:	8f ef       	ldi	r24, 0xFF	; 255
     4d8:	08 95       	ret
		}
		if (TWI0.MSTATUS & TWI_BUSERR_bm) return 4;					// Bus Error, abort
     4da:	80 91 15 08 	lds	r24, 0x0815	; 0x800815 <__TEXT_REGION_LENGTH__+0x700815>
     4de:	82 fd       	sbrc	r24, 2
     4e0:	07 c0       	rjmp	.+14     	; 0x4f0 <I2C_write+0x42>
		if (TWI0.MSTATUS & TWI_RXACK_bm) return 1;					// Slave replied with NACK, abort
     4e2:	80 91 15 08 	lds	r24, 0x0815	; 0x800815 <__TEXT_REGION_LENGTH__+0x700815>
	if ((TWI0.MSTATUS & TWI_BUSSTATE_gm) == TWI_BUSSTATE_OWNER_gc)	// if master controls bus
	{
		TWI0.MDATA = *data;		
		while (!(TWI0.MSTATUS & TWI_WIF_bm))						// wait until WIF set, status register contains ACK/NACK bit
		{
			if (!(timeout_I2C)) return 0xff;			            // return timeout error
     4e6:	82 95       	swap	r24
     4e8:	81 70       	andi	r24, 0x01	; 1
     4ea:	08 95       	ret
		}
		if (TWI0.MSTATUS & TWI_BUSERR_bm) return 4;					// Bus Error, abort
		if (TWI0.MSTATUS & TWI_RXACK_bm) return 1;					// Slave replied with NACK, abort
		return 0;													// no error	
	}
	else return 8;													// master does not control bus
     4ec:	88 e0       	ldi	r24, 0x08	; 8
     4ee:	08 95       	ret
		TWI0.MDATA = *data;		
		while (!(TWI0.MSTATUS & TWI_WIF_bm))						// wait until WIF set, status register contains ACK/NACK bit
		{
			if (!(timeout_I2C)) return 0xff;			            // return timeout error
		}
		if (TWI0.MSTATUS & TWI_BUSERR_bm) return 4;					// Bus Error, abort
     4f0:	84 e0       	ldi	r24, 0x04	; 4
		if (TWI0.MSTATUS & TWI_RXACK_bm) return 1;					// Slave replied with NACK, abort
		return 0;													// no error	
	}
	else return 8;													// master does not control bus
}
     4f2:	08 95       	ret

000004f4 <I2C_stop>:

void I2C_stop()
{
	TWI0.MCTRLB |= TWI_MCMD_STOP_gc;
     4f4:	e0 e1       	ldi	r30, 0x10	; 16
     4f6:	f8 e0       	ldi	r31, 0x08	; 8
     4f8:	84 81       	ldd	r24, Z+4	; 0x04
     4fa:	83 60       	ori	r24, 0x03	; 3
     4fc:	84 83       	std	Z+4, r24	; 0x04
     4fe:	08 95       	ret

00000500 <I2C_read_bytes>:
// addr_ptr		address of first array element to transfer
// slave reg	starting slave register
// num_bytes	number of bytes to transfer

uint8_t	I2C_read_bytes(uint8_t slave_addr, uint8_t *reg_ptr, uint8_t reg_len, uint8_t *dat_ptr, uint8_t dat_len)
{
     500:	cf 92       	push	r12
     502:	df 92       	push	r13
     504:	ff 92       	push	r15
     506:	0f 93       	push	r16
     508:	1f 93       	push	r17
     50a:	cf 93       	push	r28
     50c:	df 93       	push	r29
     50e:	6b 01       	movw	r12, r22
     510:	f4 2e       	mov	r15, r20
     512:	e9 01       	movw	r28, r18
	uint8_t status;
	if (dat_len > MAX_LEN) dat_len = MAX_LEN;
	status = I2C_start(slave_addr << 1);							// slave write address, LSB 0
     514:	18 2f       	mov	r17, r24
     516:	11 0f       	add	r17, r17
     518:	81 2f       	mov	r24, r17
     51a:	50 df       	rcall	.-352    	; 0x3bc <I2C_start>
	if (status != 0) goto error;
     51c:	81 11       	cpse	r24, r1
	status = I2C_wait_ACK();										// wait for slave ACK
     51e:	2b c0       	rjmp	.+86     	; 0x576 <I2C_read_bytes+0x76>
     520:	5e df       	rcall	.-324    	; 0x3de <I2C_wait_ACK>
	if (status == 1) {
     522:	81 30       	cpi	r24, 0x01	; 1
		I2C_stop();													// NACK, abort
     524:	19 f4       	brne	.+6      	; 0x52c <I2C_read_bytes+0x2c>
     526:	e6 df       	rcall	.-52     	; 0x4f4 <I2C_stop>
		return 1;
     528:	81 e0       	ldi	r24, 0x01	; 1
     52a:	27 c0       	rjmp	.+78     	; 0x57a <I2C_read_bytes+0x7a>
	}
	if (status != 0) goto error;
     52c:	81 11       	cpse	r24, r1
     52e:	23 c0       	rjmp	.+70     	; 0x576 <I2C_read_bytes+0x76>
    while(reg_len > 0){
     530:	ff 20       	and	r15, r15
	    status = I2C_write(reg_ptr);    							// send slave start register
     532:	49 f0       	breq	.+18     	; 0x546 <I2C_read_bytes+0x46>
     534:	c6 01       	movw	r24, r12
     536:	bb df       	rcall	.-138    	; 0x4ae <I2C_write>
	    if (status != 0) goto error;
     538:	81 11       	cpse	r24, r1
     53a:	1d c0       	rjmp	.+58     	; 0x576 <I2C_read_bytes+0x76>
        ++reg_ptr;
     53c:	8f ef       	ldi	r24, 0xFF	; 255
     53e:	c8 1a       	sub	r12, r24
     540:	d8 0a       	sbc	r13, r24
        --reg_len;
     542:	fa 94       	dec	r15
     544:	f5 cf       	rjmp	.-22     	; 0x530 <I2C_read_bytes+0x30>
     546:	01 34       	cpi	r16, 0x41	; 65
     548:	08 f0       	brcs	.+2      	; 0x54c <I2C_read_bytes+0x4c>
     54a:	00 e4       	ldi	r16, 0x40	; 64
    }
	I2C_rep_start((slave_addr << 1) + 1);							// slave read address, LSB 1
     54c:	1f 5f       	subi	r17, 0xFF	; 255
// the Atmel device documentation mentions a special command for repeated start TWI_MCMD_REPSTART_gc,
// but this is not used in Atmel's demo code, so we don't use it either

void I2C_rep_start(uint8_t shifted_addr)						    // send repeated start, device_addr + LSB set if READ
{
	TWI0.MADDR = shifted_addr;	
     54e:	10 93 17 08 	sts	0x0817, r17	; 0x800817 <__TEXT_REGION_LENGTH__+0x700817>
	    if (status != 0) goto error;
        ++reg_ptr;
        --reg_len;
    }
	I2C_rep_start((slave_addr << 1) + 1);							// slave read address, LSB 1
	while (dat_len > 1) {
     552:	02 30       	cpi	r16, 0x02	; 2
		status = I2C_read(dat_ptr, 0);								// first bytes, send ACK
     554:	40 f0       	brcs	.+16     	; 0x566 <I2C_read_bytes+0x66>
     556:	60 e0       	ldi	r22, 0x00	; 0
     558:	ce 01       	movw	r24, r28
     55a:	68 df       	rcall	.-304    	; 0x42c <I2C_read>
		if (status != 0) goto error;
     55c:	81 11       	cpse	r24, r1
     55e:	0b c0       	rjmp	.+22     	; 0x576 <I2C_read_bytes+0x76>
		++dat_ptr;
		--dat_len;
     560:	21 96       	adiw	r28, 0x01	; 1
     562:	01 50       	subi	r16, 0x01	; 1
	}
	status = I2C_read(dat_ptr, 1);									// single or last byte, send NACK
     564:	f6 cf       	rjmp	.-20     	; 0x552 <I2C_read_bytes+0x52>
     566:	61 e0       	ldi	r22, 0x01	; 1
     568:	ce 01       	movw	r24, r28
	if (status != 0) goto error;
     56a:	60 df       	rcall	.-320    	; 0x42c <I2C_read>
     56c:	81 11       	cpse	r24, r1
	I2C_stop();
     56e:	03 c0       	rjmp	.+6      	; 0x576 <I2C_read_bytes+0x76>
     570:	c1 df       	rcall	.-126    	; 0x4f4 <I2C_stop>
	return 0;
     572:	80 e0       	ldi	r24, 0x00	; 0
     574:	02 c0       	rjmp	.+4      	; 0x57a <I2C_read_bytes+0x7a>
	
error:
	I2C_recover();													// clock out possibly stuck slave, reset master
     576:	e4 de       	rcall	.-568    	; 0x340 <I2C_recover>
     578:	8f ef       	ldi	r24, 0xFF	; 255
	return 0xff;													// flag error
     57a:	df 91       	pop	r29
}
     57c:	cf 91       	pop	r28
     57e:	1f 91       	pop	r17
     580:	0f 91       	pop	r16
     582:	ff 90       	pop	r15
     584:	df 90       	pop	r13
     586:	cf 90       	pop	r12
     588:	08 95       	ret

0000058a <initLanyard>:
uint8_t         lanyardCnt = 0;
uint8_t         lanyardState = TRUE;
uint16_t        lanyardLastActive = 0;

void initLanyard() {
    lanyardPos      = 0;
     58a:	10 92 39 38 	sts	0x3839, r1	; 0x803839 <lanyardPos>
    lanyardCnt      = 0;
     58e:	10 92 38 38 	sts	0x3838, r1	; 0x803838 <lanyardCnt>
    lanyardState    = TRUE;
     592:	81 e0       	ldi	r24, 0x01	; 1
     594:	80 93 02 38 	sts	0x3802, r24	; 0x803802 <lanyardState>
    ClearHackerLeds();
     598:	0c 94 25 0b 	jmp	0x164a	; 0x164a <ClearHackerLeds>

0000059c <LanyardCode>:
}

// Main game loop
uint8_t LanyardCode(){
     59c:	cf 93       	push	r28
    if (gameNow == LANYARD && idleTimeout(lanyardLastActive,LANYARD_MAX_IDLE)) {
     59e:	80 91 3e 38 	lds	r24, 0x383E	; 0x80383e <gameNow>
     5a2:	83 30       	cpi	r24, 0x03	; 3
     5a4:	91 f4       	brne	.+36     	; 0x5ca <LanyardCode+0x2e>
     5a6:	6a e0       	ldi	r22, 0x0A	; 10
     5a8:	70 e0       	ldi	r23, 0x00	; 0
     5aa:	80 91 36 38 	lds	r24, 0x3836	; 0x803836 <lanyardLastActive>
     5ae:	90 91 37 38 	lds	r25, 0x3837	; 0x803837 <lanyardLastActive+0x1>
     5b2:	0e 94 3d 0e 	call	0x1c7a	; 0x1c7a <idleTimeout>
     5b6:	88 23       	and	r24, r24
     5b8:	41 f0       	breq	.+16     	; 0x5ca <LanyardCode+0x2e>
        /* clean up maze game and go back to text game */
        initLanyard();
     5ba:	e7 df       	rcall	.-50     	; 0x58a <initLanyard>
        gameNow = TEXT;
     5bc:	10 92 3e 38 	sts	0x383E, r1	; 0x80383e <gameNow>
        effect = 0;
     5c0:	10 92 3c 38 	sts	0x383C, r1	; 0x80383c <effect>
     5c4:	10 92 3d 38 	sts	0x383D, r1	; 0x80383d <effect+0x1>
        return 0;
     5c8:	9b c0       	rjmp	.+310    	; 0x700 <LanyardCode+0x164>
    }

    if (CheckState(LANYARD_COMPLETED))
     5ca:	8b e7       	ldi	r24, 0x7B	; 123
     5cc:	31 d7       	rcall	.+3682   	; 0x1430 <CheckState>
     5ce:	81 11       	cpse	r24, r1
     5d0:	97 c0       	rjmp	.+302    	; 0x700 <LanyardCode+0x164>
        return 0;

    if ( gameNow != TEXT && gameNow != LANYARD )
     5d2:	80 91 3e 38 	lds	r24, 0x383E	; 0x80383e <gameNow>
     5d6:	88 23       	and	r24, r24
     5d8:	19 f0       	breq	.+6      	; 0x5e0 <LanyardCode+0x44>
     5da:	83 30       	cpi	r24, 0x03	; 3
     5dc:	09 f0       	breq	.+2      	; 0x5e0 <LanyardCode+0x44>
     5de:	90 c0       	rjmp	.+288    	; 0x700 <LanyardCode+0x164>
        return 0;

    /* activate led for buttonstate */
    iLED[CAT] = (buttonState==0xff ? 0 : dimValue);
     5e0:	c0 91 3a bf 	lds	r28, 0xBF3A	; 0x80bf3a <__bss_end+0x8425>
     5e4:	ec 2f       	mov	r30, r28
     5e6:	f0 e0       	ldi	r31, 0x00	; 0
     5e8:	80 91 08 38 	lds	r24, 0x3808	; 0x803808 <buttonState>
     5ec:	8f 3f       	cpi	r24, 0xFF	; 255
     5ee:	19 f0       	breq	.+6      	; 0x5f6 <LanyardCode+0x5a>
     5f0:	90 91 0c 38 	lds	r25, 0x380C	; 0x80380c <dimValue>
     5f4:	01 c0       	rjmp	.+2      	; 0x5f8 <LanyardCode+0x5c>
     5f6:	90 e0       	ldi	r25, 0x00	; 0
     5f8:	ea 53       	subi	r30, 0x3A	; 58
     5fa:	f5 4c       	sbci	r31, 0xC5	; 197
     5fc:	90 83       	st	Z, r25

    if (buttonState == 0xff)
     5fe:	8f 3f       	cpi	r24, 0xFF	; 255
     600:	09 f4       	brne	.+2      	; 0x604 <LanyardCode+0x68>
     602:	7e c0       	rjmp	.+252    	; 0x700 <LanyardCode+0x164>
        return 0;

    if (buttonState == lastButtonState)
     604:	90 91 07 38 	lds	r25, 0x3807	; 0x803807 <lastButtonState>
     608:	89 17       	cp	r24, r25
     60a:	09 f4       	brne	.+2      	; 0x60e <LanyardCode+0x72>
     60c:	79 c0       	rjmp	.+242    	; 0x700 <LanyardCode+0x164>
        return 0;

    lanyardLastActive = getClock();
     60e:	0e 94 2e 0e 	call	0x1c5c	; 0x1c5c <getClock>
     612:	80 93 36 38 	sts	0x3836, r24	; 0x803836 <lanyardLastActive>
     616:	90 93 37 38 	sts	0x3837, r25	; 0x803837 <lanyardLastActive+0x1>

    if (lastButtonState == 0xff){
     61a:	80 91 07 38 	lds	r24, 0x3807	; 0x803807 <lastButtonState>
     61e:	8f 3f       	cpi	r24, 0xFF	; 255
     620:	09 f0       	breq	.+2      	; 0x624 <LanyardCode+0x88>
     622:	6e c0       	rjmp	.+220    	; 0x700 <LanyardCode+0x164>
        effect = 0x13f + (buttonState << 5);
     624:	80 91 08 38 	lds	r24, 0x3808	; 0x803808 <buttonState>
     628:	20 e2       	ldi	r18, 0x20	; 32
     62a:	82 9f       	mul	r24, r18
     62c:	c0 01       	movw	r24, r0
     62e:	11 24       	eor	r1, r1
     630:	81 5c       	subi	r24, 0xC1	; 193
     632:	9e 4f       	sbci	r25, 0xFE	; 254
     634:	80 93 3c 38 	sts	0x383C, r24	; 0x80383c <effect>
     638:	90 93 3d 38 	sts	0x383D, r25	; 0x80383d <effect+0x1>

        if (gameNow != LANYARD)
     63c:	80 91 3e 38 	lds	r24, 0x383E	; 0x80383e <gameNow>
     640:	83 30       	cpi	r24, 0x03	; 3
            initLanyard();
     642:	09 f0       	breq	.+2      	; 0x646 <LanyardCode+0xaa>
     644:	a2 df       	rcall	.-188    	; 0x58a <initLanyard>
        gameNow = LANYARD;
     646:	83 e0       	ldi	r24, 0x03	; 3
     648:	80 93 3e 38 	sts	0x383E, r24	; 0x80383e <gameNow>

        if (buttonState == lanyardCode[lanyardPos]) {
     64c:	80 91 39 38 	lds	r24, 0x3839	; 0x803839 <lanyardPos>
     650:	e8 2f       	mov	r30, r24
     652:	f0 e0       	ldi	r31, 0x00	; 0
     654:	ee 5d       	subi	r30, 0xDE	; 222
     656:	f0 44       	sbci	r31, 0x40	; 64
     658:	20 81       	ld	r18, Z
     65a:	90 91 08 38 	lds	r25, 0x3808	; 0x803808 <buttonState>
     65e:	29 13       	cpse	r18, r25
     660:	12 c0       	rjmp	.+36     	; 0x686 <LanyardCode+0xea>
            lanyardState &= TRUE;
     662:	90 91 02 38 	lds	r25, 0x3802	; 0x803802 <lanyardState>
     666:	91 70       	andi	r25, 0x01	; 1
     668:	90 93 02 38 	sts	0x3802, r25	; 0x803802 <lanyardState>
            iLED[EYE[R][L]] = 0;
     66c:	e0 91 49 bf 	lds	r30, 0xBF49	; 0x80bf49 <__bss_end+0x8434>
     670:	f0 e0       	ldi	r31, 0x00	; 0
     672:	ea 53       	subi	r30, 0x3A	; 58
     674:	f5 4c       	sbci	r31, 0xC5	; 197
     676:	10 82       	st	Z, r1
            iLED[EYE[R][R]] = 0;
     678:	e0 91 48 bf 	lds	r30, 0xBF48	; 0x80bf48 <__bss_end+0x8433>
     67c:	f0 e0       	ldi	r31, 0x00	; 0
     67e:	ea 53       	subi	r30, 0x3A	; 58
     680:	f5 4c       	sbci	r31, 0xC5	; 197
     682:	10 82       	st	Z, r1
     684:	09 c0       	rjmp	.+18     	; 0x698 <LanyardCode+0xfc>
        } else {
            lanyardState = FALSE;
     686:	10 92 02 38 	sts	0x3802, r1	; 0x803802 <lanyardState>
            if (lanyardPos < 4 ) {
     68a:	84 30       	cpi	r24, 0x04	; 4
                initLanyard();
     68c:	28 f4       	brcc	.+10     	; 0x698 <LanyardCode+0xfc>
     68e:	7d df       	rcall	.-262    	; 0x58a <initLanyard>
                gameNow         = BASTET;
     690:	82 e0       	ldi	r24, 0x02	; 2
     692:	80 93 3e 38 	sts	0x383E, r24	; 0x80383e <gameNow>
                return 0;
     696:	34 c0       	rjmp	.+104    	; 0x700 <LanyardCode+0x164>
            }
        }
        lanyardPos++;
     698:	8f 5f       	subi	r24, 0xFF	; 255
     69a:	80 93 39 38 	sts	0x3839, r24	; 0x803839 <lanyardPos>
        lanyardCnt++;            
     69e:	90 91 38 38 	lds	r25, 0x3838	; 0x803838 <lanyardCnt>
     6a2:	9f 5f       	subi	r25, 0xFF	; 255
        if (lanyardCnt >= 4) {
     6a4:	94 30       	cpi	r25, 0x04	; 4
     6a6:	18 f4       	brcc	.+6      	; 0x6ae <LanyardCode+0x112>
                gameNow         = BASTET;
                return 0;
            }
        }
        lanyardPos++;
        lanyardCnt++;            
     6a8:	90 93 38 38 	sts	0x3838, r25	; 0x803838 <lanyardCnt>
     6ac:	29 c0       	rjmp	.+82     	; 0x700 <LanyardCode+0x164>
        if (lanyardCnt >= 4) {
            lanyardCnt = 0;
     6ae:	10 92 38 38 	sts	0x3838, r1	; 0x803838 <lanyardCnt>
            if (lanyardState == TRUE) {
     6b2:	90 91 02 38 	lds	r25, 0x3802	; 0x803802 <lanyardState>
     6b6:	91 30       	cpi	r25, 0x01	; 1
     6b8:	e1 f4       	brne	.+56     	; 0x6f2 <LanyardCode+0x156>
                if ((lanyardPos % 4) == 0) {
     6ba:	98 2f       	mov	r25, r24
     6bc:	93 70       	andi	r25, 0x03	; 3
     6be:	69 f4       	brne	.+26     	; 0x6da <LanyardCode+0x13e>
                    iLED[HCKR[G][(lanyardPos>>2)-1]] = dimValue;
     6c0:	e8 2f       	mov	r30, r24
     6c2:	e6 95       	lsr	r30
     6c4:	e6 95       	lsr	r30
     6c6:	f0 e0       	ldi	r31, 0x00	; 0
     6c8:	e4 5b       	subi	r30, 0xB4	; 180
     6ca:	f0 44       	sbci	r31, 0x40	; 64
     6cc:	e5 81       	ldd	r30, Z+5	; 0x05
     6ce:	f0 e0       	ldi	r31, 0x00	; 0
     6d0:	90 91 0c 38 	lds	r25, 0x380C	; 0x80380c <dimValue>
     6d4:	ea 53       	subi	r30, 0x3A	; 58
     6d6:	f5 4c       	sbci	r31, 0xC5	; 197
                }
                if (lanyardPos == sizeof(lanyardCode)) {
     6d8:	90 83       	st	Z, r25
     6da:	88 31       	cpi	r24, 0x18	; 24
                    UpdateState(LANYARD_COMPLETED);
     6dc:	89 f4       	brne	.+34     	; 0x700 <LanyardCode+0x164>
     6de:	8b e7       	ldi	r24, 0x7B	; 123
     6e0:	86 d6       	rcall	.+3340   	; 0x13ee <UpdateState>
                    iLED[CAT]       = 0;
     6e2:	ec 2f       	mov	r30, r28
     6e4:	f0 e0       	ldi	r31, 0x00	; 0
     6e6:	ea 53       	subi	r30, 0x3A	; 58
     6e8:	f5 4c       	sbci	r31, 0xC5	; 197
                    effect = 0x42;
     6ea:	10 82       	st	Z, r1
     6ec:	82 e4       	ldi	r24, 0x42	; 66
     6ee:	90 e0       	ldi	r25, 0x00	; 0
                    /*TODO state = STATE_MUSIC;*/
                }
            } else {
                initLanyard();
     6f0:	03 c0       	rjmp	.+6      	; 0x6f8 <LanyardCode+0x15c>
     6f2:	4b df       	rcall	.-362    	; 0x58a <initLanyard>
                effect = 0x21;
     6f4:	81 e2       	ldi	r24, 0x21	; 33
     6f6:	90 e0       	ldi	r25, 0x00	; 0
     6f8:	80 93 3c 38 	sts	0x383C, r24	; 0x80383c <effect>
     6fc:	90 93 3d 38 	sts	0x383D, r25	; 0x80383d <effect+0x1>
            }
        }
    }

    return 0;
}
     700:	80 e0       	ldi	r24, 0x00	; 0
     702:	cf 91       	pop	r28
     704:	08 95       	ret

00000706 <initMaze>:
uint8_t         mazeState = TRUE;
uint8_t         inverted  = FALSE;
uint16_t        mazeLastActive = 0;

void initMaze() {
    mazeHckrPos = 0;
     706:	10 92 4b 38 	sts	0x384B, r1	; 0x80384b <mazeHckrPos>
    mazePos = 0;
     70a:	10 92 4c 38 	sts	0x384C, r1	; 0x80384c <mazePos>
    mazeCnt = 0;
     70e:	10 92 4a 38 	sts	0x384A, r1	; 0x80384a <mazeCnt>
    mazeState = TRUE;
     712:	81 e0       	ldi	r24, 0x01	; 1
     714:	80 93 0d 38 	sts	0x380D, r24	; 0x80380d <mazeState>
    inverted  = FALSE;
     718:	10 92 49 38 	sts	0x3849, r1	; 0x803849 <inverted>
    ClearHackerLeds();
     71c:	96 c7       	rjmp	.+3884   	; 0x164a <ClearHackerLeds>

0000071e <showFieldStrength>:
}

void showFieldStrength(int16_t val) {
    int16_t tmp;

    tmp = abs(val);
     71e:	97 ff       	sbrs	r25, 7
     720:	03 c0       	rjmp	.+6      	; 0x728 <showFieldStrength+0xa>
     722:	91 95       	neg	r25
     724:	81 95       	neg	r24
     726:	91 09       	sbc	r25, r1

    if ( tmp*2 > HALL_LOW )
     728:	9c 01       	movw	r18, r24
     72a:	22 0f       	add	r18, r18
     72c:	33 1f       	adc	r19, r19
     72e:	29 37       	cpi	r18, 0x79	; 121
     730:	31 05       	cpc	r19, r1
     732:	1c f0       	brlt	.+6      	; 0x73a <showFieldStrength+0x1c>
        gameNow = MAZE;
     734:	41 e0       	ldi	r20, 0x01	; 1
     736:	40 93 3e 38 	sts	0x383E, r20	; 0x80383e <gameNow>

    if (gameNow == MAZE) {
     73a:	40 91 3e 38 	lds	r20, 0x383E	; 0x80383e <gameNow>
     73e:	41 30       	cpi	r20, 0x01	; 1
     740:	21 f5       	brne	.+72     	; 0x78a <showFieldStrength+0x6c>
        if ( tmp*2 < HALL_LOW )
     742:	28 37       	cpi	r18, 0x78	; 120
     744:	31 05       	cpc	r19, r1
     746:	1c f4       	brge	.+6      	; 0x74e <showFieldStrength+0x30>
            WingBar(0,0);
     748:	60 e0       	ldi	r22, 0x00	; 0
     74a:	80 e0       	ldi	r24, 0x00	; 0
     74c:	1d c0       	rjmp	.+58     	; 0x788 <showFieldStrength+0x6a>
        else if ( tmp   < HALL_LOW )
     74e:	88 37       	cpi	r24, 0x78	; 120
     750:	91 05       	cpc	r25, r1
     752:	1c f4       	brge	.+6      	; 0x75a <showFieldStrength+0x3c>
            WingBar(1,1);
     754:	61 e0       	ldi	r22, 0x01	; 1
     756:	81 e0       	ldi	r24, 0x01	; 1
     758:	17 c0       	rjmp	.+46     	; 0x788 <showFieldStrength+0x6a>
        else if ( tmp*2 < HALL_HIGH )
     75a:	2c 32       	cpi	r18, 0x2C	; 44
     75c:	41 e0       	ldi	r20, 0x01	; 1
     75e:	34 07       	cpc	r19, r20
     760:	1c f4       	brge	.+6      	; 0x768 <showFieldStrength+0x4a>
            WingBar(2,2);
     762:	62 e0       	ldi	r22, 0x02	; 2
     764:	82 e0       	ldi	r24, 0x02	; 2
     766:	10 c0       	rjmp	.+32     	; 0x788 <showFieldStrength+0x6a>
        else if ( tmp*3 < HALL_HIGH*2 )
     768:	28 0f       	add	r18, r24
     76a:	39 1f       	adc	r19, r25
     76c:	28 35       	cpi	r18, 0x58	; 88
     76e:	32 40       	sbci	r19, 0x02	; 2
     770:	1c f4       	brge	.+6      	; 0x778 <showFieldStrength+0x5a>
            WingBar(3,3);
     772:	63 e0       	ldi	r22, 0x03	; 3
     774:	83 e0       	ldi	r24, 0x03	; 3
     776:	08 c0       	rjmp	.+16     	; 0x788 <showFieldStrength+0x6a>
        else if ( tmp   < HALL_HIGH )
     778:	8c 32       	cpi	r24, 0x2C	; 44
     77a:	91 40       	sbci	r25, 0x01	; 1
     77c:	1c f4       	brge	.+6      	; 0x784 <showFieldStrength+0x66>
            WingBar(4,4);
     77e:	64 e0       	ldi	r22, 0x04	; 4
     780:	84 e0       	ldi	r24, 0x04	; 4
     782:	02 c0       	rjmp	.+4      	; 0x788 <showFieldStrength+0x6a>
        else
            WingBar(5,5);
     784:	65 e0       	ldi	r22, 0x05	; 5
     786:	85 e0       	ldi	r24, 0x05	; 5
     788:	22 c7       	rjmp	.+3652   	; 0x15ce <WingBar>
     78a:	08 95       	ret

0000078c <MagnetMaze>:
    }
}

// Main game loop
uint8_t MagnetMaze(){
     78c:	cf 93       	push	r28
     78e:	df 93       	push	r29
    if (gameNow == MAZE && idleTimeout(mazeLastActive,MAZE_MAX_IDLE)) {
     790:	80 91 3e 38 	lds	r24, 0x383E	; 0x80383e <gameNow>
     794:	81 30       	cpi	r24, 0x01	; 1
     796:	71 f4       	brne	.+28     	; 0x7b4 <MagnetMaze+0x28>
     798:	6a e0       	ldi	r22, 0x0A	; 10
     79a:	70 e0       	ldi	r23, 0x00	; 0
     79c:	80 91 47 38 	lds	r24, 0x3847	; 0x803847 <mazeLastActive>
     7a0:	90 91 48 38 	lds	r25, 0x3848	; 0x803848 <mazeLastActive+0x1>
     7a4:	0e 94 3d 0e 	call	0x1c7a	; 0x1c7a <idleTimeout>
     7a8:	88 23       	and	r24, r24
     7aa:	21 f0       	breq	.+8      	; 0x7b4 <MagnetMaze+0x28>
        /* clean up maze game and go back to text game */
        initMaze();
     7ac:	ac df       	rcall	.-168    	; 0x706 <initMaze>
        gameNow = TEXT;
     7ae:	10 92 3e 38 	sts	0x383E, r1	; 0x80383e <gameNow>
        return 0;
     7b2:	e5 c0       	rjmp	.+458    	; 0x97e <MagnetMaze+0x1f2>
    }
        
    if (CheckState(MAZE_INACTIVE))
     7b4:	87 ef       	ldi	r24, 0xF7	; 247
     7b6:	3c d6       	rcall	.+3192   	; 0x1430 <CheckState>
     7b8:	81 11       	cpse	r24, r1
     7ba:	e1 c0       	rjmp	.+450    	; 0x97e <MagnetMaze+0x1f2>
        return 0;

    if (CheckState(MAZE_COMPLETED))
     7bc:	8d e7       	ldi	r24, 0x7D	; 125
     7be:	38 d6       	rcall	.+3184   	; 0x1430 <CheckState>
     7c0:	81 11       	cpse	r24, r1
     7c2:	dd c0       	rjmp	.+442    	; 0x97e <MagnetMaze+0x1f2>
     7c4:	80 91 3e 38 	lds	r24, 0x383E	; 0x80383e <gameNow>
        return 0;

    if ( (gameNow != TEXT) && (gameNow != MAZE) )
     7c8:	82 30       	cpi	r24, 0x02	; 2
     7ca:	08 f0       	brcs	.+2      	; 0x7ce <MagnetMaze+0x42>
     7cc:	d8 c0       	rjmp	.+432    	; 0x97e <MagnetMaze+0x1f2>
     7ce:	80 91 ee 3a 	lds	r24, 0x3AEE	; 0x803aee <calHall>
        return 0;

    if (calHall == 0)
     7d2:	90 91 ef 3a 	lds	r25, 0x3AEF	; 0x803aef <calHall+0x1>
     7d6:	89 2b       	or	r24, r25
     7d8:	41 f4       	brne	.+16     	; 0x7ea <MagnetMaze+0x5e>
     7da:	80 91 be 3a 	lds	r24, 0x3ABE	; 0x803abe <adcHall>
        calHall = adcHall;
     7de:	90 91 bf 3a 	lds	r25, 0x3ABF	; 0x803abf <adcHall+0x1>
     7e2:	80 93 ee 3a 	sts	0x3AEE, r24	; 0x803aee <calHall>
     7e6:	90 93 ef 3a 	sts	0x3AEF, r25	; 0x803aef <calHall+0x1>
     7ea:	c0 91 be 3a 	lds	r28, 0x3ABE	; 0x803abe <adcHall>

    int16_t valHall = adcHall - calHall;
     7ee:	d0 91 bf 3a 	lds	r29, 0x3ABF	; 0x803abf <adcHall+0x1>
     7f2:	80 91 ee 3a 	lds	r24, 0x3AEE	; 0x803aee <calHall>
     7f6:	90 91 ef 3a 	lds	r25, 0x3AEF	; 0x803aef <calHall+0x1>
     7fa:	c8 1b       	sub	r28, r24
     7fc:	d9 0b       	sbc	r29, r25
    showFieldStrength(valHall);
     7fe:	ce 01       	movw	r24, r28
     800:	8e df       	rcall	.-228    	; 0x71e <showFieldStrength>
     802:	80 91 4e 38 	lds	r24, 0x384E	; 0x80384e <curHallState>

    switch (curHallState) {
     806:	81 30       	cpi	r24, 0x01	; 1
     808:	89 f0       	breq	.+34     	; 0x82c <MagnetMaze+0xa0>
     80a:	18 f0       	brcs	.+6      	; 0x812 <MagnetMaze+0x86>
     80c:	82 30       	cpi	r24, 0x02	; 2
     80e:	c1 f0       	breq	.+48     	; 0x840 <MagnetMaze+0xb4>
     810:	1f c0       	rjmp	.+62     	; 0x850 <MagnetMaze+0xc4>
     812:	c4 3d       	cpi	r28, 0xD4	; 212
        case 0:
            if ( valHall + HALL_HIGH < 0 ) {
     814:	9e ef       	ldi	r25, 0xFE	; 254
     816:	d9 07       	cpc	r29, r25
     818:	14 f4       	brge	.+4      	; 0x81e <MagnetMaze+0x92>
     81a:	91 e0       	ldi	r25, 0x01	; 1
                newHallState = 1;
     81c:	04 c0       	rjmp	.+8      	; 0x826 <MagnetMaze+0x9a>
     81e:	cd 32       	cpi	r28, 0x2D	; 45
            } else if ( valHall - HALL_HIGH > 0 ) {
     820:	d1 40       	sbci	r29, 0x01	; 1
     822:	5c f0       	brlt	.+22     	; 0x83a <MagnetMaze+0xae>
     824:	92 e0       	ldi	r25, 0x02	; 2
                newHallState = 2;
     826:	90 93 4d 38 	sts	0x384D, r25	; 0x80384d <newHallState>
     82a:	12 c0       	rjmp	.+36     	; 0x850 <MagnetMaze+0xc4>
     82c:	cd 32       	cpi	r28, 0x2D	; 45
                newHallState = 0;
            }
            break;
        
        case 1:
            if ( valHall - HALL_HIGH > 0 ) {
     82e:	91 e0       	ldi	r25, 0x01	; 1
     830:	d9 07       	cpc	r29, r25
     832:	c4 f7       	brge	.-16     	; 0x824 <MagnetMaze+0x98>
     834:	c9 38       	cpi	r28, 0x89	; 137
                newHallState = 2;
            } else if ( valHall + HALL_LOW > 0 ) {
     836:	df 4f       	sbci	r29, 0xFF	; 255
     838:	84 f3       	brlt	.-32     	; 0x81a <MagnetMaze+0x8e>
     83a:	10 92 4d 38 	sts	0x384D, r1	; 0x80384d <newHallState>
            if ( valHall + HALL_HIGH < 0 ) {
                newHallState = 1;
            } else if ( valHall - HALL_HIGH > 0 ) {
                newHallState = 2;
            } else {
                newHallState = 0;
     83e:	08 c0       	rjmp	.+16     	; 0x850 <MagnetMaze+0xc4>
     840:	c4 3d       	cpi	r28, 0xD4	; 212
                newHallState = 1;
            }
            break;
        
        case 2:
            if ( valHall + HALL_HIGH < 0 ) {
     842:	9e ef       	ldi	r25, 0xFE	; 254
     844:	d9 07       	cpc	r29, r25
     846:	4c f3       	brlt	.-46     	; 0x81a <MagnetMaze+0x8e>
     848:	c8 37       	cpi	r28, 0x78	; 120
                newHallState = 1;
            } else if ( valHall - HALL_LOW < 0 ) {
     84a:	d1 05       	cpc	r29, r1
     84c:	b4 f3       	brlt	.-20     	; 0x83a <MagnetMaze+0xae>
     84e:	ea cf       	rjmp	.-44     	; 0x824 <MagnetMaze+0x98>
     850:	c0 91 3a bf 	lds	r28, 0xBF3A	; 0x80bf3a <__bss_end+0x8425>
            }
            break;
    }

    /* Indicate that the magnet was read succesfully */
    iLED[CAT] = (newHallState ? dimValue : 0);
     854:	ec 2f       	mov	r30, r28
     856:	f0 e0       	ldi	r31, 0x00	; 0
     858:	90 91 4d 38 	lds	r25, 0x384D	; 0x80384d <newHallState>
     85c:	99 23       	and	r25, r25
     85e:	19 f0       	breq	.+6      	; 0x866 <MagnetMaze+0xda>
     860:	20 91 0c 38 	lds	r18, 0x380C	; 0x80380c <dimValue>
     864:	01 c0       	rjmp	.+2      	; 0x868 <MagnetMaze+0xdc>
     866:	20 e0       	ldi	r18, 0x00	; 0
     868:	ea 53       	subi	r30, 0x3A	; 58
     86a:	f5 4c       	sbci	r31, 0xC5	; 197
     86c:	20 83       	st	Z, r18
     86e:	2f e9       	ldi	r18, 0x9F	; 159
    effect = 0x19f;
     870:	31 e0       	ldi	r19, 0x01	; 1
     872:	20 93 3c 38 	sts	0x383C, r18	; 0x80383c <effect>
     876:	30 93 3d 38 	sts	0x383D, r19	; 0x80383d <effect+0x1>
     87a:	89 17       	cp	r24, r25

    if (newHallState != curHallState) {
     87c:	09 f4       	brne	.+2      	; 0x880 <MagnetMaze+0xf4>
     87e:	7f c0       	rjmp	.+254    	; 0x97e <MagnetMaze+0x1f2>
     880:	0e 94 2e 0e 	call	0x1c5c	; 0x1c5c <getClock>
        /* keep track of time to enable an idle timeout to exit the game */
        mazeLastActive = getClock();
     884:	80 93 47 38 	sts	0x3847, r24	; 0x803847 <mazeLastActive>
     888:	90 93 48 38 	sts	0x3848, r25	; 0x803848 <mazeLastActive+0x1>
     88c:	90 91 4c 38 	lds	r25, 0x384C	; 0x80384c <mazePos>

        /* Make the maze work regardless of badge orientation */
        if ((mazePos == 0) && (newHallState != 0))
     890:	80 91 4d 38 	lds	r24, 0x384D	; 0x80384d <newHallState>
     894:	91 11       	cpse	r25, r1
     896:	08 c0       	rjmp	.+16     	; 0x8a8 <MagnetMaze+0x11c>
     898:	88 23       	and	r24, r24
     89a:	31 f0       	breq	.+12     	; 0x8a8 <MagnetMaze+0x11c>
     89c:	91 e0       	ldi	r25, 0x01	; 1
            inverted = (newHallState != mazeCode[0]) ? TRUE : FALSE;
     89e:	81 30       	cpi	r24, 0x01	; 1
     8a0:	09 f4       	brne	.+2      	; 0x8a4 <MagnetMaze+0x118>
     8a2:	90 e0       	ldi	r25, 0x00	; 0
     8a4:	90 93 49 38 	sts	0x3849, r25	; 0x803849 <inverted>
     8a8:	80 93 4e 38 	sts	0x384E, r24	; 0x80384e <curHallState>

        curHallState = newHallState;
     8ac:	88 23       	and	r24, r24
        
        if (curHallState != 0) {
     8ae:	09 f4       	brne	.+2      	; 0x8b2 <MagnetMaze+0x126>
     8b0:	66 c0       	rjmp	.+204    	; 0x97e <MagnetMaze+0x1f2>
     8b2:	80 91 3e 38 	lds	r24, 0x383E	; 0x80383e <gameNow>
            if (gameNow == TEXT)
     8b6:	81 11       	cpse	r24, r1
     8b8:	01 c0       	rjmp	.+2      	; 0x8bc <MagnetMaze+0x130>
                initMaze();
     8ba:	25 df       	rcall	.-438    	; 0x706 <initMaze>
     8bc:	81 e0       	ldi	r24, 0x01	; 1
            gameNow = MAZE;
     8be:	80 93 3e 38 	sts	0x383E, r24	; 0x80383e <gameNow>
     8c2:	80 91 49 38 	lds	r24, 0x3849	; 0x803849 <inverted>

            if ( (inverted ? curHallState^3 : curHallState) == mazeCode[mazePos]) {
     8c6:	20 91 4e 38 	lds	r18, 0x384E	; 0x80384e <curHallState>
     8ca:	88 23       	and	r24, r24
     8cc:	11 f0       	breq	.+4      	; 0x8d2 <MagnetMaze+0x146>
     8ce:	83 e0       	ldi	r24, 0x03	; 3
     8d0:	28 27       	eor	r18, r24
     8d2:	30 e0       	ldi	r19, 0x00	; 0
     8d4:	80 91 4c 38 	lds	r24, 0x384C	; 0x80384c <mazePos>
     8d8:	e8 2f       	mov	r30, r24
     8da:	f0 e0       	ldi	r31, 0x00	; 0
     8dc:	e8 57       	subi	r30, 0x78	; 120
     8de:	f0 44       	sbci	r31, 0x40	; 64
     8e0:	40 81       	ld	r20, Z
     8e2:	50 e0       	ldi	r21, 0x00	; 0
     8e4:	24 17       	cp	r18, r20
     8e6:	35 07       	cpc	r19, r21
     8e8:	91 f4       	brne	.+36     	; 0x90e <MagnetMaze+0x182>
     8ea:	90 91 0d 38 	lds	r25, 0x380D	; 0x80380d <mazeState>
                mazeState &= TRUE;
     8ee:	91 70       	andi	r25, 0x01	; 1
     8f0:	90 93 0d 38 	sts	0x380D, r25	; 0x80380d <mazeState>
     8f4:	e0 91 49 bf 	lds	r30, 0xBF49	; 0x80bf49 <__bss_end+0x8434>
                iLED[EYE[R][L]] = 0;
     8f8:	f0 e0       	ldi	r31, 0x00	; 0
     8fa:	ea 53       	subi	r30, 0x3A	; 58
     8fc:	f5 4c       	sbci	r31, 0xC5	; 197
     8fe:	10 82       	st	Z, r1
     900:	e0 91 48 bf 	lds	r30, 0xBF48	; 0x80bf48 <__bss_end+0x8433>
                iLED[EYE[R][R]] = 0;
     904:	f0 e0       	ldi	r31, 0x00	; 0
     906:	ea 53       	subi	r30, 0x3A	; 58
     908:	f5 4c       	sbci	r31, 0xC5	; 197
     90a:	10 82       	st	Z, r1
     90c:	02 c0       	rjmp	.+4      	; 0x912 <MagnetMaze+0x186>
     90e:	10 92 0d 38 	sts	0x380D, r1	; 0x80380d <mazeState>
            } else {
                mazeState = FALSE;
     912:	8f 5f       	subi	r24, 0xFF	; 255
            }
            mazePos++;
     914:	80 93 4c 38 	sts	0x384C, r24	; 0x80384c <mazePos>
     918:	90 91 4a 38 	lds	r25, 0x384A	; 0x80384a <mazeCnt>
            mazeCnt++;            
     91c:	9f 5f       	subi	r25, 0xFF	; 255
     91e:	93 30       	cpi	r25, 0x03	; 3
            if (mazeCnt >= 3) {
     920:	18 f4       	brcc	.+6      	; 0x928 <MagnetMaze+0x19c>
     922:	90 93 4a 38 	sts	0x384A, r25	; 0x80384a <mazeCnt>
                iLED[EYE[R][R]] = 0;
            } else {
                mazeState = FALSE;
            }
            mazePos++;
            mazeCnt++;            
     926:	2b c0       	rjmp	.+86     	; 0x97e <MagnetMaze+0x1f2>
     928:	10 92 4a 38 	sts	0x384A, r1	; 0x80384a <mazeCnt>
            if (mazeCnt >= 3) {
                mazeCnt = 0;
     92c:	90 91 0d 38 	lds	r25, 0x380D	; 0x80380d <mazeState>
                if (mazeState == TRUE) {
     930:	91 30       	cpi	r25, 0x01	; 1
     932:	e1 f4       	brne	.+56     	; 0x96c <MagnetMaze+0x1e0>
     934:	90 91 4b 38 	lds	r25, 0x384B	; 0x80384b <mazeHckrPos>
                    iLED[HCKR[G][mazeHckrPos]] = dimValue;
     938:	e9 2f       	mov	r30, r25
     93a:	f0 e0       	ldi	r31, 0x00	; 0
     93c:	e4 5b       	subi	r30, 0xB4	; 180
     93e:	f0 44       	sbci	r31, 0x40	; 64
     940:	e6 81       	ldd	r30, Z+6	; 0x06
     942:	f0 e0       	ldi	r31, 0x00	; 0
     944:	20 91 0c 38 	lds	r18, 0x380C	; 0x80380c <dimValue>
     948:	ea 53       	subi	r30, 0x3A	; 58
     94a:	f5 4c       	sbci	r31, 0xC5	; 197
     94c:	20 83       	st	Z, r18
     94e:	9f 5f       	subi	r25, 0xFF	; 255
                    mazeHckrPos++;
     950:	90 93 4b 38 	sts	0x384B, r25	; 0x80384b <mazeHckrPos>
                    if (mazePos == sizeof(mazeCode)) {
     954:	82 31       	cpi	r24, 0x12	; 18
     956:	99 f4       	brne	.+38     	; 0x97e <MagnetMaze+0x1f2>
                        UpdateState(MAZE_COMPLETED);
     958:	8d e7       	ldi	r24, 0x7D	; 125
     95a:	49 d5       	rcall	.+2706   	; 0x13ee <UpdateState>
     95c:	ec 2f       	mov	r30, r28
                        iLED[CAT]       = 0;
     95e:	f0 e0       	ldi	r31, 0x00	; 0
     960:	ea 53       	subi	r30, 0x3A	; 58
     962:	f5 4c       	sbci	r31, 0xC5	; 197
     964:	10 82       	st	Z, r1
                        effect = 0x42;
     966:	82 e4       	ldi	r24, 0x42	; 66
     968:	90 e0       	ldi	r25, 0x00	; 0
     96a:	05 c0       	rjmp	.+10     	; 0x976 <MagnetMaze+0x1ea>
                        /*TODO state = STATE_MUSIC;*/
                    }
                } else {
                    initMaze();
     96c:	cc de       	rcall	.-616    	; 0x706 <initMaze>
     96e:	10 92 3e 38 	sts	0x383E, r1	; 0x80383e <gameNow>
                    gameNow   = TEXT;
     972:	81 e2       	ldi	r24, 0x21	; 33
                    effect = 0x21;
     974:	90 e0       	ldi	r25, 0x00	; 0
     976:	80 93 3c 38 	sts	0x383C, r24	; 0x80383c <effect>
     97a:	90 93 3d 38 	sts	0x383D, r25	; 0x80383d <effect+0x1>
     97e:	80 e0       	ldi	r24, 0x00	; 0
                }
            }
        }
    }
    return 0;
}
     980:	df 91       	pop	r29
     982:	cf 91       	pop	r28
     984:	08 95       	ret

00000986 <Setup>:
     986:	cf 93       	push	r28
volatile uint16_t tmp16bit;    
volatile uint8_t mask[8] = {0x01, 0x03, 0x07, 0x0f, 0x1f, 0x3f, 0x7f, 0xff};
uint8_t HeartCount = 0;
uint8_t LedCount = 0;

void Setup(){
     988:	df 93       	push	r29
    cli();
     98a:	f8 94       	cli

    //Set up clock at 10MHz
    CCP = CCP_IOREG_gc;
     98c:	88 ed       	ldi	r24, 0xD8	; 216
     98e:	84 bf       	out	0x34, r24	; 52
    CLKCTRL_MCLKCTRLB = 0x01;
     990:	c1 e0       	ldi	r28, 0x01	; 1
     992:	c0 93 61 00 	sts	0x0061, r28	; 0x800061 <__TEXT_REGION_LENGTH__+0x700061>

    //Set I/O direction registers
    PORTA_DIR = 0b01001010;
     996:	8a e4       	ldi	r24, 0x4A	; 74
     998:	80 93 00 04 	sts	0x0400, r24	; 0x800400 <__TEXT_REGION_LENGTH__+0x700400>
    PORTB_DIR = 0b01111100;
     99c:	8c e7       	ldi	r24, 0x7C	; 124
     99e:	80 93 20 04 	sts	0x0420, r24	; 0x800420 <__TEXT_REGION_LENGTH__+0x700420>
    PORTC_DIR = 0b00111111;
     9a2:	9f e3       	ldi	r25, 0x3F	; 63
     9a4:	90 93 40 04 	sts	0x0440, r25	; 0x800440 <__TEXT_REGION_LENGTH__+0x700440>

    //Invert some pins for correcting LED reversal error
    PORTC_PIN3CTRL |= 0x80;
     9a8:	80 91 53 04 	lds	r24, 0x0453	; 0x800453 <__TEXT_REGION_LENGTH__+0x700453>
     9ac:	80 68       	ori	r24, 0x80	; 128
     9ae:	80 93 53 04 	sts	0x0453, r24	; 0x800453 <__TEXT_REGION_LENGTH__+0x700453>
    PORTC_PIN4CTRL |= 0x80;
     9b2:	80 91 54 04 	lds	r24, 0x0454	; 0x800454 <__TEXT_REGION_LENGTH__+0x700454>
     9b6:	80 68       	ori	r24, 0x80	; 128
     9b8:	80 93 54 04 	sts	0x0454, r24	; 0x800454 <__TEXT_REGION_LENGTH__+0x700454>
    PORTC_PIN5CTRL |= 0x80;
     9bc:	80 91 55 04 	lds	r24, 0x0455	; 0x800455 <__TEXT_REGION_LENGTH__+0x700455>
     9c0:	80 68       	ori	r24, 0x80	; 128
     9c2:	80 93 55 04 	sts	0x0455, r24	; 0x800455 <__TEXT_REGION_LENGTH__+0x700455>
    PORTB_PIN3CTRL |= 0x80;
     9c6:	80 91 33 04 	lds	r24, 0x0433	; 0x800433 <__TEXT_REGION_LENGTH__+0x700433>
     9ca:	80 68       	ori	r24, 0x80	; 128
     9cc:	80 93 33 04 	sts	0x0433, r24	; 0x800433 <__TEXT_REGION_LENGTH__+0x700433>
    PORTB_PIN4CTRL |= 0x80;
     9d0:	80 91 34 04 	lds	r24, 0x0434	; 0x800434 <__TEXT_REGION_LENGTH__+0x700434>
     9d4:	80 68       	ori	r24, 0x80	; 128
     9d6:	80 93 34 04 	sts	0x0434, r24	; 0x800434 <__TEXT_REGION_LENGTH__+0x700434>
    PORTB_PIN5CTRL |= 0x80;
     9da:	80 91 35 04 	lds	r24, 0x0435	; 0x800435 <__TEXT_REGION_LENGTH__+0x700435>
     9de:	80 68       	ori	r24, 0x80	; 128
     9e0:	80 93 35 04 	sts	0x0435, r24	; 0x800435 <__TEXT_REGION_LENGTH__+0x700435>
    PORTB_PIN2CTRL |= 0x80;
    PORTB_PIN6CTRL |= 0x80;
    */

    //UART (Alternative pins PA1=TxD, PA2=RxD, baudrate 9600, 8n1, RX and Buffer empty interrupts on)
    PORTMUX_CTRLB = 0x01;
     9e4:	c0 93 01 02 	sts	0x0201, r28	; 0x800201 <__TEXT_REGION_LENGTH__+0x700201>
    PORTA_OUTSET = 0x02;
     9e8:	d2 e0       	ldi	r29, 0x02	; 2
     9ea:	d0 93 05 04 	sts	0x0405, r29	; 0x800405 <__TEXT_REGION_LENGTH__+0x700405>
    USART0_BAUD = (uint16_t)USART0_BAUD_RATE(115200);
     9ee:	2b e5       	ldi	r18, 0x5B	; 91
     9f0:	31 e0       	ldi	r19, 0x01	; 1
     9f2:	20 93 08 08 	sts	0x0808, r18	; 0x800808 <__TEXT_REGION_LENGTH__+0x700808>
     9f6:	30 93 09 08 	sts	0x0809, r19	; 0x800809 <__TEXT_REGION_LENGTH__+0x700809>
    USART0_CTRLA = 0xA0; //Interrupts on
     9fa:	80 ea       	ldi	r24, 0xA0	; 160
     9fc:	80 93 05 08 	sts	0x0805, r24	; 0x800805 <__TEXT_REGION_LENGTH__+0x700805>
    USART0_CTRLB = 0xC0; //RX and TX on
     a00:	80 ec       	ldi	r24, 0xC0	; 192
     a02:	80 93 06 08 	sts	0x0806, r24	; 0x800806 <__TEXT_REGION_LENGTH__+0x700806>
    USART0_CTRLC = 0x03; //8 bits data, no parity, 1 stop bit
     a06:	83 e0       	ldi	r24, 0x03	; 3
     a08:	80 93 07 08 	sts	0x0807, r24	; 0x800807 <__TEXT_REGION_LENGTH__+0x700807>
     
    //GPIO registers 0..3 can be used for global variables used in ISR routines (ASM capability: IN, OUT, SBI, CBI, SBIS, SBIC)
    L_COL = 0;     //Used in LED array to hold currently driven column value
     a0c:	1c ba       	out	0x1c, r1	; 28
    RXCNT = 0;     //Used as UART receive counter
     a0e:	1d ba       	out	0x1d, r1	; 29
    GPIOR3 = 0;    //
     a10:	1f ba       	out	0x1f, r1	; 31

    //Init TCA (split mode, f_CLK/16, PWM on 6 alternative pins, underflow int enabled, synced and started)
    TCA0_SPLIT_CTRLD = 1;
     a12:	c0 93 03 0a 	sts	0x0A03, r28	; 0x800a03 <__TEXT_REGION_LENGTH__+0x700a03>
    TCA0_SPLIT_CTRLA = (0x4)<<1;
     a16:	88 e0       	ldi	r24, 0x08	; 8
     a18:	80 93 00 0a 	sts	0x0A00, r24	; 0x800a00 <__TEXT_REGION_LENGTH__+0x700a00>
    PORTMUX_CTRLC = 0x3F;
     a1c:	90 93 02 02 	sts	0x0202, r25	; 0x800202 <__TEXT_REGION_LENGTH__+0x700202>
    TCA0_SPLIT_CTRLB = 0x77;
     a20:	87 e7       	ldi	r24, 0x77	; 119
     a22:	80 93 01 0a 	sts	0x0A01, r24	; 0x800a01 <__TEXT_REGION_LENGTH__+0x700a01>
    TCA0_SPLIT_INTCTRL = 0x1;
     a26:	c0 93 0a 0a 	sts	0x0A0A, r28	; 0x800a0a <__TEXT_REGION_LENGTH__+0x700a0a>
    TCA0_SPLIT_CTRLESET = ((0x2)<<2)|0x3;
     a2a:	8b e0       	ldi	r24, 0x0B	; 11
     a2c:	80 93 05 0a 	sts	0x0A05, r24	; 0x800a05 <__TEXT_REGION_LENGTH__+0x700a05>
    TCA0_SPLIT_CTRLA |= 1;
     a30:	80 91 00 0a 	lds	r24, 0x0A00	; 0x800a00 <__TEXT_REGION_LENGTH__+0x700a00>
     a34:	81 60       	ori	r24, 0x01	; 1
     a36:	80 93 00 0a 	sts	0x0A00, r24	; 0x800a00 <__TEXT_REGION_LENGTH__+0x700a00>
     
    //Init TCB0 (compare value sets serial Tx pause between characters, uses TCA0 prescaler, enabled, interrupt disabled)
    TCB0_CTRLA = ((0x02)<<1)|0x01;
     a3a:	85 e0       	ldi	r24, 0x05	; 5
     a3c:	80 93 40 0a 	sts	0x0A40, r24	; 0x800a40 <__TEXT_REGION_LENGTH__+0x700a40>
    TCB0_CTRLB = 0;
     a40:	10 92 41 0a 	sts	0x0A41, r1	; 0x800a41 <__TEXT_REGION_LENGTH__+0x700a41>
    TCB0_CCMP = 0x01FF;
     a44:	8f ef       	ldi	r24, 0xFF	; 255
     a46:	91 e0       	ldi	r25, 0x01	; 1
     a48:	80 93 4c 0a 	sts	0x0A4C, r24	; 0x800a4c <__TEXT_REGION_LENGTH__+0x700a4c>
     a4c:	90 93 4d 0a 	sts	0x0A4D, r25	; 0x800a4d <__TEXT_REGION_LENGTH__+0x700a4d>
    TCB0_INTCTRL = 0x00;     
     a50:	10 92 45 0a 	sts	0x0A45, r1	; 0x800a45 <__TEXT_REGION_LENGTH__+0x700a45>
     
    //Init TCB1 (compare value sets audio sample rate (0x038B = 11025sps), enabled, interrupt enabled)
    TCB1_CTRLA = 0x01;
     a54:	c0 93 50 0a 	sts	0x0A50, r28	; 0x800a50 <__TEXT_REGION_LENGTH__+0x700a50>
    TCB1_CTRLB = 0;
     a58:	10 92 51 0a 	sts	0x0A51, r1	; 0x800a51 <__TEXT_REGION_LENGTH__+0x700a51>
    TCB1_CCMP = 0x038B;
     a5c:	8b e8       	ldi	r24, 0x8B	; 139
     a5e:	93 e0       	ldi	r25, 0x03	; 3
     a60:	80 93 5c 0a 	sts	0x0A5C, r24	; 0x800a5c <__TEXT_REGION_LENGTH__+0x700a5c>
     a64:	90 93 5d 0a 	sts	0x0A5D, r25	; 0x800a5d <__TEXT_REGION_LENGTH__+0x700a5d>
    TCB1_INTCTRL = 0x01;
     a68:	c0 93 55 0a 	sts	0x0A55, r28	; 0x800a55 <__TEXT_REGION_LENGTH__+0x700a55>

    //Init I2C (100kHz)
    I2C_init();
     a6c:	4b dc       	rcall	.-1898   	; 0x304 <I2C_init>

    //VREF (DAC, ADC's)
    VREF_CTRLA   = 0x12;    //0x22 for audio in/out (2.5V), 0x12 for temperature in, audio out (1.1V/2.5V)
     a6e:	82 e1       	ldi	r24, 0x12	; 18
     a70:	80 93 a0 00 	sts	0x00A0, r24	; 0x8000a0 <__TEXT_REGION_LENGTH__+0x7000a0>
    VREF_CTRLC   = 0x20;    //ADC1 reference at 2.5V
     a74:	80 e2       	ldi	r24, 0x20	; 32
     a76:	80 93 a2 00 	sts	0x00A2, r24	; 0x8000a2 <__TEXT_REGION_LENGTH__+0x7000a2>
    VREF_CTRLB   = 0x01;    //DAC0 ref forced enabled
     a7a:	c0 93 a1 00 	sts	0x00A1, r28	; 0x8000a1 <__TEXT_REGION_LENGTH__+0x7000a1>

    //Init ADC0 (audio in, also controls DAC output rate, internal temperature?)
    ADC0_CTRLA   = 0x02;    //10 bit resolution, free running
     a7e:	d0 93 00 06 	sts	0x0600, r29	; 0x800600 <__TEXT_REGION_LENGTH__+0x700600>
    ADC0_CTRLC   = 0x44;    //Reduced sample capacitor, internal reference, clock/32 => 24038sps
     a82:	84 e4       	ldi	r24, 0x44	; 68
     a84:	80 93 02 06 	sts	0x0602, r24	; 0x800602 <__TEXT_REGION_LENGTH__+0x700602>
    ADC0_MUXPOS  = 0x1E;    //Audio in: AIN7 at (0x07), Temperature: Internal sensor at (0x1E)
     a88:	8e e1       	ldi	r24, 0x1E	; 30
     a8a:	80 93 06 06 	sts	0x0606, r24	; 0x800606 <__TEXT_REGION_LENGTH__+0x700606>
    ADC0_INTCTRL = 0x01;    //Result ready interrupt enabled
     a8e:	c0 93 0a 06 	sts	0x060A, r28	; 0x80060a <__TEXT_REGION_LENGTH__+0x70060a>
    ADC0_CTRLA  |= 0x01;    //ADC0 enabled
     a92:	80 91 00 06 	lds	r24, 0x0600	; 0x800600 <__TEXT_REGION_LENGTH__+0x700600>
     a96:	81 60       	ori	r24, 0x01	; 1
     a98:	80 93 00 06 	sts	0x0600, r24	; 0x800600 <__TEXT_REGION_LENGTH__+0x700600>
    ADC0_COMMAND = 0x01;    //Start first conversion, after that it will run periodically.
     a9c:	c0 93 08 06 	sts	0x0608, r28	; 0x800608 <__TEXT_REGION_LENGTH__+0x700608>

    //Init ADC1 (buttons and sensors: CH0=Photo transistor, CH1=Hall, CH4=Buttons)
    ADC1_CTRLA   = 0;
     aa0:	10 92 40 06 	sts	0x0640, r1	; 0x800640 <__TEXT_REGION_LENGTH__+0x700640>
    ADC1_CTRLB   = 0x02;    //4 results automatically accumulated
     aa4:	d0 93 41 06 	sts	0x0641, r29	; 0x800641 <__TEXT_REGION_LENGTH__+0x700641>
    ADC1_CTRLC   = 0x52;    //Reduced sample capacitor, VDD as reference, clock/8
     aa8:	82 e5       	ldi	r24, 0x52	; 82
     aaa:	80 93 42 06 	sts	0x0642, r24	; 0x800642 <__TEXT_REGION_LENGTH__+0x700642>
    ADC1_SAMPCTRL= 0x04;    //Extend sampling time with 4 cycles (6 total)
     aae:	84 e0       	ldi	r24, 0x04	; 4
     ab0:	80 93 45 06 	sts	0x0645, r24	; 0x800645 <__TEXT_REGION_LENGTH__+0x700645>
    ADC1_MUXPOS  = 0x04;    //Start with Buttons, for sensors, activate sensor power first.
     ab4:	80 93 46 06 	sts	0x0646, r24	; 0x800646 <__TEXT_REGION_LENGTH__+0x700646>
    ADC1_INTCTRL = 0x01;    //Result ready interrupt enabled
     ab8:	c0 93 4a 06 	sts	0x064A, r28	; 0x80064a <__TEXT_REGION_LENGTH__+0x70064a>
    ADC1_CTRLA  |= 0x01;    //ADC0 enabled
     abc:	80 91 40 06 	lds	r24, 0x0640	; 0x800640 <__TEXT_REGION_LENGTH__+0x700640>
     ac0:	81 60       	ori	r24, 0x01	; 1
     ac2:	80 93 40 06 	sts	0x0640, r24	; 0x800640 <__TEXT_REGION_LENGTH__+0x700640>
    ADC1_COMMAND = 0x01;    //Start single conversion
     ac6:	c0 93 48 06 	sts	0x0648, r28	; 0x800648 <__TEXT_REGION_LENGTH__+0x700648>

    //Init DAC0
    DAC0_CTRLA = 0x40;     //Enable output buffer (connect to pin)
     aca:	80 e4       	ldi	r24, 0x40	; 64
     acc:	80 93 a0 06 	sts	0x06A0, r24	; 0x8006a0 <__TEXT_REGION_LENGTH__+0x7006a0>
    DAC0_DATA = 0x80;      //Data value at half point (about 1.25V)
     ad0:	80 e8       	ldi	r24, 0x80	; 128
     ad2:	80 93 a1 06 	sts	0x06A1, r24	; 0x8006a1 <__TEXT_REGION_LENGTH__+0x7006a1>
    DAC0_CTRLA |= 0x01;    //Enable DAC
     ad6:	80 91 a0 06 	lds	r24, 0x06A0	; 0x8006a0 <__TEXT_REGION_LENGTH__+0x7006a0>
     ada:	81 60       	ori	r24, 0x01	; 1
     adc:	80 93 a0 06 	sts	0x06A0, r24	; 0x8006a0 <__TEXT_REGION_LENGTH__+0x7006a0>
     
    //PIT and RTC interrupts
    while(RTC_STATUS & RTC_CTRLABUSY_bm);
     ae0:	80 91 41 01 	lds	r24, 0x0141	; 0x800141 <__TEXT_REGION_LENGTH__+0x700141>
     ae4:	80 fd       	sbrc	r24, 0
     ae6:	fc cf       	rjmp	.-8      	; 0xae0 <Setup+0x15a>
    RTC_CTRLA          = (0x6)<<3;                         //Prescaler: /64
     ae8:	80 e3       	ldi	r24, 0x30	; 48
     aea:	80 93 40 01 	sts	0x0140, r24	; 0x800140 <__TEXT_REGION_LENGTH__+0x700140>
    RTC_CLKSEL         = 0;                                //Clock source: internal 32768Hz clock
     aee:	10 92 47 01 	sts	0x0147, r1	; 0x800147 <__TEXT_REGION_LENGTH__+0x700147>
    while(RTC_STATUS & RTC_PERBUSY_bm);
     af2:	80 91 41 01 	lds	r24, 0x0141	; 0x800141 <__TEXT_REGION_LENGTH__+0x700141>
     af6:	82 fd       	sbrc	r24, 2
     af8:	fc cf       	rjmp	.-8      	; 0xaf2 <Setup+0x16c>
    RTC_PER            = 512*60;                           //60 second period (for clocking how long the device has been running?)
     afa:	80 e0       	ldi	r24, 0x00	; 0
     afc:	98 e7       	ldi	r25, 0x78	; 120
     afe:	80 93 4a 01 	sts	0x014A, r24	; 0x80014a <__TEXT_REGION_LENGTH__+0x70014a>
     b02:	90 93 4b 01 	sts	0x014B, r25	; 0x80014b <__TEXT_REGION_LENGTH__+0x70014b>
    tmp16bit = (RTC_CNT + BTN_TMR);
     b06:	80 91 48 01 	lds	r24, 0x0148	; 0x800148 <__TEXT_REGION_LENGTH__+0x700148>
     b0a:	90 91 49 01 	lds	r25, 0x0149	; 0x800149 <__TEXT_REGION_LENGTH__+0x700149>
     b0e:	82 96       	adiw	r24, 0x22	; 34
     b10:	80 93 f2 3a 	sts	0x3AF2, r24	; 0x803af2 <tmp16bit>
     b14:	90 93 f3 3a 	sts	0x3AF3, r25	; 0x803af3 <tmp16bit+0x1>
    if (tmp16bit > RTC_PER) tmp16bit -= RTC_PER;
     b18:	20 91 4a 01 	lds	r18, 0x014A	; 0x80014a <__TEXT_REGION_LENGTH__+0x70014a>
     b1c:	30 91 4b 01 	lds	r19, 0x014B	; 0x80014b <__TEXT_REGION_LENGTH__+0x70014b>
     b20:	80 91 f2 3a 	lds	r24, 0x3AF2	; 0x803af2 <tmp16bit>
     b24:	90 91 f3 3a 	lds	r25, 0x3AF3	; 0x803af3 <tmp16bit+0x1>
     b28:	28 17       	cp	r18, r24
     b2a:	39 07       	cpc	r19, r25
     b2c:	70 f4       	brcc	.+28     	; 0xb4a <Setup+0x1c4>
     b2e:	20 91 4a 01 	lds	r18, 0x014A	; 0x80014a <__TEXT_REGION_LENGTH__+0x70014a>
     b32:	30 91 4b 01 	lds	r19, 0x014B	; 0x80014b <__TEXT_REGION_LENGTH__+0x70014b>
     b36:	80 91 f2 3a 	lds	r24, 0x3AF2	; 0x803af2 <tmp16bit>
     b3a:	90 91 f3 3a 	lds	r25, 0x3AF3	; 0x803af3 <tmp16bit+0x1>
     b3e:	82 1b       	sub	r24, r18
     b40:	93 0b       	sbc	r25, r19
     b42:	80 93 f2 3a 	sts	0x3AF2, r24	; 0x803af2 <tmp16bit>
     b46:	90 93 f3 3a 	sts	0x3AF3, r25	; 0x803af3 <tmp16bit+0x1>
    while(RTC_STATUS & RTC_CMPBUSY_bm);
     b4a:	80 91 41 01 	lds	r24, 0x0141	; 0x800141 <__TEXT_REGION_LENGTH__+0x700141>
     b4e:	83 fd       	sbrc	r24, 3
     b50:	fc cf       	rjmp	.-8      	; 0xb4a <Setup+0x1c4>
    RTC_CMP            = tmp16bit;                         //Button timing
     b52:	80 91 f2 3a 	lds	r24, 0x3AF2	; 0x803af2 <tmp16bit>
     b56:	90 91 f3 3a 	lds	r25, 0x3AF3	; 0x803af3 <tmp16bit+0x1>
     b5a:	80 93 4c 01 	sts	0x014C, r24	; 0x80014c <__TEXT_REGION_LENGTH__+0x70014c>
     b5e:	90 93 4d 01 	sts	0x014D, r25	; 0x80014d <__TEXT_REGION_LENGTH__+0x70014d>
    RTC_INTCTRL        = 0x03;                             //RTC overflow interrupt enabled
     b62:	83 e0       	ldi	r24, 0x03	; 3
     b64:	80 93 42 01 	sts	0x0142, r24	; 0x800142 <__TEXT_REGION_LENGTH__+0x700142>
    RTC_PITINTCTRL     = 0x01;                             //PIT interrupt enabled
     b68:	81 e0       	ldi	r24, 0x01	; 1
     b6a:	80 93 52 01 	sts	0x0152, r24	; 0x800152 <__TEXT_REGION_LENGTH__+0x700152>
    RTC_PITCTRLA       = (0x1)<<3;                         //Interrupt fires after 4 RTC clock cycles Rate=(RTCCLK/(PRESC*PERIOD)) 32768/256=128Hz
     b6e:	88 e0       	ldi	r24, 0x08	; 8
     b70:	80 93 50 01 	sts	0x0150, r24	; 0x800150 <__TEXT_REGION_LENGTH__+0x700150>
    while(RTC_STATUS & RTC_CTRLABUSY_bm);      
     b74:	80 91 41 01 	lds	r24, 0x0141	; 0x800141 <__TEXT_REGION_LENGTH__+0x700141>
     b78:	80 fd       	sbrc	r24, 0
     b7a:	fc cf       	rjmp	.-8      	; 0xb74 <Setup+0x1ee>
    RTC_CTRLA          |= 0x01;                            //Enable RTC
     b7c:	80 91 40 01 	lds	r24, 0x0140	; 0x800140 <__TEXT_REGION_LENGTH__+0x700140>
     b80:	81 60       	ori	r24, 0x01	; 1
     b82:	80 93 40 01 	sts	0x0140, r24	; 0x800140 <__TEXT_REGION_LENGTH__+0x700140>
    RTC_PITCTRLA       |= 0x01;                            //Enable PIT
     b86:	80 91 50 01 	lds	r24, 0x0150	; 0x800150 <__TEXT_REGION_LENGTH__+0x700150>
     b8a:	81 60       	ori	r24, 0x01	; 1
     b8c:	80 93 50 01 	sts	0x0150, r24	; 0x800150 <__TEXT_REGION_LENGTH__+0x700150>
     
    //Other inits
    serRx[0] = 0;           // Empty Rx buffer (first char is enough)
     b90:	10 92 78 3a 	sts	0x3A78, r1	; 0x803a78 <serRx>
    serTxAddr = &serRx[0];  // Point to first address of the Rx buffer
     b94:	88 e7       	ldi	r24, 0x78	; 120
     b96:	9a e3       	ldi	r25, 0x3A	; 58
     b98:	80 93 bc 3a 	sts	0x3ABC, r24	; 0x803abc <serTxAddr>
     b9c:	90 93 bd 3a 	sts	0x3ABD, r25	; 0x803abd <serTxAddr+0x1>

    sei();
     ba0:	78 94       	sei
}
     ba2:	df 91       	pop	r29
     ba4:	cf 91       	pop	r28
     ba6:	08 95       	ret

00000ba8 <__vector_8>:

// TCA0 is used for driving the LED matrix at 488Hz (* 5 columns = 2440Hz). The lower 8 bit underflow interrupt is used to load new values and shift between columns.
ISR(TCA0_LUNF_vect){
     ba8:	1f 92       	push	r1
     baa:	0f 92       	push	r0
     bac:	0f b6       	in	r0, 0x3f	; 63
     bae:	0f 92       	push	r0
     bb0:	11 24       	eor	r1, r1
     bb2:	8f 93       	push	r24
     bb4:	9f 93       	push	r25
     bb6:	af 93       	push	r26
     bb8:	bf 93       	push	r27
     bba:	ef 93       	push	r30
     bbc:	ff 93       	push	r31
    //Turn off all columns
    PORTC_OUTCLR = 0x07;
     bbe:	87 e0       	ldi	r24, 0x07	; 7
     bc0:	80 93 46 04 	sts	0x0446, r24	; 0x800446 <__TEXT_REGION_LENGTH__+0x700446>
    PORTB_OUTCLR = 0x44;
     bc4:	84 e4       	ldi	r24, 0x44	; 68
     bc6:	80 93 26 04 	sts	0x0426, r24	; 0x800426 <__TEXT_REGION_LENGTH__+0x700426>
    "ldi r25, 6        \n"
    "ld r24, %a[arr]+  \n"
    "st %a[wo]+, r24   \n"
    "dec r25           \n"
    "brne .-8          \n"
    :: [wo] "e" (&TCA0_SPLIT_LCMP0), [arr] "e" (&iLED[(L_COL<<3)]) : "r25", "r24", "cc", "memory");
     bca:	ec b3       	in	r30, 0x1c	; 28
     bcc:	88 e0       	ldi	r24, 0x08	; 8
     bce:	e8 9f       	mul	r30, r24
     bd0:	f0 01       	movw	r30, r0
     bd2:	11 24       	eor	r1, r1
     bd4:	ea 53       	subi	r30, 0x3A	; 58
     bd6:	f5 4c       	sbci	r31, 0xC5	; 197
    //Turn off all columns
    PORTC_OUTCLR = 0x07;
    PORTB_OUTCLR = 0x44;

    //Write all of the compare registers of TCA0 with PWM values in array (rows)
    asm(
     bd8:	a8 e2       	ldi	r26, 0x28	; 40
     bda:	ba e0       	ldi	r27, 0x0A	; 10
     bdc:	96 e0       	ldi	r25, 0x06	; 6
     bde:	81 91       	ld	r24, Z+
     be0:	8d 93       	st	X+, r24
     be2:	9a 95       	dec	r25
     be4:	e1 f7       	brne	.-8      	; 0xbde <__vector_8+0x36>
    "st %a[wo]+, r24   \n"
    "dec r25           \n"
    "brne .-8          \n"
    :: [wo] "e" (&TCA0_SPLIT_LCMP0), [arr] "e" (&iLED[(L_COL<<3)]) : "r25", "r24", "cc", "memory");

    TCA0_SPLIT_CTRLESET = ((0x2)<<2)|0x3; //Sync timers: Moved this below the PWM value loading to fix the data shifting in asm above.
     be6:	8b e0       	ldi	r24, 0x0B	; 11
     be8:	80 93 05 0a 	sts	0x0A05, r24	; 0x800a05 <__TEXT_REGION_LENGTH__+0x700a05>

    //Turn on the right column
    if (L_COL<3) {
     bec:	8c b3       	in	r24, 0x1c	; 28
     bee:	83 30       	cpi	r24, 0x03	; 3
     bf0:	58 f4       	brcc	.+22     	; 0xc08 <__vector_8+0x60>
        asm(
     bf2:	8c b3       	in	r24, 0x1c	; 28
     bf4:	91 e0       	ldi	r25, 0x01	; 1
     bf6:	01 c0       	rjmp	.+2      	; 0xbfa <__vector_8+0x52>
     bf8:	99 0f       	add	r25, r25
     bfa:	8a 95       	dec	r24
     bfc:	ea f7       	brpl	.-6      	; 0xbf8 <__vector_8+0x50>
     bfe:	99 b9       	out	0x09, r25	; 9
     c00:	8c b3       	in	r24, 0x1c	; 28
     c02:	83 95       	inc	r24
     c04:	8c bb       	out	0x1c, r24	; 28
     c06:	0a c0       	rjmp	.+20     	; 0xc1c <__vector_8+0x74>
        "in r24, %[io0]  \n"
        "inc r24         \n"
        "out %[io0], r24 \n"
        :: [io0] "I" (&L_COL), [vpc] "I" (&VPORTC_OUT) : "r24", "r25", "cc");
        } else {
        asm(
     c08:	8c b3       	in	r24, 0x1c	; 28
     c0a:	83 30       	cpi	r24, 0x03	; 3
     c0c:	21 f4       	brne	.+8      	; 0xc16 <__vector_8+0x6e>
     c0e:	2a 9a       	sbi	0x05, 2	; 5
     c10:	83 95       	inc	r24
     c12:	8c bb       	out	0x1c, r24	; 28
     c14:	03 c0       	rjmp	.+6      	; 0xc1c <__vector_8+0x74>
     c16:	2e 9a       	sbi	0x05, 6	; 5
     c18:	88 27       	eor	r24, r24
     c1a:	8c bb       	out	0x1c, r24	; 28
        "clr r24         \n"
        "out %[io0], r24 \n"
        :: [io0] "I" (&L_COL), [vpb] "I" (&VPORTB_OUT) : "r24", "cc");
    }
    
    if(timeout_I2C) --timeout_I2C;
     c1c:	80 91 63 3a 	lds	r24, 0x3A63	; 0x803a63 <timeout_I2C>
     c20:	88 23       	and	r24, r24
     c22:	29 f0       	breq	.+10     	; 0xc2e <__vector_8+0x86>
     c24:	80 91 63 3a 	lds	r24, 0x3A63	; 0x803a63 <timeout_I2C>
     c28:	81 50       	subi	r24, 0x01	; 1
     c2a:	80 93 63 3a 	sts	0x3A63, r24	; 0x803a63 <timeout_I2C>
    TCA0_SPLIT_INTFLAGS = 0xFF;
     c2e:	8f ef       	ldi	r24, 0xFF	; 255
     c30:	80 93 0b 0a 	sts	0x0A0B, r24	; 0x800a0b <__TEXT_REGION_LENGTH__+0x700a0b>
}
     c34:	ff 91       	pop	r31
     c36:	ef 91       	pop	r30
     c38:	bf 91       	pop	r27
     c3a:	af 91       	pop	r26
     c3c:	9f 91       	pop	r25
     c3e:	8f 91       	pop	r24
     c40:	0f 90       	pop	r0
     c42:	0f be       	out	0x3f, r0	; 63
     c44:	0f 90       	pop	r0
     c46:	1f 90       	pop	r1
     c48:	18 95       	reti

00000c4a <__vector_13>:

// TCB0 is used for (slowly) sending serial characters. A 0x00 character code is needed to terminate sending or it will leak memory to serial. It's a feature, honest! 
ISR(TCB0_INT_vect){
     c4a:	1f 92       	push	r1
     c4c:	0f 92       	push	r0
     c4e:	0f b6       	in	r0, 0x3f	; 63
     c50:	0f 92       	push	r0
     c52:	11 24       	eor	r1, r1
     c54:	8f 93       	push	r24
     c56:	9f 93       	push	r25
     c58:	ef 93       	push	r30
     c5a:	ff 93       	push	r31
    if (*serTxAddr) {
     c5c:	e0 91 bc 3a 	lds	r30, 0x3ABC	; 0x803abc <serTxAddr>
     c60:	f0 91 bd 3a 	lds	r31, 0x3ABD	; 0x803abd <serTxAddr+0x1>
     c64:	80 81       	ld	r24, Z
     c66:	88 23       	and	r24, r24
     c68:	91 f0       	breq	.+36     	; 0xc8e <__vector_13+0x44>
        USART0_TXDATAL = *serTxAddr;
     c6a:	80 81       	ld	r24, Z
     c6c:	80 93 02 08 	sts	0x0802, r24	; 0x800802 <__TEXT_REGION_LENGTH__+0x700802>
        serTxAddr++;
     c70:	80 91 bc 3a 	lds	r24, 0x3ABC	; 0x803abc <serTxAddr>
     c74:	90 91 bd 3a 	lds	r25, 0x3ABD	; 0x803abd <serTxAddr+0x1>
     c78:	01 96       	adiw	r24, 0x01	; 1
     c7a:	80 93 bc 3a 	sts	0x3ABC, r24	; 0x803abc <serTxAddr>
     c7e:	90 93 bd 3a 	sts	0x3ABD, r25	; 0x803abd <serTxAddr+0x1>
        USART0_CTRLA |= USART_DREIE_bm;
     c82:	80 91 05 08 	lds	r24, 0x0805	; 0x800805 <__TEXT_REGION_LENGTH__+0x700805>
     c86:	80 62       	ori	r24, 0x20	; 32
     c88:	80 93 05 08 	sts	0x0805, r24	; 0x800805 <__TEXT_REGION_LENGTH__+0x700805>
     c8c:	05 c0       	rjmp	.+10     	; 0xc98 <__vector_13+0x4e>
    } else {
        serTxDone = 1;
     c8e:	81 e0       	ldi	r24, 0x01	; 1
     c90:	80 93 09 38 	sts	0x3809, r24	; 0x803809 <serTxDone>
        TCB0_INTCTRL = 0x00;
     c94:	10 92 45 0a 	sts	0x0A45, r1	; 0x800a45 <__TEXT_REGION_LENGTH__+0x700a45>
    }
    TCB0_INTFLAGS = TCB_CAPT_bm;
     c98:	81 e0       	ldi	r24, 0x01	; 1
     c9a:	80 93 46 0a 	sts	0x0A46, r24	; 0x800a46 <__TEXT_REGION_LENGTH__+0x700a46>
}
     c9e:	ff 91       	pop	r31
     ca0:	ef 91       	pop	r30
     ca2:	9f 91       	pop	r25
     ca4:	8f 91       	pop	r24
     ca6:	0f 90       	pop	r0
     ca8:	0f be       	out	0x3f, r0	; 63
     caa:	0f 90       	pop	r0
     cac:	1f 90       	pop	r1
     cae:	18 95       	reti

00000cb0 <__vector_14>:

// TCB1 is used for audio generation. Keeps playing "data" until 0 is reached. Audio sample data can contain 0x01 to 0xFF, centered around 0x80
ISR(TCB1_INT_vect){
     cb0:	1f 92       	push	r1
     cb2:	0f 92       	push	r0
     cb4:	0f b6       	in	r0, 0x3f	; 63
     cb6:	0f 92       	push	r0
     cb8:	11 24       	eor	r1, r1
     cba:	2f 93       	push	r18
     cbc:	3f 93       	push	r19
     cbe:	4f 93       	push	r20
     cc0:	8f 93       	push	r24
     cc2:	9f 93       	push	r25
     cc4:	ef 93       	push	r30
     cc6:	ff 93       	push	r31
    int16_t volCtrl;
    if (*auSmpAddr == 0) auSmpAddr = auRepAddr;
     cc8:	e0 91 05 38 	lds	r30, 0x3805	; 0x803805 <auSmpAddr>
     ccc:	f0 91 06 38 	lds	r31, 0x3806	; 0x803806 <auSmpAddr+0x1>
     cd0:	80 81       	ld	r24, Z
     cd2:	81 11       	cpse	r24, r1
     cd4:	08 c0       	rjmp	.+16     	; 0xce6 <__vector_14+0x36>
     cd6:	80 91 03 38 	lds	r24, 0x3803	; 0x803803 <auRepAddr>
     cda:	90 91 04 38 	lds	r25, 0x3804	; 0x803804 <auRepAddr+0x1>
     cde:	80 93 05 38 	sts	0x3805, r24	; 0x803805 <auSmpAddr>
     ce2:	90 93 06 38 	sts	0x3806, r25	; 0x803806 <auSmpAddr+0x1>
    if (*auSmpAddr) {
     ce6:	e0 91 05 38 	lds	r30, 0x3805	; 0x803805 <auSmpAddr>
     cea:	f0 91 06 38 	lds	r31, 0x3806	; 0x803806 <auSmpAddr+0x1>
     cee:	80 81       	ld	r24, Z
     cf0:	88 23       	and	r24, r24
     cf2:	e1 f0       	breq	.+56     	; 0xd2c <__vector_14+0x7c>
        volCtrl = ((((int16_t)(*auSmpAddr) - 0x7f) * auVolume) >> 8) + 0x80;
     cf4:	20 81       	ld	r18, Z
     cf6:	40 91 b9 3a 	lds	r20, 0x3AB9	; 0x803ab9 <auVolume>
        DAC0_DATA = (uint8_t)(volCtrl);
     cfa:	30 e0       	ldi	r19, 0x00	; 0
     cfc:	2f 57       	subi	r18, 0x7F	; 127
     cfe:	31 09       	sbc	r19, r1
     d00:	42 9f       	mul	r20, r18
     d02:	c0 01       	movw	r24, r0
     d04:	43 9f       	mul	r20, r19
     d06:	90 0d       	add	r25, r0
     d08:	11 24       	eor	r1, r1
     d0a:	89 2f       	mov	r24, r25
     d0c:	99 0f       	add	r25, r25
     d0e:	99 0b       	sbc	r25, r25
     d10:	80 58       	subi	r24, 0x80	; 128
     d12:	9f 4f       	sbci	r25, 0xFF	; 255
     d14:	80 93 a1 06 	sts	0x06A1, r24	; 0x8006a1 <__TEXT_REGION_LENGTH__+0x7006a1>
        ++auSmpAddr;
     d18:	80 91 05 38 	lds	r24, 0x3805	; 0x803805 <auSmpAddr>
     d1c:	90 91 06 38 	lds	r25, 0x3806	; 0x803806 <auSmpAddr+0x1>
     d20:	01 96       	adiw	r24, 0x01	; 1
     d22:	80 93 05 38 	sts	0x3805, r24	; 0x803805 <auSmpAddr>
     d26:	90 93 06 38 	sts	0x3806, r25	; 0x803806 <auSmpAddr+0x1>
     d2a:	03 c0       	rjmp	.+6      	; 0xd32 <__vector_14+0x82>
    } else {
        DAC0_DATA = 0x80;
     d2c:	80 e8       	ldi	r24, 0x80	; 128
     d2e:	80 93 a1 06 	sts	0x06A1, r24	; 0x8006a1 <__TEXT_REGION_LENGTH__+0x7006a1>
    }
    TCB1_INTFLAGS = TCB_CAPT_bm;
     d32:	81 e0       	ldi	r24, 0x01	; 1
     d34:	80 93 56 0a 	sts	0x0A56, r24	; 0x800a56 <__TEXT_REGION_LENGTH__+0x700a56>
}
     d38:	ff 91       	pop	r31
     d3a:	ef 91       	pop	r30
     d3c:	9f 91       	pop	r25
     d3e:	8f 91       	pop	r24
     d40:	4f 91       	pop	r20
     d42:	3f 91       	pop	r19
     d44:	2f 91       	pop	r18
     d46:	0f 90       	pop	r0
     d48:	0f be       	out	0x3f, r0	; 63
     d4a:	0f 90       	pop	r0
     d4c:	1f 90       	pop	r1
     d4e:	18 95       	reti

00000d50 <__vector_27>:

// Reads up to RXLEN characters until LF is found, LF sets the serRxDone flag and writes 0 instead of LF.
ISR(USART0_RXC_vect){
     d50:	1f 92       	push	r1
     d52:	0f 92       	push	r0
     d54:	0f b6       	in	r0, 0x3f	; 63
     d56:	0f 92       	push	r0
     d58:	11 24       	eor	r1, r1
     d5a:	8f 93       	push	r24
     d5c:	ef 93       	push	r30
     d5e:	ff 93       	push	r31
    if (serRxDone == 0){
     d60:	80 91 46 38 	lds	r24, 0x3846	; 0x803846 <serRxDone>
     d64:	81 11       	cpse	r24, r1
     d66:	44 c0       	rjmp	.+136    	; 0xdf0 <__vector_27+0xa0>
        serRx[RXCNT] = USART0.RXDATAL;
     d68:	ed b3       	in	r30, 0x1d	; 29
     d6a:	f0 e0       	ldi	r31, 0x00	; 0
     d6c:	80 91 00 08 	lds	r24, 0x0800	; 0x800800 <__TEXT_REGION_LENGTH__+0x700800>
     d70:	e8 58       	subi	r30, 0x88	; 136
     d72:	f5 4c       	sbci	r31, 0xC5	; 197
     d74:	80 83       	st	Z, r24
        USART0_TXDATAL = serRx[RXCNT];
     d76:	ed b3       	in	r30, 0x1d	; 29
     d78:	f0 e0       	ldi	r31, 0x00	; 0
     d7a:	e8 58       	subi	r30, 0x88	; 136
     d7c:	f5 4c       	sbci	r31, 0xC5	; 197
     d7e:	80 81       	ld	r24, Z
     d80:	80 93 02 08 	sts	0x0802, r24	; 0x800802 <__TEXT_REGION_LENGTH__+0x700802>
        if ((serRx[RXCNT] == 0x0A)||(serRx[RXCNT] == 0x0D)){
     d84:	ed b3       	in	r30, 0x1d	; 29
     d86:	f0 e0       	ldi	r31, 0x00	; 0
     d88:	e8 58       	subi	r30, 0x88	; 136
     d8a:	f5 4c       	sbci	r31, 0xC5	; 197
     d8c:	80 81       	ld	r24, Z
     d8e:	8a 30       	cpi	r24, 0x0A	; 10
     d90:	39 f0       	breq	.+14     	; 0xda0 <__vector_27+0x50>
     d92:	ed b3       	in	r30, 0x1d	; 29
     d94:	f0 e0       	ldi	r31, 0x00	; 0
     d96:	e8 58       	subi	r30, 0x88	; 136
     d98:	f5 4c       	sbci	r31, 0xC5	; 197
     d9a:	80 81       	ld	r24, Z
     d9c:	8d 30       	cpi	r24, 0x0D	; 13
     d9e:	49 f4       	brne	.+18     	; 0xdb2 <__vector_27+0x62>
            serRx[RXCNT] = 0;
     da0:	ed b3       	in	r30, 0x1d	; 29
     da2:	f0 e0       	ldi	r31, 0x00	; 0
     da4:	e8 58       	subi	r30, 0x88	; 136
     da6:	f5 4c       	sbci	r31, 0xC5	; 197
     da8:	10 82       	st	Z, r1
            serRxDone = 1;
     daa:	81 e0       	ldi	r24, 0x01	; 1
     dac:	80 93 46 38 	sts	0x3846, r24	; 0x803846 <serRxDone>
     db0:	1f c0       	rjmp	.+62     	; 0xdf0 <__vector_27+0xa0>
        } else if (((serRx[RXCNT] == 0x08)||(serRx[RXCNT] == 0x7F))&&(RXCNT > 0)) {
     db2:	ed b3       	in	r30, 0x1d	; 29
     db4:	f0 e0       	ldi	r31, 0x00	; 0
     db6:	e8 58       	subi	r30, 0x88	; 136
     db8:	f5 4c       	sbci	r31, 0xC5	; 197
     dba:	80 81       	ld	r24, Z
     dbc:	88 30       	cpi	r24, 0x08	; 8
     dbe:	39 f0       	breq	.+14     	; 0xdce <__vector_27+0x7e>
     dc0:	ed b3       	in	r30, 0x1d	; 29
     dc2:	f0 e0       	ldi	r31, 0x00	; 0
     dc4:	e8 58       	subi	r30, 0x88	; 136
     dc6:	f5 4c       	sbci	r31, 0xC5	; 197
     dc8:	80 81       	ld	r24, Z
     dca:	8f 37       	cpi	r24, 0x7F	; 127
     dcc:	59 f4       	brne	.+22     	; 0xde4 <__vector_27+0x94>
     dce:	8d b3       	in	r24, 0x1d	; 29
     dd0:	88 23       	and	r24, r24
     dd2:	41 f0       	breq	.+16     	; 0xde4 <__vector_27+0x94>
            serRx[RXCNT] = 0;
     dd4:	ed b3       	in	r30, 0x1d	; 29
     dd6:	f0 e0       	ldi	r31, 0x00	; 0
     dd8:	e8 58       	subi	r30, 0x88	; 136
     dda:	f5 4c       	sbci	r31, 0xC5	; 197
     ddc:	10 82       	st	Z, r1
            --RXCNT;
     dde:	8d b3       	in	r24, 0x1d	; 29
     de0:	81 50       	subi	r24, 0x01	; 1
     de2:	05 c0       	rjmp	.+10     	; 0xdee <__vector_27+0x9e>
        } else if (RXCNT < (RXLEN-1)) ++RXCNT;
     de4:	8d b3       	in	r24, 0x1d	; 29
     de6:	80 34       	cpi	r24, 0x40	; 64
     de8:	18 f4       	brcc	.+6      	; 0xdf0 <__vector_27+0xa0>
     dea:	8d b3       	in	r24, 0x1d	; 29
     dec:	8f 5f       	subi	r24, 0xFF	; 255
     dee:	8d bb       	out	0x1d, r24	; 29
    }
    USART0_STATUS = USART_RXCIF_bm;
     df0:	80 e8       	ldi	r24, 0x80	; 128
     df2:	80 93 04 08 	sts	0x0804, r24	; 0x800804 <__TEXT_REGION_LENGTH__+0x700804>
};
     df6:	ff 91       	pop	r31
     df8:	ef 91       	pop	r30
     dfa:	8f 91       	pop	r24
     dfc:	0f 90       	pop	r0
     dfe:	0f be       	out	0x3f, r0	; 63
     e00:	0f 90       	pop	r0
     e02:	1f 90       	pop	r1
     e04:	18 95       	reti

00000e06 <__vector_28>:

// Trigger new data write and turn off DRE interrupt.
ISR(USART0_DRE_vect){
     e06:	1f 92       	push	r1
     e08:	0f 92       	push	r0
     e0a:	0f b6       	in	r0, 0x3f	; 63
     e0c:	0f 92       	push	r0
     e0e:	11 24       	eor	r1, r1
     e10:	8f 93       	push	r24
     e12:	ef 93       	push	r30
     e14:	ff 93       	push	r31
    TCB0_CNT = 0;
     e16:	10 92 4a 0a 	sts	0x0A4A, r1	; 0x800a4a <__TEXT_REGION_LENGTH__+0x700a4a>
     e1a:	10 92 4b 0a 	sts	0x0A4B, r1	; 0x800a4b <__TEXT_REGION_LENGTH__+0x700a4b>
    TCB0_INTCTRL = 0x01;
     e1e:	81 e0       	ldi	r24, 0x01	; 1
     e20:	80 93 45 0a 	sts	0x0A45, r24	; 0x800a45 <__TEXT_REGION_LENGTH__+0x700a45>
    USART0_CTRLA &= ~(USART_DREIE_bm);
     e24:	e5 e0       	ldi	r30, 0x05	; 5
     e26:	f8 e0       	ldi	r31, 0x08	; 8
     e28:	80 81       	ld	r24, Z
     e2a:	8f 7d       	andi	r24, 0xDF	; 223
     e2c:	80 83       	st	Z, r24
};
     e2e:	ff 91       	pop	r31
     e30:	ef 91       	pop	r30
     e32:	8f 91       	pop	r24
     e34:	0f 90       	pop	r0
     e36:	0f be       	out	0x3f, r0	; 63
     e38:	0f 90       	pop	r0
     e3a:	1f 90       	pop	r1
     e3c:	18 95       	reti

00000e3e <__vector_20>:

// ADC used for audio input and temperature sensor.
ISR(ADC0_RESRDY_vect){
     e3e:	1f 92       	push	r1
     e40:	0f 92       	push	r0
     e42:	0f b6       	in	r0, 0x3f	; 63
     e44:	0f 92       	push	r0
     e46:	11 24       	eor	r1, r1
     e48:	8f 93       	push	r24
     e4a:	9f 93       	push	r25
    //If just switched reference, discard first few samples
    if (adc0Chg == 0){
     e4c:	80 91 3a 38 	lds	r24, 0x383A	; 0x80383a <adc0Chg>
     e50:	81 11       	cpse	r24, r1
     e52:	12 c0       	rjmp	.+36     	; 0xe78 <__vector_20+0x3a>
        if (ADC0_MUXPOS == 0x1E) adcTemp = ADC0_RES; else auIn=ADC0_RESL;
     e54:	80 91 06 06 	lds	r24, 0x0606	; 0x800606 <__TEXT_REGION_LENGTH__+0x700606>
     e58:	8e 31       	cpi	r24, 0x1E	; 30
     e5a:	49 f4       	brne	.+18     	; 0xe6e <__vector_20+0x30>
     e5c:	80 91 10 06 	lds	r24, 0x0610	; 0x800610 <__TEXT_REGION_LENGTH__+0x700610>
     e60:	90 91 11 06 	lds	r25, 0x0611	; 0x800611 <__TEXT_REGION_LENGTH__+0x700611>
     e64:	80 93 f0 3a 	sts	0x3AF0, r24	; 0x803af0 <adcTemp>
     e68:	90 93 f1 3a 	sts	0x3AF1, r25	; 0x803af1 <adcTemp+0x1>
     e6c:	0a c0       	rjmp	.+20     	; 0xe82 <__vector_20+0x44>
     e6e:	80 91 10 06 	lds	r24, 0x0610	; 0x800610 <__TEXT_REGION_LENGTH__+0x700610>
     e72:	80 93 c5 3a 	sts	0x3AC5, r24	; 0x803ac5 <auIn>
     e76:	05 c0       	rjmp	.+10     	; 0xe82 <__vector_20+0x44>
    } else --adc0Chg;
     e78:	80 91 3a 38 	lds	r24, 0x383A	; 0x80383a <adc0Chg>
     e7c:	81 50       	subi	r24, 0x01	; 1
     e7e:	80 93 3a 38 	sts	0x383A, r24	; 0x80383a <adc0Chg>
    ADC0_INTFLAGS = ADC_RESRDY_bm;
     e82:	81 e0       	ldi	r24, 0x01	; 1
     e84:	80 93 0b 06 	sts	0x060B, r24	; 0x80060b <__TEXT_REGION_LENGTH__+0x70060b>
}
     e88:	9f 91       	pop	r25
     e8a:	8f 91       	pop	r24
     e8c:	0f 90       	pop	r0
     e8e:	0f be       	out	0x3f, r0	; 63
     e90:	0f 90       	pop	r0
     e92:	1f 90       	pop	r1
     e94:	18 95       	reti

00000e96 <__vector_22>:

// Reads out sensors at 8Hz and buttons at 42Hz (timed by PIT), power for the sensors is on 1/8th of the time to save power.
ISR(ADC1_RESRDY_vect){
     e96:	1f 92       	push	r1
     e98:	0f 92       	push	r0
     e9a:	0f b6       	in	r0, 0x3f	; 63
     e9c:	0f 92       	push	r0
     e9e:	11 24       	eor	r1, r1
     ea0:	8f 93       	push	r24
     ea2:	9f 93       	push	r25
    if (ADC1_MUXPOS == 0) {
     ea4:	80 91 46 06 	lds	r24, 0x0646	; 0x800646 <__TEXT_REGION_LENGTH__+0x700646>
     ea8:	81 11       	cpse	r24, r1
     eaa:	0a c0       	rjmp	.+20     	; 0xec0 <__vector_22+0x2a>
        adcPhot = ADC1_RES;
     eac:	80 91 50 06 	lds	r24, 0x0650	; 0x800650 <__TEXT_REGION_LENGTH__+0x700650>
     eb0:	90 91 51 06 	lds	r25, 0x0651	; 0x800651 <__TEXT_REGION_LENGTH__+0x700651>
     eb4:	80 93 c0 3a 	sts	0x3AC0, r24	; 0x803ac0 <adcPhot>
     eb8:	90 93 c1 3a 	sts	0x3AC1, r25	; 0x803ac1 <adcPhot+0x1>
        ADC1_MUXPOS = 0x01;             //Select Hall sensor
     ebc:	81 e0       	ldi	r24, 0x01	; 1
     ebe:	10 c0       	rjmp	.+32     	; 0xee0 <__vector_22+0x4a>
    } else if (ADC1_MUXPOS == 1){
     ec0:	80 91 46 06 	lds	r24, 0x0646	; 0x800646 <__TEXT_REGION_LENGTH__+0x700646>
     ec4:	81 30       	cpi	r24, 0x01	; 1
     ec6:	79 f4       	brne	.+30     	; 0xee6 <__vector_22+0x50>
        PORTA_OUTCLR = 0b00001000;      //Turn off sensor power
     ec8:	88 e0       	ldi	r24, 0x08	; 8
     eca:	80 93 06 04 	sts	0x0406, r24	; 0x800406 <__TEXT_REGION_LENGTH__+0x700406>
        adcHall = ADC1_RES;
     ece:	80 91 50 06 	lds	r24, 0x0650	; 0x800650 <__TEXT_REGION_LENGTH__+0x700650>
     ed2:	90 91 51 06 	lds	r25, 0x0651	; 0x800651 <__TEXT_REGION_LENGTH__+0x700651>
     ed6:	80 93 be 3a 	sts	0x3ABE, r24	; 0x803abe <adcHall>
     eda:	90 93 bf 3a 	sts	0x3ABF, r25	; 0x803abf <adcHall+0x1>
        ADC1_MUXPOS = 0x04;             //select buttons
     ede:	84 e0       	ldi	r24, 0x04	; 4
     ee0:	80 93 46 06 	sts	0x0646, r24	; 0x800646 <__TEXT_REGION_LENGTH__+0x700646>
     ee4:	10 c0       	rjmp	.+32     	; 0xf06 <__vector_22+0x70>
    } else {
        adcBtns = ADC1_RES;
     ee6:	80 91 50 06 	lds	r24, 0x0650	; 0x800650 <__TEXT_REGION_LENGTH__+0x700650>
     eea:	90 91 51 06 	lds	r25, 0x0651	; 0x800651 <__TEXT_REGION_LENGTH__+0x700651>
     eee:	80 93 ba 3a 	sts	0x3ABA, r24	; 0x803aba <adcBtns>
     ef2:	90 93 bb 3a 	sts	0x3ABB, r25	; 0x803abb <adcBtns+0x1>
        if (A1CNT == 15){
     ef6:	8f b3       	in	r24, 0x1f	; 31
     ef8:	8f 30       	cpi	r24, 0x0F	; 15
     efa:	29 f4       	brne	.+10     	; 0xf06 <__vector_22+0x70>
            ADC1_MUXPOS = 0x00;         //Select photo transistor
     efc:	10 92 46 06 	sts	0x0646, r1	; 0x800646 <__TEXT_REGION_LENGTH__+0x700646>
            PORTA_OUTSET = 0b00001000;  //Turn on sensor power
     f00:	88 e0       	ldi	r24, 0x08	; 8
     f02:	80 93 05 04 	sts	0x0405, r24	; 0x800405 <__TEXT_REGION_LENGTH__+0x700405>
        }
    }

    A1CNT=(A1CNT+1)%16;        
     f06:	8f b3       	in	r24, 0x1f	; 31
     f08:	90 e0       	ldi	r25, 0x00	; 0
     f0a:	01 96       	adiw	r24, 0x01	; 1
     f0c:	8f 70       	andi	r24, 0x0F	; 15
     f0e:	99 27       	eor	r25, r25
     f10:	8f bb       	out	0x1f, r24	; 31
    ADC1_INTFLAGS = ADC_RESRDY_bm;
     f12:	81 e0       	ldi	r24, 0x01	; 1
     f14:	80 93 4b 06 	sts	0x064B, r24	; 0x80064b <__TEXT_REGION_LENGTH__+0x70064b>
}
     f18:	9f 91       	pop	r25
     f1a:	8f 91       	pop	r24
     f1c:	0f 90       	pop	r0
     f1e:	0f be       	out	0x3f, r0	; 63
     f20:	0f 90       	pop	r0
     f22:	1f 90       	pop	r1
     f24:	18 95       	reti

00000f26 <__vector_6>:

// RTC compare interrupt, triggers at 512/BTN_TMR rate, also RTC overflow interrupt, triggers once a minute
ISR(RTC_CNT_vect) {
     f26:	1f 92       	push	r1
     f28:	0f 92       	push	r0
     f2a:	0f b6       	in	r0, 0x3f	; 63
     f2c:	0f 92       	push	r0
     f2e:	11 24       	eor	r1, r1
     f30:	2f 93       	push	r18
     f32:	3f 93       	push	r19
     f34:	8f 93       	push	r24
     f36:	9f 93       	push	r25
    if (RTC_INTFLAGS & RTC_CMP_bm){
     f38:	80 91 43 01 	lds	r24, 0x0143	; 0x800143 <__TEXT_REGION_LENGTH__+0x700143>
     f3c:	81 ff       	sbrs	r24, 1
     f3e:	39 c0       	rjmp	.+114    	; 0xfb2 <__vector_6+0x8c>
        if (buttonMark<0xff) buttonMark++;   // For button timing purposes
     f40:	80 91 44 38 	lds	r24, 0x3844	; 0x803844 <buttonMark>
     f44:	8f 3f       	cpi	r24, 0xFF	; 255
     f46:	29 f0       	breq	.+10     	; 0xf52 <__vector_6+0x2c>
     f48:	80 91 44 38 	lds	r24, 0x3844	; 0x803844 <buttonMark>
     f4c:	8f 5f       	subi	r24, 0xFF	; 255
     f4e:	80 93 44 38 	sts	0x3844, r24	; 0x803844 <buttonMark>
        //tmp16bit = (RTC_CNT + BTN_TMR)%RTC_PER;
        tmp16bit = (RTC_CNT + BTN_TMR);
     f52:	80 91 48 01 	lds	r24, 0x0148	; 0x800148 <__TEXT_REGION_LENGTH__+0x700148>
     f56:	90 91 49 01 	lds	r25, 0x0149	; 0x800149 <__TEXT_REGION_LENGTH__+0x700149>
     f5a:	82 96       	adiw	r24, 0x22	; 34
     f5c:	80 93 f2 3a 	sts	0x3AF2, r24	; 0x803af2 <tmp16bit>
     f60:	90 93 f3 3a 	sts	0x3AF3, r25	; 0x803af3 <tmp16bit+0x1>
        if (tmp16bit > RTC_PER) tmp16bit -= RTC_PER;
     f64:	20 91 4a 01 	lds	r18, 0x014A	; 0x80014a <__TEXT_REGION_LENGTH__+0x70014a>
     f68:	30 91 4b 01 	lds	r19, 0x014B	; 0x80014b <__TEXT_REGION_LENGTH__+0x70014b>
     f6c:	80 91 f2 3a 	lds	r24, 0x3AF2	; 0x803af2 <tmp16bit>
     f70:	90 91 f3 3a 	lds	r25, 0x3AF3	; 0x803af3 <tmp16bit+0x1>
     f74:	28 17       	cp	r18, r24
     f76:	39 07       	cpc	r19, r25
     f78:	70 f4       	brcc	.+28     	; 0xf96 <__vector_6+0x70>
     f7a:	20 91 4a 01 	lds	r18, 0x014A	; 0x80014a <__TEXT_REGION_LENGTH__+0x70014a>
     f7e:	30 91 4b 01 	lds	r19, 0x014B	; 0x80014b <__TEXT_REGION_LENGTH__+0x70014b>
     f82:	80 91 f2 3a 	lds	r24, 0x3AF2	; 0x803af2 <tmp16bit>
     f86:	90 91 f3 3a 	lds	r25, 0x3AF3	; 0x803af3 <tmp16bit+0x1>
     f8a:	82 1b       	sub	r24, r18
     f8c:	93 0b       	sbc	r25, r19
     f8e:	80 93 f2 3a 	sts	0x3AF2, r24	; 0x803af2 <tmp16bit>
     f92:	90 93 f3 3a 	sts	0x3AF3, r25	; 0x803af3 <tmp16bit+0x1>
        while(RTC_STATUS & RTC_CMPBUSY_bm);
     f96:	80 91 41 01 	lds	r24, 0x0141	; 0x800141 <__TEXT_REGION_LENGTH__+0x700141>
     f9a:	83 fd       	sbrc	r24, 3
     f9c:	fc cf       	rjmp	.-8      	; 0xf96 <__vector_6+0x70>
        RTC_CMP = tmp16bit;                 // Button timing: next interrupt set
     f9e:	80 91 f2 3a 	lds	r24, 0x3AF2	; 0x803af2 <tmp16bit>
     fa2:	90 91 f3 3a 	lds	r25, 0x3AF3	; 0x803af3 <tmp16bit+0x1>
     fa6:	80 93 4c 01 	sts	0x014C, r24	; 0x80014c <__TEXT_REGION_LENGTH__+0x70014c>
     faa:	90 93 4d 01 	sts	0x014D, r25	; 0x80014d <__TEXT_REGION_LENGTH__+0x70014d>
        RTC_INTFLAGS = RTC_CMP_bm;		    // clear interrupt flag
     fae:	82 e0       	ldi	r24, 0x02	; 2
     fb0:	06 c0       	rjmp	.+12     	; 0xfbe <__vector_6+0x98>
    } else {
        minuteMark++;                       // For very slow timing purposes, overflows to 0
     fb2:	80 91 45 38 	lds	r24, 0x3845	; 0x803845 <minuteMark>
     fb6:	8f 5f       	subi	r24, 0xFF	; 255
     fb8:	80 93 45 38 	sts	0x3845, r24	; 0x803845 <minuteMark>
        RTC_INTFLAGS = RTC_OVF_bm;		    // clear interrupt flag
     fbc:	81 e0       	ldi	r24, 0x01	; 1
     fbe:	80 93 43 01 	sts	0x0143, r24	; 0x800143 <__TEXT_REGION_LENGTH__+0x700143>
    }
}
     fc2:	9f 91       	pop	r25
     fc4:	8f 91       	pop	r24
     fc6:	3f 91       	pop	r19
     fc8:	2f 91       	pop	r18
     fca:	0f 90       	pop	r0
     fcc:	0f be       	out	0x3f, r0	; 63
     fce:	0f 90       	pop	r0
     fd0:	1f 90       	pop	r1
     fd2:	18 95       	reti

00000fd4 <__vector_7>:

// PIT interrupt (timing of ADC1: sensor values)
ISR(RTC_PIT_vect) {						// PIT interrupt handling code
     fd4:	1f 92       	push	r1
     fd6:	0f 92       	push	r0
     fd8:	0f b6       	in	r0, 0x3f	; 63
     fda:	0f 92       	push	r0
     fdc:	11 24       	eor	r1, r1
     fde:	8f 93       	push	r24
    ADC1_COMMAND = 0x01;
     fe0:	81 e0       	ldi	r24, 0x01	; 1
     fe2:	80 93 48 06 	sts	0x0648, r24	; 0x800648 <__TEXT_REGION_LENGTH__+0x700648>
    RTC_PITINTFLAGS = RTC_PI_bm;		// clear interrupt flag
     fe6:	80 93 53 01 	sts	0x0153, r24	; 0x800153 <__TEXT_REGION_LENGTH__+0x700153>
}
     fea:	8f 91       	pop	r24
     fec:	0f 90       	pop	r0
     fee:	0f be       	out	0x3f, r0	; 63
     ff0:	0f 90       	pop	r0
     ff2:	1f 90       	pop	r1
     ff4:	18 95       	reti

00000ff6 <EERead>:

// Read bytes from EEPROM
void EERead(uint8_t eeAddr, uint8_t *eeValues, uint8_t size)
{
    while(NVMCTRL_STATUS & NVMCTRL_EEBUSY_bm);              // Wait until any write operation has finished
     ff6:	90 91 02 10 	lds	r25, 0x1002	; 0x801002 <__TEXT_REGION_LENGTH__+0x701002>
     ffa:	91 fd       	sbrc	r25, 1
     ffc:	fc cf       	rjmp	.-8      	; 0xff6 <EERead>
     ffe:	fb 01       	movw	r30, r22
    1000:	48 0f       	add	r20, r24

    while(size){
    1002:	84 17       	cp	r24, r20
    1004:	39 f0       	breq	.+14     	; 0x1014 <EERead+0x1e>
        *eeValues++ = *(uint8_t *)(EEPROM_START+eeAddr++);  // Read data from buffer
    1006:	a8 2f       	mov	r26, r24
    1008:	b0 e0       	ldi	r27, 0x00	; 0
    100a:	bc 5e       	subi	r27, 0xEC	; 236
    100c:	9c 91       	ld	r25, X
    100e:	91 93       	st	Z+, r25
    1010:	8f 5f       	subi	r24, 0xFF	; 255
    1012:	f7 cf       	rjmp	.-18     	; 0x1002 <EERead+0xc>
        --size;
    }
}
    1014:	08 95       	ret

00001016 <EEWrite>:
{
    uint8_t lastByteOfPage;
    while(size){
        lastByteOfPage = 0;
        while(NVMCTRL_STATUS & NVMCTRL_EEBUSY_bm);              // Wait until any write operation has finished
        CCP = CCP_SPM_gc;                                       // Gain access to NVMCTRL_CTRLA
    1016:	9d e9       	ldi	r25, 0x9D	; 157
        NVMCTRL_CTRLA = NVMCTRL_CMD_PAGEBUFCLR_gc;              // Clear page buffer
    1018:	24 e0       	ldi	r18, 0x04	; 4
            if ((eeAddr % EEPROM_PAGE_SIZE) == (EEPROM_PAGE_SIZE-1)) lastByteOfPage = 1;
            *(uint8_t *)(EEPROM_START+eeAddr++) = *eeValues++;  // Write data to buffer
            --size;
        }
        CCP = CCP_SPM_gc;
        NVMCTRL_CTRLA = NVMCTRL_CMD_PAGEERASEWRITE_gc;          // Erase old data and write new data to EEPROM
    101a:	33 e0       	ldi	r19, 0x03	; 3

// Write bytes to the EEPROM, if address exceeds EEPROM space data wraps around
uint8_t EEWrite(uint8_t eeAddr, uint8_t *eeValues, uint8_t size)
{
    uint8_t lastByteOfPage;
    while(size){
    101c:	44 23       	and	r20, r20
    101e:	09 f1       	breq	.+66     	; 0x1062 <EEWrite+0x4c>
        lastByteOfPage = 0;
        while(NVMCTRL_STATUS & NVMCTRL_EEBUSY_bm);              // Wait until any write operation has finished
    1020:	50 91 02 10 	lds	r21, 0x1002	; 0x801002 <__TEXT_REGION_LENGTH__+0x701002>
    1024:	51 fd       	sbrc	r21, 1
    1026:	fc cf       	rjmp	.-8      	; 0x1020 <EEWrite+0xa>
        CCP = CCP_SPM_gc;                                       // Gain access to NVMCTRL_CTRLA
    1028:	94 bf       	out	0x34, r25	; 52
        NVMCTRL_CTRLA = NVMCTRL_CMD_PAGEBUFCLR_gc;              // Clear page buffer
    102a:	20 93 00 10 	sts	0x1000, r18	; 0x801000 <__TEXT_REGION_LENGTH__+0x701000>
    102e:	e8 2f       	mov	r30, r24
        while((size) && (lastByteOfPage == 0)){
            if ((eeAddr % EEPROM_PAGE_SIZE) == (EEPROM_PAGE_SIZE-1)) lastByteOfPage = 1;
    1030:	58 2f       	mov	r21, r24
    1032:	5f 71       	andi	r21, 0x1F	; 31
            *(uint8_t *)(EEPROM_START+eeAddr++) = *eeValues++;  // Write data to buffer
    1034:	8f 5f       	subi	r24, 0xFF	; 255
    1036:	6f 5f       	subi	r22, 0xFF	; 255
    1038:	7f 4f       	sbci	r23, 0xFF	; 255
    103a:	db 01       	movw	r26, r22
    103c:	11 97       	sbiw	r26, 0x01	; 1
    103e:	ac 91       	ld	r26, X
    1040:	f0 e0       	ldi	r31, 0x00	; 0
    1042:	fc 5e       	subi	r31, 0xEC	; 236
    1044:	a0 83       	st	Z, r26
            --size;
    1046:	41 50       	subi	r20, 0x01	; 1
    while(size){
        lastByteOfPage = 0;
        while(NVMCTRL_STATUS & NVMCTRL_EEBUSY_bm);              // Wait until any write operation has finished
        CCP = CCP_SPM_gc;                                       // Gain access to NVMCTRL_CTRLA
        NVMCTRL_CTRLA = NVMCTRL_CMD_PAGEBUFCLR_gc;              // Clear page buffer
        while((size) && (lastByteOfPage == 0)){
    1048:	19 f0       	breq	.+6      	; 0x1050 <EEWrite+0x3a>
            if ((eeAddr % EEPROM_PAGE_SIZE) == (EEPROM_PAGE_SIZE-1)) lastByteOfPage = 1;
            *(uint8_t *)(EEPROM_START+eeAddr++) = *eeValues++;  // Write data to buffer
    104a:	e8 2f       	mov	r30, r24
    while(size){
        lastByteOfPage = 0;
        while(NVMCTRL_STATUS & NVMCTRL_EEBUSY_bm);              // Wait until any write operation has finished
        CCP = CCP_SPM_gc;                                       // Gain access to NVMCTRL_CTRLA
        NVMCTRL_CTRLA = NVMCTRL_CMD_PAGEBUFCLR_gc;              // Clear page buffer
        while((size) && (lastByteOfPage == 0)){
    104c:	5f 31       	cpi	r21, 0x1F	; 31
    104e:	81 f7       	brne	.-32     	; 0x1030 <EEWrite+0x1a>
            if ((eeAddr % EEPROM_PAGE_SIZE) == (EEPROM_PAGE_SIZE-1)) lastByteOfPage = 1;
            *(uint8_t *)(EEPROM_START+eeAddr++) = *eeValues++;  // Write data to buffer
            --size;
        }
        CCP = CCP_SPM_gc;
    1050:	94 bf       	out	0x34, r25	; 52
        NVMCTRL_CTRLA = NVMCTRL_CMD_PAGEERASEWRITE_gc;          // Erase old data and write new data to EEPROM
    1052:	30 93 00 10 	sts	0x1000, r19	; 0x801000 <__TEXT_REGION_LENGTH__+0x701000>
        if (NVMCTRL_STATUS & NVMCTRL_WRERROR_bm) return 1;
    1056:	50 91 02 10 	lds	r21, 0x1002	; 0x801002 <__TEXT_REGION_LENGTH__+0x701002>
    105a:	52 ff       	sbrs	r21, 2
    105c:	df cf       	rjmp	.-66     	; 0x101c <EEWrite+0x6>
    105e:	81 e0       	ldi	r24, 0x01	; 1
    }
    return 0;
}
    1060:	08 95       	ret
        }
        CCP = CCP_SPM_gc;
        NVMCTRL_CTRLA = NVMCTRL_CMD_PAGEERASEWRITE_gc;          // Erase old data and write new data to EEPROM
        if (NVMCTRL_STATUS & NVMCTRL_WRERROR_bm) return 1;
    }
    return 0;
    1062:	80 e0       	ldi	r24, 0x00	; 0
    1064:	08 95       	ret

00001066 <DecryptData>:
}

//Decrypts data read from I2C EEPROM, max 255 bytes at a time
void DecryptData(uint16_t offset, uint8_t length, uint8_t type, uint8_t *data){
    1066:	f9 01       	movw	r30, r18
    //offset += L_BOILER;
    while(length){
        *data ^= xor_key[type][(uint8_t)(offset%KEY_LENGTH)];
    1068:	9c 01       	movw	r18, r24
    106a:	2e 1b       	sub	r18, r30
    106c:	3f 0b       	sbc	r19, r31
    106e:	88 e0       	ldi	r24, 0x08	; 8
    1070:	48 9f       	mul	r20, r24
    1072:	a0 01       	movw	r20, r0
    1074:	11 24       	eor	r1, r1
    1076:	48 58       	subi	r20, 0x88	; 136
    1078:	50 44       	sbci	r21, 0x40	; 64
}

//Decrypts data read from I2C EEPROM, max 255 bytes at a time
void DecryptData(uint16_t offset, uint8_t length, uint8_t type, uint8_t *data){
    //offset += L_BOILER;
    while(length){
    107a:	66 23       	and	r22, r22
    107c:	69 f0       	breq	.+26     	; 0x1098 <DecryptData+0x32>
        *data ^= xor_key[type][(uint8_t)(offset%KEY_LENGTH)];
    107e:	df 01       	movw	r26, r30
    1080:	a2 0f       	add	r26, r18
    1082:	b3 1f       	adc	r27, r19
    1084:	a7 70       	andi	r26, 0x07	; 7
    1086:	bb 27       	eor	r27, r27
    1088:	a4 0f       	add	r26, r20
    108a:	b5 1f       	adc	r27, r21
    108c:	80 81       	ld	r24, Z
    108e:	9c 91       	ld	r25, X
    1090:	98 27       	eor	r25, r24
    1092:	91 93       	st	Z+, r25
        ++data;
        ++offset;
        --length;
    1094:	61 50       	subi	r22, 0x01	; 1
    1096:	f1 cf       	rjmp	.-30     	; 0x107a <DecryptData+0x14>
    }
}
    1098:	08 95       	ret

0000109a <ExtEERead>:

//Game data: Read a number of bytes and decrypt
uint8_t ExtEERead(uint16_t offset, uint8_t length, uint8_t type, uint8_t *data){
    109a:	af 92       	push	r10
    109c:	bf 92       	push	r11
    109e:	cf 92       	push	r12
    10a0:	df 92       	push	r13
    10a2:	ef 92       	push	r14
    10a4:	ff 92       	push	r15
    10a6:	0f 93       	push	r16
    10a8:	1f 93       	push	r17
    10aa:	cf 93       	push	r28
    10ac:	df 93       	push	r29
    10ae:	00 d0       	rcall	.+0      	; 0x10b0 <ExtEERead+0x16>
    10b0:	cd b7       	in	r28, 0x3d	; 61
    10b2:	de b7       	in	r29, 0x3e	; 62
    10b4:	d6 2e       	mov	r13, r22
    10b6:	c4 2e       	mov	r12, r20
    10b8:	59 01       	movw	r10, r18
    offset &=EXT_EE_MAX;
    10ba:	7c 01       	movw	r14, r24
    10bc:	e8 94       	clt
    10be:	f7 f8       	bld	r15, 7
    uint8_t reg[2] = {(uint8_t)(offset>>8), (uint8_t)(offset&0xff)};
    10c0:	f9 82       	std	Y+1, r15	; 0x01
    10c2:	ea 82       	std	Y+2, r14	; 0x02
    uint8_t error = (I2C_read_bytes(EE_I2C_ADDR, &reg[0], 2, data, length));
    10c4:	06 2f       	mov	r16, r22
    10c6:	42 e0       	ldi	r20, 0x02	; 2
    10c8:	be 01       	movw	r22, r28
    10ca:	6f 5f       	subi	r22, 0xFF	; 255
    10cc:	7f 4f       	sbci	r23, 0xFF	; 255
    10ce:	80 e5       	ldi	r24, 0x50	; 80
    10d0:	17 da       	rcall	.-3026   	; 0x500 <I2C_read_bytes>
    10d2:	18 2f       	mov	r17, r24
    if (error) return error;
    10d4:	81 11       	cpse	r24, r1
    10d6:	05 c0       	rjmp	.+10     	; 0x10e2 <ExtEERead+0x48>
    DecryptData(offset, length, type, data);
    10d8:	95 01       	movw	r18, r10
    10da:	4c 2d       	mov	r20, r12
    10dc:	6d 2d       	mov	r22, r13
    10de:	c7 01       	movw	r24, r14
    10e0:	c2 df       	rcall	.-124    	; 0x1066 <DecryptData>
    return 0;
}
    10e2:	81 2f       	mov	r24, r17
    10e4:	0f 90       	pop	r0
    10e6:	0f 90       	pop	r0
    10e8:	df 91       	pop	r29
    10ea:	cf 91       	pop	r28
    10ec:	1f 91       	pop	r17
    10ee:	0f 91       	pop	r16
    10f0:	ff 90       	pop	r15
    10f2:	ef 90       	pop	r14
    10f4:	df 90       	pop	r13
    10f6:	cf 90       	pop	r12
    10f8:	bf 90       	pop	r11
    10fa:	af 90       	pop	r10
    10fc:	08 95       	ret

000010fe <SerSend>:

// Sends a set of characters to the serial port, stops only when character value 0 is reached.
uint8_t SerSend(unsigned char *addr){
    if (serTxDone){
    10fe:	20 91 09 38 	lds	r18, 0x3809	; 0x803809 <serTxDone>
    1102:	22 23       	and	r18, r18
    1104:	59 f0       	breq	.+22     	; 0x111c <SerSend+0x1e>
        serTxAddr = addr;
    1106:	80 93 bc 3a 	sts	0x3ABC, r24	; 0x803abc <serTxAddr>
    110a:	90 93 bd 3a 	sts	0x3ABD, r25	; 0x803abd <serTxAddr+0x1>
        serTxDone = 0;
    110e:	10 92 09 38 	sts	0x3809, r1	; 0x803809 <serTxDone>
        TCB0_INTCTRL = 0x01;
    1112:	81 e0       	ldi	r24, 0x01	; 1
    1114:	80 93 45 0a 	sts	0x0A45, r24	; 0x800a45 <__TEXT_REGION_LENGTH__+0x700a45>
        return 0;
    1118:	80 e0       	ldi	r24, 0x00	; 0
    111a:	08 95       	ret
    } else return 1;    //Error: Still sending data
    111c:	81 e0       	ldi	r24, 0x01	; 1
};
    111e:	08 95       	ret

00001120 <SerSpeed>:

// Set serial character output speed, 255-0 (0.8 to 100ms delay between characters)
void SerSpeed(uint8_t serSpd){
    1120:	28 2f       	mov	r18, r24
    if (serSpd<1) serSpd = 1;
    1122:	81 11       	cpse	r24, r1
    1124:	01 c0       	rjmp	.+2      	; 0x1128 <SerSpeed+0x8>
    1126:	21 e0       	ldi	r18, 0x01	; 1
    TCB0_CCMP = ((uint16_t)(0xFF-serSpd)<<8) + 0xFF;
    1128:	8f ef       	ldi	r24, 0xFF	; 255
    112a:	90 e0       	ldi	r25, 0x00	; 0
    112c:	82 1b       	sub	r24, r18
    112e:	91 09       	sbc	r25, r1
    1130:	98 2f       	mov	r25, r24
    1132:	88 27       	eor	r24, r24
    1134:	81 50       	subi	r24, 0x01	; 1
    1136:	9f 4f       	sbci	r25, 0xFF	; 255
    1138:	80 93 4c 0a 	sts	0x0A4C, r24	; 0x800a4c <__TEXT_REGION_LENGTH__+0x700a4c>
    113c:	90 93 4d 0a 	sts	0x0A4D, r25	; 0x800a4d <__TEXT_REGION_LENGTH__+0x700a4d>
    1140:	08 95       	ret

00001142 <SelectTSens>:
};

// Select temperature sensor
void SelectTSens(){
     VREF_CTRLA   = 0x12;    //0x22 for audio in/out (2.5V), 0x12 for temperature in, audio out (1.1V/2.5V)
    1142:	82 e1       	ldi	r24, 0x12	; 18
    1144:	80 93 a0 00 	sts	0x00A0, r24	; 0x8000a0 <__TEXT_REGION_LENGTH__+0x7000a0>
     ADC0_CTRLA   &= ~(ADC_RESSEL_bm);
    1148:	e0 e0       	ldi	r30, 0x00	; 0
    114a:	f6 e0       	ldi	r31, 0x06	; 6
    114c:	80 81       	ld	r24, Z
    114e:	8b 7f       	andi	r24, 0xFB	; 251
    1150:	80 83       	st	Z, r24
     ADC0_MUXPOS  = 0x1E;    //Audio in: AIN7 at (0x07), Temperature: Internal sensor at (0x1E)
    1152:	8e e1       	ldi	r24, 0x1E	; 30
    1154:	80 93 06 06 	sts	0x0606, r24	; 0x800606 <__TEXT_REGION_LENGTH__+0x700606>
     adc0Chg = 3;
    1158:	83 e0       	ldi	r24, 0x03	; 3
    115a:	80 93 3a 38 	sts	0x383A, r24	; 0x80383a <adc0Chg>
    115e:	08 95       	ret

00001160 <SelectAuIn>:
};

// Select "audio" input (0-2.5V)
void SelectAuIn(){
     VREF_CTRLA   = 0x22;    //0x22 for audio in/out (2.5V), 0x12 for temperature in, audio out (1.1V/2.5V)
    1160:	82 e2       	ldi	r24, 0x22	; 34
    1162:	80 93 a0 00 	sts	0x00A0, r24	; 0x8000a0 <__TEXT_REGION_LENGTH__+0x7000a0>
     ADC0_CTRLA   |= ADC_RESSEL_bm;
    1166:	e0 e0       	ldi	r30, 0x00	; 0
    1168:	f6 e0       	ldi	r31, 0x06	; 6
    116a:	80 81       	ld	r24, Z
    116c:	84 60       	ori	r24, 0x04	; 4
    116e:	80 83       	st	Z, r24
     ADC0_MUXPOS  = 0x07;    //Audio in: AIN7 at (0x07), Temperature: Internal sensor at (0x1E)
    1170:	87 e0       	ldi	r24, 0x07	; 7
    1172:	80 93 06 06 	sts	0x0606, r24	; 0x800606 <__TEXT_REGION_LENGTH__+0x700606>
     adc0Chg = 3;
    1176:	83 e0       	ldi	r24, 0x03	; 3
    1178:	80 93 3a 38 	sts	0x383A, r24	; 0x80383a <adc0Chg>
    117c:	08 95       	ret

0000117e <CheckButtons>:
};

// Returns button combination (4LSB) and number of consecutive times this combination is detected. First read should always be ignored! 
uint8_t CheckButtons(){
    static uint8_t previousValue = 0xFF;
    uint8_t bADC = (uint8_t)(adcBtns>>4);
    117e:	80 91 ba 3a 	lds	r24, 0x3ABA	; 0x803aba <adcBtns>
    1182:	90 91 bb 3a 	lds	r25, 0x3ABB	; 0x803abb <adcBtns+0x1>
    uint8_t button = 0xFF;     //FF = released or error

        switch(bADC){
    1186:	24 e0       	ldi	r18, 0x04	; 4
    1188:	96 95       	lsr	r25
    118a:	87 95       	ror	r24
    118c:	2a 95       	dec	r18
    118e:	e1 f7       	brne	.-8      	; 0x1188 <CheckButtons+0xa>
    1190:	99 27       	eor	r25, r25
    1192:	80 36       	cpi	r24, 0x60	; 96
    1194:	91 05       	cpc	r25, r1
    1196:	40 f4       	brcc	.+16     	; 0x11a8 <CheckButtons+0x2a>
    1198:	8f 34       	cpi	r24, 0x4F	; 79
    119a:	91 05       	cpc	r25, r1
    119c:	88 f4       	brcc	.+34     	; 0x11c0 <CheckButtons+0x42>
    119e:	c0 97       	sbiw	r24, 0x30	; 48
    11a0:	09 97       	sbiw	r24, 0x09	; 9
    11a2:	90 f4       	brcc	.+36     	; 0x11c8 <CheckButtons+0x4a>

            case 48 ... 56:          //52: Bottom left (+/-4)
            button = 2;
    11a4:	92 e0       	ldi	r25, 0x02	; 2
    11a6:	11 c0       	rjmp	.+34     	; 0x11ca <CheckButtons+0x4c>
uint8_t CheckButtons(){
    static uint8_t previousValue = 0xFF;
    uint8_t bADC = (uint8_t)(adcBtns>>4);
    uint8_t button = 0xFF;     //FF = released or error

        switch(bADC){
    11a8:	85 37       	cpi	r24, 0x75	; 117
    11aa:	91 05       	cpc	r25, r1
    11ac:	68 f0       	brcs	.+26     	; 0x11c8 <CheckButtons+0x4a>
    11ae:	8e 38       	cpi	r24, 0x8E	; 142
    11b0:	91 05       	cpc	r25, r1
    11b2:	40 f0       	brcs	.+16     	; 0x11c4 <CheckButtons+0x46>
    11b4:	8e 59       	subi	r24, 0x9E	; 158
    11b6:	91 09       	sbc	r25, r1
    11b8:	81 97       	sbiw	r24, 0x21	; 33
    11ba:	30 f4       	brcc	.+12     	; 0x11c8 <CheckButtons+0x4a>
            case 117 ... 141:        //129: Top right (+/- 12)
            button = 1;
            break;

            case 158 ... 190:        //174: Bottom right (+/- 16)
            button = 0;
    11bc:	90 e0       	ldi	r25, 0x00	; 0
            break;
    11be:	05 c0       	rjmp	.+10     	; 0x11ca <CheckButtons+0x4c>
            case 48 ... 56:          //52: Bottom left (+/-4)
            button = 2;
            break;

            case 79 ... 95:          //87: Top left (+/-8)
            button = 3;
    11c0:	93 e0       	ldi	r25, 0x03	; 3
            break;
    11c2:	03 c0       	rjmp	.+6      	; 0x11ca <CheckButtons+0x4c>

            case 117 ... 141:        //129: Top right (+/- 12)
            button = 1;
    11c4:	91 e0       	ldi	r25, 0x01	; 1
            break;
    11c6:	01 c0       	rjmp	.+2      	; 0x11ca <CheckButtons+0x4c>

// Returns button combination (4LSB) and number of consecutive times this combination is detected. First read should always be ignored! 
uint8_t CheckButtons(){
    static uint8_t previousValue = 0xFF;
    uint8_t bADC = (uint8_t)(adcBtns>>4);
    uint8_t button = 0xFF;     //FF = released or error
    11c8:	9f ef       	ldi	r25, 0xFF	; 255
            case 158 ... 190:        //174: Bottom right (+/- 16)
            button = 0;
            break;
        }

        if (((previousValue+1)== 0) || (button != previousValue)) {
    11ca:	80 91 27 38 	lds	r24, 0x3827	; 0x803827 <previousValue.3900>
    11ce:	98 17       	cp	r25, r24
    11d0:	19 f0       	breq	.+6      	; 0x11d8 <CheckButtons+0x5a>
            previousValue = button;
    11d2:	90 93 27 38 	sts	0x3827, r25	; 0x803827 <previousValue.3900>
            return 0xFF;
    11d6:	8f ef       	ldi	r24, 0xFF	; 255
        } else return button;

}
    11d8:	08 95       	ret

000011da <lfsr>:

uint8_t lfsr(){
    static uint16_t state = 0xd401;
    state ^= (state << 13);
    11da:	80 91 25 38 	lds	r24, 0x3825	; 0x803825 <state.3910>
    11de:	90 91 26 38 	lds	r25, 0x3826	; 0x803826 <state.3910+0x1>
    11e2:	9c 01       	movw	r18, r24
    11e4:	32 2f       	mov	r19, r18
    11e6:	22 27       	eor	r18, r18
    11e8:	32 95       	swap	r19
    11ea:	33 0f       	add	r19, r19
    11ec:	30 7e       	andi	r19, 0xE0	; 224
    11ee:	82 27       	eor	r24, r18
    11f0:	93 27       	eor	r25, r19
    state ^= (state >> 9);
    11f2:	9c 01       	movw	r18, r24
    11f4:	23 2f       	mov	r18, r19
    11f6:	33 27       	eor	r19, r19
    11f8:	26 95       	lsr	r18
    11fa:	82 27       	eor	r24, r18
    11fc:	93 27       	eor	r25, r19
    state ^= (state << 7);
    11fe:	9c 01       	movw	r18, r24
    1200:	36 95       	lsr	r19
    1202:	32 2f       	mov	r19, r18
    1204:	22 27       	eor	r18, r18
    1206:	37 95       	ror	r19
    1208:	27 95       	ror	r18
    120a:	82 27       	eor	r24, r18
    120c:	93 27       	eor	r25, r19
    120e:	80 93 25 38 	sts	0x3825, r24	; 0x803825 <state.3910>
    1212:	90 93 26 38 	sts	0x3826, r25	; 0x803826 <state.3910+0x1>
    return (state & 0xff);
}
    1216:	08 95       	ret

00001218 <floatSpeed>:

void floatSpeed(uint8_t bits, uint16_t min, uint16_t max){
    1218:	df 92       	push	r13
    121a:	ef 92       	push	r14
    121c:	ff 92       	push	r15
    121e:	0f 93       	push	r16
    1220:	1f 93       	push	r17
    1222:	cf 93       	push	r28
    1224:	df 93       	push	r29
    1226:	7b 01       	movw	r14, r22
    1228:	8a 01       	movw	r16, r20
    uint16_t val = TCB1_CCMP;
    122a:	c0 91 5c 0a 	lds	r28, 0x0A5C	; 0x800a5c <__TEXT_REGION_LENGTH__+0x700a5c>
    122e:	d0 91 5d 0a 	lds	r29, 0x0A5D	; 0x800a5d <__TEXT_REGION_LENGTH__+0x700a5d>
    bits = mask[(bits-1)&0x07];
    1232:	e8 2f       	mov	r30, r24
    1234:	f0 e0       	ldi	r31, 0x00	; 0
    1236:	31 97       	sbiw	r30, 0x01	; 1
    1238:	e7 70       	andi	r30, 0x07	; 7
    123a:	ff 27       	eor	r31, r31
    123c:	e8 5d       	subi	r30, 0xD8	; 216
    123e:	f7 4c       	sbci	r31, 0xC7	; 199
    1240:	d0 80       	ld	r13, Z
    val += (lfsr()&bits);
    1242:	cb df       	rcall	.-106    	; 0x11da <lfsr>
    1244:	8d 21       	and	r24, r13
    1246:	c8 0f       	add	r28, r24
    1248:	d1 1d       	adc	r29, r1
    val -= (lfsr()&bits);
    124a:	c7 df       	rcall	.-114    	; 0x11da <lfsr>
    124c:	8d 21       	and	r24, r13
    124e:	c8 1b       	sub	r28, r24
    1250:	d1 09       	sbc	r29, r1
    1252:	0c 17       	cp	r16, r28
    1254:	1d 07       	cpc	r17, r29
    1256:	08 f4       	brcc	.+2      	; 0x125a <floatSpeed+0x42>
    1258:	e8 01       	movw	r28, r16
    125a:	c7 01       	movw	r24, r14
    125c:	ec 16       	cp	r14, r28
    125e:	fd 06       	cpc	r15, r29
    1260:	08 f4       	brcc	.+2      	; 0x1264 <floatSpeed+0x4c>
    1262:	ce 01       	movw	r24, r28
    1264:	80 93 5c 0a 	sts	0x0A5C, r24	; 0x800a5c <__TEXT_REGION_LENGTH__+0x700a5c>
    if (val > max) val = max;    
    if (val < min) val = min;  
    TCB1_CCMP = val;
    1268:	90 93 5d 0a 	sts	0x0A5D, r25	; 0x800a5d <__TEXT_REGION_LENGTH__+0x700a5d>
    126c:	df 91       	pop	r29
}
    126e:	cf 91       	pop	r28
    1270:	1f 91       	pop	r17
    1272:	0f 91       	pop	r16
    1274:	ff 90       	pop	r15
    1276:	ef 90       	pop	r14
    1278:	df 90       	pop	r13
    127a:	08 95       	ret

0000127c <floatAround>:
    127c:	0f 93       	push	r16

uint8_t floatAround(uint8_t sample, uint8_t bits, uint8_t min, uint8_t max){
    127e:	1f 93       	push	r17
    1280:	cf 93       	push	r28
    1282:	df 93       	push	r29
    1284:	c8 2f       	mov	r28, r24
    1286:	d4 2f       	mov	r29, r20
    1288:	02 2f       	mov	r16, r18
    bits = mask[(bits-1)&0x07];
    128a:	e6 2f       	mov	r30, r22
    128c:	f0 e0       	ldi	r31, 0x00	; 0
    128e:	31 97       	sbiw	r30, 0x01	; 1
    1290:	e7 70       	andi	r30, 0x07	; 7
    1292:	ff 27       	eor	r31, r31
    1294:	e8 5d       	subi	r30, 0xD8	; 216
    1296:	f7 4c       	sbci	r31, 0xC7	; 199
    1298:	10 81       	ld	r17, Z
    sample += lfsr()&bits;
    129a:	9f df       	rcall	.-194    	; 0x11da <lfsr>
    129c:	81 23       	and	r24, r17
    129e:	c8 0f       	add	r28, r24
    sample -= lfsr()&bits;
    12a0:	9c df       	rcall	.-200    	; 0x11da <lfsr>
    12a2:	81 23       	and	r24, r17
    12a4:	c8 1b       	sub	r28, r24
    12a6:	8c 2f       	mov	r24, r28
    12a8:	00 23       	and	r16, r16
    if (max){
    12aa:	41 f0       	breq	.+16     	; 0x12bc <floatAround+0x40>
    12ac:	9c 2f       	mov	r25, r28
    12ae:	0c 17       	cp	r16, r28
    12b0:	08 f4       	brcc	.+2      	; 0x12b4 <floatAround+0x38>
    12b2:	90 2f       	mov	r25, r16
    12b4:	8d 2f       	mov	r24, r29
    12b6:	d9 17       	cp	r29, r25
    12b8:	08 f4       	brcc	.+2      	; 0x12bc <floatAround+0x40>
    12ba:	89 2f       	mov	r24, r25
    12bc:	41 e0       	ldi	r20, 0x01	; 1
        if (sample > max) sample = max;
        if (sample < min) sample = min;
    }
    if (min & (sample < min)) sample = min;
    12be:	50 e0       	ldi	r21, 0x00	; 0
    12c0:	8d 17       	cp	r24, r29
    12c2:	10 f0       	brcs	.+4      	; 0x12c8 <floatAround+0x4c>
    12c4:	40 e0       	ldi	r20, 0x00	; 0
    12c6:	50 e0       	ldi	r21, 0x00	; 0
    12c8:	2d 2f       	mov	r18, r29
    12ca:	30 e0       	ldi	r19, 0x00	; 0
    12cc:	24 23       	and	r18, r20
    12ce:	35 23       	and	r19, r21
    12d0:	23 2b       	or	r18, r19
    12d2:	09 f0       	breq	.+2      	; 0x12d6 <floatAround+0x5a>
    12d4:	8d 2f       	mov	r24, r29
    12d6:	df 91       	pop	r29

    return sample;
}
    12d8:	cf 91       	pop	r28
    12da:	1f 91       	pop	r17
    12dc:	0f 91       	pop	r16
    12de:	08 95       	ret

000012e0 <SaveGameState>:
    12e0:	cf 92       	push	r12
    inventory[0] = (gameState[INVADDR]<<8|gameState[INVADDR+1]);
    inventory[1] = (gameState[INVADDR+2]<<8|gameState[INVADDR+3]);
}

//Save changed data to EEPROM
uint8_t SaveGameState(){
    12e2:	df 92       	push	r13
    12e4:	ff 92       	push	r15
    12e6:	0f 93       	push	r16
    12e8:	1f 93       	push	r17
    12ea:	cf 93       	push	r28
    12ec:	df 93       	push	r29
    12ee:	cd b7       	in	r28, 0x3d	; 61
    12f0:	de b7       	in	r29, 0x3e	; 62
    12f2:	64 97       	sbiw	r28, 0x14	; 20
    12f4:	cd bf       	out	0x3d, r28	; 61
    12f6:	de bf       	out	0x3e, r29	; 62
    uint8_t gameCheck[BOOTCHK];

    //Read all data up to the boot/check result address from EEPROM
    EERead(0, &gameCheck[0], BOOTCHK);
    12f8:	44 e1       	ldi	r20, 0x14	; 20
    12fa:	be 01       	movw	r22, r28
    12fc:	6f 5f       	subi	r22, 0xFF	; 255
    12fe:	7f 4f       	sbci	r23, 0xFF	; 255
    1300:	80 e0       	ldi	r24, 0x00	; 0
    1302:	79 de       	rcall	.-782    	; 0xff6 <EERead>
    1304:	84 e6       	ldi	r24, 0x64	; 100
    1306:	c8 2e       	mov	r12, r24
    1308:	8a e3       	ldi	r24, 0x3A	; 58
    130a:	d8 2e       	mov	r13, r24
    130c:	8e 01       	movw	r16, r28
    130e:	0f 5f       	subi	r16, 0xFF	; 255
    1310:	1f 4f       	sbci	r17, 0xFF	; 255

    //Check game status bits
    for (uint8_t x=0; x<STATLEN; ++x){
    1312:	f1 2c       	mov	r15, r1
        if (gameState[x] != gameCheck[x]){
    1314:	f8 01       	movw	r30, r16
    1316:	81 91       	ld	r24, Z+
    1318:	8f 01       	movw	r16, r30
    131a:	f6 01       	movw	r30, r12
    131c:	90 81       	ld	r25, Z
    131e:	98 13       	cpse	r25, r24
    1320:	08 c0       	rjmp	.+16     	; 0x1332 <SaveGameState+0x52>

    //Read all data up to the boot/check result address from EEPROM
    EERead(0, &gameCheck[0], BOOTCHK);

    //Check game status bits
    for (uint8_t x=0; x<STATLEN; ++x){
    1322:	f3 94       	inc	r15
    1324:	ff ef       	ldi	r31, 0xFF	; 255
    1326:	cf 1a       	sub	r12, r31
    1328:	df 0a       	sbc	r13, r31
    132a:	80 e1       	ldi	r24, 0x10	; 16
    132c:	f8 12       	cpse	r15, r24
    132e:	f2 cf       	rjmp	.-28     	; 0x1314 <SaveGameState+0x34>
    1330:	08 c0       	rjmp	.+16     	; 0x1342 <SaveGameState+0x62>
        if (gameState[x] != gameCheck[x]){
            if (EEWrite(x, &gameState[x], 1)) return 1;
    1332:	41 e0       	ldi	r20, 0x01	; 1
    1334:	b6 01       	movw	r22, r12
    1336:	8f 2d       	mov	r24, r15
    1338:	6e de       	rcall	.-804    	; 0x1016 <EEWrite>
    133a:	88 23       	and	r24, r24
    133c:	91 f3       	breq	.-28     	; 0x1322 <SaveGameState+0x42>
    133e:	91 e0       	ldi	r25, 0x01	; 1
    1340:	36 c0       	rjmp	.+108    	; 0x13ae <SaveGameState+0xce>
        }
    }

    //Check the inventory too
    gameState[INVADDR] = (uint8_t)(inventory[0]>>8);
    1342:	20 91 40 38 	lds	r18, 0x3840	; 0x803840 <inventory>
    1346:	30 91 41 38 	lds	r19, 0x3841	; 0x803841 <inventory+0x1>
    134a:	30 93 74 3a 	sts	0x3A74, r19	; 0x803a74 <gameState+0x10>
    gameState[INVADDR+1] = (uint8_t)(inventory[0]&0xff);
    134e:	20 93 75 3a 	sts	0x3A75, r18	; 0x803a75 <gameState+0x11>
    gameState[INVADDR+2] = (uint8_t)(inventory[1]>>8);
    1352:	80 91 42 38 	lds	r24, 0x3842	; 0x803842 <inventory+0x2>
    1356:	90 91 43 38 	lds	r25, 0x3843	; 0x803843 <inventory+0x3>
    135a:	90 93 76 3a 	sts	0x3A76, r25	; 0x803a76 <gameState+0x12>
    gameState[INVADDR+3] = (uint8_t)(inventory[1]&0xff);
    135e:	80 93 77 3a 	sts	0x3A77, r24	; 0x803a77 <gameState+0x13>
    if (inventory[0] != (gameCheck[INVADDR]<<8|gameCheck[INVADDR+1])) {
    1362:	89 89       	ldd	r24, Y+17	; 0x11
    1364:	9a 89       	ldd	r25, Y+18	; 0x12
    1366:	98 27       	eor	r25, r24
    1368:	89 27       	eor	r24, r25
    136a:	98 27       	eor	r25, r24
    136c:	28 17       	cp	r18, r24
    136e:	39 07       	cpc	r19, r25
    1370:	69 f4       	brne	.+26     	; 0x138c <SaveGameState+0xac>
        if (EEWrite(INVADDR, &gameState[INVADDR], 2)) return 1;
    }
    if (inventory[1] != (gameCheck[INVADDR+2]<<8|gameCheck[INVADDR+3])) {
    1372:	8b 89       	ldd	r24, Y+19	; 0x13
    1374:	9c 89       	ldd	r25, Y+20	; 0x14
    1376:	98 27       	eor	r25, r24
    1378:	89 27       	eor	r24, r25
    137a:	98 27       	eor	r25, r24
    137c:	20 91 42 38 	lds	r18, 0x3842	; 0x803842 <inventory+0x2>
    1380:	30 91 43 38 	lds	r19, 0x3843	; 0x803843 <inventory+0x3>
    1384:	28 17       	cp	r18, r24
    1386:	39 07       	cpc	r19, r25
    1388:	49 f4       	brne	.+18     	; 0x139c <SaveGameState+0xbc>
    138a:	10 c0       	rjmp	.+32     	; 0x13ac <SaveGameState+0xcc>
    gameState[INVADDR] = (uint8_t)(inventory[0]>>8);
    gameState[INVADDR+1] = (uint8_t)(inventory[0]&0xff);
    gameState[INVADDR+2] = (uint8_t)(inventory[1]>>8);
    gameState[INVADDR+3] = (uint8_t)(inventory[1]&0xff);
    if (inventory[0] != (gameCheck[INVADDR]<<8|gameCheck[INVADDR+1])) {
        if (EEWrite(INVADDR, &gameState[INVADDR], 2)) return 1;
    138c:	42 e0       	ldi	r20, 0x02	; 2
    138e:	64 e7       	ldi	r22, 0x74	; 116
    1390:	7a e3       	ldi	r23, 0x3A	; 58
    1392:	80 e1       	ldi	r24, 0x10	; 16
    1394:	40 de       	rcall	.-896    	; 0x1016 <EEWrite>
    1396:	88 23       	and	r24, r24
    1398:	61 f3       	breq	.-40     	; 0x1372 <SaveGameState+0x92>
    139a:	d1 cf       	rjmp	.-94     	; 0x133e <SaveGameState+0x5e>
    }
    if (inventory[1] != (gameCheck[INVADDR+2]<<8|gameCheck[INVADDR+3])) {
        if (EEWrite(INVADDR+2, &gameState[INVADDR+2], 2)) return 1;
    139c:	42 e0       	ldi	r20, 0x02	; 2
    139e:	66 e7       	ldi	r22, 0x76	; 118
    13a0:	7a e3       	ldi	r23, 0x3A	; 58
    13a2:	82 e1       	ldi	r24, 0x12	; 18
    13a4:	38 de       	rcall	.-912    	; 0x1016 <EEWrite>
    EERead(0, &gameCheck[0], BOOTCHK);

    //Check game status bits
    for (uint8_t x=0; x<STATLEN; ++x){
        if (gameState[x] != gameCheck[x]){
            if (EEWrite(x, &gameState[x], 1)) return 1;
    13a6:	91 e0       	ldi	r25, 0x01	; 1
    13a8:	81 11       	cpse	r24, r1
    13aa:	01 c0       	rjmp	.+2      	; 0x13ae <SaveGameState+0xce>
    13ac:	90 e0       	ldi	r25, 0x00	; 0
    if (inventory[1] != (gameCheck[INVADDR+2]<<8|gameCheck[INVADDR+3])) {
        if (EEWrite(INVADDR+2, &gameState[INVADDR+2], 2)) return 1;
    }

    return 0;
}
    13ae:	89 2f       	mov	r24, r25
    13b0:	64 96       	adiw	r28, 0x14	; 20
    13b2:	cd bf       	out	0x3d, r28	; 61
    13b4:	de bf       	out	0x3e, r29	; 62
    13b6:	df 91       	pop	r29
    13b8:	cf 91       	pop	r28
    13ba:	1f 91       	pop	r17
    13bc:	0f 91       	pop	r16
    13be:	ff 90       	pop	r15
    13c0:	df 90       	pop	r13
    13c2:	cf 90       	pop	r12
    13c4:	08 95       	ret

000013c6 <ReadStatusBit>:

uint8_t ReadStatusBit(uint8_t number){
    number &= 0x7f;
    if (gameState[number>>3] & (1<<(number&7))) return 1; else return 0;
    13c6:	e8 2f       	mov	r30, r24
    13c8:	ef 77       	andi	r30, 0x7F	; 127
    13ca:	e6 95       	lsr	r30
    13cc:	e6 95       	lsr	r30
    13ce:	e6 95       	lsr	r30
    13d0:	f0 e0       	ldi	r31, 0x00	; 0
    13d2:	ec 59       	subi	r30, 0x9C	; 156
    13d4:	f5 4c       	sbci	r31, 0xC5	; 197
    13d6:	20 81       	ld	r18, Z
    13d8:	30 e0       	ldi	r19, 0x00	; 0
    13da:	87 70       	andi	r24, 0x07	; 7
    13dc:	a9 01       	movw	r20, r18
    13de:	02 c0       	rjmp	.+4      	; 0x13e4 <ReadStatusBit+0x1e>
    13e0:	55 95       	asr	r21
    13e2:	47 95       	ror	r20
    13e4:	8a 95       	dec	r24
    13e6:	e2 f7       	brpl	.-8      	; 0x13e0 <ReadStatusBit+0x1a>
    13e8:	ca 01       	movw	r24, r20
}
    13ea:	81 70       	andi	r24, 0x01	; 1
    13ec:	08 95       	ret

000013ee <UpdateState>:

//Update game state: num -> vBBBBbbb v=value(0 is set!), BBBB=Byte number, bbb=bit number
void UpdateState(uint8_t num){
    uint8_t clearBit = num & 0x80;
    num &= 0x7f;
    13ee:	e8 2f       	mov	r30, r24
    13f0:	ef 77       	andi	r30, 0x7F	; 127
    
    if (num) {
    13f2:	e9 f0       	breq	.+58     	; 0x142e <UpdateState+0x40>
    13f4:	e6 95       	lsr	r30
    13f6:	e6 95       	lsr	r30
    13f8:	e6 95       	lsr	r30
    13fa:	28 2f       	mov	r18, r24
    13fc:	27 70       	andi	r18, 0x07	; 7
        if (clearBit) {
            gameState[num>>3] &= ~(1<<(num&7));
    13fe:	f0 e0       	ldi	r31, 0x00	; 0
    1400:	ec 59       	subi	r30, 0x9C	; 156
    1402:	f5 4c       	sbci	r31, 0xC5	; 197
void UpdateState(uint8_t num){
    uint8_t clearBit = num & 0x80;
    num &= 0x7f;
    
    if (num) {
        if (clearBit) {
    1404:	87 ff       	sbrs	r24, 7
    1406:	0a c0       	rjmp	.+20     	; 0x141c <UpdateState+0x2e>
            gameState[num>>3] &= ~(1<<(num&7));
    1408:	81 e0       	ldi	r24, 0x01	; 1
    140a:	90 e0       	ldi	r25, 0x00	; 0
    140c:	01 c0       	rjmp	.+2      	; 0x1410 <UpdateState+0x22>
    140e:	88 0f       	add	r24, r24
    1410:	2a 95       	dec	r18
    1412:	ea f7       	brpl	.-6      	; 0x140e <UpdateState+0x20>
    1414:	80 95       	com	r24
    1416:	90 81       	ld	r25, Z
    1418:	89 23       	and	r24, r25
    141a:	08 c0       	rjmp	.+16     	; 0x142c <UpdateState+0x3e>
        } else {
            gameState[num>>3] |= 1<<(num&7);
    141c:	81 e0       	ldi	r24, 0x01	; 1
    141e:	90 e0       	ldi	r25, 0x00	; 0
    1420:	01 c0       	rjmp	.+2      	; 0x1424 <UpdateState+0x36>
    1422:	88 0f       	add	r24, r24
    1424:	2a 95       	dec	r18
    1426:	ea f7       	brpl	.-6      	; 0x1422 <UpdateState+0x34>
    1428:	90 81       	ld	r25, Z
    142a:	89 2b       	or	r24, r25
    142c:	80 83       	st	Z, r24
    142e:	08 95       	ret

00001430 <CheckState>:
        }
    }
}

//Checks if state of bit BBBBbbb matches with v (inverted) bit
uint8_t CheckState(uint8_t num){
    1430:	cf 93       	push	r28
    1432:	c8 2f       	mov	r28, r24
    uint8_t bitSet = 0;
    if (ReadStatusBit(num & 0x7f)){
    1434:	8f 77       	andi	r24, 0x7F	; 127
    1436:	c7 df       	rcall	.-114    	; 0x13c6 <ReadStatusBit>
    1438:	2c 2f       	mov	r18, r28
    143a:	22 1f       	adc	r18, r18
    143c:	22 27       	eor	r18, r18
    143e:	22 1f       	adc	r18, r18
    1440:	91 e0       	ldi	r25, 0x01	; 1
    1442:	81 11       	cpse	r24, r1
    1444:	01 c0       	rjmp	.+2      	; 0x1448 <CheckState+0x18>
    1446:	90 e0       	ldi	r25, 0x00	; 0
    }
    if (((num & 0x80)>0)^(bitSet>0)){
        return 1;
    }
    return 0;
}
    1448:	82 2f       	mov	r24, r18
    144a:	89 27       	eor	r24, r25
    144c:	cf 91       	pop	r28
    144e:	08 95       	ret

00001450 <getID>:

//Give out a number 0..3, calculated using serial number fields
uint8_t getID(){
    uint8_t id = 0;
    uint8_t *serNum;
    serNum = (uint8_t*)&SIGROW_SERNUM0;
    1450:	e3 e0       	ldi	r30, 0x03	; 3
    1452:	f1 e1       	ldi	r31, 0x11	; 17
    return 0;
}

//Give out a number 0..3, calculated using serial number fields
uint8_t getID(){
    uint8_t id = 0;
    1454:	80 e0       	ldi	r24, 0x00	; 0
    uint8_t *serNum;
    serNum = (uint8_t*)&SIGROW_SERNUM0;

    for (uint8_t x=0; x<10; ++x){
        id += *serNum;
    1456:	91 91       	ld	r25, Z+
    1458:	89 0f       	add	r24, r25
uint8_t getID(){
    uint8_t id = 0;
    uint8_t *serNum;
    serNum = (uint8_t*)&SIGROW_SERNUM0;

    for (uint8_t x=0; x<10; ++x){
    145a:	ed 30       	cpi	r30, 0x0D	; 13
    145c:	91 e1       	ldi	r25, 0x11	; 17
    145e:	f9 07       	cpc	r31, r25
    1460:	d1 f7       	brne	.-12     	; 0x1456 <getID+0x6>
        id += *serNum;
        ++serNum;
    }
    id %= 4;
    1462:	83 70       	andi	r24, 0x03	; 3
    whoami = id+1;
    1464:	91 e0       	ldi	r25, 0x01	; 1
    1466:	98 0f       	add	r25, r24
    1468:	90 93 3f 38 	sts	0x383F, r25	; 0x80383f <whoami>
    return id;
}
    146c:	08 95       	ret

0000146e <Reset>:

void Reset(){
    146e:	cf 93       	push	r28
    1470:	e4 e6       	ldi	r30, 0x64	; 100
    1472:	fa e3       	ldi	r31, 0x3A	; 58
    //# 110   set to 1 by FW if badge UUID mod 4 == 0
    //# 111   set to 1 by FW if badge UUID mod 4 == 1
    //# 112   set to 1 by FW if badge UUID mod 4 == 2
    //# 113   set to 1 by FW if badge UUID mod 4 == 3
    for (uint8_t x=0; x<sizeof(gameState); ++x){
        gameState[x] = 0;
    1474:	11 92       	st	Z+, r1
    //Reset game progress (all zeros) and load some bits:
    //# 110   set to 1 by FW if badge UUID mod 4 == 0
    //# 111   set to 1 by FW if badge UUID mod 4 == 1
    //# 112   set to 1 by FW if badge UUID mod 4 == 2
    //# 113   set to 1 by FW if badge UUID mod 4 == 3
    for (uint8_t x=0; x<sizeof(gameState); ++x){
    1476:	8a e3       	ldi	r24, 0x3A	; 58
    1478:	e8 37       	cpi	r30, 0x78	; 120
    147a:	f8 07       	cpc	r31, r24
    147c:	d9 f7       	brne	.-10     	; 0x1474 <Reset+0x6>
        gameState[x] = 0;
    }

    uint8_t id = getID();
    147e:	e8 df       	rcall	.-48     	; 0x1450 <getID>
    1480:	c8 2f       	mov	r28, r24

    //Write bit in gameState location 110..113
    if (id == 0) UpdateState(110);
    1482:	81 11       	cpse	r24, r1
    1484:	02 c0       	rjmp	.+4      	; 0x148a <Reset+0x1c>
    1486:	8e e6       	ldi	r24, 0x6E	; 110
    1488:	0b c0       	rjmp	.+22     	; 0x14a0 <Reset+0x32>
    else if (id == 1) UpdateState(111);
    148a:	81 30       	cpi	r24, 0x01	; 1
    148c:	11 f4       	brne	.+4      	; 0x1492 <Reset+0x24>
    148e:	8f e6       	ldi	r24, 0x6F	; 111
    1490:	07 c0       	rjmp	.+14     	; 0x14a0 <Reset+0x32>
    else if (id == 2) UpdateState(112);
    1492:	82 30       	cpi	r24, 0x02	; 2
    1494:	11 f4       	brne	.+4      	; 0x149a <Reset+0x2c>
    1496:	80 e7       	ldi	r24, 0x70	; 112
    1498:	03 c0       	rjmp	.+6      	; 0x14a0 <Reset+0x32>
    else if (id == 3) UpdateState(113);
    149a:	83 30       	cpi	r24, 0x03	; 3
    149c:	11 f4       	brne	.+4      	; 0x14a2 <Reset+0x34>
    149e:	81 e7       	ldi	r24, 0x71	; 113
    14a0:	a6 df       	rcall	.-180    	; 0x13ee <UpdateState>
    UpdateState(100+id);
    14a2:	84 e6       	ldi	r24, 0x64	; 100

    //Write bit 0, must always be 1!

}
    14a4:	8c 0f       	add	r24, r28
    //Write bit in gameState location 110..113
    if (id == 0) UpdateState(110);
    else if (id == 1) UpdateState(111);
    else if (id == 2) UpdateState(112);
    else if (id == 3) UpdateState(113);
    UpdateState(100+id);
    14a6:	cf 91       	pop	r28
    14a8:	a2 cf       	rjmp	.-188    	; 0x13ee <UpdateState>

000014aa <LoadGameState>:

    return sample;
}

//Load game status
void LoadGameState(){
    14aa:	cf 93       	push	r28
    14ac:	df 93       	push	r29
    EERead(0, &gameState[0], BOOTCHK);   //Load game status bits from EEPROM
    14ae:	44 e1       	ldi	r20, 0x14	; 20
    14b0:	64 e6       	ldi	r22, 0x64	; 100
    14b2:	7a e3       	ldi	r23, 0x3A	; 58
    14b4:	80 e0       	ldi	r24, 0x00	; 0
    14b6:	9f dd       	rcall	.-1218   	; 0xff6 <EERead>
    14b8:	ce e6       	ldi	r28, 0x6E	; 110

    uint8_t idSet = 0;
    14ba:	d0 e0       	ldi	r29, 0x00	; 0
    for (uint8_t x=0; x<4; ++x){
        idSet += ReadStatusBit(110+x);
    14bc:	8c 2f       	mov	r24, r28
    14be:	83 df       	rcall	.-250    	; 0x13c6 <ReadStatusBit>
    14c0:	d8 0f       	add	r29, r24
    14c2:	cf 5f       	subi	r28, 0xFF	; 255
//Load game status
void LoadGameState(){
    EERead(0, &gameState[0], BOOTCHK);   //Load game status bits from EEPROM

    uint8_t idSet = 0;
    for (uint8_t x=0; x<4; ++x){
    14c4:	c2 37       	cpi	r28, 0x72	; 114
    14c6:	d1 f7       	brne	.-12     	; 0x14bc <LoadGameState+0x12>
        idSet += ReadStatusBit(110+x);
    }

    //Check if badge is reset(0 = cheated!) or new(3) or error(2)
    if (idSet != 1) {
    14c8:	d1 30       	cpi	r29, 0x01	; 1
        Reset();
    14ca:	11 f0       	breq	.+4      	; 0x14d0 <LoadGameState+0x26>
    14cc:	d0 df       	rcall	.-96     	; 0x146e <Reset>
    } else getID();
    14ce:	01 c0       	rjmp	.+2      	; 0x14d2 <LoadGameState+0x28>
    14d0:	bf df       	rcall	.-130    	; 0x1450 <getID>

    inventory[0] = (gameState[INVADDR]<<8|gameState[INVADDR+1]);
    14d2:	80 91 74 3a 	lds	r24, 0x3A74	; 0x803a74 <gameState+0x10>
    14d6:	90 91 75 3a 	lds	r25, 0x3A75	; 0x803a75 <gameState+0x11>
    14da:	98 27       	eor	r25, r24
    14dc:	89 27       	eor	r24, r25
    14de:	98 27       	eor	r25, r24
    14e0:	80 93 40 38 	sts	0x3840, r24	; 0x803840 <inventory>
    14e4:	90 93 41 38 	sts	0x3841, r25	; 0x803841 <inventory+0x1>
    inventory[1] = (gameState[INVADDR+2]<<8|gameState[INVADDR+3]);
    14e8:	80 91 76 3a 	lds	r24, 0x3A76	; 0x803a76 <gameState+0x12>
    14ec:	90 91 77 3a 	lds	r25, 0x3A77	; 0x803a77 <gameState+0x13>
    14f0:	98 27       	eor	r25, r24
    14f2:	89 27       	eor	r24, r25
    14f4:	98 27       	eor	r25, r24
    14f6:	80 93 42 38 	sts	0x3842, r24	; 0x803842 <inventory+0x2>
    14fa:	90 93 43 38 	sts	0x3843, r25	; 0x803843 <inventory+0x3>
}
    14fe:	df 91       	pop	r29
    1500:	cf 91       	pop	r28
    1502:	08 95       	ret

00001504 <HotSummer>:
    //Write bit 0, must always be 1!

}

//Sets specific game bits after the badge is heated for one and two times.
uint8_t HotSummer(){
    1504:	cf 93       	push	r28
    static uint8_t cooledDown = 0;

    if (CheckState(SUMMERS_COMPLETED)){
    1506:	86 e7       	ldi	r24, 0x76	; 118
    1508:	93 df       	rcall	.-218    	; 0x1430 <CheckState>
    150a:	c8 2f       	mov	r28, r24
    150c:	88 23       	and	r24, r24
    150e:	81 f0       	breq	.+32     	; 0x1530 <HotSummer+0x2c>
        iLED[SCARAB[R]] = 0;
    1510:	e0 91 3c bf 	lds	r30, 0xBF3C	; 0x80bf3c <__bss_end+0x8427>
    1514:	f0 e0       	ldi	r31, 0x00	; 0
    1516:	ea 53       	subi	r30, 0x3A	; 58
    1518:	f5 4c       	sbci	r31, 0xC5	; 197
    151a:	10 82       	st	Z, r1
        iLED[SCARAB[G]] = dimValue;
    151c:	e0 91 3d bf 	lds	r30, 0xBF3D	; 0x80bf3d <__bss_end+0x8428>
    1520:	f0 e0       	ldi	r31, 0x00	; 0
    1522:	80 91 0c 38 	lds	r24, 0x380C	; 0x80380c <dimValue>
    1526:	ea 53       	subi	r30, 0x3A	; 58
    1528:	f5 4c       	sbci	r31, 0xC5	; 197
    152a:	80 83       	st	Z, r24
        return 1;
    152c:	c1 e0       	ldi	r28, 0x01	; 1
    152e:	4c c0       	rjmp	.+152    	; 0x15c8 <HotSummer+0xc4>
    }

    if (CheckState(FIRST_SUMMER)) {
    1530:	85 e7       	ldi	r24, 0x75	; 117
    1532:	7e df       	rcall	.-260    	; 0x1430 <CheckState>
    1534:	88 23       	and	r24, r24
    1536:	59 f1       	breq	.+86     	; 0x158e <HotSummer+0x8a>
        iLED[SCARAB[R]] = dimValue;
    1538:	e0 91 3c bf 	lds	r30, 0xBF3C	; 0x80bf3c <__bss_end+0x8427>
    153c:	f0 e0       	ldi	r31, 0x00	; 0
    153e:	80 91 0c 38 	lds	r24, 0x380C	; 0x80380c <dimValue>
    1542:	ea 53       	subi	r30, 0x3A	; 58
    1544:	f5 4c       	sbci	r31, 0xC5	; 197
    1546:	80 83       	st	Z, r24
        if ((cooledDown) && (adcTemp >= (calTemp + 32))) {
    1548:	80 91 5c 38 	lds	r24, 0x385C	; 0x80385c <cooledDown.3965>
    154c:	88 23       	and	r24, r24
    154e:	79 f0       	breq	.+30     	; 0x156e <HotSummer+0x6a>
    1550:	80 91 c3 3a 	lds	r24, 0x3AC3	; 0x803ac3 <calTemp>
    1554:	90 91 c4 3a 	lds	r25, 0x3AC4	; 0x803ac4 <calTemp+0x1>
    1558:	20 91 f0 3a 	lds	r18, 0x3AF0	; 0x803af0 <adcTemp>
    155c:	30 91 f1 3a 	lds	r19, 0x3AF1	; 0x803af1 <adcTemp+0x1>
    1560:	80 96       	adiw	r24, 0x20	; 32
    1562:	28 17       	cp	r18, r24
    1564:	39 07       	cpc	r19, r25
            UpdateState(SUMMERS_COMPLETED);
    1566:	18 f0       	brcs	.+6      	; 0x156e <HotSummer+0x6a>
    1568:	86 e7       	ldi	r24, 0x76	; 118
    156a:	41 df       	rcall	.-382    	; 0x13ee <UpdateState>
            return 0;
    156c:	2d c0       	rjmp	.+90     	; 0x15c8 <HotSummer+0xc4>
        }
        if (adcTemp <= (calTemp + 8)) cooledDown = 1;
    156e:	80 91 c3 3a 	lds	r24, 0x3AC3	; 0x803ac3 <calTemp>
    1572:	90 91 c4 3a 	lds	r25, 0x3AC4	; 0x803ac4 <calTemp+0x1>
    1576:	20 91 f0 3a 	lds	r18, 0x3AF0	; 0x803af0 <adcTemp>
    157a:	30 91 f1 3a 	lds	r19, 0x3AF1	; 0x803af1 <adcTemp+0x1>
    157e:	08 96       	adiw	r24, 0x08	; 8
    1580:	82 17       	cp	r24, r18
    1582:	93 07       	cpc	r25, r19
    1584:	08 f1       	brcs	.+66     	; 0x15c8 <HotSummer+0xc4>
    1586:	81 e0       	ldi	r24, 0x01	; 1
    1588:	80 93 5c 38 	sts	0x385C, r24	; 0x80385c <cooledDown.3965>
    158c:	1d c0       	rjmp	.+58     	; 0x15c8 <HotSummer+0xc4>
                   
    } else {
        if (calTemp == 0) calTemp = adcTemp;
    158e:	80 91 c3 3a 	lds	r24, 0x3AC3	; 0x803ac3 <calTemp>
    1592:	90 91 c4 3a 	lds	r25, 0x3AC4	; 0x803ac4 <calTemp+0x1>
    1596:	89 2b       	or	r24, r25
    1598:	41 f4       	brne	.+16     	; 0x15aa <HotSummer+0xa6>
    159a:	80 91 f0 3a 	lds	r24, 0x3AF0	; 0x803af0 <adcTemp>
    159e:	90 91 f1 3a 	lds	r25, 0x3AF1	; 0x803af1 <adcTemp+0x1>
    15a2:	80 93 c3 3a 	sts	0x3AC3, r24	; 0x803ac3 <calTemp>
    15a6:	90 93 c4 3a 	sts	0x3AC4, r25	; 0x803ac4 <calTemp+0x1>
        if (adcTemp >= (calTemp + 32)) {
    15aa:	80 91 c3 3a 	lds	r24, 0x3AC3	; 0x803ac3 <calTemp>
    15ae:	90 91 c4 3a 	lds	r25, 0x3AC4	; 0x803ac4 <calTemp+0x1>
    15b2:	20 91 f0 3a 	lds	r18, 0x3AF0	; 0x803af0 <adcTemp>
    15b6:	30 91 f1 3a 	lds	r19, 0x3AF1	; 0x803af1 <adcTemp+0x1>
    15ba:	80 96       	adiw	r24, 0x20	; 32
    15bc:	28 17       	cp	r18, r24
    15be:	39 07       	cpc	r19, r25
            UpdateState(FIRST_SUMMER);
    15c0:	18 f0       	brcs	.+6      	; 0x15c8 <HotSummer+0xc4>
    15c2:	85 e7       	ldi	r24, 0x75	; 117
    15c4:	14 df       	rcall	.-472    	; 0x13ee <UpdateState>
        }
    }
    return 0;
    15c6:	c0 e0       	ldi	r28, 0x00	; 0
}
    15c8:	8c 2f       	mov	r24, r28
    15ca:	cf 91       	pop	r28
    15cc:	08 95       	ret

000015ce <WingBar>:

void WingBar(int8_t l, int8_t r) {
    15ce:	ee e3       	ldi	r30, 0x3E	; 62
    15d0:	ff eb       	ldi	r31, 0xBF	; 191
    for (int8_t i=0; i<5; i++) {
    15d2:	90 e0       	ldi	r25, 0x00	; 0
        if (i<l)
            iLED[WING[L][i]] = dimValue;
    15d4:	a5 81       	ldd	r26, Z+5	; 0x05
    15d6:	b0 e0       	ldi	r27, 0x00	; 0
    return 0;
}

void WingBar(int8_t l, int8_t r) {
    for (int8_t i=0; i<5; i++) {
        if (i<l)
    15d8:	98 17       	cp	r25, r24
    15da:	34 f4       	brge	.+12     	; 0x15e8 <WingBar+0x1a>
            iLED[WING[L][i]] = dimValue;
    15dc:	20 91 0c 38 	lds	r18, 0x380C	; 0x80380c <dimValue>
    15e0:	aa 53       	subi	r26, 0x3A	; 58
    15e2:	b5 4c       	sbci	r27, 0xC5	; 197
    15e4:	2c 93       	st	X, r18
    15e6:	03 c0       	rjmp	.+6      	; 0x15ee <WingBar+0x20>
        else
            iLED[WING[L][i]] = 0;
    15e8:	aa 53       	subi	r26, 0x3A	; 58
    15ea:	b5 4c       	sbci	r27, 0xC5	; 197
    15ec:	1c 92       	st	X, r1
        if (i<r)
            iLED[WING[R][i]] = dimValue;
    15ee:	a0 81       	ld	r26, Z
    15f0:	b0 e0       	ldi	r27, 0x00	; 0
    for (int8_t i=0; i<5; i++) {
        if (i<l)
            iLED[WING[L][i]] = dimValue;
        else
            iLED[WING[L][i]] = 0;
        if (i<r)
    15f2:	96 17       	cp	r25, r22
    15f4:	34 f4       	brge	.+12     	; 0x1602 <WingBar+0x34>
            iLED[WING[R][i]] = dimValue;
    15f6:	20 91 0c 38 	lds	r18, 0x380C	; 0x80380c <dimValue>
    15fa:	aa 53       	subi	r26, 0x3A	; 58
    15fc:	b5 4c       	sbci	r27, 0xC5	; 197
    15fe:	2c 93       	st	X, r18
    1600:	03 c0       	rjmp	.+6      	; 0x1608 <WingBar+0x3a>
        else
            iLED[WING[R][i]] = 0;
    1602:	aa 53       	subi	r26, 0x3A	; 58
    1604:	b5 4c       	sbci	r27, 0xC5	; 197
    1606:	1c 92       	st	X, r1
    1608:	9f 5f       	subi	r25, 0xFF	; 255
    160a:	31 96       	adiw	r30, 0x01	; 1
    }
    return 0;
}

void WingBar(int8_t l, int8_t r) {
    for (int8_t i=0; i<5; i++) {
    160c:	95 30       	cpi	r25, 0x05	; 5
    160e:	11 f7       	brne	.-60     	; 0x15d4 <WingBar+0x6>
        if (i<r)
            iLED[WING[R][i]] = dimValue;
        else
            iLED[WING[R][i]] = 0;
    }
}
    1610:	08 95       	ret

00001612 <SetBothEyes>:

void SetBothEyes(uint8_t r, uint8_t g) {
    for (uint8_t i=0; i<2; i++) {
        iLED[EYE[R][i]] = r;
    1612:	a8 e4       	ldi	r26, 0x48	; 72
    1614:	bf eb       	ldi	r27, 0xBF	; 191
    1616:	ec 91       	ld	r30, X
    1618:	f0 e0       	ldi	r31, 0x00	; 0
    161a:	ea 53       	subi	r30, 0x3A	; 58
    161c:	f5 4c       	sbci	r31, 0xC5	; 197
    161e:	80 83       	st	Z, r24
        iLED[EYE[G][i]] = g;
    1620:	12 96       	adiw	r26, 0x02	; 2
    1622:	ec 91       	ld	r30, X
    1624:	12 97       	sbiw	r26, 0x02	; 2
    1626:	f0 e0       	ldi	r31, 0x00	; 0
    1628:	ea 53       	subi	r30, 0x3A	; 58
    162a:	f5 4c       	sbci	r31, 0xC5	; 197
    162c:	60 83       	st	Z, r22
    }
}

void SetBothEyes(uint8_t r, uint8_t g) {
    for (uint8_t i=0; i<2; i++) {
        iLED[EYE[R][i]] = r;
    162e:	11 96       	adiw	r26, 0x01	; 1
    1630:	ec 91       	ld	r30, X
    1632:	11 97       	sbiw	r26, 0x01	; 1
    1634:	f0 e0       	ldi	r31, 0x00	; 0
    1636:	ea 53       	subi	r30, 0x3A	; 58
    1638:	f5 4c       	sbci	r31, 0xC5	; 197
    163a:	80 83       	st	Z, r24
        iLED[EYE[G][i]] = g;
    163c:	13 96       	adiw	r26, 0x03	; 3
    163e:	ec 91       	ld	r30, X
    1640:	f0 e0       	ldi	r31, 0x00	; 0
    1642:	ea 53       	subi	r30, 0x3A	; 58
    1644:	f5 4c       	sbci	r31, 0xC5	; 197
    1646:	60 83       	st	Z, r22
    1648:	08 95       	ret

0000164a <ClearHackerLeds>:
    }
}

void ClearHackerLeds() {
    164a:	cf 93       	push	r28
    164c:	df 93       	push	r29
    164e:	ec e4       	ldi	r30, 0x4C	; 76
    1650:	ff eb       	ldi	r31, 0xBF	; 191
    1652:	ef 01       	movw	r28, r30
    for (uint8_t i=0;i<6;i++) {
        iLED[HCKR[G][i]] = 0;
    1654:	a6 81       	ldd	r26, Z+6	; 0x06
    1656:	b0 e0       	ldi	r27, 0x00	; 0
    1658:	aa 53       	subi	r26, 0x3A	; 58
    165a:	b5 4c       	sbci	r27, 0xC5	; 197
    165c:	1c 92       	st	X, r1
    165e:	31 96       	adiw	r30, 0x01	; 1
        iLED[HCKR[R][i]] = 0;
    1660:	a8 81       	ld	r26, Y
    1662:	b0 e0       	ldi	r27, 0x00	; 0
    1664:	aa 53       	subi	r26, 0x3A	; 58
    1666:	b5 4c       	sbci	r27, 0xC5	; 197
    1668:	1c 92       	st	X, r1
        iLED[EYE[G][i]] = g;
    }
}

void ClearHackerLeds() {
    for (uint8_t i=0;i<6;i++) {
    166a:	8f eb       	ldi	r24, 0xBF	; 191
    166c:	e2 35       	cpi	r30, 0x52	; 82
    166e:	f8 07       	cpc	r31, r24
    1670:	81 f7       	brne	.-32     	; 0x1652 <ClearHackerLeds+0x8>
        iLED[HCKR[G][i]] = 0;
        iLED[HCKR[R][i]] = 0;
    }
}
    1672:	df 91       	pop	r29
    1674:	cf 91       	pop	r28
    1676:	08 95       	ret

00001678 <GenerateBlinks>:


void GenerateBlinks(){
    1678:	cf 92       	push	r12
    167a:	df 92       	push	r13
    167c:	ef 92       	push	r14
    167e:	ff 92       	push	r15
    1680:	0f 93       	push	r16
    1682:	1f 93       	push	r17
    1684:	cf 93       	push	r28
    1686:	df 93       	push	r29
    used by the games, the other LEDs can be used by setting 
    effect (or be set directly)
    */

    //Activate HCKR & BADGER leds based on the state-bits
    if (gameNow == TEXT) {
    1688:	80 91 3e 38 	lds	r24, 0x383E	; 0x80383e <gameNow>
    168c:	88 23       	and	r24, r24
    168e:	29 f0       	breq	.+10     	; 0x169a <GenerateBlinks+0x22>
                iLED[HCKR[R][i]] = dimValue;
            }
        }
    }

    if (CheckState(GEM_STATE)) {
    1690:	80 e4       	ldi	r24, 0x40	; 64
    1692:	ce de       	rcall	.-612    	; 0x1430 <CheckState>
    1694:	81 11       	cpse	r24, r1
    1696:	24 c0       	rjmp	.+72     	; 0x16e0 <GenerateBlinks+0x68>
    1698:	50 c0       	rjmp	.+160    	; 0x173a <GenerateBlinks+0xc2>
    169a:	cc e4       	ldi	r28, 0x4C	; 76
    169c:	df eb       	ldi	r29, 0xBF	; 191
    used by the games, the other LEDs can be used by setting 
    effect (or be set directly)
    */

    //Activate HCKR & BADGER leds based on the state-bits
    if (gameNow == TEXT) {
    169e:	1a e7       	ldi	r17, 0x7A	; 122
        for (uint8_t i=0;i<6;i++) {
            if(CheckState(HACKER_STATES + i)) {
    16a0:	81 2f       	mov	r24, r17
    16a2:	c6 de       	rcall	.-628    	; 0x1430 <CheckState>
                iLED[HCKR[G][i]] = dimValue;
    16a4:	ee 81       	ldd	r30, Y+6	; 0x06
    16a6:	f0 e0       	ldi	r31, 0x00	; 0
    */

    //Activate HCKR & BADGER leds based on the state-bits
    if (gameNow == TEXT) {
        for (uint8_t i=0;i<6;i++) {
            if(CheckState(HACKER_STATES + i)) {
    16a8:	88 23       	and	r24, r24
    16aa:	59 f0       	breq	.+22     	; 0x16c2 <GenerateBlinks+0x4a>
                iLED[HCKR[G][i]] = dimValue;
    16ac:	80 91 0c 38 	lds	r24, 0x380C	; 0x80380c <dimValue>
    16b0:	ea 53       	subi	r30, 0x3A	; 58
    16b2:	f5 4c       	sbci	r31, 0xC5	; 197
    16b4:	80 83       	st	Z, r24
                iLED[HCKR[R][i]] = 0;
    16b6:	e8 81       	ld	r30, Y
    16b8:	f0 e0       	ldi	r31, 0x00	; 0
    16ba:	ea 53       	subi	r30, 0x3A	; 58
    16bc:	f5 4c       	sbci	r31, 0xC5	; 197
    16be:	10 82       	st	Z, r1
    16c0:	0a c0       	rjmp	.+20     	; 0x16d6 <GenerateBlinks+0x5e>
            } else {
                iLED[HCKR[G][i]] = 0;
    16c2:	ea 53       	subi	r30, 0x3A	; 58
    16c4:	f5 4c       	sbci	r31, 0xC5	; 197
    16c6:	10 82       	st	Z, r1
                iLED[HCKR[R][i]] = dimValue;
    16c8:	e8 81       	ld	r30, Y
    16ca:	f0 e0       	ldi	r31, 0x00	; 0
    16cc:	80 91 0c 38 	lds	r24, 0x380C	; 0x80380c <dimValue>
    16d0:	ea 53       	subi	r30, 0x3A	; 58
    16d2:	f5 4c       	sbci	r31, 0xC5	; 197
    16d4:	80 83       	st	Z, r24
    16d6:	1f 5f       	subi	r17, 0xFF	; 255
    16d8:	21 96       	adiw	r28, 0x01	; 1
    effect (or be set directly)
    */

    //Activate HCKR & BADGER leds based on the state-bits
    if (gameNow == TEXT) {
        for (uint8_t i=0;i<6;i++) {
    16da:	10 38       	cpi	r17, 0x80	; 128
    16dc:	09 f7       	brne	.-62     	; 0x16a0 <GenerateBlinks+0x28>
    16de:	d8 cf       	rjmp	.-80     	; 0x1690 <GenerateBlinks+0x18>
            }
        }
    }

    if (CheckState(GEM_STATE)) {
        if ( HeartCount == 1 || HeartCount == 3 || HeartCount == 5 )
    16e0:	80 91 5e 38 	lds	r24, 0x385E	; 0x80385e <HeartCount>
    16e4:	98 2f       	mov	r25, r24
    16e6:	9d 7f       	andi	r25, 0xFD	; 253
    16e8:	e0 91 3b bf 	lds	r30, 0xBF3B	; 0x80bf3b <__bss_end+0x8426>
            iLED[BADGER] = dimValue>>1 ;
    16ec:	f0 e0       	ldi	r31, 0x00	; 0
            }
        }
    }

    if (CheckState(GEM_STATE)) {
        if ( HeartCount == 1 || HeartCount == 3 || HeartCount == 5 )
    16ee:	91 30       	cpi	r25, 0x01	; 1
    16f0:	11 f0       	breq	.+4      	; 0x16f6 <GenerateBlinks+0x7e>
    16f2:	85 30       	cpi	r24, 0x05	; 5
    16f4:	21 f4       	brne	.+8      	; 0x16fe <GenerateBlinks+0x86>
            iLED[BADGER] = dimValue>>1 ;
    16f6:	90 91 0c 38 	lds	r25, 0x380C	; 0x80380c <dimValue>
    16fa:	96 95       	lsr	r25
    16fc:	06 c0       	rjmp	.+12     	; 0x170a <GenerateBlinks+0x92>
        else if ( HeartCount == 2 || HeartCount == 4 )
    16fe:	82 30       	cpi	r24, 0x02	; 2
    1700:	11 f0       	breq	.+4      	; 0x1706 <GenerateBlinks+0x8e>
    1702:	84 30       	cpi	r24, 0x04	; 4
    1704:	31 f4       	brne	.+12     	; 0x1712 <GenerateBlinks+0x9a>
            iLED[BADGER] = dimValue;
    1706:	90 91 0c 38 	lds	r25, 0x380C	; 0x80380c <dimValue>
    170a:	ea 53       	subi	r30, 0x3A	; 58
    170c:	f5 4c       	sbci	r31, 0xC5	; 197
    170e:	90 83       	st	Z, r25
    1710:	0c c0       	rjmp	.+24     	; 0x172a <GenerateBlinks+0xb2>
        else if ( HeartCount == 0 || HeartCount == 6 )
    1712:	88 23       	and	r24, r24
    1714:	11 f0       	breq	.+4      	; 0x171a <GenerateBlinks+0xa2>
    1716:	86 30       	cpi	r24, 0x06	; 6
    1718:	29 f4       	brne	.+10     	; 0x1724 <GenerateBlinks+0xac>
            iLED[BADGER] = dimValue>>2;
    171a:	90 91 0c 38 	lds	r25, 0x380C	; 0x80380c <dimValue>
    171e:	96 95       	lsr	r25
    1720:	96 95       	lsr	r25
    1722:	f3 cf       	rjmp	.-26     	; 0x170a <GenerateBlinks+0x92>
        else
            iLED[BADGER] = 0;
    1724:	ea 53       	subi	r30, 0x3A	; 58
    1726:	f5 4c       	sbci	r31, 0xC5	; 197
    1728:	10 82       	st	Z, r1
        if (HeartCount<32)
    172a:	80 32       	cpi	r24, 0x20	; 32
    172c:	20 f4       	brcc	.+8      	; 0x1736 <GenerateBlinks+0xbe>
            HeartCount++;
    172e:	8f 5f       	subi	r24, 0xFF	; 255
    1730:	80 93 5e 38 	sts	0x385E, r24	; 0x80385e <HeartCount>
    1734:	02 c0       	rjmp	.+4      	; 0x173a <GenerateBlinks+0xc2>
        else
            HeartCount = 0;
    1736:	10 92 5e 38 	sts	0x385E, r1	; 0x80385e <HeartCount>
    }

    //LEDs effects for all games
    // Keep a counter for dynamic effects
    LedCount++;
    173a:	90 91 5d 38 	lds	r25, 0x385D	; 0x80385d <LedCount>
    173e:	9f 5f       	subi	r25, 0xFF	; 255
    1740:	90 93 5d 38 	sts	0x385D, r25	; 0x80385d <LedCount>

    switch (effect&0x1f) {
    1744:	e0 91 3c 38 	lds	r30, 0x383C	; 0x80383c <effect>
    1748:	f0 91 3d 38 	lds	r31, 0x383D	; 0x80383d <effect+0x1>
    174c:	ef 71       	andi	r30, 0x1F	; 31
    174e:	ff 27       	eor	r31, r31
    1750:	e9 30       	cpi	r30, 0x09	; 9
    1752:	f1 05       	cpc	r31, r1
    1754:	08 f0       	brcs	.+2      	; 0x1758 <GenerateBlinks+0xe0>
    1756:	02 c1       	rjmp	.+516    	; 0x195c <GenerateBlinks+0x2e4>
    1758:	e2 5c       	subi	r30, 0xC2	; 194
    175a:	ff 4f       	sbci	r31, 0xFF	; 255
    175c:	0c 94 81 1f 	jmp	0x3f02	; 0x3f02 <__tablejump2__>
        // All LEDs off
        case 0:
            WingBar(0,0);
    1760:	60 e0       	ldi	r22, 0x00	; 0
    1762:	80 e0       	ldi	r24, 0x00	; 0
    1764:	34 df       	rcall	.-408    	; 0x15ce <WingBar>
            for (uint8_t i=0; i<2; i++) {
                iLED[EYE[R][i]] = 0;
    1766:	e0 91 48 bf 	lds	r30, 0xBF48	; 0x80bf48 <__bss_end+0x8433>
    176a:	f0 e0       	ldi	r31, 0x00	; 0
    176c:	ea 53       	subi	r30, 0x3A	; 58
    176e:	f5 4c       	sbci	r31, 0xC5	; 197
    1770:	10 82       	st	Z, r1
                iLED[EYE[G][i]] = 0; 
    1772:	e0 91 4a bf 	lds	r30, 0xBF4A	; 0x80bf4a <__bss_end+0x8435>
    1776:	f0 e0       	ldi	r31, 0x00	; 0
    1778:	ea 53       	subi	r30, 0x3A	; 58
    177a:	f5 4c       	sbci	r31, 0xC5	; 197
    177c:	10 82       	st	Z, r1
                iLED[SCARAB[i]] = 0;
    177e:	e0 91 3c bf 	lds	r30, 0xBF3C	; 0x80bf3c <__bss_end+0x8427>
    1782:	f0 e0       	ldi	r31, 0x00	; 0
    1784:	ea 53       	subi	r30, 0x3A	; 58
    1786:	f5 4c       	sbci	r31, 0xC5	; 197
    1788:	10 82       	st	Z, r1
    switch (effect&0x1f) {
        // All LEDs off
        case 0:
            WingBar(0,0);
            for (uint8_t i=0; i<2; i++) {
                iLED[EYE[R][i]] = 0;
    178a:	e0 91 49 bf 	lds	r30, 0xBF49	; 0x80bf49 <__bss_end+0x8434>
    178e:	f0 e0       	ldi	r31, 0x00	; 0
    1790:	ea 53       	subi	r30, 0x3A	; 58
    1792:	f5 4c       	sbci	r31, 0xC5	; 197
    1794:	10 82       	st	Z, r1
                iLED[EYE[G][i]] = 0; 
    1796:	e0 91 4b bf 	lds	r30, 0xBF4B	; 0x80bf4b <__bss_end+0x8436>
    179a:	f0 e0       	ldi	r31, 0x00	; 0
    179c:	ea 53       	subi	r30, 0x3A	; 58
    179e:	f5 4c       	sbci	r31, 0xC5	; 197
    17a0:	10 82       	st	Z, r1
                iLED[SCARAB[i]] = 0;
    17a2:	e0 91 3d bf 	lds	r30, 0xBF3D	; 0x80bf3d <__bss_end+0x8428>
    17a6:	f0 e0       	ldi	r31, 0x00	; 0
    17a8:	ea 53       	subi	r30, 0x3A	; 58
    17aa:	f5 4c       	sbci	r31, 0xC5	; 197
    17ac:	10 82       	st	Z, r1
            }
            iLED[CAT] = 0;
    17ae:	e0 91 3a bf 	lds	r30, 0xBF3A	; 0x80bf3a <__bss_end+0x8425>
    17b2:	f0 e0       	ldi	r31, 0x00	; 0
    17b4:	ea 53       	subi	r30, 0x3A	; 58
    17b6:	f5 4c       	sbci	r31, 0xC5	; 197
    17b8:	10 82       	st	Z, r1
            break;
    17ba:	d0 c0       	rjmp	.+416    	; 0x195c <GenerateBlinks+0x2e4>

        //'flashing red eyes',       # 1 can be used when a bad answer is given
        case 1:
            SetBothEyes((LedCount & 1 ? dimValue : 0),0);
    17bc:	89 2f       	mov	r24, r25
    17be:	81 70       	andi	r24, 0x01	; 1
    17c0:	90 fd       	sbrc	r25, 0
    17c2:	80 91 0c 38 	lds	r24, 0x380C	; 0x80380c <dimValue>
    17c6:	60 e0       	ldi	r22, 0x00	; 0
    17c8:	0d c0       	rjmp	.+26     	; 0x17e4 <GenerateBlinks+0x16c>
    17ca:	69 2f       	mov	r22, r25
    17cc:	70 e0       	ldi	r23, 0x00	; 0
            break;

        //'flashing green eyes',     # 2 can be used when a good answer is given
        case 2:
            SetBothEyes(0, 0x1f + (((LedCount & 0x08) ? ((LedCount&0x07)^0x07) : (LedCount&0x07))<<5));
    17ce:	93 ff       	sbrs	r25, 3
    17d0:	02 c0       	rjmp	.+4      	; 0x17d6 <GenerateBlinks+0x15e>
    17d2:	60 95       	com	r22
    17d4:	70 95       	com	r23
    17d6:	95 e0       	ldi	r25, 0x05	; 5
    17d8:	66 0f       	add	r22, r22
    17da:	77 1f       	adc	r23, r23
    17dc:	9a 95       	dec	r25
    17de:	e1 f7       	brne	.-8      	; 0x17d8 <GenerateBlinks+0x160>
    17e0:	61 5e       	subi	r22, 0xE1	; 225
    17e2:	80 e0       	ldi	r24, 0x00	; 0
        // No LED action, game will do it's own LED magic
        case 31:
        default:
            break;
    }
}
    17e4:	df 91       	pop	r29
    17e6:	cf 91       	pop	r28
    17e8:	1f 91       	pop	r17
    17ea:	0f 91       	pop	r16
    17ec:	ff 90       	pop	r15
    17ee:	ef 90       	pop	r14
    17f0:	df 90       	pop	r13
            SetBothEyes((LedCount & 1 ? dimValue : 0),0);
            break;

        //'flashing green eyes',     # 2 can be used when a good answer is given
        case 2:
            SetBothEyes(0, 0x1f + (((LedCount & 0x08) ? ((LedCount&0x07)^0x07) : (LedCount&0x07))<<5));
    17f2:	cf 90       	pop	r12
    17f4:	0e cf       	rjmp	.-484    	; 0x1612 <SetBothEyes>
            break;

        //'flash both wings'
        case 5:
            if ((LedCount & 3) == 0) {
    17f6:	89 2f       	mov	r24, r25
    17f8:	83 70       	andi	r24, 0x03	; 3
    17fa:	09 f0       	breq	.+2      	; 0x17fe <GenerateBlinks+0x186>
    17fc:	af c0       	rjmp	.+350    	; 0x195c <GenerateBlinks+0x2e4>
                if (LedCount & 4)
    17fe:	92 ff       	sbrs	r25, 2
    1800:	03 c0       	rjmp	.+6      	; 0x1808 <GenerateBlinks+0x190>
                    WingBar(5,5);
    1802:	65 e0       	ldi	r22, 0x05	; 5
    1804:	85 e0       	ldi	r24, 0x05	; 5
    1806:	02 c0       	rjmp	.+4      	; 0x180c <GenerateBlinks+0x194>
                else
                    WingBar(0,0);
    1808:	60 e0       	ldi	r22, 0x00	; 0
    180a:	80 e0       	ldi	r24, 0x00	; 0
        // No LED action, game will do it's own LED magic
        case 31:
        default:
            break;
    }
}
    180c:	df 91       	pop	r29
    180e:	cf 91       	pop	r28
    1810:	1f 91       	pop	r17
    1812:	0f 91       	pop	r16
    1814:	ff 90       	pop	r15
    1816:	ef 90       	pop	r14
    1818:	df 90       	pop	r13
        case 5:
            if ((LedCount & 3) == 0) {
                if (LedCount & 4)
                    WingBar(5,5);
                else
                    WingBar(0,0);
    181a:	cf 90       	pop	r12
    181c:	d8 ce       	rjmp	.-592    	; 0x15ce <WingBar>
            }
            break;

        //'circle the wing leds'
        case 6:
            if (LedCount > 4) LedCount = 0;
    181e:	95 30       	cpi	r25, 0x05	; 5
    1820:	10 f0       	brcs	.+4      	; 0x1826 <GenerateBlinks+0x1ae>
    1822:	10 92 5d 38 	sts	0x385D, r1	; 0x80385d <LedCount>
            iLED[WING[L][LedCount]] = 0;
    1826:	40 91 5d 38 	lds	r20, 0x385D	; 0x80385d <LedCount>
    182a:	24 2f       	mov	r18, r20
    182c:	30 e0       	ldi	r19, 0x00	; 0
    182e:	f9 01       	movw	r30, r18
    1830:	e2 5c       	subi	r30, 0xC2	; 194
    1832:	f0 44       	sbci	r31, 0x40	; 64
    1834:	e5 81       	ldd	r30, Z+5	; 0x05
    1836:	f0 e0       	ldi	r31, 0x00	; 0
    1838:	ea 53       	subi	r30, 0x3A	; 58
    183a:	f5 4c       	sbci	r31, 0xC5	; 197
    183c:	10 82       	st	Z, r1
            iLED[WING[L][LedCount == 4 ? 0 : LedCount+1]] = dimValue;
    183e:	44 30       	cpi	r20, 0x04	; 4
    1840:	19 f0       	breq	.+6      	; 0x1848 <GenerateBlinks+0x1d0>
    1842:	c9 01       	movw	r24, r18
    1844:	01 96       	adiw	r24, 0x01	; 1
    1846:	02 c0       	rjmp	.+4      	; 0x184c <GenerateBlinks+0x1d4>
    1848:	80 e0       	ldi	r24, 0x00	; 0
    184a:	90 e0       	ldi	r25, 0x00	; 0
    184c:	fc 01       	movw	r30, r24
    184e:	e2 5c       	subi	r30, 0xC2	; 194
    1850:	f0 44       	sbci	r31, 0x40	; 64
    1852:	e5 81       	ldd	r30, Z+5	; 0x05
    1854:	f0 e0       	ldi	r31, 0x00	; 0
    1856:	80 91 0c 38 	lds	r24, 0x380C	; 0x80380c <dimValue>
    185a:	ea 53       	subi	r30, 0x3A	; 58
    185c:	f5 4c       	sbci	r31, 0xC5	; 197
    185e:	80 83       	st	Z, r24
            iLED[WING[L][4-LedCount]] = 0;
    1860:	e2 e4       	ldi	r30, 0x42	; 66
    1862:	ff eb       	ldi	r31, 0xBF	; 191
    1864:	e2 1b       	sub	r30, r18
    1866:	f3 0b       	sbc	r31, r19
    1868:	e5 81       	ldd	r30, Z+5	; 0x05
    186a:	f0 e0       	ldi	r31, 0x00	; 0
    186c:	ea 53       	subi	r30, 0x3A	; 58
    186e:	f5 4c       	sbci	r31, 0xC5	; 197
    1870:	10 82       	st	Z, r1
            iLED[WING[L][LedCount == 4 ? 4 : 3-LedCount]] = dimValue;
    1872:	44 30       	cpi	r20, 0x04	; 4
    1874:	29 f0       	breq	.+10     	; 0x1880 <GenerateBlinks+0x208>
    1876:	83 e0       	ldi	r24, 0x03	; 3
    1878:	90 e0       	ldi	r25, 0x00	; 0
    187a:	82 1b       	sub	r24, r18
    187c:	93 0b       	sbc	r25, r19
    187e:	02 c0       	rjmp	.+4      	; 0x1884 <GenerateBlinks+0x20c>
    1880:	84 e0       	ldi	r24, 0x04	; 4
    1882:	90 e0       	ldi	r25, 0x00	; 0
    1884:	fc 01       	movw	r30, r24
    1886:	e2 5c       	subi	r30, 0xC2	; 194
    1888:	f0 44       	sbci	r31, 0x40	; 64
    188a:	e5 81       	ldd	r30, Z+5	; 0x05
    188c:	f0 e0       	ldi	r31, 0x00	; 0
    188e:	80 91 0c 38 	lds	r24, 0x380C	; 0x80380c <dimValue>
    1892:	ea 53       	subi	r30, 0x3A	; 58
    1894:	f5 4c       	sbci	r31, 0xC5	; 197
    1896:	80 83       	st	Z, r24
            break;
    1898:	61 c0       	rjmp	.+194    	; 0x195c <GenerateBlinks+0x2e4>
    189a:	ce e3       	ldi	r28, 0x3E	; 62
    189c:	df eb       	ldi	r29, 0xBF	; 191
    189e:	83 e4       	ldi	r24, 0x43	; 67
    18a0:	e8 2e       	mov	r14, r24
    18a2:	8f eb       	ldi	r24, 0xBF	; 191
    18a4:	f8 2e       	mov	r15, r24

        //'random wing leds'
        case 7:
            for (uint8_t x=0; x<5; ++x){
                iLED[WING[L][x]] = (lfsr() > 127)?dimValue:0;
    18a6:	6e 01       	movw	r12, r28
    18a8:	0d 81       	ldd	r16, Y+5	; 0x05
    18aa:	10 e0       	ldi	r17, 0x00	; 0
    18ac:	96 dc       	rcall	.-1748   	; 0x11da <lfsr>
    18ae:	87 ff       	sbrs	r24, 7
    18b0:	03 c0       	rjmp	.+6      	; 0x18b8 <GenerateBlinks+0x240>
    18b2:	80 91 0c 38 	lds	r24, 0x380C	; 0x80380c <dimValue>
    18b6:	01 c0       	rjmp	.+2      	; 0x18ba <GenerateBlinks+0x242>
    18b8:	80 e0       	ldi	r24, 0x00	; 0
    18ba:	f8 01       	movw	r30, r16
    18bc:	ea 53       	subi	r30, 0x3A	; 58
    18be:	f5 4c       	sbci	r31, 0xC5	; 197
    18c0:	80 83       	st	Z, r24
                iLED[WING[R][x]] = (lfsr() > 127)?dimValue:0;
    18c2:	21 96       	adiw	r28, 0x01	; 1
    18c4:	f6 01       	movw	r30, r12
    18c6:	00 81       	ld	r16, Z
    18c8:	10 e0       	ldi	r17, 0x00	; 0
    18ca:	87 dc       	rcall	.-1778   	; 0x11da <lfsr>
    18cc:	87 ff       	sbrs	r24, 7
    18ce:	03 c0       	rjmp	.+6      	; 0x18d6 <GenerateBlinks+0x25e>
    18d0:	80 91 0c 38 	lds	r24, 0x380C	; 0x80380c <dimValue>
    18d4:	01 c0       	rjmp	.+2      	; 0x18d8 <GenerateBlinks+0x260>
    18d6:	80 e0       	ldi	r24, 0x00	; 0
    18d8:	f8 01       	movw	r30, r16
    18da:	ea 53       	subi	r30, 0x3A	; 58
    18dc:	f5 4c       	sbci	r31, 0xC5	; 197
    18de:	80 83       	st	Z, r24
            iLED[WING[L][LedCount == 4 ? 4 : 3-LedCount]] = dimValue;
            break;

        //'random wing leds'
        case 7:
            for (uint8_t x=0; x<5; ++x){
    18e0:	ec 16       	cp	r14, r28
    18e2:	fd 06       	cpc	r15, r29
    18e4:	01 f7       	brne	.-64     	; 0x18a6 <GenerateBlinks+0x22e>
    18e6:	3a c0       	rjmp	.+116    	; 0x195c <GenerateBlinks+0x2e4>
            }
            break;

        //'falling rain'
        case 8:
            if ((LedCount & 1) == 0) {
    18e8:	90 fd       	sbrc	r25, 0
    18ea:	38 c0       	rjmp	.+112    	; 0x195c <GenerateBlinks+0x2e4>
    18ec:	ee e3       	ldi	r30, 0x3E	; 62
    18ee:	ff eb       	ldi	r31, 0xBF	; 191
    18f0:	82 e4       	ldi	r24, 0x42	; 66
    18f2:	9f eb       	ldi	r25, 0xBF	; 191
    18f4:	9f 01       	movw	r18, r30
                for (uint8_t x=0; x<4; ++x){
                    iLED[WING[L][x]] = iLED[WING[L][x+1]];
    18f6:	a5 81       	ldd	r26, Z+5	; 0x05
    18f8:	b0 e0       	ldi	r27, 0x00	; 0
    18fa:	c6 81       	ldd	r28, Z+6	; 0x06
    18fc:	d0 e0       	ldi	r29, 0x00	; 0
    18fe:	ca 53       	subi	r28, 0x3A	; 58
    1900:	d5 4c       	sbci	r29, 0xC5	; 197
    1902:	48 81       	ld	r20, Y
    1904:	aa 53       	subi	r26, 0x3A	; 58
    1906:	b5 4c       	sbci	r27, 0xC5	; 197
    1908:	4c 93       	st	X, r20
    190a:	31 96       	adiw	r30, 0x01	; 1
                    iLED[WING[R][x]] = iLED[WING[R][x+1]];
    190c:	e9 01       	movw	r28, r18
    190e:	a8 81       	ld	r26, Y
    1910:	b0 e0       	ldi	r27, 0x00	; 0
    1912:	c0 81       	ld	r28, Z
    1914:	d0 e0       	ldi	r29, 0x00	; 0
    1916:	ca 53       	subi	r28, 0x3A	; 58
    1918:	d5 4c       	sbci	r29, 0xC5	; 197
    191a:	28 81       	ld	r18, Y
    191c:	aa 53       	subi	r26, 0x3A	; 58
    191e:	b5 4c       	sbci	r27, 0xC5	; 197
            break;

        //'falling rain'
        case 8:
            if ((LedCount & 1) == 0) {
                for (uint8_t x=0; x<4; ++x){
    1920:	2c 93       	st	X, r18
    1922:	8e 17       	cp	r24, r30
    1924:	9f 07       	cpc	r25, r31
                    iLED[WING[L][x]] = iLED[WING[L][x+1]];
                    iLED[WING[R][x]] = iLED[WING[R][x+1]];
                }
                iLED[WING[L][4]] = (lfsr() > 224)?dimValue:0;
    1926:	31 f7       	brne	.-52     	; 0x18f4 <GenerateBlinks+0x27c>
    1928:	c0 91 47 bf 	lds	r28, 0xBF47	; 0x80bf47 <__bss_end+0x8432>
    192c:	d0 e0       	ldi	r29, 0x00	; 0
    192e:	55 dc       	rcall	.-1878   	; 0x11da <lfsr>
    1930:	81 3e       	cpi	r24, 0xE1	; 225
    1932:	18 f0       	brcs	.+6      	; 0x193a <GenerateBlinks+0x2c2>
    1934:	80 91 0c 38 	lds	r24, 0x380C	; 0x80380c <dimValue>
    1938:	01 c0       	rjmp	.+2      	; 0x193c <GenerateBlinks+0x2c4>
    193a:	80 e0       	ldi	r24, 0x00	; 0
    193c:	ca 53       	subi	r28, 0x3A	; 58
    193e:	d5 4c       	sbci	r29, 0xC5	; 197
                iLED[WING[R][4]] = (lfsr() > 224)?dimValue:0;
    1940:	88 83       	st	Y, r24
    1942:	c0 91 42 bf 	lds	r28, 0xBF42	; 0x80bf42 <__bss_end+0x842d>
    1946:	d0 e0       	ldi	r29, 0x00	; 0
    1948:	48 dc       	rcall	.-1904   	; 0x11da <lfsr>
    194a:	81 3e       	cpi	r24, 0xE1	; 225
    194c:	18 f0       	brcs	.+6      	; 0x1954 <GenerateBlinks+0x2dc>
    194e:	80 91 0c 38 	lds	r24, 0x380C	; 0x80380c <dimValue>
    1952:	01 c0       	rjmp	.+2      	; 0x1956 <GenerateBlinks+0x2de>
    1954:	80 e0       	ldi	r24, 0x00	; 0
    1956:	ca 53       	subi	r28, 0x3A	; 58
    1958:	d5 4c       	sbci	r29, 0xC5	; 197
    195a:	88 83       	st	Y, r24
        // No LED action, game will do it's own LED magic
        case 31:
        default:
            break;
    }
}
    195c:	df 91       	pop	r29
    195e:	cf 91       	pop	r28
    1960:	1f 91       	pop	r17
    1962:	0f 91       	pop	r16
    1964:	ff 90       	pop	r15
    1966:	ef 90       	pop	r14
    1968:	df 90       	pop	r13
    196a:	cf 90       	pop	r12
    196c:	08 95       	ret

0000196e <GenerateAudio>:


uint8_t GenerateAudio(){
    196e:	0f 93       	push	r16
    1970:	1f 93       	push	r17
    1972:	cf 93       	push	r28

    if (auIn < HPLVL) {
    1974:	80 91 c5 3a 	lds	r24, 0x3AC5	; 0x803ac5 <auIn>
    1978:	89 31       	cpi	r24, 0x19	; 25
    197a:	08 f0       	brcs	.+2      	; 0x197e <GenerateAudio+0x10>
    197c:	67 c1       	rjmp	.+718    	; 0x1c4c <GenerateAudio+0x2de>

        detHdPh = 1;
    197e:	c1 e0       	ldi	r28, 0x01	; 1
    1980:	c0 93 c2 3a 	sts	0x3AC2, r28	; 0x803ac2 <detHdPh>

        //Audio for text adventure
        if ((effect&0xff00)==0) {
    1984:	80 91 3c 38 	lds	r24, 0x383C	; 0x80383c <effect>
    1988:	90 91 3d 38 	lds	r25, 0x383D	; 0x80383d <effect+0x1>
    198c:	88 27       	eor	r24, r24
    198e:	89 2b       	or	r24, r25
    1990:	09 f0       	breq	.+2      	; 0x1994 <GenerateAudio+0x26>
    1992:	06 c1       	rjmp	.+524    	; 0x1ba0 <GenerateAudio+0x232>

            //Silence
            if ((effect&0xE0)==0){
    1994:	80 91 3c 38 	lds	r24, 0x383C	; 0x80383c <effect>
    1998:	90 91 3d 38 	lds	r25, 0x383D	; 0x80383d <effect+0x1>
    199c:	80 7e       	andi	r24, 0xE0	; 224
    199e:	99 27       	eor	r25, r25
    19a0:	89 2b       	or	r24, r25
    19a2:	31 f4       	brne	.+12     	; 0x19b0 <GenerateAudio+0x42>
                auRepAddr = &zero;
    19a4:	8b e3       	ldi	r24, 0x3B	; 59
    19a6:	98 e3       	ldi	r25, 0x38	; 56
    19a8:	80 93 03 38 	sts	0x3803, r24	; 0x803803 <auRepAddr>
    19ac:	90 93 04 38 	sts	0x3804, r25	; 0x803804 <auRepAddr+0x1>
            }

            //Bad (buzzer)
            if ((effect&0xE0)==32){
    19b0:	80 91 3c 38 	lds	r24, 0x383C	; 0x80383c <effect>
    19b4:	90 91 3d 38 	lds	r25, 0x383D	; 0x80383d <effect+0x1>
    19b8:	80 7e       	andi	r24, 0xE0	; 224
    19ba:	99 27       	eor	r25, r25
    19bc:	80 97       	sbiw	r24, 0x20	; 32
    19be:	09 f0       	breq	.+2      	; 0x19c2 <GenerateAudio+0x54>
    19c0:	59 c0       	rjmp	.+178    	; 0x1a74 <GenerateAudio+0x106>
                static uint8_t auBuffer[17] = {1, 255, 128, 128, 192, 255, 64, 255, 192, 128, 64, 1, 192, 1, 64, 128, 0}; 
                static uint8_t loudness, duration, start;
                floatSpeed(1, 0x2000, 0x2200);
    19c2:	40 e0       	ldi	r20, 0x00	; 0
    19c4:	52 e2       	ldi	r21, 0x22	; 34
    19c6:	60 e0       	ldi	r22, 0x00	; 0
    19c8:	70 e2       	ldi	r23, 0x20	; 32
    19ca:	81 e0       	ldi	r24, 0x01	; 1
    19cc:	25 dc       	rcall	.-1974   	; 0x1218 <floatSpeed>
                auBuffer[2] = floatAround(0x80, 5, 0x01, 0x00);
    19ce:	20 e0       	ldi	r18, 0x00	; 0
    19d0:	41 e0       	ldi	r20, 0x01	; 1
    19d2:	65 e0       	ldi	r22, 0x05	; 5
    19d4:	80 e8       	ldi	r24, 0x80	; 128
    19d6:	52 dc       	rcall	.-1884   	; 0x127c <floatAround>
    19d8:	80 93 16 38 	sts	0x3816, r24	; 0x803816 <auBuffer.4018+0x2>

                if (buttonMark) {
    19dc:	80 91 44 38 	lds	r24, 0x3844	; 0x803844 <buttonMark>
    19e0:	88 23       	and	r24, r24
    19e2:	09 f4       	brne	.+2      	; 0x19e6 <GenerateAudio+0x78>
    19e4:	47 c0       	rjmp	.+142    	; 0x1a74 <GenerateAudio+0x106>
                    if (start == 0) {
    19e6:	80 91 5b 38 	lds	r24, 0x385B	; 0x80385b <start.4021>
    19ea:	81 11       	cpse	r24, r1
    19ec:	15 c0       	rjmp	.+42     	; 0x1a18 <GenerateAudio+0xaa>
                        duration = 4;
    19ee:	84 e0       	ldi	r24, 0x04	; 4
    19f0:	80 93 5a 38 	sts	0x385A, r24	; 0x80385a <duration.4020>
                        loudness = 0xff;
    19f4:	8f ef       	ldi	r24, 0xFF	; 255
    19f6:	80 93 59 38 	sts	0x3859, r24	; 0x803859 <loudness.4019>
                        TCB1_CCMP = 0x2000;
    19fa:	80 e0       	ldi	r24, 0x00	; 0
    19fc:	90 e2       	ldi	r25, 0x20	; 32
    19fe:	80 93 5c 0a 	sts	0x0A5C, r24	; 0x800a5c <__TEXT_REGION_LENGTH__+0x700a5c>
    1a02:	90 93 5d 0a 	sts	0x0A5D, r25	; 0x800a5d <__TEXT_REGION_LENGTH__+0x700a5d>
                        auRepAddr = &auBuffer[0];
    1a06:	84 e1       	ldi	r24, 0x14	; 20
    1a08:	98 e3       	ldi	r25, 0x38	; 56
    1a0a:	80 93 03 38 	sts	0x3803, r24	; 0x803803 <auRepAddr>
    1a0e:	90 93 04 38 	sts	0x3804, r25	; 0x803804 <auRepAddr+0x1>
                        start = 1;
    1a12:	81 e0       	ldi	r24, 0x01	; 1
    1a14:	80 93 5b 38 	sts	0x385B, r24	; 0x80385b <start.4021>
                    }

                    if (loudness) {
    1a18:	80 91 59 38 	lds	r24, 0x3859	; 0x803859 <loudness.4019>
    1a1c:	88 23       	and	r24, r24
    1a1e:	69 f0       	breq	.+26     	; 0x1a3a <GenerateAudio+0xcc>
                        auVolume = loudness;
    1a20:	80 93 b9 3a 	sts	0x3AB9, r24	; 0x803ab9 <auVolume>
                        if (duration) duration--; else loudness >>= 1;
    1a24:	90 91 5a 38 	lds	r25, 0x385A	; 0x80385a <duration.4020>
    1a28:	99 23       	and	r25, r25
    1a2a:	21 f0       	breq	.+8      	; 0x1a34 <GenerateAudio+0xc6>
    1a2c:	91 50       	subi	r25, 0x01	; 1
    1a2e:	90 93 5a 38 	sts	0x385A, r25	; 0x80385a <duration.4020>
    1a32:	03 c0       	rjmp	.+6      	; 0x1a3a <GenerateAudio+0xcc>
    1a34:	86 95       	lsr	r24
    1a36:	80 93 59 38 	sts	0x3859, r24	; 0x803859 <loudness.4019>
                    } 

                    if (loudness == 0) {
    1a3a:	80 91 59 38 	lds	r24, 0x3859	; 0x803859 <loudness.4019>
    1a3e:	81 11       	cpse	r24, r1
    1a40:	19 c0       	rjmp	.+50     	; 0x1a74 <GenerateAudio+0x106>
                        effect &= 0x1f;
    1a42:	80 91 3c 38 	lds	r24, 0x383C	; 0x80383c <effect>
    1a46:	90 91 3d 38 	lds	r25, 0x383D	; 0x80383d <effect+0x1>
    1a4a:	8f 71       	andi	r24, 0x1F	; 31
    1a4c:	99 27       	eor	r25, r25
    1a4e:	80 93 3c 38 	sts	0x383C, r24	; 0x80383c <effect>
    1a52:	90 93 3d 38 	sts	0x383D, r25	; 0x80383d <effect+0x1>
                        auRepAddr = &zero;
    1a56:	8b e3       	ldi	r24, 0x3B	; 59
    1a58:	98 e3       	ldi	r25, 0x38	; 56
    1a5a:	80 93 03 38 	sts	0x3803, r24	; 0x803803 <auRepAddr>
    1a5e:	90 93 04 38 	sts	0x3804, r25	; 0x803804 <auRepAddr+0x1>
                        auSmpAddr = &zero;
    1a62:	80 93 05 38 	sts	0x3805, r24	; 0x803805 <auSmpAddr>
    1a66:	90 93 06 38 	sts	0x3806, r25	; 0x803806 <auSmpAddr+0x1>
                        auVolume = 0xff;
    1a6a:	8f ef       	ldi	r24, 0xFF	; 255
    1a6c:	80 93 b9 3a 	sts	0x3AB9, r24	; 0x803ab9 <auVolume>
                        start = 0;
    1a70:	10 92 5b 38 	sts	0x385B, r1	; 0x80385b <start.4021>
                    }
                }
            }

            //Good (bell)
            if (((effect&0xE0)==64)||((effect&0xE0)==160)){
    1a74:	80 91 3c 38 	lds	r24, 0x383C	; 0x80383c <effect>
    1a78:	90 91 3d 38 	lds	r25, 0x383D	; 0x80383d <effect+0x1>
    1a7c:	80 7e       	andi	r24, 0xE0	; 224
    1a7e:	99 27       	eor	r25, r25
    1a80:	80 34       	cpi	r24, 0x40	; 64
    1a82:	91 05       	cpc	r25, r1
    1a84:	49 f0       	breq	.+18     	; 0x1a98 <GenerateAudio+0x12a>
    1a86:	80 91 3c 38 	lds	r24, 0x383C	; 0x80383c <effect>
    1a8a:	90 91 3d 38 	lds	r25, 0x383D	; 0x80383d <effect+0x1>
    1a8e:	80 7e       	andi	r24, 0xE0	; 224
    1a90:	99 27       	eor	r25, r25
    1a92:	80 3a       	cpi	r24, 0xA0	; 160
    1a94:	91 05       	cpc	r25, r1
    1a96:	e9 f5       	brne	.+122    	; 0x1b12 <GenerateAudio+0x1a4>
                static uint8_t start, auBuffer[3] = {255, 1, 0};
                
                auRepAddr = &auBuffer[0];
    1a98:	81 e1       	ldi	r24, 0x11	; 17
    1a9a:	98 e3       	ldi	r25, 0x38	; 56
    1a9c:	80 93 03 38 	sts	0x3803, r24	; 0x803803 <auRepAddr>
    1aa0:	90 93 04 38 	sts	0x3804, r25	; 0x803804 <auRepAddr+0x1>
                if (buttonMark){
    1aa4:	80 91 44 38 	lds	r24, 0x3844	; 0x803844 <buttonMark>
    1aa8:	88 23       	and	r24, r24
    1aaa:	99 f1       	breq	.+102    	; 0x1b12 <GenerateAudio+0x1a4>
                    if (start == 0) {
    1aac:	80 91 58 38 	lds	r24, 0x3858	; 0x803858 <start.4022>
    1ab0:	81 11       	cpse	r24, r1
    1ab2:	0c c0       	rjmp	.+24     	; 0x1acc <GenerateAudio+0x15e>
                        auVolume = 255;
    1ab4:	8f ef       	ldi	r24, 0xFF	; 255
    1ab6:	80 93 b9 3a 	sts	0x3AB9, r24	; 0x803ab9 <auVolume>
                        TCB1_CCMP = 0x0a00;
    1aba:	80 e0       	ldi	r24, 0x00	; 0
    1abc:	9a e0       	ldi	r25, 0x0A	; 10
    1abe:	80 93 5c 0a 	sts	0x0A5C, r24	; 0x800a5c <__TEXT_REGION_LENGTH__+0x700a5c>
    1ac2:	90 93 5d 0a 	sts	0x0A5D, r25	; 0x800a5d <__TEXT_REGION_LENGTH__+0x700a5d>
                        start = 1;
    1ac6:	81 e0       	ldi	r24, 0x01	; 1
    1ac8:	80 93 58 38 	sts	0x3858, r24	; 0x803858 <start.4022>
                    }
                     
                    TCB1_CCMP -= (0x080<<(effect>64)?2:0);                    
    1acc:	80 91 3c 38 	lds	r24, 0x383C	; 0x80383c <effect>
    1ad0:	90 91 3d 38 	lds	r25, 0x383D	; 0x80383d <effect+0x1>
    1ad4:	80 91 5c 0a 	lds	r24, 0x0A5C	; 0x800a5c <__TEXT_REGION_LENGTH__+0x700a5c>
    1ad8:	90 91 5d 0a 	lds	r25, 0x0A5D	; 0x800a5d <__TEXT_REGION_LENGTH__+0x700a5d>
    1adc:	02 97       	sbiw	r24, 0x02	; 2
    1ade:	80 93 5c 0a 	sts	0x0A5C, r24	; 0x800a5c <__TEXT_REGION_LENGTH__+0x700a5c>
    1ae2:	90 93 5d 0a 	sts	0x0A5D, r25	; 0x800a5d <__TEXT_REGION_LENGTH__+0x700a5d>
                    if (auVolume > 32) auVolume -=32; else 
    1ae6:	80 91 b9 3a 	lds	r24, 0x3AB9	; 0x803ab9 <auVolume>
    1aea:	81 32       	cpi	r24, 0x21	; 33
    1aec:	30 f0       	brcs	.+12     	; 0x1afa <GenerateAudio+0x18c>
    1aee:	80 91 b9 3a 	lds	r24, 0x3AB9	; 0x803ab9 <auVolume>
    1af2:	80 52       	subi	r24, 0x20	; 32
    1af4:	80 93 b9 3a 	sts	0x3AB9, r24	; 0x803ab9 <auVolume>
    1af8:	0c c0       	rjmp	.+24     	; 0x1b12 <GenerateAudio+0x1a4>
                    {
                        start = 0;
    1afa:	10 92 58 38 	sts	0x3858, r1	; 0x803858 <start.4022>
                        auRepAddr = &zero;
    1afe:	8b e3       	ldi	r24, 0x3B	; 59
    1b00:	98 e3       	ldi	r25, 0x38	; 56
    1b02:	80 93 03 38 	sts	0x3803, r24	; 0x803803 <auRepAddr>
    1b06:	90 93 04 38 	sts	0x3804, r25	; 0x803804 <auRepAddr+0x1>
                        effect = 0;
    1b0a:	10 92 3c 38 	sts	0x383C, r1	; 0x80383c <effect>
    1b0e:	10 92 3d 38 	sts	0x383D, r1	; 0x80383d <effect+0x1>
                    }
                }
            }

            //Rain storm with whistling wind
            if ((effect&0xE0)==96){
    1b12:	80 91 3c 38 	lds	r24, 0x383C	; 0x80383c <effect>
    1b16:	90 91 3d 38 	lds	r25, 0x383D	; 0x80383d <effect+0x1>
    1b1a:	80 7e       	andi	r24, 0xE0	; 224
    1b1c:	99 27       	eor	r25, r25
    1b1e:	80 36       	cpi	r24, 0x60	; 96
    1b20:	91 05       	cpc	r25, r1
    1b22:	a9 f5       	brne	.+106    	; 0x1b8e <GenerateAudio+0x220>
                static uint8_t auBuffer[7];
                auBuffer[6]= 0;        
    1b24:	10 92 57 38 	sts	0x3857, r1	; 0x803857 <auBuffer.4024+0x6>
                auRepAddr = &auBuffer[0];
    1b28:	81 e5       	ldi	r24, 0x51	; 81
    1b2a:	98 e3       	ldi	r25, 0x38	; 56
    1b2c:	80 93 03 38 	sts	0x3803, r24	; 0x803803 <auRepAddr>
    1b30:	90 93 04 38 	sts	0x3804, r25	; 0x803804 <auRepAddr+0x1>
    1b34:	8c 01       	movw	r16, r24

                //Noise is to be generated fast, outside of buttonMark loop
                for (uint8_t x=1; x<6; ++x){
    1b36:	c1 e0       	ldi	r28, 0x01	; 1
                    if ((x>0) && (x!=3)) auBuffer[x] = floatAround(0x80, 5, 0x01, 0x00);
    1b38:	c3 30       	cpi	r28, 0x03	; 3
    1b3a:	39 f0       	breq	.+14     	; 0x1b4a <GenerateAudio+0x1dc>
    1b3c:	20 e0       	ldi	r18, 0x00	; 0
    1b3e:	41 e0       	ldi	r20, 0x01	; 1
    1b40:	65 e0       	ldi	r22, 0x05	; 5
    1b42:	80 e8       	ldi	r24, 0x80	; 128
    1b44:	9b db       	rcall	.-2250   	; 0x127c <floatAround>
    1b46:	f8 01       	movw	r30, r16
    1b48:	81 83       	std	Z+1, r24	; 0x01
                static uint8_t auBuffer[7];
                auBuffer[6]= 0;        
                auRepAddr = &auBuffer[0];

                //Noise is to be generated fast, outside of buttonMark loop
                for (uint8_t x=1; x<6; ++x){
    1b4a:	cf 5f       	subi	r28, 0xFF	; 255
    1b4c:	0f 5f       	subi	r16, 0xFF	; 255
    1b4e:	1f 4f       	sbci	r17, 0xFF	; 255
    1b50:	c6 30       	cpi	r28, 0x06	; 6
    1b52:	91 f7       	brne	.-28     	; 0x1b38 <GenerateAudio+0x1ca>
                    if ((x>0) && (x!=3)) auBuffer[x] = floatAround(0x80, 5, 0x01, 0x00);
                }

                if (buttonMark){
    1b54:	80 91 44 38 	lds	r24, 0x3844	; 0x803844 <buttonMark>
    1b58:	88 23       	and	r24, r24
    1b5a:	c9 f0       	breq	.+50     	; 0x1b8e <GenerateAudio+0x220>
                    //"Floating" speed for howl (and noise, but that's hardly audible)
                    floatSpeed(5, 0x0280, 0x0400);
    1b5c:	40 e0       	ldi	r20, 0x00	; 0
    1b5e:	54 e0       	ldi	r21, 0x04	; 4
    1b60:	60 e8       	ldi	r22, 0x80	; 128
    1b62:	72 e0       	ldi	r23, 0x02	; 2
    1b64:	85 e0       	ldi	r24, 0x05	; 5
    1b66:	58 db       	rcall	.-2384   	; 0x1218 <floatSpeed>
            
                    //"Floating" volume and wind howl during 8 bit rainstorm needs some randomness
                    auVolume = floatAround(auVolume, 2, 0x10, 0xA0);
    1b68:	80 91 b9 3a 	lds	r24, 0x3AB9	; 0x803ab9 <auVolume>
    1b6c:	20 ea       	ldi	r18, 0xA0	; 160
    1b6e:	40 e1       	ldi	r20, 0x10	; 16
    1b70:	62 e0       	ldi	r22, 0x02	; 2
    1b72:	84 db       	rcall	.-2296   	; 0x127c <floatAround>
    1b74:	80 93 b9 3a 	sts	0x3AB9, r24	; 0x803ab9 <auVolume>
                    auBuffer[0] = floatAround(auBuffer[0], 2, 0x70, 0x90);
    1b78:	20 e9       	ldi	r18, 0x90	; 144
    1b7a:	40 e7       	ldi	r20, 0x70	; 112
    1b7c:	62 e0       	ldi	r22, 0x02	; 2
    1b7e:	80 91 51 38 	lds	r24, 0x3851	; 0x803851 <auBuffer.4024>
    1b82:	7c db       	rcall	.-2312   	; 0x127c <floatAround>
    1b84:	80 93 51 38 	sts	0x3851, r24	; 0x803851 <auBuffer.4024>
                    auBuffer[3] = 0xFF-auBuffer[0];  //Inverse value of wind[0] produces a whistle
    1b88:	80 95       	com	r24
    1b8a:	80 93 54 38 	sts	0x3854, r24	; 0x803854 <auBuffer.4024+0x3>
                }
            }

            //Footsteps
            if ((effect&0xE0)==128){
    1b8e:	80 91 3c 38 	lds	r24, 0x383C	; 0x80383c <effect>
    1b92:	90 91 3d 38 	lds	r25, 0x383D	; 0x80383d <effect+0x1>
                    if (auVolume) --auVolume;
                }
            }*/

            //
            if ((effect&0xE0)==192){
    1b96:	80 91 3c 38 	lds	r24, 0x383C	; 0x80383c <effect>
    1b9a:	90 91 3d 38 	lds	r25, 0x383D	; 0x80383d <effect+0x1>
    1b9e:	58 c0       	rjmp	.+176    	; 0x1c50 <GenerateAudio+0x2e2>
            }

            //
            else {
            }
        } else if ((effect&0xff00)==0x0100) {
    1ba0:	80 91 3c 38 	lds	r24, 0x383C	; 0x80383c <effect>
    1ba4:	90 91 3d 38 	lds	r25, 0x383D	; 0x80383d <effect+0x1>
    1ba8:	88 27       	eor	r24, r24
    1baa:	81 15       	cp	r24, r1
    1bac:	91 40       	sbci	r25, 0x01	; 1
    1bae:	09 f0       	breq	.+2      	; 0x1bb2 <GenerateAudio+0x244>
    1bb0:	4f c0       	rjmp	.+158    	; 0x1c50 <GenerateAudio+0x2e2>
            if ((effect&0xE0) <= 0x90) {
    1bb2:	80 91 3c 38 	lds	r24, 0x383C	; 0x80383c <effect>
    1bb6:	90 91 3d 38 	lds	r25, 0x383D	; 0x80383d <effect+0x1>
    1bba:	80 7e       	andi	r24, 0xE0	; 224
    1bbc:	99 27       	eor	r25, r25
    1bbe:	81 39       	cpi	r24, 0x91	; 145
    1bc0:	91 05       	cpc	r25, r1
    1bc2:	08 f0       	brcs	.+2      	; 0x1bc6 <GenerateAudio+0x258>
    1bc4:	45 c0       	rjmp	.+138    	; 0x1c50 <GenerateAudio+0x2e2>
                
                static uint8_t auBuffer[3] = {255, 1, 0};
                static uint8_t duration, start;
                uint16_t freq = ((effect&0xE0)+1)<<6;
    1bc6:	60 91 3c 38 	lds	r22, 0x383C	; 0x80383c <effect>
    1bca:	70 91 3d 38 	lds	r23, 0x383D	; 0x80383d <effect+0x1>
    1bce:	60 7e       	andi	r22, 0xE0	; 224
    1bd0:	77 27       	eor	r23, r23
    1bd2:	6f 5f       	subi	r22, 0xFF	; 255
    1bd4:	7f 4f       	sbci	r23, 0xFF	; 255
    1bd6:	86 e0       	ldi	r24, 0x06	; 6
    1bd8:	66 0f       	add	r22, r22
    1bda:	77 1f       	adc	r23, r23
    1bdc:	8a 95       	dec	r24
                floatSpeed(1, freq+0x0200, freq+0x0300);
    1bde:	e1 f7       	brne	.-8      	; 0x1bd8 <GenerateAudio+0x26a>
    1be0:	ab 01       	movw	r20, r22
    1be2:	5d 5f       	subi	r21, 0xFD	; 253
    1be4:	7e 5f       	subi	r23, 0xFE	; 254
    1be6:	81 e0       	ldi	r24, 0x01	; 1
    1be8:	17 db       	rcall	.-2514   	; 0x1218 <floatSpeed>
                //auBuffer[] = floatAround(0x80, 5, 0x01, 0x00);

                if (buttonMark) {
    1bea:	80 91 44 38 	lds	r24, 0x3844	; 0x803844 <buttonMark>
    1bee:	88 23       	and	r24, r24
    1bf0:	79 f1       	breq	.+94     	; 0x1c50 <GenerateAudio+0x2e2>
                    if (start == 0) {
    1bf2:	80 91 50 38 	lds	r24, 0x3850	; 0x803850 <start.4031>
    1bf6:	81 11       	cpse	r24, r1
    1bf8:	0e c0       	rjmp	.+28     	; 0x1c16 <GenerateAudio+0x2a8>
                        duration = 3;
    1bfa:	83 e0       	ldi	r24, 0x03	; 3
    1bfc:	80 93 4f 38 	sts	0x384F, r24	; 0x80384f <duration.4030>
                        auRepAddr = &auBuffer[0];
    1c00:	8e e0       	ldi	r24, 0x0E	; 14
    1c02:	98 e3       	ldi	r25, 0x38	; 56
    1c04:	80 93 03 38 	sts	0x3803, r24	; 0x803803 <auRepAddr>
    1c08:	90 93 04 38 	sts	0x3804, r25	; 0x803804 <auRepAddr+0x1>
                        auVolume = 255;
    1c0c:	8f ef       	ldi	r24, 0xFF	; 255
    1c0e:	80 93 b9 3a 	sts	0x3AB9, r24	; 0x803ab9 <auVolume>
                        start = 1;
    1c12:	c0 93 50 38 	sts	0x3850, r28	; 0x803850 <start.4031>
                    }   if (duration == 0) {
    1c16:	80 91 4f 38 	lds	r24, 0x384F	; 0x80384f <duration.4030>
    1c1a:	81 11       	cpse	r24, r1
    1c1c:	13 c0       	rjmp	.+38     	; 0x1c44 <GenerateAudio+0x2d6>
                        effect &= 0x1f;
    1c1e:	80 91 3c 38 	lds	r24, 0x383C	; 0x80383c <effect>
    1c22:	90 91 3d 38 	lds	r25, 0x383D	; 0x80383d <effect+0x1>
    1c26:	8f 71       	andi	r24, 0x1F	; 31
    1c28:	99 27       	eor	r25, r25
    1c2a:	80 93 3c 38 	sts	0x383C, r24	; 0x80383c <effect>
    1c2e:	90 93 3d 38 	sts	0x383D, r25	; 0x80383d <effect+0x1>
                        auRepAddr = &zero;
    1c32:	8b e3       	ldi	r24, 0x3B	; 59
    1c34:	98 e3       	ldi	r25, 0x38	; 56
    1c36:	80 93 03 38 	sts	0x3803, r24	; 0x803803 <auRepAddr>
    1c3a:	90 93 04 38 	sts	0x3804, r25	; 0x803804 <auRepAddr+0x1>
                        //auSmpAddr = &zero;
                        //auVolume = 0xff;
                        start = 0;
    1c3e:	10 92 50 38 	sts	0x3850, r1	; 0x803850 <start.4031>
    1c42:	06 c0       	rjmp	.+12     	; 0x1c50 <GenerateAudio+0x2e2>
                    } else duration--;
    1c44:	81 50       	subi	r24, 0x01	; 1
    1c46:	80 93 4f 38 	sts	0x384F, r24	; 0x80384f <duration.4030>
    1c4a:	02 c0       	rjmp	.+4      	; 0x1c50 <GenerateAudio+0x2e2>
                }
            }
        }
    } else {
        detHdPh = 0;
    1c4c:	10 92 c2 3a 	sts	0x3AC2, r1	; 0x803ac2 <detHdPh>
    }
    return buttonMark;
    1c50:	80 91 44 38 	lds	r24, 0x3844	; 0x803844 <buttonMark>
}
    1c54:	cf 91       	pop	r28
    1c56:	1f 91       	pop	r17
    1c58:	0f 91       	pop	r16
    1c5a:	08 95       	ret

00001c5c <getClock>:

uint16_t getClock() {
    return 60 * minuteMark + (RTC_CNT>>9);
    1c5c:	20 91 45 38 	lds	r18, 0x3845	; 0x803845 <minuteMark>
    1c60:	80 91 48 01 	lds	r24, 0x0148	; 0x800148 <__TEXT_REGION_LENGTH__+0x700148>
    1c64:	90 91 49 01 	lds	r25, 0x0149	; 0x800149 <__TEXT_REGION_LENGTH__+0x700149>
    1c68:	89 2f       	mov	r24, r25
    1c6a:	99 27       	eor	r25, r25
    1c6c:	86 95       	lsr	r24
}
    1c6e:	3c e3       	ldi	r19, 0x3C	; 60
    1c70:	23 9f       	mul	r18, r19
    1c72:	80 0d       	add	r24, r0
    1c74:	91 1d       	adc	r25, r1
    1c76:	11 24       	eor	r1, r1
    1c78:	08 95       	ret

00001c7a <idleTimeout>:

uint8_t idleTimeout(uint16_t lastActive, uint16_t maxIdle) {
    1c7a:	0f 93       	push	r16
    1c7c:	1f 93       	push	r17
    1c7e:	cf 93       	push	r28
    1c80:	df 93       	push	r29
    1c82:	8c 01       	movw	r16, r24
    1c84:	eb 01       	movw	r28, r22
    uint16_t curClock;

    curClock = getClock();
    1c86:	ea df       	rcall	.-44     	; 0x1c5c <getClock>
    1c88:	9c 01       	movw	r18, r24
    if (curClock < lastActive)
    1c8a:	80 17       	cp	r24, r16
    1c8c:	91 07       	cpc	r25, r17
    1c8e:	08 f4       	brcc	.+2      	; 0x1c92 <idleTimeout+0x18>
        curClock += 256 * 60;
    1c90:	34 5c       	subi	r19, 0xC4	; 196

    return (curClock > (lastActive + maxIdle));
    1c92:	c0 0f       	add	r28, r16
    1c94:	d1 1f       	adc	r29, r17
    1c96:	81 e0       	ldi	r24, 0x01	; 1
    1c98:	c2 17       	cp	r28, r18
    1c9a:	d3 07       	cpc	r29, r19
    1c9c:	08 f0       	brcs	.+2      	; 0x1ca0 <idleTimeout+0x26>
    1c9e:	80 e0       	ldi	r24, 0x00	; 0
}
    1ca0:	df 91       	pop	r29
    1ca2:	cf 91       	pop	r28
    1ca4:	1f 91       	pop	r17
    1ca6:	0f 91       	pop	r16
    1ca8:	08 95       	ret

00001caa <SelfTest>:

uint8_t SelfTest(){
    1caa:	1f 93       	push	r17
    1cac:	cf 93       	push	r28
    1cae:	df 93       	push	r29
    1cb0:	00 d0       	rcall	.+0      	; 0x1cb2 <SelfTest+0x8>
    1cb2:	00 d0       	rcall	.+0      	; 0x1cb4 <SelfTest+0xa>
    1cb4:	cd b7       	in	r28, 0x3d	; 61
    1cb6:	de b7       	in	r29, 0x3e	; 62
    uint8_t tstVal[4] = {0x01, 0};
    1cb8:	19 82       	std	Y+1, r1	; 0x01
    1cba:	1a 82       	std	Y+2, r1	; 0x02
    1cbc:	1b 82       	std	Y+3, r1	; 0x03
    1cbe:	1c 82       	std	Y+4, r1	; 0x04
    1cc0:	ac e4       	ldi	r26, 0x4C	; 76
    1cc2:	bf eb       	ldi	r27, 0xBF	; 191

    //Red HCKR all on 100%
    for (uint8_t x=0; x<6; ++x) {
        iLED[HCKR[R][x]] = 0xff;
    1cc4:	8f ef       	ldi	r24, 0xFF	; 255
    1cc6:	ed 91       	ld	r30, X+
    1cc8:	f0 e0       	ldi	r31, 0x00	; 0
    1cca:	ea 53       	subi	r30, 0x3A	; 58
    1ccc:	f5 4c       	sbci	r31, 0xC5	; 197
    1cce:	80 83       	st	Z, r24

uint8_t SelfTest(){
    uint8_t tstVal[4] = {0x01, 0};

    //Red HCKR all on 100%
    for (uint8_t x=0; x<6; ++x) {
    1cd0:	2f eb       	ldi	r18, 0xBF	; 191
    1cd2:	a2 35       	cpi	r26, 0x52	; 82
    1cd4:	b2 07       	cpc	r27, r18
    1cd6:	b9 f7       	brne	.-18     	; 0x1cc6 <SelfTest+0x1c>
    iLED[HCKR[R][0]] = 0x00;
    iLED[HCKR[G][0]] = 0xff;
    auRepAddr = &zero;*/

    //Light sensor
    tstVal[0] = adcPhot&0xff;
    1cd8:	80 91 c0 3a 	lds	r24, 0x3AC0	; 0x803ac0 <adcPhot>
    1cdc:	90 91 c1 3a 	lds	r25, 0x3AC1	; 0x803ac1 <adcPhot+0x1>
    while (tstVal[0] == (adcPhot&0xff)) ;
    1ce0:	99 27       	eor	r25, r25
    1ce2:	20 91 c0 3a 	lds	r18, 0x3AC0	; 0x803ac0 <adcPhot>
    1ce6:	30 91 c1 3a 	lds	r19, 0x3AC1	; 0x803ac1 <adcPhot+0x1>
    1cea:	33 27       	eor	r19, r19
    1cec:	28 17       	cp	r18, r24
    1cee:	39 07       	cpc	r19, r25
    1cf0:	c1 f3       	breq	.-16     	; 0x1ce2 <SelfTest+0x38>
    iLED[HCKR[R][1]] = 0x00;
    1cf2:	e0 91 4d bf 	lds	r30, 0xBF4D	; 0x80bf4d <__bss_end+0x8438>
    1cf6:	f0 e0       	ldi	r31, 0x00	; 0
    1cf8:	ea 53       	subi	r30, 0x3A	; 58
    1cfa:	f5 4c       	sbci	r31, 0xC5	; 197
    1cfc:	10 82       	st	Z, r1
    //iLED[HCKR[G][1]] = 0xff;

    //Magnet
    tstVal[0] = adcHall&0xff;
    1cfe:	80 91 be 3a 	lds	r24, 0x3ABE	; 0x803abe <adcHall>
    1d02:	90 91 bf 3a 	lds	r25, 0x3ABF	; 0x803abf <adcHall+0x1>
    1d06:	89 83       	std	Y+1, r24	; 0x01
    while (tstVal[0] == (adcHall&0xff)) ;
    1d08:	99 27       	eor	r25, r25
    1d0a:	20 91 be 3a 	lds	r18, 0x3ABE	; 0x803abe <adcHall>
    1d0e:	30 91 bf 3a 	lds	r19, 0x3ABF	; 0x803abf <adcHall+0x1>
    1d12:	33 27       	eor	r19, r19
    1d14:	28 17       	cp	r18, r24
    1d16:	39 07       	cpc	r19, r25
    1d18:	c1 f3       	breq	.-16     	; 0x1d0a <SelfTest+0x60>
    iLED[HCKR[R][2]] = 0x00;
    1d1a:	e0 91 4e bf 	lds	r30, 0xBF4E	; 0x80bf4e <__bss_end+0x8439>
    1d1e:	f0 e0       	ldi	r31, 0x00	; 0
    1d20:	ea 53       	subi	r30, 0x3A	; 58
    1d22:	f5 4c       	sbci	r31, 0xC5	; 197
    1d24:	10 82       	st	Z, r1
    while (tstVal[0] == (adcTemp&0xff)) ;
    iLED[HCKR[R][3]] = 0x00;*/
    //iLED[HCKR[G][3]] = 0xff;

    //Buttons (none pressed / shorted)
    while ((adcBtns>>4) < 200) ;
    1d26:	80 91 ba 3a 	lds	r24, 0x3ABA	; 0x803aba <adcBtns>
    1d2a:	90 91 bb 3a 	lds	r25, 0x3ABB	; 0x803abb <adcBtns+0x1>
    1d2e:	80 38       	cpi	r24, 0x80	; 128
    1d30:	9c 40       	sbci	r25, 0x0C	; 12
    1d32:	c8 f3       	brcs	.-14     	; 0x1d26 <SelfTest+0x7c>
    iLED[HCKR[R][4]] = 0x00;
    1d34:	e0 91 50 bf 	lds	r30, 0xBF50	; 0x80bf50 <__bss_end+0x843b>
    1d38:	f0 e0       	ldi	r31, 0x00	; 0
    1d3a:	ea 53       	subi	r30, 0x3A	; 58
    1d3c:	f5 4c       	sbci	r31, 0xC5	; 197
    1d3e:	10 82       	st	Z, r1
        0x3CCD              Level 6, open_acl=0
        0x3CCE              Level 6, action_acl=192
        0x3CCF              Level 6, action_mask=20
    */
    
    ExtEERead(0x3CCC, 4, 0, (uint8_t *)&tstVal[0]);
    1d40:	9e 01       	movw	r18, r28
    1d42:	2f 5f       	subi	r18, 0xFF	; 255
    1d44:	3f 4f       	sbci	r19, 0xFF	; 255
    1d46:	40 e0       	ldi	r20, 0x00	; 0
    1d48:	64 e0       	ldi	r22, 0x04	; 4
    1d4a:	8c ec       	ldi	r24, 0xCC	; 204
    1d4c:	9c e3       	ldi	r25, 0x3C	; 60
    1d4e:	a5 d9       	rcall	.-3254   	; 0x109a <ExtEERead>
    if ((tstVal[0] != 63) || (tstVal[1] != 0) || (tstVal[2] != 192) || (tstVal[3] != 20)){
    1d50:	89 81       	ldd	r24, Y+1	; 0x01
    1d52:	8f 33       	cpi	r24, 0x3F	; 63
    1d54:	49 f4       	brne	.+18     	; 0x1d68 <SelfTest+0xbe>
    1d56:	8a 81       	ldd	r24, Y+2	; 0x02
    1d58:	81 11       	cpse	r24, r1
    1d5a:	06 c0       	rjmp	.+12     	; 0x1d68 <SelfTest+0xbe>
    1d5c:	8b 81       	ldd	r24, Y+3	; 0x03
    1d5e:	80 3c       	cpi	r24, 0xC0	; 192
    1d60:	19 f4       	brne	.+6      	; 0x1d68 <SelfTest+0xbe>
    1d62:	8c 81       	ldd	r24, Y+4	; 0x04
    1d64:	84 31       	cpi	r24, 0x14	; 20
    1d66:	09 f0       	breq	.+2      	; 0x1d6a <SelfTest+0xc0>
    1d68:	ff cf       	rjmp	.-2      	; 0x1d68 <SelfTest+0xbe>
    1d6a:	80 e0       	ldi	r24, 0x00	; 0
    1d6c:	90 e0       	ldi	r25, 0x00	; 0
        while(1);
    }
        //All LEDs off
    for (uint8_t x=0; x<40; ++x) {
        iLED[x]=0;
    1d6e:	fc 01       	movw	r30, r24
    1d70:	ea 53       	subi	r30, 0x3A	; 58
    1d72:	f5 4c       	sbci	r31, 0xC5	; 197
    1d74:	10 82       	st	Z, r1
    1d76:	01 96       	adiw	r24, 0x01	; 1
    ExtEERead(0x3CCC, 4, 0, (uint8_t *)&tstVal[0]);
    if ((tstVal[0] != 63) || (tstVal[1] != 0) || (tstVal[2] != 192) || (tstVal[3] != 20)){
        while(1);
    }
        //All LEDs off
    for (uint8_t x=0; x<40; ++x) {
    1d78:	88 32       	cpi	r24, 0x28	; 40
    1d7a:	91 05       	cpc	r25, r1
    1d7c:	c1 f7       	brne	.-16     	; 0x1d6e <SelfTest+0xc4>
    1d7e:	10 e0       	ldi	r17, 0x00	; 0
        iLED[x]=0;
    }

    for(uint8_t x=0; x<(adcPhot&0x3f); ++x) lfsr();
    1d80:	80 91 c0 3a 	lds	r24, 0x3AC0	; 0x803ac0 <adcPhot>
    1d84:	90 91 c1 3a 	lds	r25, 0x3AC1	; 0x803ac1 <adcPhot+0x1>
    1d88:	21 2f       	mov	r18, r17
    1d8a:	30 e0       	ldi	r19, 0x00	; 0
    1d8c:	8f 73       	andi	r24, 0x3F	; 63
    1d8e:	99 27       	eor	r25, r25
    1d90:	28 17       	cp	r18, r24
    1d92:	39 07       	cpc	r19, r25
    1d94:	18 f4       	brcc	.+6      	; 0x1d9c <SelfTest+0xf2>
    1d96:	21 da       	rcall	.-3006   	; 0x11da <lfsr>
    1d98:	1f 5f       	subi	r17, 0xFF	; 255
    1d9a:	f2 cf       	rjmp	.-28     	; 0x1d80 <SelfTest+0xd6>

    return 0;
}
    1d9c:	80 e0       	ldi	r24, 0x00	; 0
    1d9e:	24 96       	adiw	r28, 0x04	; 4
    1da0:	cd bf       	out	0x3d, r28	; 61
    1da2:	de bf       	out	0x3e, r29	; 62
    1da4:	df 91       	pop	r29
    1da6:	cf 91       	pop	r28
    1da8:	1f 91       	pop	r17
    1daa:	08 95       	ret

00001dac <simonLed>:

/**
 * Set the wing LED blocks to selected option
 * @param val
 */
void simonLed(uint8_t val) {
    1dac:	cf 93       	push	r28
    1dae:	df 93       	push	r29
    1db0:	ee e3       	ldi	r30, 0x3E	; 62
    1db2:	ff eb       	ldi	r31, 0xBF	; 191
    1db4:	ef 01       	movw	r28, r30
    for (uint8_t n = 0; n < 5; n++) {
        iLED[WING[L][n]] = 0;
    1db6:	a5 81       	ldd	r26, Z+5	; 0x05
    1db8:	b0 e0       	ldi	r27, 0x00	; 0
    1dba:	aa 53       	subi	r26, 0x3A	; 58
    1dbc:	b5 4c       	sbci	r27, 0xC5	; 197
    1dbe:	1c 92       	st	X, r1
    1dc0:	31 96       	adiw	r30, 0x01	; 1
        iLED[WING[R][n]] = 0;
    1dc2:	a8 81       	ld	r26, Y
    1dc4:	b0 e0       	ldi	r27, 0x00	; 0
    1dc6:	aa 53       	subi	r26, 0x3A	; 58
    1dc8:	b5 4c       	sbci	r27, 0xC5	; 197
    1dca:	1c 92       	st	X, r1
/**
 * Set the wing LED blocks to selected option
 * @param val
 */
void simonLed(uint8_t val) {
    for (uint8_t n = 0; n < 5; n++) {
    1dcc:	9f eb       	ldi	r25, 0xBF	; 191
    1dce:	e3 34       	cpi	r30, 0x43	; 67
    1dd0:	f9 07       	cpc	r31, r25
    1dd2:	81 f7       	brne	.-32     	; 0x1db4 <simonLed+0x8>
        iLED[WING[L][n]] = 0;
        iLED[WING[R][n]] = 0;
    }
    if (val == 3) {         // II
    1dd4:	83 30       	cpi	r24, 0x03	; 3
    1dd6:	d9 f4       	brne	.+54     	; 0x1e0e <simonLed+0x62>
        iLED[WING[L][0]] = dimValue;
    1dd8:	e0 91 43 bf 	lds	r30, 0xBF43	; 0x80bf43 <__bss_end+0x842e>
    1ddc:	f0 e0       	ldi	r31, 0x00	; 0
    1dde:	80 91 0c 38 	lds	r24, 0x380C	; 0x80380c <dimValue>
    1de2:	ea 53       	subi	r30, 0x3A	; 58
    1de4:	f5 4c       	sbci	r31, 0xC5	; 197
    1de6:	80 83       	st	Z, r24
        iLED[WING[L][1]] = dimValue;
    1de8:	e0 91 44 bf 	lds	r30, 0xBF44	; 0x80bf44 <__bss_end+0x842f>
    1dec:	f0 e0       	ldi	r31, 0x00	; 0
    1dee:	80 91 0c 38 	lds	r24, 0x380C	; 0x80380c <dimValue>
    1df2:	ea 53       	subi	r30, 0x3A	; 58
    1df4:	f5 4c       	sbci	r31, 0xC5	; 197
    1df6:	80 83       	st	Z, r24
        iLED[WING[L][2]] = dimValue;
    1df8:	e0 91 45 bf 	lds	r30, 0xBF45	; 0x80bf45 <__bss_end+0x8430>
    1dfc:	f0 e0       	ldi	r31, 0x00	; 0
    1dfe:	80 91 0c 38 	lds	r24, 0x380C	; 0x80380c <dimValue>
    1e02:	ea 53       	subi	r30, 0x3A	; 58
    1e04:	f5 4c       	sbci	r31, 0xC5	; 197
    1e06:	80 83       	st	Z, r24
        effect = 0x013f;
    1e08:	8f e3       	ldi	r24, 0x3F	; 63
    1e0a:	91 e0       	ldi	r25, 0x01	; 1
    1e0c:	46 c0       	rjmp	.+140    	; 0x1e9a <simonLed+0xee>
    } else if (val == 1) {  //
    1e0e:	81 30       	cpi	r24, 0x01	; 1
    1e10:	99 f4       	brne	.+38     	; 0x1e38 <simonLed+0x8c>
        iLED[WING[L][3]] = dimValue;
    1e12:	e0 91 46 bf 	lds	r30, 0xBF46	; 0x80bf46 <__bss_end+0x8431>
    1e16:	f0 e0       	ldi	r31, 0x00	; 0
    1e18:	80 91 0c 38 	lds	r24, 0x380C	; 0x80380c <dimValue>
    1e1c:	ea 53       	subi	r30, 0x3A	; 58
    1e1e:	f5 4c       	sbci	r31, 0xC5	; 197
    1e20:	80 83       	st	Z, r24
        iLED[WING[L][4]] = dimValue;
    1e22:	e0 91 47 bf 	lds	r30, 0xBF47	; 0x80bf47 <__bss_end+0x8432>
    1e26:	f0 e0       	ldi	r31, 0x00	; 0
    1e28:	80 91 0c 38 	lds	r24, 0x380C	; 0x80380c <dimValue>
    1e2c:	ea 53       	subi	r30, 0x3A	; 58
    1e2e:	f5 4c       	sbci	r31, 0xC5	; 197
    1e30:	80 83       	st	Z, r24
        effect = 0x015f;
    1e32:	8f e5       	ldi	r24, 0x5F	; 95
    1e34:	91 e0       	ldi	r25, 0x01	; 1
    1e36:	31 c0       	rjmp	.+98     	; 0x1e9a <simonLed+0xee>
    } else if (val == 4) {  // III
    1e38:	84 30       	cpi	r24, 0x04	; 4
    1e3a:	d9 f4       	brne	.+54     	; 0x1e72 <simonLed+0xc6>
        iLED[WING[R][0]] = dimValue;
    1e3c:	e0 91 3e bf 	lds	r30, 0xBF3E	; 0x80bf3e <__bss_end+0x8429>
    1e40:	f0 e0       	ldi	r31, 0x00	; 0
    1e42:	80 91 0c 38 	lds	r24, 0x380C	; 0x80380c <dimValue>
    1e46:	ea 53       	subi	r30, 0x3A	; 58
    1e48:	f5 4c       	sbci	r31, 0xC5	; 197
    1e4a:	80 83       	st	Z, r24
        iLED[WING[R][1]] = dimValue;
    1e4c:	e0 91 3f bf 	lds	r30, 0xBF3F	; 0x80bf3f <__bss_end+0x842a>
    1e50:	f0 e0       	ldi	r31, 0x00	; 0
    1e52:	80 91 0c 38 	lds	r24, 0x380C	; 0x80380c <dimValue>
    1e56:	ea 53       	subi	r30, 0x3A	; 58
    1e58:	f5 4c       	sbci	r31, 0xC5	; 197
    1e5a:	80 83       	st	Z, r24
        iLED[WING[R][2]] = dimValue;
    1e5c:	e0 91 40 bf 	lds	r30, 0xBF40	; 0x80bf40 <__bss_end+0x842b>
    1e60:	f0 e0       	ldi	r31, 0x00	; 0
    1e62:	80 91 0c 38 	lds	r24, 0x380C	; 0x80380c <dimValue>
    1e66:	ea 53       	subi	r30, 0x3A	; 58
    1e68:	f5 4c       	sbci	r31, 0xC5	; 197
    1e6a:	80 83       	st	Z, r24
        effect = 0x017f;
    1e6c:	8f e7       	ldi	r24, 0x7F	; 127
    1e6e:	91 e0       	ldi	r25, 0x01	; 1
    1e70:	14 c0       	rjmp	.+40     	; 0x1e9a <simonLed+0xee>
    } else if (val == 2) {  // I
    1e72:	82 30       	cpi	r24, 0x02	; 2
    1e74:	b1 f4       	brne	.+44     	; 0x1ea2 <simonLed+0xf6>
        iLED[WING[R][3]] = dimValue;
    1e76:	e0 91 41 bf 	lds	r30, 0xBF41	; 0x80bf41 <__bss_end+0x842c>
    1e7a:	f0 e0       	ldi	r31, 0x00	; 0
    1e7c:	80 91 0c 38 	lds	r24, 0x380C	; 0x80380c <dimValue>
    1e80:	ea 53       	subi	r30, 0x3A	; 58
    1e82:	f5 4c       	sbci	r31, 0xC5	; 197
    1e84:	80 83       	st	Z, r24
        iLED[WING[R][4]] = dimValue;
    1e86:	e0 91 42 bf 	lds	r30, 0xBF42	; 0x80bf42 <__bss_end+0x842d>
    1e8a:	f0 e0       	ldi	r31, 0x00	; 0
    1e8c:	80 91 0c 38 	lds	r24, 0x380C	; 0x80380c <dimValue>
    1e90:	ea 53       	subi	r30, 0x3A	; 58
    1e92:	f5 4c       	sbci	r31, 0xC5	; 197
    1e94:	80 83       	st	Z, r24
        effect = 0x019f;
    1e96:	8f e9       	ldi	r24, 0x9F	; 159
    1e98:	91 e0       	ldi	r25, 0x01	; 1
    1e9a:	80 93 3c 38 	sts	0x383C, r24	; 0x80383c <effect>
    1e9e:	90 93 3d 38 	sts	0x383D, r25	; 0x80383d <effect+0x1>
    }
}
    1ea2:	df 91       	pop	r29
    1ea4:	cf 91       	pop	r28
    1ea6:	08 95       	ret

00001ea8 <BastetDictates>:

/**
 * Main game loop
 * @return 0
 */
uint8_t BastetDictates() {
    1ea8:	cf 93       	push	r28
    1eaa:	df 93       	push	r29
    if ((TEXT != gameNow) && (BASTET != gameNow))
    1eac:	80 91 3e 38 	lds	r24, 0x383E	; 0x80383e <gameNow>
    1eb0:	8d 7f       	andi	r24, 0xFD	; 253
    1eb2:	09 f0       	breq	.+2      	; 0x1eb6 <BastetDictates+0xe>
    1eb4:	73 c1       	rjmp	.+742    	; 0x219c <BastetDictates+0x2f4>
        return 0;

    if (CheckState(BASTET_COMPLETED)) {
    1eb6:	8a e7       	ldi	r24, 0x7A	; 122
    1eb8:	bb da       	rcall	.-2698   	; 0x1430 <CheckState>
    1eba:	88 23       	and	r24, r24
    1ebc:	41 f0       	breq	.+16     	; 0x1ece <BastetDictates+0x26>
        if (BASTET == gameNow) {
    1ebe:	80 91 3e 38 	lds	r24, 0x383E	; 0x80383e <gameNow>
    1ec2:	82 30       	cpi	r24, 0x02	; 2
    1ec4:	09 f0       	breq	.+2      	; 0x1ec8 <BastetDictates+0x20>
    1ec6:	6a c1       	rjmp	.+724    	; 0x219c <BastetDictates+0x2f4>
            gameNow = TEXT;
    1ec8:	10 92 3e 38 	sts	0x383E, r1	; 0x80383e <gameNow>
    1ecc:	67 c1       	rjmp	.+718    	; 0x219c <BastetDictates+0x2f4>
        }
        return 0;
    }

    if (CheckState(LANYARD_COMPLETED))
    1ece:	8b e7       	ldi	r24, 0x7B	; 123
    1ed0:	af da       	rcall	.-2722   	; 0x1430 <CheckState>
    1ed2:	90 91 08 38 	lds	r25, 0x3808	; 0x803808 <buttonState>
    1ed6:	88 23       	and	r24, r24
    1ed8:	29 f0       	breq	.+10     	; 0x1ee4 <BastetDictates+0x3c>
        if (buttonState!=0xff)
    1eda:	9f 3f       	cpi	r25, 0xFF	; 255
    1edc:	19 f0       	breq	.+6      	; 0x1ee4 <BastetDictates+0x3c>
            gameNow = BASTET;
    1ede:	82 e0       	ldi	r24, 0x02	; 2
    1ee0:	80 93 3e 38 	sts	0x383E, r24	; 0x80383e <gameNow>

    iLED[CAT] = (buttonState==0xff ? 0 : dimValue);
    1ee4:	e0 91 3a bf 	lds	r30, 0xBF3A	; 0x80bf3a <__bss_end+0x8425>
    1ee8:	f0 e0       	ldi	r31, 0x00	; 0
    1eea:	9f 3f       	cpi	r25, 0xFF	; 255
    1eec:	19 f0       	breq	.+6      	; 0x1ef4 <BastetDictates+0x4c>
    1eee:	80 91 0c 38 	lds	r24, 0x380C	; 0x80380c <dimValue>
    1ef2:	01 c0       	rjmp	.+2      	; 0x1ef6 <BastetDictates+0x4e>
    1ef4:	80 e0       	ldi	r24, 0x00	; 0
    1ef6:	ea 53       	subi	r30, 0x3A	; 58
    1ef8:	f5 4c       	sbci	r31, 0xC5	; 197
    1efa:	80 83       	st	Z, r24

    if (BASTET_BOOT == simonGameState) {
    1efc:	80 91 5f 38 	lds	r24, 0x385F	; 0x80385f <simonGameState>
    1f00:	81 11       	cpse	r24, r1
    1f02:	0c c0       	rjmp	.+24     	; 0x1f1c <BastetDictates+0x74>
    1f04:	c5 e6       	ldi	r28, 0x65	; 101
        for (uint8_t i = 0; i < BASTET_LENGTH; i++) {
            simonState[i] = (lfsr() % 4);
    1f06:	d8 e3       	ldi	r29, 0x38	; 56
    1f08:	68 d9       	rcall	.-3376   	; 0x11da <lfsr>
    1f0a:	83 70       	andi	r24, 0x03	; 3
    1f0c:	89 93       	st	Y+, r24
            gameNow = BASTET;

    iLED[CAT] = (buttonState==0xff ? 0 : dimValue);

    if (BASTET_BOOT == simonGameState) {
        for (uint8_t i = 0; i < BASTET_LENGTH; i++) {
    1f0e:	88 e3       	ldi	r24, 0x38	; 56
    1f10:	c1 37       	cpi	r28, 0x71	; 113
    1f12:	d8 07       	cpc	r29, r24
    1f14:	c9 f7       	brne	.-14     	; 0x1f08 <BastetDictates+0x60>
            simonState[i] = (lfsr() % 4);
        }
        simonGameState = BASTET_GAME_START;
    1f16:	81 e0       	ldi	r24, 0x01	; 1
    1f18:	80 93 5f 38 	sts	0x385F, r24	; 0x80385f <simonGameState>
    }

    if (BASTET_GAME_START == simonGameState && BASTET == gameNow) {
    1f1c:	80 91 5f 38 	lds	r24, 0x385F	; 0x80385f <simonGameState>
    1f20:	81 30       	cpi	r24, 0x01	; 1
    1f22:	71 f4       	brne	.+28     	; 0x1f40 <BastetDictates+0x98>
    1f24:	80 91 3e 38 	lds	r24, 0x383E	; 0x80383e <gameNow>
    1f28:	82 30       	cpi	r24, 0x02	; 2
    1f2a:	51 f4       	brne	.+20     	; 0x1f40 <BastetDictates+0x98>
        simonGameState = BASTET_GAME_INTRO;
    1f2c:	80 93 5f 38 	sts	0x385F, r24	; 0x80385f <simonGameState>
        simonPos = 0;
    1f30:	10 92 64 38 	sts	0x3864, r1	; 0x803864 <simonPos>
        simonInputPos = 0;
    1f34:	10 92 63 38 	sts	0x3863, r1	; 0x803863 <simonInputPos>
        simonTimer = 0;
    1f38:	10 92 62 38 	sts	0x3862, r1	; 0x803862 <simonTimer>
        simonCounter = 0;
    1f3c:	10 92 60 38 	sts	0x3860, r1	; 0x803860 <simonCounter>
    }

    if (BASTET_GAME_INTRO == simonGameState) {
    1f40:	80 91 5f 38 	lds	r24, 0x385F	; 0x80385f <simonGameState>
    1f44:	82 30       	cpi	r24, 0x02	; 2
    1f46:	19 f5       	brne	.+70     	; 0x1f8e <BastetDictates+0xe6>
        if (simonTimer > 5) {   // .33 seconds
    1f48:	80 91 62 38 	lds	r24, 0x3862	; 0x803862 <simonTimer>
    1f4c:	86 30       	cpi	r24, 0x06	; 6
    1f4e:	38 f0       	brcs	.+14     	; 0x1f5e <BastetDictates+0xb6>
            simonCounter++;
    1f50:	80 91 60 38 	lds	r24, 0x3860	; 0x803860 <simonCounter>
    1f54:	8f 5f       	subi	r24, 0xFF	; 255
    1f56:	80 93 60 38 	sts	0x3860, r24	; 0x803860 <simonCounter>
            simonTimer = 0;
    1f5a:	10 92 62 38 	sts	0x3862, r1	; 0x803862 <simonTimer>
        }
        if (simonCounter > 5) {
    1f5e:	e0 91 60 38 	lds	r30, 0x3860	; 0x803860 <simonCounter>
    1f62:	e6 30       	cpi	r30, 0x06	; 6
    1f64:	48 f0       	brcs	.+18     	; 0x1f78 <BastetDictates+0xd0>
            simonGameState = BASTET_GAME_SHOW_PATTERN;
    1f66:	83 e0       	ldi	r24, 0x03	; 3
    1f68:	80 93 5f 38 	sts	0x385F, r24	; 0x80385f <simonGameState>
            simonTimer = 0;
    1f6c:	10 92 62 38 	sts	0x3862, r1	; 0x803862 <simonTimer>
            simonCounter = 0;
    1f70:	10 92 60 38 	sts	0x3860, r1	; 0x803860 <simonCounter>
            ClearHackerLeds();
    1f74:	6a db       	rcall	.-2348   	; 0x164a <ClearHackerLeds>
            return 0;
    1f76:	12 c1       	rjmp	.+548    	; 0x219c <BastetDictates+0x2f4>
        }
        iLED[HCKR[R][simonCounter]] = dimValue;
    1f78:	f0 e0       	ldi	r31, 0x00	; 0
    1f7a:	e4 5b       	subi	r30, 0xB4	; 180
    1f7c:	f0 44       	sbci	r31, 0x40	; 64
    1f7e:	e0 81       	ld	r30, Z
    1f80:	f0 e0       	ldi	r31, 0x00	; 0
    1f82:	80 91 0c 38 	lds	r24, 0x380C	; 0x80380c <dimValue>
    1f86:	ea 53       	subi	r30, 0x3A	; 58
    1f88:	f5 4c       	sbci	r31, 0xC5	; 197
    1f8a:	80 83       	st	Z, r24
    1f8c:	2b c0       	rjmp	.+86     	; 0x1fe4 <BastetDictates+0x13c>
    }

    if (BASTET_GAME_SHOW_PATTERN == simonGameState) {
    1f8e:	83 30       	cpi	r24, 0x03	; 3
    1f90:	49 f5       	brne	.+82     	; 0x1fe4 <BastetDictates+0x13c>
        if (simonTimer > 7) {   // .5 second
    1f92:	80 91 62 38 	lds	r24, 0x3862	; 0x803862 <simonTimer>
    1f96:	88 30       	cpi	r24, 0x08	; 8
    1f98:	38 f0       	brcs	.+14     	; 0x1fa8 <BastetDictates+0x100>
            simonCounter++;
    1f9a:	80 91 60 38 	lds	r24, 0x3860	; 0x803860 <simonCounter>
    1f9e:	8f 5f       	subi	r24, 0xFF	; 255
    1fa0:	80 93 60 38 	sts	0x3860, r24	; 0x803860 <simonCounter>
            simonTimer = 0;
    1fa4:	10 92 62 38 	sts	0x3862, r1	; 0x803862 <simonTimer>
        }
        if (simonCounter > simonPos) {
    1fa8:	e0 91 60 38 	lds	r30, 0x3860	; 0x803860 <simonCounter>
    1fac:	80 91 64 38 	lds	r24, 0x3864	; 0x803864 <simonPos>
    1fb0:	8e 17       	cp	r24, r30
    1fb2:	40 f4       	brcc	.+16     	; 0x1fc4 <BastetDictates+0x11c>
            simonInputPos = 0;
    1fb4:	10 92 63 38 	sts	0x3863, r1	; 0x803863 <simonInputPos>
            simonGameState = BASTET_GAME_INPUT;
    1fb8:	85 e0       	ldi	r24, 0x05	; 5
    1fba:	80 93 5f 38 	sts	0x385F, r24	; 0x80385f <simonGameState>
            simonLed(0);
    1fbe:	80 e0       	ldi	r24, 0x00	; 0
    1fc0:	f5 de       	rcall	.-534    	; 0x1dac <simonLed>
    1fc2:	98 c0       	rjmp	.+304    	; 0x20f4 <BastetDictates+0x24c>
            simonTimer = 0;
            return 0;
        }
        if (simonTimer < 3) {
    1fc4:	80 91 62 38 	lds	r24, 0x3862	; 0x803862 <simonTimer>
    1fc8:	83 30       	cpi	r24, 0x03	; 3
    1fca:	30 f4       	brcc	.+12     	; 0x1fd8 <BastetDictates+0x130>
            simonLed(simonState[simonCounter] + 1);
    1fcc:	f0 e0       	ldi	r31, 0x00	; 0
    1fce:	eb 59       	subi	r30, 0x9B	; 155
    1fd0:	f7 4c       	sbci	r31, 0xC7	; 199
    1fd2:	80 81       	ld	r24, Z
    1fd4:	8f 5f       	subi	r24, 0xFF	; 255
    1fd6:	ea de       	rcall	.-556    	; 0x1dac <simonLed>
        }
        if (simonTimer > 6) {
    1fd8:	80 91 62 38 	lds	r24, 0x3862	; 0x803862 <simonTimer>
    1fdc:	87 30       	cpi	r24, 0x07	; 7
    1fde:	10 f0       	brcs	.+4      	; 0x1fe4 <BastetDictates+0x13c>
            simonLed(0);
    1fe0:	80 e0       	ldi	r24, 0x00	; 0
    1fe2:	e4 de       	rcall	.-568    	; 0x1dac <simonLed>
    1fe4:	c0 91 5f 38 	lds	r28, 0x385F	; 0x80385f <simonGameState>
        }
    }

    if (BASTET_GAME_INPUT == simonGameState) {
    1fe8:	c5 30       	cpi	r28, 0x05	; 5
    1fea:	09 f0       	breq	.+2      	; 0x1fee <BastetDictates+0x146>
    1fec:	86 c0       	rjmp	.+268    	; 0x20fa <BastetDictates+0x252>
    1fee:	80 91 08 38 	lds	r24, 0x3808	; 0x803808 <buttonState>
        //Button pressed
        if (lastButtonState != buttonState && (buttonState+1) > 0) {
    1ff2:	90 91 07 38 	lds	r25, 0x3807	; 0x803807 <lastButtonState>
    1ff6:	98 17       	cp	r25, r24
    1ff8:	09 f4       	brne	.+2      	; 0x1ffc <BastetDictates+0x154>
    1ffa:	71 c0       	rjmp	.+226    	; 0x20de <BastetDictates+0x236>
    1ffc:	90 91 61 38 	lds	r25, 0x3861	; 0x803861 <simonWait>
            if (simonWait == 0 && buttonState < 4) {
    2000:	91 11       	cpse	r25, r1
    2002:	6f c0       	rjmp	.+222    	; 0x20e2 <BastetDictates+0x23a>
    2004:	84 30       	cpi	r24, 0x04	; 4
    2006:	08 f0       	brcs	.+2      	; 0x200a <BastetDictates+0x162>
    2008:	6c c0       	rjmp	.+216    	; 0x20e2 <BastetDictates+0x23a>
                simonWait = 1;
    200a:	91 e0       	ldi	r25, 0x01	; 1
    200c:	90 93 61 38 	sts	0x3861, r25	; 0x803861 <simonWait>
                simonTimer = 0;
    2010:	10 92 62 38 	sts	0x3862, r1	; 0x803862 <simonTimer>
                simonLed(buttonState+1);
    2014:	8f 5f       	subi	r24, 0xFF	; 255
    2016:	ca de       	rcall	.-620    	; 0x1dac <simonLed>
    2018:	84 e0       	ldi	r24, 0x04	; 4
                simonGameState = BASTET_GAME_WAIT_LEDS;
    201a:	80 93 5f 38 	sts	0x385F, r24	; 0x80385f <simonGameState>
    201e:	c0 93 30 38 	sts	0x3830, r28	; 0x803830 <simonNextGameState>
                simonNextGameState = BASTET_GAME_INPUT;
    2022:	80 91 63 38 	lds	r24, 0x3863	; 0x803863 <simonInputPos>

                if (simonState[simonInputPos] == buttonState) {
    2026:	e8 2f       	mov	r30, r24
    2028:	f0 e0       	ldi	r31, 0x00	; 0
    202a:	eb 59       	subi	r30, 0x9B	; 155
    202c:	f7 4c       	sbci	r31, 0xC7	; 199
    202e:	20 81       	ld	r18, Z
    2030:	90 91 08 38 	lds	r25, 0x3808	; 0x803808 <buttonState>
    2034:	29 13       	cpse	r18, r25
    2036:	1d c0       	rjmp	.+58     	; 0x2072 <BastetDictates+0x1ca>
    2038:	8f 5f       	subi	r24, 0xFF	; 255
                    simonInputPos++;
    203a:	80 93 63 38 	sts	0x3863, r24	; 0x803863 <simonInputPos>
    203e:	e0 91 64 38 	lds	r30, 0x3864	; 0x803864 <simonPos>
                    if (simonInputPos > simonPos) {
    2042:	e8 17       	cp	r30, r24
    2044:	a0 f5       	brcc	.+104    	; 0x20ae <BastetDictates+0x206>
    2046:	ef 5f       	subi	r30, 0xFF	; 255
                        simonPos++;
    2048:	e0 93 64 38 	sts	0x3864, r30	; 0x803864 <simonPos>
    204c:	10 92 62 38 	sts	0x3862, r1	; 0x803862 <simonTimer>
                        simonTimer = 0;
    2050:	10 92 60 38 	sts	0x3860, r1	; 0x803860 <simonCounter>
                        simonCounter = 0;
    2054:	e1 30       	cpi	r30, 0x01	; 1
                        if (simonPos > 1) { // BASTET_LENGTH = 12
    2056:	59 f0       	breq	.+22     	; 0x206e <BastetDictates+0x1c6>
    2058:	e6 95       	lsr	r30
                            iLED[HCKR[G][(simonPos / 2) - 1]] = dimValue;
    205a:	f0 e0       	ldi	r31, 0x00	; 0
    205c:	e4 5b       	subi	r30, 0xB4	; 180
    205e:	f0 44       	sbci	r31, 0x40	; 64
    2060:	e5 81       	ldd	r30, Z+5	; 0x05
    2062:	f0 e0       	ldi	r31, 0x00	; 0
    2064:	80 91 0c 38 	lds	r24, 0x380C	; 0x80380c <dimValue>
    2068:	ea 53       	subi	r30, 0x3A	; 58
    206a:	f5 4c       	sbci	r31, 0xC5	; 197
    206c:	80 83       	st	Z, r24
    206e:	83 e0       	ldi	r24, 0x03	; 3
                        }
                        simonNextGameState = BASTET_GAME_SHOW_PATTERN;
    2070:	1c c0       	rjmp	.+56     	; 0x20aa <BastetDictates+0x202>
    2072:	80 e2       	ldi	r24, 0x20	; 32
                    }
                } else {
                    effect = 32;
    2074:	90 e0       	ldi	r25, 0x00	; 0
    2076:	80 93 3c 38 	sts	0x383C, r24	; 0x80383c <effect>
    207a:	90 93 3d 38 	sts	0x383D, r25	; 0x80383d <effect+0x1>
    207e:	ac e4       	ldi	r26, 0x4C	; 76
    2080:	bf eb       	ldi	r27, 0xBF	; 191
    2082:	ed 91       	ld	r30, X+
                    for (uint8_t n=0; n<6; n++){
                        iLED[HCKR[R][n]] = dimValue;
    2084:	f0 e0       	ldi	r31, 0x00	; 0
    2086:	80 91 0c 38 	lds	r24, 0x380C	; 0x80380c <dimValue>
    208a:	ea 53       	subi	r30, 0x3A	; 58
    208c:	f5 4c       	sbci	r31, 0xC5	; 197
    208e:	80 83       	st	Z, r24
    2090:	8f eb       	ldi	r24, 0xBF	; 191
                        }
                        simonNextGameState = BASTET_GAME_SHOW_PATTERN;
                    }
                } else {
                    effect = 32;
                    for (uint8_t n=0; n<6; n++){
    2092:	a2 35       	cpi	r26, 0x52	; 82
    2094:	b8 07       	cpc	r27, r24
    2096:	a9 f7       	brne	.-22     	; 0x2082 <BastetDictates+0x1da>
    2098:	10 92 63 38 	sts	0x3863, r1	; 0x803863 <simonInputPos>
                        iLED[HCKR[R][n]] = dimValue;
                    }
                    simonInputPos = 0;
    209c:	10 92 64 38 	sts	0x3864, r1	; 0x803864 <simonPos>
                    simonPos = 0;
    20a0:	10 92 62 38 	sts	0x3862, r1	; 0x803862 <simonTimer>
                    simonTimer = 0;
    20a4:	10 92 60 38 	sts	0x3860, r1	; 0x803860 <simonCounter>
                    simonCounter = 0;
    20a8:	86 e0       	ldi	r24, 0x06	; 6
                    simonNextGameState = BASTET_GAME_OUTRO;
    20aa:	80 93 30 38 	sts	0x3830, r24	; 0x803830 <simonNextGameState>
    20ae:	80 91 63 38 	lds	r24, 0x3863	; 0x803863 <simonInputPos>
                }

                if (simonInputPos >= BASTET_LENGTH || simonPos >= BASTET_LENGTH) { // beetje dubbel
    20b2:	8c 30       	cpi	r24, 0x0C	; 12
    20b4:	20 f4       	brcc	.+8      	; 0x20be <BastetDictates+0x216>
    20b6:	80 91 64 38 	lds	r24, 0x3864	; 0x803864 <simonPos>
    20ba:	8c 30       	cpi	r24, 0x0C	; 12
    20bc:	90 f0       	brcs	.+36     	; 0x20e2 <BastetDictates+0x23a>
                    effect = 64|2;
    20be:	82 e4       	ldi	r24, 0x42	; 66
    20c0:	90 e0       	ldi	r25, 0x00	; 0
    20c2:	80 93 3c 38 	sts	0x383C, r24	; 0x80383c <effect>
    20c6:	90 93 3d 38 	sts	0x383D, r25	; 0x80383d <effect+0x1>
                    UpdateState(BASTET_COMPLETED);
    20ca:	8a e7       	ldi	r24, 0x7A	; 122
    20cc:	90 d9       	rcall	.-3296   	; 0x13ee <UpdateState>
    20ce:	10 92 62 38 	sts	0x3862, r1	; 0x803862 <simonTimer>
                    simonTimer = 0;
    20d2:	10 92 60 38 	sts	0x3860, r1	; 0x803860 <simonCounter>
                    simonCounter = 0;
    20d6:	87 e0       	ldi	r24, 0x07	; 7
                    simonNextGameState = BASTET_GAME_OVER;
    20d8:	80 93 30 38 	sts	0x3830, r24	; 0x803830 <simonNextGameState>
    20dc:	02 c0       	rjmp	.+4      	; 0x20e2 <BastetDictates+0x23a>
    20de:	10 92 61 38 	sts	0x3861, r1	; 0x803861 <simonWait>
                }
            }
        
        //Button released, next or reset!
        } else {
            simonWait = 0;
    20e2:	80 91 62 38 	lds	r24, 0x3862	; 0x803862 <simonTimer>
        }

        if (simonTimer == 200) {    // did you forget about Bastet?
    20e6:	88 3c       	cpi	r24, 0xC8	; 200
    20e8:	41 f4       	brne	.+16     	; 0x20fa <BastetDictates+0x252>
    20ea:	83 e0       	ldi	r24, 0x03	; 3
            simonGameState = BASTET_GAME_SHOW_PATTERN;
    20ec:	80 93 5f 38 	sts	0x385F, r24	; 0x80385f <simonGameState>
    20f0:	10 92 60 38 	sts	0x3860, r1	; 0x803860 <simonCounter>
            simonCounter = 0;
    20f4:	10 92 62 38 	sts	0x3862, r1	; 0x803862 <simonTimer>
            simonTimer = 0;
    20f8:	51 c0       	rjmp	.+162    	; 0x219c <BastetDictates+0x2f4>
            return 0;
    20fa:	80 91 5f 38 	lds	r24, 0x385F	; 0x80385f <simonGameState>
        }
    }

    if (BASTET_GAME_WAIT_LEDS == simonGameState) {
    20fe:	84 30       	cpi	r24, 0x04	; 4
    2100:	81 f4       	brne	.+32     	; 0x2122 <BastetDictates+0x27a>
        if (simonTimer >= 7) {
    2102:	80 91 62 38 	lds	r24, 0x3862	; 0x803862 <simonTimer>
    2106:	87 30       	cpi	r24, 0x07	; 7
    2108:	60 f0       	brcs	.+24     	; 0x2122 <BastetDictates+0x27a>
            // on to next state after .5 second
            simonLed(0);  // LEDs off
    210a:	80 e0       	ldi	r24, 0x00	; 0
    210c:	4f de       	rcall	.-866    	; 0x1dac <simonLed>
    210e:	10 92 61 38 	sts	0x3861, r1	; 0x803861 <simonWait>
            simonWait = 0;
    2112:	10 92 62 38 	sts	0x3862, r1	; 0x803862 <simonTimer>
            simonTimer = 0;
    2116:	10 92 60 38 	sts	0x3860, r1	; 0x803860 <simonCounter>
            simonCounter = 0;
    211a:	80 91 30 38 	lds	r24, 0x3830	; 0x803830 <simonNextGameState>
            simonGameState = simonNextGameState;
    211e:	80 93 5f 38 	sts	0x385F, r24	; 0x80385f <simonGameState>
    2122:	80 91 5f 38 	lds	r24, 0x385F	; 0x80385f <simonGameState>
        }
    }

    if (BASTET_GAME_OUTRO == simonGameState) {
    2126:	86 30       	cpi	r24, 0x06	; 6
    2128:	41 f5       	brne	.+80     	; 0x217a <BastetDictates+0x2d2>
    212a:	80 91 62 38 	lds	r24, 0x3862	; 0x803862 <simonTimer>
        if (simonTimer > 3) {
    212e:	84 30       	cpi	r24, 0x04	; 4
    2130:	38 f0       	brcs	.+14     	; 0x2140 <BastetDictates+0x298>
    2132:	80 91 60 38 	lds	r24, 0x3860	; 0x803860 <simonCounter>
            simonCounter++;
    2136:	8f 5f       	subi	r24, 0xFF	; 255
    2138:	80 93 60 38 	sts	0x3860, r24	; 0x803860 <simonCounter>
    213c:	10 92 62 38 	sts	0x3862, r1	; 0x803862 <simonTimer>
            simonTimer = 0;
    2140:	80 91 60 38 	lds	r24, 0x3860	; 0x803860 <simonCounter>
        }
        if (simonCounter > 5) {
    2144:	86 30       	cpi	r24, 0x06	; 6
    2146:	40 f0       	brcs	.+16     	; 0x2158 <BastetDictates+0x2b0>
    2148:	10 92 62 38 	sts	0x3862, r1	; 0x803862 <simonTimer>
            simonTimer = 0;
    214c:	10 92 60 38 	sts	0x3860, r1	; 0x803860 <simonCounter>
            simonCounter = 0;
    2150:	87 e0       	ldi	r24, 0x07	; 7
            simonGameState = BASTET_GAME_OVER;
    2152:	80 93 5f 38 	sts	0x385F, r24	; 0x80385f <simonGameState>
    2156:	22 c0       	rjmp	.+68     	; 0x219c <BastetDictates+0x2f4>
            return 0;
    2158:	e5 e0       	ldi	r30, 0x05	; 5
        }
        iLED[HCKR[R][5-simonCounter]] = 0;
    215a:	f0 e0       	ldi	r31, 0x00	; 0
    215c:	e8 1b       	sub	r30, r24
    215e:	f1 09       	sbc	r31, r1
    2160:	e4 5b       	subi	r30, 0xB4	; 180
    2162:	f0 44       	sbci	r31, 0x40	; 64
    2164:	a0 81       	ld	r26, Z
    2166:	b0 e0       	ldi	r27, 0x00	; 0
    2168:	aa 53       	subi	r26, 0x3A	; 58
    216a:	b5 4c       	sbci	r27, 0xC5	; 197
    216c:	1c 92       	st	X, r1
    216e:	e6 81       	ldd	r30, Z+6	; 0x06
        iLED[HCKR[G][5-simonCounter]] = 0;
    2170:	f0 e0       	ldi	r31, 0x00	; 0
    2172:	ea 53       	subi	r30, 0x3A	; 58
    2174:	f5 4c       	sbci	r31, 0xC5	; 197
    2176:	10 82       	st	Z, r1
    2178:	0c c0       	rjmp	.+24     	; 0x2192 <BastetDictates+0x2ea>
    217a:	87 30       	cpi	r24, 0x07	; 7
    }

    if (BASTET_GAME_OVER == simonGameState) {
    217c:	51 f4       	brne	.+20     	; 0x2192 <BastetDictates+0x2ea>
        simonInputPos = 0;
    217e:	10 92 63 38 	sts	0x3863, r1	; 0x803863 <simonInputPos>
        simonPos = 0;
    2182:	10 92 64 38 	sts	0x3864, r1	; 0x803864 <simonPos>
        simonGameState = BASTET_BOOT; // BASTET_GAME_START for stale "field" s
    2186:	10 92 5f 38 	sts	0x385F, r1	; 0x80385f <simonGameState>
        gameNow = TEXT;
    218a:	10 92 3e 38 	sts	0x383E, r1	; 0x80383e <gameNow>
        simonLed(0);
    218e:	80 e0       	ldi	r24, 0x00	; 0
    2190:	0d de       	rcall	.-998    	; 0x1dac <simonLed>
    2192:	80 91 62 38 	lds	r24, 0x3862	; 0x803862 <simonTimer>
    }

    ++simonTimer;
    2196:	8f 5f       	subi	r24, 0xFF	; 255
    2198:	80 93 62 38 	sts	0x3862, r24	; 0x803862 <simonTimer>
    219c:	80 e0       	ldi	r24, 0x00	; 0
    return 0;
}
    219e:	df 91       	pop	r29
    21a0:	cf 91       	pop	r28
    21a2:	08 95       	ret

000021a4 <Cheat>:
    21a4:	1f 93       	push	r17

//
void SetResponse(uint8_t number, uint16_t address, uint16_t length, uint8_t type){
    reactStr[0][number]=address;
    reactStr[1][number]=length;
    reactStr[2][number]=type;
    21a6:	cf 93       	push	r28
    21a8:	df 93       	push	r29
    21aa:	cd b7       	in	r28, 0x3d	; 61
    21ac:	de b7       	in	r29, 0x3e	; 62
    21ae:	62 97       	sbiw	r28, 0x12	; 18
    21b0:	cd bf       	out	0x3d, r28	; 61
    21b2:	de bf       	out	0x3e, r29	; 62
    21b4:	8a 8b       	std	Y+18, r24	; 0x12
    21b6:	80 e1       	ldi	r24, 0x10	; 16
    21b8:	e2 e1       	ldi	r30, 0x12	; 18
    21ba:	ff eb       	ldi	r31, 0xBF	; 191
    21bc:	de 01       	movw	r26, r28
    21be:	11 96       	adiw	r26, 0x01	; 1
    21c0:	01 90       	ld	r0, Z+
    21c2:	0d 92       	st	X+, r0
    21c4:	8a 95       	dec	r24
    21c6:	e1 f7       	brne	.-8      	; 0x21c0 <Cheat+0x1c>
    21c8:	fe 01       	movw	r30, r28
    21ca:	31 96       	adiw	r30, 0x01	; 1
    21cc:	90 e0       	ldi	r25, 0x00	; 0
    21ce:	8f ef       	ldi	r24, 0xFF	; 255
    21d0:	21 91       	ld	r18, Z+
    21d2:	31 91       	ld	r19, Z+
    21d4:	26 17       	cp	r18, r22
    21d6:	37 07       	cpc	r19, r23
    21d8:	09 f4       	brne	.+2      	; 0x21dc <Cheat+0x38>
    21da:	89 2f       	mov	r24, r25
    21dc:	9f 5f       	subi	r25, 0xFF	; 255
    21de:	98 30       	cpi	r25, 0x08	; 8
    21e0:	b9 f7       	brne	.-18     	; 0x21d0 <Cheat+0x2c>
    21e2:	88 30       	cpi	r24, 0x08	; 8
    21e4:	10 f0       	brcs	.+4      	; 0x21ea <Cheat+0x46>
    21e6:	80 e0       	ldi	r24, 0x00	; 0
    21e8:	14 c0       	rjmp	.+40     	; 0x2212 <Cheat+0x6e>
    21ea:	18 e1       	ldi	r17, 0x18	; 24
    21ec:	18 0f       	add	r17, r24
    21ee:	41 e0       	ldi	r20, 0x01	; 1
    21f0:	be 01       	movw	r22, r28
    21f2:	6f 5e       	subi	r22, 0xEF	; 239
    21f4:	7f 4f       	sbci	r23, 0xFF	; 255
    21f6:	81 2f       	mov	r24, r17
    21f8:	0e 94 fb 07 	call	0xff6	; 0xff6 <EERead>
    21fc:	89 89       	ldd	r24, Y+17	; 0x11
    21fe:	8f 3f       	cpi	r24, 0xFF	; 255
    2200:	91 f7       	brne	.-28     	; 0x21e6 <Cheat+0x42>
    2202:	41 e0       	ldi	r20, 0x01	; 1
    2204:	be 01       	movw	r22, r28
    2206:	6e 5e       	subi	r22, 0xEE	; 238
    2208:	7f 4f       	sbci	r23, 0xFF	; 255
    220a:	81 2f       	mov	r24, r17
    220c:	0e 94 0b 08 	call	0x1016	; 0x1016 <EEWrite>
    2210:	81 e0       	ldi	r24, 0x01	; 1
    2212:	62 96       	adiw	r28, 0x12	; 18
    2214:	cd bf       	out	0x3d, r28	; 61
    2216:	de bf       	out	0x3e, r29	; 62
    2218:	df 91       	pop	r29
    221a:	cf 91       	pop	r28
    221c:	1f 91       	pop	r17
    221e:	08 95       	ret

00002220 <UnflipData>:
    2220:	26 2f       	mov	r18, r22
    2222:	fb 01       	movw	r30, r22
    2224:	35 e5       	ldi	r19, 0x55	; 85
    2226:	9e 2f       	mov	r25, r30
    2228:	92 1b       	sub	r25, r18
    222a:	98 17       	cp	r25, r24
    222c:	28 f4       	brcc	.+10     	; 0x2238 <UnflipData+0x18>
    222e:	90 81       	ld	r25, Z
    2230:	92 95       	swap	r25
    2232:	93 27       	eor	r25, r19
    2234:	91 93       	st	Z+, r25
    2236:	f7 cf       	rjmp	.-18     	; 0x2226 <UnflipData+0x6>
    2238:	08 95       	ret

0000223a <ClearTxAfter>:
    223a:	8f 5f       	subi	r24, 0xFF	; 255
    223c:	88 30       	cpi	r24, 0x08	; 8
    223e:	30 f4       	brcc	.+12     	; 0x224c <ClearTxAfter+0x12>
    2240:	e8 2f       	mov	r30, r24
    2242:	f0 e0       	ldi	r31, 0x00	; 0
    2244:	e5 5b       	subi	r30, 0xB5	; 181
    2246:	f5 4c       	sbci	r31, 0xC5	; 197
    2248:	10 82       	st	Z, r1
    224a:	f7 cf       	rjmp	.-18     	; 0x223a <ClearTxAfter>
    224c:	08 95       	ret

0000224e <StartsWith>:
    224e:	ac 01       	movw	r20, r24
    2250:	90 e0       	ldi	r25, 0x00	; 0
    2252:	e9 2f       	mov	r30, r25
    2254:	f0 e0       	ldi	r31, 0x00	; 0
    2256:	da 01       	movw	r26, r20
    2258:	ae 0f       	add	r26, r30
    225a:	bf 1f       	adc	r27, r31
    225c:	3c 91       	ld	r19, X
    225e:	e6 0f       	add	r30, r22
    2260:	f7 1f       	adc	r31, r23
    2262:	31 11       	cpse	r19, r1
    2264:	05 c0       	rjmp	.+10     	; 0x2270 <StartsWith+0x22>
    2266:	81 e0       	ldi	r24, 0x01	; 1
    2268:	90 81       	ld	r25, Z
    226a:	99 23       	and	r25, r25
    226c:	49 f0       	breq	.+18     	; 0x2280 <StartsWith+0x32>
    226e:	07 c0       	rjmp	.+14     	; 0x227e <StartsWith+0x30>
    2270:	20 81       	ld	r18, Z
    2272:	22 23       	and	r18, r18
    2274:	c1 f3       	breq	.-16     	; 0x2266 <StartsWith+0x18>
    2276:	32 13       	cpse	r19, r18
    2278:	02 c0       	rjmp	.+4      	; 0x227e <StartsWith+0x30>
    227a:	9f 5f       	subi	r25, 0xFF	; 255
    227c:	ea cf       	rjmp	.-44     	; 0x2252 <StartsWith+0x4>
    227e:	80 e0       	ldi	r24, 0x00	; 0
    2280:	08 95       	ret

00002282 <PrepareSending>:
    2282:	cf 93       	push	r28
    2284:	df 93       	push	r29
    2286:	fc 01       	movw	r30, r24
    2288:	61 15       	cp	r22, r1
    228a:	71 05       	cpc	r23, r1
    228c:	59 f1       	breq	.+86     	; 0x22e4 <PrepareSending+0x62>
    228e:	a3 e5       	ldi	r26, 0x53	; 83
    2290:	ba e3       	ldi	r27, 0x3A	; 58
    2292:	cb e4       	ldi	r28, 0x4B	; 75
    2294:	da e3       	ldi	r29, 0x3A	; 58
    2296:	80 e0       	ldi	r24, 0x00	; 0
    2298:	9f ef       	ldi	r25, 0xFF	; 255
    229a:	6f 3f       	cpi	r22, 0xFF	; 255
    229c:	71 05       	cpc	r23, r1
    229e:	69 f0       	breq	.+26     	; 0x22ba <PrepareSending+0x38>
    22a0:	60 f0       	brcs	.+24     	; 0x22ba <PrepareSending+0x38>
    22a2:	ed 93       	st	X+, r30
    22a4:	fd 93       	st	X+, r31
    22a6:	99 93       	st	Y+, r25
    22a8:	e1 50       	subi	r30, 0x01	; 1
    22aa:	ff 4f       	sbci	r31, 0xFF	; 255
    22ac:	6f 5f       	subi	r22, 0xFF	; 255
    22ae:	71 09       	sbc	r23, r1
    22b0:	8f 5f       	subi	r24, 0xFF	; 255
    22b2:	87 30       	cpi	r24, 0x07	; 7
    22b4:	91 f7       	brne	.-28     	; 0x229a <PrepareSending+0x18>
    22b6:	81 e0       	ldi	r24, 0x01	; 1
    22b8:	1e c0       	rjmp	.+60     	; 0x22f6 <PrepareSending+0x74>
    22ba:	28 2f       	mov	r18, r24
    22bc:	30 e0       	ldi	r19, 0x00	; 0
    22be:	d9 01       	movw	r26, r18
    22c0:	aa 0f       	add	r26, r26
    22c2:	bb 1f       	adc	r27, r27
    22c4:	ad 5a       	subi	r26, 0xAD	; 173
    22c6:	b5 4c       	sbci	r27, 0xC5	; 197
    22c8:	ed 93       	st	X+, r30
    22ca:	fc 93       	st	X, r31
    22cc:	6f 3f       	cpi	r22, 0xFF	; 255
    22ce:	71 05       	cpc	r23, r1
    22d0:	11 f4       	brne	.+4      	; 0x22d6 <PrepareSending+0x54>
    22d2:	6e ef       	ldi	r22, 0xFE	; 254
    22d4:	70 e0       	ldi	r23, 0x00	; 0
    22d6:	f9 01       	movw	r30, r18
    22d8:	e5 5b       	subi	r30, 0xB5	; 181
    22da:	f5 4c       	sbci	r31, 0xC5	; 197
    22dc:	60 83       	st	Z, r22
    22de:	40 93 49 3a 	sts	0x3A49, r20	; 0x803a49 <txTypeNow>
    22e2:	05 c0       	rjmp	.+10     	; 0x22ee <PrepareSending+0x6c>
    22e4:	10 92 53 3a 	sts	0x3A53, r1	; 0x803a53 <txAddrList>
    22e8:	10 92 54 3a 	sts	0x3A54, r1	; 0x803a54 <txAddrList+0x1>
    22ec:	80 e0       	ldi	r24, 0x00	; 0
    22ee:	a5 df       	rcall	.-182    	; 0x223a <ClearTxAfter>
    22f0:	10 92 4a 3a 	sts	0x3A4A, r1	; 0x803a4a <txAddrNow>
    22f4:	80 e0       	ldi	r24, 0x00	; 0
    22f6:	df 91       	pop	r29
    22f8:	cf 91       	pop	r28
    22fa:	08 95       	ret

000022fc <SetStandardResponse>:
}

//
uint8_t SetStandardResponse(uint8_t custStrEnd){
    22fc:	cf 93       	push	r28
    22fe:	df 93       	push	r29
    return 0;
}

//
void SetResponse(uint8_t number, uint16_t address, uint16_t length, uint8_t type){
    reactStr[0][number]=address;
    2300:	28 2f       	mov	r18, r24
    2302:	30 e0       	ldi	r19, 0x00	; 0
    2304:	f9 01       	movw	r30, r18
    2306:	ee 0f       	add	r30, r30
    2308:	ff 1f       	adc	r31, r31
    230a:	e2 5e       	subi	r30, 0xE2	; 226
    230c:	f6 4c       	sbci	r31, 0xC6	; 198
    230e:	a9 e5       	ldi	r26, 0x59	; 89
    2310:	ba e7       	ldi	r27, 0x7A	; 122
    2312:	a0 83       	st	Z, r26
    2314:	b1 83       	std	Z+1, r27	; 0x01
    reactStr[1][number]=length;
    2316:	f9 01       	movw	r30, r18
    2318:	ee 0f       	add	r30, r30
    231a:	ff 1f       	adc	r31, r31
    231c:	e2 5a       	subi	r30, 0xA2	; 162
    231e:	f6 4c       	sbci	r31, 0xC6	; 198
    2320:	62 e0       	ldi	r22, 0x02	; 2
    2322:	70 e0       	ldi	r23, 0x00	; 0
    2324:	60 83       	st	Z, r22
    2326:	71 83       	std	Z+1, r23	; 0x01
    reactStr[2][number]=type;
    2328:	22 0f       	add	r18, r18
    232a:	33 1f       	adc	r19, r19
    232c:	f9 01       	movw	r30, r18
    232e:	e2 56       	subi	r30, 0x62	; 98
    2330:	f6 4c       	sbci	r31, 0xC6	; 198
    2332:	41 e0       	ldi	r20, 0x01	; 1
    2334:	50 e0       	ldi	r21, 0x00	; 0
    2336:	40 83       	st	Z, r20
    2338:	51 83       	std	Z+1, r21	; 0x01
    return 0;
}

//
void SetResponse(uint8_t number, uint16_t address, uint16_t length, uint8_t type){
    reactStr[0][number]=address;
    233a:	21 e0       	ldi	r18, 0x01	; 1
    233c:	28 0f       	add	r18, r24
    233e:	30 e0       	ldi	r19, 0x00	; 0
    2340:	f9 01       	movw	r30, r18
    2342:	ee 0f       	add	r30, r30
    2344:	ff 1f       	adc	r31, r31
    2346:	e2 5e       	subi	r30, 0xE2	; 226
    2348:	f6 4c       	sbci	r31, 0xC6	; 198
    234a:	c2 e6       	ldi	r28, 0x62	; 98
    234c:	da e7       	ldi	r29, 0x7A	; 122
    234e:	c0 83       	st	Z, r28
    2350:	d1 83       	std	Z+1, r29	; 0x01
    reactStr[1][number]=length;
    2352:	f9 01       	movw	r30, r18
    2354:	ee 0f       	add	r30, r30
    2356:	ff 1f       	adc	r31, r31
    2358:	e2 5a       	subi	r30, 0xA2	; 162
    235a:	f6 4c       	sbci	r31, 0xC6	; 198
    235c:	cc e0       	ldi	r28, 0x0C	; 12
    235e:	d0 e0       	ldi	r29, 0x00	; 0
    2360:	c0 83       	st	Z, r28
    2362:	d1 83       	std	Z+1, r29	; 0x01
    reactStr[2][number]=type;
    2364:	22 0f       	add	r18, r18
    2366:	33 1f       	adc	r19, r19
    2368:	f9 01       	movw	r30, r18
    236a:	e2 56       	subi	r30, 0x62	; 98
    236c:	f6 4c       	sbci	r31, 0xC6	; 198
    236e:	40 83       	st	Z, r20
    2370:	51 83       	std	Z+1, r21	; 0x01
//
uint8_t SetStandardResponse(uint8_t custStrEnd){

    SetResponse(custStrEnd++, A_LF, 2, TEASER);
    SetResponse(custStrEnd++, A_LOCATION, L_LOCATION, TEASER);
    reactStr[0][custStrEnd++] = CURR_LOC;
    2372:	e2 e0       	ldi	r30, 0x02	; 2
    2374:	e8 0f       	add	r30, r24
    2376:	f0 e0       	ldi	r31, 0x00	; 0
    2378:	ee 0f       	add	r30, r30
    237a:	ff 1f       	adc	r31, r31
    237c:	e2 5e       	subi	r30, 0xE2	; 226
    237e:	f6 4c       	sbci	r31, 0xC6	; 198
    2380:	20 ef       	ldi	r18, 0xF0	; 240
    2382:	3f ef       	ldi	r19, 0xFF	; 255
    2384:	20 83       	st	Z, r18
    2386:	31 83       	std	Z+1, r19	; 0x01
    return 0;
}

//
void SetResponse(uint8_t number, uint16_t address, uint16_t length, uint8_t type){
    reactStr[0][number]=address;
    2388:	23 e0       	ldi	r18, 0x03	; 3
    238a:	28 0f       	add	r18, r24
    238c:	30 e0       	ldi	r19, 0x00	; 0
    238e:	f9 01       	movw	r30, r18
    2390:	ee 0f       	add	r30, r30
    2392:	ff 1f       	adc	r31, r31
    2394:	e2 5e       	subi	r30, 0xE2	; 226
    2396:	f6 4c       	sbci	r31, 0xC6	; 198
    2398:	a0 83       	st	Z, r26
    239a:	b1 83       	std	Z+1, r27	; 0x01
    reactStr[1][number]=length;
    239c:	f9 01       	movw	r30, r18
    239e:	ee 0f       	add	r30, r30
    23a0:	ff 1f       	adc	r31, r31
    23a2:	e2 5a       	subi	r30, 0xA2	; 162
    23a4:	f6 4c       	sbci	r31, 0xC6	; 198
    23a6:	60 83       	st	Z, r22
    23a8:	71 83       	std	Z+1, r23	; 0x01
    reactStr[2][number]=type;
    23aa:	22 0f       	add	r18, r18
    23ac:	33 1f       	adc	r19, r19
    23ae:	f9 01       	movw	r30, r18
    23b0:	e2 56       	subi	r30, 0x62	; 98
    23b2:	f6 4c       	sbci	r31, 0xC6	; 198
    23b4:	40 83       	st	Z, r20
    23b6:	51 83       	std	Z+1, r21	; 0x01
    return 0;
}

//
void SetResponse(uint8_t number, uint16_t address, uint16_t length, uint8_t type){
    reactStr[0][number]=address;
    23b8:	24 e0       	ldi	r18, 0x04	; 4
    23ba:	28 0f       	add	r18, r24
    23bc:	30 e0       	ldi	r19, 0x00	; 0
    23be:	f9 01       	movw	r30, r18
    23c0:	ee 0f       	add	r30, r30
    23c2:	ff 1f       	adc	r31, r31
    23c4:	e2 5e       	subi	r30, 0xE2	; 226
    23c6:	f6 4c       	sbci	r31, 0xC6	; 198
    23c8:	a5 e5       	ldi	r26, 0x55	; 85
    23ca:	ba e7       	ldi	r27, 0x7A	; 122
    23cc:	a0 83       	st	Z, r26
    23ce:	b1 83       	std	Z+1, r27	; 0x01
    reactStr[1][number]=length;
    23d0:	f9 01       	movw	r30, r18
    23d2:	ee 0f       	add	r30, r30
    23d4:	ff 1f       	adc	r31, r31
    23d6:	e2 5a       	subi	r30, 0xA2	; 162
    23d8:	f6 4c       	sbci	r31, 0xC6	; 198
    23da:	60 83       	st	Z, r22
    23dc:	71 83       	std	Z+1, r23	; 0x01
    reactStr[2][number]=type;
    23de:	22 0f       	add	r18, r18
    23e0:	33 1f       	adc	r19, r19
    23e2:	f9 01       	movw	r30, r18
    23e4:	e2 56       	subi	r30, 0x62	; 98
    23e6:	f6 4c       	sbci	r31, 0xC6	; 198
    23e8:	40 83       	st	Z, r20
    23ea:	51 83       	std	Z+1, r21	; 0x01
    reactStr[0][custStrEnd++] = CURR_LOC;
    SetResponse(custStrEnd++, A_LF, 2, TEASER);
    SetResponse(custStrEnd++, A_PROMPT, L_PROMPT, TEASER);

    return custStrEnd;
}
    23ec:	8b 5f       	subi	r24, 0xFB	; 251
    23ee:	df 91       	pop	r29
    23f0:	cf 91       	pop	r28
    23f2:	08 95       	ret

000023f4 <PopulateObject>:

//Get all the relevant data and string addresses of an object
void PopulateObject(uint16_t offset, object_model_t *object){
    23f4:	af 92       	push	r10
    23f6:	bf 92       	push	r11
    23f8:	df 92       	push	r13
    23fa:	ef 92       	push	r14
    23fc:	ff 92       	push	r15
    23fe:	0f 93       	push	r16
    2400:	1f 93       	push	r17
    2402:	cf 93       	push	r28
    2404:	df 93       	push	r29
    2406:	cd b7       	in	r28, 0x3d	; 61
    2408:	de b7       	in	r29, 0x3e	; 62
    240a:	2c 97       	sbiw	r28, 0x0c	; 12
    240c:	cd bf       	out	0x3d, r28	; 61
    240e:	de bf       	out	0x3e, r29	; 62
    2410:	7c 01       	movw	r14, r24
    2412:	8b 01       	movw	r16, r22
    uint16_t parStr;
    offset += L_BOILER;

    //Fill things with fixed distance to offset
    uint8_t data[OFF_STRINGFLDS];
    ExtEERead(offset, OFF_STRINGFLDS, GAME, &data[0]);
    2414:	9e 01       	movw	r18, r28
    2416:	2f 5f       	subi	r18, 0xFF	; 255
    2418:	3f 4f       	sbci	r19, 0xFF	; 255
    241a:	40 e0       	ldi	r20, 0x00	; 0
    241c:	6c e0       	ldi	r22, 0x0C	; 12
    241e:	80 96       	adiw	r24, 0x20	; 32
    2420:	0e 94 4d 08 	call	0x109a	; 0x109a <ExtEERead>
    object->addrNextObj = (data[OFF_NEXTOBJ]<<8|data[OFF_NEXTOBJ+1])+L_BOILER;
    2424:	89 81       	ldd	r24, Y+1	; 0x01
    2426:	9a 81       	ldd	r25, Y+2	; 0x02
    2428:	98 27       	eor	r25, r24
    242a:	89 27       	eor	r24, r25
    242c:	98 27       	eor	r25, r24
    242e:	80 96       	adiw	r24, 0x20	; 32
    2430:	f8 01       	movw	r30, r16
    2432:	80 83       	st	Z, r24
    2434:	91 83       	std	Z+1, r25	; 0x01
    object->addrNextLvl = (data[OFF_NEXTLVL]<<8|data[OFF_NEXTLVL+1])+L_BOILER;
    2436:	8b 81       	ldd	r24, Y+3	; 0x03
    2438:	9c 81       	ldd	r25, Y+4	; 0x04
    243a:	98 27       	eor	r25, r24
    243c:	89 27       	eor	r24, r25
    243e:	98 27       	eor	r25, r24
    2440:	80 96       	adiw	r24, 0x20	; 32
    2442:	82 83       	std	Z+2, r24	; 0x02
    2444:	93 83       	std	Z+3, r25	; 0x03
    2446:	de 01       	movw	r26, r28
    2448:	15 96       	adiw	r26, 0x05	; 5
    244a:	34 96       	adiw	r30, 0x04	; 4
    244c:	c8 01       	movw	r24, r16
    244e:	0c 96       	adiw	r24, 0x0c	; 12
    for (uint8_t x=0; x<BYTE_FIELDS_LEN; ++x){
        object->byteField[x]=data[x+OFF_BYTEFLDS];
    2450:	2d 91       	ld	r18, X+
    2452:	21 93       	st	Z+, r18
    //Fill things with fixed distance to offset
    uint8_t data[OFF_STRINGFLDS];
    ExtEERead(offset, OFF_STRINGFLDS, GAME, &data[0]);
    object->addrNextObj = (data[OFF_NEXTOBJ]<<8|data[OFF_NEXTOBJ+1])+L_BOILER;
    object->addrNextLvl = (data[OFF_NEXTLVL]<<8|data[OFF_NEXTLVL+1])+L_BOILER;
    for (uint8_t x=0; x<BYTE_FIELDS_LEN; ++x){
    2454:	e8 17       	cp	r30, r24
    2456:	f9 07       	cpc	r31, r25
    2458:	d9 f7       	brne	.-10     	; 0x2450 <PopulateObject+0x5c>
        object->byteField[x]=data[x+OFF_BYTEFLDS];
    }

    //Find out where all of the strings begin and how long they are
    offset += OFF_STRINGFLDS;
    245a:	fc e2       	ldi	r31, 0x2C	; 44
    245c:	ef 0e       	add	r14, r31
    245e:	f1 1c       	adc	r15, r1
    2460:	58 01       	movw	r10, r16
    for(uint8_t x=0; x<STRING_FIELDS_LEN; ++x){
    2462:	d1 2c       	mov	r13, r1
        
        //Determine length
        ExtEERead(offset, 3, GAME, &data[0]);
    2464:	9e 01       	movw	r18, r28
    2466:	2f 5f       	subi	r18, 0xFF	; 255
    2468:	3f 4f       	sbci	r19, 0xFF	; 255
    246a:	40 e0       	ldi	r20, 0x00	; 0
    246c:	63 e0       	ldi	r22, 0x03	; 3
    246e:	c7 01       	movw	r24, r14
    2470:	0e 94 4d 08 	call	0x109a	; 0x109a <ExtEERead>
    2474:	89 81       	ldd	r24, Y+1	; 0x01
    2476:	9a 81       	ldd	r25, Y+2	; 0x02
    2478:	98 27       	eor	r25, r24
    247a:	89 27       	eor	r24, r25
    247c:	98 27       	eor	r25, r24
        parStr = (data[0]<<8|data[1]);
        offset += 2;
    247e:	97 01       	movw	r18, r14
    2480:	2e 5f       	subi	r18, 0xFE	; 254
    2482:	3f 4f       	sbci	r19, 0xFF	; 255
        if (x >= OPEN_ACL_MSG){
    2484:	43 e0       	ldi	r20, 0x03	; 3
    2486:	4d 15       	cp	r20, r13
    2488:	80 f4       	brcc	.+32     	; 0x24aa <PopulateObject+0xb6>
            object->lenStr[x]= parStr-1;
    248a:	ac 01       	movw	r20, r24
    248c:	41 50       	subi	r20, 0x01	; 1
    248e:	51 09       	sbc	r21, r1
    2490:	f8 01       	movw	r30, r16
    2492:	42 8f       	std	Z+26, r20	; 0x1a
    2494:	53 8f       	std	Z+27, r21	; 0x1b
            object->addrStr[x]=offset+1;
    2496:	f3 e0       	ldi	r31, 0x03	; 3
    2498:	ef 0e       	add	r14, r31
    249a:	f1 1c       	adc	r15, r1
    249c:	f8 01       	movw	r30, r16
    249e:	e4 86       	std	Z+12, r14	; 0x0c
    24a0:	f5 86       	std	Z+13, r15	; 0x0d
            object->effect[x-OPEN_ACL_MSG] = data[2];
    24a2:	4b 81       	ldd	r20, Y+3	; 0x03
    24a4:	f5 01       	movw	r30, r10
    24a6:	44 a3       	std	Z+36, r20	; 0x24
    24a8:	05 c0       	rjmp	.+10     	; 0x24b4 <PopulateObject+0xc0>
        } else {
            object->lenStr[x]= parStr;
    24aa:	f8 01       	movw	r30, r16
    24ac:	82 8f       	std	Z+26, r24	; 0x1a
    24ae:	93 8f       	std	Z+27, r25	; 0x1b
            object->addrStr[x]=offset;
    24b0:	24 87       	std	Z+12, r18	; 0x0c
    24b2:	35 87       	std	Z+13, r19	; 0x0d
        }
        
        //Determine string start location for next field
        offset += parStr;
    24b4:	7c 01       	movw	r14, r24
    24b6:	e2 0e       	add	r14, r18
    24b8:	f3 1e       	adc	r15, r19
        object->byteField[x]=data[x+OFF_BYTEFLDS];
    }

    //Find out where all of the strings begin and how long they are
    offset += OFF_STRINGFLDS;
    for(uint8_t x=0; x<STRING_FIELDS_LEN; ++x){
    24ba:	d3 94       	inc	r13
    24bc:	0e 5f       	subi	r16, 0xFE	; 254
    24be:	1f 4f       	sbci	r17, 0xFF	; 255
    24c0:	ff ef       	ldi	r31, 0xFF	; 255
    24c2:	af 1a       	sub	r10, r31
    24c4:	bf 0a       	sbc	r11, r31
    24c6:	47 e0       	ldi	r20, 0x07	; 7
    24c8:	d4 12       	cpse	r13, r20
    24ca:	cc cf       	rjmp	.-104    	; 0x2464 <PopulateObject+0x70>
        }
        
        //Determine string start location for next field
        offset += parStr;
    }    
}
    24cc:	2c 96       	adiw	r28, 0x0c	; 12
    24ce:	cd bf       	out	0x3d, r28	; 61
    24d0:	de bf       	out	0x3e, r29	; 62
    24d2:	df 91       	pop	r29
    24d4:	cf 91       	pop	r28
    24d6:	1f 91       	pop	r17
    24d8:	0f 91       	pop	r16
    24da:	ff 90       	pop	r15
    24dc:	ef 90       	pop	r14
    24de:	df 90       	pop	r13
    24e0:	bf 90       	pop	r11
    24e2:	af 90       	pop	r10
    24e4:	08 95       	ret

000024e6 <CheckLetter>:

//Check if the entered letter corresponds with a name
uint8_t CheckLetter(uint16_t object, uint8_t letter){
    24e6:	cf 92       	push	r12
    24e8:	df 92       	push	r13
    24ea:	ef 92       	push	r14
    24ec:	ff 92       	push	r15
    24ee:	0f 93       	push	r16
    24f0:	1f 93       	push	r17
    24f2:	cf 93       	push	r28
    24f4:	df 93       	push	r29
    24f6:	cd b7       	in	r28, 0x3d	; 61
    24f8:	de b7       	in	r29, 0x3e	; 62
    24fa:	a0 97       	sbiw	r28, 0x20	; 32
    24fc:	cd bf       	out	0x3d, r28	; 61
    24fe:	de bf       	out	0x3e, r29	; 62
    2500:	c6 2e       	mov	r12, r22
    
    uint8_t found = 0;
    uint8_t data[32];

    object += L_BOILER;
    2502:	7c 01       	movw	r14, r24
    2504:	20 e2       	ldi	r18, 0x20	; 32
    2506:	e2 0e       	add	r14, r18
    2508:	f1 1c       	adc	r15, r1
    ExtEERead(object+OFF_STRINGFLDS, 2, GAME, &data[0]);
    250a:	9e 01       	movw	r18, r28
    250c:	2f 5f       	subi	r18, 0xFF	; 255
    250e:	3f 4f       	sbci	r19, 0xFF	; 255
    2510:	40 e0       	ldi	r20, 0x00	; 0
    2512:	62 e0       	ldi	r22, 0x02	; 2
    2514:	8c 96       	adiw	r24, 0x2c	; 44
    2516:	0e 94 4d 08 	call	0x109a	; 0x109a <ExtEERead>
    uint8_t x = data[1]; //Assuming a name is not longer than 255 characters.
    251a:	1a 81       	ldd	r17, Y+2	; 0x02
}

//Check if the entered letter corresponds with a name
uint8_t CheckLetter(uint16_t object, uint8_t letter){
    
    uint8_t found = 0;
    251c:	d1 2c       	mov	r13, r1

    object += L_BOILER;
    ExtEERead(object+OFF_STRINGFLDS, 2, GAME, &data[0]);
    uint8_t x = data[1]; //Assuming a name is not longer than 255 characters.

    while (x){
    251e:	11 23       	and	r17, r17
    2520:	59 f1       	breq	.+86     	; 0x2578 <CheckLetter+0x92>
    2522:	01 2f       	mov	r16, r17
    2524:	11 32       	cpi	r17, 0x21	; 33
    2526:	08 f0       	brcs	.+2      	; 0x252a <CheckLetter+0x44>
    2528:	00 e2       	ldi	r16, 0x20	; 32
        uint8_t max;
        if (x>32) max = 32; else max = x;
        ExtEERead(object+OFF_STRINGFLDS+2, max, GAME, &data[0]);
    252a:	9e 01       	movw	r18, r28
    252c:	2f 5f       	subi	r18, 0xFF	; 255
    252e:	3f 4f       	sbci	r19, 0xFF	; 255
    2530:	40 e0       	ldi	r20, 0x00	; 0
    2532:	60 2f       	mov	r22, r16
    2534:	c7 01       	movw	r24, r14
    2536:	0e 96       	adiw	r24, 0x0e	; 14
    2538:	0e 94 4d 08 	call	0x109a	; 0x109a <ExtEERead>
    253c:	fe 01       	movw	r30, r28
    253e:	31 96       	adiw	r30, 0x01	; 1
        for (uint8_t y=0; y<max; ++y){
    2540:	80 e0       	ldi	r24, 0x00	; 0
            if (found){
    2542:	dd 20       	and	r13, r13
    2544:	61 f0       	breq	.+24     	; 0x255e <CheckLetter+0x78>
                if ((data[y]|0x20) == letter) return 1; else return 0;
    2546:	e1 e0       	ldi	r30, 0x01	; 1
    2548:	f0 e0       	ldi	r31, 0x00	; 0
    254a:	ec 0f       	add	r30, r28
    254c:	fd 1f       	adc	r31, r29
    254e:	e8 0f       	add	r30, r24
    2550:	f1 1d       	adc	r31, r1
    2552:	90 81       	ld	r25, Z
    2554:	90 62       	ori	r25, 0x20	; 32
    2556:	81 e0       	ldi	r24, 0x01	; 1
    2558:	9c 11       	cpse	r25, r12
    255a:	0e c0       	rjmp	.+28     	; 0x2578 <CheckLetter+0x92>
    255c:	0e c0       	rjmp	.+28     	; 0x257a <CheckLetter+0x94>
            }
            if (data[y] == '[') found = 1;
    255e:	91 91       	ld	r25, Z+
    2560:	dd 24       	eor	r13, r13
    2562:	d3 94       	inc	r13
    2564:	9b 35       	cpi	r25, 0x5B	; 91
    2566:	09 f0       	breq	.+2      	; 0x256a <CheckLetter+0x84>
    2568:	d1 2c       	mov	r13, r1

    while (x){
        uint8_t max;
        if (x>32) max = 32; else max = x;
        ExtEERead(object+OFF_STRINGFLDS+2, max, GAME, &data[0]);
        for (uint8_t y=0; y<max; ++y){
    256a:	8f 5f       	subi	r24, 0xFF	; 255
    256c:	80 17       	cp	r24, r16
    256e:	48 f3       	brcs	.-46     	; 0x2542 <CheckLetter+0x5c>
            if (found){
                if ((data[y]|0x20) == letter) return 1; else return 0;
            }
            if (data[y] == '[') found = 1;
        }
        object += max;
    2570:	e0 0e       	add	r14, r16
    2572:	f1 1c       	adc	r15, r1
        x -= max;
    2574:	10 1b       	sub	r17, r16
    2576:	d3 cf       	rjmp	.-90     	; 0x251e <CheckLetter+0x38>
    }
    return 0;
    2578:	80 e0       	ldi	r24, 0x00	; 0
}
    257a:	a0 96       	adiw	r28, 0x20	; 32
    257c:	cd bf       	out	0x3d, r28	; 61
    257e:	de bf       	out	0x3e, r29	; 62
    2580:	df 91       	pop	r29
    2582:	cf 91       	pop	r28
    2584:	1f 91       	pop	r17
    2586:	0f 91       	pop	r16
    2588:	ff 90       	pop	r15
    258a:	ef 90       	pop	r14
    258c:	df 90       	pop	r13
    258e:	cf 90       	pop	r12
    2590:	08 95       	ret

00002592 <FindChild>:

//Returns the child's address if the child is visible and the search letter matches
uint16_t FindChild(uint16_t parent, uint8_t letter, uint16_t start){
    2592:	af 92       	push	r10
    2594:	bf 92       	push	r11
    2596:	df 92       	push	r13
    2598:	ef 92       	push	r14
    259a:	ff 92       	push	r15
    259c:	0f 93       	push	r16
    259e:	1f 93       	push	r17
    25a0:	cf 93       	push	r28
    25a2:	df 93       	push	r29
    25a4:	00 d0       	rcall	.+0      	; 0x25a6 <FindChild+0x14>
    25a6:	00 d0       	rcall	.+0      	; 0x25a8 <FindChild+0x16>
    25a8:	cd b7       	in	r28, 0x3d	; 61
    25aa:	de b7       	in	r29, 0x3e	; 62
    25ac:	d6 2e       	mov	r13, r22
    25ae:	5a 01       	movw	r10, r20
    
    uint16_t child = parent;
    uint8_t data[4];

    ExtEERead(child+L_BOILER, 4, GAME, &data[0]);
    25b0:	9e 01       	movw	r18, r28
    25b2:	2f 5f       	subi	r18, 0xFF	; 255
    25b4:	3f 4f       	sbci	r19, 0xFF	; 255
    25b6:	40 e0       	ldi	r20, 0x00	; 0
    25b8:	64 e0       	ldi	r22, 0x04	; 4
    25ba:	80 96       	adiw	r24, 0x20	; 32
    25bc:	0e 94 4d 08 	call	0x109a	; 0x109a <ExtEERead>
    25c0:	e9 80       	ldd	r14, Y+1	; 0x01
    25c2:	fa 80       	ldd	r15, Y+2	; 0x02
    25c4:	fe 24       	eor	r15, r14
    25c6:	ef 24       	eor	r14, r15
    25c8:	fe 24       	eor	r15, r14
    25ca:	0b 81       	ldd	r16, Y+3	; 0x03
    25cc:	1c 81       	ldd	r17, Y+4	; 0x04
    25ce:	10 27       	eor	r17, r16
    25d0:	01 27       	eor	r16, r17
    25d2:	10 27       	eor	r17, r16
    parent = (data[0]<<8|data[1]);    //Next object on parent level
    child =  (data[2]<<8|data[3]);    //First object on child level

    //As long as the child is within the parent's range
    while (parent>child){
    25d4:	0e 15       	cp	r16, r14
    25d6:	1f 05       	cpc	r17, r15
    25d8:	48 f5       	brcc	.+82     	; 0x262c <FindChild+0x9a>

        //If child's address is higher than the start address, perform search for letter
        if (child>start){
    25da:	a0 16       	cp	r10, r16
    25dc:	b1 06       	cpc	r11, r17
    25de:	60 f0       	brcs	.+24     	; 0x25f8 <FindChild+0x66>
                if ((letter == 0)||(CheckLetter(child, letter))) return child;
            }
        }

        //Not visible or name not right
        ExtEERead(child+L_BOILER, 2, GAME, &data[0]);
    25e0:	9e 01       	movw	r18, r28
    25e2:	2f 5f       	subi	r18, 0xFF	; 255
    25e4:	3f 4f       	sbci	r19, 0xFF	; 255
    25e6:	40 e0       	ldi	r20, 0x00	; 0
    25e8:	62 e0       	ldi	r22, 0x02	; 2
    25ea:	c8 01       	movw	r24, r16
    25ec:	80 96       	adiw	r24, 0x20	; 32
    25ee:	0e 94 4d 08 	call	0x109a	; 0x109a <ExtEERead>
    25f2:	09 81       	ldd	r16, Y+1	; 0x01
    25f4:	1a 81       	ldd	r17, Y+2	; 0x02
    25f6:	eb cf       	rjmp	.-42     	; 0x25ce <FindChild+0x3c>
    //As long as the child is within the parent's range
    while (parent>child){

        //If child's address is higher than the start address, perform search for letter
        if (child>start){
            ExtEERead(child+OFF_BYTEFLDS+VISIBLE_ACL+L_BOILER, 1, GAME, &data[0]);
    25f8:	9e 01       	movw	r18, r28
    25fa:	2f 5f       	subi	r18, 0xFF	; 255
    25fc:	3f 4f       	sbci	r19, 0xFF	; 255
    25fe:	40 e0       	ldi	r20, 0x00	; 0
    2600:	61 e0       	ldi	r22, 0x01	; 1
    2602:	c8 01       	movw	r24, r16
    2604:	85 96       	adiw	r24, 0x25	; 37
    2606:	0e 94 4d 08 	call	0x109a	; 0x109a <ExtEERead>
            if ((data[0] == 0)||(CheckState(data[0]))) {
    260a:	89 81       	ldd	r24, Y+1	; 0x01
    260c:	81 11       	cpse	r24, r1
    260e:	03 c0       	rjmp	.+6      	; 0x2616 <FindChild+0x84>
                if ((letter == 0)||(CheckLetter(child, letter))) return child;
    2610:	d1 10       	cpse	r13, r1
    2612:	06 c0       	rjmp	.+12     	; 0x2620 <FindChild+0x8e>
    2614:	0e c0       	rjmp	.+28     	; 0x2632 <FindChild+0xa0>
    while (parent>child){

        //If child's address is higher than the start address, perform search for letter
        if (child>start){
            ExtEERead(child+OFF_BYTEFLDS+VISIBLE_ACL+L_BOILER, 1, GAME, &data[0]);
            if ((data[0] == 0)||(CheckState(data[0]))) {
    2616:	0e 94 18 0a 	call	0x1430	; 0x1430 <CheckState>
    261a:	81 11       	cpse	r24, r1
    261c:	f9 cf       	rjmp	.-14     	; 0x2610 <FindChild+0x7e>
    261e:	e0 cf       	rjmp	.-64     	; 0x25e0 <FindChild+0x4e>
                if ((letter == 0)||(CheckLetter(child, letter))) return child;
    2620:	6d 2d       	mov	r22, r13
    2622:	c8 01       	movw	r24, r16
    2624:	60 df       	rcall	.-320    	; 0x24e6 <CheckLetter>
    2626:	88 23       	and	r24, r24
    2628:	d9 f2       	breq	.-74     	; 0x25e0 <FindChild+0x4e>
    262a:	03 c0       	rjmp	.+6      	; 0x2632 <FindChild+0xa0>

        //Not visible or name not right
        ExtEERead(child+L_BOILER, 2, GAME, &data[0]);
        child = (data[0]<<8|data[1]);    //Next object on child level
        
    } return 0;
    262c:	80 e0       	ldi	r24, 0x00	; 0
    262e:	90 e0       	ldi	r25, 0x00	; 0
    2630:	01 c0       	rjmp	.+2      	; 0x2634 <FindChild+0xa2>
    2632:	c8 01       	movw	r24, r16
}
    2634:	24 96       	adiw	r28, 0x04	; 4
    2636:	cd bf       	out	0x3d, r28	; 61
    2638:	de bf       	out	0x3e, r29	; 62
    263a:	df 91       	pop	r29
    263c:	cf 91       	pop	r28
    263e:	1f 91       	pop	r17
    2640:	0f 91       	pop	r16
    2642:	ff 90       	pop	r15
    2644:	ef 90       	pop	r14
    2646:	df 90       	pop	r13
    2648:	bf 90       	pop	r11
    264a:	af 90       	pop	r10
    264c:	08 95       	ret

0000264e <InpOkChk>:

//Allow only a(A) to z(Z) and 0 to 9 as input
uint8_t InpOkChk(uint8_t test){
    test |= 0x20;
    264e:	80 62       	ori	r24, 0x20	; 32
    if ((test>='a')&&(test<='z')) return 1;
    2650:	9f e9       	ldi	r25, 0x9F	; 159
    2652:	98 0f       	add	r25, r24
    2654:	9a 31       	cpi	r25, 0x1A	; 26
    2656:	38 f0       	brcs	.+14     	; 0x2666 <InpOkChk+0x18>
    2658:	90 ed       	ldi	r25, 0xD0	; 208
    265a:	98 0f       	add	r25, r24
    265c:	81 e0       	ldi	r24, 0x01	; 1
    265e:	9a 30       	cpi	r25, 0x0A	; 10
    2660:	18 f0       	brcs	.+6      	; 0x2668 <InpOkChk+0x1a>
    2662:	80 e0       	ldi	r24, 0x00	; 0
    2664:	08 95       	ret
    2666:	81 e0       	ldi	r24, 0x01	; 1
    if ((test>='0')&&(test<='9')) return 1;
    return 0;
}
    2668:	08 95       	ret

0000266a <CleanInput>:

//Cleans input of garbage and returns length of cleaned input "o->d2  !\0" becomes "od2\0"
uint8_t CleanInput(uint8_t *data){
    266a:	0f 93       	push	r16
    266c:	1f 93       	push	r17
    266e:	cf 93       	push	r28
    2670:	df 93       	push	r29
    2672:	8c 01       	movw	r16, r24
    uint8_t cnt = 0;
    for (uint8_t x=0; data[x]!=0; ++x){
    2674:	d0 e0       	ldi	r29, 0x00	; 0
    return 0;
}

//Cleans input of garbage and returns length of cleaned input "o->d2  !\0" becomes "od2\0"
uint8_t CleanInput(uint8_t *data){
    uint8_t cnt = 0;
    2676:	c0 e0       	ldi	r28, 0x00	; 0
    for (uint8_t x=0; data[x]!=0; ++x){
    2678:	f8 01       	movw	r30, r16
    267a:	ed 0f       	add	r30, r29
    267c:	f1 1d       	adc	r31, r1
    267e:	20 81       	ld	r18, Z
    2680:	8c 2f       	mov	r24, r28
    2682:	90 e0       	ldi	r25, 0x00	; 0
    2684:	22 23       	and	r18, r18
    2686:	51 f0       	breq	.+20     	; 0x269c <CleanInput+0x32>
        data[cnt] = data[x];
    2688:	d8 01       	movw	r26, r16
    268a:	a8 0f       	add	r26, r24
    268c:	b9 1f       	adc	r27, r25
    268e:	2c 93       	st	X, r18
        if (InpOkChk(data[x])) ++cnt;
    2690:	80 81       	ld	r24, Z
    2692:	dd df       	rcall	.-70     	; 0x264e <InpOkChk>
    2694:	81 11       	cpse	r24, r1
    2696:	cf 5f       	subi	r28, 0xFF	; 255
}

//Cleans input of garbage and returns length of cleaned input "o->d2  !\0" becomes "od2\0"
uint8_t CleanInput(uint8_t *data){
    uint8_t cnt = 0;
    for (uint8_t x=0; data[x]!=0; ++x){
    2698:	df 5f       	subi	r29, 0xFF	; 255
    269a:	ee cf       	rjmp	.-36     	; 0x2678 <CleanInput+0xe>
        data[cnt] = data[x];
        if (InpOkChk(data[x])) ++cnt;
    }
    data[cnt] = 0;
    269c:	f8 01       	movw	r30, r16
    269e:	e8 0f       	add	r30, r24
    26a0:	f9 1f       	adc	r31, r25
    26a2:	10 82       	st	Z, r1
    return cnt;
}
    26a4:	8c 2f       	mov	r24, r28
    26a6:	df 91       	pop	r29
    26a8:	cf 91       	pop	r28
    26aa:	1f 91       	pop	r17
    26ac:	0f 91       	pop	r16
    26ae:	08 95       	ret

000026b0 <CheckSend>:

//Send routine, optimized for low memory usage
uint8_t CheckSend(){
    26b0:	cf 93       	push	r28
    /*if (effect == 0){
        effect = currObj.byteField[EFFECTS];
    }*/

    //Check if more string(part)s have to be sent to the serial output if previous send operation is completed
    if ((txAddrNow < TXLISTLEN) && serTxDone){
    26b2:	20 91 4a 3a 	lds	r18, 0x3A4A	; 0x803a4a <txAddrNow>
    26b6:	28 30       	cpi	r18, 0x08	; 8
    26b8:	08 f0       	brcs	.+2      	; 0x26bc <CheckSend+0xc>
    26ba:	49 c0       	rjmp	.+146    	; 0x274e <CheckSend+0x9e>
    26bc:	80 91 09 38 	lds	r24, 0x3809	; 0x803809 <serTxDone>
    26c0:	88 23       	and	r24, r24
    26c2:	09 f4       	brne	.+2      	; 0x26c6 <CheckSend+0x16>
    26c4:	44 c0       	rjmp	.+136    	; 0x274e <CheckSend+0x9e>
        if (txStrLen[txAddrNow] == 0){
    26c6:	82 2f       	mov	r24, r18
    26c8:	90 e0       	ldi	r25, 0x00	; 0
    26ca:	fc 01       	movw	r30, r24
    26cc:	e5 5b       	subi	r30, 0xB5	; 181
    26ce:	f5 4c       	sbci	r31, 0xC5	; 197
    26d0:	e0 81       	ld	r30, Z
    26d2:	e1 11       	cpse	r30, r1
    26d4:	06 c0       	rjmp	.+12     	; 0x26e2 <CheckSend+0x32>
            txPart = 0;
    26d6:	10 92 09 39 	sts	0x3909, r1	; 0x803909 <txPart.3937>
            txAddrNow = TXLISTLEN;
    26da:	88 e0       	ldi	r24, 0x08	; 8
    26dc:	80 93 4a 3a 	sts	0x3A4A, r24	; 0x803a4a <txAddrNow>
    26e0:	2e c0       	rjmp	.+92     	; 0x273e <CheckSend+0x8e>
        } else if (txPart < txStrLen[txAddrNow]){
    26e2:	50 91 09 39 	lds	r21, 0x3909	; 0x803909 <txPart.3937>
    26e6:	5e 17       	cp	r21, r30
    26e8:	60 f5       	brcc	.+88     	; 0x2742 <CheckSend+0x92>
            EEreadLength = txStrLen[txAddrNow]-txPart;
    26ea:	ce 2f       	mov	r28, r30
    26ec:	c5 1b       	sub	r28, r21
    26ee:	c1 32       	cpi	r28, 0x21	; 33
    26f0:	08 f0       	brcs	.+2      	; 0x26f4 <CheckSend+0x44>
    26f2:	c0 e2       	ldi	r28, 0x20	; 32
            if (EEreadLength>=TXLEN) EEreadLength = TXLEN-1;
            ExtEERead(txAddrList[txAddrNow]+txPart, EEreadLength, txTypeNow, &txBuffer[0]);
    26f4:	88 0f       	add	r24, r24
    26f6:	99 1f       	adc	r25, r25
    26f8:	fc 01       	movw	r30, r24
    26fa:	ed 5a       	subi	r30, 0xAD	; 173
    26fc:	f5 4c       	sbci	r31, 0xC5	; 197
    26fe:	80 81       	ld	r24, Z
    2700:	91 81       	ldd	r25, Z+1	; 0x01
    2702:	24 ef       	ldi	r18, 0xF4	; 244
    2704:	3a e3       	ldi	r19, 0x3A	; 58
    2706:	40 91 49 3a 	lds	r20, 0x3A49	; 0x803a49 <txTypeNow>
    270a:	6c 2f       	mov	r22, r28
    270c:	85 0f       	add	r24, r21
    270e:	91 1d       	adc	r25, r1
    2710:	0e 94 4d 08 	call	0x109a	; 0x109a <ExtEERead>
            txPart += EEreadLength;
    2714:	80 91 09 39 	lds	r24, 0x3909	; 0x803909 <txPart.3937>
    2718:	8c 0f       	add	r24, r28
    271a:	80 93 09 39 	sts	0x3909, r24	; 0x803909 <txPart.3937>
            txBuffer[EEreadLength] = 0; //Add string terminator after piece to send to plug memory leak
    271e:	ec 2f       	mov	r30, r28
    2720:	f0 e0       	ldi	r31, 0x00	; 0
    2722:	ec 50       	subi	r30, 0x0C	; 12
    2724:	f5 4c       	sbci	r31, 0xC5	; 197
    2726:	10 82       	st	Z, r1
            if ((txBuffer[0] == 0) && (EEreadLength)) txBuffer[0] = 0xDB; //Block character when data wrong.
    2728:	80 91 f4 3a 	lds	r24, 0x3AF4	; 0x803af4 <txBuffer>
    272c:	81 11       	cpse	r24, r1
    272e:	03 c0       	rjmp	.+6      	; 0x2736 <CheckSend+0x86>
    2730:	8b ed       	ldi	r24, 0xDB	; 219
    2732:	80 93 f4 3a 	sts	0x3AF4, r24	; 0x803af4 <txBuffer>
            SerSend(&txBuffer[0]);
    2736:	84 ef       	ldi	r24, 0xF4	; 244
    2738:	9a e3       	ldi	r25, 0x3A	; 58
    273a:	0e 94 7f 08 	call	0x10fe	; 0x10fe <SerSend>
        } else {
            txPart = 0;
            ++txAddrNow;
        }
    } else if (serTxDone) return 0; //All is sent!
    return 1; //Still sending, do not change the data in the tx variables
    273e:	81 e0       	ldi	r24, 0x01	; 1
    2740:	0b c0       	rjmp	.+22     	; 0x2758 <CheckSend+0xa8>
            txPart += EEreadLength;
            txBuffer[EEreadLength] = 0; //Add string terminator after piece to send to plug memory leak
            if ((txBuffer[0] == 0) && (EEreadLength)) txBuffer[0] = 0xDB; //Block character when data wrong.
            SerSend(&txBuffer[0]);
        } else {
            txPart = 0;
    2742:	10 92 09 39 	sts	0x3909, r1	; 0x803909 <txPart.3937>
            ++txAddrNow;
    2746:	2f 5f       	subi	r18, 0xFF	; 255
    2748:	20 93 4a 3a 	sts	0x3A4A, r18	; 0x803a4a <txAddrNow>
    274c:	f8 cf       	rjmp	.-16     	; 0x273e <CheckSend+0x8e>
        }
    } else if (serTxDone) return 0; //All is sent!
    274e:	90 91 09 38 	lds	r25, 0x3809	; 0x803809 <serTxDone>
    2752:	81 e0       	ldi	r24, 0x01	; 1
    2754:	91 11       	cpse	r25, r1
    2756:	80 e0       	ldi	r24, 0x00	; 0
    return 1; //Still sending, do not change the data in the tx variables
}
    2758:	cf 91       	pop	r28
    275a:	08 95       	ret

0000275c <CheckResponse>:

//Send another part of the response and play the effect afterwards
uint8_t CheckResponse(){
    275c:	cf 93       	push	r28
    275e:	df 93       	push	r29
    static uint8_t number = 0;
    if (responseList){
    2760:	c0 91 1d 39 	lds	r28, 0x391D	; 0x80391d <responseList>
    2764:	cc 23       	and	r28, r28
    2766:	b1 f1       	breq	.+108    	; 0x27d4 <CheckResponse+0x78>
        --responseList;
    2768:	c1 50       	subi	r28, 0x01	; 1
    276a:	c0 93 1d 39 	sts	0x391D, r28	; 0x80391d <responseList>
        if (reactStr[0][number] == CURR_LOC) {
    276e:	d0 91 08 39 	lds	r29, 0x3908	; 0x803908 <number.3941>
    2772:	2d 2f       	mov	r18, r29
    2774:	30 e0       	ldi	r19, 0x00	; 0
    2776:	f9 01       	movw	r30, r18
    2778:	ee 0f       	add	r30, r30
    277a:	ff 1f       	adc	r31, r31
    277c:	e2 5e       	subi	r30, 0xE2	; 226
    277e:	f6 4c       	sbci	r31, 0xC6	; 198
    2780:	80 81       	ld	r24, Z
    2782:	91 81       	ldd	r25, Z+1	; 0x01
    2784:	80 3f       	cpi	r24, 0xF0	; 240
    2786:	4f ef       	ldi	r20, 0xFF	; 255
    2788:	94 07       	cpc	r25, r20
    278a:	51 f4       	brne	.+20     	; 0x27a0 <CheckResponse+0x44>
            PrepareSending(currObj.addrStr[NAME], currObj.lenStr[NAME], GAME);
    278c:	60 91 38 3a 	lds	r22, 0x3A38	; 0x803a38 <currObj+0x1a>
    2790:	70 91 39 3a 	lds	r23, 0x3A39	; 0x803a39 <currObj+0x1b>
    2794:	40 e0       	ldi	r20, 0x00	; 0
    2796:	80 91 2a 3a 	lds	r24, 0x3A2A	; 0x803a2a <currObj+0xc>
    279a:	90 91 2b 3a 	lds	r25, 0x3A2B	; 0x803a2b <currObj+0xd>
    279e:	0d c0       	rjmp	.+26     	; 0x27ba <CheckResponse+0x5e>
        } else {
            PrepareSending(reactStr[0][number], reactStr[1][number], reactStr[2][number]);
    27a0:	d9 01       	movw	r26, r18
    27a2:	aa 0f       	add	r26, r26
    27a4:	bb 1f       	adc	r27, r27
    27a6:	a2 56       	subi	r26, 0x62	; 98
    27a8:	b6 4c       	sbci	r27, 0xC6	; 198
    27aa:	22 0f       	add	r18, r18
    27ac:	33 1f       	adc	r19, r19
    27ae:	f9 01       	movw	r30, r18
    27b0:	e2 5a       	subi	r30, 0xA2	; 162
    27b2:	f6 4c       	sbci	r31, 0xC6	; 198
    27b4:	60 81       	ld	r22, Z
    27b6:	71 81       	ldd	r23, Z+1	; 0x01
    27b8:	4c 91       	ld	r20, X
    27ba:	63 dd       	rcall	.-1338   	; 0x2282 <PrepareSending>
        }
        number++;
    27bc:	df 5f       	subi	r29, 0xFF	; 255
    27be:	d0 93 08 39 	sts	0x3908, r29	; 0x803908 <number.3941>

        if (responseList == 0) {
    27c2:	c1 11       	cpse	r28, r1
    27c4:	06 c0       	rjmp	.+12     	; 0x27d2 <CheckResponse+0x76>
            //effect = currObj.byteField[EFFECTS];
            RXCNT = 0;
    27c6:	1d ba       	out	0x1d, r1	; 29
            serRxDone = 0;
    27c8:	10 92 46 38 	sts	0x3846, r1	; 0x803846 <serRxDone>
            number = 0;
    27cc:	10 92 08 39 	sts	0x3908, r1	; 0x803908 <number.3941>
    27d0:	01 c0       	rjmp	.+2      	; 0x27d4 <CheckResponse+0x78>
            return 0;
        }
        return 1;
    27d2:	c1 e0       	ldi	r28, 0x01	; 1
    }
    return 0;
}
    27d4:	8c 2f       	mov	r24, r28
    27d6:	df 91       	pop	r29
    27d8:	cf 91       	pop	r28
    27da:	08 95       	ret

000027dc <CheckInput>:

//User input check (and validation)
uint8_t CheckInput(uint8_t *data){
    27dc:	5f 92       	push	r5
    27de:	6f 92       	push	r6
    27e0:	7f 92       	push	r7
    27e2:	8f 92       	push	r8
    27e4:	9f 92       	push	r9
    27e6:	af 92       	push	r10
    27e8:	bf 92       	push	r11
    27ea:	cf 92       	push	r12
    27ec:	df 92       	push	r13
    27ee:	ef 92       	push	r14
    27f0:	ff 92       	push	r15
    27f2:	0f 93       	push	r16
    27f4:	1f 93       	push	r17
    27f6:	cf 93       	push	r28
    27f8:	df 93       	push	r29
    27fa:	cd b7       	in	r28, 0x3d	; 61
    27fc:	de b7       	in	r29, 0x3e	; 62
    27fe:	2a 97       	sbiw	r28, 0x0a	; 10
    2800:	cd bf       	out	0x3d, r28	; 61
    2802:	de bf       	out	0x3e, r29	; 62
    2804:	8c 01       	movw	r16, r24
    
    //Load game data after reboot
    if (currDepth == 0xff) {
    2806:	80 91 31 38 	lds	r24, 0x3831	; 0x803831 <currDepth>
    280a:	8f 3f       	cpi	r24, 0xFF	; 255
    280c:	49 f4       	brne	.+18     	; 0x2820 <CheckInput+0x44>
        //Start at first location
        PopulateObject(route[0], &currObj);
    280e:	6e e1       	ldi	r22, 0x1E	; 30
    2810:	7a e3       	ldi	r23, 0x3A	; 58
    2812:	80 91 de 39 	lds	r24, 0x39DE	; 0x8039de <route>
    2816:	90 91 df 39 	lds	r25, 0x39DF	; 0x8039df <route+0x1>
    281a:	ec dd       	rcall	.-1064   	; 0x23f4 <PopulateObject>
        currDepth = 0;
    281c:	10 92 31 38 	sts	0x3831, r1	; 0x803831 <currDepth>
    }

    if (serRxDone){
    2820:	80 91 46 38 	lds	r24, 0x3846	; 0x803846 <serRxDone>
    2824:	88 23       	and	r24, r24
    2826:	09 f4       	brne	.+2      	; 0x282a <CheckInput+0x4e>
    2828:	d4 c1       	rjmp	.+936    	; 0x2bd2 <CheckInput+0x3f6>

        //Special input requested from user by game
        if (specialInput[0]){
    282a:	80 91 0d 39 	lds	r24, 0x390D	; 0x80390d <specialInput>
    282e:	88 23       	and	r24, r24
    2830:	09 f4       	brne	.+2      	; 0x2834 <CheckInput+0x58>
    2832:	4f c0       	rjmp	.+158    	; 0x28d2 <CheckInput+0xf6>
            specialPassed = 0;
    2834:	10 92 0c 39 	sts	0x390C, r1	; 0x80390c <specialPassed>
            data[0] = 'a';
    2838:	81 e6       	ldi	r24, 0x61	; 97
    283a:	f8 01       	movw	r30, r16
    283c:	80 83       	st	Z, r24
            
            //Normal code challenge
            if (StartsWith((uint8_t *)&serRx[0], &specialInput[0])) {
    283e:	6d e0       	ldi	r22, 0x0D	; 13
    2840:	79 e3       	ldi	r23, 0x39	; 57
    2842:	88 e7       	ldi	r24, 0x78	; 120
    2844:	9a e3       	ldi	r25, 0x3A	; 58
    2846:	03 dd       	rcall	.-1530   	; 0x224e <StartsWith>
    2848:	f8 2e       	mov	r15, r24
    284a:	88 23       	and	r24, r24
    284c:	21 f0       	breq	.+8      	; 0x2856 <CheckInput+0x7a>
                specialPassed = 1;
    284e:	81 e0       	ldi	r24, 0x01	; 1
    2850:	80 93 0c 39 	sts	0x390C, r24	; 0x80390c <specialPassed>
    2854:	04 c0       	rjmp	.+8      	; 0x285e <CheckInput+0x82>

            //Special challenge 1
            } else if ((specialInput[0] == '1')&&(specialInput[2] == 0)) {
    2856:	80 91 0d 39 	lds	r24, 0x390D	; 0x80390d <specialInput>
    285a:	81 33       	cpi	r24, 0x31	; 49
    285c:	11 f0       	breq	.+4      	; 0x2862 <CheckInput+0x86>
                responseList = SetStandardResponse((3*MAX_CHEATS));
                return 1;
            }
        } 
        //Data received, but not any of the commands above
        return 0;
    285e:	f1 2c       	mov	r15, r1
    2860:	ba c1       	rjmp	.+884    	; 0x2bd6 <CheckInput+0x3fa>
            //Normal code challenge
            if (StartsWith((uint8_t *)&serRx[0], &specialInput[0])) {
                specialPassed = 1;

            //Special challenge 1
            } else if ((specialInput[0] == '1')&&(specialInput[2] == 0)) {
    2862:	80 91 0f 39 	lds	r24, 0x390F	; 0x80390f <specialInput+0x2>
    2866:	81 11       	cpse	r24, r1
    2868:	fa cf       	rjmp	.-12     	; 0x285e <CheckInput+0x82>
                uint8_t inputLen = CleanInput((uint8_t *)&serRx[0]);
    286a:	88 e7       	ldi	r24, 0x78	; 120
    286c:	9a e3       	ldi	r25, 0x3A	; 58
    286e:	fd de       	rcall	.-518    	; 0x266a <CleanInput>
                specialPassed = 2;
    2870:	92 e0       	ldi	r25, 0x02	; 2
    2872:	90 93 0c 39 	sts	0x390C, r25	; 0x80390c <specialPassed>
                data[1] = 0;
    2876:	f8 01       	movw	r30, r16
    2878:	11 82       	std	Z+1, r1	; 0x01

                if (inputLen >= 2) {
    287a:	82 30       	cpi	r24, 0x02	; 2
    287c:	80 f3       	brcs	.-32     	; 0x285e <CheckInput+0x82>
                    if ((serRx[0] >= '1') && (serRx[0] <= '4')) {
    287e:	80 91 78 3a 	lds	r24, 0x3A78	; 0x803a78 <serRx>
    2882:	81 33       	cpi	r24, 0x31	; 49
    2884:	60 f3       	brcs	.-40     	; 0x285e <CheckInput+0x82>
    2886:	80 91 78 3a 	lds	r24, 0x3A78	; 0x803a78 <serRx>
    288a:	85 33       	cpi	r24, 0x35	; 53
    288c:	40 f7       	brcc	.-48     	; 0x285e <CheckInput+0x82>
                        serRx[1] |= 0x20;
    288e:	80 91 79 3a 	lds	r24, 0x3A79	; 0x803a79 <serRx+0x1>
    2892:	80 62       	ori	r24, 0x20	; 32
    2894:	80 93 79 3a 	sts	0x3A79, r24	; 0x803a79 <serRx+0x1>
                        if ((serRx[1] == 'a')||(serRx[1] == 'e')||(serRx[1] == 'f')||(serRx[1] == 'w')) {
    2898:	80 91 79 3a 	lds	r24, 0x3A79	; 0x803a79 <serRx+0x1>
    289c:	81 36       	cpi	r24, 0x61	; 97
    289e:	61 f0       	breq	.+24     	; 0x28b8 <CheckInput+0xdc>
    28a0:	80 91 79 3a 	lds	r24, 0x3A79	; 0x803a79 <serRx+0x1>
    28a4:	85 36       	cpi	r24, 0x65	; 101
    28a6:	41 f0       	breq	.+16     	; 0x28b8 <CheckInput+0xdc>
    28a8:	80 91 79 3a 	lds	r24, 0x3A79	; 0x803a79 <serRx+0x1>
    28ac:	86 36       	cpi	r24, 0x66	; 102
    28ae:	21 f0       	breq	.+8      	; 0x28b8 <CheckInput+0xdc>
    28b0:	80 91 79 3a 	lds	r24, 0x3A79	; 0x803a79 <serRx+0x1>
    28b4:	87 37       	cpi	r24, 0x77	; 119
    28b6:	99 f6       	brne	.-90     	; 0x285e <CheckInput+0x82>
                            data[1] = specialInput[1]+0x11;
    28b8:	80 91 0e 39 	lds	r24, 0x390E	; 0x80390e <specialInput+0x1>
    28bc:	8f 5e       	subi	r24, 0xEF	; 239
    28be:	f8 01       	movw	r30, r16
    28c0:	81 83       	std	Z+1, r24	; 0x01
                            data[2] = serRx[0];
    28c2:	80 91 78 3a 	lds	r24, 0x3A78	; 0x803a78 <serRx>
    28c6:	82 83       	std	Z+2, r24	; 0x02
                            data[3] = serRx[1];
    28c8:	80 91 79 3a 	lds	r24, 0x3A79	; 0x803a79 <serRx+0x1>
    28cc:	83 83       	std	Z+3, r24	; 0x03
                            data[4] = 0;
    28ce:	14 82       	std	Z+4, r1	; 0x04
    28d0:	82 c1       	rjmp	.+772    	; 0x2bd6 <CheckInput+0x3fa>
        } else {
      
            //SetResponse(0, A_LF, 4, TEASER);

            //Change status bit
            if ((serRx[0] == '#')&&(RXCNT == 6)){
    28d2:	80 91 78 3a 	lds	r24, 0x3A78	; 0x803a78 <serRx>
    28d6:	83 32       	cpi	r24, 0x23	; 35
    28d8:	89 f5       	brne	.+98     	; 0x293c <CheckInput+0x160>
    28da:	8d b3       	in	r24, 0x1d	; 29
    28dc:	86 30       	cpi	r24, 0x06	; 6
    28de:	71 f5       	brne	.+92     	; 0x293c <CheckInput+0x160>
    28e0:	81 e0       	ldi	r24, 0x01	; 1
    28e2:	90 e0       	ldi	r25, 0x00	; 0
    28e4:	10 e0       	ldi	r17, 0x00	; 0
                uint8_t bitNr = 0;

                for (uint8_t x=1; x<4; ++x) {
                    serRx[x] -= '0';
    28e6:	fc 01       	movw	r30, r24
    28e8:	e8 58       	subi	r30, 0x88	; 136
    28ea:	f5 4c       	sbci	r31, 0xC5	; 197
    28ec:	20 81       	ld	r18, Z
    28ee:	20 53       	subi	r18, 0x30	; 48
    28f0:	20 83       	st	Z, r18
                    bitNr *= 10;
    28f2:	11 0f       	add	r17, r17
    28f4:	21 2f       	mov	r18, r17
    28f6:	22 0f       	add	r18, r18
    28f8:	22 0f       	add	r18, r18
    28fa:	12 0f       	add	r17, r18
                    if (serRx[1] > 2) break;
    28fc:	20 91 79 3a 	lds	r18, 0x3A79	; 0x803a79 <serRx+0x1>
    2900:	23 30       	cpi	r18, 0x03	; 3
    2902:	48 f4       	brcc	.+18     	; 0x2916 <CheckInput+0x13a>
                    if (serRx[x] < 10) {
    2904:	20 81       	ld	r18, Z
    2906:	2a 30       	cpi	r18, 0x0A	; 10
    2908:	b8 f4       	brcc	.+46     	; 0x2938 <CheckInput+0x15c>
                        bitNr += serRx[x];
    290a:	20 81       	ld	r18, Z
    290c:	12 0f       	add	r17, r18
    290e:	01 96       	adiw	r24, 0x01	; 1

            //Change status bit
            if ((serRx[0] == '#')&&(RXCNT == 6)){
                uint8_t bitNr = 0;

                for (uint8_t x=1; x<4; ++x) {
    2910:	84 30       	cpi	r24, 0x04	; 4
    2912:	91 05       	cpc	r25, r1
    2914:	41 f7       	brne	.-48     	; 0x28e6 <CheckInput+0x10a>
                        continue;
                    }
                    bitNr = 0;
                    break;
                }
                if ((bitNr)&&(bitNr!=128)) {
    2916:	81 2f       	mov	r24, r17
    2918:	8f 77       	andi	r24, 0x7F	; 127
    291a:	71 f0       	breq	.+28     	; 0x2938 <CheckInput+0x15c>
                    if (Cheat(0xff-bitNr, serRx[4]<<8|serRx[5])) UpdateState(bitNr);
    291c:	80 91 7c 3a 	lds	r24, 0x3A7C	; 0x803a7c <serRx+0x4>
    2920:	60 91 7d 3a 	lds	r22, 0x3A7D	; 0x803a7d <serRx+0x5>
    2924:	70 e0       	ldi	r23, 0x00	; 0
    2926:	78 2b       	or	r23, r24
    2928:	81 2f       	mov	r24, r17
    292a:	80 95       	com	r24
    292c:	3b dc       	rcall	.-1930   	; 0x21a4 <Cheat>
    292e:	88 23       	and	r24, r24
    2930:	19 f0       	breq	.+6      	; 0x2938 <CheckInput+0x15c>
    2932:	81 2f       	mov	r24, r17
    2934:	0e 94 f7 09 	call	0x13ee	; 0x13ee <UpdateState>
                }
                
                responseList = SetStandardResponse(1);
    2938:	81 e0       	ldi	r24, 0x01	; 1
    293a:	48 c1       	rjmp	.+656    	; 0x2bcc <CheckInput+0x3f0>
    293c:	d8 01       	movw	r26, r16
    293e:	80 e0       	ldi	r24, 0x00	; 0
    2940:	90 e0       	ldi	r25, 0x00	; 0
                return 1;            
            }
            
            //Read up to the \0 character and convert to lower case.
            for (uint8_t x=0; x<RXLEN; ++x){
                if ((serRx[x]<'A')||(serRx[x]>'Z')) data[x]=serRx[x]; else data[x]=serRx[x]|0x20;
    2942:	fc 01       	movw	r30, r24
    2944:	e8 58       	subi	r30, 0x88	; 136
    2946:	f5 4c       	sbci	r31, 0xC5	; 197
    2948:	20 81       	ld	r18, Z
    294a:	21 34       	cpi	r18, 0x41	; 65
    294c:	18 f0       	brcs	.+6      	; 0x2954 <CheckInput+0x178>
    294e:	20 81       	ld	r18, Z
    2950:	2b 35       	cpi	r18, 0x5B	; 91
    2952:	10 f0       	brcs	.+4      	; 0x2958 <CheckInput+0x17c>
    2954:	20 81       	ld	r18, Z
    2956:	02 c0       	rjmp	.+4      	; 0x295c <CheckInput+0x180>
    2958:	20 81       	ld	r18, Z
    295a:	20 62       	ori	r18, 0x20	; 32
    295c:	2c 93       	st	X, r18
                if (serRx[x] == 0) {
    295e:	20 81       	ld	r18, Z
    2960:	21 11       	cpse	r18, r1
    2962:	05 c0       	rjmp	.+10     	; 0x296e <CheckInput+0x192>
                    data[x] = 0;
    2964:	f8 01       	movw	r30, r16
    2966:	e8 0f       	add	r30, r24
    2968:	f1 1d       	adc	r31, r1
    296a:	10 82       	st	Z, r1
                    break;
    296c:	05 c0       	rjmp	.+10     	; 0x2978 <CheckInput+0x19c>
    296e:	01 96       	adiw	r24, 0x01	; 1
    2970:	11 96       	adiw	r26, 0x01	; 1
                
                return 1;            
            }
            
            //Read up to the \0 character and convert to lower case.
            for (uint8_t x=0; x<RXLEN; ++x){
    2972:	81 34       	cpi	r24, 0x41	; 65
    2974:	91 05       	cpc	r25, r1
    2976:	29 f7       	brne	.-54     	; 0x2942 <CheckInput+0x166>
                    break;
                }
            }

            //No text
            if (serRx[0] == 0){
    2978:	80 91 78 3a 	lds	r24, 0x3A78	; 0x803a78 <serRx>
                data[0] = 0;
    297c:	f8 01       	movw	r30, r16
                    break;
                }
            }

            //No text
            if (serRx[0] == 0){
    297e:	81 11       	cpse	r24, r1
    2980:	05 c0       	rjmp	.+10     	; 0x298c <CheckInput+0x1b0>
                data[0] = 0;
    2982:	10 82       	st	Z, r1
                RXCNT = 0;
    2984:	1d ba       	out	0x1d, r1	; 29
                serRxDone = 0;
    2986:	10 92 46 38 	sts	0x3846, r1	; 0x803846 <serRxDone>
    298a:	23 c1       	rjmp	.+582    	; 0x2bd2 <CheckInput+0x3f6>
                return 1;
            }

            //Help text
            if ((data[0] == '?')||(data[0] == 'h')){
    298c:	80 81       	ld	r24, Z
    298e:	8f 33       	cpi	r24, 0x3F	; 63
    2990:	11 f0       	breq	.+4      	; 0x2996 <CheckInput+0x1ba>
    2992:	88 36       	cpi	r24, 0x68	; 104
    2994:	49 f4       	brne	.+18     	; 0x29a8 <CheckInput+0x1cc>
    return 0;
}

//
void SetResponse(uint8_t number, uint16_t address, uint16_t length, uint8_t type){
    reactStr[0][number]=address;
    2996:	83 e9       	ldi	r24, 0x93	; 147
    2998:	9b e7       	ldi	r25, 0x7B	; 123
    299a:	80 93 20 39 	sts	0x3920, r24	; 0x803920 <reactStr+0x2>
    299e:	90 93 21 39 	sts	0x3921, r25	; 0x803921 <reactStr+0x3>
    reactStr[1][number]=length;
    29a2:	8d e6       	ldi	r24, 0x6D	; 109
    29a4:	94 e0       	ldi	r25, 0x04	; 4
    29a6:	0a c0       	rjmp	.+20     	; 0x29bc <CheckInput+0x1e0>
                responseList = SetStandardResponse(2);
                return 1;
            }        
        
            //Alphabet text
            if (data[0] == 'a'){
    29a8:	81 36       	cpi	r24, 0x61	; 97
    29aa:	a1 f4       	brne	.+40     	; 0x29d4 <CheckInput+0x1f8>
    return 0;
}

//
void SetResponse(uint8_t number, uint16_t address, uint16_t length, uint8_t type){
    reactStr[0][number]=address;
    29ac:	8e e6       	ldi	r24, 0x6E	; 110
    29ae:	9a e7       	ldi	r25, 0x7A	; 122
    29b0:	80 93 20 39 	sts	0x3920, r24	; 0x803920 <reactStr+0x2>
    29b4:	90 93 21 39 	sts	0x3921, r25	; 0x803921 <reactStr+0x3>
    reactStr[1][number]=length;
    29b8:	85 e2       	ldi	r24, 0x25	; 37
    29ba:	91 e0       	ldi	r25, 0x01	; 1
    29bc:	80 93 60 39 	sts	0x3960, r24	; 0x803960 <reactStr+0x42>
    29c0:	90 93 61 39 	sts	0x3961, r25	; 0x803961 <reactStr+0x43>
    reactStr[2][number]=type;
    29c4:	81 e0       	ldi	r24, 0x01	; 1
    29c6:	90 e0       	ldi	r25, 0x00	; 0
    29c8:	80 93 a0 39 	sts	0x39A0, r24	; 0x8039a0 <reactStr+0x82>
    29cc:	90 93 a1 39 	sts	0x39A1, r25	; 0x8039a1 <reactStr+0x83>
            }        
        
            //Alphabet text
            if (data[0] == 'a'){
                SetResponse(1, A_ALPHABET, L_ALPHABET, TEASER);
                responseList = SetStandardResponse(2);
    29d0:	82 e0       	ldi	r24, 0x02	; 2
    29d2:	fc c0       	rjmp	.+504    	; 0x2bcc <CheckInput+0x3f0>
                return 1;
            }

            //Whoami text
            if (data[0] == 'w'){
    29d4:	87 37       	cpi	r24, 0x77	; 119
    29d6:	09 f0       	breq	.+2      	; 0x29da <CheckInput+0x1fe>
    29d8:	41 c0       	rjmp	.+130    	; 0x2a5c <CheckInput+0x280>
    return 0;
}

//
void SetResponse(uint8_t number, uint16_t address, uint16_t length, uint8_t type){
    reactStr[0][number]=address;
    29da:	8d e8       	ldi	r24, 0x8D	; 141
    29dc:	96 e7       	ldi	r25, 0x76	; 118
    29de:	80 93 20 39 	sts	0x3920, r24	; 0x803920 <reactStr+0x2>
    29e2:	90 93 21 39 	sts	0x3921, r25	; 0x803921 <reactStr+0x3>
    reactStr[1][number]=length;
    29e6:	82 e1       	ldi	r24, 0x12	; 18
    29e8:	90 e0       	ldi	r25, 0x00	; 0
    29ea:	80 93 60 39 	sts	0x3960, r24	; 0x803960 <reactStr+0x42>
    29ee:	90 93 61 39 	sts	0x3961, r25	; 0x803961 <reactStr+0x43>
    reactStr[2][number]=type;
    29f2:	21 e0       	ldi	r18, 0x01	; 1
    29f4:	30 e0       	ldi	r19, 0x00	; 0
    29f6:	20 93 a0 39 	sts	0x39A0, r18	; 0x8039a0 <reactStr+0x82>
    29fa:	30 93 a1 39 	sts	0x39A1, r19	; 0x8039a1 <reactStr+0x83>
            }

            //Whoami text
            if (data[0] == 'w'){
                SetResponse(1, A_HELLO, L_HELLO, TEASER);
                SetResponse(2, names[0][whoami-1], names[1][whoami-1], TEASER);
    29fe:	80 91 3f 38 	lds	r24, 0x383F	; 0x80383f <whoami>
    2a02:	90 e0       	ldi	r25, 0x00	; 0
    2a04:	fc 01       	movw	r30, r24
    2a06:	ee 0f       	add	r30, r30
    2a08:	ff 1f       	adc	r31, r31
    2a0a:	ec 53       	subi	r30, 0x3C	; 60
    2a0c:	f0 44       	sbci	r31, 0x40	; 64
    2a0e:	40 81       	ld	r20, Z
    2a10:	51 81       	ldd	r21, Z+1	; 0x01
    2a12:	88 0f       	add	r24, r24
    2a14:	99 1f       	adc	r25, r25
    2a16:	fc 01       	movw	r30, r24
    2a18:	e4 54       	subi	r30, 0x44	; 68
    2a1a:	f0 44       	sbci	r31, 0x40	; 64
    return 0;
}

//
void SetResponse(uint8_t number, uint16_t address, uint16_t length, uint8_t type){
    reactStr[0][number]=address;
    2a1c:	80 81       	ld	r24, Z
    2a1e:	91 81       	ldd	r25, Z+1	; 0x01
    2a20:	80 93 22 39 	sts	0x3922, r24	; 0x803922 <reactStr+0x4>
    2a24:	90 93 23 39 	sts	0x3923, r25	; 0x803923 <reactStr+0x5>
    reactStr[1][number]=length;
    2a28:	40 93 62 39 	sts	0x3962, r20	; 0x803962 <reactStr+0x44>
    2a2c:	50 93 63 39 	sts	0x3963, r21	; 0x803963 <reactStr+0x45>
    reactStr[2][number]=type;
    2a30:	20 93 a2 39 	sts	0x39A2, r18	; 0x8039a2 <reactStr+0x84>
    2a34:	30 93 a3 39 	sts	0x39A3, r19	; 0x8039a3 <reactStr+0x85>
    return 0;
}

//
void SetResponse(uint8_t number, uint16_t address, uint16_t length, uint8_t type){
    reactStr[0][number]=address;
    2a38:	8f e5       	ldi	r24, 0x5F	; 95
    2a3a:	96 e7       	ldi	r25, 0x76	; 118
    2a3c:	80 93 24 39 	sts	0x3924, r24	; 0x803924 <reactStr+0x6>
    2a40:	90 93 25 39 	sts	0x3925, r25	; 0x803925 <reactStr+0x7>
    reactStr[1][number]=length;
    2a44:	8a e1       	ldi	r24, 0x1A	; 26
    2a46:	90 e0       	ldi	r25, 0x00	; 0
    2a48:	80 93 64 39 	sts	0x3964, r24	; 0x803964 <reactStr+0x46>
    2a4c:	90 93 65 39 	sts	0x3965, r25	; 0x803965 <reactStr+0x47>
    reactStr[2][number]=type;
    2a50:	20 93 a4 39 	sts	0x39A4, r18	; 0x8039a4 <reactStr+0x86>
    2a54:	30 93 a5 39 	sts	0x39A5, r19	; 0x8039a5 <reactStr+0x87>
                } else {
                    SetResponse(2, A_ERROR, L_ERROR, TEASER);
                }*/

                SetResponse(3, A_PLEASED, L_PLEASED, TEASER);
                responseList = SetStandardResponse(4);
    2a58:	84 e0       	ldi	r24, 0x04	; 4
                responseList = SetStandardResponse(2);
                return 1;
            }*/

            //Fake cheat = reset badge!
            if (StartsWith(&data[0], "iddqd")){
    2a5a:	b8 c0       	rjmp	.+368    	; 0x2bcc <CheckInput+0x3f0>
    2a5c:	6a e9       	ldi	r22, 0x9A	; 154
    2a5e:	7f eb       	ldi	r23, 0xBF	; 191
    2a60:	c8 01       	movw	r24, r16
    2a62:	f5 db       	rcall	.-2070   	; 0x224e <StartsWith>
    2a64:	88 23       	and	r24, r24
    2a66:	19 f1       	breq	.+70     	; 0x2aae <CheckInput+0x2d2>
            
                //Reset game data by wiping the UUID bits
                for (uint8_t x=0; x<4; ++x){
                    UpdateState(128+110+x);
    2a68:	8e ee       	ldi	r24, 0xEE	; 238
    2a6a:	0e 94 f7 09 	call	0x13ee	; 0x13ee <UpdateState>
    2a6e:	8f ee       	ldi	r24, 0xEF	; 239
    2a70:	0e 94 f7 09 	call	0x13ee	; 0x13ee <UpdateState>
    2a74:	80 ef       	ldi	r24, 0xF0	; 240
    2a76:	0e 94 f7 09 	call	0x13ee	; 0x13ee <UpdateState>
    2a7a:	81 ef       	ldi	r24, 0xF1	; 241
    2a7c:	0e 94 f7 09 	call	0x13ee	; 0x13ee <UpdateState>
                }
                SaveGameState();
    2a80:	0e 94 70 09 	call	0x12e0	; 0x12e0 <SaveGameState>

                uint8_t cheat[] = "Gotcha! ";
    2a84:	89 e0       	ldi	r24, 0x09	; 9
    2a86:	ed ea       	ldi	r30, 0xAD	; 173
    2a88:	ff eb       	ldi	r31, 0xBF	; 191
    2a8a:	de 01       	movw	r26, r28
    2a8c:	11 96       	adiw	r26, 0x01	; 1
    2a8e:	01 90       	ld	r0, Z+
    2a90:	0d 92       	st	X+, r0
    2a92:	8a 95       	dec	r24
    2a94:	e1 f7       	brne	.-8      	; 0x2a8e <CheckInput+0x2b2>
                SerSpeed(60);
    2a96:	8c e3       	ldi	r24, 0x3C	; 60
    2a98:	0e 94 90 08 	call	0x1120	; 0x1120 <SerSpeed>
                while(1){
                    if (serTxDone) SerSend(&cheat[0]);
    2a9c:	80 91 09 38 	lds	r24, 0x3809	; 0x803809 <serTxDone>
    2aa0:	88 23       	and	r24, r24
    2aa2:	e1 f3       	breq	.-8      	; 0x2a9c <CheckInput+0x2c0>
    2aa4:	ce 01       	movw	r24, r28
    2aa6:	01 96       	adiw	r24, 0x01	; 1
    2aa8:	0e 94 7f 08 	call	0x10fe	; 0x10fe <SerSend>
                }
            }
            
            //Cheat reset
            if (StartsWith(&data[0], "ikillu")){
    2aac:	f7 cf       	rjmp	.-18     	; 0x2a9c <CheckInput+0x2c0>
    2aae:	60 ea       	ldi	r22, 0xA0	; 160
    2ab0:	7f eb       	ldi	r23, 0xBF	; 191
    2ab2:	c8 01       	movw	r24, r16
    2ab4:	cc db       	rcall	.-2152   	; 0x224e <StartsWith>
    2ab6:	88 23       	and	r24, r24
    2ab8:	81 f1       	breq	.+96     	; 0x2b1a <CheckInput+0x33e>
                
                //Reset cheat data by resetting the EEPROM bytes
                uint8_t empty=0xff;
    2aba:	8f ef       	ldi	r24, 0xFF	; 255
    2abc:	8a 87       	std	Y+10, r24	; 0x0a
    2abe:	18 e1       	ldi	r17, 0x18	; 24
                for (uint8_t x=0; x<MAX_CHEATS; ++x){
                    EEWrite(CHEATS+x, &empty, 1);
    2ac0:	41 e0       	ldi	r20, 0x01	; 1
    2ac2:	be 01       	movw	r22, r28
    2ac4:	66 5f       	subi	r22, 0xF6	; 246
    2ac6:	7f 4f       	sbci	r23, 0xFF	; 255
    2ac8:	81 2f       	mov	r24, r17
    2aca:	0e 94 0b 08 	call	0x1016	; 0x1016 <EEWrite>
    2ace:	1f 5f       	subi	r17, 0xFF	; 255
            //Cheat reset
            if (StartsWith(&data[0], "ikillu")){
                
                //Reset cheat data by resetting the EEPROM bytes
                uint8_t empty=0xff;
                for (uint8_t x=0; x<MAX_CHEATS; ++x){
    2ad0:	10 32       	cpi	r17, 0x20	; 32
    2ad2:	b1 f7       	brne	.-20     	; 0x2ac0 <CheckInput+0x2e4>
                    EEWrite(CHEATS+x, &empty, 1);
                }
                //Reset game data by wiping the UUID bits
                for (uint8_t x=0; x<4; ++x){
                    UpdateState(128+110+x);
    2ad4:	8e ee       	ldi	r24, 0xEE	; 238
    2ad6:	0e 94 f7 09 	call	0x13ee	; 0x13ee <UpdateState>
    2ada:	8f ee       	ldi	r24, 0xEF	; 239
    2adc:	0e 94 f7 09 	call	0x13ee	; 0x13ee <UpdateState>
    2ae0:	80 ef       	ldi	r24, 0xF0	; 240
    2ae2:	0e 94 f7 09 	call	0x13ee	; 0x13ee <UpdateState>
    2ae6:	81 ef       	ldi	r24, 0xF1	; 241
    2ae8:	0e 94 f7 09 	call	0x13ee	; 0x13ee <UpdateState>
                }
                
                SaveGameState();
    2aec:	0e 94 70 09 	call	0x12e0	; 0x12e0 <SaveGameState>

                uint8_t cheat[] = "Reset! ";
    2af0:	88 e0       	ldi	r24, 0x08	; 8
    2af2:	e6 eb       	ldi	r30, 0xB6	; 182
    2af4:	ff eb       	ldi	r31, 0xBF	; 191
    2af6:	de 01       	movw	r26, r28
    2af8:	11 96       	adiw	r26, 0x01	; 1
    2afa:	01 90       	ld	r0, Z+
    2afc:	0d 92       	st	X+, r0
    2afe:	8a 95       	dec	r24
    2b00:	e1 f7       	brne	.-8      	; 0x2afa <CheckInput+0x31e>
                SerSpeed(60);
    2b02:	8c e3       	ldi	r24, 0x3C	; 60
    2b04:	0e 94 90 08 	call	0x1120	; 0x1120 <SerSpeed>
                while(1){
                    if (serTxDone) SerSend(&cheat[0]);
    2b08:	80 91 09 38 	lds	r24, 0x3809	; 0x803809 <serTxDone>
    2b0c:	88 23       	and	r24, r24
    2b0e:	e1 f3       	breq	.-8      	; 0x2b08 <CheckInput+0x32c>
    2b10:	ce 01       	movw	r24, r28
    2b12:	01 96       	adiw	r24, 0x01	; 1
    2b14:	0e 94 7f 08 	call	0x10fe	; 0x10fe <SerSend>
                }
            }

            //Show used cheat codes
            if (StartsWith(&data[0], "cheat")){
    2b18:	f7 cf       	rjmp	.-18     	; 0x2b08 <CheckInput+0x32c>
    2b1a:	67 ea       	ldi	r22, 0xA7	; 167
    2b1c:	7f eb       	ldi	r23, 0xBF	; 191
    2b1e:	c8 01       	movw	r24, r16
    2b20:	96 db       	rcall	.-2260   	; 0x224e <StartsWith>
    2b22:	88 23       	and	r24, r24
    2b24:	09 f4       	brne	.+2      	; 0x2b28 <CheckInput+0x34c>
    2b26:	9b ce       	rjmp	.-714    	; 0x285e <CheckInput+0x82>
    2b28:	8e e1       	ldi	r24, 0x1E	; 30
    2b2a:	c8 2e       	mov	r12, r24
    2b2c:	89 e3       	ldi	r24, 0x39	; 57
    2b2e:	d8 2e       	mov	r13, r24
    2b30:	9e e5       	ldi	r25, 0x5E	; 94
    2b32:	e9 2e       	mov	r14, r25
    2b34:	99 e3       	ldi	r25, 0x39	; 57
    2b36:	f9 2e       	mov	r15, r25
    2b38:	0e e9       	ldi	r16, 0x9E	; 158
    2b3a:	19 e3       	ldi	r17, 0x39	; 57
    2b3c:	28 e1       	ldi	r18, 0x18	; 24
    2b3e:	52 2e       	mov	r5, r18
}

//
void SetResponse(uint8_t number, uint16_t address, uint16_t length, uint8_t type){
    reactStr[0][number]=address;
    reactStr[1][number]=length;
    2b40:	aa 24       	eor	r10, r10
    2b42:	a3 94       	inc	r10
    2b44:	b1 2c       	mov	r11, r1
    return 0;
}

//
void SetResponse(uint8_t number, uint16_t address, uint16_t length, uint8_t type){
    reactStr[0][number]=address;
    2b46:	47 e5       	ldi	r20, 0x57	; 87
    2b48:	84 2e       	mov	r8, r20
    2b4a:	4a e7       	ldi	r20, 0x7A	; 122
    2b4c:	94 2e       	mov	r9, r20
    reactStr[1][number]=length;
    2b4e:	52 e0       	ldi	r21, 0x02	; 2
    2b50:	65 2e       	mov	r6, r21
    2b52:	71 2c       	mov	r7, r1
            if (StartsWith(&data[0], "cheat")){
                uint8_t bit;
                for (uint8_t x=0; x<MAX_CHEATS; ++x){
                    
                    //Set up sending out number
                    EERead(CHEATS+x, &bit, 1);
    2b54:	41 e0       	ldi	r20, 0x01	; 1
    2b56:	be 01       	movw	r22, r28
    2b58:	6f 5f       	subi	r22, 0xFF	; 255
    2b5a:	7f 4f       	sbci	r23, 0xFF	; 255
    2b5c:	85 2d       	mov	r24, r5
    2b5e:	0e 94 fb 07 	call	0xff6	; 0xff6 <EERead>
                    bit = 0xff-bit;
    2b62:	89 81       	ldd	r24, Y+1	; 0x01
    2b64:	80 95       	com	r24
    2b66:	89 83       	std	Y+1, r24	; 0x01
    return 0;
}

//
void SetResponse(uint8_t number, uint16_t address, uint16_t length, uint8_t type){
    reactStr[0][number]=address;
    2b68:	28 2f       	mov	r18, r24
    2b6a:	22 95       	swap	r18
    2b6c:	2f 70       	andi	r18, 0x0F	; 15
    2b6e:	30 e0       	ldi	r19, 0x00	; 0
    2b70:	23 57       	subi	r18, 0x73	; 115
    2b72:	3b 48       	sbci	r19, 0x8B	; 139
    2b74:	f6 01       	movw	r30, r12
    2b76:	20 83       	st	Z, r18
    2b78:	31 83       	std	Z+1, r19	; 0x01
    reactStr[1][number]=length;
    2b7a:	f7 01       	movw	r30, r14
    2b7c:	a0 82       	st	Z, r10
    2b7e:	b1 82       	std	Z+1, r11	; 0x01
    reactStr[2][number]=type;
    2b80:	f8 01       	movw	r30, r16
    2b82:	a0 82       	st	Z, r10
    2b84:	b1 82       	std	Z+1, r11	; 0x01
    return 0;
}

//
void SetResponse(uint8_t number, uint16_t address, uint16_t length, uint8_t type){
    reactStr[0][number]=address;
    2b86:	8f 70       	andi	r24, 0x0F	; 15
    2b88:	90 e0       	ldi	r25, 0x00	; 0
    2b8a:	83 57       	subi	r24, 0x73	; 115
    2b8c:	9b 48       	sbci	r25, 0x8B	; 139
    2b8e:	f6 01       	movw	r30, r12
    2b90:	82 83       	std	Z+2, r24	; 0x02
    2b92:	93 83       	std	Z+3, r25	; 0x03
    reactStr[1][number]=length;
    2b94:	f7 01       	movw	r30, r14
    2b96:	a2 82       	std	Z+2, r10	; 0x02
    2b98:	b3 82       	std	Z+3, r11	; 0x03
    reactStr[2][number]=type;
    2b9a:	f8 01       	movw	r30, r16
    2b9c:	a2 82       	std	Z+2, r10	; 0x02
    2b9e:	b3 82       	std	Z+3, r11	; 0x03
    return 0;
}

//
void SetResponse(uint8_t number, uint16_t address, uint16_t length, uint8_t type){
    reactStr[0][number]=address;
    2ba0:	f6 01       	movw	r30, r12
    2ba2:	84 82       	std	Z+4, r8	; 0x04
    2ba4:	95 82       	std	Z+5, r9	; 0x05
    reactStr[1][number]=length;
    2ba6:	f7 01       	movw	r30, r14
    2ba8:	64 82       	std	Z+4, r6	; 0x04
    2baa:	75 82       	std	Z+5, r7	; 0x05
    reactStr[2][number]=type;
    2bac:	f8 01       	movw	r30, r16
    2bae:	a4 82       	std	Z+4, r10	; 0x04
    2bb0:	b5 82       	std	Z+5, r11	; 0x05
    2bb2:	53 94       	inc	r5
    2bb4:	f6 e0       	ldi	r31, 0x06	; 6
    2bb6:	cf 0e       	add	r12, r31
    2bb8:	d1 1c       	adc	r13, r1
    2bba:	86 e0       	ldi	r24, 0x06	; 6
    2bbc:	e8 0e       	add	r14, r24
    2bbe:	f1 1c       	adc	r15, r1
    2bc0:	0a 5f       	subi	r16, 0xFA	; 250
            }

            //Show used cheat codes
            if (StartsWith(&data[0], "cheat")){
                uint8_t bit;
                for (uint8_t x=0; x<MAX_CHEATS; ++x){
    2bc2:	1f 4f       	sbci	r17, 0xFF	; 255
    2bc4:	e0 e2       	ldi	r30, 0x20	; 32
    2bc6:	5e 12       	cpse	r5, r30
                    //SetResponse(x*4, A_HEXPREFIX, L_HEXPREFIX, TEASER);
                    SetResponse(x*3, A_DIGITS+(bit>>4), 1, TEASER);               
                    SetResponse(x*3+1, A_DIGITS+(bit%16), 1, TEASER);
                    SetResponse(x*3+2, A_COMMA, L_COMMA, TEASER);
                }
                responseList = SetStandardResponse((3*MAX_CHEATS));
    2bc8:	c5 cf       	rjmp	.-118    	; 0x2b54 <CheckInput+0x378>
    2bca:	88 e1       	ldi	r24, 0x18	; 24
    2bcc:	97 db       	rcall	.-2258   	; 0x22fc <SetStandardResponse>
    2bce:	80 93 1d 39 	sts	0x391D, r24	; 0x80391d <responseList>
        //Data received, but not any of the commands above
        return 0;
    }

    //Serial input not available yet
    return 1;
    2bd2:	ff 24       	eor	r15, r15
    2bd4:	f3 94       	inc	r15
}
    2bd6:	8f 2d       	mov	r24, r15
    2bd8:	2a 96       	adiw	r28, 0x0a	; 10
    2bda:	cd bf       	out	0x3d, r28	; 61
    2bdc:	de bf       	out	0x3e, r29	; 62
    2bde:	df 91       	pop	r29
    2be0:	cf 91       	pop	r28
    2be2:	1f 91       	pop	r17
    2be4:	0f 91       	pop	r16
    2be6:	ff 90       	pop	r15
    2be8:	ef 90       	pop	r14
    2bea:	df 90       	pop	r13
    2bec:	cf 90       	pop	r12
    2bee:	bf 90       	pop	r11
    2bf0:	af 90       	pop	r10
    2bf2:	9f 90       	pop	r9
    2bf4:	8f 90       	pop	r8
    2bf6:	7f 90       	pop	r7
    2bf8:	6f 90       	pop	r6
    2bfa:	5f 90       	pop	r5
    2bfc:	08 95       	ret

00002bfe <ShowInventory>:

uint8_t ShowInventory(uint8_t elements){
    2bfe:	9f 92       	push	r9
    2c00:	af 92       	push	r10
    2c02:	bf 92       	push	r11
    2c04:	cf 92       	push	r12
    2c06:	df 92       	push	r13
    2c08:	ef 92       	push	r14
    2c0a:	ff 92       	push	r15
    2c0c:	0f 93       	push	r16
    2c0e:	1f 93       	push	r17
    2c10:	cf 93       	push	r28
    2c12:	df 93       	push	r29
    2c14:	cd b7       	in	r28, 0x3d	; 61
    2c16:	de b7       	in	r29, 0x3e	; 62
    2c18:	ab 97       	sbiw	r28, 0x2b	; 43
    2c1a:	cd bf       	out	0x3d, r28	; 61
    2c1c:	de bf       	out	0x3e, r29	; 62
    object_model_t actObj1;

    SetResponse(elements++, A_NOWCARRING, L_NOWCARRING, TEASER);
    2c1e:	99 24       	eor	r9, r9
    2c20:	93 94       	inc	r9
    2c22:	98 0e       	add	r9, r24
    return 0;
}

//
void SetResponse(uint8_t number, uint16_t address, uint16_t length, uint8_t type){
    reactStr[0][number]=address;
    2c24:	90 e0       	ldi	r25, 0x00	; 0
    2c26:	fc 01       	movw	r30, r24
    2c28:	ee 0f       	add	r30, r30
    2c2a:	ff 1f       	adc	r31, r31
    2c2c:	e2 5e       	subi	r30, 0xE2	; 226
    2c2e:	f6 4c       	sbci	r31, 0xC6	; 198
    2c30:	2c ec       	ldi	r18, 0xCC	; 204
    2c32:	37 e7       	ldi	r19, 0x77	; 119
    2c34:	20 83       	st	Z, r18
    2c36:	31 83       	std	Z+1, r19	; 0x01
    reactStr[1][number]=length;
    2c38:	fc 01       	movw	r30, r24
    2c3a:	ee 0f       	add	r30, r30
    2c3c:	ff 1f       	adc	r31, r31
    2c3e:	e2 5a       	subi	r30, 0xA2	; 162
    2c40:	f6 4c       	sbci	r31, 0xC6	; 198
    2c42:	26 e1       	ldi	r18, 0x16	; 22
    2c44:	30 e0       	ldi	r19, 0x00	; 0
    2c46:	20 83       	st	Z, r18
    2c48:	31 83       	std	Z+1, r19	; 0x01
    reactStr[2][number]=type;
    2c4a:	88 0f       	add	r24, r24
    2c4c:	99 1f       	adc	r25, r25
    2c4e:	fc 01       	movw	r30, r24
    2c50:	e2 56       	subi	r30, 0x62	; 98
    2c52:	f6 4c       	sbci	r31, 0xC6	; 198
    2c54:	81 e0       	ldi	r24, 0x01	; 1
    2c56:	90 e0       	ldi	r25, 0x00	; 0
    2c58:	80 83       	st	Z, r24
    2c5a:	91 83       	std	Z+1, r25	; 0x01
    2c5c:	00 e4       	ldi	r16, 0x40	; 64
    2c5e:	18 e3       	ldi	r17, 0x38	; 56
    return 0;
}

//
void SetResponse(uint8_t number, uint16_t address, uint16_t length, uint8_t type){
    reactStr[0][number]=address;
    2c60:	37 e5       	ldi	r19, 0x57	; 87
    2c62:	e3 2e       	mov	r14, r19
    2c64:	3a e7       	ldi	r19, 0x7A	; 122
    2c66:	f3 2e       	mov	r15, r19
    reactStr[1][number]=length;
    2c68:	42 e0       	ldi	r20, 0x02	; 2
    2c6a:	c4 2e       	mov	r12, r20
    2c6c:	d1 2c       	mov	r13, r1
    reactStr[2][number]=type;
    2c6e:	aa 24       	eor	r10, r10
    2c70:	a3 94       	inc	r10
    2c72:	b1 2c       	mov	r11, r1
    object_model_t actObj1;

    SetResponse(elements++, A_NOWCARRING, L_NOWCARRING, TEASER);

    for (uint8_t x=0; x<2; ++x) {
        if (inventory[x]) {
    2c74:	f8 01       	movw	r30, r16
    2c76:	81 91       	ld	r24, Z+
    2c78:	91 91       	ld	r25, Z+
    2c7a:	8f 01       	movw	r16, r30
    2c7c:	00 97       	sbiw	r24, 0x00	; 0
    2c7e:	c9 f1       	breq	.+114    	; 0x2cf2 <ShowInventory+0xf4>
            PopulateObject(inventory[x], &actObj1);
    2c80:	be 01       	movw	r22, r28
    2c82:	6f 5f       	subi	r22, 0xFF	; 255
    2c84:	7f 4f       	sbci	r23, 0xFF	; 255
    2c86:	b6 db       	rcall	.-2196   	; 0x23f4 <PopulateObject>
            SetResponse(elements++, actObj1.addrStr[NAME], actObj1.lenStr[NAME], GAME);
    2c88:	2b 8d       	ldd	r18, Y+27	; 0x1b
    2c8a:	3c 8d       	ldd	r19, Y+28	; 0x1c
    return 0;
}

//
void SetResponse(uint8_t number, uint16_t address, uint16_t length, uint8_t type){
    reactStr[0][number]=address;
    2c8c:	89 2d       	mov	r24, r9
    2c8e:	90 e0       	ldi	r25, 0x00	; 0
    2c90:	fc 01       	movw	r30, r24
    2c92:	ee 0f       	add	r30, r30
    2c94:	ff 1f       	adc	r31, r31
    2c96:	e2 5e       	subi	r30, 0xE2	; 226
    2c98:	f6 4c       	sbci	r31, 0xC6	; 198
    2c9a:	4d 85       	ldd	r20, Y+13	; 0x0d
    2c9c:	5e 85       	ldd	r21, Y+14	; 0x0e
    2c9e:	40 83       	st	Z, r20
    2ca0:	51 83       	std	Z+1, r21	; 0x01
    reactStr[1][number]=length;
    2ca2:	fc 01       	movw	r30, r24
    2ca4:	ee 0f       	add	r30, r30
    2ca6:	ff 1f       	adc	r31, r31
    2ca8:	e2 5a       	subi	r30, 0xA2	; 162
    2caa:	f6 4c       	sbci	r31, 0xC6	; 198
    2cac:	20 83       	st	Z, r18
    2cae:	31 83       	std	Z+1, r19	; 0x01
    reactStr[2][number]=type;
    2cb0:	88 0f       	add	r24, r24
    2cb2:	99 1f       	adc	r25, r25
    2cb4:	fc 01       	movw	r30, r24
    2cb6:	e2 56       	subi	r30, 0x62	; 98
    2cb8:	f6 4c       	sbci	r31, 0xC6	; 198
    2cba:	10 82       	st	Z, r1
    2cbc:	11 82       	std	Z+1, r1	; 0x01
    return 0;
}

//
void SetResponse(uint8_t number, uint16_t address, uint16_t length, uint8_t type){
    reactStr[0][number]=address;
    2cbe:	81 e0       	ldi	r24, 0x01	; 1
    2cc0:	89 0d       	add	r24, r9
    2cc2:	90 e0       	ldi	r25, 0x00	; 0
    2cc4:	93 94       	inc	r9
    2cc6:	93 94       	inc	r9
    2cc8:	fc 01       	movw	r30, r24
    2cca:	ee 0f       	add	r30, r30
    2ccc:	ff 1f       	adc	r31, r31
    2cce:	e2 5e       	subi	r30, 0xE2	; 226
    2cd0:	f6 4c       	sbci	r31, 0xC6	; 198
    2cd2:	e0 82       	st	Z, r14
    2cd4:	f1 82       	std	Z+1, r15	; 0x01
    reactStr[1][number]=length;
    2cd6:	fc 01       	movw	r30, r24
    2cd8:	ee 0f       	add	r30, r30
    2cda:	ff 1f       	adc	r31, r31
    2cdc:	e2 5a       	subi	r30, 0xA2	; 162
    2cde:	f6 4c       	sbci	r31, 0xC6	; 198
    2ce0:	c0 82       	st	Z, r12
    2ce2:	d1 82       	std	Z+1, r13	; 0x01
    reactStr[2][number]=type;
    2ce4:	88 0f       	add	r24, r24
    2ce6:	99 1f       	adc	r25, r25
    2ce8:	fc 01       	movw	r30, r24
    2cea:	e2 56       	subi	r30, 0x62	; 98
    2cec:	f6 4c       	sbci	r31, 0xC6	; 198
    2cee:	a0 82       	st	Z, r10
    2cf0:	b1 82       	std	Z+1, r11	; 0x01
uint8_t ShowInventory(uint8_t elements){
    object_model_t actObj1;

    SetResponse(elements++, A_NOWCARRING, L_NOWCARRING, TEASER);

    for (uint8_t x=0; x<2; ++x) {
    2cf2:	f8 e3       	ldi	r31, 0x38	; 56
    2cf4:	04 34       	cpi	r16, 0x44	; 68
    2cf6:	1f 07       	cpc	r17, r31
    2cf8:	09 f0       	breq	.+2      	; 0x2cfc <ShowInventory+0xfe>
    2cfa:	bc cf       	rjmp	.-136    	; 0x2c74 <ShowInventory+0x76>
        }
    }
    elements -= 1;
            
    return elements;
}
    2cfc:	8f ef       	ldi	r24, 0xFF	; 255
    2cfe:	89 0d       	add	r24, r9
    2d00:	ab 96       	adiw	r28, 0x2b	; 43
    2d02:	cd bf       	out	0x3d, r28	; 61
    2d04:	de bf       	out	0x3e, r29	; 62
    2d06:	df 91       	pop	r29
    2d08:	cf 91       	pop	r28
    2d0a:	1f 91       	pop	r17
    2d0c:	0f 91       	pop	r16
    2d0e:	ff 90       	pop	r15
    2d10:	ef 90       	pop	r14
    2d12:	df 90       	pop	r13
    2d14:	cf 90       	pop	r12
    2d16:	bf 90       	pop	r11
    2d18:	af 90       	pop	r10
    2d1a:	9f 90       	pop	r9
    2d1c:	08 95       	ret

00002d1e <ProcessInput>:

//The game logic!
uint8_t ProcessInput(uint8_t *data){
    2d1e:	6f 92       	push	r6
    2d20:	7f 92       	push	r7
    2d22:	8f 92       	push	r8
    2d24:	9f 92       	push	r9
    2d26:	af 92       	push	r10
    2d28:	bf 92       	push	r11
    2d2a:	cf 92       	push	r12
    2d2c:	df 92       	push	r13
    2d2e:	ef 92       	push	r14
    2d30:	ff 92       	push	r15
    2d32:	0f 93       	push	r16
    2d34:	1f 93       	push	r17
    2d36:	cf 93       	push	r28
    2d38:	df 93       	push	r29
    2d3a:	cd b7       	in	r28, 0x3d	; 61
    2d3c:	de b7       	in	r29, 0x3e	; 62
    2d3e:	28 97       	sbiw	r28, 0x08	; 8
    2d40:	cd bf       	out	0x3d, r28	; 61
    2d42:	de bf       	out	0x3e, r29	; 62
    2d44:	3c 01       	movw	r6, r24
    static object_model_t actObj1, actObj2;
    uint8_t elements = 1;

    CleanInput(&data[0]);
    2d46:	91 dc       	rcall	.-1758   	; 0x266a <CleanInput>
    uint8_t inputLen = CleanInput(&data[0]);
    2d48:	c3 01       	movw	r24, r6
    2d4a:	8f dc       	rcall	.-1762   	; 0x266a <CleanInput>
    2d4c:	f8 2e       	mov	r15, r24
    return 0;
}

//
void SetResponse(uint8_t number, uint16_t address, uint16_t length, uint8_t type){
    reactStr[0][number]=address;
    2d4e:	29 e5       	ldi	r18, 0x59	; 89
    2d50:	3a e7       	ldi	r19, 0x7A	; 122
    2d52:	20 93 1e 39 	sts	0x391E, r18	; 0x80391e <reactStr>
    2d56:	30 93 1f 39 	sts	0x391F, r19	; 0x80391f <reactStr+0x1>
    reactStr[1][number]=length;
    2d5a:	84 e0       	ldi	r24, 0x04	; 4
    2d5c:	90 e0       	ldi	r25, 0x00	; 0
    2d5e:	80 93 5e 39 	sts	0x395E, r24	; 0x80395e <reactStr+0x40>
    2d62:	90 93 5f 39 	sts	0x395F, r25	; 0x80395f <reactStr+0x41>
    reactStr[2][number]=type;
    2d66:	01 e0       	ldi	r16, 0x01	; 1
    2d68:	10 e0       	ldi	r17, 0x00	; 0
    2d6a:	00 93 9e 39 	sts	0x399E, r16	; 0x80399e <reactStr+0x80>
    2d6e:	10 93 9f 39 	sts	0x399F, r17	; 0x80399f <reactStr+0x81>

    CleanInput(&data[0]);
    uint8_t inputLen = CleanInput(&data[0]);
    SetResponse(0, A_LF, 4, TEASER);

    if (inputLen) {
    2d72:	ff 20       	and	r15, r15
    2d74:	09 f4       	brne	.+2      	; 0x2d78 <ProcessInput+0x5a>
    2d76:	54 c7       	rjmp	.+3752   	; 0x3c20 <ProcessInput+0xf02>

        //eXit to previous location
        if (data[0] == 'x'){
    2d78:	d3 01       	movw	r26, r6
    2d7a:	8c 91       	ld	r24, X
    2d7c:	88 37       	cpi	r24, 0x78	; 120
    2d7e:	09 f0       	breq	.+2      	; 0x2d82 <ProcessInput+0x64>
    2d80:	45 c0       	rjmp	.+138    	; 0x2e0c <ProcessInput+0xee>

            //Standing in the Lobby?
            if ((route[currDepth] == 0)||(currDepth == 0)){
    2d82:	80 91 31 38 	lds	r24, 0x3831	; 0x803831 <currDepth>
    2d86:	e8 2f       	mov	r30, r24
    2d88:	f0 e0       	ldi	r31, 0x00	; 0
    2d8a:	ee 0f       	add	r30, r30
    2d8c:	ff 1f       	adc	r31, r31
    2d8e:	e2 52       	subi	r30, 0x22	; 34
    2d90:	f6 4c       	sbci	r31, 0xC6	; 198
    2d92:	20 81       	ld	r18, Z
    2d94:	31 81       	ldd	r19, Z+1	; 0x01
    2d96:	23 2b       	or	r18, r19
    2d98:	11 f0       	breq	.+4      	; 0x2d9e <ProcessInput+0x80>
    2d9a:	81 11       	cpse	r24, r1
    2d9c:	03 c0       	rjmp	.+6      	; 0x2da4 <ProcessInput+0x86>
    return 0;
}

//
void SetResponse(uint8_t number, uint16_t address, uint16_t length, uint8_t type){
    reactStr[0][number]=address;
    2d9e:	84 e4       	ldi	r24, 0x44	; 68
    2da0:	96 e7       	ldi	r25, 0x76	; 118
    2da2:	13 c5       	rjmp	.+2598   	; 0x37ca <ProcessInput+0xaac>
            //Standing in the Lobby?
            if ((route[currDepth] == 0)||(currDepth == 0)){
                SetResponse(elements++, A_NOTPOSSIBLE, L_NOTPOSSIBLE, TEASER);
            
            //Is there a way to go back?
            } else if (CheckState(currObj.byteField[OPEN_ACL])){
    2da4:	80 91 24 3a 	lds	r24, 0x3A24	; 0x803a24 <currObj+0x6>
    2da8:	0e 94 18 0a 	call	0x1430	; 0x1430 <CheckState>
    2dac:	88 23       	and	r24, r24
    2dae:	b9 f0       	breq	.+46     	; 0x2dde <ProcessInput+0xc0>
                --currDepth;
    2db0:	e0 91 31 38 	lds	r30, 0x3831	; 0x803831 <currDepth>
    2db4:	e1 50       	subi	r30, 0x01	; 1
    2db6:	e0 93 31 38 	sts	0x3831, r30	; 0x803831 <currDepth>
                PopulateObject(route[currDepth], &currObj);
    2dba:	f0 e0       	ldi	r31, 0x00	; 0
    2dbc:	ee 0f       	add	r30, r30
    2dbe:	ff 1f       	adc	r31, r31
    2dc0:	e2 52       	subi	r30, 0x22	; 34
    2dc2:	f6 4c       	sbci	r31, 0xC6	; 198
    2dc4:	6e e1       	ldi	r22, 0x1E	; 30
    2dc6:	7a e3       	ldi	r23, 0x3A	; 58
    2dc8:	80 81       	ld	r24, Z
    2dca:	91 81       	ldd	r25, Z+1	; 0x01
    2dcc:	13 db       	rcall	.-2522   	; 0x23f4 <PopulateObject>
                effect = currObj.byteField[EFFECTS];
    2dce:	80 91 22 3a 	lds	r24, 0x3A22	; 0x803a22 <currObj+0x4>
    2dd2:	90 e0       	ldi	r25, 0x00	; 0
    2dd4:	80 93 3c 38 	sts	0x383C, r24	; 0x80383c <effect>
    2dd8:	90 93 3d 38 	sts	0x383D, r25	; 0x80383d <effect+0x1>
    2ddc:	2a c2       	rjmp	.+1108   	; 0x3232 <ProcessInput+0x514>
            
            //No way out, print denied message of location
            } else {
                SetResponse(elements++, currObj.addrStr[OPEN_ACL_MSG], currObj.lenStr[OPEN_ACL_MSG], GAME);
    2dde:	80 91 40 3a 	lds	r24, 0x3A40	; 0x803a40 <currObj+0x22>
    2de2:	90 91 41 3a 	lds	r25, 0x3A41	; 0x803a41 <currObj+0x23>
    return 0;
}

//
void SetResponse(uint8_t number, uint16_t address, uint16_t length, uint8_t type){
    reactStr[0][number]=address;
    2de6:	20 91 32 3a 	lds	r18, 0x3A32	; 0x803a32 <currObj+0x14>
    2dea:	30 91 33 3a 	lds	r19, 0x3A33	; 0x803a33 <currObj+0x15>
    2dee:	20 93 20 39 	sts	0x3920, r18	; 0x803920 <reactStr+0x2>
    2df2:	30 93 21 39 	sts	0x3921, r19	; 0x803921 <reactStr+0x3>
    reactStr[1][number]=length;
    2df6:	80 93 60 39 	sts	0x3960, r24	; 0x803960 <reactStr+0x42>
    2dfa:	90 93 61 39 	sts	0x3961, r25	; 0x803961 <reactStr+0x43>
    reactStr[2][number]=type;
    2dfe:	10 92 a0 39 	sts	0x39A0, r1	; 0x8039a0 <reactStr+0x82>
    2e02:	10 92 a1 39 	sts	0x39A1, r1	; 0x8039a1 <reactStr+0x83>
                effect = currObj.byteField[EFFECTS];
            
            //No way out, print denied message of location
            } else {
                SetResponse(elements++, currObj.addrStr[OPEN_ACL_MSG], currObj.lenStr[OPEN_ACL_MSG], GAME);
                effect = currObj.effect[0];               
    2e06:	80 91 46 3a 	lds	r24, 0x3A46	; 0x803a46 <currObj+0x28>
    2e0a:	a9 c5       	rjmp	.+2898   	; 0x395e <ProcessInput+0xc40>
            }   
        
        //Enter locations or Open objects    
        } else if ((data[0] == 'e')||(data[0] == 'o')) {
    2e0c:	85 36       	cpi	r24, 0x65	; 101
    2e0e:	19 f0       	breq	.+6      	; 0x2e16 <ProcessInput+0xf8>
    2e10:	8f 36       	cpi	r24, 0x6F	; 111
    2e12:	09 f0       	breq	.+2      	; 0x2e16 <ProcessInput+0xf8>
    2e14:	de c0       	rjmp	.+444    	; 0x2fd2 <ProcessInput+0x2b4>
                
            //Not possible, too many/little characters
            if (inputLen != 2){
    2e16:	b2 e0       	ldi	r27, 0x02	; 2
    2e18:	fb 12       	cpse	r15, r27
    2e1a:	c1 cf       	rjmp	.-126    	; 0x2d9e <ProcessInput+0x80>
                SetResponse(elements++, A_NOTPOSSIBLE, L_NOTPOSSIBLE, TEASER);
            } else {
                uint8_t canDo = 0;
                route[currDepth+1] = FindChild(route[currDepth], data[1], 0);
    2e1c:	00 91 31 38 	lds	r16, 0x3831	; 0x803831 <currDepth>
    2e20:	10 e0       	ldi	r17, 0x00	; 0
    2e22:	f8 01       	movw	r30, r16
    2e24:	ee 0f       	add	r30, r30
    2e26:	ff 1f       	adc	r31, r31
    2e28:	e2 52       	subi	r30, 0x22	; 34
    2e2a:	f6 4c       	sbci	r31, 0xC6	; 198
    2e2c:	40 e0       	ldi	r20, 0x00	; 0
    2e2e:	50 e0       	ldi	r21, 0x00	; 0
    2e30:	d3 01       	movw	r26, r6
    2e32:	11 96       	adiw	r26, 0x01	; 1
    2e34:	6c 91       	ld	r22, X
    2e36:	80 81       	ld	r24, Z
    2e38:	91 81       	ldd	r25, Z+1	; 0x01
    2e3a:	ab db       	rcall	.-2218   	; 0x2592 <FindChild>
    2e3c:	00 0f       	add	r16, r16
    2e3e:	11 1f       	adc	r17, r17
    2e40:	f8 01       	movw	r30, r16
    2e42:	e0 52       	subi	r30, 0x20	; 32
    2e44:	f6 4c       	sbci	r31, 0xC6	; 198
    2e46:	80 83       	st	Z, r24
    2e48:	91 83       	std	Z+1, r25	; 0x01
                    
                //Child found?
                if (route[currDepth+1]) {
    2e4a:	90 91 31 38 	lds	r25, 0x3831	; 0x803831 <currDepth>
    2e4e:	29 2f       	mov	r18, r25
    2e50:	30 e0       	ldi	r19, 0x00	; 0
    2e52:	f9 01       	movw	r30, r18
    2e54:	ee 0f       	add	r30, r30
    2e56:	ff 1f       	adc	r31, r31
    2e58:	e0 52       	subi	r30, 0x20	; 32
    2e5a:	f6 4c       	sbci	r31, 0xC6	; 198
    2e5c:	40 81       	ld	r20, Z
    2e5e:	51 81       	ldd	r21, Z+1	; 0x01
    2e60:	41 15       	cp	r20, r1
    2e62:	51 05       	cpc	r21, r1
    2e64:	21 f0       	breq	.+8      	; 0x2e6e <ProcessInput+0x150>
                    PopulateObject(route[currDepth+1], &actObj1);
    2e66:	6d ed       	ldi	r22, 0xDD	; 221
    2e68:	78 e3       	ldi	r23, 0x38	; 56
    2e6a:	ca 01       	movw	r24, r20
    2e6c:	1c c0       	rjmp	.+56     	; 0x2ea6 <ProcessInput+0x188>
                    canDo = 1;
                //No child, maybe a step back, letter ok?
                } else if (currDepth) {
    2e6e:	99 23       	and	r25, r25
    2e70:	09 f4       	brne	.+2      	; 0x2e74 <ProcessInput+0x156>
    2e72:	dc c6       	rjmp	.+3512   	; 0x3c2c <ProcessInput+0xf0e>
                    if (CheckLetter(route[currDepth-1], data[1])) {
    2e74:	22 0f       	add	r18, r18
    2e76:	33 1f       	adc	r19, r19
    2e78:	f9 01       	movw	r30, r18
    2e7a:	e4 52       	subi	r30, 0x24	; 36
    2e7c:	f6 4c       	sbci	r31, 0xC6	; 198
    2e7e:	d3 01       	movw	r26, r6
    2e80:	11 96       	adiw	r26, 0x01	; 1
    2e82:	6c 91       	ld	r22, X
    2e84:	80 81       	ld	r24, Z
    2e86:	91 81       	ldd	r25, Z+1	; 0x01
    2e88:	2e db       	rcall	.-2468   	; 0x24e6 <CheckLetter>
    2e8a:	88 23       	and	r24, r24
    2e8c:	09 f4       	brne	.+2      	; 0x2e90 <ProcessInput+0x172>
    2e8e:	ce c6       	rjmp	.+3484   	; 0x3c2c <ProcessInput+0xf0e>
                        PopulateObject(route[currDepth-1], &actObj1);
    2e90:	e0 91 31 38 	lds	r30, 0x3831	; 0x803831 <currDepth>
    2e94:	f0 e0       	ldi	r31, 0x00	; 0
    2e96:	ee 0f       	add	r30, r30
    2e98:	ff 1f       	adc	r31, r31
    2e9a:	e4 52       	subi	r30, 0x24	; 36
    2e9c:	f6 4c       	sbci	r31, 0xC6	; 198
    2e9e:	6d ed       	ldi	r22, 0xDD	; 221
    2ea0:	78 e3       	ldi	r23, 0x38	; 56
    2ea2:	80 81       	ld	r24, Z
    2ea4:	91 81       	ldd	r25, Z+1	; 0x01
    2ea6:	a6 da       	rcall	.-2740   	; 0x23f4 <PopulateObject>
                    }
                }

                //The candidate is found! Let's check if the action is legit
                if (canDo) {
                    if ((data[0] == 'e') && ((actObj1.byteField[ACTION_MASK]&ENTER)==0)) {
    2ea8:	d3 01       	movw	r26, r6
    2eaa:	8c 91       	ld	r24, X
    2eac:	85 36       	cpi	r24, 0x65	; 101
    2eae:	c1 f4       	brne	.+48     	; 0x2ee0 <ProcessInput+0x1c2>
    2eb0:	80 91 e5 38 	lds	r24, 0x38E5	; 0x8038e5 <actObj1.3989+0x8>
    2eb4:	80 fd       	sbrc	r24, 0
    2eb6:	1d c0       	rjmp	.+58     	; 0x2ef2 <ProcessInput+0x1d4>
    return 0;
}

//
void SetResponse(uint8_t number, uint16_t address, uint16_t length, uint8_t type){
    reactStr[0][number]=address;
    2eb8:	8d e9       	ldi	r24, 0x9D	; 157
    2eba:	99 e7       	ldi	r25, 0x79	; 121
    2ebc:	80 93 20 39 	sts	0x3920, r24	; 0x803920 <reactStr+0x2>
    2ec0:	90 93 21 39 	sts	0x3921, r25	; 0x803921 <reactStr+0x3>
    reactStr[1][number]=length;
    2ec4:	8e e1       	ldi	r24, 0x1E	; 30
    2ec6:	90 e0       	ldi	r25, 0x00	; 0
    2ec8:	80 93 60 39 	sts	0x3960, r24	; 0x803960 <reactStr+0x42>
    2ecc:	90 93 61 39 	sts	0x3961, r25	; 0x803961 <reactStr+0x43>
    reactStr[2][number]=type;
    2ed0:	81 e0       	ldi	r24, 0x01	; 1
    2ed2:	90 e0       	ldi	r25, 0x00	; 0
    2ed4:	80 93 a0 39 	sts	0x39A0, r24	; 0x8039a0 <reactStr+0x82>
    2ed8:	90 93 a1 39 	sts	0x39A1, r25	; 0x8039a1 <reactStr+0x83>
                }

                //The candidate is found! Let's check if the action is legit
                if (canDo) {
                    if ((data[0] == 'e') && ((actObj1.byteField[ACTION_MASK]&ENTER)==0)) {
                        SetResponse(elements++, A_CANTENTER, L_CANTENTER, TEASER);
    2edc:	12 e0       	ldi	r17, 0x02	; 2
    2ede:	97 c6       	rjmp	.+3374   	; 0x3c0e <ProcessInput+0xef0>
                    } else if ((data[0] == 'o') && ((actObj1.byteField[ACTION_MASK]&OPEN)==0)) {
    2ee0:	8f 36       	cpi	r24, 0x6F	; 111
    2ee2:	39 f4       	brne	.+14     	; 0x2ef2 <ProcessInput+0x1d4>
    2ee4:	80 91 e5 38 	lds	r24, 0x38E5	; 0x8038e5 <actObj1.3989+0x8>
    2ee8:	81 fd       	sbrc	r24, 1
    2eea:	03 c0       	rjmp	.+6      	; 0x2ef2 <ProcessInput+0x1d4>
    return 0;
}

//
void SetResponse(uint8_t number, uint16_t address, uint16_t length, uint8_t type){
    reactStr[0][number]=address;
    2eec:	82 e8       	ldi	r24, 0x82	; 130
    2eee:	99 e7       	ldi	r25, 0x79	; 121
    2ef0:	6c c4       	rjmp	.+2264   	; 0x37ca <ProcessInput+0xaac>
                        SetResponse(elements++, A_CANTENTER, L_CANTENTER, TEASER);
                    } else if ((data[0] == 'o') && ((actObj1.byteField[ACTION_MASK]&OPEN)==0)) {
                        SetResponse(elements++, A_CANTOPEN, L_CANTOPEN, TEASER);
                    
                    //Action legit, permission granted?
                    } else if (CheckState(actObj1.byteField[OPEN_ACL])) {
    2ef2:	80 91 e3 38 	lds	r24, 0x38E3	; 0x8038e3 <actObj1.3989+0x6>
    2ef6:	0e 94 18 0a 	call	0x1430	; 0x1430 <CheckState>
    2efa:	e0 91 31 38 	lds	r30, 0x3831	; 0x803831 <currDepth>
    2efe:	88 23       	and	r24, r24
    2f00:	09 f4       	brne	.+2      	; 0x2f04 <ProcessInput+0x1e6>
    2f02:	49 c0       	rjmp	.+146    	; 0x2f96 <ProcessInput+0x278>
                            
                        //Yes! Check if we must move forward or backwards.
                        if (route[currDepth+1]) ++currDepth; else --currDepth;
    2f04:	ae 2f       	mov	r26, r30
    2f06:	b0 e0       	ldi	r27, 0x00	; 0
    2f08:	aa 0f       	add	r26, r26
    2f0a:	bb 1f       	adc	r27, r27
    2f0c:	a0 52       	subi	r26, 0x20	; 32
    2f0e:	b6 4c       	sbci	r27, 0xC6	; 198
    2f10:	8d 91       	ld	r24, X+
    2f12:	9c 91       	ld	r25, X
    2f14:	89 2b       	or	r24, r25
    2f16:	11 f0       	breq	.+4      	; 0x2f1c <ProcessInput+0x1fe>
    2f18:	ef 5f       	subi	r30, 0xFF	; 255
    2f1a:	01 c0       	rjmp	.+2      	; 0x2f1e <ProcessInput+0x200>
    2f1c:	e1 50       	subi	r30, 0x01	; 1
    2f1e:	e0 93 31 38 	sts	0x3831, r30	; 0x803831 <currDepth>
                        PopulateObject(route[currDepth], &currObj);
    2f22:	e0 91 31 38 	lds	r30, 0x3831	; 0x803831 <currDepth>
    2f26:	f0 e0       	ldi	r31, 0x00	; 0
    2f28:	ee 0f       	add	r30, r30
    2f2a:	ff 1f       	adc	r31, r31
    2f2c:	e2 52       	subi	r30, 0x22	; 34
    2f2e:	f6 4c       	sbci	r31, 0xC6	; 198
    2f30:	6e e1       	ldi	r22, 0x1E	; 30
    2f32:	7a e3       	ldi	r23, 0x3A	; 58
    2f34:	80 81       	ld	r24, Z
    2f36:	91 81       	ldd	r25, Z+1	; 0x01
    2f38:	5d da       	rcall	.-2886   	; 0x23f4 <PopulateObject>
                        SetResponse(elements++, currObj.addrStr[DESC], currObj.lenStr[DESC],GAME);
    2f3a:	80 91 3a 3a 	lds	r24, 0x3A3A	; 0x803a3a <currObj+0x1c>
    2f3e:	90 91 3b 3a 	lds	r25, 0x3A3B	; 0x803a3b <currObj+0x1d>
    return 0;
}

//
void SetResponse(uint8_t number, uint16_t address, uint16_t length, uint8_t type){
    reactStr[0][number]=address;
    2f42:	20 91 2c 3a 	lds	r18, 0x3A2C	; 0x803a2c <currObj+0xe>
    2f46:	30 91 2d 3a 	lds	r19, 0x3A2D	; 0x803a2d <currObj+0xf>
    2f4a:	20 93 20 39 	sts	0x3920, r18	; 0x803920 <reactStr+0x2>
    2f4e:	30 93 21 39 	sts	0x3921, r19	; 0x803921 <reactStr+0x3>
    reactStr[1][number]=length;
    2f52:	80 93 60 39 	sts	0x3960, r24	; 0x803960 <reactStr+0x42>
    2f56:	90 93 61 39 	sts	0x3961, r25	; 0x803961 <reactStr+0x43>
    reactStr[2][number]=type;
    2f5a:	10 92 a0 39 	sts	0x39A0, r1	; 0x8039a0 <reactStr+0x82>
    2f5e:	10 92 a1 39 	sts	0x39A1, r1	; 0x8039a1 <reactStr+0x83>
    return 0;
}

//
void SetResponse(uint8_t number, uint16_t address, uint16_t length, uint8_t type){
    reactStr[0][number]=address;
    2f62:	89 e5       	ldi	r24, 0x59	; 89
    2f64:	9a e7       	ldi	r25, 0x7A	; 122
    2f66:	80 93 22 39 	sts	0x3922, r24	; 0x803922 <reactStr+0x4>
    2f6a:	90 93 23 39 	sts	0x3923, r25	; 0x803923 <reactStr+0x5>
    reactStr[1][number]=length;
    2f6e:	82 e0       	ldi	r24, 0x02	; 2
    2f70:	90 e0       	ldi	r25, 0x00	; 0
    2f72:	80 93 62 39 	sts	0x3962, r24	; 0x803962 <reactStr+0x44>
    2f76:	90 93 63 39 	sts	0x3963, r25	; 0x803963 <reactStr+0x45>
    reactStr[2][number]=type;
    2f7a:	81 e0       	ldi	r24, 0x01	; 1
    2f7c:	90 e0       	ldi	r25, 0x00	; 0
    2f7e:	80 93 a2 39 	sts	0x39A2, r24	; 0x8039a2 <reactStr+0x84>
    2f82:	90 93 a3 39 	sts	0x39A3, r25	; 0x8039a3 <reactStr+0x85>
                        //Yes! Check if we must move forward or backwards.
                        if (route[currDepth+1]) ++currDepth; else --currDepth;
                        PopulateObject(route[currDepth], &currObj);
                        SetResponse(elements++, currObj.addrStr[DESC], currObj.lenStr[DESC],GAME);
                        SetResponse(elements++, A_LF, 2, TEASER);
                        effect = currObj.byteField[EFFECTS];
    2f86:	80 91 22 3a 	lds	r24, 0x3A22	; 0x803a22 <currObj+0x4>
    2f8a:	90 e0       	ldi	r25, 0x00	; 0
    2f8c:	80 93 3c 38 	sts	0x383C, r24	; 0x80383c <effect>
    2f90:	90 93 3d 38 	sts	0x383D, r25	; 0x80383d <effect+0x1>
    2f94:	07 c4       	rjmp	.+2062   	; 0x37a4 <ProcessInput+0xa86>
                                                  
                    //Not granted!
                    } else {
                        route[currDepth+1] = 0;
    2f96:	f0 e0       	ldi	r31, 0x00	; 0
    2f98:	ee 0f       	add	r30, r30
    2f9a:	ff 1f       	adc	r31, r31
    2f9c:	e0 52       	subi	r30, 0x20	; 32
    2f9e:	f6 4c       	sbci	r31, 0xC6	; 198
    2fa0:	10 82       	st	Z, r1
    2fa2:	11 82       	std	Z+1, r1	; 0x01
                        SetResponse(elements++, actObj1.addrStr[OPEN_ACL_MSG], actObj1.lenStr[OPEN_ACL_MSG], GAME);
    2fa4:	80 91 ff 38 	lds	r24, 0x38FF	; 0x8038ff <actObj1.3989+0x22>
    2fa8:	90 91 00 39 	lds	r25, 0x3900	; 0x803900 <actObj1.3989+0x23>
    return 0;
}

//
void SetResponse(uint8_t number, uint16_t address, uint16_t length, uint8_t type){
    reactStr[0][number]=address;
    2fac:	20 91 f1 38 	lds	r18, 0x38F1	; 0x8038f1 <actObj1.3989+0x14>
    2fb0:	30 91 f2 38 	lds	r19, 0x38F2	; 0x8038f2 <actObj1.3989+0x15>
    2fb4:	20 93 20 39 	sts	0x3920, r18	; 0x803920 <reactStr+0x2>
    2fb8:	30 93 21 39 	sts	0x3921, r19	; 0x803921 <reactStr+0x3>
    reactStr[1][number]=length;
    2fbc:	80 93 60 39 	sts	0x3960, r24	; 0x803960 <reactStr+0x42>
    2fc0:	90 93 61 39 	sts	0x3961, r25	; 0x803961 <reactStr+0x43>
    reactStr[2][number]=type;
    2fc4:	10 92 a0 39 	sts	0x39A0, r1	; 0x8039a0 <reactStr+0x82>
    2fc8:	10 92 a1 39 	sts	0x39A1, r1	; 0x8039a1 <reactStr+0x83>
                                                  
                    //Not granted!
                    } else {
                        route[currDepth+1] = 0;
                        SetResponse(elements++, actObj1.addrStr[OPEN_ACL_MSG], actObj1.lenStr[OPEN_ACL_MSG], GAME);
                        effect = actObj1.effect[0];              
    2fcc:	80 91 05 39 	lds	r24, 0x3905	; 0x803905 <actObj1.3989+0x28>
    2fd0:	c6 c4       	rjmp	.+2444   	; 0x395e <ProcessInput+0xc40>
                    SetResponse(elements++, A_DONTSEE, L_DONTSEE, TEASER);                
                }
            }

        //Look around or at objects
        } else if (data[0] == 'l') {
    2fd2:	8c 36       	cpi	r24, 0x6C	; 108
    2fd4:	09 f0       	breq	.+2      	; 0x2fd8 <ProcessInput+0x2ba>
    2fd6:	59 c1       	rjmp	.+690    	; 0x328a <ProcessInput+0x56c>
    2fd8:	e0 91 31 38 	lds	r30, 0x3831	; 0x803831 <currDepth>
            if (inputLen == 1) {
    2fdc:	b1 e0       	ldi	r27, 0x01	; 1
    2fde:	fb 12       	cpse	r15, r27
    2fe0:	f1 c0       	rjmp	.+482    	; 0x31c4 <ProcessInput+0x4a6>

                //Show info about this area first
                SetResponse(elements++, currObj.addrStr[DESC], currObj.lenStr[DESC],GAME);
    2fe2:	80 91 3a 3a 	lds	r24, 0x3A3A	; 0x803a3a <currObj+0x1c>
    2fe6:	90 91 3b 3a 	lds	r25, 0x3A3B	; 0x803a3b <currObj+0x1d>
    return 0;
}

//
void SetResponse(uint8_t number, uint16_t address, uint16_t length, uint8_t type){
    reactStr[0][number]=address;
    2fea:	40 91 2c 3a 	lds	r20, 0x3A2C	; 0x803a2c <currObj+0xe>
    2fee:	50 91 2d 3a 	lds	r21, 0x3A2D	; 0x803a2d <currObj+0xf>
    2ff2:	40 93 20 39 	sts	0x3920, r20	; 0x803920 <reactStr+0x2>
    2ff6:	50 93 21 39 	sts	0x3921, r21	; 0x803921 <reactStr+0x3>
    reactStr[1][number]=length;
    2ffa:	80 93 60 39 	sts	0x3960, r24	; 0x803960 <reactStr+0x42>
    2ffe:	90 93 61 39 	sts	0x3961, r25	; 0x803961 <reactStr+0x43>
    reactStr[2][number]=type;
    3002:	10 92 a0 39 	sts	0x39A0, r1	; 0x8039a0 <reactStr+0x82>
    3006:	10 92 a1 39 	sts	0x39A1, r1	; 0x8039a1 <reactStr+0x83>
    return 0;
}

//
void SetResponse(uint8_t number, uint16_t address, uint16_t length, uint8_t type){
    reactStr[0][number]=address;
    300a:	20 93 22 39 	sts	0x3922, r18	; 0x803922 <reactStr+0x4>
    300e:	30 93 23 39 	sts	0x3923, r19	; 0x803923 <reactStr+0x5>
    reactStr[1][number]=length;
    3012:	82 e0       	ldi	r24, 0x02	; 2
    3014:	90 e0       	ldi	r25, 0x00	; 0
    3016:	80 93 62 39 	sts	0x3962, r24	; 0x803962 <reactStr+0x44>
    301a:	90 93 63 39 	sts	0x3963, r25	; 0x803963 <reactStr+0x45>
    reactStr[2][number]=type;
    301e:	00 93 a2 39 	sts	0x39A2, r16	; 0x8039a2 <reactStr+0x84>
    3022:	10 93 a3 39 	sts	0x39A3, r17	; 0x8039a3 <reactStr+0x85>
    return 0;
}

//
void SetResponse(uint8_t number, uint16_t address, uint16_t length, uint8_t type){
    reactStr[0][number]=address;
    3026:	8b ee       	ldi	r24, 0xEB	; 235
    3028:	99 e7       	ldi	r25, 0x79	; 121
    302a:	80 93 24 39 	sts	0x3924, r24	; 0x803924 <reactStr+0x6>
    302e:	90 93 25 39 	sts	0x3925, r25	; 0x803925 <reactStr+0x7>
    reactStr[1][number]=length;
    3032:	85 e1       	ldi	r24, 0x15	; 21
    3034:	90 e0       	ldi	r25, 0x00	; 0
    3036:	80 93 64 39 	sts	0x3964, r24	; 0x803964 <reactStr+0x46>
    303a:	90 93 65 39 	sts	0x3965, r25	; 0x803965 <reactStr+0x47>
    reactStr[2][number]=type;
    303e:	00 93 a4 39 	sts	0x39A4, r16	; 0x8039a4 <reactStr+0x86>
    3042:	10 93 a5 39 	sts	0x39A5, r17	; 0x8039a5 <reactStr+0x87>
                SetResponse(elements++, currObj.addrStr[DESC], currObj.lenStr[DESC],GAME);
                SetResponse(elements++, A_LF, 2, TEASER);
                SetResponse(elements++, A_LOOK, L_LOOK, TEASER);

                //Check the visible children first
                route[currDepth+1] = 0;
    3046:	f0 e0       	ldi	r31, 0x00	; 0
    3048:	ee 0f       	add	r30, r30
    304a:	ff 1f       	adc	r31, r31
    304c:	e0 52       	subi	r30, 0x20	; 32
    304e:	f6 4c       	sbci	r31, 0xC6	; 198
    3050:	10 82       	st	Z, r1
    3052:	11 82       	std	Z+1, r1	; 0x01
            if (inputLen == 1) {

                //Show info about this area first
                SetResponse(elements++, currObj.addrStr[DESC], currObj.lenStr[DESC],GAME);
                SetResponse(elements++, A_LF, 2, TEASER);
                SetResponse(elements++, A_LOOK, L_LOOK, TEASER);
    3054:	b4 e0       	ldi	r27, 0x04	; 4
    3056:	9b 2e       	mov	r9, r27
    return 0;
}

//
void SetResponse(uint8_t number, uint16_t address, uint16_t length, uint8_t type){
    reactStr[0][number]=address;
    3058:	17 e5       	ldi	r17, 0x57	; 87
    305a:	e1 2e       	mov	r14, r17
    305c:	1a e7       	ldi	r17, 0x7A	; 122
    305e:	f1 2e       	mov	r15, r17
    reactStr[1][number]=length;
    3060:	02 e0       	ldi	r16, 0x02	; 2
    3062:	c0 2e       	mov	r12, r16
    3064:	d1 2c       	mov	r13, r1
    reactStr[2][number]=type;
    3066:	aa 24       	eor	r10, r10
    3068:	a3 94       	inc	r10
    306a:	b1 2c       	mov	r11, r1
                SetResponse(elements++, A_LOOK, L_LOOK, TEASER);

                //Check the visible children first
                route[currDepth+1] = 0;
                do{
                    route[currDepth+1] = FindChild(route[currDepth], 0, route[currDepth+1]);
    306c:	80 91 31 38 	lds	r24, 0x3831	; 0x803831 <currDepth>
    3070:	90 e0       	ldi	r25, 0x00	; 0
    3072:	8c 01       	movw	r16, r24
    3074:	00 0f       	add	r16, r16
    3076:	11 1f       	adc	r17, r17
    3078:	00 52       	subi	r16, 0x20	; 32
    307a:	16 4c       	sbci	r17, 0xC6	; 198
    307c:	f8 01       	movw	r30, r16
    307e:	40 81       	ld	r20, Z
    3080:	51 81       	ldd	r21, Z+1	; 0x01
    3082:	88 0f       	add	r24, r24
    3084:	99 1f       	adc	r25, r25
    3086:	fc 01       	movw	r30, r24
    3088:	e2 52       	subi	r30, 0x22	; 34
    308a:	f6 4c       	sbci	r31, 0xC6	; 198
    308c:	60 e0       	ldi	r22, 0x00	; 0
    308e:	80 81       	ld	r24, Z
    3090:	91 81       	ldd	r25, Z+1	; 0x01
    3092:	7f da       	rcall	.-2818   	; 0x2592 <FindChild>
    3094:	d8 01       	movw	r26, r16
    3096:	8d 93       	st	X+, r24
    3098:	9c 93       	st	X, r25
                    if (route[currDepth+1]) {
    309a:	e0 91 31 38 	lds	r30, 0x3831	; 0x803831 <currDepth>
    309e:	f0 e0       	ldi	r31, 0x00	; 0
    30a0:	ee 0f       	add	r30, r30
    30a2:	ff 1f       	adc	r31, r31
    30a4:	e0 52       	subi	r30, 0x20	; 32
    30a6:	f6 4c       	sbci	r31, 0xC6	; 198
    30a8:	80 81       	ld	r24, Z
    30aa:	91 81       	ldd	r25, Z+1	; 0x01
    30ac:	00 97       	sbiw	r24, 0x00	; 0
    30ae:	09 f4       	brne	.+2      	; 0x30b2 <ProcessInput+0x394>
    30b0:	4a c0       	rjmp	.+148    	; 0x3146 <ProcessInput+0x428>
                        if ((route[currDepth+1] != inventory[0])&&(route[currDepth+1] != inventory[1])) {
    30b2:	20 91 40 38 	lds	r18, 0x3840	; 0x803840 <inventory>
    30b6:	30 91 41 38 	lds	r19, 0x3841	; 0x803841 <inventory+0x1>
    30ba:	82 17       	cp	r24, r18
    30bc:	93 07       	cpc	r25, r19
    30be:	09 f4       	brne	.+2      	; 0x30c2 <ProcessInput+0x3a4>
    30c0:	42 c0       	rjmp	.+132    	; 0x3146 <ProcessInput+0x428>
    30c2:	20 91 42 38 	lds	r18, 0x3842	; 0x803842 <inventory+0x2>
    30c6:	30 91 43 38 	lds	r19, 0x3843	; 0x803843 <inventory+0x3>
    30ca:	82 17       	cp	r24, r18
    30cc:	93 07       	cpc	r25, r19
                            PopulateObject(route[currDepth+1], &actObj1);
    30ce:	d9 f1       	breq	.+118    	; 0x3146 <ProcessInput+0x428>
    30d0:	6d ed       	ldi	r22, 0xDD	; 221
    30d2:	78 e3       	ldi	r23, 0x38	; 56
    30d4:	8f d9       	rcall	.-3298   	; 0x23f4 <PopulateObject>
                            SetResponse(elements++, actObj1.addrStr[NAME], actObj1.lenStr[NAME],GAME);
    30d6:	80 91 f7 38 	lds	r24, 0x38F7	; 0x8038f7 <actObj1.3989+0x1a>
    30da:	90 91 f8 38 	lds	r25, 0x38F8	; 0x8038f8 <actObj1.3989+0x1b>
    return 0;
}

//
void SetResponse(uint8_t number, uint16_t address, uint16_t length, uint8_t type){
    reactStr[0][number]=address;
    30de:	e9 2d       	mov	r30, r9
    30e0:	f0 e0       	ldi	r31, 0x00	; 0
    30e2:	df 01       	movw	r26, r30
    30e4:	aa 0f       	add	r26, r26
    30e6:	bb 1f       	adc	r27, r27
    30e8:	a2 5e       	subi	r26, 0xE2	; 226
    30ea:	b6 4c       	sbci	r27, 0xC6	; 198
    30ec:	20 91 e9 38 	lds	r18, 0x38E9	; 0x8038e9 <actObj1.3989+0xc>
    30f0:	30 91 ea 38 	lds	r19, 0x38EA	; 0x8038ea <actObj1.3989+0xd>
    30f4:	2d 93       	st	X+, r18
    30f6:	3c 93       	st	X, r19
    reactStr[1][number]=length;
    30f8:	df 01       	movw	r26, r30
    30fa:	aa 0f       	add	r26, r26
    30fc:	bb 1f       	adc	r27, r27
    30fe:	a2 5a       	subi	r26, 0xA2	; 162
    3100:	b6 4c       	sbci	r27, 0xC6	; 198
    3102:	8d 93       	st	X+, r24
    3104:	9c 93       	st	X, r25
    reactStr[2][number]=type;
    3106:	ee 0f       	add	r30, r30
    3108:	ff 1f       	adc	r31, r31
    310a:	e2 56       	subi	r30, 0x62	; 98
    310c:	f6 4c       	sbci	r31, 0xC6	; 198
    310e:	10 82       	st	Z, r1
    3110:	11 82       	std	Z+1, r1	; 0x01
    return 0;
}

//
void SetResponse(uint8_t number, uint16_t address, uint16_t length, uint8_t type){
    reactStr[0][number]=address;
    3112:	81 e0       	ldi	r24, 0x01	; 1
    3114:	89 0d       	add	r24, r9
    3116:	90 e0       	ldi	r25, 0x00	; 0
    3118:	93 94       	inc	r9
    311a:	93 94       	inc	r9
    311c:	fc 01       	movw	r30, r24
    311e:	ee 0f       	add	r30, r30
    3120:	ff 1f       	adc	r31, r31
    3122:	e2 5e       	subi	r30, 0xE2	; 226
    3124:	f6 4c       	sbci	r31, 0xC6	; 198
    3126:	e0 82       	st	Z, r14
    3128:	f1 82       	std	Z+1, r15	; 0x01
    reactStr[1][number]=length;
    312a:	fc 01       	movw	r30, r24
    312c:	ee 0f       	add	r30, r30
    312e:	ff 1f       	adc	r31, r31
    3130:	e2 5a       	subi	r30, 0xA2	; 162
    3132:	f6 4c       	sbci	r31, 0xC6	; 198
    3134:	c0 82       	st	Z, r12
    3136:	d1 82       	std	Z+1, r13	; 0x01
    reactStr[2][number]=type;
    3138:	88 0f       	add	r24, r24
    313a:	99 1f       	adc	r25, r25
    313c:	fc 01       	movw	r30, r24
    313e:	e2 56       	subi	r30, 0x62	; 98
    3140:	f6 4c       	sbci	r31, 0xC6	; 198
    3142:	a0 82       	st	Z, r10
    3144:	b1 82       	std	Z+1, r11	; 0x01
                            PopulateObject(route[currDepth+1], &actObj1);
                            SetResponse(elements++, actObj1.addrStr[NAME], actObj1.lenStr[NAME],GAME);
                            SetResponse(elements++, A_COMMA, L_COMMA, TEASER);
                        }
                    }
                }while (route[currDepth+1]);
    3146:	20 91 31 38 	lds	r18, 0x3831	; 0x803831 <currDepth>
    314a:	82 2f       	mov	r24, r18
    314c:	90 e0       	ldi	r25, 0x00	; 0
    314e:	fc 01       	movw	r30, r24
    3150:	ee 0f       	add	r30, r30
    3152:	ff 1f       	adc	r31, r31
    3154:	e0 52       	subi	r30, 0x20	; 32
    3156:	f6 4c       	sbci	r31, 0xC6	; 198
    3158:	40 81       	ld	r20, Z
    315a:	51 81       	ldd	r21, Z+1	; 0x01
    315c:	45 2b       	or	r20, r21
    315e:	09 f0       	breq	.+2      	; 0x3162 <ProcessInput+0x444>
    3160:	85 cf       	rjmp	.-246    	; 0x306c <ProcessInput+0x34e>

                //Look back if not on level 0
                if (currDepth) {
    3162:	22 23       	and	r18, r18
    3164:	61 f1       	breq	.+88     	; 0x31be <ProcessInput+0x4a0>
                    PopulateObject(route[currDepth-1], &actObj1);
    3166:	88 0f       	add	r24, r24
    3168:	99 1f       	adc	r25, r25
    316a:	fc 01       	movw	r30, r24
    316c:	e4 52       	subi	r30, 0x24	; 36
    316e:	f6 4c       	sbci	r31, 0xC6	; 198
    3170:	6d ed       	ldi	r22, 0xDD	; 221
    3172:	78 e3       	ldi	r23, 0x38	; 56
    3174:	80 81       	ld	r24, Z
    3176:	91 81       	ldd	r25, Z+1	; 0x01
    3178:	3d d9       	rcall	.-3462   	; 0x23f4 <PopulateObject>
                    SetResponse(elements++, actObj1.addrStr[NAME], actObj1.lenStr[NAME],GAME);
    317a:	20 91 f7 38 	lds	r18, 0x38F7	; 0x8038f7 <actObj1.3989+0x1a>
    317e:	30 91 f8 38 	lds	r19, 0x38F8	; 0x8038f8 <actObj1.3989+0x1b>
    3182:	11 e0       	ldi	r17, 0x01	; 1
    3184:	19 0d       	add	r17, r9
    return 0;
}

//
void SetResponse(uint8_t number, uint16_t address, uint16_t length, uint8_t type){
    reactStr[0][number]=address;
    3186:	89 2d       	mov	r24, r9
    3188:	90 e0       	ldi	r25, 0x00	; 0
    318a:	fc 01       	movw	r30, r24
    318c:	ee 0f       	add	r30, r30
    318e:	ff 1f       	adc	r31, r31
    3190:	e2 5e       	subi	r30, 0xE2	; 226
    3192:	f6 4c       	sbci	r31, 0xC6	; 198
    3194:	40 91 e9 38 	lds	r20, 0x38E9	; 0x8038e9 <actObj1.3989+0xc>
    3198:	50 91 ea 38 	lds	r21, 0x38EA	; 0x8038ea <actObj1.3989+0xd>
    319c:	40 83       	st	Z, r20
    319e:	51 83       	std	Z+1, r21	; 0x01
    reactStr[1][number]=length;
    31a0:	fc 01       	movw	r30, r24
    31a2:	ee 0f       	add	r30, r30
    31a4:	ff 1f       	adc	r31, r31
    31a6:	e2 5a       	subi	r30, 0xA2	; 162
    31a8:	f6 4c       	sbci	r31, 0xC6	; 198
    31aa:	20 83       	st	Z, r18
    31ac:	31 83       	std	Z+1, r19	; 0x01
    reactStr[2][number]=type;
    31ae:	88 0f       	add	r24, r24
    31b0:	99 1f       	adc	r25, r25
    31b2:	fc 01       	movw	r30, r24
    31b4:	e2 56       	subi	r30, 0x62	; 98
    31b6:	f6 4c       	sbci	r31, 0xC6	; 198
    31b8:	10 82       	st	Z, r1
    31ba:	11 82       	std	Z+1, r1	; 0x01
    31bc:	28 c5       	rjmp	.+2640   	; 0x3c0e <ProcessInput+0xef0>

                //Look back if not on level 0
                if (currDepth) {
                    PopulateObject(route[currDepth-1], &actObj1);
                    SetResponse(elements++, actObj1.addrStr[NAME], actObj1.lenStr[NAME],GAME);
                } else elements-=1;
    31be:	1f ef       	ldi	r17, 0xFF	; 255
    31c0:	19 0d       	add	r17, r9
    31c2:	25 c5       	rjmp	.+2634   	; 0x3c0e <ProcessInput+0xef0>

            } else {
                route[currDepth+1] = FindChild(route[currDepth], data[1], 0);
    31c4:	ee 2e       	mov	r14, r30
    31c6:	f1 2c       	mov	r15, r1
    31c8:	f7 01       	movw	r30, r14
    31ca:	ee 0f       	add	r30, r30
    31cc:	ff 1f       	adc	r31, r31
    31ce:	e2 52       	subi	r30, 0x22	; 34
    31d0:	f6 4c       	sbci	r31, 0xC6	; 198
    31d2:	40 e0       	ldi	r20, 0x00	; 0
    31d4:	50 e0       	ldi	r21, 0x00	; 0
    31d6:	d3 01       	movw	r26, r6
    31d8:	11 96       	adiw	r26, 0x01	; 1
    31da:	6c 91       	ld	r22, X
    31dc:	80 81       	ld	r24, Z
    31de:	91 81       	ldd	r25, Z+1	; 0x01
    31e0:	d8 d9       	rcall	.-3152   	; 0x2592 <FindChild>
    31e2:	f7 01       	movw	r30, r14
    31e4:	ee 0f       	add	r30, r30
    31e6:	ff 1f       	adc	r31, r31
    31e8:	e0 52       	subi	r30, 0x20	; 32
    31ea:	f6 4c       	sbci	r31, 0xC6	; 198
    31ec:	80 83       	st	Z, r24
    31ee:	91 83       	std	Z+1, r25	; 0x01
                if (route[currDepth+1]) {
    31f0:	90 91 31 38 	lds	r25, 0x3831	; 0x803831 <currDepth>
    31f4:	29 2f       	mov	r18, r25
    31f6:	30 e0       	ldi	r19, 0x00	; 0
    31f8:	f9 01       	movw	r30, r18
    31fa:	ee 0f       	add	r30, r30
    31fc:	ff 1f       	adc	r31, r31
    31fe:	e0 52       	subi	r30, 0x20	; 32
    3200:	f6 4c       	sbci	r31, 0xC6	; 198
    3202:	40 81       	ld	r20, Z
    3204:	51 81       	ldd	r21, Z+1	; 0x01
    3206:	41 15       	cp	r20, r1
    3208:	51 05       	cpc	r21, r1
    320a:	21 f0       	breq	.+8      	; 0x3214 <ProcessInput+0x4f6>
                    PopulateObject(route[currDepth+1], &actObj1);
    320c:	6d ed       	ldi	r22, 0xDD	; 221
    320e:	78 e3       	ldi	r23, 0x38	; 56
    3210:	ca 01       	movw	r24, r20
    3212:	1c c0       	rjmp	.+56     	; 0x324c <ProcessInput+0x52e>
                    SetResponse(elements++, actObj1.addrStr[DESC], actObj1.lenStr[DESC],GAME);   
                } else if (currDepth) {
    3214:	99 23       	and	r25, r25
                    if (CheckLetter(route[currDepth-1], data[1])) {
    3216:	81 f1       	breq	.+96     	; 0x3278 <ProcessInput+0x55a>
    3218:	22 0f       	add	r18, r18
    321a:	33 1f       	adc	r19, r19
    321c:	f9 01       	movw	r30, r18
    321e:	e4 52       	subi	r30, 0x24	; 36
    3220:	f6 4c       	sbci	r31, 0xC6	; 198
    3222:	d3 01       	movw	r26, r6
    3224:	11 96       	adiw	r26, 0x01	; 1
    3226:	6c 91       	ld	r22, X
    3228:	80 81       	ld	r24, Z
    322a:	91 81       	ldd	r25, Z+1	; 0x01
    322c:	5c d9       	rcall	.-3400   	; 0x24e6 <CheckLetter>
    322e:	81 11       	cpse	r24, r1
    3230:	02 c0       	rjmp	.+4      	; 0x3236 <ProcessInput+0x518>
}

//The game logic!
uint8_t ProcessInput(uint8_t *data){
    static object_model_t actObj1, actObj2;
    uint8_t elements = 1;
    3232:	11 e0       	ldi	r17, 0x01	; 1
                if (route[currDepth+1]) {
                    PopulateObject(route[currDepth+1], &actObj1);
                    SetResponse(elements++, actObj1.addrStr[DESC], actObj1.lenStr[DESC],GAME);   
                } else if (currDepth) {
                    if (CheckLetter(route[currDepth-1], data[1])) {
                        PopulateObject(route[currDepth-1], &actObj1);
    3234:	ec c4       	rjmp	.+2520   	; 0x3c0e <ProcessInput+0xef0>
    3236:	e0 91 31 38 	lds	r30, 0x3831	; 0x803831 <currDepth>
    323a:	f0 e0       	ldi	r31, 0x00	; 0
    323c:	ee 0f       	add	r30, r30
    323e:	ff 1f       	adc	r31, r31
    3240:	e4 52       	subi	r30, 0x24	; 36
    3242:	f6 4c       	sbci	r31, 0xC6	; 198
    3244:	6d ed       	ldi	r22, 0xDD	; 221
    3246:	78 e3       	ldi	r23, 0x38	; 56
    3248:	80 81       	ld	r24, Z
    324a:	91 81       	ldd	r25, Z+1	; 0x01
    324c:	d3 d8       	rcall	.-3674   	; 0x23f4 <PopulateObject>
                        SetResponse(elements++, actObj1.addrStr[DESC], actObj1.lenStr[DESC],GAME);
    324e:	80 91 f9 38 	lds	r24, 0x38F9	; 0x8038f9 <actObj1.3989+0x1c>
    3252:	90 91 fa 38 	lds	r25, 0x38FA	; 0x8038fa <actObj1.3989+0x1d>
    return 0;
}

//
void SetResponse(uint8_t number, uint16_t address, uint16_t length, uint8_t type){
    reactStr[0][number]=address;
    3256:	20 91 eb 38 	lds	r18, 0x38EB	; 0x8038eb <actObj1.3989+0xe>
    325a:	30 91 ec 38 	lds	r19, 0x38EC	; 0x8038ec <actObj1.3989+0xf>
    325e:	20 93 20 39 	sts	0x3920, r18	; 0x803920 <reactStr+0x2>
    3262:	30 93 21 39 	sts	0x3921, r19	; 0x803921 <reactStr+0x3>
    reactStr[1][number]=length;
    3266:	80 93 60 39 	sts	0x3960, r24	; 0x803960 <reactStr+0x42>
    326a:	90 93 61 39 	sts	0x3961, r25	; 0x803961 <reactStr+0x43>
    reactStr[2][number]=type;
    326e:	10 92 a0 39 	sts	0x39A0, r1	; 0x8039a0 <reactStr+0x82>
    3272:	10 92 a1 39 	sts	0x39A1, r1	; 0x8039a1 <reactStr+0x83>
    3276:	32 ce       	rjmp	.-924    	; 0x2edc <ProcessInput+0x1be>
    return 0;
}

//
void SetResponse(uint8_t number, uint16_t address, uint16_t length, uint8_t type){
    reactStr[0][number]=address;
    3278:	81 ed       	ldi	r24, 0xD1	; 209
    327a:	99 e7       	ldi	r25, 0x79	; 121
    327c:	80 93 20 39 	sts	0x3920, r24	; 0x803920 <reactStr+0x2>
    3280:	90 93 21 39 	sts	0x3921, r25	; 0x803921 <reactStr+0x3>
    reactStr[1][number]=length;
    3284:	8a e1       	ldi	r24, 0x1A	; 26
    3286:	90 e0       	ldi	r25, 0x00	; 0
    3288:	c9 c2       	rjmp	.+1426   	; 0x381c <ProcessInput+0xafe>
                    SetResponse(elements++, A_DONTSEE, L_DONTSEE, TEASER);
                }
            }
        
        //Pick up an object
        } else if (data[0] == 'p') {
    328a:	80 37       	cpi	r24, 0x70	; 112
    328c:	09 f0       	breq	.+2      	; 0x3290 <ProcessInput+0x572>
    328e:	92 c0       	rjmp	.+292    	; 0x33b4 <ProcessInput+0x696>
            if (inventory[0]&&inventory[1]) {
    3290:	80 91 40 38 	lds	r24, 0x3840	; 0x803840 <inventory>
    3294:	90 91 41 38 	lds	r25, 0x3841	; 0x803841 <inventory+0x1>
    3298:	89 2b       	or	r24, r25
    329a:	79 f0       	breq	.+30     	; 0x32ba <ProcessInput+0x59c>
    329c:	80 91 42 38 	lds	r24, 0x3842	; 0x803842 <inventory+0x2>
    32a0:	90 91 43 38 	lds	r25, 0x3843	; 0x803843 <inventory+0x3>
    32a4:	89 2b       	or	r24, r25
    32a6:	49 f0       	breq	.+18     	; 0x32ba <ProcessInput+0x59c>
    return 0;
}

//
void SetResponse(uint8_t number, uint16_t address, uint16_t length, uint8_t type){
    reactStr[0][number]=address;
    32a8:	87 e0       	ldi	r24, 0x07	; 7
    32aa:	98 e7       	ldi	r25, 0x78	; 120
    32ac:	80 93 20 39 	sts	0x3920, r24	; 0x803920 <reactStr+0x2>
    32b0:	90 93 21 39 	sts	0x3921, r25	; 0x803921 <reactStr+0x3>
    reactStr[1][number]=length;
    32b4:	89 e5       	ldi	r24, 0x59	; 89
    32b6:	90 e0       	ldi	r25, 0x00	; 0
    32b8:	b1 c2       	rjmp	.+1378   	; 0x381c <ProcessInput+0xafe>
        
        //Pick up an object
        } else if (data[0] == 'p') {
            if (inventory[0]&&inventory[1]) {
                SetResponse(elements++, A_CARRYTWO, L_CARRYTWO, TEASER);
            } else if (inputLen != 2) {
    32ba:	b2 e0       	ldi	r27, 0x02	; 2
    32bc:	fb 12       	cpse	r15, r27
    32be:	6f cd       	rjmp	.-1314   	; 0x2d9e <ProcessInput+0x80>
                SetResponse(elements++, A_NOTPOSSIBLE, L_NOTPOSSIBLE, TEASER);
            } else {
                route[currDepth+1] = FindChild(route[currDepth], data[1], 0);
    32c0:	00 91 31 38 	lds	r16, 0x3831	; 0x803831 <currDepth>
    32c4:	10 e0       	ldi	r17, 0x00	; 0
    32c6:	f8 01       	movw	r30, r16
    32c8:	ee 0f       	add	r30, r30
    32ca:	ff 1f       	adc	r31, r31
    32cc:	e2 52       	subi	r30, 0x22	; 34
    32ce:	f6 4c       	sbci	r31, 0xC6	; 198
    32d0:	40 e0       	ldi	r20, 0x00	; 0
    32d2:	50 e0       	ldi	r21, 0x00	; 0
    32d4:	d3 01       	movw	r26, r6
    32d6:	11 96       	adiw	r26, 0x01	; 1
    32d8:	6c 91       	ld	r22, X
    32da:	80 81       	ld	r24, Z
    32dc:	91 81       	ldd	r25, Z+1	; 0x01
    32de:	59 d9       	rcall	.-3406   	; 0x2592 <FindChild>
    32e0:	00 0f       	add	r16, r16
    32e2:	11 1f       	adc	r17, r17
    32e4:	f8 01       	movw	r30, r16
    32e6:	e0 52       	subi	r30, 0x20	; 32
    32e8:	f6 4c       	sbci	r31, 0xC6	; 198
    32ea:	80 83       	st	Z, r24
    32ec:	91 83       	std	Z+1, r25	; 0x01
                if (route[currDepth+1]) {
    32ee:	20 91 31 38 	lds	r18, 0x3831	; 0x803831 <currDepth>
    32f2:	30 e0       	ldi	r19, 0x00	; 0
    32f4:	2f 5f       	subi	r18, 0xFF	; 255
    32f6:	3f 4f       	sbci	r19, 0xFF	; 255
    32f8:	22 0f       	add	r18, r18
    32fa:	33 1f       	adc	r19, r19
    32fc:	f9 01       	movw	r30, r18
    32fe:	e2 52       	subi	r30, 0x22	; 34
    3300:	f6 4c       	sbci	r31, 0xC6	; 198
    3302:	80 81       	ld	r24, Z
    3304:	91 81       	ldd	r25, Z+1	; 0x01
    3306:	00 97       	sbiw	r24, 0x00	; 0
    3308:	09 f4       	brne	.+2      	; 0x330c <ProcessInput+0x5ee>
    330a:	38 c3       	rjmp	.+1648   	; 0x397c <ProcessInput+0xc5e>
                    if ((route[currDepth+1] == inventory[0])||(route[currDepth+1] == inventory[1])) {
    330c:	40 91 40 38 	lds	r20, 0x3840	; 0x803840 <inventory>
    3310:	50 91 41 38 	lds	r21, 0x3841	; 0x803841 <inventory+0x1>
    3314:	84 17       	cp	r24, r20
    3316:	95 07       	cpc	r25, r21
    3318:	39 f0       	breq	.+14     	; 0x3328 <ProcessInput+0x60a>
    331a:	40 91 42 38 	lds	r20, 0x3842	; 0x803842 <inventory+0x2>
    331e:	50 91 43 38 	lds	r21, 0x3843	; 0x803843 <inventory+0x3>
    3322:	84 17       	cp	r24, r20
    3324:	95 07       	cpc	r25, r21
    3326:	c1 f4       	brne	.+48     	; 0x3358 <ProcessInput+0x63a>
    return 0;
}

//
void SetResponse(uint8_t number, uint16_t address, uint16_t length, uint8_t type){
    reactStr[0][number]=address;
    3328:	82 ee       	ldi	r24, 0xE2	; 226
    332a:	97 e7       	ldi	r25, 0x77	; 119
    332c:	80 93 20 39 	sts	0x3920, r24	; 0x803920 <reactStr+0x2>
    3330:	90 93 21 39 	sts	0x3921, r25	; 0x803921 <reactStr+0x3>
    reactStr[1][number]=length;
    3334:	85 e2       	ldi	r24, 0x25	; 37
    3336:	90 e0       	ldi	r25, 0x00	; 0
    3338:	80 93 60 39 	sts	0x3960, r24	; 0x803960 <reactStr+0x42>
    333c:	90 93 61 39 	sts	0x3961, r25	; 0x803961 <reactStr+0x43>
    reactStr[2][number]=type;
    3340:	81 e0       	ldi	r24, 0x01	; 1
    3342:	90 e0       	ldi	r25, 0x00	; 0
    3344:	80 93 a0 39 	sts	0x39A0, r24	; 0x8039a0 <reactStr+0x82>
    3348:	90 93 a1 39 	sts	0x39A1, r25	; 0x8039a1 <reactStr+0x83>
            } else {
                route[currDepth+1] = FindChild(route[currDepth], data[1], 0);
                if (route[currDepth+1]) {
                    if ((route[currDepth+1] == inventory[0])||(route[currDepth+1] == inventory[1])) {
                        SetResponse(elements++, A_ALREADYCARRYING, L_ALREADYCARRYING, TEASER);
                        route[currDepth+1] = 0;
    334c:	f9 01       	movw	r30, r18
    334e:	e2 52       	subi	r30, 0x22	; 34
    3350:	f6 4c       	sbci	r31, 0xC6	; 198
    3352:	10 82       	st	Z, r1
    3354:	11 82       	std	Z+1, r1	; 0x01
                    } else {
                        //Put item in the inventory if possible
                        PopulateObject(route[currDepth+1], &actObj1);  
    3356:	c2 cd       	rjmp	.-1148   	; 0x2edc <ProcessInput+0x1be>
    3358:	6d ed       	ldi	r22, 0xDD	; 221
    335a:	78 e3       	ldi	r23, 0x38	; 56
    335c:	4b d8       	rcall	.-3946   	; 0x23f4 <PopulateObject>
                        if (CheckState(actObj1.byteField[ACTION_ACL])) {
    335e:	80 91 e4 38 	lds	r24, 0x38E4	; 0x8038e4 <actObj1.3989+0x7>
    3362:	0e 94 18 0a 	call	0x1430	; 0x1430 <CheckState>
    3366:	88 23       	and	r24, r24
    3368:	09 f4       	brne	.+2      	; 0x336c <ProcessInput+0x64e>
    336a:	e3 c2       	rjmp	.+1478   	; 0x3932 <ProcessInput+0xc14>
                            if (actObj1.byteField[ITEM_NR]) {
    336c:	80 91 e8 38 	lds	r24, 0x38E8	; 0x8038e8 <actObj1.3989+0xb>
    3370:	88 23       	and	r24, r24
    3372:	09 f4       	brne	.+2      	; 0x3376 <ProcessInput+0x658>
    3374:	14 cd       	rjmp	.-1496   	; 0x2d9e <ProcessInput+0x80>
                                if (inventory[0]) {
    3376:	80 91 40 38 	lds	r24, 0x3840	; 0x803840 <inventory>
    337a:	90 91 41 38 	lds	r25, 0x3841	; 0x803841 <inventory+0x1>
    337e:	e0 91 31 38 	lds	r30, 0x3831	; 0x803831 <currDepth>
                                    inventory[1] = route[currDepth+1];
    3382:	f0 e0       	ldi	r31, 0x00	; 0
    3384:	ee 0f       	add	r30, r30
    3386:	ff 1f       	adc	r31, r31
    3388:	e0 52       	subi	r30, 0x20	; 32
    338a:	f6 4c       	sbci	r31, 0xC6	; 198
                    } else {
                        //Put item in the inventory if possible
                        PopulateObject(route[currDepth+1], &actObj1);  
                        if (CheckState(actObj1.byteField[ACTION_ACL])) {
                            if (actObj1.byteField[ITEM_NR]) {
                                if (inventory[0]) {
    338c:	89 2b       	or	r24, r25
    338e:	39 f0       	breq	.+14     	; 0x339e <ProcessInput+0x680>
                                    inventory[1] = route[currDepth+1];
    3390:	80 81       	ld	r24, Z
    3392:	91 81       	ldd	r25, Z+1	; 0x01
    3394:	80 93 42 38 	sts	0x3842, r24	; 0x803842 <inventory+0x2>
    3398:	90 93 43 38 	sts	0x3843, r25	; 0x803843 <inventory+0x3>
    339c:	06 c0       	rjmp	.+12     	; 0x33aa <ProcessInput+0x68c>
                                } else {
                                    inventory[0] = route[currDepth+1];
    339e:	80 81       	ld	r24, Z
    33a0:	91 81       	ldd	r25, Z+1	; 0x01
    33a2:	80 93 40 38 	sts	0x3840, r24	; 0x803840 <inventory>
    33a6:	90 93 41 38 	sts	0x3841, r25	; 0x803841 <inventory+0x1>
                                }
                                UpdateState(actObj1.byteField[ACTION_STATE]);
    33aa:	80 91 e7 38 	lds	r24, 0x38E7	; 0x8038e7 <actObj1.3989+0xa>
    33ae:	0e 94 f7 09 	call	0x13ee	; 0x13ee <UpdateState>
    33b2:	2b c0       	rjmp	.+86     	; 0x340a <ProcessInput+0x6ec>
                } else SetResponse(elements++, A_NOSUCHOBJECT, L_NOSUCHOBJECT, TEASER);
            }
        } else

        //Drop item if in inventory
        if (data[0] == 'd') {
    33b4:	84 36       	cpi	r24, 0x64	; 100
    33b6:	d9 f4       	brne	.+54     	; 0x33ee <ProcessInput+0x6d0>
            if ((inventory[0] == 0)&&(inventory[1] == 0)){
    33b8:	80 91 40 38 	lds	r24, 0x3840	; 0x803840 <inventory>
    33bc:	90 91 41 38 	lds	r25, 0x3841	; 0x803841 <inventory+0x1>
    33c0:	00 97       	sbiw	r24, 0x00	; 0
    33c2:	09 f0       	breq	.+2      	; 0x33c6 <ProcessInput+0x6a8>
    33c4:	3c c4       	rjmp	.+2168   	; 0x3c3e <ProcessInput+0xf20>
    33c6:	80 91 42 38 	lds	r24, 0x3842	; 0x803842 <inventory+0x2>
    33ca:	90 91 43 38 	lds	r25, 0x3843	; 0x803843 <inventory+0x3>
    33ce:	89 2b       	or	r24, r25
    33d0:	49 f4       	brne	.+18     	; 0x33e4 <ProcessInput+0x6c6>
    return 0;
}

//
void SetResponse(uint8_t number, uint16_t address, uint16_t length, uint8_t type){
    reactStr[0][number]=address;
    33d2:	86 ea       	ldi	r24, 0xA6	; 166
    33d4:	97 e7       	ldi	r25, 0x77	; 119
    33d6:	80 93 20 39 	sts	0x3920, r24	; 0x803920 <reactStr+0x2>
    33da:	90 93 21 39 	sts	0x3921, r25	; 0x803921 <reactStr+0x3>
    reactStr[1][number]=length;
    33de:	86 e2       	ldi	r24, 0x26	; 38
    33e0:	90 e0       	ldi	r25, 0x00	; 0
    33e2:	72 cd       	rjmp	.-1308   	; 0x2ec8 <ProcessInput+0x1aa>

        //Drop item if in inventory
        if (data[0] == 'd') {
            if ((inventory[0] == 0)&&(inventory[1] == 0)){
                SetResponse(elements++, A_EMPTYHANDS, L_EMPTYHANDS, TEASER);
            } else if (inputLen != 2) {
    33e4:	b2 e0       	ldi	r27, 0x02	; 2
    33e6:	fb 16       	cp	r15, r27
    33e8:	09 f4       	brne	.+2      	; 0x33ec <ProcessInput+0x6ce>
    33ea:	8b c4       	rjmp	.+2326   	; 0x3d02 <ProcessInput+0xfe4>
    33ec:	d8 cc       	rjmp	.-1616   	; 0x2d9e <ProcessInput+0x80>
                }
            }
        } 

        //Inventory list
        else if (data[0] == 'i') {
    33ee:	89 36       	cpi	r24, 0x69	; 105
            if ((inventory[0] == 0)&&(inventory[1] == 0)){
    33f0:	81 f4       	brne	.+32     	; 0x3412 <ProcessInput+0x6f4>
    33f2:	80 91 40 38 	lds	r24, 0x3840	; 0x803840 <inventory>
    33f6:	90 91 41 38 	lds	r25, 0x3841	; 0x803841 <inventory+0x1>
    33fa:	89 2b       	or	r24, r25
    33fc:	31 f4       	brne	.+12     	; 0x340a <ProcessInput+0x6ec>
    33fe:	80 91 42 38 	lds	r24, 0x3842	; 0x803842 <inventory+0x2>
    3402:	90 91 43 38 	lds	r25, 0x3843	; 0x803843 <inventory+0x3>
    3406:	89 2b       	or	r24, r25
                SetResponse(elements++, A_EMPTYHANDS, L_EMPTYHANDS, TEASER);
                } else {
                    elements = ShowInventory(elements);
    3408:	21 f3       	breq	.-56     	; 0x33d2 <ProcessInput+0x6b4>
    340a:	81 e0       	ldi	r24, 0x01	; 1
    340c:	f8 db       	rcall	.-2064   	; 0x2bfe <ShowInventory>
    340e:	18 2f       	mov	r17, r24
    3410:	fe c3       	rjmp	.+2044   	; 0x3c0e <ProcessInput+0xef0>
                }        
        
        //Talk, use, give, read
        } else if ((data[0] == 't')||(data[0] == 'u')||(data[0] == 'g')||(data[0] == 'r')) {
    3412:	9c e8       	ldi	r25, 0x8C	; 140
    3414:	98 0f       	add	r25, r24
    3416:	92 30       	cpi	r25, 0x02	; 2
    3418:	28 f0       	brcs	.+10     	; 0x3424 <ProcessInput+0x706>
    341a:	87 36       	cpi	r24, 0x67	; 103
    341c:	19 f0       	breq	.+6      	; 0x3424 <ProcessInput+0x706>
    341e:	82 37       	cpi	r24, 0x72	; 114
    3420:	09 f0       	breq	.+2      	; 0x3424 <ProcessInput+0x706>
    3422:	b5 c2       	rjmp	.+1386   	; 0x398e <ProcessInput+0xc70>
            if ((inputLen<2)||(inputLen>3)) {
    3424:	8e ef       	ldi	r24, 0xFE	; 254
    3426:	8f 0d       	add	r24, r15
    3428:	82 30       	cpi	r24, 0x02	; 2
    342a:	08 f0       	brcs	.+2      	; 0x342e <ProcessInput+0x710>
    342c:	b8 cc       	rjmp	.-1680   	; 0x2d9e <ProcessInput+0x80>
                SetResponse(elements++, A_NOTPOSSIBLE, L_NOTPOSSIBLE, TEASER);                
            
            //Check for visible person or object first
            } else {
                route[currDepth+1] = FindChild(route[currDepth], data[inputLen-1], 0);
    342e:	e0 91 31 38 	lds	r30, 0x3831	; 0x803831 <currDepth>
    3432:	0e 2f       	mov	r16, r30
    3434:	10 e0       	ldi	r17, 0x00	; 0
    3436:	d3 01       	movw	r26, r6
    3438:	af 0d       	add	r26, r15
    343a:	b1 1d       	adc	r27, r1
    343c:	11 97       	sbiw	r26, 0x01	; 1
    343e:	f8 01       	movw	r30, r16
    3440:	ee 0f       	add	r30, r30
    3442:	ff 1f       	adc	r31, r31
    3444:	e2 52       	subi	r30, 0x22	; 34
    3446:	f6 4c       	sbci	r31, 0xC6	; 198
    3448:	40 e0       	ldi	r20, 0x00	; 0
    344a:	50 e0       	ldi	r21, 0x00	; 0
    344c:	6c 91       	ld	r22, X
    344e:	80 81       	ld	r24, Z
    3450:	91 81       	ldd	r25, Z+1	; 0x01
    3452:	9f d8       	rcall	.-3778   	; 0x2592 <FindChild>
    3454:	f8 01       	movw	r30, r16
    3456:	ee 0f       	add	r30, r30
    3458:	ff 1f       	adc	r31, r31
    345a:	e0 52       	subi	r30, 0x20	; 32
    345c:	f6 4c       	sbci	r31, 0xC6	; 198
    345e:	80 83       	st	Z, r24
    3460:	91 83       	std	Z+1, r25	; 0x01
                if (route[currDepth+1]) {
    3462:	e0 91 31 38 	lds	r30, 0x3831	; 0x803831 <currDepth>
    3466:	f0 e0       	ldi	r31, 0x00	; 0
    3468:	ee 0f       	add	r30, r30
    346a:	ff 1f       	adc	r31, r31
    346c:	e0 52       	subi	r30, 0x20	; 32
    346e:	f6 4c       	sbci	r31, 0xC6	; 198
    3470:	80 81       	ld	r24, Z
    3472:	91 81       	ldd	r25, Z+1	; 0x01
    3474:	00 97       	sbiw	r24, 0x00	; 0
    3476:	09 f4       	brne	.+2      	; 0x347a <ProcessInput+0x75c>
    3478:	78 c2       	rjmp	.+1264   	; 0x396a <ProcessInput+0xc4c>
                    
                    //Give item to person / use item on object 
                    if ((inputLen == 3)&&((data[0] == 'u')||(data[0] == 'g'))) {
    347a:	f3 e0       	ldi	r31, 0x03	; 3
    347c:	ff 12       	cpse	r15, r31
    347e:	60 c1       	rjmp	.+704    	; 0x3740 <ProcessInput+0xa22>
    3480:	d3 01       	movw	r26, r6
    3482:	2c 91       	ld	r18, X
    3484:	25 37       	cpi	r18, 0x75	; 117
    3486:	19 f0       	breq	.+6      	; 0x348e <ProcessInput+0x770>
    3488:	27 36       	cpi	r18, 0x67	; 103
    348a:	09 f0       	breq	.+2      	; 0x348e <ProcessInput+0x770>
    348c:	59 c1       	rjmp	.+690    	; 0x3740 <ProcessInput+0xa22>
    348e:	00 e0       	ldi	r16, 0x00	; 0
    3490:	11 e0       	ldi	r17, 0x01	; 1
    return 0;
}

//
void SetResponse(uint8_t number, uint16_t address, uint16_t length, uint8_t type){
    reactStr[0][number]=address;
    3492:	41 e6       	ldi	r20, 0x61	; 97
    3494:	c4 2e       	mov	r12, r20
    3496:	49 e7       	ldi	r20, 0x79	; 121
    3498:	d4 2e       	mov	r13, r20
    reactStr[1][number]=length;
    349a:	51 e2       	ldi	r21, 0x21	; 33
    349c:	a5 2e       	mov	r10, r21
    349e:	b1 2c       	mov	r11, r1
    reactStr[2][number]=type;
    34a0:	88 24       	eor	r8, r8
    34a2:	83 94       	inc	r8
                if (route[currDepth+1]) {
                    
                    //Give item to person / use item on object 
                    if ((inputLen == 3)&&((data[0] == 'u')||(data[0] == 'g'))) {
                        for (uint8_t x=0; x<2; x++) {
                            if (inventory[x]) { 
    34a4:	91 2c       	mov	r9, r1
    34a6:	e0 2e       	mov	r14, r16
    34a8:	f1 2c       	mov	r15, r1
    34aa:	c7 01       	movw	r24, r14
    34ac:	88 0f       	add	r24, r24
    34ae:	99 1f       	adc	r25, r25
    34b0:	fc 01       	movw	r30, r24
    34b2:	e0 5c       	subi	r30, 0xC0	; 192
    34b4:	f7 4c       	sbci	r31, 0xC7	; 199
    34b6:	7f 01       	movw	r14, r30
    34b8:	80 81       	ld	r24, Z
    34ba:	91 81       	ldd	r25, Z+1	; 0x01
    34bc:	00 97       	sbiw	r24, 0x00	; 0
                                if (CheckLetter(inventory[x], data[1])) {
    34be:	79 f0       	breq	.+30     	; 0x34de <ProcessInput+0x7c0>
    34c0:	d3 01       	movw	r26, r6
    34c2:	11 96       	adiw	r26, 0x01	; 1
    34c4:	6c 91       	ld	r22, X
    34c6:	0f d8       	rcall	.-4066   	; 0x24e6 <CheckLetter>
    34c8:	88 23       	and	r24, r24
    34ca:	49 f0       	breq	.+18     	; 0x34de <ProcessInput+0x7c0>
                                    PopulateObject(inventory[x], &actObj2);
    34cc:	62 eb       	ldi	r22, 0xB2	; 178
    34ce:	78 e3       	ldi	r23, 0x38	; 56
    34d0:	f7 01       	movw	r30, r14
    34d2:	80 81       	ld	r24, Z
    34d4:	91 81       	ldd	r25, Z+1	; 0x01
    34d6:	0e 94 fa 11 	call	0x23f4	; 0x23f4 <PopulateObject>
                                    x = 2;
    34da:	02 e0       	ldi	r16, 0x02	; 2
    34dc:	1d c0       	rjmp	.+58     	; 0x3518 <ProcessInput+0x7fa>
                                }
                            }
                            if (x == 1) { 
    34de:	01 30       	cpi	r16, 0x01	; 1
    34e0:	d1 f4       	brne	.+52     	; 0x3516 <ProcessInput+0x7f8>
    return 0;
}

//
void SetResponse(uint8_t number, uint16_t address, uint16_t length, uint8_t type){
    reactStr[0][number]=address;
    34e2:	e1 2f       	mov	r30, r17
    34e4:	f0 e0       	ldi	r31, 0x00	; 0
    34e6:	df 01       	movw	r26, r30
    34e8:	aa 0f       	add	r26, r26
    34ea:	bb 1f       	adc	r27, r27
    34ec:	a2 5e       	subi	r26, 0xE2	; 226
    34ee:	b6 4c       	sbci	r27, 0xC6	; 198
    34f0:	cd 92       	st	X+, r12
    34f2:	dc 92       	st	X, r13
    reactStr[1][number]=length;
    34f4:	df 01       	movw	r26, r30
    34f6:	aa 0f       	add	r26, r26
    34f8:	bb 1f       	adc	r27, r27
    34fa:	a2 5a       	subi	r26, 0xA2	; 162
    34fc:	b6 4c       	sbci	r27, 0xC6	; 198
    34fe:	ad 92       	st	X+, r10
    3500:	bc 92       	st	X, r11
    reactStr[2][number]=type;
    3502:	ee 0f       	add	r30, r30
    3504:	ff 1f       	adc	r31, r31
    3506:	e2 56       	subi	r30, 0x62	; 98
    3508:	f6 4c       	sbci	r31, 0xC6	; 198
    350a:	80 82       	st	Z, r8
    350c:	91 82       	std	Z+1, r9	; 0x01
                                    x = 2;
                                }
                            }
                            if (x == 1) { 
                                SetResponse(elements++, A_NOTCARRYING, L_NOTCARRYING, TEASER);
                                data[0] = 0;
    350e:	d3 01       	movw	r26, r6
    3510:	1c 92       	st	X, r1
                                    PopulateObject(inventory[x], &actObj2);
                                    x = 2;
                                }
                            }
                            if (x == 1) { 
                                SetResponse(elements++, A_NOTCARRYING, L_NOTCARRYING, TEASER);
    3512:	1f 5f       	subi	r17, 0xFF	; 255
    3514:	01 c0       	rjmp	.+2      	; 0x3518 <ProcessInput+0x7fa>
    3516:	00 e0       	ldi	r16, 0x00	; 0
                route[currDepth+1] = FindChild(route[currDepth], data[inputLen-1], 0);
                if (route[currDepth+1]) {
                    
                    //Give item to person / use item on object 
                    if ((inputLen == 3)&&((data[0] == 'u')||(data[0] == 'g'))) {
                        for (uint8_t x=0; x<2; x++) {
    3518:	0f 5f       	subi	r16, 0xFF	; 255
    351a:	01 30       	cpi	r16, 0x01	; 1
    351c:	21 f2       	breq	.-120    	; 0x34a6 <ProcessInput+0x788>
                                data[0] = 0;
                            }
                        }

                        //Both the item and person/object are found, check if action is legit
                        if (data[0]){
    351e:	f3 01       	movw	r30, r6
    3520:	80 81       	ld	r24, Z
    3522:	88 23       	and	r24, r24
    3524:	09 f4       	brne	.+2      	; 0x3528 <ProcessInput+0x80a>
    3526:	73 c3       	rjmp	.+1766   	; 0x3c0e <ProcessInput+0xef0>
                            PopulateObject(route[currDepth+1], &actObj1);
    3528:	e0 91 31 38 	lds	r30, 0x3831	; 0x803831 <currDepth>
    352c:	f0 e0       	ldi	r31, 0x00	; 0
    352e:	ee 0f       	add	r30, r30
    3530:	ff 1f       	adc	r31, r31
    3532:	e0 52       	subi	r30, 0x20	; 32
    3534:	f6 4c       	sbci	r31, 0xC6	; 198
    3536:	6d ed       	ldi	r22, 0xDD	; 221
    3538:	78 e3       	ldi	r23, 0x38	; 56
    353a:	80 81       	ld	r24, Z
    353c:	91 81       	ldd	r25, Z+1	; 0x01
    353e:	0e 94 fa 11 	call	0x23f4	; 0x23f4 <PopulateObject>

                            //Special game
                            if (actObj1.lenStr[ACTION_STR1] == 1) {
    3542:	e0 90 fb 38 	lds	r14, 0x38FB	; 0x8038fb <actObj1.3989+0x1e>
    3546:	f0 90 fc 38 	lds	r15, 0x38FC	; 0x8038fc <actObj1.3989+0x1f>
    354a:	f1 e0       	ldi	r31, 0x01	; 1
    354c:	ef 16       	cp	r14, r31
    354e:	f1 04       	cpc	r15, r1
    3550:	09 f0       	breq	.+2      	; 0x3554 <ProcessInput+0x836>
    3552:	89 c0       	rjmp	.+274    	; 0x3666 <ProcessInput+0x948>
                                ExtEERead(actObj1.addrStr[ACTION_STR1], 1, GAME, &data[2]);
    3554:	93 01       	movw	r18, r6
    3556:	2e 5f       	subi	r18, 0xFE	; 254
    3558:	3f 4f       	sbci	r19, 0xFF	; 255
    355a:	40 e0       	ldi	r20, 0x00	; 0
    355c:	61 e0       	ldi	r22, 0x01	; 1
    355e:	80 91 ed 38 	lds	r24, 0x38ED	; 0x8038ed <actObj1.3989+0x10>
    3562:	90 91 ee 38 	lds	r25, 0x38EE	; 0x8038ee <actObj1.3989+0x11>
    3566:	0e 94 4d 08 	call	0x109a	; 0x109a <ExtEERead>
                                if (data[2] == '1') {
    356a:	d3 01       	movw	r26, r6
    356c:	12 96       	adiw	r26, 0x02	; 2
    356e:	3c 91       	ld	r19, X
    3570:	31 33       	cpi	r19, 0x31	; 49
    3572:	09 f0       	breq	.+2      	; 0x3576 <ProcessInput+0x858>
    3574:	4c c3       	rjmp	.+1688   	; 0x3c0e <ProcessInput+0xef0>
                                    uint8_t item = actObj2.byteField[ITEM_NR];
    3576:	20 91 bd 38 	lds	r18, 0x38BD	; 0x8038bd <actObj2.3990+0xb>
                                    if ((item < 31)||(item > 34)) {
    357a:	51 ee       	ldi	r21, 0xE1	; 225
    357c:	52 0f       	add	r21, r18
    357e:	41 e0       	ldi	r20, 0x01	; 1
    3580:	41 0f       	add	r20, r17
    3582:	81 2f       	mov	r24, r17
    3584:	90 e0       	ldi	r25, 0x00	; 0
    return 0;
}

//
void SetResponse(uint8_t number, uint16_t address, uint16_t length, uint8_t type){
    reactStr[0][number]=address;
    3586:	fc 01       	movw	r30, r24
    3588:	ee 0f       	add	r30, r30
    358a:	ff 1f       	adc	r31, r31
    358c:	e2 5e       	subi	r30, 0xE2	; 226
    358e:	f6 4c       	sbci	r31, 0xC6	; 198
                            //Special game
                            if (actObj1.lenStr[ACTION_STR1] == 1) {
                                ExtEERead(actObj1.addrStr[ACTION_STR1], 1, GAME, &data[2]);
                                if (data[2] == '1') {
                                    uint8_t item = actObj2.byteField[ITEM_NR];
                                    if ((item < 31)||(item > 34)) {
    3590:	54 30       	cpi	r21, 0x04	; 4
    3592:	b0 f0       	brcs	.+44     	; 0x35c0 <ProcessInput+0x8a2>
    return 0;
}

//
void SetResponse(uint8_t number, uint16_t address, uint16_t length, uint8_t type){
    reactStr[0][number]=address;
    3594:	21 e0       	ldi	r18, 0x01	; 1
    3596:	39 e7       	ldi	r19, 0x79	; 121
    3598:	20 83       	st	Z, r18
    359a:	31 83       	std	Z+1, r19	; 0x01
    reactStr[1][number]=length;
    359c:	fc 01       	movw	r30, r24
    359e:	ee 0f       	add	r30, r30
    35a0:	ff 1f       	adc	r31, r31
    35a2:	e2 5a       	subi	r30, 0xA2	; 162
    35a4:	f6 4c       	sbci	r31, 0xC6	; 198
    35a6:	2a e1       	ldi	r18, 0x1A	; 26
    35a8:	30 e0       	ldi	r19, 0x00	; 0
    35aa:	20 83       	st	Z, r18
    35ac:	31 83       	std	Z+1, r19	; 0x01
    reactStr[2][number]=type;
    35ae:	88 0f       	add	r24, r24
    35b0:	99 1f       	adc	r25, r25
    35b2:	fc 01       	movw	r30, r24
    35b4:	e2 56       	subi	r30, 0x62	; 98
    35b6:	f6 4c       	sbci	r31, 0xC6	; 198
    35b8:	e0 82       	st	Z, r14
    35ba:	f1 82       	std	Z+1, r15	; 0x01
                            if (actObj1.lenStr[ACTION_STR1] == 1) {
                                ExtEERead(actObj1.addrStr[ACTION_STR1], 1, GAME, &data[2]);
                                if (data[2] == '1') {
                                    uint8_t item = actObj2.byteField[ITEM_NR];
                                    if ((item < 31)||(item > 34)) {
                                        SetResponse(elements++, A_CANTUSE, L_CANTUSE, TEASER);
    35bc:	14 2f       	mov	r17, r20
    35be:	27 c3       	rjmp	.+1614   	; 0x3c0e <ProcessInput+0xef0>
    return 0;
}

//
void SetResponse(uint8_t number, uint16_t address, uint16_t length, uint8_t type){
    reactStr[0][number]=address;
    35c0:	60 e5       	ldi	r22, 0x50	; 80
    35c2:	75 e7       	ldi	r23, 0x75	; 117
    35c4:	60 83       	st	Z, r22
    35c6:	71 83       	std	Z+1, r23	; 0x01
    reactStr[1][number]=length;
    35c8:	fc 01       	movw	r30, r24
    35ca:	ee 0f       	add	r30, r30
    35cc:	ff 1f       	adc	r31, r31
    35ce:	e2 5a       	subi	r30, 0xA2	; 162
    35d0:	f6 4c       	sbci	r31, 0xC6	; 198
    35d2:	62 eb       	ldi	r22, 0xB2	; 178
    35d4:	70 e0       	ldi	r23, 0x00	; 0
    35d6:	60 83       	st	Z, r22
    35d8:	71 83       	std	Z+1, r23	; 0x01
    reactStr[2][number]=type;
    35da:	88 0f       	add	r24, r24
    35dc:	99 1f       	adc	r25, r25
    35de:	fc 01       	movw	r30, r24
    35e0:	e2 56       	subi	r30, 0x62	; 98
    35e2:	f6 4c       	sbci	r31, 0xC6	; 198
    35e4:	e0 82       	st	Z, r14
    35e6:	f1 82       	std	Z+1, r15	; 0x01
    return 0;
}

//
void SetResponse(uint8_t number, uint16_t address, uint16_t length, uint8_t type){
    reactStr[0][number]=address;
    35e8:	84 2f       	mov	r24, r20
    35ea:	90 e0       	ldi	r25, 0x00	; 0
    35ec:	fc 01       	movw	r30, r24
    35ee:	ee 0f       	add	r30, r30
    35f0:	ff 1f       	adc	r31, r31
    35f2:	e2 5e       	subi	r30, 0xE2	; 226
    35f4:	f6 4c       	sbci	r31, 0xC6	; 198
    35f6:	49 e5       	ldi	r20, 0x59	; 89
    35f8:	5a e7       	ldi	r21, 0x7A	; 122
    35fa:	40 83       	st	Z, r20
    35fc:	51 83       	std	Z+1, r21	; 0x01
    reactStr[1][number]=length;
    35fe:	fc 01       	movw	r30, r24
    3600:	ee 0f       	add	r30, r30
    3602:	ff 1f       	adc	r31, r31
    3604:	e2 5a       	subi	r30, 0xA2	; 162
    3606:	f6 4c       	sbci	r31, 0xC6	; 198
    3608:	42 e0       	ldi	r20, 0x02	; 2
    360a:	50 e0       	ldi	r21, 0x00	; 0
    360c:	40 83       	st	Z, r20
    360e:	51 83       	std	Z+1, r21	; 0x01
    reactStr[2][number]=type;
    3610:	88 0f       	add	r24, r24
    3612:	99 1f       	adc	r25, r25
    3614:	fc 01       	movw	r30, r24
    3616:	e2 56       	subi	r30, 0x62	; 98
    3618:	f6 4c       	sbci	r31, 0xC6	; 198
    361a:	e0 82       	st	Z, r14
    361c:	f1 82       	std	Z+1, r15	; 0x01
    return 0;
}

//
void SetResponse(uint8_t number, uint16_t address, uint16_t length, uint8_t type){
    reactStr[0][number]=address;
    361e:	82 e0       	ldi	r24, 0x02	; 2
    3620:	81 0f       	add	r24, r17
    3622:	90 e0       	ldi	r25, 0x00	; 0
    3624:	1d 5f       	subi	r17, 0xFD	; 253
    3626:	fc 01       	movw	r30, r24
    3628:	ee 0f       	add	r30, r30
    362a:	ff 1f       	adc	r31, r31
    362c:	e2 5e       	subi	r30, 0xE2	; 226
    362e:	f6 4c       	sbci	r31, 0xC6	; 198
    3630:	4d ea       	ldi	r20, 0xAD	; 173
    3632:	58 e7       	ldi	r21, 0x78	; 120
    3634:	40 83       	st	Z, r20
    3636:	51 83       	std	Z+1, r21	; 0x01
    reactStr[1][number]=length;
    3638:	fc 01       	movw	r30, r24
    363a:	ee 0f       	add	r30, r30
    363c:	ff 1f       	adc	r31, r31
    363e:	e2 5a       	subi	r30, 0xA2	; 162
    3640:	f6 4c       	sbci	r31, 0xC6	; 198
    3642:	42 e1       	ldi	r20, 0x12	; 18
    3644:	50 e0       	ldi	r21, 0x00	; 0
    3646:	40 83       	st	Z, r20
    3648:	51 83       	std	Z+1, r21	; 0x01
    reactStr[2][number]=type;
    364a:	88 0f       	add	r24, r24
    364c:	99 1f       	adc	r25, r25
    364e:	fc 01       	movw	r30, r24
    3650:	e2 56       	subi	r30, 0x62	; 98
    3652:	f6 4c       	sbci	r31, 0xC6	; 198
    3654:	e0 82       	st	Z, r14
    3656:	f1 82       	std	Z+1, r15	; 0x01
                                        SetResponse(elements++, A_CANTUSE, L_CANTUSE, TEASER);
                                    } else {
                                        SetResponse(elements++, A_PRIEST, L_PRIEST, TEASER);
                                        SetResponse(elements++, A_LF, 2, TEASER);
                                        SetResponse(elements++, A_RESPONSE, L_RESPONSE, TEASER);
                                        specialInput[0] = '1';
    3658:	30 93 0d 39 	sts	0x390D, r19	; 0x80390d <specialInput>
                                        specialInput[1] = item;
    365c:	20 93 0e 39 	sts	0x390E, r18	; 0x80390e <specialInput+0x1>
                                        specialInput[2] = 0;
    3660:	10 92 0f 39 	sts	0x390F, r1	; 0x80390f <specialInput+0x2>
    3664:	d4 c2       	rjmp	.+1448   	; 0x3c0e <ProcessInput+0xef0>
                                    }
                                }

                            //Normal "use ... on ..." or "give ... to ..." action
                            } else if (actObj1.byteField[ACTION_ITEM] == actObj2.byteField[ITEM_NR]) {
    3666:	90 91 e6 38 	lds	r25, 0x38E6	; 0x8038e6 <actObj1.3989+0x9>
    366a:	80 91 bd 38 	lds	r24, 0x38BD	; 0x8038bd <actObj2.3990+0xb>
    366e:	98 13       	cpse	r25, r24
    3670:	2e c0       	rjmp	.+92     	; 0x36ce <ProcessInput+0x9b0>
                                SetResponse(elements++, actObj1.addrStr[ACTION_MSG], actObj1.lenStr[ACTION_MSG], GAME);
    3672:	20 91 03 39 	lds	r18, 0x3903	; 0x803903 <actObj1.3989+0x26>
    3676:	30 91 04 39 	lds	r19, 0x3904	; 0x803904 <actObj1.3989+0x27>
    367a:	01 e0       	ldi	r16, 0x01	; 1
    367c:	01 0f       	add	r16, r17
    return 0;
}

//
void SetResponse(uint8_t number, uint16_t address, uint16_t length, uint8_t type){
    reactStr[0][number]=address;
    367e:	81 2f       	mov	r24, r17
    3680:	90 e0       	ldi	r25, 0x00	; 0
    3682:	fc 01       	movw	r30, r24
    3684:	ee 0f       	add	r30, r30
    3686:	ff 1f       	adc	r31, r31
    3688:	e2 5e       	subi	r30, 0xE2	; 226
    368a:	f6 4c       	sbci	r31, 0xC6	; 198
    368c:	40 91 f5 38 	lds	r20, 0x38F5	; 0x8038f5 <actObj1.3989+0x18>
    3690:	50 91 f6 38 	lds	r21, 0x38F6	; 0x8038f6 <actObj1.3989+0x19>
    3694:	40 83       	st	Z, r20
    3696:	51 83       	std	Z+1, r21	; 0x01
    reactStr[1][number]=length;
    3698:	fc 01       	movw	r30, r24
    369a:	ee 0f       	add	r30, r30
    369c:	ff 1f       	adc	r31, r31
    369e:	e2 5a       	subi	r30, 0xA2	; 162
    36a0:	f6 4c       	sbci	r31, 0xC6	; 198
    36a2:	20 83       	st	Z, r18
    36a4:	31 83       	std	Z+1, r19	; 0x01
    reactStr[2][number]=type;
    36a6:	88 0f       	add	r24, r24
    36a8:	99 1f       	adc	r25, r25
    36aa:	fc 01       	movw	r30, r24
    36ac:	e2 56       	subi	r30, 0x62	; 98
    36ae:	f6 4c       	sbci	r31, 0xC6	; 198
    36b0:	10 82       	st	Z, r1
    36b2:	11 82       	std	Z+1, r1	; 0x01
                                }

                            //Normal "use ... on ..." or "give ... to ..." action
                            } else if (actObj1.byteField[ACTION_ITEM] == actObj2.byteField[ITEM_NR]) {
                                SetResponse(elements++, actObj1.addrStr[ACTION_MSG], actObj1.lenStr[ACTION_MSG], GAME);
                                effect = actObj1.effect[2];
    36b4:	80 91 07 39 	lds	r24, 0x3907	; 0x803907 <actObj1.3989+0x2a>
    36b8:	90 e0       	ldi	r25, 0x00	; 0
    36ba:	80 93 3c 38 	sts	0x383C, r24	; 0x80383c <effect>
    36be:	90 93 3d 38 	sts	0x383D, r25	; 0x80383d <effect+0x1>
                                UpdateState(actObj1.byteField[ACTION_STATE]);
    36c2:	80 91 e7 38 	lds	r24, 0x38E7	; 0x8038e7 <actObj1.3989+0xa>
    36c6:	0e 94 f7 09 	call	0x13ee	; 0x13ee <UpdateState>
                                    }
                                }

                            //Normal "use ... on ..." or "give ... to ..." action
                            } else if (actObj1.byteField[ACTION_ITEM] == actObj2.byteField[ITEM_NR]) {
                                SetResponse(elements++, actObj1.addrStr[ACTION_MSG], actObj1.lenStr[ACTION_MSG], GAME);
    36ca:	10 2f       	mov	r17, r16
    36cc:	a0 c2       	rjmp	.+1344   	; 0x3c0e <ProcessInput+0xef0>
                                effect = actObj1.effect[2];
                                UpdateState(actObj1.byteField[ACTION_STATE]);
                                
                            } else {
                                if (data[0] == 'u') {
    36ce:	f3 01       	movw	r30, r6
    36d0:	80 81       	ld	r24, Z
    36d2:	85 37       	cpi	r24, 0x75	; 117
    36d4:	99 f4       	brne	.+38     	; 0x36fc <ProcessInput+0x9de>
    return 0;
}

//
void SetResponse(uint8_t number, uint16_t address, uint16_t length, uint8_t type){
    reactStr[0][number]=address;
    36d6:	81 2f       	mov	r24, r17
    36d8:	90 e0       	ldi	r25, 0x00	; 0
    36da:	fc 01       	movw	r30, r24
    36dc:	ee 0f       	add	r30, r30
    36de:	ff 1f       	adc	r31, r31
    36e0:	e2 5e       	subi	r30, 0xE2	; 226
    36e2:	f6 4c       	sbci	r31, 0xC6	; 198
    36e4:	21 e0       	ldi	r18, 0x01	; 1
    36e6:	39 e7       	ldi	r19, 0x79	; 121
    36e8:	20 83       	st	Z, r18
    36ea:	31 83       	std	Z+1, r19	; 0x01
    reactStr[1][number]=length;
    36ec:	fc 01       	movw	r30, r24
    36ee:	ee 0f       	add	r30, r30
    36f0:	ff 1f       	adc	r31, r31
    36f2:	e2 5a       	subi	r30, 0xA2	; 162
    36f4:	f6 4c       	sbci	r31, 0xC6	; 198
    36f6:	2a e1       	ldi	r18, 0x1A	; 26
    36f8:	30 e0       	ldi	r19, 0x00	; 0
    36fa:	15 c0       	rjmp	.+42     	; 0x3726 <ProcessInput+0xa08>
                                UpdateState(actObj1.byteField[ACTION_STATE]);
                                
                            } else {
                                if (data[0] == 'u') {
                                    SetResponse(elements++, A_CANTUSE, L_CANTUSE, TEASER);
                                } else if (data[0] == 'g') {
    36fc:	87 36       	cpi	r24, 0x67	; 103
    36fe:	09 f0       	breq	.+2      	; 0x3702 <ProcessInput+0x9e4>
    3700:	86 c2       	rjmp	.+1292   	; 0x3c0e <ProcessInput+0xef0>
    return 0;
}

//
void SetResponse(uint8_t number, uint16_t address, uint16_t length, uint8_t type){
    reactStr[0][number]=address;
    3702:	81 2f       	mov	r24, r17
    3704:	90 e0       	ldi	r25, 0x00	; 0
    3706:	fc 01       	movw	r30, r24
    3708:	ee 0f       	add	r30, r30
    370a:	ff 1f       	adc	r31, r31
    370c:	e2 5e       	subi	r30, 0xE2	; 226
    370e:	f6 4c       	sbci	r31, 0xC6	; 198
    3710:	2f e9       	ldi	r18, 0x9F	; 159
    3712:	36 e7       	ldi	r19, 0x76	; 118
    3714:	20 83       	st	Z, r18
    3716:	31 83       	std	Z+1, r19	; 0x01
    reactStr[1][number]=length;
    3718:	fc 01       	movw	r30, r24
    371a:	ee 0f       	add	r30, r30
    371c:	ff 1f       	adc	r31, r31
    371e:	e2 5a       	subi	r30, 0xA2	; 162
    3720:	f6 4c       	sbci	r31, 0xC6	; 198
    3722:	28 e2       	ldi	r18, 0x28	; 40
    3724:	30 e0       	ldi	r19, 0x00	; 0
    3726:	20 83       	st	Z, r18
    3728:	31 83       	std	Z+1, r19	; 0x01
    reactStr[2][number]=type;
    372a:	88 0f       	add	r24, r24
    372c:	99 1f       	adc	r25, r25
    372e:	fc 01       	movw	r30, r24
    3730:	e2 56       	subi	r30, 0x62	; 98
    3732:	f6 4c       	sbci	r31, 0xC6	; 198
    3734:	81 e0       	ldi	r24, 0x01	; 1
    3736:	90 e0       	ldi	r25, 0x00	; 0
    3738:	80 83       	st	Z, r24
    373a:	91 83       	std	Z+1, r25	; 0x01
                                
                            } else {
                                if (data[0] == 'u') {
                                    SetResponse(elements++, A_CANTUSE, L_CANTUSE, TEASER);
                                } else if (data[0] == 'g') {
                                    SetResponse(elements++, A_CANTGIVE, L_CANTGIVE, TEASER);                                    
    373c:	1f 5f       	subi	r17, 0xFF	; 255
    373e:	67 c2       	rjmp	.+1230   	; 0x3c0e <ProcessInput+0xef0>
                            }
                        }
                    
                    //Talk to person, read or use object (without item)                          
                    } else {
                        PopulateObject(route[currDepth+1], &actObj1);
    3740:	6d ed       	ldi	r22, 0xDD	; 221
    3742:	78 e3       	ldi	r23, 0x38	; 56
    3744:	0e 94 fa 11 	call	0x23f4	; 0x23f4 <PopulateObject>
                        if ((data[0] == 't')&&((actObj1.byteField[ACTION_MASK]&TALK) == 0)) {
    3748:	d3 01       	movw	r26, r6
    374a:	8c 91       	ld	r24, X
    374c:	84 37       	cpi	r24, 0x74	; 116
    374e:	61 f5       	brne	.+88     	; 0x37a8 <ProcessInput+0xa8a>
    3750:	80 91 e5 38 	lds	r24, 0x38E5	; 0x8038e5 <actObj1.3989+0x8>
    3754:	83 fd       	sbrc	r24, 3
    3756:	43 c0       	rjmp	.+134    	; 0x37de <ProcessInput+0xac0>
    return 0;
}

//
void SetResponse(uint8_t number, uint16_t address, uint16_t length, uint8_t type){
    reactStr[0][number]=address;
    3758:	8b e1       	ldi	r24, 0x1B	; 27
    375a:	99 e7       	ldi	r25, 0x79	; 121
    375c:	80 93 20 39 	sts	0x3920, r24	; 0x803920 <reactStr+0x2>
    3760:	90 93 21 39 	sts	0x3921, r25	; 0x803921 <reactStr+0x3>
    reactStr[1][number]=length;
    3764:	8e e1       	ldi	r24, 0x1E	; 30
    3766:	90 e0       	ldi	r25, 0x00	; 0
    3768:	80 93 60 39 	sts	0x3960, r24	; 0x803960 <reactStr+0x42>
    376c:	90 93 61 39 	sts	0x3961, r25	; 0x803961 <reactStr+0x43>
    reactStr[2][number]=type;
    3770:	81 e0       	ldi	r24, 0x01	; 1
    3772:	90 e0       	ldi	r25, 0x00	; 0
    3774:	80 93 a0 39 	sts	0x39A0, r24	; 0x8039a0 <reactStr+0x82>
    3778:	90 93 a1 39 	sts	0x39A1, r25	; 0x8039a1 <reactStr+0x83>
                    //Talk to person, read or use object (without item)                          
                    } else {
                        PopulateObject(route[currDepth+1], &actObj1);
                        if ((data[0] == 't')&&((actObj1.byteField[ACTION_MASK]&TALK) == 0)) {
                            SetResponse(elements++, A_WHYTALK, L_WHYTALK, TEASER);
                            SetResponse(elements++, actObj1.addrStr[NAME], actObj1.lenStr[NAME], GAME);
    377c:	80 91 f7 38 	lds	r24, 0x38F7	; 0x8038f7 <actObj1.3989+0x1a>
    3780:	90 91 f8 38 	lds	r25, 0x38F8	; 0x8038f8 <actObj1.3989+0x1b>
    return 0;
}

//
void SetResponse(uint8_t number, uint16_t address, uint16_t length, uint8_t type){
    reactStr[0][number]=address;
    3784:	20 91 e9 38 	lds	r18, 0x38E9	; 0x8038e9 <actObj1.3989+0xc>
    3788:	30 91 ea 38 	lds	r19, 0x38EA	; 0x8038ea <actObj1.3989+0xd>
    378c:	20 93 22 39 	sts	0x3922, r18	; 0x803922 <reactStr+0x4>
    3790:	30 93 23 39 	sts	0x3923, r19	; 0x803923 <reactStr+0x5>
    reactStr[1][number]=length;
    3794:	80 93 62 39 	sts	0x3962, r24	; 0x803962 <reactStr+0x44>
    3798:	90 93 63 39 	sts	0x3963, r25	; 0x803963 <reactStr+0x45>
    reactStr[2][number]=type;
    379c:	10 92 a2 39 	sts	0x39A2, r1	; 0x8039a2 <reactStr+0x84>
    37a0:	10 92 a3 39 	sts	0x39A3, r1	; 0x8039a3 <reactStr+0x85>
                    //Talk to person, read or use object (without item)                          
                    } else {
                        PopulateObject(route[currDepth+1], &actObj1);
                        if ((data[0] == 't')&&((actObj1.byteField[ACTION_MASK]&TALK) == 0)) {
                            SetResponse(elements++, A_WHYTALK, L_WHYTALK, TEASER);
                            SetResponse(elements++, actObj1.addrStr[NAME], actObj1.lenStr[NAME], GAME);
    37a4:	13 e0       	ldi	r17, 0x03	; 3
    37a6:	33 c2       	rjmp	.+1126   	; 0x3c0e <ProcessInput+0xef0>
                        } else if ((data[0] == 'u')&&((actObj1.byteField[ACTION_MASK]&USE) == 0)) {
    37a8:	85 37       	cpi	r24, 0x75	; 117
    37aa:	39 f4       	brne	.+14     	; 0x37ba <ProcessInput+0xa9c>
    37ac:	80 91 e5 38 	lds	r24, 0x38E5	; 0x8038e5 <actObj1.3989+0x8>
    37b0:	84 fd       	sbrc	r24, 4
    37b2:	15 c0       	rjmp	.+42     	; 0x37de <ProcessInput+0xac0>
    return 0;
}

//
void SetResponse(uint8_t number, uint16_t address, uint16_t length, uint8_t type){
    reactStr[0][number]=address;
    37b4:	81 e0       	ldi	r24, 0x01	; 1
    37b6:	99 e7       	ldi	r25, 0x79	; 121
    37b8:	3b c2       	rjmp	.+1142   	; 0x3c30 <ProcessInput+0xf12>
                        if ((data[0] == 't')&&((actObj1.byteField[ACTION_MASK]&TALK) == 0)) {
                            SetResponse(elements++, A_WHYTALK, L_WHYTALK, TEASER);
                            SetResponse(elements++, actObj1.addrStr[NAME], actObj1.lenStr[NAME], GAME);
                        } else if ((data[0] == 'u')&&((actObj1.byteField[ACTION_MASK]&USE) == 0)) {
                            SetResponse(elements++, A_CANTUSE, L_CANTUSE, TEASER);
                        } else if ((data[0] == 'r')&&((actObj1.byteField[ACTION_MASK]&READ) == 0)) {
    37ba:	82 37       	cpi	r24, 0x72	; 114
    37bc:	69 f4       	brne	.+26     	; 0x37d8 <ProcessInput+0xaba>
    37be:	80 91 e5 38 	lds	r24, 0x38E5	; 0x8038e5 <actObj1.3989+0x8>
    37c2:	85 fd       	sbrc	r24, 5
    37c4:	0c c0       	rjmp	.+24     	; 0x37de <ProcessInput+0xac0>
    return 0;
}

//
void SetResponse(uint8_t number, uint16_t address, uint16_t length, uint8_t type){
    reactStr[0][number]=address;
    37c6:	86 ee       	ldi	r24, 0xE6	; 230
    37c8:	98 e7       	ldi	r25, 0x78	; 120
    37ca:	80 93 20 39 	sts	0x3920, r24	; 0x803920 <reactStr+0x2>
    37ce:	90 93 21 39 	sts	0x3921, r25	; 0x803921 <reactStr+0x3>
    reactStr[1][number]=length;
    37d2:	8b e1       	ldi	r24, 0x1B	; 27
    37d4:	90 e0       	ldi	r25, 0x00	; 0
    37d6:	78 cb       	rjmp	.-2320   	; 0x2ec8 <ProcessInput+0x1aa>
                            SetResponse(elements++, actObj1.addrStr[NAME], actObj1.lenStr[NAME], GAME);
                        } else if ((data[0] == 'u')&&((actObj1.byteField[ACTION_MASK]&USE) == 0)) {
                            SetResponse(elements++, A_CANTUSE, L_CANTUSE, TEASER);
                        } else if ((data[0] == 'r')&&((actObj1.byteField[ACTION_MASK]&READ) == 0)) {
                            SetResponse(elements++, A_CANTREAD, L_CANTREAD, TEASER);
                        } else if (data[0] == 'g'){ 
    37d8:	87 36       	cpi	r24, 0x67	; 103
    37da:	09 f4       	brne	.+2      	; 0x37de <ProcessInput+0xac0>
    37dc:	e0 ca       	rjmp	.-2624   	; 0x2d9e <ProcessInput+0x80>
                            SetResponse(elements++, A_NOTPOSSIBLE, L_NOTPOSSIBLE, TEASER);  
                        } else {

                            //Special game, not enough characters
                            if (actObj1.lenStr[ACTION_STR1] == 1) {
    37de:	00 91 fb 38 	lds	r16, 0x38FB	; 0x8038fb <actObj1.3989+0x1e>
    37e2:	10 91 fc 38 	lds	r17, 0x38FC	; 0x8038fc <actObj1.3989+0x1f>
    37e6:	01 30       	cpi	r16, 0x01	; 1
    37e8:	11 05       	cpc	r17, r1
    37ea:	09 f5       	brne	.+66     	; 0x382e <ProcessInput+0xb10>
                                ExtEERead(actObj1.addrStr[ACTION_STR1], 1, GAME, &data[2]);
    37ec:	93 01       	movw	r18, r6
    37ee:	2e 5f       	subi	r18, 0xFE	; 254
    37f0:	3f 4f       	sbci	r19, 0xFF	; 255
    37f2:	40 e0       	ldi	r20, 0x00	; 0
    37f4:	61 e0       	ldi	r22, 0x01	; 1
    37f6:	80 91 ed 38 	lds	r24, 0x38ED	; 0x8038ed <actObj1.3989+0x10>
    37fa:	90 91 ee 38 	lds	r25, 0x38EE	; 0x8038ee <actObj1.3989+0x11>
    37fe:	0e 94 4d 08 	call	0x109a	; 0x109a <ExtEERead>
                                if (data[2] == '1') {
    3802:	f3 01       	movw	r30, r6
    3804:	82 81       	ldd	r24, Z+2	; 0x02
    3806:	81 33       	cpi	r24, 0x31	; 49
    3808:	09 f0       	breq	.+2      	; 0x380c <ProcessInput+0xaee>
    380a:	13 cd       	rjmp	.-1498   	; 0x3232 <ProcessInput+0x514>
    return 0;
}

//
void SetResponse(uint8_t number, uint16_t address, uint16_t length, uint8_t type){
    reactStr[0][number]=address;
    380c:	85 e2       	ldi	r24, 0x25	; 37
    380e:	95 e7       	ldi	r25, 0x75	; 117
    3810:	80 93 20 39 	sts	0x3920, r24	; 0x803920 <reactStr+0x2>
    3814:	90 93 21 39 	sts	0x3921, r25	; 0x803921 <reactStr+0x3>
    reactStr[1][number]=length;
    3818:	8b e2       	ldi	r24, 0x2B	; 43
    381a:	90 e0       	ldi	r25, 0x00	; 0
    381c:	80 93 60 39 	sts	0x3960, r24	; 0x803960 <reactStr+0x42>
    3820:	90 93 61 39 	sts	0x3961, r25	; 0x803961 <reactStr+0x43>
    reactStr[2][number]=type;
    3824:	00 93 a0 39 	sts	0x39A0, r16	; 0x8039a0 <reactStr+0x82>
    3828:	10 93 a1 39 	sts	0x39A1, r17	; 0x8039a1 <reactStr+0x83>
    382c:	57 cb       	rjmp	.-2386   	; 0x2edc <ProcessInput+0x1be>
                                if (data[2] == '1') {
                                    SetResponse(elements++, A_PLEASEOFFER, L_PLEASEOFFER, TEASER);
                                }

                            //General request
                            } else if (actObj1.lenStr[ACTION_STR1]) {
    382e:	01 15       	cp	r16, r1
    3830:	11 05       	cpc	r17, r1
    3832:	09 f4       	brne	.+2      	; 0x3836 <ProcessInput+0xb18>
    3834:	58 c0       	rjmp	.+176    	; 0x38e6 <ProcessInput+0xbc8>
    return 0;
}

//
void SetResponse(uint8_t number, uint16_t address, uint16_t length, uint8_t type){
    reactStr[0][number]=address;
    3836:	80 91 ed 38 	lds	r24, 0x38ED	; 0x8038ed <actObj1.3989+0x10>
    383a:	90 91 ee 38 	lds	r25, 0x38EE	; 0x8038ee <actObj1.3989+0x11>
    383e:	80 93 20 39 	sts	0x3920, r24	; 0x803920 <reactStr+0x2>
    3842:	90 93 21 39 	sts	0x3921, r25	; 0x803921 <reactStr+0x3>
    reactStr[1][number]=length;
    3846:	00 93 60 39 	sts	0x3960, r16	; 0x803960 <reactStr+0x42>
    384a:	10 93 61 39 	sts	0x3961, r17	; 0x803961 <reactStr+0x43>
    reactStr[2][number]=type;
    384e:	10 92 a0 39 	sts	0x39A0, r1	; 0x8039a0 <reactStr+0x82>
    3852:	10 92 a1 39 	sts	0x39A1, r1	; 0x8039a1 <reactStr+0x83>
    return 0;
}

//
void SetResponse(uint8_t number, uint16_t address, uint16_t length, uint8_t type){
    reactStr[0][number]=address;
    3856:	89 e5       	ldi	r24, 0x59	; 89
    3858:	9a e7       	ldi	r25, 0x7A	; 122
    385a:	80 93 22 39 	sts	0x3922, r24	; 0x803922 <reactStr+0x4>
    385e:	90 93 23 39 	sts	0x3923, r25	; 0x803923 <reactStr+0x5>
    reactStr[1][number]=length;
    3862:	82 e0       	ldi	r24, 0x02	; 2
    3864:	90 e0       	ldi	r25, 0x00	; 0
    3866:	80 93 62 39 	sts	0x3962, r24	; 0x803962 <reactStr+0x44>
    386a:	90 93 63 39 	sts	0x3963, r25	; 0x803963 <reactStr+0x45>
    reactStr[2][number]=type;
    386e:	81 e0       	ldi	r24, 0x01	; 1
    3870:	90 e0       	ldi	r25, 0x00	; 0
    3872:	80 93 a2 39 	sts	0x39A2, r24	; 0x8039a2 <reactStr+0x84>
    3876:	90 93 a3 39 	sts	0x39A3, r25	; 0x8039a3 <reactStr+0x85>
    return 0;
}

//
void SetResponse(uint8_t number, uint16_t address, uint16_t length, uint8_t type){
    reactStr[0][number]=address;
    387a:	2d ea       	ldi	r18, 0xAD	; 173
    387c:	38 e7       	ldi	r19, 0x78	; 120
    387e:	20 93 24 39 	sts	0x3924, r18	; 0x803924 <reactStr+0x6>
    3882:	30 93 25 39 	sts	0x3925, r19	; 0x803925 <reactStr+0x7>
    reactStr[1][number]=length;
    3886:	22 e1       	ldi	r18, 0x12	; 18
    3888:	30 e0       	ldi	r19, 0x00	; 0
    388a:	20 93 64 39 	sts	0x3964, r18	; 0x803964 <reactStr+0x46>
    388e:	30 93 65 39 	sts	0x3965, r19	; 0x803965 <reactStr+0x47>
    reactStr[2][number]=type;
    3892:	80 93 a4 39 	sts	0x39A4, r24	; 0x8039a4 <reactStr+0x86>
    3896:	90 93 a5 39 	sts	0x39A5, r25	; 0x8039a5 <reactStr+0x87>
                            //General request
                            } else if (actObj1.lenStr[ACTION_STR1]) {
                                SetResponse(elements++, actObj1.addrStr[ACTION_STR1], actObj1.lenStr[ACTION_STR1], GAME);
                                SetResponse(elements++, A_LF, 2, TEASER);
                                SetResponse(elements++, A_RESPONSE, L_RESPONSE, TEASER);
                                if (actObj1.lenStr[ACTION_STR2]>(INP_LENGTH-1)) actObj1.lenStr[ACTION_STR2] = (INP_LENGTH-1);
    389a:	80 91 fd 38 	lds	r24, 0x38FD	; 0x8038fd <actObj1.3989+0x20>
    389e:	90 91 fe 38 	lds	r25, 0x38FE	; 0x8038fe <actObj1.3989+0x21>
    38a2:	40 97       	sbiw	r24, 0x10	; 16
    38a4:	30 f0       	brcs	.+12     	; 0x38b2 <ProcessInput+0xb94>
    38a6:	8f e0       	ldi	r24, 0x0F	; 15
    38a8:	90 e0       	ldi	r25, 0x00	; 0
    38aa:	80 93 fd 38 	sts	0x38FD, r24	; 0x8038fd <actObj1.3989+0x20>
    38ae:	90 93 fe 38 	sts	0x38FE, r25	; 0x8038fe <actObj1.3989+0x21>
                                ExtEERead(actObj1.addrStr[ACTION_STR2], actObj1.lenStr[ACTION_STR2], GAME, (uint8_t *)&specialInput[0]);
    38b2:	2d e0       	ldi	r18, 0x0D	; 13
    38b4:	39 e3       	ldi	r19, 0x39	; 57
    38b6:	40 e0       	ldi	r20, 0x00	; 0
    38b8:	60 91 fd 38 	lds	r22, 0x38FD	; 0x8038fd <actObj1.3989+0x20>
    38bc:	80 91 ef 38 	lds	r24, 0x38EF	; 0x8038ef <actObj1.3989+0x12>
    38c0:	90 91 f0 38 	lds	r25, 0x38F0	; 0x8038f0 <actObj1.3989+0x13>
    38c4:	0e 94 4d 08 	call	0x109a	; 0x109a <ExtEERead>
                                UnflipData(actObj1.lenStr[ACTION_STR2], (uint8_t *)&specialInput[0]);
    38c8:	6d e0       	ldi	r22, 0x0D	; 13
    38ca:	79 e3       	ldi	r23, 0x39	; 57
    38cc:	80 91 fd 38 	lds	r24, 0x38FD	; 0x8038fd <actObj1.3989+0x20>
    38d0:	0e 94 10 11 	call	0x2220	; 0x2220 <UnflipData>
                                specialInput[actObj1.lenStr[ACTION_STR2]] = 0;
    38d4:	e0 91 fd 38 	lds	r30, 0x38FD	; 0x8038fd <actObj1.3989+0x20>
    38d8:	f0 91 fe 38 	lds	r31, 0x38FE	; 0x8038fe <actObj1.3989+0x21>
    38dc:	e3 5f       	subi	r30, 0xF3	; 243
    38de:	f6 4c       	sbci	r31, 0xC6	; 198
    38e0:	10 82       	st	Z, r1

                            //General request
                            } else if (actObj1.lenStr[ACTION_STR1]) {
                                SetResponse(elements++, actObj1.addrStr[ACTION_STR1], actObj1.lenStr[ACTION_STR1], GAME);
                                SetResponse(elements++, A_LF, 2, TEASER);
                                SetResponse(elements++, A_RESPONSE, L_RESPONSE, TEASER);
    38e2:	14 e0       	ldi	r17, 0x04	; 4
    38e4:	94 c1       	rjmp	.+808    	; 0x3c0e <ProcessInput+0xef0>
                                ExtEERead(actObj1.addrStr[ACTION_STR2], actObj1.lenStr[ACTION_STR2], GAME, (uint8_t *)&specialInput[0]);
                                UnflipData(actObj1.lenStr[ACTION_STR2], (uint8_t *)&specialInput[0]);
                                specialInput[actObj1.lenStr[ACTION_STR2]] = 0;
                            
                            //Normal action    
                            } else if (CheckState(actObj1.byteField[ACTION_ACL])){
    38e6:	80 91 e4 38 	lds	r24, 0x38E4	; 0x8038e4 <actObj1.3989+0x7>
    38ea:	0e 94 18 0a 	call	0x1430	; 0x1430 <CheckState>
    38ee:	88 23       	and	r24, r24
    38f0:	01 f1       	breq	.+64     	; 0x3932 <ProcessInput+0xc14>
                                SetResponse(elements++, actObj1.addrStr[ACTION_MSG], actObj1.lenStr[ACTION_MSG], GAME);
    38f2:	80 91 03 39 	lds	r24, 0x3903	; 0x803903 <actObj1.3989+0x26>
    38f6:	90 91 04 39 	lds	r25, 0x3904	; 0x803904 <actObj1.3989+0x27>
    return 0;
}

//
void SetResponse(uint8_t number, uint16_t address, uint16_t length, uint8_t type){
    reactStr[0][number]=address;
    38fa:	20 91 f5 38 	lds	r18, 0x38F5	; 0x8038f5 <actObj1.3989+0x18>
    38fe:	30 91 f6 38 	lds	r19, 0x38F6	; 0x8038f6 <actObj1.3989+0x19>
    3902:	20 93 20 39 	sts	0x3920, r18	; 0x803920 <reactStr+0x2>
    3906:	30 93 21 39 	sts	0x3921, r19	; 0x803921 <reactStr+0x3>
    reactStr[1][number]=length;
    390a:	80 93 60 39 	sts	0x3960, r24	; 0x803960 <reactStr+0x42>
    390e:	90 93 61 39 	sts	0x3961, r25	; 0x803961 <reactStr+0x43>
    reactStr[2][number]=type;
    3912:	10 92 a0 39 	sts	0x39A0, r1	; 0x8039a0 <reactStr+0x82>
    3916:	10 92 a1 39 	sts	0x39A1, r1	; 0x8039a1 <reactStr+0x83>
                                specialInput[actObj1.lenStr[ACTION_STR2]] = 0;
                            
                            //Normal action    
                            } else if (CheckState(actObj1.byteField[ACTION_ACL])){
                                SetResponse(elements++, actObj1.addrStr[ACTION_MSG], actObj1.lenStr[ACTION_MSG], GAME);
                                effect = actObj1.effect[2];
    391a:	80 91 07 39 	lds	r24, 0x3907	; 0x803907 <actObj1.3989+0x2a>
    391e:	90 e0       	ldi	r25, 0x00	; 0
    3920:	80 93 3c 38 	sts	0x383C, r24	; 0x80383c <effect>
    3924:	90 93 3d 38 	sts	0x383D, r25	; 0x80383d <effect+0x1>
                                UpdateState(actObj1.byteField[ACTION_STATE]);
    3928:	80 91 e7 38 	lds	r24, 0x38E7	; 0x8038e7 <actObj1.3989+0xa>
    392c:	0e 94 f7 09 	call	0x13ee	; 0x13ee <UpdateState>
    3930:	d5 ca       	rjmp	.-2646   	; 0x2edc <ProcessInput+0x1be>
                            } else {
                                SetResponse(elements++, actObj1.addrStr[ACTION_ACL_MSG], actObj1.lenStr[ACTION_ACL_MSG], GAME);
    3932:	80 91 01 39 	lds	r24, 0x3901	; 0x803901 <actObj1.3989+0x24>
    3936:	90 91 02 39 	lds	r25, 0x3902	; 0x803902 <actObj1.3989+0x25>
    return 0;
}

//
void SetResponse(uint8_t number, uint16_t address, uint16_t length, uint8_t type){
    reactStr[0][number]=address;
    393a:	20 91 f3 38 	lds	r18, 0x38F3	; 0x8038f3 <actObj1.3989+0x16>
    393e:	30 91 f4 38 	lds	r19, 0x38F4	; 0x8038f4 <actObj1.3989+0x17>
    3942:	20 93 20 39 	sts	0x3920, r18	; 0x803920 <reactStr+0x2>
    3946:	30 93 21 39 	sts	0x3921, r19	; 0x803921 <reactStr+0x3>
    reactStr[1][number]=length;
    394a:	80 93 60 39 	sts	0x3960, r24	; 0x803960 <reactStr+0x42>
    394e:	90 93 61 39 	sts	0x3961, r25	; 0x803961 <reactStr+0x43>
    reactStr[2][number]=type;
    3952:	10 92 a0 39 	sts	0x39A0, r1	; 0x8039a0 <reactStr+0x82>
    3956:	10 92 a1 39 	sts	0x39A1, r1	; 0x8039a1 <reactStr+0x83>
                                SetResponse(elements++, actObj1.addrStr[ACTION_MSG], actObj1.lenStr[ACTION_MSG], GAME);
                                effect = actObj1.effect[2];
                                UpdateState(actObj1.byteField[ACTION_STATE]);
                            } else {
                                SetResponse(elements++, actObj1.addrStr[ACTION_ACL_MSG], actObj1.lenStr[ACTION_ACL_MSG], GAME);
                                effect = actObj1.effect[1];
    395a:	80 91 06 39 	lds	r24, 0x3906	; 0x803906 <actObj1.3989+0x29>
    395e:	90 e0       	ldi	r25, 0x00	; 0
    3960:	80 93 3c 38 	sts	0x383C, r24	; 0x80383c <effect>
    3964:	90 93 3d 38 	sts	0x383D, r25	; 0x80383d <effect+0x1>
    3968:	b9 ca       	rjmp	.-2702   	; 0x2edc <ProcessInput+0x1be>
                        }
                    }

                //Person or object not found
                } else {
                    if ((data[0] == 't')||(data[0] == 'g')){
    396a:	d3 01       	movw	r26, r6
    396c:	8c 91       	ld	r24, X
    396e:	84 37       	cpi	r24, 0x74	; 116
    3970:	11 f0       	breq	.+4      	; 0x3976 <ProcessInput+0xc58>
    3972:	87 36       	cpi	r24, 0x67	; 103
    3974:	19 f4       	brne	.+6      	; 0x397c <ProcessInput+0xc5e>
    return 0;
}

//
void SetResponse(uint8_t number, uint16_t address, uint16_t length, uint8_t type){
    reactStr[0][number]=address;
    3976:	89 e3       	ldi	r24, 0x39	; 57
    3978:	99 e7       	ldi	r25, 0x79	; 121
    397a:	02 c0       	rjmp	.+4      	; 0x3980 <ProcessInput+0xc62>
    397c:	8d e4       	ldi	r24, 0x4D	; 77
    397e:	99 e7       	ldi	r25, 0x79	; 121
    3980:	80 93 20 39 	sts	0x3920, r24	; 0x803920 <reactStr+0x2>
    3984:	90 93 21 39 	sts	0x3921, r25	; 0x803921 <reactStr+0x3>
    reactStr[1][number]=length;
    3988:	84 e1       	ldi	r24, 0x14	; 20
    398a:	90 e0       	ldi	r25, 0x00	; 0
    398c:	9d ca       	rjmp	.-2758   	; 0x2ec8 <ProcessInput+0x1aa>
                    }
                }
            }
        
        //Special answer given
        } else if (data[0] == 'a'){
    398e:	81 36       	cpi	r24, 0x61	; 97
    3990:	09 f0       	breq	.+2      	; 0x3994 <ProcessInput+0xc76>
    3992:	4f cc       	rjmp	.-1890   	; 0x3232 <ProcessInput+0x514>
            
            //Priest offerings
            if (specialPassed >= 2) {
    3994:	80 91 0c 39 	lds	r24, 0x390C	; 0x80390c <specialPassed>
    3998:	82 30       	cpi	r24, 0x02	; 2
    399a:	08 f4       	brcc	.+2      	; 0x399e <ProcessInput+0xc80>
    399c:	c7 c0       	rjmp	.+398    	; 0x3b2c <ProcessInput+0xe0e>
                if (data[1] > 0) {
    399e:	f3 01       	movw	r30, r6
    39a0:	21 81       	ldd	r18, Z+1	; 0x01
    39a2:	22 23       	and	r18, r18
    39a4:	09 f4       	brne	.+2      	; 0x39a8 <ProcessInput+0xc8a>
    39a6:	af c0       	rjmp	.+350    	; 0x3b06 <ProcessInput+0xde8>

                    //uint8_t  digit[10] = {0, 0, 0, 0, 0, 0, 0, 0, 0, 0};
                    uint8_t  digit[8] = {0, 0, 0, 0, 0, 0, 0, 0};
    39a8:	ce 01       	movw	r24, r28
    39aa:	01 96       	adiw	r24, 0x01	; 1
    39ac:	7c 01       	movw	r14, r24
    39ae:	88 e0       	ldi	r24, 0x08	; 8
    39b0:	d7 01       	movw	r26, r14
    39b2:	1d 92       	st	X+, r1
    39b4:	8a 95       	dec	r24
    39b6:	e9 f7       	brne	.-6      	; 0x39b2 <ProcessInput+0xc94>
                        answer = ((offering  & 2) << 19) + ((offering  & 1) << 8) + \
                        ((element   & 2) << 15) + ((element   & 1) << 4) + \
                        ((kneelings & 2) << 11) + ((kneelings & 1))
                        answer = answer << (3-person)
                    */
                    data[1]-='0'; // item 31 needs to become something that results in 0 when doing %4
    39b8:	20 53       	subi	r18, 0x30	; 48
    39ba:	21 83       	std	Z+1, r18	; 0x01
                    data[2]-='1';
    39bc:	32 81       	ldd	r19, Z+2	; 0x02
    39be:	31 53       	subi	r19, 0x31	; 49
    39c0:	32 83       	std	Z+2, r19	; 0x02
                    if (data[3] == 'a') data[3] = 1;
    39c2:	83 81       	ldd	r24, Z+3	; 0x03
    39c4:	81 36       	cpi	r24, 0x61	; 97
    39c6:	11 f4       	brne	.+4      	; 0x39cc <ProcessInput+0xcae>
    39c8:	81 e0       	ldi	r24, 0x01	; 1
    39ca:	0c c0       	rjmp	.+24     	; 0x39e4 <ProcessInput+0xcc6>
                    else if (data[3] == 'e') data[3] = 0;
    39cc:	85 36       	cpi	r24, 0x65	; 101
    39ce:	19 f4       	brne	.+6      	; 0x39d6 <ProcessInput+0xcb8>
    39d0:	f3 01       	movw	r30, r6
    39d2:	13 82       	std	Z+3, r1	; 0x03
    39d4:	08 c0       	rjmp	.+16     	; 0x39e6 <ProcessInput+0xcc8>
                    else if (data[3] == 'f') data[3] = 3;
    39d6:	86 36       	cpi	r24, 0x66	; 102
    39d8:	19 f4       	brne	.+6      	; 0x39e0 <ProcessInput+0xcc2>
    39da:	83 e0       	ldi	r24, 0x03	; 3
    39dc:	83 83       	std	Z+3, r24	; 0x03
    39de:	03 c0       	rjmp	.+6      	; 0x39e6 <ProcessInput+0xcc8>
                    else data[3] = 2;
    39e0:	82 e0       	ldi	r24, 0x02	; 2
    39e2:	f3 01       	movw	r30, r6
    39e4:	83 83       	std	Z+3, r24	; 0x03

                    if (data[1] & 2) answer += (1UL << 20);
    39e6:	21 fd       	sbrc	r18, 1
    39e8:	04 c0       	rjmp	.+8      	; 0x39f2 <ProcessInput+0xcd4>
            if (specialPassed >= 2) {
                if (data[1] > 0) {

                    //uint8_t  digit[10] = {0, 0, 0, 0, 0, 0, 0, 0, 0, 0};
                    uint8_t  digit[8] = {0, 0, 0, 0, 0, 0, 0, 0};
                    uint32_t answer = 0;
    39ea:	80 e0       	ldi	r24, 0x00	; 0
    39ec:	90 e0       	ldi	r25, 0x00	; 0
    39ee:	dc 01       	movw	r26, r24
    39f0:	04 c0       	rjmp	.+8      	; 0x39fa <ProcessInput+0xcdc>
                    if (data[3] == 'a') data[3] = 1;
                    else if (data[3] == 'e') data[3] = 0;
                    else if (data[3] == 'f') data[3] = 3;
                    else data[3] = 2;

                    if (data[1] & 2) answer += (1UL << 20);
    39f2:	80 e0       	ldi	r24, 0x00	; 0
    39f4:	90 e0       	ldi	r25, 0x00	; 0
    39f6:	a0 e1       	ldi	r26, 0x10	; 16
    39f8:	b0 e0       	ldi	r27, 0x00	; 0
                    if (data[1] & 1) answer += (1 << 8);
    39fa:	20 ff       	sbrs	r18, 0
    39fc:	03 c0       	rjmp	.+6      	; 0x3a04 <ProcessInput+0xce6>
    39fe:	9f 5f       	subi	r25, 0xFF	; 255
    3a00:	af 4f       	sbci	r26, 0xFF	; 255
    3a02:	bf 4f       	sbci	r27, 0xFF	; 255
                    if (data[3] & 2) answer += (1UL << 16);
    3a04:	f3 01       	movw	r30, r6
    3a06:	23 81       	ldd	r18, Z+3	; 0x03
    3a08:	21 fd       	sbrc	r18, 1
    3a0a:	11 96       	adiw	r26, 0x01	; 1
                    if (data[3] & 1) answer += (1 << 4);
    3a0c:	20 ff       	sbrs	r18, 0
    3a0e:	03 c0       	rjmp	.+6      	; 0x3a16 <ProcessInput+0xcf8>
    3a10:	40 96       	adiw	r24, 0x10	; 16
    3a12:	a1 1d       	adc	r26, r1
    3a14:	b1 1d       	adc	r27, r1
                    if (data[2] & 2) answer += (1 << 12);
    3a16:	31 ff       	sbrs	r19, 1
    3a18:	03 c0       	rjmp	.+6      	; 0x3a20 <ProcessInput+0xd02>
    3a1a:	90 5f       	subi	r25, 0xF0	; 240
    3a1c:	af 4f       	sbci	r26, 0xFF	; 255
    3a1e:	bf 4f       	sbci	r27, 0xFF	; 255
                    if (data[2] & 1) answer += 1;
    3a20:	30 ff       	sbrs	r19, 0
    3a22:	03 c0       	rjmp	.+6      	; 0x3a2a <ProcessInput+0xd0c>
    3a24:	01 96       	adiw	r24, 0x01	; 1
    3a26:	a1 1d       	adc	r26, r1
    3a28:	b1 1d       	adc	r27, r1
                    answer <<= (4 - whoami);            
    3a2a:	40 91 3f 38 	lds	r20, 0x383F	; 0x80383f <whoami>
    3a2e:	24 e0       	ldi	r18, 0x04	; 4
    3a30:	30 e0       	ldi	r19, 0x00	; 0
    3a32:	24 1b       	sub	r18, r20
    3a34:	31 09       	sbc	r19, r1
    3a36:	04 c0       	rjmp	.+8      	; 0x3a40 <ProcessInput+0xd22>
    3a38:	88 0f       	add	r24, r24
    3a3a:	99 1f       	adc	r25, r25
    3a3c:	aa 1f       	adc	r26, r26
    3a3e:	bb 1f       	adc	r27, r27
    3a40:	2a 95       	dec	r18
    3a42:	d2 f7       	brpl	.-12     	; 0x3a38 <ProcessInput+0xd1a>
    return 0;
}

//
void SetResponse(uint8_t number, uint16_t address, uint16_t length, uint8_t type){
    reactStr[0][number]=address;
    3a44:	28 ec       	ldi	r18, 0xC8	; 200
    3a46:	34 e7       	ldi	r19, 0x74	; 116
    3a48:	20 93 20 39 	sts	0x3920, r18	; 0x803920 <reactStr+0x2>
    3a4c:	30 93 21 39 	sts	0x3921, r19	; 0x803921 <reactStr+0x3>
    reactStr[1][number]=length;
    3a50:	20 e2       	ldi	r18, 0x20	; 32
    3a52:	30 e0       	ldi	r19, 0x00	; 0
    3a54:	20 93 60 39 	sts	0x3960, r18	; 0x803960 <reactStr+0x42>
    3a58:	30 93 61 39 	sts	0x3961, r19	; 0x803961 <reactStr+0x43>
    reactStr[2][number]=type;
    3a5c:	21 e0       	ldi	r18, 0x01	; 1
    3a5e:	30 e0       	ldi	r19, 0x00	; 0
    3a60:	20 93 a0 39 	sts	0x39A0, r18	; 0x8039a0 <reactStr+0x82>
    3a64:	30 93 a1 39 	sts	0x39A1, r19	; 0x8039a1 <reactStr+0x83>
    return 0;
}

//
void SetResponse(uint8_t number, uint16_t address, uint16_t length, uint8_t type){
    reactStr[0][number]=address;
    3a68:	4d e9       	ldi	r20, 0x9D	; 157
    3a6a:	54 e7       	ldi	r21, 0x74	; 116
    3a6c:	40 93 22 39 	sts	0x3922, r20	; 0x803922 <reactStr+0x4>
    3a70:	50 93 23 39 	sts	0x3923, r21	; 0x803923 <reactStr+0x5>
    reactStr[1][number]=length;
    3a74:	42 e0       	ldi	r20, 0x02	; 2
    3a76:	50 e0       	ldi	r21, 0x00	; 0
    3a78:	40 93 62 39 	sts	0x3962, r20	; 0x803962 <reactStr+0x44>
    3a7c:	50 93 63 39 	sts	0x3963, r21	; 0x803963 <reactStr+0x45>
    reactStr[2][number]=type;
    3a80:	20 93 a2 39 	sts	0x39A2, r18	; 0x8039a2 <reactStr+0x84>
    3a84:	30 93 a3 39 	sts	0x39A3, r19	; 0x8039a3 <reactStr+0x85>

                    SetResponse(elements++, A_YOURPART, L_YOURPART, TEASER);
                    SetResponse(elements++, A_HEXPREFIX, L_HEXPREFIX, TEASER);
                    
                    //Set up sending out number
                    for (n=7; n>=0; --n) {
    3a88:	07 e0       	ldi	r16, 0x07	; 7
                        digit[n] = answer % 16;
    3a8a:	f7 01       	movw	r30, r14
    3a8c:	e0 0f       	add	r30, r16
    3a8e:	f1 1d       	adc	r31, r1
    3a90:	28 2f       	mov	r18, r24
    3a92:	2f 70       	andi	r18, 0x0F	; 15
    3a94:	20 83       	st	Z, r18
                        answer /= 16;
    3a96:	44 e0       	ldi	r20, 0x04	; 4
    3a98:	b6 95       	lsr	r27
    3a9a:	a7 95       	ror	r26
    3a9c:	97 95       	ror	r25
    3a9e:	87 95       	ror	r24
    3aa0:	4a 95       	dec	r20
    3aa2:	d1 f7       	brne	.-12     	; 0x3a98 <ProcessInput+0xd7a>
                        if (answer == 0) break;
    3aa4:	00 97       	sbiw	r24, 0x00	; 0
    3aa6:	a1 05       	cpc	r26, r1
    3aa8:	b1 05       	cpc	r27, r1
    3aaa:	49 f4       	brne	.+18     	; 0x3abe <ProcessInput+0xda0>
    3aac:	2e e1       	ldi	r18, 0x1E	; 30
    3aae:	c2 2e       	mov	r12, r18
    3ab0:	29 e3       	ldi	r18, 0x39	; 57
    3ab2:	d2 2e       	mov	r13, r18
    3ab4:	13 e0       	ldi	r17, 0x03	; 3
}

//
void SetResponse(uint8_t number, uint16_t address, uint16_t length, uint8_t type){
    reactStr[0][number]=address;
    reactStr[1][number]=length;
    3ab6:	aa 24       	eor	r10, r10
    3ab8:	a3 94       	inc	r10
    3aba:	b1 2c       	mov	r11, r1
    3abc:	02 c0       	rjmp	.+4      	; 0x3ac2 <ProcessInput+0xda4>

                    SetResponse(elements++, A_YOURPART, L_YOURPART, TEASER);
                    SetResponse(elements++, A_HEXPREFIX, L_HEXPREFIX, TEASER);
                    
                    //Set up sending out number
                    for (n=7; n>=0; --n) {
    3abe:	01 50       	subi	r16, 0x01	; 1
                        digit[n] = answer % 16;
                        answer /= 16;
                        if (answer == 0) break;
                    }
    3ac0:	e4 cf       	rjmp	.-56     	; 0x3a8a <ProcessInput+0xd6c>
    3ac2:	b2 e0       	ldi	r27, 0x02	; 2
    3ac4:	cb 0e       	add	r12, r27
    3ac6:	d1 1c       	adc	r13, r1

                    for (; n<8; ++n) {
    3ac8:	08 30       	cpi	r16, 0x08	; 8
    3aca:	08 f0       	brcs	.+2      	; 0x3ace <ProcessInput+0xdb0>
    3acc:	9e c0       	rjmp	.+316    	; 0x3c0a <ProcessInput+0xeec>
                        SetResponse(elements++, A_DIGITS+digit[n], 1, TEASER);
    3ace:	1f 5f       	subi	r17, 0xFF	; 255
    3ad0:	f7 01       	movw	r30, r14
    3ad2:	e0 0f       	add	r30, r16
    3ad4:	f1 1d       	adc	r31, r1
    return 0;
}

//
void SetResponse(uint8_t number, uint16_t address, uint16_t length, uint8_t type){
    reactStr[0][number]=address;
    3ad6:	80 81       	ld	r24, Z
    3ad8:	90 e0       	ldi	r25, 0x00	; 0
    3ada:	83 57       	subi	r24, 0x73	; 115
    3adc:	9b 48       	sbci	r25, 0x8B	; 139
    3ade:	d6 01       	movw	r26, r12
    3ae0:	14 96       	adiw	r26, 0x04	; 4
    3ae2:	8d 93       	st	X+, r24
    3ae4:	9c 93       	st	X, r25
    3ae6:	15 97       	sbiw	r26, 0x05	; 5
    reactStr[1][number]=length;
    3ae8:	f6 01       	movw	r30, r12
    3aea:	ec 5b       	subi	r30, 0xBC	; 188
    3aec:	ff 4f       	sbci	r31, 0xFF	; 255
    3aee:	a0 82       	st	Z, r10
    3af0:	b1 82       	std	Z+1, r11	; 0x01
    reactStr[2][number]=type;
    3af2:	e0 5c       	subi	r30, 0xC0	; 192
    3af4:	ff 4f       	sbci	r31, 0xFF	; 255
    3af6:	a0 82       	st	Z, r10
    3af8:	b1 82       	std	Z+1, r11	; 0x01
                        if (answer == 0) break;
                    }

                    for (; n<8; ++n) {
                        SetResponse(elements++, A_DIGITS+digit[n], 1, TEASER);
                        UpdateState(actObj1.byteField[ACTION_STATE]);
    3afa:	80 91 e7 38 	lds	r24, 0x38E7	; 0x8038e7 <actObj1.3989+0xa>
    3afe:	0e 94 f7 09 	call	0x13ee	; 0x13ee <UpdateState>
                        digit[n] = answer % 16;
                        answer /= 16;
                        if (answer == 0) break;
                    }

                    for (; n<8; ++n) {
    3b02:	0f 5f       	subi	r16, 0xFF	; 255
    3b04:	de cf       	rjmp	.-68     	; 0x3ac2 <ProcessInput+0xda4>
    return 0;
}

//
void SetResponse(uint8_t number, uint16_t address, uint16_t length, uint8_t type){
    reactStr[0][number]=address;
    3b06:	88 ee       	ldi	r24, 0xE8	; 232
    3b08:	94 e7       	ldi	r25, 0x74	; 116
    3b0a:	80 93 20 39 	sts	0x3920, r24	; 0x803920 <reactStr+0x2>
    3b0e:	90 93 21 39 	sts	0x3921, r25	; 0x803921 <reactStr+0x3>
    reactStr[1][number]=length;
    3b12:	8d e3       	ldi	r24, 0x3D	; 61
    3b14:	90 e0       	ldi	r25, 0x00	; 0
    3b16:	80 93 60 39 	sts	0x3960, r24	; 0x803960 <reactStr+0x42>
    3b1a:	90 93 61 39 	sts	0x3961, r25	; 0x803961 <reactStr+0x43>
    reactStr[2][number]=type;
    3b1e:	81 e0       	ldi	r24, 0x01	; 1
    3b20:	90 e0       	ldi	r25, 0x00	; 0
    3b22:	80 93 a0 39 	sts	0x39A0, r24	; 0x8039a0 <reactStr+0x82>
    3b26:	90 93 a1 39 	sts	0x39A1, r25	; 0x8039a1 <reactStr+0x83>
    3b2a:	6e c0       	rjmp	.+220    	; 0x3c08 <ProcessInput+0xeea>
    3b2c:	e0 91 31 38 	lds	r30, 0x3831	; 0x803831 <currDepth>
                    SetResponse(elements++, A_BADOFFERING, L_BADOFFERING, TEASER);
                }
            
            //Other questions    
            } else if (specialPassed == 1) {
                PopulateObject(route[currDepth+1], &actObj1);
    3b30:	f0 e0       	ldi	r31, 0x00	; 0
    3b32:	ee 0f       	add	r30, r30
    3b34:	ff 1f       	adc	r31, r31
    3b36:	e0 52       	subi	r30, 0x20	; 32
    3b38:	f6 4c       	sbci	r31, 0xC6	; 198
    3b3a:	6d ed       	ldi	r22, 0xDD	; 221
    3b3c:	78 e3       	ldi	r23, 0x38	; 56
                } else {
                    SetResponse(elements++, A_BADOFFERING, L_BADOFFERING, TEASER);
                }
            
            //Other questions    
            } else if (specialPassed == 1) {
    3b3e:	81 30       	cpi	r24, 0x01	; 1
    3b40:	09 f0       	breq	.+2      	; 0x3b44 <ProcessInput+0xe26>
    3b42:	46 c0       	rjmp	.+140    	; 0x3bd0 <ProcessInput+0xeb2>
                PopulateObject(route[currDepth+1], &actObj1);
    3b44:	80 81       	ld	r24, Z
    3b46:	91 81       	ldd	r25, Z+1	; 0x01
    3b48:	0e 94 fa 11 	call	0x23f4	; 0x23f4 <PopulateObject>
                if (CheckState(actObj1.byteField[ACTION_ACL])){
    3b4c:	80 91 e4 38 	lds	r24, 0x38E4	; 0x8038e4 <actObj1.3989+0x7>
    3b50:	0e 94 18 0a 	call	0x1430	; 0x1430 <CheckState>
    3b54:	88 23       	and	r24, r24
    3b56:	01 f1       	breq	.+64     	; 0x3b98 <ProcessInput+0xe7a>
                    SetResponse(elements++, actObj1.addrStr[ACTION_MSG], actObj1.lenStr[ACTION_MSG], GAME);
    3b58:	80 91 03 39 	lds	r24, 0x3903	; 0x803903 <actObj1.3989+0x26>
    3b5c:	90 91 04 39 	lds	r25, 0x3904	; 0x803904 <actObj1.3989+0x27>
    return 0;
}

//
void SetResponse(uint8_t number, uint16_t address, uint16_t length, uint8_t type){
    reactStr[0][number]=address;
    3b60:	20 91 f5 38 	lds	r18, 0x38F5	; 0x8038f5 <actObj1.3989+0x18>
    3b64:	30 91 f6 38 	lds	r19, 0x38F6	; 0x8038f6 <actObj1.3989+0x19>
    3b68:	20 93 20 39 	sts	0x3920, r18	; 0x803920 <reactStr+0x2>
    3b6c:	30 93 21 39 	sts	0x3921, r19	; 0x803921 <reactStr+0x3>
    reactStr[1][number]=length;
    3b70:	80 93 60 39 	sts	0x3960, r24	; 0x803960 <reactStr+0x42>
    3b74:	90 93 61 39 	sts	0x3961, r25	; 0x803961 <reactStr+0x43>
    reactStr[2][number]=type;
    3b78:	10 92 a0 39 	sts	0x39A0, r1	; 0x8039a0 <reactStr+0x82>
    3b7c:	10 92 a1 39 	sts	0x39A1, r1	; 0x8039a1 <reactStr+0x83>
            //Other questions    
            } else if (specialPassed == 1) {
                PopulateObject(route[currDepth+1], &actObj1);
                if (CheckState(actObj1.byteField[ACTION_ACL])){
                    SetResponse(elements++, actObj1.addrStr[ACTION_MSG], actObj1.lenStr[ACTION_MSG], GAME);
                    effect = actObj1.effect[2];
    3b80:	80 91 07 39 	lds	r24, 0x3907	; 0x803907 <actObj1.3989+0x2a>
    3b84:	90 e0       	ldi	r25, 0x00	; 0
    3b86:	80 93 3c 38 	sts	0x383C, r24	; 0x80383c <effect>
    3b8a:	90 93 3d 38 	sts	0x383D, r25	; 0x80383d <effect+0x1>
                    UpdateState(actObj1.byteField[ACTION_STATE]);
    3b8e:	80 91 e7 38 	lds	r24, 0x38E7	; 0x8038e7 <actObj1.3989+0xa>
    3b92:	0e 94 f7 09 	call	0x13ee	; 0x13ee <UpdateState>
    3b96:	38 c0       	rjmp	.+112    	; 0x3c08 <ProcessInput+0xeea>
                } else {
                    SetResponse(elements++, actObj1.addrStr[ACTION_ACL_MSG], actObj1.lenStr[ACTION_ACL_MSG], GAME);
    3b98:	80 91 01 39 	lds	r24, 0x3901	; 0x803901 <actObj1.3989+0x24>
    3b9c:	90 91 02 39 	lds	r25, 0x3902	; 0x803902 <actObj1.3989+0x25>
    return 0;
}

//
void SetResponse(uint8_t number, uint16_t address, uint16_t length, uint8_t type){
    reactStr[0][number]=address;
    3ba0:	20 91 f3 38 	lds	r18, 0x38F3	; 0x8038f3 <actObj1.3989+0x16>
    3ba4:	30 91 f4 38 	lds	r19, 0x38F4	; 0x8038f4 <actObj1.3989+0x17>
    3ba8:	20 93 20 39 	sts	0x3920, r18	; 0x803920 <reactStr+0x2>
    3bac:	30 93 21 39 	sts	0x3921, r19	; 0x803921 <reactStr+0x3>
    reactStr[1][number]=length;
    3bb0:	80 93 60 39 	sts	0x3960, r24	; 0x803960 <reactStr+0x42>
    3bb4:	90 93 61 39 	sts	0x3961, r25	; 0x803961 <reactStr+0x43>
    reactStr[2][number]=type;
    3bb8:	10 92 a0 39 	sts	0x39A0, r1	; 0x8039a0 <reactStr+0x82>
    3bbc:	10 92 a1 39 	sts	0x39A1, r1	; 0x8039a1 <reactStr+0x83>
                    SetResponse(elements++, actObj1.addrStr[ACTION_MSG], actObj1.lenStr[ACTION_MSG], GAME);
                    effect = actObj1.effect[2];
                    UpdateState(actObj1.byteField[ACTION_STATE]);
                } else {
                    SetResponse(elements++, actObj1.addrStr[ACTION_ACL_MSG], actObj1.lenStr[ACTION_ACL_MSG], GAME);
                    effect = actObj1.effect[1];
    3bc0:	80 91 06 39 	lds	r24, 0x3906	; 0x803906 <actObj1.3989+0x29>
    3bc4:	90 e0       	ldi	r25, 0x00	; 0
    3bc6:	80 93 3c 38 	sts	0x383C, r24	; 0x80383c <effect>
    3bca:	90 93 3d 38 	sts	0x383D, r25	; 0x80383d <effect+0x1>
    3bce:	1c c0       	rjmp	.+56     	; 0x3c08 <ProcessInput+0xeea>
                }

            } else {
                PopulateObject(route[currDepth+1], &actObj1);
    3bd0:	80 81       	ld	r24, Z
    3bd2:	91 81       	ldd	r25, Z+1	; 0x01
    3bd4:	0e 94 fa 11 	call	0x23f4	; 0x23f4 <PopulateObject>
    return 0;
}

//
void SetResponse(uint8_t number, uint16_t address, uint16_t length, uint8_t type){
    reactStr[0][number]=address;
    3bd8:	80 e6       	ldi	r24, 0x60	; 96
    3bda:	98 e7       	ldi	r25, 0x78	; 120
    3bdc:	80 93 20 39 	sts	0x3920, r24	; 0x803920 <reactStr+0x2>
    3be0:	90 93 21 39 	sts	0x3921, r25	; 0x803921 <reactStr+0x3>
    reactStr[1][number]=length;
    3be4:	8d e4       	ldi	r24, 0x4D	; 77
    3be6:	90 e0       	ldi	r25, 0x00	; 0
    3be8:	80 93 60 39 	sts	0x3960, r24	; 0x803960 <reactStr+0x42>
    3bec:	90 93 61 39 	sts	0x3961, r25	; 0x803961 <reactStr+0x43>
    reactStr[2][number]=type;
    3bf0:	81 e0       	ldi	r24, 0x01	; 1
    3bf2:	90 e0       	ldi	r25, 0x00	; 0
    3bf4:	80 93 a0 39 	sts	0x39A0, r24	; 0x8039a0 <reactStr+0x82>
    3bf8:	90 93 a1 39 	sts	0x39A1, r25	; 0x8039a1 <reactStr+0x83>
                }

            } else {
                PopulateObject(route[currDepth+1], &actObj1);
                SetResponse(elements++, A_INCORRECT, L_INCORRECT, TEASER);
                PunishmentTime = getClock();
    3bfc:	0e 94 2e 0e 	call	0x1c5c	; 0x1c5c <getClock>
    3c00:	80 93 0a 39 	sts	0x390A, r24	; 0x80390a <PunishmentTime>
    3c04:	90 93 0b 39 	sts	0x390B, r25	; 0x80390b <PunishmentTime+0x1>
                    effect = actObj1.effect[1];
                }

            } else {
                PopulateObject(route[currDepth+1], &actObj1);
                SetResponse(elements++, A_INCORRECT, L_INCORRECT, TEASER);
    3c08:	12 e0       	ldi	r17, 0x02	; 2
                PunishmentTime = getClock();
            }
            specialInput[0] = 0;
    3c0a:	10 92 0d 39 	sts	0x390D, r1	; 0x80390d <specialInput>

        }
                    
        //Input handled
        if (specialInput[0]) responseList = elements; else responseList = SetStandardResponse(elements);
    3c0e:	80 91 0d 39 	lds	r24, 0x390D	; 0x80390d <specialInput>
    3c12:	88 23       	and	r24, r24
    3c14:	19 f0       	breq	.+6      	; 0x3c1c <ProcessInput+0xefe>
    3c16:	10 93 1d 39 	sts	0x391D, r17	; 0x80391d <responseList>
    3c1a:	8b c0       	rjmp	.+278    	; 0x3d32 <ProcessInput+0x1014>
    3c1c:	81 2f       	mov	r24, r17
    3c1e:	01 c0       	rjmp	.+2      	; 0x3c22 <ProcessInput+0xf04>

    } else {

        responseList = SetStandardResponse(1);
    3c20:	81 e0       	ldi	r24, 0x01	; 1
    3c22:	0e 94 7e 11 	call	0x22fc	; 0x22fc <SetStandardResponse>
    3c26:	80 93 1d 39 	sts	0x391D, r24	; 0x80391d <responseList>
    3c2a:	83 c0       	rjmp	.+262    	; 0x3d32 <ProcessInput+0x1014>
    return 0;
}

//
void SetResponse(uint8_t number, uint16_t address, uint16_t length, uint8_t type){
    reactStr[0][number]=address;
    3c2c:	81 ed       	ldi	r24, 0xD1	; 209
    3c2e:	99 e7       	ldi	r25, 0x79	; 121
    3c30:	80 93 20 39 	sts	0x3920, r24	; 0x803920 <reactStr+0x2>
    3c34:	90 93 21 39 	sts	0x3921, r25	; 0x803921 <reactStr+0x3>
    reactStr[1][number]=length;
    3c38:	8a e1       	ldi	r24, 0x1A	; 26
    3c3a:	90 e0       	ldi	r25, 0x00	; 0
    3c3c:	45 c9       	rjmp	.-3446   	; 0x2ec8 <ProcessInput+0x1aa>

        //Drop item if in inventory
        if (data[0] == 'd') {
            if ((inventory[0] == 0)&&(inventory[1] == 0)){
                SetResponse(elements++, A_EMPTYHANDS, L_EMPTYHANDS, TEASER);
            } else if (inputLen != 2) {
    3c3e:	f2 e0       	ldi	r31, 0x02	; 2
    3c40:	ff 12       	cpse	r15, r31
    3c42:	ad c8       	rjmp	.-3750   	; 0x2d9e <ProcessInput+0x80>
                SetResponse(elements++, A_NOTPOSSIBLE, L_NOTPOSSIBLE, TEASER);
            } else {
                for (uint8_t x=0; x<2; ++x) {
                    if (inventory[x]) {
                        if (CheckLetter(inventory[x], data[1])) {
    3c44:	f3 01       	movw	r30, r6
    3c46:	61 81       	ldd	r22, Z+1	; 0x01
    3c48:	0e 94 73 12 	call	0x24e6	; 0x24e6 <CheckLetter>
    3c4c:	88 23       	and	r24, r24
    3c4e:	09 f4       	brne	.+2      	; 0x3c52 <ProcessInput+0xf34>
    3c50:	58 c0       	rjmp	.+176    	; 0x3d02 <ProcessInput+0xfe4>
                SetResponse(elements++, A_EMPTYHANDS, L_EMPTYHANDS, TEASER);
            } else if (inputLen != 2) {
                SetResponse(elements++, A_NOTPOSSIBLE, L_NOTPOSSIBLE, TEASER);
            } else {
                for (uint8_t x=0; x<2; ++x) {
                    if (inventory[x]) {
    3c52:	00 e0       	ldi	r16, 0x00	; 0
    3c54:	10 e0       	ldi	r17, 0x00	; 0
                        if (CheckLetter(inventory[x], data[1])) {
                            PopulateObject(inventory[x], &actObj1);
    3c56:	00 0f       	add	r16, r16
    3c58:	11 1f       	adc	r17, r17
    3c5a:	00 5c       	subi	r16, 0xC0	; 192
    3c5c:	17 4c       	sbci	r17, 0xC7	; 199
    3c5e:	6d ed       	ldi	r22, 0xDD	; 221
    3c60:	78 e3       	ldi	r23, 0x38	; 56
    3c62:	d8 01       	movw	r26, r16
    3c64:	8d 91       	ld	r24, X+
    3c66:	9c 91       	ld	r25, X
    3c68:	0e 94 fa 11 	call	0x23f4	; 0x23f4 <PopulateObject>
    return 0;
}

//
void SetResponse(uint8_t number, uint16_t address, uint16_t length, uint8_t type){
    reactStr[0][number]=address;
    3c6c:	86 e9       	ldi	r24, 0x96	; 150
    3c6e:	97 e7       	ldi	r25, 0x77	; 119
    3c70:	80 93 20 39 	sts	0x3920, r24	; 0x803920 <reactStr+0x2>
    3c74:	90 93 21 39 	sts	0x3921, r25	; 0x803921 <reactStr+0x3>
    reactStr[1][number]=length;
    3c78:	80 e1       	ldi	r24, 0x10	; 16
    3c7a:	90 e0       	ldi	r25, 0x00	; 0
    3c7c:	80 93 60 39 	sts	0x3960, r24	; 0x803960 <reactStr+0x42>
    3c80:	90 93 61 39 	sts	0x3961, r25	; 0x803961 <reactStr+0x43>
    reactStr[2][number]=type;
    3c84:	81 e0       	ldi	r24, 0x01	; 1
    3c86:	90 e0       	ldi	r25, 0x00	; 0
    3c88:	80 93 a0 39 	sts	0x39A0, r24	; 0x8039a0 <reactStr+0x82>
    3c8c:	90 93 a1 39 	sts	0x39A1, r25	; 0x8039a1 <reactStr+0x83>
                for (uint8_t x=0; x<2; ++x) {
                    if (inventory[x]) {
                        if (CheckLetter(inventory[x], data[1])) {
                            PopulateObject(inventory[x], &actObj1);
                            SetResponse(elements++, A_DROPPING, L_DROPPING, TEASER);
                            SetResponse(elements++, actObj1.addrStr[NAME], actObj1.lenStr[NAME], GAME);
    3c90:	20 91 f7 38 	lds	r18, 0x38F7	; 0x8038f7 <actObj1.3989+0x1a>
    3c94:	30 91 f8 38 	lds	r19, 0x38F8	; 0x8038f8 <actObj1.3989+0x1b>
    return 0;
}

//
void SetResponse(uint8_t number, uint16_t address, uint16_t length, uint8_t type){
    reactStr[0][number]=address;
    3c98:	40 91 e9 38 	lds	r20, 0x38E9	; 0x8038e9 <actObj1.3989+0xc>
    3c9c:	50 91 ea 38 	lds	r21, 0x38EA	; 0x8038ea <actObj1.3989+0xd>
    3ca0:	40 93 22 39 	sts	0x3922, r20	; 0x803922 <reactStr+0x4>
    3ca4:	50 93 23 39 	sts	0x3923, r21	; 0x803923 <reactStr+0x5>
    reactStr[1][number]=length;
    3ca8:	20 93 62 39 	sts	0x3962, r18	; 0x803962 <reactStr+0x44>
    3cac:	30 93 63 39 	sts	0x3963, r19	; 0x803963 <reactStr+0x45>
    reactStr[2][number]=type;
    3cb0:	10 92 a2 39 	sts	0x39A2, r1	; 0x8039a2 <reactStr+0x84>
    3cb4:	10 92 a3 39 	sts	0x39A3, r1	; 0x8039a3 <reactStr+0x85>
    return 0;
}

//
void SetResponse(uint8_t number, uint16_t address, uint16_t length, uint8_t type){
    reactStr[0][number]=address;
    3cb8:	29 e5       	ldi	r18, 0x59	; 89
    3cba:	3a e7       	ldi	r19, 0x7A	; 122
    3cbc:	20 93 24 39 	sts	0x3924, r18	; 0x803924 <reactStr+0x6>
    3cc0:	30 93 25 39 	sts	0x3925, r19	; 0x803925 <reactStr+0x7>
    reactStr[1][number]=length;
    3cc4:	22 e0       	ldi	r18, 0x02	; 2
    3cc6:	30 e0       	ldi	r19, 0x00	; 0
    3cc8:	20 93 64 39 	sts	0x3964, r18	; 0x803964 <reactStr+0x46>
    3ccc:	30 93 65 39 	sts	0x3965, r19	; 0x803965 <reactStr+0x47>
    reactStr[2][number]=type;
    3cd0:	80 93 a4 39 	sts	0x39A4, r24	; 0x8039a4 <reactStr+0x86>
    3cd4:	90 93 a5 39 	sts	0x39A5, r25	; 0x8039a5 <reactStr+0x87>
    return 0;
}

//
void SetResponse(uint8_t number, uint16_t address, uint16_t length, uint8_t type){
    reactStr[0][number]=address;
    3cd8:	29 e5       	ldi	r18, 0x59	; 89
    3cda:	37 e7       	ldi	r19, 0x77	; 119
    3cdc:	20 93 26 39 	sts	0x3926, r18	; 0x803926 <reactStr+0x8>
    3ce0:	30 93 27 39 	sts	0x3927, r19	; 0x803927 <reactStr+0x9>
    reactStr[1][number]=length;
    3ce4:	2d e3       	ldi	r18, 0x3D	; 61
    3ce6:	30 e0       	ldi	r19, 0x00	; 0
    3ce8:	20 93 66 39 	sts	0x3966, r18	; 0x803966 <reactStr+0x48>
    3cec:	30 93 67 39 	sts	0x3967, r19	; 0x803967 <reactStr+0x49>
    reactStr[2][number]=type;
    3cf0:	80 93 a6 39 	sts	0x39A6, r24	; 0x8039a6 <reactStr+0x88>
    3cf4:	90 93 a7 39 	sts	0x39A7, r25	; 0x8039a7 <reactStr+0x89>
                            PopulateObject(inventory[x], &actObj1);
                            SetResponse(elements++, A_DROPPING, L_DROPPING, TEASER);
                            SetResponse(elements++, actObj1.addrStr[NAME], actObj1.lenStr[NAME], GAME);
                            SetResponse(elements++, A_LF, 2, TEASER);
                            SetResponse(elements++, A_RETURNING, L_RETURNING, TEASER);
                            inventory[x] = 0;
    3cf8:	f8 01       	movw	r30, r16
    3cfa:	10 82       	st	Z, r1
    3cfc:	11 82       	std	Z+1, r1	; 0x01
                        if (CheckLetter(inventory[x], data[1])) {
                            PopulateObject(inventory[x], &actObj1);
                            SetResponse(elements++, A_DROPPING, L_DROPPING, TEASER);
                            SetResponse(elements++, actObj1.addrStr[NAME], actObj1.lenStr[NAME], GAME);
                            SetResponse(elements++, A_LF, 2, TEASER);
                            SetResponse(elements++, A_RETURNING, L_RETURNING, TEASER);
    3cfe:	15 e0       	ldi	r17, 0x05	; 5
                            inventory[x] = 0;
                            break;
    3d00:	86 cf       	rjmp	.-244    	; 0x3c0e <ProcessInput+0xef0>
                SetResponse(elements++, A_EMPTYHANDS, L_EMPTYHANDS, TEASER);
            } else if (inputLen != 2) {
                SetResponse(elements++, A_NOTPOSSIBLE, L_NOTPOSSIBLE, TEASER);
            } else {
                for (uint8_t x=0; x<2; ++x) {
                    if (inventory[x]) {
    3d02:	80 91 42 38 	lds	r24, 0x3842	; 0x803842 <inventory+0x2>
    3d06:	90 91 43 38 	lds	r25, 0x3843	; 0x803843 <inventory+0x3>
    3d0a:	00 97       	sbiw	r24, 0x00	; 0
    3d0c:	49 f0       	breq	.+18     	; 0x3d20 <ProcessInput+0x1002>
                        if (CheckLetter(inventory[x], data[1])) {
    3d0e:	f3 01       	movw	r30, r6
    3d10:	61 81       	ldd	r22, Z+1	; 0x01
    3d12:	0e 94 73 12 	call	0x24e6	; 0x24e6 <CheckLetter>
    3d16:	88 23       	and	r24, r24
    3d18:	19 f0       	breq	.+6      	; 0x3d20 <ProcessInput+0x1002>
                SetResponse(elements++, A_EMPTYHANDS, L_EMPTYHANDS, TEASER);
            } else if (inputLen != 2) {
                SetResponse(elements++, A_NOTPOSSIBLE, L_NOTPOSSIBLE, TEASER);
            } else {
                for (uint8_t x=0; x<2; ++x) {
                    if (inventory[x]) {
    3d1a:	01 e0       	ldi	r16, 0x01	; 1
    3d1c:	10 e0       	ldi	r17, 0x00	; 0
    3d1e:	9b cf       	rjmp	.-202    	; 0x3c56 <ProcessInput+0xf38>
    return 0;
}

//
void SetResponse(uint8_t number, uint16_t address, uint16_t length, uint8_t type){
    reactStr[0][number]=address;
    3d20:	81 e6       	ldi	r24, 0x61	; 97
    3d22:	99 e7       	ldi	r25, 0x79	; 121
    3d24:	80 93 20 39 	sts	0x3920, r24	; 0x803920 <reactStr+0x2>
    3d28:	90 93 21 39 	sts	0x3921, r25	; 0x803921 <reactStr+0x3>
    reactStr[1][number]=length;
    3d2c:	81 e2       	ldi	r24, 0x21	; 33
    3d2e:	90 e0       	ldi	r25, 0x00	; 0
    3d30:	cb c8       	rjmp	.-3690   	; 0x2ec8 <ProcessInput+0x1aa>
    } else {

        responseList = SetStandardResponse(1);
    }

    data[0] = 0;
    3d32:	f3 01       	movw	r30, r6
    3d34:	10 82       	st	Z, r1
    serRxDone = 0;
    3d36:	10 92 46 38 	sts	0x3846, r1	; 0x803846 <serRxDone>
    RXCNT = 0;    
    3d3a:	1d ba       	out	0x1d, r1	; 29
    return 0;
}
    3d3c:	80 e0       	ldi	r24, 0x00	; 0
    3d3e:	28 96       	adiw	r28, 0x08	; 8
    3d40:	cd bf       	out	0x3d, r28	; 61
    3d42:	de bf       	out	0x3e, r29	; 62
    3d44:	df 91       	pop	r29
    3d46:	cf 91       	pop	r28
    3d48:	1f 91       	pop	r17
    3d4a:	0f 91       	pop	r16
    3d4c:	ff 90       	pop	r15
    3d4e:	ef 90       	pop	r14
    3d50:	df 90       	pop	r13
    3d52:	cf 90       	pop	r12
    3d54:	bf 90       	pop	r11
    3d56:	af 90       	pop	r10
    3d58:	9f 90       	pop	r9
    3d5a:	8f 90       	pop	r8
    3d5c:	7f 90       	pop	r7
    3d5e:	6f 90       	pop	r6
    3d60:	08 95       	ret

00003d62 <TextAdventure>:


//MAIN GAME STRUCTURE
uint8_t TextAdventure(){
    3d62:	cf 93       	push	r28
    static uint8_t serInput[RXLEN];
    uint16_t PunishmentCount;
    
    /* Count down PunishmentTime on WING LEDs */
    if (PunishmentTime != 0) {
    3d64:	80 91 0a 39 	lds	r24, 0x390A	; 0x80390a <PunishmentTime>
    3d68:	90 91 0b 39 	lds	r25, 0x390B	; 0x80390b <PunishmentTime+0x1>
    3d6c:	89 2b       	or	r24, r25
    3d6e:	09 f1       	breq	.+66     	; 0x3db2 <TextAdventure+0x50>
        PunishmentCount = getClock();
    3d70:	0e 94 2e 0e 	call	0x1c5c	; 0x1c5c <getClock>
        if (PunishmentCount < PunishmentTime)
    3d74:	20 91 0a 39 	lds	r18, 0x390A	; 0x80390a <PunishmentTime>
    3d78:	30 91 0b 39 	lds	r19, 0x390B	; 0x80390b <PunishmentTime+0x1>
    3d7c:	82 17       	cp	r24, r18
    3d7e:	93 07       	cpc	r25, r19
    3d80:	08 f4       	brcc	.+2      	; 0x3d84 <TextAdventure+0x22>
            PunishmentCount += 256 * 60;
    3d82:	94 5c       	subi	r25, 0xC4	; 196
        PunishmentCount -= PunishmentTime;
    3d84:	ac 01       	movw	r20, r24
    3d86:	42 1b       	sub	r20, r18
    3d88:	53 0b       	sbc	r21, r19
    3d8a:	9a 01       	movw	r18, r20
        if (PunishmentCount > 10) {
    3d8c:	4b 30       	cpi	r20, 0x0B	; 11
    3d8e:	51 05       	cpc	r21, r1
    3d90:	30 f0       	brcs	.+12     	; 0x3d9e <TextAdventure+0x3c>
            PunishmentTime = 0;
    3d92:	10 92 0a 39 	sts	0x390A, r1	; 0x80390a <PunishmentTime>
    3d96:	10 92 0b 39 	sts	0x390B, r1	; 0x80390b <PunishmentTime+0x1>
            PunishmentCount = 10;
    3d9a:	2a e0       	ldi	r18, 0x0A	; 10
    3d9c:	30 e0       	ldi	r19, 0x00	; 0
        }
        if (gameNow == TEXT ) {
    3d9e:	80 91 3e 38 	lds	r24, 0x383E	; 0x80383e <gameNow>
    3da2:	81 11       	cpse	r24, r1
    3da4:	06 c0       	rjmp	.+12     	; 0x3db2 <TextAdventure+0x50>
            WingBar(10-PunishmentCount,5-PunishmentCount);
    3da6:	65 e0       	ldi	r22, 0x05	; 5
    3da8:	62 1b       	sub	r22, r18
    3daa:	8a e0       	ldi	r24, 0x0A	; 10
    3dac:	82 1b       	sub	r24, r18
    3dae:	0e 94 e7 0a 	call	0x15ce	; 0x15ce <WingBar>
        }
    }

    //Still sending data to serial?
    if (CheckSend()) return 1;
    3db2:	0e 94 58 13 	call	0x26b0	; 0x26b0 <CheckSend>
    3db6:	88 23       	and	r24, r24
    3db8:	11 f0       	breq	.+4      	; 0x3dbe <TextAdventure+0x5c>
    3dba:	c1 e0       	ldi	r28, 0x01	; 1
    3dbc:	18 c0       	rjmp	.+48     	; 0x3dee <TextAdventure+0x8c>

    //Not sending? Process next response part to send, if any.
    if (CheckResponse()) return 1;        
    3dbe:	0e 94 ae 13 	call	0x275c	; 0x275c <CheckResponse>
    3dc2:	c8 2f       	mov	r28, r24
    3dc4:	81 11       	cpse	r24, r1
    3dc6:	f9 cf       	rjmp	.-14     	; 0x3dba <TextAdventure+0x58>

    if (PunishmentTime == 0) {
    3dc8:	80 91 0a 39 	lds	r24, 0x390A	; 0x80390a <PunishmentTime>
    3dcc:	90 91 0b 39 	lds	r25, 0x390B	; 0x80390b <PunishmentTime+0x1>
    3dd0:	89 2b       	or	r24, r25
    3dd2:	69 f4       	brne	.+26     	; 0x3dee <TextAdventure+0x8c>
        //No responses to send, check if there is user input.
        if (CheckInput(&serInput[0])) return 2; 
    3dd4:	81 e7       	ldi	r24, 0x71	; 113
    3dd6:	98 e3       	ldi	r25, 0x38	; 56
    3dd8:	0e 94 ee 13 	call	0x27dc	; 0x27dc <CheckInput>
    3ddc:	c8 2f       	mov	r28, r24
    3dde:	81 11       	cpse	r24, r1
    3de0:	05 c0       	rjmp	.+10     	; 0x3dec <TextAdventure+0x8a>

        //Input found, process and save (changes only)
        ProcessInput(&serInput[0]);
    3de2:	81 e7       	ldi	r24, 0x71	; 113
    3de4:	98 e3       	ldi	r25, 0x38	; 56
    3de6:	0e 94 8f 16 	call	0x2d1e	; 0x2d1e <ProcessInput>
    3dea:	01 c0       	rjmp	.+2      	; 0x3dee <TextAdventure+0x8c>
    //Not sending? Process next response part to send, if any.
    if (CheckResponse()) return 1;        

    if (PunishmentTime == 0) {
        //No responses to send, check if there is user input.
        if (CheckInput(&serInput[0])) return 2; 
    3dec:	c2 e0       	ldi	r28, 0x02	; 2
        //Input found, process and save (changes only)
        ProcessInput(&serInput[0]);
    }

    return 0;
}
    3dee:	8c 2f       	mov	r24, r28
    3df0:	cf 91       	pop	r28
    3df2:	08 95       	ret

00003df4 <main>:


//This is where it begins, inits first and main program in while(1) loop.
int main(void)
{
    Setup();
    3df4:	0e 94 c3 04 	call	0x986	; 0x986 <Setup>
    LoadGameState();
    3df8:	0e 94 55 0a 	call	0x14aa	; 0x14aa <LoadGameState>
    gameState[0]|=1;
    3dfc:	80 91 64 3a 	lds	r24, 0x3A64	; 0x803a64 <gameState>
    3e00:	81 60       	ori	r24, 0x01	; 1
    3e02:	80 93 64 3a 	sts	0x3A64, r24	; 0x803a64 <gameState>
    SelfTest();
    3e06:	0e 94 55 0e 	call	0x1caa	; 0x1caa <SelfTest>
            if (adcPhot < 10) UpdateState(116);
            if (adcPhot > 100) UpdateState(128+116);

            dimValueSum -= (dimValueSum>>6);
            dimValueSum += 256;
            dimValueSum -= QSINE[31-(adcPhot>>7)];
    3e0a:	cf e1       	ldi	r28, 0x1F	; 31
    3e0c:	d0 e0       	ldi	r29, 0x00	; 0
    LoadGameState();
    gameState[0]|=1;
    SelfTest();

    while (TRUE) {
        if (GenerateAudio()) {
    3e0e:	0e 94 b7 0c 	call	0x196e	; 0x196e <GenerateAudio>
    3e12:	88 23       	and	r24, r24
    3e14:	e1 f3       	breq	.-8      	; 0x3e0e <main+0x1a>
            lastButtonState = buttonState;
    3e16:	80 91 08 38 	lds	r24, 0x3808	; 0x803808 <buttonState>
    3e1a:	80 93 07 38 	sts	0x3807, r24	; 0x803807 <lastButtonState>
            buttonState = CheckButtons();
    3e1e:	0e 94 bf 08 	call	0x117e	; 0x117e <CheckButtons>
    3e22:	80 93 08 38 	sts	0x3808, r24	; 0x803808 <buttonState>
            buttonMark = 0;
    3e26:	10 92 44 38 	sts	0x3844, r1	; 0x803844 <buttonMark>

            if (VREF_CTRLA == 0x12) SelectAuIn(); else SelectTSens();
    3e2a:	80 91 a0 00 	lds	r24, 0x00A0	; 0x8000a0 <__TEXT_REGION_LENGTH__+0x7000a0>
    3e2e:	82 31       	cpi	r24, 0x12	; 18
    3e30:	19 f4       	brne	.+6      	; 0x3e38 <main+0x44>
    3e32:	0e 94 b0 08 	call	0x1160	; 0x1160 <SelectAuIn>
    3e36:	02 c0       	rjmp	.+4      	; 0x3e3c <main+0x48>
    3e38:	0e 94 a1 08 	call	0x1142	; 0x1142 <SelectTSens>

            GenerateBlinks();
    3e3c:	0e 94 3c 0b 	call	0x1678	; 0x1678 <GenerateBlinks>

            //Main game, to complete: Finish sub-game MagnetMaze and MakeFriends too.
            TextAdventure();
    3e40:	90 df       	rcall	.-224    	; 0x3d62 <TextAdventure>

            //Other games & user interaction checks
            MagnetMaze();
    3e42:	0e 94 c6 03 	call	0x78c	; 0x78c <MagnetMaze>
            LanyardCode();
    3e46:	0e 94 ce 02 	call	0x59c	; 0x59c <LanyardCode>
            BastetDictates();
    3e4a:	0e 94 54 0f 	call	0x1ea8	; 0x1ea8 <BastetDictates>
            MakeFriends();
    3e4e:	0e 94 7d 00 	call	0xfa	; 0xfa <MakeFriends>

            //Save progress
            SaveGameState();
    3e52:	0e 94 70 09 	call	0x12e0	; 0x12e0 <SaveGameState>

            //Check light sensor status (added hysteresis to preserve writing cycles to internal EEPROM)
            if (adcPhot < 10) UpdateState(116);
    3e56:	80 91 c0 3a 	lds	r24, 0x3AC0	; 0x803ac0 <adcPhot>
    3e5a:	90 91 c1 3a 	lds	r25, 0x3AC1	; 0x803ac1 <adcPhot+0x1>
    3e5e:	0a 97       	sbiw	r24, 0x0a	; 10
    3e60:	18 f4       	brcc	.+6      	; 0x3e68 <main+0x74>
    3e62:	84 e7       	ldi	r24, 0x74	; 116
    3e64:	0e 94 f7 09 	call	0x13ee	; 0x13ee <UpdateState>
            if (adcPhot > 100) UpdateState(128+116);
    3e68:	80 91 c0 3a 	lds	r24, 0x3AC0	; 0x803ac0 <adcPhot>
    3e6c:	90 91 c1 3a 	lds	r25, 0x3AC1	; 0x803ac1 <adcPhot+0x1>
    3e70:	85 36       	cpi	r24, 0x65	; 101
    3e72:	91 05       	cpc	r25, r1
    3e74:	18 f0       	brcs	.+6      	; 0x3e7c <main+0x88>
    3e76:	84 ef       	ldi	r24, 0xF4	; 244
    3e78:	0e 94 f7 09 	call	0x13ee	; 0x13ee <UpdateState>

            dimValueSum -= (dimValueSum>>6);
    3e7c:	20 91 0a 38 	lds	r18, 0x380A	; 0x80380a <dimValueSum>
    3e80:	30 91 0b 38 	lds	r19, 0x380B	; 0x80380b <dimValueSum+0x1>
    3e84:	80 91 0a 38 	lds	r24, 0x380A	; 0x80380a <dimValueSum>
    3e88:	90 91 0b 38 	lds	r25, 0x380B	; 0x80380b <dimValueSum+0x1>
    3e8c:	46 e0       	ldi	r20, 0x06	; 6
    3e8e:	36 95       	lsr	r19
    3e90:	27 95       	ror	r18
    3e92:	4a 95       	dec	r20
    3e94:	e1 f7       	brne	.-8      	; 0x3e8e <main+0x9a>
    3e96:	82 1b       	sub	r24, r18
    3e98:	93 0b       	sbc	r25, r19
    3e9a:	80 93 0a 38 	sts	0x380A, r24	; 0x80380a <dimValueSum>
    3e9e:	90 93 0b 38 	sts	0x380B, r25	; 0x80380b <dimValueSum+0x1>
            dimValueSum += 256;
    3ea2:	80 91 0a 38 	lds	r24, 0x380A	; 0x80380a <dimValueSum>
    3ea6:	90 91 0b 38 	lds	r25, 0x380B	; 0x80380b <dimValueSum+0x1>
    3eaa:	93 95       	inc	r25
    3eac:	80 93 0a 38 	sts	0x380A, r24	; 0x80380a <dimValueSum>
    3eb0:	90 93 0b 38 	sts	0x380B, r25	; 0x80380b <dimValueSum+0x1>
            dimValueSum -= QSINE[31-(adcPhot>>7)];
    3eb4:	20 91 c0 3a 	lds	r18, 0x3AC0	; 0x803ac0 <adcPhot>
    3eb8:	30 91 c1 3a 	lds	r19, 0x3AC1	; 0x803ac1 <adcPhot+0x1>
    3ebc:	80 91 0a 38 	lds	r24, 0x380A	; 0x80380a <dimValueSum>
    3ec0:	90 91 0b 38 	lds	r25, 0x380B	; 0x80380b <dimValueSum+0x1>
    3ec4:	22 0f       	add	r18, r18
    3ec6:	23 2f       	mov	r18, r19
    3ec8:	22 1f       	adc	r18, r18
    3eca:	33 0b       	sbc	r19, r19
    3ecc:	31 95       	neg	r19
    3ece:	fe 01       	movw	r30, r28
    3ed0:	e2 1b       	sub	r30, r18
    3ed2:	f3 0b       	sbc	r31, r19
    3ed4:	e8 5a       	subi	r30, 0xA8	; 168
    3ed6:	f0 44       	sbci	r31, 0x40	; 64
    3ed8:	20 81       	ld	r18, Z
    3eda:	82 1b       	sub	r24, r18
    3edc:	91 09       	sbc	r25, r1
    3ede:	80 93 0a 38 	sts	0x380A, r24	; 0x80380a <dimValueSum>
    3ee2:	90 93 0b 38 	sts	0x380B, r25	; 0x80380b <dimValueSum+0x1>
            dimValue     = dimValueSum>>6;
    3ee6:	80 91 0a 38 	lds	r24, 0x380A	; 0x80380a <dimValueSum>
    3eea:	90 91 0b 38 	lds	r25, 0x380B	; 0x80380b <dimValueSum+0x1>
    3eee:	66 e0       	ldi	r22, 0x06	; 6
    3ef0:	96 95       	lsr	r25
    3ef2:	87 95       	ror	r24
    3ef4:	6a 95       	dec	r22
    3ef6:	e1 f7       	brne	.-8      	; 0x3ef0 <main+0xfc>
    3ef8:	80 93 0c 38 	sts	0x380C, r24	; 0x80380c <dimValue>

            //Check temperature
            HotSummer();
    3efc:	0e 94 82 0a 	call	0x1504	; 0x1504 <HotSummer>
    3f00:	86 cf       	rjmp	.-244    	; 0x3e0e <main+0x1a>

00003f02 <__tablejump2__>:
    3f02:	ee 0f       	add	r30, r30
    3f04:	ff 1f       	adc	r31, r31
    3f06:	05 90       	lpm	r0, Z+
    3f08:	f4 91       	lpm	r31, Z
    3f0a:	e0 2d       	mov	r30, r0
    3f0c:	09 94       	ijmp

00003f0e <_exit>:
    3f0e:	f8 94       	cli

00003f10 <__stop_program>:
    3f10:	ff cf       	rjmp	.-2      	; 0x3f10 <__stop_program>
