
ISR_IO.elf:     file format elf32-avr

Sections:
Idx Name          Size      VMA       LMA       File off  Algn
  0 .data         00000016  00803800  0000186c  00001920  2**0
                  CONTENTS, ALLOC, LOAD, DATA
  1 .text         00001828  00000000  00000000  000000b4  2**1
                  CONTENTS, ALLOC, LOAD, READONLY, CODE
  2 .rodata       00000044  00009828  00001828  000018dc  2**0
                  CONTENTS, ALLOC, LOAD, READONLY, DATA
  3 .bss          000001ff  00803816  00803816  00001936  2**0
                  ALLOC
  4 .comment      00000030  00000000  00000000  00001936  2**0
                  CONTENTS, READONLY
  5 .note.gnu.avr.deviceinfo 00000040  00000000  00000000  00001968  2**2
                  CONTENTS, READONLY
  6 .debug_aranges 00000230  00000000  00000000  000019a8  2**0
                  CONTENTS, READONLY, DEBUGGING
  7 .debug_info   0000412f  00000000  00000000  00001bd8  2**0
                  CONTENTS, READONLY, DEBUGGING
  8 .debug_abbrev 00002263  00000000  00000000  00005d07  2**0
                  CONTENTS, READONLY, DEBUGGING
  9 .debug_line   00001c01  00000000  00000000  00007f6a  2**0
                  CONTENTS, READONLY, DEBUGGING
 10 .debug_frame  0000076c  00000000  00000000  00009b6c  2**2
                  CONTENTS, READONLY, DEBUGGING
 11 .debug_str    000016b3  00000000  00000000  0000a2d8  2**0
                  CONTENTS, READONLY, DEBUGGING
 12 .debug_loc    0000233a  00000000  00000000  0000b98b  2**0
                  CONTENTS, READONLY, DEBUGGING
 13 .debug_ranges 00000250  00000000  00000000  0000dcc5  2**0
                  CONTENTS, READONLY, DEBUGGING

Disassembly of section .text:

00000000 <__vectors>:
       0:	3d c0       	rjmp	.+122    	; 0x7c <__ctors_end>
       2:	00 00       	nop
       4:	58 c0       	rjmp	.+176    	; 0xb6 <__bad_interrupt>
       6:	00 00       	nop
       8:	56 c0       	rjmp	.+172    	; 0xb6 <__bad_interrupt>
       a:	00 00       	nop
       c:	54 c0       	rjmp	.+168    	; 0xb6 <__bad_interrupt>
       e:	00 00       	nop
      10:	52 c0       	rjmp	.+164    	; 0xb6 <__bad_interrupt>
      12:	00 00       	nop
      14:	50 c0       	rjmp	.+160    	; 0xb6 <__bad_interrupt>
      16:	00 00       	nop
      18:	24 c4       	rjmp	.+2120   	; 0x862 <__vector_6>
      1a:	00 00       	nop
      1c:	76 c4       	rjmp	.+2284   	; 0x90a <__vector_7>
      1e:	00 00       	nop
      20:	78 c2       	rjmp	.+1264   	; 0x512 <__vector_8>
      22:	00 00       	nop
      24:	48 c0       	rjmp	.+144    	; 0xb6 <__bad_interrupt>
      26:	00 00       	nop
      28:	46 c0       	rjmp	.+140    	; 0xb6 <__bad_interrupt>
      2a:	00 00       	nop
      2c:	44 c0       	rjmp	.+136    	; 0xb6 <__bad_interrupt>
      2e:	00 00       	nop
      30:	42 c0       	rjmp	.+132    	; 0xb6 <__bad_interrupt>
      32:	00 00       	nop
      34:	c2 c2       	rjmp	.+1412   	; 0x5ba <__vector_13>
      36:	00 00       	nop
      38:	f3 c2       	rjmp	.+1510   	; 0x620 <__vector_14>
      3a:	00 00       	nop
      3c:	3c c0       	rjmp	.+120    	; 0xb6 <__bad_interrupt>
      3e:	00 00       	nop
      40:	3a c0       	rjmp	.+116    	; 0xb6 <__bad_interrupt>
      42:	00 00       	nop
      44:	38 c0       	rjmp	.+112    	; 0xb6 <__bad_interrupt>
      46:	00 00       	nop
      48:	36 c0       	rjmp	.+108    	; 0xb6 <__bad_interrupt>
      4a:	00 00       	nop
      4c:	34 c0       	rjmp	.+104    	; 0xb6 <__bad_interrupt>
      4e:	00 00       	nop
      50:	8a c3       	rjmp	.+1812   	; 0x766 <__vector_20>
      52:	00 00       	nop
      54:	30 c0       	rjmp	.+96     	; 0xb6 <__bad_interrupt>
      56:	00 00       	nop
      58:	b4 c3       	rjmp	.+1896   	; 0x7c2 <__vector_22>
      5a:	00 00       	nop
      5c:	2c c0       	rjmp	.+88     	; 0xb6 <__bad_interrupt>
      5e:	00 00       	nop
      60:	2a c0       	rjmp	.+84     	; 0xb6 <__bad_interrupt>
      62:	00 00       	nop
      64:	28 c0       	rjmp	.+80     	; 0xb6 <__bad_interrupt>
      66:	00 00       	nop
      68:	26 c0       	rjmp	.+76     	; 0xb6 <__bad_interrupt>
      6a:	00 00       	nop
      6c:	2c c3       	rjmp	.+1624   	; 0x6c6 <__vector_27>
      6e:	00 00       	nop
      70:	5e c3       	rjmp	.+1724   	; 0x72e <__vector_28>
      72:	00 00       	nop
      74:	20 c0       	rjmp	.+64     	; 0xb6 <__bad_interrupt>
      76:	00 00       	nop
      78:	1e c0       	rjmp	.+60     	; 0xb6 <__bad_interrupt>
	...

0000007c <__ctors_end>:
      7c:	11 24       	eor	r1, r1
      7e:	1f be       	out	0x3f, r1	; 63
      80:	cf ef       	ldi	r28, 0xFF	; 255
      82:	cd bf       	out	0x3d, r28	; 61
      84:	df e3       	ldi	r29, 0x3F	; 63
      86:	de bf       	out	0x3e, r29	; 62

00000088 <__do_copy_data>:
      88:	18 e3       	ldi	r17, 0x38	; 56
      8a:	a0 e0       	ldi	r26, 0x00	; 0
      8c:	b8 e3       	ldi	r27, 0x38	; 56
      8e:	ec e6       	ldi	r30, 0x6C	; 108
      90:	f8 e1       	ldi	r31, 0x18	; 24
      92:	02 c0       	rjmp	.+4      	; 0x98 <__do_copy_data+0x10>
      94:	05 90       	lpm	r0, Z+
      96:	0d 92       	st	X+, r0
      98:	a6 31       	cpi	r26, 0x16	; 22
      9a:	b1 07       	cpc	r27, r17
      9c:	d9 f7       	brne	.-10     	; 0x94 <__do_copy_data+0xc>

0000009e <__do_clear_bss>:
      9e:	2a e3       	ldi	r18, 0x3A	; 58
      a0:	a6 e1       	ldi	r26, 0x16	; 22
      a2:	b8 e3       	ldi	r27, 0x38	; 56
      a4:	01 c0       	rjmp	.+2      	; 0xa8 <.do_clear_bss_start>

000000a6 <.do_clear_bss_loop>:
      a6:	1d 92       	st	X+, r1

000000a8 <.do_clear_bss_start>:
      a8:	a5 31       	cpi	r26, 0x15	; 21
      aa:	b2 07       	cpc	r27, r18
      ac:	e1 f7       	brne	.-8      	; 0xa6 <.do_clear_bss_loop>
      ae:	0e 94 90 0b 	call	0x1720	; 0x1720 <main>
      b2:	0c 94 12 0c 	jmp	0x1824	; 0x1824 <_exit>

000000b6 <__bad_interrupt>:
      b6:	a4 cf       	rjmp	.-184    	; 0x0 <__vectors>

000000b8 <I2C_init>:
// the Atmel device documentation mentions a special command for repeated start TWI_MCMD_REPSTART_gc,
// but this is not used in Atmel's demo code, so we don't use it either

void I2C_rep_start(uint8_t shifted_addr)						    // send repeated start, device_addr + LSB set if READ
{
	TWI0.MADDR = shifted_addr;	
      b8:	81 e0       	ldi	r24, 0x01	; 1
      ba:	80 93 22 04 	sts	0x0422, r24	; 0x800422 <__TEXT_REGION_LENGTH__+0x700422>
      be:	e6 e2       	ldi	r30, 0x26	; 38
      c0:	f4 e0       	ldi	r31, 0x04	; 4
      c2:	80 83       	st	Z, r24
      c4:	10 92 30 04 	sts	0x0430, r1	; 0x800430 <__TEXT_REGION_LENGTH__+0x700430>
      c8:	a1 e2       	ldi	r26, 0x21	; 33
      ca:	b4 e0       	ldi	r27, 0x04	; 4
      cc:	92 e0       	ldi	r25, 0x02	; 2
      ce:	9c 93       	st	X, r25
      d0:	90 83       	st	Z, r25
      d2:	10 92 31 04 	sts	0x0431, r1	; 0x800431 <__TEXT_REGION_LENGTH__+0x700431>
      d6:	e0 e1       	ldi	r30, 0x10	; 16
      d8:	f8 e0       	ldi	r31, 0x08	; 8
      da:	9d e2       	ldi	r25, 0x2D	; 45
      dc:	96 83       	std	Z+6, r25	; 0x06
      de:	98 e0       	ldi	r25, 0x08	; 8
      e0:	94 83       	std	Z+4, r25	; 0x04
      e2:	83 83       	std	Z+3, r24	; 0x03
      e4:	8c 93       	st	X, r24
      e6:	85 81       	ldd	r24, Z+5	; 0x05
      e8:	81 60       	ori	r24, 0x01	; 1
      ea:	85 83       	std	Z+5, r24	; 0x05
      ec:	85 81       	ldd	r24, Z+5	; 0x05
      ee:	84 6c       	ori	r24, 0xC4	; 196
      f0:	85 83       	std	Z+5, r24	; 0x05
      f2:	08 95       	ret

000000f4 <I2C_recover>:
      f4:	e0 e1       	ldi	r30, 0x10	; 16
      f6:	f8 e0       	ldi	r31, 0x08	; 8
      f8:	84 81       	ldd	r24, Z+4	; 0x04
      fa:	88 60       	ori	r24, 0x08	; 8
      fc:	84 83       	std	Z+4, r24	; 0x04
      fe:	13 82       	std	Z+3, r1	; 0x03
     100:	82 e0       	ldi	r24, 0x02	; 2
     102:	80 93 22 04 	sts	0x0422, r24	; 0x800422 <__TEXT_REGION_LENGTH__+0x700422>
     106:	89 e0       	ldi	r24, 0x09	; 9
     108:	a1 e2       	ldi	r26, 0x21	; 33
     10a:	b4 e0       	ldi	r27, 0x04	; 4
     10c:	91 e0       	ldi	r25, 0x01	; 1
     10e:	e2 e2       	ldi	r30, 0x22	; 34
     110:	f4 e0       	ldi	r31, 0x04	; 4
     112:	9c 93       	st	X, r25
     114:	20 e1       	ldi	r18, 0x10	; 16
     116:	2a 95       	dec	r18
     118:	f1 f7       	brne	.-4      	; 0x116 <I2C_recover+0x22>
     11a:	00 c0       	rjmp	.+0      	; 0x11c <I2C_recover+0x28>
     11c:	90 83       	st	Z, r25
     11e:	20 e1       	ldi	r18, 0x10	; 16
     120:	2a 95       	dec	r18
     122:	f1 f7       	brne	.-4      	; 0x120 <I2C_recover+0x2c>
     124:	00 c0       	rjmp	.+0      	; 0x126 <I2C_recover+0x32>
     126:	81 50       	subi	r24, 0x01	; 1
     128:	a1 f7       	brne	.-24     	; 0x112 <I2C_recover+0x1e>
     12a:	e0 e1       	ldi	r30, 0x10	; 16
     12c:	f8 e0       	ldi	r31, 0x08	; 8
     12e:	28 e0       	ldi	r18, 0x08	; 8
     130:	24 83       	std	Z+4, r18	; 0x04
     132:	81 e0       	ldi	r24, 0x01	; 1
     134:	83 83       	std	Z+3, r24	; 0x03
     136:	a1 e2       	ldi	r26, 0x21	; 33
     138:	b4 e0       	ldi	r27, 0x04	; 4
     13a:	92 e0       	ldi	r25, 0x02	; 2
     13c:	9c 93       	st	X, r25
     13e:	95 81       	ldd	r25, Z+5	; 0x05
     140:	91 60       	ori	r25, 0x01	; 1
     142:	95 83       	std	Z+5, r25	; 0x05
     144:	95 81       	ldd	r25, Z+5	; 0x05
     146:	94 6c       	ori	r25, 0xC4	; 196
     148:	95 83       	std	Z+5, r25	; 0x05
     14a:	24 83       	std	Z+4, r18	; 0x04
     14c:	83 83       	std	Z+3, r24	; 0x03
     14e:	8c 93       	st	X, r24
     150:	85 81       	ldd	r24, Z+5	; 0x05
     152:	81 60       	ori	r24, 0x01	; 1
     154:	85 83       	std	Z+5, r24	; 0x05
     156:	85 81       	ldd	r24, Z+5	; 0x05
     158:	84 6c       	ori	r24, 0xC4	; 196
     15a:	85 83       	std	Z+5, r24	; 0x05
     15c:	08 95       	ret

0000015e <I2C_start>:
     15e:	28 2f       	mov	r18, r24
     160:	e0 e1       	ldi	r30, 0x10	; 16
     162:	f8 e0       	ldi	r31, 0x08	; 8
     164:	95 81       	ldd	r25, Z+5	; 0x05
     166:	90 6c       	ori	r25, 0xC0	; 192
     168:	95 83       	std	Z+5, r25	; 0x05
     16a:	95 81       	ldd	r25, Z+5	; 0x05
     16c:	89 2f       	mov	r24, r25
     16e:	84 70       	andi	r24, 0x04	; 4
     170:	92 fd       	sbrc	r25, 2
     172:	03 c0       	rjmp	.+6      	; 0x17a <I2C_start+0x1c>
     174:	20 93 17 08 	sts	0x0817, r18	; 0x800817 <__TEXT_REGION_LENGTH__+0x700817>
     178:	08 95       	ret
     17a:	84 e0       	ldi	r24, 0x04	; 4
     17c:	08 95       	ret

0000017e <I2C_wait_ACK>:
     17e:	8c e0       	ldi	r24, 0x0C	; 12
     180:	80 93 45 39 	sts	0x3945, r24	; 0x803945 <timeout_I2C>
     184:	e0 e1       	ldi	r30, 0x10	; 16
     186:	f8 e0       	ldi	r31, 0x08	; 8
     188:	04 c0       	rjmp	.+8      	; 0x192 <I2C_wait_ACK+0x14>
     18a:	80 91 45 39 	lds	r24, 0x3945	; 0x803945 <timeout_I2C>
     18e:	88 23       	and	r24, r24
     190:	b9 f0       	breq	.+46     	; 0x1c0 <I2C_wait_ACK+0x42>
     192:	85 81       	ldd	r24, Z+5	; 0x05
     194:	88 23       	and	r24, r24
     196:	1c f0       	brlt	.+6      	; 0x19e <I2C_wait_ACK+0x20>
     198:	85 81       	ldd	r24, Z+5	; 0x05
     19a:	86 ff       	sbrs	r24, 6
     19c:	f6 cf       	rjmp	.-20     	; 0x18a <I2C_wait_ACK+0xc>
     19e:	e0 e1       	ldi	r30, 0x10	; 16
     1a0:	f8 e0       	ldi	r31, 0x08	; 8
     1a2:	85 81       	ldd	r24, Z+5	; 0x05
     1a4:	80 6c       	ori	r24, 0xC0	; 192
     1a6:	85 83       	std	Z+5, r24	; 0x05
     1a8:	85 81       	ldd	r24, Z+5	; 0x05
     1aa:	82 fd       	sbrc	r24, 2
     1ac:	0b c0       	rjmp	.+22     	; 0x1c4 <I2C_wait_ACK+0x46>
     1ae:	80 91 15 08 	lds	r24, 0x0815	; 0x800815 <__TEXT_REGION_LENGTH__+0x700815>
     1b2:	83 fd       	sbrc	r24, 3
     1b4:	09 c0       	rjmp	.+18     	; 0x1c8 <I2C_wait_ACK+0x4a>
     1b6:	80 91 15 08 	lds	r24, 0x0815	; 0x800815 <__TEXT_REGION_LENGTH__+0x700815>
     1ba:	82 95       	swap	r24
     1bc:	81 70       	andi	r24, 0x01	; 1
     1be:	08 95       	ret
     1c0:	8f ef       	ldi	r24, 0xFF	; 255
     1c2:	08 95       	ret
     1c4:	84 e0       	ldi	r24, 0x04	; 4
     1c6:	08 95       	ret
     1c8:	82 e0       	ldi	r24, 0x02	; 2
     1ca:	08 95       	ret

000001cc <I2C_read>:
}

uint8_t	I2C_read(uint8_t *data, uint8_t ack_flag)					// read data, ack_flag 0: send ACK, 1: send NACK, returns status
{
     1cc:	dc 01       	movw	r26, r24
	timeout_I2C = READ_TIMEOUT;										// reset timeout counter, will be decremented by LED matrix interrupt
     1ce:	9c e0       	ldi	r25, 0x0C	; 12
     1d0:	90 93 45 39 	sts	0x3945, r25	; 0x803945 <timeout_I2C>
	if ((TWI0.MSTATUS & TWI_BUSSTATE_gm) == TWI_BUSSTATE_OWNER_gc)	// if master controls bus
     1d4:	90 91 15 08 	lds	r25, 0x0815	; 0x800815 <__TEXT_REGION_LENGTH__+0x700815>
     1d8:	89 2f       	mov	r24, r25
     1da:	83 70       	andi	r24, 0x03	; 3
     1dc:	82 30       	cpi	r24, 0x02	; 2
     1de:	39 f0       	breq	.+14     	; 0x1ee <I2C_read+0x22>
		else		TWI0.MCTRLB |= TWI_ACKACT_NACK_gc;				// setup NACK (last byte read)
		*data = TWI0.MDATA;
		if (ack_flag == 0) TWI0.MCTRLB |= TWI_MCMD_RECVTRANS_gc;	// send ACK, more bytes to follow					
		return 0;
	}
	else return 8;													// master does not control bus
     1e0:	88 e0       	ldi	r24, 0x08	; 8
     1e2:	08 95       	ret
	timeout_I2C = READ_TIMEOUT;										// reset timeout counter, will be decremented by LED matrix interrupt
	if ((TWI0.MSTATUS & TWI_BUSSTATE_gm) == TWI_BUSSTATE_OWNER_gc)	// if master controls bus
	{		
		while (!(TWI0.MSTATUS & TWI_RIF_bm))						// wait for RIF set (data byte received)
		{
			if (!(timeout_I2C)) return 0xff;			            // return timeout error
     1e4:	90 91 45 39 	lds	r25, 0x3945	; 0x803945 <timeout_I2C>
     1e8:	91 11       	cpse	r25, r1
     1ea:	03 c0       	rjmp	.+6      	; 0x1f2 <I2C_read+0x26>
     1ec:	2a c0       	rjmp	.+84     	; 0x242 <I2C_read+0x76>
uint8_t	I2C_read(uint8_t *data, uint8_t ack_flag)					// read data, ack_flag 0: send ACK, 1: send NACK, returns status
{
	timeout_I2C = READ_TIMEOUT;										// reset timeout counter, will be decremented by LED matrix interrupt
	if ((TWI0.MSTATUS & TWI_BUSSTATE_gm) == TWI_BUSSTATE_OWNER_gc)	// if master controls bus
	{		
		while (!(TWI0.MSTATUS & TWI_RIF_bm))						// wait for RIF set (data byte received)
     1ee:	e0 e1       	ldi	r30, 0x10	; 16
     1f0:	f8 e0       	ldi	r31, 0x08	; 8
     1f2:	95 81       	ldd	r25, Z+5	; 0x05
     1f4:	99 23       	and	r25, r25
     1f6:	b4 f7       	brge	.-20     	; 0x1e4 <I2C_read+0x18>
		{
			if (!(timeout_I2C)) return 0xff;			            // return timeout error
		}
		TWI0.MSTATUS |= (TWI_RIF_bm | TWI_WIF_bm);					// clear Read and Write interrupt flags	
     1f8:	e0 e1       	ldi	r30, 0x10	; 16
     1fa:	f8 e0       	ldi	r31, 0x08	; 8
     1fc:	95 81       	ldd	r25, Z+5	; 0x05
     1fe:	90 6c       	ori	r25, 0xC0	; 192
     200:	95 83       	std	Z+5, r25	; 0x05
		if (TWI0.MSTATUS & TWI_BUSERR_bm) return 4;					// Bus Error, abort
     202:	95 81       	ldd	r25, Z+5	; 0x05
     204:	92 fd       	sbrc	r25, 2
     206:	1f c0       	rjmp	.+62     	; 0x246 <I2C_read+0x7a>
		if (TWI0.MSTATUS & TWI_ARBLOST_bm) return 2;				// Arbitration Lost, abort
     208:	90 91 15 08 	lds	r25, 0x0815	; 0x800815 <__TEXT_REGION_LENGTH__+0x700815>
     20c:	93 fd       	sbrc	r25, 3
     20e:	1e c0       	rjmp	.+60     	; 0x24c <I2C_read+0x80>
		if (TWI0.MSTATUS & TWI_RXACK_bm) return 1;					// Slave replied with NACK, abort				
     210:	90 91 15 08 	lds	r25, 0x0815	; 0x800815 <__TEXT_REGION_LENGTH__+0x700815>
     214:	89 2f       	mov	r24, r25
     216:	80 71       	andi	r24, 0x10	; 16
     218:	94 fd       	sbrc	r25, 4
     21a:	17 c0       	rjmp	.+46     	; 0x24a <I2C_read+0x7e>
		if (ack_flag == 0) TWI0.MCTRLB &= ~(1 << TWI_ACKACT_bp);	// setup ACK
     21c:	61 11       	cpse	r22, r1
     21e:	09 c0       	rjmp	.+18     	; 0x232 <I2C_read+0x66>
     220:	94 81       	ldd	r25, Z+4	; 0x04
     222:	9b 7f       	andi	r25, 0xFB	; 251
     224:	94 83       	std	Z+4, r25	; 0x04
		else		TWI0.MCTRLB |= TWI_ACKACT_NACK_gc;				// setup NACK (last byte read)
		*data = TWI0.MDATA;
     226:	90 85       	ldd	r25, Z+8	; 0x08
     228:	9c 93       	st	X, r25
		if (ack_flag == 0) TWI0.MCTRLB |= TWI_MCMD_RECVTRANS_gc;	// send ACK, more bytes to follow					
     22a:	94 81       	ldd	r25, Z+4	; 0x04
     22c:	92 60       	ori	r25, 0x02	; 2
     22e:	94 83       	std	Z+4, r25	; 0x04
     230:	08 95       	ret
		TWI0.MSTATUS |= (TWI_RIF_bm | TWI_WIF_bm);					// clear Read and Write interrupt flags	
		if (TWI0.MSTATUS & TWI_BUSERR_bm) return 4;					// Bus Error, abort
		if (TWI0.MSTATUS & TWI_ARBLOST_bm) return 2;				// Arbitration Lost, abort
		if (TWI0.MSTATUS & TWI_RXACK_bm) return 1;					// Slave replied with NACK, abort				
		if (ack_flag == 0) TWI0.MCTRLB &= ~(1 << TWI_ACKACT_bp);	// setup ACK
		else		TWI0.MCTRLB |= TWI_ACKACT_NACK_gc;				// setup NACK (last byte read)
     232:	e0 e1       	ldi	r30, 0x10	; 16
     234:	f8 e0       	ldi	r31, 0x08	; 8
     236:	94 81       	ldd	r25, Z+4	; 0x04
     238:	94 60       	ori	r25, 0x04	; 4
     23a:	94 83       	std	Z+4, r25	; 0x04
		*data = TWI0.MDATA;
     23c:	90 85       	ldd	r25, Z+8	; 0x08
     23e:	9c 93       	st	X, r25
     240:	08 95       	ret
	timeout_I2C = READ_TIMEOUT;										// reset timeout counter, will be decremented by LED matrix interrupt
	if ((TWI0.MSTATUS & TWI_BUSSTATE_gm) == TWI_BUSSTATE_OWNER_gc)	// if master controls bus
	{		
		while (!(TWI0.MSTATUS & TWI_RIF_bm))						// wait for RIF set (data byte received)
		{
			if (!(timeout_I2C)) return 0xff;			            // return timeout error
     242:	8f ef       	ldi	r24, 0xFF	; 255
     244:	08 95       	ret
		}
		TWI0.MSTATUS |= (TWI_RIF_bm | TWI_WIF_bm);					// clear Read and Write interrupt flags	
		if (TWI0.MSTATUS & TWI_BUSERR_bm) return 4;					// Bus Error, abort
     246:	84 e0       	ldi	r24, 0x04	; 4
     248:	08 95       	ret
		if (TWI0.MSTATUS & TWI_ARBLOST_bm) return 2;				// Arbitration Lost, abort
		if (TWI0.MSTATUS & TWI_RXACK_bm) return 1;					// Slave replied with NACK, abort				
     24a:	81 e0       	ldi	r24, 0x01	; 1
		*data = TWI0.MDATA;
		if (ack_flag == 0) TWI0.MCTRLB |= TWI_MCMD_RECVTRANS_gc;	// send ACK, more bytes to follow					
		return 0;
	}
	else return 8;													// master does not control bus
}
     24c:	08 95       	ret

0000024e <I2C_write>:

uint8_t I2C_write(uint8_t *data)									// write data, return status
{
     24e:	fc 01       	movw	r30, r24
	timeout_I2C = WRITE_TIMEOUT;									// reset timeout counter, will be decremented by LED matrix interrupt
     250:	9c e0       	ldi	r25, 0x0C	; 12
     252:	90 93 45 39 	sts	0x3945, r25	; 0x803945 <timeout_I2C>
	if ((TWI0.MSTATUS & TWI_BUSSTATE_gm) == TWI_BUSSTATE_OWNER_gc)	// if master controls bus
     256:	90 91 15 08 	lds	r25, 0x0815	; 0x800815 <__TEXT_REGION_LENGTH__+0x700815>
     25a:	93 70       	andi	r25, 0x03	; 3
     25c:	92 30       	cpi	r25, 0x02	; 2
     25e:	b1 f4       	brne	.+44     	; 0x28c <I2C_write+0x3e>
	{
		TWI0.MDATA = *data;		
     260:	80 81       	ld	r24, Z
     262:	80 93 18 08 	sts	0x0818, r24	; 0x800818 <__TEXT_REGION_LENGTH__+0x700818>
		while (!(TWI0.MSTATUS & TWI_WIF_bm))						// wait until WIF set, status register contains ACK/NACK bit
     266:	e0 e1       	ldi	r30, 0x10	; 16
     268:	f8 e0       	ldi	r31, 0x08	; 8
     26a:	04 c0       	rjmp	.+8      	; 0x274 <I2C_write+0x26>
		{
			if (!(timeout_I2C)) return 0xff;			            // return timeout error
     26c:	80 91 45 39 	lds	r24, 0x3945	; 0x803945 <timeout_I2C>
     270:	88 23       	and	r24, r24
     272:	71 f0       	breq	.+28     	; 0x290 <I2C_write+0x42>
{
	timeout_I2C = WRITE_TIMEOUT;									// reset timeout counter, will be decremented by LED matrix interrupt
	if ((TWI0.MSTATUS & TWI_BUSSTATE_gm) == TWI_BUSSTATE_OWNER_gc)	// if master controls bus
	{
		TWI0.MDATA = *data;		
		while (!(TWI0.MSTATUS & TWI_WIF_bm))						// wait until WIF set, status register contains ACK/NACK bit
     274:	85 81       	ldd	r24, Z+5	; 0x05
     276:	86 ff       	sbrs	r24, 6
     278:	f9 cf       	rjmp	.-14     	; 0x26c <I2C_write+0x1e>
		{
			if (!(timeout_I2C)) return 0xff;			            // return timeout error
		}
		if (TWI0.MSTATUS & TWI_BUSERR_bm) return 4;					// Bus Error, abort
     27a:	80 91 15 08 	lds	r24, 0x0815	; 0x800815 <__TEXT_REGION_LENGTH__+0x700815>
     27e:	82 fd       	sbrc	r24, 2
     280:	09 c0       	rjmp	.+18     	; 0x294 <I2C_write+0x46>
		if (TWI0.MSTATUS & TWI_RXACK_bm) return 1;					// Slave replied with NACK, abort
     282:	80 91 15 08 	lds	r24, 0x0815	; 0x800815 <__TEXT_REGION_LENGTH__+0x700815>
	if ((TWI0.MSTATUS & TWI_BUSSTATE_gm) == TWI_BUSSTATE_OWNER_gc)	// if master controls bus
	{
		TWI0.MDATA = *data;		
		while (!(TWI0.MSTATUS & TWI_WIF_bm))						// wait until WIF set, status register contains ACK/NACK bit
		{
			if (!(timeout_I2C)) return 0xff;			            // return timeout error
     286:	82 95       	swap	r24
     288:	81 70       	andi	r24, 0x01	; 1
     28a:	08 95       	ret
		}
		if (TWI0.MSTATUS & TWI_BUSERR_bm) return 4;					// Bus Error, abort
		if (TWI0.MSTATUS & TWI_RXACK_bm) return 1;					// Slave replied with NACK, abort
		return 0;													// no error	
	}
	else return 8;													// master does not control bus
     28c:	88 e0       	ldi	r24, 0x08	; 8
     28e:	08 95       	ret
	if ((TWI0.MSTATUS & TWI_BUSSTATE_gm) == TWI_BUSSTATE_OWNER_gc)	// if master controls bus
	{
		TWI0.MDATA = *data;		
		while (!(TWI0.MSTATUS & TWI_WIF_bm))						// wait until WIF set, status register contains ACK/NACK bit
		{
			if (!(timeout_I2C)) return 0xff;			            // return timeout error
     290:	8f ef       	ldi	r24, 0xFF	; 255
     292:	08 95       	ret
		}
		if (TWI0.MSTATUS & TWI_BUSERR_bm) return 4;					// Bus Error, abort
     294:	84 e0       	ldi	r24, 0x04	; 4
		if (TWI0.MSTATUS & TWI_RXACK_bm) return 1;					// Slave replied with NACK, abort
		return 0;													// no error	
	}
	else return 8;													// master does not control bus
}
     296:	08 95       	ret

00000298 <I2C_stop>:

void I2C_stop()
{
	TWI0.MCTRLB |= TWI_MCMD_STOP_gc;
     298:	e0 e1       	ldi	r30, 0x10	; 16
     29a:	f8 e0       	ldi	r31, 0x08	; 8
     29c:	84 81       	ldd	r24, Z+4	; 0x04
     29e:	83 60       	ori	r24, 0x03	; 3
     2a0:	84 83       	std	Z+4, r24	; 0x04
     2a2:	08 95       	ret

000002a4 <I2C_read_bytes>:
// addr_ptr		address of first array element to transfer
// slave reg	starting slave register
// num_bytes	number of bytes to transfer

uint8_t	I2C_read_bytes(uint8_t slave_addr, uint8_t *reg_ptr, uint8_t reg_len, uint8_t *dat_ptr, uint8_t dat_len)
{
     2a4:	cf 92       	push	r12
     2a6:	df 92       	push	r13
     2a8:	ef 92       	push	r14
     2aa:	ff 92       	push	r15
     2ac:	0f 93       	push	r16
     2ae:	1f 93       	push	r17
     2b0:	cf 93       	push	r28
     2b2:	df 93       	push	r29
     2b4:	eb 01       	movw	r28, r22
     2b6:	c4 2e       	mov	r12, r20
     2b8:	79 01       	movw	r14, r18
	uint8_t status;
	if (dat_len > MAX_LEN) dat_len = MAX_LEN;
	status = I2C_start(slave_addr << 1);							// slave write address, LSB 0
     2ba:	18 2f       	mov	r17, r24
     2bc:	11 0f       	add	r17, r17
     2be:	81 2f       	mov	r24, r17
     2c0:	4e df       	rcall	.-356    	; 0x15e <I2C_start>
	if (status != 0) goto error;
     2c2:	81 11       	cpse	r24, r1
	status = I2C_wait_ACK();										// wait for slave ACK
     2c4:	3c c0       	rjmp	.+120    	; 0x33e <I2C_read_bytes+0x9a>
     2c6:	5b df       	rcall	.-330    	; 0x17e <I2C_wait_ACK>
	if (status == 1) {
     2c8:	81 30       	cpi	r24, 0x01	; 1
		I2C_stop();													// NACK, abort
     2ca:	19 f4       	brne	.+6      	; 0x2d2 <I2C_read_bytes+0x2e>
     2cc:	e5 df       	rcall	.-54     	; 0x298 <I2C_stop>
		return 1;
     2ce:	81 e0       	ldi	r24, 0x01	; 1
     2d0:	38 c0       	rjmp	.+112    	; 0x342 <I2C_read_bytes+0x9e>
	}
	if (status != 0) goto error;
     2d2:	81 11       	cpse	r24, r1
     2d4:	34 c0       	rjmp	.+104    	; 0x33e <I2C_read_bytes+0x9a>
    while(reg_len > 0){
     2d6:	cc 20       	and	r12, r12
     2d8:	79 f0       	breq	.+30     	; 0x2f8 <I2C_read_bytes+0x54>
     2da:	ca 94       	dec	r12
     2dc:	d1 2c       	mov	r13, r1
     2de:	8f ef       	ldi	r24, 0xFF	; 255
     2e0:	c8 1a       	sub	r12, r24
     2e2:	d8 0a       	sbc	r13, r24
     2e4:	cc 0e       	add	r12, r28
	    status = I2C_write(reg_ptr);    							// send slave start register
     2e6:	dd 1e       	adc	r13, r29
     2e8:	ce 01       	movw	r24, r28
     2ea:	b1 df       	rcall	.-158    	; 0x24e <I2C_write>
	    if (status != 0) goto error;
     2ec:	81 11       	cpse	r24, r1
     2ee:	27 c0       	rjmp	.+78     	; 0x33e <I2C_read_bytes+0x9a>
        ++reg_ptr;
     2f0:	21 96       	adiw	r28, 0x01	; 1
	if (status == 1) {
		I2C_stop();													// NACK, abort
		return 1;
	}
	if (status != 0) goto error;
    while(reg_len > 0){
     2f2:	cc 16       	cp	r12, r28
     2f4:	dd 06       	cpc	r13, r29
     2f6:	c1 f7       	brne	.-16     	; 0x2e8 <I2C_read_bytes+0x44>
     2f8:	01 34       	cpi	r16, 0x41	; 65
     2fa:	08 f0       	brcs	.+2      	; 0x2fe <I2C_read_bytes+0x5a>
     2fc:	00 e4       	ldi	r16, 0x40	; 64
	    status = I2C_write(reg_ptr);    							// send slave start register
	    if (status != 0) goto error;
        ++reg_ptr;
        --reg_len;
    }
	I2C_rep_start((slave_addr << 1) + 1);							// slave read address, LSB 1
     2fe:	1f 5f       	subi	r17, 0xFF	; 255
// the Atmel device documentation mentions a special command for repeated start TWI_MCMD_REPSTART_gc,
// but this is not used in Atmel's demo code, so we don't use it either

void I2C_rep_start(uint8_t shifted_addr)						    // send repeated start, device_addr + LSB set if READ
{
	TWI0.MADDR = shifted_addr;	
     300:	10 93 17 08 	sts	0x0817, r17	; 0x800817 <__TEXT_REGION_LENGTH__+0x700817>
	    if (status != 0) goto error;
        ++reg_ptr;
        --reg_len;
    }
	I2C_rep_start((slave_addr << 1) + 1);							// slave read address, LSB 1
	while (dat_len > 1) {
     304:	02 30       	cpi	r16, 0x02	; 2
     306:	90 f0       	brcs	.+36     	; 0x32c <I2C_read_bytes+0x88>
     308:	02 50       	subi	r16, 0x02	; 2
     30a:	c0 2f       	mov	r28, r16
     30c:	d0 e0       	ldi	r29, 0x00	; 0
     30e:	21 96       	adiw	r28, 0x01	; 1
     310:	ce 0d       	add	r28, r14
		status = I2C_read(dat_ptr, 0);								// first bytes, send ACK
     312:	df 1d       	adc	r29, r15
     314:	60 e0       	ldi	r22, 0x00	; 0
     316:	c7 01       	movw	r24, r14
     318:	59 df       	rcall	.-334    	; 0x1cc <I2C_read>
		if (status != 0) goto error;
     31a:	81 11       	cpse	r24, r1
     31c:	10 c0       	rjmp	.+32     	; 0x33e <I2C_read_bytes+0x9a>
		++dat_ptr;
     31e:	8f ef       	ldi	r24, 0xFF	; 255
     320:	e8 1a       	sub	r14, r24
     322:	f8 0a       	sbc	r15, r24
	    if (status != 0) goto error;
        ++reg_ptr;
        --reg_len;
    }
	I2C_rep_start((slave_addr << 1) + 1);							// slave read address, LSB 1
	while (dat_len > 1) {
     324:	ec 16       	cp	r14, r28
     326:	fd 06       	cpc	r15, r29
     328:	a9 f7       	brne	.-22     	; 0x314 <I2C_read_bytes+0x70>
     32a:	01 c0       	rjmp	.+2      	; 0x32e <I2C_read_bytes+0x8a>
		status = I2C_read(dat_ptr, 0);								// first bytes, send ACK
		if (status != 0) goto error;
		++dat_ptr;
		--dat_len;
	}
	status = I2C_read(dat_ptr, 1);									// single or last byte, send NACK
     32c:	e7 01       	movw	r28, r14
     32e:	61 e0       	ldi	r22, 0x01	; 1
     330:	ce 01       	movw	r24, r28
	if (status != 0) goto error;
     332:	4c df       	rcall	.-360    	; 0x1cc <I2C_read>
     334:	81 11       	cpse	r24, r1
	I2C_stop();
     336:	03 c0       	rjmp	.+6      	; 0x33e <I2C_read_bytes+0x9a>
     338:	af df       	rcall	.-162    	; 0x298 <I2C_stop>
	return 0;
     33a:	80 e0       	ldi	r24, 0x00	; 0
     33c:	02 c0       	rjmp	.+4      	; 0x342 <I2C_read_bytes+0x9e>
	
error:
	I2C_recover();													// clock out possibly stuck slave, reset master
     33e:	da de       	rcall	.-588    	; 0xf4 <I2C_recover>
     340:	8f ef       	ldi	r24, 0xFF	; 255
	return 0xff;													// flag error
     342:	df 91       	pop	r29
}
     344:	cf 91       	pop	r28
     346:	1f 91       	pop	r17
     348:	0f 91       	pop	r16
     34a:	ff 90       	pop	r15
     34c:	ef 90       	pop	r14
     34e:	df 90       	pop	r13
     350:	cf 90       	pop	r12
     352:	08 95       	ret

00000354 <Setup>:
     354:	cf 93       	push	r28
// Select "audio" input (0-2.5V)
void SelectAuIn(){
     VREF_CTRLA   = 0x22;    //0x22 for audio in/out (2.5V), 0x12 for temperature in, audio out (1.1V/2.5V)
     ADC0_CTRLA   &= ~(ADC_RESSEL_bm);
     ADC0_MUXPOS  = 0x07;    //Audio in: AIN7 at (0x07), Temperature: Internal sensor at (0x1E)
     adc0Chg = 1;
     356:	df 93       	push	r29
     358:	f8 94       	cli
     35a:	88 ed       	ldi	r24, 0xD8	; 216
     35c:	84 bf       	out	0x34, r24	; 52
     35e:	c1 e0       	ldi	r28, 0x01	; 1
     360:	c0 93 61 00 	sts	0x0061, r28	; 0x800061 <__TEXT_REGION_LENGTH__+0x700061>
     364:	8a e4       	ldi	r24, 0x4A	; 74
     366:	80 93 00 04 	sts	0x0400, r24	; 0x800400 <__TEXT_REGION_LENGTH__+0x700400>
     36a:	8c e7       	ldi	r24, 0x7C	; 124
     36c:	80 93 20 04 	sts	0x0420, r24	; 0x800420 <__TEXT_REGION_LENGTH__+0x700420>
     370:	8f e3       	ldi	r24, 0x3F	; 63
     372:	80 93 40 04 	sts	0x0440, r24	; 0x800440 <__TEXT_REGION_LENGTH__+0x700440>
     376:	c0 93 01 02 	sts	0x0201, r28	; 0x800201 <__TEXT_REGION_LENGTH__+0x700201>
     37a:	d2 e0       	ldi	r29, 0x02	; 2
     37c:	d0 93 05 04 	sts	0x0405, r29	; 0x800405 <__TEXT_REGION_LENGTH__+0x700405>
     380:	2b e5       	ldi	r18, 0x5B	; 91
     382:	31 e0       	ldi	r19, 0x01	; 1
     384:	20 93 08 08 	sts	0x0808, r18	; 0x800808 <__TEXT_REGION_LENGTH__+0x700808>
     388:	30 93 09 08 	sts	0x0809, r19	; 0x800809 <__TEXT_REGION_LENGTH__+0x700809>
     38c:	90 ea       	ldi	r25, 0xA0	; 160
     38e:	90 93 05 08 	sts	0x0805, r25	; 0x800805 <__TEXT_REGION_LENGTH__+0x700805>
     392:	90 ec       	ldi	r25, 0xC0	; 192
     394:	90 93 06 08 	sts	0x0806, r25	; 0x800806 <__TEXT_REGION_LENGTH__+0x700806>
     398:	93 e0       	ldi	r25, 0x03	; 3
     39a:	90 93 07 08 	sts	0x0807, r25	; 0x800807 <__TEXT_REGION_LENGTH__+0x700807>
     39e:	1c ba       	out	0x1c, r1	; 28
     3a0:	1d ba       	out	0x1d, r1	; 29
     3a2:	1e ba       	out	0x1e, r1	; 30
     3a4:	1f ba       	out	0x1f, r1	; 31
     3a6:	c0 93 03 0a 	sts	0x0A03, r28	; 0x800a03 <__TEXT_REGION_LENGTH__+0x700a03>
     3aa:	e0 e0       	ldi	r30, 0x00	; 0
     3ac:	fa e0       	ldi	r31, 0x0A	; 10
     3ae:	98 e0       	ldi	r25, 0x08	; 8
     3b0:	90 83       	st	Z, r25
     3b2:	80 93 02 02 	sts	0x0202, r24	; 0x800202 <__TEXT_REGION_LENGTH__+0x700202>
     3b6:	87 e7       	ldi	r24, 0x77	; 119
     3b8:	80 93 01 0a 	sts	0x0A01, r24	; 0x800a01 <__TEXT_REGION_LENGTH__+0x700a01>
     3bc:	c0 93 0a 0a 	sts	0x0A0A, r28	; 0x800a0a <__TEXT_REGION_LENGTH__+0x700a0a>
     3c0:	8b e0       	ldi	r24, 0x0B	; 11
     3c2:	80 93 05 0a 	sts	0x0A05, r24	; 0x800a05 <__TEXT_REGION_LENGTH__+0x700a05>
     3c6:	80 81       	ld	r24, Z
     3c8:	81 60       	ori	r24, 0x01	; 1
     3ca:	80 83       	st	Z, r24
     3cc:	85 e0       	ldi	r24, 0x05	; 5
     3ce:	80 93 40 0a 	sts	0x0A40, r24	; 0x800a40 <__TEXT_REGION_LENGTH__+0x700a40>
     3d2:	10 92 41 0a 	sts	0x0A41, r1	; 0x800a41 <__TEXT_REGION_LENGTH__+0x700a41>
     3d6:	8f ef       	ldi	r24, 0xFF	; 255
     3d8:	91 e0       	ldi	r25, 0x01	; 1
     3da:	80 93 4c 0a 	sts	0x0A4C, r24	; 0x800a4c <__TEXT_REGION_LENGTH__+0x700a4c>
     3de:	90 93 4d 0a 	sts	0x0A4D, r25	; 0x800a4d <__TEXT_REGION_LENGTH__+0x700a4d>
     3e2:	10 92 45 0a 	sts	0x0A45, r1	; 0x800a45 <__TEXT_REGION_LENGTH__+0x700a45>
     3e6:	c0 93 50 0a 	sts	0x0A50, r28	; 0x800a50 <__TEXT_REGION_LENGTH__+0x700a50>
     3ea:	10 92 51 0a 	sts	0x0A51, r1	; 0x800a51 <__TEXT_REGION_LENGTH__+0x700a51>
     3ee:	8b e8       	ldi	r24, 0x8B	; 139
     3f0:	93 e0       	ldi	r25, 0x03	; 3
     3f2:	80 93 5c 0a 	sts	0x0A5C, r24	; 0x800a5c <__TEXT_REGION_LENGTH__+0x700a5c>
     3f6:	90 93 5d 0a 	sts	0x0A5D, r25	; 0x800a5d <__TEXT_REGION_LENGTH__+0x700a5d>
     3fa:	c0 93 55 0a 	sts	0x0A55, r28	; 0x800a55 <__TEXT_REGION_LENGTH__+0x700a55>
     3fe:	5c de       	rcall	.-840    	; 0xb8 <I2C_init>
     400:	82 e1       	ldi	r24, 0x12	; 18
     402:	80 93 a0 00 	sts	0x00A0, r24	; 0x8000a0 <__TEXT_REGION_LENGTH__+0x7000a0>
     406:	80 e2       	ldi	r24, 0x20	; 32
     408:	80 93 a2 00 	sts	0x00A2, r24	; 0x8000a2 <__TEXT_REGION_LENGTH__+0x7000a2>
     40c:	c0 93 a1 00 	sts	0x00A1, r28	; 0x8000a1 <__TEXT_REGION_LENGTH__+0x7000a1>
     410:	e0 e0       	ldi	r30, 0x00	; 0
     412:	f6 e0       	ldi	r31, 0x06	; 6
     414:	86 e0       	ldi	r24, 0x06	; 6
     416:	80 83       	st	Z, r24
     418:	84 e4       	ldi	r24, 0x44	; 68
     41a:	80 93 02 06 	sts	0x0602, r24	; 0x800602 <__TEXT_REGION_LENGTH__+0x700602>
     41e:	8e e1       	ldi	r24, 0x1E	; 30
     420:	80 93 06 06 	sts	0x0606, r24	; 0x800606 <__TEXT_REGION_LENGTH__+0x700606>
     424:	c0 93 0a 06 	sts	0x060A, r28	; 0x80060a <__TEXT_REGION_LENGTH__+0x70060a>
     428:	80 81       	ld	r24, Z
     42a:	81 60       	ori	r24, 0x01	; 1
     42c:	80 83       	st	Z, r24
     42e:	c0 93 08 06 	sts	0x0608, r28	; 0x800608 <__TEXT_REGION_LENGTH__+0x700608>
     432:	e0 e4       	ldi	r30, 0x40	; 64
     434:	f6 e0       	ldi	r31, 0x06	; 6
     436:	10 82       	st	Z, r1
     438:	d0 93 41 06 	sts	0x0641, r29	; 0x800641 <__TEXT_REGION_LENGTH__+0x700641>
     43c:	82 e5       	ldi	r24, 0x52	; 82
     43e:	80 93 42 06 	sts	0x0642, r24	; 0x800642 <__TEXT_REGION_LENGTH__+0x700642>
     442:	84 e0       	ldi	r24, 0x04	; 4
     444:	80 93 45 06 	sts	0x0645, r24	; 0x800645 <__TEXT_REGION_LENGTH__+0x700645>
     448:	80 93 46 06 	sts	0x0646, r24	; 0x800646 <__TEXT_REGION_LENGTH__+0x700646>
     44c:	c0 93 4a 06 	sts	0x064A, r28	; 0x80064a <__TEXT_REGION_LENGTH__+0x70064a>
     450:	80 81       	ld	r24, Z
     452:	81 60       	ori	r24, 0x01	; 1
     454:	80 83       	st	Z, r24
     456:	c0 93 48 06 	sts	0x0648, r28	; 0x800648 <__TEXT_REGION_LENGTH__+0x700648>
     45a:	e0 ea       	ldi	r30, 0xA0	; 160
     45c:	f6 e0       	ldi	r31, 0x06	; 6
     45e:	80 e4       	ldi	r24, 0x40	; 64
     460:	80 83       	st	Z, r24
     462:	80 e8       	ldi	r24, 0x80	; 128
     464:	80 93 a1 06 	sts	0x06A1, r24	; 0x8006a1 <__TEXT_REGION_LENGTH__+0x7006a1>
     468:	80 81       	ld	r24, Z
     46a:	81 60       	ori	r24, 0x01	; 1
     46c:	80 83       	st	Z, r24
     46e:	e1 e4       	ldi	r30, 0x41	; 65
     470:	f1 e0       	ldi	r31, 0x01	; 1
     472:	80 81       	ld	r24, Z
     474:	80 fd       	sbrc	r24, 0
     476:	fd cf       	rjmp	.-6      	; 0x472 <__LOCK_REGION_LENGTH__+0x72>
     478:	80 e3       	ldi	r24, 0x30	; 48
     47a:	80 93 40 01 	sts	0x0140, r24	; 0x800140 <__TEXT_REGION_LENGTH__+0x700140>
     47e:	10 92 47 01 	sts	0x0147, r1	; 0x800147 <__TEXT_REGION_LENGTH__+0x700147>
     482:	e1 e4       	ldi	r30, 0x41	; 65
     484:	f1 e0       	ldi	r31, 0x01	; 1
     486:	80 81       	ld	r24, Z
     488:	82 fd       	sbrc	r24, 2
     48a:	fd cf       	rjmp	.-6      	; 0x486 <__LOCK_REGION_LENGTH__+0x86>
     48c:	ea e4       	ldi	r30, 0x4A	; 74
     48e:	f1 e0       	ldi	r31, 0x01	; 1
     490:	80 e0       	ldi	r24, 0x00	; 0
     492:	98 e7       	ldi	r25, 0x78	; 120
     494:	80 83       	st	Z, r24
     496:	91 83       	std	Z+1, r25	; 0x01
     498:	80 91 48 01 	lds	r24, 0x0148	; 0x800148 <__TEXT_REGION_LENGTH__+0x700148>
     49c:	90 91 49 01 	lds	r25, 0x0149	; 0x800149 <__TEXT_REGION_LENGTH__+0x700149>
     4a0:	60 81       	ld	r22, Z
     4a2:	71 81       	ldd	r23, Z+1	; 0x01
     4a4:	82 96       	adiw	r24, 0x22	; 34
     4a6:	0e 94 ef 0b 	call	0x17de	; 0x17de <__udivmodhi4>
     4aa:	80 93 f2 39 	sts	0x39F2, r24	; 0x8039f2 <tmp16bit>
     4ae:	90 93 f3 39 	sts	0x39F3, r25	; 0x8039f3 <tmp16bit+0x1>
     4b2:	e1 e4       	ldi	r30, 0x41	; 65
     4b4:	f1 e0       	ldi	r31, 0x01	; 1
     4b6:	80 81       	ld	r24, Z
     4b8:	83 fd       	sbrc	r24, 3
     4ba:	fd cf       	rjmp	.-6      	; 0x4b6 <__LOCK_REGION_LENGTH__+0xb6>
     4bc:	80 91 f2 39 	lds	r24, 0x39F2	; 0x8039f2 <tmp16bit>
     4c0:	90 91 f3 39 	lds	r25, 0x39F3	; 0x8039f3 <tmp16bit+0x1>
     4c4:	80 93 4c 01 	sts	0x014C, r24	; 0x80014c <__TEXT_REGION_LENGTH__+0x70014c>
     4c8:	90 93 4d 01 	sts	0x014D, r25	; 0x80014d <__TEXT_REGION_LENGTH__+0x70014d>
     4cc:	83 e0       	ldi	r24, 0x03	; 3
     4ce:	80 93 42 01 	sts	0x0142, r24	; 0x800142 <__TEXT_REGION_LENGTH__+0x700142>
     4d2:	81 e0       	ldi	r24, 0x01	; 1
     4d4:	80 93 52 01 	sts	0x0152, r24	; 0x800152 <__TEXT_REGION_LENGTH__+0x700152>
     4d8:	88 e0       	ldi	r24, 0x08	; 8
     4da:	80 93 50 01 	sts	0x0150, r24	; 0x800150 <__TEXT_REGION_LENGTH__+0x700150>
     4de:	e1 e4       	ldi	r30, 0x41	; 65
     4e0:	f1 e0       	ldi	r31, 0x01	; 1
     4e2:	80 81       	ld	r24, Z
     4e4:	80 fd       	sbrc	r24, 0
     4e6:	fd cf       	rjmp	.-6      	; 0x4e2 <__LOCK_REGION_LENGTH__+0xe2>
     4e8:	e0 e4       	ldi	r30, 0x40	; 64
     4ea:	f1 e0       	ldi	r31, 0x01	; 1
     4ec:	80 81       	ld	r24, Z
     4ee:	81 60       	ori	r24, 0x01	; 1
     4f0:	80 83       	st	Z, r24
     4f2:	e0 e5       	ldi	r30, 0x50	; 80
     4f4:	f1 e0       	ldi	r31, 0x01	; 1
     4f6:	80 81       	ld	r24, Z
     4f8:	81 60       	ori	r24, 0x01	; 1
     4fa:	80 83       	st	Z, r24
     4fc:	e6 e5       	ldi	r30, 0x56	; 86
     4fe:	f9 e3       	ldi	r31, 0x39	; 57
     500:	10 82       	st	Z, r1
     502:	e0 93 a1 39 	sts	0x39A1, r30	; 0x8039a1 <serTxAddr>
     506:	f0 93 a2 39 	sts	0x39A2, r31	; 0x8039a2 <serTxAddr+0x1>
     50a:	78 94       	sei
     50c:	df 91       	pop	r29
     50e:	cf 91       	pop	r28
     510:	08 95       	ret

00000512 <__vector_8>:
     512:	1f 92       	push	r1
     514:	0f 92       	push	r0
     516:	0f b6       	in	r0, 0x3f	; 63
     518:	0f 92       	push	r0
     51a:	11 24       	eor	r1, r1
     51c:	8f 93       	push	r24
     51e:	9f 93       	push	r25
     520:	af 93       	push	r26
     522:	bf 93       	push	r27
     524:	ef 93       	push	r30
     526:	ff 93       	push	r31
     528:	87 e0       	ldi	r24, 0x07	; 7
     52a:	80 93 46 04 	sts	0x0446, r24	; 0x800446 <__TEXT_REGION_LENGTH__+0x700446>
     52e:	84 e4       	ldi	r24, 0x44	; 68
     530:	80 93 26 04 	sts	0x0426, r24	; 0x800426 <__TEXT_REGION_LENGTH__+0x700426>
     534:	ec b3       	in	r30, 0x1c	; 28
     536:	f0 e0       	ldi	r31, 0x00	; 0
     538:	ee 0f       	add	r30, r30
     53a:	ff 1f       	adc	r31, r31
     53c:	ee 0f       	add	r30, r30
     53e:	ff 1f       	adc	r31, r31
     540:	ee 0f       	add	r30, r30
     542:	ff 1f       	adc	r31, r31
     544:	e8 53       	subi	r30, 0x38	; 56
     546:	f6 4c       	sbci	r31, 0xC6	; 198
     548:	a8 e2       	ldi	r26, 0x28	; 40
     54a:	ba e0       	ldi	r27, 0x0A	; 10
     54c:	96 e0       	ldi	r25, 0x06	; 6
     54e:	81 91       	ld	r24, Z+
     550:	8d 93       	st	X+, r24
     552:	9a 95       	dec	r25
     554:	e1 f7       	brne	.-8      	; 0x54e <__vector_8+0x3c>
     556:	8b e0       	ldi	r24, 0x0B	; 11
     558:	80 93 05 0a 	sts	0x0A05, r24	; 0x800a05 <__TEXT_REGION_LENGTH__+0x700a05>
     55c:	8c b3       	in	r24, 0x1c	; 28
     55e:	83 30       	cpi	r24, 0x03	; 3
     560:	58 f4       	brcc	.+22     	; 0x578 <__vector_8+0x66>
     562:	8c b3       	in	r24, 0x1c	; 28
     564:	91 e0       	ldi	r25, 0x01	; 1
     566:	01 c0       	rjmp	.+2      	; 0x56a <__vector_8+0x58>
     568:	99 0f       	add	r25, r25
     56a:	8a 95       	dec	r24
     56c:	ea f7       	brpl	.-6      	; 0x568 <__vector_8+0x56>
     56e:	99 b9       	out	0x09, r25	; 9
     570:	8c b3       	in	r24, 0x1c	; 28
     572:	83 95       	inc	r24
     574:	8c bb       	out	0x1c, r24	; 28
     576:	0a c0       	rjmp	.+20     	; 0x58c <__vector_8+0x7a>
     578:	8c b3       	in	r24, 0x1c	; 28
     57a:	83 30       	cpi	r24, 0x03	; 3
     57c:	21 f4       	brne	.+8      	; 0x586 <__vector_8+0x74>
     57e:	2a 9a       	sbi	0x05, 2	; 5
     580:	83 95       	inc	r24
     582:	8c bb       	out	0x1c, r24	; 28
     584:	03 c0       	rjmp	.+6      	; 0x58c <__vector_8+0x7a>
     586:	2e 9a       	sbi	0x05, 6	; 5
     588:	88 27       	eor	r24, r24
     58a:	8c bb       	out	0x1c, r24	; 28
     58c:	80 91 45 39 	lds	r24, 0x3945	; 0x803945 <timeout_I2C>
     590:	88 23       	and	r24, r24
     592:	29 f0       	breq	.+10     	; 0x59e <__vector_8+0x8c>
     594:	80 91 45 39 	lds	r24, 0x3945	; 0x803945 <timeout_I2C>
     598:	81 50       	subi	r24, 0x01	; 1
     59a:	80 93 45 39 	sts	0x3945, r24	; 0x803945 <timeout_I2C>
     59e:	8f ef       	ldi	r24, 0xFF	; 255
     5a0:	80 93 0b 0a 	sts	0x0A0B, r24	; 0x800a0b <__TEXT_REGION_LENGTH__+0x700a0b>
     5a4:	ff 91       	pop	r31
     5a6:	ef 91       	pop	r30
     5a8:	bf 91       	pop	r27
     5aa:	af 91       	pop	r26
     5ac:	9f 91       	pop	r25
     5ae:	8f 91       	pop	r24
     5b0:	0f 90       	pop	r0
     5b2:	0f be       	out	0x3f, r0	; 63
     5b4:	0f 90       	pop	r0
     5b6:	1f 90       	pop	r1
     5b8:	18 95       	reti

000005ba <__vector_13>:
     5ba:	1f 92       	push	r1
     5bc:	0f 92       	push	r0
     5be:	0f b6       	in	r0, 0x3f	; 63
     5c0:	0f 92       	push	r0
     5c2:	11 24       	eor	r1, r1
     5c4:	8f 93       	push	r24
     5c6:	9f 93       	push	r25
     5c8:	ef 93       	push	r30
     5ca:	ff 93       	push	r31
     5cc:	e0 91 a1 39 	lds	r30, 0x39A1	; 0x8039a1 <serTxAddr>
     5d0:	f0 91 a2 39 	lds	r31, 0x39A2	; 0x8039a2 <serTxAddr+0x1>
     5d4:	80 81       	ld	r24, Z
     5d6:	88 23       	and	r24, r24
     5d8:	91 f0       	breq	.+36     	; 0x5fe <__vector_13+0x44>
     5da:	80 81       	ld	r24, Z
     5dc:	80 93 02 08 	sts	0x0802, r24	; 0x800802 <__TEXT_REGION_LENGTH__+0x700802>
     5e0:	80 91 a1 39 	lds	r24, 0x39A1	; 0x8039a1 <serTxAddr>
     5e4:	90 91 a2 39 	lds	r25, 0x39A2	; 0x8039a2 <serTxAddr+0x1>
     5e8:	01 96       	adiw	r24, 0x01	; 1
     5ea:	80 93 a1 39 	sts	0x39A1, r24	; 0x8039a1 <serTxAddr>
     5ee:	90 93 a2 39 	sts	0x39A2, r25	; 0x8039a2 <serTxAddr+0x1>
     5f2:	e5 e0       	ldi	r30, 0x05	; 5
     5f4:	f8 e0       	ldi	r31, 0x08	; 8
     5f6:	80 81       	ld	r24, Z
     5f8:	80 62       	ori	r24, 0x20	; 32
     5fa:	80 83       	st	Z, r24
     5fc:	05 c0       	rjmp	.+10     	; 0x608 <__vector_13+0x4e>
     5fe:	81 e0       	ldi	r24, 0x01	; 1
     600:	80 93 04 38 	sts	0x3804, r24	; 0x803804 <serTxDone>
     604:	10 92 45 0a 	sts	0x0A45, r1	; 0x800a45 <__TEXT_REGION_LENGTH__+0x700a45>
     608:	81 e0       	ldi	r24, 0x01	; 1
     60a:	80 93 46 0a 	sts	0x0A46, r24	; 0x800a46 <__TEXT_REGION_LENGTH__+0x700a46>
     60e:	ff 91       	pop	r31
     610:	ef 91       	pop	r30
     612:	9f 91       	pop	r25
     614:	8f 91       	pop	r24
     616:	0f 90       	pop	r0
     618:	0f be       	out	0x3f, r0	; 63
     61a:	0f 90       	pop	r0
     61c:	1f 90       	pop	r1
     61e:	18 95       	reti

00000620 <__vector_14>:
     620:	1f 92       	push	r1
     622:	0f 92       	push	r0
     624:	0f b6       	in	r0, 0x3f	; 63
     626:	0f 92       	push	r0
     628:	11 24       	eor	r1, r1
     62a:	2f 93       	push	r18
     62c:	3f 93       	push	r19
     62e:	4f 93       	push	r20
     630:	8f 93       	push	r24
     632:	9f 93       	push	r25
     634:	ef 93       	push	r30
     636:	ff 93       	push	r31
     638:	e0 91 02 38 	lds	r30, 0x3802	; 0x803802 <auSmpAddr>
     63c:	f0 91 03 38 	lds	r31, 0x3803	; 0x803803 <auSmpAddr+0x1>
     640:	80 81       	ld	r24, Z
     642:	81 11       	cpse	r24, r1
     644:	08 c0       	rjmp	.+16     	; 0x656 <__vector_14+0x36>
     646:	80 91 00 38 	lds	r24, 0x3800	; 0x803800 <__data_start>
     64a:	90 91 01 38 	lds	r25, 0x3801	; 0x803801 <__data_start+0x1>
     64e:	80 93 02 38 	sts	0x3802, r24	; 0x803802 <auSmpAddr>
     652:	90 93 03 38 	sts	0x3803, r25	; 0x803803 <auSmpAddr+0x1>
     656:	e0 91 02 38 	lds	r30, 0x3802	; 0x803802 <auSmpAddr>
     65a:	f0 91 03 38 	lds	r31, 0x3803	; 0x803803 <auSmpAddr+0x1>
     65e:	80 81       	ld	r24, Z
     660:	88 23       	and	r24, r24
     662:	e1 f0       	breq	.+56     	; 0x69c <__vector_14+0x7c>
     664:	20 81       	ld	r18, Z
     666:	40 91 9e 39 	lds	r20, 0x399E	; 0x80399e <auVolume>
     66a:	30 e0       	ldi	r19, 0x00	; 0
     66c:	2f 57       	subi	r18, 0x7F	; 127
     66e:	31 09       	sbc	r19, r1
     670:	42 9f       	mul	r20, r18
     672:	c0 01       	movw	r24, r0
     674:	43 9f       	mul	r20, r19
     676:	90 0d       	add	r25, r0
     678:	11 24       	eor	r1, r1
     67a:	89 2f       	mov	r24, r25
     67c:	99 0f       	add	r25, r25
     67e:	99 0b       	sbc	r25, r25
     680:	80 58       	subi	r24, 0x80	; 128
     682:	9f 4f       	sbci	r25, 0xFF	; 255
     684:	80 93 a1 06 	sts	0x06A1, r24	; 0x8006a1 <__TEXT_REGION_LENGTH__+0x7006a1>
     688:	80 91 02 38 	lds	r24, 0x3802	; 0x803802 <auSmpAddr>
     68c:	90 91 03 38 	lds	r25, 0x3803	; 0x803803 <auSmpAddr+0x1>
     690:	01 96       	adiw	r24, 0x01	; 1
     692:	80 93 02 38 	sts	0x3802, r24	; 0x803802 <auSmpAddr>
     696:	90 93 03 38 	sts	0x3803, r25	; 0x803803 <auSmpAddr+0x1>
     69a:	06 c0       	rjmp	.+12     	; 0x6a8 <__vector_14+0x88>
     69c:	80 e8       	ldi	r24, 0x80	; 128
     69e:	80 93 a1 06 	sts	0x06A1, r24	; 0x8006a1 <__TEXT_REGION_LENGTH__+0x7006a1>
     6a2:	81 e0       	ldi	r24, 0x01	; 1
     6a4:	80 93 f0 39 	sts	0x39F0, r24	; 0x8039f0 <auPlayDone>
     6a8:	81 e0       	ldi	r24, 0x01	; 1
     6aa:	80 93 56 0a 	sts	0x0A56, r24	; 0x800a56 <__TEXT_REGION_LENGTH__+0x700a56>
     6ae:	ff 91       	pop	r31
     6b0:	ef 91       	pop	r30
     6b2:	9f 91       	pop	r25
     6b4:	8f 91       	pop	r24
     6b6:	4f 91       	pop	r20
     6b8:	3f 91       	pop	r19
     6ba:	2f 91       	pop	r18
     6bc:	0f 90       	pop	r0
     6be:	0f be       	out	0x3f, r0	; 63
     6c0:	0f 90       	pop	r0
     6c2:	1f 90       	pop	r1
     6c4:	18 95       	reti

000006c6 <__vector_27>:
     6c6:	1f 92       	push	r1
     6c8:	0f 92       	push	r0
     6ca:	0f b6       	in	r0, 0x3f	; 63
     6cc:	0f 92       	push	r0
     6ce:	11 24       	eor	r1, r1
     6d0:	8f 93       	push	r24
     6d2:	ef 93       	push	r30
     6d4:	ff 93       	push	r31
     6d6:	80 91 1c 38 	lds	r24, 0x381C	; 0x80381c <serRxDone>
     6da:	81 11       	cpse	r24, r1
     6dc:	1d c0       	rjmp	.+58     	; 0x718 <__vector_27+0x52>
     6de:	ed b3       	in	r30, 0x1d	; 29
     6e0:	f0 e0       	ldi	r31, 0x00	; 0
     6e2:	80 91 00 08 	lds	r24, 0x0800	; 0x800800 <__TEXT_REGION_LENGTH__+0x700800>
     6e6:	ea 5a       	subi	r30, 0xAA	; 170
     6e8:	f6 4c       	sbci	r31, 0xC6	; 198
     6ea:	80 83       	st	Z, r24
     6ec:	ed b3       	in	r30, 0x1d	; 29
     6ee:	f0 e0       	ldi	r31, 0x00	; 0
     6f0:	ea 5a       	subi	r30, 0xAA	; 170
     6f2:	f6 4c       	sbci	r31, 0xC6	; 198
     6f4:	80 81       	ld	r24, Z
     6f6:	8a 30       	cpi	r24, 0x0A	; 10
     6f8:	49 f4       	brne	.+18     	; 0x70c <__vector_27+0x46>
     6fa:	ed b3       	in	r30, 0x1d	; 29
     6fc:	f0 e0       	ldi	r31, 0x00	; 0
     6fe:	ea 5a       	subi	r30, 0xAA	; 170
     700:	f6 4c       	sbci	r31, 0xC6	; 198
     702:	10 82       	st	Z, r1
     704:	81 e0       	ldi	r24, 0x01	; 1
     706:	80 93 1c 38 	sts	0x381C, r24	; 0x80381c <serRxDone>
     70a:	06 c0       	rjmp	.+12     	; 0x718 <__vector_27+0x52>
     70c:	8d b3       	in	r24, 0x1d	; 29
     70e:	87 34       	cpi	r24, 0x47	; 71
     710:	18 f4       	brcc	.+6      	; 0x718 <__vector_27+0x52>
     712:	8d b3       	in	r24, 0x1d	; 29
     714:	8f 5f       	subi	r24, 0xFF	; 255
     716:	8d bb       	out	0x1d, r24	; 29
     718:	80 e8       	ldi	r24, 0x80	; 128
     71a:	80 93 04 08 	sts	0x0804, r24	; 0x800804 <__TEXT_REGION_LENGTH__+0x700804>
     71e:	ff 91       	pop	r31
     720:	ef 91       	pop	r30
     722:	8f 91       	pop	r24
     724:	0f 90       	pop	r0
     726:	0f be       	out	0x3f, r0	; 63
     728:	0f 90       	pop	r0
     72a:	1f 90       	pop	r1
     72c:	18 95       	reti

0000072e <__vector_28>:
     72e:	1f 92       	push	r1
     730:	0f 92       	push	r0
     732:	0f b6       	in	r0, 0x3f	; 63
     734:	0f 92       	push	r0
     736:	11 24       	eor	r1, r1
     738:	8f 93       	push	r24
     73a:	ef 93       	push	r30
     73c:	ff 93       	push	r31
     73e:	10 92 4a 0a 	sts	0x0A4A, r1	; 0x800a4a <__TEXT_REGION_LENGTH__+0x700a4a>
     742:	10 92 4b 0a 	sts	0x0A4B, r1	; 0x800a4b <__TEXT_REGION_LENGTH__+0x700a4b>
     746:	81 e0       	ldi	r24, 0x01	; 1
     748:	80 93 45 0a 	sts	0x0A45, r24	; 0x800a45 <__TEXT_REGION_LENGTH__+0x700a45>
     74c:	e5 e0       	ldi	r30, 0x05	; 5
     74e:	f8 e0       	ldi	r31, 0x08	; 8
     750:	80 81       	ld	r24, Z
     752:	8f 7d       	andi	r24, 0xDF	; 223
     754:	80 83       	st	Z, r24
     756:	ff 91       	pop	r31
     758:	ef 91       	pop	r30
     75a:	8f 91       	pop	r24
     75c:	0f 90       	pop	r0
     75e:	0f be       	out	0x3f, r0	; 63
     760:	0f 90       	pop	r0
     762:	1f 90       	pop	r1
     764:	18 95       	reti

00000766 <__vector_20>:
     766:	1f 92       	push	r1
     768:	0f 92       	push	r0
     76a:	0f b6       	in	r0, 0x3f	; 63
     76c:	0f 92       	push	r0
     76e:	11 24       	eor	r1, r1
     770:	8f 93       	push	r24
     772:	ef 93       	push	r30
     774:	ff 93       	push	r31
     776:	80 91 19 38 	lds	r24, 0x3819	; 0x803819 <adc0Chg>
     77a:	81 11       	cpse	r24, r1
     77c:	15 c0       	rjmp	.+42     	; 0x7a8 <__vector_20+0x42>
     77e:	8e b3       	in	r24, 0x1e	; 30
     780:	8f 5f       	subi	r24, 0xFF	; 255
     782:	8f 71       	andi	r24, 0x1F	; 31
     784:	8e bb       	out	0x1e, r24	; 30
     786:	80 91 06 06 	lds	r24, 0x0606	; 0x800606 <__TEXT_REGION_LENGTH__+0x700606>
     78a:	8e 31       	cpi	r24, 0x1E	; 30
     78c:	29 f4       	brne	.+10     	; 0x798 <__vector_20+0x32>
     78e:	80 91 10 06 	lds	r24, 0x0610	; 0x800610 <__TEXT_REGION_LENGTH__+0x700610>
     792:	80 93 f1 39 	sts	0x39F1, r24	; 0x8039f1 <adcTemp>
     796:	0a c0       	rjmp	.+20     	; 0x7ac <__vector_20+0x46>
     798:	ee b3       	in	r30, 0x1e	; 30
     79a:	f0 e0       	ldi	r31, 0x00	; 0
     79c:	80 91 10 06 	lds	r24, 0x0610	; 0x800610 <__TEXT_REGION_LENGTH__+0x700610>
     7a0:	e8 55       	subi	r30, 0x58	; 88
     7a2:	f6 4c       	sbci	r31, 0xC6	; 198
     7a4:	80 83       	st	Z, r24
     7a6:	02 c0       	rjmp	.+4      	; 0x7ac <__vector_20+0x46>
     7a8:	10 92 19 38 	sts	0x3819, r1	; 0x803819 <adc0Chg>
     7ac:	81 e0       	ldi	r24, 0x01	; 1
     7ae:	80 93 0b 06 	sts	0x060B, r24	; 0x80060b <__TEXT_REGION_LENGTH__+0x70060b>
     7b2:	ff 91       	pop	r31
     7b4:	ef 91       	pop	r30
     7b6:	8f 91       	pop	r24
     7b8:	0f 90       	pop	r0
     7ba:	0f be       	out	0x3f, r0	; 63
     7bc:	0f 90       	pop	r0
     7be:	1f 90       	pop	r1
     7c0:	18 95       	reti

000007c2 <__vector_22>:
     7c2:	1f 92       	push	r1
     7c4:	0f 92       	push	r0
     7c6:	0f b6       	in	r0, 0x3f	; 63
     7c8:	0f 92       	push	r0
     7ca:	11 24       	eor	r1, r1
     7cc:	8f 93       	push	r24
     7ce:	9f 93       	push	r25
     7d0:	80 91 46 06 	lds	r24, 0x0646	; 0x800646 <__TEXT_REGION_LENGTH__+0x700646>
     7d4:	81 11       	cpse	r24, r1
     7d6:	0c c0       	rjmp	.+24     	; 0x7f0 <__vector_22+0x2e>
     7d8:	80 91 50 06 	lds	r24, 0x0650	; 0x800650 <__TEXT_REGION_LENGTH__+0x700650>
     7dc:	90 91 51 06 	lds	r25, 0x0651	; 0x800651 <__TEXT_REGION_LENGTH__+0x700651>
     7e0:	80 93 a5 39 	sts	0x39A5, r24	; 0x8039a5 <adcPhot>
     7e4:	90 93 a6 39 	sts	0x39A6, r25	; 0x8039a6 <adcPhot+0x1>
     7e8:	81 e0       	ldi	r24, 0x01	; 1
     7ea:	80 93 46 06 	sts	0x0646, r24	; 0x800646 <__TEXT_REGION_LENGTH__+0x700646>
     7ee:	23 c0       	rjmp	.+70     	; 0x836 <__vector_22+0x74>
     7f0:	80 91 46 06 	lds	r24, 0x0646	; 0x800646 <__TEXT_REGION_LENGTH__+0x700646>
     7f4:	81 30       	cpi	r24, 0x01	; 1
     7f6:	79 f4       	brne	.+30     	; 0x816 <__vector_22+0x54>
     7f8:	88 e0       	ldi	r24, 0x08	; 8
     7fa:	80 93 06 04 	sts	0x0406, r24	; 0x800406 <__TEXT_REGION_LENGTH__+0x700406>
     7fe:	80 91 50 06 	lds	r24, 0x0650	; 0x800650 <__TEXT_REGION_LENGTH__+0x700650>
     802:	90 91 51 06 	lds	r25, 0x0651	; 0x800651 <__TEXT_REGION_LENGTH__+0x700651>
     806:	80 93 a3 39 	sts	0x39A3, r24	; 0x8039a3 <adcHall>
     80a:	90 93 a4 39 	sts	0x39A4, r25	; 0x8039a4 <adcHall+0x1>
     80e:	84 e0       	ldi	r24, 0x04	; 4
     810:	80 93 46 06 	sts	0x0646, r24	; 0x800646 <__TEXT_REGION_LENGTH__+0x700646>
     814:	10 c0       	rjmp	.+32     	; 0x836 <__vector_22+0x74>
     816:	80 91 50 06 	lds	r24, 0x0650	; 0x800650 <__TEXT_REGION_LENGTH__+0x700650>
     81a:	90 91 51 06 	lds	r25, 0x0651	; 0x800651 <__TEXT_REGION_LENGTH__+0x700651>
     81e:	80 93 9f 39 	sts	0x399F, r24	; 0x80399f <adcBtns>
     822:	90 93 a0 39 	sts	0x39A0, r25	; 0x8039a0 <adcBtns+0x1>
     826:	8f b3       	in	r24, 0x1f	; 31
     828:	8f 30       	cpi	r24, 0x0F	; 15
     82a:	29 f4       	brne	.+10     	; 0x836 <__vector_22+0x74>
     82c:	10 92 46 06 	sts	0x0646, r1	; 0x800646 <__TEXT_REGION_LENGTH__+0x700646>
     830:	88 e0       	ldi	r24, 0x08	; 8
     832:	80 93 05 04 	sts	0x0405, r24	; 0x800405 <__TEXT_REGION_LENGTH__+0x700405>
     836:	8f b3       	in	r24, 0x1f	; 31
     838:	90 e0       	ldi	r25, 0x00	; 0
     83a:	01 96       	adiw	r24, 0x01	; 1
     83c:	8f 70       	andi	r24, 0x0F	; 15
     83e:	90 78       	andi	r25, 0x80	; 128
     840:	99 23       	and	r25, r25
     842:	24 f4       	brge	.+8      	; 0x84c <__vector_22+0x8a>
     844:	01 97       	sbiw	r24, 0x01	; 1
     846:	80 6f       	ori	r24, 0xF0	; 240
     848:	9f 6f       	ori	r25, 0xFF	; 255
     84a:	01 96       	adiw	r24, 0x01	; 1
     84c:	8f bb       	out	0x1f, r24	; 31
     84e:	81 e0       	ldi	r24, 0x01	; 1
     850:	80 93 4b 06 	sts	0x064B, r24	; 0x80064b <__TEXT_REGION_LENGTH__+0x70064b>
     854:	9f 91       	pop	r25
     856:	8f 91       	pop	r24
     858:	0f 90       	pop	r0
     85a:	0f be       	out	0x3f, r0	; 63
     85c:	0f 90       	pop	r0
     85e:	1f 90       	pop	r1
     860:	18 95       	reti

00000862 <__vector_6>:
     862:	1f 92       	push	r1
     864:	0f 92       	push	r0
     866:	0f b6       	in	r0, 0x3f	; 63
     868:	0f 92       	push	r0
     86a:	11 24       	eor	r1, r1
     86c:	5f 93       	push	r21
     86e:	6f 93       	push	r22
     870:	7f 93       	push	r23
     872:	8f 93       	push	r24
     874:	9f 93       	push	r25
     876:	af 93       	push	r26
     878:	bf 93       	push	r27
     87a:	ef 93       	push	r30
     87c:	ff 93       	push	r31
     87e:	80 91 43 01 	lds	r24, 0x0143	; 0x800143 <__TEXT_REGION_LENGTH__+0x700143>
     882:	81 ff       	sbrs	r24, 1
     884:	28 c0       	rjmp	.+80     	; 0x8d6 <__vector_6+0x74>
     886:	80 91 1a 38 	lds	r24, 0x381A	; 0x80381a <buttonMark>
     88a:	8f 3f       	cpi	r24, 0xFF	; 255
     88c:	29 f0       	breq	.+10     	; 0x898 <__vector_6+0x36>
     88e:	80 91 1a 38 	lds	r24, 0x381A	; 0x80381a <buttonMark>
     892:	8f 5f       	subi	r24, 0xFF	; 255
     894:	80 93 1a 38 	sts	0x381A, r24	; 0x80381a <buttonMark>
     898:	80 91 48 01 	lds	r24, 0x0148	; 0x800148 <__TEXT_REGION_LENGTH__+0x700148>
     89c:	90 91 49 01 	lds	r25, 0x0149	; 0x800149 <__TEXT_REGION_LENGTH__+0x700149>
     8a0:	60 91 4a 01 	lds	r22, 0x014A	; 0x80014a <__TEXT_REGION_LENGTH__+0x70014a>
     8a4:	70 91 4b 01 	lds	r23, 0x014B	; 0x80014b <__TEXT_REGION_LENGTH__+0x70014b>
     8a8:	82 96       	adiw	r24, 0x22	; 34
     8aa:	99 d7       	rcall	.+3890   	; 0x17de <__udivmodhi4>
     8ac:	80 93 f2 39 	sts	0x39F2, r24	; 0x8039f2 <tmp16bit>
     8b0:	90 93 f3 39 	sts	0x39F3, r25	; 0x8039f3 <tmp16bit+0x1>
     8b4:	e1 e4       	ldi	r30, 0x41	; 65
     8b6:	f1 e0       	ldi	r31, 0x01	; 1
     8b8:	80 81       	ld	r24, Z
     8ba:	83 fd       	sbrc	r24, 3
     8bc:	fd cf       	rjmp	.-6      	; 0x8b8 <__vector_6+0x56>
     8be:	80 91 f2 39 	lds	r24, 0x39F2	; 0x8039f2 <tmp16bit>
     8c2:	90 91 f3 39 	lds	r25, 0x39F3	; 0x8039f3 <tmp16bit+0x1>
     8c6:	80 93 4c 01 	sts	0x014C, r24	; 0x80014c <__TEXT_REGION_LENGTH__+0x70014c>
     8ca:	90 93 4d 01 	sts	0x014D, r25	; 0x80014d <__TEXT_REGION_LENGTH__+0x70014d>
     8ce:	82 e0       	ldi	r24, 0x02	; 2
     8d0:	80 93 43 01 	sts	0x0143, r24	; 0x800143 <__TEXT_REGION_LENGTH__+0x700143>
     8d4:	0c c0       	rjmp	.+24     	; 0x8ee <__vector_6+0x8c>
     8d6:	80 91 1b 38 	lds	r24, 0x381B	; 0x80381b <minuteMark>
     8da:	8f 3f       	cpi	r24, 0xFF	; 255
     8dc:	29 f0       	breq	.+10     	; 0x8e8 <__vector_6+0x86>
     8de:	80 91 1b 38 	lds	r24, 0x381B	; 0x80381b <minuteMark>
     8e2:	8f 5f       	subi	r24, 0xFF	; 255
     8e4:	80 93 1b 38 	sts	0x381B, r24	; 0x80381b <minuteMark>
     8e8:	81 e0       	ldi	r24, 0x01	; 1
     8ea:	80 93 43 01 	sts	0x0143, r24	; 0x800143 <__TEXT_REGION_LENGTH__+0x700143>
     8ee:	ff 91       	pop	r31
     8f0:	ef 91       	pop	r30
     8f2:	bf 91       	pop	r27
     8f4:	af 91       	pop	r26
     8f6:	9f 91       	pop	r25
     8f8:	8f 91       	pop	r24
     8fa:	7f 91       	pop	r23
     8fc:	6f 91       	pop	r22
     8fe:	5f 91       	pop	r21
     900:	0f 90       	pop	r0
     902:	0f be       	out	0x3f, r0	; 63
     904:	0f 90       	pop	r0
     906:	1f 90       	pop	r1
     908:	18 95       	reti

0000090a <__vector_7>:
     90a:	1f 92       	push	r1
     90c:	0f 92       	push	r0
     90e:	0f b6       	in	r0, 0x3f	; 63
     910:	0f 92       	push	r0
     912:	11 24       	eor	r1, r1
     914:	8f 93       	push	r24
     916:	81 e0       	ldi	r24, 0x01	; 1
     918:	80 93 48 06 	sts	0x0648, r24	; 0x800648 <__TEXT_REGION_LENGTH__+0x700648>
     91c:	80 93 53 01 	sts	0x0153, r24	; 0x800153 <__TEXT_REGION_LENGTH__+0x700153>
     920:	8f 91       	pop	r24
     922:	0f 90       	pop	r0
     924:	0f be       	out	0x3f, r0	; 63
     926:	0f 90       	pop	r0
     928:	1f 90       	pop	r1
     92a:	18 95       	reti

0000092c <EERead>:
     92c:	e2 e0       	ldi	r30, 0x02	; 2
     92e:	f0 e1       	ldi	r31, 0x10	; 16
     930:	90 81       	ld	r25, Z
     932:	91 fd       	sbrc	r25, 1
     934:	fd cf       	rjmp	.-6      	; 0x930 <EERead+0x4>
     936:	44 23       	and	r20, r20
     938:	59 f0       	breq	.+22     	; 0x950 <EERead+0x24>
     93a:	a6 2f       	mov	r26, r22
     93c:	b7 2f       	mov	r27, r23
     93e:	48 0f       	add	r20, r24
     940:	e8 2f       	mov	r30, r24
     942:	f0 e0       	ldi	r31, 0x00	; 0
     944:	fc 5e       	subi	r31, 0xEC	; 236
     946:	90 81       	ld	r25, Z
     948:	9d 93       	st	X+, r25
     94a:	8f 5f       	subi	r24, 0xFF	; 255
     94c:	48 13       	cpse	r20, r24
     94e:	f8 cf       	rjmp	.-16     	; 0x940 <EERead+0x14>
     950:	08 95       	ret

00000952 <EEWrite>:
     952:	ff 92       	push	r15
     954:	0f 93       	push	r16
     956:	1f 93       	push	r17
     958:	cf 93       	push	r28
     95a:	df 93       	push	r29
     95c:	e8 2f       	mov	r30, r24
     95e:	44 23       	and	r20, r20
     960:	79 f1       	breq	.+94     	; 0x9c0 <EEWrite+0x6e>
     962:	c2 e0       	ldi	r28, 0x02	; 2
     964:	d0 e1       	ldi	r29, 0x10	; 16
     966:	3d e9       	ldi	r19, 0x9D	; 157
     968:	00 e0       	ldi	r16, 0x00	; 0
     96a:	10 e1       	ldi	r17, 0x10	; 16
     96c:	54 e0       	ldi	r21, 0x04	; 4
     96e:	0f 2e       	mov	r0, r31
     970:	f3 e0       	ldi	r31, 0x03	; 3
     972:	ff 2e       	mov	r15, r31
     974:	f0 2d       	mov	r31, r0
     976:	88 81       	ld	r24, Y
     978:	81 fd       	sbrc	r24, 1
     97a:	fd cf       	rjmp	.-6      	; 0x976 <EEWrite+0x24>
     97c:	34 bf       	out	0x34, r19	; 52
     97e:	d8 01       	movw	r26, r16
     980:	5c 93       	st	X, r21
     982:	44 23       	and	r20, r20
     984:	91 f0       	breq	.+36     	; 0x9aa <EEWrite+0x58>
     986:	2e 2f       	mov	r18, r30
     988:	2f 71       	andi	r18, 0x1F	; 31
     98a:	91 e0       	ldi	r25, 0x01	; 1
     98c:	9e 0f       	add	r25, r30
     98e:	6f 5f       	subi	r22, 0xFF	; 255
     990:	7f 4f       	sbci	r23, 0xFF	; 255
     992:	db 01       	movw	r26, r22
     994:	11 97       	sbiw	r26, 0x01	; 1
     996:	8c 91       	ld	r24, X
     998:	f0 e0       	ldi	r31, 0x00	; 0
     99a:	fc 5e       	subi	r31, 0xEC	; 236
     99c:	80 83       	st	Z, r24
     99e:	41 50       	subi	r20, 0x01	; 1
     9a0:	21 f0       	breq	.+8      	; 0x9aa <EEWrite+0x58>
     9a2:	e9 2f       	mov	r30, r25
     9a4:	2f 31       	cpi	r18, 0x1F	; 31
     9a6:	79 f7       	brne	.-34     	; 0x986 <EEWrite+0x34>
     9a8:	0f c0       	rjmp	.+30     	; 0x9c8 <EEWrite+0x76>
     9aa:	8d e9       	ldi	r24, 0x9D	; 157
     9ac:	84 bf       	out	0x34, r24	; 52
     9ae:	83 e0       	ldi	r24, 0x03	; 3
     9b0:	80 93 00 10 	sts	0x1000, r24	; 0x801000 <__TEXT_REGION_LENGTH__+0x701000>
     9b4:	80 91 02 10 	lds	r24, 0x1002	; 0x801002 <__TEXT_REGION_LENGTH__+0x701002>
     9b8:	82 fb       	bst	r24, 2
     9ba:	88 27       	eor	r24, r24
     9bc:	80 f9       	bld	r24, 0
     9be:	0c c0       	rjmp	.+24     	; 0x9d8 <EEWrite+0x86>
     9c0:	80 e0       	ldi	r24, 0x00	; 0
     9c2:	0a c0       	rjmp	.+20     	; 0x9d8 <EEWrite+0x86>
     9c4:	81 e0       	ldi	r24, 0x01	; 1
     9c6:	08 c0       	rjmp	.+16     	; 0x9d8 <EEWrite+0x86>
     9c8:	34 bf       	out	0x34, r19	; 52
     9ca:	f8 01       	movw	r30, r16
     9cc:	f0 82       	st	Z, r15
     9ce:	88 81       	ld	r24, Y
     9d0:	82 fd       	sbrc	r24, 2
     9d2:	f8 cf       	rjmp	.-16     	; 0x9c4 <EEWrite+0x72>
     9d4:	e9 2f       	mov	r30, r25
     9d6:	cf cf       	rjmp	.-98     	; 0x976 <EEWrite+0x24>
     9d8:	df 91       	pop	r29
     9da:	cf 91       	pop	r28
     9dc:	1f 91       	pop	r17
     9de:	0f 91       	pop	r16
     9e0:	ff 90       	pop	r15
     9e2:	08 95       	ret

000009e4 <SerSend>:
     9e4:	9c 01       	movw	r18, r24
     9e6:	90 91 04 38 	lds	r25, 0x3804	; 0x803804 <serTxDone>
     9ea:	99 23       	and	r25, r25
     9ec:	59 f0       	breq	.+22     	; 0xa04 <SerSend+0x20>
     9ee:	20 93 a1 39 	sts	0x39A1, r18	; 0x8039a1 <serTxAddr>
     9f2:	30 93 a2 39 	sts	0x39A2, r19	; 0x8039a2 <serTxAddr+0x1>
     9f6:	10 92 04 38 	sts	0x3804, r1	; 0x803804 <serTxDone>
     9fa:	81 e0       	ldi	r24, 0x01	; 1
     9fc:	80 93 45 0a 	sts	0x0A45, r24	; 0x800a45 <__TEXT_REGION_LENGTH__+0x700a45>
     a00:	80 e0       	ldi	r24, 0x00	; 0
     a02:	08 95       	ret
     a04:	81 e0       	ldi	r24, 0x01	; 1
     a06:	08 95       	ret

00000a08 <SerSpeed>:
     a08:	28 2f       	mov	r18, r24
     a0a:	81 11       	cpse	r24, r1
     a0c:	01 c0       	rjmp	.+2      	; 0xa10 <SerSpeed+0x8>
     a0e:	21 e0       	ldi	r18, 0x01	; 1
     a10:	8f ef       	ldi	r24, 0xFF	; 255
     a12:	90 e0       	ldi	r25, 0x00	; 0
     a14:	82 1b       	sub	r24, r18
     a16:	91 09       	sbc	r25, r1
     a18:	98 2f       	mov	r25, r24
     a1a:	88 27       	eor	r24, r24
     a1c:	81 50       	subi	r24, 0x01	; 1
     a1e:	9f 4f       	sbci	r25, 0xFF	; 255
     a20:	80 93 4c 0a 	sts	0x0A4C, r24	; 0x800a4c <__TEXT_REGION_LENGTH__+0x700a4c>
     a24:	90 93 4d 0a 	sts	0x0A4D, r25	; 0x800a4d <__TEXT_REGION_LENGTH__+0x700a4d>
     a28:	08 95       	ret

00000a2a <CheckButtons>:
};

// Returns button combination (4LSB) and number of consecutive times this combination is detected. First read should always be ignored! 
uint8_t CheckButtons(uint8_t previousValue){
    uint8_t bADC = (uint8_t)(adcBtns>>4);
     a2a:	20 91 9f 39 	lds	r18, 0x399F	; 0x80399f <adcBtns>
     a2e:	30 91 a0 39 	lds	r19, 0x39A0	; 0x8039a0 <adcBtns+0x1>
    uint8_t bNibble = 0x0F;     //MSB to LSB: Bottom left, top left, top right, bottom right, 0F is error
    
    switch(bADC){
     a32:	32 95       	swap	r19
     a34:	22 95       	swap	r18
     a36:	2f 70       	andi	r18, 0x0F	; 15
     a38:	23 27       	eor	r18, r19
     a3a:	3f 70       	andi	r19, 0x0F	; 15
     a3c:	23 27       	eor	r18, r19
     a3e:	33 27       	eor	r19, r19
     a40:	2c 35       	cpi	r18, 0x5C	; 92
     a42:	31 05       	cpc	r19, r1
     a44:	d0 f4       	brcc	.+52     	; 0xa7a <CheckButtons+0x50>
     a46:	23 35       	cpi	r18, 0x53	; 83
     a48:	31 05       	cpc	r19, r1
     a4a:	98 f5       	brcc	.+102    	; 0xab2 <CheckButtons+0x88>
     a4c:	22 33       	cpi	r18, 0x32	; 50
     a4e:	31 05       	cpc	r19, r1
     a50:	50 f4       	brcc	.+20     	; 0xa66 <CheckButtons+0x3c>
     a52:	2d 32       	cpi	r18, 0x2D	; 45
     a54:	31 05       	cpc	r19, r1
     a56:	48 f5       	brcc	.+82     	; 0xaaa <CheckButtons+0x80>
     a58:	23 52       	subi	r18, 0x23	; 35
     a5a:	31 09       	sbc	r19, r1
     a5c:	25 30       	cpi	r18, 0x05	; 5
     a5e:	31 05       	cpc	r19, r1
     a60:	08 f4       	brcc	.+2      	; 0xa64 <CheckButtons+0x3a>
     a62:	42 c0       	rjmp	.+132    	; 0xae8 <CheckButtons+0xbe>
     a64:	2e c0       	rjmp	.+92     	; 0xac2 <CheckButtons+0x98>
     a66:	27 33       	cpi	r18, 0x37	; 55
     a68:	31 05       	cpc	r19, r1
     a6a:	08 f4       	brcc	.+2      	; 0xa6e <CheckButtons+0x44>
     a6c:	3f c0       	rjmp	.+126    	; 0xaec <CheckButtons+0xc2>
     a6e:	2e 53       	subi	r18, 0x3E	; 62
     a70:	31 09       	sbc	r19, r1
     a72:	27 30       	cpi	r18, 0x07	; 7
     a74:	31 05       	cpc	r19, r1
     a76:	d8 f0       	brcs	.+54     	; 0xaae <CheckButtons+0x84>
     a78:	24 c0       	rjmp	.+72     	; 0xac2 <CheckButtons+0x98>
     a7a:	2a 38       	cpi	r18, 0x8A	; 138
     a7c:	31 05       	cpc	r19, r1
     a7e:	48 f4       	brcc	.+18     	; 0xa92 <CheckButtons+0x68>
     a80:	29 37       	cpi	r18, 0x79	; 121
     a82:	31 05       	cpc	r19, r1
     a84:	d0 f4       	brcc	.+52     	; 0xaba <CheckButtons+0x90>
     a86:	23 56       	subi	r18, 0x63	; 99
     a88:	31 09       	sbc	r19, r1
     a8a:	2b 30       	cpi	r18, 0x0B	; 11
     a8c:	31 05       	cpc	r19, r1
     a8e:	98 f0       	brcs	.+38     	; 0xab6 <CheckButtons+0x8c>
     a90:	18 c0       	rjmp	.+48     	; 0xac2 <CheckButtons+0x98>
     a92:	22 3a       	cpi	r18, 0xA2	; 162
     a94:	31 05       	cpc	r19, r1
     a96:	a8 f0       	brcs	.+42     	; 0xac2 <CheckButtons+0x98>
     a98:	2b 3b       	cpi	r18, 0xBB	; 187
     a9a:	31 05       	cpc	r19, r1
     a9c:	80 f0       	brcs	.+32     	; 0xabe <CheckButtons+0x94>
     a9e:	20 5f       	subi	r18, 0xF0	; 240
     aa0:	31 09       	sbc	r19, r1
     aa2:	20 31       	cpi	r18, 0x10	; 16
     aa4:	31 05       	cpc	r19, r1
     aa6:	d8 f0       	brcs	.+54     	; 0xade <CheckButtons+0xb4>
     aa8:	0c c0       	rjmp	.+24     	; 0xac2 <CheckButtons+0x98>
        case 35 ... 39:          //37: Both left
        bNibble = 0b1100;
        break;

        case 45 ... 49:          //47: Both bottom
        bNibble = 0b1001;
     aaa:	99 e0       	ldi	r25, 0x09	; 9
     aac:	20 c0       	rjmp	.+64     	; 0xaee <CheckButtons+0xc4>
        case 50 ... 54:          //52: Bottom left
        bNibble = 0b1000;
        break;

        case 62 ... 68:          //65: Both top
        bNibble = 0b0110;
     aae:	96 e0       	ldi	r25, 0x06	; 6
        break;
     ab0:	1e c0       	rjmp	.+60     	; 0xaee <CheckButtons+0xc4>

        case 83 ... 91:          //87: Top left
        bNibble = 0b0100;
     ab2:	94 e0       	ldi	r25, 0x04	; 4
        break;
     ab4:	1c c0       	rjmp	.+56     	; 0xaee <CheckButtons+0xc4>

        case 99 ... 109:         //104: Both right
        bNibble = 0b0011;
     ab6:	93 e0       	ldi	r25, 0x03	; 3
        break;
     ab8:	1a c0       	rjmp	.+52     	; 0xaee <CheckButtons+0xc4>

        case 121 ... 137:        //129: Top right
        bNibble = 0b0010;
     aba:	92 e0       	ldi	r25, 0x02	; 2
        break;
     abc:	18 c0       	rjmp	.+48     	; 0xaee <CheckButtons+0xc4>

        case 162 ... 186:        //174: Bottom right
        bNibble = 0b0001;
     abe:	91 e0       	ldi	r25, 0x01	; 1
        break;
     ac0:	16 c0       	rjmp	.+44     	; 0xaee <CheckButtons+0xc4>
        case 240 ... 255:        //255: No button pressed
        bNibble = 0b0000;
        break;
    }

    if ((previousValue&0x0F)==bNibble){
     ac2:	98 2f       	mov	r25, r24
     ac4:	9f 70       	andi	r25, 0x0F	; 15
     ac6:	9f 30       	cpi	r25, 0x0F	; 15
     ac8:	41 f4       	brne	.+16     	; 0xada <CheckButtons+0xb0>
        if ((previousValue&0xF0) < 0xF0) previousValue += 0x10; //Same value? Increase time nibble
     aca:	28 2f       	mov	r18, r24
     acc:	20 7f       	andi	r18, 0xF0	; 240
     ace:	30 e0       	ldi	r19, 0x00	; 0
     ad0:	20 3f       	cpi	r18, 0xF0	; 240
     ad2:	31 05       	cpc	r19, r1
     ad4:	8c f4       	brge	.+34     	; 0xaf8 <CheckButtons+0xce>
     ad6:	80 5f       	subi	r24, 0xF0	; 240
     ad8:	08 95       	ret
};

// Returns button combination (4LSB) and number of consecutive times this combination is detected. First read should always be ignored! 
uint8_t CheckButtons(uint8_t previousValue){
    uint8_t bADC = (uint8_t)(adcBtns>>4);
    uint8_t bNibble = 0x0F;     //MSB to LSB: Bottom left, top left, top right, bottom right, 0F is error
     ada:	8f e0       	ldi	r24, 0x0F	; 15
     adc:	08 95       	ret
        case 240 ... 255:        //255: No button pressed
        bNibble = 0b0000;
        break;
    }

    if ((previousValue&0x0F)==bNibble){
     ade:	98 2f       	mov	r25, r24
     ae0:	9f 70       	andi	r25, 0x0F	; 15
     ae2:	99 f3       	breq	.-26     	; 0xaca <CheckButtons+0xa0>
        if ((previousValue&0xF0) < 0xF0) previousValue += 0x10; //Same value? Increase time nibble
        return previousValue;       
    } else if (bNibble == 0) return 0xFF; //Buttons released, 0xFF triggers readout, previousValue holds last button value.
     ae4:	8f ef       	ldi	r24, 0xFF	; 255
     ae6:	08 95       	ret
        case 28 ... 32:         //30: All buttons pressed
        bNibble = 0b1111;
        break;

        case 35 ... 39:          //37: Both left
        bNibble = 0b1100;
     ae8:	9c e0       	ldi	r25, 0x0C	; 12
     aea:	01 c0       	rjmp	.+2      	; 0xaee <CheckButtons+0xc4>
        case 45 ... 49:          //47: Both bottom
        bNibble = 0b1001;
        break;

        case 50 ... 54:          //52: Bottom left
        bNibble = 0b1000;
     aec:	98 e0       	ldi	r25, 0x08	; 8
        case 240 ... 255:        //255: No button pressed
        bNibble = 0b0000;
        break;
    }

    if ((previousValue&0x0F)==bNibble){
     aee:	28 2f       	mov	r18, r24
     af0:	2f 70       	andi	r18, 0x0F	; 15
     af2:	92 17       	cp	r25, r18
     af4:	51 f3       	breq	.-44     	; 0xaca <CheckButtons+0xa0>
     af6:	89 2f       	mov	r24, r25
        if ((previousValue&0xF0) < 0xF0) previousValue += 0x10; //Same value? Increase time nibble
        return previousValue;       
    } else if (bNibble == 0) return 0xFF; //Buttons released, 0xFF triggers readout, previousValue holds last button value.
              else return bNibble;  //New value  
}
     af8:	08 95       	ret

00000afa <lfsr>:

uint8_t lfsr(){
    static uint16_t state = 0xd401;
    state ^= (state << 13);
     afa:	80 91 0c 38 	lds	r24, 0x380C	; 0x80380c <state.3858>
     afe:	90 91 0d 38 	lds	r25, 0x380D	; 0x80380d <state.3858+0x1>
     b02:	9c 01       	movw	r18, r24
     b04:	32 2f       	mov	r19, r18
     b06:	22 27       	eor	r18, r18
     b08:	32 95       	swap	r19
     b0a:	33 0f       	add	r19, r19
     b0c:	30 7e       	andi	r19, 0xE0	; 224
     b0e:	82 27       	eor	r24, r18
     b10:	93 27       	eor	r25, r19
    state ^= (state >> 9);
     b12:	9c 01       	movw	r18, r24
     b14:	23 2f       	mov	r18, r19
     b16:	33 27       	eor	r19, r19
     b18:	26 95       	lsr	r18
     b1a:	82 27       	eor	r24, r18
     b1c:	93 27       	eor	r25, r19
    state ^= (state << 7);
     b1e:	9c 01       	movw	r18, r24
     b20:	36 95       	lsr	r19
     b22:	32 2f       	mov	r19, r18
     b24:	22 27       	eor	r18, r18
     b26:	37 95       	ror	r19
     b28:	27 95       	ror	r18
     b2a:	82 27       	eor	r24, r18
     b2c:	93 27       	eor	r25, r19
     b2e:	80 93 0c 38 	sts	0x380C, r24	; 0x80380c <state.3858>
     b32:	90 93 0d 38 	sts	0x380D, r25	; 0x80380d <state.3858+0x1>
    return (state & 0xff);
}
     b36:	08 95       	ret

00000b38 <floatSpeed>:

void floatSpeed(uint8_t bits, uint16_t min, uint16_t max){
     b38:	df 92       	push	r13
     b3a:	ef 92       	push	r14
     b3c:	ff 92       	push	r15
     b3e:	0f 93       	push	r16
     b40:	1f 93       	push	r17
     b42:	cf 93       	push	r28
     b44:	df 93       	push	r29
     b46:	e6 2e       	mov	r14, r22
     b48:	f7 2e       	mov	r15, r23
     b4a:	8a 01       	movw	r16, r20
    uint16_t val = TCB1_CCMP;
     b4c:	c0 91 5c 0a 	lds	r28, 0x0A5C	; 0x800a5c <__TEXT_REGION_LENGTH__+0x700a5c>
     b50:	d0 91 5d 0a 	lds	r29, 0x0A5D	; 0x800a5d <__TEXT_REGION_LENGTH__+0x700a5d>
    bits = mask[(bits-1)&0x07];
     b54:	e8 2f       	mov	r30, r24
     b56:	f0 e0       	ldi	r31, 0x00	; 0
     b58:	31 97       	sbiw	r30, 0x01	; 1
     b5a:	e7 70       	andi	r30, 0x07	; 7
     b5c:	ff 27       	eor	r31, r31
     b5e:	e2 5f       	subi	r30, 0xF2	; 242
     b60:	f7 4c       	sbci	r31, 0xC7	; 199
     b62:	d0 80       	ld	r13, Z
    val += (lfsr()&bits);
     b64:	ca df       	rcall	.-108    	; 0xafa <lfsr>
     b66:	8d 21       	and	r24, r13
     b68:	c8 0f       	add	r28, r24
     b6a:	d1 1d       	adc	r29, r1
    val -= (lfsr()&bits);
     b6c:	c6 df       	rcall	.-116    	; 0xafa <lfsr>
     b6e:	8d 21       	and	r24, r13
     b70:	c8 1b       	sub	r28, r24
     b72:	d1 09       	sbc	r29, r1
     b74:	0c 17       	cp	r16, r28
     b76:	1d 07       	cpc	r17, r29
     b78:	08 f4       	brcc	.+2      	; 0xb7c <floatSpeed+0x44>
     b7a:	e8 01       	movw	r28, r16
     b7c:	8e 2d       	mov	r24, r14
     b7e:	9f 2d       	mov	r25, r15
     b80:	8c 17       	cp	r24, r28
     b82:	9d 07       	cpc	r25, r29
     b84:	08 f4       	brcc	.+2      	; 0xb88 <floatSpeed+0x50>
     b86:	ce 01       	movw	r24, r28
     b88:	80 93 5c 0a 	sts	0x0A5C, r24	; 0x800a5c <__TEXT_REGION_LENGTH__+0x700a5c>
    if (val > max) val = max;    //0x038B is normal rate, for wind we need to be a bit slower
    if (val < min) val = min;  
    TCB1_CCMP = val;
     b8c:	90 93 5d 0a 	sts	0x0A5D, r25	; 0x800a5d <__TEXT_REGION_LENGTH__+0x700a5d>
     b90:	df 91       	pop	r29
}
     b92:	cf 91       	pop	r28
     b94:	1f 91       	pop	r17
     b96:	0f 91       	pop	r16
     b98:	ff 90       	pop	r15
     b9a:	ef 90       	pop	r14
     b9c:	df 90       	pop	r13
     b9e:	08 95       	ret

00000ba0 <floatAround>:
     ba0:	0f 93       	push	r16

uint8_t floatAround(uint8_t sample, uint8_t bits, uint8_t min, uint8_t max){
     ba2:	1f 93       	push	r17
     ba4:	cf 93       	push	r28
     ba6:	df 93       	push	r29
     ba8:	c8 2f       	mov	r28, r24
     baa:	04 2f       	mov	r16, r20
     bac:	12 2f       	mov	r17, r18
    bits = mask[(bits-1)&0x07];
     bae:	e6 2f       	mov	r30, r22
     bb0:	f0 e0       	ldi	r31, 0x00	; 0
     bb2:	31 97       	sbiw	r30, 0x01	; 1
     bb4:	e7 70       	andi	r30, 0x07	; 7
     bb6:	ff 27       	eor	r31, r31
     bb8:	e2 5f       	subi	r30, 0xF2	; 242
     bba:	f7 4c       	sbci	r31, 0xC7	; 199
     bbc:	d0 81       	ld	r29, Z
    sample += lfsr()&bits;
     bbe:	9d df       	rcall	.-198    	; 0xafa <lfsr>
     bc0:	8d 23       	and	r24, r29
     bc2:	c8 0f       	add	r28, r24
    sample -= lfsr()&bits;
     bc4:	9a df       	rcall	.-204    	; 0xafa <lfsr>
     bc6:	8d 23       	and	r24, r29
     bc8:	c8 1b       	sub	r28, r24
     bca:	8c 2f       	mov	r24, r28
     bcc:	11 23       	and	r17, r17
    if (max){
     bce:	41 f0       	breq	.+16     	; 0xbe0 <floatAround+0x40>
     bd0:	9c 2f       	mov	r25, r28
     bd2:	1c 17       	cp	r17, r28
     bd4:	08 f4       	brcc	.+2      	; 0xbd8 <floatAround+0x38>
     bd6:	91 2f       	mov	r25, r17
     bd8:	80 2f       	mov	r24, r16
     bda:	09 17       	cp	r16, r25
     bdc:	08 f4       	brcc	.+2      	; 0xbe0 <floatAround+0x40>
     bde:	89 2f       	mov	r24, r25
     be0:	df 91       	pop	r29
        if (sample > max) sample = max;
        if (sample < min) sample = min;
    }
    return sample;
}
     be2:	cf 91       	pop	r28
     be4:	1f 91       	pop	r17
     be6:	0f 91       	pop	r16
     be8:	08 95       	ret

00000bea <SaveGameState>:
     bea:	cf 92       	push	r12

//Save changed data to EEPROM
uint8_t SaveGameState(){
     bec:	df 92       	push	r13
     bee:	ff 92       	push	r15
     bf0:	0f 93       	push	r16
     bf2:	1f 93       	push	r17
     bf4:	cf 93       	push	r28
     bf6:	df 93       	push	r29
     bf8:	cd b7       	in	r28, 0x3d	; 61
     bfa:	de b7       	in	r29, 0x3e	; 62
     bfc:	60 97       	sbiw	r28, 0x10	; 16
     bfe:	cd bf       	out	0x3d, r28	; 61
     c00:	de bf       	out	0x3e, r29	; 62
    uint8_t gameCheck[16];
    EERead(0, &gameCheck[0], 16);
     c02:	40 e1       	ldi	r20, 0x10	; 16
     c04:	be 01       	movw	r22, r28
     c06:	6f 5f       	subi	r22, 0xFF	; 255
     c08:	7f 4f       	sbci	r23, 0xFF	; 255
     c0a:	80 e0       	ldi	r24, 0x00	; 0
     c0c:	8f de       	rcall	.-738    	; 0x92c <EERead>
     c0e:	06 e4       	ldi	r16, 0x46	; 70
     c10:	19 e3       	ldi	r17, 0x39	; 57
     c12:	ce 01       	movw	r24, r28
     c14:	01 96       	adiw	r24, 0x01	; 1
     c16:	6c 01       	movw	r12, r24
    for (uint8_t x=0; x<16; ++x){
     c18:	f1 2c       	mov	r15, r1
        if (gameState[x] != gameCheck[x]){
     c1a:	f6 01       	movw	r30, r12
     c1c:	81 91       	ld	r24, Z+
     c1e:	6f 01       	movw	r12, r30
     c20:	f8 01       	movw	r30, r16
     c22:	90 81       	ld	r25, Z
     c24:	98 17       	cp	r25, r24
     c26:	31 f0       	breq	.+12     	; 0xc34 <SaveGameState+0x4a>
            if (EEWrite(x, &gameState[x], 1)) return 1;
     c28:	41 e0       	ldi	r20, 0x01	; 1
     c2a:	b8 01       	movw	r22, r16
     c2c:	8f 2d       	mov	r24, r15
     c2e:	91 de       	rcall	.-734    	; 0x952 <EEWrite>
     c30:	81 11       	cpse	r24, r1
     c32:	08 c0       	rjmp	.+16     	; 0xc44 <SaveGameState+0x5a>

//Save changed data to EEPROM
uint8_t SaveGameState(){
    uint8_t gameCheck[16];
    EERead(0, &gameCheck[0], 16);
    for (uint8_t x=0; x<16; ++x){
     c34:	f3 94       	inc	r15
     c36:	0f 5f       	subi	r16, 0xFF	; 255
     c38:	1f 4f       	sbci	r17, 0xFF	; 255
     c3a:	f0 e1       	ldi	r31, 0x10	; 16
     c3c:	ff 12       	cpse	r15, r31
     c3e:	ed cf       	rjmp	.-38     	; 0xc1a <SaveGameState+0x30>
        if (gameState[x] != gameCheck[x]){
            if (EEWrite(x, &gameState[x], 1)) return 1;
        }
    }
    return 0;
     c40:	80 e0       	ldi	r24, 0x00	; 0
     c42:	01 c0       	rjmp	.+2      	; 0xc46 <SaveGameState+0x5c>
uint8_t SaveGameState(){
    uint8_t gameCheck[16];
    EERead(0, &gameCheck[0], 16);
    for (uint8_t x=0; x<16; ++x){
        if (gameState[x] != gameCheck[x]){
            if (EEWrite(x, &gameState[x], 1)) return 1;
     c44:	81 e0       	ldi	r24, 0x01	; 1
        }
    }
    return 0;
}
     c46:	60 96       	adiw	r28, 0x10	; 16
     c48:	cd bf       	out	0x3d, r28	; 61
     c4a:	de bf       	out	0x3e, r29	; 62
     c4c:	df 91       	pop	r29
     c4e:	cf 91       	pop	r28
     c50:	1f 91       	pop	r17
     c52:	0f 91       	pop	r16
     c54:	ff 90       	pop	r15
     c56:	df 90       	pop	r13
     c58:	cf 90       	pop	r12
     c5a:	08 95       	ret

00000c5c <ReadStatusBit>:

uint8_t ReadStatusBit(uint8_t number){
    number &= 0x3f;
    if (gameState[number>>3] & (1<<(number&7))) return 1; else return 0;
     c5c:	e8 2f       	mov	r30, r24
     c5e:	ef 73       	andi	r30, 0x3F	; 63
     c60:	e6 95       	lsr	r30
     c62:	e6 95       	lsr	r30
     c64:	e6 95       	lsr	r30
     c66:	f0 e0       	ldi	r31, 0x00	; 0
     c68:	ea 5b       	subi	r30, 0xBA	; 186
     c6a:	f6 4c       	sbci	r31, 0xC6	; 198
     c6c:	20 81       	ld	r18, Z
     c6e:	30 e0       	ldi	r19, 0x00	; 0
     c70:	87 70       	andi	r24, 0x07	; 7
     c72:	a9 01       	movw	r20, r18
     c74:	02 c0       	rjmp	.+4      	; 0xc7a <ReadStatusBit+0x1e>
     c76:	55 95       	asr	r21
     c78:	47 95       	ror	r20
     c7a:	8a 95       	dec	r24
     c7c:	e2 f7       	brpl	.-8      	; 0xc76 <ReadStatusBit+0x1a>
     c7e:	ca 01       	movw	r24, r20
}
     c80:	81 70       	andi	r24, 0x01	; 1
     c82:	08 95       	ret

00000c84 <WriteStatusBit>:

void WriteStatusBit(uint8_t number, uint8_t state){
    number &= 0x3f;
     c84:	e8 2f       	mov	r30, r24
     c86:	ef 73       	andi	r30, 0x3F	; 63
    if (state) gameState[number>>3] |= 1<<(number&7);
     c88:	66 23       	and	r22, r22
     c8a:	a1 f0       	breq	.+40     	; 0xcb4 <WriteStatusBit+0x30>
     c8c:	e6 95       	lsr	r30
     c8e:	e6 95       	lsr	r30
     c90:	e6 95       	lsr	r30
     c92:	f0 e0       	ldi	r31, 0x00	; 0
     c94:	ea 5b       	subi	r30, 0xBA	; 186
     c96:	f6 4c       	sbci	r31, 0xC6	; 198
     c98:	87 70       	andi	r24, 0x07	; 7
     c9a:	21 e0       	ldi	r18, 0x01	; 1
     c9c:	30 e0       	ldi	r19, 0x00	; 0
     c9e:	a9 01       	movw	r20, r18
     ca0:	02 c0       	rjmp	.+4      	; 0xca6 <WriteStatusBit+0x22>
     ca2:	44 0f       	add	r20, r20
     ca4:	55 1f       	adc	r21, r21
     ca6:	8a 95       	dec	r24
     ca8:	e2 f7       	brpl	.-8      	; 0xca2 <WriteStatusBit+0x1e>
     caa:	ca 01       	movw	r24, r20
     cac:	90 81       	ld	r25, Z
     cae:	89 2b       	or	r24, r25
     cb0:	80 83       	st	Z, r24
     cb2:	08 95       	ret
    else gameState[number>>3] &= ~(1<<(number&7));
     cb4:	e6 95       	lsr	r30
     cb6:	e6 95       	lsr	r30
     cb8:	e6 95       	lsr	r30
     cba:	f0 e0       	ldi	r31, 0x00	; 0
     cbc:	ea 5b       	subi	r30, 0xBA	; 186
     cbe:	f6 4c       	sbci	r31, 0xC6	; 198
     cc0:	87 70       	andi	r24, 0x07	; 7
     cc2:	21 e0       	ldi	r18, 0x01	; 1
     cc4:	30 e0       	ldi	r19, 0x00	; 0
     cc6:	a9 01       	movw	r20, r18
     cc8:	02 c0       	rjmp	.+4      	; 0xcce <WriteStatusBit+0x4a>
     cca:	44 0f       	add	r20, r20
     ccc:	55 1f       	adc	r21, r21
     cce:	8a 95       	dec	r24
     cd0:	e2 f7       	brpl	.-8      	; 0xcca <WriteStatusBit+0x46>
     cd2:	ca 01       	movw	r24, r20
     cd4:	80 95       	com	r24
     cd6:	90 81       	ld	r25, Z
     cd8:	89 23       	and	r24, r25
     cda:	80 83       	st	Z, r24
     cdc:	08 95       	ret

00000cde <Reset>:
}

void Reset(){
     cde:	e6 e4       	ldi	r30, 0x46	; 70
     ce0:	f9 e3       	ldi	r31, 0x39	; 57
     ce2:	86 e5       	ldi	r24, 0x56	; 86
     ce4:	99 e3       	ldi	r25, 0x39	; 57
    //# 110   set to 1 by FW if badge UUID mod 4 == 0
    //# 111   set to 1 by FW if badge UUID mod 4 == 1
    //# 112   set to 1 by FW if badge UUID mod 4 == 2
    //# 113   set to 1 by FW if badge UUID mod 4 == 3
    for (uint8_t x=0; x<sizeof(gameState); ++x){
        gameState[x] = 0;
     ce6:	11 92       	st	Z+, r1
    //Reset game progress (all zeroes) and load some bits:
    //# 110   set to 1 by FW if badge UUID mod 4 == 0
    //# 111   set to 1 by FW if badge UUID mod 4 == 1
    //# 112   set to 1 by FW if badge UUID mod 4 == 2
    //# 113   set to 1 by FW if badge UUID mod 4 == 3
    for (uint8_t x=0; x<sizeof(gameState); ++x){
     ce8:	8e 17       	cp	r24, r30
     cea:	9f 07       	cpc	r25, r31
     cec:	e1 f7       	brne	.-8      	; 0xce6 <Reset+0x8>
     cee:	e3 e0       	ldi	r30, 0x03	; 3
     cf0:	f1 e1       	ldi	r31, 0x11	; 17
     cf2:	80 e0       	ldi	r24, 0x00	; 0
    uint8_t *serNum;
    serNum = (uint8_t*)&SIGROW_SERNUM0;
    
    //Give out a number 0..3, calculated using serial number fields
    for (uint8_t x=0; x<10; ++x){
        id += *serNum;
     cf4:	91 91       	ld	r25, Z+
     cf6:	89 0f       	add	r24, r25
    uint8_t id = 0;
    uint8_t *serNum;
    serNum = (uint8_t*)&SIGROW_SERNUM0;
    
    //Give out a number 0..3, calculated using serial number fields
    for (uint8_t x=0; x<10; ++x){
     cf8:	ed 30       	cpi	r30, 0x0D	; 13
     cfa:	91 e1       	ldi	r25, 0x11	; 17
     cfc:	f9 07       	cpc	r31, r25
     cfe:	d1 f7       	brne	.-12     	; 0xcf4 <Reset+0x16>
        id += *serNum;
        ++serNum;
    }
    id %= 4;
     d00:	83 70       	andi	r24, 0x03	; 3

    //Write bit in gameState location 110..113
    if (id == 0) WriteStatusBit(110, 1);
     d02:	31 f4       	brne	.+12     	; 0xd10 <Reset+0x32>
    if (gameState[number>>3] & (1<<(number&7))) return 1; else return 0;
}

void WriteStatusBit(uint8_t number, uint8_t state){
    number &= 0x3f;
    if (state) gameState[number>>3] |= 1<<(number&7);
     d04:	e6 e4       	ldi	r30, 0x46	; 70
     d06:	f9 e3       	ldi	r31, 0x39	; 57
     d08:	85 81       	ldd	r24, Z+5	; 0x05
     d0a:	80 64       	ori	r24, 0x40	; 64
     d0c:	85 83       	std	Z+5, r24	; 0x05
     d0e:	08 95       	ret
    }
    id %= 4;

    //Write bit in gameState location 110..113
    if (id == 0) WriteStatusBit(110, 1);
    else if (id == 1) WriteStatusBit(111, 1);
     d10:	81 30       	cpi	r24, 0x01	; 1
     d12:	31 f4       	brne	.+12     	; 0xd20 <Reset+0x42>
    if (gameState[number>>3] & (1<<(number&7))) return 1; else return 0;
}

void WriteStatusBit(uint8_t number, uint8_t state){
    number &= 0x3f;
    if (state) gameState[number>>3] |= 1<<(number&7);
     d14:	e6 e4       	ldi	r30, 0x46	; 70
     d16:	f9 e3       	ldi	r31, 0x39	; 57
     d18:	85 81       	ldd	r24, Z+5	; 0x05
     d1a:	80 68       	ori	r24, 0x80	; 128
     d1c:	85 83       	std	Z+5, r24	; 0x05
     d1e:	08 95       	ret
    id %= 4;

    //Write bit in gameState location 110..113
    if (id == 0) WriteStatusBit(110, 1);
    else if (id == 1) WriteStatusBit(111, 1);
    else if (id == 2) WriteStatusBit(112, 1);
     d20:	82 30       	cpi	r24, 0x02	; 2
     d22:	31 f4       	brne	.+12     	; 0xd30 <Reset+0x52>
    if (gameState[number>>3] & (1<<(number&7))) return 1; else return 0;
}

void WriteStatusBit(uint8_t number, uint8_t state){
    number &= 0x3f;
    if (state) gameState[number>>3] |= 1<<(number&7);
     d24:	e6 e4       	ldi	r30, 0x46	; 70
     d26:	f9 e3       	ldi	r31, 0x39	; 57
     d28:	86 81       	ldd	r24, Z+6	; 0x06
     d2a:	81 60       	ori	r24, 0x01	; 1
     d2c:	86 83       	std	Z+6, r24	; 0x06
     d2e:	08 95       	ret

    //Write bit in gameState location 110..113
    if (id == 0) WriteStatusBit(110, 1);
    else if (id == 1) WriteStatusBit(111, 1);
    else if (id == 2) WriteStatusBit(112, 1);
    else if (id == 3) WriteStatusBit(113, 1);
     d30:	83 30       	cpi	r24, 0x03	; 3
     d32:	29 f4       	brne	.+10     	; 0xd3e <Reset+0x60>
    if (gameState[number>>3] & (1<<(number&7))) return 1; else return 0;
}

void WriteStatusBit(uint8_t number, uint8_t state){
    number &= 0x3f;
    if (state) gameState[number>>3] |= 1<<(number&7);
     d34:	e6 e4       	ldi	r30, 0x46	; 70
     d36:	f9 e3       	ldi	r31, 0x39	; 57
     d38:	86 81       	ldd	r24, Z+6	; 0x06
     d3a:	82 60       	ori	r24, 0x02	; 2
     d3c:	86 83       	std	Z+6, r24	; 0x06
     d3e:	08 95       	ret

00000d40 <GenerateAudio>:
    else if (id == 1) WriteStatusBit(111, 1);
    else if (id == 2) WriteStatusBit(112, 1);
    else if (id == 3) WriteStatusBit(113, 1);
}

void GenerateAudio(){
     d40:	0f 93       	push	r16
     d42:	1f 93       	push	r17
     d44:	cf 93       	push	r28
     d46:	df 93       	push	r29
    //Test audio play, play a rainstorm with howling wind.
    static uint8_t storm[7]={0x80, 0x80, 0x80, 0x80, 0x80, 0x80, 0};
    auRepAddr = &storm[0];
     d48:	85 e0       	ldi	r24, 0x05	; 5
     d4a:	98 e3       	ldi	r25, 0x38	; 56
     d4c:	80 93 00 38 	sts	0x3800, r24	; 0x803800 <__data_start>
     d50:	90 93 01 38 	sts	0x3801, r25	; 0x803801 <__data_start+0x1>
     d54:	8c 01       	movw	r16, r24

    //Noise is to be generated fast, outside of buttonMark loop
    for (uint8_t x=1; x<6; ++x){
     d56:	c1 e0       	ldi	r28, 0x01	; 1
        if (x%3) storm[x] = floatAround(0x80, 5, 0x01, 0x00);
     d58:	db ea       	ldi	r29, 0xAB	; 171
     d5a:	cd 9f       	mul	r28, r29
     d5c:	81 2d       	mov	r24, r1
     d5e:	11 24       	eor	r1, r1
     d60:	86 95       	lsr	r24
     d62:	98 2f       	mov	r25, r24
     d64:	99 0f       	add	r25, r25
     d66:	89 0f       	add	r24, r25
     d68:	c8 17       	cp	r28, r24
     d6a:	39 f0       	breq	.+14     	; 0xd7a <GenerateAudio+0x3a>
     d6c:	20 e0       	ldi	r18, 0x00	; 0
     d6e:	41 e0       	ldi	r20, 0x01	; 1
     d70:	65 e0       	ldi	r22, 0x05	; 5
     d72:	80 e8       	ldi	r24, 0x80	; 128
     d74:	15 df       	rcall	.-470    	; 0xba0 <floatAround>
     d76:	f8 01       	movw	r30, r16
     d78:	81 83       	std	Z+1, r24	; 0x01
    //Test audio play, play a rainstorm with howling wind.
    static uint8_t storm[7]={0x80, 0x80, 0x80, 0x80, 0x80, 0x80, 0};
    auRepAddr = &storm[0];

    //Noise is to be generated fast, outside of buttonMark loop
    for (uint8_t x=1; x<6; ++x){
     d7a:	cf 5f       	subi	r28, 0xFF	; 255
     d7c:	0f 5f       	subi	r16, 0xFF	; 255
     d7e:	1f 4f       	sbci	r17, 0xFF	; 255
     d80:	c6 30       	cpi	r28, 0x06	; 6
     d82:	59 f7       	brne	.-42     	; 0xd5a <GenerateAudio+0x1a>
        if (x%3) storm[x] = floatAround(0x80, 5, 0x01, 0x00);
    }

    if (buttonMark){
     d84:	80 91 1a 38 	lds	r24, 0x381A	; 0x80381a <buttonMark>
     d88:	88 23       	and	r24, r24
     d8a:	c1 f0       	breq	.+48     	; 0xdbc <GenerateAudio+0x7c>
        //"Floating" speed for howl (and noise, but that's hardly audible)
        floatSpeed(5, 0x0300, 0x0500);
     d8c:	40 e0       	ldi	r20, 0x00	; 0
     d8e:	55 e0       	ldi	r21, 0x05	; 5
     d90:	60 e0       	ldi	r22, 0x00	; 0
     d92:	73 e0       	ldi	r23, 0x03	; 3
     d94:	85 e0       	ldi	r24, 0x05	; 5
     d96:	d0 de       	rcall	.-608    	; 0xb38 <floatSpeed>
            
        //"Floating" volume and wind howl during 8 bit rainstorm needs some randomness
        auVolume = floatAround(auVolume, 2, 0x10, 0xA0);
     d98:	80 91 9e 39 	lds	r24, 0x399E	; 0x80399e <auVolume>
     d9c:	20 ea       	ldi	r18, 0xA0	; 160
     d9e:	40 e1       	ldi	r20, 0x10	; 16
     da0:	62 e0       	ldi	r22, 0x02	; 2
     da2:	fe de       	rcall	.-516    	; 0xba0 <floatAround>
     da4:	80 93 9e 39 	sts	0x399E, r24	; 0x80399e <auVolume>
        storm[0] = floatAround(storm[0], 2, 0x70, 0x90);
     da8:	c5 e0       	ldi	r28, 0x05	; 5
     daa:	d8 e3       	ldi	r29, 0x38	; 56
     dac:	20 e9       	ldi	r18, 0x90	; 144
     dae:	40 e7       	ldi	r20, 0x70	; 112
     db0:	62 e0       	ldi	r22, 0x02	; 2
     db2:	88 81       	ld	r24, Y
     db4:	f5 de       	rcall	.-534    	; 0xba0 <floatAround>
     db6:	88 83       	st	Y, r24
        storm[3] = 0xFF-storm[0];  //Inverse value of wind[0] produces a whistle
     db8:	80 95       	com	r24
     dba:	8b 83       	std	Y+3, r24	; 0x03
    }
     dbc:	df 91       	pop	r29
     dbe:	cf 91       	pop	r28
     dc0:	1f 91       	pop	r17
     dc2:	0f 91       	pop	r16
     dc4:	08 95       	ret

00000dc6 <DecryptData>:
    uint8_t clearBit = num & STATUS_BITS;
    num &= (STATUS_BITS-1);
    if (clearBit) {
        WriteStatusBit(num, 0);
    } else {
        WriteStatusBit(num, 1);
     dc6:	cf 93       	push	r28
     dc8:	df 93       	push	r29
     dca:	dc 01       	movw	r26, r24
     dcc:	e9 01       	movw	r28, r18
     dce:	66 23       	and	r22, r22
     dd0:	a9 f0       	breq	.+42     	; 0xdfc <DecryptData+0x36>
     dd2:	50 e0       	ldi	r21, 0x00	; 0
     dd4:	44 0f       	add	r20, r20
     dd6:	55 1f       	adc	r21, r21
     dd8:	44 0f       	add	r20, r20
     dda:	55 1f       	adc	r21, r21
     ddc:	44 0f       	add	r20, r20
     dde:	55 1f       	adc	r21, r21
     de0:	48 5c       	subi	r20, 0xC8	; 200
     de2:	57 46       	sbci	r21, 0x67	; 103
     de4:	fd 01       	movw	r30, r26
     de6:	e7 70       	andi	r30, 0x07	; 7
     de8:	ff 27       	eor	r31, r31
     dea:	e4 0f       	add	r30, r20
     dec:	f5 1f       	adc	r31, r21
     dee:	88 81       	ld	r24, Y
     df0:	90 81       	ld	r25, Z
     df2:	98 27       	eor	r25, r24
     df4:	99 93       	st	Y+, r25
     df6:	11 96       	adiw	r26, 0x01	; 1
     df8:	61 50       	subi	r22, 0x01	; 1
     dfa:	a1 f7       	brne	.-24     	; 0xde4 <DecryptData+0x1e>
     dfc:	df 91       	pop	r29
     dfe:	cf 91       	pop	r28
     e00:	08 95       	ret

00000e02 <ExtEERead>:
     e02:	af 92       	push	r10
     e04:	bf 92       	push	r11
     e06:	cf 92       	push	r12
     e08:	df 92       	push	r13
     e0a:	ef 92       	push	r14
     e0c:	ff 92       	push	r15
     e0e:	0f 93       	push	r16
     e10:	1f 93       	push	r17
     e12:	cf 93       	push	r28
     e14:	df 93       	push	r29
     e16:	00 d0       	rcall	.+0      	; 0xe18 <ExtEERead+0x16>
     e18:	cd b7       	in	r28, 0x3d	; 61
     e1a:	de b7       	in	r29, 0x3e	; 62
     e1c:	d6 2e       	mov	r13, r22
     e1e:	c4 2e       	mov	r12, r20
     e20:	59 01       	movw	r10, r18
     e22:	7c 01       	movw	r14, r24
     e24:	e8 94       	clt
     e26:	f7 f8       	bld	r15, 7
     e28:	f9 82       	std	Y+1, r15	; 0x01
     e2a:	ea 82       	std	Y+2, r14	; 0x02
     e2c:	06 2f       	mov	r16, r22
     e2e:	42 e0       	ldi	r20, 0x02	; 2
     e30:	be 01       	movw	r22, r28
     e32:	6f 5f       	subi	r22, 0xFF	; 255
     e34:	7f 4f       	sbci	r23, 0xFF	; 255
     e36:	80 e5       	ldi	r24, 0x50	; 80
     e38:	35 da       	rcall	.-2966   	; 0x2a4 <I2C_read_bytes>
     e3a:	18 2f       	mov	r17, r24
     e3c:	81 11       	cpse	r24, r1
     e3e:	05 c0       	rjmp	.+10     	; 0xe4a <ExtEERead+0x48>
     e40:	95 01       	movw	r18, r10
     e42:	4c 2d       	mov	r20, r12
     e44:	6d 2d       	mov	r22, r13
     e46:	c7 01       	movw	r24, r14
     e48:	be df       	rcall	.-132    	; 0xdc6 <DecryptData>
     e4a:	81 2f       	mov	r24, r17
     e4c:	0f 90       	pop	r0
     e4e:	0f 90       	pop	r0
     e50:	df 91       	pop	r29
     e52:	cf 91       	pop	r28
     e54:	1f 91       	pop	r17
     e56:	0f 91       	pop	r16
     e58:	ff 90       	pop	r15
     e5a:	ef 90       	pop	r14
     e5c:	df 90       	pop	r13
     e5e:	cf 90       	pop	r12
     e60:	bf 90       	pop	r11
     e62:	af 90       	pop	r10
     e64:	08 95       	ret

00000e66 <ClearTxAfter>:
     e66:	8f 5f       	subi	r24, 0xFF	; 255
     e68:	88 30       	cpi	r24, 0x08	; 8
     e6a:	40 f4       	brcc	.+16     	; 0xe7c <ClearTxAfter+0x16>
     e6c:	e8 2f       	mov	r30, r24
     e6e:	f0 e0       	ldi	r31, 0x00	; 0
     e70:	e4 5d       	subi	r30, 0xD4	; 212
     e72:	f6 4c       	sbci	r31, 0xC6	; 198
     e74:	10 82       	st	Z, r1
     e76:	8f 5f       	subi	r24, 0xFF	; 255
     e78:	88 30       	cpi	r24, 0x08	; 8
     e7a:	c1 f7       	brne	.-16     	; 0xe6c <ClearTxAfter+0x6>
     e7c:	08 95       	ret

00000e7e <StartsWith>:
     e7e:	fc 01       	movw	r30, r24
     e80:	90 81       	ld	r25, Z
     e82:	91 11       	cpse	r25, r1
     e84:	07 c0       	rjmp	.+14     	; 0xe94 <StartsWith+0x16>
     e86:	81 e0       	ldi	r24, 0x01	; 1
     e88:	08 95       	ret
     e8a:	81 e0       	ldi	r24, 0x01	; 1
     e8c:	92 17       	cp	r25, r18
     e8e:	39 f0       	breq	.+14     	; 0xe9e <StartsWith+0x20>
     e90:	80 e0       	ldi	r24, 0x00	; 0
     e92:	08 95       	ret
     e94:	fb 01       	movw	r30, r22
     e96:	20 81       	ld	r18, Z
     e98:	21 11       	cpse	r18, r1
     e9a:	f7 cf       	rjmp	.-18     	; 0xe8a <StartsWith+0xc>
     e9c:	81 e0       	ldi	r24, 0x01	; 1
     e9e:	08 95       	ret

00000ea0 <PrepareSending>:
     ea0:	1f 93       	push	r17
     ea2:	cf 93       	push	r28
     ea4:	df 93       	push	r29
     ea6:	eb 01       	movw	r28, r22
     ea8:	12 2f       	mov	r17, r18
     eaa:	20 97       	sbiw	r28, 0x00	; 0
     eac:	e9 f0       	breq	.+58     	; 0xee8 <PrepareSending+0x48>
     eae:	6f 3f       	cpi	r22, 0xFF	; 255
     eb0:	71 05       	cpc	r23, r1
     eb2:	01 f1       	breq	.+64     	; 0xef4 <PrepareSending+0x54>
     eb4:	f8 f0       	brcs	.+62     	; 0xef4 <PrepareSending+0x54>
     eb6:	50 e0       	ldi	r21, 0x00	; 0
     eb8:	6f ef       	ldi	r22, 0xFF	; 255
     eba:	25 2f       	mov	r18, r21
     ebc:	30 e0       	ldi	r19, 0x00	; 0
     ebe:	f9 01       	movw	r30, r18
     ec0:	ee 0f       	add	r30, r30
     ec2:	ff 1f       	adc	r31, r31
     ec4:	ec 5c       	subi	r30, 0xCC	; 204
     ec6:	f6 4c       	sbci	r31, 0xC6	; 198
     ec8:	80 83       	st	Z, r24
     eca:	91 83       	std	Z+1, r25	; 0x01
     ecc:	f9 01       	movw	r30, r18
     ece:	e4 5d       	subi	r30, 0xD4	; 212
     ed0:	f6 4c       	sbci	r31, 0xC6	; 198
     ed2:	60 83       	st	Z, r22
     ed4:	81 50       	subi	r24, 0x01	; 1
     ed6:	9f 4f       	sbci	r25, 0xFF	; 255
     ed8:	cf 5f       	subi	r28, 0xFF	; 255
     eda:	d1 09       	sbc	r29, r1
     edc:	5f 5f       	subi	r21, 0xFF	; 255
     ede:	cf 3f       	cpi	r28, 0xFF	; 255
     ee0:	d1 05       	cpc	r29, r1
     ee2:	09 f0       	breq	.+2      	; 0xee6 <PrepareSending+0x46>
     ee4:	50 f7       	brcc	.-44     	; 0xeba <PrepareSending+0x1a>
     ee6:	07 c0       	rjmp	.+14     	; 0xef6 <PrepareSending+0x56>
     ee8:	10 92 34 39 	sts	0x3934, r1	; 0x803934 <txAddrList>
     eec:	10 92 35 39 	sts	0x3935, r1	; 0x803935 <txAddrList+0x1>
     ef0:	50 e0       	ldi	r21, 0x00	; 0
     ef2:	21 c0       	rjmp	.+66     	; 0xf36 <PrepareSending+0x96>
     ef4:	50 e0       	ldi	r21, 0x00	; 0
     ef6:	25 2f       	mov	r18, r21
     ef8:	30 e0       	ldi	r19, 0x00	; 0
     efa:	f9 01       	movw	r30, r18
     efc:	ee 0f       	add	r30, r30
     efe:	ff 1f       	adc	r31, r31
     f00:	ec 5c       	subi	r30, 0xCC	; 204
     f02:	f6 4c       	sbci	r31, 0xC6	; 198
     f04:	80 83       	st	Z, r24
     f06:	91 83       	std	Z+1, r25	; 0x01
     f08:	f9 01       	movw	r30, r18
     f0a:	e4 5d       	subi	r30, 0xD4	; 212
     f0c:	f6 4c       	sbci	r31, 0xC6	; 198
     f0e:	9e 01       	movw	r18, r28
     f10:	a1 e8       	ldi	r26, 0x81	; 129
     f12:	b0 e8       	ldi	r27, 0x80	; 128
     f14:	78 d4       	rcall	.+2288   	; 0x1806 <__umulhisi3>
     f16:	88 0f       	add	r24, r24
     f18:	89 2f       	mov	r24, r25
     f1a:	88 1f       	adc	r24, r24
     f1c:	99 0b       	sbc	r25, r25
     f1e:	91 95       	neg	r25
     f20:	6f ef       	ldi	r22, 0xFF	; 255
     f22:	68 9f       	mul	r22, r24
     f24:	90 01       	movw	r18, r0
     f26:	69 9f       	mul	r22, r25
     f28:	30 0d       	add	r19, r0
     f2a:	11 24       	eor	r1, r1
     f2c:	c2 1b       	sub	r28, r18
     f2e:	d3 0b       	sbc	r29, r19
     f30:	c0 83       	st	Z, r28
     f32:	40 93 29 39 	sts	0x3929, r20	; 0x803929 <txTypeNow>
     f36:	85 2f       	mov	r24, r21
     f38:	96 df       	rcall	.-212    	; 0xe66 <ClearTxAfter>
     f3a:	10 93 2a 39 	sts	0x392A, r17	; 0x80392a <sendPrompt>
     f3e:	10 92 2b 39 	sts	0x392B, r1	; 0x80392b <txAddrNow>
     f42:	80 e0       	ldi	r24, 0x00	; 0
     f44:	df 91       	pop	r29
     f46:	cf 91       	pop	r28
     f48:	1f 91       	pop	r17
     f4a:	08 95       	ret

00000f4c <PopulateObject>:
     f4c:	6f 92       	push	r6
     f4e:	7f 92       	push	r7
     f50:	8f 92       	push	r8
     f52:	9f 92       	push	r9
     f54:	af 92       	push	r10
     f56:	bf 92       	push	r11
     f58:	cf 92       	push	r12
     f5a:	df 92       	push	r13
     f5c:	ef 92       	push	r14
     f5e:	ff 92       	push	r15
     f60:	0f 93       	push	r16
     f62:	1f 93       	push	r17
     f64:	cf 93       	push	r28
     f66:	df 93       	push	r29
     f68:	cd b7       	in	r28, 0x3d	; 61
     f6a:	de b7       	in	r29, 0x3e	; 62
     f6c:	2c 97       	sbiw	r28, 0x0c	; 12
     f6e:	cd bf       	out	0x3d, r28	; 61
     f70:	de bf       	out	0x3e, r29	; 62
     f72:	8c 01       	movw	r16, r24
     f74:	5b 01       	movw	r10, r22
     f76:	9e 01       	movw	r18, r28
     f78:	2f 5f       	subi	r18, 0xFF	; 255
     f7a:	3f 4f       	sbci	r19, 0xFF	; 255
     f7c:	40 e0       	ldi	r20, 0x00	; 0
     f7e:	6c e0       	ldi	r22, 0x0C	; 12
     f80:	80 96       	adiw	r24, 0x20	; 32
     f82:	3f df       	rcall	.-386    	; 0xe02 <ExtEERead>
     f84:	89 81       	ldd	r24, Y+1	; 0x01
     f86:	90 e0       	ldi	r25, 0x00	; 0
     f88:	98 2f       	mov	r25, r24
     f8a:	88 27       	eor	r24, r24
     f8c:	2a 81       	ldd	r18, Y+2	; 0x02
     f8e:	82 2b       	or	r24, r18
     f90:	80 96       	adiw	r24, 0x20	; 32
     f92:	f5 01       	movw	r30, r10
     f94:	80 83       	st	Z, r24
     f96:	91 83       	std	Z+1, r25	; 0x01
     f98:	8b 81       	ldd	r24, Y+3	; 0x03
     f9a:	90 e0       	ldi	r25, 0x00	; 0
     f9c:	98 2f       	mov	r25, r24
     f9e:	88 27       	eor	r24, r24
     fa0:	2c 81       	ldd	r18, Y+4	; 0x04
     fa2:	82 2b       	or	r24, r18
     fa4:	80 96       	adiw	r24, 0x20	; 32
     fa6:	82 83       	std	Z+2, r24	; 0x02
     fa8:	93 83       	std	Z+3, r25	; 0x03
     faa:	fe 01       	movw	r30, r28
     fac:	35 96       	adiw	r30, 0x05	; 5
     fae:	d5 01       	movw	r26, r10
     fb0:	14 96       	adiw	r26, 0x04	; 4
     fb2:	9e 01       	movw	r18, r28
     fb4:	23 5f       	subi	r18, 0xF3	; 243
     fb6:	3f 4f       	sbci	r19, 0xFF	; 255
     fb8:	81 91       	ld	r24, Z+
     fba:	8d 93       	st	X+, r24
     fbc:	e2 17       	cp	r30, r18
     fbe:	f3 07       	cpc	r31, r19
     fc0:	d9 f7       	brne	.-10     	; 0xfb8 <PopulateObject+0x6c>
     fc2:	38 01       	movw	r6, r16
     fc4:	fc e2       	ldi	r31, 0x2C	; 44
     fc6:	6f 0e       	add	r6, r31
     fc8:	71 1c       	adc	r7, r1
     fca:	03 5d       	subi	r16, 0xD3	; 211
     fcc:	1f 4f       	sbci	r17, 0xFF	; 255
     fce:	f5 01       	movw	r30, r10
     fd0:	04 87       	std	Z+12, r16	; 0x0c
     fd2:	15 87       	std	Z+13, r17	; 0x0d
     fd4:	65 01       	movw	r12, r10
     fd6:	fe e0       	ldi	r31, 0x0E	; 14
     fd8:	cf 0e       	add	r12, r31
     fda:	d1 1c       	adc	r13, r1
     fdc:	45 01       	movw	r8, r10
     fde:	8a e1       	ldi	r24, 0x1A	; 26
     fe0:	88 0e       	add	r8, r24
     fe2:	91 1c       	adc	r9, r1
     fe4:	73 01       	movw	r14, r6
     fe6:	02 c0       	rjmp	.+4      	; 0xfec <PopulateObject+0xa0>
     fe8:	78 01       	movw	r14, r16
     fea:	38 01       	movw	r6, r16
     fec:	83 01       	movw	r16, r6
     fee:	9e 01       	movw	r18, r28
     ff0:	2f 5f       	subi	r18, 0xFF	; 255
     ff2:	3f 4f       	sbci	r19, 0xFF	; 255
     ff4:	40 e0       	ldi	r20, 0x00	; 0
     ff6:	61 e0       	ldi	r22, 0x01	; 1
     ff8:	c8 01       	movw	r24, r16
     ffa:	03 df       	rcall	.-506    	; 0xe02 <ExtEERead>
     ffc:	89 81       	ldd	r24, Y+1	; 0x01
     ffe:	98 01       	movw	r18, r16
    1000:	28 0f       	add	r18, r24
    1002:	31 1d       	adc	r19, r1
    1004:	89 01       	movw	r16, r18
    1006:	0f 5f       	subi	r16, 0xFF	; 255
    1008:	1f 4f       	sbci	r17, 0xFF	; 255
    100a:	12 f0       	brmi	.+4      	; 0x1010 <PopulateObject+0xc4>
    100c:	8f 3f       	cpi	r24, 0xFF	; 255
    100e:	79 f3       	breq	.-34     	; 0xfee <PopulateObject+0xa2>
    1010:	e0 94       	com	r14
    1012:	f0 94       	com	r15
    1014:	e0 0e       	add	r14, r16
    1016:	f1 1e       	adc	r15, r17
    1018:	e8 94       	clt
    101a:	f7 f8       	bld	r15, 7
    101c:	f6 01       	movw	r30, r12
    101e:	e4 86       	std	Z+12, r14	; 0x0c
    1020:	f5 86       	std	Z+13, r15	; 0x0d
    1022:	3f 77       	andi	r19, 0x7F	; 127
    1024:	21 93       	st	Z+, r18
    1026:	31 93       	st	Z+, r19
    1028:	6f 01       	movw	r12, r30
    102a:	e8 15       	cp	r30, r8
    102c:	f9 05       	cpc	r31, r9
    102e:	e1 f6       	brne	.-72     	; 0xfe8 <PopulateObject+0x9c>
    1030:	06 19       	sub	r16, r6
    1032:	17 09       	sbc	r17, r7
    1034:	1f 77       	andi	r17, 0x7F	; 127
    1036:	f5 01       	movw	r30, r10
    1038:	06 a3       	std	Z+38, r16	; 0x26
    103a:	17 a3       	std	Z+39, r17	; 0x27
    103c:	2c 96       	adiw	r28, 0x0c	; 12
    103e:	cd bf       	out	0x3d, r28	; 61
    1040:	de bf       	out	0x3e, r29	; 62
    1042:	df 91       	pop	r29
    1044:	cf 91       	pop	r28
    1046:	1f 91       	pop	r17
    1048:	0f 91       	pop	r16
    104a:	ff 90       	pop	r15
    104c:	ef 90       	pop	r14
    104e:	df 90       	pop	r13
    1050:	cf 90       	pop	r12
    1052:	bf 90       	pop	r11
    1054:	af 90       	pop	r10
    1056:	9f 90       	pop	r9
    1058:	8f 90       	pop	r8
    105a:	7f 90       	pop	r7
    105c:	6f 90       	pop	r6
    105e:	08 95       	ret

00001060 <SendLiteral>:
    1060:	cf 92       	push	r12
    1062:	df 92       	push	r13
    1064:	ef 92       	push	r14
    1066:	ff 92       	push	r15
    1068:	1f 93       	push	r17
    106a:	cf 93       	push	r28
    106c:	df 93       	push	r29
    106e:	7c 01       	movw	r14, r24
    1070:	cb 01       	movw	r24, r22
    1072:	14 2f       	mov	r17, r20
    1074:	1f 71       	andi	r17, 0x1F	; 31
    1076:	c1 2e       	mov	r12, r17
    1078:	d1 2c       	mov	r13, r1
    107a:	20 e2       	ldi	r18, 0x20	; 32
    107c:	30 e0       	ldi	r19, 0x00	; 0
    107e:	b9 01       	movw	r22, r18
    1080:	6c 19       	sub	r22, r12
    1082:	7d 09       	sbc	r23, r13
    1084:	ac d3       	rcall	.+1880   	; 0x17de <__udivmodhi4>
    1086:	ec 01       	movw	r28, r24
    1088:	ac 01       	movw	r20, r24
    108a:	11 23       	and	r17, r17
    108c:	61 f0       	breq	.+24     	; 0x10a6 <SendLiteral+0x46>
    108e:	e4 ef       	ldi	r30, 0xF4	; 244
    1090:	f9 e3       	ldi	r31, 0x39	; 57
    1092:	8f ef       	ldi	r24, 0xFF	; 255
    1094:	81 0f       	add	r24, r17
    1096:	90 e0       	ldi	r25, 0x00	; 0
    1098:	8b 50       	subi	r24, 0x0B	; 11
    109a:	96 4c       	sbci	r25, 0xC6	; 198
    109c:	3a e0       	ldi	r19, 0x0A	; 10
    109e:	31 93       	st	Z+, r19
    10a0:	e8 17       	cp	r30, r24
    10a2:	f9 07       	cpc	r31, r25
    10a4:	e1 f7       	brne	.-8      	; 0x109e <SendLiteral+0x3e>
    10a6:	45 2b       	or	r20, r21
    10a8:	39 f0       	breq	.+14     	; 0x10b8 <SendLiteral+0x58>
    10aa:	96 01       	movw	r18, r12
    10ac:	2c 50       	subi	r18, 0x0C	; 12
    10ae:	36 4c       	sbci	r19, 0xC6	; 198
    10b0:	41 e0       	ldi	r20, 0x01	; 1
    10b2:	6c 2f       	mov	r22, r28
    10b4:	c7 01       	movw	r24, r14
    10b6:	a5 de       	rcall	.-694    	; 0xe02 <ExtEERead>
    10b8:	cc 50       	subi	r28, 0x0C	; 12
    10ba:	d6 4c       	sbci	r29, 0xC6	; 198
    10bc:	c1 0f       	add	r28, r17
    10be:	d1 1d       	adc	r29, r1
    10c0:	18 82       	st	Y, r1
    10c2:	84 ef       	ldi	r24, 0xF4	; 244
    10c4:	99 e3       	ldi	r25, 0x39	; 57
    10c6:	8e dc       	rcall	.-1764   	; 0x9e4 <SerSend>
    10c8:	df 91       	pop	r29
    10ca:	cf 91       	pop	r28
    10cc:	1f 91       	pop	r17
    10ce:	ff 90       	pop	r15
    10d0:	ef 90       	pop	r14
    10d2:	df 90       	pop	r13
    10d4:	cf 90       	pop	r12
    10d6:	08 95       	ret

000010d8 <GetState>:
    }
}

//Returns the state of the bit on position "num"
uint8_t GetState(uint8_t num){
    if ((num)&&(num<STATUS_BITS)){
    10d8:	18 16       	cp	r1, r24
    10da:	14 f4       	brge	.+4      	; 0x10e0 <GetState+0x8>
        return ReadStatusBit(num);
    10dc:	bf cd       	rjmp	.-1154   	; 0xc5c <ReadStatusBit>
    10de:	08 95       	ret
    }
    return 1;
    10e0:	81 e0       	ldi	r24, 0x01	; 1
}
    10e2:	08 95       	ret

000010e4 <CheckState>:

//Checks if state of bit BBBBbbb matches with v (inverted) bit
uint8_t CheckState(uint8_t num){
    10e4:	cf 93       	push	r28
    10e6:	c8 2f       	mov	r28, r24
    return (GetState(num&(STATUS_BITS-1)) == (1-(num&STATUS_BITS))); 
    10e8:	8f 77       	andi	r24, 0x7F	; 127
    10ea:	f6 df       	rcall	.-20     	; 0x10d8 <GetState>
    10ec:	c0 78       	andi	r28, 0x80	; 128
    10ee:	41 e0       	ldi	r20, 0x01	; 1
    10f0:	50 e0       	ldi	r21, 0x00	; 0
    10f2:	4c 1b       	sub	r20, r28
    10f4:	51 09       	sbc	r21, r1
    10f6:	28 2f       	mov	r18, r24
    10f8:	30 e0       	ldi	r19, 0x00	; 0
    10fa:	81 e0       	ldi	r24, 0x01	; 1
    10fc:	42 17       	cp	r20, r18
    10fe:	53 07       	cpc	r21, r19
    1100:	09 f0       	breq	.+2      	; 0x1104 <CheckState+0x20>
    1102:	80 e0       	ldi	r24, 0x00	; 0
}
    1104:	cf 91       	pop	r28
    1106:	08 95       	ret

00001108 <CheckLetter>:

//
uint8_t CheckLetter(uint16_t child, uint8_t letter){
    1108:	cf 92       	push	r12
    110a:	df 92       	push	r13
    110c:	ef 92       	push	r14
    110e:	ff 92       	push	r15
    1110:	0f 93       	push	r16
    1112:	1f 93       	push	r17
    1114:	cf 93       	push	r28
    1116:	df 93       	push	r29
    1118:	cd b7       	in	r28, 0x3d	; 61
    111a:	de b7       	in	r29, 0x3e	; 62
    111c:	a0 97       	sbiw	r28, 0x20	; 32
    111e:	cd bf       	out	0x3d, r28	; 61
    1120:	de bf       	out	0x3e, r29	; 62
    1122:	c6 2e       	mov	r12, r22
    
    uint8_t found = 0;
    uint8_t data[32];

    child += L_BOILER;
    1124:	7c 01       	movw	r14, r24
    1126:	20 e2       	ldi	r18, 0x20	; 32
    1128:	e2 0e       	add	r14, r18
    112a:	f1 1c       	adc	r15, r1
    ExtEERead(child+OFF_STRINGFLDS, 1, GAME, &data[0]);
    112c:	9e 01       	movw	r18, r28
    112e:	2f 5f       	subi	r18, 0xFF	; 255
    1130:	3f 4f       	sbci	r19, 0xFF	; 255
    1132:	40 e0       	ldi	r20, 0x00	; 0
    1134:	61 e0       	ldi	r22, 0x01	; 1
    1136:	8c 96       	adiw	r24, 0x2c	; 44
    1138:	64 de       	rcall	.-824    	; 0xe02 <ExtEERead>
    uint8_t x = data[0];
    113a:	09 81       	ldd	r16, Y+1	; 0x01

    while (x){
    113c:	00 23       	and	r16, r16
    113e:	51 f1       	breq	.+84     	; 0x1194 <CheckLetter+0x8c>
    1140:	d1 2c       	mov	r13, r1
        uint8_t max = (x>32)?32:x;
    1142:	10 2f       	mov	r17, r16
    1144:	01 32       	cpi	r16, 0x21	; 33
    1146:	08 f0       	brcs	.+2      	; 0x114a <CheckLetter+0x42>
    1148:	10 e2       	ldi	r17, 0x20	; 32
        ExtEERead(child+OFF_STRINGFLDS+1, max, GAME, &data[0]);
    114a:	9e 01       	movw	r18, r28
    114c:	2f 5f       	subi	r18, 0xFF	; 255
    114e:	3f 4f       	sbci	r19, 0xFF	; 255
    1150:	40 e0       	ldi	r20, 0x00	; 0
    1152:	61 2f       	mov	r22, r17
    1154:	c7 01       	movw	r24, r14
    1156:	0d 96       	adiw	r24, 0x0d	; 13
    1158:	54 de       	rcall	.-856    	; 0xe02 <ExtEERead>
        for (uint8_t y=0; y<max; ++y){
    115a:	11 23       	and	r17, r17
    115c:	a9 f0       	breq	.+42     	; 0x1188 <CheckLetter+0x80>
            if (found){
    115e:	dd 20       	and	r13, r13
    1160:	51 f0       	breq	.+20     	; 0x1176 <CheckLetter+0x6e>
    uint8_t x = data[0];

    while (x){
        uint8_t max = (x>32)?32:x;
        ExtEERead(child+OFF_STRINGFLDS+1, max, GAME, &data[0]);
        for (uint8_t y=0; y<max; ++y){
    1162:	80 e0       	ldi	r24, 0x00	; 0
            if (found){
                if (data[y] == letter) return 1; else return 0;
    1164:	fe 01       	movw	r30, r28
    1166:	e8 0f       	add	r30, r24
    1168:	f1 1d       	adc	r31, r1
    116a:	81 e0       	ldi	r24, 0x01	; 1
    116c:	91 81       	ldd	r25, Z+1	; 0x01
    116e:	9c 15       	cp	r25, r12
    1170:	c9 f0       	breq	.+50     	; 0x11a4 <CheckLetter+0x9c>
    1172:	80 e0       	ldi	r24, 0x00	; 0
    1174:	17 c0       	rjmp	.+46     	; 0x11a4 <CheckLetter+0x9c>
    1176:	fe 01       	movw	r30, r28
    1178:	31 96       	adiw	r30, 0x01	; 1

    while (x){
        uint8_t max = (x>32)?32:x;
        ExtEERead(child+OFF_STRINGFLDS+1, max, GAME, &data[0]);
        for (uint8_t y=0; y<max; ++y){
            if (found){
    117a:	80 e0       	ldi	r24, 0x00	; 0
                if (data[y] == letter) return 1; else return 0;
            }
            if (data[y] == '[') found = 1;
    117c:	91 91       	ld	r25, Z+
    117e:	9b 35       	cpi	r25, 0x5B	; 91
    1180:	59 f0       	breq	.+22     	; 0x1198 <CheckLetter+0x90>
    uint8_t x = data[0];

    while (x){
        uint8_t max = (x>32)?32:x;
        ExtEERead(child+OFF_STRINGFLDS+1, max, GAME, &data[0]);
        for (uint8_t y=0; y<max; ++y){
    1182:	8f 5f       	subi	r24, 0xFF	; 255
    1184:	18 13       	cpse	r17, r24
    1186:	fa cf       	rjmp	.-12     	; 0x117c <CheckLetter+0x74>
            if (found){
                if (data[y] == letter) return 1; else return 0;
            }
            if (data[y] == '[') found = 1;
        }
        child += max;
    1188:	e1 0e       	add	r14, r17
    118a:	f1 1c       	adc	r15, r1
        x -= max;
    118c:	01 1b       	sub	r16, r17

    child += L_BOILER;
    ExtEERead(child+OFF_STRINGFLDS, 1, GAME, &data[0]);
    uint8_t x = data[0];

    while (x){
    118e:	c9 f6       	brne	.-78     	; 0x1142 <CheckLetter+0x3a>
            if (data[y] == '[') found = 1;
        }
        child += max;
        x -= max;
    }
    return 0;
    1190:	80 e0       	ldi	r24, 0x00	; 0
    1192:	08 c0       	rjmp	.+16     	; 0x11a4 <CheckLetter+0x9c>
    1194:	80 e0       	ldi	r24, 0x00	; 0
    1196:	06 c0       	rjmp	.+12     	; 0x11a4 <CheckLetter+0x9c>
    uint8_t x = data[0];

    while (x){
        uint8_t max = (x>32)?32:x;
        ExtEERead(child+OFF_STRINGFLDS+1, max, GAME, &data[0]);
        for (uint8_t y=0; y<max; ++y){
    1198:	8f 5f       	subi	r24, 0xFF	; 255
    119a:	81 17       	cp	r24, r17
    119c:	18 f3       	brcs	.-58     	; 0x1164 <CheckLetter+0x5c>
            if (found){
                if (data[y] == letter) return 1; else return 0;
            }
            if (data[y] == '[') found = 1;
    119e:	dd 24       	eor	r13, r13
    11a0:	d3 94       	inc	r13
    11a2:	f2 cf       	rjmp	.-28     	; 0x1188 <CheckLetter+0x80>
        }
        child += max;
        x -= max;
    }
    return 0;
}
    11a4:	a0 96       	adiw	r28, 0x20	; 32
    11a6:	cd bf       	out	0x3d, r28	; 61
    11a8:	de bf       	out	0x3e, r29	; 62
    11aa:	df 91       	pop	r29
    11ac:	cf 91       	pop	r28
    11ae:	1f 91       	pop	r17
    11b0:	0f 91       	pop	r16
    11b2:	ff 90       	pop	r15
    11b4:	ef 90       	pop	r14
    11b6:	df 90       	pop	r13
    11b8:	cf 90       	pop	r12
    11ba:	08 95       	ret

000011bc <FindChild>:

//Returns the child's address if the child is visible and the search letter matches
uint16_t FindChild(uint16_t parent, uint8_t letter){
    11bc:	df 92       	push	r13
    11be:	ef 92       	push	r14
    11c0:	ff 92       	push	r15
    11c2:	0f 93       	push	r16
    11c4:	1f 93       	push	r17
    11c6:	cf 93       	push	r28
    11c8:	df 93       	push	r29
    11ca:	00 d0       	rcall	.+0      	; 0x11cc <FindChild+0x10>
    11cc:	00 d0       	rcall	.+0      	; 0x11ce <FindChild+0x12>
    11ce:	cd b7       	in	r28, 0x3d	; 61
    11d0:	de b7       	in	r29, 0x3e	; 62
    11d2:	d6 2e       	mov	r13, r22
    
    uint16_t child = parent;
    uint8_t data[4];

    ExtEERead(child+L_BOILER, 4, GAME, &data[0]);
    11d4:	9e 01       	movw	r18, r28
    11d6:	2f 5f       	subi	r18, 0xFF	; 255
    11d8:	3f 4f       	sbci	r19, 0xFF	; 255
    11da:	40 e0       	ldi	r20, 0x00	; 0
    11dc:	64 e0       	ldi	r22, 0x04	; 4
    11de:	80 96       	adiw	r24, 0x20	; 32
    11e0:	10 de       	rcall	.-992    	; 0xe02 <ExtEERead>
    parent = (data[0]<<8||data[1]);    //Next object on parent level
    11e2:	89 81       	ldd	r24, Y+1	; 0x01
    11e4:	81 11       	cpse	r24, r1
    11e6:	4d c0       	rjmp	.+154    	; 0x1282 <FindChild+0xc6>
    11e8:	91 e0       	ldi	r25, 0x01	; 1
    11ea:	2a 81       	ldd	r18, Y+2	; 0x02
    11ec:	21 11       	cpse	r18, r1
    11ee:	01 c0       	rjmp	.+2      	; 0x11f2 <FindChild+0x36>
    11f0:	90 e0       	ldi	r25, 0x00	; 0
    11f2:	e9 2e       	mov	r14, r25
    11f4:	f8 2e       	mov	r15, r24
    child =  (data[2]<<8||data[3]);    //First object on child level
    11f6:	8b 81       	ldd	r24, Y+3	; 0x03
    11f8:	81 11       	cpse	r24, r1
    11fa:	07 c0       	rjmp	.+14     	; 0x120a <FindChild+0x4e>
    11fc:	91 e0       	ldi	r25, 0x01	; 1
    11fe:	80 e0       	ldi	r24, 0x00	; 0
    1200:	2c 81       	ldd	r18, Y+4	; 0x04
    1202:	21 11       	cpse	r18, r1
    1204:	04 c0       	rjmp	.+8      	; 0x120e <FindChild+0x52>
    1206:	90 e0       	ldi	r25, 0x00	; 0
    1208:	02 c0       	rjmp	.+4      	; 0x120e <FindChild+0x52>
    120a:	91 e0       	ldi	r25, 0x01	; 1
    120c:	80 e0       	ldi	r24, 0x00	; 0
    120e:	09 2f       	mov	r16, r25
    1210:	18 2f       	mov	r17, r24

    //As long as the child is within the parent's range
    while (parent>child){
    1212:	0e 15       	cp	r16, r14
    1214:	1f 05       	cpc	r17, r15
    1216:	60 f5       	brcc	.+88     	; 0x1270 <FindChild+0xb4>

        //Find out if the found child is visible and check letter
        ExtEERead(child+OFF_BYTEFLDS+VISIBLE_ACL+L_BOILER, 1, GAME, &data[0]);
    1218:	9e 01       	movw	r18, r28
    121a:	2f 5f       	subi	r18, 0xFF	; 255
    121c:	3f 4f       	sbci	r19, 0xFF	; 255
    121e:	40 e0       	ldi	r20, 0x00	; 0
    1220:	61 e0       	ldi	r22, 0x01	; 1
    1222:	c8 01       	movw	r24, r16
    1224:	85 96       	adiw	r24, 0x25	; 37
    1226:	ed dd       	rcall	.-1062   	; 0xe02 <ExtEERead>
        if (CheckState(data[0])) {
    1228:	89 81       	ldd	r24, Y+1	; 0x01
    122a:	5c df       	rcall	.-328    	; 0x10e4 <CheckState>
    122c:	88 23       	and	r24, r24
    122e:	29 f0       	breq	.+10     	; 0x123a <FindChild+0x7e>
            if (CheckLetter(child, letter)) return child;
    1230:	6d 2d       	mov	r22, r13
    1232:	c8 01       	movw	r24, r16
    1234:	69 df       	rcall	.-302    	; 0x1108 <CheckLetter>
    1236:	81 11       	cpse	r24, r1
    1238:	1e c0       	rjmp	.+60     	; 0x1276 <FindChild+0xba>
    123a:	9e 01       	movw	r18, r28
        }

        //Not visible or name not right
        ExtEERead(child+L_BOILER, 2, GAME, &data[0]);
    123c:	2f 5f       	subi	r18, 0xFF	; 255
    123e:	3f 4f       	sbci	r19, 0xFF	; 255
    1240:	40 e0       	ldi	r20, 0x00	; 0
    1242:	62 e0       	ldi	r22, 0x02	; 2
    1244:	c8 01       	movw	r24, r16
    1246:	80 96       	adiw	r24, 0x20	; 32
    1248:	dc dd       	rcall	.-1096   	; 0xe02 <ExtEERead>
    124a:	89 81       	ldd	r24, Y+1	; 0x01
        child = (data[0]<<8||data[1]);    //Next object on child level
    124c:	81 11       	cpse	r24, r1
    124e:	06 c0       	rjmp	.+12     	; 0x125c <FindChild+0xa0>
    1250:	91 e0       	ldi	r25, 0x01	; 1
    1252:	2a 81       	ldd	r18, Y+2	; 0x02
    1254:	21 11       	cpse	r18, r1
    1256:	04 c0       	rjmp	.+8      	; 0x1260 <FindChild+0xa4>
    1258:	90 e0       	ldi	r25, 0x00	; 0
    125a:	02 c0       	rjmp	.+4      	; 0x1260 <FindChild+0xa4>
    125c:	91 e0       	ldi	r25, 0x01	; 1
    125e:	80 e0       	ldi	r24, 0x00	; 0
    1260:	09 2f       	mov	r16, r25
    1262:	18 2f       	mov	r17, r24
    1264:	0e 15       	cp	r16, r14
    ExtEERead(child+L_BOILER, 4, GAME, &data[0]);
    parent = (data[0]<<8||data[1]);    //Next object on parent level
    child =  (data[2]<<8||data[3]);    //First object on child level

    //As long as the child is within the parent's range
    while (parent>child){
    1266:	1f 05       	cpc	r17, r15
    1268:	b8 f2       	brcs	.-82     	; 0x1218 <FindChild+0x5c>
    126a:	80 e0       	ldi	r24, 0x00	; 0

        //Not visible or name not right
        ExtEERead(child+L_BOILER, 2, GAME, &data[0]);
        child = (data[0]<<8||data[1]);    //Next object on child level
        
    } return 0;
    126c:	90 e0       	ldi	r25, 0x00	; 0
    126e:	10 c0       	rjmp	.+32     	; 0x1290 <FindChild+0xd4>
    1270:	80 e0       	ldi	r24, 0x00	; 0
    1272:	90 e0       	ldi	r25, 0x00	; 0
    1274:	0d c0       	rjmp	.+26     	; 0x1290 <FindChild+0xd4>
    1276:	80 2f       	mov	r24, r16
    1278:	91 2f       	mov	r25, r17
    127a:	0a c0       	rjmp	.+20     	; 0x1290 <FindChild+0xd4>
    127c:	80 e0       	ldi	r24, 0x00	; 0
    127e:	90 e0       	ldi	r25, 0x00	; 0
    1280:	07 c0       	rjmp	.+14     	; 0x1290 <FindChild+0xd4>
    1282:	8b 81       	ldd	r24, Y+3	; 0x03
    uint16_t child = parent;
    uint8_t data[4];

    ExtEERead(child+L_BOILER, 4, GAME, &data[0]);
    parent = (data[0]<<8||data[1]);    //Next object on parent level
    child =  (data[2]<<8||data[3]);    //First object on child level
    1284:	81 11       	cpse	r24, r1
    1286:	fa cf       	rjmp	.-12     	; 0x127c <FindChild+0xc0>
    1288:	ee 24       	eor	r14, r14
    
    uint16_t child = parent;
    uint8_t data[4];

    ExtEERead(child+L_BOILER, 4, GAME, &data[0]);
    parent = (data[0]<<8||data[1]);    //Next object on parent level
    128a:	e3 94       	inc	r14
    128c:	f1 2c       	mov	r15, r1
    128e:	b6 cf       	rjmp	.-148    	; 0x11fc <FindChild+0x40>
    1290:	24 96       	adiw	r28, 0x04	; 4
        //Not visible or name not right
        ExtEERead(child+L_BOILER, 2, GAME, &data[0]);
        child = (data[0]<<8||data[1]);    //Next object on child level
        
    } return 0;
}
    1292:	cd bf       	out	0x3d, r28	; 61
    1294:	de bf       	out	0x3e, r29	; 62
    1296:	df 91       	pop	r29
    1298:	cf 91       	pop	r28
    129a:	1f 91       	pop	r17
    129c:	0f 91       	pop	r16
    129e:	ff 90       	pop	r15
    12a0:	ef 90       	pop	r14
    12a2:	df 90       	pop	r13
    12a4:	08 95       	ret

000012a6 <InpOkChk>:
    12a6:	9f e9       	ldi	r25, 0x9F	; 159

uint8_t InpOkChk(uint8_t test){
    if ((test>='a')&&(test<='z')) return 1;
    12a8:	98 0f       	add	r25, r24
    12aa:	9a 31       	cpi	r25, 0x1A	; 26
    12ac:	38 f0       	brcs	.+14     	; 0x12bc <InpOkChk+0x16>
    12ae:	90 ed       	ldi	r25, 0xD0	; 208
    12b0:	98 0f       	add	r25, r24
    12b2:	81 e0       	ldi	r24, 0x01	; 1
    12b4:	9a 30       	cpi	r25, 0x0A	; 10
    12b6:	18 f0       	brcs	.+6      	; 0x12be <InpOkChk+0x18>
    12b8:	80 e0       	ldi	r24, 0x00	; 0
    12ba:	08 95       	ret
    12bc:	81 e0       	ldi	r24, 0x01	; 1
    if ((test>='0')&&(test<='9')) return 1;
    return 0;
}
    12be:	08 95       	ret

000012c0 <CleanInput>:

//Cleans input of garbage and returns length of cleaned input "o->d2  !\0" becomes "od2\0"
uint8_t CleanInput(uint8_t *data){
    12c0:	0f 93       	push	r16
    12c2:	1f 93       	push	r17
    12c4:	cf 93       	push	r28
    12c6:	df 93       	push	r29
    12c8:	8c 01       	movw	r16, r24
    uint8_t cnt = 0;
    for (uint8_t x=0; data[x]!=0; ++x){
    12ca:	fc 01       	movw	r30, r24
    12cc:	80 81       	ld	r24, Z
    12ce:	88 23       	and	r24, r24
    12d0:	91 f0       	breq	.+36     	; 0x12f6 <CleanInput+0x36>
    12d2:	c0 e0       	ldi	r28, 0x00	; 0
    12d4:	d0 e0       	ldi	r29, 0x00	; 0
        data[cnt] = data[x];
    12d6:	d8 01       	movw	r26, r16
    12d8:	ad 0f       	add	r26, r29
    12da:	b1 1d       	adc	r27, r1
    12dc:	8c 93       	st	X, r24
        if (InpOkChk(data[x])) ++cnt;
    12de:	80 81       	ld	r24, Z
    12e0:	e2 df       	rcall	.-60     	; 0x12a6 <InpOkChk>
    12e2:	81 11       	cpse	r24, r1
    12e4:	df 5f       	subi	r29, 0xFF	; 255
}

//Cleans input of garbage and returns length of cleaned input "o->d2  !\0" becomes "od2\0"
uint8_t CleanInput(uint8_t *data){
    uint8_t cnt = 0;
    for (uint8_t x=0; data[x]!=0; ++x){
    12e6:	cf 5f       	subi	r28, 0xFF	; 255
    12e8:	f8 01       	movw	r30, r16
    12ea:	ec 0f       	add	r30, r28
    12ec:	f1 1d       	adc	r31, r1
    12ee:	80 81       	ld	r24, Z
    12f0:	81 11       	cpse	r24, r1
    12f2:	f1 cf       	rjmp	.-30     	; 0x12d6 <CleanInput+0x16>
    12f4:	01 c0       	rjmp	.+2      	; 0x12f8 <CleanInput+0x38>
    return 0;
}

//Cleans input of garbage and returns length of cleaned input "o->d2  !\0" becomes "od2\0"
uint8_t CleanInput(uint8_t *data){
    uint8_t cnt = 0;
    12f6:	d0 e0       	ldi	r29, 0x00	; 0
    for (uint8_t x=0; data[x]!=0; ++x){
        data[cnt] = data[x];
        if (InpOkChk(data[x])) ++cnt;
    }
    data[cnt] = 0;
    12f8:	f8 01       	movw	r30, r16
    12fa:	ed 0f       	add	r30, r29
    12fc:	f1 1d       	adc	r31, r1
    12fe:	10 82       	st	Z, r1
    return cnt;
}
    1300:	8d 2f       	mov	r24, r29
    1302:	df 91       	pop	r29
    1304:	cf 91       	pop	r28
    1306:	1f 91       	pop	r17
    1308:	0f 91       	pop	r16
    130a:	08 95       	ret

0000130c <CheckSend>:


//Send routine, optimized for low memory usage
uint8_t CheckSend(){
    130c:	cf 93       	push	r28
    static uint8_t txPart;
    uint8_t EEreadLength=0;

    //Check if more string(part)s have to be sent to the serial output if previous send operation is completed
    if ((txAddrNow < TXLISTLEN) && serTxDone){
    130e:	80 91 2b 39 	lds	r24, 0x392B	; 0x80392b <txAddrNow>
    1312:	88 30       	cpi	r24, 0x08	; 8
    1314:	d8 f5       	brcc	.+118    	; 0x138c <CheckSend+0x80>
    1316:	90 91 04 38 	lds	r25, 0x3804	; 0x803804 <serTxDone>
    131a:	99 23       	and	r25, r25
    131c:	b9 f1       	breq	.+110    	; 0x138c <CheckSend+0x80>
        if (txPart < txStrLen[txAddrNow]){
    131e:	28 2f       	mov	r18, r24
    1320:	30 e0       	ldi	r19, 0x00	; 0
    1322:	f9 01       	movw	r30, r18
    1324:	e4 5d       	subi	r30, 0xD4	; 212
    1326:	f6 4c       	sbci	r31, 0xC6	; 198
    1328:	e0 81       	ld	r30, Z
    132a:	90 91 28 39 	lds	r25, 0x3928	; 0x803928 <txPart.3909>
    132e:	9e 17       	cp	r25, r30
    1330:	30 f5       	brcc	.+76     	; 0x137e <CheckSend+0x72>
            EEreadLength = txStrLen[txAddrNow]-txPart;
    1332:	ce 2f       	mov	r28, r30
    1334:	c9 1b       	sub	r28, r25
    1336:	c1 32       	cpi	r28, 0x21	; 33
    1338:	08 f0       	brcs	.+2      	; 0x133c <CheckSend+0x30>
    133a:	c0 e2       	ldi	r28, 0x20	; 32
            if (EEreadLength>=TXLEN) EEreadLength = TXLEN-1;
            ExtEERead(txAddrList[txAddrNow]+txPart, EEreadLength, txTypeNow, &txBuffer[0]);
    133c:	22 0f       	add	r18, r18
    133e:	33 1f       	adc	r19, r19
    1340:	f9 01       	movw	r30, r18
    1342:	ec 5c       	subi	r30, 0xCC	; 204
    1344:	f6 4c       	sbci	r31, 0xC6	; 198
    1346:	01 90       	ld	r0, Z+
    1348:	f0 81       	ld	r31, Z
    134a:	e0 2d       	mov	r30, r0
    134c:	24 ef       	ldi	r18, 0xF4	; 244
    134e:	39 e3       	ldi	r19, 0x39	; 57
    1350:	40 91 29 39 	lds	r20, 0x3929	; 0x803929 <txTypeNow>
    1354:	6c 2f       	mov	r22, r28
    1356:	df 01       	movw	r26, r30
    1358:	a9 0f       	add	r26, r25
    135a:	b1 1d       	adc	r27, r1
    135c:	cd 01       	movw	r24, r26
    135e:	51 dd       	rcall	.-1374   	; 0xe02 <ExtEERead>
            txPart += EEreadLength;
    1360:	80 91 28 39 	lds	r24, 0x3928	; 0x803928 <txPart.3909>
    1364:	8c 0f       	add	r24, r28
    1366:	80 93 28 39 	sts	0x3928, r24	; 0x803928 <txPart.3909>
            txBuffer[EEreadLength] = 0; //Add string terminator after piece to send to plug memory leak
    136a:	ec 2f       	mov	r30, r28
    136c:	f0 e0       	ldi	r31, 0x00	; 0
    136e:	ec 50       	subi	r30, 0x0C	; 12
    1370:	f6 4c       	sbci	r31, 0xC6	; 198
    1372:	10 82       	st	Z, r1
            SerSend(&txBuffer[0]);
    1374:	84 ef       	ldi	r24, 0xF4	; 244
    1376:	99 e3       	ldi	r25, 0x39	; 57
    1378:	35 db       	rcall	.-2454   	; 0x9e4 <SerSend>
        } else if (sendPrompt == CR_2){
            SendLiteral(0, 0, 2);
        }
        sendPrompt=0;
    } else if (serTxDone) return 0; //All is sent!
    return 1; //Still sending, do not change the data in the tx variables
    137a:	81 e0       	ldi	r24, 0x01	; 1
    137c:	3b c0       	rjmp	.+118    	; 0x13f4 <CheckSend+0xe8>
            ExtEERead(txAddrList[txAddrNow]+txPart, EEreadLength, txTypeNow, &txBuffer[0]);
            txPart += EEreadLength;
            txBuffer[EEreadLength] = 0; //Add string terminator after piece to send to plug memory leak
            SerSend(&txBuffer[0]);
        } else {
            txPart = 0;
    137e:	10 92 28 39 	sts	0x3928, r1	; 0x803928 <txPart.3909>
            ++txAddrNow;
    1382:	8f 5f       	subi	r24, 0xFF	; 255
    1384:	80 93 2b 39 	sts	0x392B, r24	; 0x80392b <txAddrNow>
        } else if (sendPrompt == CR_2){
            SendLiteral(0, 0, 2);
        }
        sendPrompt=0;
    } else if (serTxDone) return 0; //All is sent!
    return 1; //Still sending, do not change the data in the tx variables
    1388:	81 e0       	ldi	r24, 0x01	; 1
    138a:	34 c0       	rjmp	.+104    	; 0x13f4 <CheckSend+0xe8>
            txPart = 0;
            ++txAddrNow;
        }
    
    //Check if prompt needs to be sent afterward or something else
    } else if (serTxDone&&sendPrompt) {
    138c:	80 91 04 38 	lds	r24, 0x3804	; 0x803804 <serTxDone>
    1390:	88 23       	and	r24, r24
    1392:	59 f1       	breq	.+86     	; 0x13ea <CheckSend+0xde>
    1394:	80 91 2a 39 	lds	r24, 0x392A	; 0x80392a <sendPrompt>
    1398:	88 23       	and	r24, r24
    139a:	39 f1       	breq	.+78     	; 0x13ea <CheckSend+0xde>
        if (sendPrompt == PROMPT){
    139c:	81 30       	cpi	r24, 0x01	; 1
    139e:	39 f4       	brne	.+14     	; 0x13ae <CheckSend+0xa2>
            SendLiteral(A_PROMPT, L_PROMPT, 1);
    13a0:	41 e0       	ldi	r20, 0x01	; 1
    13a2:	62 e0       	ldi	r22, 0x02	; 2
    13a4:	70 e0       	ldi	r23, 0x00	; 0
    13a6:	8d e4       	ldi	r24, 0x4D	; 77
    13a8:	9c e7       	ldi	r25, 0x7C	; 124
    13aa:	5a de       	rcall	.-844    	; 0x1060 <SendLiteral>
    13ac:	1a c0       	rjmp	.+52     	; 0x13e2 <CheckSend+0xd6>
        } else if (sendPrompt == SPACE){
    13ae:	82 30       	cpi	r24, 0x02	; 2
    13b0:	39 f4       	brne	.+14     	; 0x13c0 <CheckSend+0xb4>
            SendLiteral(A_SPACE, L_SPACE, 0);
    13b2:	40 e0       	ldi	r20, 0x00	; 0
    13b4:	61 e0       	ldi	r22, 0x01	; 1
    13b6:	70 e0       	ldi	r23, 0x00	; 0
    13b8:	8f e4       	ldi	r24, 0x4F	; 79
    13ba:	9c e7       	ldi	r25, 0x7C	; 124
    13bc:	51 de       	rcall	.-862    	; 0x1060 <SendLiteral>
    13be:	11 c0       	rjmp	.+34     	; 0x13e2 <CheckSend+0xd6>
        } else if (sendPrompt == CR_1){
    13c0:	83 30       	cpi	r24, 0x03	; 3
    13c2:	39 f4       	brne	.+14     	; 0x13d2 <CheckSend+0xc6>
            SendLiteral(0, 0, 1);
    13c4:	41 e0       	ldi	r20, 0x01	; 1
    13c6:	60 e0       	ldi	r22, 0x00	; 0
    13c8:	70 e0       	ldi	r23, 0x00	; 0
    13ca:	80 e0       	ldi	r24, 0x00	; 0
    13cc:	90 e0       	ldi	r25, 0x00	; 0
    13ce:	48 de       	rcall	.-880    	; 0x1060 <SendLiteral>
    13d0:	08 c0       	rjmp	.+16     	; 0x13e2 <CheckSend+0xd6>
        } else if (sendPrompt == CR_2){
    13d2:	84 30       	cpi	r24, 0x04	; 4
    13d4:	31 f4       	brne	.+12     	; 0x13e2 <CheckSend+0xd6>
            SendLiteral(0, 0, 2);
    13d6:	42 e0       	ldi	r20, 0x02	; 2
    13d8:	60 e0       	ldi	r22, 0x00	; 0
    13da:	70 e0       	ldi	r23, 0x00	; 0
    13dc:	80 e0       	ldi	r24, 0x00	; 0
    13de:	90 e0       	ldi	r25, 0x00	; 0
    13e0:	3f de       	rcall	.-898    	; 0x1060 <SendLiteral>
        }
        sendPrompt=0;
    13e2:	10 92 2a 39 	sts	0x392A, r1	; 0x80392a <sendPrompt>
    } else if (serTxDone) return 0; //All is sent!
    return 1; //Still sending, do not change the data in the tx variables
    13e6:	81 e0       	ldi	r24, 0x01	; 1
        } else if (sendPrompt == CR_1){
            SendLiteral(0, 0, 1);
        } else if (sendPrompt == CR_2){
            SendLiteral(0, 0, 2);
        }
        sendPrompt=0;
    13e8:	05 c0       	rjmp	.+10     	; 0x13f4 <CheckSend+0xe8>
    } else if (serTxDone) return 0; //All is sent!
    13ea:	90 91 04 38 	lds	r25, 0x3804	; 0x803804 <serTxDone>
    13ee:	81 e0       	ldi	r24, 0x01	; 1
    13f0:	91 11       	cpse	r25, r1
    13f2:	80 e0       	ldi	r24, 0x00	; 0
    return 1; //Still sending, do not change the data in the tx variables
}
    13f4:	cf 91       	pop	r28
    13f6:	08 95       	ret

000013f8 <CheckInput>:

//User input check (and validation)
uint8_t CheckInput(uint8_t *data){
    13f8:	1f 93       	push	r17
    13fa:	cf 93       	push	r28
    13fc:	df 93       	push	r29
    13fe:	cd b7       	in	r28, 0x3d	; 61
    1400:	de b7       	in	r29, 0x3e	; 62
    1402:	2a 97       	sbiw	r28, 0x0a	; 10
    1404:	cd bf       	out	0x3d, r28	; 61
    1406:	de bf       	out	0x3e, r29	; 62
    if (serRxDone){
    1408:	20 91 1c 38 	lds	r18, 0x381C	; 0x80381c <serRxDone>
    140c:	22 23       	and	r18, r18
    140e:	09 f4       	brne	.+2      	; 0x1412 <CheckInput+0x1a>
    1410:	6e c0       	rjmp	.+220    	; 0x14ee <CheckInput+0xf6>
        //Read up to the \0 character and convert to lower case.
        for (uint8_t x=0; serRx[x]!=0; ++x){
    1412:	20 91 56 39 	lds	r18, 0x3956	; 0x803956 <serRx>
    1416:	22 23       	and	r18, r18
    1418:	51 f1       	breq	.+84     	; 0x146e <CheckInput+0x76>
    141a:	20 e0       	ldi	r18, 0x00	; 0
    141c:	30 e0       	ldi	r19, 0x00	; 0
    141e:	40 e0       	ldi	r20, 0x00	; 0
            if ((serRx[x]<'A')||(serRx[x]>'Z')) data[x]=serRx[x]; else data[x]=serRx[x]|0x20;
    1420:	f9 01       	movw	r30, r18
    1422:	ea 5a       	subi	r30, 0xAA	; 170
    1424:	f6 4c       	sbci	r31, 0xC6	; 198
    1426:	50 81       	ld	r21, Z
    1428:	51 34       	cpi	r21, 0x41	; 65
    142a:	30 f0       	brcs	.+12     	; 0x1438 <CheckInput+0x40>
    142c:	f9 01       	movw	r30, r18
    142e:	ea 5a       	subi	r30, 0xAA	; 170
    1430:	f6 4c       	sbci	r31, 0xC6	; 198
    1432:	50 81       	ld	r21, Z
    1434:	5b 35       	cpi	r21, 0x5B	; 91
    1436:	48 f0       	brcs	.+18     	; 0x144a <CheckInput+0x52>
    1438:	f9 01       	movw	r30, r18
    143a:	ea 5a       	subi	r30, 0xAA	; 170
    143c:	f6 4c       	sbci	r31, 0xC6	; 198
    143e:	20 81       	ld	r18, Z
    1440:	fc 01       	movw	r30, r24
    1442:	e4 0f       	add	r30, r20
    1444:	f1 1d       	adc	r31, r1
    1446:	20 83       	st	Z, r18
    1448:	09 c0       	rjmp	.+18     	; 0x145c <CheckInput+0x64>
    144a:	f9 01       	movw	r30, r18
    144c:	ea 5a       	subi	r30, 0xAA	; 170
    144e:	f6 4c       	sbci	r31, 0xC6	; 198
    1450:	20 81       	ld	r18, Z
    1452:	fc 01       	movw	r30, r24
    1454:	e4 0f       	add	r30, r20
    1456:	f1 1d       	adc	r31, r1
    1458:	20 62       	ori	r18, 0x20	; 32
    145a:	20 83       	st	Z, r18

//User input check (and validation)
uint8_t CheckInput(uint8_t *data){
    if (serRxDone){
        //Read up to the \0 character and convert to lower case.
        for (uint8_t x=0; serRx[x]!=0; ++x){
    145c:	4f 5f       	subi	r20, 0xFF	; 255
    145e:	24 2f       	mov	r18, r20
    1460:	30 e0       	ldi	r19, 0x00	; 0
    1462:	f9 01       	movw	r30, r18
    1464:	ea 5a       	subi	r30, 0xAA	; 170
    1466:	f6 4c       	sbci	r31, 0xC6	; 198
    1468:	50 81       	ld	r21, Z
    146a:	51 11       	cpse	r21, r1
    146c:	d9 cf       	rjmp	.-78     	; 0x1420 <CheckInput+0x28>
            if ((serRx[x]<'A')||(serRx[x]>'Z')) data[x]=serRx[x]; else data[x]=serRx[x]|0x20;
        }

        //Help text
        if ((data[0] == '?')||(data[0] == 'h')){
    146e:	fc 01       	movw	r30, r24
    1470:	20 81       	ld	r18, Z
    1472:	2f 33       	cpi	r18, 0x3F	; 63
    1474:	11 f0       	breq	.+4      	; 0x147a <CheckInput+0x82>
    1476:	28 36       	cpi	r18, 0x68	; 104
    1478:	61 f4       	brne	.+24     	; 0x1492 <CheckInput+0x9a>
            //Put help pointers/lengths in tx list
            PrepareSending(A_HELP, L_HELP, TEASER, PROMPT);
    147a:	21 e0       	ldi	r18, 0x01	; 1
    147c:	41 e0       	ldi	r20, 0x01	; 1
    147e:	65 ea       	ldi	r22, 0xA5	; 165
    1480:	73 e0       	ldi	r23, 0x03	; 3
    1482:	8b e5       	ldi	r24, 0x5B	; 91
    1484:	9c e7       	ldi	r25, 0x7C	; 124
    1486:	0c dd       	rcall	.-1512   	; 0xea0 <PrepareSending>
            RXCNT = 0;
    1488:	1d ba       	out	0x1d, r1	; 29
            serRxDone = 0;
    148a:	10 92 1c 38 	sts	0x381C, r1	; 0x80381c <serRxDone>
            return 1;
    148e:	81 e0       	ldi	r24, 0x01	; 1
    1490:	2f c0       	rjmp	.+94     	; 0x14f0 <CheckInput+0xf8>
        }

        //Quit text
        if (data[0] == 'q'){
    1492:	21 37       	cpi	r18, 0x71	; 113
    1494:	61 f4       	brne	.+24     	; 0x14ae <CheckInput+0xb6>
            //Put quit pointers/lengths in tx list
            PrepareSending(A_QUIT, L_QUIT, TEASER, PROMPT);
    1496:	21 e0       	ldi	r18, 0x01	; 1
    1498:	41 e0       	ldi	r20, 0x01	; 1
    149a:	64 e5       	ldi	r22, 0x54	; 84
    149c:	70 e0       	ldi	r23, 0x00	; 0
    149e:	89 ef       	ldi	r24, 0xF9	; 249
    14a0:	9b e7       	ldi	r25, 0x7B	; 123
    14a2:	fe dc       	rcall	.-1540   	; 0xea0 <PrepareSending>
            RXCNT = 0;
    14a4:	1d ba       	out	0x1d, r1	; 29
            serRxDone = 0;
    14a6:	10 92 1c 38 	sts	0x381C, r1	; 0x80381c <serRxDone>
            return 1;
    14aa:	81 e0       	ldi	r24, 0x01	; 1
    14ac:	21 c0       	rjmp	.+66     	; 0x14f0 <CheckInput+0xf8>
        }

        //Cheat = reset badge!
        if (StartsWith(&data[0], "iddqd")){
    14ae:	68 e2       	ldi	r22, 0x28	; 40
    14b0:	78 e9       	ldi	r23, 0x98	; 152
    14b2:	e5 dc       	rcall	.-1590   	; 0xe7e <StartsWith>
    14b4:	88 23       	and	r24, r24
    14b6:	e1 f0       	breq	.+56     	; 0x14f0 <CheckInput+0xf8>
    14b8:	1e e6       	ldi	r17, 0x6E	; 110
            
            //Reset game data by wiping the UUID bits
            for (uint8_t x=0; x<4; ++x){
                WriteStatusBit(110+x, 0);
    14ba:	60 e0       	ldi	r22, 0x00	; 0
    14bc:	81 2f       	mov	r24, r17
    14be:	e2 db       	rcall	.-2108   	; 0xc84 <WriteStatusBit>
    14c0:	1f 5f       	subi	r17, 0xFF	; 255

        //Cheat = reset badge!
        if (StartsWith(&data[0], "iddqd")){
            
            //Reset game data by wiping the UUID bits
            for (uint8_t x=0; x<4; ++x){
    14c2:	12 37       	cpi	r17, 0x72	; 114
    14c4:	d1 f7       	brne	.-12     	; 0x14ba <CheckInput+0xc2>
                WriteStatusBit(110+x, 0);
            }
            SaveGameState();
    14c6:	91 db       	rcall	.-2270   	; 0xbea <SaveGameState>
    14c8:	8a e0       	ldi	r24, 0x0A	; 10

            uint8_t cheat[] = "Cheater! ";
    14ca:	ee e2       	ldi	r30, 0x2E	; 46
    14cc:	f8 e9       	ldi	r31, 0x98	; 152
    14ce:	de 01       	movw	r26, r28
    14d0:	11 96       	adiw	r26, 0x01	; 1
    14d2:	01 90       	ld	r0, Z+
    14d4:	0d 92       	st	X+, r0
    14d6:	8a 95       	dec	r24
    14d8:	e1 f7       	brne	.-8      	; 0x14d2 <CheckInput+0xda>
            SerSpeed(60);
    14da:	8c e3       	ldi	r24, 0x3C	; 60
    14dc:	95 da       	rcall	.-2774   	; 0xa08 <SerSpeed>
    14de:	80 91 04 38 	lds	r24, 0x3804	; 0x803804 <serTxDone>
            while(1){
                if (serTxDone) SerSend(&cheat[0]);
    14e2:	88 23       	and	r24, r24
    14e4:	e1 f3       	breq	.-8      	; 0x14de <CheckInput+0xe6>
    14e6:	ce 01       	movw	r24, r28
    14e8:	01 96       	adiw	r24, 0x01	; 1
    14ea:	7c da       	rcall	.-2824   	; 0x9e4 <SerSend>
    14ec:	f8 cf       	rjmp	.-16     	; 0x14de <CheckInput+0xe6>
    14ee:	81 e0       	ldi	r24, 0x01	; 1
        //Data received, but not any of the commands above
        return 0;
    }

    //Serial input not available yet
    return 1;
    14f0:	2a 96       	adiw	r28, 0x0a	; 10
}
    14f2:	cd bf       	out	0x3d, r28	; 61
    14f4:	de bf       	out	0x3e, r29	; 62
    14f6:	df 91       	pop	r29
    14f8:	cf 91       	pop	r28
    14fa:	1f 91       	pop	r17
    14fc:	08 95       	ret

000014fe <ProcessInput>:
    14fe:	0f 93       	push	r16

//The game logic!
void ProcessInput(uint8_t *data){
    1500:	1f 93       	push	r17
    1502:	cf 93       	push	r28
    1504:	df 93       	push	r29
    1506:	8c 01       	movw	r16, r24
    
    static uint16_t reactStr[3][8] = {{0},{0},{0}};
    static uint8_t actionList = 0;
    static uint8_t toSend = 0;

    if (currDepth == 0) PopulateObject(route[currDepth], &currObj);
    1508:	80 91 27 39 	lds	r24, 0x3927	; 0x803927 <currDepth.3931>
    150c:	81 11       	cpse	r24, r1
    150e:	07 c0       	rjmp	.+14     	; 0x151e <ProcessInput+0x20>
    1510:	6f eb       	ldi	r22, 0xBF	; 191
    1512:	78 e3       	ldi	r23, 0x38	; 56
    1514:	80 91 e7 38 	lds	r24, 0x38E7	; 0x8038e7 <route.3930>
    1518:	90 91 e8 38 	lds	r25, 0x38E8	; 0x8038e8 <route.3930+0x1>
    151c:	17 dd       	rcall	.-1490   	; 0xf4c <PopulateObject>
    effect = currObj.byteField[EFFECTS];
    151e:	80 91 c3 38 	lds	r24, 0x38C3	; 0x8038c3 <currObj.3927+0x4>
    1522:	90 e0       	ldi	r25, 0x00	; 0
    1524:	80 93 16 38 	sts	0x3816, r24	; 0x803816 <__data_end>
    1528:	90 93 17 38 	sts	0x3817, r25	; 0x803817 <__data_end+0x1>
    CleanInput(&data[0]);
    152c:	c8 01       	movw	r24, r16
    152e:	c8 de       	rcall	.-624    	; 0x12c0 <CleanInput>
    
    //Responses to send after something has tried by the user
    if (actionList){
    1530:	c0 91 be 38 	lds	r28, 0x38BE	; 0x8038be <actionList.3933>
    1534:	cc 23       	and	r28, r28
    1536:	31 f1       	breq	.+76     	; 0x1584 <ProcessInput+0x86>
        PrepareSending(reactStr[0][toSend], reactStr[1][toSend], GAME, reactStr[2][toSend]);
    1538:	10 91 bd 38 	lds	r17, 0x38BD	; 0x8038bd <toSend.3934>
    153c:	81 2f       	mov	r24, r17
    153e:	90 e0       	ldi	r25, 0x00	; 0
    1540:	dc 01       	movw	r26, r24
    1542:	aa 0f       	add	r26, r26
    1544:	bb 1f       	adc	r27, r27
    1546:	a3 55       	subi	r26, 0x53	; 83
    1548:	b7 4c       	sbci	r27, 0xC7	; 199
    154a:	fc 01       	movw	r30, r24
    154c:	ee 0f       	add	r30, r30
    154e:	ff 1f       	adc	r31, r31
    1550:	e3 56       	subi	r30, 0x63	; 99
    1552:	f7 4c       	sbci	r31, 0xC7	; 199
    1554:	60 81       	ld	r22, Z
    1556:	71 81       	ldd	r23, Z+1	; 0x01
    1558:	88 0f       	add	r24, r24
    155a:	99 1f       	adc	r25, r25
    155c:	fc 01       	movw	r30, r24
    155e:	e3 57       	subi	r30, 0x73	; 115
    1560:	f7 4c       	sbci	r31, 0xC7	; 199
    1562:	2c 91       	ld	r18, X
    1564:	40 e0       	ldi	r20, 0x00	; 0
    1566:	80 81       	ld	r24, Z
    1568:	91 81       	ldd	r25, Z+1	; 0x01
    156a:	9a dc       	rcall	.-1740   	; 0xea0 <PrepareSending>
        ++toSend;
    156c:	1f 5f       	subi	r17, 0xFF	; 255
    156e:	10 93 bd 38 	sts	0x38BD, r17	; 0x8038bd <toSend.3934>
        --actionList;
    1572:	c1 50       	subi	r28, 0x01	; 1
    1574:	c0 93 be 38 	sts	0x38BE, r28	; 0x8038be <actionList.3933>
        if (actionList == 0) {
    1578:	c1 11       	cpse	r28, r1
    157a:	b8 c0       	rjmp	.+368    	; 0x16ec <ProcessInput+0x1ee>
            RXCNT = 0;
    157c:	1d ba       	out	0x1d, r1	; 29
            serRxDone = 0;
    157e:	10 92 1c 38 	sts	0x381C, r1	; 0x80381c <serRxDone>
        }

    //No responses yet and data available? Figure out what to say!
    } else {

        uint8_t inputLen = CleanInput(&data[0]);
    1582:	b4 c0       	rjmp	.+360    	; 0x16ec <ProcessInput+0x1ee>
    1584:	c8 01       	movw	r24, r16
    1586:	9c de       	rcall	.-712    	; 0x12c0 <CleanInput>
        if (inputLen) {
    1588:	88 23       	and	r24, r24
    158a:	09 f4       	brne	.+2      	; 0x158e <ProcessInput+0x90>
    158c:	af c0       	rjmp	.+350    	; 0x16ec <ProcessInput+0x1ee>

            toSend = 0;
    158e:	10 92 bd 38 	sts	0x38BD, r1	; 0x8038bd <toSend.3934>
            reactStr[1][0]=0;
    1592:	ed e8       	ldi	r30, 0x8D	; 141
    1594:	f8 e3       	ldi	r31, 0x38	; 56
    1596:	10 8a       	std	Z+16, r1	; 0x10
    1598:	11 8a       	std	Z+17, r1	; 0x11
            reactStr[2][0]=CR_1;
    159a:	23 e0       	ldi	r18, 0x03	; 3
    159c:	30 e0       	ldi	r19, 0x00	; 0
    159e:	20 a3       	std	Z+32, r18	; 0x20
    15a0:	31 a3       	std	Z+33, r19	; 0x21
            actionList = 1;
    15a2:	91 e0       	ldi	r25, 0x01	; 1
    15a4:	90 93 be 38 	sts	0x38BE, r25	; 0x8038be <actionList.3933>

            if (data[0] == 'x'){
    15a8:	d8 01       	movw	r26, r16
    15aa:	9c 91       	ld	r25, X
    15ac:	98 37       	cpi	r25, 0x78	; 120
    15ae:	09 f0       	breq	.+2      	; 0x15b2 <ProcessInput+0xb4>
    15b0:	5a c0       	rjmp	.+180    	; 0x1666 <ProcessInput+0x168>

                //Standing outside?
                if ((route[currDepth] == 0)||(currDepth == 0)){
    15b2:	80 91 27 39 	lds	r24, 0x3927	; 0x803927 <currDepth.3931>
    15b6:	e8 2f       	mov	r30, r24
    15b8:	f0 e0       	ldi	r31, 0x00	; 0
    15ba:	ee 0f       	add	r30, r30
    15bc:	ff 1f       	adc	r31, r31
    15be:	e9 51       	subi	r30, 0x19	; 25
    15c0:	f7 4c       	sbci	r31, 0xC7	; 199
    15c2:	20 81       	ld	r18, Z
    15c4:	31 81       	ldd	r19, Z+1	; 0x01
    15c6:	23 2b       	or	r18, r19
    15c8:	11 f0       	breq	.+4      	; 0x15ce <ProcessInput+0xd0>
    15ca:	81 11       	cpse	r24, r1
    15cc:	08 c0       	rjmp	.+16     	; 0x15de <ProcessInput+0xe0>
                    PrepareSending(A_NOTPOSSIBLE, L_NOTPOSSIBLE, TEASER, PROMPT);
    15ce:	21 e0       	ldi	r18, 0x01	; 1
    15d0:	41 e0       	ldi	r20, 0x01	; 1
    15d2:	6b e1       	ldi	r22, 0x1B	; 27
    15d4:	70 e0       	ldi	r23, 0x00	; 0
    15d6:	86 ea       	ldi	r24, 0xA6	; 166
    15d8:	98 e7       	ldi	r25, 0x78	; 120
    15da:	62 dc       	rcall	.-1852   	; 0xea0 <PrepareSending>
            
                //Is there a way to go back?
                } else if (CheckState(currObj.byteField[OPEN_ACL])){
    15dc:	87 c0       	rjmp	.+270    	; 0x16ec <ProcessInput+0x1ee>
    15de:	80 91 c5 38 	lds	r24, 0x38C5	; 0x8038c5 <currObj.3927+0x6>
    15e2:	80 dd       	rcall	.-1280   	; 0x10e4 <CheckState>
    15e4:	88 23       	and	r24, r24
    15e6:	39 f1       	breq	.+78     	; 0x1636 <ProcessInput+0x138>
                    --currDepth;
    15e8:	e0 91 27 39 	lds	r30, 0x3927	; 0x803927 <currDepth.3931>
    15ec:	e1 50       	subi	r30, 0x01	; 1
    15ee:	e0 93 27 39 	sts	0x3927, r30	; 0x803927 <currDepth.3931>
                    PopulateObject(route[currDepth], &currObj);
    15f2:	f0 e0       	ldi	r31, 0x00	; 0
    15f4:	ee 0f       	add	r30, r30
    15f6:	ff 1f       	adc	r31, r31
    15f8:	e9 51       	subi	r30, 0x19	; 25
    15fa:	f7 4c       	sbci	r31, 0xC7	; 199
    15fc:	6f eb       	ldi	r22, 0xBF	; 191
    15fe:	78 e3       	ldi	r23, 0x38	; 56
    1600:	80 81       	ld	r24, Z
    1602:	91 81       	ldd	r25, Z+1	; 0x01
    1604:	a3 dc       	rcall	.-1722   	; 0xf4c <PopulateObject>
                    reactStr[0][1]=currObj.addrStr[NAME];
    1606:	ed e8       	ldi	r30, 0x8D	; 141
    1608:	f8 e3       	ldi	r31, 0x38	; 56
    160a:	af eb       	ldi	r26, 0xBF	; 191
    160c:	b8 e3       	ldi	r27, 0x38	; 56
    160e:	1c 96       	adiw	r26, 0x0c	; 12
    1610:	8d 91       	ld	r24, X+
    1612:	9c 91       	ld	r25, X
    1614:	1d 97       	sbiw	r26, 0x0d	; 13
    1616:	82 83       	std	Z+2, r24	; 0x02
    1618:	93 83       	std	Z+3, r25	; 0x03
                    reactStr[1][1]=currObj.lenStr[NAME];
    161a:	5a 96       	adiw	r26, 0x1a	; 26
    161c:	8d 91       	ld	r24, X+
    161e:	9c 91       	ld	r25, X
    1620:	5b 97       	sbiw	r26, 0x1b	; 27
    1622:	82 8b       	std	Z+18, r24	; 0x12
    1624:	93 8b       	std	Z+19, r25	; 0x13
                    reactStr[2][1]=PROMPT;             
    1626:	81 e0       	ldi	r24, 0x01	; 1
    1628:	90 e0       	ldi	r25, 0x00	; 0
    162a:	82 a3       	std	Z+34, r24	; 0x22
    162c:	93 a3       	std	Z+35, r25	; 0x23
                    actionList = 2;
    162e:	82 e0       	ldi	r24, 0x02	; 2
    1630:	80 93 be 38 	sts	0x38BE, r24	; 0x8038be <actionList.3933>
    1634:	5b c0       	rjmp	.+182    	; 0x16ec <ProcessInput+0x1ee>
            
                //No way out, print denied message of location
                } else {
                    reactStr[0][1]=currObj.addrStr[OPEN_ACL_MSG];
    1636:	ed e8       	ldi	r30, 0x8D	; 141
    1638:	f8 e3       	ldi	r31, 0x38	; 56
    163a:	af eb       	ldi	r26, 0xBF	; 191
    163c:	b8 e3       	ldi	r27, 0x38	; 56
    163e:	54 96       	adiw	r26, 0x14	; 20
    1640:	8d 91       	ld	r24, X+
    1642:	9c 91       	ld	r25, X
    1644:	55 97       	sbiw	r26, 0x15	; 21
    1646:	82 83       	std	Z+2, r24	; 0x02
    1648:	93 83       	std	Z+3, r25	; 0x03
                    reactStr[1][1]=currObj.lenStr[OPEN_ACL_MSG];
    164a:	92 96       	adiw	r26, 0x22	; 34
    164c:	8d 91       	ld	r24, X+
    164e:	9c 91       	ld	r25, X
    1650:	93 97       	sbiw	r26, 0x23	; 35
    1652:	82 8b       	std	Z+18, r24	; 0x12
    1654:	93 8b       	std	Z+19, r25	; 0x13
                    reactStr[2][1]=PROMPT;                
    1656:	81 e0       	ldi	r24, 0x01	; 1
    1658:	90 e0       	ldi	r25, 0x00	; 0
    165a:	82 a3       	std	Z+34, r24	; 0x22
    165c:	93 a3       	std	Z+35, r25	; 0x23
                    actionList = 2;
    165e:	82 e0       	ldi	r24, 0x02	; 2
    1660:	80 93 be 38 	sts	0x38BE, r24	; 0x8038be <actionList.3933>
    1664:	43 c0       	rjmp	.+134    	; 0x16ec <ProcessInput+0x1ee>
                }
            } 
        
            else if ((data[0] == 'e')||(data[0] == 'o')){
    1666:	95 36       	cpi	r25, 0x65	; 101
    1668:	19 f0       	breq	.+6      	; 0x1670 <ProcessInput+0x172>
    166a:	9f 36       	cpi	r25, 0x6F	; 111
    166c:	09 f0       	breq	.+2      	; 0x1670 <ProcessInput+0x172>
    166e:	3e c0       	rjmp	.+124    	; 0x16ec <ProcessInput+0x1ee>
                
                //Not possible, too many/little characters
                if (inputLen != 2){
    1670:	82 30       	cpi	r24, 0x02	; 2
                    PrepareSending(A_NOTPOSSIBLE, L_NOTPOSSIBLE, TEASER, PROMPT);
    1672:	41 f0       	breq	.+16     	; 0x1684 <ProcessInput+0x186>
    1674:	21 e0       	ldi	r18, 0x01	; 1
    1676:	41 e0       	ldi	r20, 0x01	; 1
    1678:	6b e1       	ldi	r22, 0x1B	; 27
    167a:	70 e0       	ldi	r23, 0x00	; 0
    167c:	86 ea       	ldi	r24, 0xA6	; 166
    167e:	98 e7       	ldi	r25, 0x78	; 120
    1680:	0f dc       	rcall	.-2018   	; 0xea0 <PrepareSending>
    1682:	34 c0       	rjmp	.+104    	; 0x16ec <ProcessInput+0x1ee>
                } else {
                    uint8_t canDo = 0;
                    route[currDepth+1] = FindChild(route[currDepth], data[1]);
    1684:	c0 91 27 39 	lds	r28, 0x3927	; 0x803927 <currDepth.3931>
    1688:	d0 e0       	ldi	r29, 0x00	; 0
    168a:	fe 01       	movw	r30, r28
    168c:	ee 0f       	add	r30, r30
    168e:	ff 1f       	adc	r31, r31
    1690:	e9 51       	subi	r30, 0x19	; 25
    1692:	f7 4c       	sbci	r31, 0xC7	; 199
    1694:	d8 01       	movw	r26, r16
    1696:	11 96       	adiw	r26, 0x01	; 1
    1698:	6c 91       	ld	r22, X
    169a:	80 81       	ld	r24, Z
    169c:	91 81       	ldd	r25, Z+1	; 0x01
    169e:	8e dd       	rcall	.-1252   	; 0x11bc <FindChild>
    16a0:	cc 0f       	add	r28, r28
    16a2:	dd 1f       	adc	r29, r29
    16a4:	c7 51       	subi	r28, 0x17	; 23
    16a6:	d7 4c       	sbci	r29, 0xC7	; 199
    16a8:	88 83       	st	Y, r24
    16aa:	99 83       	std	Y+1, r25	; 0x01
                    
                    //Child found?
                    if (route[currDepth+1]) {
    16ac:	90 91 27 39 	lds	r25, 0x3927	; 0x803927 <currDepth.3931>
    16b0:	e9 2f       	mov	r30, r25
    16b2:	f0 e0       	ldi	r31, 0x00	; 0
    16b4:	ee 0f       	add	r30, r30
    16b6:	ff 1f       	adc	r31, r31
    16b8:	e7 51       	subi	r30, 0x17	; 23
    16ba:	f7 4c       	sbci	r31, 0xC7	; 199
    16bc:	20 81       	ld	r18, Z
    16be:	31 81       	ldd	r19, Z+1	; 0x01
    16c0:	21 15       	cp	r18, r1
    16c2:	31 05       	cpc	r19, r1
                        PopulateObject(route[currDepth+1], &actObj1);
    16c4:	29 f0       	breq	.+10     	; 0x16d0 <ProcessInput+0x1d2>
    16c6:	65 e6       	ldi	r22, 0x65	; 101
    16c8:	78 e3       	ldi	r23, 0x38	; 56
    16ca:	c9 01       	movw	r24, r18
    16cc:	3f dc       	rcall	.-1922   	; 0xf4c <PopulateObject>

                    //Maybe a step back, letter ok?
                    } else if (currDepth) {
    16ce:	0e c0       	rjmp	.+28     	; 0x16ec <ProcessInput+0x1ee>
    16d0:	99 23       	and	r25, r25
                        PopulateObject(route[currDepth+1], &actObj1);
    16d2:	61 f0       	breq	.+24     	; 0x16ec <ProcessInput+0x1ee>
    16d4:	65 e6       	ldi	r22, 0x65	; 101
    16d6:	78 e3       	ldi	r23, 0x38	; 56
    16d8:	80 e0       	ldi	r24, 0x00	; 0
    16da:	90 e0       	ldi	r25, 0x00	; 0
                        if (CheckLetter(actObj1.addrStr[NAME], data[1])) {
    16dc:	37 dc       	rcall	.-1938   	; 0xf4c <PopulateObject>
    16de:	f8 01       	movw	r30, r16
    16e0:	61 81       	ldd	r22, Z+1	; 0x01
    16e2:	80 91 71 38 	lds	r24, 0x3871	; 0x803871 <actObj1.3928+0xc>
    16e6:	90 91 72 38 	lds	r25, 0x3872	; 0x803872 <actObj1.3928+0xd>
    16ea:	0e dd       	rcall	.-1508   	; 0x1108 <CheckLetter>
                //No clue, no valid input...
                
            }
        }
    }
}
    16ec:	df 91       	pop	r29
    16ee:	cf 91       	pop	r28
    16f0:	1f 91       	pop	r17
    16f2:	0f 91       	pop	r16
    16f4:	08 95       	ret

000016f6 <TextAdventure>:


// Main game loop
uint8_t TextAdventure(){
    16f6:	cf 93       	push	r28
    static uint8_t serInput[RXLEN];
    if (CheckSend()) return 1;                      //Still sending data to serial, return 1
    16f8:	09 de       	rcall	.-1006   	; 0x130c <CheckSend>
    16fa:	81 11       	cpse	r24, r1
    16fc:	0b c0       	rjmp	.+22     	; 0x1714 <TextAdventure+0x1e>
    if (CheckInput(&serInput[0])) return 2;         //No valid input to process, return 2
    16fe:	8d e1       	ldi	r24, 0x1D	; 29
    1700:	98 e3       	ldi	r25, 0x38	; 56
    1702:	7a de       	rcall	.-780    	; 0x13f8 <CheckInput>
    1704:	c8 2f       	mov	r28, r24
    1706:	81 11       	cpse	r24, r1
    1708:	07 c0       	rjmp	.+14     	; 0x1718 <TextAdventure+0x22>
    ProcessInput(&serInput[0]);                     //Check which response to generate and fill tx arrays
    170a:	8d e1       	ldi	r24, 0x1D	; 29
    170c:	98 e3       	ldi	r25, 0x38	; 56
    SaveGameState();                                //Check if things are changed, write to EEPROM
    170e:	f7 de       	rcall	.-530    	; 0x14fe <ProcessInput>
    1710:	6c da       	rcall	.-2856   	; 0xbea <SaveGameState>
    return 0;
    1712:	03 c0       	rjmp	.+6      	; 0x171a <TextAdventure+0x24>


// Main game loop
uint8_t TextAdventure(){
    static uint8_t serInput[RXLEN];
    if (CheckSend()) return 1;                      //Still sending data to serial, return 1
    1714:	c1 e0       	ldi	r28, 0x01	; 1
    1716:	01 c0       	rjmp	.+2      	; 0x171a <TextAdventure+0x24>
    if (CheckInput(&serInput[0])) return 2;         //No valid input to process, return 2
    1718:	c2 e0       	ldi	r28, 0x02	; 2
    ProcessInput(&serInput[0]);                     //Check which response to generate and fill tx arrays
    SaveGameState();                                //Check if things are changed, write to EEPROM
    return 0;
    171a:	8c 2f       	mov	r24, r28
    171c:	cf 91       	pop	r28
    171e:	08 95       	ret

00001720 <main>:



//This is where it begins, inits first and main program in while(1) loop.
int main(void)
{
    1720:	cf 93       	push	r28
    1722:	df 93       	push	r29
    1724:	cd b7       	in	r28, 0x3d	; 61
    1726:	de b7       	in	r29, 0x3e	; 62
    1728:	a4 97       	sbiw	r28, 0x24	; 36
    172a:	cd bf       	out	0x3d, r28	; 61
    172c:	de bf       	out	0x3e, r29	; 62
    Setup();
    172e:	0e 94 aa 01 	call	0x354	; 0x354 <Setup>
    EERead(0, &gameState[0], 16);   //Load game status bits from EEPROM
    1732:	40 e1       	ldi	r20, 0x10	; 16
    1734:	66 e4       	ldi	r22, 0x46	; 70
    1736:	79 e3       	ldi	r23, 0x39	; 57
    1738:	80 e0       	ldi	r24, 0x00	; 0
    173a:	f8 d8       	rcall	.-3600   	; 0x92c <EERead>
    173c:	1e e6       	ldi	r17, 0x6E	; 110

    uint8_t idSet = 0;
    173e:	00 e0       	ldi	r16, 0x00	; 0
    for (uint8_t x=0; x<4; ++x){
        idSet += ReadStatusBit(110+x);
    1740:	81 2f       	mov	r24, r17
    1742:	8c da       	rcall	.-2792   	; 0xc5c <ReadStatusBit>
    1744:	08 0f       	add	r16, r24
    1746:	1f 5f       	subi	r17, 0xFF	; 255
{
    Setup();
    EERead(0, &gameState[0], 16);   //Load game status bits from EEPROM

    uint8_t idSet = 0;
    for (uint8_t x=0; x<4; ++x){
    1748:	12 37       	cpi	r17, 0x72	; 114
    174a:	d1 f7       	brne	.-12     	; 0x1740 <main+0x20>
        idSet += ReadStatusBit(110+x);
    }

    //idSet can be used to detect cheating. After cheating idSet will be 0, with a virgin badge idSet will be 3.
    if (idSet != 1) {
    174c:	01 30       	cpi	r16, 0x01	; 1
        Reset();
    174e:	09 f0       	breq	.+2      	; 0x1752 <main+0x32>
    }

    SerSpeed(1);
    1750:	c6 da       	rcall	.-2676   	; 0xcde <Reset>
    1752:	81 e0       	ldi	r24, 0x01	; 1
    1754:	59 d9       	rcall	.-3406   	; 0xa08 <SerSpeed>
    unsigned char strTest[]="\aHckerHotel2020 badge pest!\b\b\b\b\bt\n";
    1756:	84 e2       	ldi	r24, 0x24	; 36
    1758:	e8 e4       	ldi	r30, 0x48	; 72
    175a:	f8 e9       	ldi	r31, 0x98	; 152
    175c:	de 01       	movw	r26, r28
    175e:	11 96       	adiw	r26, 0x01	; 1
    1760:	01 90       	ld	r0, Z+
    1762:	0d 92       	st	X+, r0
    1764:	8a 95       	dec	r24
    SerSend(&strTest[0]);
    1766:	e1 f7       	brne	.-8      	; 0x1760 <main+0x40>
    1768:	ce 01       	movw	r24, r28
    176a:	01 96       	adiw	r24, 0x01	; 1

    //uint8_t bla = 0;
    SerSpeed(255);
    176c:	3b d9       	rcall	.-3466   	; 0x9e4 <SerSend>
    176e:	8f ef       	ldi	r24, 0xFF	; 255
    1770:	4b d9       	rcall	.-3434   	; 0xa08 <SerSpeed>

    //Turn on LEDs on low setting to check for interrupt glitches
    for (uint8_t n=0; n<40; n++){
    1772:	80 e0       	ldi	r24, 0x00	; 0
        if ((n%8)>5) n+=2;
        if (n<40) iLED[n] = 2;
    1774:	22 e0       	ldi	r18, 0x02	; 2
    1776:	07 c0       	rjmp	.+14     	; 0x1786 <main+0x66>
    //uint8_t bla = 0;
    SerSpeed(255);

    //Turn on LEDs on low setting to check for interrupt glitches
    for (uint8_t n=0; n<40; n++){
        if ((n%8)>5) n+=2;
    1778:	39 2f       	mov	r19, r25
    177a:	37 70       	andi	r19, 0x07	; 7
    177c:	36 30       	cpi	r19, 0x06	; 6
    177e:	10 f0       	brcs	.+4      	; 0x1784 <main+0x64>
    1780:	93 e0       	ldi	r25, 0x03	; 3
    1782:	98 0f       	add	r25, r24
int main(void)
{
    Setup();
    EERead(0, &gameState[0], 16);   //Load game status bits from EEPROM

    uint8_t idSet = 0;
    1784:	89 2f       	mov	r24, r25
    SerSpeed(255);

    //Turn on LEDs on low setting to check for interrupt glitches
    for (uint8_t n=0; n<40; n++){
        if ((n%8)>5) n+=2;
        if (n<40) iLED[n] = 2;
    1786:	88 32       	cpi	r24, 0x28	; 40
    1788:	28 f4       	brcc	.+10     	; 0x1794 <main+0x74>
    178a:	e8 2f       	mov	r30, r24
    178c:	f0 e0       	ldi	r31, 0x00	; 0
    178e:	e8 53       	subi	r30, 0x38	; 56
    1790:	f6 4c       	sbci	r31, 0xC6	; 198

    //uint8_t bla = 0;
    SerSpeed(255);

    //Turn on LEDs on low setting to check for interrupt glitches
    for (uint8_t n=0; n<40; n++){
    1792:	20 83       	st	Z, r18
    1794:	91 e0       	ldi	r25, 0x01	; 1
    1796:	98 0f       	add	r25, r24
    1798:	98 32       	cpi	r25, 0x28	; 40



    while (1)
    {
        GenerateAudio();
    179a:	70 f3       	brcs	.-36     	; 0x1778 <main+0x58>

        if (buttonMark){
    179c:	d1 da       	rcall	.-2654   	; 0xd40 <GenerateAudio>
    179e:	80 91 1a 38 	lds	r24, 0x381A	; 0x80381a <buttonMark>
    17a2:	88 23       	and	r24, r24
            buttonState = CheckButtons(buttonState);
    17a4:	d9 f3       	breq	.-10     	; 0x179c <main+0x7c>
    17a6:	80 91 44 39 	lds	r24, 0x3944	; 0x803944 <buttonState>
    17aa:	3f d9       	rcall	.-3458   	; 0xa2a <CheckButtons>
    17ac:	80 93 44 39 	sts	0x3944, r24	; 0x803944 <buttonState>
            buttonMark = 0;
    17b0:	10 92 1a 38 	sts	0x381A, r1	; 0x80381a <buttonMark>
            //MasterMind-ishThing(); //Not sure if to be implemented
            //LanyardCode();
            //MakeFriends();
             
            //Check light sensor status (added hysteresis to preserve writing cycles to internal EEPROM)
            if (adcPhot < 10) WriteStatusBit(116, 1);
    17b4:	a0 df       	rcall	.-192    	; 0x16f6 <TextAdventure>
    17b6:	80 91 a5 39 	lds	r24, 0x39A5	; 0x8039a5 <adcPhot>
    17ba:	90 91 a6 39 	lds	r25, 0x39A6	; 0x8039a6 <adcPhot+0x1>
    17be:	0a 97       	sbiw	r24, 0x0a	; 10
    17c0:	18 f4       	brcc	.+6      	; 0x17c8 <main+0xa8>
    17c2:	61 e0       	ldi	r22, 0x01	; 1
    17c4:	84 e7       	ldi	r24, 0x74	; 116
            if (adcPhot > 100) WriteStatusBit(116, 0);
    17c6:	5e da       	rcall	.-2884   	; 0xc84 <WriteStatusBit>
    17c8:	80 91 a5 39 	lds	r24, 0x39A5	; 0x8039a5 <adcPhot>
    17cc:	90 91 a6 39 	lds	r25, 0x39A6	; 0x8039a6 <adcPhot+0x1>
    17d0:	85 36       	cpi	r24, 0x65	; 101
    17d2:	91 05       	cpc	r25, r1
    17d4:	18 f3       	brcs	.-58     	; 0x179c <main+0x7c>
    17d6:	60 e0       	ldi	r22, 0x00	; 0
    17d8:	84 e7       	ldi	r24, 0x74	; 116
    17da:	54 da       	rcall	.-2904   	; 0xc84 <WriteStatusBit>
    17dc:	df cf       	rjmp	.-66     	; 0x179c <main+0x7c>

000017de <__udivmodhi4>:
    17de:	aa 1b       	sub	r26, r26
    17e0:	bb 1b       	sub	r27, r27
    17e2:	51 e1       	ldi	r21, 0x11	; 17
    17e4:	07 c0       	rjmp	.+14     	; 0x17f4 <__udivmodhi4_ep>

000017e6 <__udivmodhi4_loop>:
    17e6:	aa 1f       	adc	r26, r26
    17e8:	bb 1f       	adc	r27, r27
    17ea:	a6 17       	cp	r26, r22
    17ec:	b7 07       	cpc	r27, r23
    17ee:	10 f0       	brcs	.+4      	; 0x17f4 <__udivmodhi4_ep>
    17f0:	a6 1b       	sub	r26, r22
    17f2:	b7 0b       	sbc	r27, r23

000017f4 <__udivmodhi4_ep>:
    17f4:	88 1f       	adc	r24, r24
    17f6:	99 1f       	adc	r25, r25
    17f8:	5a 95       	dec	r21
    17fa:	a9 f7       	brne	.-22     	; 0x17e6 <__udivmodhi4_loop>
    17fc:	80 95       	com	r24
    17fe:	90 95       	com	r25
    1800:	bc 01       	movw	r22, r24
    1802:	cd 01       	movw	r24, r26
    1804:	08 95       	ret

00001806 <__umulhisi3>:
    1806:	a2 9f       	mul	r26, r18
    1808:	b0 01       	movw	r22, r0
    180a:	b3 9f       	mul	r27, r19
    180c:	c0 01       	movw	r24, r0
    180e:	a3 9f       	mul	r26, r19
    1810:	70 0d       	add	r23, r0
    1812:	81 1d       	adc	r24, r1
    1814:	11 24       	eor	r1, r1
    1816:	91 1d       	adc	r25, r1
    1818:	b2 9f       	mul	r27, r18
    181a:	70 0d       	add	r23, r0
    181c:	81 1d       	adc	r24, r1
    181e:	11 24       	eor	r1, r1
    1820:	91 1d       	adc	r25, r1
    1822:	08 95       	ret

00001824 <_exit>:
    1824:	f8 94       	cli

00001826 <__stop_program>:
    1826:	ff cf       	rjmp	.-2      	; 0x1826 <__stop_program>
