
ISR_IO.elf:     file format elf32-avr

Sections:
Idx Name          Size      VMA       LMA       File off  Algn
  0 .data         0000002e  00803800  00003f34  00003fe8  2**0
                  CONTENTS, ALLOC, LOAD, DATA
  1 .text         00003e3a  00000000  00000000  000000b4  2**1
                  CONTENTS, ALLOC, LOAD, READONLY, CODE
  2 .rodata       000000fa  0000be3a  00003e3a  00003eee  2**0
                  CONTENTS, ALLOC, LOAD, READONLY, DATA
  3 .bss          000002ec  0080382e  0080382e  00004016  2**0
                  ALLOC
  4 .comment      00000030  00000000  00000000  00004016  2**0
                  CONTENTS, READONLY
  5 .note.gnu.avr.deviceinfo 00000040  00000000  00000000  00004048  2**2
                  CONTENTS, READONLY
  6 .debug_aranges 00000328  00000000  00000000  00004088  2**0
                  CONTENTS, READONLY, DEBUGGING
  7 .debug_info   00006d83  00000000  00000000  000043b0  2**0
                  CONTENTS, READONLY, DEBUGGING
  8 .debug_abbrev 000028ce  00000000  00000000  0000b133  2**0
                  CONTENTS, READONLY, DEBUGGING
  9 .debug_line   00003ce0  00000000  00000000  0000da01  2**0
                  CONTENTS, READONLY, DEBUGGING
 10 .debug_frame  00000984  00000000  00000000  000116e4  2**2
                  CONTENTS, READONLY, DEBUGGING
 11 .debug_str    00001a6b  00000000  00000000  00012068  2**0
                  CONTENTS, READONLY, DEBUGGING
 12 .debug_loc    000044e2  00000000  00000000  00013ad3  2**0
                  CONTENTS, READONLY, DEBUGGING
 13 .debug_ranges 000003b0  00000000  00000000  00017fb5  2**0
                  CONTENTS, READONLY, DEBUGGING

Disassembly of section .text:

00000000 <__vectors>:
       0:	3d c0       	rjmp	.+122    	; 0x7c <__ctors_end>
       2:	00 00       	nop
       4:	58 c0       	rjmp	.+176    	; 0xb6 <__bad_interrupt>
       6:	00 00       	nop
       8:	56 c0       	rjmp	.+172    	; 0xb6 <__bad_interrupt>
       a:	00 00       	nop
       c:	54 c0       	rjmp	.+168    	; 0xb6 <__bad_interrupt>
       e:	00 00       	nop
      10:	52 c0       	rjmp	.+164    	; 0xb6 <__bad_interrupt>
      12:	00 00       	nop
      14:	50 c0       	rjmp	.+160    	; 0xb6 <__bad_interrupt>
      16:	00 00       	nop
      18:	0c 94 1f 08 	jmp	0x103e	; 0x103e <__vector_6>
      1c:	0c 94 76 08 	jmp	0x10ec	; 0x10ec <__vector_7>
      20:	41 c6       	rjmp	.+3202   	; 0xca4 <__vector_8>
      22:	00 00       	nop
      24:	48 c0       	rjmp	.+144    	; 0xb6 <__bad_interrupt>
      26:	00 00       	nop
      28:	46 c0       	rjmp	.+140    	; 0xb6 <__bad_interrupt>
      2a:	00 00       	nop
      2c:	44 c0       	rjmp	.+136    	; 0xb6 <__bad_interrupt>
      2e:	00 00       	nop
      30:	42 c0       	rjmp	.+132    	; 0xb6 <__bad_interrupt>
      32:	00 00       	nop
      34:	88 c6       	rjmp	.+3344   	; 0xd46 <__vector_13>
      36:	00 00       	nop
      38:	b9 c6       	rjmp	.+3442   	; 0xdac <__vector_14>
      3a:	00 00       	nop
      3c:	3c c0       	rjmp	.+120    	; 0xb6 <__bad_interrupt>
      3e:	00 00       	nop
      40:	3a c0       	rjmp	.+116    	; 0xb6 <__bad_interrupt>
      42:	00 00       	nop
      44:	38 c0       	rjmp	.+112    	; 0xb6 <__bad_interrupt>
      46:	00 00       	nop
      48:	36 c0       	rjmp	.+108    	; 0xb6 <__bad_interrupt>
      4a:	00 00       	nop
      4c:	34 c0       	rjmp	.+104    	; 0xb6 <__bad_interrupt>
      4e:	00 00       	nop
      50:	77 c7       	rjmp	.+3822   	; 0xf40 <__vector_20>
      52:	00 00       	nop
      54:	30 c0       	rjmp	.+96     	; 0xb6 <__bad_interrupt>
      56:	00 00       	nop
      58:	aa c7       	rjmp	.+3924   	; 0xfae <__vector_22>
      5a:	00 00       	nop
      5c:	2c c0       	rjmp	.+88     	; 0xb6 <__bad_interrupt>
      5e:	00 00       	nop
      60:	2a c0       	rjmp	.+84     	; 0xb6 <__bad_interrupt>
      62:	00 00       	nop
      64:	28 c0       	rjmp	.+80     	; 0xb6 <__bad_interrupt>
      66:	00 00       	nop
      68:	26 c0       	rjmp	.+76     	; 0xb6 <__bad_interrupt>
      6a:	00 00       	nop
      6c:	f2 c6       	rjmp	.+3556   	; 0xe52 <__vector_27>
      6e:	00 00       	nop
      70:	4b c7       	rjmp	.+3734   	; 0xf08 <__vector_28>
      72:	00 00       	nop
      74:	20 c0       	rjmp	.+64     	; 0xb6 <__bad_interrupt>
      76:	00 00       	nop
      78:	1e c0       	rjmp	.+60     	; 0xb6 <__bad_interrupt>
	...

0000007c <__ctors_end>:
      7c:	11 24       	eor	r1, r1
      7e:	1f be       	out	0x3f, r1	; 63
      80:	cf ef       	ldi	r28, 0xFF	; 255
      82:	cd bf       	out	0x3d, r28	; 61
      84:	df e3       	ldi	r29, 0x3F	; 63
      86:	de bf       	out	0x3e, r29	; 62

00000088 <__do_copy_data>:
      88:	18 e3       	ldi	r17, 0x38	; 56
      8a:	a0 e0       	ldi	r26, 0x00	; 0
      8c:	b8 e3       	ldi	r27, 0x38	; 56
      8e:	e4 e3       	ldi	r30, 0x34	; 52
      90:	ff e3       	ldi	r31, 0x3F	; 63
      92:	02 c0       	rjmp	.+4      	; 0x98 <__do_copy_data+0x10>
      94:	05 90       	lpm	r0, Z+
      96:	0d 92       	st	X+, r0
      98:	ae 32       	cpi	r26, 0x2E	; 46
      9a:	b1 07       	cpc	r27, r17
      9c:	d9 f7       	brne	.-10     	; 0x94 <__do_copy_data+0xc>

0000009e <__do_clear_bss>:
      9e:	2b e3       	ldi	r18, 0x3B	; 59
      a0:	ae e2       	ldi	r26, 0x2E	; 46
      a2:	b8 e3       	ldi	r27, 0x38	; 56
      a4:	01 c0       	rjmp	.+2      	; 0xa8 <.do_clear_bss_start>

000000a6 <.do_clear_bss_loop>:
      a6:	1d 92       	st	X+, r1

000000a8 <.do_clear_bss_start>:
      a8:	aa 31       	cpi	r26, 0x1A	; 26
      aa:	b2 07       	cpc	r27, r18
      ac:	e1 f7       	brne	.-8      	; 0xa6 <.do_clear_bss_loop>
      ae:	0e 94 c7 1e 	call	0x3d8e	; 0x3d8e <main>
      b2:	0c 94 1b 1f 	jmp	0x3e36	; 0x3e36 <_exit>

000000b6 <__bad_interrupt>:
      b6:	a4 cf       	rjmp	.-184    	; 0x0 <__vectors>

000000b8 <chkVolt250>:
#include <main_def.h>
#include <resources.h>
#include <I2C.h>

//Returns measured voltage * 4 (2V returns 8) if it is in the expected range (DELTA)
uint8_t chkVolt250(){
      b8:	20 91 32 38 	lds	r18, 0x3832	; 0x803832 <avgVolt.3776>
      bc:	85 e1       	ldi	r24, 0x15	; 21
      be:	90 e0       	ldi	r25, 0x00	; 0
    static uint8_t avgVolt = 0;
        
    for (uint8_t x=25; x<226; x+=25) {
        if ((auIn[0] > (x-DELTA)) && (auIn[0] < (x+DELTA))) {
      c0:	40 91 c2 3a 	lds	r20, 0x3AC2	; 0x803ac2 <auIn>
      c4:	50 e0       	ldi	r21, 0x00	; 0
      c6:	48 17       	cp	r20, r24
      c8:	59 07       	cpc	r21, r25
      ca:	74 f0       	brlt	.+28     	; 0xe8 <chkVolt250+0x30>
      cc:	40 91 c2 3a 	lds	r20, 0x3AC2	; 0x803ac2 <auIn>
      d0:	50 e0       	ldi	r21, 0x00	; 0
      d2:	bc 01       	movw	r22, r24
      d4:	68 5f       	subi	r22, 0xF8	; 248
      d6:	7f 4f       	sbci	r23, 0xFF	; 255
      d8:	64 17       	cp	r22, r20
      da:	75 07       	cpc	r23, r21
      dc:	2c f0       	brlt	.+10     	; 0xe8 <chkVolt250+0x30>
      de:	20 93 32 38 	sts	0x3832, r18	; 0x803832 <avgVolt.3776>
            break;
        }
        ++avgVolt;
    }
    return avgVolt;
      e2:	80 91 32 38 	lds	r24, 0x3832	; 0x803832 <avgVolt.3776>
      e6:	08 95       	ret
        
    for (uint8_t x=25; x<226; x+=25) {
        if ((auIn[0] > (x-DELTA)) && (auIn[0] < (x+DELTA))) {
            break;
        }
        ++avgVolt;
      e8:	2f 5f       	subi	r18, 0xFF	; 255
      ea:	49 96       	adiw	r24, 0x19	; 25

//Returns measured voltage * 4 (2V returns 8) if it is in the expected range (DELTA)
uint8_t chkVolt250(){
    static uint8_t avgVolt = 0;
        
    for (uint8_t x=25; x<226; x+=25) {
      ec:	86 3f       	cpi	r24, 0xF6	; 246
      ee:	91 05       	cpc	r25, r1
      f0:	39 f7       	brne	.-50     	; 0xc0 <chkVolt250+0x8>
      f2:	f5 cf       	rjmp	.-22     	; 0xde <chkVolt250+0x26>

000000f4 <MakeFriends>:
    }
    return avgVolt;
}

// Main game loop
uint8_t MakeFriends(){
      f4:	ef 92       	push	r14
      f6:	ff 92       	push	r15
      f8:	0f 93       	push	r16
      fa:	1f 93       	push	r17
      fc:	cf 93       	push	r28
      fe:	df 93       	push	r29
     100:	c4 e6       	ldi	r28, 0x64	; 100
    static uint8_t chkTmr = 0;
    static uint8_t jackIn = 0;
    static uint8_t candidate = 0;

    //Check if badge has found 3 friends
    uint8_t foundAll = 1;
     102:	d1 e0       	ldi	r29, 0x01	; 1
    for (uint8_t x=0; x<4; x++){
        if (CheckState(100+x) == 0) foundAll = 0;
     104:	8c 2f       	mov	r24, r28
     106:	0e 94 5b 0a 	call	0x14b6	; 0x14b6 <CheckState>
     10a:	81 11       	cpse	r24, r1
     10c:	01 c0       	rjmp	.+2      	; 0x110 <MakeFriends+0x1c>
     10e:	d0 e0       	ldi	r29, 0x00	; 0
     110:	cf 5f       	subi	r28, 0xFF	; 255
    static uint8_t jackIn = 0;
    static uint8_t candidate = 0;

    //Check if badge has found 3 friends
    uint8_t foundAll = 1;
    for (uint8_t x=0; x<4; x++){
     112:	c8 36       	cpi	r28, 0x68	; 104
     114:	b9 f7       	brne	.-18     	; 0x104 <MakeFriends+0x10>
        if (CheckState(100+x) == 0) foundAll = 0;
    }
    if (foundAll) UpdateState(124);
     116:	dd 23       	and	r29, r29
     118:	19 f0       	breq	.+6      	; 0x120 <MakeFriends+0x2c>
     11a:	8c e7       	ldi	r24, 0x7C	; 124
     11c:	0e 94 51 0a 	call	0x14a2	; 0x14a2 <UpdateState>


    //Checking for headphones
    if (detHdPh) return 0;
     120:	80 91 bf 3a 	lds	r24, 0x3ABF	; 0x803abf <detHdPh>
     124:	81 11       	cpse	r24, r1
     126:	1e c1       	rjmp	.+572    	; 0x364 <MakeFriends+0x270>

    //Audio off, set voltage level (setDAC[0]*10mV)
    if (progress == NO_OTHER) {
     128:	80 91 31 38 	lds	r24, 0x3831	; 0x803831 <progress.3783>
     12c:	81 11       	cpse	r24, r1
     12e:	11 c0       	rjmp	.+34     	; 0x152 <MakeFriends+0x5e>
        setDAC[0] = whoami * 50;
     130:	90 91 3d 38 	lds	r25, 0x383D	; 0x80383d <whoami>
     134:	22 e3       	ldi	r18, 0x32	; 50
     136:	92 9f       	mul	r25, r18
     138:	90 2d       	mov	r25, r0
     13a:	11 24       	eor	r1, r1
     13c:	90 93 00 38 	sts	0x3800, r25	; 0x803800 <__data_start>
        auRepAddr = &setDAC[0];
     140:	20 e0       	ldi	r18, 0x00	; 0
     142:	38 e3       	ldi	r19, 0x38	; 56
     144:	20 93 03 38 	sts	0x3803, r18	; 0x803803 <auRepAddr>
     148:	30 93 04 38 	sts	0x3804, r19	; 0x803804 <auRepAddr+0x1>
        auVolume = 255;
     14c:	9f ef       	ldi	r25, 0xFF	; 255
     14e:	90 93 b6 3a 	sts	0x3AB6, r25	; 0x803ab6 <auVolume>
    }

    //Check for other badges
    if ((auIn[0] < (setDAC[0] - DELTA)) || (auIn[0] > (setDAC[0] + DELTA)) ||((progress > FIRST_CONTACT))) {
     152:	40 91 c2 3a 	lds	r20, 0x3AC2	; 0x803ac2 <auIn>
     156:	20 91 00 38 	lds	r18, 0x3800	; 0x803800 <__data_start>
     15a:	30 e0       	ldi	r19, 0x00	; 0
     15c:	50 e0       	ldi	r21, 0x00	; 0
     15e:	b9 01       	movw	r22, r18
     160:	65 50       	subi	r22, 0x05	; 5
     162:	71 09       	sbc	r23, r1
     164:	46 17       	cp	r20, r22
     166:	57 07       	cpc	r21, r23
     168:	64 f0       	brlt	.+24     	; 0x182 <MakeFriends+0x8e>
     16a:	40 91 c2 3a 	lds	r20, 0x3AC2	; 0x803ac2 <auIn>
     16e:	50 e0       	ldi	r21, 0x00	; 0
     170:	2b 5f       	subi	r18, 0xFB	; 251
     172:	3f 4f       	sbci	r19, 0xFF	; 255
     174:	24 17       	cp	r18, r20
     176:	35 07       	cpc	r19, r21
     178:	24 f0       	brlt	.+8      	; 0x182 <MakeFriends+0x8e>
     17a:	82 30       	cpi	r24, 0x02	; 2
     17c:	08 f0       	brcs	.+2      	; 0x180 <MakeFriends+0x8c>
     17e:	40 c0       	rjmp	.+128    	; 0x200 <MakeFriends+0x10c>
     180:	ef c0       	rjmp	.+478    	; 0x360 <MakeFriends+0x26c>
        if (progress == NO_OTHER) {
     182:	81 11       	cpse	r24, r1
     184:	0a c0       	rjmp	.+20     	; 0x19a <MakeFriends+0xa6>
            ++chkTmr;
     186:	80 91 30 38 	lds	r24, 0x3830	; 0x803830 <chkTmr.3785>
     18a:	8f 5f       	subi	r24, 0xFF	; 255
     18c:	80 93 30 38 	sts	0x3830, r24	; 0x803830 <chkTmr.3785>
            if (chkTmr >= 8) {
     190:	88 30       	cpi	r24, 0x08	; 8
     192:	08 f4       	brcc	.+2      	; 0x196 <MakeFriends+0xa2>
     194:	e7 c0       	rjmp	.+462    	; 0x364 <MakeFriends+0x270>
                progress = FIRST_CONTACT;
     196:	81 e0       	ldi	r24, 0x01	; 1
     198:	81 c0       	rjmp	.+258    	; 0x29c <MakeFriends+0x1a8>
                chkTmr = 0;
            }
        }

        //Candidate found, check ranges
        else if (progress == FIRST_CONTACT) {
     19a:	81 30       	cpi	r24, 0x01	; 1
     19c:	89 f5       	brne	.+98     	; 0x200 <MakeFriends+0x10c>
            jackIn = chkVolt250();
     19e:	8c df       	rcall	.-232    	; 0xb8 <chkVolt250>
     1a0:	80 93 2f 38 	sts	0x382F, r24	; 0x80382f <jackIn.3786>
            if (jackIn) {
     1a4:	88 23       	and	r24, r24
     1a6:	49 f1       	breq	.+82     	; 0x1fa <MakeFriends+0x106>
                ++chkTmr;
     1a8:	90 91 30 38 	lds	r25, 0x3830	; 0x803830 <chkTmr.3785>
     1ac:	9f 5f       	subi	r25, 0xFF	; 255
     1ae:	90 93 30 38 	sts	0x3830, r25	; 0x803830 <chkTmr.3785>
                if (chkTmr >= SHORT_WAIT){
     1b2:	98 30       	cpi	r25, 0x08	; 8
     1b4:	08 f4       	brcc	.+2      	; 0x1b8 <MakeFriends+0xc4>
     1b6:	d6 c0       	rjmp	.+428    	; 0x364 <MakeFriends+0x270>
                    if ((whoami == 1)&&((jackIn == 3)||(jackIn == 4)||(jackIn == 5))) {
     1b8:	90 91 3d 38 	lds	r25, 0x383D	; 0x80383d <whoami>
     1bc:	91 30       	cpi	r25, 0x01	; 1
     1be:	29 f4       	brne	.+10     	; 0x1ca <MakeFriends+0xd6>
     1c0:	83 50       	subi	r24, 0x03	; 3
     1c2:	83 30       	cpi	r24, 0x03	; 3
     1c4:	b8 f4       	brcc	.+46     	; 0x1f4 <MakeFriends+0x100>
                        progress = SECOND_LOVE; 
     1c6:	82 e0       	ldi	r24, 0x02	; 2
     1c8:	69 c0       	rjmp	.+210    	; 0x29c <MakeFriends+0x1a8>
                    } else if ((whoami == 2)&&((jackIn == 3)||(jackIn == 5)||(jackIn == 6))) {
     1ca:	92 30       	cpi	r25, 0x02	; 2
     1cc:	31 f4       	brne	.+12     	; 0x1da <MakeFriends+0xe6>
     1ce:	83 30       	cpi	r24, 0x03	; 3
     1d0:	d1 f3       	breq	.-12     	; 0x1c6 <MakeFriends+0xd2>
     1d2:	85 50       	subi	r24, 0x05	; 5
     1d4:	82 30       	cpi	r24, 0x02	; 2
     1d6:	70 f4       	brcc	.+28     	; 0x1f4 <MakeFriends+0x100>
     1d8:	f6 cf       	rjmp	.-20     	; 0x1c6 <MakeFriends+0xd2>
                        progress = SECOND_LOVE;
                    } else  if ((whoami == 3)&&((jackIn == 4)||(jackIn == 5)||(jackIn == 7))) {
     1da:	93 30       	cpi	r25, 0x03	; 3
     1dc:	39 f4       	brne	.+14     	; 0x1ec <MakeFriends+0xf8>
     1de:	9c ef       	ldi	r25, 0xFC	; 252
     1e0:	98 0f       	add	r25, r24
     1e2:	92 30       	cpi	r25, 0x02	; 2
     1e4:	80 f3       	brcs	.-32     	; 0x1c6 <MakeFriends+0xd2>
     1e6:	87 30       	cpi	r24, 0x07	; 7
     1e8:	29 f4       	brne	.+10     	; 0x1f4 <MakeFriends+0x100>
     1ea:	ed cf       	rjmp	.-38     	; 0x1c6 <MakeFriends+0xd2>
                        progress = SECOND_LOVE;
                    } else if ((whoami == 4)&&((jackIn == 5)||(jackIn == 6)||(jackIn == 7))) {
     1ec:	94 30       	cpi	r25, 0x04	; 4
     1ee:	11 f4       	brne	.+4      	; 0x1f4 <MakeFriends+0x100>
     1f0:	85 50       	subi	r24, 0x05	; 5
     1f2:	e7 cf       	rjmp	.-50     	; 0x1c2 <MakeFriends+0xce>
                        progress = SECOND_LOVE;
                    } else progress = NO_OTHER;
     1f4:	10 92 31 38 	sts	0x3831, r1	; 0x803831 <progress.3783>
     1f8:	53 c0       	rjmp	.+166    	; 0x2a0 <MakeFriends+0x1ac>
                    chkTmr = 0;
                }
            } else {
                chkTmr = 0;
     1fa:	10 92 30 38 	sts	0x3830, r1	; 0x803830 <chkTmr.3785>
     1fe:	b0 c0       	rjmp	.+352    	; 0x360 <MakeFriends+0x26c>
                progress = NO_OTHER;
            }
        }

        //Wait for the other badge (and a bit longer)
        else if (progress == SECOND_LOVE){
     200:	82 30       	cpi	r24, 0x02	; 2
     202:	09 f0       	breq	.+2      	; 0x206 <MakeFriends+0x112>
     204:	50 c0       	rjmp	.+160    	; 0x2a6 <MakeFriends+0x1b2>
            ++chkTmr;
     206:	80 91 30 38 	lds	r24, 0x3830	; 0x803830 <chkTmr.3785>
     20a:	8f 5f       	subi	r24, 0xFF	; 255
     20c:	80 93 30 38 	sts	0x3830, r24	; 0x803830 <chkTmr.3785>
     210:	c6 e6       	ldi	r28, 0x66	; 102
     212:	de eb       	ldi	r29, 0xBE	; 190
     214:	7e 01       	movw	r14, r28
            for (uint8_t x=0; x<5; ++x){
                iLED[WING[L][x]] = (lfsr() > 127)?dimValue:0;
     216:	0d 81       	ldd	r16, Y+5	; 0x05
     218:	10 e0       	ldi	r17, 0x00	; 0
     21a:	0e 94 2d 09 	call	0x125a	; 0x125a <lfsr>
     21e:	87 ff       	sbrs	r24, 7
     220:	03 c0       	rjmp	.+6      	; 0x228 <MakeFriends+0x134>
     222:	80 91 0a 38 	lds	r24, 0x380A	; 0x80380a <dimValue>
     226:	01 c0       	rjmp	.+2      	; 0x22a <MakeFriends+0x136>
     228:	80 e0       	ldi	r24, 0x00	; 0
     22a:	f8 01       	movw	r30, r16
     22c:	e6 53       	subi	r30, 0x36	; 54
     22e:	f5 4c       	sbci	r31, 0xC5	; 197
     230:	80 83       	st	Z, r24
     232:	21 96       	adiw	r28, 0x01	; 1
                iLED[WING[R][x]] = (lfsr() > 127)?dimValue:0;
     234:	f7 01       	movw	r30, r14
     236:	00 81       	ld	r16, Z
     238:	10 e0       	ldi	r17, 0x00	; 0
     23a:	0e 94 2d 09 	call	0x125a	; 0x125a <lfsr>
     23e:	87 ff       	sbrs	r24, 7
     240:	03 c0       	rjmp	.+6      	; 0x248 <MakeFriends+0x154>
     242:	80 91 0a 38 	lds	r24, 0x380A	; 0x80380a <dimValue>
     246:	01 c0       	rjmp	.+2      	; 0x24a <MakeFriends+0x156>
     248:	80 e0       	ldi	r24, 0x00	; 0
     24a:	f8 01       	movw	r30, r16
     24c:	e6 53       	subi	r30, 0x36	; 54
     24e:	f5 4c       	sbci	r31, 0xC5	; 197
     250:	80 83       	st	Z, r24
        }

        //Wait for the other badge (and a bit longer)
        else if (progress == SECOND_LOVE){
            ++chkTmr;
            for (uint8_t x=0; x<5; ++x){
     252:	fe eb       	ldi	r31, 0xBE	; 190
     254:	cb 36       	cpi	r28, 0x6B	; 107
     256:	df 07       	cpc	r29, r31
     258:	e9 f6       	brne	.-70     	; 0x214 <MakeFriends+0x120>
                iLED[WING[L][x]] = (lfsr() > 127)?dimValue:0;
                iLED[WING[R][x]] = (lfsr() > 127)?dimValue:0;
            }
            if (chkTmr >= SHORT_WAIT) {
     25a:	80 91 30 38 	lds	r24, 0x3830	; 0x803830 <chkTmr.3785>
     25e:	88 30       	cpi	r24, 0x08	; 8
     260:	40 f0       	brcs	.+16     	; 0x272 <MakeFriends+0x17e>
                setDAC[0] = floatAround(0x80, 8, 100, 255); 
     262:	2f ef       	ldi	r18, 0xFF	; 255
     264:	44 e6       	ldi	r20, 0x64	; 100
     266:	68 e0       	ldi	r22, 0x08	; 8
     268:	80 e8       	ldi	r24, 0x80	; 128
     26a:	0e 94 7e 09 	call	0x12fc	; 0x12fc <floatAround>
     26e:	80 93 00 38 	sts	0x3800, r24	; 0x803800 <__data_start>
            }
            //The badge with the lowest voltage will now go to 2.5V (impedance check, for people tricking the things with a power supply)
            if (chkTmr >= LONG_WAIT){
     272:	80 91 30 38 	lds	r24, 0x3830	; 0x803830 <chkTmr.3785>
     276:	8a 3f       	cpi	r24, 0xFA	; 250
     278:	08 f4       	brcc	.+2      	; 0x27c <MakeFriends+0x188>
     27a:	74 c0       	rjmp	.+232    	; 0x364 <MakeFriends+0x270>
                candidate = jackIn-whoami;
     27c:	90 91 3d 38 	lds	r25, 0x383D	; 0x80383d <whoami>
     280:	80 91 2f 38 	lds	r24, 0x382F	; 0x80382f <jackIn.3786>
     284:	89 1b       	sub	r24, r25
     286:	80 93 2e 38 	sts	0x382E, r24	; 0x80382e <__data_end>
                if (candidate > whoami) setDAC[0] = 250; else setDAC[0] = 0;
     28a:	98 17       	cp	r25, r24
     28c:	20 f4       	brcc	.+8      	; 0x296 <MakeFriends+0x1a2>
     28e:	8a ef       	ldi	r24, 0xFA	; 250
     290:	80 93 00 38 	sts	0x3800, r24	; 0x803800 <__data_start>
     294:	02 c0       	rjmp	.+4      	; 0x29a <MakeFriends+0x1a6>
     296:	10 92 00 38 	sts	0x3800, r1	; 0x803800 <__data_start>
                progress = THIRD_KISS;
     29a:	83 e0       	ldi	r24, 0x03	; 3
     29c:	80 93 31 38 	sts	0x3831, r24	; 0x803831 <progress.3783>
                chkTmr = 0;
     2a0:	10 92 30 38 	sts	0x3830, r1	; 0x803830 <chkTmr.3785>
     2a4:	5f c0       	rjmp	.+190    	; 0x364 <MakeFriends+0x270>
            }
        } 
        
        //Wait a bit, check Voltage again, if ok show who you connected with and your own number, save, exit
        else if (progress == THIRD_KISS) {
     2a6:	83 30       	cpi	r24, 0x03	; 3
     2a8:	e1 f5       	brne	.+120    	; 0x322 <MakeFriends+0x22e>
            chkTmr++;
     2aa:	80 91 30 38 	lds	r24, 0x3830	; 0x803830 <chkTmr.3785>
     2ae:	8f 5f       	subi	r24, 0xFF	; 255
     2b0:	80 93 30 38 	sts	0x3830, r24	; 0x803830 <chkTmr.3785>
            if (chkTmr >= SHORT_WAIT) {
     2b4:	88 30       	cpi	r24, 0x08	; 8
     2b6:	08 f4       	brcc	.+2      	; 0x2ba <MakeFriends+0x1c6>
                if (chkVolt250() == 5) {
     2b8:	55 c0       	rjmp	.+170    	; 0x364 <MakeFriends+0x270>
     2ba:	fe de       	rcall	.-516    	; 0xb8 <chkVolt250>
     2bc:	85 30       	cpi	r24, 0x05	; 5
     2be:	09 f0       	breq	.+2      	; 0x2c2 <MakeFriends+0x1ce>
     2c0:	99 cf       	rjmp	.-206    	; 0x1f4 <MakeFriends+0x100>
                    UpdateState(99+candidate);
     2c2:	80 91 2e 38 	lds	r24, 0x382E	; 0x80382e <__data_end>
     2c6:	8d 59       	subi	r24, 0x9D	; 157
     2c8:	0e 94 51 0a 	call	0x14a2	; 0x14a2 <UpdateState>
                    UpdateState(99+whoami);
     2cc:	80 91 3d 38 	lds	r24, 0x383D	; 0x80383d <whoami>
     2d0:	8d 59       	subi	r24, 0x9D	; 157
     2d2:	0e 94 51 0a 	call	0x14a2	; 0x14a2 <UpdateState>
                    for (uint8_t x=0; x<5; ++x){
                        iLED[WING[L][x]] = (x<candidate)?dimValue:0;
     2d6:	20 91 2e 38 	lds	r18, 0x382E	; 0x80382e <__data_end>
                        iLED[WING[R][x]] = (x<whoami)?dimValue:00;
     2da:	30 91 3d 38 	lds	r19, 0x383D	; 0x80383d <whoami>
     2de:	a6 e6       	ldi	r26, 0x66	; 102
     2e0:	be eb       	ldi	r27, 0xBE	; 190
            chkTmr++;
            if (chkTmr >= SHORT_WAIT) {
                if (chkVolt250() == 5) {
                    UpdateState(99+candidate);
                    UpdateState(99+whoami);
                    for (uint8_t x=0; x<5; ++x){
     2e2:	80 e0       	ldi	r24, 0x00	; 0
     2e4:	ed 01       	movw	r28, r26
                        iLED[WING[L][x]] = (x<candidate)?dimValue:0;
     2e6:	15 96       	adiw	r26, 0x05	; 5
     2e8:	ec 91       	ld	r30, X
     2ea:	15 97       	sbiw	r26, 0x05	; 5
     2ec:	f0 e0       	ldi	r31, 0x00	; 0
     2ee:	82 17       	cp	r24, r18
     2f0:	18 f4       	brcc	.+6      	; 0x2f8 <MakeFriends+0x204>
     2f2:	90 91 0a 38 	lds	r25, 0x380A	; 0x80380a <dimValue>
     2f6:	01 c0       	rjmp	.+2      	; 0x2fa <MakeFriends+0x206>
     2f8:	90 e0       	ldi	r25, 0x00	; 0
     2fa:	e6 53       	subi	r30, 0x36	; 54
     2fc:	f5 4c       	sbci	r31, 0xC5	; 197
     2fe:	90 83       	st	Z, r25
     300:	11 96       	adiw	r26, 0x01	; 1
                        iLED[WING[R][x]] = (x<whoami)?dimValue:00;
     302:	e8 81       	ld	r30, Y
     304:	f0 e0       	ldi	r31, 0x00	; 0
     306:	83 17       	cp	r24, r19
     308:	18 f4       	brcc	.+6      	; 0x310 <MakeFriends+0x21c>
     30a:	90 91 0a 38 	lds	r25, 0x380A	; 0x80380a <dimValue>
     30e:	01 c0       	rjmp	.+2      	; 0x312 <MakeFriends+0x21e>
     310:	90 e0       	ldi	r25, 0x00	; 0
     312:	e6 53       	subi	r30, 0x36	; 54
     314:	f5 4c       	sbci	r31, 0xC5	; 197
     316:	90 83       	st	Z, r25
            chkTmr++;
            if (chkTmr >= SHORT_WAIT) {
                if (chkVolt250() == 5) {
                    UpdateState(99+candidate);
                    UpdateState(99+whoami);
                    for (uint8_t x=0; x<5; ++x){
     318:	8f 5f       	subi	r24, 0xFF	; 255
     31a:	85 30       	cpi	r24, 0x05	; 5
     31c:	19 f7       	brne	.-58     	; 0x2e4 <MakeFriends+0x1f0>
                        iLED[WING[L][x]] = (x<candidate)?dimValue:0;
                        iLED[WING[R][x]] = (x<whoami)?dimValue:00;
                    }   
                    progress = FOURTH_BASE;
     31e:	84 e0       	ldi	r24, 0x04	; 4
     320:	bd cf       	rjmp	.-134    	; 0x29c <MakeFriends+0x1a8>
                } else progress = NO_OTHER;                
                chkTmr = 0;
            }

        //Wait for divorce of force quit
        } else if (progress == FOURTH_BASE) {
     322:	84 30       	cpi	r24, 0x04	; 4
            if (chkVolt250() == 5) {
     324:	f9 f4       	brne	.+62     	; 0x364 <MakeFriends+0x270>
     326:	c8 de       	rcall	.-624    	; 0xb8 <chkVolt250>
     328:	85 30       	cpi	r24, 0x05	; 5
     32a:	e1 f4       	brne	.+56     	; 0x364 <MakeFriends+0x270>
                chkTmr++;
     32c:	80 91 30 38 	lds	r24, 0x3830	; 0x803830 <chkTmr.3785>
     330:	8f 5f       	subi	r24, 0xFF	; 255
     332:	80 93 30 38 	sts	0x3830, r24	; 0x803830 <chkTmr.3785>
                if (chkTmr >= LONG_WAIT) {
     336:	8a 3f       	cpi	r24, 0xFA	; 250
     338:	a8 f0       	brcs	.+42     	; 0x364 <MakeFriends+0x270>
     33a:	e6 e6       	ldi	r30, 0x66	; 102
     33c:	fe eb       	ldi	r31, 0xBE	; 190
     33e:	8b e6       	ldi	r24, 0x6B	; 107
     340:	9e eb       	ldi	r25, 0xBE	; 190
     342:	ef 01       	movw	r28, r30
                    for (uint8_t x=0; x<5; ++x){
                        iLED[WING[L][x]] = 0;
     344:	a5 81       	ldd	r26, Z+5	; 0x05
     346:	b0 e0       	ldi	r27, 0x00	; 0
     348:	a6 53       	subi	r26, 0x36	; 54
     34a:	b5 4c       	sbci	r27, 0xC5	; 197
     34c:	1c 92       	st	X, r1
     34e:	31 96       	adiw	r30, 0x01	; 1
                        iLED[WING[R][x]] = 0;
     350:	a8 81       	ld	r26, Y
     352:	b0 e0       	ldi	r27, 0x00	; 0
     354:	a6 53       	subi	r26, 0x36	; 54
     356:	b5 4c       	sbci	r27, 0xC5	; 197
     358:	1c 92       	st	X, r1
        //Wait for divorce of force quit
        } else if (progress == FOURTH_BASE) {
            if (chkVolt250() == 5) {
                chkTmr++;
                if (chkTmr >= LONG_WAIT) {
                    for (uint8_t x=0; x<5; ++x){
     35a:	8e 17       	cp	r24, r30
     35c:	9f 07       	cpc	r25, r31
     35e:	89 f7       	brne	.-30     	; 0x342 <MakeFriends+0x24e>
                    }                    
                }
            }
        }

    } else progress = NO_OTHER;
     360:	10 92 31 38 	sts	0x3831, r1	; 0x803831 <progress.3783>
      
    return 0;
}
     364:	80 e0       	ldi	r24, 0x00	; 0
     366:	df 91       	pop	r29
     368:	cf 91       	pop	r28
     36a:	1f 91       	pop	r17
     36c:	0f 91       	pop	r16
     36e:	ff 90       	pop	r15
     370:	ef 90       	pop	r14
     372:	08 95       	ret

00000374 <I2C_init>:
// the Atmel device documentation mentions a special command for repeated start TWI_MCMD_REPSTART_gc,
// but this is not used in Atmel's demo code, so we don't use it either

void I2C_rep_start(uint8_t shifted_addr)						    // send repeated start, device_addr + LSB set if READ
{
	TWI0.MADDR = shifted_addr;	
     374:	81 e0       	ldi	r24, 0x01	; 1
     376:	80 93 22 04 	sts	0x0422, r24	; 0x800422 <__TEXT_REGION_LENGTH__+0x700422>
     37a:	e6 e2       	ldi	r30, 0x26	; 38
     37c:	f4 e0       	ldi	r31, 0x04	; 4
     37e:	80 83       	st	Z, r24
     380:	10 92 30 04 	sts	0x0430, r1	; 0x800430 <__TEXT_REGION_LENGTH__+0x700430>
     384:	a1 e2       	ldi	r26, 0x21	; 33
     386:	b4 e0       	ldi	r27, 0x04	; 4
     388:	92 e0       	ldi	r25, 0x02	; 2
     38a:	9c 93       	st	X, r25
     38c:	90 83       	st	Z, r25
     38e:	10 92 31 04 	sts	0x0431, r1	; 0x800431 <__TEXT_REGION_LENGTH__+0x700431>
     392:	e0 e1       	ldi	r30, 0x10	; 16
     394:	f8 e0       	ldi	r31, 0x08	; 8
     396:	97 e0       	ldi	r25, 0x07	; 7
     398:	96 83       	std	Z+6, r25	; 0x06
     39a:	98 e0       	ldi	r25, 0x08	; 8
     39c:	94 83       	std	Z+4, r25	; 0x04
     39e:	83 83       	std	Z+3, r24	; 0x03
     3a0:	8c 93       	st	X, r24
     3a2:	85 81       	ldd	r24, Z+5	; 0x05
     3a4:	81 60       	ori	r24, 0x01	; 1
     3a6:	85 83       	std	Z+5, r24	; 0x05
     3a8:	85 81       	ldd	r24, Z+5	; 0x05
     3aa:	84 6c       	ori	r24, 0xC4	; 196
     3ac:	85 83       	std	Z+5, r24	; 0x05
     3ae:	08 95       	ret

000003b0 <I2C_recover>:
     3b0:	80 91 14 08 	lds	r24, 0x0814	; 0x800814 <__TEXT_REGION_LENGTH__+0x700814>
     3b4:	88 60       	ori	r24, 0x08	; 8
     3b6:	80 93 14 08 	sts	0x0814, r24	; 0x800814 <__TEXT_REGION_LENGTH__+0x700814>
     3ba:	10 92 13 08 	sts	0x0813, r1	; 0x800813 <__TEXT_REGION_LENGTH__+0x700813>
     3be:	82 e0       	ldi	r24, 0x02	; 2
     3c0:	80 93 22 04 	sts	0x0422, r24	; 0x800422 <__TEXT_REGION_LENGTH__+0x700422>
     3c4:	99 e0       	ldi	r25, 0x09	; 9
     3c6:	21 e0       	ldi	r18, 0x01	; 1
     3c8:	81 e0       	ldi	r24, 0x01	; 1
     3ca:	20 93 21 04 	sts	0x0421, r18	; 0x800421 <__TEXT_REGION_LENGTH__+0x700421>
     3ce:	30 e1       	ldi	r19, 0x10	; 16
     3d0:	3a 95       	dec	r19
     3d2:	f1 f7       	brne	.-4      	; 0x3d0 <I2C_recover+0x20>
     3d4:	00 c0       	rjmp	.+0      	; 0x3d6 <I2C_recover+0x26>
     3d6:	20 93 22 04 	sts	0x0422, r18	; 0x800422 <__TEXT_REGION_LENGTH__+0x700422>
     3da:	30 e1       	ldi	r19, 0x10	; 16
     3dc:	3a 95       	dec	r19
     3de:	f1 f7       	brne	.-4      	; 0x3dc <I2C_recover+0x2c>
     3e0:	00 c0       	rjmp	.+0      	; 0x3e2 <I2C_recover+0x32>
     3e2:	91 50       	subi	r25, 0x01	; 1
     3e4:	89 f7       	brne	.-30     	; 0x3c8 <I2C_recover+0x18>
     3e6:	28 e0       	ldi	r18, 0x08	; 8
     3e8:	20 93 14 08 	sts	0x0814, r18	; 0x800814 <__TEXT_REGION_LENGTH__+0x700814>
     3ec:	80 93 13 08 	sts	0x0813, r24	; 0x800813 <__TEXT_REGION_LENGTH__+0x700813>
     3f0:	92 e0       	ldi	r25, 0x02	; 2
     3f2:	90 93 21 04 	sts	0x0421, r25	; 0x800421 <__TEXT_REGION_LENGTH__+0x700421>
     3f6:	90 91 15 08 	lds	r25, 0x0815	; 0x800815 <__TEXT_REGION_LENGTH__+0x700815>
     3fa:	91 60       	ori	r25, 0x01	; 1
     3fc:	90 93 15 08 	sts	0x0815, r25	; 0x800815 <__TEXT_REGION_LENGTH__+0x700815>
     400:	90 91 15 08 	lds	r25, 0x0815	; 0x800815 <__TEXT_REGION_LENGTH__+0x700815>
     404:	94 6c       	ori	r25, 0xC4	; 196
     406:	90 93 15 08 	sts	0x0815, r25	; 0x800815 <__TEXT_REGION_LENGTH__+0x700815>
     40a:	20 93 14 08 	sts	0x0814, r18	; 0x800814 <__TEXT_REGION_LENGTH__+0x700814>
     40e:	80 93 13 08 	sts	0x0813, r24	; 0x800813 <__TEXT_REGION_LENGTH__+0x700813>
     412:	80 93 21 04 	sts	0x0421, r24	; 0x800421 <__TEXT_REGION_LENGTH__+0x700421>
     416:	80 91 15 08 	lds	r24, 0x0815	; 0x800815 <__TEXT_REGION_LENGTH__+0x700815>
     41a:	81 60       	ori	r24, 0x01	; 1
     41c:	80 93 15 08 	sts	0x0815, r24	; 0x800815 <__TEXT_REGION_LENGTH__+0x700815>
     420:	80 91 15 08 	lds	r24, 0x0815	; 0x800815 <__TEXT_REGION_LENGTH__+0x700815>
     424:	84 6c       	ori	r24, 0xC4	; 196
     426:	80 93 15 08 	sts	0x0815, r24	; 0x800815 <__TEXT_REGION_LENGTH__+0x700815>
     42a:	08 95       	ret

0000042c <I2C_start>:
     42c:	28 2f       	mov	r18, r24
     42e:	90 91 15 08 	lds	r25, 0x0815	; 0x800815 <__TEXT_REGION_LENGTH__+0x700815>
     432:	90 6c       	ori	r25, 0xC0	; 192
     434:	90 93 15 08 	sts	0x0815, r25	; 0x800815 <__TEXT_REGION_LENGTH__+0x700815>
     438:	90 91 15 08 	lds	r25, 0x0815	; 0x800815 <__TEXT_REGION_LENGTH__+0x700815>
     43c:	89 2f       	mov	r24, r25
     43e:	84 70       	andi	r24, 0x04	; 4
     440:	92 fd       	sbrc	r25, 2
     442:	03 c0       	rjmp	.+6      	; 0x44a <I2C_start+0x1e>
     444:	20 93 17 08 	sts	0x0817, r18	; 0x800817 <__TEXT_REGION_LENGTH__+0x700817>
     448:	08 95       	ret
     44a:	84 e0       	ldi	r24, 0x04	; 4
     44c:	08 95       	ret

0000044e <I2C_wait_ACK>:
     44e:	8c e0       	ldi	r24, 0x0C	; 12
     450:	80 93 60 3a 	sts	0x3A60, r24	; 0x803a60 <timeout_I2C>
     454:	80 91 15 08 	lds	r24, 0x0815	; 0x800815 <__TEXT_REGION_LENGTH__+0x700815>
     458:	87 fd       	sbrc	r24, 7
     45a:	0a c0       	rjmp	.+20     	; 0x470 <I2C_wait_ACK+0x22>
     45c:	80 91 15 08 	lds	r24, 0x0815	; 0x800815 <__TEXT_REGION_LENGTH__+0x700815>
     460:	86 fd       	sbrc	r24, 6
     462:	06 c0       	rjmp	.+12     	; 0x470 <I2C_wait_ACK+0x22>
     464:	80 91 60 3a 	lds	r24, 0x3A60	; 0x803a60 <timeout_I2C>
     468:	81 11       	cpse	r24, r1
     46a:	f4 cf       	rjmp	.-24     	; 0x454 <I2C_wait_ACK+0x6>
     46c:	8f ef       	ldi	r24, 0xFF	; 255
     46e:	08 95       	ret
     470:	80 91 15 08 	lds	r24, 0x0815	; 0x800815 <__TEXT_REGION_LENGTH__+0x700815>
     474:	80 6c       	ori	r24, 0xC0	; 192
     476:	80 93 15 08 	sts	0x0815, r24	; 0x800815 <__TEXT_REGION_LENGTH__+0x700815>
     47a:	80 91 15 08 	lds	r24, 0x0815	; 0x800815 <__TEXT_REGION_LENGTH__+0x700815>
     47e:	82 fd       	sbrc	r24, 2
     480:	09 c0       	rjmp	.+18     	; 0x494 <I2C_wait_ACK+0x46>
     482:	80 91 15 08 	lds	r24, 0x0815	; 0x800815 <__TEXT_REGION_LENGTH__+0x700815>
     486:	83 fd       	sbrc	r24, 3
     488:	07 c0       	rjmp	.+14     	; 0x498 <I2C_wait_ACK+0x4a>
     48a:	80 91 15 08 	lds	r24, 0x0815	; 0x800815 <__TEXT_REGION_LENGTH__+0x700815>
     48e:	82 95       	swap	r24
     490:	81 70       	andi	r24, 0x01	; 1
     492:	08 95       	ret
     494:	84 e0       	ldi	r24, 0x04	; 4
     496:	08 95       	ret
     498:	82 e0       	ldi	r24, 0x02	; 2
     49a:	08 95       	ret

0000049c <I2C_read>:
}

uint8_t	I2C_read(uint8_t *data, uint8_t ack_flag)					// read data, ack_flag 0: send ACK, 1: send NACK, returns status
{
     49c:	fc 01       	movw	r30, r24
	timeout_I2C = READ_TIMEOUT;										// reset timeout counter, will be decremented by LED matrix interrupt
     49e:	8c e0       	ldi	r24, 0x0C	; 12
     4a0:	80 93 60 3a 	sts	0x3A60, r24	; 0x803a60 <timeout_I2C>
	if ((TWI0.MSTATUS & TWI_BUSSTATE_gm) == TWI_BUSSTATE_OWNER_gc)	// if master controls bus
     4a4:	90 91 15 08 	lds	r25, 0x0815	; 0x800815 <__TEXT_REGION_LENGTH__+0x700815>
     4a8:	89 2f       	mov	r24, r25
     4aa:	83 70       	andi	r24, 0x03	; 3
     4ac:	82 30       	cpi	r24, 0x02	; 2
     4ae:	11 f0       	breq	.+4      	; 0x4b4 <I2C_read+0x18>
		else		TWI0.MCTRLB |= TWI_ACKACT_NACK_gc;				// setup NACK (last byte read)
		*data = TWI0.MDATA;
		if (ack_flag == 0) TWI0.MCTRLB |= TWI_MCMD_RECVTRANS_gc;	// send ACK, more bytes to follow					
		return 0;
	}
	else return 8;													// master does not control bus
     4b0:	88 e0       	ldi	r24, 0x08	; 8
     4b2:	08 95       	ret
uint8_t	I2C_read(uint8_t *data, uint8_t ack_flag)					// read data, ack_flag 0: send ACK, 1: send NACK, returns status
{
	timeout_I2C = READ_TIMEOUT;										// reset timeout counter, will be decremented by LED matrix interrupt
	if ((TWI0.MSTATUS & TWI_BUSSTATE_gm) == TWI_BUSSTATE_OWNER_gc)	// if master controls bus
	{		
		while (!(TWI0.MSTATUS & TWI_RIF_bm))						// wait for RIF set (data byte received)
     4b4:	90 91 15 08 	lds	r25, 0x0815	; 0x800815 <__TEXT_REGION_LENGTH__+0x700815>
     4b8:	97 fd       	sbrc	r25, 7
     4ba:	06 c0       	rjmp	.+12     	; 0x4c8 <I2C_read+0x2c>
		{
			if (!(timeout_I2C)) return 0xff;			            // return timeout error
     4bc:	90 91 60 3a 	lds	r25, 0x3A60	; 0x803a60 <timeout_I2C>
     4c0:	91 11       	cpse	r25, r1
     4c2:	f8 cf       	rjmp	.-16     	; 0x4b4 <I2C_read+0x18>
     4c4:	8f ef       	ldi	r24, 0xFF	; 255
     4c6:	08 95       	ret
		}
		TWI0.MSTATUS |= (TWI_RIF_bm | TWI_WIF_bm);					// clear Read and Write interrupt flags	
     4c8:	90 91 15 08 	lds	r25, 0x0815	; 0x800815 <__TEXT_REGION_LENGTH__+0x700815>
     4cc:	90 6c       	ori	r25, 0xC0	; 192
     4ce:	90 93 15 08 	sts	0x0815, r25	; 0x800815 <__TEXT_REGION_LENGTH__+0x700815>
		if (TWI0.MSTATUS & TWI_BUSERR_bm) return 4;					// Bus Error, abort
     4d2:	90 91 15 08 	lds	r25, 0x0815	; 0x800815 <__TEXT_REGION_LENGTH__+0x700815>
     4d6:	92 fd       	sbrc	r25, 2
     4d8:	1e c0       	rjmp	.+60     	; 0x516 <I2C_read+0x7a>
		if (TWI0.MSTATUS & TWI_ARBLOST_bm) return 2;				// Arbitration Lost, abort
     4da:	90 91 15 08 	lds	r25, 0x0815	; 0x800815 <__TEXT_REGION_LENGTH__+0x700815>
     4de:	93 fd       	sbrc	r25, 3
     4e0:	1d c0       	rjmp	.+58     	; 0x51c <I2C_read+0x80>
		if (TWI0.MSTATUS & TWI_RXACK_bm) return 1;					// Slave replied with NACK, abort				
     4e2:	90 91 15 08 	lds	r25, 0x0815	; 0x800815 <__TEXT_REGION_LENGTH__+0x700815>
     4e6:	89 2f       	mov	r24, r25
     4e8:	80 71       	andi	r24, 0x10	; 16
     4ea:	94 fd       	sbrc	r25, 4
     4ec:	16 c0       	rjmp	.+44     	; 0x51a <I2C_read+0x7e>
		if (ack_flag == 0) TWI0.MCTRLB &= ~(1 << TWI_ACKACT_bp);	// setup ACK
     4ee:	90 91 14 08 	lds	r25, 0x0814	; 0x800814 <__TEXT_REGION_LENGTH__+0x700814>
     4f2:	61 11       	cpse	r22, r1
     4f4:	02 c0       	rjmp	.+4      	; 0x4fa <I2C_read+0x5e>
     4f6:	9b 7f       	andi	r25, 0xFB	; 251
     4f8:	01 c0       	rjmp	.+2      	; 0x4fc <I2C_read+0x60>
		else		TWI0.MCTRLB |= TWI_ACKACT_NACK_gc;				// setup NACK (last byte read)
     4fa:	94 60       	ori	r25, 0x04	; 4
     4fc:	90 93 14 08 	sts	0x0814, r25	; 0x800814 <__TEXT_REGION_LENGTH__+0x700814>
		*data = TWI0.MDATA;
     500:	90 91 18 08 	lds	r25, 0x0818	; 0x800818 <__TEXT_REGION_LENGTH__+0x700818>
     504:	90 83       	st	Z, r25
		if (ack_flag == 0) TWI0.MCTRLB |= TWI_MCMD_RECVTRANS_gc;	// send ACK, more bytes to follow					
     506:	61 11       	cpse	r22, r1
     508:	09 c0       	rjmp	.+18     	; 0x51c <I2C_read+0x80>
     50a:	90 91 14 08 	lds	r25, 0x0814	; 0x800814 <__TEXT_REGION_LENGTH__+0x700814>
     50e:	92 60       	ori	r25, 0x02	; 2
     510:	90 93 14 08 	sts	0x0814, r25	; 0x800814 <__TEXT_REGION_LENGTH__+0x700814>
     514:	08 95       	ret
		while (!(TWI0.MSTATUS & TWI_RIF_bm))						// wait for RIF set (data byte received)
		{
			if (!(timeout_I2C)) return 0xff;			            // return timeout error
		}
		TWI0.MSTATUS |= (TWI_RIF_bm | TWI_WIF_bm);					// clear Read and Write interrupt flags	
		if (TWI0.MSTATUS & TWI_BUSERR_bm) return 4;					// Bus Error, abort
     516:	84 e0       	ldi	r24, 0x04	; 4
     518:	08 95       	ret
		if (TWI0.MSTATUS & TWI_ARBLOST_bm) return 2;				// Arbitration Lost, abort
		if (TWI0.MSTATUS & TWI_RXACK_bm) return 1;					// Slave replied with NACK, abort				
     51a:	81 e0       	ldi	r24, 0x01	; 1
		*data = TWI0.MDATA;
		if (ack_flag == 0) TWI0.MCTRLB |= TWI_MCMD_RECVTRANS_gc;	// send ACK, more bytes to follow					
		return 0;
	}
	else return 8;													// master does not control bus
}
     51c:	08 95       	ret

0000051e <I2C_write>:

uint8_t I2C_write(uint8_t *data)									// write data, return status
{
     51e:	fc 01       	movw	r30, r24
	timeout_I2C = WRITE_TIMEOUT;									// reset timeout counter, will be decremented by LED matrix interrupt
     520:	8c e0       	ldi	r24, 0x0C	; 12
     522:	80 93 60 3a 	sts	0x3A60, r24	; 0x803a60 <timeout_I2C>
	if ((TWI0.MSTATUS & TWI_BUSSTATE_gm) == TWI_BUSSTATE_OWNER_gc)	// if master controls bus
     526:	90 91 15 08 	lds	r25, 0x0815	; 0x800815 <__TEXT_REGION_LENGTH__+0x700815>
     52a:	93 70       	andi	r25, 0x03	; 3
     52c:	92 30       	cpi	r25, 0x02	; 2
     52e:	b1 f4       	brne	.+44     	; 0x55c <I2C_write+0x3e>
	{
		TWI0.MDATA = *data;		
     530:	80 81       	ld	r24, Z
     532:	80 93 18 08 	sts	0x0818, r24	; 0x800818 <__TEXT_REGION_LENGTH__+0x700818>
		while (!(TWI0.MSTATUS & TWI_WIF_bm))						// wait until WIF set, status register contains ACK/NACK bit
     536:	80 91 15 08 	lds	r24, 0x0815	; 0x800815 <__TEXT_REGION_LENGTH__+0x700815>
     53a:	86 fd       	sbrc	r24, 6
     53c:	06 c0       	rjmp	.+12     	; 0x54a <I2C_write+0x2c>
		{
			if (!(timeout_I2C)) return 0xff;			            // return timeout error
     53e:	80 91 60 3a 	lds	r24, 0x3A60	; 0x803a60 <timeout_I2C>
     542:	81 11       	cpse	r24, r1
     544:	f8 cf       	rjmp	.-16     	; 0x536 <I2C_write+0x18>
     546:	8f ef       	ldi	r24, 0xFF	; 255
     548:	08 95       	ret
		}
		if (TWI0.MSTATUS & TWI_BUSERR_bm) return 4;					// Bus Error, abort
     54a:	80 91 15 08 	lds	r24, 0x0815	; 0x800815 <__TEXT_REGION_LENGTH__+0x700815>
     54e:	82 fd       	sbrc	r24, 2
     550:	07 c0       	rjmp	.+14     	; 0x560 <I2C_write+0x42>
		if (TWI0.MSTATUS & TWI_RXACK_bm) return 1;					// Slave replied with NACK, abort
     552:	80 91 15 08 	lds	r24, 0x0815	; 0x800815 <__TEXT_REGION_LENGTH__+0x700815>
	if ((TWI0.MSTATUS & TWI_BUSSTATE_gm) == TWI_BUSSTATE_OWNER_gc)	// if master controls bus
	{
		TWI0.MDATA = *data;		
		while (!(TWI0.MSTATUS & TWI_WIF_bm))						// wait until WIF set, status register contains ACK/NACK bit
		{
			if (!(timeout_I2C)) return 0xff;			            // return timeout error
     556:	82 95       	swap	r24
     558:	81 70       	andi	r24, 0x01	; 1
     55a:	08 95       	ret
		}
		if (TWI0.MSTATUS & TWI_BUSERR_bm) return 4;					// Bus Error, abort
		if (TWI0.MSTATUS & TWI_RXACK_bm) return 1;					// Slave replied with NACK, abort
		return 0;													// no error	
	}
	else return 8;													// master does not control bus
     55c:	88 e0       	ldi	r24, 0x08	; 8
     55e:	08 95       	ret
		TWI0.MDATA = *data;		
		while (!(TWI0.MSTATUS & TWI_WIF_bm))						// wait until WIF set, status register contains ACK/NACK bit
		{
			if (!(timeout_I2C)) return 0xff;			            // return timeout error
		}
		if (TWI0.MSTATUS & TWI_BUSERR_bm) return 4;					// Bus Error, abort
     560:	84 e0       	ldi	r24, 0x04	; 4
		if (TWI0.MSTATUS & TWI_RXACK_bm) return 1;					// Slave replied with NACK, abort
		return 0;													// no error	
	}
	else return 8;													// master does not control bus
}
     562:	08 95       	ret

00000564 <I2C_stop>:

void I2C_stop()
{
	TWI0.MCTRLB |= TWI_MCMD_STOP_gc;
     564:	e0 e1       	ldi	r30, 0x10	; 16
     566:	f8 e0       	ldi	r31, 0x08	; 8
     568:	84 81       	ldd	r24, Z+4	; 0x04
     56a:	83 60       	ori	r24, 0x03	; 3
     56c:	84 83       	std	Z+4, r24	; 0x04
     56e:	08 95       	ret

00000570 <I2C_read_bytes>:
// addr_ptr		address of first array element to transfer
// slave reg	starting slave register
// num_bytes	number of bytes to transfer

uint8_t	I2C_read_bytes(uint8_t slave_addr, uint8_t *reg_ptr, uint8_t reg_len, uint8_t *dat_ptr, uint8_t dat_len)
{
     570:	cf 92       	push	r12
     572:	df 92       	push	r13
     574:	ff 92       	push	r15
     576:	0f 93       	push	r16
     578:	1f 93       	push	r17
     57a:	cf 93       	push	r28
     57c:	df 93       	push	r29
     57e:	6b 01       	movw	r12, r22
     580:	f4 2e       	mov	r15, r20
     582:	e9 01       	movw	r28, r18
	uint8_t status;
	if (dat_len > MAX_LEN) dat_len = MAX_LEN;
	status = I2C_start(slave_addr << 1);							// slave write address, LSB 0
     584:	18 2f       	mov	r17, r24
     586:	11 0f       	add	r17, r17
     588:	81 2f       	mov	r24, r17
     58a:	50 df       	rcall	.-352    	; 0x42c <I2C_start>
	if (status != 0) goto error;
     58c:	81 11       	cpse	r24, r1
	status = I2C_wait_ACK();										// wait for slave ACK
     58e:	2b c0       	rjmp	.+86     	; 0x5e6 <I2C_read_bytes+0x76>
     590:	5e df       	rcall	.-324    	; 0x44e <I2C_wait_ACK>
	if (status == 1) {
     592:	81 30       	cpi	r24, 0x01	; 1
		I2C_stop();													// NACK, abort
     594:	19 f4       	brne	.+6      	; 0x59c <I2C_read_bytes+0x2c>
     596:	e6 df       	rcall	.-52     	; 0x564 <I2C_stop>
		return 1;
     598:	81 e0       	ldi	r24, 0x01	; 1
     59a:	27 c0       	rjmp	.+78     	; 0x5ea <I2C_read_bytes+0x7a>
	}
	if (status != 0) goto error;
     59c:	81 11       	cpse	r24, r1
     59e:	23 c0       	rjmp	.+70     	; 0x5e6 <I2C_read_bytes+0x76>
    while(reg_len > 0){
     5a0:	ff 20       	and	r15, r15
	    status = I2C_write(reg_ptr);    							// send slave start register
     5a2:	49 f0       	breq	.+18     	; 0x5b6 <I2C_read_bytes+0x46>
     5a4:	c6 01       	movw	r24, r12
     5a6:	bb df       	rcall	.-138    	; 0x51e <I2C_write>
	    if (status != 0) goto error;
     5a8:	81 11       	cpse	r24, r1
     5aa:	1d c0       	rjmp	.+58     	; 0x5e6 <I2C_read_bytes+0x76>
        ++reg_ptr;
     5ac:	8f ef       	ldi	r24, 0xFF	; 255
     5ae:	c8 1a       	sub	r12, r24
     5b0:	d8 0a       	sbc	r13, r24
        --reg_len;
     5b2:	fa 94       	dec	r15
     5b4:	f5 cf       	rjmp	.-22     	; 0x5a0 <I2C_read_bytes+0x30>
     5b6:	01 34       	cpi	r16, 0x41	; 65
     5b8:	08 f0       	brcs	.+2      	; 0x5bc <I2C_read_bytes+0x4c>
     5ba:	00 e4       	ldi	r16, 0x40	; 64
    }
	I2C_rep_start((slave_addr << 1) + 1);							// slave read address, LSB 1
     5bc:	1f 5f       	subi	r17, 0xFF	; 255
// the Atmel device documentation mentions a special command for repeated start TWI_MCMD_REPSTART_gc,
// but this is not used in Atmel's demo code, so we don't use it either

void I2C_rep_start(uint8_t shifted_addr)						    // send repeated start, device_addr + LSB set if READ
{
	TWI0.MADDR = shifted_addr;	
     5be:	10 93 17 08 	sts	0x0817, r17	; 0x800817 <__TEXT_REGION_LENGTH__+0x700817>
	    if (status != 0) goto error;
        ++reg_ptr;
        --reg_len;
    }
	I2C_rep_start((slave_addr << 1) + 1);							// slave read address, LSB 1
	while (dat_len > 1) {
     5c2:	02 30       	cpi	r16, 0x02	; 2
		status = I2C_read(dat_ptr, 0);								// first bytes, send ACK
     5c4:	40 f0       	brcs	.+16     	; 0x5d6 <I2C_read_bytes+0x66>
     5c6:	60 e0       	ldi	r22, 0x00	; 0
     5c8:	ce 01       	movw	r24, r28
     5ca:	68 df       	rcall	.-304    	; 0x49c <I2C_read>
		if (status != 0) goto error;
     5cc:	81 11       	cpse	r24, r1
     5ce:	0b c0       	rjmp	.+22     	; 0x5e6 <I2C_read_bytes+0x76>
		++dat_ptr;
		--dat_len;
     5d0:	21 96       	adiw	r28, 0x01	; 1
     5d2:	01 50       	subi	r16, 0x01	; 1
	}
	status = I2C_read(dat_ptr, 1);									// single or last byte, send NACK
     5d4:	f6 cf       	rjmp	.-20     	; 0x5c2 <I2C_read_bytes+0x52>
     5d6:	61 e0       	ldi	r22, 0x01	; 1
     5d8:	ce 01       	movw	r24, r28
	if (status != 0) goto error;
     5da:	60 df       	rcall	.-320    	; 0x49c <I2C_read>
     5dc:	81 11       	cpse	r24, r1
	I2C_stop();
     5de:	03 c0       	rjmp	.+6      	; 0x5e6 <I2C_read_bytes+0x76>
     5e0:	c1 df       	rcall	.-126    	; 0x564 <I2C_stop>
	return 0;
     5e2:	80 e0       	ldi	r24, 0x00	; 0
     5e4:	02 c0       	rjmp	.+4      	; 0x5ea <I2C_read_bytes+0x7a>
	
error:
	I2C_recover();													// clock out possibly stuck slave, reset master
     5e6:	e4 de       	rcall	.-568    	; 0x3b0 <I2C_recover>
     5e8:	8f ef       	ldi	r24, 0xFF	; 255
	return 0xff;													// flag error
     5ea:	df 91       	pop	r29
}
     5ec:	cf 91       	pop	r28
     5ee:	1f 91       	pop	r17
     5f0:	0f 91       	pop	r16
     5f2:	ff 90       	pop	r15
     5f4:	df 90       	pop	r13
     5f6:	cf 90       	pop	r12
     5f8:	08 95       	ret

000005fa <initLanyard>:
uint8_t         lanyardCnt = 0;
uint8_t         lanyardState = TRUE;
uint16_t        lanyardLastActive = 0;

void initLanyard() {
    lanyardPos      = 0;
     5fa:	10 92 36 38 	sts	0x3836, r1	; 0x803836 <lanyardPos>
    lanyardCnt      = 0;
     5fe:	10 92 35 38 	sts	0x3835, r1	; 0x803835 <lanyardCnt>
    lanyardState    = TRUE;
     602:	81 e0       	ldi	r24, 0x01	; 1
     604:	80 93 02 38 	sts	0x3802, r24	; 0x803802 <lanyardState>
    iLED[CAT]       = 0;
     608:	e0 91 62 be 	lds	r30, 0xBE62	; 0x80be62 <__bss_end+0x8348>
     60c:	f0 e0       	ldi	r31, 0x00	; 0
     60e:	e6 53       	subi	r30, 0x36	; 54
     610:	f5 4c       	sbci	r31, 0xC5	; 197
     612:	10 82       	st	Z, r1
    iLED[EYE[G][L]] = 0;
     614:	e0 91 73 be 	lds	r30, 0xBE73	; 0x80be73 <__bss_end+0x8359>
     618:	f0 e0       	ldi	r31, 0x00	; 0
     61a:	e6 53       	subi	r30, 0x36	; 54
     61c:	f5 4c       	sbci	r31, 0xC5	; 197
     61e:	10 82       	st	Z, r1
    iLED[EYE[G][R]] = 0;
     620:	e0 91 72 be 	lds	r30, 0xBE72	; 0x80be72 <__bss_end+0x8358>
     624:	f0 e0       	ldi	r31, 0x00	; 0
     626:	e6 53       	subi	r30, 0x36	; 54
     628:	f5 4c       	sbci	r31, 0xC5	; 197
     62a:	10 82       	st	Z, r1
    iLED[EYE[R][L]] = 0;
     62c:	e0 91 71 be 	lds	r30, 0xBE71	; 0x80be71 <__bss_end+0x8357>
     630:	f0 e0       	ldi	r31, 0x00	; 0
     632:	e6 53       	subi	r30, 0x36	; 54
     634:	f5 4c       	sbci	r31, 0xC5	; 197
     636:	10 82       	st	Z, r1
    iLED[EYE[R][R]] = 0;
     638:	e0 91 70 be 	lds	r30, 0xBE70	; 0x80be70 <__bss_end+0x8356>
     63c:	f0 e0       	ldi	r31, 0x00	; 0
     63e:	e6 53       	subi	r30, 0x36	; 54
     640:	f5 4c       	sbci	r31, 0xC5	; 197
     642:	10 82       	st	Z, r1
     644:	aa e7       	ldi	r26, 0x7A	; 122
     646:	be eb       	ldi	r27, 0xBE	; 190
    for (int i=0; i<6; i++ )
        iLED[HCKR[G][i]] = 0;
     648:	ed 91       	ld	r30, X+
     64a:	f0 e0       	ldi	r31, 0x00	; 0
     64c:	e6 53       	subi	r30, 0x36	; 54
     64e:	f5 4c       	sbci	r31, 0xC5	; 197
     650:	10 82       	st	Z, r1
    iLED[CAT]       = 0;
    iLED[EYE[G][L]] = 0;
    iLED[EYE[G][R]] = 0;
    iLED[EYE[R][L]] = 0;
    iLED[EYE[R][R]] = 0;
    for (int i=0; i<6; i++ )
     652:	8e eb       	ldi	r24, 0xBE	; 190
     654:	a0 38       	cpi	r26, 0x80	; 128
     656:	b8 07       	cpc	r27, r24
     658:	b9 f7       	brne	.-18     	; 0x648 <initLanyard+0x4e>
        iLED[HCKR[G][i]] = 0;
}
     65a:	08 95       	ret

0000065c <LanyardCode>:

// Main game loop
uint8_t LanyardCode(){
     65c:	cf 93       	push	r28
    if (gameNow == LANYARD && idleTimeout(lanyardLastActive,LANYARD_MAX_IDLE)) {
     65e:	80 91 3c 38 	lds	r24, 0x383C	; 0x80383c <gameNow>
     662:	83 30       	cpi	r24, 0x03	; 3
     664:	91 f4       	brne	.+36     	; 0x68a <LanyardCode+0x2e>
     666:	6a e0       	ldi	r22, 0x0A	; 10
     668:	70 e0       	ldi	r23, 0x00	; 0
     66a:	80 91 33 38 	lds	r24, 0x3833	; 0x803833 <lanyardLastActive>
     66e:	90 91 34 38 	lds	r25, 0x3834	; 0x803834 <lanyardLastActive+0x1>
     672:	0e 94 71 0d 	call	0x1ae2	; 0x1ae2 <idleTimeout>
     676:	88 23       	and	r24, r24
     678:	41 f0       	breq	.+16     	; 0x68a <LanyardCode+0x2e>
        /* clean up maze game and go back to text game */
        initLanyard();
     67a:	bf df       	rcall	.-130    	; 0x5fa <initLanyard>
        gameNow = TEXT;
     67c:	10 92 3c 38 	sts	0x383C, r1	; 0x80383c <gameNow>
        effect = 0;
     680:	10 92 3a 38 	sts	0x383A, r1	; 0x80383a <effect>
     684:	10 92 3b 38 	sts	0x383B, r1	; 0x80383b <effect+0x1>
        return 0;
     688:	94 c0       	rjmp	.+296    	; 0x7b2 <LanyardCode+0x156>
    }

    if (CheckState(LANYARD_COMPLETED))
     68a:	8b e7       	ldi	r24, 0x7B	; 123
     68c:	14 d7       	rcall	.+3624   	; 0x14b6 <CheckState>
     68e:	81 11       	cpse	r24, r1
     690:	90 c0       	rjmp	.+288    	; 0x7b2 <LanyardCode+0x156>
        return 0;

    if ( gameNow != TEXT && gameNow != LANYARD )
     692:	80 91 3c 38 	lds	r24, 0x383C	; 0x80383c <gameNow>
     696:	88 23       	and	r24, r24
     698:	19 f0       	breq	.+6      	; 0x6a0 <LanyardCode+0x44>
     69a:	83 30       	cpi	r24, 0x03	; 3
     69c:	09 f0       	breq	.+2      	; 0x6a0 <LanyardCode+0x44>
     69e:	89 c0       	rjmp	.+274    	; 0x7b2 <LanyardCode+0x156>
        return 0;

    /* activate led for buttonstate */
    iLED[CAT] = (buttonState==0xff ? 0 : dimValue);
     6a0:	c0 91 62 be 	lds	r28, 0xBE62	; 0x80be62 <__bss_end+0x8348>
     6a4:	ec 2f       	mov	r30, r28
     6a6:	f0 e0       	ldi	r31, 0x00	; 0
     6a8:	80 91 08 38 	lds	r24, 0x3808	; 0x803808 <buttonState>
     6ac:	8f 3f       	cpi	r24, 0xFF	; 255
     6ae:	19 f0       	breq	.+6      	; 0x6b6 <LanyardCode+0x5a>
     6b0:	90 91 0a 38 	lds	r25, 0x380A	; 0x80380a <dimValue>
     6b4:	01 c0       	rjmp	.+2      	; 0x6b8 <LanyardCode+0x5c>
     6b6:	90 e0       	ldi	r25, 0x00	; 0
     6b8:	e6 53       	subi	r30, 0x36	; 54
     6ba:	f5 4c       	sbci	r31, 0xC5	; 197
     6bc:	90 83       	st	Z, r25

    if (buttonState == 0xff)
     6be:	8f 3f       	cpi	r24, 0xFF	; 255
     6c0:	09 f4       	brne	.+2      	; 0x6c4 <LanyardCode+0x68>
     6c2:	77 c0       	rjmp	.+238    	; 0x7b2 <LanyardCode+0x156>
        return 0;

    if (buttonState == lastButtonState)
     6c4:	90 91 07 38 	lds	r25, 0x3807	; 0x803807 <lastButtonState>
     6c8:	89 17       	cp	r24, r25
     6ca:	09 f4       	brne	.+2      	; 0x6ce <LanyardCode+0x72>
     6cc:	72 c0       	rjmp	.+228    	; 0x7b2 <LanyardCode+0x156>
        return 0;

    lanyardLastActive = getClock();
     6ce:	0e 94 62 0d 	call	0x1ac4	; 0x1ac4 <getClock>
     6d2:	80 93 33 38 	sts	0x3833, r24	; 0x803833 <lanyardLastActive>
     6d6:	90 93 34 38 	sts	0x3834, r25	; 0x803834 <lanyardLastActive+0x1>

    if (lastButtonState == 0xff){
     6da:	80 91 07 38 	lds	r24, 0x3807	; 0x803807 <lastButtonState>
     6de:	8f 3f       	cpi	r24, 0xFF	; 255
     6e0:	09 f0       	breq	.+2      	; 0x6e4 <LanyardCode+0x88>
     6e2:	67 c0       	rjmp	.+206    	; 0x7b2 <LanyardCode+0x156>
        effect = 0x13f + (buttonState << 5);
     6e4:	20 91 08 38 	lds	r18, 0x3808	; 0x803808 <buttonState>
     6e8:	30 e2       	ldi	r19, 0x20	; 32
     6ea:	23 9f       	mul	r18, r19
     6ec:	c0 01       	movw	r24, r0
     6ee:	11 24       	eor	r1, r1
     6f0:	81 5c       	subi	r24, 0xC1	; 193
     6f2:	9e 4f       	sbci	r25, 0xFE	; 254
     6f4:	80 93 3a 38 	sts	0x383A, r24	; 0x80383a <effect>
     6f8:	90 93 3b 38 	sts	0x383B, r25	; 0x80383b <effect+0x1>
        gameNow = LANYARD;
     6fc:	83 e0       	ldi	r24, 0x03	; 3
     6fe:	80 93 3c 38 	sts	0x383C, r24	; 0x80383c <gameNow>

        if (buttonState == lanyardCode[lanyardPos]) {
     702:	80 91 36 38 	lds	r24, 0x3836	; 0x803836 <lanyardPos>
     706:	e8 2f       	mov	r30, r24
     708:	f0 e0       	ldi	r31, 0x00	; 0
     70a:	e6 5b       	subi	r30, 0xB6	; 182
     70c:	f1 44       	sbci	r31, 0x41	; 65
     70e:	90 81       	ld	r25, Z
     710:	29 13       	cpse	r18, r25
     712:	12 c0       	rjmp	.+36     	; 0x738 <LanyardCode+0xdc>
            lanyardState &= TRUE;
     714:	90 91 02 38 	lds	r25, 0x3802	; 0x803802 <lanyardState>
     718:	91 70       	andi	r25, 0x01	; 1
     71a:	90 93 02 38 	sts	0x3802, r25	; 0x803802 <lanyardState>
            iLED[EYE[R][L]] = 0;
     71e:	e0 91 71 be 	lds	r30, 0xBE71	; 0x80be71 <__bss_end+0x8357>
     722:	f0 e0       	ldi	r31, 0x00	; 0
     724:	e6 53       	subi	r30, 0x36	; 54
     726:	f5 4c       	sbci	r31, 0xC5	; 197
     728:	10 82       	st	Z, r1
            iLED[EYE[R][R]] = 0;
     72a:	e0 91 70 be 	lds	r30, 0xBE70	; 0x80be70 <__bss_end+0x8356>
     72e:	f0 e0       	ldi	r31, 0x00	; 0
     730:	e6 53       	subi	r30, 0x36	; 54
     732:	f5 4c       	sbci	r31, 0xC5	; 197
     734:	10 82       	st	Z, r1
     736:	09 c0       	rjmp	.+18     	; 0x74a <LanyardCode+0xee>
        } else {
            lanyardState = FALSE;
     738:	10 92 02 38 	sts	0x3802, r1	; 0x803802 <lanyardState>
            if (lanyardPos < 4 ) {
     73c:	84 30       	cpi	r24, 0x04	; 4
                initLanyard();
     73e:	28 f4       	brcc	.+10     	; 0x74a <LanyardCode+0xee>
     740:	5c df       	rcall	.-328    	; 0x5fa <initLanyard>
                gameNow         = BASTET;
     742:	82 e0       	ldi	r24, 0x02	; 2
     744:	80 93 3c 38 	sts	0x383C, r24	; 0x80383c <gameNow>
                return 0;
     748:	34 c0       	rjmp	.+104    	; 0x7b2 <LanyardCode+0x156>
            }
        }
        lanyardPos++;
     74a:	8f 5f       	subi	r24, 0xFF	; 255
     74c:	80 93 36 38 	sts	0x3836, r24	; 0x803836 <lanyardPos>
        lanyardCnt++;            
     750:	90 91 35 38 	lds	r25, 0x3835	; 0x803835 <lanyardCnt>
     754:	9f 5f       	subi	r25, 0xFF	; 255
        if (lanyardCnt >= 4) {
     756:	94 30       	cpi	r25, 0x04	; 4
     758:	18 f4       	brcc	.+6      	; 0x760 <LanyardCode+0x104>
                gameNow         = BASTET;
                return 0;
            }
        }
        lanyardPos++;
        lanyardCnt++;            
     75a:	90 93 35 38 	sts	0x3835, r25	; 0x803835 <lanyardCnt>
     75e:	29 c0       	rjmp	.+82     	; 0x7b2 <LanyardCode+0x156>
        if (lanyardCnt >= 4) {
            lanyardCnt = 0;
     760:	10 92 35 38 	sts	0x3835, r1	; 0x803835 <lanyardCnt>
            if (lanyardState == TRUE) {
     764:	90 91 02 38 	lds	r25, 0x3802	; 0x803802 <lanyardState>
     768:	91 30       	cpi	r25, 0x01	; 1
     76a:	e1 f4       	brne	.+56     	; 0x7a4 <LanyardCode+0x148>
                if ((lanyardPos % 4) == 0) {
     76c:	98 2f       	mov	r25, r24
     76e:	93 70       	andi	r25, 0x03	; 3
     770:	69 f4       	brne	.+26     	; 0x78c <LanyardCode+0x130>
                    iLED[HCKR[G][(lanyardPos>>2)-1]] = dimValue;
     772:	e8 2f       	mov	r30, r24
     774:	e6 95       	lsr	r30
     776:	e6 95       	lsr	r30
     778:	f0 e0       	ldi	r31, 0x00	; 0
     77a:	ec 58       	subi	r30, 0x8C	; 140
     77c:	f1 44       	sbci	r31, 0x41	; 65
     77e:	e5 81       	ldd	r30, Z+5	; 0x05
     780:	f0 e0       	ldi	r31, 0x00	; 0
     782:	90 91 0a 38 	lds	r25, 0x380A	; 0x80380a <dimValue>
     786:	e6 53       	subi	r30, 0x36	; 54
     788:	f5 4c       	sbci	r31, 0xC5	; 197
     78a:	90 83       	st	Z, r25
                }
                if (lanyardPos == sizeof(lanyardCode)) {
     78c:	88 31       	cpi	r24, 0x18	; 24
                    UpdateState(LANYARD_COMPLETED);
     78e:	89 f4       	brne	.+34     	; 0x7b2 <LanyardCode+0x156>
     790:	8b e7       	ldi	r24, 0x7B	; 123
     792:	87 d6       	rcall	.+3342   	; 0x14a2 <UpdateState>
                    iLED[CAT]       = 0;
     794:	ec 2f       	mov	r30, r28
     796:	f0 e0       	ldi	r31, 0x00	; 0
     798:	e6 53       	subi	r30, 0x36	; 54
     79a:	f5 4c       	sbci	r31, 0xC5	; 197
                    effect = 0x42;
     79c:	10 82       	st	Z, r1
     79e:	82 e4       	ldi	r24, 0x42	; 66
     7a0:	90 e0       	ldi	r25, 0x00	; 0
                    /*TODO state = STATE_MUSIC;*/
                }
            } else {
                initLanyard();
     7a2:	03 c0       	rjmp	.+6      	; 0x7aa <LanyardCode+0x14e>
     7a4:	2a df       	rcall	.-428    	; 0x5fa <initLanyard>
                effect = 0x21;
     7a6:	81 e2       	ldi	r24, 0x21	; 33
     7a8:	90 e0       	ldi	r25, 0x00	; 0
     7aa:	80 93 3a 38 	sts	0x383A, r24	; 0x80383a <effect>
     7ae:	90 93 3b 38 	sts	0x383B, r25	; 0x80383b <effect+0x1>
            }
        }
    }

    return 0;
}
     7b2:	80 e0       	ldi	r24, 0x00	; 0
     7b4:	cf 91       	pop	r28
     7b6:	08 95       	ret

000007b8 <initMaze>:
uint8_t         mazeState = TRUE;
uint8_t         inverted  = FALSE;
uint16_t        mazeLastActive = 0;

void initMaze() {
    mazeHckrPos = 0;
     7b8:	10 92 49 38 	sts	0x3849, r1	; 0x803849 <mazeHckrPos>
    mazePos = 0;
     7bc:	10 92 4a 38 	sts	0x384A, r1	; 0x80384a <mazePos>
    mazeCnt = 0;
     7c0:	10 92 48 38 	sts	0x3848, r1	; 0x803848 <mazeCnt>
    mazeState = TRUE;
     7c4:	81 e0       	ldi	r24, 0x01	; 1
     7c6:	80 93 0b 38 	sts	0x380B, r24	; 0x80380b <mazeState>
    inverted  = FALSE;
     7ca:	10 92 47 38 	sts	0x3847, r1	; 0x803847 <inverted>
    iLED[CAT]       = 0;
     7ce:	e0 91 62 be 	lds	r30, 0xBE62	; 0x80be62 <__bss_end+0x8348>
     7d2:	f0 e0       	ldi	r31, 0x00	; 0
     7d4:	e6 53       	subi	r30, 0x36	; 54
     7d6:	f5 4c       	sbci	r31, 0xC5	; 197
     7d8:	10 82       	st	Z, r1
    iLED[EYE[G][L]] = 0;
     7da:	e0 91 73 be 	lds	r30, 0xBE73	; 0x80be73 <__bss_end+0x8359>
     7de:	f0 e0       	ldi	r31, 0x00	; 0
     7e0:	e6 53       	subi	r30, 0x36	; 54
     7e2:	f5 4c       	sbci	r31, 0xC5	; 197
     7e4:	10 82       	st	Z, r1
    iLED[EYE[G][R]] = 0;
     7e6:	e0 91 72 be 	lds	r30, 0xBE72	; 0x80be72 <__bss_end+0x8358>
     7ea:	f0 e0       	ldi	r31, 0x00	; 0
     7ec:	e6 53       	subi	r30, 0x36	; 54
     7ee:	f5 4c       	sbci	r31, 0xC5	; 197
     7f0:	10 82       	st	Z, r1
    iLED[EYE[R][L]] = 0;
     7f2:	e0 91 71 be 	lds	r30, 0xBE71	; 0x80be71 <__bss_end+0x8357>
     7f6:	f0 e0       	ldi	r31, 0x00	; 0
     7f8:	e6 53       	subi	r30, 0x36	; 54
     7fa:	f5 4c       	sbci	r31, 0xC5	; 197
     7fc:	10 82       	st	Z, r1
    iLED[EYE[R][R]] = 0;
     7fe:	e0 91 70 be 	lds	r30, 0xBE70	; 0x80be70 <__bss_end+0x8356>
     802:	f0 e0       	ldi	r31, 0x00	; 0
     804:	e6 53       	subi	r30, 0x36	; 54
     806:	f5 4c       	sbci	r31, 0xC5	; 197
     808:	10 82       	st	Z, r1
     80a:	aa e7       	ldi	r26, 0x7A	; 122
     80c:	be eb       	ldi	r27, 0xBE	; 190
    for (int i=0; i<6; i++ )
        iLED[HCKR[G][i]] = 0;
     80e:	ed 91       	ld	r30, X+
     810:	f0 e0       	ldi	r31, 0x00	; 0
     812:	e6 53       	subi	r30, 0x36	; 54
     814:	f5 4c       	sbci	r31, 0xC5	; 197
     816:	10 82       	st	Z, r1
    iLED[CAT]       = 0;
    iLED[EYE[G][L]] = 0;
    iLED[EYE[G][R]] = 0;
    iLED[EYE[R][L]] = 0;
    iLED[EYE[R][R]] = 0;
    for (int i=0; i<6; i++ )
     818:	8e eb       	ldi	r24, 0xBE	; 190
     81a:	a0 38       	cpi	r26, 0x80	; 128
     81c:	b8 07       	cpc	r27, r24
     81e:	b9 f7       	brne	.-18     	; 0x80e <initMaze+0x56>
        iLED[HCKR[G][i]] = 0;
}
     820:	08 95       	ret

00000822 <showFieldStrength>:

void showFieldStrength(int16_t val) {
    int16_t tmp;

    tmp = abs(val);
     822:	97 ff       	sbrs	r25, 7
     824:	03 c0       	rjmp	.+6      	; 0x82c <showFieldStrength+0xa>
     826:	91 95       	neg	r25
     828:	81 95       	neg	r24
     82a:	91 09       	sbc	r25, r1

    if ( tmp*2 > HALL_LOW )
     82c:	9c 01       	movw	r18, r24
     82e:	22 0f       	add	r18, r18
     830:	33 1f       	adc	r19, r19
     832:	29 37       	cpi	r18, 0x79	; 121
     834:	31 05       	cpc	r19, r1
     836:	1c f0       	brlt	.+6      	; 0x83e <showFieldStrength+0x1c>
        gameNow = MAZE;
     838:	41 e0       	ldi	r20, 0x01	; 1
     83a:	40 93 3c 38 	sts	0x383C, r20	; 0x80383c <gameNow>

    if (gameNow == MAZE) {
     83e:	40 91 3c 38 	lds	r20, 0x383C	; 0x80383c <gameNow>
     842:	41 30       	cpi	r20, 0x01	; 1
     844:	21 f5       	brne	.+72     	; 0x88e <showFieldStrength+0x6c>
        if ( tmp*2 < HALL_LOW )
     846:	28 37       	cpi	r18, 0x78	; 120
     848:	31 05       	cpc	r19, r1
     84a:	1c f4       	brge	.+6      	; 0x852 <showFieldStrength+0x30>
            WingBar(0,0);
     84c:	60 e0       	ldi	r22, 0x00	; 0
     84e:	80 e0       	ldi	r24, 0x00	; 0
     850:	1d c0       	rjmp	.+58     	; 0x88c <showFieldStrength+0x6a>
        else if ( tmp   < HALL_LOW )
     852:	88 37       	cpi	r24, 0x78	; 120
     854:	91 05       	cpc	r25, r1
     856:	1c f4       	brge	.+6      	; 0x85e <showFieldStrength+0x3c>
            WingBar(1,1);
     858:	61 e0       	ldi	r22, 0x01	; 1
     85a:	81 e0       	ldi	r24, 0x01	; 1
     85c:	17 c0       	rjmp	.+46     	; 0x88c <showFieldStrength+0x6a>
        else if ( tmp*2 < HALL_HIGH )
     85e:	2c 32       	cpi	r18, 0x2C	; 44
     860:	41 e0       	ldi	r20, 0x01	; 1
     862:	34 07       	cpc	r19, r20
     864:	1c f4       	brge	.+6      	; 0x86c <showFieldStrength+0x4a>
            WingBar(2,2);
     866:	62 e0       	ldi	r22, 0x02	; 2
     868:	82 e0       	ldi	r24, 0x02	; 2
     86a:	10 c0       	rjmp	.+32     	; 0x88c <showFieldStrength+0x6a>
        else if ( tmp*3 < HALL_HIGH*2 )
     86c:	28 0f       	add	r18, r24
     86e:	39 1f       	adc	r19, r25
     870:	28 35       	cpi	r18, 0x58	; 88
     872:	32 40       	sbci	r19, 0x02	; 2
     874:	1c f4       	brge	.+6      	; 0x87c <showFieldStrength+0x5a>
            WingBar(3,3);
     876:	63 e0       	ldi	r22, 0x03	; 3
     878:	83 e0       	ldi	r24, 0x03	; 3
     87a:	08 c0       	rjmp	.+16     	; 0x88c <showFieldStrength+0x6a>
        else if ( tmp   < HALL_HIGH )
     87c:	8c 32       	cpi	r24, 0x2C	; 44
     87e:	91 40       	sbci	r25, 0x01	; 1
     880:	1c f4       	brge	.+6      	; 0x888 <showFieldStrength+0x66>
            WingBar(4,4);
     882:	64 e0       	ldi	r22, 0x04	; 4
     884:	84 e0       	ldi	r24, 0x04	; 4
     886:	02 c0       	rjmp	.+4      	; 0x88c <showFieldStrength+0x6a>
        else
            WingBar(5,5);
     888:	65 e0       	ldi	r22, 0x05	; 5
     88a:	85 e0       	ldi	r24, 0x05	; 5
     88c:	ed c6       	rjmp	.+3546   	; 0x1668 <WingBar>
     88e:	08 95       	ret

00000890 <MagnetMaze>:
    }
}

// Main game loop
uint8_t MagnetMaze(){
     890:	cf 93       	push	r28
     892:	df 93       	push	r29
    if (gameNow == MAZE && idleTimeout(mazeLastActive,MAZE_MAX_IDLE)) {
     894:	80 91 3c 38 	lds	r24, 0x383C	; 0x80383c <gameNow>
     898:	81 30       	cpi	r24, 0x01	; 1
     89a:	91 f4       	brne	.+36     	; 0x8c0 <MagnetMaze+0x30>
     89c:	6a e0       	ldi	r22, 0x0A	; 10
     89e:	70 e0       	ldi	r23, 0x00	; 0
     8a0:	80 91 45 38 	lds	r24, 0x3845	; 0x803845 <mazeLastActive>
     8a4:	90 91 46 38 	lds	r25, 0x3846	; 0x803846 <mazeLastActive+0x1>
     8a8:	0e 94 71 0d 	call	0x1ae2	; 0x1ae2 <idleTimeout>
     8ac:	88 23       	and	r24, r24
     8ae:	41 f0       	breq	.+16     	; 0x8c0 <MagnetMaze+0x30>
        /* clean up maze game and go back to text game */
        initMaze();
     8b0:	83 df       	rcall	.-250    	; 0x7b8 <initMaze>
        gameNow = TEXT;
     8b2:	10 92 3c 38 	sts	0x383C, r1	; 0x80383c <gameNow>
        effect = 0;
     8b6:	10 92 3a 38 	sts	0x383A, r1	; 0x80383a <effect>
     8ba:	10 92 3b 38 	sts	0x383B, r1	; 0x80383b <effect+0x1>
        return 0;
     8be:	dc c0       	rjmp	.+440    	; 0xa78 <MagnetMaze+0x1e8>
    }
        
    if (CheckState(MAZE_INACTIVE))
     8c0:	87 ef       	ldi	r24, 0xF7	; 247
     8c2:	f9 d5       	rcall	.+3058   	; 0x14b6 <CheckState>
     8c4:	81 11       	cpse	r24, r1
     8c6:	d8 c0       	rjmp	.+432    	; 0xa78 <MagnetMaze+0x1e8>
        return 0;

    if (CheckState(MAZE_COMPLETED))
     8c8:	8d e7       	ldi	r24, 0x7D	; 125
     8ca:	f5 d5       	rcall	.+3050   	; 0x14b6 <CheckState>
     8cc:	81 11       	cpse	r24, r1
     8ce:	d4 c0       	rjmp	.+424    	; 0xa78 <MagnetMaze+0x1e8>
     8d0:	80 91 3c 38 	lds	r24, 0x383C	; 0x80383c <gameNow>
        return 0;

    if ( (gameNow != TEXT) && (gameNow != MAZE) )
     8d4:	82 30       	cpi	r24, 0x02	; 2
     8d6:	08 f0       	brcs	.+2      	; 0x8da <MagnetMaze+0x4a>
     8d8:	cf c0       	rjmp	.+414    	; 0xa78 <MagnetMaze+0x1e8>
     8da:	80 91 f3 3a 	lds	r24, 0x3AF3	; 0x803af3 <calHall>
        return 0;

    if (calHall == 0)
     8de:	90 91 f4 3a 	lds	r25, 0x3AF4	; 0x803af4 <calHall+0x1>
     8e2:	89 2b       	or	r24, r25
     8e4:	41 f4       	brne	.+16     	; 0x8f6 <MagnetMaze+0x66>
     8e6:	80 91 bb 3a 	lds	r24, 0x3ABB	; 0x803abb <adcHall>
        calHall = adcHall;
     8ea:	90 91 bc 3a 	lds	r25, 0x3ABC	; 0x803abc <adcHall+0x1>
     8ee:	80 93 f3 3a 	sts	0x3AF3, r24	; 0x803af3 <calHall>
     8f2:	90 93 f4 3a 	sts	0x3AF4, r25	; 0x803af4 <calHall+0x1>
     8f6:	c0 91 bb 3a 	lds	r28, 0x3ABB	; 0x803abb <adcHall>

    int16_t valHall = adcHall - calHall;
     8fa:	d0 91 bc 3a 	lds	r29, 0x3ABC	; 0x803abc <adcHall+0x1>
     8fe:	80 91 f3 3a 	lds	r24, 0x3AF3	; 0x803af3 <calHall>
     902:	90 91 f4 3a 	lds	r25, 0x3AF4	; 0x803af4 <calHall+0x1>
     906:	c8 1b       	sub	r28, r24
     908:	d9 0b       	sbc	r29, r25
    showFieldStrength(valHall);
     90a:	ce 01       	movw	r24, r28
     90c:	8a df       	rcall	.-236    	; 0x822 <showFieldStrength>
     90e:	80 91 4c 38 	lds	r24, 0x384C	; 0x80384c <curHallState>

    switch (curHallState) {
     912:	81 30       	cpi	r24, 0x01	; 1
     914:	89 f0       	breq	.+34     	; 0x938 <MagnetMaze+0xa8>
     916:	18 f0       	brcs	.+6      	; 0x91e <MagnetMaze+0x8e>
     918:	82 30       	cpi	r24, 0x02	; 2
     91a:	c1 f0       	breq	.+48     	; 0x94c <MagnetMaze+0xbc>
     91c:	1f c0       	rjmp	.+62     	; 0x95c <MagnetMaze+0xcc>
     91e:	c4 3d       	cpi	r28, 0xD4	; 212
        case 0:
            if ( valHall + HALL_HIGH < 0 ) {
     920:	9e ef       	ldi	r25, 0xFE	; 254
     922:	d9 07       	cpc	r29, r25
     924:	14 f4       	brge	.+4      	; 0x92a <MagnetMaze+0x9a>
     926:	91 e0       	ldi	r25, 0x01	; 1
                newHallState = 1;
     928:	04 c0       	rjmp	.+8      	; 0x932 <MagnetMaze+0xa2>
     92a:	cd 32       	cpi	r28, 0x2D	; 45
            } else if ( valHall - HALL_HIGH > 0 ) {
     92c:	d1 40       	sbci	r29, 0x01	; 1
     92e:	5c f0       	brlt	.+22     	; 0x946 <MagnetMaze+0xb6>
     930:	92 e0       	ldi	r25, 0x02	; 2
                newHallState = 2;
     932:	90 93 4b 38 	sts	0x384B, r25	; 0x80384b <newHallState>
     936:	12 c0       	rjmp	.+36     	; 0x95c <MagnetMaze+0xcc>
     938:	cd 32       	cpi	r28, 0x2D	; 45
                newHallState = 0;
            }
            break;
        
        case 1:
            if ( valHall - HALL_HIGH > 0 ) {
     93a:	91 e0       	ldi	r25, 0x01	; 1
     93c:	d9 07       	cpc	r29, r25
     93e:	c4 f7       	brge	.-16     	; 0x930 <MagnetMaze+0xa0>
     940:	c9 38       	cpi	r28, 0x89	; 137
                newHallState = 2;
            } else if ( valHall + HALL_LOW > 0 ) {
     942:	df 4f       	sbci	r29, 0xFF	; 255
     944:	84 f3       	brlt	.-32     	; 0x926 <MagnetMaze+0x96>
     946:	10 92 4b 38 	sts	0x384B, r1	; 0x80384b <newHallState>
            if ( valHall + HALL_HIGH < 0 ) {
                newHallState = 1;
            } else if ( valHall - HALL_HIGH > 0 ) {
                newHallState = 2;
            } else {
                newHallState = 0;
     94a:	08 c0       	rjmp	.+16     	; 0x95c <MagnetMaze+0xcc>
     94c:	c4 3d       	cpi	r28, 0xD4	; 212
                newHallState = 1;
            }
            break;
        
        case 2:
            if ( valHall + HALL_HIGH < 0 ) {
     94e:	9e ef       	ldi	r25, 0xFE	; 254
     950:	d9 07       	cpc	r29, r25
     952:	4c f3       	brlt	.-46     	; 0x926 <MagnetMaze+0x96>
     954:	c8 37       	cpi	r28, 0x78	; 120
                newHallState = 1;
            } else if ( valHall - HALL_LOW < 0 ) {
     956:	d1 05       	cpc	r29, r1
     958:	b4 f3       	brlt	.-20     	; 0x946 <MagnetMaze+0xb6>
     95a:	ea cf       	rjmp	.-44     	; 0x930 <MagnetMaze+0xa0>
     95c:	c0 91 62 be 	lds	r28, 0xBE62	; 0x80be62 <__bss_end+0x8348>
            }
            break;
    }

    /* Indicate that the magnet was read succesfully */
    iLED[CAT] = (newHallState ? dimValue : 0);
     960:	ec 2f       	mov	r30, r28
     962:	f0 e0       	ldi	r31, 0x00	; 0
     964:	90 91 4b 38 	lds	r25, 0x384B	; 0x80384b <newHallState>
     968:	99 23       	and	r25, r25
     96a:	19 f0       	breq	.+6      	; 0x972 <MagnetMaze+0xe2>
     96c:	20 91 0a 38 	lds	r18, 0x380A	; 0x80380a <dimValue>
     970:	01 c0       	rjmp	.+2      	; 0x974 <MagnetMaze+0xe4>
     972:	20 e0       	ldi	r18, 0x00	; 0
     974:	e6 53       	subi	r30, 0x36	; 54
     976:	f5 4c       	sbci	r31, 0xC5	; 197
     978:	20 83       	st	Z, r18
     97a:	2f e9       	ldi	r18, 0x9F	; 159
    effect = 0x19f;
     97c:	31 e0       	ldi	r19, 0x01	; 1
     97e:	20 93 3a 38 	sts	0x383A, r18	; 0x80383a <effect>
     982:	30 93 3b 38 	sts	0x383B, r19	; 0x80383b <effect+0x1>
     986:	89 17       	cp	r24, r25

    if (newHallState != curHallState) {
     988:	09 f4       	brne	.+2      	; 0x98c <MagnetMaze+0xfc>
     98a:	76 c0       	rjmp	.+236    	; 0xa78 <MagnetMaze+0x1e8>
     98c:	0e 94 62 0d 	call	0x1ac4	; 0x1ac4 <getClock>
        /* keep track of time to enable an idle timeout to exit the game */
        mazeLastActive = getClock();
     990:	80 93 45 38 	sts	0x3845, r24	; 0x803845 <mazeLastActive>
     994:	90 93 46 38 	sts	0x3846, r25	; 0x803846 <mazeLastActive+0x1>
     998:	20 91 4a 38 	lds	r18, 0x384A	; 0x80384a <mazePos>

        /* Make the maze work regardless of badge orientation */
        if ((mazePos == 0) && (newHallState != 0))
     99c:	80 91 4b 38 	lds	r24, 0x384B	; 0x80384b <newHallState>
     9a0:	21 11       	cpse	r18, r1
     9a2:	08 c0       	rjmp	.+16     	; 0x9b4 <MagnetMaze+0x124>
     9a4:	88 23       	and	r24, r24
     9a6:	31 f0       	breq	.+12     	; 0x9b4 <MagnetMaze+0x124>
     9a8:	91 e0       	ldi	r25, 0x01	; 1
            inverted = (newHallState != mazeCode[0]) ? TRUE : FALSE;
     9aa:	81 30       	cpi	r24, 0x01	; 1
     9ac:	09 f4       	brne	.+2      	; 0x9b0 <MagnetMaze+0x120>
     9ae:	90 e0       	ldi	r25, 0x00	; 0
     9b0:	90 93 47 38 	sts	0x3847, r25	; 0x803847 <inverted>
     9b4:	80 93 4c 38 	sts	0x384C, r24	; 0x80384c <curHallState>

        curHallState = newHallState;
     9b8:	88 23       	and	r24, r24
        
        if (curHallState != 0) {
     9ba:	09 f4       	brne	.+2      	; 0x9be <MagnetMaze+0x12e>
     9bc:	5d c0       	rjmp	.+186    	; 0xa78 <MagnetMaze+0x1e8>
     9be:	91 e0       	ldi	r25, 0x01	; 1
            gameNow = MAZE;
     9c0:	90 93 3c 38 	sts	0x383C, r25	; 0x80383c <gameNow>
     9c4:	90 91 47 38 	lds	r25, 0x3847	; 0x803847 <inverted>
            if ( (inverted ? curHallState^3 : curHallState) == mazeCode[mazePos]) {
     9c8:	99 23       	and	r25, r25
     9ca:	11 f0       	breq	.+4      	; 0x9d0 <MagnetMaze+0x140>
     9cc:	93 e0       	ldi	r25, 0x03	; 3
     9ce:	89 27       	eor	r24, r25
     9d0:	90 e0       	ldi	r25, 0x00	; 0
     9d2:	e2 2f       	mov	r30, r18
     9d4:	f0 e0       	ldi	r31, 0x00	; 0
     9d6:	e0 56       	subi	r30, 0x60	; 96
     9d8:	f1 44       	sbci	r31, 0x41	; 65
     9da:	40 81       	ld	r20, Z
     9dc:	50 e0       	ldi	r21, 0x00	; 0
     9de:	84 17       	cp	r24, r20
     9e0:	95 07       	cpc	r25, r21
     9e2:	91 f4       	brne	.+36     	; 0xa08 <MagnetMaze+0x178>
     9e4:	80 91 0b 38 	lds	r24, 0x380B	; 0x80380b <mazeState>
                mazeState &= TRUE;
     9e8:	81 70       	andi	r24, 0x01	; 1
     9ea:	80 93 0b 38 	sts	0x380B, r24	; 0x80380b <mazeState>
     9ee:	e0 91 71 be 	lds	r30, 0xBE71	; 0x80be71 <__bss_end+0x8357>
                iLED[EYE[R][L]] = 0;
     9f2:	f0 e0       	ldi	r31, 0x00	; 0
     9f4:	e6 53       	subi	r30, 0x36	; 54
     9f6:	f5 4c       	sbci	r31, 0xC5	; 197
     9f8:	10 82       	st	Z, r1
     9fa:	e0 91 70 be 	lds	r30, 0xBE70	; 0x80be70 <__bss_end+0x8356>
                iLED[EYE[R][R]] = 0;
     9fe:	f0 e0       	ldi	r31, 0x00	; 0
     a00:	e6 53       	subi	r30, 0x36	; 54
     a02:	f5 4c       	sbci	r31, 0xC5	; 197
     a04:	10 82       	st	Z, r1
     a06:	02 c0       	rjmp	.+4      	; 0xa0c <MagnetMaze+0x17c>
     a08:	10 92 0b 38 	sts	0x380B, r1	; 0x80380b <mazeState>
            } else {
                mazeState = FALSE;
     a0c:	2f 5f       	subi	r18, 0xFF	; 255
            }
            mazePos++;
     a0e:	20 93 4a 38 	sts	0x384A, r18	; 0x80384a <mazePos>
     a12:	80 91 48 38 	lds	r24, 0x3848	; 0x803848 <mazeCnt>
            mazeCnt++;            
     a16:	8f 5f       	subi	r24, 0xFF	; 255
     a18:	83 30       	cpi	r24, 0x03	; 3
            if (mazeCnt >= 3) {
     a1a:	18 f4       	brcc	.+6      	; 0xa22 <MagnetMaze+0x192>
     a1c:	80 93 48 38 	sts	0x3848, r24	; 0x803848 <mazeCnt>
                iLED[EYE[R][R]] = 0;
            } else {
                mazeState = FALSE;
            }
            mazePos++;
            mazeCnt++;            
     a20:	2b c0       	rjmp	.+86     	; 0xa78 <MagnetMaze+0x1e8>
     a22:	10 92 48 38 	sts	0x3848, r1	; 0x803848 <mazeCnt>
            if (mazeCnt >= 3) {
                mazeCnt = 0;
     a26:	80 91 0b 38 	lds	r24, 0x380B	; 0x80380b <mazeState>
                if (mazeState == TRUE) {
     a2a:	81 30       	cpi	r24, 0x01	; 1
     a2c:	e1 f4       	brne	.+56     	; 0xa66 <MagnetMaze+0x1d6>
     a2e:	80 91 49 38 	lds	r24, 0x3849	; 0x803849 <mazeHckrPos>
                    iLED[HCKR[G][mazeHckrPos]] = dimValue;
     a32:	e8 2f       	mov	r30, r24
     a34:	f0 e0       	ldi	r31, 0x00	; 0
     a36:	ec 58       	subi	r30, 0x8C	; 140
     a38:	f1 44       	sbci	r31, 0x41	; 65
     a3a:	e6 81       	ldd	r30, Z+6	; 0x06
     a3c:	f0 e0       	ldi	r31, 0x00	; 0
     a3e:	90 91 0a 38 	lds	r25, 0x380A	; 0x80380a <dimValue>
     a42:	e6 53       	subi	r30, 0x36	; 54
     a44:	f5 4c       	sbci	r31, 0xC5	; 197
     a46:	90 83       	st	Z, r25
     a48:	8f 5f       	subi	r24, 0xFF	; 255
                    mazeHckrPos++;
     a4a:	80 93 49 38 	sts	0x3849, r24	; 0x803849 <mazeHckrPos>
                    if (mazePos == sizeof(mazeCode)) {
     a4e:	22 31       	cpi	r18, 0x12	; 18
     a50:	99 f4       	brne	.+38     	; 0xa78 <MagnetMaze+0x1e8>
                        UpdateState(MAZE_COMPLETED);
     a52:	8d e7       	ldi	r24, 0x7D	; 125
     a54:	26 d5       	rcall	.+2636   	; 0x14a2 <UpdateState>
     a56:	ec 2f       	mov	r30, r28
                        iLED[CAT]       = 0;
     a58:	f0 e0       	ldi	r31, 0x00	; 0
     a5a:	e6 53       	subi	r30, 0x36	; 54
     a5c:	f5 4c       	sbci	r31, 0xC5	; 197
     a5e:	10 82       	st	Z, r1
                        effect = 0x42;
     a60:	82 e4       	ldi	r24, 0x42	; 66
     a62:	90 e0       	ldi	r25, 0x00	; 0
     a64:	05 c0       	rjmp	.+10     	; 0xa70 <MagnetMaze+0x1e0>
                        /*TODO state = STATE_MUSIC;*/
                    }
                } else {
                    initMaze();
     a66:	a8 de       	rcall	.-688    	; 0x7b8 <initMaze>
     a68:	10 92 3c 38 	sts	0x383C, r1	; 0x80383c <gameNow>
                    gameNow   = TEXT;
     a6c:	81 e2       	ldi	r24, 0x21	; 33
                    effect = 0x21;
     a6e:	90 e0       	ldi	r25, 0x00	; 0
     a70:	80 93 3a 38 	sts	0x383A, r24	; 0x80383a <effect>
     a74:	90 93 3b 38 	sts	0x383B, r25	; 0x80383b <effect+0x1>
     a78:	80 e0       	ldi	r24, 0x00	; 0
                }
            }
        }
    }
    return 0;
}
     a7a:	df 91       	pop	r29
     a7c:	cf 91       	pop	r28
     a7e:	08 95       	ret

00000a80 <Setup>:
     a80:	cf 93       	push	r28
volatile uint16_t tmp16bit;    
volatile uint8_t mask[8] = {0x01, 0x03, 0x07, 0x0f, 0x1f, 0x3f, 0x7f, 0xff};
uint8_t HeartCount = 0;
uint8_t LedCount = 0;

void Setup(){
     a82:	df 93       	push	r29
    cli();
     a84:	f8 94       	cli

    //Set up clock at 10MHz
    CCP = CCP_IOREG_gc;
     a86:	88 ed       	ldi	r24, 0xD8	; 216
     a88:	84 bf       	out	0x34, r24	; 52
    CLKCTRL_MCLKCTRLB = 0x01;
     a8a:	c1 e0       	ldi	r28, 0x01	; 1
     a8c:	c0 93 61 00 	sts	0x0061, r28	; 0x800061 <__TEXT_REGION_LENGTH__+0x700061>

    //Set I/O direction registers
    PORTA_DIR = 0b01001010;
     a90:	8a e4       	ldi	r24, 0x4A	; 74
     a92:	80 93 00 04 	sts	0x0400, r24	; 0x800400 <__TEXT_REGION_LENGTH__+0x700400>
    PORTB_DIR = 0b01111100;
     a96:	8c e7       	ldi	r24, 0x7C	; 124
     a98:	80 93 20 04 	sts	0x0420, r24	; 0x800420 <__TEXT_REGION_LENGTH__+0x700420>
    PORTC_DIR = 0b00111111;
     a9c:	9f e3       	ldi	r25, 0x3F	; 63
     a9e:	90 93 40 04 	sts	0x0440, r25	; 0x800440 <__TEXT_REGION_LENGTH__+0x700440>

    //Invert some pins for correcting LED reversal error
    PORTC_PIN3CTRL |= 0x80;
     aa2:	80 91 53 04 	lds	r24, 0x0453	; 0x800453 <__TEXT_REGION_LENGTH__+0x700453>
     aa6:	80 68       	ori	r24, 0x80	; 128
     aa8:	80 93 53 04 	sts	0x0453, r24	; 0x800453 <__TEXT_REGION_LENGTH__+0x700453>
    PORTC_PIN4CTRL |= 0x80;
     aac:	80 91 54 04 	lds	r24, 0x0454	; 0x800454 <__TEXT_REGION_LENGTH__+0x700454>
     ab0:	80 68       	ori	r24, 0x80	; 128
     ab2:	80 93 54 04 	sts	0x0454, r24	; 0x800454 <__TEXT_REGION_LENGTH__+0x700454>
    PORTC_PIN5CTRL |= 0x80;
     ab6:	80 91 55 04 	lds	r24, 0x0455	; 0x800455 <__TEXT_REGION_LENGTH__+0x700455>
     aba:	80 68       	ori	r24, 0x80	; 128
     abc:	80 93 55 04 	sts	0x0455, r24	; 0x800455 <__TEXT_REGION_LENGTH__+0x700455>
    PORTB_PIN3CTRL |= 0x80;
     ac0:	80 91 33 04 	lds	r24, 0x0433	; 0x800433 <__TEXT_REGION_LENGTH__+0x700433>
     ac4:	80 68       	ori	r24, 0x80	; 128
     ac6:	80 93 33 04 	sts	0x0433, r24	; 0x800433 <__TEXT_REGION_LENGTH__+0x700433>
    PORTB_PIN4CTRL |= 0x80;
     aca:	80 91 34 04 	lds	r24, 0x0434	; 0x800434 <__TEXT_REGION_LENGTH__+0x700434>
     ace:	80 68       	ori	r24, 0x80	; 128
     ad0:	80 93 34 04 	sts	0x0434, r24	; 0x800434 <__TEXT_REGION_LENGTH__+0x700434>
    PORTB_PIN5CTRL |= 0x80;
     ad4:	80 91 35 04 	lds	r24, 0x0435	; 0x800435 <__TEXT_REGION_LENGTH__+0x700435>
     ad8:	80 68       	ori	r24, 0x80	; 128
     ada:	80 93 35 04 	sts	0x0435, r24	; 0x800435 <__TEXT_REGION_LENGTH__+0x700435>
    PORTB_PIN2CTRL |= 0x80;
    PORTB_PIN6CTRL |= 0x80;
    */

    //UART (Alternative pins PA1=TxD, PA2=RxD, baudrate 9600, 8n1, RX and Buffer empty interrupts on)
    PORTMUX_CTRLB = 0x01;
     ade:	c0 93 01 02 	sts	0x0201, r28	; 0x800201 <__TEXT_REGION_LENGTH__+0x700201>
    PORTA_OUTSET = 0x02;
     ae2:	d2 e0       	ldi	r29, 0x02	; 2
     ae4:	d0 93 05 04 	sts	0x0405, r29	; 0x800405 <__TEXT_REGION_LENGTH__+0x700405>
    USART0_BAUD = (uint16_t)USART0_BAUD_RATE(115200);
     ae8:	2b e5       	ldi	r18, 0x5B	; 91
     aea:	31 e0       	ldi	r19, 0x01	; 1
     aec:	20 93 08 08 	sts	0x0808, r18	; 0x800808 <__TEXT_REGION_LENGTH__+0x700808>
     af0:	30 93 09 08 	sts	0x0809, r19	; 0x800809 <__TEXT_REGION_LENGTH__+0x700809>
    USART0_CTRLA = 0xA0; //Interrupts on
     af4:	80 ea       	ldi	r24, 0xA0	; 160
     af6:	80 93 05 08 	sts	0x0805, r24	; 0x800805 <__TEXT_REGION_LENGTH__+0x700805>
    USART0_CTRLB = 0xC0; //RX and TX on
     afa:	80 ec       	ldi	r24, 0xC0	; 192
     afc:	80 93 06 08 	sts	0x0806, r24	; 0x800806 <__TEXT_REGION_LENGTH__+0x700806>
    USART0_CTRLC = 0x03; //8 bits data, no parity, 1 stop bit
     b00:	83 e0       	ldi	r24, 0x03	; 3
     b02:	80 93 07 08 	sts	0x0807, r24	; 0x800807 <__TEXT_REGION_LENGTH__+0x700807>
     
    //GPIO registers 0..3 can be used for global variables used in ISR routines (ASM capability: IN, OUT, SBI, CBI, SBIS, SBIC)
    L_COL = 0;     //Used in LED array to hold currently driven column value
     b06:	1c ba       	out	0x1c, r1	; 28
    RXCNT = 0;     //Used as UART receive counter
     b08:	1d ba       	out	0x1d, r1	; 29
    AUPOS = 0;     //Used as audio input/output buffer counter
     b0a:	1e ba       	out	0x1e, r1	; 30
    GPIOR3 = 0;    //
     b0c:	1f ba       	out	0x1f, r1	; 31

    //Init TCA (split mode, f_CLK/16, PWM on 6 alternative pins, underflow int enabled, synced and started)
    TCA0_SPLIT_CTRLD = 1;
     b0e:	c0 93 03 0a 	sts	0x0A03, r28	; 0x800a03 <__TEXT_REGION_LENGTH__+0x700a03>
    TCA0_SPLIT_CTRLA = (0x4)<<1;
     b12:	88 e0       	ldi	r24, 0x08	; 8
     b14:	80 93 00 0a 	sts	0x0A00, r24	; 0x800a00 <__TEXT_REGION_LENGTH__+0x700a00>
    PORTMUX_CTRLC = 0x3F;
     b18:	90 93 02 02 	sts	0x0202, r25	; 0x800202 <__TEXT_REGION_LENGTH__+0x700202>
    TCA0_SPLIT_CTRLB = 0x77;
     b1c:	87 e7       	ldi	r24, 0x77	; 119
     b1e:	80 93 01 0a 	sts	0x0A01, r24	; 0x800a01 <__TEXT_REGION_LENGTH__+0x700a01>
    TCA0_SPLIT_INTCTRL = 0x1;
     b22:	c0 93 0a 0a 	sts	0x0A0A, r28	; 0x800a0a <__TEXT_REGION_LENGTH__+0x700a0a>
    TCA0_SPLIT_CTRLESET = ((0x2)<<2)|0x3;
     b26:	8b e0       	ldi	r24, 0x0B	; 11
     b28:	80 93 05 0a 	sts	0x0A05, r24	; 0x800a05 <__TEXT_REGION_LENGTH__+0x700a05>
    TCA0_SPLIT_CTRLA |= 1;
     b2c:	80 91 00 0a 	lds	r24, 0x0A00	; 0x800a00 <__TEXT_REGION_LENGTH__+0x700a00>
     b30:	81 60       	ori	r24, 0x01	; 1
     b32:	80 93 00 0a 	sts	0x0A00, r24	; 0x800a00 <__TEXT_REGION_LENGTH__+0x700a00>
     
    //Init TCB0 (compare value sets serial Tx pause between characters, uses TCA0 prescaler, enabled, interrupt disabled)
    TCB0_CTRLA = ((0x02)<<1)|0x01;
     b36:	85 e0       	ldi	r24, 0x05	; 5
     b38:	80 93 40 0a 	sts	0x0A40, r24	; 0x800a40 <__TEXT_REGION_LENGTH__+0x700a40>
    TCB0_CTRLB = 0;
     b3c:	10 92 41 0a 	sts	0x0A41, r1	; 0x800a41 <__TEXT_REGION_LENGTH__+0x700a41>
    TCB0_CCMP = 0x01FF;
     b40:	8f ef       	ldi	r24, 0xFF	; 255
     b42:	91 e0       	ldi	r25, 0x01	; 1
     b44:	80 93 4c 0a 	sts	0x0A4C, r24	; 0x800a4c <__TEXT_REGION_LENGTH__+0x700a4c>
     b48:	90 93 4d 0a 	sts	0x0A4D, r25	; 0x800a4d <__TEXT_REGION_LENGTH__+0x700a4d>
    TCB0_INTCTRL = 0x00;     
     b4c:	10 92 45 0a 	sts	0x0A45, r1	; 0x800a45 <__TEXT_REGION_LENGTH__+0x700a45>
     
    //Init TCB1 (compare value sets audio sample rate (0x038B = 11025sps), enabled, interrupt enabled)
    TCB1_CTRLA = 0x01;
     b50:	c0 93 50 0a 	sts	0x0A50, r28	; 0x800a50 <__TEXT_REGION_LENGTH__+0x700a50>
    TCB1_CTRLB = 0;
     b54:	10 92 51 0a 	sts	0x0A51, r1	; 0x800a51 <__TEXT_REGION_LENGTH__+0x700a51>
    TCB1_CCMP = 0x038B;
     b58:	8b e8       	ldi	r24, 0x8B	; 139
     b5a:	93 e0       	ldi	r25, 0x03	; 3
     b5c:	80 93 5c 0a 	sts	0x0A5C, r24	; 0x800a5c <__TEXT_REGION_LENGTH__+0x700a5c>
     b60:	90 93 5d 0a 	sts	0x0A5D, r25	; 0x800a5d <__TEXT_REGION_LENGTH__+0x700a5d>
    TCB1_INTCTRL = 0x01;
     b64:	c0 93 55 0a 	sts	0x0A55, r28	; 0x800a55 <__TEXT_REGION_LENGTH__+0x700a55>

    //Init I2C (100kHz)
    I2C_init();
     b68:	05 dc       	rcall	.-2038   	; 0x374 <I2C_init>

    //VREF (DAC, ADC's)
    VREF_CTRLA   = 0x12;    //0x22 for audio in/out (2.5V), 0x12 for temperature in, audio out (1.1V/2.5V)
     b6a:	82 e1       	ldi	r24, 0x12	; 18
     b6c:	80 93 a0 00 	sts	0x00A0, r24	; 0x8000a0 <__TEXT_REGION_LENGTH__+0x7000a0>
    VREF_CTRLC   = 0x20;    //ADC1 reference at 2.5V
     b70:	80 e2       	ldi	r24, 0x20	; 32
     b72:	80 93 a2 00 	sts	0x00A2, r24	; 0x8000a2 <__TEXT_REGION_LENGTH__+0x7000a2>
    VREF_CTRLB   = 0x01;    //DAC0 ref forced enabled
     b76:	c0 93 a1 00 	sts	0x00A1, r28	; 0x8000a1 <__TEXT_REGION_LENGTH__+0x7000a1>

    //Init ADC0 (audio in, also controls DAC output rate, internal temperature?)
    ADC0_CTRLA   = 0x02;    //10 bit resolution, free running
     b7a:	d0 93 00 06 	sts	0x0600, r29	; 0x800600 <__TEXT_REGION_LENGTH__+0x700600>
    ADC0_CTRLC   = 0x44;    //Reduced sample capacitor, internal reference, clock/32 => 24038sps
     b7e:	84 e4       	ldi	r24, 0x44	; 68
     b80:	80 93 02 06 	sts	0x0602, r24	; 0x800602 <__TEXT_REGION_LENGTH__+0x700602>
    ADC0_MUXPOS  = 0x1E;    //Audio in: AIN7 at (0x07), Temperature: Internal sensor at (0x1E)
     b84:	8e e1       	ldi	r24, 0x1E	; 30
     b86:	80 93 06 06 	sts	0x0606, r24	; 0x800606 <__TEXT_REGION_LENGTH__+0x700606>
    ADC0_INTCTRL = 0x01;    //Result ready interrupt enabled
     b8a:	c0 93 0a 06 	sts	0x060A, r28	; 0x80060a <__TEXT_REGION_LENGTH__+0x70060a>
    ADC0_CTRLA  |= 0x01;    //ADC0 enabled
     b8e:	80 91 00 06 	lds	r24, 0x0600	; 0x800600 <__TEXT_REGION_LENGTH__+0x700600>
     b92:	81 60       	ori	r24, 0x01	; 1
     b94:	80 93 00 06 	sts	0x0600, r24	; 0x800600 <__TEXT_REGION_LENGTH__+0x700600>
    ADC0_COMMAND = 0x01;    //Start first conversion, after that it will run periodically.
     b98:	c0 93 08 06 	sts	0x0608, r28	; 0x800608 <__TEXT_REGION_LENGTH__+0x700608>

    //Init ADC1 (buttons and sensors: CH0=Photo transistor, CH1=Hall, CH4=Buttons)
    ADC1_CTRLA   = 0;
     b9c:	10 92 40 06 	sts	0x0640, r1	; 0x800640 <__TEXT_REGION_LENGTH__+0x700640>
    ADC1_CTRLB   = 0x02;    //4 results automatically accumulated
     ba0:	d0 93 41 06 	sts	0x0641, r29	; 0x800641 <__TEXT_REGION_LENGTH__+0x700641>
    ADC1_CTRLC   = 0x52;    //Reduced sample capacitor, VDD as reference, clock/8
     ba4:	82 e5       	ldi	r24, 0x52	; 82
     ba6:	80 93 42 06 	sts	0x0642, r24	; 0x800642 <__TEXT_REGION_LENGTH__+0x700642>
    ADC1_SAMPCTRL= 0x04;    //Extend sampling time with 4 cycles (6 total)
     baa:	84 e0       	ldi	r24, 0x04	; 4
     bac:	80 93 45 06 	sts	0x0645, r24	; 0x800645 <__TEXT_REGION_LENGTH__+0x700645>
    ADC1_MUXPOS  = 0x04;    //Start with Buttons, for sensors, activate sensor power first.
     bb0:	80 93 46 06 	sts	0x0646, r24	; 0x800646 <__TEXT_REGION_LENGTH__+0x700646>
    ADC1_INTCTRL = 0x01;    //Result ready interrupt enabled
     bb4:	c0 93 4a 06 	sts	0x064A, r28	; 0x80064a <__TEXT_REGION_LENGTH__+0x70064a>
    ADC1_CTRLA  |= 0x01;    //ADC0 enabled
     bb8:	80 91 40 06 	lds	r24, 0x0640	; 0x800640 <__TEXT_REGION_LENGTH__+0x700640>
     bbc:	81 60       	ori	r24, 0x01	; 1
     bbe:	80 93 40 06 	sts	0x0640, r24	; 0x800640 <__TEXT_REGION_LENGTH__+0x700640>
    ADC1_COMMAND = 0x01;    //Start single conversion
     bc2:	c0 93 48 06 	sts	0x0648, r28	; 0x800648 <__TEXT_REGION_LENGTH__+0x700648>

    //Init DAC0
    DAC0_CTRLA = 0x40;     //Enable output buffer (connect to pin)
     bc6:	80 e4       	ldi	r24, 0x40	; 64
     bc8:	80 93 a0 06 	sts	0x06A0, r24	; 0x8006a0 <__TEXT_REGION_LENGTH__+0x7006a0>
    DAC0_DATA = 0x80;      //Data value at half point (about 1.25V)
     bcc:	80 e8       	ldi	r24, 0x80	; 128
     bce:	80 93 a1 06 	sts	0x06A1, r24	; 0x8006a1 <__TEXT_REGION_LENGTH__+0x7006a1>
    DAC0_CTRLA |= 0x01;    //Enable DAC
     bd2:	80 91 a0 06 	lds	r24, 0x06A0	; 0x8006a0 <__TEXT_REGION_LENGTH__+0x7006a0>
     bd6:	81 60       	ori	r24, 0x01	; 1
     bd8:	80 93 a0 06 	sts	0x06A0, r24	; 0x8006a0 <__TEXT_REGION_LENGTH__+0x7006a0>
     
    //PIT and RTC interrupts
    while(RTC_STATUS & RTC_CTRLABUSY_bm);
     bdc:	80 91 41 01 	lds	r24, 0x0141	; 0x800141 <__TEXT_REGION_LENGTH__+0x700141>
     be0:	80 fd       	sbrc	r24, 0
     be2:	fc cf       	rjmp	.-8      	; 0xbdc <Setup+0x15c>
    RTC_CTRLA          = (0x6)<<3;                         //Prescaler: /64
     be4:	80 e3       	ldi	r24, 0x30	; 48
     be6:	80 93 40 01 	sts	0x0140, r24	; 0x800140 <__TEXT_REGION_LENGTH__+0x700140>
    RTC_CLKSEL         = 0;                                //Clock source: internal 32768Hz clock
     bea:	10 92 47 01 	sts	0x0147, r1	; 0x800147 <__TEXT_REGION_LENGTH__+0x700147>
    while(RTC_STATUS & RTC_PERBUSY_bm);
     bee:	80 91 41 01 	lds	r24, 0x0141	; 0x800141 <__TEXT_REGION_LENGTH__+0x700141>
     bf2:	82 fd       	sbrc	r24, 2
     bf4:	fc cf       	rjmp	.-8      	; 0xbee <Setup+0x16e>
    RTC_PER            = 512*60;                           //60 second period (for clocking how long the device has been running?)
     bf6:	80 e0       	ldi	r24, 0x00	; 0
     bf8:	98 e7       	ldi	r25, 0x78	; 120
     bfa:	80 93 4a 01 	sts	0x014A, r24	; 0x80014a <__TEXT_REGION_LENGTH__+0x70014a>
     bfe:	90 93 4b 01 	sts	0x014B, r25	; 0x80014b <__TEXT_REGION_LENGTH__+0x70014b>
    tmp16bit = (RTC_CNT + BTN_TMR);
     c02:	80 91 48 01 	lds	r24, 0x0148	; 0x800148 <__TEXT_REGION_LENGTH__+0x700148>
     c06:	90 91 49 01 	lds	r25, 0x0149	; 0x800149 <__TEXT_REGION_LENGTH__+0x700149>
     c0a:	82 96       	adiw	r24, 0x22	; 34
     c0c:	80 93 f7 3a 	sts	0x3AF7, r24	; 0x803af7 <tmp16bit>
     c10:	90 93 f8 3a 	sts	0x3AF8, r25	; 0x803af8 <tmp16bit+0x1>
    if (tmp16bit > RTC_PER) tmp16bit -= RTC_PER;
     c14:	20 91 4a 01 	lds	r18, 0x014A	; 0x80014a <__TEXT_REGION_LENGTH__+0x70014a>
     c18:	30 91 4b 01 	lds	r19, 0x014B	; 0x80014b <__TEXT_REGION_LENGTH__+0x70014b>
     c1c:	80 91 f7 3a 	lds	r24, 0x3AF7	; 0x803af7 <tmp16bit>
     c20:	90 91 f8 3a 	lds	r25, 0x3AF8	; 0x803af8 <tmp16bit+0x1>
     c24:	28 17       	cp	r18, r24
     c26:	39 07       	cpc	r19, r25
     c28:	70 f4       	brcc	.+28     	; 0xc46 <Setup+0x1c6>
     c2a:	20 91 4a 01 	lds	r18, 0x014A	; 0x80014a <__TEXT_REGION_LENGTH__+0x70014a>
     c2e:	30 91 4b 01 	lds	r19, 0x014B	; 0x80014b <__TEXT_REGION_LENGTH__+0x70014b>
     c32:	80 91 f7 3a 	lds	r24, 0x3AF7	; 0x803af7 <tmp16bit>
     c36:	90 91 f8 3a 	lds	r25, 0x3AF8	; 0x803af8 <tmp16bit+0x1>
     c3a:	82 1b       	sub	r24, r18
     c3c:	93 0b       	sbc	r25, r19
     c3e:	80 93 f7 3a 	sts	0x3AF7, r24	; 0x803af7 <tmp16bit>
     c42:	90 93 f8 3a 	sts	0x3AF8, r25	; 0x803af8 <tmp16bit+0x1>
    while(RTC_STATUS & RTC_CMPBUSY_bm);
     c46:	80 91 41 01 	lds	r24, 0x0141	; 0x800141 <__TEXT_REGION_LENGTH__+0x700141>
     c4a:	83 fd       	sbrc	r24, 3
     c4c:	fc cf       	rjmp	.-8      	; 0xc46 <Setup+0x1c6>
    RTC_CMP            = tmp16bit;                         //Button timing
     c4e:	80 91 f7 3a 	lds	r24, 0x3AF7	; 0x803af7 <tmp16bit>
     c52:	90 91 f8 3a 	lds	r25, 0x3AF8	; 0x803af8 <tmp16bit+0x1>
     c56:	80 93 4c 01 	sts	0x014C, r24	; 0x80014c <__TEXT_REGION_LENGTH__+0x70014c>
     c5a:	90 93 4d 01 	sts	0x014D, r25	; 0x80014d <__TEXT_REGION_LENGTH__+0x70014d>
    RTC_INTCTRL        = 0x03;                             //RTC overflow interrupt enabled
     c5e:	83 e0       	ldi	r24, 0x03	; 3
     c60:	80 93 42 01 	sts	0x0142, r24	; 0x800142 <__TEXT_REGION_LENGTH__+0x700142>
    RTC_PITINTCTRL     = 0x01;                             //PIT interrupt enabled
     c64:	81 e0       	ldi	r24, 0x01	; 1
     c66:	80 93 52 01 	sts	0x0152, r24	; 0x800152 <__TEXT_REGION_LENGTH__+0x700152>
    RTC_PITCTRLA       = (0x1)<<3;                         //Interrupt fires after 4 RTC clock cycles Rate=(RTCCLK/(PRESC*PERIOD)) 32768/256=128Hz
     c6a:	88 e0       	ldi	r24, 0x08	; 8
     c6c:	80 93 50 01 	sts	0x0150, r24	; 0x800150 <__TEXT_REGION_LENGTH__+0x700150>
    while(RTC_STATUS & RTC_CTRLABUSY_bm);      
     c70:	80 91 41 01 	lds	r24, 0x0141	; 0x800141 <__TEXT_REGION_LENGTH__+0x700141>
     c74:	80 fd       	sbrc	r24, 0
     c76:	fc cf       	rjmp	.-8      	; 0xc70 <Setup+0x1f0>
    RTC_CTRLA          |= 0x01;                            //Enable RTC
     c78:	80 91 40 01 	lds	r24, 0x0140	; 0x800140 <__TEXT_REGION_LENGTH__+0x700140>
     c7c:	81 60       	ori	r24, 0x01	; 1
     c7e:	80 93 40 01 	sts	0x0140, r24	; 0x800140 <__TEXT_REGION_LENGTH__+0x700140>
    RTC_PITCTRLA       |= 0x01;                            //Enable PIT
     c82:	80 91 50 01 	lds	r24, 0x0150	; 0x800150 <__TEXT_REGION_LENGTH__+0x700150>
     c86:	81 60       	ori	r24, 0x01	; 1
     c88:	80 93 50 01 	sts	0x0150, r24	; 0x800150 <__TEXT_REGION_LENGTH__+0x700150>
     
    //Other inits
    serRx[0] = 0;           // Empty Rx buffer (first char is enough)
     c8c:	10 92 75 3a 	sts	0x3A75, r1	; 0x803a75 <serRx>
    serTxAddr = &serRx[0];  // Point to first address of the Rx buffer
     c90:	85 e7       	ldi	r24, 0x75	; 117
     c92:	9a e3       	ldi	r25, 0x3A	; 58
     c94:	80 93 b9 3a 	sts	0x3AB9, r24	; 0x803ab9 <serTxAddr>
     c98:	90 93 ba 3a 	sts	0x3ABA, r25	; 0x803aba <serTxAddr+0x1>

    sei();
     c9c:	78 94       	sei
}
     c9e:	df 91       	pop	r29
     ca0:	cf 91       	pop	r28
     ca2:	08 95       	ret

00000ca4 <__vector_8>:

// TCA0 is used for driving the LED matrix at 488Hz (* 5 columns = 2440Hz). The lower 8 bit underflow interrupt is used to load new values and shift between columns.
ISR(TCA0_LUNF_vect){
     ca4:	1f 92       	push	r1
     ca6:	0f 92       	push	r0
     ca8:	0f b6       	in	r0, 0x3f	; 63
     caa:	0f 92       	push	r0
     cac:	11 24       	eor	r1, r1
     cae:	8f 93       	push	r24
     cb0:	9f 93       	push	r25
     cb2:	af 93       	push	r26
     cb4:	bf 93       	push	r27
     cb6:	ef 93       	push	r30
     cb8:	ff 93       	push	r31
    //Turn off all columns
    PORTC_OUTCLR = 0x07;
     cba:	87 e0       	ldi	r24, 0x07	; 7
     cbc:	80 93 46 04 	sts	0x0446, r24	; 0x800446 <__TEXT_REGION_LENGTH__+0x700446>
    PORTB_OUTCLR = 0x44;
     cc0:	84 e4       	ldi	r24, 0x44	; 68
     cc2:	80 93 26 04 	sts	0x0426, r24	; 0x800426 <__TEXT_REGION_LENGTH__+0x700426>
    "ldi r25, 6        \n"
    "ld r24, %a[arr]+  \n"
    "st %a[wo]+, r24   \n"
    "dec r25           \n"
    "brne .-8          \n"
    :: [wo] "e" (&TCA0_SPLIT_LCMP0), [arr] "e" (&iLED[(L_COL<<3)]) : "r25", "r24", "cc", "memory");
     cc6:	ec b3       	in	r30, 0x1c	; 28
     cc8:	88 e0       	ldi	r24, 0x08	; 8
     cca:	e8 9f       	mul	r30, r24
     ccc:	f0 01       	movw	r30, r0
     cce:	11 24       	eor	r1, r1
     cd0:	e6 53       	subi	r30, 0x36	; 54
     cd2:	f5 4c       	sbci	r31, 0xC5	; 197
    //Turn off all columns
    PORTC_OUTCLR = 0x07;
    PORTB_OUTCLR = 0x44;

    //Write all of the compare registers of TCA0 with PWM values in array (rows)
    asm(
     cd4:	a8 e2       	ldi	r26, 0x28	; 40
     cd6:	ba e0       	ldi	r27, 0x0A	; 10
     cd8:	96 e0       	ldi	r25, 0x06	; 6
     cda:	81 91       	ld	r24, Z+
     cdc:	8d 93       	st	X+, r24
     cde:	9a 95       	dec	r25
     ce0:	e1 f7       	brne	.-8      	; 0xcda <__vector_8+0x36>
    "st %a[wo]+, r24   \n"
    "dec r25           \n"
    "brne .-8          \n"
    :: [wo] "e" (&TCA0_SPLIT_LCMP0), [arr] "e" (&iLED[(L_COL<<3)]) : "r25", "r24", "cc", "memory");

    TCA0_SPLIT_CTRLESET = ((0x2)<<2)|0x3; //Sync timers: Moved this below the PWM value loading to fix the data shifting in asm above.
     ce2:	8b e0       	ldi	r24, 0x0B	; 11
     ce4:	80 93 05 0a 	sts	0x0A05, r24	; 0x800a05 <__TEXT_REGION_LENGTH__+0x700a05>

    //Turn on the right column
    if (L_COL<3) {
     ce8:	8c b3       	in	r24, 0x1c	; 28
     cea:	83 30       	cpi	r24, 0x03	; 3
     cec:	58 f4       	brcc	.+22     	; 0xd04 <__vector_8+0x60>
        asm(
     cee:	8c b3       	in	r24, 0x1c	; 28
     cf0:	91 e0       	ldi	r25, 0x01	; 1
     cf2:	01 c0       	rjmp	.+2      	; 0xcf6 <__vector_8+0x52>
     cf4:	99 0f       	add	r25, r25
     cf6:	8a 95       	dec	r24
     cf8:	ea f7       	brpl	.-6      	; 0xcf4 <__vector_8+0x50>
     cfa:	99 b9       	out	0x09, r25	; 9
     cfc:	8c b3       	in	r24, 0x1c	; 28
     cfe:	83 95       	inc	r24
     d00:	8c bb       	out	0x1c, r24	; 28
     d02:	0a c0       	rjmp	.+20     	; 0xd18 <__vector_8+0x74>
        "in r24, %[io0]  \n"
        "inc r24         \n"
        "out %[io0], r24 \n"
        :: [io0] "I" (&L_COL), [vpc] "I" (&VPORTC_OUT) : "r24", "r25", "cc");
        } else {
        asm(
     d04:	8c b3       	in	r24, 0x1c	; 28
     d06:	83 30       	cpi	r24, 0x03	; 3
     d08:	21 f4       	brne	.+8      	; 0xd12 <__vector_8+0x6e>
     d0a:	2a 9a       	sbi	0x05, 2	; 5
     d0c:	83 95       	inc	r24
     d0e:	8c bb       	out	0x1c, r24	; 28
     d10:	03 c0       	rjmp	.+6      	; 0xd18 <__vector_8+0x74>
     d12:	2e 9a       	sbi	0x05, 6	; 5
     d14:	88 27       	eor	r24, r24
     d16:	8c bb       	out	0x1c, r24	; 28
        "clr r24         \n"
        "out %[io0], r24 \n"
        :: [io0] "I" (&L_COL), [vpb] "I" (&VPORTB_OUT) : "r24", "cc");
    }
    
    if(timeout_I2C) --timeout_I2C;
     d18:	80 91 60 3a 	lds	r24, 0x3A60	; 0x803a60 <timeout_I2C>
     d1c:	88 23       	and	r24, r24
     d1e:	29 f0       	breq	.+10     	; 0xd2a <__vector_8+0x86>
     d20:	80 91 60 3a 	lds	r24, 0x3A60	; 0x803a60 <timeout_I2C>
     d24:	81 50       	subi	r24, 0x01	; 1
     d26:	80 93 60 3a 	sts	0x3A60, r24	; 0x803a60 <timeout_I2C>
    TCA0_SPLIT_INTFLAGS = 0xFF;
     d2a:	8f ef       	ldi	r24, 0xFF	; 255
     d2c:	80 93 0b 0a 	sts	0x0A0B, r24	; 0x800a0b <__TEXT_REGION_LENGTH__+0x700a0b>
}
     d30:	ff 91       	pop	r31
     d32:	ef 91       	pop	r30
     d34:	bf 91       	pop	r27
     d36:	af 91       	pop	r26
     d38:	9f 91       	pop	r25
     d3a:	8f 91       	pop	r24
     d3c:	0f 90       	pop	r0
     d3e:	0f be       	out	0x3f, r0	; 63
     d40:	0f 90       	pop	r0
     d42:	1f 90       	pop	r1
     d44:	18 95       	reti

00000d46 <__vector_13>:

// TCB0 is used for (slowly) sending serial characters. A 0x00 character code is needed to terminate sending or it will leak memory to serial. It's a feature, honest! 
ISR(TCB0_INT_vect){
     d46:	1f 92       	push	r1
     d48:	0f 92       	push	r0
     d4a:	0f b6       	in	r0, 0x3f	; 63
     d4c:	0f 92       	push	r0
     d4e:	11 24       	eor	r1, r1
     d50:	8f 93       	push	r24
     d52:	9f 93       	push	r25
     d54:	ef 93       	push	r30
     d56:	ff 93       	push	r31
    if (*serTxAddr) {
     d58:	e0 91 b9 3a 	lds	r30, 0x3AB9	; 0x803ab9 <serTxAddr>
     d5c:	f0 91 ba 3a 	lds	r31, 0x3ABA	; 0x803aba <serTxAddr+0x1>
     d60:	80 81       	ld	r24, Z
     d62:	88 23       	and	r24, r24
     d64:	91 f0       	breq	.+36     	; 0xd8a <__vector_13+0x44>
        USART0_TXDATAL = *serTxAddr;
     d66:	80 81       	ld	r24, Z
     d68:	80 93 02 08 	sts	0x0802, r24	; 0x800802 <__TEXT_REGION_LENGTH__+0x700802>
        serTxAddr++;
     d6c:	80 91 b9 3a 	lds	r24, 0x3AB9	; 0x803ab9 <serTxAddr>
     d70:	90 91 ba 3a 	lds	r25, 0x3ABA	; 0x803aba <serTxAddr+0x1>
     d74:	01 96       	adiw	r24, 0x01	; 1
     d76:	80 93 b9 3a 	sts	0x3AB9, r24	; 0x803ab9 <serTxAddr>
     d7a:	90 93 ba 3a 	sts	0x3ABA, r25	; 0x803aba <serTxAddr+0x1>
        USART0_CTRLA |= USART_DREIE_bm;
     d7e:	80 91 05 08 	lds	r24, 0x0805	; 0x800805 <__TEXT_REGION_LENGTH__+0x700805>
     d82:	80 62       	ori	r24, 0x20	; 32
     d84:	80 93 05 08 	sts	0x0805, r24	; 0x800805 <__TEXT_REGION_LENGTH__+0x700805>
     d88:	05 c0       	rjmp	.+10     	; 0xd94 <__vector_13+0x4e>
    } else {
        serTxDone = 1;
     d8a:	81 e0       	ldi	r24, 0x01	; 1
     d8c:	80 93 09 38 	sts	0x3809, r24	; 0x803809 <serTxDone>
        TCB0_INTCTRL = 0x00;
     d90:	10 92 45 0a 	sts	0x0A45, r1	; 0x800a45 <__TEXT_REGION_LENGTH__+0x700a45>
    }
    TCB0_INTFLAGS = TCB_CAPT_bm;
     d94:	81 e0       	ldi	r24, 0x01	; 1
     d96:	80 93 46 0a 	sts	0x0A46, r24	; 0x800a46 <__TEXT_REGION_LENGTH__+0x700a46>
}
     d9a:	ff 91       	pop	r31
     d9c:	ef 91       	pop	r30
     d9e:	9f 91       	pop	r25
     da0:	8f 91       	pop	r24
     da2:	0f 90       	pop	r0
     da4:	0f be       	out	0x3f, r0	; 63
     da6:	0f 90       	pop	r0
     da8:	1f 90       	pop	r1
     daa:	18 95       	reti

00000dac <__vector_14>:

// TCB1 is used for audio generation. Keeps playing "data" until 0 is reached. Audio sample data can contain 0x01 to 0xFF, centered around 0x80
ISR(TCB1_INT_vect){
     dac:	1f 92       	push	r1
     dae:	0f 92       	push	r0
     db0:	0f b6       	in	r0, 0x3f	; 63
     db2:	0f 92       	push	r0
     db4:	11 24       	eor	r1, r1
     db6:	2f 93       	push	r18
     db8:	3f 93       	push	r19
     dba:	4f 93       	push	r20
     dbc:	8f 93       	push	r24
     dbe:	9f 93       	push	r25
     dc0:	ef 93       	push	r30
     dc2:	ff 93       	push	r31
    int16_t volCtrl;
    if (*auSmpAddr == 0) auSmpAddr = auRepAddr;
     dc4:	e0 91 05 38 	lds	r30, 0x3805	; 0x803805 <auSmpAddr>
     dc8:	f0 91 06 38 	lds	r31, 0x3806	; 0x803806 <auSmpAddr+0x1>
     dcc:	80 81       	ld	r24, Z
     dce:	81 11       	cpse	r24, r1
     dd0:	08 c0       	rjmp	.+16     	; 0xde2 <__vector_14+0x36>
     dd2:	80 91 03 38 	lds	r24, 0x3803	; 0x803803 <auRepAddr>
     dd6:	90 91 04 38 	lds	r25, 0x3804	; 0x803804 <auRepAddr+0x1>
     dda:	80 93 05 38 	sts	0x3805, r24	; 0x803805 <auSmpAddr>
     dde:	90 93 06 38 	sts	0x3806, r25	; 0x803806 <auSmpAddr+0x1>
    if (*auSmpAddr) {
     de2:	e0 91 05 38 	lds	r30, 0x3805	; 0x803805 <auSmpAddr>
     de6:	f0 91 06 38 	lds	r31, 0x3806	; 0x803806 <auSmpAddr+0x1>
     dea:	80 81       	ld	r24, Z
     dec:	88 23       	and	r24, r24
     dee:	e1 f0       	breq	.+56     	; 0xe28 <__vector_14+0x7c>
        volCtrl = ((((int16_t)(*auSmpAddr) - 0x7f) * auVolume) >> 8) + 0x80;
     df0:	20 81       	ld	r18, Z
     df2:	40 91 b6 3a 	lds	r20, 0x3AB6	; 0x803ab6 <auVolume>
        DAC0_DATA = (uint8_t)(volCtrl);
     df6:	30 e0       	ldi	r19, 0x00	; 0
     df8:	2f 57       	subi	r18, 0x7F	; 127
     dfa:	31 09       	sbc	r19, r1
     dfc:	42 9f       	mul	r20, r18
     dfe:	c0 01       	movw	r24, r0
     e00:	43 9f       	mul	r20, r19
     e02:	90 0d       	add	r25, r0
     e04:	11 24       	eor	r1, r1
     e06:	89 2f       	mov	r24, r25
     e08:	99 0f       	add	r25, r25
     e0a:	99 0b       	sbc	r25, r25
     e0c:	80 58       	subi	r24, 0x80	; 128
     e0e:	9f 4f       	sbci	r25, 0xFF	; 255
     e10:	80 93 a1 06 	sts	0x06A1, r24	; 0x8006a1 <__TEXT_REGION_LENGTH__+0x7006a1>
        ++auSmpAddr;
     e14:	80 91 05 38 	lds	r24, 0x3805	; 0x803805 <auSmpAddr>
     e18:	90 91 06 38 	lds	r25, 0x3806	; 0x803806 <auSmpAddr+0x1>
     e1c:	01 96       	adiw	r24, 0x01	; 1
     e1e:	80 93 05 38 	sts	0x3805, r24	; 0x803805 <auSmpAddr>
     e22:	90 93 06 38 	sts	0x3806, r25	; 0x803806 <auSmpAddr+0x1>
     e26:	06 c0       	rjmp	.+12     	; 0xe34 <__vector_14+0x88>
    } else {
        DAC0_DATA = 0x80;
     e28:	80 e8       	ldi	r24, 0x80	; 128
     e2a:	80 93 a1 06 	sts	0x06A1, r24	; 0x8006a1 <__TEXT_REGION_LENGTH__+0x7006a1>
        auPlayDone = 1;
     e2e:	81 e0       	ldi	r24, 0x01	; 1
     e30:	80 93 f2 3a 	sts	0x3AF2, r24	; 0x803af2 <auPlayDone>
    }
    TCB1_INTFLAGS = TCB_CAPT_bm;
     e34:	81 e0       	ldi	r24, 0x01	; 1
     e36:	80 93 56 0a 	sts	0x0A56, r24	; 0x800a56 <__TEXT_REGION_LENGTH__+0x700a56>
}
     e3a:	ff 91       	pop	r31
     e3c:	ef 91       	pop	r30
     e3e:	9f 91       	pop	r25
     e40:	8f 91       	pop	r24
     e42:	4f 91       	pop	r20
     e44:	3f 91       	pop	r19
     e46:	2f 91       	pop	r18
     e48:	0f 90       	pop	r0
     e4a:	0f be       	out	0x3f, r0	; 63
     e4c:	0f 90       	pop	r0
     e4e:	1f 90       	pop	r1
     e50:	18 95       	reti

00000e52 <__vector_27>:

// Reads up to RXLEN characters until LF is found, LF sets the serRxDone flag and writes 0 instead of LF.
ISR(USART0_RXC_vect){
     e52:	1f 92       	push	r1
     e54:	0f 92       	push	r0
     e56:	0f b6       	in	r0, 0x3f	; 63
     e58:	0f 92       	push	r0
     e5a:	11 24       	eor	r1, r1
     e5c:	8f 93       	push	r24
     e5e:	ef 93       	push	r30
     e60:	ff 93       	push	r31
    if (serRxDone == 0){
     e62:	80 91 44 38 	lds	r24, 0x3844	; 0x803844 <serRxDone>
     e66:	81 11       	cpse	r24, r1
     e68:	44 c0       	rjmp	.+136    	; 0xef2 <__vector_27+0xa0>
        serRx[RXCNT] = USART0.RXDATAL;
     e6a:	ed b3       	in	r30, 0x1d	; 29
     e6c:	f0 e0       	ldi	r31, 0x00	; 0
     e6e:	80 91 00 08 	lds	r24, 0x0800	; 0x800800 <__TEXT_REGION_LENGTH__+0x700800>
     e72:	eb 58       	subi	r30, 0x8B	; 139
     e74:	f5 4c       	sbci	r31, 0xC5	; 197
     e76:	80 83       	st	Z, r24
        USART0_TXDATAL = serRx[RXCNT];
     e78:	ed b3       	in	r30, 0x1d	; 29
     e7a:	f0 e0       	ldi	r31, 0x00	; 0
     e7c:	eb 58       	subi	r30, 0x8B	; 139
     e7e:	f5 4c       	sbci	r31, 0xC5	; 197
     e80:	80 81       	ld	r24, Z
     e82:	80 93 02 08 	sts	0x0802, r24	; 0x800802 <__TEXT_REGION_LENGTH__+0x700802>
        if ((serRx[RXCNT] == 0x0A)||(serRx[RXCNT] == 0x0D)){
     e86:	ed b3       	in	r30, 0x1d	; 29
     e88:	f0 e0       	ldi	r31, 0x00	; 0
     e8a:	eb 58       	subi	r30, 0x8B	; 139
     e8c:	f5 4c       	sbci	r31, 0xC5	; 197
     e8e:	80 81       	ld	r24, Z
     e90:	8a 30       	cpi	r24, 0x0A	; 10
     e92:	39 f0       	breq	.+14     	; 0xea2 <__vector_27+0x50>
     e94:	ed b3       	in	r30, 0x1d	; 29
     e96:	f0 e0       	ldi	r31, 0x00	; 0
     e98:	eb 58       	subi	r30, 0x8B	; 139
     e9a:	f5 4c       	sbci	r31, 0xC5	; 197
     e9c:	80 81       	ld	r24, Z
     e9e:	8d 30       	cpi	r24, 0x0D	; 13
     ea0:	49 f4       	brne	.+18     	; 0xeb4 <__vector_27+0x62>
            serRx[RXCNT] = 0;
     ea2:	ed b3       	in	r30, 0x1d	; 29
     ea4:	f0 e0       	ldi	r31, 0x00	; 0
     ea6:	eb 58       	subi	r30, 0x8B	; 139
     ea8:	f5 4c       	sbci	r31, 0xC5	; 197
     eaa:	10 82       	st	Z, r1
            serRxDone = 1;
     eac:	81 e0       	ldi	r24, 0x01	; 1
     eae:	80 93 44 38 	sts	0x3844, r24	; 0x803844 <serRxDone>
     eb2:	1f c0       	rjmp	.+62     	; 0xef2 <__vector_27+0xa0>
        } else if (((serRx[RXCNT] == 0x08)||(serRx[RXCNT] == 0x7F))&&(RXCNT > 0)) {
     eb4:	ed b3       	in	r30, 0x1d	; 29
     eb6:	f0 e0       	ldi	r31, 0x00	; 0
     eb8:	eb 58       	subi	r30, 0x8B	; 139
     eba:	f5 4c       	sbci	r31, 0xC5	; 197
     ebc:	80 81       	ld	r24, Z
     ebe:	88 30       	cpi	r24, 0x08	; 8
     ec0:	39 f0       	breq	.+14     	; 0xed0 <__vector_27+0x7e>
     ec2:	ed b3       	in	r30, 0x1d	; 29
     ec4:	f0 e0       	ldi	r31, 0x00	; 0
     ec6:	eb 58       	subi	r30, 0x8B	; 139
     ec8:	f5 4c       	sbci	r31, 0xC5	; 197
     eca:	80 81       	ld	r24, Z
     ecc:	8f 37       	cpi	r24, 0x7F	; 127
     ece:	59 f4       	brne	.+22     	; 0xee6 <__vector_27+0x94>
     ed0:	8d b3       	in	r24, 0x1d	; 29
     ed2:	88 23       	and	r24, r24
     ed4:	41 f0       	breq	.+16     	; 0xee6 <__vector_27+0x94>
            serRx[RXCNT] = 0;
     ed6:	ed b3       	in	r30, 0x1d	; 29
     ed8:	f0 e0       	ldi	r31, 0x00	; 0
     eda:	eb 58       	subi	r30, 0x8B	; 139
     edc:	f5 4c       	sbci	r31, 0xC5	; 197
     ede:	10 82       	st	Z, r1
            --RXCNT;
     ee0:	8d b3       	in	r24, 0x1d	; 29
     ee2:	81 50       	subi	r24, 0x01	; 1
     ee4:	05 c0       	rjmp	.+10     	; 0xef0 <__vector_27+0x9e>
        } else if (RXCNT < (RXLEN-1)) ++RXCNT;
     ee6:	8d b3       	in	r24, 0x1d	; 29
     ee8:	80 34       	cpi	r24, 0x40	; 64
     eea:	18 f4       	brcc	.+6      	; 0xef2 <__vector_27+0xa0>
     eec:	8d b3       	in	r24, 0x1d	; 29
     eee:	8f 5f       	subi	r24, 0xFF	; 255
     ef0:	8d bb       	out	0x1d, r24	; 29
    }
    USART0_STATUS = USART_RXCIF_bm;
     ef2:	80 e8       	ldi	r24, 0x80	; 128
     ef4:	80 93 04 08 	sts	0x0804, r24	; 0x800804 <__TEXT_REGION_LENGTH__+0x700804>
};
     ef8:	ff 91       	pop	r31
     efa:	ef 91       	pop	r30
     efc:	8f 91       	pop	r24
     efe:	0f 90       	pop	r0
     f00:	0f be       	out	0x3f, r0	; 63
     f02:	0f 90       	pop	r0
     f04:	1f 90       	pop	r1
     f06:	18 95       	reti

00000f08 <__vector_28>:

// Trigger new data write and turn off DRE interrupt.
ISR(USART0_DRE_vect){
     f08:	1f 92       	push	r1
     f0a:	0f 92       	push	r0
     f0c:	0f b6       	in	r0, 0x3f	; 63
     f0e:	0f 92       	push	r0
     f10:	11 24       	eor	r1, r1
     f12:	8f 93       	push	r24
     f14:	ef 93       	push	r30
     f16:	ff 93       	push	r31
    TCB0_CNT = 0;
     f18:	10 92 4a 0a 	sts	0x0A4A, r1	; 0x800a4a <__TEXT_REGION_LENGTH__+0x700a4a>
     f1c:	10 92 4b 0a 	sts	0x0A4B, r1	; 0x800a4b <__TEXT_REGION_LENGTH__+0x700a4b>
    TCB0_INTCTRL = 0x01;
     f20:	81 e0       	ldi	r24, 0x01	; 1
     f22:	80 93 45 0a 	sts	0x0A45, r24	; 0x800a45 <__TEXT_REGION_LENGTH__+0x700a45>
    USART0_CTRLA &= ~(USART_DREIE_bm);
     f26:	e5 e0       	ldi	r30, 0x05	; 5
     f28:	f8 e0       	ldi	r31, 0x08	; 8
     f2a:	80 81       	ld	r24, Z
     f2c:	8f 7d       	andi	r24, 0xDF	; 223
     f2e:	80 83       	st	Z, r24
};
     f30:	ff 91       	pop	r31
     f32:	ef 91       	pop	r30
     f34:	8f 91       	pop	r24
     f36:	0f 90       	pop	r0
     f38:	0f be       	out	0x3f, r0	; 63
     f3a:	0f 90       	pop	r0
     f3c:	1f 90       	pop	r1
     f3e:	18 95       	reti

00000f40 <__vector_20>:

// ADC used for audio input and temperature sensor.
ISR(ADC0_RESRDY_vect){
     f40:	1f 92       	push	r1
     f42:	0f 92       	push	r0
     f44:	0f b6       	in	r0, 0x3f	; 63
     f46:	0f 92       	push	r0
     f48:	11 24       	eor	r1, r1
     f4a:	8f 93       	push	r24
     f4c:	9f 93       	push	r25
     f4e:	ef 93       	push	r30
     f50:	ff 93       	push	r31
    //If just switched reference, discard first few samples
    if (adc0Chg == 0){
     f52:	80 91 37 38 	lds	r24, 0x3837	; 0x803837 <adc0Chg>
     f56:	81 11       	cpse	r24, r1
     f58:	19 c0       	rjmp	.+50     	; 0xf8c <__vector_20+0x4c>
        AUPOS = (AUPOS+1)&(AULEN-1);
     f5a:	8e b3       	in	r24, 0x1e	; 30
     f5c:	8f 5f       	subi	r24, 0xFF	; 255
     f5e:	87 70       	andi	r24, 0x07	; 7
     f60:	8e bb       	out	0x1e, r24	; 30
        if (ADC0_MUXPOS == 0x1E) adcTemp = ADC0_RES; else auIn[AUPOS]=ADC0_RESL;
     f62:	80 91 06 06 	lds	r24, 0x0606	; 0x800606 <__TEXT_REGION_LENGTH__+0x700606>
     f66:	8e 31       	cpi	r24, 0x1E	; 30
     f68:	49 f4       	brne	.+18     	; 0xf7c <__vector_20+0x3c>
     f6a:	80 91 10 06 	lds	r24, 0x0610	; 0x800610 <__TEXT_REGION_LENGTH__+0x700610>
     f6e:	90 91 11 06 	lds	r25, 0x0611	; 0x800611 <__TEXT_REGION_LENGTH__+0x700611>
     f72:	80 93 f5 3a 	sts	0x3AF5, r24	; 0x803af5 <adcTemp>
     f76:	90 93 f6 3a 	sts	0x3AF6, r25	; 0x803af6 <adcTemp+0x1>
     f7a:	0d c0       	rjmp	.+26     	; 0xf96 <__vector_20+0x56>
     f7c:	ee b3       	in	r30, 0x1e	; 30
     f7e:	f0 e0       	ldi	r31, 0x00	; 0
     f80:	80 91 10 06 	lds	r24, 0x0610	; 0x800610 <__TEXT_REGION_LENGTH__+0x700610>
     f84:	ee 53       	subi	r30, 0x3E	; 62
     f86:	f5 4c       	sbci	r31, 0xC5	; 197
     f88:	80 83       	st	Z, r24
     f8a:	05 c0       	rjmp	.+10     	; 0xf96 <__vector_20+0x56>
    } else --adc0Chg;
     f8c:	80 91 37 38 	lds	r24, 0x3837	; 0x803837 <adc0Chg>
     f90:	81 50       	subi	r24, 0x01	; 1
     f92:	80 93 37 38 	sts	0x3837, r24	; 0x803837 <adc0Chg>
    ADC0_INTFLAGS = ADC_RESRDY_bm;
     f96:	81 e0       	ldi	r24, 0x01	; 1
     f98:	80 93 0b 06 	sts	0x060B, r24	; 0x80060b <__TEXT_REGION_LENGTH__+0x70060b>
}
     f9c:	ff 91       	pop	r31
     f9e:	ef 91       	pop	r30
     fa0:	9f 91       	pop	r25
     fa2:	8f 91       	pop	r24
     fa4:	0f 90       	pop	r0
     fa6:	0f be       	out	0x3f, r0	; 63
     fa8:	0f 90       	pop	r0
     faa:	1f 90       	pop	r1
     fac:	18 95       	reti

00000fae <__vector_22>:

// Reads out sensors at 8Hz and buttons at 42Hz (timed by PIT), power for the sensors is on 1/8th of the time to save power.
ISR(ADC1_RESRDY_vect){
     fae:	1f 92       	push	r1
     fb0:	0f 92       	push	r0
     fb2:	0f b6       	in	r0, 0x3f	; 63
     fb4:	0f 92       	push	r0
     fb6:	11 24       	eor	r1, r1
     fb8:	8f 93       	push	r24
     fba:	9f 93       	push	r25
    if (ADC1_MUXPOS == 0) {
     fbc:	80 91 46 06 	lds	r24, 0x0646	; 0x800646 <__TEXT_REGION_LENGTH__+0x700646>
     fc0:	81 11       	cpse	r24, r1
     fc2:	0a c0       	rjmp	.+20     	; 0xfd8 <__vector_22+0x2a>
        adcPhot = ADC1_RES;
     fc4:	80 91 50 06 	lds	r24, 0x0650	; 0x800650 <__TEXT_REGION_LENGTH__+0x700650>
     fc8:	90 91 51 06 	lds	r25, 0x0651	; 0x800651 <__TEXT_REGION_LENGTH__+0x700651>
     fcc:	80 93 bd 3a 	sts	0x3ABD, r24	; 0x803abd <adcPhot>
     fd0:	90 93 be 3a 	sts	0x3ABE, r25	; 0x803abe <adcPhot+0x1>
        ADC1_MUXPOS = 0x01;             //Select Hall sensor
     fd4:	81 e0       	ldi	r24, 0x01	; 1
     fd6:	10 c0       	rjmp	.+32     	; 0xff8 <__vector_22+0x4a>
    } else if (ADC1_MUXPOS == 1){
     fd8:	80 91 46 06 	lds	r24, 0x0646	; 0x800646 <__TEXT_REGION_LENGTH__+0x700646>
     fdc:	81 30       	cpi	r24, 0x01	; 1
     fde:	79 f4       	brne	.+30     	; 0xffe <__vector_22+0x50>
        PORTA_OUTCLR = 0b00001000;      //Turn off sensor power
     fe0:	88 e0       	ldi	r24, 0x08	; 8
     fe2:	80 93 06 04 	sts	0x0406, r24	; 0x800406 <__TEXT_REGION_LENGTH__+0x700406>
        adcHall = ADC1_RES;
     fe6:	80 91 50 06 	lds	r24, 0x0650	; 0x800650 <__TEXT_REGION_LENGTH__+0x700650>
     fea:	90 91 51 06 	lds	r25, 0x0651	; 0x800651 <__TEXT_REGION_LENGTH__+0x700651>
     fee:	80 93 bb 3a 	sts	0x3ABB, r24	; 0x803abb <adcHall>
     ff2:	90 93 bc 3a 	sts	0x3ABC, r25	; 0x803abc <adcHall+0x1>
        ADC1_MUXPOS = 0x04;             //select buttons
     ff6:	84 e0       	ldi	r24, 0x04	; 4
     ff8:	80 93 46 06 	sts	0x0646, r24	; 0x800646 <__TEXT_REGION_LENGTH__+0x700646>
     ffc:	10 c0       	rjmp	.+32     	; 0x101e <__vector_22+0x70>
    } else {
        adcBtns = ADC1_RES;
     ffe:	80 91 50 06 	lds	r24, 0x0650	; 0x800650 <__TEXT_REGION_LENGTH__+0x700650>
    1002:	90 91 51 06 	lds	r25, 0x0651	; 0x800651 <__TEXT_REGION_LENGTH__+0x700651>
    1006:	80 93 b7 3a 	sts	0x3AB7, r24	; 0x803ab7 <adcBtns>
    100a:	90 93 b8 3a 	sts	0x3AB8, r25	; 0x803ab8 <adcBtns+0x1>
        if (A1CNT == 15){
    100e:	8f b3       	in	r24, 0x1f	; 31
    1010:	8f 30       	cpi	r24, 0x0F	; 15
    1012:	29 f4       	brne	.+10     	; 0x101e <__vector_22+0x70>
            ADC1_MUXPOS = 0x00;         //Select photo transistor
    1014:	10 92 46 06 	sts	0x0646, r1	; 0x800646 <__TEXT_REGION_LENGTH__+0x700646>
            PORTA_OUTSET = 0b00001000;  //Turn on sensor power
    1018:	88 e0       	ldi	r24, 0x08	; 8
    101a:	80 93 05 04 	sts	0x0405, r24	; 0x800405 <__TEXT_REGION_LENGTH__+0x700405>
        }
    }

    A1CNT=(A1CNT+1)%16;        
    101e:	8f b3       	in	r24, 0x1f	; 31
    1020:	90 e0       	ldi	r25, 0x00	; 0
    1022:	01 96       	adiw	r24, 0x01	; 1
    1024:	8f 70       	andi	r24, 0x0F	; 15
    1026:	99 27       	eor	r25, r25
    1028:	8f bb       	out	0x1f, r24	; 31
    ADC1_INTFLAGS = ADC_RESRDY_bm;
    102a:	81 e0       	ldi	r24, 0x01	; 1
    102c:	80 93 4b 06 	sts	0x064B, r24	; 0x80064b <__TEXT_REGION_LENGTH__+0x70064b>
}
    1030:	9f 91       	pop	r25
    1032:	8f 91       	pop	r24
    1034:	0f 90       	pop	r0
    1036:	0f be       	out	0x3f, r0	; 63
    1038:	0f 90       	pop	r0
    103a:	1f 90       	pop	r1
    103c:	18 95       	reti

0000103e <__vector_6>:

// RTC compare interrupt, triggers at 512/BTN_TMR rate, also RTC overflow interrupt, triggers once a minute
ISR(RTC_CNT_vect) {
    103e:	1f 92       	push	r1
    1040:	0f 92       	push	r0
    1042:	0f b6       	in	r0, 0x3f	; 63
    1044:	0f 92       	push	r0
    1046:	11 24       	eor	r1, r1
    1048:	2f 93       	push	r18
    104a:	3f 93       	push	r19
    104c:	8f 93       	push	r24
    104e:	9f 93       	push	r25
    if (RTC_INTFLAGS & RTC_CMP_bm){
    1050:	80 91 43 01 	lds	r24, 0x0143	; 0x800143 <__TEXT_REGION_LENGTH__+0x700143>
    1054:	81 ff       	sbrs	r24, 1
    1056:	39 c0       	rjmp	.+114    	; 0x10ca <__vector_6+0x8c>
        if (buttonMark<0xff) buttonMark++;   // For button timing purposes
    1058:	80 91 42 38 	lds	r24, 0x3842	; 0x803842 <buttonMark>
    105c:	8f 3f       	cpi	r24, 0xFF	; 255
    105e:	29 f0       	breq	.+10     	; 0x106a <__vector_6+0x2c>
    1060:	80 91 42 38 	lds	r24, 0x3842	; 0x803842 <buttonMark>
    1064:	8f 5f       	subi	r24, 0xFF	; 255
    1066:	80 93 42 38 	sts	0x3842, r24	; 0x803842 <buttonMark>
        //tmp16bit = (RTC_CNT + BTN_TMR)%RTC_PER;
        tmp16bit = (RTC_CNT + BTN_TMR);
    106a:	80 91 48 01 	lds	r24, 0x0148	; 0x800148 <__TEXT_REGION_LENGTH__+0x700148>
    106e:	90 91 49 01 	lds	r25, 0x0149	; 0x800149 <__TEXT_REGION_LENGTH__+0x700149>
    1072:	82 96       	adiw	r24, 0x22	; 34
    1074:	80 93 f7 3a 	sts	0x3AF7, r24	; 0x803af7 <tmp16bit>
    1078:	90 93 f8 3a 	sts	0x3AF8, r25	; 0x803af8 <tmp16bit+0x1>
        if (tmp16bit > RTC_PER) tmp16bit -= RTC_PER;
    107c:	20 91 4a 01 	lds	r18, 0x014A	; 0x80014a <__TEXT_REGION_LENGTH__+0x70014a>
    1080:	30 91 4b 01 	lds	r19, 0x014B	; 0x80014b <__TEXT_REGION_LENGTH__+0x70014b>
    1084:	80 91 f7 3a 	lds	r24, 0x3AF7	; 0x803af7 <tmp16bit>
    1088:	90 91 f8 3a 	lds	r25, 0x3AF8	; 0x803af8 <tmp16bit+0x1>
    108c:	28 17       	cp	r18, r24
    108e:	39 07       	cpc	r19, r25
    1090:	70 f4       	brcc	.+28     	; 0x10ae <__vector_6+0x70>
    1092:	20 91 4a 01 	lds	r18, 0x014A	; 0x80014a <__TEXT_REGION_LENGTH__+0x70014a>
    1096:	30 91 4b 01 	lds	r19, 0x014B	; 0x80014b <__TEXT_REGION_LENGTH__+0x70014b>
    109a:	80 91 f7 3a 	lds	r24, 0x3AF7	; 0x803af7 <tmp16bit>
    109e:	90 91 f8 3a 	lds	r25, 0x3AF8	; 0x803af8 <tmp16bit+0x1>
    10a2:	82 1b       	sub	r24, r18
    10a4:	93 0b       	sbc	r25, r19
    10a6:	80 93 f7 3a 	sts	0x3AF7, r24	; 0x803af7 <tmp16bit>
    10aa:	90 93 f8 3a 	sts	0x3AF8, r25	; 0x803af8 <tmp16bit+0x1>
        while(RTC_STATUS & RTC_CMPBUSY_bm);
    10ae:	80 91 41 01 	lds	r24, 0x0141	; 0x800141 <__TEXT_REGION_LENGTH__+0x700141>
    10b2:	83 fd       	sbrc	r24, 3
    10b4:	fc cf       	rjmp	.-8      	; 0x10ae <__vector_6+0x70>
        RTC_CMP = tmp16bit;                 // Button timing: next interrupt set
    10b6:	80 91 f7 3a 	lds	r24, 0x3AF7	; 0x803af7 <tmp16bit>
    10ba:	90 91 f8 3a 	lds	r25, 0x3AF8	; 0x803af8 <tmp16bit+0x1>
    10be:	80 93 4c 01 	sts	0x014C, r24	; 0x80014c <__TEXT_REGION_LENGTH__+0x70014c>
    10c2:	90 93 4d 01 	sts	0x014D, r25	; 0x80014d <__TEXT_REGION_LENGTH__+0x70014d>
        RTC_INTFLAGS = RTC_CMP_bm;		    // clear interrupt flag
    10c6:	82 e0       	ldi	r24, 0x02	; 2
    10c8:	06 c0       	rjmp	.+12     	; 0x10d6 <__vector_6+0x98>
    } else {
        minuteMark++;                       // For very slow timing purposes, overflows to 0
    10ca:	80 91 43 38 	lds	r24, 0x3843	; 0x803843 <minuteMark>
    10ce:	8f 5f       	subi	r24, 0xFF	; 255
    10d0:	80 93 43 38 	sts	0x3843, r24	; 0x803843 <minuteMark>
        RTC_INTFLAGS = RTC_OVF_bm;		    // clear interrupt flag
    10d4:	81 e0       	ldi	r24, 0x01	; 1
    10d6:	80 93 43 01 	sts	0x0143, r24	; 0x800143 <__TEXT_REGION_LENGTH__+0x700143>
    }
}
    10da:	9f 91       	pop	r25
    10dc:	8f 91       	pop	r24
    10de:	3f 91       	pop	r19
    10e0:	2f 91       	pop	r18
    10e2:	0f 90       	pop	r0
    10e4:	0f be       	out	0x3f, r0	; 63
    10e6:	0f 90       	pop	r0
    10e8:	1f 90       	pop	r1
    10ea:	18 95       	reti

000010ec <__vector_7>:

// PIT interrupt (timing of ADC1: sensor values)
ISR(RTC_PIT_vect) {						// PIT interrupt handling code
    10ec:	1f 92       	push	r1
    10ee:	0f 92       	push	r0
    10f0:	0f b6       	in	r0, 0x3f	; 63
    10f2:	0f 92       	push	r0
    10f4:	11 24       	eor	r1, r1
    10f6:	8f 93       	push	r24
    ADC1_COMMAND = 0x01;
    10f8:	81 e0       	ldi	r24, 0x01	; 1
    10fa:	80 93 48 06 	sts	0x0648, r24	; 0x800648 <__TEXT_REGION_LENGTH__+0x700648>
    RTC_PITINTFLAGS = RTC_PI_bm;		// clear interrupt flag
    10fe:	80 93 53 01 	sts	0x0153, r24	; 0x800153 <__TEXT_REGION_LENGTH__+0x700153>
}
    1102:	8f 91       	pop	r24
    1104:	0f 90       	pop	r0
    1106:	0f be       	out	0x3f, r0	; 63
    1108:	0f 90       	pop	r0
    110a:	1f 90       	pop	r1
    110c:	18 95       	reti

0000110e <EERead>:

// Read bytes from EEPROM
void EERead(uint8_t eeAddr, uint8_t *eeValues, uint8_t size)
{
    while(NVMCTRL_STATUS & NVMCTRL_EEBUSY_bm);              // Wait until any write operation has finished
    110e:	90 91 02 10 	lds	r25, 0x1002	; 0x801002 <__TEXT_REGION_LENGTH__+0x701002>
    1112:	91 fd       	sbrc	r25, 1
    1114:	fc cf       	rjmp	.-8      	; 0x110e <EERead>
    1116:	fb 01       	movw	r30, r22
    1118:	48 0f       	add	r20, r24

    while(size){
    111a:	84 17       	cp	r24, r20
    111c:	39 f0       	breq	.+14     	; 0x112c <EERead+0x1e>
        *eeValues++ = *(uint8_t *)(EEPROM_START+eeAddr++);  // Read data from buffer
    111e:	a8 2f       	mov	r26, r24
    1120:	b0 e0       	ldi	r27, 0x00	; 0
    1122:	bc 5e       	subi	r27, 0xEC	; 236
    1124:	9c 91       	ld	r25, X
    1126:	91 93       	st	Z+, r25
    1128:	8f 5f       	subi	r24, 0xFF	; 255
    112a:	f7 cf       	rjmp	.-18     	; 0x111a <EERead+0xc>
        --size;
    }
}
    112c:	08 95       	ret

0000112e <EEWrite>:
{
    uint8_t lastByteOfPage;
    while(size){
        lastByteOfPage = 0;
        while(NVMCTRL_STATUS & NVMCTRL_EEBUSY_bm);              // Wait until any write operation has finished
        CCP = CCP_SPM_gc;                                       // Gain access to NVMCTRL_CTRLA
    112e:	9d e9       	ldi	r25, 0x9D	; 157
        NVMCTRL_CTRLA = NVMCTRL_CMD_PAGEBUFCLR_gc;              // Clear page buffer
    1130:	24 e0       	ldi	r18, 0x04	; 4
            if ((eeAddr % EEPROM_PAGE_SIZE) == (EEPROM_PAGE_SIZE-1)) lastByteOfPage = 1;
            *(uint8_t *)(EEPROM_START+eeAddr++) = *eeValues++;  // Write data to buffer
            --size;
        }
        CCP = CCP_SPM_gc;
        NVMCTRL_CTRLA = NVMCTRL_CMD_PAGEERASEWRITE_gc;          // Erase old data and write new data to EEPROM
    1132:	33 e0       	ldi	r19, 0x03	; 3

// Write bytes to the EEPROM, if address exceeds EEPROM space data wraps around
uint8_t EEWrite(uint8_t eeAddr, uint8_t *eeValues, uint8_t size)
{
    uint8_t lastByteOfPage;
    while(size){
    1134:	44 23       	and	r20, r20
    1136:	09 f1       	breq	.+66     	; 0x117a <EEWrite+0x4c>
        lastByteOfPage = 0;
        while(NVMCTRL_STATUS & NVMCTRL_EEBUSY_bm);              // Wait until any write operation has finished
    1138:	50 91 02 10 	lds	r21, 0x1002	; 0x801002 <__TEXT_REGION_LENGTH__+0x701002>
    113c:	51 fd       	sbrc	r21, 1
    113e:	fc cf       	rjmp	.-8      	; 0x1138 <EEWrite+0xa>
        CCP = CCP_SPM_gc;                                       // Gain access to NVMCTRL_CTRLA
    1140:	94 bf       	out	0x34, r25	; 52
        NVMCTRL_CTRLA = NVMCTRL_CMD_PAGEBUFCLR_gc;              // Clear page buffer
    1142:	20 93 00 10 	sts	0x1000, r18	; 0x801000 <__TEXT_REGION_LENGTH__+0x701000>
    1146:	e8 2f       	mov	r30, r24
        while((size) && (lastByteOfPage == 0)){
            if ((eeAddr % EEPROM_PAGE_SIZE) == (EEPROM_PAGE_SIZE-1)) lastByteOfPage = 1;
    1148:	58 2f       	mov	r21, r24
    114a:	5f 71       	andi	r21, 0x1F	; 31
            *(uint8_t *)(EEPROM_START+eeAddr++) = *eeValues++;  // Write data to buffer
    114c:	8f 5f       	subi	r24, 0xFF	; 255
    114e:	6f 5f       	subi	r22, 0xFF	; 255
    1150:	7f 4f       	sbci	r23, 0xFF	; 255
    1152:	db 01       	movw	r26, r22
    1154:	11 97       	sbiw	r26, 0x01	; 1
    1156:	ac 91       	ld	r26, X
    1158:	f0 e0       	ldi	r31, 0x00	; 0
    115a:	fc 5e       	subi	r31, 0xEC	; 236
    115c:	a0 83       	st	Z, r26
            --size;
    115e:	41 50       	subi	r20, 0x01	; 1
    while(size){
        lastByteOfPage = 0;
        while(NVMCTRL_STATUS & NVMCTRL_EEBUSY_bm);              // Wait until any write operation has finished
        CCP = CCP_SPM_gc;                                       // Gain access to NVMCTRL_CTRLA
        NVMCTRL_CTRLA = NVMCTRL_CMD_PAGEBUFCLR_gc;              // Clear page buffer
        while((size) && (lastByteOfPage == 0)){
    1160:	19 f0       	breq	.+6      	; 0x1168 <EEWrite+0x3a>
            if ((eeAddr % EEPROM_PAGE_SIZE) == (EEPROM_PAGE_SIZE-1)) lastByteOfPage = 1;
            *(uint8_t *)(EEPROM_START+eeAddr++) = *eeValues++;  // Write data to buffer
    1162:	e8 2f       	mov	r30, r24
    while(size){
        lastByteOfPage = 0;
        while(NVMCTRL_STATUS & NVMCTRL_EEBUSY_bm);              // Wait until any write operation has finished
        CCP = CCP_SPM_gc;                                       // Gain access to NVMCTRL_CTRLA
        NVMCTRL_CTRLA = NVMCTRL_CMD_PAGEBUFCLR_gc;              // Clear page buffer
        while((size) && (lastByteOfPage == 0)){
    1164:	5f 31       	cpi	r21, 0x1F	; 31
    1166:	81 f7       	brne	.-32     	; 0x1148 <EEWrite+0x1a>
            if ((eeAddr % EEPROM_PAGE_SIZE) == (EEPROM_PAGE_SIZE-1)) lastByteOfPage = 1;
            *(uint8_t *)(EEPROM_START+eeAddr++) = *eeValues++;  // Write data to buffer
            --size;
        }
        CCP = CCP_SPM_gc;
    1168:	94 bf       	out	0x34, r25	; 52
        NVMCTRL_CTRLA = NVMCTRL_CMD_PAGEERASEWRITE_gc;          // Erase old data and write new data to EEPROM
    116a:	30 93 00 10 	sts	0x1000, r19	; 0x801000 <__TEXT_REGION_LENGTH__+0x701000>
        if (NVMCTRL_STATUS & NVMCTRL_WRERROR_bm) return 1;
    116e:	50 91 02 10 	lds	r21, 0x1002	; 0x801002 <__TEXT_REGION_LENGTH__+0x701002>
    1172:	52 ff       	sbrs	r21, 2
    1174:	df cf       	rjmp	.-66     	; 0x1134 <EEWrite+0x6>
    1176:	81 e0       	ldi	r24, 0x01	; 1
    }
    return 0;
}
    1178:	08 95       	ret
        }
        CCP = CCP_SPM_gc;
        NVMCTRL_CTRLA = NVMCTRL_CMD_PAGEERASEWRITE_gc;          // Erase old data and write new data to EEPROM
        if (NVMCTRL_STATUS & NVMCTRL_WRERROR_bm) return 1;
    }
    return 0;
    117a:	80 e0       	ldi	r24, 0x00	; 0
    117c:	08 95       	ret

0000117e <SerSend>:
}

// Sends a set of characters to the serial port, stops only when character value 0 is reached.
uint8_t SerSend(unsigned char *addr){
    if (serTxDone){
    117e:	20 91 09 38 	lds	r18, 0x3809	; 0x803809 <serTxDone>
    1182:	22 23       	and	r18, r18
    1184:	59 f0       	breq	.+22     	; 0x119c <SerSend+0x1e>
        serTxAddr = addr;
    1186:	80 93 b9 3a 	sts	0x3AB9, r24	; 0x803ab9 <serTxAddr>
    118a:	90 93 ba 3a 	sts	0x3ABA, r25	; 0x803aba <serTxAddr+0x1>
        serTxDone = 0;
    118e:	10 92 09 38 	sts	0x3809, r1	; 0x803809 <serTxDone>
        TCB0_INTCTRL = 0x01;
    1192:	81 e0       	ldi	r24, 0x01	; 1
    1194:	80 93 45 0a 	sts	0x0A45, r24	; 0x800a45 <__TEXT_REGION_LENGTH__+0x700a45>
        return 0;
    1198:	80 e0       	ldi	r24, 0x00	; 0
    119a:	08 95       	ret
    } else return 1;    //Error: Still sending data
    119c:	81 e0       	ldi	r24, 0x01	; 1
};
    119e:	08 95       	ret

000011a0 <SerSpeed>:

// Set serial character output speed, 255-0 (0.8 to 100ms delay between characters)
void SerSpeed(uint8_t serSpd){
    11a0:	28 2f       	mov	r18, r24
    if (serSpd<1) serSpd = 1;
    11a2:	81 11       	cpse	r24, r1
    11a4:	01 c0       	rjmp	.+2      	; 0x11a8 <SerSpeed+0x8>
    11a6:	21 e0       	ldi	r18, 0x01	; 1
    TCB0_CCMP = ((uint16_t)(0xFF-serSpd)<<8) + 0xFF;
    11a8:	8f ef       	ldi	r24, 0xFF	; 255
    11aa:	90 e0       	ldi	r25, 0x00	; 0
    11ac:	82 1b       	sub	r24, r18
    11ae:	91 09       	sbc	r25, r1
    11b0:	98 2f       	mov	r25, r24
    11b2:	88 27       	eor	r24, r24
    11b4:	81 50       	subi	r24, 0x01	; 1
    11b6:	9f 4f       	sbci	r25, 0xFF	; 255
    11b8:	80 93 4c 0a 	sts	0x0A4C, r24	; 0x800a4c <__TEXT_REGION_LENGTH__+0x700a4c>
    11bc:	90 93 4d 0a 	sts	0x0A4D, r25	; 0x800a4d <__TEXT_REGION_LENGTH__+0x700a4d>
    11c0:	08 95       	ret

000011c2 <SelectTSens>:
};

// Select temperature sensor
void SelectTSens(){
     VREF_CTRLA   = 0x12;    //0x22 for audio in/out (2.5V), 0x12 for temperature in, audio out (1.1V/2.5V)
    11c2:	82 e1       	ldi	r24, 0x12	; 18
    11c4:	80 93 a0 00 	sts	0x00A0, r24	; 0x8000a0 <__TEXT_REGION_LENGTH__+0x7000a0>
     ADC0_CTRLA   &= ~(ADC_RESSEL_bm);
    11c8:	e0 e0       	ldi	r30, 0x00	; 0
    11ca:	f6 e0       	ldi	r31, 0x06	; 6
    11cc:	80 81       	ld	r24, Z
    11ce:	8b 7f       	andi	r24, 0xFB	; 251
    11d0:	80 83       	st	Z, r24
     ADC0_MUXPOS  = 0x1E;    //Audio in: AIN7 at (0x07), Temperature: Internal sensor at (0x1E)
    11d2:	8e e1       	ldi	r24, 0x1E	; 30
    11d4:	80 93 06 06 	sts	0x0606, r24	; 0x800606 <__TEXT_REGION_LENGTH__+0x700606>
     adc0Chg = 3;
    11d8:	83 e0       	ldi	r24, 0x03	; 3
    11da:	80 93 37 38 	sts	0x3837, r24	; 0x803837 <adc0Chg>
    11de:	08 95       	ret

000011e0 <SelectAuIn>:
};

// Select "audio" input (0-2.5V)
void SelectAuIn(){
     VREF_CTRLA   = 0x22;    //0x22 for audio in/out (2.5V), 0x12 for temperature in, audio out (1.1V/2.5V)
    11e0:	82 e2       	ldi	r24, 0x22	; 34
    11e2:	80 93 a0 00 	sts	0x00A0, r24	; 0x8000a0 <__TEXT_REGION_LENGTH__+0x7000a0>
     ADC0_CTRLA   |= ADC_RESSEL_bm;
    11e6:	e0 e0       	ldi	r30, 0x00	; 0
    11e8:	f6 e0       	ldi	r31, 0x06	; 6
    11ea:	80 81       	ld	r24, Z
    11ec:	84 60       	ori	r24, 0x04	; 4
    11ee:	80 83       	st	Z, r24
     ADC0_MUXPOS  = 0x07;    //Audio in: AIN7 at (0x07), Temperature: Internal sensor at (0x1E)
    11f0:	87 e0       	ldi	r24, 0x07	; 7
    11f2:	80 93 06 06 	sts	0x0606, r24	; 0x800606 <__TEXT_REGION_LENGTH__+0x700606>
     adc0Chg = 3;
    11f6:	83 e0       	ldi	r24, 0x03	; 3
    11f8:	80 93 37 38 	sts	0x3837, r24	; 0x803837 <adc0Chg>
    11fc:	08 95       	ret

000011fe <CheckButtons>:
};

// Returns button combination (4LSB) and number of consecutive times this combination is detected. First read should always be ignored! 
uint8_t CheckButtons(){
    static uint8_t previousValue = 0xFF;
    uint8_t bADC = (uint8_t)(adcBtns>>4);
    11fe:	80 91 b7 3a 	lds	r24, 0x3AB7	; 0x803ab7 <adcBtns>
    1202:	90 91 b8 3a 	lds	r25, 0x3AB8	; 0x803ab8 <adcBtns+0x1>
    uint8_t button = 0xFF;     //FF = released or error

        switch(bADC){
    1206:	24 e0       	ldi	r18, 0x04	; 4
    1208:	96 95       	lsr	r25
    120a:	87 95       	ror	r24
    120c:	2a 95       	dec	r18
    120e:	e1 f7       	brne	.-8      	; 0x1208 <CheckButtons+0xa>
    1210:	99 27       	eor	r25, r25
    1212:	80 36       	cpi	r24, 0x60	; 96
    1214:	91 05       	cpc	r25, r1
    1216:	40 f4       	brcc	.+16     	; 0x1228 <CheckButtons+0x2a>
    1218:	8f 34       	cpi	r24, 0x4F	; 79
    121a:	91 05       	cpc	r25, r1
    121c:	88 f4       	brcc	.+34     	; 0x1240 <CheckButtons+0x42>
    121e:	c0 97       	sbiw	r24, 0x30	; 48
    1220:	09 97       	sbiw	r24, 0x09	; 9
    1222:	90 f4       	brcc	.+36     	; 0x1248 <CheckButtons+0x4a>

            case 48 ... 56:          //52: Bottom left (+/-4)
            button = 2;
    1224:	92 e0       	ldi	r25, 0x02	; 2
    1226:	11 c0       	rjmp	.+34     	; 0x124a <CheckButtons+0x4c>
uint8_t CheckButtons(){
    static uint8_t previousValue = 0xFF;
    uint8_t bADC = (uint8_t)(adcBtns>>4);
    uint8_t button = 0xFF;     //FF = released or error

        switch(bADC){
    1228:	85 37       	cpi	r24, 0x75	; 117
    122a:	91 05       	cpc	r25, r1
    122c:	68 f0       	brcs	.+26     	; 0x1248 <CheckButtons+0x4a>
    122e:	8e 38       	cpi	r24, 0x8E	; 142
    1230:	91 05       	cpc	r25, r1
    1232:	40 f0       	brcs	.+16     	; 0x1244 <CheckButtons+0x46>
    1234:	8e 59       	subi	r24, 0x9E	; 158
    1236:	91 09       	sbc	r25, r1
    1238:	81 97       	sbiw	r24, 0x21	; 33
    123a:	30 f4       	brcc	.+12     	; 0x1248 <CheckButtons+0x4a>
            case 117 ... 141:        //129: Top right (+/- 12)
            button = 1;
            break;

            case 158 ... 190:        //174: Bottom right (+/- 16)
            button = 0;
    123c:	90 e0       	ldi	r25, 0x00	; 0
            break;
    123e:	05 c0       	rjmp	.+10     	; 0x124a <CheckButtons+0x4c>
            case 48 ... 56:          //52: Bottom left (+/-4)
            button = 2;
            break;

            case 79 ... 95:          //87: Top left (+/-8)
            button = 3;
    1240:	93 e0       	ldi	r25, 0x03	; 3
            break;
    1242:	03 c0       	rjmp	.+6      	; 0x124a <CheckButtons+0x4c>

            case 117 ... 141:        //129: Top right (+/- 12)
            button = 1;
    1244:	91 e0       	ldi	r25, 0x01	; 1
            break;
    1246:	01 c0       	rjmp	.+2      	; 0x124a <CheckButtons+0x4c>

// Returns button combination (4LSB) and number of consecutive times this combination is detected. First read should always be ignored! 
uint8_t CheckButtons(){
    static uint8_t previousValue = 0xFF;
    uint8_t bADC = (uint8_t)(adcBtns>>4);
    uint8_t button = 0xFF;     //FF = released or error
    1248:	9f ef       	ldi	r25, 0xFF	; 255
            case 158 ... 190:        //174: Bottom right (+/- 16)
            button = 0;
            break;
        }

        if (((previousValue+1)== 0) || (button != previousValue)) {
    124a:	80 91 22 38 	lds	r24, 0x3822	; 0x803822 <previousValue.3878>
    124e:	98 17       	cp	r25, r24
    1250:	19 f0       	breq	.+6      	; 0x1258 <CheckButtons+0x5a>
            previousValue = button;
    1252:	90 93 22 38 	sts	0x3822, r25	; 0x803822 <previousValue.3878>
            return 0xFF;
    1256:	8f ef       	ldi	r24, 0xFF	; 255
        } else return button;

}
    1258:	08 95       	ret

0000125a <lfsr>:

uint8_t lfsr(){
    static uint16_t state = 0xd401;
    state ^= (state << 13);
    125a:	80 91 20 38 	lds	r24, 0x3820	; 0x803820 <state.3888>
    125e:	90 91 21 38 	lds	r25, 0x3821	; 0x803821 <state.3888+0x1>
    1262:	9c 01       	movw	r18, r24
    1264:	32 2f       	mov	r19, r18
    1266:	22 27       	eor	r18, r18
    1268:	32 95       	swap	r19
    126a:	33 0f       	add	r19, r19
    126c:	30 7e       	andi	r19, 0xE0	; 224
    126e:	82 27       	eor	r24, r18
    1270:	93 27       	eor	r25, r19
    state ^= (state >> 9);
    1272:	9c 01       	movw	r18, r24
    1274:	23 2f       	mov	r18, r19
    1276:	33 27       	eor	r19, r19
    1278:	26 95       	lsr	r18
    127a:	82 27       	eor	r24, r18
    127c:	93 27       	eor	r25, r19
    state ^= (state << 7);
    127e:	9c 01       	movw	r18, r24
    1280:	36 95       	lsr	r19
    1282:	32 2f       	mov	r19, r18
    1284:	22 27       	eor	r18, r18
    1286:	37 95       	ror	r19
    1288:	27 95       	ror	r18
    128a:	82 27       	eor	r24, r18
    128c:	93 27       	eor	r25, r19
    128e:	80 93 20 38 	sts	0x3820, r24	; 0x803820 <state.3888>
    1292:	90 93 21 38 	sts	0x3821, r25	; 0x803821 <state.3888+0x1>
    return (state & 0xff);
}
    1296:	08 95       	ret

00001298 <floatSpeed>:

void floatSpeed(uint8_t bits, uint16_t min, uint16_t max){
    1298:	df 92       	push	r13
    129a:	ef 92       	push	r14
    129c:	ff 92       	push	r15
    129e:	0f 93       	push	r16
    12a0:	1f 93       	push	r17
    12a2:	cf 93       	push	r28
    12a4:	df 93       	push	r29
    12a6:	7b 01       	movw	r14, r22
    12a8:	8a 01       	movw	r16, r20
    uint16_t val = TCB1_CCMP;
    12aa:	c0 91 5c 0a 	lds	r28, 0x0A5C	; 0x800a5c <__TEXT_REGION_LENGTH__+0x700a5c>
    12ae:	d0 91 5d 0a 	lds	r29, 0x0A5D	; 0x800a5d <__TEXT_REGION_LENGTH__+0x700a5d>
    bits = mask[(bits-1)&0x07];
    12b2:	e8 2f       	mov	r30, r24
    12b4:	f0 e0       	ldi	r31, 0x00	; 0
    12b6:	31 97       	sbiw	r30, 0x01	; 1
    12b8:	e7 70       	andi	r30, 0x07	; 7
    12ba:	ff 27       	eor	r31, r31
    12bc:	ed 5d       	subi	r30, 0xDD	; 221
    12be:	f7 4c       	sbci	r31, 0xC7	; 199
    12c0:	d0 80       	ld	r13, Z
    val += (lfsr()&bits);
    12c2:	cb df       	rcall	.-106    	; 0x125a <lfsr>
    12c4:	8d 21       	and	r24, r13
    12c6:	c8 0f       	add	r28, r24
    12c8:	d1 1d       	adc	r29, r1
    val -= (lfsr()&bits);
    12ca:	c7 df       	rcall	.-114    	; 0x125a <lfsr>
    12cc:	8d 21       	and	r24, r13
    12ce:	c8 1b       	sub	r28, r24
    12d0:	d1 09       	sbc	r29, r1
    12d2:	0c 17       	cp	r16, r28
    12d4:	1d 07       	cpc	r17, r29
    12d6:	08 f4       	brcc	.+2      	; 0x12da <floatSpeed+0x42>
    12d8:	e8 01       	movw	r28, r16
    12da:	c7 01       	movw	r24, r14
    12dc:	ec 16       	cp	r14, r28
    12de:	fd 06       	cpc	r15, r29
    12e0:	08 f4       	brcc	.+2      	; 0x12e4 <floatSpeed+0x4c>
    12e2:	ce 01       	movw	r24, r28
    12e4:	80 93 5c 0a 	sts	0x0A5C, r24	; 0x800a5c <__TEXT_REGION_LENGTH__+0x700a5c>
    if (val > max) val = max;    
    if (val < min) val = min;  
    TCB1_CCMP = val;
    12e8:	90 93 5d 0a 	sts	0x0A5D, r25	; 0x800a5d <__TEXT_REGION_LENGTH__+0x700a5d>
    12ec:	df 91       	pop	r29
}
    12ee:	cf 91       	pop	r28
    12f0:	1f 91       	pop	r17
    12f2:	0f 91       	pop	r16
    12f4:	ff 90       	pop	r15
    12f6:	ef 90       	pop	r14
    12f8:	df 90       	pop	r13
    12fa:	08 95       	ret

000012fc <floatAround>:
    12fc:	0f 93       	push	r16

uint8_t floatAround(uint8_t sample, uint8_t bits, uint8_t min, uint8_t max){
    12fe:	1f 93       	push	r17
    1300:	cf 93       	push	r28
    1302:	df 93       	push	r29
    1304:	c8 2f       	mov	r28, r24
    1306:	d4 2f       	mov	r29, r20
    1308:	02 2f       	mov	r16, r18
    bits = mask[(bits-1)&0x07];
    130a:	e6 2f       	mov	r30, r22
    130c:	f0 e0       	ldi	r31, 0x00	; 0
    130e:	31 97       	sbiw	r30, 0x01	; 1
    1310:	e7 70       	andi	r30, 0x07	; 7
    1312:	ff 27       	eor	r31, r31
    1314:	ed 5d       	subi	r30, 0xDD	; 221
    1316:	f7 4c       	sbci	r31, 0xC7	; 199
    1318:	10 81       	ld	r17, Z
    sample += lfsr()&bits;
    131a:	9f df       	rcall	.-194    	; 0x125a <lfsr>
    131c:	81 23       	and	r24, r17
    131e:	c8 0f       	add	r28, r24
    sample -= lfsr()&bits;
    1320:	9c df       	rcall	.-200    	; 0x125a <lfsr>
    1322:	81 23       	and	r24, r17
    1324:	c8 1b       	sub	r28, r24
    1326:	8c 2f       	mov	r24, r28
    1328:	00 23       	and	r16, r16
    if (max){
    132a:	41 f0       	breq	.+16     	; 0x133c <floatAround+0x40>
    132c:	9c 2f       	mov	r25, r28
    132e:	0c 17       	cp	r16, r28
    1330:	08 f4       	brcc	.+2      	; 0x1334 <floatAround+0x38>
    1332:	90 2f       	mov	r25, r16
    1334:	8d 2f       	mov	r24, r29
    1336:	d9 17       	cp	r29, r25
    1338:	08 f4       	brcc	.+2      	; 0x133c <floatAround+0x40>
    133a:	89 2f       	mov	r24, r25
    133c:	41 e0       	ldi	r20, 0x01	; 1
        if (sample > max) sample = max;
        if (sample < min) sample = min;
    }
    if (min & (sample < min)) sample = min;
    133e:	50 e0       	ldi	r21, 0x00	; 0
    1340:	8d 17       	cp	r24, r29
    1342:	10 f0       	brcs	.+4      	; 0x1348 <floatAround+0x4c>
    1344:	40 e0       	ldi	r20, 0x00	; 0
    1346:	50 e0       	ldi	r21, 0x00	; 0
    1348:	2d 2f       	mov	r18, r29
    134a:	30 e0       	ldi	r19, 0x00	; 0
    134c:	24 23       	and	r18, r20
    134e:	35 23       	and	r19, r21
    1350:	23 2b       	or	r18, r19
    1352:	09 f0       	breq	.+2      	; 0x1356 <floatAround+0x5a>
    1354:	8d 2f       	mov	r24, r29
    1356:	df 91       	pop	r29

    return sample;
}
    1358:	cf 91       	pop	r28
    135a:	1f 91       	pop	r17
    135c:	0f 91       	pop	r16
    135e:	08 95       	ret

00001360 <SaveGameState>:
    1360:	cf 92       	push	r12
    inventory[0] = (gameState[INVADDR]<<8|gameState[INVADDR+1]);
    inventory[1] = (gameState[INVADDR+2]<<8|gameState[INVADDR+3]);
}

//Save changed data to EEPROM
uint8_t SaveGameState(){
    1362:	df 92       	push	r13
    1364:	ff 92       	push	r15
    1366:	0f 93       	push	r16
    1368:	1f 93       	push	r17
    136a:	cf 93       	push	r28
    136c:	df 93       	push	r29
    136e:	cd b7       	in	r28, 0x3d	; 61
    1370:	de b7       	in	r29, 0x3e	; 62
    1372:	64 97       	sbiw	r28, 0x14	; 20
    1374:	cd bf       	out	0x3d, r28	; 61
    1376:	de bf       	out	0x3e, r29	; 62
    uint8_t gameCheck[BOOTCHK];

    //Read all data up to the boot/check result address from EEPROM
    EERead(0, &gameCheck[0], BOOTCHK);
    1378:	44 e1       	ldi	r20, 0x14	; 20
    137a:	be 01       	movw	r22, r28
    137c:	6f 5f       	subi	r22, 0xFF	; 255
    137e:	7f 4f       	sbci	r23, 0xFF	; 255
    1380:	80 e0       	ldi	r24, 0x00	; 0
    1382:	c5 de       	rcall	.-630    	; 0x110e <EERead>
    1384:	81 e6       	ldi	r24, 0x61	; 97
    1386:	c8 2e       	mov	r12, r24
    1388:	8a e3       	ldi	r24, 0x3A	; 58
    138a:	d8 2e       	mov	r13, r24
    138c:	8e 01       	movw	r16, r28
    138e:	0f 5f       	subi	r16, 0xFF	; 255
    1390:	1f 4f       	sbci	r17, 0xFF	; 255

    //Check game status bits
    for (uint8_t x=0; x<STATLEN; ++x){
    1392:	f1 2c       	mov	r15, r1
        if (gameState[x] != gameCheck[x]){
    1394:	f8 01       	movw	r30, r16
    1396:	81 91       	ld	r24, Z+
    1398:	8f 01       	movw	r16, r30
    139a:	f6 01       	movw	r30, r12
    139c:	90 81       	ld	r25, Z
    139e:	98 13       	cpse	r25, r24
    13a0:	08 c0       	rjmp	.+16     	; 0x13b2 <SaveGameState+0x52>

    //Read all data up to the boot/check result address from EEPROM
    EERead(0, &gameCheck[0], BOOTCHK);

    //Check game status bits
    for (uint8_t x=0; x<STATLEN; ++x){
    13a2:	f3 94       	inc	r15
    13a4:	ff ef       	ldi	r31, 0xFF	; 255
    13a6:	cf 1a       	sub	r12, r31
    13a8:	df 0a       	sbc	r13, r31
    13aa:	80 e1       	ldi	r24, 0x10	; 16
    13ac:	f8 12       	cpse	r15, r24
    13ae:	f2 cf       	rjmp	.-28     	; 0x1394 <SaveGameState+0x34>
    13b0:	08 c0       	rjmp	.+16     	; 0x13c2 <SaveGameState+0x62>
        if (gameState[x] != gameCheck[x]){
            if (EEWrite(x, &gameState[x], 1)) return 1;
    13b2:	41 e0       	ldi	r20, 0x01	; 1
    13b4:	b6 01       	movw	r22, r12
    13b6:	8f 2d       	mov	r24, r15
    13b8:	ba de       	rcall	.-652    	; 0x112e <EEWrite>
    13ba:	88 23       	and	r24, r24
    13bc:	91 f3       	breq	.-28     	; 0x13a2 <SaveGameState+0x42>
    13be:	91 e0       	ldi	r25, 0x01	; 1
    13c0:	36 c0       	rjmp	.+108    	; 0x142e <SaveGameState+0xce>
        }
    }

    //Check the inventory too
    gameState[INVADDR] = (uint8_t)(inventory[0]>>8);
    13c2:	20 91 3e 38 	lds	r18, 0x383E	; 0x80383e <inventory>
    13c6:	30 91 3f 38 	lds	r19, 0x383F	; 0x80383f <inventory+0x1>
    13ca:	30 93 71 3a 	sts	0x3A71, r19	; 0x803a71 <gameState+0x10>
    gameState[INVADDR+1] = (uint8_t)(inventory[0]&0xff);
    13ce:	20 93 72 3a 	sts	0x3A72, r18	; 0x803a72 <gameState+0x11>
    gameState[INVADDR+2] = (uint8_t)(inventory[1]>>8);
    13d2:	80 91 40 38 	lds	r24, 0x3840	; 0x803840 <inventory+0x2>
    13d6:	90 91 41 38 	lds	r25, 0x3841	; 0x803841 <inventory+0x3>
    13da:	90 93 73 3a 	sts	0x3A73, r25	; 0x803a73 <gameState+0x12>
    gameState[INVADDR+3] = (uint8_t)(inventory[1]&0xff);
    13de:	80 93 74 3a 	sts	0x3A74, r24	; 0x803a74 <gameState+0x13>
    if (inventory[0] != (gameCheck[INVADDR]<<8|gameCheck[INVADDR+1])) {
    13e2:	89 89       	ldd	r24, Y+17	; 0x11
    13e4:	9a 89       	ldd	r25, Y+18	; 0x12
    13e6:	98 27       	eor	r25, r24
    13e8:	89 27       	eor	r24, r25
    13ea:	98 27       	eor	r25, r24
    13ec:	28 17       	cp	r18, r24
    13ee:	39 07       	cpc	r19, r25
    13f0:	69 f4       	brne	.+26     	; 0x140c <SaveGameState+0xac>
        if (EEWrite(INVADDR, &gameState[INVADDR], 2)) return 1;
    }
    if (inventory[1] != (gameCheck[INVADDR+2]<<8|gameCheck[INVADDR+3])) {
    13f2:	8b 89       	ldd	r24, Y+19	; 0x13
    13f4:	9c 89       	ldd	r25, Y+20	; 0x14
    13f6:	98 27       	eor	r25, r24
    13f8:	89 27       	eor	r24, r25
    13fa:	98 27       	eor	r25, r24
    13fc:	20 91 40 38 	lds	r18, 0x3840	; 0x803840 <inventory+0x2>
    1400:	30 91 41 38 	lds	r19, 0x3841	; 0x803841 <inventory+0x3>
    1404:	28 17       	cp	r18, r24
    1406:	39 07       	cpc	r19, r25
    1408:	49 f4       	brne	.+18     	; 0x141c <SaveGameState+0xbc>
    140a:	10 c0       	rjmp	.+32     	; 0x142c <SaveGameState+0xcc>
    gameState[INVADDR] = (uint8_t)(inventory[0]>>8);
    gameState[INVADDR+1] = (uint8_t)(inventory[0]&0xff);
    gameState[INVADDR+2] = (uint8_t)(inventory[1]>>8);
    gameState[INVADDR+3] = (uint8_t)(inventory[1]&0xff);
    if (inventory[0] != (gameCheck[INVADDR]<<8|gameCheck[INVADDR+1])) {
        if (EEWrite(INVADDR, &gameState[INVADDR], 2)) return 1;
    140c:	42 e0       	ldi	r20, 0x02	; 2
    140e:	61 e7       	ldi	r22, 0x71	; 113
    1410:	7a e3       	ldi	r23, 0x3A	; 58
    1412:	80 e1       	ldi	r24, 0x10	; 16
    1414:	8c de       	rcall	.-744    	; 0x112e <EEWrite>
    1416:	88 23       	and	r24, r24
    1418:	61 f3       	breq	.-40     	; 0x13f2 <SaveGameState+0x92>
    141a:	d1 cf       	rjmp	.-94     	; 0x13be <SaveGameState+0x5e>
    }
    if (inventory[1] != (gameCheck[INVADDR+2]<<8|gameCheck[INVADDR+3])) {
        if (EEWrite(INVADDR+2, &gameState[INVADDR+2], 2)) return 1;
    141c:	42 e0       	ldi	r20, 0x02	; 2
    141e:	63 e7       	ldi	r22, 0x73	; 115
    1420:	7a e3       	ldi	r23, 0x3A	; 58
    1422:	82 e1       	ldi	r24, 0x12	; 18
    1424:	84 de       	rcall	.-760    	; 0x112e <EEWrite>
    EERead(0, &gameCheck[0], BOOTCHK);

    //Check game status bits
    for (uint8_t x=0; x<STATLEN; ++x){
        if (gameState[x] != gameCheck[x]){
            if (EEWrite(x, &gameState[x], 1)) return 1;
    1426:	91 e0       	ldi	r25, 0x01	; 1
    1428:	81 11       	cpse	r24, r1
    142a:	01 c0       	rjmp	.+2      	; 0x142e <SaveGameState+0xce>
    142c:	90 e0       	ldi	r25, 0x00	; 0
    if (inventory[1] != (gameCheck[INVADDR+2]<<8|gameCheck[INVADDR+3])) {
        if (EEWrite(INVADDR+2, &gameState[INVADDR+2], 2)) return 1;
    }

    return 0;
}
    142e:	89 2f       	mov	r24, r25
    1430:	64 96       	adiw	r28, 0x14	; 20
    1432:	cd bf       	out	0x3d, r28	; 61
    1434:	de bf       	out	0x3e, r29	; 62
    1436:	df 91       	pop	r29
    1438:	cf 91       	pop	r28
    143a:	1f 91       	pop	r17
    143c:	0f 91       	pop	r16
    143e:	ff 90       	pop	r15
    1440:	df 90       	pop	r13
    1442:	cf 90       	pop	r12
    1444:	08 95       	ret

00001446 <ReadStatusBit>:

uint8_t ReadStatusBit(uint8_t number){
    number &= 0x7f;
    if (gameState[number>>3] & (1<<(number&7))) return 1; else return 0;
    1446:	e8 2f       	mov	r30, r24
    1448:	ef 77       	andi	r30, 0x7F	; 127
    144a:	e6 95       	lsr	r30
    144c:	e6 95       	lsr	r30
    144e:	e6 95       	lsr	r30
    1450:	f0 e0       	ldi	r31, 0x00	; 0
    1452:	ef 59       	subi	r30, 0x9F	; 159
    1454:	f5 4c       	sbci	r31, 0xC5	; 197
    1456:	20 81       	ld	r18, Z
    1458:	30 e0       	ldi	r19, 0x00	; 0
    145a:	87 70       	andi	r24, 0x07	; 7
    145c:	a9 01       	movw	r20, r18
    145e:	02 c0       	rjmp	.+4      	; 0x1464 <ReadStatusBit+0x1e>
    1460:	55 95       	asr	r21
    1462:	47 95       	ror	r20
    1464:	8a 95       	dec	r24
    1466:	e2 f7       	brpl	.-8      	; 0x1460 <ReadStatusBit+0x1a>
    1468:	ca 01       	movw	r24, r20
}
    146a:	81 70       	andi	r24, 0x01	; 1
    146c:	08 95       	ret

0000146e <WriteStatusBit>:

void WriteStatusBit(uint8_t number, uint8_t state){
    number &= 0x7f;
    146e:	e8 2f       	mov	r30, r24
    1470:	ef 77       	andi	r30, 0x7F	; 127
    1472:	e6 95       	lsr	r30
    1474:	e6 95       	lsr	r30
    1476:	e6 95       	lsr	r30
    1478:	28 2f       	mov	r18, r24
    147a:	27 70       	andi	r18, 0x07	; 7
    if (state) gameState[number>>3] |= 1<<(number&7);
    147c:	f0 e0       	ldi	r31, 0x00	; 0
    147e:	ef 59       	subi	r30, 0x9F	; 159
    1480:	f5 4c       	sbci	r31, 0xC5	; 197
    1482:	81 e0       	ldi	r24, 0x01	; 1
    1484:	90 e0       	ldi	r25, 0x00	; 0
    1486:	01 c0       	rjmp	.+2      	; 0x148a <WriteStatusBit+0x1c>
    1488:	88 0f       	add	r24, r24
    148a:	2a 95       	dec	r18
    148c:	ea f7       	brpl	.-6      	; 0x1488 <WriteStatusBit+0x1a>
    148e:	66 23       	and	r22, r22
    1490:	19 f0       	breq	.+6      	; 0x1498 <WriteStatusBit+0x2a>
    1492:	90 81       	ld	r25, Z
    1494:	89 2b       	or	r24, r25
    1496:	03 c0       	rjmp	.+6      	; 0x149e <WriteStatusBit+0x30>
    else gameState[number>>3] &= ~(1<<(number&7));
    1498:	80 95       	com	r24
    149a:	90 81       	ld	r25, Z
    149c:	89 23       	and	r24, r25
    149e:	80 83       	st	Z, r24
    14a0:	08 95       	ret

000014a2 <UpdateState>:
}

//Update game state: num -> vBBBBbbb v=value(0 is set!), BBBB=Byte number, bbb=bit number
void UpdateState(uint8_t num){
    14a2:	98 2f       	mov	r25, r24
    uint8_t clearBit = num & 0x80;
    num &= 0x7f;
    14a4:	8f 77       	andi	r24, 0x7F	; 127
    if (num) {
    14a6:	31 f0       	breq	.+12     	; 0x14b4 <UpdateState+0x12>
        if (clearBit) {
    14a8:	97 ff       	sbrs	r25, 7
    14aa:	02 c0       	rjmp	.+4      	; 0x14b0 <UpdateState+0xe>
            WriteStatusBit(num, 0);
    14ac:	60 e0       	ldi	r22, 0x00	; 0
    14ae:	01 c0       	rjmp	.+2      	; 0x14b2 <UpdateState+0x10>
        } else {
            WriteStatusBit(num, 1);
    14b0:	61 e0       	ldi	r22, 0x01	; 1
    14b2:	dd cf       	rjmp	.-70     	; 0x146e <WriteStatusBit>
    14b4:	08 95       	ret

000014b6 <CheckState>:
        }
    }
}

//Checks if state of bit BBBBbbb matches with v (inverted) bit
uint8_t CheckState(uint8_t num){
    14b6:	cf 93       	push	r28
    14b8:	c8 2f       	mov	r28, r24
    uint8_t bitSet = 0;
    if (ReadStatusBit(num & 0x7f)){
    14ba:	8f 77       	andi	r24, 0x7F	; 127
    14bc:	c4 df       	rcall	.-120    	; 0x1446 <ReadStatusBit>
    14be:	2c 2f       	mov	r18, r28
    14c0:	22 1f       	adc	r18, r18
    14c2:	22 27       	eor	r18, r18
    14c4:	22 1f       	adc	r18, r18
    14c6:	91 e0       	ldi	r25, 0x01	; 1
    14c8:	81 11       	cpse	r24, r1
    14ca:	01 c0       	rjmp	.+2      	; 0x14ce <CheckState+0x18>
    14cc:	90 e0       	ldi	r25, 0x00	; 0
    }
    if (((num & 0x80)>0)^(bitSet>0)){
        return 1;
    }
    return 0;
}
    14ce:	82 2f       	mov	r24, r18
    14d0:	89 27       	eor	r24, r25
    14d2:	cf 91       	pop	r28
    14d4:	08 95       	ret

000014d6 <getID>:

//Give out a number 0..3, calculated using serial number fields
uint8_t getID(){
    uint8_t id = 0;
    uint8_t *serNum;
    serNum = (uint8_t*)&SIGROW_SERNUM0;
    14d6:	e3 e0       	ldi	r30, 0x03	; 3
    14d8:	f1 e1       	ldi	r31, 0x11	; 17
    return 0;
}

//Give out a number 0..3, calculated using serial number fields
uint8_t getID(){
    uint8_t id = 0;
    14da:	80 e0       	ldi	r24, 0x00	; 0
    uint8_t *serNum;
    serNum = (uint8_t*)&SIGROW_SERNUM0;

    for (uint8_t x=0; x<10; ++x){
        id += *serNum;
    14dc:	91 91       	ld	r25, Z+
    14de:	89 0f       	add	r24, r25
uint8_t getID(){
    uint8_t id = 0;
    uint8_t *serNum;
    serNum = (uint8_t*)&SIGROW_SERNUM0;

    for (uint8_t x=0; x<10; ++x){
    14e0:	ed 30       	cpi	r30, 0x0D	; 13
    14e2:	91 e1       	ldi	r25, 0x11	; 17
    14e4:	f9 07       	cpc	r31, r25
    14e6:	d1 f7       	brne	.-12     	; 0x14dc <getID+0x6>
        id += *serNum;
        ++serNum;
    }
    id %= 4;
    whoami = id+1;
    14e8:	83 70       	andi	r24, 0x03	; 3
    14ea:	8f 5f       	subi	r24, 0xFF	; 255
    14ec:	80 93 3d 38 	sts	0x383D, r24	; 0x80383d <whoami>
    return whoami;
}
    14f0:	08 95       	ret

000014f2 <Reset>:

void Reset(){
    14f2:	e1 e6       	ldi	r30, 0x61	; 97
    14f4:	fa e3       	ldi	r31, 0x3A	; 58
    //# 110   set to 1 by FW if badge UUID mod 4 == 0
    //# 111   set to 1 by FW if badge UUID mod 4 == 1
    //# 112   set to 1 by FW if badge UUID mod 4 == 2
    //# 113   set to 1 by FW if badge UUID mod 4 == 3
    for (uint8_t x=0; x<sizeof(gameState); ++x){
        gameState[x] = 0;
    14f6:	11 92       	st	Z+, r1
    //Reset game progress (all zeroes) and load some bits:
    //# 110   set to 1 by FW if badge UUID mod 4 == 0
    //# 111   set to 1 by FW if badge UUID mod 4 == 1
    //# 112   set to 1 by FW if badge UUID mod 4 == 2
    //# 113   set to 1 by FW if badge UUID mod 4 == 3
    for (uint8_t x=0; x<sizeof(gameState); ++x){
    14f8:	8a e3       	ldi	r24, 0x3A	; 58
    14fa:	e5 37       	cpi	r30, 0x75	; 117
    14fc:	f8 07       	cpc	r31, r24
    14fe:	d9 f7       	brne	.-10     	; 0x14f6 <Reset+0x4>
        gameState[x] = 0;
    }

    uint8_t id = getID();
    1500:	ea df       	rcall	.-44     	; 0x14d6 <getID>

    //Write bit in gameState location 110..113
    if (id == 0) WriteStatusBit(110, 1);
    1502:	81 11       	cpse	r24, r1
    1504:	04 c0       	rjmp	.+8      	; 0x150e <Reset+0x1c>
    if (gameState[number>>3] & (1<<(number&7))) return 1; else return 0;
}

void WriteStatusBit(uint8_t number, uint8_t state){
    number &= 0x7f;
    if (state) gameState[number>>3] |= 1<<(number&7);
    1506:	80 91 6e 3a 	lds	r24, 0x3A6E	; 0x803a6e <gameState+0xd>
    150a:	80 64       	ori	r24, 0x40	; 64
    150c:	05 c0       	rjmp	.+10     	; 0x1518 <Reset+0x26>

    uint8_t id = getID();

    //Write bit in gameState location 110..113
    if (id == 0) WriteStatusBit(110, 1);
    else if (id == 1) WriteStatusBit(111, 1);
    150e:	81 30       	cpi	r24, 0x01	; 1
    1510:	31 f4       	brne	.+12     	; 0x151e <Reset+0x2c>
    if (gameState[number>>3] & (1<<(number&7))) return 1; else return 0;
}

void WriteStatusBit(uint8_t number, uint8_t state){
    number &= 0x7f;
    if (state) gameState[number>>3] |= 1<<(number&7);
    1512:	80 91 6e 3a 	lds	r24, 0x3A6E	; 0x803a6e <gameState+0xd>
    1516:	80 68       	ori	r24, 0x80	; 128
    1518:	80 93 6e 3a 	sts	0x3A6E, r24	; 0x803a6e <gameState+0xd>
    151c:	0d c0       	rjmp	.+26     	; 0x1538 <Reset+0x46>
    uint8_t id = getID();

    //Write bit in gameState location 110..113
    if (id == 0) WriteStatusBit(110, 1);
    else if (id == 1) WriteStatusBit(111, 1);
    else if (id == 2) WriteStatusBit(112, 1);
    151e:	82 30       	cpi	r24, 0x02	; 2
    1520:	21 f4       	brne	.+8      	; 0x152a <Reset+0x38>
    if (gameState[number>>3] & (1<<(number&7))) return 1; else return 0;
}

void WriteStatusBit(uint8_t number, uint8_t state){
    number &= 0x7f;
    if (state) gameState[number>>3] |= 1<<(number&7);
    1522:	80 91 6f 3a 	lds	r24, 0x3A6F	; 0x803a6f <gameState+0xe>
    1526:	81 60       	ori	r24, 0x01	; 1
    1528:	05 c0       	rjmp	.+10     	; 0x1534 <Reset+0x42>

    //Write bit in gameState location 110..113
    if (id == 0) WriteStatusBit(110, 1);
    else if (id == 1) WriteStatusBit(111, 1);
    else if (id == 2) WriteStatusBit(112, 1);
    else if (id == 3) WriteStatusBit(113, 1);
    152a:	83 30       	cpi	r24, 0x03	; 3
    152c:	29 f4       	brne	.+10     	; 0x1538 <Reset+0x46>
    if (gameState[number>>3] & (1<<(number&7))) return 1; else return 0;
}

void WriteStatusBit(uint8_t number, uint8_t state){
    number &= 0x7f;
    if (state) gameState[number>>3] |= 1<<(number&7);
    152e:	80 91 6f 3a 	lds	r24, 0x3A6F	; 0x803a6f <gameState+0xe>
    1532:	82 60       	ori	r24, 0x02	; 2
    1534:	80 93 6f 3a 	sts	0x3A6F, r24	; 0x803a6f <gameState+0xe>
    1538:	80 91 61 3a 	lds	r24, 0x3A61	; 0x803a61 <gameState>
    153c:	81 60       	ori	r24, 0x01	; 1
    153e:	80 93 61 3a 	sts	0x3A61, r24	; 0x803a61 <gameState>
    1542:	08 95       	ret

00001544 <LoadGameState>:

    return sample;
}

//Load game status
void LoadGameState(){
    1544:	cf 93       	push	r28
    1546:	df 93       	push	r29
    EERead(0, &gameState[0], BOOTCHK);   //Load game status bits from EEPROM
    1548:	44 e1       	ldi	r20, 0x14	; 20
    154a:	61 e6       	ldi	r22, 0x61	; 97
    154c:	7a e3       	ldi	r23, 0x3A	; 58
    154e:	80 e0       	ldi	r24, 0x00	; 0
    1550:	de dd       	rcall	.-1092   	; 0x110e <EERead>
    1552:	ce e6       	ldi	r28, 0x6E	; 110

    uint8_t idSet = 0;
    1554:	d0 e0       	ldi	r29, 0x00	; 0
    for (uint8_t x=0; x<4; ++x){
        idSet += ReadStatusBit(110+x);
    1556:	8c 2f       	mov	r24, r28
    1558:	76 df       	rcall	.-276    	; 0x1446 <ReadStatusBit>
    155a:	d8 0f       	add	r29, r24
    155c:	cf 5f       	subi	r28, 0xFF	; 255
//Load game status
void LoadGameState(){
    EERead(0, &gameState[0], BOOTCHK);   //Load game status bits from EEPROM

    uint8_t idSet = 0;
    for (uint8_t x=0; x<4; ++x){
    155e:	c2 37       	cpi	r28, 0x72	; 114
    1560:	d1 f7       	brne	.-12     	; 0x1556 <LoadGameState+0x12>
        idSet += ReadStatusBit(110+x);
    }

    //Check if badge is reset(0 = cheated!) or new(3) or error(2)
    if (idSet != 1) {
    1562:	d1 30       	cpi	r29, 0x01	; 1
        Reset();
    1564:	11 f0       	breq	.+4      	; 0x156a <LoadGameState+0x26>
    1566:	c5 df       	rcall	.-118    	; 0x14f2 <Reset>
    } else getID();
    1568:	01 c0       	rjmp	.+2      	; 0x156c <LoadGameState+0x28>
    156a:	b5 df       	rcall	.-150    	; 0x14d6 <getID>

    inventory[0] = (gameState[INVADDR]<<8|gameState[INVADDR+1]);
    156c:	80 91 71 3a 	lds	r24, 0x3A71	; 0x803a71 <gameState+0x10>
    1570:	90 91 72 3a 	lds	r25, 0x3A72	; 0x803a72 <gameState+0x11>
    1574:	98 27       	eor	r25, r24
    1576:	89 27       	eor	r24, r25
    1578:	98 27       	eor	r25, r24
    157a:	80 93 3e 38 	sts	0x383E, r24	; 0x80383e <inventory>
    157e:	90 93 3f 38 	sts	0x383F, r25	; 0x80383f <inventory+0x1>
    inventory[1] = (gameState[INVADDR+2]<<8|gameState[INVADDR+3]);
    1582:	80 91 73 3a 	lds	r24, 0x3A73	; 0x803a73 <gameState+0x12>
    1586:	90 91 74 3a 	lds	r25, 0x3A74	; 0x803a74 <gameState+0x13>
    158a:	98 27       	eor	r25, r24
    158c:	89 27       	eor	r24, r25
    158e:	98 27       	eor	r25, r24
    1590:	80 93 40 38 	sts	0x3840, r24	; 0x803840 <inventory+0x2>
    1594:	90 93 41 38 	sts	0x3841, r25	; 0x803841 <inventory+0x3>
}
    1598:	df 91       	pop	r29
    159a:	cf 91       	pop	r28
    159c:	08 95       	ret

0000159e <HotSummer>:
    //Write bit 0, must always be 1!
    WriteStatusBit(0, 1);
}

//Sets specific game bits after the badge is heated for one and two times.
uint8_t HotSummer(){
    159e:	cf 93       	push	r28
    static uint8_t cooledDown = 0;

    if (CheckState(SUMMERS_COMPLETED)){
    15a0:	86 e7       	ldi	r24, 0x76	; 118
    15a2:	89 df       	rcall	.-238    	; 0x14b6 <CheckState>
    15a4:	c8 2f       	mov	r28, r24
    15a6:	88 23       	and	r24, r24
    15a8:	81 f0       	breq	.+32     	; 0x15ca <HotSummer+0x2c>
        iLED[SCARAB[G]] = 0;
    15aa:	e0 91 65 be 	lds	r30, 0xBE65	; 0x80be65 <__bss_end+0x834b>
    15ae:	f0 e0       	ldi	r31, 0x00	; 0
    15b0:	e6 53       	subi	r30, 0x36	; 54
    15b2:	f5 4c       	sbci	r31, 0xC5	; 197
    15b4:	10 82       	st	Z, r1
        iLED[SCARAB[R]] = dimValue;
    15b6:	e0 91 64 be 	lds	r30, 0xBE64	; 0x80be64 <__bss_end+0x834a>
    15ba:	f0 e0       	ldi	r31, 0x00	; 0
    15bc:	80 91 0a 38 	lds	r24, 0x380A	; 0x80380a <dimValue>
    15c0:	e6 53       	subi	r30, 0x36	; 54
    15c2:	f5 4c       	sbci	r31, 0xC5	; 197
    15c4:	80 83       	st	Z, r24
        return 1;
    15c6:	c1 e0       	ldi	r28, 0x01	; 1
    15c8:	4c c0       	rjmp	.+152    	; 0x1662 <HotSummer+0xc4>
    }

    if (CheckState(FIRST_SUMMER)) {
    15ca:	85 e7       	ldi	r24, 0x75	; 117
    15cc:	74 df       	rcall	.-280    	; 0x14b6 <CheckState>
    15ce:	88 23       	and	r24, r24
    15d0:	59 f1       	breq	.+86     	; 0x1628 <HotSummer+0x8a>
        iLED[SCARAB[G]] = dimValue;
    15d2:	e0 91 65 be 	lds	r30, 0xBE65	; 0x80be65 <__bss_end+0x834b>
    15d6:	f0 e0       	ldi	r31, 0x00	; 0
    15d8:	80 91 0a 38 	lds	r24, 0x380A	; 0x80380a <dimValue>
    15dc:	e6 53       	subi	r30, 0x36	; 54
    15de:	f5 4c       	sbci	r31, 0xC5	; 197
    15e0:	80 83       	st	Z, r24
        if ((cooledDown) && (adcTemp >= (calTemp + 32))) {
    15e2:	80 91 59 38 	lds	r24, 0x3859	; 0x803859 <cooledDown.3947>
    15e6:	88 23       	and	r24, r24
    15e8:	79 f0       	breq	.+30     	; 0x1608 <HotSummer+0x6a>
    15ea:	80 91 c0 3a 	lds	r24, 0x3AC0	; 0x803ac0 <calTemp>
    15ee:	90 91 c1 3a 	lds	r25, 0x3AC1	; 0x803ac1 <calTemp+0x1>
    15f2:	20 91 f5 3a 	lds	r18, 0x3AF5	; 0x803af5 <adcTemp>
    15f6:	30 91 f6 3a 	lds	r19, 0x3AF6	; 0x803af6 <adcTemp+0x1>
    15fa:	80 96       	adiw	r24, 0x20	; 32
    15fc:	28 17       	cp	r18, r24
    15fe:	39 07       	cpc	r19, r25
            UpdateState(SUMMERS_COMPLETED);
    1600:	18 f0       	brcs	.+6      	; 0x1608 <HotSummer+0x6a>
    1602:	86 e7       	ldi	r24, 0x76	; 118
    1604:	4e df       	rcall	.-356    	; 0x14a2 <UpdateState>
            return 0;
    1606:	2d c0       	rjmp	.+90     	; 0x1662 <HotSummer+0xc4>
        }
        if (adcTemp <= (calTemp + 8)) cooledDown = 1;
    1608:	80 91 c0 3a 	lds	r24, 0x3AC0	; 0x803ac0 <calTemp>
    160c:	90 91 c1 3a 	lds	r25, 0x3AC1	; 0x803ac1 <calTemp+0x1>
    1610:	20 91 f5 3a 	lds	r18, 0x3AF5	; 0x803af5 <adcTemp>
    1614:	30 91 f6 3a 	lds	r19, 0x3AF6	; 0x803af6 <adcTemp+0x1>
    1618:	08 96       	adiw	r24, 0x08	; 8
    161a:	82 17       	cp	r24, r18
    161c:	93 07       	cpc	r25, r19
    161e:	08 f1       	brcs	.+66     	; 0x1662 <HotSummer+0xc4>
    1620:	81 e0       	ldi	r24, 0x01	; 1
    1622:	80 93 59 38 	sts	0x3859, r24	; 0x803859 <cooledDown.3947>
    1626:	1d c0       	rjmp	.+58     	; 0x1662 <HotSummer+0xc4>
                   
    } else {
        if (calTemp == 0) calTemp = adcTemp;
    1628:	80 91 c0 3a 	lds	r24, 0x3AC0	; 0x803ac0 <calTemp>
    162c:	90 91 c1 3a 	lds	r25, 0x3AC1	; 0x803ac1 <calTemp+0x1>
    1630:	89 2b       	or	r24, r25
    1632:	41 f4       	brne	.+16     	; 0x1644 <HotSummer+0xa6>
    1634:	80 91 f5 3a 	lds	r24, 0x3AF5	; 0x803af5 <adcTemp>
    1638:	90 91 f6 3a 	lds	r25, 0x3AF6	; 0x803af6 <adcTemp+0x1>
    163c:	80 93 c0 3a 	sts	0x3AC0, r24	; 0x803ac0 <calTemp>
    1640:	90 93 c1 3a 	sts	0x3AC1, r25	; 0x803ac1 <calTemp+0x1>
        if (adcTemp >= (calTemp + 32)) {
    1644:	80 91 c0 3a 	lds	r24, 0x3AC0	; 0x803ac0 <calTemp>
    1648:	90 91 c1 3a 	lds	r25, 0x3AC1	; 0x803ac1 <calTemp+0x1>
    164c:	20 91 f5 3a 	lds	r18, 0x3AF5	; 0x803af5 <adcTemp>
    1650:	30 91 f6 3a 	lds	r19, 0x3AF6	; 0x803af6 <adcTemp+0x1>
    1654:	80 96       	adiw	r24, 0x20	; 32
    1656:	28 17       	cp	r18, r24
    1658:	39 07       	cpc	r19, r25
            UpdateState(FIRST_SUMMER);
    165a:	18 f0       	brcs	.+6      	; 0x1662 <HotSummer+0xc4>
    165c:	85 e7       	ldi	r24, 0x75	; 117
    165e:	21 df       	rcall	.-446    	; 0x14a2 <UpdateState>
        }
    }
    return 0;
    1660:	c0 e0       	ldi	r28, 0x00	; 0
}
    1662:	8c 2f       	mov	r24, r28
    1664:	cf 91       	pop	r28
    1666:	08 95       	ret

00001668 <WingBar>:

void WingBar(int8_t l, int8_t r) {
    1668:	e6 e6       	ldi	r30, 0x66	; 102
    166a:	fe eb       	ldi	r31, 0xBE	; 190
    for (int8_t i=0; i<5; i++) {
    166c:	90 e0       	ldi	r25, 0x00	; 0
        if (i<l)
            iLED[WING[L][i]] = dimValue;
    166e:	a5 81       	ldd	r26, Z+5	; 0x05
    1670:	b0 e0       	ldi	r27, 0x00	; 0
    return 0;
}

void WingBar(int8_t l, int8_t r) {
    for (int8_t i=0; i<5; i++) {
        if (i<l)
    1672:	98 17       	cp	r25, r24
    1674:	34 f4       	brge	.+12     	; 0x1682 <WingBar+0x1a>
            iLED[WING[L][i]] = dimValue;
    1676:	20 91 0a 38 	lds	r18, 0x380A	; 0x80380a <dimValue>
    167a:	a6 53       	subi	r26, 0x36	; 54
    167c:	b5 4c       	sbci	r27, 0xC5	; 197
    167e:	2c 93       	st	X, r18
    1680:	03 c0       	rjmp	.+6      	; 0x1688 <WingBar+0x20>
        else
            iLED[WING[L][i]] = 0;
    1682:	a6 53       	subi	r26, 0x36	; 54
    1684:	b5 4c       	sbci	r27, 0xC5	; 197
    1686:	1c 92       	st	X, r1
        if (i<r)
            iLED[WING[R][i]] = dimValue;
    1688:	a0 81       	ld	r26, Z
    168a:	b0 e0       	ldi	r27, 0x00	; 0
    for (int8_t i=0; i<5; i++) {
        if (i<l)
            iLED[WING[L][i]] = dimValue;
        else
            iLED[WING[L][i]] = 0;
        if (i<r)
    168c:	96 17       	cp	r25, r22
    168e:	34 f4       	brge	.+12     	; 0x169c <WingBar+0x34>
            iLED[WING[R][i]] = dimValue;
    1690:	20 91 0a 38 	lds	r18, 0x380A	; 0x80380a <dimValue>
    1694:	a6 53       	subi	r26, 0x36	; 54
    1696:	b5 4c       	sbci	r27, 0xC5	; 197
    1698:	2c 93       	st	X, r18
    169a:	03 c0       	rjmp	.+6      	; 0x16a2 <WingBar+0x3a>
        else
            iLED[WING[R][i]] = 0;
    169c:	a6 53       	subi	r26, 0x36	; 54
    169e:	b5 4c       	sbci	r27, 0xC5	; 197
    16a0:	1c 92       	st	X, r1
    16a2:	9f 5f       	subi	r25, 0xFF	; 255
    16a4:	31 96       	adiw	r30, 0x01	; 1
    }
    return 0;
}

void WingBar(int8_t l, int8_t r) {
    for (int8_t i=0; i<5; i++) {
    16a6:	95 30       	cpi	r25, 0x05	; 5
    16a8:	11 f7       	brne	.-60     	; 0x166e <WingBar+0x6>
        if (i<r)
            iLED[WING[R][i]] = dimValue;
        else
            iLED[WING[R][i]] = 0;
    }
}
    16aa:	08 95       	ret

000016ac <SetBothEyes>:

void SetBothEyes(uint8_t r, uint8_t g) {
    for (uint8_t i=0; i<2; i++) {
        iLED[EYE[R][i]] = r;
    16ac:	a0 e7       	ldi	r26, 0x70	; 112
    16ae:	be eb       	ldi	r27, 0xBE	; 190
    16b0:	ec 91       	ld	r30, X
    16b2:	f0 e0       	ldi	r31, 0x00	; 0
    16b4:	e6 53       	subi	r30, 0x36	; 54
    16b6:	f5 4c       	sbci	r31, 0xC5	; 197
    16b8:	80 83       	st	Z, r24
        iLED[EYE[G][i]] = g;
    16ba:	12 96       	adiw	r26, 0x02	; 2
    16bc:	ec 91       	ld	r30, X
    16be:	12 97       	sbiw	r26, 0x02	; 2
    16c0:	f0 e0       	ldi	r31, 0x00	; 0
    16c2:	e6 53       	subi	r30, 0x36	; 54
    16c4:	f5 4c       	sbci	r31, 0xC5	; 197
    16c6:	60 83       	st	Z, r22
    }
}

void SetBothEyes(uint8_t r, uint8_t g) {
    for (uint8_t i=0; i<2; i++) {
        iLED[EYE[R][i]] = r;
    16c8:	11 96       	adiw	r26, 0x01	; 1
    16ca:	ec 91       	ld	r30, X
    16cc:	11 97       	sbiw	r26, 0x01	; 1
    16ce:	f0 e0       	ldi	r31, 0x00	; 0
    16d0:	e6 53       	subi	r30, 0x36	; 54
    16d2:	f5 4c       	sbci	r31, 0xC5	; 197
    16d4:	80 83       	st	Z, r24
        iLED[EYE[G][i]] = g;
    16d6:	13 96       	adiw	r26, 0x03	; 3
    16d8:	ec 91       	ld	r30, X
    16da:	f0 e0       	ldi	r31, 0x00	; 0
    16dc:	e6 53       	subi	r30, 0x36	; 54
    16de:	f5 4c       	sbci	r31, 0xC5	; 197
    16e0:	60 83       	st	Z, r22
    16e2:	08 95       	ret

000016e4 <GenerateBlinks>:
    }
}

void GenerateBlinks(){
    16e4:	1f 93       	push	r17
    16e6:	cf 93       	push	r28
    16e8:	df 93       	push	r29
    used by the games, the other LEDs can be used by setting 
    effect (or be set directly)
    */

    //Activate HCKR & BADGER leds based on the state-bits
    if (gameNow == TEXT) {
    16ea:	80 91 3c 38 	lds	r24, 0x383C	; 0x80383c <gameNow>
    16ee:	88 23       	and	r24, r24
    16f0:	29 f0       	breq	.+10     	; 0x16fc <GenerateBlinks+0x18>
                iLED[HCKR[R][i]] = dimValue;
            }
        }
    }

    if (CheckState(GEM_STATE)) {
    16f2:	80 e4       	ldi	r24, 0x40	; 64
    16f4:	e0 de       	rcall	.-576    	; 0x14b6 <CheckState>
    16f6:	81 11       	cpse	r24, r1
    16f8:	24 c0       	rjmp	.+72     	; 0x1742 <GenerateBlinks+0x5e>
    16fa:	50 c0       	rjmp	.+160    	; 0x179c <GenerateBlinks+0xb8>
    16fc:	c4 e7       	ldi	r28, 0x74	; 116
    16fe:	de eb       	ldi	r29, 0xBE	; 190
    used by the games, the other LEDs can be used by setting 
    effect (or be set directly)
    */

    //Activate HCKR & BADGER leds based on the state-bits
    if (gameNow == TEXT) {
    1700:	1a e7       	ldi	r17, 0x7A	; 122
        for (uint8_t i=0;i<6;i++) {
            if(CheckState(HACKER_STATES + i)) {
    1702:	81 2f       	mov	r24, r17
    1704:	d8 de       	rcall	.-592    	; 0x14b6 <CheckState>
                iLED[HCKR[G][i]] = dimValue;
    1706:	ee 81       	ldd	r30, Y+6	; 0x06
    1708:	f0 e0       	ldi	r31, 0x00	; 0
    */

    //Activate HCKR & BADGER leds based on the state-bits
    if (gameNow == TEXT) {
        for (uint8_t i=0;i<6;i++) {
            if(CheckState(HACKER_STATES + i)) {
    170a:	88 23       	and	r24, r24
    170c:	59 f0       	breq	.+22     	; 0x1724 <GenerateBlinks+0x40>
                iLED[HCKR[G][i]] = dimValue;
    170e:	80 91 0a 38 	lds	r24, 0x380A	; 0x80380a <dimValue>
    1712:	e6 53       	subi	r30, 0x36	; 54
    1714:	f5 4c       	sbci	r31, 0xC5	; 197
    1716:	80 83       	st	Z, r24
                iLED[HCKR[R][i]] = 0;
    1718:	e8 81       	ld	r30, Y
    171a:	f0 e0       	ldi	r31, 0x00	; 0
    171c:	e6 53       	subi	r30, 0x36	; 54
    171e:	f5 4c       	sbci	r31, 0xC5	; 197
    1720:	10 82       	st	Z, r1
    1722:	0a c0       	rjmp	.+20     	; 0x1738 <GenerateBlinks+0x54>
            } else {
                iLED[HCKR[G][i]] = 0;
    1724:	e6 53       	subi	r30, 0x36	; 54
    1726:	f5 4c       	sbci	r31, 0xC5	; 197
    1728:	10 82       	st	Z, r1
                iLED[HCKR[R][i]] = dimValue;
    172a:	e8 81       	ld	r30, Y
    172c:	f0 e0       	ldi	r31, 0x00	; 0
    172e:	80 91 0a 38 	lds	r24, 0x380A	; 0x80380a <dimValue>
    1732:	e6 53       	subi	r30, 0x36	; 54
    1734:	f5 4c       	sbci	r31, 0xC5	; 197
    1736:	80 83       	st	Z, r24
    1738:	1f 5f       	subi	r17, 0xFF	; 255
    173a:	21 96       	adiw	r28, 0x01	; 1
    effect (or be set directly)
    */

    //Activate HCKR & BADGER leds based on the state-bits
    if (gameNow == TEXT) {
        for (uint8_t i=0;i<6;i++) {
    173c:	10 38       	cpi	r17, 0x80	; 128
    173e:	09 f7       	brne	.-62     	; 0x1702 <GenerateBlinks+0x1e>
    1740:	d8 cf       	rjmp	.-80     	; 0x16f2 <GenerateBlinks+0xe>
            }
        }
    }

    if (CheckState(GEM_STATE)) {
        if ( HeartCount == 1 || HeartCount == 3 || HeartCount == 5 )
    1742:	80 91 5b 38 	lds	r24, 0x385B	; 0x80385b <HeartCount>
    1746:	98 2f       	mov	r25, r24
    1748:	9d 7f       	andi	r25, 0xFD	; 253
    174a:	e0 91 63 be 	lds	r30, 0xBE63	; 0x80be63 <__bss_end+0x8349>
            iLED[BADGER] = dimValue>>1 ;
    174e:	f0 e0       	ldi	r31, 0x00	; 0
            }
        }
    }

    if (CheckState(GEM_STATE)) {
        if ( HeartCount == 1 || HeartCount == 3 || HeartCount == 5 )
    1750:	91 30       	cpi	r25, 0x01	; 1
    1752:	11 f0       	breq	.+4      	; 0x1758 <GenerateBlinks+0x74>
    1754:	85 30       	cpi	r24, 0x05	; 5
    1756:	21 f4       	brne	.+8      	; 0x1760 <GenerateBlinks+0x7c>
            iLED[BADGER] = dimValue>>1 ;
    1758:	90 91 0a 38 	lds	r25, 0x380A	; 0x80380a <dimValue>
    175c:	96 95       	lsr	r25
    175e:	06 c0       	rjmp	.+12     	; 0x176c <GenerateBlinks+0x88>
        else if ( HeartCount == 2 || HeartCount == 4 )
    1760:	82 30       	cpi	r24, 0x02	; 2
    1762:	11 f0       	breq	.+4      	; 0x1768 <GenerateBlinks+0x84>
    1764:	84 30       	cpi	r24, 0x04	; 4
    1766:	31 f4       	brne	.+12     	; 0x1774 <GenerateBlinks+0x90>
            iLED[BADGER] = dimValue;
    1768:	90 91 0a 38 	lds	r25, 0x380A	; 0x80380a <dimValue>
    176c:	e6 53       	subi	r30, 0x36	; 54
    176e:	f5 4c       	sbci	r31, 0xC5	; 197
    1770:	90 83       	st	Z, r25
    1772:	0c c0       	rjmp	.+24     	; 0x178c <GenerateBlinks+0xa8>
        else if ( HeartCount == 0 || HeartCount == 6 )
    1774:	88 23       	and	r24, r24
    1776:	11 f0       	breq	.+4      	; 0x177c <GenerateBlinks+0x98>
    1778:	86 30       	cpi	r24, 0x06	; 6
    177a:	29 f4       	brne	.+10     	; 0x1786 <GenerateBlinks+0xa2>
            iLED[BADGER] = dimValue>>2;
    177c:	90 91 0a 38 	lds	r25, 0x380A	; 0x80380a <dimValue>
    1780:	96 95       	lsr	r25
    1782:	96 95       	lsr	r25
    1784:	f3 cf       	rjmp	.-26     	; 0x176c <GenerateBlinks+0x88>
        else
            iLED[BADGER] = 0;
    1786:	e6 53       	subi	r30, 0x36	; 54
    1788:	f5 4c       	sbci	r31, 0xC5	; 197
    178a:	10 82       	st	Z, r1
        if (HeartCount<32)
    178c:	80 32       	cpi	r24, 0x20	; 32
    178e:	20 f4       	brcc	.+8      	; 0x1798 <GenerateBlinks+0xb4>
            HeartCount++;
    1790:	8f 5f       	subi	r24, 0xFF	; 255
    1792:	80 93 5b 38 	sts	0x385B, r24	; 0x80385b <HeartCount>
    1796:	02 c0       	rjmp	.+4      	; 0x179c <GenerateBlinks+0xb8>
        else
            HeartCount = 0;
    1798:	10 92 5b 38 	sts	0x385B, r1	; 0x80385b <HeartCount>
    }

    //LEDs effects for all games
    // Keep a counter for dynamic effects
    LedCount++;
    179c:	90 91 5a 38 	lds	r25, 0x385A	; 0x80385a <LedCount>
    17a0:	9f 5f       	subi	r25, 0xFF	; 255
    17a2:	90 93 5a 38 	sts	0x385A, r25	; 0x80385a <LedCount>

    switch (effect&0x1f) {
    17a6:	20 91 3a 38 	lds	r18, 0x383A	; 0x80383a <effect>
    17aa:	30 91 3b 38 	lds	r19, 0x383B	; 0x80383b <effect+0x1>
    17ae:	2f 71       	andi	r18, 0x1F	; 31
    17b0:	33 27       	eor	r19, r19
    17b2:	21 30       	cpi	r18, 0x01	; 1
    17b4:	31 05       	cpc	r19, r1
    17b6:	99 f1       	breq	.+102    	; 0x181e <GenerateBlinks+0x13a>
    17b8:	20 f0       	brcs	.+8      	; 0x17c2 <GenerateBlinks+0xde>
    17ba:	22 30       	cpi	r18, 0x02	; 2
    17bc:	31 05       	cpc	r19, r1
    17be:	b1 f1       	breq	.+108    	; 0x182c <GenerateBlinks+0x148>
    17c0:	46 c0       	rjmp	.+140    	; 0x184e <GenerateBlinks+0x16a>
        // All LEDs off
        case 0:
            WingBar(0,0);
    17c2:	60 e0       	ldi	r22, 0x00	; 0
    17c4:	80 e0       	ldi	r24, 0x00	; 0
    17c6:	50 df       	rcall	.-352    	; 0x1668 <WingBar>
            for (uint8_t i=0; i<2; i++) {
                iLED[EYE[R][i]] = 0;
    17c8:	e0 91 70 be 	lds	r30, 0xBE70	; 0x80be70 <__bss_end+0x8356>
    17cc:	f0 e0       	ldi	r31, 0x00	; 0
    17ce:	e6 53       	subi	r30, 0x36	; 54
    17d0:	f5 4c       	sbci	r31, 0xC5	; 197
    17d2:	10 82       	st	Z, r1
                iLED[EYE[G][i]] = 0;
    17d4:	e0 91 72 be 	lds	r30, 0xBE72	; 0x80be72 <__bss_end+0x8358>
    17d8:	f0 e0       	ldi	r31, 0x00	; 0
    17da:	e6 53       	subi	r30, 0x36	; 54
    17dc:	f5 4c       	sbci	r31, 0xC5	; 197
    17de:	10 82       	st	Z, r1
                iLED[SCARAB[i]] = 0;
    17e0:	e0 91 64 be 	lds	r30, 0xBE64	; 0x80be64 <__bss_end+0x834a>
    17e4:	f0 e0       	ldi	r31, 0x00	; 0
    17e6:	e6 53       	subi	r30, 0x36	; 54
    17e8:	f5 4c       	sbci	r31, 0xC5	; 197
    17ea:	10 82       	st	Z, r1
    switch (effect&0x1f) {
        // All LEDs off
        case 0:
            WingBar(0,0);
            for (uint8_t i=0; i<2; i++) {
                iLED[EYE[R][i]] = 0;
    17ec:	e0 91 71 be 	lds	r30, 0xBE71	; 0x80be71 <__bss_end+0x8357>
    17f0:	f0 e0       	ldi	r31, 0x00	; 0
    17f2:	e6 53       	subi	r30, 0x36	; 54
    17f4:	f5 4c       	sbci	r31, 0xC5	; 197
    17f6:	10 82       	st	Z, r1
                iLED[EYE[G][i]] = 0;
    17f8:	e0 91 73 be 	lds	r30, 0xBE73	; 0x80be73 <__bss_end+0x8359>
    17fc:	f0 e0       	ldi	r31, 0x00	; 0
    17fe:	e6 53       	subi	r30, 0x36	; 54
    1800:	f5 4c       	sbci	r31, 0xC5	; 197
    1802:	10 82       	st	Z, r1
                iLED[SCARAB[i]] = 0;
    1804:	e0 91 65 be 	lds	r30, 0xBE65	; 0x80be65 <__bss_end+0x834b>
    1808:	f0 e0       	ldi	r31, 0x00	; 0
    180a:	e6 53       	subi	r30, 0x36	; 54
    180c:	f5 4c       	sbci	r31, 0xC5	; 197
    180e:	10 82       	st	Z, r1
            }
            iLED[CAT] = 0;
    1810:	e0 91 62 be 	lds	r30, 0xBE62	; 0x80be62 <__bss_end+0x8348>
    1814:	f0 e0       	ldi	r31, 0x00	; 0
    1816:	e6 53       	subi	r30, 0x36	; 54
    1818:	f5 4c       	sbci	r31, 0xC5	; 197
    181a:	10 82       	st	Z, r1
            break;
    181c:	18 c0       	rjmp	.+48     	; 0x184e <GenerateBlinks+0x16a>

        //'flashing red eyes',       # 1 can be used when a bad answer is given
        case 1:
            SetBothEyes((LedCount & 1 ? dimValue : 0),0);
    181e:	89 2f       	mov	r24, r25
    1820:	81 70       	andi	r24, 0x01	; 1
    1822:	90 fd       	sbrc	r25, 0
    1824:	80 91 0a 38 	lds	r24, 0x380A	; 0x80380a <dimValue>
    1828:	60 e0       	ldi	r22, 0x00	; 0
    182a:	0d c0       	rjmp	.+26     	; 0x1846 <GenerateBlinks+0x162>
    182c:	69 2f       	mov	r22, r25
    182e:	70 e0       	ldi	r23, 0x00	; 0
            break;

        //'flashing green eyes',     # 2 can be used when a good answer is given
        case 2:
            SetBothEyes(0, 0x1f + (((LedCount & 0x08) ? ((LedCount&0x07)^0x07) : (LedCount&0x07))<<5));
    1830:	93 ff       	sbrs	r25, 3
    1832:	02 c0       	rjmp	.+4      	; 0x1838 <GenerateBlinks+0x154>
    1834:	60 95       	com	r22
    1836:	70 95       	com	r23
    1838:	85 e0       	ldi	r24, 0x05	; 5
    183a:	66 0f       	add	r22, r22
    183c:	77 1f       	adc	r23, r23
    183e:	8a 95       	dec	r24
    1840:	e1 f7       	brne	.-8      	; 0x183a <GenerateBlinks+0x156>
    1842:	61 5e       	subi	r22, 0xE1	; 225
    1844:	80 e0       	ldi	r24, 0x00	; 0
        // No LED action, game will do it's own LED magic
        case 31:
        default:
            break;
    }
}
    1846:	df 91       	pop	r29
    1848:	cf 91       	pop	r28
            SetBothEyes((LedCount & 1 ? dimValue : 0),0);
            break;

        //'flashing green eyes',     # 2 can be used when a good answer is given
        case 2:
            SetBothEyes(0, 0x1f + (((LedCount & 0x08) ? ((LedCount&0x07)^0x07) : (LedCount&0x07))<<5));
    184a:	1f 91       	pop	r17
    184c:	2f cf       	rjmp	.-418    	; 0x16ac <SetBothEyes>
        // No LED action, game will do it's own LED magic
        case 31:
        default:
            break;
    }
}
    184e:	df 91       	pop	r29
    1850:	cf 91       	pop	r28
    1852:	1f 91       	pop	r17
    1854:	08 95       	ret

00001856 <GenerateAudio>:


uint8_t GenerateAudio(){
    1856:	0f 93       	push	r16
    1858:	1f 93       	push	r17
    185a:	cf 93       	push	r28

    if (auIn[AULEN>>1] < HPLVL) {
    185c:	80 91 c6 3a 	lds	r24, 0x3AC6	; 0x803ac6 <auIn+0x4>
    1860:	89 31       	cpi	r24, 0x19	; 25
    1862:	08 f0       	brcs	.+2      	; 0x1866 <GenerateAudio+0x10>
    1864:	27 c1       	rjmp	.+590    	; 0x1ab4 <GenerateAudio+0x25e>

        detHdPh = 1;
    1866:	c1 e0       	ldi	r28, 0x01	; 1
    1868:	c0 93 bf 3a 	sts	0x3ABF, r28	; 0x803abf <detHdPh>

        //Audio for text adventure
        if ((effect&0xff00)==0) {
    186c:	80 91 3a 38 	lds	r24, 0x383A	; 0x80383a <effect>
    1870:	90 91 3b 38 	lds	r25, 0x383B	; 0x80383b <effect+0x1>
    1874:	88 27       	eor	r24, r24
    1876:	89 2b       	or	r24, r25
    1878:	09 f0       	breq	.+2      	; 0x187c <GenerateAudio+0x26>
    187a:	bf c0       	rjmp	.+382    	; 0x19fa <GenerateAudio+0x1a4>

            //Silence
            if ((effect&0xE0)==0){
    187c:	80 91 3a 38 	lds	r24, 0x383A	; 0x80383a <effect>
    1880:	90 91 3b 38 	lds	r25, 0x383B	; 0x80383b <effect+0x1>
    1884:	80 7e       	andi	r24, 0xE0	; 224
    1886:	99 27       	eor	r25, r25
    1888:	89 2b       	or	r24, r25
    188a:	31 f4       	brne	.+12     	; 0x1898 <GenerateAudio+0x42>
                auRepAddr = &zero;
    188c:	88 e3       	ldi	r24, 0x38	; 56
    188e:	98 e3       	ldi	r25, 0x38	; 56
    1890:	80 93 03 38 	sts	0x3803, r24	; 0x803803 <auRepAddr>
    1894:	90 93 04 38 	sts	0x3804, r25	; 0x803804 <auRepAddr+0x1>
            }

            //Bad (buzzer)
            if ((effect&0xE0)==32){
    1898:	80 91 3a 38 	lds	r24, 0x383A	; 0x80383a <effect>
    189c:	90 91 3b 38 	lds	r25, 0x383B	; 0x80383b <effect+0x1>
    18a0:	80 7e       	andi	r24, 0xE0	; 224
    18a2:	99 27       	eor	r25, r25
    18a4:	80 97       	sbiw	r24, 0x20	; 32
    18a6:	09 f0       	breq	.+2      	; 0x18aa <GenerateAudio+0x54>
    18a8:	59 c0       	rjmp	.+178    	; 0x195c <GenerateAudio+0x106>
                static uint8_t auBuffer[17] = {1, 255, 128, 128, 192, 255, 64, 255, 192, 128, 64, 1, 192, 1, 64, 128, 0}; 
                static uint8_t loudness, duration, start;
                floatSpeed(1, 0x2000, 0x2200);
    18aa:	40 e0       	ldi	r20, 0x00	; 0
    18ac:	52 e2       	ldi	r21, 0x22	; 34
    18ae:	60 e0       	ldi	r22, 0x00	; 0
    18b0:	70 e2       	ldi	r23, 0x20	; 32
    18b2:	81 e0       	ldi	r24, 0x01	; 1
    18b4:	f1 dc       	rcall	.-1566   	; 0x1298 <floatSpeed>
                auBuffer[2] = floatAround(0x80, 5, 0x01, 0x00);
    18b6:	20 e0       	ldi	r18, 0x00	; 0
    18b8:	41 e0       	ldi	r20, 0x01	; 1
    18ba:	65 e0       	ldi	r22, 0x05	; 5
    18bc:	80 e8       	ldi	r24, 0x80	; 128
    18be:	1e dd       	rcall	.-1476   	; 0x12fc <floatAround>
    18c0:	80 93 11 38 	sts	0x3811, r24	; 0x803811 <auBuffer.3982+0x2>

                if (buttonMark) {
    18c4:	80 91 42 38 	lds	r24, 0x3842	; 0x803842 <buttonMark>
    18c8:	88 23       	and	r24, r24
    18ca:	09 f4       	brne	.+2      	; 0x18ce <GenerateAudio+0x78>
    18cc:	47 c0       	rjmp	.+142    	; 0x195c <GenerateAudio+0x106>
                    if (start == 0) {
    18ce:	80 91 58 38 	lds	r24, 0x3858	; 0x803858 <start.3985>
    18d2:	81 11       	cpse	r24, r1
    18d4:	15 c0       	rjmp	.+42     	; 0x1900 <GenerateAudio+0xaa>
                        duration = 4;
    18d6:	84 e0       	ldi	r24, 0x04	; 4
    18d8:	80 93 57 38 	sts	0x3857, r24	; 0x803857 <duration.3984>
                        loudness = 0xff;
    18dc:	8f ef       	ldi	r24, 0xFF	; 255
    18de:	80 93 56 38 	sts	0x3856, r24	; 0x803856 <loudness.3983>
                        TCB1_CCMP = 0x2000;
    18e2:	80 e0       	ldi	r24, 0x00	; 0
    18e4:	90 e2       	ldi	r25, 0x20	; 32
    18e6:	80 93 5c 0a 	sts	0x0A5C, r24	; 0x800a5c <__TEXT_REGION_LENGTH__+0x700a5c>
    18ea:	90 93 5d 0a 	sts	0x0A5D, r25	; 0x800a5d <__TEXT_REGION_LENGTH__+0x700a5d>
                        auRepAddr = &auBuffer[0];
    18ee:	8f e0       	ldi	r24, 0x0F	; 15
    18f0:	98 e3       	ldi	r25, 0x38	; 56
    18f2:	80 93 03 38 	sts	0x3803, r24	; 0x803803 <auRepAddr>
    18f6:	90 93 04 38 	sts	0x3804, r25	; 0x803804 <auRepAddr+0x1>
                        start = 1;
    18fa:	81 e0       	ldi	r24, 0x01	; 1
    18fc:	80 93 58 38 	sts	0x3858, r24	; 0x803858 <start.3985>
                    }

                    if (loudness) {
    1900:	80 91 56 38 	lds	r24, 0x3856	; 0x803856 <loudness.3983>
    1904:	88 23       	and	r24, r24
    1906:	69 f0       	breq	.+26     	; 0x1922 <GenerateAudio+0xcc>
                        auVolume = loudness;
    1908:	80 93 b6 3a 	sts	0x3AB6, r24	; 0x803ab6 <auVolume>
                        if (duration) duration--; else loudness >>= 1;
    190c:	90 91 57 38 	lds	r25, 0x3857	; 0x803857 <duration.3984>
    1910:	99 23       	and	r25, r25
    1912:	21 f0       	breq	.+8      	; 0x191c <GenerateAudio+0xc6>
    1914:	91 50       	subi	r25, 0x01	; 1
    1916:	90 93 57 38 	sts	0x3857, r25	; 0x803857 <duration.3984>
    191a:	03 c0       	rjmp	.+6      	; 0x1922 <GenerateAudio+0xcc>
    191c:	86 95       	lsr	r24
    191e:	80 93 56 38 	sts	0x3856, r24	; 0x803856 <loudness.3983>
                    } 

                    if (loudness == 0) {
    1922:	80 91 56 38 	lds	r24, 0x3856	; 0x803856 <loudness.3983>
    1926:	81 11       	cpse	r24, r1
    1928:	19 c0       	rjmp	.+50     	; 0x195c <GenerateAudio+0x106>
                        effect &= 0x1f;
    192a:	80 91 3a 38 	lds	r24, 0x383A	; 0x80383a <effect>
    192e:	90 91 3b 38 	lds	r25, 0x383B	; 0x80383b <effect+0x1>
    1932:	8f 71       	andi	r24, 0x1F	; 31
    1934:	99 27       	eor	r25, r25
    1936:	80 93 3a 38 	sts	0x383A, r24	; 0x80383a <effect>
    193a:	90 93 3b 38 	sts	0x383B, r25	; 0x80383b <effect+0x1>
                        auRepAddr = &zero;
    193e:	88 e3       	ldi	r24, 0x38	; 56
    1940:	98 e3       	ldi	r25, 0x38	; 56
    1942:	80 93 03 38 	sts	0x3803, r24	; 0x803803 <auRepAddr>
    1946:	90 93 04 38 	sts	0x3804, r25	; 0x803804 <auRepAddr+0x1>
                        auSmpAddr = &zero;
    194a:	80 93 05 38 	sts	0x3805, r24	; 0x803805 <auSmpAddr>
    194e:	90 93 06 38 	sts	0x3806, r25	; 0x803806 <auSmpAddr+0x1>
                        auVolume = 0xff;
    1952:	8f ef       	ldi	r24, 0xFF	; 255
    1954:	80 93 b6 3a 	sts	0x3AB6, r24	; 0x803ab6 <auVolume>
                        start = 0;
    1958:	10 92 58 38 	sts	0x3858, r1	; 0x803858 <start.3985>
                    }
                }
            }

            //Good (bell)
            if ((effect&0xE0)==64){
    195c:	80 91 3a 38 	lds	r24, 0x383A	; 0x80383a <effect>
    1960:	90 91 3b 38 	lds	r25, 0x383B	; 0x80383b <effect+0x1>
                //auBuffer = 
            }

            //Rain storm with whistling wind
            if ((effect&0xE0)==96){
    1964:	80 91 3a 38 	lds	r24, 0x383A	; 0x80383a <effect>
    1968:	90 91 3b 38 	lds	r25, 0x383B	; 0x80383b <effect+0x1>
    196c:	80 7e       	andi	r24, 0xE0	; 224
    196e:	99 27       	eor	r25, r25
    1970:	80 36       	cpi	r24, 0x60	; 96
    1972:	91 05       	cpc	r25, r1
    1974:	a9 f5       	brne	.+106    	; 0x19e0 <GenerateAudio+0x18a>
                static uint8_t auBuffer[7];
                auBuffer[6]= 0;        
    1976:	10 92 55 38 	sts	0x3855, r1	; 0x803855 <auBuffer.3986+0x6>
                auRepAddr = &auBuffer[0];
    197a:	8f e4       	ldi	r24, 0x4F	; 79
    197c:	98 e3       	ldi	r25, 0x38	; 56
    197e:	80 93 03 38 	sts	0x3803, r24	; 0x803803 <auRepAddr>
    1982:	90 93 04 38 	sts	0x3804, r25	; 0x803804 <auRepAddr+0x1>
    1986:	8c 01       	movw	r16, r24

                //Noise is to be generated fast, outside of buttonMark loop
                for (uint8_t x=1; x<6; ++x){
    1988:	c1 e0       	ldi	r28, 0x01	; 1
                    if ((x>0) && (x!=3)) auBuffer[x] = floatAround(0x80, 5, 0x01, 0x00);
    198a:	c3 30       	cpi	r28, 0x03	; 3
    198c:	39 f0       	breq	.+14     	; 0x199c <GenerateAudio+0x146>
    198e:	20 e0       	ldi	r18, 0x00	; 0
    1990:	41 e0       	ldi	r20, 0x01	; 1
    1992:	65 e0       	ldi	r22, 0x05	; 5
    1994:	80 e8       	ldi	r24, 0x80	; 128
    1996:	b2 dc       	rcall	.-1692   	; 0x12fc <floatAround>
    1998:	f8 01       	movw	r30, r16
    199a:	81 83       	std	Z+1, r24	; 0x01
                static uint8_t auBuffer[7];
                auBuffer[6]= 0;        
                auRepAddr = &auBuffer[0];

                //Noise is to be generated fast, outside of buttonMark loop
                for (uint8_t x=1; x<6; ++x){
    199c:	cf 5f       	subi	r28, 0xFF	; 255
    199e:	0f 5f       	subi	r16, 0xFF	; 255
    19a0:	1f 4f       	sbci	r17, 0xFF	; 255
    19a2:	c6 30       	cpi	r28, 0x06	; 6
    19a4:	91 f7       	brne	.-28     	; 0x198a <GenerateAudio+0x134>
                    if ((x>0) && (x!=3)) auBuffer[x] = floatAround(0x80, 5, 0x01, 0x00);
                }

                if (buttonMark){
    19a6:	80 91 42 38 	lds	r24, 0x3842	; 0x803842 <buttonMark>
    19aa:	88 23       	and	r24, r24
    19ac:	c9 f0       	breq	.+50     	; 0x19e0 <GenerateAudio+0x18a>
                    //"Floating" speed for howl (and noise, but that's hardly audible)
                    floatSpeed(5, 0x0280, 0x0400);
    19ae:	40 e0       	ldi	r20, 0x00	; 0
    19b0:	54 e0       	ldi	r21, 0x04	; 4
    19b2:	60 e8       	ldi	r22, 0x80	; 128
    19b4:	72 e0       	ldi	r23, 0x02	; 2
    19b6:	85 e0       	ldi	r24, 0x05	; 5
    19b8:	6f dc       	rcall	.-1826   	; 0x1298 <floatSpeed>
            
                    //"Floating" volume and wind howl during 8 bit rainstorm needs some randomness
                    auVolume = floatAround(auVolume, 2, 0x10, 0xA0);
    19ba:	80 91 b6 3a 	lds	r24, 0x3AB6	; 0x803ab6 <auVolume>
    19be:	20 ea       	ldi	r18, 0xA0	; 160
    19c0:	40 e1       	ldi	r20, 0x10	; 16
    19c2:	62 e0       	ldi	r22, 0x02	; 2
    19c4:	9b dc       	rcall	.-1738   	; 0x12fc <floatAround>
    19c6:	80 93 b6 3a 	sts	0x3AB6, r24	; 0x803ab6 <auVolume>
                    auBuffer[0] = floatAround(auBuffer[0], 2, 0x70, 0x90);
    19ca:	20 e9       	ldi	r18, 0x90	; 144
    19cc:	40 e7       	ldi	r20, 0x70	; 112
    19ce:	62 e0       	ldi	r22, 0x02	; 2
    19d0:	80 91 4f 38 	lds	r24, 0x384F	; 0x80384f <auBuffer.3986>
    19d4:	93 dc       	rcall	.-1754   	; 0x12fc <floatAround>
    19d6:	80 93 4f 38 	sts	0x384F, r24	; 0x80384f <auBuffer.3986>
                    auBuffer[3] = 0xFF-auBuffer[0];  //Inverse value of wind[0] produces a whistle
    19da:	80 95       	com	r24
    19dc:	80 93 52 38 	sts	0x3852, r24	; 0x803852 <auBuffer.3986+0x3>
                }
            }

            //Footsteps
            if ((effect&0xE0)==128){
    19e0:	80 91 3a 38 	lds	r24, 0x383A	; 0x80383a <effect>
    19e4:	90 91 3b 38 	lds	r25, 0x383B	; 0x80383b <effect+0x1>

            }

            //
            if ((effect&0xE0)==160){
    19e8:	80 91 3a 38 	lds	r24, 0x383A	; 0x80383a <effect>
    19ec:	90 91 3b 38 	lds	r25, 0x383B	; 0x80383b <effect+0x1>

            }

            //
            if ((effect&0xE0)==192){
    19f0:	80 91 3a 38 	lds	r24, 0x383A	; 0x80383a <effect>
    19f4:	90 91 3b 38 	lds	r25, 0x383B	; 0x80383b <effect+0x1>
    19f8:	5f c0       	rjmp	.+190    	; 0x1ab8 <GenerateAudio+0x262>
            }

            //
            else {
            }
        } else if ((effect&0xff00)==0x0100) {
    19fa:	80 91 3a 38 	lds	r24, 0x383A	; 0x80383a <effect>
    19fe:	90 91 3b 38 	lds	r25, 0x383B	; 0x80383b <effect+0x1>
    1a02:	88 27       	eor	r24, r24
    1a04:	81 15       	cp	r24, r1
    1a06:	91 40       	sbci	r25, 0x01	; 1
    1a08:	09 f0       	breq	.+2      	; 0x1a0c <GenerateAudio+0x1b6>
    1a0a:	56 c0       	rjmp	.+172    	; 0x1ab8 <GenerateAudio+0x262>
            if ((effect&0xE0) <= 0x90) {
    1a0c:	80 91 3a 38 	lds	r24, 0x383A	; 0x80383a <effect>
    1a10:	90 91 3b 38 	lds	r25, 0x383B	; 0x80383b <effect+0x1>
    1a14:	80 7e       	andi	r24, 0xE0	; 224
    1a16:	99 27       	eor	r25, r25
    1a18:	81 39       	cpi	r24, 0x91	; 145
    1a1a:	91 05       	cpc	r25, r1
    1a1c:	08 f0       	brcs	.+2      	; 0x1a20 <GenerateAudio+0x1ca>
    1a1e:	4c c0       	rjmp	.+152    	; 0x1ab8 <GenerateAudio+0x262>
                
                static uint8_t auBuffer[3] = {255, 1, 0};
                static uint8_t duration, start;
                uint16_t freq = ((effect&0xE0)+1)<<6;
    1a20:	60 91 3a 38 	lds	r22, 0x383A	; 0x80383a <effect>
    1a24:	70 91 3b 38 	lds	r23, 0x383B	; 0x80383b <effect+0x1>
    1a28:	60 7e       	andi	r22, 0xE0	; 224
    1a2a:	77 27       	eor	r23, r23
    1a2c:	6f 5f       	subi	r22, 0xFF	; 255
    1a2e:	7f 4f       	sbci	r23, 0xFF	; 255
    1a30:	86 e0       	ldi	r24, 0x06	; 6
    1a32:	66 0f       	add	r22, r22
    1a34:	77 1f       	adc	r23, r23
    1a36:	8a 95       	dec	r24
                floatSpeed(1, freq+0x0200, freq+0x0300);
    1a38:	e1 f7       	brne	.-8      	; 0x1a32 <GenerateAudio+0x1dc>
    1a3a:	ab 01       	movw	r20, r22
    1a3c:	5d 5f       	subi	r21, 0xFD	; 253
    1a3e:	7e 5f       	subi	r23, 0xFE	; 254
    1a40:	81 e0       	ldi	r24, 0x01	; 1
    1a42:	2a dc       	rcall	.-1964   	; 0x1298 <floatSpeed>
                //auBuffer[] = floatAround(0x80, 5, 0x01, 0x00);

                if (buttonMark) {
    1a44:	80 91 42 38 	lds	r24, 0x3842	; 0x803842 <buttonMark>
    1a48:	88 23       	and	r24, r24
    1a4a:	b1 f1       	breq	.+108    	; 0x1ab8 <GenerateAudio+0x262>
                    if (start == 0) {
    1a4c:	80 91 4e 38 	lds	r24, 0x384E	; 0x80384e <start.3993>
    1a50:	81 11       	cpse	r24, r1
    1a52:	0e c0       	rjmp	.+28     	; 0x1a70 <GenerateAudio+0x21a>
                        duration = 3;
    1a54:	83 e0       	ldi	r24, 0x03	; 3
    1a56:	80 93 4d 38 	sts	0x384D, r24	; 0x80384d <duration.3992>
                        auRepAddr = &auBuffer[0];
    1a5a:	8c e0       	ldi	r24, 0x0C	; 12
    1a5c:	98 e3       	ldi	r25, 0x38	; 56
    1a5e:	80 93 03 38 	sts	0x3803, r24	; 0x803803 <auRepAddr>
    1a62:	90 93 04 38 	sts	0x3804, r25	; 0x803804 <auRepAddr+0x1>
                        auVolume = 255;
    1a66:	8f ef       	ldi	r24, 0xFF	; 255
    1a68:	80 93 b6 3a 	sts	0x3AB6, r24	; 0x803ab6 <auVolume>
                        start = 1;
    1a6c:	c0 93 4e 38 	sts	0x384E, r28	; 0x80384e <start.3993>
                    }   if (duration == 0) {
    1a70:	80 91 4d 38 	lds	r24, 0x384D	; 0x80384d <duration.3992>
    1a74:	81 11       	cpse	r24, r1
    1a76:	1a c0       	rjmp	.+52     	; 0x1aac <GenerateAudio+0x256>
                        effect &= 0x1f;
    1a78:	80 91 3a 38 	lds	r24, 0x383A	; 0x80383a <effect>
    1a7c:	90 91 3b 38 	lds	r25, 0x383B	; 0x80383b <effect+0x1>
    1a80:	8f 71       	andi	r24, 0x1F	; 31
    1a82:	99 27       	eor	r25, r25
    1a84:	80 93 3a 38 	sts	0x383A, r24	; 0x80383a <effect>
    1a88:	90 93 3b 38 	sts	0x383B, r25	; 0x80383b <effect+0x1>
                        auRepAddr = &zero;
    1a8c:	88 e3       	ldi	r24, 0x38	; 56
    1a8e:	98 e3       	ldi	r25, 0x38	; 56
    1a90:	80 93 03 38 	sts	0x3803, r24	; 0x803803 <auRepAddr>
    1a94:	90 93 04 38 	sts	0x3804, r25	; 0x803804 <auRepAddr+0x1>
                        auSmpAddr = &zero;
    1a98:	80 93 05 38 	sts	0x3805, r24	; 0x803805 <auSmpAddr>
    1a9c:	90 93 06 38 	sts	0x3806, r25	; 0x803806 <auSmpAddr+0x1>
                        auVolume = 0xff;
    1aa0:	8f ef       	ldi	r24, 0xFF	; 255
    1aa2:	80 93 b6 3a 	sts	0x3AB6, r24	; 0x803ab6 <auVolume>
                        start = 0;
    1aa6:	10 92 4e 38 	sts	0x384E, r1	; 0x80384e <start.3993>
    1aaa:	06 c0       	rjmp	.+12     	; 0x1ab8 <GenerateAudio+0x262>
                    } else duration--;
    1aac:	81 50       	subi	r24, 0x01	; 1
    1aae:	80 93 4d 38 	sts	0x384D, r24	; 0x80384d <duration.3992>
    1ab2:	02 c0       	rjmp	.+4      	; 0x1ab8 <GenerateAudio+0x262>
                }
            }
        }
    } else {
        detHdPh = 0;
    1ab4:	10 92 bf 3a 	sts	0x3ABF, r1	; 0x803abf <detHdPh>
    }
    return buttonMark;
    1ab8:	80 91 42 38 	lds	r24, 0x3842	; 0x803842 <buttonMark>
}
    1abc:	cf 91       	pop	r28
    1abe:	1f 91       	pop	r17
    1ac0:	0f 91       	pop	r16
    1ac2:	08 95       	ret

00001ac4 <getClock>:

uint16_t getClock() {
    return 60 * minuteMark + (RTC_CNT>>9);
    1ac4:	20 91 43 38 	lds	r18, 0x3843	; 0x803843 <minuteMark>
    1ac8:	80 91 48 01 	lds	r24, 0x0148	; 0x800148 <__TEXT_REGION_LENGTH__+0x700148>
    1acc:	90 91 49 01 	lds	r25, 0x0149	; 0x800149 <__TEXT_REGION_LENGTH__+0x700149>
    1ad0:	89 2f       	mov	r24, r25
    1ad2:	99 27       	eor	r25, r25
    1ad4:	86 95       	lsr	r24
}
    1ad6:	3c e3       	ldi	r19, 0x3C	; 60
    1ad8:	23 9f       	mul	r18, r19
    1ada:	80 0d       	add	r24, r0
    1adc:	91 1d       	adc	r25, r1
    1ade:	11 24       	eor	r1, r1
    1ae0:	08 95       	ret

00001ae2 <idleTimeout>:

uint8_t idleTimeout(uint16_t lastActive, uint16_t maxIdle) {
    1ae2:	0f 93       	push	r16
    1ae4:	1f 93       	push	r17
    1ae6:	cf 93       	push	r28
    1ae8:	df 93       	push	r29
    1aea:	8c 01       	movw	r16, r24
    1aec:	eb 01       	movw	r28, r22
    uint16_t curClock;

    curClock = getClock();
    1aee:	ea df       	rcall	.-44     	; 0x1ac4 <getClock>
    1af0:	9c 01       	movw	r18, r24
    if (curClock < lastActive)
    1af2:	80 17       	cp	r24, r16
    1af4:	91 07       	cpc	r25, r17
    1af6:	08 f4       	brcc	.+2      	; 0x1afa <idleTimeout+0x18>
        curClock += 256 * 60;
    1af8:	34 5c       	subi	r19, 0xC4	; 196

    return (curClock > (lastActive + maxIdle));
    1afa:	c0 0f       	add	r28, r16
    1afc:	d1 1f       	adc	r29, r17
    1afe:	81 e0       	ldi	r24, 0x01	; 1
    1b00:	c2 17       	cp	r28, r18
    1b02:	d3 07       	cpc	r29, r19
    1b04:	08 f0       	brcs	.+2      	; 0x1b08 <idleTimeout+0x26>
    1b06:	80 e0       	ldi	r24, 0x00	; 0
}
    1b08:	df 91       	pop	r29
    1b0a:	cf 91       	pop	r28
    1b0c:	1f 91       	pop	r17
    1b0e:	0f 91       	pop	r16
    1b10:	08 95       	ret

00001b12 <simonLed>:

/**
 * Set the wing LED blocks to selected option
 * @param val
 */
void simonLed(uint8_t val) {
    1b12:	cf 93       	push	r28
    1b14:	df 93       	push	r29
    1b16:	e6 e6       	ldi	r30, 0x66	; 102
    1b18:	fe eb       	ldi	r31, 0xBE	; 190
    1b1a:	ef 01       	movw	r28, r30
    for (uint8_t n = 0; n < 5; n++) {
        iLED[WING[L][n]] = 0;
    1b1c:	a5 81       	ldd	r26, Z+5	; 0x05
    1b1e:	b0 e0       	ldi	r27, 0x00	; 0
    1b20:	a6 53       	subi	r26, 0x36	; 54
    1b22:	b5 4c       	sbci	r27, 0xC5	; 197
    1b24:	1c 92       	st	X, r1
    1b26:	31 96       	adiw	r30, 0x01	; 1
        iLED[WING[R][n]] = 0;
    1b28:	a8 81       	ld	r26, Y
    1b2a:	b0 e0       	ldi	r27, 0x00	; 0
    1b2c:	a6 53       	subi	r26, 0x36	; 54
    1b2e:	b5 4c       	sbci	r27, 0xC5	; 197
    1b30:	1c 92       	st	X, r1
/**
 * Set the wing LED blocks to selected option
 * @param val
 */
void simonLed(uint8_t val) {
    for (uint8_t n = 0; n < 5; n++) {
    1b32:	9e eb       	ldi	r25, 0xBE	; 190
    1b34:	eb 36       	cpi	r30, 0x6B	; 107
    1b36:	f9 07       	cpc	r31, r25
    1b38:	81 f7       	brne	.-32     	; 0x1b1a <simonLed+0x8>
        iLED[WING[L][n]] = 0;
        iLED[WING[R][n]] = 0;
    }
    if (val == 3) {         // II
    1b3a:	83 30       	cpi	r24, 0x03	; 3
    1b3c:	d9 f4       	brne	.+54     	; 0x1b74 <simonLed+0x62>
        iLED[WING[L][0]] = dimValue;
    1b3e:	e0 91 6b be 	lds	r30, 0xBE6B	; 0x80be6b <__bss_end+0x8351>
    1b42:	f0 e0       	ldi	r31, 0x00	; 0
    1b44:	80 91 0a 38 	lds	r24, 0x380A	; 0x80380a <dimValue>
    1b48:	e6 53       	subi	r30, 0x36	; 54
    1b4a:	f5 4c       	sbci	r31, 0xC5	; 197
    1b4c:	80 83       	st	Z, r24
        iLED[WING[L][1]] = dimValue;
    1b4e:	e0 91 6c be 	lds	r30, 0xBE6C	; 0x80be6c <__bss_end+0x8352>
    1b52:	f0 e0       	ldi	r31, 0x00	; 0
    1b54:	80 91 0a 38 	lds	r24, 0x380A	; 0x80380a <dimValue>
    1b58:	e6 53       	subi	r30, 0x36	; 54
    1b5a:	f5 4c       	sbci	r31, 0xC5	; 197
    1b5c:	80 83       	st	Z, r24
        iLED[WING[L][2]] = dimValue;
    1b5e:	e0 91 6d be 	lds	r30, 0xBE6D	; 0x80be6d <__bss_end+0x8353>
    1b62:	f0 e0       	ldi	r31, 0x00	; 0
    1b64:	80 91 0a 38 	lds	r24, 0x380A	; 0x80380a <dimValue>
    1b68:	e6 53       	subi	r30, 0x36	; 54
    1b6a:	f5 4c       	sbci	r31, 0xC5	; 197
    1b6c:	80 83       	st	Z, r24
        effect = 0x013f;
    1b6e:	8f e3       	ldi	r24, 0x3F	; 63
    1b70:	91 e0       	ldi	r25, 0x01	; 1
    1b72:	46 c0       	rjmp	.+140    	; 0x1c00 <simonLed+0xee>
    } else if (val == 1) {  //
    1b74:	81 30       	cpi	r24, 0x01	; 1
    1b76:	99 f4       	brne	.+38     	; 0x1b9e <simonLed+0x8c>
        iLED[WING[L][3]] = dimValue;
    1b78:	e0 91 6e be 	lds	r30, 0xBE6E	; 0x80be6e <__bss_end+0x8354>
    1b7c:	f0 e0       	ldi	r31, 0x00	; 0
    1b7e:	80 91 0a 38 	lds	r24, 0x380A	; 0x80380a <dimValue>
    1b82:	e6 53       	subi	r30, 0x36	; 54
    1b84:	f5 4c       	sbci	r31, 0xC5	; 197
    1b86:	80 83       	st	Z, r24
        iLED[WING[L][4]] = dimValue;
    1b88:	e0 91 6f be 	lds	r30, 0xBE6F	; 0x80be6f <__bss_end+0x8355>
    1b8c:	f0 e0       	ldi	r31, 0x00	; 0
    1b8e:	80 91 0a 38 	lds	r24, 0x380A	; 0x80380a <dimValue>
    1b92:	e6 53       	subi	r30, 0x36	; 54
    1b94:	f5 4c       	sbci	r31, 0xC5	; 197
    1b96:	80 83       	st	Z, r24
        effect = 0x015f;
    1b98:	8f e5       	ldi	r24, 0x5F	; 95
    1b9a:	91 e0       	ldi	r25, 0x01	; 1
    1b9c:	31 c0       	rjmp	.+98     	; 0x1c00 <simonLed+0xee>
    } else if (val == 4) {  // III
    1b9e:	84 30       	cpi	r24, 0x04	; 4
    1ba0:	d9 f4       	brne	.+54     	; 0x1bd8 <simonLed+0xc6>
        iLED[WING[R][0]] = dimValue;
    1ba2:	e0 91 66 be 	lds	r30, 0xBE66	; 0x80be66 <__bss_end+0x834c>
    1ba6:	f0 e0       	ldi	r31, 0x00	; 0
    1ba8:	80 91 0a 38 	lds	r24, 0x380A	; 0x80380a <dimValue>
    1bac:	e6 53       	subi	r30, 0x36	; 54
    1bae:	f5 4c       	sbci	r31, 0xC5	; 197
    1bb0:	80 83       	st	Z, r24
        iLED[WING[R][1]] = dimValue;
    1bb2:	e0 91 67 be 	lds	r30, 0xBE67	; 0x80be67 <__bss_end+0x834d>
    1bb6:	f0 e0       	ldi	r31, 0x00	; 0
    1bb8:	80 91 0a 38 	lds	r24, 0x380A	; 0x80380a <dimValue>
    1bbc:	e6 53       	subi	r30, 0x36	; 54
    1bbe:	f5 4c       	sbci	r31, 0xC5	; 197
    1bc0:	80 83       	st	Z, r24
        iLED[WING[R][2]] = dimValue;
    1bc2:	e0 91 68 be 	lds	r30, 0xBE68	; 0x80be68 <__bss_end+0x834e>
    1bc6:	f0 e0       	ldi	r31, 0x00	; 0
    1bc8:	80 91 0a 38 	lds	r24, 0x380A	; 0x80380a <dimValue>
    1bcc:	e6 53       	subi	r30, 0x36	; 54
    1bce:	f5 4c       	sbci	r31, 0xC5	; 197
    1bd0:	80 83       	st	Z, r24
        effect = 0x017f;
    1bd2:	8f e7       	ldi	r24, 0x7F	; 127
    1bd4:	91 e0       	ldi	r25, 0x01	; 1
    1bd6:	14 c0       	rjmp	.+40     	; 0x1c00 <simonLed+0xee>
    } else if (val == 2) {  // I
    1bd8:	82 30       	cpi	r24, 0x02	; 2
    1bda:	b1 f4       	brne	.+44     	; 0x1c08 <simonLed+0xf6>
        iLED[WING[R][3]] = dimValue;
    1bdc:	e0 91 69 be 	lds	r30, 0xBE69	; 0x80be69 <__bss_end+0x834f>
    1be0:	f0 e0       	ldi	r31, 0x00	; 0
    1be2:	80 91 0a 38 	lds	r24, 0x380A	; 0x80380a <dimValue>
    1be6:	e6 53       	subi	r30, 0x36	; 54
    1be8:	f5 4c       	sbci	r31, 0xC5	; 197
    1bea:	80 83       	st	Z, r24
        iLED[WING[R][4]] = dimValue;
    1bec:	e0 91 6a be 	lds	r30, 0xBE6A	; 0x80be6a <__bss_end+0x8350>
    1bf0:	f0 e0       	ldi	r31, 0x00	; 0
    1bf2:	80 91 0a 38 	lds	r24, 0x380A	; 0x80380a <dimValue>
    1bf6:	e6 53       	subi	r30, 0x36	; 54
    1bf8:	f5 4c       	sbci	r31, 0xC5	; 197
    1bfa:	80 83       	st	Z, r24
        effect = 0x019f;
    1bfc:	8f e9       	ldi	r24, 0x9F	; 159
    1bfe:	91 e0       	ldi	r25, 0x01	; 1
    1c00:	80 93 3a 38 	sts	0x383A, r24	; 0x80383a <effect>
    1c04:	90 93 3b 38 	sts	0x383B, r25	; 0x80383b <effect+0x1>
    }
}
    1c08:	df 91       	pop	r29
    1c0a:	cf 91       	pop	r28
    1c0c:	08 95       	ret

00001c0e <BastetDictates>:

/**
 * Main game loop
 * @return 0
 */
uint8_t BastetDictates() {
    1c0e:	cf 93       	push	r28
    1c10:	df 93       	push	r29
    if (CheckState(BASTET_COMPLETED))
    1c12:	8a e7       	ldi	r24, 0x7A	; 122
    1c14:	50 dc       	rcall	.-1888   	; 0x14b6 <CheckState>
    1c16:	81 11       	cpse	r24, r1
    1c18:	73 c1       	rjmp	.+742    	; 0x1f00 <BastetDictates+0x2f2>
        return 0;

    if ((TEXT != gameNow) && (BASTET != gameNow))
    1c1a:	80 91 3c 38 	lds	r24, 0x383C	; 0x80383c <gameNow>
    1c1e:	8d 7f       	andi	r24, 0xFD	; 253
    1c20:	09 f0       	breq	.+2      	; 0x1c24 <BastetDictates+0x16>
    1c22:	6e c1       	rjmp	.+732    	; 0x1f00 <BastetDictates+0x2f2>
        return 0;

    if (BASTET_BOOT == simonGameState) {
    1c24:	80 91 5c 38 	lds	r24, 0x385C	; 0x80385c <simonGameState>
    1c28:	81 11       	cpse	r24, r1
    1c2a:	20 c0       	rjmp	.+64     	; 0x1c6c <BastetDictates+0x5e>
        simonPos = ((adcPhot+adcTemp)&0x3f);
    1c2c:	20 91 bd 3a 	lds	r18, 0x3ABD	; 0x803abd <adcPhot>
    1c30:	30 91 be 3a 	lds	r19, 0x3ABE	; 0x803abe <adcPhot+0x1>
    1c34:	80 91 f5 3a 	lds	r24, 0x3AF5	; 0x803af5 <adcTemp>
    1c38:	90 91 f6 3a 	lds	r25, 0x3AF6	; 0x803af6 <adcTemp+0x1>
    1c3c:	82 0f       	add	r24, r18
    1c3e:	8f 73       	andi	r24, 0x3F	; 63
    1c40:	80 93 61 38 	sts	0x3861, r24	; 0x803861 <simonPos>
        for(uint8_t x=0; x<simonPos; ++x) lfsr();
    1c44:	c0 e0       	ldi	r28, 0x00	; 0
    1c46:	80 91 61 38 	lds	r24, 0x3861	; 0x803861 <simonPos>
    1c4a:	c8 17       	cp	r28, r24
    1c4c:	18 f4       	brcc	.+6      	; 0x1c54 <BastetDictates+0x46>
    1c4e:	05 db       	rcall	.-2550   	; 0x125a <lfsr>
    1c50:	cf 5f       	subi	r28, 0xFF	; 255
    1c52:	f9 cf       	rjmp	.-14     	; 0x1c46 <BastetDictates+0x38>
    1c54:	c2 e6       	ldi	r28, 0x62	; 98

        for (uint8_t i = 0; i < BASTET_LENGTH; i++) {
            simonState[i] = (lfsr() % 4);
    1c56:	d8 e3       	ldi	r29, 0x38	; 56
    1c58:	00 db       	rcall	.-2560   	; 0x125a <lfsr>
    1c5a:	83 70       	andi	r24, 0x03	; 3
    1c5c:	89 93       	st	Y+, r24

    if (BASTET_BOOT == simonGameState) {
        simonPos = ((adcPhot+adcTemp)&0x3f);
        for(uint8_t x=0; x<simonPos; ++x) lfsr();

        for (uint8_t i = 0; i < BASTET_LENGTH; i++) {
    1c5e:	88 e3       	ldi	r24, 0x38	; 56
    1c60:	ce 36       	cpi	r28, 0x6E	; 110
    1c62:	d8 07       	cpc	r29, r24
    1c64:	c9 f7       	brne	.-14     	; 0x1c58 <BastetDictates+0x4a>
            simonState[i] = (lfsr() % 4);
        }
        simonGameState = BASTET_GAME_START;
    1c66:	81 e0       	ldi	r24, 0x01	; 1
    1c68:	80 93 5c 38 	sts	0x385C, r24	; 0x80385c <simonGameState>
    }

    if (BASTET_GAME_START == simonGameState && BASTET == gameNow) {
    1c6c:	80 91 5c 38 	lds	r24, 0x385C	; 0x80385c <simonGameState>
    1c70:	81 30       	cpi	r24, 0x01	; 1
    1c72:	71 f4       	brne	.+28     	; 0x1c90 <BastetDictates+0x82>
    1c74:	80 91 3c 38 	lds	r24, 0x383C	; 0x80383c <gameNow>
    1c78:	82 30       	cpi	r24, 0x02	; 2
    1c7a:	51 f4       	brne	.+20     	; 0x1c90 <BastetDictates+0x82>
        simonGameState = BASTET_GAME_INTRO;
    1c7c:	80 93 5c 38 	sts	0x385C, r24	; 0x80385c <simonGameState>
        simonPos = 0;
    1c80:	10 92 61 38 	sts	0x3861, r1	; 0x803861 <simonPos>
        simonInputPos = 0;
    1c84:	10 92 60 38 	sts	0x3860, r1	; 0x803860 <simonInputPos>
        simonTimer = 0;
    1c88:	10 92 5f 38 	sts	0x385F, r1	; 0x80385f <simonTimer>
        simonCounter = 0;
    1c8c:	10 92 5d 38 	sts	0x385D, r1	; 0x80385d <simonCounter>
    }

    if (BASTET_GAME_INTRO == simonGameState) {
    1c90:	80 91 5c 38 	lds	r24, 0x385C	; 0x80385c <simonGameState>
    1c94:	82 30       	cpi	r24, 0x02	; 2
    1c96:	79 f5       	brne	.+94     	; 0x1cf6 <BastetDictates+0xe8>
        if (simonTimer > 5) {   // .33 seconds
    1c98:	80 91 5f 38 	lds	r24, 0x385F	; 0x80385f <simonTimer>
    1c9c:	86 30       	cpi	r24, 0x06	; 6
    1c9e:	38 f0       	brcs	.+14     	; 0x1cae <BastetDictates+0xa0>
            simonCounter++;
    1ca0:	80 91 5d 38 	lds	r24, 0x385D	; 0x80385d <simonCounter>
    1ca4:	8f 5f       	subi	r24, 0xFF	; 255
    1ca6:	80 93 5d 38 	sts	0x385D, r24	; 0x80385d <simonCounter>
            simonTimer = 0;
    1caa:	10 92 5f 38 	sts	0x385F, r1	; 0x80385f <simonTimer>
        }
        if (simonCounter > 5) {
    1cae:	e0 91 5d 38 	lds	r30, 0x385D	; 0x80385d <simonCounter>
    1cb2:	e6 30       	cpi	r30, 0x06	; 6
    1cb4:	a8 f0       	brcs	.+42     	; 0x1ce0 <BastetDictates+0xd2>
            simonGameState = BASTET_GAME_SHOW_PATTERN;
    1cb6:	83 e0       	ldi	r24, 0x03	; 3
    1cb8:	80 93 5c 38 	sts	0x385C, r24	; 0x80385c <simonGameState>
            simonTimer = 0;
    1cbc:	10 92 5f 38 	sts	0x385F, r1	; 0x80385f <simonTimer>
            simonCounter = 0;
    1cc0:	10 92 5d 38 	sts	0x385D, r1	; 0x80385d <simonCounter>
    1cc4:	aa e7       	ldi	r26, 0x7A	; 122
    1cc6:	be eb       	ldi	r27, 0xBE	; 190
    1cc8:	80 e8       	ldi	r24, 0x80	; 128
    1cca:	9e eb       	ldi	r25, 0xBE	; 190
            for (uint8_t n=0; n<6; n++){
                iLED[HCKR[G][n]] = 1;
    1ccc:	21 e0       	ldi	r18, 0x01	; 1
    1cce:	ed 91       	ld	r30, X+
    1cd0:	f0 e0       	ldi	r31, 0x00	; 0
    1cd2:	e6 53       	subi	r30, 0x36	; 54
    1cd4:	f5 4c       	sbci	r31, 0xC5	; 197
    1cd6:	20 83       	st	Z, r18
        }
        if (simonCounter > 5) {
            simonGameState = BASTET_GAME_SHOW_PATTERN;
            simonTimer = 0;
            simonCounter = 0;
            for (uint8_t n=0; n<6; n++){
    1cd8:	8a 17       	cp	r24, r26
    1cda:	9b 07       	cpc	r25, r27
    1cdc:	c1 f7       	brne	.-16     	; 0x1cce <BastetDictates+0xc0>
    1cde:	10 c1       	rjmp	.+544    	; 0x1f00 <BastetDictates+0x2f2>
                iLED[HCKR[G][n]] = 1;
            }
            return 0;
        }
        iLED[HCKR[R][simonCounter]] = dimValue;
    1ce0:	f0 e0       	ldi	r31, 0x00	; 0
    1ce2:	ec 58       	subi	r30, 0x8C	; 140
    1ce4:	f1 44       	sbci	r31, 0x41	; 65
    1ce6:	e0 81       	ld	r30, Z
    1ce8:	f0 e0       	ldi	r31, 0x00	; 0
    1cea:	80 91 0a 38 	lds	r24, 0x380A	; 0x80380a <dimValue>
    1cee:	e6 53       	subi	r30, 0x36	; 54
    1cf0:	f5 4c       	sbci	r31, 0xC5	; 197
    1cf2:	80 83       	st	Z, r24
    1cf4:	23 c0       	rjmp	.+70     	; 0x1d3c <BastetDictates+0x12e>
    }

    if (BASTET_GAME_SHOW_PATTERN == simonGameState) {
    1cf6:	83 30       	cpi	r24, 0x03	; 3
    1cf8:	09 f5       	brne	.+66     	; 0x1d3c <BastetDictates+0x12e>

        if (simonTimer > 7) {   // .5 second
    1cfa:	80 91 5f 38 	lds	r24, 0x385F	; 0x80385f <simonTimer>
    1cfe:	88 30       	cpi	r24, 0x08	; 8
    1d00:	38 f0       	brcs	.+14     	; 0x1d10 <BastetDictates+0x102>
            simonCounter++;
    1d02:	80 91 5d 38 	lds	r24, 0x385D	; 0x80385d <simonCounter>
    1d06:	8f 5f       	subi	r24, 0xFF	; 255
    1d08:	80 93 5d 38 	sts	0x385D, r24	; 0x80385d <simonCounter>
            simonTimer = 0;
    1d0c:	10 92 5f 38 	sts	0x385F, r1	; 0x80385f <simonTimer>
        }
        if (simonCounter > simonPos) {
    1d10:	e0 91 5d 38 	lds	r30, 0x385D	; 0x80385d <simonCounter>
    1d14:	80 91 61 38 	lds	r24, 0x3861	; 0x803861 <simonPos>
    1d18:	8e 17       	cp	r24, r30
    1d1a:	50 f4       	brcc	.+20     	; 0x1d30 <BastetDictates+0x122>
            simonInputPos = 0;
    1d1c:	10 92 60 38 	sts	0x3860, r1	; 0x803860 <simonInputPos>
            simonGameState = BASTET_GAME_INPUT;
    1d20:	85 e0       	ldi	r24, 0x05	; 5
    1d22:	80 93 5c 38 	sts	0x385C, r24	; 0x80385c <simonGameState>
            simonLed(0);
    1d26:	80 e0       	ldi	r24, 0x00	; 0
    1d28:	f4 de       	rcall	.-536    	; 0x1b12 <simonLed>
            simonTimer = 0;
    1d2a:	10 92 5f 38 	sts	0x385F, r1	; 0x80385f <simonTimer>
            return 0;
    1d2e:	e8 c0       	rjmp	.+464    	; 0x1f00 <BastetDictates+0x2f2>
        }
        simonLed(simonState[simonCounter]+1);
    1d30:	f0 e0       	ldi	r31, 0x00	; 0
    1d32:	ee 59       	subi	r30, 0x9E	; 158
    1d34:	f7 4c       	sbci	r31, 0xC7	; 199
    1d36:	80 81       	ld	r24, Z
    1d38:	8f 5f       	subi	r24, 0xFF	; 255
    1d3a:	eb de       	rcall	.-554    	; 0x1b12 <simonLed>
    }

    if (BASTET_GAME_INPUT == simonGameState) {
    1d3c:	c0 91 5c 38 	lds	r28, 0x385C	; 0x80385c <simonGameState>
    1d40:	c5 30       	cpi	r28, 0x05	; 5
    1d42:	09 f0       	breq	.+2      	; 0x1d46 <BastetDictates+0x138>
    1d44:	7e c0       	rjmp	.+252    	; 0x1e42 <BastetDictates+0x234>
        //Button pressed
        if (lastButtonState != buttonState && (buttonState+1) > 0) {
    1d46:	80 91 08 38 	lds	r24, 0x3808	; 0x803808 <buttonState>
    1d4a:	90 91 07 38 	lds	r25, 0x3807	; 0x803807 <lastButtonState>
    1d4e:	98 17       	cp	r25, r24
    1d50:	09 f4       	brne	.+2      	; 0x1d54 <BastetDictates+0x146>
    1d52:	75 c0       	rjmp	.+234    	; 0x1e3e <BastetDictates+0x230>
            if (simonWait == 0) {
    1d54:	90 91 5e 38 	lds	r25, 0x385E	; 0x80385e <simonWait>
    1d58:	91 11       	cpse	r25, r1
    1d5a:	87 c0       	rjmp	.+270    	; 0x1e6a <BastetDictates+0x25c>
                simonWait = 1;
    1d5c:	91 e0       	ldi	r25, 0x01	; 1
    1d5e:	90 93 5e 38 	sts	0x385E, r25	; 0x80385e <simonWait>
                simonTimer = 0;
    1d62:	10 92 5f 38 	sts	0x385F, r1	; 0x80385f <simonTimer>
                simonLed(buttonState+1);
    1d66:	8f 5f       	subi	r24, 0xFF	; 255
    1d68:	d4 de       	rcall	.-600    	; 0x1b12 <simonLed>
                simonGameState = BASTET_GAME_WAIT_LEDS;
    1d6a:	84 e0       	ldi	r24, 0x04	; 4
    1d6c:	80 93 5c 38 	sts	0x385C, r24	; 0x80385c <simonGameState>
                simonNextGameState = BASTET_GAME_INPUT;
    1d70:	c0 93 2b 38 	sts	0x382B, r28	; 0x80382b <simonNextGameState>

                if (simonState[simonInputPos] == buttonState) {
    1d74:	80 91 60 38 	lds	r24, 0x3860	; 0x803860 <simonInputPos>
    1d78:	e8 2f       	mov	r30, r24
    1d7a:	f0 e0       	ldi	r31, 0x00	; 0
    1d7c:	ee 59       	subi	r30, 0x9E	; 158
    1d7e:	f7 4c       	sbci	r31, 0xC7	; 199
    1d80:	20 81       	ld	r18, Z
    1d82:	90 91 08 38 	lds	r25, 0x3808	; 0x803808 <buttonState>
    1d86:	29 13       	cpse	r18, r25
    1d88:	23 c0       	rjmp	.+70     	; 0x1dd0 <BastetDictates+0x1c2>
                    simonInputPos++;
    1d8a:	8f 5f       	subi	r24, 0xFF	; 255
    1d8c:	80 93 60 38 	sts	0x3860, r24	; 0x803860 <simonInputPos>
                    if (simonInputPos > simonPos) {
    1d90:	e0 91 61 38 	lds	r30, 0x3861	; 0x803861 <simonPos>
    1d94:	e8 17       	cp	r30, r24
    1d96:	d8 f5       	brcc	.+118    	; 0x1e0e <BastetDictates+0x200>
                        effect = 0x42;
    1d98:	82 e4       	ldi	r24, 0x42	; 66
    1d9a:	90 e0       	ldi	r25, 0x00	; 0
    1d9c:	80 93 3a 38 	sts	0x383A, r24	; 0x80383a <effect>
    1da0:	90 93 3b 38 	sts	0x383B, r25	; 0x80383b <effect+0x1>
                        simonPos++;
    1da4:	ef 5f       	subi	r30, 0xFF	; 255
    1da6:	e0 93 61 38 	sts	0x3861, r30	; 0x803861 <simonPos>
                        simonTimer = 0;
    1daa:	10 92 5f 38 	sts	0x385F, r1	; 0x80385f <simonTimer>
                        simonCounter = 0;
    1dae:	10 92 5d 38 	sts	0x385D, r1	; 0x80385d <simonCounter>
                        if (simonPos > 1) { // BASTET_LENGTH = 12
    1db2:	e1 30       	cpi	r30, 0x01	; 1
    1db4:	59 f0       	breq	.+22     	; 0x1dcc <BastetDictates+0x1be>
                            iLED[HCKR[G][(simonPos / 2) - 1]] = dimValue;
    1db6:	e6 95       	lsr	r30
    1db8:	f0 e0       	ldi	r31, 0x00	; 0
    1dba:	ec 58       	subi	r30, 0x8C	; 140
    1dbc:	f1 44       	sbci	r31, 0x41	; 65
    1dbe:	e5 81       	ldd	r30, Z+5	; 0x05
    1dc0:	f0 e0       	ldi	r31, 0x00	; 0
    1dc2:	80 91 0a 38 	lds	r24, 0x380A	; 0x80380a <dimValue>
    1dc6:	e6 53       	subi	r30, 0x36	; 54
    1dc8:	f5 4c       	sbci	r31, 0xC5	; 197
    1dca:	80 83       	st	Z, r24
                        }
                        simonNextGameState = BASTET_GAME_SHOW_PATTERN;
    1dcc:	83 e0       	ldi	r24, 0x03	; 3
    1dce:	1d c0       	rjmp	.+58     	; 0x1e0a <BastetDictates+0x1fc>
                    }
                } else {
                    effect = 0x0105;    // TODO fail sound
    1dd0:	85 e0       	ldi	r24, 0x05	; 5
    1dd2:	91 e0       	ldi	r25, 0x01	; 1
    1dd4:	80 93 3a 38 	sts	0x383A, r24	; 0x80383a <effect>
    1dd8:	90 93 3b 38 	sts	0x383B, r25	; 0x80383b <effect+0x1>
    1ddc:	a4 e7       	ldi	r26, 0x74	; 116
    1dde:	be eb       	ldi	r27, 0xBE	; 190
    1de0:	8a e7       	ldi	r24, 0x7A	; 122
    1de2:	9e eb       	ldi	r25, 0xBE	; 190
                    for (uint8_t n=0; n<6; n++){
                        iLED[HCKR[R][n]] = dimValue;
    1de4:	ed 91       	ld	r30, X+
    1de6:	f0 e0       	ldi	r31, 0x00	; 0
    1de8:	20 91 0a 38 	lds	r18, 0x380A	; 0x80380a <dimValue>
    1dec:	e6 53       	subi	r30, 0x36	; 54
    1dee:	f5 4c       	sbci	r31, 0xC5	; 197
    1df0:	20 83       	st	Z, r18
                        }
                        simonNextGameState = BASTET_GAME_SHOW_PATTERN;
                    }
                } else {
                    effect = 0x0105;    // TODO fail sound
                    for (uint8_t n=0; n<6; n++){
    1df2:	8a 17       	cp	r24, r26
    1df4:	9b 07       	cpc	r25, r27
    1df6:	b1 f7       	brne	.-20     	; 0x1de4 <BastetDictates+0x1d6>
                        iLED[HCKR[R][n]] = dimValue;
                    }
                    simonInputPos = 0;
    1df8:	10 92 60 38 	sts	0x3860, r1	; 0x803860 <simonInputPos>
                    simonPos = 0;
    1dfc:	10 92 61 38 	sts	0x3861, r1	; 0x803861 <simonPos>
                    simonTimer = 0;
    1e00:	10 92 5f 38 	sts	0x385F, r1	; 0x80385f <simonTimer>
                    simonCounter = 0;
    1e04:	10 92 5d 38 	sts	0x385D, r1	; 0x80385d <simonCounter>
                    simonNextGameState = BASTET_GAME_OUTRO;
    1e08:	86 e0       	ldi	r24, 0x06	; 6
    1e0a:	80 93 2b 38 	sts	0x382B, r24	; 0x80382b <simonNextGameState>
                }

                if (simonInputPos >= BASTET_LENGTH || simonPos >= BASTET_LENGTH) { // beetje dubbel
    1e0e:	80 91 60 38 	lds	r24, 0x3860	; 0x803860 <simonInputPos>
    1e12:	8c 30       	cpi	r24, 0x0C	; 12
    1e14:	20 f4       	brcc	.+8      	; 0x1e1e <BastetDictates+0x210>
    1e16:	80 91 61 38 	lds	r24, 0x3861	; 0x803861 <simonPos>
    1e1a:	8c 30       	cpi	r24, 0x0C	; 12
    1e1c:	90 f0       	brcs	.+36     	; 0x1e42 <BastetDictates+0x234>
                    // TODO win animu ?!
                    effect = 0x0106;    // TODO win sound ?!
    1e1e:	86 e0       	ldi	r24, 0x06	; 6
    1e20:	91 e0       	ldi	r25, 0x01	; 1
    1e22:	80 93 3a 38 	sts	0x383A, r24	; 0x80383a <effect>
    1e26:	90 93 3b 38 	sts	0x383B, r25	; 0x80383b <effect+0x1>
                    UpdateState(BASTET_COMPLETED);
    1e2a:	8a e7       	ldi	r24, 0x7A	; 122
    1e2c:	3a db       	rcall	.-2444   	; 0x14a2 <UpdateState>
                    simonTimer = 0;
    1e2e:	10 92 5f 38 	sts	0x385F, r1	; 0x80385f <simonTimer>
                    simonCounter = 0;
    1e32:	10 92 5d 38 	sts	0x385D, r1	; 0x80385d <simonCounter>
                    simonNextGameState = BASTET_GAME_OVER;
    1e36:	87 e0       	ldi	r24, 0x07	; 7
    1e38:	80 93 2b 38 	sts	0x382B, r24	; 0x80382b <simonNextGameState>
    1e3c:	02 c0       	rjmp	.+4      	; 0x1e42 <BastetDictates+0x234>
                }
            }
        
        //Button released, next or reset!
        } else {
            simonWait = 0;
    1e3e:	10 92 5e 38 	sts	0x385E, r1	; 0x80385e <simonWait>
        }
    }

    if (BASTET_GAME_WAIT_LEDS == simonGameState) {
    1e42:	80 91 5c 38 	lds	r24, 0x385C	; 0x80385c <simonGameState>
    1e46:	84 30       	cpi	r24, 0x04	; 4
        if (simonTimer >= 7) {
    1e48:	81 f4       	brne	.+32     	; 0x1e6a <BastetDictates+0x25c>
    1e4a:	80 91 5f 38 	lds	r24, 0x385F	; 0x80385f <simonTimer>
    1e4e:	87 30       	cpi	r24, 0x07	; 7
            // on to next state after .5 second
            simonLed(0);  // LEDs off
    1e50:	60 f0       	brcs	.+24     	; 0x1e6a <BastetDictates+0x25c>
    1e52:	80 e0       	ldi	r24, 0x00	; 0
    1e54:	5e de       	rcall	.-836    	; 0x1b12 <simonLed>
            simonWait = 0;
    1e56:	10 92 5e 38 	sts	0x385E, r1	; 0x80385e <simonWait>
            simonTimer = 0;
    1e5a:	10 92 5f 38 	sts	0x385F, r1	; 0x80385f <simonTimer>
            simonCounter = 0;
    1e5e:	10 92 5d 38 	sts	0x385D, r1	; 0x80385d <simonCounter>
            simonGameState = simonNextGameState;
    1e62:	80 91 2b 38 	lds	r24, 0x382B	; 0x80382b <simonNextGameState>
    1e66:	80 93 5c 38 	sts	0x385C, r24	; 0x80385c <simonGameState>
        }
    }

    if (BASTET_GAME_OUTRO == simonGameState) {
    1e6a:	80 91 5c 38 	lds	r24, 0x385C	; 0x80385c <simonGameState>
    1e6e:	86 30       	cpi	r24, 0x06	; 6
    1e70:	21 f5       	brne	.+72     	; 0x1eba <BastetDictates+0x2ac>
        if (simonTimer > 5) {   // .33 second
    1e72:	80 91 5f 38 	lds	r24, 0x385F	; 0x80385f <simonTimer>
    1e76:	86 30       	cpi	r24, 0x06	; 6
    1e78:	38 f0       	brcs	.+14     	; 0x1e88 <BastetDictates+0x27a>
            simonCounter++;
    1e7a:	80 91 5d 38 	lds	r24, 0x385D	; 0x80385d <simonCounter>
    1e7e:	8f 5f       	subi	r24, 0xFF	; 255
    1e80:	80 93 5d 38 	sts	0x385D, r24	; 0x80385d <simonCounter>
            simonTimer = 0;
    1e84:	10 92 5f 38 	sts	0x385F, r1	; 0x80385f <simonTimer>
        }
        if (simonCounter > 6) {
    1e88:	80 91 5d 38 	lds	r24, 0x385D	; 0x80385d <simonCounter>
    1e8c:	87 30       	cpi	r24, 0x07	; 7
    1e8e:	40 f0       	brcs	.+16     	; 0x1ea0 <BastetDictates+0x292>
            simonTimer = 0;
    1e90:	10 92 5f 38 	sts	0x385F, r1	; 0x80385f <simonTimer>
            simonCounter = 0;
    1e94:	10 92 5d 38 	sts	0x385D, r1	; 0x80385d <simonCounter>
            simonGameState = BASTET_GAME_OVER;
    1e98:	87 e0       	ldi	r24, 0x07	; 7
    1e9a:	80 93 5c 38 	sts	0x385C, r24	; 0x80385c <simonGameState>
            return 0;
    1e9e:	30 c0       	rjmp	.+96     	; 0x1f00 <BastetDictates+0x2f2>
        }
        iLED[HCKR[R][5-simonCounter]] = 1;
    1ea0:	e5 e0       	ldi	r30, 0x05	; 5
    1ea2:	f0 e0       	ldi	r31, 0x00	; 0
    1ea4:	e8 1b       	sub	r30, r24
    1ea6:	f1 09       	sbc	r31, r1
    1ea8:	ec 58       	subi	r30, 0x8C	; 140
    1eaa:	f1 44       	sbci	r31, 0x41	; 65
    1eac:	e0 81       	ld	r30, Z
    1eae:	f0 e0       	ldi	r31, 0x00	; 0
    1eb0:	e6 53       	subi	r30, 0x36	; 54
    1eb2:	f5 4c       	sbci	r31, 0xC5	; 197
    1eb4:	81 e0       	ldi	r24, 0x01	; 1
    1eb6:	80 83       	st	Z, r24
    1eb8:	1e c0       	rjmp	.+60     	; 0x1ef6 <BastetDictates+0x2e8>
    }

    if (BASTET_GAME_OVER == simonGameState) {
    1eba:	87 30       	cpi	r24, 0x07	; 7
    1ebc:	e1 f4       	brne	.+56     	; 0x1ef6 <BastetDictates+0x2e8>
        simonInputPos = 0;
    1ebe:	10 92 60 38 	sts	0x3860, r1	; 0x803860 <simonInputPos>
        simonPos = 0;
    1ec2:	10 92 61 38 	sts	0x3861, r1	; 0x803861 <simonPos>
        simonGameState = BASTET_GAME_START; // BASTET_BOOT for fresh "field" ??
    1ec6:	81 e0       	ldi	r24, 0x01	; 1
    1ec8:	80 93 5c 38 	sts	0x385C, r24	; 0x80385c <simonGameState>
        gameNow = TEXT;
    1ecc:	10 92 3c 38 	sts	0x383C, r1	; 0x80383c <gameNow>
    1ed0:	e6 e6       	ldi	r30, 0x66	; 102
    1ed2:	fe eb       	ldi	r31, 0xBE	; 190
    1ed4:	2b e6       	ldi	r18, 0x6B	; 107
    1ed6:	3e eb       	ldi	r19, 0xBE	; 190
    1ed8:	ef 01       	movw	r28, r30
        for (uint8_t n=0; n<5; n++){
            iLED[WING[L][n]] = 1;
    1eda:	a5 81       	ldd	r26, Z+5	; 0x05
    1edc:	b0 e0       	ldi	r27, 0x00	; 0
    1ede:	a6 53       	subi	r26, 0x36	; 54
    1ee0:	b5 4c       	sbci	r27, 0xC5	; 197
    1ee2:	8c 93       	st	X, r24
    1ee4:	31 96       	adiw	r30, 0x01	; 1
            iLED[WING[R][n]] = 1;
    1ee6:	a8 81       	ld	r26, Y
    1ee8:	b0 e0       	ldi	r27, 0x00	; 0
    1eea:	a6 53       	subi	r26, 0x36	; 54
    1eec:	b5 4c       	sbci	r27, 0xC5	; 197
    1eee:	8c 93       	st	X, r24
    if (BASTET_GAME_OVER == simonGameState) {
        simonInputPos = 0;
        simonPos = 0;
        simonGameState = BASTET_GAME_START; // BASTET_BOOT for fresh "field" ??
        gameNow = TEXT;
        for (uint8_t n=0; n<5; n++){
    1ef0:	2e 17       	cp	r18, r30
    1ef2:	3f 07       	cpc	r19, r31
    1ef4:	89 f7       	brne	.-30     	; 0x1ed8 <BastetDictates+0x2ca>
            iLED[WING[L][n]] = 1;
            iLED[WING[R][n]] = 1;
        }
    }

    ++simonTimer;
    1ef6:	80 91 5f 38 	lds	r24, 0x385F	; 0x80385f <simonTimer>
    1efa:	8f 5f       	subi	r24, 0xFF	; 255
    1efc:	80 93 5f 38 	sts	0x385F, r24	; 0x80385f <simonTimer>
    return 0;
}
    1f00:	80 e0       	ldi	r24, 0x00	; 0
    1f02:	df 91       	pop	r29
    1f04:	cf 91       	pop	r28
    1f06:	08 95       	ret

00001f08 <Cheat>:

//
void SetResponse(uint8_t number, uint16_t address, uint16_t length, uint8_t type){
    reactStr[0][number]=address;
    reactStr[1][number]=length;
    reactStr[2][number]=type;
    1f08:	1f 93       	push	r17
    1f0a:	cf 93       	push	r28
    1f0c:	df 93       	push	r29
    1f0e:	cd b7       	in	r28, 0x3d	; 61
    1f10:	de b7       	in	r29, 0x3e	; 62
    1f12:	62 97       	sbiw	r28, 0x12	; 18
    1f14:	cd bf       	out	0x3d, r28	; 61
    1f16:	de bf       	out	0x3e, r29	; 62
    1f18:	8a 8b       	std	Y+18, r24	; 0x12
    1f1a:	80 e1       	ldi	r24, 0x10	; 16
    1f1c:	ea e3       	ldi	r30, 0x3A	; 58
    1f1e:	fe eb       	ldi	r31, 0xBE	; 190
    1f20:	de 01       	movw	r26, r28
    1f22:	11 96       	adiw	r26, 0x01	; 1
    1f24:	01 90       	ld	r0, Z+
    1f26:	0d 92       	st	X+, r0
    1f28:	8a 95       	dec	r24
    1f2a:	e1 f7       	brne	.-8      	; 0x1f24 <Cheat+0x1c>
    1f2c:	fe 01       	movw	r30, r28
    1f2e:	31 96       	adiw	r30, 0x01	; 1
    1f30:	90 e0       	ldi	r25, 0x00	; 0
    1f32:	8f ef       	ldi	r24, 0xFF	; 255
    1f34:	21 91       	ld	r18, Z+
    1f36:	31 91       	ld	r19, Z+
    1f38:	26 17       	cp	r18, r22
    1f3a:	37 07       	cpc	r19, r23
    1f3c:	09 f4       	brne	.+2      	; 0x1f40 <Cheat+0x38>
    1f3e:	89 2f       	mov	r24, r25
    1f40:	9f 5f       	subi	r25, 0xFF	; 255
    1f42:	98 30       	cpi	r25, 0x08	; 8
    1f44:	b9 f7       	brne	.-18     	; 0x1f34 <Cheat+0x2c>
    1f46:	88 30       	cpi	r24, 0x08	; 8
    1f48:	10 f0       	brcs	.+4      	; 0x1f4e <Cheat+0x46>
    1f4a:	80 e0       	ldi	r24, 0x00	; 0
    1f4c:	12 c0       	rjmp	.+36     	; 0x1f72 <Cheat+0x6a>
    1f4e:	18 e1       	ldi	r17, 0x18	; 24
    1f50:	18 0f       	add	r17, r24
    1f52:	41 e0       	ldi	r20, 0x01	; 1
    1f54:	be 01       	movw	r22, r28
    1f56:	6f 5e       	subi	r22, 0xEF	; 239
    1f58:	7f 4f       	sbci	r23, 0xFF	; 255
    1f5a:	81 2f       	mov	r24, r17
    1f5c:	d8 d8       	rcall	.-3664   	; 0x110e <EERead>
    1f5e:	89 89       	ldd	r24, Y+17	; 0x11
    1f60:	8f 3f       	cpi	r24, 0xFF	; 255
    1f62:	99 f7       	brne	.-26     	; 0x1f4a <Cheat+0x42>
    1f64:	41 e0       	ldi	r20, 0x01	; 1
    1f66:	be 01       	movw	r22, r28
    1f68:	6e 5e       	subi	r22, 0xEE	; 238
    1f6a:	7f 4f       	sbci	r23, 0xFF	; 255
    1f6c:	81 2f       	mov	r24, r17
    1f6e:	df d8       	rcall	.-3650   	; 0x112e <EEWrite>
    1f70:	81 e0       	ldi	r24, 0x01	; 1
    1f72:	62 96       	adiw	r28, 0x12	; 18
    1f74:	cd bf       	out	0x3d, r28	; 61
    1f76:	de bf       	out	0x3e, r29	; 62
    1f78:	df 91       	pop	r29
    1f7a:	cf 91       	pop	r28
    1f7c:	1f 91       	pop	r17
    1f7e:	08 95       	ret

00001f80 <DecryptData>:
    1f80:	f9 01       	movw	r30, r18
    1f82:	9c 01       	movw	r18, r24
    1f84:	2e 1b       	sub	r18, r30
    1f86:	3f 0b       	sbc	r19, r31
    1f88:	88 e0       	ldi	r24, 0x08	; 8
    1f8a:	48 9f       	mul	r20, r24
    1f8c:	a0 01       	movw	r20, r0
    1f8e:	11 24       	eor	r1, r1
    1f90:	4c 5d       	subi	r20, 0xDC	; 220
    1f92:	50 44       	sbci	r21, 0x40	; 64
    1f94:	66 23       	and	r22, r22
    1f96:	69 f0       	breq	.+26     	; 0x1fb2 <DecryptData+0x32>
    1f98:	df 01       	movw	r26, r30
    1f9a:	a2 0f       	add	r26, r18
    1f9c:	b3 1f       	adc	r27, r19
    1f9e:	a7 70       	andi	r26, 0x07	; 7
    1fa0:	bb 27       	eor	r27, r27
    1fa2:	a4 0f       	add	r26, r20
    1fa4:	b5 1f       	adc	r27, r21
    1fa6:	80 81       	ld	r24, Z
    1fa8:	9c 91       	ld	r25, X
    1faa:	98 27       	eor	r25, r24
    1fac:	91 93       	st	Z+, r25
    1fae:	61 50       	subi	r22, 0x01	; 1
    1fb0:	f1 cf       	rjmp	.-30     	; 0x1f94 <DecryptData+0x14>
    1fb2:	08 95       	ret

00001fb4 <UnflipData>:
    1fb4:	26 2f       	mov	r18, r22
    1fb6:	fb 01       	movw	r30, r22
    1fb8:	35 e5       	ldi	r19, 0x55	; 85
    1fba:	9e 2f       	mov	r25, r30
    1fbc:	92 1b       	sub	r25, r18
    1fbe:	98 17       	cp	r25, r24
    1fc0:	28 f4       	brcc	.+10     	; 0x1fcc <UnflipData+0x18>
    1fc2:	90 81       	ld	r25, Z
    1fc4:	92 95       	swap	r25
    1fc6:	93 27       	eor	r25, r19
    1fc8:	91 93       	st	Z+, r25
    1fca:	f7 cf       	rjmp	.-18     	; 0x1fba <UnflipData+0x6>
    1fcc:	08 95       	ret

00001fce <ExtEERead>:
    1fce:	af 92       	push	r10
    1fd0:	bf 92       	push	r11
    1fd2:	cf 92       	push	r12
    1fd4:	df 92       	push	r13
    1fd6:	ef 92       	push	r14
    1fd8:	ff 92       	push	r15
    1fda:	0f 93       	push	r16
    1fdc:	1f 93       	push	r17
    1fde:	cf 93       	push	r28
    1fe0:	df 93       	push	r29
    1fe2:	00 d0       	rcall	.+0      	; 0x1fe4 <ExtEERead+0x16>
    1fe4:	cd b7       	in	r28, 0x3d	; 61
    1fe6:	de b7       	in	r29, 0x3e	; 62
    1fe8:	d6 2e       	mov	r13, r22
    1fea:	c4 2e       	mov	r12, r20
    1fec:	59 01       	movw	r10, r18
    1fee:	7c 01       	movw	r14, r24
    1ff0:	e8 94       	clt
    1ff2:	f7 f8       	bld	r15, 7
    1ff4:	f9 82       	std	Y+1, r15	; 0x01
    1ff6:	ea 82       	std	Y+2, r14	; 0x02
    1ff8:	06 2f       	mov	r16, r22
    1ffa:	42 e0       	ldi	r20, 0x02	; 2
    1ffc:	be 01       	movw	r22, r28
    1ffe:	6f 5f       	subi	r22, 0xFF	; 255
    2000:	7f 4f       	sbci	r23, 0xFF	; 255
    2002:	80 e5       	ldi	r24, 0x50	; 80
    2004:	0e 94 b8 02 	call	0x570	; 0x570 <I2C_read_bytes>
    2008:	18 2f       	mov	r17, r24
    200a:	81 11       	cpse	r24, r1
    200c:	05 c0       	rjmp	.+10     	; 0x2018 <ExtEERead+0x4a>
    200e:	95 01       	movw	r18, r10
    2010:	4c 2d       	mov	r20, r12
    2012:	6d 2d       	mov	r22, r13
    2014:	c7 01       	movw	r24, r14
    2016:	b4 df       	rcall	.-152    	; 0x1f80 <DecryptData>
    2018:	81 2f       	mov	r24, r17
    201a:	0f 90       	pop	r0
    201c:	0f 90       	pop	r0
    201e:	df 91       	pop	r29
    2020:	cf 91       	pop	r28
    2022:	1f 91       	pop	r17
    2024:	0f 91       	pop	r16
    2026:	ff 90       	pop	r15
    2028:	ef 90       	pop	r14
    202a:	df 90       	pop	r13
    202c:	cf 90       	pop	r12
    202e:	bf 90       	pop	r11
    2030:	af 90       	pop	r10
    2032:	08 95       	ret

00002034 <ClearTxAfter>:
    2034:	8f 5f       	subi	r24, 0xFF	; 255
    2036:	88 30       	cpi	r24, 0x08	; 8
    2038:	30 f4       	brcc	.+12     	; 0x2046 <ClearTxAfter+0x12>
    203a:	e8 2f       	mov	r30, r24
    203c:	f0 e0       	ldi	r31, 0x00	; 0
    203e:	e8 5b       	subi	r30, 0xB8	; 184
    2040:	f5 4c       	sbci	r31, 0xC5	; 197
    2042:	10 82       	st	Z, r1
    2044:	f7 cf       	rjmp	.-18     	; 0x2034 <ClearTxAfter>
    2046:	08 95       	ret

00002048 <StartsWith>:
    2048:	ac 01       	movw	r20, r24
    204a:	90 e0       	ldi	r25, 0x00	; 0
    204c:	e9 2f       	mov	r30, r25
    204e:	f0 e0       	ldi	r31, 0x00	; 0
    2050:	da 01       	movw	r26, r20
    2052:	ae 0f       	add	r26, r30
    2054:	bf 1f       	adc	r27, r31
    2056:	3c 91       	ld	r19, X
    2058:	e6 0f       	add	r30, r22
    205a:	f7 1f       	adc	r31, r23
    205c:	31 11       	cpse	r19, r1
    205e:	05 c0       	rjmp	.+10     	; 0x206a <StartsWith+0x22>
    2060:	81 e0       	ldi	r24, 0x01	; 1
    2062:	90 81       	ld	r25, Z
    2064:	99 23       	and	r25, r25
    2066:	49 f0       	breq	.+18     	; 0x207a <StartsWith+0x32>
    2068:	07 c0       	rjmp	.+14     	; 0x2078 <StartsWith+0x30>
    206a:	20 81       	ld	r18, Z
    206c:	22 23       	and	r18, r18
    206e:	c1 f3       	breq	.-16     	; 0x2060 <StartsWith+0x18>
    2070:	32 13       	cpse	r19, r18
    2072:	02 c0       	rjmp	.+4      	; 0x2078 <StartsWith+0x30>
    2074:	9f 5f       	subi	r25, 0xFF	; 255
    2076:	ea cf       	rjmp	.-44     	; 0x204c <StartsWith+0x4>
    2078:	80 e0       	ldi	r24, 0x00	; 0
    207a:	08 95       	ret

0000207c <PrepareSending>:
    207c:	cf 93       	push	r28
    207e:	df 93       	push	r29
    2080:	fc 01       	movw	r30, r24
    2082:	61 15       	cp	r22, r1
    2084:	71 05       	cpc	r23, r1
    2086:	59 f1       	breq	.+86     	; 0x20de <PrepareSending+0x62>
    2088:	a0 e5       	ldi	r26, 0x50	; 80
    208a:	ba e3       	ldi	r27, 0x3A	; 58
    208c:	c8 e4       	ldi	r28, 0x48	; 72
    208e:	da e3       	ldi	r29, 0x3A	; 58
    2090:	80 e0       	ldi	r24, 0x00	; 0
    2092:	9f ef       	ldi	r25, 0xFF	; 255
    2094:	6f 3f       	cpi	r22, 0xFF	; 255
    2096:	71 05       	cpc	r23, r1
    2098:	69 f0       	breq	.+26     	; 0x20b4 <PrepareSending+0x38>
    209a:	60 f0       	brcs	.+24     	; 0x20b4 <PrepareSending+0x38>
    209c:	ed 93       	st	X+, r30
    209e:	fd 93       	st	X+, r31
    20a0:	99 93       	st	Y+, r25
    20a2:	e1 50       	subi	r30, 0x01	; 1
    20a4:	ff 4f       	sbci	r31, 0xFF	; 255
    20a6:	6f 5f       	subi	r22, 0xFF	; 255
    20a8:	71 09       	sbc	r23, r1
    20aa:	8f 5f       	subi	r24, 0xFF	; 255
    20ac:	87 30       	cpi	r24, 0x07	; 7
    20ae:	91 f7       	brne	.-28     	; 0x2094 <PrepareSending+0x18>
    20b0:	81 e0       	ldi	r24, 0x01	; 1
    20b2:	1e c0       	rjmp	.+60     	; 0x20f0 <PrepareSending+0x74>
    20b4:	28 2f       	mov	r18, r24
    20b6:	30 e0       	ldi	r19, 0x00	; 0
    20b8:	d9 01       	movw	r26, r18
    20ba:	aa 0f       	add	r26, r26
    20bc:	bb 1f       	adc	r27, r27
    20be:	a0 5b       	subi	r26, 0xB0	; 176
    20c0:	b5 4c       	sbci	r27, 0xC5	; 197
    20c2:	ed 93       	st	X+, r30
    20c4:	fc 93       	st	X, r31
    20c6:	6f 3f       	cpi	r22, 0xFF	; 255
    20c8:	71 05       	cpc	r23, r1
    20ca:	11 f4       	brne	.+4      	; 0x20d0 <PrepareSending+0x54>
    20cc:	6e ef       	ldi	r22, 0xFE	; 254
    20ce:	70 e0       	ldi	r23, 0x00	; 0
    20d0:	f9 01       	movw	r30, r18
    20d2:	e8 5b       	subi	r30, 0xB8	; 184
    20d4:	f5 4c       	sbci	r31, 0xC5	; 197
    20d6:	60 83       	st	Z, r22
    20d8:	40 93 46 3a 	sts	0x3A46, r20	; 0x803a46 <txTypeNow>
    20dc:	05 c0       	rjmp	.+10     	; 0x20e8 <PrepareSending+0x6c>
    20de:	10 92 50 3a 	sts	0x3A50, r1	; 0x803a50 <txAddrList>
    20e2:	10 92 51 3a 	sts	0x3A51, r1	; 0x803a51 <txAddrList+0x1>
    20e6:	80 e0       	ldi	r24, 0x00	; 0
    20e8:	a5 df       	rcall	.-182    	; 0x2034 <ClearTxAfter>
    20ea:	10 92 47 3a 	sts	0x3A47, r1	; 0x803a47 <txAddrNow>
    20ee:	80 e0       	ldi	r24, 0x00	; 0
    20f0:	df 91       	pop	r29
    20f2:	cf 91       	pop	r28
    20f4:	08 95       	ret

000020f6 <SetStandardResponse>:
}

//
uint8_t SetStandardResponse(uint8_t custStrEnd){
    20f6:	cf 93       	push	r28
    20f8:	df 93       	push	r29
    return 0;
}

//
void SetResponse(uint8_t number, uint16_t address, uint16_t length, uint8_t type){
    reactStr[0][number]=address;
    20fa:	28 2f       	mov	r18, r24
    20fc:	30 e0       	ldi	r19, 0x00	; 0
    20fe:	f9 01       	movw	r30, r18
    2100:	ee 0f       	add	r30, r30
    2102:	ff 1f       	adc	r31, r31
    2104:	e5 5e       	subi	r30, 0xE5	; 229
    2106:	f6 4c       	sbci	r31, 0xC6	; 198
    2108:	ab e5       	ldi	r26, 0x5B	; 91
    210a:	ba e7       	ldi	r27, 0x7A	; 122
    210c:	a0 83       	st	Z, r26
    210e:	b1 83       	std	Z+1, r27	; 0x01
    reactStr[1][number]=length;
    2110:	f9 01       	movw	r30, r18
    2112:	ee 0f       	add	r30, r30
    2114:	ff 1f       	adc	r31, r31
    2116:	e5 5a       	subi	r30, 0xA5	; 165
    2118:	f6 4c       	sbci	r31, 0xC6	; 198
    211a:	62 e0       	ldi	r22, 0x02	; 2
    211c:	70 e0       	ldi	r23, 0x00	; 0
    211e:	60 83       	st	Z, r22
    2120:	71 83       	std	Z+1, r23	; 0x01
    reactStr[2][number]=type;
    2122:	22 0f       	add	r18, r18
    2124:	33 1f       	adc	r19, r19
    2126:	f9 01       	movw	r30, r18
    2128:	e5 56       	subi	r30, 0x65	; 101
    212a:	f6 4c       	sbci	r31, 0xC6	; 198
    212c:	41 e0       	ldi	r20, 0x01	; 1
    212e:	50 e0       	ldi	r21, 0x00	; 0
    2130:	40 83       	st	Z, r20
    2132:	51 83       	std	Z+1, r21	; 0x01
    return 0;
}

//
void SetResponse(uint8_t number, uint16_t address, uint16_t length, uint8_t type){
    reactStr[0][number]=address;
    2134:	21 e0       	ldi	r18, 0x01	; 1
    2136:	28 0f       	add	r18, r24
    2138:	30 e0       	ldi	r19, 0x00	; 0
    213a:	f9 01       	movw	r30, r18
    213c:	ee 0f       	add	r30, r30
    213e:	ff 1f       	adc	r31, r31
    2140:	e5 5e       	subi	r30, 0xE5	; 229
    2142:	f6 4c       	sbci	r31, 0xC6	; 198
    2144:	c4 e6       	ldi	r28, 0x64	; 100
    2146:	da e7       	ldi	r29, 0x7A	; 122
    2148:	c0 83       	st	Z, r28
    214a:	d1 83       	std	Z+1, r29	; 0x01
    reactStr[1][number]=length;
    214c:	f9 01       	movw	r30, r18
    214e:	ee 0f       	add	r30, r30
    2150:	ff 1f       	adc	r31, r31
    2152:	e5 5a       	subi	r30, 0xA5	; 165
    2154:	f6 4c       	sbci	r31, 0xC6	; 198
    2156:	ca e0       	ldi	r28, 0x0A	; 10
    2158:	d0 e0       	ldi	r29, 0x00	; 0
    215a:	c0 83       	st	Z, r28
    215c:	d1 83       	std	Z+1, r29	; 0x01
    reactStr[2][number]=type;
    215e:	22 0f       	add	r18, r18
    2160:	33 1f       	adc	r19, r19
    2162:	f9 01       	movw	r30, r18
    2164:	e5 56       	subi	r30, 0x65	; 101
    2166:	f6 4c       	sbci	r31, 0xC6	; 198
    2168:	40 83       	st	Z, r20
    216a:	51 83       	std	Z+1, r21	; 0x01
uint8_t SetStandardResponse(uint8_t custStrEnd){

    SetResponse(custStrEnd++, A_LF, 2, TEASER);
    SetResponse(custStrEnd++, A_LOCATION, L_LOCATION, TEASER);
    //SetResponse(custStrEnd++, A_SPACE, L_SPACE, TEASER);
    reactStr[0][custStrEnd++] = CURR_LOC;
    216c:	e2 e0       	ldi	r30, 0x02	; 2
    216e:	e8 0f       	add	r30, r24
    2170:	f0 e0       	ldi	r31, 0x00	; 0
    2172:	ee 0f       	add	r30, r30
    2174:	ff 1f       	adc	r31, r31
    2176:	e5 5e       	subi	r30, 0xE5	; 229
    2178:	f6 4c       	sbci	r31, 0xC6	; 198
    217a:	20 ef       	ldi	r18, 0xF0	; 240
    217c:	3f ef       	ldi	r19, 0xFF	; 255
    217e:	20 83       	st	Z, r18
    2180:	31 83       	std	Z+1, r19	; 0x01
    return 0;
}

//
void SetResponse(uint8_t number, uint16_t address, uint16_t length, uint8_t type){
    reactStr[0][number]=address;
    2182:	23 e0       	ldi	r18, 0x03	; 3
    2184:	28 0f       	add	r18, r24
    2186:	30 e0       	ldi	r19, 0x00	; 0
    2188:	f9 01       	movw	r30, r18
    218a:	ee 0f       	add	r30, r30
    218c:	ff 1f       	adc	r31, r31
    218e:	e5 5e       	subi	r30, 0xE5	; 229
    2190:	f6 4c       	sbci	r31, 0xC6	; 198
    2192:	a0 83       	st	Z, r26
    2194:	b1 83       	std	Z+1, r27	; 0x01
    reactStr[1][number]=length;
    2196:	f9 01       	movw	r30, r18
    2198:	ee 0f       	add	r30, r30
    219a:	ff 1f       	adc	r31, r31
    219c:	e5 5a       	subi	r30, 0xA5	; 165
    219e:	f6 4c       	sbci	r31, 0xC6	; 198
    21a0:	60 83       	st	Z, r22
    21a2:	71 83       	std	Z+1, r23	; 0x01
    reactStr[2][number]=type;
    21a4:	22 0f       	add	r18, r18
    21a6:	33 1f       	adc	r19, r19
    21a8:	f9 01       	movw	r30, r18
    21aa:	e5 56       	subi	r30, 0x65	; 101
    21ac:	f6 4c       	sbci	r31, 0xC6	; 198
    21ae:	40 83       	st	Z, r20
    21b0:	51 83       	std	Z+1, r21	; 0x01
    return 0;
}

//
void SetResponse(uint8_t number, uint16_t address, uint16_t length, uint8_t type){
    reactStr[0][number]=address;
    21b2:	24 e0       	ldi	r18, 0x04	; 4
    21b4:	28 0f       	add	r18, r24
    21b6:	30 e0       	ldi	r19, 0x00	; 0
    21b8:	f9 01       	movw	r30, r18
    21ba:	ee 0f       	add	r30, r30
    21bc:	ff 1f       	adc	r31, r31
    21be:	e5 5e       	subi	r30, 0xE5	; 229
    21c0:	f6 4c       	sbci	r31, 0xC6	; 198
    21c2:	a7 e5       	ldi	r26, 0x57	; 87
    21c4:	ba e7       	ldi	r27, 0x7A	; 122
    21c6:	a0 83       	st	Z, r26
    21c8:	b1 83       	std	Z+1, r27	; 0x01
    reactStr[1][number]=length;
    21ca:	f9 01       	movw	r30, r18
    21cc:	ee 0f       	add	r30, r30
    21ce:	ff 1f       	adc	r31, r31
    21d0:	e5 5a       	subi	r30, 0xA5	; 165
    21d2:	f6 4c       	sbci	r31, 0xC6	; 198
    21d4:	60 83       	st	Z, r22
    21d6:	71 83       	std	Z+1, r23	; 0x01
    reactStr[2][number]=type;
    21d8:	22 0f       	add	r18, r18
    21da:	33 1f       	adc	r19, r19
    21dc:	f9 01       	movw	r30, r18
    21de:	e5 56       	subi	r30, 0x65	; 101
    21e0:	f6 4c       	sbci	r31, 0xC6	; 198
    21e2:	40 83       	st	Z, r20
    21e4:	51 83       	std	Z+1, r21	; 0x01
    SetResponse(custStrEnd++, A_LF, 2, TEASER);
    SetResponse(custStrEnd++, A_PROMPT, L_PROMPT, TEASER);
    //SetResponse(custStrEnd++, A_SPACE, L_SPACE, TEASER);

    return custStrEnd;
}
    21e6:	8b 5f       	subi	r24, 0xFB	; 251
    21e8:	df 91       	pop	r29
    21ea:	cf 91       	pop	r28
    21ec:	08 95       	ret

000021ee <PopulateObject>:

//Get all the relevant data and string addresses of an object
void PopulateObject(uint16_t offset, object_model_t *object){
    21ee:	af 92       	push	r10
    21f0:	bf 92       	push	r11
    21f2:	df 92       	push	r13
    21f4:	ef 92       	push	r14
    21f6:	ff 92       	push	r15
    21f8:	0f 93       	push	r16
    21fa:	1f 93       	push	r17
    21fc:	cf 93       	push	r28
    21fe:	df 93       	push	r29
    2200:	cd b7       	in	r28, 0x3d	; 61
    2202:	de b7       	in	r29, 0x3e	; 62
    2204:	2c 97       	sbiw	r28, 0x0c	; 12
    2206:	cd bf       	out	0x3d, r28	; 61
    2208:	de bf       	out	0x3e, r29	; 62
    220a:	7c 01       	movw	r14, r24
    220c:	8b 01       	movw	r16, r22
    uint16_t parStr;
    offset += L_BOILER;

    //Fill things with fixed distance to offset
    uint8_t data[OFF_STRINGFLDS];
    ExtEERead(offset, OFF_STRINGFLDS, GAME, &data[0]);
    220e:	9e 01       	movw	r18, r28
    2210:	2f 5f       	subi	r18, 0xFF	; 255
    2212:	3f 4f       	sbci	r19, 0xFF	; 255
    2214:	40 e0       	ldi	r20, 0x00	; 0
    2216:	6c e0       	ldi	r22, 0x0C	; 12
    2218:	80 96       	adiw	r24, 0x20	; 32
    221a:	d9 de       	rcall	.-590    	; 0x1fce <ExtEERead>
    object->addrNextObj = (data[OFF_NEXTOBJ]<<8|data[OFF_NEXTOBJ+1])+L_BOILER;
    221c:	89 81       	ldd	r24, Y+1	; 0x01
    221e:	9a 81       	ldd	r25, Y+2	; 0x02
    2220:	98 27       	eor	r25, r24
    2222:	89 27       	eor	r24, r25
    2224:	98 27       	eor	r25, r24
    2226:	80 96       	adiw	r24, 0x20	; 32
    2228:	f8 01       	movw	r30, r16
    222a:	80 83       	st	Z, r24
    222c:	91 83       	std	Z+1, r25	; 0x01
    object->addrNextLvl = (data[OFF_NEXTLVL]<<8|data[OFF_NEXTLVL+1])+L_BOILER;
    222e:	8b 81       	ldd	r24, Y+3	; 0x03
    2230:	9c 81       	ldd	r25, Y+4	; 0x04
    2232:	98 27       	eor	r25, r24
    2234:	89 27       	eor	r24, r25
    2236:	98 27       	eor	r25, r24
    2238:	80 96       	adiw	r24, 0x20	; 32
    223a:	82 83       	std	Z+2, r24	; 0x02
    223c:	93 83       	std	Z+3, r25	; 0x03
    223e:	de 01       	movw	r26, r28
    2240:	15 96       	adiw	r26, 0x05	; 5
    2242:	34 96       	adiw	r30, 0x04	; 4
    2244:	c8 01       	movw	r24, r16
    2246:	0c 96       	adiw	r24, 0x0c	; 12
    for (uint8_t x=0; x<BYTE_FIELDS_LEN; ++x){
        object->byteField[x]=data[x+OFF_BYTEFLDS];
    2248:	2d 91       	ld	r18, X+
    224a:	21 93       	st	Z+, r18
    //Fill things with fixed distance to offset
    uint8_t data[OFF_STRINGFLDS];
    ExtEERead(offset, OFF_STRINGFLDS, GAME, &data[0]);
    object->addrNextObj = (data[OFF_NEXTOBJ]<<8|data[OFF_NEXTOBJ+1])+L_BOILER;
    object->addrNextLvl = (data[OFF_NEXTLVL]<<8|data[OFF_NEXTLVL+1])+L_BOILER;
    for (uint8_t x=0; x<BYTE_FIELDS_LEN; ++x){
    224c:	e8 17       	cp	r30, r24
    224e:	f9 07       	cpc	r31, r25
    2250:	d9 f7       	brne	.-10     	; 0x2248 <PopulateObject+0x5a>
        object->byteField[x]=data[x+OFF_BYTEFLDS];
    }

    //Find out where all of the strings begin and how long they are
    offset += OFF_STRINGFLDS;
    2252:	fc e2       	ldi	r31, 0x2C	; 44
    2254:	ef 0e       	add	r14, r31
    2256:	f1 1c       	adc	r15, r1
    2258:	58 01       	movw	r10, r16
    for(uint8_t x=0; x<STRING_FIELDS_LEN; ++x){
    225a:	d1 2c       	mov	r13, r1
        
        //Determine length
        ExtEERead(offset, 3, GAME, &data[0]);
    225c:	9e 01       	movw	r18, r28
    225e:	2f 5f       	subi	r18, 0xFF	; 255
    2260:	3f 4f       	sbci	r19, 0xFF	; 255
    2262:	40 e0       	ldi	r20, 0x00	; 0
    2264:	63 e0       	ldi	r22, 0x03	; 3
    2266:	c7 01       	movw	r24, r14
    2268:	b2 de       	rcall	.-668    	; 0x1fce <ExtEERead>
    226a:	89 81       	ldd	r24, Y+1	; 0x01
    226c:	9a 81       	ldd	r25, Y+2	; 0x02
    226e:	98 27       	eor	r25, r24
    2270:	89 27       	eor	r24, r25
    2272:	98 27       	eor	r25, r24
        parStr = (data[0]<<8|data[1]);
        offset += 2;
    2274:	97 01       	movw	r18, r14
    2276:	2e 5f       	subi	r18, 0xFE	; 254
    2278:	3f 4f       	sbci	r19, 0xFF	; 255
        if (x >= OPEN_ACL_MSG){
    227a:	43 e0       	ldi	r20, 0x03	; 3
    227c:	4d 15       	cp	r20, r13
    227e:	80 f4       	brcc	.+32     	; 0x22a0 <PopulateObject+0xb2>
            object->lenStr[x]= parStr-1;
    2280:	ac 01       	movw	r20, r24
    2282:	41 50       	subi	r20, 0x01	; 1
    2284:	51 09       	sbc	r21, r1
    2286:	f8 01       	movw	r30, r16
    2288:	42 8f       	std	Z+26, r20	; 0x1a
    228a:	53 8f       	std	Z+27, r21	; 0x1b
            object->addrStr[x]=offset+1;
    228c:	f3 e0       	ldi	r31, 0x03	; 3
    228e:	ef 0e       	add	r14, r31
    2290:	f1 1c       	adc	r15, r1
    2292:	f8 01       	movw	r30, r16
    2294:	e4 86       	std	Z+12, r14	; 0x0c
    2296:	f5 86       	std	Z+13, r15	; 0x0d
            object->effect[x-OPEN_ACL_MSG] = data[2];
    2298:	4b 81       	ldd	r20, Y+3	; 0x03
    229a:	f5 01       	movw	r30, r10
    229c:	44 a3       	std	Z+36, r20	; 0x24
    229e:	05 c0       	rjmp	.+10     	; 0x22aa <PopulateObject+0xbc>
        } else {
            object->lenStr[x]= parStr;
    22a0:	f8 01       	movw	r30, r16
    22a2:	82 8f       	std	Z+26, r24	; 0x1a
    22a4:	93 8f       	std	Z+27, r25	; 0x1b
            object->addrStr[x]=offset;
    22a6:	24 87       	std	Z+12, r18	; 0x0c
    22a8:	35 87       	std	Z+13, r19	; 0x0d
        }
        
        //Determine string start location for next field
        offset += parStr;
    22aa:	7c 01       	movw	r14, r24
    22ac:	e2 0e       	add	r14, r18
    22ae:	f3 1e       	adc	r15, r19
        object->byteField[x]=data[x+OFF_BYTEFLDS];
    }

    //Find out where all of the strings begin and how long they are
    offset += OFF_STRINGFLDS;
    for(uint8_t x=0; x<STRING_FIELDS_LEN; ++x){
    22b0:	d3 94       	inc	r13
    22b2:	0e 5f       	subi	r16, 0xFE	; 254
    22b4:	1f 4f       	sbci	r17, 0xFF	; 255
    22b6:	ff ef       	ldi	r31, 0xFF	; 255
    22b8:	af 1a       	sub	r10, r31
    22ba:	bf 0a       	sbc	r11, r31
    22bc:	47 e0       	ldi	r20, 0x07	; 7
    22be:	d4 12       	cpse	r13, r20
    22c0:	cd cf       	rjmp	.-102    	; 0x225c <PopulateObject+0x6e>
        }
        
        //Determine string start location for next field
        offset += parStr;
    }    
}
    22c2:	2c 96       	adiw	r28, 0x0c	; 12
    22c4:	cd bf       	out	0x3d, r28	; 61
    22c6:	de bf       	out	0x3e, r29	; 62
    22c8:	df 91       	pop	r29
    22ca:	cf 91       	pop	r28
    22cc:	1f 91       	pop	r17
    22ce:	0f 91       	pop	r16
    22d0:	ff 90       	pop	r15
    22d2:	ef 90       	pop	r14
    22d4:	df 90       	pop	r13
    22d6:	bf 90       	pop	r11
    22d8:	af 90       	pop	r10
    22da:	08 95       	ret

000022dc <CheckLetter>:

//Check if the entered letter corresponds with a name
uint8_t CheckLetter(uint16_t object, uint8_t letter){
    22dc:	cf 92       	push	r12
    22de:	df 92       	push	r13
    22e0:	ef 92       	push	r14
    22e2:	ff 92       	push	r15
    22e4:	0f 93       	push	r16
    22e6:	1f 93       	push	r17
    22e8:	cf 93       	push	r28
    22ea:	df 93       	push	r29
    22ec:	cd b7       	in	r28, 0x3d	; 61
    22ee:	de b7       	in	r29, 0x3e	; 62
    22f0:	a0 97       	sbiw	r28, 0x20	; 32
    22f2:	cd bf       	out	0x3d, r28	; 61
    22f4:	de bf       	out	0x3e, r29	; 62
    22f6:	c6 2e       	mov	r12, r22
    
    uint8_t found = 0;
    uint8_t data[32];

    object += L_BOILER;
    22f8:	7c 01       	movw	r14, r24
    22fa:	20 e2       	ldi	r18, 0x20	; 32
    22fc:	e2 0e       	add	r14, r18
    22fe:	f1 1c       	adc	r15, r1
    ExtEERead(object+OFF_STRINGFLDS, 2, GAME, &data[0]);
    2300:	9e 01       	movw	r18, r28
    2302:	2f 5f       	subi	r18, 0xFF	; 255
    2304:	3f 4f       	sbci	r19, 0xFF	; 255
    2306:	40 e0       	ldi	r20, 0x00	; 0
    2308:	62 e0       	ldi	r22, 0x02	; 2
    230a:	8c 96       	adiw	r24, 0x2c	; 44
    230c:	60 de       	rcall	.-832    	; 0x1fce <ExtEERead>
    uint8_t x = data[1]; //Assuming a name is not longer than 255 characters.
    230e:	1a 81       	ldd	r17, Y+2	; 0x02
}

//Check if the entered letter corresponds with a name
uint8_t CheckLetter(uint16_t object, uint8_t letter){
    
    uint8_t found = 0;
    2310:	d1 2c       	mov	r13, r1

    object += L_BOILER;
    ExtEERead(object+OFF_STRINGFLDS, 2, GAME, &data[0]);
    uint8_t x = data[1]; //Assuming a name is not longer than 255 characters.

    while (x){
    2312:	11 23       	and	r17, r17
    2314:	51 f1       	breq	.+84     	; 0x236a <CheckLetter+0x8e>
    2316:	01 2f       	mov	r16, r17
    2318:	11 32       	cpi	r17, 0x21	; 33
    231a:	08 f0       	brcs	.+2      	; 0x231e <CheckLetter+0x42>
    231c:	00 e2       	ldi	r16, 0x20	; 32
        uint8_t max;
        if (x>32) max = 32; else max = x;
        ExtEERead(object+OFF_STRINGFLDS+2, max, GAME, &data[0]);
    231e:	9e 01       	movw	r18, r28
    2320:	2f 5f       	subi	r18, 0xFF	; 255
    2322:	3f 4f       	sbci	r19, 0xFF	; 255
    2324:	40 e0       	ldi	r20, 0x00	; 0
    2326:	60 2f       	mov	r22, r16
    2328:	c7 01       	movw	r24, r14
    232a:	0e 96       	adiw	r24, 0x0e	; 14
    232c:	50 de       	rcall	.-864    	; 0x1fce <ExtEERead>
    232e:	fe 01       	movw	r30, r28
    2330:	31 96       	adiw	r30, 0x01	; 1
        for (uint8_t y=0; y<max; ++y){
    2332:	80 e0       	ldi	r24, 0x00	; 0
            if (found){
    2334:	dd 20       	and	r13, r13
    2336:	61 f0       	breq	.+24     	; 0x2350 <CheckLetter+0x74>
                if ((data[y]|0x20) == letter) return 1; else return 0;
    2338:	e1 e0       	ldi	r30, 0x01	; 1
    233a:	f0 e0       	ldi	r31, 0x00	; 0
    233c:	ec 0f       	add	r30, r28
    233e:	fd 1f       	adc	r31, r29
    2340:	e8 0f       	add	r30, r24
    2342:	f1 1d       	adc	r31, r1
    2344:	90 81       	ld	r25, Z
    2346:	90 62       	ori	r25, 0x20	; 32
    2348:	81 e0       	ldi	r24, 0x01	; 1
    234a:	9c 11       	cpse	r25, r12
    234c:	0e c0       	rjmp	.+28     	; 0x236a <CheckLetter+0x8e>
    234e:	0e c0       	rjmp	.+28     	; 0x236c <CheckLetter+0x90>
            }
            if (data[y] == '[') found = 1;
    2350:	91 91       	ld	r25, Z+
    2352:	dd 24       	eor	r13, r13
    2354:	d3 94       	inc	r13
    2356:	9b 35       	cpi	r25, 0x5B	; 91
    2358:	09 f0       	breq	.+2      	; 0x235c <CheckLetter+0x80>
    235a:	d1 2c       	mov	r13, r1

    while (x){
        uint8_t max;
        if (x>32) max = 32; else max = x;
        ExtEERead(object+OFF_STRINGFLDS+2, max, GAME, &data[0]);
        for (uint8_t y=0; y<max; ++y){
    235c:	8f 5f       	subi	r24, 0xFF	; 255
    235e:	80 17       	cp	r24, r16
    2360:	48 f3       	brcs	.-46     	; 0x2334 <CheckLetter+0x58>
            if (found){
                if ((data[y]|0x20) == letter) return 1; else return 0;
            }
            if (data[y] == '[') found = 1;
        }
        object += max;
    2362:	e0 0e       	add	r14, r16
    2364:	f1 1c       	adc	r15, r1
        x -= max;
    2366:	10 1b       	sub	r17, r16
    2368:	d4 cf       	rjmp	.-88     	; 0x2312 <CheckLetter+0x36>
    }
    return 0;
    236a:	80 e0       	ldi	r24, 0x00	; 0
}
    236c:	a0 96       	adiw	r28, 0x20	; 32
    236e:	cd bf       	out	0x3d, r28	; 61
    2370:	de bf       	out	0x3e, r29	; 62
    2372:	df 91       	pop	r29
    2374:	cf 91       	pop	r28
    2376:	1f 91       	pop	r17
    2378:	0f 91       	pop	r16
    237a:	ff 90       	pop	r15
    237c:	ef 90       	pop	r14
    237e:	df 90       	pop	r13
    2380:	cf 90       	pop	r12
    2382:	08 95       	ret

00002384 <FindChild>:

//Returns the child's address if the child is visible and the search letter matches
uint16_t FindChild(uint16_t parent, uint8_t letter, uint16_t start){
    2384:	af 92       	push	r10
    2386:	bf 92       	push	r11
    2388:	df 92       	push	r13
    238a:	ef 92       	push	r14
    238c:	ff 92       	push	r15
    238e:	0f 93       	push	r16
    2390:	1f 93       	push	r17
    2392:	cf 93       	push	r28
    2394:	df 93       	push	r29
    2396:	00 d0       	rcall	.+0      	; 0x2398 <FindChild+0x14>
    2398:	00 d0       	rcall	.+0      	; 0x239a <FindChild+0x16>
    239a:	cd b7       	in	r28, 0x3d	; 61
    239c:	de b7       	in	r29, 0x3e	; 62
    239e:	d6 2e       	mov	r13, r22
    23a0:	5a 01       	movw	r10, r20
    
    uint16_t child = parent;
    uint8_t data[4];

    ExtEERead(child+L_BOILER, 4, GAME, &data[0]);
    23a2:	9e 01       	movw	r18, r28
    23a4:	2f 5f       	subi	r18, 0xFF	; 255
    23a6:	3f 4f       	sbci	r19, 0xFF	; 255
    23a8:	40 e0       	ldi	r20, 0x00	; 0
    23aa:	64 e0       	ldi	r22, 0x04	; 4
    23ac:	80 96       	adiw	r24, 0x20	; 32
    23ae:	0f de       	rcall	.-994    	; 0x1fce <ExtEERead>
    23b0:	e9 80       	ldd	r14, Y+1	; 0x01
    23b2:	fa 80       	ldd	r15, Y+2	; 0x02
    23b4:	fe 24       	eor	r15, r14
    23b6:	ef 24       	eor	r14, r15
    23b8:	fe 24       	eor	r15, r14
    23ba:	0b 81       	ldd	r16, Y+3	; 0x03
    23bc:	1c 81       	ldd	r17, Y+4	; 0x04
    23be:	10 27       	eor	r17, r16
    23c0:	01 27       	eor	r16, r17
    23c2:	10 27       	eor	r17, r16
    parent = (data[0]<<8|data[1]);    //Next object on parent level
    child =  (data[2]<<8|data[3]);    //First object on child level

    //As long as the child is within the parent's range
    while (parent>child){
    23c4:	0e 15       	cp	r16, r14
    23c6:	1f 05       	cpc	r17, r15
    23c8:	30 f5       	brcc	.+76     	; 0x2416 <FindChild+0x92>

        //If child's address is higher than the start address, perform search for letter
        if (child>start){
    23ca:	a0 16       	cp	r10, r16
    23cc:	b1 06       	cpc	r11, r17
    23ce:	58 f0       	brcs	.+22     	; 0x23e6 <FindChild+0x62>
                if ((letter == 0)||(CheckLetter(child, letter))) return child;
            }
        }

        //Not visible or name not right
        ExtEERead(child+L_BOILER, 2, GAME, &data[0]);
    23d0:	9e 01       	movw	r18, r28
    23d2:	2f 5f       	subi	r18, 0xFF	; 255
    23d4:	3f 4f       	sbci	r19, 0xFF	; 255
    23d6:	40 e0       	ldi	r20, 0x00	; 0
    23d8:	62 e0       	ldi	r22, 0x02	; 2
    23da:	c8 01       	movw	r24, r16
    23dc:	80 96       	adiw	r24, 0x20	; 32
    23de:	f7 dd       	rcall	.-1042   	; 0x1fce <ExtEERead>
    23e0:	09 81       	ldd	r16, Y+1	; 0x01
    23e2:	1a 81       	ldd	r17, Y+2	; 0x02
    23e4:	ec cf       	rjmp	.-40     	; 0x23be <FindChild+0x3a>
    //As long as the child is within the parent's range
    while (parent>child){

        //If child's address is higher than the start address, perform search for letter
        if (child>start){
            ExtEERead(child+OFF_BYTEFLDS+VISIBLE_ACL+L_BOILER, 1, GAME, &data[0]);
    23e6:	9e 01       	movw	r18, r28
    23e8:	2f 5f       	subi	r18, 0xFF	; 255
    23ea:	3f 4f       	sbci	r19, 0xFF	; 255
    23ec:	40 e0       	ldi	r20, 0x00	; 0
    23ee:	61 e0       	ldi	r22, 0x01	; 1
    23f0:	c8 01       	movw	r24, r16
    23f2:	85 96       	adiw	r24, 0x25	; 37
    23f4:	ec dd       	rcall	.-1064   	; 0x1fce <ExtEERead>
            if ((data[0] == 0)||(CheckState(data[0]))) {
    23f6:	89 81       	ldd	r24, Y+1	; 0x01
    23f8:	81 11       	cpse	r24, r1
    23fa:	03 c0       	rjmp	.+6      	; 0x2402 <FindChild+0x7e>
                if ((letter == 0)||(CheckLetter(child, letter))) return child;
    23fc:	d1 10       	cpse	r13, r1
    23fe:	05 c0       	rjmp	.+10     	; 0x240a <FindChild+0x86>
    while (parent>child){

        //If child's address is higher than the start address, perform search for letter
        if (child>start){
            ExtEERead(child+OFF_BYTEFLDS+VISIBLE_ACL+L_BOILER, 1, GAME, &data[0]);
            if ((data[0] == 0)||(CheckState(data[0]))) {
    2400:	0d c0       	rjmp	.+26     	; 0x241c <FindChild+0x98>
    2402:	59 d8       	rcall	.-3918   	; 0x14b6 <CheckState>
    2404:	81 11       	cpse	r24, r1
    2406:	fa cf       	rjmp	.-12     	; 0x23fc <FindChild+0x78>
                if ((letter == 0)||(CheckLetter(child, letter))) return child;
    2408:	e3 cf       	rjmp	.-58     	; 0x23d0 <FindChild+0x4c>
    240a:	6d 2d       	mov	r22, r13
    240c:	c8 01       	movw	r24, r16
    240e:	66 df       	rcall	.-308    	; 0x22dc <CheckLetter>
    2410:	88 23       	and	r24, r24
    2412:	f1 f2       	breq	.-68     	; 0x23d0 <FindChild+0x4c>
    2414:	03 c0       	rjmp	.+6      	; 0x241c <FindChild+0x98>

        //Not visible or name not right
        ExtEERead(child+L_BOILER, 2, GAME, &data[0]);
        child = (data[0]<<8|data[1]);    //Next object on child level
        
    } return 0;
    2416:	80 e0       	ldi	r24, 0x00	; 0
    2418:	90 e0       	ldi	r25, 0x00	; 0
    241a:	01 c0       	rjmp	.+2      	; 0x241e <FindChild+0x9a>
    241c:	c8 01       	movw	r24, r16
}
    241e:	24 96       	adiw	r28, 0x04	; 4
    2420:	cd bf       	out	0x3d, r28	; 61
    2422:	de bf       	out	0x3e, r29	; 62
    2424:	df 91       	pop	r29
    2426:	cf 91       	pop	r28
    2428:	1f 91       	pop	r17
    242a:	0f 91       	pop	r16
    242c:	ff 90       	pop	r15
    242e:	ef 90       	pop	r14
    2430:	df 90       	pop	r13
    2432:	bf 90       	pop	r11
    2434:	af 90       	pop	r10
    2436:	08 95       	ret

00002438 <InpOkChk>:

//Allow only a(A) to z(Z) and 0 to 9 as input
uint8_t InpOkChk(uint8_t test){
    test |= 0x20;
    2438:	80 62       	ori	r24, 0x20	; 32
    if ((test>='a')&&(test<='z')) return 1;
    243a:	9f e9       	ldi	r25, 0x9F	; 159
    243c:	98 0f       	add	r25, r24
    243e:	9a 31       	cpi	r25, 0x1A	; 26
    2440:	38 f0       	brcs	.+14     	; 0x2450 <InpOkChk+0x18>
    2442:	90 ed       	ldi	r25, 0xD0	; 208
    2444:	98 0f       	add	r25, r24
    2446:	81 e0       	ldi	r24, 0x01	; 1
    2448:	9a 30       	cpi	r25, 0x0A	; 10
    244a:	18 f0       	brcs	.+6      	; 0x2452 <InpOkChk+0x1a>
    244c:	80 e0       	ldi	r24, 0x00	; 0
    244e:	08 95       	ret
    2450:	81 e0       	ldi	r24, 0x01	; 1
    if ((test>='0')&&(test<='9')) return 1;
    return 0;
}
    2452:	08 95       	ret

00002454 <CleanInput>:

//Cleans input of garbage and returns length of cleaned input "o->d2  !\0" becomes "od2\0"
uint8_t CleanInput(uint8_t *data){
    2454:	0f 93       	push	r16
    2456:	1f 93       	push	r17
    2458:	cf 93       	push	r28
    245a:	df 93       	push	r29
    245c:	8c 01       	movw	r16, r24
    uint8_t cnt = 0;
    for (uint8_t x=0; data[x]!=0; ++x){
    245e:	d0 e0       	ldi	r29, 0x00	; 0
    return 0;
}

//Cleans input of garbage and returns length of cleaned input "o->d2  !\0" becomes "od2\0"
uint8_t CleanInput(uint8_t *data){
    uint8_t cnt = 0;
    2460:	c0 e0       	ldi	r28, 0x00	; 0
    for (uint8_t x=0; data[x]!=0; ++x){
    2462:	f8 01       	movw	r30, r16
    2464:	ed 0f       	add	r30, r29
    2466:	f1 1d       	adc	r31, r1
    2468:	20 81       	ld	r18, Z
    246a:	8c 2f       	mov	r24, r28
    246c:	90 e0       	ldi	r25, 0x00	; 0
    246e:	22 23       	and	r18, r18
    2470:	51 f0       	breq	.+20     	; 0x2486 <CleanInput+0x32>
        data[cnt] = data[x];
    2472:	d8 01       	movw	r26, r16
    2474:	a8 0f       	add	r26, r24
    2476:	b9 1f       	adc	r27, r25
    2478:	2c 93       	st	X, r18
        if (InpOkChk(data[x])) ++cnt;
    247a:	80 81       	ld	r24, Z
    247c:	dd df       	rcall	.-70     	; 0x2438 <InpOkChk>
    247e:	81 11       	cpse	r24, r1
    2480:	cf 5f       	subi	r28, 0xFF	; 255
}

//Cleans input of garbage and returns length of cleaned input "o->d2  !\0" becomes "od2\0"
uint8_t CleanInput(uint8_t *data){
    uint8_t cnt = 0;
    for (uint8_t x=0; data[x]!=0; ++x){
    2482:	df 5f       	subi	r29, 0xFF	; 255
    2484:	ee cf       	rjmp	.-36     	; 0x2462 <CleanInput+0xe>
        data[cnt] = data[x];
        if (InpOkChk(data[x])) ++cnt;
    }
    data[cnt] = 0;
    2486:	f8 01       	movw	r30, r16
    2488:	e8 0f       	add	r30, r24
    248a:	f9 1f       	adc	r31, r25
    248c:	10 82       	st	Z, r1
    return cnt;
}
    248e:	8c 2f       	mov	r24, r28
    2490:	df 91       	pop	r29
    2492:	cf 91       	pop	r28
    2494:	1f 91       	pop	r17
    2496:	0f 91       	pop	r16
    2498:	08 95       	ret

0000249a <CheckSend>:

//Send routine, optimized for low memory usage
uint8_t CheckSend(){
    249a:	cf 93       	push	r28
    static uint8_t txPart;
    uint8_t EEreadLength=0;

    //Play effects if available and not already playing
    if (effect == 0){
    249c:	80 91 3a 38 	lds	r24, 0x383A	; 0x80383a <effect>
    24a0:	90 91 3b 38 	lds	r25, 0x383B	; 0x80383b <effect+0x1>
    24a4:	89 2b       	or	r24, r25
    24a6:	99 f4       	brne	.+38     	; 0x24ce <CheckSend+0x34>
        effect = currObj.byteField[EFFECTS];
    24a8:	80 91 1f 3a 	lds	r24, 0x3A1F	; 0x803a1f <currObj+0x4>
    24ac:	90 e0       	ldi	r25, 0x00	; 0
    24ae:	80 93 3a 38 	sts	0x383A, r24	; 0x80383a <effect>
    24b2:	90 93 3b 38 	sts	0x383B, r25	; 0x80383b <effect+0x1>
        auStart = ((effect&0xE0)>0);
    24b6:	80 91 3a 38 	lds	r24, 0x383A	; 0x80383a <effect>
    24ba:	90 91 3b 38 	lds	r25, 0x383B	; 0x80383b <effect+0x1>
    24be:	80 7e       	andi	r24, 0xE0	; 224
    24c0:	99 27       	eor	r25, r25
    24c2:	21 e0       	ldi	r18, 0x01	; 1
    24c4:	89 2b       	or	r24, r25
    24c6:	09 f4       	brne	.+2      	; 0x24ca <CheckSend+0x30>
    24c8:	20 e0       	ldi	r18, 0x00	; 0
    24ca:	20 93 39 38 	sts	0x3839, r18	; 0x803839 <auStart>
    }

    //Check if more string(part)s have to be sent to the serial output if previous send operation is completed
    if ((txAddrNow < TXLISTLEN) && serTxDone){
    24ce:	20 91 47 3a 	lds	r18, 0x3A47	; 0x803a47 <txAddrNow>
    24d2:	28 30       	cpi	r18, 0x08	; 8
    24d4:	08 f0       	brcs	.+2      	; 0x24d8 <CheckSend+0x3e>
    24d6:	48 c0       	rjmp	.+144    	; 0x2568 <CheckSend+0xce>
    24d8:	80 91 09 38 	lds	r24, 0x3809	; 0x803809 <serTxDone>
    24dc:	88 23       	and	r24, r24
    24de:	09 f4       	brne	.+2      	; 0x24e2 <CheckSend+0x48>
    24e0:	43 c0       	rjmp	.+134    	; 0x2568 <CheckSend+0xce>
        if (txStrLen[txAddrNow] == 0){
    24e2:	82 2f       	mov	r24, r18
    24e4:	90 e0       	ldi	r25, 0x00	; 0
    24e6:	fc 01       	movw	r30, r24
    24e8:	e8 5b       	subi	r30, 0xB8	; 184
    24ea:	f5 4c       	sbci	r31, 0xC5	; 197
    24ec:	e0 81       	ld	r30, Z
    24ee:	e1 11       	cpse	r30, r1
    24f0:	06 c0       	rjmp	.+12     	; 0x24fe <CheckSend+0x64>
            txPart = 0;
    24f2:	10 92 06 39 	sts	0x3906, r1	; 0x803906 <txPart.3950>
            txAddrNow = TXLISTLEN;
    24f6:	88 e0       	ldi	r24, 0x08	; 8
    24f8:	80 93 47 3a 	sts	0x3A47, r24	; 0x803a47 <txAddrNow>
    24fc:	2d c0       	rjmp	.+90     	; 0x2558 <CheckSend+0xbe>
        } else if (txPart < txStrLen[txAddrNow]){
    24fe:	50 91 06 39 	lds	r21, 0x3906	; 0x803906 <txPart.3950>
    2502:	5e 17       	cp	r21, r30
    2504:	58 f5       	brcc	.+86     	; 0x255c <CheckSend+0xc2>
            EEreadLength = txStrLen[txAddrNow]-txPart;
    2506:	ce 2f       	mov	r28, r30
    2508:	c5 1b       	sub	r28, r21
    250a:	c1 32       	cpi	r28, 0x21	; 33
    250c:	08 f0       	brcs	.+2      	; 0x2510 <CheckSend+0x76>
    250e:	c0 e2       	ldi	r28, 0x20	; 32
            if (EEreadLength>=TXLEN) EEreadLength = TXLEN-1;
            ExtEERead(txAddrList[txAddrNow]+txPart, EEreadLength, txTypeNow, &txBuffer[0]);
    2510:	88 0f       	add	r24, r24
    2512:	99 1f       	adc	r25, r25
    2514:	fc 01       	movw	r30, r24
    2516:	e0 5b       	subi	r30, 0xB0	; 176
    2518:	f5 4c       	sbci	r31, 0xC5	; 197
    251a:	80 81       	ld	r24, Z
    251c:	91 81       	ldd	r25, Z+1	; 0x01
    251e:	29 ef       	ldi	r18, 0xF9	; 249
    2520:	3a e3       	ldi	r19, 0x3A	; 58
    2522:	40 91 46 3a 	lds	r20, 0x3A46	; 0x803a46 <txTypeNow>
    2526:	6c 2f       	mov	r22, r28
    2528:	85 0f       	add	r24, r21
    252a:	91 1d       	adc	r25, r1
    252c:	50 dd       	rcall	.-1376   	; 0x1fce <ExtEERead>
            txPart += EEreadLength;
    252e:	80 91 06 39 	lds	r24, 0x3906	; 0x803906 <txPart.3950>
    2532:	8c 0f       	add	r24, r28
    2534:	80 93 06 39 	sts	0x3906, r24	; 0x803906 <txPart.3950>
            txBuffer[EEreadLength] = 0; //Add string terminator after piece to send to plug memory leak
    2538:	ec 2f       	mov	r30, r28
    253a:	f0 e0       	ldi	r31, 0x00	; 0
    253c:	e7 50       	subi	r30, 0x07	; 7
    253e:	f5 4c       	sbci	r31, 0xC5	; 197
    2540:	10 82       	st	Z, r1
            if ((txBuffer[0] == 0) && (EEreadLength)) txBuffer[0] = 0xDB; //Block character when data wrong.
    2542:	80 91 f9 3a 	lds	r24, 0x3AF9	; 0x803af9 <txBuffer>
    2546:	81 11       	cpse	r24, r1
    2548:	03 c0       	rjmp	.+6      	; 0x2550 <CheckSend+0xb6>
    254a:	8b ed       	ldi	r24, 0xDB	; 219
    254c:	80 93 f9 3a 	sts	0x3AF9, r24	; 0x803af9 <txBuffer>
            SerSend(&txBuffer[0]);
    2550:	89 ef       	ldi	r24, 0xF9	; 249
    2552:	9a e3       	ldi	r25, 0x3A	; 58
    2554:	0e 94 bf 08 	call	0x117e	; 0x117e <SerSend>
        } else {
            txPart = 0;
            ++txAddrNow;
        }
    } else if (serTxDone) return 0; //All is sent!
    return 1; //Still sending, do not change the data in the tx variables
    2558:	81 e0       	ldi	r24, 0x01	; 1
    255a:	0b c0       	rjmp	.+22     	; 0x2572 <CheckSend+0xd8>
            txPart += EEreadLength;
            txBuffer[EEreadLength] = 0; //Add string terminator after piece to send to plug memory leak
            if ((txBuffer[0] == 0) && (EEreadLength)) txBuffer[0] = 0xDB; //Block character when data wrong.
            SerSend(&txBuffer[0]);
        } else {
            txPart = 0;
    255c:	10 92 06 39 	sts	0x3906, r1	; 0x803906 <txPart.3950>
            ++txAddrNow;
    2560:	2f 5f       	subi	r18, 0xFF	; 255
    2562:	20 93 47 3a 	sts	0x3A47, r18	; 0x803a47 <txAddrNow>
    2566:	f8 cf       	rjmp	.-16     	; 0x2558 <CheckSend+0xbe>
        }
    } else if (serTxDone) return 0; //All is sent!
    2568:	90 91 09 38 	lds	r25, 0x3809	; 0x803809 <serTxDone>
    256c:	81 e0       	ldi	r24, 0x01	; 1
    256e:	91 11       	cpse	r25, r1
    2570:	80 e0       	ldi	r24, 0x00	; 0
    return 1; //Still sending, do not change the data in the tx variables
}
    2572:	cf 91       	pop	r28
    2574:	08 95       	ret

00002576 <CheckResponse>:

//Send another part of the response and play the effect afterwards
uint8_t CheckResponse(){
    2576:	cf 93       	push	r28
    2578:	df 93       	push	r29
    static uint8_t number = 0;
    if (responseList){
    257a:	c0 91 1a 39 	lds	r28, 0x391A	; 0x80391a <responseList>
    257e:	cc 23       	and	r28, r28
    2580:	e9 f1       	breq	.+122    	; 0x25fc <CheckResponse+0x86>
        --responseList;
    2582:	c1 50       	subi	r28, 0x01	; 1
    2584:	c0 93 1a 39 	sts	0x391A, r28	; 0x80391a <responseList>
        if (reactStr[0][number] == CURR_LOC) {
    2588:	d0 91 05 39 	lds	r29, 0x3905	; 0x803905 <number.3954>
    258c:	2d 2f       	mov	r18, r29
    258e:	30 e0       	ldi	r19, 0x00	; 0
    2590:	f9 01       	movw	r30, r18
    2592:	ee 0f       	add	r30, r30
    2594:	ff 1f       	adc	r31, r31
    2596:	e5 5e       	subi	r30, 0xE5	; 229
    2598:	f6 4c       	sbci	r31, 0xC6	; 198
    259a:	80 81       	ld	r24, Z
    259c:	91 81       	ldd	r25, Z+1	; 0x01
    259e:	80 3f       	cpi	r24, 0xF0	; 240
    25a0:	4f ef       	ldi	r20, 0xFF	; 255
    25a2:	94 07       	cpc	r25, r20
    25a4:	51 f4       	brne	.+20     	; 0x25ba <CheckResponse+0x44>
            PrepareSending(currObj.addrStr[NAME], currObj.lenStr[NAME], GAME);
    25a6:	60 91 35 3a 	lds	r22, 0x3A35	; 0x803a35 <currObj+0x1a>
    25aa:	70 91 36 3a 	lds	r23, 0x3A36	; 0x803a36 <currObj+0x1b>
    25ae:	40 e0       	ldi	r20, 0x00	; 0
    25b0:	80 91 27 3a 	lds	r24, 0x3A27	; 0x803a27 <currObj+0xc>
    25b4:	90 91 28 3a 	lds	r25, 0x3A28	; 0x803a28 <currObj+0xd>
    25b8:	0d c0       	rjmp	.+26     	; 0x25d4 <CheckResponse+0x5e>
        } else {
            PrepareSending(reactStr[0][number], reactStr[1][number], reactStr[2][number]);
    25ba:	d9 01       	movw	r26, r18
    25bc:	aa 0f       	add	r26, r26
    25be:	bb 1f       	adc	r27, r27
    25c0:	a5 56       	subi	r26, 0x65	; 101
    25c2:	b6 4c       	sbci	r27, 0xC6	; 198
    25c4:	22 0f       	add	r18, r18
    25c6:	33 1f       	adc	r19, r19
    25c8:	f9 01       	movw	r30, r18
    25ca:	e5 5a       	subi	r30, 0xA5	; 165
    25cc:	f6 4c       	sbci	r31, 0xC6	; 198
    25ce:	60 81       	ld	r22, Z
    25d0:	71 81       	ldd	r23, Z+1	; 0x01
    25d2:	4c 91       	ld	r20, X
    25d4:	53 dd       	rcall	.-1370   	; 0x207c <PrepareSending>
        }
        ++number;
    25d6:	df 5f       	subi	r29, 0xFF	; 255
    25d8:	d0 93 05 39 	sts	0x3905, r29	; 0x803905 <number.3954>

        if (responseList == 0) {
    25dc:	c1 11       	cpse	r28, r1
    25de:	0d c0       	rjmp	.+26     	; 0x25fa <CheckResponse+0x84>
            effect = currObj.byteField[EFFECTS];
    25e0:	80 91 1f 3a 	lds	r24, 0x3A1F	; 0x803a1f <currObj+0x4>
    25e4:	90 e0       	ldi	r25, 0x00	; 0
    25e6:	80 93 3a 38 	sts	0x383A, r24	; 0x80383a <effect>
    25ea:	90 93 3b 38 	sts	0x383B, r25	; 0x80383b <effect+0x1>
            RXCNT = 0;
    25ee:	1d ba       	out	0x1d, r1	; 29
            serRxDone = 0;
    25f0:	10 92 44 38 	sts	0x3844, r1	; 0x803844 <serRxDone>
            number = 0;
    25f4:	10 92 05 39 	sts	0x3905, r1	; 0x803905 <number.3954>
    25f8:	01 c0       	rjmp	.+2      	; 0x25fc <CheckResponse+0x86>
            return 0;
        }
        return 1;
    25fa:	c1 e0       	ldi	r28, 0x01	; 1
    }
    return 0;
}
    25fc:	8c 2f       	mov	r24, r28
    25fe:	df 91       	pop	r29
    2600:	cf 91       	pop	r28
    2602:	08 95       	ret

00002604 <CheckInput>:

//User input check (and validation)
uint8_t CheckInput(uint8_t *data){
    2604:	3f 92       	push	r3
    2606:	4f 92       	push	r4
    2608:	5f 92       	push	r5
    260a:	6f 92       	push	r6
    260c:	7f 92       	push	r7
    260e:	8f 92       	push	r8
    2610:	9f 92       	push	r9
    2612:	af 92       	push	r10
    2614:	bf 92       	push	r11
    2616:	cf 92       	push	r12
    2618:	df 92       	push	r13
    261a:	ef 92       	push	r14
    261c:	ff 92       	push	r15
    261e:	0f 93       	push	r16
    2620:	1f 93       	push	r17
    2622:	cf 93       	push	r28
    2624:	df 93       	push	r29
    2626:	cd b7       	in	r28, 0x3d	; 61
    2628:	de b7       	in	r29, 0x3e	; 62
    262a:	a1 97       	sbiw	r28, 0x21	; 33
    262c:	cd bf       	out	0x3d, r28	; 61
    262e:	de bf       	out	0x3e, r29	; 62
    2630:	8c 01       	movw	r16, r24
    
    //Load game data after reboot
    if (currDepth == 0xff) {
    2632:	80 91 2c 38 	lds	r24, 0x382C	; 0x80382c <currDepth>
    2636:	8f 3f       	cpi	r24, 0xFF	; 255
    2638:	49 f4       	brne	.+18     	; 0x264c <CheckInput+0x48>
        //Start at first location
        PopulateObject(route[0], &currObj);
    263a:	6b e1       	ldi	r22, 0x1B	; 27
    263c:	7a e3       	ldi	r23, 0x3A	; 58
    263e:	80 91 db 39 	lds	r24, 0x39DB	; 0x8039db <route>
    2642:	90 91 dc 39 	lds	r25, 0x39DC	; 0x8039dc <route+0x1>
    2646:	d3 dd       	rcall	.-1114   	; 0x21ee <PopulateObject>
        currDepth = 0;
    2648:	10 92 2c 38 	sts	0x382C, r1	; 0x80382c <currDepth>
    }

    if (serRxDone){
    264c:	80 91 44 38 	lds	r24, 0x3844	; 0x803844 <serRxDone>
    2650:	88 23       	and	r24, r24
    2652:	09 f4       	brne	.+2      	; 0x2656 <CheckInput+0x52>
    2654:	71 c2       	rjmp	.+1250   	; 0x2b38 <CheckInput+0x534>

        //Special input requested from user by game
        if (specialInput[0]){
    2656:	80 91 0a 39 	lds	r24, 0x390A	; 0x80390a <specialInput>
    265a:	88 23       	and	r24, r24
    265c:	09 f4       	brne	.+2      	; 0x2660 <CheckInput+0x5c>
    265e:	57 c0       	rjmp	.+174    	; 0x270e <CheckInput+0x10a>
            specialPassed = 0;
    2660:	10 92 09 39 	sts	0x3909, r1	; 0x803909 <specialPassed>
            data[0] = 'a';
    2664:	81 e6       	ldi	r24, 0x61	; 97
    2666:	f8 01       	movw	r30, r16
    2668:	80 83       	st	Z, r24
            
            //Normal code challenge
            if (StartsWith((uint8_t *)&serRx[0], &specialInput[0])) {
    266a:	6a e0       	ldi	r22, 0x0A	; 10
    266c:	79 e3       	ldi	r23, 0x39	; 57
    266e:	85 e7       	ldi	r24, 0x75	; 117
    2670:	9a e3       	ldi	r25, 0x3A	; 58
    2672:	ea dc       	rcall	.-1580   	; 0x2048 <StartsWith>
    2674:	f8 2e       	mov	r15, r24
    2676:	88 23       	and	r24, r24
    2678:	21 f0       	breq	.+8      	; 0x2682 <CheckInput+0x7e>
                specialPassed = 1;
    267a:	81 e0       	ldi	r24, 0x01	; 1
    267c:	80 93 09 39 	sts	0x3909, r24	; 0x803909 <specialPassed>
    2680:	04 c0       	rjmp	.+8      	; 0x268a <CheckInput+0x86>
                //specialInput[0] = 0;
                //data[1] = 0;

            //Special challenge 1
            } else if ((specialInput[0] == '1')&&(specialInput[2] == 0)) {
    2682:	80 91 0a 39 	lds	r24, 0x390A	; 0x80390a <specialInput>
    2686:	81 33       	cpi	r24, 0x31	; 49
    2688:	11 f0       	breq	.+4      	; 0x268e <CheckInput+0x8a>
                responseList = 32;
                return 1;
            }
        } 
        //Data received, but not any of the commands above
        return 0;
    268a:	f1 2c       	mov	r15, r1
    268c:	57 c2       	rjmp	.+1198   	; 0x2b3c <CheckInput+0x538>
                specialPassed = 1;
                //specialInput[0] = 0;
                //data[1] = 0;

            //Special challenge 1
            } else if ((specialInput[0] == '1')&&(specialInput[2] == 0)) {
    268e:	80 91 0c 39 	lds	r24, 0x390C	; 0x80390c <specialInput+0x2>
    2692:	81 11       	cpse	r24, r1
    2694:	fa cf       	rjmp	.-12     	; 0x268a <CheckInput+0x86>
                uint8_t inputLen = CleanInput((uint8_t *)&serRx[0]);
    2696:	85 e7       	ldi	r24, 0x75	; 117
    2698:	9a e3       	ldi	r25, 0x3A	; 58
    269a:	dc de       	rcall	.-584    	; 0x2454 <CleanInput>
                specialPassed = 2;
    269c:	92 e0       	ldi	r25, 0x02	; 2
    269e:	90 93 09 39 	sts	0x3909, r25	; 0x803909 <specialPassed>
                data[1] = 0;
    26a2:	f8 01       	movw	r30, r16
    26a4:	11 82       	std	Z+1, r1	; 0x01

                if (inputLen >= 2) {
    26a6:	82 30       	cpi	r24, 0x02	; 2
    26a8:	80 f3       	brcs	.-32     	; 0x268a <CheckInput+0x86>
                    if ((serRx[0] == '1')||(serRx[0] == '2')||(serRx[0] == '3')||(serRx[0] == '4')) {
    26aa:	80 91 75 3a 	lds	r24, 0x3A75	; 0x803a75 <serRx>
    26ae:	81 33       	cpi	r24, 0x31	; 49
    26b0:	61 f0       	breq	.+24     	; 0x26ca <CheckInput+0xc6>
    26b2:	80 91 75 3a 	lds	r24, 0x3A75	; 0x803a75 <serRx>
    26b6:	82 33       	cpi	r24, 0x32	; 50
    26b8:	41 f0       	breq	.+16     	; 0x26ca <CheckInput+0xc6>
    26ba:	80 91 75 3a 	lds	r24, 0x3A75	; 0x803a75 <serRx>
    26be:	83 33       	cpi	r24, 0x33	; 51
    26c0:	21 f0       	breq	.+8      	; 0x26ca <CheckInput+0xc6>
    26c2:	80 91 75 3a 	lds	r24, 0x3A75	; 0x803a75 <serRx>
    26c6:	84 33       	cpi	r24, 0x34	; 52
    26c8:	01 f7       	brne	.-64     	; 0x268a <CheckInput+0x86>
                        serRx[1] |= 0x20;
    26ca:	80 91 76 3a 	lds	r24, 0x3A76	; 0x803a76 <serRx+0x1>
    26ce:	80 62       	ori	r24, 0x20	; 32
    26d0:	80 93 76 3a 	sts	0x3A76, r24	; 0x803a76 <serRx+0x1>
                        if ((serRx[1] == 'a')||(serRx[1] == 'e')||(serRx[1] == 'f')||(serRx[1] == 'w')) {
    26d4:	80 91 76 3a 	lds	r24, 0x3A76	; 0x803a76 <serRx+0x1>
    26d8:	81 36       	cpi	r24, 0x61	; 97
    26da:	61 f0       	breq	.+24     	; 0x26f4 <CheckInput+0xf0>
    26dc:	80 91 76 3a 	lds	r24, 0x3A76	; 0x803a76 <serRx+0x1>
    26e0:	85 36       	cpi	r24, 0x65	; 101
    26e2:	41 f0       	breq	.+16     	; 0x26f4 <CheckInput+0xf0>
    26e4:	80 91 76 3a 	lds	r24, 0x3A76	; 0x803a76 <serRx+0x1>
    26e8:	86 36       	cpi	r24, 0x66	; 102
    26ea:	21 f0       	breq	.+8      	; 0x26f4 <CheckInput+0xf0>
    26ec:	80 91 76 3a 	lds	r24, 0x3A76	; 0x803a76 <serRx+0x1>
    26f0:	87 37       	cpi	r24, 0x77	; 119
    26f2:	59 f6       	brne	.-106    	; 0x268a <CheckInput+0x86>
                            data[1] = specialInput[1]+0x11;
    26f4:	80 91 0b 39 	lds	r24, 0x390B	; 0x80390b <specialInput+0x1>
    26f8:	8f 5e       	subi	r24, 0xEF	; 239
    26fa:	f8 01       	movw	r30, r16
    26fc:	81 83       	std	Z+1, r24	; 0x01
                            data[2] = serRx[0];
    26fe:	80 91 75 3a 	lds	r24, 0x3A75	; 0x803a75 <serRx>
    2702:	82 83       	std	Z+2, r24	; 0x02
                            data[3] = serRx[1];
    2704:	80 91 76 3a 	lds	r24, 0x3A76	; 0x803a76 <serRx+0x1>
    2708:	83 83       	std	Z+3, r24	; 0x03
                            data[4] = 0;
    270a:	14 82       	std	Z+4, r1	; 0x04
    270c:	17 c2       	rjmp	.+1070   	; 0x2b3c <CheckInput+0x538>
        
        //Normal input
        } else {

            //Change status bit
            if ((serRx[0] == '#')&&(RXCNT == 6)){
    270e:	80 91 75 3a 	lds	r24, 0x3A75	; 0x803a75 <serRx>
    2712:	83 32       	cpi	r24, 0x23	; 35
    2714:	89 f5       	brne	.+98     	; 0x2778 <CheckInput+0x174>
    2716:	8d b3       	in	r24, 0x1d	; 29
    2718:	86 30       	cpi	r24, 0x06	; 6
    271a:	71 f5       	brne	.+92     	; 0x2778 <CheckInput+0x174>
    271c:	81 e0       	ldi	r24, 0x01	; 1
    271e:	90 e0       	ldi	r25, 0x00	; 0
    2720:	10 e0       	ldi	r17, 0x00	; 0
                uint8_t bitNr = 0;

                for (uint8_t x=1; x<4; ++x) {
                    serRx[x] -= '0';
    2722:	fc 01       	movw	r30, r24
    2724:	eb 58       	subi	r30, 0x8B	; 139
    2726:	f5 4c       	sbci	r31, 0xC5	; 197
    2728:	20 81       	ld	r18, Z
    272a:	20 53       	subi	r18, 0x30	; 48
    272c:	20 83       	st	Z, r18
                    bitNr *= 10;
    272e:	11 0f       	add	r17, r17
    2730:	21 2f       	mov	r18, r17
    2732:	22 0f       	add	r18, r18
    2734:	22 0f       	add	r18, r18
    2736:	12 0f       	add	r17, r18
                    if (serRx[1] > 2) break;
    2738:	20 91 76 3a 	lds	r18, 0x3A76	; 0x803a76 <serRx+0x1>
    273c:	23 30       	cpi	r18, 0x03	; 3
    273e:	48 f4       	brcc	.+18     	; 0x2752 <CheckInput+0x14e>
                    if (serRx[x] < 10) {
    2740:	20 81       	ld	r18, Z
    2742:	2a 30       	cpi	r18, 0x0A	; 10
    2744:	b8 f4       	brcc	.+46     	; 0x2774 <CheckInput+0x170>
                        bitNr += serRx[x];
    2746:	20 81       	ld	r18, Z
    2748:	12 0f       	add	r17, r18
    274a:	01 96       	adiw	r24, 0x01	; 1

            //Change status bit
            if ((serRx[0] == '#')&&(RXCNT == 6)){
                uint8_t bitNr = 0;

                for (uint8_t x=1; x<4; ++x) {
    274c:	84 30       	cpi	r24, 0x04	; 4
    274e:	91 05       	cpc	r25, r1
    2750:	41 f7       	brne	.-48     	; 0x2722 <CheckInput+0x11e>
                        continue;
                    }
                    bitNr = 0;
                    break;
                }
                if ((bitNr)&&(bitNr!=128)) {
    2752:	81 2f       	mov	r24, r17
    2754:	8f 77       	andi	r24, 0x7F	; 127
    2756:	71 f0       	breq	.+28     	; 0x2774 <CheckInput+0x170>
                    if (Cheat(0xff-bitNr, serRx[4]<<8|serRx[5])) UpdateState(bitNr);
    2758:	80 91 79 3a 	lds	r24, 0x3A79	; 0x803a79 <serRx+0x4>
    275c:	60 91 7a 3a 	lds	r22, 0x3A7A	; 0x803a7a <serRx+0x5>
    2760:	70 e0       	ldi	r23, 0x00	; 0
    2762:	78 2b       	or	r23, r24
    2764:	81 2f       	mov	r24, r17
    2766:	80 95       	com	r24
    2768:	cf db       	rcall	.-2146   	; 0x1f08 <Cheat>
    276a:	88 23       	and	r24, r24
    276c:	19 f0       	breq	.+6      	; 0x2774 <CheckInput+0x170>
    276e:	81 2f       	mov	r24, r17
    2770:	0e 94 51 0a 	call	0x14a2	; 0x14a2 <UpdateState>
                }
                responseList = SetStandardResponse(0);
    2774:	80 e0       	ldi	r24, 0x00	; 0
    2776:	50 c0       	rjmp	.+160    	; 0x2818 <CheckInput+0x214>
    2778:	d8 01       	movw	r26, r16
    277a:	80 e0       	ldi	r24, 0x00	; 0
    277c:	90 e0       	ldi	r25, 0x00	; 0
                return 1;            
            }
            
            //Read up to the \0 character and convert to lower case.
            for (uint8_t x=0; x<RXLEN; ++x){
                if ((serRx[x]<'A')||(serRx[x]>'Z')) data[x]=serRx[x]; else data[x]=serRx[x]|0x20;
    277e:	fc 01       	movw	r30, r24
    2780:	eb 58       	subi	r30, 0x8B	; 139
    2782:	f5 4c       	sbci	r31, 0xC5	; 197
    2784:	20 81       	ld	r18, Z
    2786:	21 34       	cpi	r18, 0x41	; 65
    2788:	18 f0       	brcs	.+6      	; 0x2790 <CheckInput+0x18c>
    278a:	20 81       	ld	r18, Z
    278c:	2b 35       	cpi	r18, 0x5B	; 91
    278e:	10 f0       	brcs	.+4      	; 0x2794 <CheckInput+0x190>
    2790:	20 81       	ld	r18, Z
    2792:	02 c0       	rjmp	.+4      	; 0x2798 <CheckInput+0x194>
    2794:	20 81       	ld	r18, Z
    2796:	20 62       	ori	r18, 0x20	; 32
    2798:	2c 93       	st	X, r18
                if (serRx[x] == 0) {
    279a:	20 81       	ld	r18, Z
    279c:	21 11       	cpse	r18, r1
    279e:	05 c0       	rjmp	.+10     	; 0x27aa <CheckInput+0x1a6>
                    data[x] = 0;
    27a0:	f8 01       	movw	r30, r16
    27a2:	e8 0f       	add	r30, r24
    27a4:	f1 1d       	adc	r31, r1
    27a6:	10 82       	st	Z, r1
                    break;
    27a8:	05 c0       	rjmp	.+10     	; 0x27b4 <CheckInput+0x1b0>
    27aa:	01 96       	adiw	r24, 0x01	; 1
    27ac:	11 96       	adiw	r26, 0x01	; 1
                responseList = SetStandardResponse(0);
                return 1;            
            }
            
            //Read up to the \0 character and convert to lower case.
            for (uint8_t x=0; x<RXLEN; ++x){
    27ae:	81 34       	cpi	r24, 0x41	; 65
    27b0:	91 05       	cpc	r25, r1
    27b2:	29 f7       	brne	.-54     	; 0x277e <CheckInput+0x17a>
                    break;
                }
            }

            //No text
            if (serRx[0] == 0){
    27b4:	80 91 75 3a 	lds	r24, 0x3A75	; 0x803a75 <serRx>
                data[0] = 0;
    27b8:	f8 01       	movw	r30, r16
                    break;
                }
            }

            //No text
            if (serRx[0] == 0){
    27ba:	81 11       	cpse	r24, r1
    27bc:	05 c0       	rjmp	.+10     	; 0x27c8 <CheckInput+0x1c4>
                data[0] = 0;
    27be:	10 82       	st	Z, r1
                RXCNT = 0;
    27c0:	1d ba       	out	0x1d, r1	; 29
                serRxDone = 0;
    27c2:	10 92 44 38 	sts	0x3844, r1	; 0x803844 <serRxDone>
    27c6:	b8 c1       	rjmp	.+880    	; 0x2b38 <CheckInput+0x534>
                return 1;
            }

            //Help text
            if ((data[0] == '?')||(data[0] == 'h')){
    27c8:	80 81       	ld	r24, Z
    27ca:	8f 33       	cpi	r24, 0x3F	; 63
    27cc:	11 f0       	breq	.+4      	; 0x27d2 <CheckInput+0x1ce>
    27ce:	88 36       	cpi	r24, 0x68	; 104
    27d0:	39 f5       	brne	.+78     	; 0x2820 <CheckInput+0x21c>
    return 0;
}

//
void SetResponse(uint8_t number, uint16_t address, uint16_t length, uint8_t type){
    reactStr[0][number]=address;
    27d2:	8b e5       	ldi	r24, 0x5B	; 91
    27d4:	9a e7       	ldi	r25, 0x7A	; 122
    27d6:	80 93 1b 39 	sts	0x391B, r24	; 0x80391b <reactStr>
    27da:	90 93 1c 39 	sts	0x391C, r25	; 0x80391c <reactStr+0x1>
    reactStr[1][number]=length;
    27de:	84 e0       	ldi	r24, 0x04	; 4
    27e0:	90 e0       	ldi	r25, 0x00	; 0
    27e2:	80 93 5b 39 	sts	0x395B, r24	; 0x80395b <reactStr+0x40>
    27e6:	90 93 5c 39 	sts	0x395C, r25	; 0x80395c <reactStr+0x41>
    reactStr[2][number]=type;
    27ea:	81 e0       	ldi	r24, 0x01	; 1
    27ec:	90 e0       	ldi	r25, 0x00	; 0
    27ee:	80 93 9b 39 	sts	0x399B, r24	; 0x80399b <reactStr+0x80>
    27f2:	90 93 9c 39 	sts	0x399C, r25	; 0x80399c <reactStr+0x81>
    return 0;
}

//
void SetResponse(uint8_t number, uint16_t address, uint16_t length, uint8_t type){
    reactStr[0][number]=address;
    27f6:	23 e9       	ldi	r18, 0x93	; 147
    27f8:	3b e7       	ldi	r19, 0x7B	; 123
    27fa:	20 93 1d 39 	sts	0x391D, r18	; 0x80391d <reactStr+0x2>
    27fe:	30 93 1e 39 	sts	0x391E, r19	; 0x80391e <reactStr+0x3>
    reactStr[1][number]=length;
    2802:	2d e6       	ldi	r18, 0x6D	; 109
    2804:	34 e0       	ldi	r19, 0x04	; 4
    2806:	20 93 5d 39 	sts	0x395D, r18	; 0x80395d <reactStr+0x42>
    280a:	30 93 5e 39 	sts	0x395E, r19	; 0x80395e <reactStr+0x43>
    reactStr[2][number]=type;
    280e:	80 93 9d 39 	sts	0x399D, r24	; 0x80399d <reactStr+0x82>
    2812:	90 93 9e 39 	sts	0x399E, r25	; 0x80399e <reactStr+0x83>

            //Help text
            if ((data[0] == '?')||(data[0] == 'h')){
                SetResponse(0, A_LF, 4, TEASER);
                SetResponse(1, A_HELP, L_HELP, TEASER);
                responseList = SetStandardResponse(2);
    2816:	82 e0       	ldi	r24, 0x02	; 2
    2818:	6e dc       	rcall	.-1828   	; 0x20f6 <SetStandardResponse>
    281a:	80 93 1a 39 	sts	0x391A, r24	; 0x80391a <responseList>
    281e:	8c c1       	rjmp	.+792    	; 0x2b38 <CheckInput+0x534>
                return 1;
            }        
        
            //Alphabet text
            if (data[0] == 'a'){
    2820:	81 36       	cpi	r24, 0x61	; 97
    2822:	d9 f4       	brne	.+54     	; 0x285a <CheckInput+0x256>
    return 0;
}

//
void SetResponse(uint8_t number, uint16_t address, uint16_t length, uint8_t type){
    reactStr[0][number]=address;
    2824:	8b e5       	ldi	r24, 0x5B	; 91
    2826:	9a e7       	ldi	r25, 0x7A	; 122
    2828:	80 93 1b 39 	sts	0x391B, r24	; 0x80391b <reactStr>
    282c:	90 93 1c 39 	sts	0x391C, r25	; 0x80391c <reactStr+0x1>
    reactStr[1][number]=length;
    2830:	84 e0       	ldi	r24, 0x04	; 4
    2832:	90 e0       	ldi	r25, 0x00	; 0
    2834:	80 93 5b 39 	sts	0x395B, r24	; 0x80395b <reactStr+0x40>
    2838:	90 93 5c 39 	sts	0x395C, r25	; 0x80395c <reactStr+0x41>
    reactStr[2][number]=type;
    283c:	81 e0       	ldi	r24, 0x01	; 1
    283e:	90 e0       	ldi	r25, 0x00	; 0
    2840:	80 93 9b 39 	sts	0x399B, r24	; 0x80399b <reactStr+0x80>
    2844:	90 93 9c 39 	sts	0x399C, r25	; 0x80399c <reactStr+0x81>
    return 0;
}

//
void SetResponse(uint8_t number, uint16_t address, uint16_t length, uint8_t type){
    reactStr[0][number]=address;
    2848:	2e e6       	ldi	r18, 0x6E	; 110
    284a:	3a e7       	ldi	r19, 0x7A	; 122
    284c:	20 93 1d 39 	sts	0x391D, r18	; 0x80391d <reactStr+0x2>
    2850:	30 93 1e 39 	sts	0x391E, r19	; 0x80391e <reactStr+0x3>
    reactStr[1][number]=length;
    2854:	25 e2       	ldi	r18, 0x25	; 37
    2856:	31 e0       	ldi	r19, 0x01	; 1
    2858:	d6 cf       	rjmp	.-84     	; 0x2806 <CheckInput+0x202>
                responseList = SetStandardResponse(2);
                return 1;
            }

            //Whoami text
            if (data[0] == 'w'){
    285a:	87 37       	cpi	r24, 0x77	; 119
    285c:	09 f0       	breq	.+2      	; 0x2860 <CheckInput+0x25c>
    285e:	6e c0       	rjmp	.+220    	; 0x293c <CheckInput+0x338>
    return 0;
}

//
void SetResponse(uint8_t number, uint16_t address, uint16_t length, uint8_t type){
    reactStr[0][number]=address;
    2860:	8b e5       	ldi	r24, 0x5B	; 91
    2862:	9a e7       	ldi	r25, 0x7A	; 122
    2864:	80 93 1b 39 	sts	0x391B, r24	; 0x80391b <reactStr>
    2868:	90 93 1c 39 	sts	0x391C, r25	; 0x80391c <reactStr+0x1>
    reactStr[1][number]=length;
    286c:	84 e0       	ldi	r24, 0x04	; 4
    286e:	90 e0       	ldi	r25, 0x00	; 0
    2870:	80 93 5b 39 	sts	0x395B, r24	; 0x80395b <reactStr+0x40>
    2874:	90 93 5c 39 	sts	0x395C, r25	; 0x80395c <reactStr+0x41>
    reactStr[2][number]=type;
    2878:	21 e0       	ldi	r18, 0x01	; 1
    287a:	30 e0       	ldi	r19, 0x00	; 0
    287c:	20 93 9b 39 	sts	0x399B, r18	; 0x80399b <reactStr+0x80>
    2880:	30 93 9c 39 	sts	0x399C, r19	; 0x80399c <reactStr+0x81>
    return 0;
}

//
void SetResponse(uint8_t number, uint16_t address, uint16_t length, uint8_t type){
    reactStr[0][number]=address;
    2884:	8a ec       	ldi	r24, 0xCA	; 202
    2886:	96 e7       	ldi	r25, 0x76	; 118
    2888:	80 93 1d 39 	sts	0x391D, r24	; 0x80391d <reactStr+0x2>
    288c:	90 93 1e 39 	sts	0x391E, r25	; 0x80391e <reactStr+0x3>
    reactStr[1][number]=length;
    2890:	82 e1       	ldi	r24, 0x12	; 18
    2892:	90 e0       	ldi	r25, 0x00	; 0
    2894:	80 93 5d 39 	sts	0x395D, r24	; 0x80395d <reactStr+0x42>
    2898:	90 93 5e 39 	sts	0x395E, r25	; 0x80395e <reactStr+0x43>
    reactStr[2][number]=type;
    289c:	20 93 9d 39 	sts	0x399D, r18	; 0x80399d <reactStr+0x82>
    28a0:	30 93 9e 39 	sts	0x399E, r19	; 0x80399e <reactStr+0x83>

            //Whoami text
            if (data[0] == 'w'){
                SetResponse(0, A_LF, 4, TEASER);
                SetResponse(1, A_HELLO, L_HELLO, TEASER);
                if (whoami == 1) {
    28a4:	80 91 3d 38 	lds	r24, 0x383D	; 0x80383d <whoami>
    28a8:	81 30       	cpi	r24, 0x01	; 1
    28aa:	19 f4       	brne	.+6      	; 0x28b2 <CheckInput+0x2ae>
    return 0;
}

//
void SetResponse(uint8_t number, uint16_t address, uint16_t length, uint8_t type){
    reactStr[0][number]=address;
    28ac:	84 ec       	ldi	r24, 0xC4	; 196
    28ae:	96 e7       	ldi	r25, 0x76	; 118
    28b0:	0f c0       	rjmp	.+30     	; 0x28d0 <CheckInput+0x2cc>
            if (data[0] == 'w'){
                SetResponse(0, A_LF, 4, TEASER);
                SetResponse(1, A_HELLO, L_HELLO, TEASER);
                if (whoami == 1) {
                    SetResponse(2, A_ANUBIS, L_ANUBIS, TEASER);
                } else if (whoami == 2) {
    28b2:	82 30       	cpi	r24, 0x02	; 2
    28b4:	49 f4       	brne	.+18     	; 0x28c8 <CheckInput+0x2c4>
    return 0;
}

//
void SetResponse(uint8_t number, uint16_t address, uint16_t length, uint8_t type){
    reactStr[0][number]=address;
    28b6:	81 ec       	ldi	r24, 0xC1	; 193
    28b8:	96 e7       	ldi	r25, 0x76	; 118
    28ba:	80 93 1f 39 	sts	0x391F, r24	; 0x80391f <reactStr+0x4>
    28be:	90 93 20 39 	sts	0x3920, r25	; 0x803920 <reactStr+0x5>
    reactStr[1][number]=length;
    28c2:	83 e0       	ldi	r24, 0x03	; 3
    28c4:	90 e0       	ldi	r25, 0x00	; 0
    28c6:	1e c0       	rjmp	.+60     	; 0x2904 <CheckInput+0x300>
                SetResponse(1, A_HELLO, L_HELLO, TEASER);
                if (whoami == 1) {
                    SetResponse(2, A_ANUBIS, L_ANUBIS, TEASER);
                } else if (whoami == 2) {
                    SetResponse(2, A_BES, L_BES, TEASER);
                } else if (whoami == 3) {
    28c8:	83 30       	cpi	r24, 0x03	; 3
    28ca:	49 f4       	brne	.+18     	; 0x28de <CheckInput+0x2da>
    return 0;
}

//
void SetResponse(uint8_t number, uint16_t address, uint16_t length, uint8_t type){
    reactStr[0][number]=address;
    28cc:	8b eb       	ldi	r24, 0xBB	; 187
    28ce:	96 e7       	ldi	r25, 0x76	; 118
    28d0:	80 93 1f 39 	sts	0x391F, r24	; 0x80391f <reactStr+0x4>
    28d4:	90 93 20 39 	sts	0x3920, r25	; 0x803920 <reactStr+0x5>
    reactStr[1][number]=length;
    28d8:	86 e0       	ldi	r24, 0x06	; 6
    28da:	90 e0       	ldi	r25, 0x00	; 0
    28dc:	13 c0       	rjmp	.+38     	; 0x2904 <CheckInput+0x300>
                    SetResponse(2, A_ANUBIS, L_ANUBIS, TEASER);
                } else if (whoami == 2) {
                    SetResponse(2, A_BES, L_BES, TEASER);
                } else if (whoami == 3) {
                    SetResponse(2, A_KHONSU, L_KHONSU, TEASER);
                } else if (whoami == 4) {
    28de:	84 30       	cpi	r24, 0x04	; 4
    28e0:	49 f4       	brne	.+18     	; 0x28f4 <CheckInput+0x2f0>
    return 0;
}

//
void SetResponse(uint8_t number, uint16_t address, uint16_t length, uint8_t type){
    reactStr[0][number]=address;
    28e2:	86 eb       	ldi	r24, 0xB6	; 182
    28e4:	96 e7       	ldi	r25, 0x76	; 118
    28e6:	80 93 1f 39 	sts	0x391F, r24	; 0x80391f <reactStr+0x4>
    28ea:	90 93 20 39 	sts	0x3920, r25	; 0x803920 <reactStr+0x5>
    reactStr[1][number]=length;
    28ee:	85 e0       	ldi	r24, 0x05	; 5
    28f0:	90 e0       	ldi	r25, 0x00	; 0
    28f2:	08 c0       	rjmp	.+16     	; 0x2904 <CheckInput+0x300>
    return 0;
}

//
void SetResponse(uint8_t number, uint16_t address, uint16_t length, uint8_t type){
    reactStr[0][number]=address;
    28f4:	8f e3       	ldi	r24, 0x3F	; 63
    28f6:	96 e7       	ldi	r25, 0x76	; 118
    28f8:	80 93 1f 39 	sts	0x391F, r24	; 0x80391f <reactStr+0x4>
    28fc:	90 93 20 39 	sts	0x3920, r25	; 0x803920 <reactStr+0x5>
    reactStr[1][number]=length;
    2900:	82 e4       	ldi	r24, 0x42	; 66
    2902:	90 e0       	ldi	r25, 0x00	; 0
    2904:	80 93 5f 39 	sts	0x395F, r24	; 0x80395f <reactStr+0x44>
    2908:	90 93 60 39 	sts	0x3960, r25	; 0x803960 <reactStr+0x45>
    reactStr[2][number]=type;
    290c:	20 93 9f 39 	sts	0x399F, r18	; 0x80399f <reactStr+0x84>
    2910:	30 93 a0 39 	sts	0x39A0, r19	; 0x8039a0 <reactStr+0x85>
    return 0;
}

//
void SetResponse(uint8_t number, uint16_t address, uint16_t length, uint8_t type){
    reactStr[0][number]=address;
    2914:	8c e9       	ldi	r24, 0x9C	; 156
    2916:	96 e7       	ldi	r25, 0x76	; 118
    2918:	80 93 21 39 	sts	0x3921, r24	; 0x803921 <reactStr+0x6>
    291c:	90 93 22 39 	sts	0x3922, r25	; 0x803922 <reactStr+0x7>
    reactStr[1][number]=length;
    2920:	8a e1       	ldi	r24, 0x1A	; 26
    2922:	90 e0       	ldi	r25, 0x00	; 0
    2924:	80 93 61 39 	sts	0x3961, r24	; 0x803961 <reactStr+0x46>
    2928:	90 93 62 39 	sts	0x3962, r25	; 0x803962 <reactStr+0x47>
    reactStr[2][number]=type;
    292c:	81 e0       	ldi	r24, 0x01	; 1
    292e:	90 e0       	ldi	r25, 0x00	; 0
    2930:	80 93 a1 39 	sts	0x39A1, r24	; 0x8039a1 <reactStr+0x86>
    2934:	90 93 a2 39 	sts	0x39A2, r25	; 0x8039a2 <reactStr+0x87>
                    SetResponse(2, A_THOTH, L_THOTH, TEASER);
                } else {
                    SetResponse(2, A_ERROR, L_ERROR, TEASER);
                }
                SetResponse(3, A_PLEASED, L_PLEASED, TEASER);
                responseList = SetStandardResponse(4);
    2938:	84 e0       	ldi	r24, 0x04	; 4
    293a:	6e cf       	rjmp	.-292    	; 0x2818 <CheckInput+0x214>
                return 1;
            }

            //Quit text
            if (data[0] == 'q'){
    293c:	81 37       	cpi	r24, 0x71	; 113
    293e:	d9 f4       	brne	.+54     	; 0x2976 <CheckInput+0x372>
    return 0;
}

//
void SetResponse(uint8_t number, uint16_t address, uint16_t length, uint8_t type){
    reactStr[0][number]=address;
    2940:	8b e5       	ldi	r24, 0x5B	; 91
    2942:	9a e7       	ldi	r25, 0x7A	; 122
    2944:	80 93 1b 39 	sts	0x391B, r24	; 0x80391b <reactStr>
    2948:	90 93 1c 39 	sts	0x391C, r25	; 0x80391c <reactStr+0x1>
    reactStr[1][number]=length;
    294c:	84 e0       	ldi	r24, 0x04	; 4
    294e:	90 e0       	ldi	r25, 0x00	; 0
    2950:	80 93 5b 39 	sts	0x395B, r24	; 0x80395b <reactStr+0x40>
    2954:	90 93 5c 39 	sts	0x395C, r25	; 0x80395c <reactStr+0x41>
    reactStr[2][number]=type;
    2958:	81 e0       	ldi	r24, 0x01	; 1
    295a:	90 e0       	ldi	r25, 0x00	; 0
    295c:	80 93 9b 39 	sts	0x399B, r24	; 0x80399b <reactStr+0x80>
    2960:	90 93 9c 39 	sts	0x399C, r25	; 0x80399c <reactStr+0x81>
    return 0;
}

//
void SetResponse(uint8_t number, uint16_t address, uint16_t length, uint8_t type){
    reactStr[0][number]=address;
    2964:	22 e0       	ldi	r18, 0x02	; 2
    2966:	3a e7       	ldi	r19, 0x7A	; 122
    2968:	20 93 1d 39 	sts	0x391D, r18	; 0x80391d <reactStr+0x2>
    296c:	30 93 1e 39 	sts	0x391E, r19	; 0x80391e <reactStr+0x3>
    reactStr[1][number]=length;
    2970:	25 e5       	ldi	r18, 0x55	; 85
    2972:	30 e0       	ldi	r19, 0x00	; 0
                responseList = SetStandardResponse(2);
                return 1;
            }

            //Fake cheat = reset badge!
            if (StartsWith(&data[0], "iddqd")){
    2974:	48 cf       	rjmp	.-368    	; 0x2806 <CheckInput+0x202>
    2976:	62 eb       	ldi	r22, 0xB2	; 178
    2978:	7e eb       	ldi	r23, 0xBE	; 190
    297a:	c8 01       	movw	r24, r16
    297c:	65 db       	rcall	.-2358   	; 0x2048 <StartsWith>
    297e:	88 23       	and	r24, r24
    2980:	f9 f0       	breq	.+62     	; 0x29c0 <CheckInput+0x3bc>
    2982:	1e e6       	ldi	r17, 0x6E	; 110
            
                //Reset game data by wiping the UUID bits
                for (uint8_t x=0; x<4; ++x){
                    WriteStatusBit(110+x, 0);
    2984:	60 e0       	ldi	r22, 0x00	; 0
    2986:	81 2f       	mov	r24, r17
    2988:	0e 94 37 0a 	call	0x146e	; 0x146e <WriteStatusBit>
    298c:	1f 5f       	subi	r17, 0xFF	; 255

            //Fake cheat = reset badge!
            if (StartsWith(&data[0], "iddqd")){
            
                //Reset game data by wiping the UUID bits
                for (uint8_t x=0; x<4; ++x){
    298e:	12 37       	cpi	r17, 0x72	; 114
    2990:	c9 f7       	brne	.-14     	; 0x2984 <CheckInput+0x380>
                    WriteStatusBit(110+x, 0);
                }
                SaveGameState();
    2992:	0e 94 b0 09 	call	0x1360	; 0x1360 <SaveGameState>

                uint8_t cheat[] = "Cheater! Contact badge team... ";
    2996:	80 e2       	ldi	r24, 0x20	; 32
    2998:	e5 ef       	ldi	r30, 0xF5	; 245
    299a:	fe eb       	ldi	r31, 0xBE	; 190
    299c:	de 01       	movw	r26, r28
    299e:	11 96       	adiw	r26, 0x01	; 1
    29a0:	01 90       	ld	r0, Z+
    29a2:	0d 92       	st	X+, r0
    29a4:	8a 95       	dec	r24
    29a6:	e1 f7       	brne	.-8      	; 0x29a0 <CheckInput+0x39c>
                SerSpeed(60);
    29a8:	8c e3       	ldi	r24, 0x3C	; 60
    29aa:	0e 94 d0 08 	call	0x11a0	; 0x11a0 <SerSpeed>
                while(1){
                    if (serTxDone) SerSend(&cheat[0]);
    29ae:	80 91 09 38 	lds	r24, 0x3809	; 0x803809 <serTxDone>
    29b2:	88 23       	and	r24, r24
    29b4:	e1 f3       	breq	.-8      	; 0x29ae <CheckInput+0x3aa>
    29b6:	ce 01       	movw	r24, r28
    29b8:	01 96       	adiw	r24, 0x01	; 1
    29ba:	0e 94 bf 08 	call	0x117e	; 0x117e <SerSend>
                }
            }
            
            //Cheat reset (Quote from: Donald E. Westlake)
            if (StartsWith(&data[0], "the trouble with real life is, there's no reset button")){
    29be:	f7 cf       	rjmp	.-18     	; 0x29ae <CheckInput+0x3aa>
    29c0:	68 eb       	ldi	r22, 0xB8	; 184
    29c2:	7e eb       	ldi	r23, 0xBE	; 190
    29c4:	c8 01       	movw	r24, r16
    29c6:	40 db       	rcall	.-2432   	; 0x2048 <StartsWith>
    29c8:	88 23       	and	r24, r24
    29ca:	61 f1       	breq	.+88     	; 0x2a24 <CheckInput+0x420>
                
                //Reset cheat data by resetting the EEPROM bytes
                uint8_t empty=0xff;
    29cc:	8f ef       	ldi	r24, 0xFF	; 255
    29ce:	89 a3       	std	Y+33, r24	; 0x21
    29d0:	18 e1       	ldi	r17, 0x18	; 24
                for (uint8_t x=0; x<MAX_CHEATS; ++x){
                    EEWrite(CHEATS+x, &empty, 1);
    29d2:	41 e0       	ldi	r20, 0x01	; 1
    29d4:	be 01       	movw	r22, r28
    29d6:	6f 5d       	subi	r22, 0xDF	; 223
    29d8:	7f 4f       	sbci	r23, 0xFF	; 255
    29da:	81 2f       	mov	r24, r17
    29dc:	0e 94 97 08 	call	0x112e	; 0x112e <EEWrite>
    29e0:	1f 5f       	subi	r17, 0xFF	; 255
            //Cheat reset (Quote from: Donald E. Westlake)
            if (StartsWith(&data[0], "the trouble with real life is, there's no reset button")){
                
                //Reset cheat data by resetting the EEPROM bytes
                uint8_t empty=0xff;
                for (uint8_t x=0; x<MAX_CHEATS; ++x){
    29e2:	10 32       	cpi	r17, 0x20	; 32
    29e4:	b1 f7       	brne	.-20     	; 0x29d2 <CheckInput+0x3ce>
    29e6:	1e e6       	ldi	r17, 0x6E	; 110
                    EEWrite(CHEATS+x, &empty, 1);
                }
                //Reset game data by wiping the UUID bits
                for (uint8_t x=0; x<4; ++x){
                    WriteStatusBit(110+x, 0);
    29e8:	60 e0       	ldi	r22, 0x00	; 0
    29ea:	81 2f       	mov	r24, r17
    29ec:	0e 94 37 0a 	call	0x146e	; 0x146e <WriteStatusBit>
    29f0:	1f 5f       	subi	r17, 0xFF	; 255
                uint8_t empty=0xff;
                for (uint8_t x=0; x<MAX_CHEATS; ++x){
                    EEWrite(CHEATS+x, &empty, 1);
                }
                //Reset game data by wiping the UUID bits
                for (uint8_t x=0; x<4; ++x){
    29f2:	12 37       	cpi	r17, 0x72	; 114
    29f4:	c9 f7       	brne	.-14     	; 0x29e8 <CheckInput+0x3e4>
                    WriteStatusBit(110+x, 0);
                }
                
                SaveGameState();
    29f6:	0e 94 b0 09 	call	0x1360	; 0x1360 <SaveGameState>

                uint8_t cheat[] = "Reset please! ";
    29fa:	8f e0       	ldi	r24, 0x0F	; 15
    29fc:	e5 e1       	ldi	r30, 0x15	; 21
    29fe:	ff eb       	ldi	r31, 0xBF	; 191
    2a00:	de 01       	movw	r26, r28
    2a02:	11 96       	adiw	r26, 0x01	; 1
    2a04:	01 90       	ld	r0, Z+
    2a06:	0d 92       	st	X+, r0
    2a08:	8a 95       	dec	r24
    2a0a:	e1 f7       	brne	.-8      	; 0x2a04 <CheckInput+0x400>
                SerSpeed(60);
    2a0c:	8c e3       	ldi	r24, 0x3C	; 60
    2a0e:	0e 94 d0 08 	call	0x11a0	; 0x11a0 <SerSpeed>
                while(1){
                    if (serTxDone) SerSend(&cheat[0]);
    2a12:	80 91 09 38 	lds	r24, 0x3809	; 0x803809 <serTxDone>
    2a16:	88 23       	and	r24, r24
    2a18:	e1 f3       	breq	.-8      	; 0x2a12 <CheckInput+0x40e>
    2a1a:	ce 01       	movw	r24, r28
    2a1c:	01 96       	adiw	r24, 0x01	; 1
    2a1e:	0e 94 bf 08 	call	0x117e	; 0x117e <SerSend>
                }
            }
            if (StartsWith(&data[0], "cheat")){
    2a22:	f7 cf       	rjmp	.-18     	; 0x2a12 <CheckInput+0x40e>
    2a24:	6f ee       	ldi	r22, 0xEF	; 239
    2a26:	7e eb       	ldi	r23, 0xBE	; 190
    2a28:	c8 01       	movw	r24, r16
    2a2a:	0e db       	rcall	.-2532   	; 0x2048 <StartsWith>
    2a2c:	88 23       	and	r24, r24
    2a2e:	09 f4       	brne	.+2      	; 0x2a32 <CheckInput+0x42e>
    2a30:	2c ce       	rjmp	.-936    	; 0x268a <CheckInput+0x86>
                //int8_t n;
                uint8_t bit, digit[3] = {0,0,0};
    2a32:	19 82       	std	Y+1, r1	; 0x01
    2a34:	1a 82       	std	Y+2, r1	; 0x02
    2a36:	1b 82       	std	Y+3, r1	; 0x03
    2a38:	8b e1       	ldi	r24, 0x1B	; 27
    2a3a:	c8 2e       	mov	r12, r24
    2a3c:	89 e3       	ldi	r24, 0x39	; 57
    2a3e:	d8 2e       	mov	r13, r24
    2a40:	9b e5       	ldi	r25, 0x5B	; 91
    2a42:	e9 2e       	mov	r14, r25
    2a44:	99 e3       	ldi	r25, 0x39	; 57
    2a46:	f9 2e       	mov	r15, r25
    2a48:	0b e9       	ldi	r16, 0x9B	; 155
    2a4a:	19 e3       	ldi	r17, 0x39	; 57
    2a4c:	28 e1       	ldi	r18, 0x18	; 24
    2a4e:	32 2e       	mov	r3, r18
    return 0;
}

//
void SetResponse(uint8_t number, uint16_t address, uint16_t length, uint8_t type){
    reactStr[0][number]=address;
    2a50:	3a ed       	ldi	r19, 0xDA	; 218
    2a52:	63 2e       	mov	r6, r19
    2a54:	34 e7       	ldi	r19, 0x74	; 116
    2a56:	73 2e       	mov	r7, r19
    reactStr[1][number]=length;
    2a58:	42 e0       	ldi	r20, 0x02	; 2
    2a5a:	84 2e       	mov	r8, r20
    2a5c:	91 2c       	mov	r9, r1
    reactStr[2][number]=type;
    2a5e:	aa 24       	eor	r10, r10
    2a60:	a3 94       	inc	r10
    2a62:	b1 2c       	mov	r11, r1
    return 0;
}

//
void SetResponse(uint8_t number, uint16_t address, uint16_t length, uint8_t type){
    reactStr[0][number]=address;
    2a64:	69 e5       	ldi	r22, 0x59	; 89
    2a66:	46 2e       	mov	r4, r22
    2a68:	6a e7       	ldi	r22, 0x7A	; 122
    2a6a:	56 2e       	mov	r5, r22
                uint8_t bit, digit[3] = {0,0,0};

                for (uint8_t x=0; x<MAX_CHEATS; ++x){
                    
                    //Set up sending out number
                    EERead(CHEATS+x, &bit, 1);
    2a6c:	41 e0       	ldi	r20, 0x01	; 1
    2a6e:	be 01       	movw	r22, r28
    2a70:	6f 5d       	subi	r22, 0xDF	; 223
    2a72:	7f 4f       	sbci	r23, 0xFF	; 255
    2a74:	83 2d       	mov	r24, r3
    2a76:	0e 94 87 08 	call	0x110e	; 0x110e <EERead>
                    bit = 0xff-bit;
    2a7a:	89 a1       	ldd	r24, Y+33	; 0x21
    2a7c:	80 95       	com	r24
    2a7e:	89 a3       	std	Y+33, r24	; 0x21
    return 0;
}

//
void SetResponse(uint8_t number, uint16_t address, uint16_t length, uint8_t type){
    reactStr[0][number]=address;
    2a80:	f6 01       	movw	r30, r12
    2a82:	60 82       	st	Z, r6
    2a84:	71 82       	std	Z+1, r7	; 0x01
    reactStr[1][number]=length;
    2a86:	f7 01       	movw	r30, r14
    2a88:	80 82       	st	Z, r8
    2a8a:	91 82       	std	Z+1, r9	; 0x01
    reactStr[2][number]=type;
    2a8c:	f8 01       	movw	r30, r16
    2a8e:	a0 82       	st	Z, r10
    2a90:	b1 82       	std	Z+1, r11	; 0x01
                    for (n=0; n<3; ++n) {
                        SetResponse(x*4+n, A_DIGITS+digit[n], 1, TEASER);
                    } 
                    */
                    SetResponse(x*4, A_HEXPREFIX, L_HEXPREFIX, TEASER);
                    SetResponse(x*4+1, A_DIGITS+digit[bit>>4], 1, TEASER);               
    2a92:	98 2f       	mov	r25, r24
    2a94:	92 95       	swap	r25
    2a96:	9f 70       	andi	r25, 0x0F	; 15
    2a98:	e1 e0       	ldi	r30, 0x01	; 1
    2a9a:	f0 e0       	ldi	r31, 0x00	; 0
    2a9c:	ec 0f       	add	r30, r28
    2a9e:	fd 1f       	adc	r31, r29
    2aa0:	e9 0f       	add	r30, r25
    2aa2:	f1 1d       	adc	r31, r1
    return 0;
}

//
void SetResponse(uint8_t number, uint16_t address, uint16_t length, uint8_t type){
    reactStr[0][number]=address;
    2aa4:	20 81       	ld	r18, Z
    2aa6:	30 e0       	ldi	r19, 0x00	; 0
    2aa8:	26 53       	subi	r18, 0x36	; 54
    2aaa:	3b 48       	sbci	r19, 0x8B	; 139
    2aac:	f6 01       	movw	r30, r12
    2aae:	22 83       	std	Z+2, r18	; 0x02
    2ab0:	33 83       	std	Z+3, r19	; 0x03
    reactStr[1][number]=length;
    2ab2:	f7 01       	movw	r30, r14
    2ab4:	a2 82       	std	Z+2, r10	; 0x02
    2ab6:	b3 82       	std	Z+3, r11	; 0x03
    reactStr[2][number]=type;
    2ab8:	f8 01       	movw	r30, r16
    2aba:	a2 82       	std	Z+2, r10	; 0x02
    2abc:	b3 82       	std	Z+3, r11	; 0x03
                        SetResponse(x*4+n, A_DIGITS+digit[n], 1, TEASER);
                    } 
                    */
                    SetResponse(x*4, A_HEXPREFIX, L_HEXPREFIX, TEASER);
                    SetResponse(x*4+1, A_DIGITS+digit[bit>>4], 1, TEASER);               
                    SetResponse(x*4+2, A_DIGITS+digit[bit%16], 1, TEASER);
    2abe:	8f 70       	andi	r24, 0x0F	; 15
    2ac0:	e1 e0       	ldi	r30, 0x01	; 1
    2ac2:	f0 e0       	ldi	r31, 0x00	; 0
    2ac4:	ec 0f       	add	r30, r28
    2ac6:	fd 1f       	adc	r31, r29
    2ac8:	e8 0f       	add	r30, r24
    2aca:	f1 1d       	adc	r31, r1
    return 0;
}

//
void SetResponse(uint8_t number, uint16_t address, uint16_t length, uint8_t type){
    reactStr[0][number]=address;
    2acc:	80 81       	ld	r24, Z
    2ace:	90 e0       	ldi	r25, 0x00	; 0
    2ad0:	86 53       	subi	r24, 0x36	; 54
    2ad2:	9b 48       	sbci	r25, 0x8B	; 139
    2ad4:	f6 01       	movw	r30, r12
    2ad6:	84 83       	std	Z+4, r24	; 0x04
    2ad8:	95 83       	std	Z+5, r25	; 0x05
    reactStr[1][number]=length;
    2ada:	f7 01       	movw	r30, r14
    2adc:	a4 82       	std	Z+4, r10	; 0x04
    2ade:	b5 82       	std	Z+5, r11	; 0x05
    reactStr[2][number]=type;
    2ae0:	f8 01       	movw	r30, r16
    2ae2:	a4 82       	std	Z+4, r10	; 0x04
    2ae4:	b5 82       	std	Z+5, r11	; 0x05
    return 0;
}

//
void SetResponse(uint8_t number, uint16_t address, uint16_t length, uint8_t type){
    reactStr[0][number]=address;
    2ae6:	f6 01       	movw	r30, r12
    2ae8:	46 82       	std	Z+6, r4	; 0x06
    2aea:	57 82       	std	Z+7, r5	; 0x07
    reactStr[1][number]=length;
    2aec:	f7 01       	movw	r30, r14
    2aee:	86 82       	std	Z+6, r8	; 0x06
    2af0:	97 82       	std	Z+7, r9	; 0x07
    reactStr[2][number]=type;
    2af2:	f8 01       	movw	r30, r16
    2af4:	a6 82       	std	Z+6, r10	; 0x06
    2af6:	b7 82       	std	Z+7, r11	; 0x07
    2af8:	33 94       	inc	r3
    2afa:	f8 e0       	ldi	r31, 0x08	; 8
    2afc:	cf 0e       	add	r12, r31
    2afe:	d1 1c       	adc	r13, r1
    2b00:	88 e0       	ldi	r24, 0x08	; 8
    2b02:	e8 0e       	add	r14, r24
    2b04:	f1 1c       	adc	r15, r1
    2b06:	08 5f       	subi	r16, 0xF8	; 248
    2b08:	1f 4f       	sbci	r17, 0xFF	; 255
            }
            if (StartsWith(&data[0], "cheat")){
                //int8_t n;
                uint8_t bit, digit[3] = {0,0,0};

                for (uint8_t x=0; x<MAX_CHEATS; ++x){
    2b0a:	e0 e2       	ldi	r30, 0x20	; 32
    2b0c:	3e 12       	cpse	r3, r30
    2b0e:	ae cf       	rjmp	.-164    	; 0x2a6c <CheckInput+0x468>
    return 0;
}

//
void SetResponse(uint8_t number, uint16_t address, uint16_t length, uint8_t type){
    reactStr[0][number]=address;
    2b10:	8b e5       	ldi	r24, 0x5B	; 91
    2b12:	9a e7       	ldi	r25, 0x7A	; 122
    2b14:	80 93 59 39 	sts	0x3959, r24	; 0x803959 <reactStr+0x3e>
    2b18:	90 93 5a 39 	sts	0x395A, r25	; 0x80395a <reactStr+0x3f>
    reactStr[1][number]=length;
    2b1c:	84 e0       	ldi	r24, 0x04	; 4
    2b1e:	90 e0       	ldi	r25, 0x00	; 0
    2b20:	80 93 99 39 	sts	0x3999, r24	; 0x803999 <reactStr+0x7e>
    2b24:	90 93 9a 39 	sts	0x399A, r25	; 0x80399a <reactStr+0x7f>
    reactStr[2][number]=type;
    2b28:	81 e0       	ldi	r24, 0x01	; 1
    2b2a:	90 e0       	ldi	r25, 0x00	; 0
    2b2c:	80 93 d9 39 	sts	0x39D9, r24	; 0x8039d9 <reactStr+0xbe>
    2b30:	90 93 da 39 	sts	0x39DA, r25	; 0x8039da <reactStr+0xbf>
                    SetResponse(x*4+1, A_DIGITS+digit[bit>>4], 1, TEASER);               
                    SetResponse(x*4+2, A_DIGITS+digit[bit%16], 1, TEASER);
                    SetResponse(x*4+3, A_COMMA, L_COMMA, TEASER);
                }
                SetResponse((4*MAX_CHEATS)-1, A_LF, 4, TEASER);
                responseList = 32;
    2b34:	30 92 1a 39 	sts	0x391A, r3	; 0x80391a <responseList>
        //Data received, but not any of the commands above
        return 0;
    }

    //Serial input not available yet
    return 1;
    2b38:	ff 24       	eor	r15, r15
    2b3a:	f3 94       	inc	r15
}
    2b3c:	8f 2d       	mov	r24, r15
    2b3e:	a1 96       	adiw	r28, 0x21	; 33
    2b40:	cd bf       	out	0x3d, r28	; 61
    2b42:	de bf       	out	0x3e, r29	; 62
    2b44:	df 91       	pop	r29
    2b46:	cf 91       	pop	r28
    2b48:	1f 91       	pop	r17
    2b4a:	0f 91       	pop	r16
    2b4c:	ff 90       	pop	r15
    2b4e:	ef 90       	pop	r14
    2b50:	df 90       	pop	r13
    2b52:	cf 90       	pop	r12
    2b54:	bf 90       	pop	r11
    2b56:	af 90       	pop	r10
    2b58:	9f 90       	pop	r9
    2b5a:	8f 90       	pop	r8
    2b5c:	7f 90       	pop	r7
    2b5e:	6f 90       	pop	r6
    2b60:	5f 90       	pop	r5
    2b62:	4f 90       	pop	r4
    2b64:	3f 90       	pop	r3
    2b66:	08 95       	ret

00002b68 <ProcessInput>:

//The game logic!
uint8_t ProcessInput(uint8_t *data){
    2b68:	5f 92       	push	r5
    2b6a:	6f 92       	push	r6
    2b6c:	7f 92       	push	r7
    2b6e:	8f 92       	push	r8
    2b70:	9f 92       	push	r9
    2b72:	af 92       	push	r10
    2b74:	bf 92       	push	r11
    2b76:	cf 92       	push	r12
    2b78:	df 92       	push	r13
    2b7a:	ef 92       	push	r14
    2b7c:	ff 92       	push	r15
    2b7e:	0f 93       	push	r16
    2b80:	1f 93       	push	r17
    2b82:	cf 93       	push	r28
    2b84:	df 93       	push	r29
    2b86:	cd b7       	in	r28, 0x3d	; 61
    2b88:	de b7       	in	r29, 0x3e	; 62
    2b8a:	28 97       	sbiw	r28, 0x08	; 8
    2b8c:	cd bf       	out	0x3d, r28	; 61
    2b8e:	de bf       	out	0x3e, r29	; 62
    2b90:	8c 01       	movw	r16, r24
    static object_model_t actObj1, actObj2;
    uint8_t elements = 1;

    CleanInput(&data[0]);
    2b92:	60 dc       	rcall	.-1856   	; 0x2454 <CleanInput>
    uint8_t inputLen = CleanInput(&data[0]);
    2b94:	c8 01       	movw	r24, r16
    2b96:	5e dc       	rcall	.-1860   	; 0x2454 <CleanInput>
    2b98:	f8 2e       	mov	r15, r24

    if (inputLen) {
    2b9a:	88 23       	and	r24, r24
    2b9c:	09 f4       	brne	.+2      	; 0x2ba0 <ProcessInput+0x38>
    2b9e:	fc c7       	rjmp	.+4088   	; 0x3b98 <ProcessInput+0x1030>

        //eXit to previous location
        if (data[0] == 'x'){
    2ba0:	d8 01       	movw	r26, r16
    2ba2:	8c 91       	ld	r24, X
    2ba4:	88 37       	cpi	r24, 0x78	; 120
    2ba6:	09 f0       	breq	.+2      	; 0x2baa <ProcessInput+0x42>
    2ba8:	45 c0       	rjmp	.+138    	; 0x2c34 <ProcessInput+0xcc>

            //Standing in the Lobby?
            if ((route[currDepth] == 0)||(currDepth == 0)){
    2baa:	80 91 2c 38 	lds	r24, 0x382C	; 0x80382c <currDepth>
    2bae:	e8 2f       	mov	r30, r24
    2bb0:	f0 e0       	ldi	r31, 0x00	; 0
    2bb2:	ee 0f       	add	r30, r30
    2bb4:	ff 1f       	adc	r31, r31
    2bb6:	e5 52       	subi	r30, 0x25	; 37
    2bb8:	f6 4c       	sbci	r31, 0xC6	; 198
    2bba:	20 81       	ld	r18, Z
    2bbc:	31 81       	ldd	r19, Z+1	; 0x01
    2bbe:	23 2b       	or	r18, r19
    2bc0:	11 f0       	breq	.+4      	; 0x2bc6 <ProcessInput+0x5e>
    2bc2:	81 11       	cpse	r24, r1
    2bc4:	03 c0       	rjmp	.+6      	; 0x2bcc <ProcessInput+0x64>
    return 0;
}

//
void SetResponse(uint8_t number, uint16_t address, uint16_t length, uint8_t type){
    reactStr[0][number]=address;
    2bc6:	81 e8       	ldi	r24, 0x81	; 129
    2bc8:	96 e7       	ldi	r25, 0x76	; 118
    2bca:	a1 c5       	rjmp	.+2882   	; 0x370e <ProcessInput+0xba6>
            //Standing in the Lobby?
            if ((route[currDepth] == 0)||(currDepth == 0)){
                SetResponse(elements++, A_NOTPOSSIBLE, L_NOTPOSSIBLE, TEASER);
            
            //Is there a way to go back?
            } else if (CheckState(currObj.byteField[OPEN_ACL])){
    2bcc:	80 91 21 3a 	lds	r24, 0x3A21	; 0x803a21 <currObj+0x6>
    2bd0:	0e 94 5b 0a 	call	0x14b6	; 0x14b6 <CheckState>
    2bd4:	88 23       	and	r24, r24
    2bd6:	b9 f0       	breq	.+46     	; 0x2c06 <ProcessInput+0x9e>
                --currDepth;
    2bd8:	e0 91 2c 38 	lds	r30, 0x382C	; 0x80382c <currDepth>
    2bdc:	e1 50       	subi	r30, 0x01	; 1
    2bde:	e0 93 2c 38 	sts	0x382C, r30	; 0x80382c <currDepth>
                PopulateObject(route[currDepth], &currObj);
    2be2:	f0 e0       	ldi	r31, 0x00	; 0
    2be4:	ee 0f       	add	r30, r30
    2be6:	ff 1f       	adc	r31, r31
    2be8:	e5 52       	subi	r30, 0x25	; 37
    2bea:	f6 4c       	sbci	r31, 0xC6	; 198
    2bec:	6b e1       	ldi	r22, 0x1B	; 27
    2bee:	7a e3       	ldi	r23, 0x3A	; 58
    2bf0:	80 81       	ld	r24, Z
    2bf2:	91 81       	ldd	r25, Z+1	; 0x01
    2bf4:	fc da       	rcall	.-2568   	; 0x21ee <PopulateObject>
                effect = currObj.byteField[EFFECTS];
    2bf6:	80 91 1f 3a 	lds	r24, 0x3A1F	; 0x803a1f <currObj+0x4>
    2bfa:	90 e0       	ldi	r25, 0x00	; 0
    2bfc:	80 93 3a 38 	sts	0x383A, r24	; 0x80383a <effect>
    2c00:	90 93 3b 38 	sts	0x383B, r25	; 0x80383b <effect+0x1>
    2c04:	31 c2       	rjmp	.+1122   	; 0x3068 <ProcessInput+0x500>
            
            //No way out, print denied message of location
            } else {
                SetResponse(elements++, currObj.addrStr[OPEN_ACL_MSG], currObj.lenStr[OPEN_ACL_MSG], GAME);
    2c06:	80 91 3d 3a 	lds	r24, 0x3A3D	; 0x803a3d <currObj+0x22>
    2c0a:	90 91 3e 3a 	lds	r25, 0x3A3E	; 0x803a3e <currObj+0x23>
    return 0;
}

//
void SetResponse(uint8_t number, uint16_t address, uint16_t length, uint8_t type){
    reactStr[0][number]=address;
    2c0e:	20 91 2f 3a 	lds	r18, 0x3A2F	; 0x803a2f <currObj+0x14>
    2c12:	30 91 30 3a 	lds	r19, 0x3A30	; 0x803a30 <currObj+0x15>
    2c16:	20 93 1d 39 	sts	0x391D, r18	; 0x80391d <reactStr+0x2>
    2c1a:	30 93 1e 39 	sts	0x391E, r19	; 0x80391e <reactStr+0x3>
    reactStr[1][number]=length;
    2c1e:	80 93 5d 39 	sts	0x395D, r24	; 0x80395d <reactStr+0x42>
    2c22:	90 93 5e 39 	sts	0x395E, r25	; 0x80395e <reactStr+0x43>
    reactStr[2][number]=type;
    2c26:	10 92 9d 39 	sts	0x399D, r1	; 0x80399d <reactStr+0x82>
    2c2a:	10 92 9e 39 	sts	0x399E, r1	; 0x80399e <reactStr+0x83>
                effect = currObj.byteField[EFFECTS];
            
            //No way out, print denied message of location
            } else {
                SetResponse(elements++, currObj.addrStr[OPEN_ACL_MSG], currObj.lenStr[OPEN_ACL_MSG], GAME);
                effect = currObj.effect[0];               
    2c2e:	80 91 43 3a 	lds	r24, 0x3A43	; 0x803a43 <currObj+0x28>
    2c32:	3a c6       	rjmp	.+3188   	; 0x38a8 <ProcessInput+0xd40>
            }   
        
        //Enter locations or Open objects    
        } else if ((data[0] == 'e')||(data[0] == 'o')) {
    2c34:	85 36       	cpi	r24, 0x65	; 101
    2c36:	19 f0       	breq	.+6      	; 0x2c3e <ProcessInput+0xd6>
    2c38:	8f 36       	cpi	r24, 0x6F	; 111
    2c3a:	09 f0       	breq	.+2      	; 0x2c3e <ProcessInput+0xd6>
    2c3c:	df c0       	rjmp	.+446    	; 0x2dfc <ProcessInput+0x294>
                
            //Not possible, too many/little characters
            if (inputLen != 2){
    2c3e:	b2 e0       	ldi	r27, 0x02	; 2
    2c40:	fb 12       	cpse	r15, r27
    2c42:	c1 cf       	rjmp	.-126    	; 0x2bc6 <ProcessInput+0x5e>
                SetResponse(elements++, A_NOTPOSSIBLE, L_NOTPOSSIBLE, TEASER);
            } else {
                uint8_t canDo = 0;
                route[currDepth+1] = FindChild(route[currDepth], data[1], 0);
    2c44:	e0 90 2c 38 	lds	r14, 0x382C	; 0x80382c <currDepth>
    2c48:	f1 2c       	mov	r15, r1
    2c4a:	f7 01       	movw	r30, r14
    2c4c:	ee 0f       	add	r30, r30
    2c4e:	ff 1f       	adc	r31, r31
    2c50:	e5 52       	subi	r30, 0x25	; 37
    2c52:	f6 4c       	sbci	r31, 0xC6	; 198
    2c54:	40 e0       	ldi	r20, 0x00	; 0
    2c56:	50 e0       	ldi	r21, 0x00	; 0
    2c58:	d8 01       	movw	r26, r16
    2c5a:	11 96       	adiw	r26, 0x01	; 1
    2c5c:	6c 91       	ld	r22, X
    2c5e:	80 81       	ld	r24, Z
    2c60:	91 81       	ldd	r25, Z+1	; 0x01
    2c62:	90 db       	rcall	.-2272   	; 0x2384 <FindChild>
    2c64:	f7 01       	movw	r30, r14
    2c66:	ee 0f       	add	r30, r30
    2c68:	ff 1f       	adc	r31, r31
    2c6a:	e3 52       	subi	r30, 0x23	; 35
    2c6c:	f6 4c       	sbci	r31, 0xC6	; 198
    2c6e:	80 83       	st	Z, r24
    2c70:	91 83       	std	Z+1, r25	; 0x01
                    
                //Child found?
                if (route[currDepth+1]) {
    2c72:	90 91 2c 38 	lds	r25, 0x382C	; 0x80382c <currDepth>
    2c76:	29 2f       	mov	r18, r25
    2c78:	30 e0       	ldi	r19, 0x00	; 0
    2c7a:	f9 01       	movw	r30, r18
    2c7c:	ee 0f       	add	r30, r30
    2c7e:	ff 1f       	adc	r31, r31
    2c80:	e3 52       	subi	r30, 0x23	; 35
    2c82:	f6 4c       	sbci	r31, 0xC6	; 198
    2c84:	40 81       	ld	r20, Z
    2c86:	51 81       	ldd	r21, Z+1	; 0x01
    2c88:	41 15       	cp	r20, r1
    2c8a:	51 05       	cpc	r21, r1
    2c8c:	21 f0       	breq	.+8      	; 0x2c96 <ProcessInput+0x12e>
                    PopulateObject(route[currDepth+1], &actObj1);
    2c8e:	6a ed       	ldi	r22, 0xDA	; 218
    2c90:	78 e3       	ldi	r23, 0x38	; 56
    2c92:	ca 01       	movw	r24, r20
    2c94:	1c c0       	rjmp	.+56     	; 0x2cce <ProcessInput+0x166>
                    canDo = 1;
                //No child, maybe a step back, letter ok?
                } else if (currDepth) {
    2c96:	99 23       	and	r25, r25
    2c98:	09 f4       	brne	.+2      	; 0x2c9c <ProcessInput+0x134>
    2c9a:	95 c7       	rjmp	.+3882   	; 0x3bc6 <ProcessInput+0x105e>
                    if (CheckLetter(route[currDepth-1], data[1])) {
    2c9c:	22 0f       	add	r18, r18
    2c9e:	33 1f       	adc	r19, r19
    2ca0:	f9 01       	movw	r30, r18
    2ca2:	e7 52       	subi	r30, 0x27	; 39
    2ca4:	f6 4c       	sbci	r31, 0xC6	; 198
    2ca6:	d8 01       	movw	r26, r16
    2ca8:	11 96       	adiw	r26, 0x01	; 1
    2caa:	6c 91       	ld	r22, X
    2cac:	80 81       	ld	r24, Z
    2cae:	91 81       	ldd	r25, Z+1	; 0x01
    2cb0:	15 db       	rcall	.-2518   	; 0x22dc <CheckLetter>
    2cb2:	88 23       	and	r24, r24
    2cb4:	09 f4       	brne	.+2      	; 0x2cb8 <ProcessInput+0x150>
    2cb6:	87 c7       	rjmp	.+3854   	; 0x3bc6 <ProcessInput+0x105e>
                        PopulateObject(route[currDepth-1], &actObj1);
    2cb8:	e0 91 2c 38 	lds	r30, 0x382C	; 0x80382c <currDepth>
    2cbc:	f0 e0       	ldi	r31, 0x00	; 0
    2cbe:	ee 0f       	add	r30, r30
    2cc0:	ff 1f       	adc	r31, r31
    2cc2:	e7 52       	subi	r30, 0x27	; 39
    2cc4:	f6 4c       	sbci	r31, 0xC6	; 198
    2cc6:	6a ed       	ldi	r22, 0xDA	; 218
    2cc8:	78 e3       	ldi	r23, 0x38	; 56
    2cca:	80 81       	ld	r24, Z
    2ccc:	91 81       	ldd	r25, Z+1	; 0x01
    2cce:	8f da       	rcall	.-2786   	; 0x21ee <PopulateObject>
                    }
                }

                //The candidate is found! Let's check if the action is legit
                if (canDo) {
                    if ((data[0] == 'e') && ((actObj1.byteField[ACTION_MASK]&ENTER)==0)) {
    2cd0:	f8 01       	movw	r30, r16
    2cd2:	80 81       	ld	r24, Z
    2cd4:	85 36       	cpi	r24, 0x65	; 101
    2cd6:	c9 f4       	brne	.+50     	; 0x2d0a <ProcessInput+0x1a2>
    2cd8:	80 91 e2 38 	lds	r24, 0x38E2	; 0x8038e2 <actObj1.3995+0x8>
    2cdc:	80 fd       	sbrc	r24, 0
    2cde:	1e c0       	rjmp	.+60     	; 0x2d1c <ProcessInput+0x1b4>
    return 0;
}

//
void SetResponse(uint8_t number, uint16_t address, uint16_t length, uint8_t type){
    reactStr[0][number]=address;
    2ce0:	8f e9       	ldi	r24, 0x9F	; 159
    2ce2:	99 e7       	ldi	r25, 0x79	; 121
    2ce4:	80 93 1d 39 	sts	0x391D, r24	; 0x80391d <reactStr+0x2>
    2ce8:	90 93 1e 39 	sts	0x391E, r25	; 0x80391e <reactStr+0x3>
    reactStr[1][number]=length;
    2cec:	8e e1       	ldi	r24, 0x1E	; 30
    2cee:	90 e0       	ldi	r25, 0x00	; 0
    2cf0:	80 93 5d 39 	sts	0x395D, r24	; 0x80395d <reactStr+0x42>
    2cf4:	90 93 5e 39 	sts	0x395E, r25	; 0x80395e <reactStr+0x43>
    reactStr[2][number]=type;
    2cf8:	81 e0       	ldi	r24, 0x01	; 1
    2cfa:	90 e0       	ldi	r25, 0x00	; 0
    2cfc:	80 93 9d 39 	sts	0x399D, r24	; 0x80399d <reactStr+0x82>
    2d00:	90 93 9e 39 	sts	0x399E, r25	; 0x80399e <reactStr+0x83>
                }

                //The candidate is found! Let's check if the action is legit
                if (canDo) {
                    if ((data[0] == 'e') && ((actObj1.byteField[ACTION_MASK]&ENTER)==0)) {
                        SetResponse(elements++, A_CANTENTER, L_CANTENTER, TEASER);
    2d04:	72 e0       	ldi	r23, 0x02	; 2
    2d06:	77 2e       	mov	r7, r23
    2d08:	2c c7       	rjmp	.+3672   	; 0x3b62 <ProcessInput+0xffa>
                    } else if ((data[0] == 'o') && ((actObj1.byteField[ACTION_MASK]&OPEN)==0)) {
    2d0a:	8f 36       	cpi	r24, 0x6F	; 111
    2d0c:	39 f4       	brne	.+14     	; 0x2d1c <ProcessInput+0x1b4>
    2d0e:	80 91 e2 38 	lds	r24, 0x38E2	; 0x8038e2 <actObj1.3995+0x8>
    2d12:	81 fd       	sbrc	r24, 1
    2d14:	03 c0       	rjmp	.+6      	; 0x2d1c <ProcessInput+0x1b4>
    return 0;
}

//
void SetResponse(uint8_t number, uint16_t address, uint16_t length, uint8_t type){
    reactStr[0][number]=address;
    2d16:	84 e8       	ldi	r24, 0x84	; 132
    2d18:	99 e7       	ldi	r25, 0x79	; 121
    2d1a:	f9 c4       	rjmp	.+2546   	; 0x370e <ProcessInput+0xba6>
                        SetResponse(elements++, A_CANTENTER, L_CANTENTER, TEASER);
                    } else if ((data[0] == 'o') && ((actObj1.byteField[ACTION_MASK]&OPEN)==0)) {
                        SetResponse(elements++, A_CANTOPEN, L_CANTOPEN, TEASER);
                    
                    //Action legit, permission granted?
                    } else if (CheckState(actObj1.byteField[OPEN_ACL])) {
    2d1c:	80 91 e0 38 	lds	r24, 0x38E0	; 0x8038e0 <actObj1.3995+0x6>
    2d20:	0e 94 5b 0a 	call	0x14b6	; 0x14b6 <CheckState>
    2d24:	e0 91 2c 38 	lds	r30, 0x382C	; 0x80382c <currDepth>
    2d28:	88 23       	and	r24, r24
    2d2a:	09 f4       	brne	.+2      	; 0x2d2e <ProcessInput+0x1c6>
    2d2c:	49 c0       	rjmp	.+146    	; 0x2dc0 <ProcessInput+0x258>
                            
                        //Yes! Check if we must move forward or backwards.
                        if (route[currDepth+1]) ++currDepth; else --currDepth;
    2d2e:	ae 2f       	mov	r26, r30
    2d30:	b0 e0       	ldi	r27, 0x00	; 0
    2d32:	aa 0f       	add	r26, r26
    2d34:	bb 1f       	adc	r27, r27
    2d36:	a3 52       	subi	r26, 0x23	; 35
    2d38:	b6 4c       	sbci	r27, 0xC6	; 198
    2d3a:	8d 91       	ld	r24, X+
    2d3c:	9c 91       	ld	r25, X
    2d3e:	89 2b       	or	r24, r25
    2d40:	11 f0       	breq	.+4      	; 0x2d46 <ProcessInput+0x1de>
    2d42:	ef 5f       	subi	r30, 0xFF	; 255
    2d44:	01 c0       	rjmp	.+2      	; 0x2d48 <ProcessInput+0x1e0>
    2d46:	e1 50       	subi	r30, 0x01	; 1
    2d48:	e0 93 2c 38 	sts	0x382C, r30	; 0x80382c <currDepth>
                        PopulateObject(route[currDepth], &currObj);
    2d4c:	e0 91 2c 38 	lds	r30, 0x382C	; 0x80382c <currDepth>
    2d50:	f0 e0       	ldi	r31, 0x00	; 0
    2d52:	ee 0f       	add	r30, r30
    2d54:	ff 1f       	adc	r31, r31
    2d56:	e5 52       	subi	r30, 0x25	; 37
    2d58:	f6 4c       	sbci	r31, 0xC6	; 198
    2d5a:	6b e1       	ldi	r22, 0x1B	; 27
    2d5c:	7a e3       	ldi	r23, 0x3A	; 58
    2d5e:	80 81       	ld	r24, Z
    2d60:	91 81       	ldd	r25, Z+1	; 0x01
    2d62:	45 da       	rcall	.-2934   	; 0x21ee <PopulateObject>
                        SetResponse(elements++, currObj.addrStr[DESC], currObj.lenStr[DESC],GAME);
    2d64:	80 91 37 3a 	lds	r24, 0x3A37	; 0x803a37 <currObj+0x1c>
    2d68:	90 91 38 3a 	lds	r25, 0x3A38	; 0x803a38 <currObj+0x1d>
    return 0;
}

//
void SetResponse(uint8_t number, uint16_t address, uint16_t length, uint8_t type){
    reactStr[0][number]=address;
    2d6c:	20 91 29 3a 	lds	r18, 0x3A29	; 0x803a29 <currObj+0xe>
    2d70:	30 91 2a 3a 	lds	r19, 0x3A2A	; 0x803a2a <currObj+0xf>
    2d74:	20 93 1d 39 	sts	0x391D, r18	; 0x80391d <reactStr+0x2>
    2d78:	30 93 1e 39 	sts	0x391E, r19	; 0x80391e <reactStr+0x3>
    reactStr[1][number]=length;
    2d7c:	80 93 5d 39 	sts	0x395D, r24	; 0x80395d <reactStr+0x42>
    2d80:	90 93 5e 39 	sts	0x395E, r25	; 0x80395e <reactStr+0x43>
    reactStr[2][number]=type;
    2d84:	10 92 9d 39 	sts	0x399D, r1	; 0x80399d <reactStr+0x82>
    2d88:	10 92 9e 39 	sts	0x399E, r1	; 0x80399e <reactStr+0x83>
    return 0;
}

//
void SetResponse(uint8_t number, uint16_t address, uint16_t length, uint8_t type){
    reactStr[0][number]=address;
    2d8c:	8b e5       	ldi	r24, 0x5B	; 91
    2d8e:	9a e7       	ldi	r25, 0x7A	; 122
    2d90:	80 93 1f 39 	sts	0x391F, r24	; 0x80391f <reactStr+0x4>
    2d94:	90 93 20 39 	sts	0x3920, r25	; 0x803920 <reactStr+0x5>
    reactStr[1][number]=length;
    2d98:	82 e0       	ldi	r24, 0x02	; 2
    2d9a:	90 e0       	ldi	r25, 0x00	; 0
    2d9c:	80 93 5f 39 	sts	0x395F, r24	; 0x80395f <reactStr+0x44>
    2da0:	90 93 60 39 	sts	0x3960, r25	; 0x803960 <reactStr+0x45>
    reactStr[2][number]=type;
    2da4:	81 e0       	ldi	r24, 0x01	; 1
    2da6:	90 e0       	ldi	r25, 0x00	; 0
    2da8:	80 93 9f 39 	sts	0x399F, r24	; 0x80399f <reactStr+0x84>
    2dac:	90 93 a0 39 	sts	0x39A0, r25	; 0x8039a0 <reactStr+0x85>
                        //Yes! Check if we must move forward or backwards.
                        if (route[currDepth+1]) ++currDepth; else --currDepth;
                        PopulateObject(route[currDepth], &currObj);
                        SetResponse(elements++, currObj.addrStr[DESC], currObj.lenStr[DESC],GAME);
                        SetResponse(elements++, A_LF, 2, TEASER);
                        effect = currObj.byteField[EFFECTS];
    2db0:	80 91 1f 3a 	lds	r24, 0x3A1F	; 0x803a1f <currObj+0x4>
    2db4:	90 e0       	ldi	r25, 0x00	; 0
    2db6:	80 93 3a 38 	sts	0x383A, r24	; 0x80383a <effect>
    2dba:	90 93 3b 38 	sts	0x383B, r25	; 0x80383b <effect+0x1>
    2dbe:	8d c4       	rjmp	.+2330   	; 0x36da <ProcessInput+0xb72>
                                                  
                    //Not granted!
                    } else {
                        route[currDepth+1] = 0;
    2dc0:	f0 e0       	ldi	r31, 0x00	; 0
    2dc2:	ee 0f       	add	r30, r30
    2dc4:	ff 1f       	adc	r31, r31
    2dc6:	e3 52       	subi	r30, 0x23	; 35
    2dc8:	f6 4c       	sbci	r31, 0xC6	; 198
    2dca:	10 82       	st	Z, r1
    2dcc:	11 82       	std	Z+1, r1	; 0x01
                        SetResponse(elements++, actObj1.addrStr[OPEN_ACL_MSG], actObj1.lenStr[OPEN_ACL_MSG], GAME);
    2dce:	80 91 fc 38 	lds	r24, 0x38FC	; 0x8038fc <actObj1.3995+0x22>
    2dd2:	90 91 fd 38 	lds	r25, 0x38FD	; 0x8038fd <actObj1.3995+0x23>
    return 0;
}

//
void SetResponse(uint8_t number, uint16_t address, uint16_t length, uint8_t type){
    reactStr[0][number]=address;
    2dd6:	20 91 ee 38 	lds	r18, 0x38EE	; 0x8038ee <actObj1.3995+0x14>
    2dda:	30 91 ef 38 	lds	r19, 0x38EF	; 0x8038ef <actObj1.3995+0x15>
    2dde:	20 93 1d 39 	sts	0x391D, r18	; 0x80391d <reactStr+0x2>
    2de2:	30 93 1e 39 	sts	0x391E, r19	; 0x80391e <reactStr+0x3>
    reactStr[1][number]=length;
    2de6:	80 93 5d 39 	sts	0x395D, r24	; 0x80395d <reactStr+0x42>
    2dea:	90 93 5e 39 	sts	0x395E, r25	; 0x80395e <reactStr+0x43>
    reactStr[2][number]=type;
    2dee:	10 92 9d 39 	sts	0x399D, r1	; 0x80399d <reactStr+0x82>
    2df2:	10 92 9e 39 	sts	0x399E, r1	; 0x80399e <reactStr+0x83>
                                                  
                    //Not granted!
                    } else {
                        route[currDepth+1] = 0;
                        SetResponse(elements++, actObj1.addrStr[OPEN_ACL_MSG], actObj1.lenStr[OPEN_ACL_MSG], GAME);
                        effect = actObj1.effect[0];              
    2df6:	80 91 02 39 	lds	r24, 0x3902	; 0x803902 <actObj1.3995+0x28>
    2dfa:	56 c5       	rjmp	.+2732   	; 0x38a8 <ProcessInput+0xd40>
                    SetResponse(elements++, A_DONTSEE, L_DONTSEE, TEASER);                
                }
            }

        //Look around or at objects
        } else if (data[0] == 'l') {
    2dfc:	8c 36       	cpi	r24, 0x6C	; 108
    2dfe:	09 f0       	breq	.+2      	; 0x2e02 <ProcessInput+0x29a>
    2e00:	57 c1       	rjmp	.+686    	; 0x30b0 <ProcessInput+0x548>
    2e02:	e0 91 2c 38 	lds	r30, 0x382C	; 0x80382c <currDepth>
            if (inputLen == 1) {
    2e06:	b1 e0       	ldi	r27, 0x01	; 1
    2e08:	fb 12       	cpse	r15, r27
    2e0a:	f6 c0       	rjmp	.+492    	; 0x2ff8 <ProcessInput+0x490>

                //Show info about this area first
                SetResponse(elements++, currObj.addrStr[DESC], currObj.lenStr[DESC],GAME);
    2e0c:	80 91 37 3a 	lds	r24, 0x3A37	; 0x803a37 <currObj+0x1c>
    2e10:	90 91 38 3a 	lds	r25, 0x3A38	; 0x803a38 <currObj+0x1d>
    return 0;
}

//
void SetResponse(uint8_t number, uint16_t address, uint16_t length, uint8_t type){
    reactStr[0][number]=address;
    2e14:	20 91 29 3a 	lds	r18, 0x3A29	; 0x803a29 <currObj+0xe>
    2e18:	30 91 2a 3a 	lds	r19, 0x3A2A	; 0x803a2a <currObj+0xf>
    2e1c:	20 93 1d 39 	sts	0x391D, r18	; 0x80391d <reactStr+0x2>
    2e20:	30 93 1e 39 	sts	0x391E, r19	; 0x80391e <reactStr+0x3>
    reactStr[1][number]=length;
    2e24:	80 93 5d 39 	sts	0x395D, r24	; 0x80395d <reactStr+0x42>
    2e28:	90 93 5e 39 	sts	0x395E, r25	; 0x80395e <reactStr+0x43>
    reactStr[2][number]=type;
    2e2c:	10 92 9d 39 	sts	0x399D, r1	; 0x80399d <reactStr+0x82>
    2e30:	10 92 9e 39 	sts	0x399E, r1	; 0x80399e <reactStr+0x83>
    return 0;
}

//
void SetResponse(uint8_t number, uint16_t address, uint16_t length, uint8_t type){
    reactStr[0][number]=address;
    2e34:	8b e5       	ldi	r24, 0x5B	; 91
    2e36:	9a e7       	ldi	r25, 0x7A	; 122
    2e38:	80 93 1f 39 	sts	0x391F, r24	; 0x80391f <reactStr+0x4>
    2e3c:	90 93 20 39 	sts	0x3920, r25	; 0x803920 <reactStr+0x5>
    reactStr[1][number]=length;
    2e40:	82 e0       	ldi	r24, 0x02	; 2
    2e42:	90 e0       	ldi	r25, 0x00	; 0
    2e44:	80 93 5f 39 	sts	0x395F, r24	; 0x80395f <reactStr+0x44>
    2e48:	90 93 60 39 	sts	0x3960, r25	; 0x803960 <reactStr+0x45>
    reactStr[2][number]=type;
    2e4c:	81 e0       	ldi	r24, 0x01	; 1
    2e4e:	90 e0       	ldi	r25, 0x00	; 0
    2e50:	80 93 9f 39 	sts	0x399F, r24	; 0x80399f <reactStr+0x84>
    2e54:	90 93 a0 39 	sts	0x39A0, r25	; 0x8039a0 <reactStr+0x85>
    return 0;
}

//
void SetResponse(uint8_t number, uint16_t address, uint16_t length, uint8_t type){
    reactStr[0][number]=address;
    2e58:	2d ee       	ldi	r18, 0xED	; 237
    2e5a:	39 e7       	ldi	r19, 0x79	; 121
    2e5c:	20 93 21 39 	sts	0x3921, r18	; 0x803921 <reactStr+0x6>
    2e60:	30 93 22 39 	sts	0x3922, r19	; 0x803922 <reactStr+0x7>
    reactStr[1][number]=length;
    2e64:	25 e1       	ldi	r18, 0x15	; 21
    2e66:	30 e0       	ldi	r19, 0x00	; 0
    2e68:	20 93 61 39 	sts	0x3961, r18	; 0x803961 <reactStr+0x46>
    2e6c:	30 93 62 39 	sts	0x3962, r19	; 0x803962 <reactStr+0x47>
    reactStr[2][number]=type;
    2e70:	80 93 a1 39 	sts	0x39A1, r24	; 0x8039a1 <reactStr+0x86>
    2e74:	90 93 a2 39 	sts	0x39A2, r25	; 0x8039a2 <reactStr+0x87>
                SetResponse(elements++, currObj.addrStr[DESC], currObj.lenStr[DESC],GAME);
                SetResponse(elements++, A_LF, 2, TEASER);
                SetResponse(elements++, A_LOOK, L_LOOK, TEASER);

                //Check the visible children first
                route[currDepth+1] = 0;
    2e78:	f0 e0       	ldi	r31, 0x00	; 0
    2e7a:	ee 0f       	add	r30, r30
    2e7c:	ff 1f       	adc	r31, r31
    2e7e:	e3 52       	subi	r30, 0x23	; 35
    2e80:	f6 4c       	sbci	r31, 0xC6	; 198
    2e82:	10 82       	st	Z, r1
    2e84:	11 82       	std	Z+1, r1	; 0x01
            if (inputLen == 1) {

                //Show info about this area first
                SetResponse(elements++, currObj.addrStr[DESC], currObj.lenStr[DESC],GAME);
                SetResponse(elements++, A_LF, 2, TEASER);
                SetResponse(elements++, A_LOOK, L_LOOK, TEASER);
    2e86:	84 e0       	ldi	r24, 0x04	; 4
    2e88:	68 2e       	mov	r6, r24
    return 0;
}

//
void SetResponse(uint8_t number, uint16_t address, uint16_t length, uint8_t type){
    reactStr[0][number]=address;
    2e8a:	99 e5       	ldi	r25, 0x59	; 89
    2e8c:	c9 2e       	mov	r12, r25
    2e8e:	9a e7       	ldi	r25, 0x7A	; 122
    2e90:	d9 2e       	mov	r13, r25
    reactStr[1][number]=length;
    2e92:	22 e0       	ldi	r18, 0x02	; 2
    2e94:	a2 2e       	mov	r10, r18
    2e96:	b1 2c       	mov	r11, r1
    reactStr[2][number]=type;
    2e98:	88 24       	eor	r8, r8
    2e9a:	83 94       	inc	r8
    2e9c:	91 2c       	mov	r9, r1
                SetResponse(elements++, A_LOOK, L_LOOK, TEASER);

                //Check the visible children first
                route[currDepth+1] = 0;
                do{
                    route[currDepth+1] = FindChild(route[currDepth], 0, route[currDepth+1]);
    2e9e:	80 91 2c 38 	lds	r24, 0x382C	; 0x80382c <currDepth>
    2ea2:	90 e0       	ldi	r25, 0x00	; 0
    2ea4:	9c 01       	movw	r18, r24
    2ea6:	22 0f       	add	r18, r18
    2ea8:	33 1f       	adc	r19, r19
    2eaa:	f9 01       	movw	r30, r18
    2eac:	e3 52       	subi	r30, 0x23	; 35
    2eae:	f6 4c       	sbci	r31, 0xC6	; 198
    2eb0:	7f 01       	movw	r14, r30
    2eb2:	40 81       	ld	r20, Z
    2eb4:	51 81       	ldd	r21, Z+1	; 0x01
    2eb6:	f9 01       	movw	r30, r18
    2eb8:	e5 52       	subi	r30, 0x25	; 37
    2eba:	f6 4c       	sbci	r31, 0xC6	; 198
    2ebc:	60 e0       	ldi	r22, 0x00	; 0
    2ebe:	80 81       	ld	r24, Z
    2ec0:	91 81       	ldd	r25, Z+1	; 0x01
    2ec2:	60 da       	rcall	.-2880   	; 0x2384 <FindChild>
    2ec4:	d7 01       	movw	r26, r14
    2ec6:	8d 93       	st	X+, r24
    2ec8:	9c 93       	st	X, r25
                    if (route[currDepth+1]) {
    2eca:	e0 91 2c 38 	lds	r30, 0x382C	; 0x80382c <currDepth>
    2ece:	f0 e0       	ldi	r31, 0x00	; 0
    2ed0:	ee 0f       	add	r30, r30
    2ed2:	ff 1f       	adc	r31, r31
    2ed4:	e3 52       	subi	r30, 0x23	; 35
    2ed6:	f6 4c       	sbci	r31, 0xC6	; 198
    2ed8:	80 81       	ld	r24, Z
    2eda:	91 81       	ldd	r25, Z+1	; 0x01
    2edc:	00 97       	sbiw	r24, 0x00	; 0
    2ede:	09 f4       	brne	.+2      	; 0x2ee2 <ProcessInput+0x37a>
    2ee0:	4a c0       	rjmp	.+148    	; 0x2f76 <ProcessInput+0x40e>
                        if ((route[currDepth+1] != inventory[0])&&(route[currDepth+1] != inventory[1])) {
    2ee2:	20 91 3e 38 	lds	r18, 0x383E	; 0x80383e <inventory>
    2ee6:	30 91 3f 38 	lds	r19, 0x383F	; 0x80383f <inventory+0x1>
    2eea:	82 17       	cp	r24, r18
    2eec:	93 07       	cpc	r25, r19
    2eee:	09 f4       	brne	.+2      	; 0x2ef2 <ProcessInput+0x38a>
    2ef0:	42 c0       	rjmp	.+132    	; 0x2f76 <ProcessInput+0x40e>
    2ef2:	20 91 40 38 	lds	r18, 0x3840	; 0x803840 <inventory+0x2>
    2ef6:	30 91 41 38 	lds	r19, 0x3841	; 0x803841 <inventory+0x3>
    2efa:	82 17       	cp	r24, r18
    2efc:	93 07       	cpc	r25, r19
                            PopulateObject(route[currDepth+1], &actObj1);
    2efe:	d9 f1       	breq	.+118    	; 0x2f76 <ProcessInput+0x40e>
    2f00:	6a ed       	ldi	r22, 0xDA	; 218
    2f02:	78 e3       	ldi	r23, 0x38	; 56
    2f04:	74 d9       	rcall	.-3352   	; 0x21ee <PopulateObject>
                            SetResponse(elements++, actObj1.addrStr[NAME], actObj1.lenStr[NAME],GAME);
    2f06:	80 91 f4 38 	lds	r24, 0x38F4	; 0x8038f4 <actObj1.3995+0x1a>
    2f0a:	90 91 f5 38 	lds	r25, 0x38F5	; 0x8038f5 <actObj1.3995+0x1b>
    return 0;
}

//
void SetResponse(uint8_t number, uint16_t address, uint16_t length, uint8_t type){
    reactStr[0][number]=address;
    2f0e:	e6 2d       	mov	r30, r6
    2f10:	f0 e0       	ldi	r31, 0x00	; 0
    2f12:	df 01       	movw	r26, r30
    2f14:	aa 0f       	add	r26, r26
    2f16:	bb 1f       	adc	r27, r27
    2f18:	a5 5e       	subi	r26, 0xE5	; 229
    2f1a:	b6 4c       	sbci	r27, 0xC6	; 198
    2f1c:	20 91 e6 38 	lds	r18, 0x38E6	; 0x8038e6 <actObj1.3995+0xc>
    2f20:	30 91 e7 38 	lds	r19, 0x38E7	; 0x8038e7 <actObj1.3995+0xd>
    2f24:	2d 93       	st	X+, r18
    2f26:	3c 93       	st	X, r19
    reactStr[1][number]=length;
    2f28:	df 01       	movw	r26, r30
    2f2a:	aa 0f       	add	r26, r26
    2f2c:	bb 1f       	adc	r27, r27
    2f2e:	a5 5a       	subi	r26, 0xA5	; 165
    2f30:	b6 4c       	sbci	r27, 0xC6	; 198
    2f32:	8d 93       	st	X+, r24
    2f34:	9c 93       	st	X, r25
    reactStr[2][number]=type;
    2f36:	ee 0f       	add	r30, r30
    2f38:	ff 1f       	adc	r31, r31
    2f3a:	e5 56       	subi	r30, 0x65	; 101
    2f3c:	f6 4c       	sbci	r31, 0xC6	; 198
    2f3e:	10 82       	st	Z, r1
    2f40:	11 82       	std	Z+1, r1	; 0x01
    return 0;
}

//
void SetResponse(uint8_t number, uint16_t address, uint16_t length, uint8_t type){
    reactStr[0][number]=address;
    2f42:	81 e0       	ldi	r24, 0x01	; 1
    2f44:	86 0d       	add	r24, r6
    2f46:	90 e0       	ldi	r25, 0x00	; 0
    2f48:	63 94       	inc	r6
    2f4a:	63 94       	inc	r6
    2f4c:	fc 01       	movw	r30, r24
    2f4e:	ee 0f       	add	r30, r30
    2f50:	ff 1f       	adc	r31, r31
    2f52:	e5 5e       	subi	r30, 0xE5	; 229
    2f54:	f6 4c       	sbci	r31, 0xC6	; 198
    2f56:	c0 82       	st	Z, r12
    2f58:	d1 82       	std	Z+1, r13	; 0x01
    reactStr[1][number]=length;
    2f5a:	fc 01       	movw	r30, r24
    2f5c:	ee 0f       	add	r30, r30
    2f5e:	ff 1f       	adc	r31, r31
    2f60:	e5 5a       	subi	r30, 0xA5	; 165
    2f62:	f6 4c       	sbci	r31, 0xC6	; 198
    2f64:	a0 82       	st	Z, r10
    2f66:	b1 82       	std	Z+1, r11	; 0x01
    reactStr[2][number]=type;
    2f68:	88 0f       	add	r24, r24
    2f6a:	99 1f       	adc	r25, r25
    2f6c:	fc 01       	movw	r30, r24
    2f6e:	e5 56       	subi	r30, 0x65	; 101
    2f70:	f6 4c       	sbci	r31, 0xC6	; 198
    2f72:	80 82       	st	Z, r8
    2f74:	91 82       	std	Z+1, r9	; 0x01
                            PopulateObject(route[currDepth+1], &actObj1);
                            SetResponse(elements++, actObj1.addrStr[NAME], actObj1.lenStr[NAME],GAME);
                            SetResponse(elements++, A_COMMA, L_COMMA, TEASER);
                        }
                    }
                }while (route[currDepth+1]);
    2f76:	20 91 2c 38 	lds	r18, 0x382C	; 0x80382c <currDepth>
    2f7a:	82 2f       	mov	r24, r18
    2f7c:	90 e0       	ldi	r25, 0x00	; 0
    2f7e:	fc 01       	movw	r30, r24
    2f80:	ee 0f       	add	r30, r30
    2f82:	ff 1f       	adc	r31, r31
    2f84:	e3 52       	subi	r30, 0x23	; 35
    2f86:	f6 4c       	sbci	r31, 0xC6	; 198
    2f88:	40 81       	ld	r20, Z
    2f8a:	51 81       	ldd	r21, Z+1	; 0x01
    2f8c:	45 2b       	or	r20, r21
    2f8e:	09 f0       	breq	.+2      	; 0x2f92 <ProcessInput+0x42a>
    2f90:	86 cf       	rjmp	.-244    	; 0x2e9e <ProcessInput+0x336>

                //Look back if not on level 0
                if (currDepth) {
    2f92:	22 23       	and	r18, r18
    2f94:	69 f1       	breq	.+90     	; 0x2ff0 <ProcessInput+0x488>
                    PopulateObject(route[currDepth-1], &actObj1);
    2f96:	88 0f       	add	r24, r24
    2f98:	99 1f       	adc	r25, r25
    2f9a:	fc 01       	movw	r30, r24
    2f9c:	e7 52       	subi	r30, 0x27	; 39
    2f9e:	f6 4c       	sbci	r31, 0xC6	; 198
    2fa0:	6a ed       	ldi	r22, 0xDA	; 218
    2fa2:	78 e3       	ldi	r23, 0x38	; 56
    2fa4:	80 81       	ld	r24, Z
    2fa6:	91 81       	ldd	r25, Z+1	; 0x01
    2fa8:	22 d9       	rcall	.-3516   	; 0x21ee <PopulateObject>
                    SetResponse(elements++, actObj1.addrStr[NAME], actObj1.lenStr[NAME],GAME);
    2faa:	20 91 f4 38 	lds	r18, 0x38F4	; 0x8038f4 <actObj1.3995+0x1a>
    2fae:	30 91 f5 38 	lds	r19, 0x38F5	; 0x8038f5 <actObj1.3995+0x1b>
    2fb2:	77 24       	eor	r7, r7
    2fb4:	73 94       	inc	r7
    2fb6:	76 0c       	add	r7, r6
    return 0;
}

//
void SetResponse(uint8_t number, uint16_t address, uint16_t length, uint8_t type){
    reactStr[0][number]=address;
    2fb8:	86 2d       	mov	r24, r6
    2fba:	90 e0       	ldi	r25, 0x00	; 0
    2fbc:	fc 01       	movw	r30, r24
    2fbe:	ee 0f       	add	r30, r30
    2fc0:	ff 1f       	adc	r31, r31
    2fc2:	e5 5e       	subi	r30, 0xE5	; 229
    2fc4:	f6 4c       	sbci	r31, 0xC6	; 198
    2fc6:	40 91 e6 38 	lds	r20, 0x38E6	; 0x8038e6 <actObj1.3995+0xc>
    2fca:	50 91 e7 38 	lds	r21, 0x38E7	; 0x8038e7 <actObj1.3995+0xd>
    2fce:	40 83       	st	Z, r20
    2fd0:	51 83       	std	Z+1, r21	; 0x01
    reactStr[1][number]=length;
    2fd2:	fc 01       	movw	r30, r24
    2fd4:	ee 0f       	add	r30, r30
    2fd6:	ff 1f       	adc	r31, r31
    2fd8:	e5 5a       	subi	r30, 0xA5	; 165
    2fda:	f6 4c       	sbci	r31, 0xC6	; 198
    2fdc:	20 83       	st	Z, r18
    2fde:	31 83       	std	Z+1, r19	; 0x01
    reactStr[2][number]=type;
    2fe0:	88 0f       	add	r24, r24
    2fe2:	99 1f       	adc	r25, r25
    2fe4:	fc 01       	movw	r30, r24
    2fe6:	e5 56       	subi	r30, 0x65	; 101
    2fe8:	f6 4c       	sbci	r31, 0xC6	; 198
    2fea:	10 82       	st	Z, r1
    2fec:	11 82       	std	Z+1, r1	; 0x01
    2fee:	b9 c5       	rjmp	.+2930   	; 0x3b62 <ProcessInput+0xffa>

                //Look back if not on level 0
                if (currDepth) {
                    PopulateObject(route[currDepth-1], &actObj1);
                    SetResponse(elements++, actObj1.addrStr[NAME], actObj1.lenStr[NAME],GAME);
                } else elements-=1;
    2ff0:	77 24       	eor	r7, r7
    2ff2:	7a 94       	dec	r7
    2ff4:	76 0c       	add	r7, r6
    2ff6:	b5 c5       	rjmp	.+2922   	; 0x3b62 <ProcessInput+0xffa>

            } else {
                route[currDepth+1] = FindChild(route[currDepth], data[1], 0);
    2ff8:	ee 2e       	mov	r14, r30
    2ffa:	f1 2c       	mov	r15, r1
    2ffc:	f7 01       	movw	r30, r14
    2ffe:	ee 0f       	add	r30, r30
    3000:	ff 1f       	adc	r31, r31
    3002:	e5 52       	subi	r30, 0x25	; 37
    3004:	f6 4c       	sbci	r31, 0xC6	; 198
    3006:	40 e0       	ldi	r20, 0x00	; 0
    3008:	50 e0       	ldi	r21, 0x00	; 0
    300a:	d8 01       	movw	r26, r16
    300c:	11 96       	adiw	r26, 0x01	; 1
    300e:	6c 91       	ld	r22, X
    3010:	80 81       	ld	r24, Z
    3012:	91 81       	ldd	r25, Z+1	; 0x01
    3014:	b7 d9       	rcall	.-3218   	; 0x2384 <FindChild>
    3016:	f7 01       	movw	r30, r14
    3018:	ee 0f       	add	r30, r30
    301a:	ff 1f       	adc	r31, r31
    301c:	e3 52       	subi	r30, 0x23	; 35
    301e:	f6 4c       	sbci	r31, 0xC6	; 198
    3020:	80 83       	st	Z, r24
    3022:	91 83       	std	Z+1, r25	; 0x01
                if (route[currDepth+1]) {
    3024:	90 91 2c 38 	lds	r25, 0x382C	; 0x80382c <currDepth>
    3028:	29 2f       	mov	r18, r25
    302a:	30 e0       	ldi	r19, 0x00	; 0
    302c:	f9 01       	movw	r30, r18
    302e:	ee 0f       	add	r30, r30
    3030:	ff 1f       	adc	r31, r31
    3032:	e3 52       	subi	r30, 0x23	; 35
    3034:	f6 4c       	sbci	r31, 0xC6	; 198
    3036:	40 81       	ld	r20, Z
    3038:	51 81       	ldd	r21, Z+1	; 0x01
    303a:	41 15       	cp	r20, r1
    303c:	51 05       	cpc	r21, r1
    303e:	21 f0       	breq	.+8      	; 0x3048 <ProcessInput+0x4e0>
                    PopulateObject(route[currDepth+1], &actObj1);
    3040:	6a ed       	ldi	r22, 0xDA	; 218
    3042:	78 e3       	ldi	r23, 0x38	; 56
    3044:	ca 01       	movw	r24, r20
    3046:	1e c0       	rjmp	.+60     	; 0x3084 <ProcessInput+0x51c>
//TODO: CHECKSTATE -> A_CANTLOOK item
                    SetResponse(elements++, actObj1.addrStr[DESC], actObj1.lenStr[DESC],GAME);   
                } else if (currDepth) {
    3048:	99 23       	and	r25, r25
    304a:	09 f4       	brne	.+2      	; 0x304e <ProcessInput+0x4e6>
                    if (CheckLetter(route[currDepth-1], data[1])) {
    304c:	bc c5       	rjmp	.+2936   	; 0x3bc6 <ProcessInput+0x105e>
    304e:	22 0f       	add	r18, r18
    3050:	33 1f       	adc	r19, r19
    3052:	f9 01       	movw	r30, r18
    3054:	e7 52       	subi	r30, 0x27	; 39
    3056:	f6 4c       	sbci	r31, 0xC6	; 198
    3058:	d8 01       	movw	r26, r16
    305a:	11 96       	adiw	r26, 0x01	; 1
    305c:	6c 91       	ld	r22, X
    305e:	80 81       	ld	r24, Z
    3060:	91 81       	ldd	r25, Z+1	; 0x01
    3062:	3c d9       	rcall	.-3464   	; 0x22dc <CheckLetter>
    3064:	81 11       	cpse	r24, r1
    3066:	03 c0       	rjmp	.+6      	; 0x306e <ProcessInput+0x506>
}

//The game logic!
uint8_t ProcessInput(uint8_t *data){
    static object_model_t actObj1, actObj2;
    uint8_t elements = 1;
    3068:	77 24       	eor	r7, r7
    306a:	73 94       	inc	r7
                    PopulateObject(route[currDepth+1], &actObj1);
//TODO: CHECKSTATE -> A_CANTLOOK item
                    SetResponse(elements++, actObj1.addrStr[DESC], actObj1.lenStr[DESC],GAME);   
                } else if (currDepth) {
                    if (CheckLetter(route[currDepth-1], data[1])) {
                        PopulateObject(route[currDepth-1], &actObj1);
    306c:	7a c5       	rjmp	.+2804   	; 0x3b62 <ProcessInput+0xffa>
    306e:	e0 91 2c 38 	lds	r30, 0x382C	; 0x80382c <currDepth>
    3072:	f0 e0       	ldi	r31, 0x00	; 0
    3074:	ee 0f       	add	r30, r30
    3076:	ff 1f       	adc	r31, r31
    3078:	e7 52       	subi	r30, 0x27	; 39
    307a:	f6 4c       	sbci	r31, 0xC6	; 198
    307c:	6a ed       	ldi	r22, 0xDA	; 218
    307e:	78 e3       	ldi	r23, 0x38	; 56
    3080:	80 81       	ld	r24, Z
    3082:	91 81       	ldd	r25, Z+1	; 0x01
    3084:	b4 d8       	rcall	.-3736   	; 0x21ee <PopulateObject>
                        SetResponse(elements++, actObj1.addrStr[DESC], actObj1.lenStr[DESC],GAME);
    3086:	80 91 f6 38 	lds	r24, 0x38F6	; 0x8038f6 <actObj1.3995+0x1c>
    308a:	90 91 f7 38 	lds	r25, 0x38F7	; 0x8038f7 <actObj1.3995+0x1d>
    return 0;
}

//
void SetResponse(uint8_t number, uint16_t address, uint16_t length, uint8_t type){
    reactStr[0][number]=address;
    308e:	20 91 e8 38 	lds	r18, 0x38E8	; 0x8038e8 <actObj1.3995+0xe>
    3092:	30 91 e9 38 	lds	r19, 0x38E9	; 0x8038e9 <actObj1.3995+0xf>
    3096:	20 93 1d 39 	sts	0x391D, r18	; 0x80391d <reactStr+0x2>
    309a:	30 93 1e 39 	sts	0x391E, r19	; 0x80391e <reactStr+0x3>
    reactStr[1][number]=length;
    309e:	80 93 5d 39 	sts	0x395D, r24	; 0x80395d <reactStr+0x42>
    30a2:	90 93 5e 39 	sts	0x395E, r25	; 0x80395e <reactStr+0x43>
    reactStr[2][number]=type;
    30a6:	10 92 9d 39 	sts	0x399D, r1	; 0x80399d <reactStr+0x82>
    30aa:	10 92 9e 39 	sts	0x399E, r1	; 0x80399e <reactStr+0x83>
    30ae:	2a ce       	rjmp	.-940    	; 0x2d04 <ProcessInput+0x19c>
                    SetResponse(elements++, A_DONTSEE, L_DONTSEE, TEASER);
                }
            }
        
        //Pick up an object
        } else if (data[0] == 'p') {
    30b0:	80 37       	cpi	r24, 0x70	; 112
    30b2:	09 f0       	breq	.+2      	; 0x30b6 <ProcessInput+0x54e>
    30b4:	96 c0       	rjmp	.+300    	; 0x31e2 <ProcessInput+0x67a>
            if (inventory[0]&&inventory[1]) {
    30b6:	80 91 3e 38 	lds	r24, 0x383E	; 0x80383e <inventory>
    30ba:	90 91 3f 38 	lds	r25, 0x383F	; 0x80383f <inventory+0x1>
    30be:	89 2b       	or	r24, r25
    30c0:	79 f0       	breq	.+30     	; 0x30e0 <ProcessInput+0x578>
    30c2:	80 91 40 38 	lds	r24, 0x3840	; 0x803840 <inventory+0x2>
    30c6:	90 91 41 38 	lds	r25, 0x3841	; 0x803841 <inventory+0x3>
    30ca:	89 2b       	or	r24, r25
    30cc:	49 f0       	breq	.+18     	; 0x30e0 <ProcessInput+0x578>
    return 0;
}

//
void SetResponse(uint8_t number, uint16_t address, uint16_t length, uint8_t type){
    reactStr[0][number]=address;
    30ce:	84 e4       	ldi	r24, 0x44	; 68
    30d0:	98 e7       	ldi	r25, 0x78	; 120
    30d2:	80 93 1d 39 	sts	0x391D, r24	; 0x80391d <reactStr+0x2>
    30d6:	90 93 1e 39 	sts	0x391E, r25	; 0x80391e <reactStr+0x3>
    reactStr[1][number]=length;
    30da:	89 e5       	ldi	r24, 0x59	; 89
    30dc:	90 e0       	ldi	r25, 0x00	; 0
    30de:	08 ce       	rjmp	.-1008   	; 0x2cf0 <ProcessInput+0x188>
        
        //Pick up an object
        } else if (data[0] == 'p') {
            if (inventory[0]&&inventory[1]) {
                SetResponse(elements++, A_CARRYTWO, L_CARRYTWO, TEASER);
            } else if (inputLen != 2) {
    30e0:	b2 e0       	ldi	r27, 0x02	; 2
    30e2:	fb 12       	cpse	r15, r27
    30e4:	70 cd       	rjmp	.-1312   	; 0x2bc6 <ProcessInput+0x5e>
                SetResponse(elements++, A_NOTPOSSIBLE, L_NOTPOSSIBLE, TEASER);
            } else {
                route[currDepth+1] = FindChild(route[currDepth], data[1], 0);
    30e6:	e0 90 2c 38 	lds	r14, 0x382C	; 0x80382c <currDepth>
    30ea:	f1 2c       	mov	r15, r1
    30ec:	f7 01       	movw	r30, r14
    30ee:	ee 0f       	add	r30, r30
    30f0:	ff 1f       	adc	r31, r31
    30f2:	e5 52       	subi	r30, 0x25	; 37
    30f4:	f6 4c       	sbci	r31, 0xC6	; 198
    30f6:	40 e0       	ldi	r20, 0x00	; 0
    30f8:	50 e0       	ldi	r21, 0x00	; 0
    30fa:	d8 01       	movw	r26, r16
    30fc:	11 96       	adiw	r26, 0x01	; 1
    30fe:	6c 91       	ld	r22, X
    3100:	80 81       	ld	r24, Z
    3102:	91 81       	ldd	r25, Z+1	; 0x01
    3104:	3f d9       	rcall	.-3458   	; 0x2384 <FindChild>
    3106:	f7 01       	movw	r30, r14
    3108:	ee 0f       	add	r30, r30
    310a:	ff 1f       	adc	r31, r31
    310c:	e3 52       	subi	r30, 0x23	; 35
    310e:	f6 4c       	sbci	r31, 0xC6	; 198
    3110:	80 83       	st	Z, r24
    3112:	91 83       	std	Z+1, r25	; 0x01
                if (route[currDepth+1]) {
    3114:	20 91 2c 38 	lds	r18, 0x382C	; 0x80382c <currDepth>
    3118:	30 e0       	ldi	r19, 0x00	; 0
    311a:	2f 5f       	subi	r18, 0xFF	; 255
    311c:	3f 4f       	sbci	r19, 0xFF	; 255
    311e:	22 0f       	add	r18, r18
    3120:	33 1f       	adc	r19, r19
    3122:	f9 01       	movw	r30, r18
    3124:	e5 52       	subi	r30, 0x25	; 37
    3126:	f6 4c       	sbci	r31, 0xC6	; 198
    3128:	80 81       	ld	r24, Z
    312a:	91 81       	ldd	r25, Z+1	; 0x01
    312c:	00 97       	sbiw	r24, 0x00	; 0
    312e:	09 f4       	brne	.+2      	; 0x3132 <ProcessInput+0x5ca>
    3130:	ca c3       	rjmp	.+1940   	; 0x38c6 <ProcessInput+0xd5e>
                    if ((route[currDepth+1] == inventory[0])||(route[currDepth+1] == inventory[1])) {
    3132:	40 91 3e 38 	lds	r20, 0x383E	; 0x80383e <inventory>
    3136:	50 91 3f 38 	lds	r21, 0x383F	; 0x80383f <inventory+0x1>
    313a:	84 17       	cp	r24, r20
    313c:	95 07       	cpc	r25, r21
    313e:	39 f0       	breq	.+14     	; 0x314e <ProcessInput+0x5e6>
    3140:	40 91 40 38 	lds	r20, 0x3840	; 0x803840 <inventory+0x2>
    3144:	50 91 41 38 	lds	r21, 0x3841	; 0x803841 <inventory+0x3>
    3148:	84 17       	cp	r24, r20
    314a:	95 07       	cpc	r25, r21
    314c:	c1 f4       	brne	.+48     	; 0x317e <ProcessInput+0x616>
    return 0;
}

//
void SetResponse(uint8_t number, uint16_t address, uint16_t length, uint8_t type){
    reactStr[0][number]=address;
    314e:	8f e1       	ldi	r24, 0x1F	; 31
    3150:	98 e7       	ldi	r25, 0x78	; 120
    3152:	80 93 1d 39 	sts	0x391D, r24	; 0x80391d <reactStr+0x2>
    3156:	90 93 1e 39 	sts	0x391E, r25	; 0x80391e <reactStr+0x3>
    reactStr[1][number]=length;
    315a:	85 e2       	ldi	r24, 0x25	; 37
    315c:	90 e0       	ldi	r25, 0x00	; 0
    315e:	80 93 5d 39 	sts	0x395D, r24	; 0x80395d <reactStr+0x42>
    3162:	90 93 5e 39 	sts	0x395E, r25	; 0x80395e <reactStr+0x43>
    reactStr[2][number]=type;
    3166:	81 e0       	ldi	r24, 0x01	; 1
    3168:	90 e0       	ldi	r25, 0x00	; 0
    316a:	80 93 9d 39 	sts	0x399D, r24	; 0x80399d <reactStr+0x82>
    316e:	90 93 9e 39 	sts	0x399E, r25	; 0x80399e <reactStr+0x83>
            } else {
                route[currDepth+1] = FindChild(route[currDepth], data[1], 0);
                if (route[currDepth+1]) {
                    if ((route[currDepth+1] == inventory[0])||(route[currDepth+1] == inventory[1])) {
                        SetResponse(elements++, A_ALREADYCARRYING, L_ALREADYCARRYING, TEASER);
                        route[currDepth+1] = 0;
    3172:	f9 01       	movw	r30, r18
    3174:	e5 52       	subi	r30, 0x25	; 37
    3176:	f6 4c       	sbci	r31, 0xC6	; 198
    3178:	10 82       	st	Z, r1
    317a:	11 82       	std	Z+1, r1	; 0x01
                    } else {
                        //Put item in the inventory if possible
                        PopulateObject(route[currDepth+1], &actObj1);  
    317c:	c3 cd       	rjmp	.-1146   	; 0x2d04 <ProcessInput+0x19c>
    317e:	6a ed       	ldi	r22, 0xDA	; 218
    3180:	78 e3       	ldi	r23, 0x38	; 56
    3182:	35 d8       	rcall	.-3990   	; 0x21ee <PopulateObject>
                        if (CheckState(actObj1.byteField[ACTION_ACL])) {
    3184:	80 91 e1 38 	lds	r24, 0x38E1	; 0x8038e1 <actObj1.3995+0x7>
    3188:	0e 94 5b 0a 	call	0x14b6	; 0x14b6 <CheckState>
    318c:	88 23       	and	r24, r24
    318e:	09 f4       	brne	.+2      	; 0x3192 <ProcessInput+0x62a>
    3190:	75 c3       	rjmp	.+1770   	; 0x387c <ProcessInput+0xd14>
                            if (actObj1.byteField[ITEM_NR]) {
    3192:	80 91 e5 38 	lds	r24, 0x38E5	; 0x8038e5 <actObj1.3995+0xb>
    3196:	88 23       	and	r24, r24
    3198:	09 f4       	brne	.+2      	; 0x319c <ProcessInput+0x634>
    319a:	15 cd       	rjmp	.-1494   	; 0x2bc6 <ProcessInput+0x5e>
                                if (inventory[0]) {
    319c:	80 91 3e 38 	lds	r24, 0x383E	; 0x80383e <inventory>
    31a0:	90 91 3f 38 	lds	r25, 0x383F	; 0x80383f <inventory+0x1>
    31a4:	e0 91 2c 38 	lds	r30, 0x382C	; 0x80382c <currDepth>
                                    inventory[1] = route[currDepth+1];
    31a8:	f0 e0       	ldi	r31, 0x00	; 0
    31aa:	ee 0f       	add	r30, r30
    31ac:	ff 1f       	adc	r31, r31
    31ae:	e3 52       	subi	r30, 0x23	; 35
    31b0:	f6 4c       	sbci	r31, 0xC6	; 198
                    } else {
                        //Put item in the inventory if possible
                        PopulateObject(route[currDepth+1], &actObj1);  
                        if (CheckState(actObj1.byteField[ACTION_ACL])) {
                            if (actObj1.byteField[ITEM_NR]) {
                                if (inventory[0]) {
    31b2:	89 2b       	or	r24, r25
    31b4:	39 f0       	breq	.+14     	; 0x31c4 <ProcessInput+0x65c>
                                    inventory[1] = route[currDepth+1];
    31b6:	80 81       	ld	r24, Z
    31b8:	91 81       	ldd	r25, Z+1	; 0x01
    31ba:	80 93 40 38 	sts	0x3840, r24	; 0x803840 <inventory+0x2>
    31be:	90 93 41 38 	sts	0x3841, r25	; 0x803841 <inventory+0x3>
    31c2:	06 c0       	rjmp	.+12     	; 0x31d0 <ProcessInput+0x668>
                                } else {
                                    inventory[0] = route[currDepth+1];
    31c4:	80 81       	ld	r24, Z
    31c6:	91 81       	ldd	r25, Z+1	; 0x01
    31c8:	80 93 3e 38 	sts	0x383E, r24	; 0x80383e <inventory>
    31cc:	90 93 3f 38 	sts	0x383F, r25	; 0x80383f <inventory+0x1>
    return 0;
}

//
void SetResponse(uint8_t number, uint16_t address, uint16_t length, uint8_t type){
    reactStr[0][number]=address;
    31d0:	89 e0       	ldi	r24, 0x09	; 9
    31d2:	98 e7       	ldi	r25, 0x78	; 120
    31d4:	80 93 1d 39 	sts	0x391D, r24	; 0x80391d <reactStr+0x2>
    31d8:	90 93 1e 39 	sts	0x391E, r25	; 0x80391e <reactStr+0x3>
    reactStr[1][number]=length;
    31dc:	86 e1       	ldi	r24, 0x16	; 22
    31de:	90 e0       	ldi	r25, 0x00	; 0
    31e0:	5e c2       	rjmp	.+1212   	; 0x369e <ProcessInput+0xb36>
                } else SetResponse(elements++, A_NOSUCHOBJECT, L_NOSUCHOBJECT, TEASER);
            }
        } else

        //Drop item if in inventory
        if (data[0] == 'd') {
    31e2:	84 36       	cpi	r24, 0x64	; 100
    31e4:	d9 f4       	brne	.+54     	; 0x321c <ProcessInput+0x6b4>
            if ((inventory[0] == 0)&&(inventory[1] == 0)){
    31e6:	80 91 3e 38 	lds	r24, 0x383E	; 0x80383e <inventory>
    31ea:	90 91 3f 38 	lds	r25, 0x383F	; 0x80383f <inventory+0x1>
    31ee:	00 97       	sbiw	r24, 0x00	; 0
    31f0:	09 f0       	breq	.+2      	; 0x31f4 <ProcessInput+0x68c>
    31f2:	ec c4       	rjmp	.+2520   	; 0x3bcc <ProcessInput+0x1064>
    31f4:	80 91 40 38 	lds	r24, 0x3840	; 0x803840 <inventory+0x2>
    31f8:	90 91 41 38 	lds	r25, 0x3841	; 0x803841 <inventory+0x3>
    31fc:	89 2b       	or	r24, r25
    31fe:	49 f4       	brne	.+18     	; 0x3212 <ProcessInput+0x6aa>
    return 0;
}

//
void SetResponse(uint8_t number, uint16_t address, uint16_t length, uint8_t type){
    reactStr[0][number]=address;
    3200:	83 ee       	ldi	r24, 0xE3	; 227
    3202:	97 e7       	ldi	r25, 0x77	; 119
    3204:	80 93 1d 39 	sts	0x391D, r24	; 0x80391d <reactStr+0x2>
    3208:	90 93 1e 39 	sts	0x391E, r25	; 0x80391e <reactStr+0x3>
    reactStr[1][number]=length;
    320c:	86 e2       	ldi	r24, 0x26	; 38
    320e:	90 e0       	ldi	r25, 0x00	; 0
    3210:	6f cd       	rjmp	.-1314   	; 0x2cf0 <ProcessInput+0x188>

        //Drop item if in inventory
        if (data[0] == 'd') {
            if ((inventory[0] == 0)&&(inventory[1] == 0)){
                SetResponse(elements++, A_EMPTYHANDS, L_EMPTYHANDS, TEASER);
            } else if (inputLen != 2) {
    3212:	b2 e0       	ldi	r27, 0x02	; 2
    3214:	fb 16       	cp	r15, r27
    3216:	09 f4       	brne	.+2      	; 0x321a <ProcessInput+0x6b2>
    3218:	40 c5       	rjmp	.+2688   	; 0x3c9a <ProcessInput+0x1132>
    321a:	d5 cc       	rjmp	.-1622   	; 0x2bc6 <ProcessInput+0x5e>
                    if (x) SetResponse(elements++, A_NOTCARRYING, L_NOTCARRYING, TEASER);
                }
            }

        //Inventory list
        } else if (data[0] == 'i') {
    321c:	89 36       	cpi	r24, 0x69	; 105
    321e:	09 f0       	breq	.+2      	; 0x3222 <ProcessInput+0x6ba>
    3220:	7b c0       	rjmp	.+246    	; 0x3318 <ProcessInput+0x7b0>
            if ((inventory[0] == 0)&&(inventory[1] == 0)){
    3222:	80 91 3e 38 	lds	r24, 0x383E	; 0x80383e <inventory>
    3226:	90 91 3f 38 	lds	r25, 0x383F	; 0x80383f <inventory+0x1>
    322a:	89 2b       	or	r24, r25
    322c:	31 f4       	brne	.+12     	; 0x323a <ProcessInput+0x6d2>
    322e:	80 91 40 38 	lds	r24, 0x3840	; 0x803840 <inventory+0x2>
    3232:	90 91 41 38 	lds	r25, 0x3841	; 0x803841 <inventory+0x3>
    3236:	89 2b       	or	r24, r25
    3238:	19 f3       	breq	.-58     	; 0x3200 <ProcessInput+0x698>
    return 0;
}

//
void SetResponse(uint8_t number, uint16_t address, uint16_t length, uint8_t type){
    reactStr[0][number]=address;
    323a:	89 e0       	ldi	r24, 0x09	; 9
    323c:	98 e7       	ldi	r25, 0x78	; 120
    323e:	80 93 1d 39 	sts	0x391D, r24	; 0x80391d <reactStr+0x2>
    3242:	90 93 1e 39 	sts	0x391E, r25	; 0x80391e <reactStr+0x3>
    reactStr[1][number]=length;
    3246:	86 e1       	ldi	r24, 0x16	; 22
    3248:	90 e0       	ldi	r25, 0x00	; 0
    324a:	80 93 5d 39 	sts	0x395D, r24	; 0x80395d <reactStr+0x42>
    324e:	90 93 5e 39 	sts	0x395E, r25	; 0x80395e <reactStr+0x43>
    reactStr[2][number]=type;
    3252:	81 e0       	ldi	r24, 0x01	; 1
    3254:	90 e0       	ldi	r25, 0x00	; 0
    3256:	80 93 9d 39 	sts	0x399D, r24	; 0x80399d <reactStr+0x82>
    325a:	90 93 9e 39 	sts	0x399E, r25	; 0x80399e <reactStr+0x83>
    325e:	2e e3       	ldi	r18, 0x3E	; 62
    3260:	e2 2e       	mov	r14, r18
    3262:	28 e3       	ldi	r18, 0x38	; 56
    3264:	f2 2e       	mov	r15, r18
    3266:	32 e4       	ldi	r19, 0x42	; 66
    3268:	63 2e       	mov	r6, r19
    326a:	38 e3       	ldi	r19, 0x38	; 56
    326c:	73 2e       	mov	r7, r19
        //Inventory list
        } else if (data[0] == 'i') {
            if ((inventory[0] == 0)&&(inventory[1] == 0)){
                SetResponse(elements++, A_EMPTYHANDS, L_EMPTYHANDS, TEASER);
            } else {
                SetResponse(elements++, A_NOWCARRING, L_NOWCARRING, TEASER);
    326e:	42 e0       	ldi	r20, 0x02	; 2
    3270:	54 2e       	mov	r5, r20
    return 0;
}

//
void SetResponse(uint8_t number, uint16_t address, uint16_t length, uint8_t type){
    reactStr[0][number]=address;
    3272:	59 e5       	ldi	r21, 0x59	; 89
    3274:	c5 2e       	mov	r12, r21
    3276:	5a e7       	ldi	r21, 0x7A	; 122
    3278:	d5 2e       	mov	r13, r21
    reactStr[1][number]=length;
    327a:	62 e0       	ldi	r22, 0x02	; 2
    327c:	a6 2e       	mov	r10, r22
    327e:	b1 2c       	mov	r11, r1
    reactStr[2][number]=type;
    3280:	88 24       	eor	r8, r8
    3282:	83 94       	inc	r8
    3284:	91 2c       	mov	r9, r1
            } else {
                SetResponse(elements++, A_NOWCARRING, L_NOWCARRING, TEASER);
                //SetResponse(elements++, A_SPACE, L_SPACE, TEASER);
                
                for (uint8_t x=0; x<2; ++x) {
                    if (inventory[x]) {
    3286:	d7 01       	movw	r26, r14
    3288:	8d 91       	ld	r24, X+
    328a:	9d 91       	ld	r25, X+
    328c:	7d 01       	movw	r14, r26
    328e:	00 97       	sbiw	r24, 0x00	; 0
    3290:	d9 f1       	breq	.+118    	; 0x3308 <ProcessInput+0x7a0>
                        PopulateObject(inventory[x], &actObj1);
    3292:	6a ed       	ldi	r22, 0xDA	; 218
    3294:	78 e3       	ldi	r23, 0x38	; 56
    3296:	0e 94 f7 10 	call	0x21ee	; 0x21ee <PopulateObject>
                        SetResponse(elements++, actObj1.addrStr[NAME], actObj1.lenStr[NAME], GAME);
    329a:	80 91 f4 38 	lds	r24, 0x38F4	; 0x8038f4 <actObj1.3995+0x1a>
    329e:	90 91 f5 38 	lds	r25, 0x38F5	; 0x8038f5 <actObj1.3995+0x1b>
    return 0;
}

//
void SetResponse(uint8_t number, uint16_t address, uint16_t length, uint8_t type){
    reactStr[0][number]=address;
    32a2:	e5 2d       	mov	r30, r5
    32a4:	f0 e0       	ldi	r31, 0x00	; 0
    32a6:	df 01       	movw	r26, r30
    32a8:	aa 0f       	add	r26, r26
    32aa:	bb 1f       	adc	r27, r27
    32ac:	a5 5e       	subi	r26, 0xE5	; 229
    32ae:	b6 4c       	sbci	r27, 0xC6	; 198
    32b0:	20 91 e6 38 	lds	r18, 0x38E6	; 0x8038e6 <actObj1.3995+0xc>
    32b4:	30 91 e7 38 	lds	r19, 0x38E7	; 0x8038e7 <actObj1.3995+0xd>
    32b8:	2d 93       	st	X+, r18
    32ba:	3c 93       	st	X, r19
    reactStr[1][number]=length;
    32bc:	df 01       	movw	r26, r30
    32be:	aa 0f       	add	r26, r26
    32c0:	bb 1f       	adc	r27, r27
    32c2:	a5 5a       	subi	r26, 0xA5	; 165
    32c4:	b6 4c       	sbci	r27, 0xC6	; 198
    32c6:	8d 93       	st	X+, r24
    32c8:	9c 93       	st	X, r25
    reactStr[2][number]=type;
    32ca:	ee 0f       	add	r30, r30
    32cc:	ff 1f       	adc	r31, r31
    32ce:	e5 56       	subi	r30, 0x65	; 101
    32d0:	f6 4c       	sbci	r31, 0xC6	; 198
    32d2:	10 82       	st	Z, r1
    32d4:	11 82       	std	Z+1, r1	; 0x01
    return 0;
}

//
void SetResponse(uint8_t number, uint16_t address, uint16_t length, uint8_t type){
    reactStr[0][number]=address;
    32d6:	e1 e0       	ldi	r30, 0x01	; 1
    32d8:	e5 0d       	add	r30, r5
    32da:	f0 e0       	ldi	r31, 0x00	; 0
    32dc:	53 94       	inc	r5
    32de:	53 94       	inc	r5
    32e0:	df 01       	movw	r26, r30
    32e2:	aa 0f       	add	r26, r26
    32e4:	bb 1f       	adc	r27, r27
    32e6:	a5 5e       	subi	r26, 0xE5	; 229
    32e8:	b6 4c       	sbci	r27, 0xC6	; 198
    32ea:	cd 92       	st	X+, r12
    32ec:	dc 92       	st	X, r13
    reactStr[1][number]=length;
    32ee:	df 01       	movw	r26, r30
    32f0:	aa 0f       	add	r26, r26
    32f2:	bb 1f       	adc	r27, r27
    32f4:	a5 5a       	subi	r26, 0xA5	; 165
    32f6:	b6 4c       	sbci	r27, 0xC6	; 198
    32f8:	ad 92       	st	X+, r10
    32fa:	bc 92       	st	X, r11
    reactStr[2][number]=type;
    32fc:	ee 0f       	add	r30, r30
    32fe:	ff 1f       	adc	r31, r31
    3300:	e5 56       	subi	r30, 0x65	; 101
    3302:	f6 4c       	sbci	r31, 0xC6	; 198
    3304:	80 82       	st	Z, r8
    3306:	91 82       	std	Z+1, r9	; 0x01
                SetResponse(elements++, A_EMPTYHANDS, L_EMPTYHANDS, TEASER);
            } else {
                SetResponse(elements++, A_NOWCARRING, L_NOWCARRING, TEASER);
                //SetResponse(elements++, A_SPACE, L_SPACE, TEASER);
                
                for (uint8_t x=0; x<2; ++x) {
    3308:	6e 14       	cp	r6, r14
    330a:	7f 04       	cpc	r7, r15
    330c:	09 f0       	breq	.+2      	; 0x3310 <ProcessInput+0x7a8>
    330e:	bb cf       	rjmp	.-138    	; 0x3286 <ProcessInput+0x71e>
                        SetResponse(elements++, actObj1.addrStr[NAME], actObj1.lenStr[NAME], GAME);
                        SetResponse(elements++, A_COMMA, L_COMMA, TEASER);
                        //SetResponse(elements++, A_SPACE, L_SPACE, TEASER);
                    }
                }
                elements -= 1;
    3310:	77 24       	eor	r7, r7
    3312:	7a 94       	dec	r7
    3314:	75 0c       	add	r7, r5
    3316:	25 c4       	rjmp	.+2122   	; 0x3b62 <ProcessInput+0xffa>
            }            
        
        //Talk, use, give, read
        } else if ((data[0] == 't')||(data[0] == 'u')||(data[0] == 'g')||(data[0] == 'r')) {
    3318:	9c e8       	ldi	r25, 0x8C	; 140
    331a:	98 0f       	add	r25, r24
    331c:	92 30       	cpi	r25, 0x02	; 2
    331e:	28 f0       	brcs	.+10     	; 0x332a <ProcessInput+0x7c2>
    3320:	87 36       	cpi	r24, 0x67	; 103
    3322:	19 f0       	breq	.+6      	; 0x332a <ProcessInput+0x7c2>
    3324:	82 37       	cpi	r24, 0x72	; 114
    3326:	09 f0       	breq	.+2      	; 0x332a <ProcessInput+0x7c2>
    3328:	d7 c2       	rjmp	.+1454   	; 0x38d8 <ProcessInput+0xd70>
            if ((inputLen<2)||(inputLen>3)) {
    332a:	8e ef       	ldi	r24, 0xFE	; 254
    332c:	8f 0d       	add	r24, r15
    332e:	82 30       	cpi	r24, 0x02	; 2
    3330:	08 f0       	brcs	.+2      	; 0x3334 <ProcessInput+0x7cc>
    3332:	49 cc       	rjmp	.-1902   	; 0x2bc6 <ProcessInput+0x5e>
                SetResponse(elements++, A_NOTPOSSIBLE, L_NOTPOSSIBLE, TEASER);                
            
            //Check for visible person or object first
            } else {
                route[currDepth+1] = FindChild(route[currDepth], data[inputLen-1], 0);
    3334:	e0 91 2c 38 	lds	r30, 0x382C	; 0x80382c <currDepth>
    3338:	ce 2e       	mov	r12, r30
    333a:	d1 2c       	mov	r13, r1
    333c:	d8 01       	movw	r26, r16
    333e:	af 0d       	add	r26, r15
    3340:	b1 1d       	adc	r27, r1
    3342:	11 97       	sbiw	r26, 0x01	; 1
    3344:	f6 01       	movw	r30, r12
    3346:	ee 0f       	add	r30, r30
    3348:	ff 1f       	adc	r31, r31
    334a:	e5 52       	subi	r30, 0x25	; 37
    334c:	f6 4c       	sbci	r31, 0xC6	; 198
    334e:	40 e0       	ldi	r20, 0x00	; 0
    3350:	50 e0       	ldi	r21, 0x00	; 0
    3352:	6c 91       	ld	r22, X
    3354:	80 81       	ld	r24, Z
    3356:	91 81       	ldd	r25, Z+1	; 0x01
    3358:	15 d8       	rcall	.-4054   	; 0x2384 <FindChild>
    335a:	f6 01       	movw	r30, r12
    335c:	ee 0f       	add	r30, r30
    335e:	ff 1f       	adc	r31, r31
    3360:	e3 52       	subi	r30, 0x23	; 35
    3362:	f6 4c       	sbci	r31, 0xC6	; 198
    3364:	80 83       	st	Z, r24
    3366:	91 83       	std	Z+1, r25	; 0x01
                if (route[currDepth+1]) {
    3368:	e0 91 2c 38 	lds	r30, 0x382C	; 0x80382c <currDepth>
    336c:	f0 e0       	ldi	r31, 0x00	; 0
    336e:	ee 0f       	add	r30, r30
    3370:	ff 1f       	adc	r31, r31
    3372:	e3 52       	subi	r30, 0x23	; 35
    3374:	f6 4c       	sbci	r31, 0xC6	; 198
    3376:	80 81       	ld	r24, Z
    3378:	91 81       	ldd	r25, Z+1	; 0x01
    337a:	00 97       	sbiw	r24, 0x00	; 0
    337c:	09 f4       	brne	.+2      	; 0x3380 <ProcessInput+0x818>
    337e:	9a c2       	rjmp	.+1332   	; 0x38b4 <ProcessInput+0xd4c>
                    
                    //Give item to person / use item on object 
                    if ((inputLen == 3)&&((data[0] == 'u')||(data[0] == 'g'))) {
    3380:	b3 e0       	ldi	r27, 0x03	; 3
    3382:	fb 12       	cpse	r15, r27
    3384:	78 c1       	rjmp	.+752    	; 0x3676 <ProcessInput+0xb0e>
    3386:	f8 01       	movw	r30, r16
    3388:	20 81       	ld	r18, Z
    338a:	25 37       	cpi	r18, 0x75	; 117
    338c:	19 f0       	breq	.+6      	; 0x3394 <ProcessInput+0x82c>
    338e:	27 36       	cpi	r18, 0x67	; 103
    3390:	09 f0       	breq	.+2      	; 0x3394 <ProcessInput+0x82c>
    3392:	71 c1       	rjmp	.+738    	; 0x3676 <ProcessInput+0xb0e>
    3394:	61 2c       	mov	r6, r1
    3396:	77 24       	eor	r7, r7
    3398:	73 94       	inc	r7
    return 0;
}

//
void SetResponse(uint8_t number, uint16_t address, uint16_t length, uint8_t type){
    reactStr[0][number]=address;
    339a:	53 e6       	ldi	r21, 0x63	; 99
    339c:	c5 2e       	mov	r12, r21
    339e:	59 e7       	ldi	r21, 0x79	; 121
    33a0:	d5 2e       	mov	r13, r21
    reactStr[1][number]=length;
    33a2:	61 e2       	ldi	r22, 0x21	; 33
    33a4:	a6 2e       	mov	r10, r22
    33a6:	b1 2c       	mov	r11, r1
    reactStr[2][number]=type;
    33a8:	88 24       	eor	r8, r8
    33aa:	83 94       	inc	r8
    33ac:	91 2c       	mov	r9, r1
                if (route[currDepth+1]) {
                    
                    //Give item to person / use item on object 
                    if ((inputLen == 3)&&((data[0] == 'u')||(data[0] == 'g'))) {
                        for (uint8_t x=0; x<2; x++) {
                            if (inventory[x]) { 
    33ae:	e6 2c       	mov	r14, r6
    33b0:	f1 2c       	mov	r15, r1
    33b2:	c7 01       	movw	r24, r14
    33b4:	88 0f       	add	r24, r24
    33b6:	99 1f       	adc	r25, r25
    33b8:	9c 01       	movw	r18, r24
    33ba:	22 5c       	subi	r18, 0xC2	; 194
    33bc:	37 4c       	sbci	r19, 0xC7	; 199
    33be:	79 01       	movw	r14, r18
    33c0:	d9 01       	movw	r26, r18
    33c2:	8d 91       	ld	r24, X+
    33c4:	9c 91       	ld	r25, X
    33c6:	00 97       	sbiw	r24, 0x00	; 0
    33c8:	81 f0       	breq	.+32     	; 0x33ea <ProcessInput+0x882>
                                if (CheckLetter(inventory[x], data[1])) {
    33ca:	f8 01       	movw	r30, r16
    33cc:	61 81       	ldd	r22, Z+1	; 0x01
    33ce:	0e 94 6e 11 	call	0x22dc	; 0x22dc <CheckLetter>
    33d2:	88 23       	and	r24, r24
    33d4:	51 f0       	breq	.+20     	; 0x33ea <ProcessInput+0x882>
                                    PopulateObject(inventory[x], &actObj2);
    33d6:	6f ea       	ldi	r22, 0xAF	; 175
    33d8:	78 e3       	ldi	r23, 0x38	; 56
    33da:	d7 01       	movw	r26, r14
    33dc:	8d 91       	ld	r24, X+
    33de:	9c 91       	ld	r25, X
    33e0:	0e 94 f7 10 	call	0x21ee	; 0x21ee <PopulateObject>
                                    x = 2;
    33e4:	32 e0       	ldi	r19, 0x02	; 2
    33e6:	63 2e       	mov	r6, r19
    33e8:	1e c0       	rjmp	.+60     	; 0x3426 <ProcessInput+0x8be>
                                }
                            }
                            if (x == 1) { 
    33ea:	b1 e0       	ldi	r27, 0x01	; 1
    33ec:	6b 12       	cpse	r6, r27
    33ee:	1a c0       	rjmp	.+52     	; 0x3424 <ProcessInput+0x8bc>
    return 0;
}

//
void SetResponse(uint8_t number, uint16_t address, uint16_t length, uint8_t type){
    reactStr[0][number]=address;
    33f0:	e7 2d       	mov	r30, r7
    33f2:	f0 e0       	ldi	r31, 0x00	; 0
    33f4:	df 01       	movw	r26, r30
    33f6:	aa 0f       	add	r26, r26
    33f8:	bb 1f       	adc	r27, r27
    33fa:	a5 5e       	subi	r26, 0xE5	; 229
    33fc:	b6 4c       	sbci	r27, 0xC6	; 198
    33fe:	cd 92       	st	X+, r12
    3400:	dc 92       	st	X, r13
    reactStr[1][number]=length;
    3402:	df 01       	movw	r26, r30
    3404:	aa 0f       	add	r26, r26
    3406:	bb 1f       	adc	r27, r27
    3408:	a5 5a       	subi	r26, 0xA5	; 165
    340a:	b6 4c       	sbci	r27, 0xC6	; 198
    340c:	ad 92       	st	X+, r10
    340e:	bc 92       	st	X, r11
    reactStr[2][number]=type;
    3410:	ee 0f       	add	r30, r30
    3412:	ff 1f       	adc	r31, r31
    3414:	e5 56       	subi	r30, 0x65	; 101
    3416:	f6 4c       	sbci	r31, 0xC6	; 198
    3418:	80 82       	st	Z, r8
    341a:	91 82       	std	Z+1, r9	; 0x01
                                    x = 2;
                                }
                            }
                            if (x == 1) { 
                                SetResponse(elements++, A_NOTCARRYING, L_NOTCARRYING, TEASER);
                                data[0] = 0;
    341c:	f8 01       	movw	r30, r16
    341e:	10 82       	st	Z, r1
                                    PopulateObject(inventory[x], &actObj2);
                                    x = 2;
                                }
                            }
                            if (x == 1) { 
                                SetResponse(elements++, A_NOTCARRYING, L_NOTCARRYING, TEASER);
    3420:	73 94       	inc	r7
    3422:	01 c0       	rjmp	.+2      	; 0x3426 <ProcessInput+0x8be>
    3424:	61 2c       	mov	r6, r1
                route[currDepth+1] = FindChild(route[currDepth], data[inputLen-1], 0);
                if (route[currDepth+1]) {
                    
                    //Give item to person / use item on object 
                    if ((inputLen == 3)&&((data[0] == 'u')||(data[0] == 'g'))) {
                        for (uint8_t x=0; x<2; x++) {
    3426:	63 94       	inc	r6
    3428:	f1 e0       	ldi	r31, 0x01	; 1
    342a:	6f 16       	cp	r6, r31
    342c:	09 f4       	brne	.+2      	; 0x3430 <ProcessInput+0x8c8>
    342e:	bf cf       	rjmp	.-130    	; 0x33ae <ProcessInput+0x846>
                                data[0] = 0;
                            }
                        }

                        //Both the item and person/object are found, check if action is legit
                        if (data[0]){
    3430:	d8 01       	movw	r26, r16
    3432:	8c 91       	ld	r24, X
    3434:	88 23       	and	r24, r24
    3436:	09 f4       	brne	.+2      	; 0x343a <ProcessInput+0x8d2>
    3438:	94 c3       	rjmp	.+1832   	; 0x3b62 <ProcessInput+0xffa>
                            PopulateObject(route[currDepth+1], &actObj1);
    343a:	e0 91 2c 38 	lds	r30, 0x382C	; 0x80382c <currDepth>
    343e:	f0 e0       	ldi	r31, 0x00	; 0
    3440:	ee 0f       	add	r30, r30
    3442:	ff 1f       	adc	r31, r31
    3444:	e3 52       	subi	r30, 0x23	; 35
    3446:	f6 4c       	sbci	r31, 0xC6	; 198
    3448:	6a ed       	ldi	r22, 0xDA	; 218
    344a:	78 e3       	ldi	r23, 0x38	; 56
    344c:	80 81       	ld	r24, Z
    344e:	91 81       	ldd	r25, Z+1	; 0x01
    3450:	0e 94 f7 10 	call	0x21ee	; 0x21ee <PopulateObject>

                            //Special game
                            if (actObj1.lenStr[ACTION_STR1] == 1) {
    3454:	e0 90 f8 38 	lds	r14, 0x38F8	; 0x8038f8 <actObj1.3995+0x1e>
    3458:	f0 90 f9 38 	lds	r15, 0x38F9	; 0x8038f9 <actObj1.3995+0x1f>
    345c:	b1 e0       	ldi	r27, 0x01	; 1
    345e:	eb 16       	cp	r14, r27
    3460:	f1 04       	cpc	r15, r1
    3462:	09 f0       	breq	.+2      	; 0x3466 <ProcessInput+0x8fe>
    3464:	9a c0       	rjmp	.+308    	; 0x359a <ProcessInput+0xa32>
                                ExtEERead(actObj1.addrStr[ACTION_STR1], 1, GAME, &data[2]);
    3466:	98 01       	movw	r18, r16
    3468:	2e 5f       	subi	r18, 0xFE	; 254
    346a:	3f 4f       	sbci	r19, 0xFF	; 255
    346c:	40 e0       	ldi	r20, 0x00	; 0
    346e:	61 e0       	ldi	r22, 0x01	; 1
    3470:	80 91 ea 38 	lds	r24, 0x38EA	; 0x8038ea <actObj1.3995+0x10>
    3474:	90 91 eb 38 	lds	r25, 0x38EB	; 0x8038eb <actObj1.3995+0x11>
    3478:	0e 94 e7 0f 	call	0x1fce	; 0x1fce <ExtEERead>
                                if (data[2] == '1') {
    347c:	f8 01       	movw	r30, r16
    347e:	42 81       	ldd	r20, Z+2	; 0x02
    3480:	21 e0       	ldi	r18, 0x01	; 1
    3482:	27 0d       	add	r18, r7
    3484:	87 2d       	mov	r24, r7
    3486:	90 e0       	ldi	r25, 0x00	; 0
    3488:	41 33       	cpi	r20, 0x31	; 49
    348a:	09 f0       	breq	.+2      	; 0x348e <ProcessInput+0x926>
    348c:	6b c0       	rjmp	.+214    	; 0x3564 <ProcessInput+0x9fc>
                                    uint8_t item = actObj2.byteField[ITEM_NR];
    348e:	30 91 ba 38 	lds	r19, 0x38BA	; 0x8038ba <actObj2.3996+0xb>
                                    if ((item < 31)||(item > 34)) {
    3492:	51 ee       	ldi	r21, 0xE1	; 225
    3494:	53 0f       	add	r21, r19
    return 0;
}

//
void SetResponse(uint8_t number, uint16_t address, uint16_t length, uint8_t type){
    reactStr[0][number]=address;
    3496:	fc 01       	movw	r30, r24
    3498:	ee 0f       	add	r30, r30
    349a:	ff 1f       	adc	r31, r31
    349c:	e5 5e       	subi	r30, 0xE5	; 229
    349e:	f6 4c       	sbci	r31, 0xC6	; 198
                            //Special game
                            if (actObj1.lenStr[ACTION_STR1] == 1) {
                                ExtEERead(actObj1.addrStr[ACTION_STR1], 1, GAME, &data[2]);
                                if (data[2] == '1') {
                                    uint8_t item = actObj2.byteField[ITEM_NR];
                                    if ((item < 31)||(item > 34)) {
    34a0:	54 30       	cpi	r21, 0x04	; 4
    34a2:	60 f0       	brcs	.+24     	; 0x34bc <ProcessInput+0x954>
    return 0;
}

//
void SetResponse(uint8_t number, uint16_t address, uint16_t length, uint8_t type){
    reactStr[0][number]=address;
    34a4:	43 e0       	ldi	r20, 0x03	; 3
    34a6:	59 e7       	ldi	r21, 0x79	; 121
    34a8:	40 83       	st	Z, r20
    34aa:	51 83       	std	Z+1, r21	; 0x01
    reactStr[1][number]=length;
    34ac:	fc 01       	movw	r30, r24
    34ae:	ee 0f       	add	r30, r30
    34b0:	ff 1f       	adc	r31, r31
    34b2:	e5 5a       	subi	r30, 0xA5	; 165
    34b4:	f6 4c       	sbci	r31, 0xC6	; 198
    34b6:	4a e1       	ldi	r20, 0x1A	; 26
    34b8:	50 e0       	ldi	r21, 0x00	; 0
    34ba:	64 c0       	rjmp	.+200    	; 0x3584 <ProcessInput+0xa1c>
    return 0;
}

//
void SetResponse(uint8_t number, uint16_t address, uint16_t length, uint8_t type){
    reactStr[0][number]=address;
    34bc:	6d e8       	ldi	r22, 0x8D	; 141
    34be:	75 e7       	ldi	r23, 0x75	; 117
    34c0:	60 83       	st	Z, r22
    34c2:	71 83       	std	Z+1, r23	; 0x01
    reactStr[1][number]=length;
    34c4:	fc 01       	movw	r30, r24
    34c6:	ee 0f       	add	r30, r30
    34c8:	ff 1f       	adc	r31, r31
    34ca:	e5 5a       	subi	r30, 0xA5	; 165
    34cc:	f6 4c       	sbci	r31, 0xC6	; 198
    34ce:	62 eb       	ldi	r22, 0xB2	; 178
    34d0:	70 e0       	ldi	r23, 0x00	; 0
    34d2:	60 83       	st	Z, r22
    34d4:	71 83       	std	Z+1, r23	; 0x01
    reactStr[2][number]=type;
    34d6:	88 0f       	add	r24, r24
    34d8:	99 1f       	adc	r25, r25
    34da:	fc 01       	movw	r30, r24
    34dc:	e5 56       	subi	r30, 0x65	; 101
    34de:	f6 4c       	sbci	r31, 0xC6	; 198
    34e0:	e0 82       	st	Z, r14
    34e2:	f1 82       	std	Z+1, r15	; 0x01
    return 0;
}

//
void SetResponse(uint8_t number, uint16_t address, uint16_t length, uint8_t type){
    reactStr[0][number]=address;
    34e4:	82 2f       	mov	r24, r18
    34e6:	90 e0       	ldi	r25, 0x00	; 0
    34e8:	fc 01       	movw	r30, r24
    34ea:	ee 0f       	add	r30, r30
    34ec:	ff 1f       	adc	r31, r31
    34ee:	e5 5e       	subi	r30, 0xE5	; 229
    34f0:	f6 4c       	sbci	r31, 0xC6	; 198
    34f2:	6b e5       	ldi	r22, 0x5B	; 91
    34f4:	7a e7       	ldi	r23, 0x7A	; 122
    34f6:	60 83       	st	Z, r22
    34f8:	71 83       	std	Z+1, r23	; 0x01
    reactStr[1][number]=length;
    34fa:	fc 01       	movw	r30, r24
    34fc:	ee 0f       	add	r30, r30
    34fe:	ff 1f       	adc	r31, r31
    3500:	e5 5a       	subi	r30, 0xA5	; 165
    3502:	f6 4c       	sbci	r31, 0xC6	; 198
    3504:	62 e0       	ldi	r22, 0x02	; 2
    3506:	70 e0       	ldi	r23, 0x00	; 0
    3508:	60 83       	st	Z, r22
    350a:	71 83       	std	Z+1, r23	; 0x01
    reactStr[2][number]=type;
    350c:	88 0f       	add	r24, r24
    350e:	99 1f       	adc	r25, r25
    3510:	fc 01       	movw	r30, r24
    3512:	e5 56       	subi	r30, 0x65	; 101
    3514:	f6 4c       	sbci	r31, 0xC6	; 198
    3516:	e0 82       	st	Z, r14
    3518:	f1 82       	std	Z+1, r15	; 0x01
    return 0;
}

//
void SetResponse(uint8_t number, uint16_t address, uint16_t length, uint8_t type){
    reactStr[0][number]=address;
    351a:	82 e0       	ldi	r24, 0x02	; 2
    351c:	87 0d       	add	r24, r7
    351e:	90 e0       	ldi	r25, 0x00	; 0
    3520:	f3 e0       	ldi	r31, 0x03	; 3
    3522:	7f 0e       	add	r7, r31
    3524:	fc 01       	movw	r30, r24
    3526:	ee 0f       	add	r30, r30
    3528:	ff 1f       	adc	r31, r31
    352a:	e5 5e       	subi	r30, 0xE5	; 229
    352c:	f6 4c       	sbci	r31, 0xC6	; 198
    352e:	6f ea       	ldi	r22, 0xAF	; 175
    3530:	78 e7       	ldi	r23, 0x78	; 120
    3532:	60 83       	st	Z, r22
    3534:	71 83       	std	Z+1, r23	; 0x01
    reactStr[1][number]=length;
    3536:	fc 01       	movw	r30, r24
    3538:	ee 0f       	add	r30, r30
    353a:	ff 1f       	adc	r31, r31
    353c:	e5 5a       	subi	r30, 0xA5	; 165
    353e:	f6 4c       	sbci	r31, 0xC6	; 198
    3540:	62 e1       	ldi	r22, 0x12	; 18
    3542:	70 e0       	ldi	r23, 0x00	; 0
    3544:	60 83       	st	Z, r22
    3546:	71 83       	std	Z+1, r23	; 0x01
    reactStr[2][number]=type;
    3548:	88 0f       	add	r24, r24
    354a:	99 1f       	adc	r25, r25
    354c:	fc 01       	movw	r30, r24
    354e:	e5 56       	subi	r30, 0x65	; 101
    3550:	f6 4c       	sbci	r31, 0xC6	; 198
    3552:	e0 82       	st	Z, r14
    3554:	f1 82       	std	Z+1, r15	; 0x01
                                        SetResponse(elements++, A_CANTUSE, L_CANTUSE, TEASER);
                                    } else {
                                        SetResponse(elements++, A_PRIEST, L_PRIEST, TEASER);
                                        SetResponse(elements++, A_LF, 2, TEASER);
                                        SetResponse(elements++, A_RESPONSE, L_RESPONSE, TEASER);
                                        specialInput[0] = '1';
    3556:	40 93 0a 39 	sts	0x390A, r20	; 0x80390a <specialInput>
                                        specialInput[1] = item;
    355a:	30 93 0b 39 	sts	0x390B, r19	; 0x80390b <specialInput+0x1>
                                        specialInput[2] = 0;
    355e:	10 92 0c 39 	sts	0x390C, r1	; 0x80390c <specialInput+0x2>
    3562:	ff c2       	rjmp	.+1534   	; 0x3b62 <ProcessInput+0xffa>
    return 0;
}

//
void SetResponse(uint8_t number, uint16_t address, uint16_t length, uint8_t type){
    reactStr[0][number]=address;
    3564:	fc 01       	movw	r30, r24
    3566:	ee 0f       	add	r30, r30
    3568:	ff 1f       	adc	r31, r31
    356a:	e5 5e       	subi	r30, 0xE5	; 229
    356c:	f6 4c       	sbci	r31, 0xC6	; 198
    356e:	4f e3       	ldi	r20, 0x3F	; 63
    3570:	56 e7       	ldi	r21, 0x76	; 118
    3572:	40 83       	st	Z, r20
    3574:	51 83       	std	Z+1, r21	; 0x01
    reactStr[1][number]=length;
    3576:	fc 01       	movw	r30, r24
    3578:	ee 0f       	add	r30, r30
    357a:	ff 1f       	adc	r31, r31
    357c:	e5 5a       	subi	r30, 0xA5	; 165
    357e:	f6 4c       	sbci	r31, 0xC6	; 198
    3580:	42 e4       	ldi	r20, 0x42	; 66
    3582:	50 e0       	ldi	r21, 0x00	; 0
    3584:	40 83       	st	Z, r20
    3586:	51 83       	std	Z+1, r21	; 0x01
    reactStr[2][number]=type;
    3588:	88 0f       	add	r24, r24
    358a:	99 1f       	adc	r25, r25
    358c:	fc 01       	movw	r30, r24
    358e:	e5 56       	subi	r30, 0x65	; 101
    3590:	f6 4c       	sbci	r31, 0xC6	; 198
    3592:	e0 82       	st	Z, r14
    3594:	f1 82       	std	Z+1, r15	; 0x01
                                        specialInput[2] = 0;
                                    }

                                //There should not be another special
                                } else {
                                    SetResponse(elements++, A_ERROR, L_ERROR, TEASER);
    3596:	72 2e       	mov	r7, r18
    3598:	e4 c2       	rjmp	.+1480   	; 0x3b62 <ProcessInput+0xffa>
                                }

                            //Normal "use ... on ..." or "give ... to ..." action
                            } else if (actObj1.byteField[ACTION_ITEM] == actObj2.byteField[ITEM_NR]) {
    359a:	90 91 e3 38 	lds	r25, 0x38E3	; 0x8038e3 <actObj1.3995+0x9>
    359e:	80 91 ba 38 	lds	r24, 0x38BA	; 0x8038ba <actObj2.3996+0xb>
    35a2:	98 13       	cpse	r25, r24
    35a4:	2f c0       	rjmp	.+94     	; 0x3604 <ProcessInput+0xa9c>
                                SetResponse(elements++, actObj1.addrStr[ACTION_MSG], actObj1.lenStr[ACTION_MSG], GAME);
    35a6:	20 91 00 39 	lds	r18, 0x3900	; 0x803900 <actObj1.3995+0x26>
    35aa:	30 91 01 39 	lds	r19, 0x3901	; 0x803901 <actObj1.3995+0x27>
    35ae:	ff 24       	eor	r15, r15
    35b0:	f3 94       	inc	r15
    35b2:	f7 0c       	add	r15, r7
    return 0;
}

//
void SetResponse(uint8_t number, uint16_t address, uint16_t length, uint8_t type){
    reactStr[0][number]=address;
    35b4:	87 2d       	mov	r24, r7
    35b6:	90 e0       	ldi	r25, 0x00	; 0
    35b8:	fc 01       	movw	r30, r24
    35ba:	ee 0f       	add	r30, r30
    35bc:	ff 1f       	adc	r31, r31
    35be:	e5 5e       	subi	r30, 0xE5	; 229
    35c0:	f6 4c       	sbci	r31, 0xC6	; 198
    35c2:	40 91 f2 38 	lds	r20, 0x38F2	; 0x8038f2 <actObj1.3995+0x18>
    35c6:	50 91 f3 38 	lds	r21, 0x38F3	; 0x8038f3 <actObj1.3995+0x19>
    35ca:	40 83       	st	Z, r20
    35cc:	51 83       	std	Z+1, r21	; 0x01
    reactStr[1][number]=length;
    35ce:	fc 01       	movw	r30, r24
    35d0:	ee 0f       	add	r30, r30
    35d2:	ff 1f       	adc	r31, r31
    35d4:	e5 5a       	subi	r30, 0xA5	; 165
    35d6:	f6 4c       	sbci	r31, 0xC6	; 198
    35d8:	20 83       	st	Z, r18
    35da:	31 83       	std	Z+1, r19	; 0x01
    reactStr[2][number]=type;
    35dc:	88 0f       	add	r24, r24
    35de:	99 1f       	adc	r25, r25
    35e0:	fc 01       	movw	r30, r24
    35e2:	e5 56       	subi	r30, 0x65	; 101
    35e4:	f6 4c       	sbci	r31, 0xC6	; 198
    35e6:	10 82       	st	Z, r1
    35e8:	11 82       	std	Z+1, r1	; 0x01
                                }

                            //Normal "use ... on ..." or "give ... to ..." action
                            } else if (actObj1.byteField[ACTION_ITEM] == actObj2.byteField[ITEM_NR]) {
                                SetResponse(elements++, actObj1.addrStr[ACTION_MSG], actObj1.lenStr[ACTION_MSG], GAME);
                                effect = actObj1.effect[2];
    35ea:	80 91 04 39 	lds	r24, 0x3904	; 0x803904 <actObj1.3995+0x2a>
    35ee:	90 e0       	ldi	r25, 0x00	; 0
    35f0:	80 93 3a 38 	sts	0x383A, r24	; 0x80383a <effect>
    35f4:	90 93 3b 38 	sts	0x383B, r25	; 0x80383b <effect+0x1>
                                UpdateState(actObj1.byteField[ACTION_STATE]);
    35f8:	80 91 e4 38 	lds	r24, 0x38E4	; 0x8038e4 <actObj1.3995+0xa>
    35fc:	0e 94 51 0a 	call	0x14a2	; 0x14a2 <UpdateState>
                                    SetResponse(elements++, A_ERROR, L_ERROR, TEASER);
                                }

                            //Normal "use ... on ..." or "give ... to ..." action
                            } else if (actObj1.byteField[ACTION_ITEM] == actObj2.byteField[ITEM_NR]) {
                                SetResponse(elements++, actObj1.addrStr[ACTION_MSG], actObj1.lenStr[ACTION_MSG], GAME);
    3600:	7f 2c       	mov	r7, r15
    3602:	af c2       	rjmp	.+1374   	; 0x3b62 <ProcessInput+0xffa>
                                effect = actObj1.effect[2];
                                UpdateState(actObj1.byteField[ACTION_STATE]);
                                
                            } else {
                                if (data[0] == 'u') {
    3604:	d8 01       	movw	r26, r16
    3606:	8c 91       	ld	r24, X
    3608:	85 37       	cpi	r24, 0x75	; 117
    360a:	99 f4       	brne	.+38     	; 0x3632 <ProcessInput+0xaca>
    return 0;
}

//
void SetResponse(uint8_t number, uint16_t address, uint16_t length, uint8_t type){
    reactStr[0][number]=address;
    360c:	87 2d       	mov	r24, r7
    360e:	90 e0       	ldi	r25, 0x00	; 0
    3610:	fc 01       	movw	r30, r24
    3612:	ee 0f       	add	r30, r30
    3614:	ff 1f       	adc	r31, r31
    3616:	e5 5e       	subi	r30, 0xE5	; 229
    3618:	f6 4c       	sbci	r31, 0xC6	; 198
    361a:	23 e0       	ldi	r18, 0x03	; 3
    361c:	39 e7       	ldi	r19, 0x79	; 121
    361e:	20 83       	st	Z, r18
    3620:	31 83       	std	Z+1, r19	; 0x01
    reactStr[1][number]=length;
    3622:	fc 01       	movw	r30, r24
    3624:	ee 0f       	add	r30, r30
    3626:	ff 1f       	adc	r31, r31
    3628:	e5 5a       	subi	r30, 0xA5	; 165
    362a:	f6 4c       	sbci	r31, 0xC6	; 198
    362c:	2a e1       	ldi	r18, 0x1A	; 26
    362e:	30 e0       	ldi	r19, 0x00	; 0
    3630:	15 c0       	rjmp	.+42     	; 0x365c <ProcessInput+0xaf4>
                                UpdateState(actObj1.byteField[ACTION_STATE]);
                                
                            } else {
                                if (data[0] == 'u') {
                                    SetResponse(elements++, A_CANTUSE, L_CANTUSE, TEASER);
                                } else if (data[0] == 'g') {
    3632:	87 36       	cpi	r24, 0x67	; 103
    3634:	09 f0       	breq	.+2      	; 0x3638 <ProcessInput+0xad0>
    3636:	95 c2       	rjmp	.+1322   	; 0x3b62 <ProcessInput+0xffa>
    return 0;
}

//
void SetResponse(uint8_t number, uint16_t address, uint16_t length, uint8_t type){
    reactStr[0][number]=address;
    3638:	87 2d       	mov	r24, r7
    363a:	90 e0       	ldi	r25, 0x00	; 0
    363c:	fc 01       	movw	r30, r24
    363e:	ee 0f       	add	r30, r30
    3640:	ff 1f       	adc	r31, r31
    3642:	e5 5e       	subi	r30, 0xE5	; 229
    3644:	f6 4c       	sbci	r31, 0xC6	; 198
    3646:	2c ed       	ldi	r18, 0xDC	; 220
    3648:	36 e7       	ldi	r19, 0x76	; 118
    364a:	20 83       	st	Z, r18
    364c:	31 83       	std	Z+1, r19	; 0x01
    reactStr[1][number]=length;
    364e:	fc 01       	movw	r30, r24
    3650:	ee 0f       	add	r30, r30
    3652:	ff 1f       	adc	r31, r31
    3654:	e5 5a       	subi	r30, 0xA5	; 165
    3656:	f6 4c       	sbci	r31, 0xC6	; 198
    3658:	28 e2       	ldi	r18, 0x28	; 40
    365a:	30 e0       	ldi	r19, 0x00	; 0
    365c:	20 83       	st	Z, r18
    365e:	31 83       	std	Z+1, r19	; 0x01
    reactStr[2][number]=type;
    3660:	88 0f       	add	r24, r24
    3662:	99 1f       	adc	r25, r25
    3664:	fc 01       	movw	r30, r24
    3666:	e5 56       	subi	r30, 0x65	; 101
    3668:	f6 4c       	sbci	r31, 0xC6	; 198
    366a:	81 e0       	ldi	r24, 0x01	; 1
    366c:	90 e0       	ldi	r25, 0x00	; 0
    366e:	80 83       	st	Z, r24
    3670:	91 83       	std	Z+1, r25	; 0x01
                                
                            } else {
                                if (data[0] == 'u') {
                                    SetResponse(elements++, A_CANTUSE, L_CANTUSE, TEASER);
                                } else if (data[0] == 'g') {
                                    SetResponse(elements++, A_CANTGIVE, L_CANTGIVE, TEASER);                                    
    3672:	73 94       	inc	r7
    3674:	76 c2       	rjmp	.+1260   	; 0x3b62 <ProcessInput+0xffa>
                            }
                        }
                    
                    //Talk to person, read or use object (without item)                          
                    } else {
                        PopulateObject(route[currDepth+1], &actObj1);
    3676:	6a ed       	ldi	r22, 0xDA	; 218
    3678:	78 e3       	ldi	r23, 0x38	; 56
    367a:	0e 94 f7 10 	call	0x21ee	; 0x21ee <PopulateObject>
                        if ((data[0] == 't')&&((actObj1.byteField[ACTION_MASK]&TALK) == 0)) {
    367e:	f8 01       	movw	r30, r16
    3680:	80 81       	ld	r24, Z
    3682:	84 37       	cpi	r24, 0x74	; 116
    3684:	69 f5       	brne	.+90     	; 0x36e0 <ProcessInput+0xb78>
    3686:	80 91 e2 38 	lds	r24, 0x38E2	; 0x8038e2 <actObj1.3995+0x8>
    368a:	83 fd       	sbrc	r24, 3
    368c:	4a c0       	rjmp	.+148    	; 0x3722 <ProcessInput+0xbba>
    return 0;
}

//
void SetResponse(uint8_t number, uint16_t address, uint16_t length, uint8_t type){
    reactStr[0][number]=address;
    368e:	8d e1       	ldi	r24, 0x1D	; 29
    3690:	99 e7       	ldi	r25, 0x79	; 121
    3692:	80 93 1d 39 	sts	0x391D, r24	; 0x80391d <reactStr+0x2>
    3696:	90 93 1e 39 	sts	0x391E, r25	; 0x80391e <reactStr+0x3>
    reactStr[1][number]=length;
    369a:	8e e1       	ldi	r24, 0x1E	; 30
    369c:	90 e0       	ldi	r25, 0x00	; 0
    369e:	80 93 5d 39 	sts	0x395D, r24	; 0x80395d <reactStr+0x42>
    36a2:	90 93 5e 39 	sts	0x395E, r25	; 0x80395e <reactStr+0x43>
    reactStr[2][number]=type;
    36a6:	81 e0       	ldi	r24, 0x01	; 1
    36a8:	90 e0       	ldi	r25, 0x00	; 0
    36aa:	80 93 9d 39 	sts	0x399D, r24	; 0x80399d <reactStr+0x82>
    36ae:	90 93 9e 39 	sts	0x399E, r25	; 0x80399e <reactStr+0x83>
                    //Talk to person, read or use object (without item)                          
                    } else {
                        PopulateObject(route[currDepth+1], &actObj1);
                        if ((data[0] == 't')&&((actObj1.byteField[ACTION_MASK]&TALK) == 0)) {
                            SetResponse(elements++, A_WHYTALK, L_WHYTALK, TEASER);
                            SetResponse(elements++, actObj1.addrStr[NAME], actObj1.lenStr[NAME], GAME);
    36b2:	80 91 f4 38 	lds	r24, 0x38F4	; 0x8038f4 <actObj1.3995+0x1a>
    36b6:	90 91 f5 38 	lds	r25, 0x38F5	; 0x8038f5 <actObj1.3995+0x1b>
    return 0;
}

//
void SetResponse(uint8_t number, uint16_t address, uint16_t length, uint8_t type){
    reactStr[0][number]=address;
    36ba:	20 91 e6 38 	lds	r18, 0x38E6	; 0x8038e6 <actObj1.3995+0xc>
    36be:	30 91 e7 38 	lds	r19, 0x38E7	; 0x8038e7 <actObj1.3995+0xd>
    36c2:	20 93 1f 39 	sts	0x391F, r18	; 0x80391f <reactStr+0x4>
    36c6:	30 93 20 39 	sts	0x3920, r19	; 0x803920 <reactStr+0x5>
    reactStr[1][number]=length;
    36ca:	80 93 5f 39 	sts	0x395F, r24	; 0x80395f <reactStr+0x44>
    36ce:	90 93 60 39 	sts	0x3960, r25	; 0x803960 <reactStr+0x45>
    reactStr[2][number]=type;
    36d2:	10 92 9f 39 	sts	0x399F, r1	; 0x80399f <reactStr+0x84>
    36d6:	10 92 a0 39 	sts	0x39A0, r1	; 0x8039a0 <reactStr+0x85>
                    //Talk to person, read or use object (without item)                          
                    } else {
                        PopulateObject(route[currDepth+1], &actObj1);
                        if ((data[0] == 't')&&((actObj1.byteField[ACTION_MASK]&TALK) == 0)) {
                            SetResponse(elements++, A_WHYTALK, L_WHYTALK, TEASER);
                            SetResponse(elements++, actObj1.addrStr[NAME], actObj1.lenStr[NAME], GAME);
    36da:	e3 e0       	ldi	r30, 0x03	; 3
    36dc:	7e 2e       	mov	r7, r30
    36de:	41 c2       	rjmp	.+1154   	; 0x3b62 <ProcessInput+0xffa>
                        } else if ((data[0] == 'u')&&((actObj1.byteField[ACTION_MASK]&USE) == 0)) {
    36e0:	85 37       	cpi	r24, 0x75	; 117
    36e2:	69 f4       	brne	.+26     	; 0x36fe <ProcessInput+0xb96>
    36e4:	80 91 e2 38 	lds	r24, 0x38E2	; 0x8038e2 <actObj1.3995+0x8>
    36e8:	84 fd       	sbrc	r24, 4
    36ea:	1b c0       	rjmp	.+54     	; 0x3722 <ProcessInput+0xbba>
    return 0;
}

//
void SetResponse(uint8_t number, uint16_t address, uint16_t length, uint8_t type){
    reactStr[0][number]=address;
    36ec:	83 e0       	ldi	r24, 0x03	; 3
    36ee:	99 e7       	ldi	r25, 0x79	; 121
    36f0:	80 93 1d 39 	sts	0x391D, r24	; 0x80391d <reactStr+0x2>
    36f4:	90 93 1e 39 	sts	0x391E, r25	; 0x80391e <reactStr+0x3>
    reactStr[1][number]=length;
    36f8:	8a e1       	ldi	r24, 0x1A	; 26
    36fa:	90 e0       	ldi	r25, 0x00	; 0
    36fc:	f9 ca       	rjmp	.-2574   	; 0x2cf0 <ProcessInput+0x188>
                        if ((data[0] == 't')&&((actObj1.byteField[ACTION_MASK]&TALK) == 0)) {
                            SetResponse(elements++, A_WHYTALK, L_WHYTALK, TEASER);
                            SetResponse(elements++, actObj1.addrStr[NAME], actObj1.lenStr[NAME], GAME);
                        } else if ((data[0] == 'u')&&((actObj1.byteField[ACTION_MASK]&USE) == 0)) {
                            SetResponse(elements++, A_CANTUSE, L_CANTUSE, TEASER);
                        } else if ((data[0] == 'r')&&((actObj1.byteField[ACTION_MASK]&READ) == 0)) {
    36fe:	82 37       	cpi	r24, 0x72	; 114
    3700:	69 f4       	brne	.+26     	; 0x371c <ProcessInput+0xbb4>
    3702:	80 91 e2 38 	lds	r24, 0x38E2	; 0x8038e2 <actObj1.3995+0x8>
    3706:	85 fd       	sbrc	r24, 5
    3708:	0c c0       	rjmp	.+24     	; 0x3722 <ProcessInput+0xbba>
    return 0;
}

//
void SetResponse(uint8_t number, uint16_t address, uint16_t length, uint8_t type){
    reactStr[0][number]=address;
    370a:	88 ee       	ldi	r24, 0xE8	; 232
    370c:	98 e7       	ldi	r25, 0x78	; 120
    370e:	80 93 1d 39 	sts	0x391D, r24	; 0x80391d <reactStr+0x2>
    3712:	90 93 1e 39 	sts	0x391E, r25	; 0x80391e <reactStr+0x3>
    reactStr[1][number]=length;
    3716:	8b e1       	ldi	r24, 0x1B	; 27
    3718:	90 e0       	ldi	r25, 0x00	; 0
    371a:	ea ca       	rjmp	.-2604   	; 0x2cf0 <ProcessInput+0x188>
                            SetResponse(elements++, actObj1.addrStr[NAME], actObj1.lenStr[NAME], GAME);
                        } else if ((data[0] == 'u')&&((actObj1.byteField[ACTION_MASK]&USE) == 0)) {
                            SetResponse(elements++, A_CANTUSE, L_CANTUSE, TEASER);
                        } else if ((data[0] == 'r')&&((actObj1.byteField[ACTION_MASK]&READ) == 0)) {
                            SetResponse(elements++, A_CANTREAD, L_CANTREAD, TEASER);
                        } else if (data[0] == 'g'){ 
    371c:	87 36       	cpi	r24, 0x67	; 103
    371e:	09 f4       	brne	.+2      	; 0x3722 <ProcessInput+0xbba>
    3720:	52 ca       	rjmp	.-2908   	; 0x2bc6 <ProcessInput+0x5e>
                            SetResponse(elements++, A_NOTPOSSIBLE, L_NOTPOSSIBLE, TEASER);  
                        } else {

                            //Special game, not enough characters
                            if (actObj1.lenStr[ACTION_STR1] == 1) {
    3722:	e0 90 f8 38 	lds	r14, 0x38F8	; 0x8038f8 <actObj1.3995+0x1e>
    3726:	f0 90 f9 38 	lds	r15, 0x38F9	; 0x8038f9 <actObj1.3995+0x1f>
    372a:	f1 e0       	ldi	r31, 0x01	; 1
    372c:	ef 16       	cp	r14, r31
    372e:	f1 04       	cpc	r15, r1
    3730:	11 f5       	brne	.+68     	; 0x3776 <ProcessInput+0xc0e>
                                ExtEERead(actObj1.addrStr[ACTION_STR1], 1, GAME, &data[2]);
    3732:	98 01       	movw	r18, r16
    3734:	2e 5f       	subi	r18, 0xFE	; 254
    3736:	3f 4f       	sbci	r19, 0xFF	; 255
    3738:	40 e0       	ldi	r20, 0x00	; 0
    373a:	61 e0       	ldi	r22, 0x01	; 1
    373c:	80 91 ea 38 	lds	r24, 0x38EA	; 0x8038ea <actObj1.3995+0x10>
    3740:	90 91 eb 38 	lds	r25, 0x38EB	; 0x8038eb <actObj1.3995+0x11>
    3744:	0e 94 e7 0f 	call	0x1fce	; 0x1fce <ExtEERead>
                                if (data[2] == '1') {
    3748:	d8 01       	movw	r26, r16
    374a:	12 96       	adiw	r26, 0x02	; 2
    374c:	8c 91       	ld	r24, X
    374e:	81 33       	cpi	r24, 0x31	; 49
    3750:	09 f0       	breq	.+2      	; 0x3754 <ProcessInput+0xbec>
    3752:	8a cc       	rjmp	.-1772   	; 0x3068 <ProcessInput+0x500>
    return 0;
}

//
void SetResponse(uint8_t number, uint16_t address, uint16_t length, uint8_t type){
    reactStr[0][number]=address;
    3754:	82 e6       	ldi	r24, 0x62	; 98
    3756:	95 e7       	ldi	r25, 0x75	; 117
    3758:	80 93 1d 39 	sts	0x391D, r24	; 0x80391d <reactStr+0x2>
    375c:	90 93 1e 39 	sts	0x391E, r25	; 0x80391e <reactStr+0x3>
    reactStr[1][number]=length;
    3760:	8b e2       	ldi	r24, 0x2B	; 43
    3762:	90 e0       	ldi	r25, 0x00	; 0
    3764:	80 93 5d 39 	sts	0x395D, r24	; 0x80395d <reactStr+0x42>
    3768:	90 93 5e 39 	sts	0x395E, r25	; 0x80395e <reactStr+0x43>
    reactStr[2][number]=type;
    376c:	e0 92 9d 39 	sts	0x399D, r14	; 0x80399d <reactStr+0x82>
    3770:	f0 92 9e 39 	sts	0x399E, r15	; 0x80399e <reactStr+0x83>
    3774:	c7 ca       	rjmp	.-2674   	; 0x2d04 <ProcessInput+0x19c>
                                if (data[2] == '1') {
                                    SetResponse(elements++, A_PLEASEOFFER, L_PLEASEOFFER, TEASER);
                                }

                            //General request
                            } else if (actObj1.lenStr[ACTION_STR1]) {
    3776:	e1 14       	cp	r14, r1
    3778:	f1 04       	cpc	r15, r1
    377a:	09 f4       	brne	.+2      	; 0x377e <ProcessInput+0xc16>
    377c:	59 c0       	rjmp	.+178    	; 0x3830 <ProcessInput+0xcc8>
    return 0;
}

//
void SetResponse(uint8_t number, uint16_t address, uint16_t length, uint8_t type){
    reactStr[0][number]=address;
    377e:	80 91 ea 38 	lds	r24, 0x38EA	; 0x8038ea <actObj1.3995+0x10>
    3782:	90 91 eb 38 	lds	r25, 0x38EB	; 0x8038eb <actObj1.3995+0x11>
    3786:	80 93 1d 39 	sts	0x391D, r24	; 0x80391d <reactStr+0x2>
    378a:	90 93 1e 39 	sts	0x391E, r25	; 0x80391e <reactStr+0x3>
    reactStr[1][number]=length;
    378e:	e0 92 5d 39 	sts	0x395D, r14	; 0x80395d <reactStr+0x42>
    3792:	f0 92 5e 39 	sts	0x395E, r15	; 0x80395e <reactStr+0x43>
    reactStr[2][number]=type;
    3796:	10 92 9d 39 	sts	0x399D, r1	; 0x80399d <reactStr+0x82>
    379a:	10 92 9e 39 	sts	0x399E, r1	; 0x80399e <reactStr+0x83>
    return 0;
}

//
void SetResponse(uint8_t number, uint16_t address, uint16_t length, uint8_t type){
    reactStr[0][number]=address;
    379e:	8b e5       	ldi	r24, 0x5B	; 91
    37a0:	9a e7       	ldi	r25, 0x7A	; 122
    37a2:	80 93 1f 39 	sts	0x391F, r24	; 0x80391f <reactStr+0x4>
    37a6:	90 93 20 39 	sts	0x3920, r25	; 0x803920 <reactStr+0x5>
    reactStr[1][number]=length;
    37aa:	82 e0       	ldi	r24, 0x02	; 2
    37ac:	90 e0       	ldi	r25, 0x00	; 0
    37ae:	80 93 5f 39 	sts	0x395F, r24	; 0x80395f <reactStr+0x44>
    37b2:	90 93 60 39 	sts	0x3960, r25	; 0x803960 <reactStr+0x45>
    reactStr[2][number]=type;
    37b6:	81 e0       	ldi	r24, 0x01	; 1
    37b8:	90 e0       	ldi	r25, 0x00	; 0
    37ba:	80 93 9f 39 	sts	0x399F, r24	; 0x80399f <reactStr+0x84>
    37be:	90 93 a0 39 	sts	0x39A0, r25	; 0x8039a0 <reactStr+0x85>
    return 0;
}

//
void SetResponse(uint8_t number, uint16_t address, uint16_t length, uint8_t type){
    reactStr[0][number]=address;
    37c2:	2f ea       	ldi	r18, 0xAF	; 175
    37c4:	38 e7       	ldi	r19, 0x78	; 120
    37c6:	20 93 21 39 	sts	0x3921, r18	; 0x803921 <reactStr+0x6>
    37ca:	30 93 22 39 	sts	0x3922, r19	; 0x803922 <reactStr+0x7>
    reactStr[1][number]=length;
    37ce:	22 e1       	ldi	r18, 0x12	; 18
    37d0:	30 e0       	ldi	r19, 0x00	; 0
    37d2:	20 93 61 39 	sts	0x3961, r18	; 0x803961 <reactStr+0x46>
    37d6:	30 93 62 39 	sts	0x3962, r19	; 0x803962 <reactStr+0x47>
    reactStr[2][number]=type;
    37da:	80 93 a1 39 	sts	0x39A1, r24	; 0x8039a1 <reactStr+0x86>
    37de:	90 93 a2 39 	sts	0x39A2, r25	; 0x8039a2 <reactStr+0x87>
                            //General request
                            } else if (actObj1.lenStr[ACTION_STR1]) {
                                SetResponse(elements++, actObj1.addrStr[ACTION_STR1], actObj1.lenStr[ACTION_STR1], GAME);
                                SetResponse(elements++, A_LF, 2, TEASER);
                                SetResponse(elements++, A_RESPONSE, L_RESPONSE, TEASER);
                                if (actObj1.lenStr[ACTION_STR2]>(INP_LENGTH-1)) actObj1.lenStr[ACTION_STR2] = (INP_LENGTH-1);
    37e2:	80 91 fa 38 	lds	r24, 0x38FA	; 0x8038fa <actObj1.3995+0x20>
    37e6:	90 91 fb 38 	lds	r25, 0x38FB	; 0x8038fb <actObj1.3995+0x21>
    37ea:	40 97       	sbiw	r24, 0x10	; 16
    37ec:	30 f0       	brcs	.+12     	; 0x37fa <ProcessInput+0xc92>
    37ee:	8f e0       	ldi	r24, 0x0F	; 15
    37f0:	90 e0       	ldi	r25, 0x00	; 0
    37f2:	80 93 fa 38 	sts	0x38FA, r24	; 0x8038fa <actObj1.3995+0x20>
    37f6:	90 93 fb 38 	sts	0x38FB, r25	; 0x8038fb <actObj1.3995+0x21>
                                ExtEERead(actObj1.addrStr[ACTION_STR2], actObj1.lenStr[ACTION_STR2], GAME, (uint8_t *)&specialInput[0]);
    37fa:	2a e0       	ldi	r18, 0x0A	; 10
    37fc:	39 e3       	ldi	r19, 0x39	; 57
    37fe:	40 e0       	ldi	r20, 0x00	; 0
    3800:	60 91 fa 38 	lds	r22, 0x38FA	; 0x8038fa <actObj1.3995+0x20>
    3804:	80 91 ec 38 	lds	r24, 0x38EC	; 0x8038ec <actObj1.3995+0x12>
    3808:	90 91 ed 38 	lds	r25, 0x38ED	; 0x8038ed <actObj1.3995+0x13>
    380c:	0e 94 e7 0f 	call	0x1fce	; 0x1fce <ExtEERead>
                                UnflipData(actObj1.lenStr[ACTION_STR2], (uint8_t *)&specialInput[0]);
    3810:	6a e0       	ldi	r22, 0x0A	; 10
    3812:	79 e3       	ldi	r23, 0x39	; 57
    3814:	80 91 fa 38 	lds	r24, 0x38FA	; 0x8038fa <actObj1.3995+0x20>
    3818:	0e 94 da 0f 	call	0x1fb4	; 0x1fb4 <UnflipData>
                                specialInput[actObj1.lenStr[ACTION_STR2]] = 0;
    381c:	e0 91 fa 38 	lds	r30, 0x38FA	; 0x8038fa <actObj1.3995+0x20>
    3820:	f0 91 fb 38 	lds	r31, 0x38FB	; 0x8038fb <actObj1.3995+0x21>
    3824:	e6 5f       	subi	r30, 0xF6	; 246
    3826:	f6 4c       	sbci	r31, 0xC6	; 198
    3828:	10 82       	st	Z, r1

                            //General request
                            } else if (actObj1.lenStr[ACTION_STR1]) {
                                SetResponse(elements++, actObj1.addrStr[ACTION_STR1], actObj1.lenStr[ACTION_STR1], GAME);
                                SetResponse(elements++, A_LF, 2, TEASER);
                                SetResponse(elements++, A_RESPONSE, L_RESPONSE, TEASER);
    382a:	74 e0       	ldi	r23, 0x04	; 4
    382c:	77 2e       	mov	r7, r23
    382e:	99 c1       	rjmp	.+818    	; 0x3b62 <ProcessInput+0xffa>
                                ExtEERead(actObj1.addrStr[ACTION_STR2], actObj1.lenStr[ACTION_STR2], GAME, (uint8_t *)&specialInput[0]);
                                UnflipData(actObj1.lenStr[ACTION_STR2], (uint8_t *)&specialInput[0]);
                                specialInput[actObj1.lenStr[ACTION_STR2]] = 0;
                            
                            //Normal action    
                            } else if (CheckState(actObj1.byteField[ACTION_ACL])){
    3830:	80 91 e1 38 	lds	r24, 0x38E1	; 0x8038e1 <actObj1.3995+0x7>
    3834:	0e 94 5b 0a 	call	0x14b6	; 0x14b6 <CheckState>
    3838:	88 23       	and	r24, r24
    383a:	01 f1       	breq	.+64     	; 0x387c <ProcessInput+0xd14>
                                SetResponse(elements++, actObj1.addrStr[ACTION_MSG], actObj1.lenStr[ACTION_MSG], GAME);
    383c:	80 91 00 39 	lds	r24, 0x3900	; 0x803900 <actObj1.3995+0x26>
    3840:	90 91 01 39 	lds	r25, 0x3901	; 0x803901 <actObj1.3995+0x27>
    return 0;
}

//
void SetResponse(uint8_t number, uint16_t address, uint16_t length, uint8_t type){
    reactStr[0][number]=address;
    3844:	20 91 f2 38 	lds	r18, 0x38F2	; 0x8038f2 <actObj1.3995+0x18>
    3848:	30 91 f3 38 	lds	r19, 0x38F3	; 0x8038f3 <actObj1.3995+0x19>
    384c:	20 93 1d 39 	sts	0x391D, r18	; 0x80391d <reactStr+0x2>
    3850:	30 93 1e 39 	sts	0x391E, r19	; 0x80391e <reactStr+0x3>
    reactStr[1][number]=length;
    3854:	80 93 5d 39 	sts	0x395D, r24	; 0x80395d <reactStr+0x42>
    3858:	90 93 5e 39 	sts	0x395E, r25	; 0x80395e <reactStr+0x43>
    reactStr[2][number]=type;
    385c:	10 92 9d 39 	sts	0x399D, r1	; 0x80399d <reactStr+0x82>
    3860:	10 92 9e 39 	sts	0x399E, r1	; 0x80399e <reactStr+0x83>
                                specialInput[actObj1.lenStr[ACTION_STR2]] = 0;
                            
                            //Normal action    
                            } else if (CheckState(actObj1.byteField[ACTION_ACL])){
                                SetResponse(elements++, actObj1.addrStr[ACTION_MSG], actObj1.lenStr[ACTION_MSG], GAME);
                                effect = actObj1.effect[2];
    3864:	80 91 04 39 	lds	r24, 0x3904	; 0x803904 <actObj1.3995+0x2a>
    3868:	90 e0       	ldi	r25, 0x00	; 0
    386a:	80 93 3a 38 	sts	0x383A, r24	; 0x80383a <effect>
    386e:	90 93 3b 38 	sts	0x383B, r25	; 0x80383b <effect+0x1>
                                UpdateState(actObj1.byteField[ACTION_STATE]);
    3872:	80 91 e4 38 	lds	r24, 0x38E4	; 0x8038e4 <actObj1.3995+0xa>
    3876:	0e 94 51 0a 	call	0x14a2	; 0x14a2 <UpdateState>
    387a:	44 ca       	rjmp	.-2936   	; 0x2d04 <ProcessInput+0x19c>
                            } else {
                                SetResponse(elements++, actObj1.addrStr[ACTION_ACL_MSG], actObj1.lenStr[ACTION_ACL_MSG], GAME);
    387c:	80 91 fe 38 	lds	r24, 0x38FE	; 0x8038fe <actObj1.3995+0x24>
    3880:	90 91 ff 38 	lds	r25, 0x38FF	; 0x8038ff <actObj1.3995+0x25>
    return 0;
}

//
void SetResponse(uint8_t number, uint16_t address, uint16_t length, uint8_t type){
    reactStr[0][number]=address;
    3884:	20 91 f0 38 	lds	r18, 0x38F0	; 0x8038f0 <actObj1.3995+0x16>
    3888:	30 91 f1 38 	lds	r19, 0x38F1	; 0x8038f1 <actObj1.3995+0x17>
    388c:	20 93 1d 39 	sts	0x391D, r18	; 0x80391d <reactStr+0x2>
    3890:	30 93 1e 39 	sts	0x391E, r19	; 0x80391e <reactStr+0x3>
    reactStr[1][number]=length;
    3894:	80 93 5d 39 	sts	0x395D, r24	; 0x80395d <reactStr+0x42>
    3898:	90 93 5e 39 	sts	0x395E, r25	; 0x80395e <reactStr+0x43>
    reactStr[2][number]=type;
    389c:	10 92 9d 39 	sts	0x399D, r1	; 0x80399d <reactStr+0x82>
    38a0:	10 92 9e 39 	sts	0x399E, r1	; 0x80399e <reactStr+0x83>
                                SetResponse(elements++, actObj1.addrStr[ACTION_MSG], actObj1.lenStr[ACTION_MSG], GAME);
                                effect = actObj1.effect[2];
                                UpdateState(actObj1.byteField[ACTION_STATE]);
                            } else {
                                SetResponse(elements++, actObj1.addrStr[ACTION_ACL_MSG], actObj1.lenStr[ACTION_ACL_MSG], GAME);
                                effect = actObj1.effect[1];
    38a4:	80 91 03 39 	lds	r24, 0x3903	; 0x803903 <actObj1.3995+0x29>
    38a8:	90 e0       	ldi	r25, 0x00	; 0
    38aa:	80 93 3a 38 	sts	0x383A, r24	; 0x80383a <effect>
    38ae:	90 93 3b 38 	sts	0x383B, r25	; 0x80383b <effect+0x1>
    38b2:	28 ca       	rjmp	.-2992   	; 0x2d04 <ProcessInput+0x19c>
                        }
                    }

                //Person or object not found
                } else {
                    if ((data[0] == 't')||(data[0] == 'g')){
    38b4:	f8 01       	movw	r30, r16
    38b6:	80 81       	ld	r24, Z
    38b8:	84 37       	cpi	r24, 0x74	; 116
    38ba:	11 f0       	breq	.+4      	; 0x38c0 <ProcessInput+0xd58>
    38bc:	87 36       	cpi	r24, 0x67	; 103
    38be:	19 f4       	brne	.+6      	; 0x38c6 <ProcessInput+0xd5e>
    return 0;
}

//
void SetResponse(uint8_t number, uint16_t address, uint16_t length, uint8_t type){
    reactStr[0][number]=address;
    38c0:	8b e3       	ldi	r24, 0x3B	; 59
    38c2:	99 e7       	ldi	r25, 0x79	; 121
    38c4:	02 c0       	rjmp	.+4      	; 0x38ca <ProcessInput+0xd62>
    38c6:	8f e4       	ldi	r24, 0x4F	; 79
    38c8:	99 e7       	ldi	r25, 0x79	; 121
    38ca:	80 93 1d 39 	sts	0x391D, r24	; 0x80391d <reactStr+0x2>
    38ce:	90 93 1e 39 	sts	0x391E, r25	; 0x80391e <reactStr+0x3>
    reactStr[1][number]=length;
    38d2:	84 e1       	ldi	r24, 0x14	; 20
    38d4:	90 e0       	ldi	r25, 0x00	; 0
    38d6:	0c ca       	rjmp	.-3048   	; 0x2cf0 <ProcessInput+0x188>
                    }
                }
            }
        
        //Special answer given
        } else if (data[0] == 'a'){
    38d8:	81 36       	cpi	r24, 0x61	; 97
    38da:	09 f0       	breq	.+2      	; 0x38de <ProcessInput+0xd76>
    38dc:	c5 cb       	rjmp	.-2166   	; 0x3068 <ProcessInput+0x500>
            
            //Priest offerings
            if (specialPassed >= 2) {
    38de:	80 91 09 39 	lds	r24, 0x3909	; 0x803909 <specialPassed>
    38e2:	82 30       	cpi	r24, 0x02	; 2
    38e4:	08 f4       	brcc	.+2      	; 0x38e8 <ProcessInput+0xd80>
    38e6:	cb c0       	rjmp	.+406    	; 0x3a7e <ProcessInput+0xf16>
                if (data[1] > 0) {
    38e8:	d8 01       	movw	r26, r16
    38ea:	11 96       	adiw	r26, 0x01	; 1
    38ec:	2c 91       	ld	r18, X
    38ee:	22 23       	and	r18, r18
    38f0:	09 f4       	brne	.+2      	; 0x38f4 <ProcessInput+0xd8c>
    38f2:	b2 c0       	rjmp	.+356    	; 0x3a58 <ProcessInput+0xef0>

                    //uint8_t  digit[10] = {0, 0, 0, 0, 0, 0, 0, 0, 0, 0};
                    uint8_t  digit[8] = {0, 0, 0, 0, 0, 0, 0, 0};
    38f4:	fe 01       	movw	r30, r28
    38f6:	31 96       	adiw	r30, 0x01	; 1
    38f8:	7f 01       	movw	r14, r30
    38fa:	88 e0       	ldi	r24, 0x08	; 8
    38fc:	df 01       	movw	r26, r30
    38fe:	1d 92       	st	X+, r1
    3900:	8a 95       	dec	r24
    3902:	e9 f7       	brne	.-6      	; 0x38fe <ProcessInput+0xd96>
                        answer = ((offering  & 2) << 19) + ((offering  & 1) << 8) + \
                        ((element   & 2) << 15) + ((element   & 1) << 4) + \
                        ((kneelings & 2) << 11) + ((kneelings & 1))
                        answer = answer << (3-person)
                    */
                    data[1]-='0'; // item 31 needs to become something that results in 0 when doing %4
    3904:	20 53       	subi	r18, 0x30	; 48
    3906:	f8 01       	movw	r30, r16
    3908:	21 83       	std	Z+1, r18	; 0x01
                    data[2]-='1';
    390a:	32 81       	ldd	r19, Z+2	; 0x02
    390c:	31 53       	subi	r19, 0x31	; 49
    390e:	32 83       	std	Z+2, r19	; 0x02
                    if (data[3] == 'a') data[3] = 1;
    3910:	83 81       	ldd	r24, Z+3	; 0x03
    3912:	81 36       	cpi	r24, 0x61	; 97
    3914:	11 f4       	brne	.+4      	; 0x391a <ProcessInput+0xdb2>
    3916:	81 e0       	ldi	r24, 0x01	; 1
    3918:	08 c0       	rjmp	.+16     	; 0x392a <ProcessInput+0xdc2>
                    else if (data[3] == 'e') data[3] = 0;
    391a:	85 36       	cpi	r24, 0x65	; 101
    391c:	11 f4       	brne	.+4      	; 0x3922 <ProcessInput+0xdba>
    391e:	13 82       	std	Z+3, r1	; 0x03
    3920:	08 c0       	rjmp	.+16     	; 0x3932 <ProcessInput+0xdca>
                    else if (data[3] == 'f') data[3] = 3;
    3922:	86 36       	cpi	r24, 0x66	; 102
    3924:	21 f4       	brne	.+8      	; 0x392e <ProcessInput+0xdc6>
    3926:	83 e0       	ldi	r24, 0x03	; 3
    3928:	f8 01       	movw	r30, r16
    392a:	83 83       	std	Z+3, r24	; 0x03
    392c:	02 c0       	rjmp	.+4      	; 0x3932 <ProcessInput+0xdca>
                    else data[3] = 2;
    392e:	82 e0       	ldi	r24, 0x02	; 2
    3930:	83 83       	std	Z+3, r24	; 0x03

                    if (data[1] & 2) answer += (1UL << 20);
    3932:	21 fd       	sbrc	r18, 1
    3934:	04 c0       	rjmp	.+8      	; 0x393e <ProcessInput+0xdd6>
            if (specialPassed >= 2) {
                if (data[1] > 0) {

                    //uint8_t  digit[10] = {0, 0, 0, 0, 0, 0, 0, 0, 0, 0};
                    uint8_t  digit[8] = {0, 0, 0, 0, 0, 0, 0, 0};
                    uint32_t answer = 0;
    3936:	80 e0       	ldi	r24, 0x00	; 0
    3938:	90 e0       	ldi	r25, 0x00	; 0
    393a:	dc 01       	movw	r26, r24
    393c:	04 c0       	rjmp	.+8      	; 0x3946 <ProcessInput+0xdde>
                    if (data[3] == 'a') data[3] = 1;
                    else if (data[3] == 'e') data[3] = 0;
                    else if (data[3] == 'f') data[3] = 3;
                    else data[3] = 2;

                    if (data[1] & 2) answer += (1UL << 20);
    393e:	80 e0       	ldi	r24, 0x00	; 0
    3940:	90 e0       	ldi	r25, 0x00	; 0
    3942:	a0 e1       	ldi	r26, 0x10	; 16
    3944:	b0 e0       	ldi	r27, 0x00	; 0
                    if (data[1] & 1) answer += (1 << 8);
    3946:	20 ff       	sbrs	r18, 0
    3948:	03 c0       	rjmp	.+6      	; 0x3950 <ProcessInput+0xde8>
    394a:	9f 5f       	subi	r25, 0xFF	; 255
    394c:	af 4f       	sbci	r26, 0xFF	; 255
    394e:	bf 4f       	sbci	r27, 0xFF	; 255
                    if (data[3] & 2) answer += (1UL << 16);
    3950:	f8 01       	movw	r30, r16
    3952:	23 81       	ldd	r18, Z+3	; 0x03
    3954:	21 fd       	sbrc	r18, 1
    3956:	11 96       	adiw	r26, 0x01	; 1
                    if (data[3] & 1) answer += (1 << 4);
    3958:	20 ff       	sbrs	r18, 0
    395a:	03 c0       	rjmp	.+6      	; 0x3962 <ProcessInput+0xdfa>
    395c:	40 96       	adiw	r24, 0x10	; 16
    395e:	a1 1d       	adc	r26, r1
    3960:	b1 1d       	adc	r27, r1
                    if (data[2] & 2) answer += (1 << 12);
    3962:	31 ff       	sbrs	r19, 1
    3964:	03 c0       	rjmp	.+6      	; 0x396c <ProcessInput+0xe04>
    3966:	90 5f       	subi	r25, 0xF0	; 240
    3968:	af 4f       	sbci	r26, 0xFF	; 255
    396a:	bf 4f       	sbci	r27, 0xFF	; 255
                    if (data[2] & 1) answer += 1;
    396c:	30 ff       	sbrs	r19, 0
    396e:	03 c0       	rjmp	.+6      	; 0x3976 <ProcessInput+0xe0e>
    3970:	01 96       	adiw	r24, 0x01	; 1
    3972:	a1 1d       	adc	r26, r1
    3974:	b1 1d       	adc	r27, r1
                    answer <<= (4 - whoami);            
    3976:	40 91 3d 38 	lds	r20, 0x383D	; 0x80383d <whoami>
    397a:	24 e0       	ldi	r18, 0x04	; 4
    397c:	30 e0       	ldi	r19, 0x00	; 0
    397e:	24 1b       	sub	r18, r20
    3980:	31 09       	sbc	r19, r1
    3982:	04 c0       	rjmp	.+8      	; 0x398c <ProcessInput+0xe24>
    3984:	88 0f       	add	r24, r24
    3986:	99 1f       	adc	r25, r25
    3988:	aa 1f       	adc	r26, r26
    398a:	bb 1f       	adc	r27, r27
    398c:	2a 95       	dec	r18
    398e:	d2 f7       	brpl	.-12     	; 0x3984 <ProcessInput+0xe1c>
    return 0;
}

//
void SetResponse(uint8_t number, uint16_t address, uint16_t length, uint8_t type){
    reactStr[0][number]=address;
    3990:	25 e0       	ldi	r18, 0x05	; 5
    3992:	35 e7       	ldi	r19, 0x75	; 117
    3994:	20 93 1d 39 	sts	0x391D, r18	; 0x80391d <reactStr+0x2>
    3998:	30 93 1e 39 	sts	0x391E, r19	; 0x80391e <reactStr+0x3>
    reactStr[1][number]=length;
    399c:	20 e2       	ldi	r18, 0x20	; 32
    399e:	30 e0       	ldi	r19, 0x00	; 0
    39a0:	20 93 5d 39 	sts	0x395D, r18	; 0x80395d <reactStr+0x42>
    39a4:	30 93 5e 39 	sts	0x395E, r19	; 0x80395e <reactStr+0x43>
    reactStr[2][number]=type;
    39a8:	21 e0       	ldi	r18, 0x01	; 1
    39aa:	30 e0       	ldi	r19, 0x00	; 0
    39ac:	20 93 9d 39 	sts	0x399D, r18	; 0x80399d <reactStr+0x82>
    39b0:	30 93 9e 39 	sts	0x399E, r19	; 0x80399e <reactStr+0x83>
    return 0;
}

//
void SetResponse(uint8_t number, uint16_t address, uint16_t length, uint8_t type){
    reactStr[0][number]=address;
    39b4:	4a ed       	ldi	r20, 0xDA	; 218
    39b6:	54 e7       	ldi	r21, 0x74	; 116
    39b8:	40 93 1f 39 	sts	0x391F, r20	; 0x80391f <reactStr+0x4>
    39bc:	50 93 20 39 	sts	0x3920, r21	; 0x803920 <reactStr+0x5>
    reactStr[1][number]=length;
    39c0:	42 e0       	ldi	r20, 0x02	; 2
    39c2:	50 e0       	ldi	r21, 0x00	; 0
    39c4:	40 93 5f 39 	sts	0x395F, r20	; 0x80395f <reactStr+0x44>
    39c8:	50 93 60 39 	sts	0x3960, r21	; 0x803960 <reactStr+0x45>
    reactStr[2][number]=type;
    39cc:	20 93 9f 39 	sts	0x399F, r18	; 0x80399f <reactStr+0x84>
    39d0:	30 93 a0 39 	sts	0x39A0, r19	; 0x8039a0 <reactStr+0x85>

                    SetResponse(elements++, A_YOURPART, L_YOURPART, TEASER);
                    SetResponse(elements++, A_HEXPREFIX, L_HEXPREFIX, TEASER);
                    
                    //Set up sending out number
                    for (n=7; n>=0; --n) {
    39d4:	67 e0       	ldi	r22, 0x07	; 7
    39d6:	d6 2e       	mov	r13, r22
                        digit[n] = answer % 16;
    39d8:	f7 01       	movw	r30, r14
    39da:	ed 0d       	add	r30, r13
    39dc:	f1 1d       	adc	r31, r1
    39de:	28 2f       	mov	r18, r24
    39e0:	2f 70       	andi	r18, 0x0F	; 15
    39e2:	20 83       	st	Z, r18
                        answer /= 16;
    39e4:	54 e0       	ldi	r21, 0x04	; 4
    39e6:	b6 95       	lsr	r27
    39e8:	a7 95       	ror	r26
    39ea:	97 95       	ror	r25
    39ec:	87 95       	ror	r24
    39ee:	5a 95       	dec	r21
    39f0:	d1 f7       	brne	.-12     	; 0x39e6 <ProcessInput+0xe7e>
                        if (answer == 0) break;
    39f2:	00 97       	sbiw	r24, 0x00	; 0
    39f4:	a1 05       	cpc	r26, r1
    39f6:	b1 05       	cpc	r27, r1
    39f8:	51 f4       	brne	.+20     	; 0x3a0e <ProcessInput+0xea6>
    39fa:	2b e1       	ldi	r18, 0x1B	; 27
    39fc:	a2 2e       	mov	r10, r18
    39fe:	29 e3       	ldi	r18, 0x39	; 57
    3a00:	b2 2e       	mov	r11, r18
    3a02:	33 e0       	ldi	r19, 0x03	; 3
    3a04:	73 2e       	mov	r7, r19
}

//
void SetResponse(uint8_t number, uint16_t address, uint16_t length, uint8_t type){
    reactStr[0][number]=address;
    reactStr[1][number]=length;
    3a06:	88 24       	eor	r8, r8
    3a08:	83 94       	inc	r8
    3a0a:	91 2c       	mov	r9, r1
    3a0c:	02 c0       	rjmp	.+4      	; 0x3a12 <ProcessInput+0xeaa>

                    SetResponse(elements++, A_YOURPART, L_YOURPART, TEASER);
                    SetResponse(elements++, A_HEXPREFIX, L_HEXPREFIX, TEASER);
                    
                    //Set up sending out number
                    for (n=7; n>=0; --n) {
    3a0e:	da 94       	dec	r13
                        digit[n] = answer % 16;
                        answer /= 16;
                        if (answer == 0) break;
                    }
    3a10:	e3 cf       	rjmp	.-58     	; 0x39d8 <ProcessInput+0xe70>
    3a12:	b2 e0       	ldi	r27, 0x02	; 2
    3a14:	ab 0e       	add	r10, r27
    3a16:	b1 1c       	adc	r11, r1

                    for (; n<8; ++n) {
    3a18:	e7 e0       	ldi	r30, 0x07	; 7
    3a1a:	ed 15       	cp	r30, r13
    3a1c:	08 f4       	brcc	.+2      	; 0x3a20 <ProcessInput+0xeb8>
    3a1e:	9f c0       	rjmp	.+318    	; 0x3b5e <ProcessInput+0xff6>
                        SetResponse(elements++, A_DIGITS+digit[n], 1, TEASER);
    3a20:	73 94       	inc	r7
    3a22:	f7 01       	movw	r30, r14
    3a24:	ed 0d       	add	r30, r13
    3a26:	f1 1d       	adc	r31, r1
    return 0;
}

//
void SetResponse(uint8_t number, uint16_t address, uint16_t length, uint8_t type){
    reactStr[0][number]=address;
    3a28:	80 81       	ld	r24, Z
    3a2a:	90 e0       	ldi	r25, 0x00	; 0
    3a2c:	86 53       	subi	r24, 0x36	; 54
    3a2e:	9b 48       	sbci	r25, 0x8B	; 139
    3a30:	d5 01       	movw	r26, r10
    3a32:	14 96       	adiw	r26, 0x04	; 4
    3a34:	8d 93       	st	X+, r24
    3a36:	9c 93       	st	X, r25
    3a38:	15 97       	sbiw	r26, 0x05	; 5
    reactStr[1][number]=length;
    3a3a:	f5 01       	movw	r30, r10
    3a3c:	ec 5b       	subi	r30, 0xBC	; 188
    3a3e:	ff 4f       	sbci	r31, 0xFF	; 255
    3a40:	80 82       	st	Z, r8
    3a42:	91 82       	std	Z+1, r9	; 0x01
    reactStr[2][number]=type;
    3a44:	e0 5c       	subi	r30, 0xC0	; 192
    3a46:	ff 4f       	sbci	r31, 0xFF	; 255
    3a48:	80 82       	st	Z, r8
    3a4a:	91 82       	std	Z+1, r9	; 0x01
                        if (answer == 0) break;
                    }

                    for (; n<8; ++n) {
                        SetResponse(elements++, A_DIGITS+digit[n], 1, TEASER);
                        UpdateState(actObj1.byteField[ACTION_STATE]);
    3a4c:	80 91 e4 38 	lds	r24, 0x38E4	; 0x8038e4 <actObj1.3995+0xa>
    3a50:	0e 94 51 0a 	call	0x14a2	; 0x14a2 <UpdateState>
                        digit[n] = answer % 16;
                        answer /= 16;
                        if (answer == 0) break;
                    }

                    for (; n<8; ++n) {
    3a54:	d3 94       	inc	r13
    3a56:	dd cf       	rjmp	.-70     	; 0x3a12 <ProcessInput+0xeaa>
    return 0;
}

//
void SetResponse(uint8_t number, uint16_t address, uint16_t length, uint8_t type){
    reactStr[0][number]=address;
    3a58:	85 e2       	ldi	r24, 0x25	; 37
    3a5a:	95 e7       	ldi	r25, 0x75	; 117
    3a5c:	80 93 1d 39 	sts	0x391D, r24	; 0x80391d <reactStr+0x2>
    3a60:	90 93 1e 39 	sts	0x391E, r25	; 0x80391e <reactStr+0x3>
    reactStr[1][number]=length;
    3a64:	8d e3       	ldi	r24, 0x3D	; 61
    3a66:	90 e0       	ldi	r25, 0x00	; 0
    3a68:	80 93 5d 39 	sts	0x395D, r24	; 0x80395d <reactStr+0x42>
    3a6c:	90 93 5e 39 	sts	0x395E, r25	; 0x80395e <reactStr+0x43>
    reactStr[2][number]=type;
    3a70:	81 e0       	ldi	r24, 0x01	; 1
    3a72:	90 e0       	ldi	r25, 0x00	; 0
    3a74:	80 93 9d 39 	sts	0x399D, r24	; 0x80399d <reactStr+0x82>
    3a78:	90 93 9e 39 	sts	0x399E, r25	; 0x80399e <reactStr+0x83>
    3a7c:	6e c0       	rjmp	.+220    	; 0x3b5a <ProcessInput+0xff2>
    3a7e:	e0 91 2c 38 	lds	r30, 0x382C	; 0x80382c <currDepth>
                    SetResponse(elements++, A_BADOFFERING, L_BADOFFERING, TEASER);
                }
            
            //Other questions    
            } else if (specialPassed == 1) {
                PopulateObject(route[currDepth+1], &actObj1);
    3a82:	f0 e0       	ldi	r31, 0x00	; 0
    3a84:	ee 0f       	add	r30, r30
    3a86:	ff 1f       	adc	r31, r31
    3a88:	e3 52       	subi	r30, 0x23	; 35
    3a8a:	f6 4c       	sbci	r31, 0xC6	; 198
    3a8c:	6a ed       	ldi	r22, 0xDA	; 218
    3a8e:	78 e3       	ldi	r23, 0x38	; 56
                } else {
                    SetResponse(elements++, A_BADOFFERING, L_BADOFFERING, TEASER);
                }
            
            //Other questions    
            } else if (specialPassed == 1) {
    3a90:	81 30       	cpi	r24, 0x01	; 1
    3a92:	09 f0       	breq	.+2      	; 0x3a96 <ProcessInput+0xf2e>
    3a94:	46 c0       	rjmp	.+140    	; 0x3b22 <ProcessInput+0xfba>
                PopulateObject(route[currDepth+1], &actObj1);
    3a96:	80 81       	ld	r24, Z
    3a98:	91 81       	ldd	r25, Z+1	; 0x01
    3a9a:	0e 94 f7 10 	call	0x21ee	; 0x21ee <PopulateObject>
                if (CheckState(actObj1.byteField[ACTION_ACL])){
    3a9e:	80 91 e1 38 	lds	r24, 0x38E1	; 0x8038e1 <actObj1.3995+0x7>
    3aa2:	0e 94 5b 0a 	call	0x14b6	; 0x14b6 <CheckState>
    3aa6:	88 23       	and	r24, r24
    3aa8:	01 f1       	breq	.+64     	; 0x3aea <ProcessInput+0xf82>
                    SetResponse(elements++, actObj1.addrStr[ACTION_MSG], actObj1.lenStr[ACTION_MSG], GAME);
    3aaa:	80 91 00 39 	lds	r24, 0x3900	; 0x803900 <actObj1.3995+0x26>
    3aae:	90 91 01 39 	lds	r25, 0x3901	; 0x803901 <actObj1.3995+0x27>
    return 0;
}

//
void SetResponse(uint8_t number, uint16_t address, uint16_t length, uint8_t type){
    reactStr[0][number]=address;
    3ab2:	20 91 f2 38 	lds	r18, 0x38F2	; 0x8038f2 <actObj1.3995+0x18>
    3ab6:	30 91 f3 38 	lds	r19, 0x38F3	; 0x8038f3 <actObj1.3995+0x19>
    3aba:	20 93 1d 39 	sts	0x391D, r18	; 0x80391d <reactStr+0x2>
    3abe:	30 93 1e 39 	sts	0x391E, r19	; 0x80391e <reactStr+0x3>
    reactStr[1][number]=length;
    3ac2:	80 93 5d 39 	sts	0x395D, r24	; 0x80395d <reactStr+0x42>
    3ac6:	90 93 5e 39 	sts	0x395E, r25	; 0x80395e <reactStr+0x43>
    reactStr[2][number]=type;
    3aca:	10 92 9d 39 	sts	0x399D, r1	; 0x80399d <reactStr+0x82>
    3ace:	10 92 9e 39 	sts	0x399E, r1	; 0x80399e <reactStr+0x83>
            //Other questions    
            } else if (specialPassed == 1) {
                PopulateObject(route[currDepth+1], &actObj1);
                if (CheckState(actObj1.byteField[ACTION_ACL])){
                    SetResponse(elements++, actObj1.addrStr[ACTION_MSG], actObj1.lenStr[ACTION_MSG], GAME);
                    effect = actObj1.effect[2];
    3ad2:	80 91 04 39 	lds	r24, 0x3904	; 0x803904 <actObj1.3995+0x2a>
    3ad6:	90 e0       	ldi	r25, 0x00	; 0
    3ad8:	80 93 3a 38 	sts	0x383A, r24	; 0x80383a <effect>
    3adc:	90 93 3b 38 	sts	0x383B, r25	; 0x80383b <effect+0x1>
                    UpdateState(actObj1.byteField[ACTION_STATE]);
    3ae0:	80 91 e4 38 	lds	r24, 0x38E4	; 0x8038e4 <actObj1.3995+0xa>
    3ae4:	0e 94 51 0a 	call	0x14a2	; 0x14a2 <UpdateState>
    3ae8:	38 c0       	rjmp	.+112    	; 0x3b5a <ProcessInput+0xff2>
                } else {
                    SetResponse(elements++, actObj1.addrStr[ACTION_ACL_MSG], actObj1.lenStr[ACTION_ACL_MSG], GAME);
    3aea:	80 91 fe 38 	lds	r24, 0x38FE	; 0x8038fe <actObj1.3995+0x24>
    3aee:	90 91 ff 38 	lds	r25, 0x38FF	; 0x8038ff <actObj1.3995+0x25>
    return 0;
}

//
void SetResponse(uint8_t number, uint16_t address, uint16_t length, uint8_t type){
    reactStr[0][number]=address;
    3af2:	20 91 f0 38 	lds	r18, 0x38F0	; 0x8038f0 <actObj1.3995+0x16>
    3af6:	30 91 f1 38 	lds	r19, 0x38F1	; 0x8038f1 <actObj1.3995+0x17>
    3afa:	20 93 1d 39 	sts	0x391D, r18	; 0x80391d <reactStr+0x2>
    3afe:	30 93 1e 39 	sts	0x391E, r19	; 0x80391e <reactStr+0x3>
    reactStr[1][number]=length;
    3b02:	80 93 5d 39 	sts	0x395D, r24	; 0x80395d <reactStr+0x42>
    3b06:	90 93 5e 39 	sts	0x395E, r25	; 0x80395e <reactStr+0x43>
    reactStr[2][number]=type;
    3b0a:	10 92 9d 39 	sts	0x399D, r1	; 0x80399d <reactStr+0x82>
    3b0e:	10 92 9e 39 	sts	0x399E, r1	; 0x80399e <reactStr+0x83>
                    SetResponse(elements++, actObj1.addrStr[ACTION_MSG], actObj1.lenStr[ACTION_MSG], GAME);
                    effect = actObj1.effect[2];
                    UpdateState(actObj1.byteField[ACTION_STATE]);
                } else {
                    SetResponse(elements++, actObj1.addrStr[ACTION_ACL_MSG], actObj1.lenStr[ACTION_ACL_MSG], GAME);
                    effect = actObj1.effect[1];
    3b12:	80 91 03 39 	lds	r24, 0x3903	; 0x803903 <actObj1.3995+0x29>
    3b16:	90 e0       	ldi	r25, 0x00	; 0
    3b18:	80 93 3a 38 	sts	0x383A, r24	; 0x80383a <effect>
    3b1c:	90 93 3b 38 	sts	0x383B, r25	; 0x80383b <effect+0x1>
    3b20:	1c c0       	rjmp	.+56     	; 0x3b5a <ProcessInput+0xff2>
                }

            } else {
                PopulateObject(route[currDepth+1], &actObj1);
    3b22:	80 81       	ld	r24, Z
    3b24:	91 81       	ldd	r25, Z+1	; 0x01
    3b26:	0e 94 f7 10 	call	0x21ee	; 0x21ee <PopulateObject>
    return 0;
}

//
void SetResponse(uint8_t number, uint16_t address, uint16_t length, uint8_t type){
    reactStr[0][number]=address;
    3b2a:	8d e9       	ldi	r24, 0x9D	; 157
    3b2c:	98 e7       	ldi	r25, 0x78	; 120
    3b2e:	80 93 1d 39 	sts	0x391D, r24	; 0x80391d <reactStr+0x2>
    3b32:	90 93 1e 39 	sts	0x391E, r25	; 0x80391e <reactStr+0x3>
    reactStr[1][number]=length;
    3b36:	82 e1       	ldi	r24, 0x12	; 18
    3b38:	90 e0       	ldi	r25, 0x00	; 0
    3b3a:	80 93 5d 39 	sts	0x395D, r24	; 0x80395d <reactStr+0x42>
    3b3e:	90 93 5e 39 	sts	0x395E, r25	; 0x80395e <reactStr+0x43>
    reactStr[2][number]=type;
    3b42:	81 e0       	ldi	r24, 0x01	; 1
    3b44:	90 e0       	ldi	r25, 0x00	; 0
    3b46:	80 93 9d 39 	sts	0x399D, r24	; 0x80399d <reactStr+0x82>
    3b4a:	90 93 9e 39 	sts	0x399E, r25	; 0x80399e <reactStr+0x83>
                }

            } else {
                PopulateObject(route[currDepth+1], &actObj1);
                SetResponse(elements++, A_INCORRECT, L_INCORRECT, TEASER);
                PunishmentTime = getClock();
    3b4e:	0e 94 62 0d 	call	0x1ac4	; 0x1ac4 <getClock>
    3b52:	80 93 07 39 	sts	0x3907, r24	; 0x803907 <PunishmentTime>
    3b56:	90 93 08 39 	sts	0x3908, r25	; 0x803908 <PunishmentTime+0x1>
                    effect = actObj1.effect[1];
                }

            } else {
                PopulateObject(route[currDepth+1], &actObj1);
                SetResponse(elements++, A_INCORRECT, L_INCORRECT, TEASER);
    3b5a:	82 e0       	ldi	r24, 0x02	; 2
    3b5c:	78 2e       	mov	r7, r24
                PunishmentTime = getClock();
            }
            specialInput[0] = 0;
    3b5e:	10 92 0a 39 	sts	0x390A, r1	; 0x80390a <specialInput>
    return 0;
}

//
void SetResponse(uint8_t number, uint16_t address, uint16_t length, uint8_t type){
    reactStr[0][number]=address;
    3b62:	8b e5       	ldi	r24, 0x5B	; 91
    3b64:	9a e7       	ldi	r25, 0x7A	; 122
    3b66:	80 93 1b 39 	sts	0x391B, r24	; 0x80391b <reactStr>
    3b6a:	90 93 1c 39 	sts	0x391C, r25	; 0x80391c <reactStr+0x1>
    reactStr[1][number]=length;
    3b6e:	82 e0       	ldi	r24, 0x02	; 2
    3b70:	90 e0       	ldi	r25, 0x00	; 0
    3b72:	80 93 5b 39 	sts	0x395B, r24	; 0x80395b <reactStr+0x40>
    3b76:	90 93 5c 39 	sts	0x395C, r25	; 0x80395c <reactStr+0x41>
    reactStr[2][number]=type;
    3b7a:	81 e0       	ldi	r24, 0x01	; 1
    3b7c:	90 e0       	ldi	r25, 0x00	; 0
    3b7e:	80 93 9b 39 	sts	0x399B, r24	; 0x80399b <reactStr+0x80>
    3b82:	90 93 9c 39 	sts	0x399C, r25	; 0x80399c <reactStr+0x81>
               
        }
            
        //Input handled
        SetResponse(0, A_LF, 2, TEASER);
        if (specialInput[0]) responseList = elements; else responseList = SetStandardResponse(elements);
    3b86:	80 91 0a 39 	lds	r24, 0x390A	; 0x80390a <specialInput>
    3b8a:	88 23       	and	r24, r24
    3b8c:	19 f0       	breq	.+6      	; 0x3b94 <ProcessInput+0x102c>
    3b8e:	70 92 1a 39 	sts	0x391A, r7	; 0x80391a <responseList>
    3b92:	9b c0       	rjmp	.+310    	; 0x3cca <ProcessInput+0x1162>
    3b94:	87 2d       	mov	r24, r7
    3b96:	12 c0       	rjmp	.+36     	; 0x3bbc <ProcessInput+0x1054>
    return 0;
}

//
void SetResponse(uint8_t number, uint16_t address, uint16_t length, uint8_t type){
    reactStr[0][number]=address;
    3b98:	8b e5       	ldi	r24, 0x5B	; 91
    3b9a:	9a e7       	ldi	r25, 0x7A	; 122
    3b9c:	80 93 1b 39 	sts	0x391B, r24	; 0x80391b <reactStr>
    3ba0:	90 93 1c 39 	sts	0x391C, r25	; 0x80391c <reactStr+0x1>
    reactStr[1][number]=length;
    3ba4:	82 e0       	ldi	r24, 0x02	; 2
    3ba6:	90 e0       	ldi	r25, 0x00	; 0
    3ba8:	80 93 5b 39 	sts	0x395B, r24	; 0x80395b <reactStr+0x40>
    3bac:	90 93 5c 39 	sts	0x395C, r25	; 0x80395c <reactStr+0x41>
    reactStr[2][number]=type;
    3bb0:	81 e0       	ldi	r24, 0x01	; 1
    3bb2:	90 e0       	ldi	r25, 0x00	; 0
    3bb4:	80 93 9b 39 	sts	0x399B, r24	; 0x80399b <reactStr+0x80>
    3bb8:	90 93 9c 39 	sts	0x399C, r25	; 0x80399c <reactStr+0x81>
        SetResponse(0, A_LF, 2, TEASER);
        if (specialInput[0]) responseList = elements; else responseList = SetStandardResponse(elements);

    } else {
        SetResponse(0, A_LF, 2, TEASER);
        responseList = SetStandardResponse(1);
    3bbc:	0e 94 7b 10 	call	0x20f6	; 0x20f6 <SetStandardResponse>
    3bc0:	80 93 1a 39 	sts	0x391A, r24	; 0x80391a <responseList>
    3bc4:	82 c0       	rjmp	.+260    	; 0x3cca <ProcessInput+0x1162>
    return 0;
}

//
void SetResponse(uint8_t number, uint16_t address, uint16_t length, uint8_t type){
    reactStr[0][number]=address;
    3bc6:	83 ed       	ldi	r24, 0xD3	; 211
    3bc8:	99 e7       	ldi	r25, 0x79	; 121
    3bca:	92 cd       	rjmp	.-1244   	; 0x36f0 <ProcessInput+0xb88>

        //Drop item if in inventory
        if (data[0] == 'd') {
            if ((inventory[0] == 0)&&(inventory[1] == 0)){
                SetResponse(elements++, A_EMPTYHANDS, L_EMPTYHANDS, TEASER);
            } else if (inputLen != 2) {
    3bcc:	b2 e0       	ldi	r27, 0x02	; 2
    3bce:	fb 12       	cpse	r15, r27
    3bd0:	0c 94 e3 15 	jmp	0x2bc6	; 0x2bc6 <ProcessInput+0x5e>
                SetResponse(elements++, A_NOTPOSSIBLE, L_NOTPOSSIBLE, TEASER);
            } else {
                for (uint8_t x=0; x<2; ++x) {
                    if (inventory[x]) {
                        if (CheckLetter(inventory[x], data[1])) {
    3bd4:	d8 01       	movw	r26, r16
    3bd6:	11 96       	adiw	r26, 0x01	; 1
    3bd8:	6c 91       	ld	r22, X
    3bda:	0e 94 6e 11 	call	0x22dc	; 0x22dc <CheckLetter>
    3bde:	88 23       	and	r24, r24
    3be0:	09 f4       	brne	.+2      	; 0x3be4 <ProcessInput+0x107c>
    3be2:	5b c0       	rjmp	.+182    	; 0x3c9a <ProcessInput+0x1132>
                SetResponse(elements++, A_EMPTYHANDS, L_EMPTYHANDS, TEASER);
            } else if (inputLen != 2) {
                SetResponse(elements++, A_NOTPOSSIBLE, L_NOTPOSSIBLE, TEASER);
            } else {
                for (uint8_t x=0; x<2; ++x) {
                    if (inventory[x]) {
    3be4:	80 e0       	ldi	r24, 0x00	; 0
    3be6:	90 e0       	ldi	r25, 0x00	; 0
                        if (CheckLetter(inventory[x], data[1])) {
                            PopulateObject(inventory[x], &actObj1);
    3be8:	88 0f       	add	r24, r24
    3bea:	99 1f       	adc	r25, r25
    3bec:	9c 01       	movw	r18, r24
    3bee:	22 5c       	subi	r18, 0xC2	; 194
    3bf0:	37 4c       	sbci	r19, 0xC7	; 199
    3bf2:	79 01       	movw	r14, r18
    3bf4:	6a ed       	ldi	r22, 0xDA	; 218
    3bf6:	78 e3       	ldi	r23, 0x38	; 56
    3bf8:	d9 01       	movw	r26, r18
    3bfa:	8d 91       	ld	r24, X+
    3bfc:	9c 91       	ld	r25, X
    3bfe:	0e 94 f7 10 	call	0x21ee	; 0x21ee <PopulateObject>
    return 0;
}

//
void SetResponse(uint8_t number, uint16_t address, uint16_t length, uint8_t type){
    reactStr[0][number]=address;
    3c02:	83 ed       	ldi	r24, 0xD3	; 211
    3c04:	97 e7       	ldi	r25, 0x77	; 119
    3c06:	80 93 1d 39 	sts	0x391D, r24	; 0x80391d <reactStr+0x2>
    3c0a:	90 93 1e 39 	sts	0x391E, r25	; 0x80391e <reactStr+0x3>
    reactStr[1][number]=length;
    3c0e:	80 e1       	ldi	r24, 0x10	; 16
    3c10:	90 e0       	ldi	r25, 0x00	; 0
    3c12:	80 93 5d 39 	sts	0x395D, r24	; 0x80395d <reactStr+0x42>
    3c16:	90 93 5e 39 	sts	0x395E, r25	; 0x80395e <reactStr+0x43>
    reactStr[2][number]=type;
    3c1a:	81 e0       	ldi	r24, 0x01	; 1
    3c1c:	90 e0       	ldi	r25, 0x00	; 0
    3c1e:	80 93 9d 39 	sts	0x399D, r24	; 0x80399d <reactStr+0x82>
    3c22:	90 93 9e 39 	sts	0x399E, r25	; 0x80399e <reactStr+0x83>
                for (uint8_t x=0; x<2; ++x) {
                    if (inventory[x]) {
                        if (CheckLetter(inventory[x], data[1])) {
                            PopulateObject(inventory[x], &actObj1);
                            SetResponse(elements++, A_DROPPING, L_DROPPING, TEASER);
                            SetResponse(elements++, actObj1.addrStr[NAME], actObj1.lenStr[NAME], GAME);
    3c26:	20 91 f4 38 	lds	r18, 0x38F4	; 0x8038f4 <actObj1.3995+0x1a>
    3c2a:	30 91 f5 38 	lds	r19, 0x38F5	; 0x8038f5 <actObj1.3995+0x1b>
    return 0;
}

//
void SetResponse(uint8_t number, uint16_t address, uint16_t length, uint8_t type){
    reactStr[0][number]=address;
    3c2e:	40 91 e6 38 	lds	r20, 0x38E6	; 0x8038e6 <actObj1.3995+0xc>
    3c32:	50 91 e7 38 	lds	r21, 0x38E7	; 0x8038e7 <actObj1.3995+0xd>
    3c36:	40 93 1f 39 	sts	0x391F, r20	; 0x80391f <reactStr+0x4>
    3c3a:	50 93 20 39 	sts	0x3920, r21	; 0x803920 <reactStr+0x5>
    reactStr[1][number]=length;
    3c3e:	20 93 5f 39 	sts	0x395F, r18	; 0x80395f <reactStr+0x44>
    3c42:	30 93 60 39 	sts	0x3960, r19	; 0x803960 <reactStr+0x45>
    reactStr[2][number]=type;
    3c46:	10 92 9f 39 	sts	0x399F, r1	; 0x80399f <reactStr+0x84>
    3c4a:	10 92 a0 39 	sts	0x39A0, r1	; 0x8039a0 <reactStr+0x85>
    return 0;
}

//
void SetResponse(uint8_t number, uint16_t address, uint16_t length, uint8_t type){
    reactStr[0][number]=address;
    3c4e:	2b e5       	ldi	r18, 0x5B	; 91
    3c50:	3a e7       	ldi	r19, 0x7A	; 122
    3c52:	20 93 21 39 	sts	0x3921, r18	; 0x803921 <reactStr+0x6>
    3c56:	30 93 22 39 	sts	0x3922, r19	; 0x803922 <reactStr+0x7>
    reactStr[1][number]=length;
    3c5a:	22 e0       	ldi	r18, 0x02	; 2
    3c5c:	30 e0       	ldi	r19, 0x00	; 0
    3c5e:	20 93 61 39 	sts	0x3961, r18	; 0x803961 <reactStr+0x46>
    3c62:	30 93 62 39 	sts	0x3962, r19	; 0x803962 <reactStr+0x47>
    reactStr[2][number]=type;
    3c66:	80 93 a1 39 	sts	0x39A1, r24	; 0x8039a1 <reactStr+0x86>
    3c6a:	90 93 a2 39 	sts	0x39A2, r25	; 0x8039a2 <reactStr+0x87>
    return 0;
}

//
void SetResponse(uint8_t number, uint16_t address, uint16_t length, uint8_t type){
    reactStr[0][number]=address;
    3c6e:	26 e9       	ldi	r18, 0x96	; 150
    3c70:	37 e7       	ldi	r19, 0x77	; 119
    3c72:	20 93 23 39 	sts	0x3923, r18	; 0x803923 <reactStr+0x8>
    3c76:	30 93 24 39 	sts	0x3924, r19	; 0x803924 <reactStr+0x9>
    reactStr[1][number]=length;
    3c7a:	2d e3       	ldi	r18, 0x3D	; 61
    3c7c:	30 e0       	ldi	r19, 0x00	; 0
    3c7e:	20 93 63 39 	sts	0x3963, r18	; 0x803963 <reactStr+0x48>
    3c82:	30 93 64 39 	sts	0x3964, r19	; 0x803964 <reactStr+0x49>
    reactStr[2][number]=type;
    3c86:	80 93 a3 39 	sts	0x39A3, r24	; 0x8039a3 <reactStr+0x88>
    3c8a:	90 93 a4 39 	sts	0x39A4, r25	; 0x8039a4 <reactStr+0x89>
                            PopulateObject(inventory[x], &actObj1);
                            SetResponse(elements++, A_DROPPING, L_DROPPING, TEASER);
                            SetResponse(elements++, actObj1.addrStr[NAME], actObj1.lenStr[NAME], GAME);
                            SetResponse(elements++, A_LF, 2, TEASER);
                            SetResponse(elements++, A_RETURNING, L_RETURNING, TEASER);
                            inventory[x] = 0;
    3c8e:	f7 01       	movw	r30, r14
    3c90:	10 82       	st	Z, r1
    3c92:	11 82       	std	Z+1, r1	; 0x01
                        if (CheckLetter(inventory[x], data[1])) {
                            PopulateObject(inventory[x], &actObj1);
                            SetResponse(elements++, A_DROPPING, L_DROPPING, TEASER);
                            SetResponse(elements++, actObj1.addrStr[NAME], actObj1.lenStr[NAME], GAME);
                            SetResponse(elements++, A_LF, 2, TEASER);
                            SetResponse(elements++, A_RETURNING, L_RETURNING, TEASER);
    3c94:	f5 e0       	ldi	r31, 0x05	; 5
    3c96:	7f 2e       	mov	r7, r31
                            inventory[x] = 0;
                            break;
    3c98:	64 cf       	rjmp	.-312    	; 0x3b62 <ProcessInput+0xffa>
                SetResponse(elements++, A_EMPTYHANDS, L_EMPTYHANDS, TEASER);
            } else if (inputLen != 2) {
                SetResponse(elements++, A_NOTPOSSIBLE, L_NOTPOSSIBLE, TEASER);
            } else {
                for (uint8_t x=0; x<2; ++x) {
                    if (inventory[x]) {
    3c9a:	80 91 40 38 	lds	r24, 0x3840	; 0x803840 <inventory+0x2>
    3c9e:	90 91 41 38 	lds	r25, 0x3841	; 0x803841 <inventory+0x3>
    3ca2:	00 97       	sbiw	r24, 0x00	; 0
    3ca4:	49 f0       	breq	.+18     	; 0x3cb8 <ProcessInput+0x1150>
                        if (CheckLetter(inventory[x], data[1])) {
    3ca6:	f8 01       	movw	r30, r16
    3ca8:	61 81       	ldd	r22, Z+1	; 0x01
    3caa:	0e 94 6e 11 	call	0x22dc	; 0x22dc <CheckLetter>
    3cae:	88 23       	and	r24, r24
    3cb0:	19 f0       	breq	.+6      	; 0x3cb8 <ProcessInput+0x1150>
                SetResponse(elements++, A_EMPTYHANDS, L_EMPTYHANDS, TEASER);
            } else if (inputLen != 2) {
                SetResponse(elements++, A_NOTPOSSIBLE, L_NOTPOSSIBLE, TEASER);
            } else {
                for (uint8_t x=0; x<2; ++x) {
                    if (inventory[x]) {
    3cb2:	81 e0       	ldi	r24, 0x01	; 1
    3cb4:	90 e0       	ldi	r25, 0x00	; 0
    3cb6:	98 cf       	rjmp	.-208    	; 0x3be8 <ProcessInput+0x1080>
    return 0;
}

//
void SetResponse(uint8_t number, uint16_t address, uint16_t length, uint8_t type){
    reactStr[0][number]=address;
    3cb8:	83 e6       	ldi	r24, 0x63	; 99
    3cba:	99 e7       	ldi	r25, 0x79	; 121
    3cbc:	80 93 1d 39 	sts	0x391D, r24	; 0x80391d <reactStr+0x2>
    3cc0:	90 93 1e 39 	sts	0x391E, r25	; 0x80391e <reactStr+0x3>
    reactStr[1][number]=length;
    3cc4:	81 e2       	ldi	r24, 0x21	; 33
    3cc6:	90 e0       	ldi	r25, 0x00	; 0
    3cc8:	13 c8       	rjmp	.-4058   	; 0x2cf0 <ProcessInput+0x188>
    } else {
        SetResponse(0, A_LF, 2, TEASER);
        responseList = SetStandardResponse(1);
    }

    data[0] = 0;
    3cca:	d8 01       	movw	r26, r16
    3ccc:	1c 92       	st	X, r1
    serRxDone = 0;
    3cce:	10 92 44 38 	sts	0x3844, r1	; 0x803844 <serRxDone>
    RXCNT = 0;    
    3cd2:	1d ba       	out	0x1d, r1	; 29
    return 0;
}
    3cd4:	80 e0       	ldi	r24, 0x00	; 0
    3cd6:	28 96       	adiw	r28, 0x08	; 8
    3cd8:	cd bf       	out	0x3d, r28	; 61
    3cda:	de bf       	out	0x3e, r29	; 62
    3cdc:	df 91       	pop	r29
    3cde:	cf 91       	pop	r28
    3ce0:	1f 91       	pop	r17
    3ce2:	0f 91       	pop	r16
    3ce4:	ff 90       	pop	r15
    3ce6:	ef 90       	pop	r14
    3ce8:	df 90       	pop	r13
    3cea:	cf 90       	pop	r12
    3cec:	bf 90       	pop	r11
    3cee:	af 90       	pop	r10
    3cf0:	9f 90       	pop	r9
    3cf2:	8f 90       	pop	r8
    3cf4:	7f 90       	pop	r7
    3cf6:	6f 90       	pop	r6
    3cf8:	5f 90       	pop	r5
    3cfa:	08 95       	ret

00003cfc <TextAdventure>:


//MAIN GAME STRUCTURE
uint8_t TextAdventure(){
    3cfc:	cf 93       	push	r28
    static uint8_t serInput[RXLEN];
    uint16_t PunishmentCount;
    
    /* Count down PunishmentTime on WING LEDs */
    if (PunishmentTime != 0) {
    3cfe:	80 91 07 39 	lds	r24, 0x3907	; 0x803907 <PunishmentTime>
    3d02:	90 91 08 39 	lds	r25, 0x3908	; 0x803908 <PunishmentTime+0x1>
    3d06:	89 2b       	or	r24, r25
    3d08:	09 f1       	breq	.+66     	; 0x3d4c <TextAdventure+0x50>
        PunishmentCount = getClock();
    3d0a:	0e 94 62 0d 	call	0x1ac4	; 0x1ac4 <getClock>
        if (PunishmentCount < PunishmentTime)
    3d0e:	20 91 07 39 	lds	r18, 0x3907	; 0x803907 <PunishmentTime>
    3d12:	30 91 08 39 	lds	r19, 0x3908	; 0x803908 <PunishmentTime+0x1>
    3d16:	82 17       	cp	r24, r18
    3d18:	93 07       	cpc	r25, r19
    3d1a:	08 f4       	brcc	.+2      	; 0x3d1e <TextAdventure+0x22>
            PunishmentCount += 256 * 60;
    3d1c:	94 5c       	subi	r25, 0xC4	; 196
        PunishmentCount -= PunishmentTime;
    3d1e:	ac 01       	movw	r20, r24
    3d20:	42 1b       	sub	r20, r18
    3d22:	53 0b       	sbc	r21, r19
    3d24:	9a 01       	movw	r18, r20
        if (PunishmentCount > 10) {
    3d26:	4b 30       	cpi	r20, 0x0B	; 11
    3d28:	51 05       	cpc	r21, r1
    3d2a:	30 f0       	brcs	.+12     	; 0x3d38 <TextAdventure+0x3c>
            PunishmentTime = 0;
    3d2c:	10 92 07 39 	sts	0x3907, r1	; 0x803907 <PunishmentTime>
    3d30:	10 92 08 39 	sts	0x3908, r1	; 0x803908 <PunishmentTime+0x1>
            PunishmentCount = 10;
    3d34:	2a e0       	ldi	r18, 0x0A	; 10
    3d36:	30 e0       	ldi	r19, 0x00	; 0
        }
        if (gameNow == TEXT ) {
    3d38:	80 91 3c 38 	lds	r24, 0x383C	; 0x80383c <gameNow>
    3d3c:	81 11       	cpse	r24, r1
    3d3e:	06 c0       	rjmp	.+12     	; 0x3d4c <TextAdventure+0x50>
            WingBar(10-PunishmentCount,5-PunishmentCount);
    3d40:	65 e0       	ldi	r22, 0x05	; 5
    3d42:	62 1b       	sub	r22, r18
    3d44:	8a e0       	ldi	r24, 0x0A	; 10
    3d46:	82 1b       	sub	r24, r18
    3d48:	0e 94 34 0b 	call	0x1668	; 0x1668 <WingBar>
        }
    }

    //Still sending data to serial?
    if (CheckSend()) return 1;
    3d4c:	0e 94 4d 12 	call	0x249a	; 0x249a <CheckSend>
    3d50:	88 23       	and	r24, r24
    3d52:	11 f0       	breq	.+4      	; 0x3d58 <TextAdventure+0x5c>
    3d54:	c1 e0       	ldi	r28, 0x01	; 1
    3d56:	18 c0       	rjmp	.+48     	; 0x3d88 <TextAdventure+0x8c>

    //Not sending? Process next response part to send, if any.
    if (CheckResponse()) return 1;        
    3d58:	0e 94 bb 12 	call	0x2576	; 0x2576 <CheckResponse>
    3d5c:	c8 2f       	mov	r28, r24
    3d5e:	81 11       	cpse	r24, r1
    3d60:	f9 cf       	rjmp	.-14     	; 0x3d54 <TextAdventure+0x58>

    if (PunishmentTime == 0) {
    3d62:	80 91 07 39 	lds	r24, 0x3907	; 0x803907 <PunishmentTime>
    3d66:	90 91 08 39 	lds	r25, 0x3908	; 0x803908 <PunishmentTime+0x1>
    3d6a:	89 2b       	or	r24, r25
    3d6c:	69 f4       	brne	.+26     	; 0x3d88 <TextAdventure+0x8c>
        //No responses to send, check if there is user input.
        if (CheckInput(&serInput[0])) return 2; 
    3d6e:	8e e6       	ldi	r24, 0x6E	; 110
    3d70:	98 e3       	ldi	r25, 0x38	; 56
    3d72:	0e 94 02 13 	call	0x2604	; 0x2604 <CheckInput>
    3d76:	c8 2f       	mov	r28, r24
    3d78:	81 11       	cpse	r24, r1
    3d7a:	05 c0       	rjmp	.+10     	; 0x3d86 <TextAdventure+0x8a>

        //Input found, process and save (changes only)
        ProcessInput(&serInput[0]);
    3d7c:	8e e6       	ldi	r24, 0x6E	; 110
    3d7e:	98 e3       	ldi	r25, 0x38	; 56
    3d80:	0e 94 b4 15 	call	0x2b68	; 0x2b68 <ProcessInput>
    3d84:	01 c0       	rjmp	.+2      	; 0x3d88 <TextAdventure+0x8c>
    //Not sending? Process next response part to send, if any.
    if (CheckResponse()) return 1;        

    if (PunishmentTime == 0) {
        //No responses to send, check if there is user input.
        if (CheckInput(&serInput[0])) return 2; 
    3d86:	c2 e0       	ldi	r28, 0x02	; 2
        //Input found, process and save (changes only)
        ProcessInput(&serInput[0]);
    }

    return 0;
}
    3d88:	8c 2f       	mov	r24, r28
    3d8a:	cf 91       	pop	r28
    3d8c:	08 95       	ret

00003d8e <main>:


//This is where it begins, inits first and main program in while(1) loop.
int main(void)
{
    Setup();
    3d8e:	0e 94 40 05 	call	0xa80	; 0xa80 <Setup>

    LoadGameState();
    3d92:	0e 94 a2 0a 	call	0x1544	; 0x1544 <LoadGameState>
            SaveGameState();

            //Check light sensor status (added hysteresis to preserve writing cycles to internal EEPROM)
            if (adcPhot < 10) WriteStatusBit(116, 1);
            if (adcPhot > 100) WriteStatusBit(116, 0);
            dimValue = 0 - QSINE[31-(adcPhot>>7)];
    3d96:	cf e1       	ldi	r28, 0x1F	; 31
    3d98:	d0 e0       	ldi	r29, 0x00	; 0
    Setup();

    LoadGameState();

    while (TRUE) {
        if (GenerateAudio()) {
    3d9a:	0e 94 2b 0c 	call	0x1856	; 0x1856 <GenerateAudio>
    3d9e:	88 23       	and	r24, r24
    3da0:	e1 f3       	breq	.-8      	; 0x3d9a <main+0xc>
            lastButtonState = buttonState;
    3da2:	80 91 08 38 	lds	r24, 0x3808	; 0x803808 <buttonState>
    3da6:	80 93 07 38 	sts	0x3807, r24	; 0x803807 <lastButtonState>
            buttonState = CheckButtons();
    3daa:	0e 94 ff 08 	call	0x11fe	; 0x11fe <CheckButtons>
    3dae:	80 93 08 38 	sts	0x3808, r24	; 0x803808 <buttonState>
            buttonMark = 0;
    3db2:	10 92 42 38 	sts	0x3842, r1	; 0x803842 <buttonMark>

            if (VREF_CTRLA == 0x12) SelectAuIn(); else SelectTSens();
    3db6:	80 91 a0 00 	lds	r24, 0x00A0	; 0x8000a0 <__TEXT_REGION_LENGTH__+0x7000a0>
    3dba:	82 31       	cpi	r24, 0x12	; 18
    3dbc:	19 f4       	brne	.+6      	; 0x3dc4 <main+0x36>
    3dbe:	0e 94 f0 08 	call	0x11e0	; 0x11e0 <SelectAuIn>
    3dc2:	02 c0       	rjmp	.+4      	; 0x3dc8 <main+0x3a>
    3dc4:	0e 94 e1 08 	call	0x11c2	; 0x11c2 <SelectTSens>

            GenerateBlinks();
    3dc8:	0e 94 72 0b 	call	0x16e4	; 0x16e4 <GenerateBlinks>

            //Main game, to complete: Finish sub-game MagnetMaze and MakeFriends too.
            TextAdventure();
    3dcc:	97 df       	rcall	.-210    	; 0x3cfc <TextAdventure>

            //Other games & user interaction checks
            MagnetMaze();
    3dce:	0e 94 48 04 	call	0x890	; 0x890 <MagnetMaze>
            LanyardCode();
    3dd2:	0e 94 2e 03 	call	0x65c	; 0x65c <LanyardCode>
            BastetDictates();
    3dd6:	0e 94 07 0e 	call	0x1c0e	; 0x1c0e <BastetDictates>
            MakeFriends();
    3dda:	0e 94 7a 00 	call	0xf4	; 0xf4 <MakeFriends>

            //Save progress
            SaveGameState();
    3dde:	0e 94 b0 09 	call	0x1360	; 0x1360 <SaveGameState>

            //Check light sensor status (added hysteresis to preserve writing cycles to internal EEPROM)
            if (adcPhot < 10) WriteStatusBit(116, 1);
    3de2:	80 91 bd 3a 	lds	r24, 0x3ABD	; 0x803abd <adcPhot>
    3de6:	90 91 be 3a 	lds	r25, 0x3ABE	; 0x803abe <adcPhot+0x1>
    3dea:	0a 97       	sbiw	r24, 0x0a	; 10
    3dec:	20 f4       	brcc	.+8      	; 0x3df6 <main+0x68>
    3dee:	61 e0       	ldi	r22, 0x01	; 1
    3df0:	84 e7       	ldi	r24, 0x74	; 116
    3df2:	0e 94 37 0a 	call	0x146e	; 0x146e <WriteStatusBit>
            if (adcPhot > 100) WriteStatusBit(116, 0);
    3df6:	80 91 bd 3a 	lds	r24, 0x3ABD	; 0x803abd <adcPhot>
    3dfa:	90 91 be 3a 	lds	r25, 0x3ABE	; 0x803abe <adcPhot+0x1>
    3dfe:	85 36       	cpi	r24, 0x65	; 101
    3e00:	91 05       	cpc	r25, r1
    3e02:	20 f0       	brcs	.+8      	; 0x3e0c <main+0x7e>
    3e04:	60 e0       	ldi	r22, 0x00	; 0
    3e06:	84 e7       	ldi	r24, 0x74	; 116
    3e08:	0e 94 37 0a 	call	0x146e	; 0x146e <WriteStatusBit>
            dimValue = 0 - QSINE[31-(adcPhot>>7)];
    3e0c:	80 91 bd 3a 	lds	r24, 0x3ABD	; 0x803abd <adcPhot>
    3e10:	90 91 be 3a 	lds	r25, 0x3ABE	; 0x803abe <adcPhot+0x1>
    3e14:	88 0f       	add	r24, r24
    3e16:	89 2f       	mov	r24, r25
    3e18:	88 1f       	adc	r24, r24
    3e1a:	99 0b       	sbc	r25, r25
    3e1c:	91 95       	neg	r25
    3e1e:	fe 01       	movw	r30, r28
    3e20:	e8 1b       	sub	r30, r24
    3e22:	f9 0b       	sbc	r31, r25
    3e24:	e0 58       	subi	r30, 0x80	; 128
    3e26:	f1 44       	sbci	r31, 0x41	; 65
    3e28:	80 81       	ld	r24, Z
    3e2a:	81 95       	neg	r24
    3e2c:	80 93 0a 38 	sts	0x380A, r24	; 0x80380a <dimValue>

            //Check temperature
            HotSummer();
    3e30:	0e 94 cf 0a 	call	0x159e	; 0x159e <HotSummer>
    3e34:	b2 cf       	rjmp	.-156    	; 0x3d9a <main+0xc>

00003e36 <_exit>:
    3e36:	f8 94       	cli

00003e38 <__stop_program>:
    3e38:	ff cf       	rjmp	.-2      	; 0x3e38 <__stop_program>
