
ISR_IO.elf:     file format elf32-avr

Sections:
Idx Name          Size      VMA       LMA       File off  Algn
  0 .data         00000036  00803800  00003fa6  0000405a  2**0
                  CONTENTS, ALLOC, LOAD, DATA
  1 .text         00003ef6  00000000  00000000  000000b4  2**1
                  CONTENTS, ALLOC, LOAD, READONLY, CODE
  2 .rodata       000000b0  0000bef6  00003ef6  00003faa  2**0
                  CONTENTS, ALLOC, LOAD, READONLY, DATA
  3 .bss          000002e5  00803836  00803836  00004090  2**0
                  ALLOC
  4 .comment      00000030  00000000  00000000  00004090  2**0
                  CONTENTS, READONLY
  5 .note.gnu.avr.deviceinfo 00000040  00000000  00000000  000040c0  2**2
                  CONTENTS, READONLY
  6 .debug_aranges 00000358  00000000  00000000  00004100  2**0
                  CONTENTS, READONLY, DEBUGGING
  7 .debug_info   00006f16  00000000  00000000  00004458  2**0
                  CONTENTS, READONLY, DEBUGGING
  8 .debug_abbrev 0000297c  00000000  00000000  0000b36e  2**0
                  CONTENTS, READONLY, DEBUGGING
  9 .debug_line   00003e71  00000000  00000000  0000dcea  2**0
                  CONTENTS, READONLY, DEBUGGING
 10 .debug_frame  0000094c  00000000  00000000  00011b5c  2**2
                  CONTENTS, READONLY, DEBUGGING
 11 .debug_str    00001ae5  00000000  00000000  000124a8  2**0
                  CONTENTS, READONLY, DEBUGGING
 12 .debug_loc    00003e53  00000000  00000000  00013f8d  2**0
                  CONTENTS, READONLY, DEBUGGING
 13 .debug_ranges 000003c8  00000000  00000000  00017de0  2**0
                  CONTENTS, READONLY, DEBUGGING

Disassembly of section .text:

00000000 <__vectors>:
       0:	46 c0       	rjmp	.+140    	; 0x8e <__ctors_end>
       2:	00 00       	nop
       4:	61 c0       	rjmp	.+194    	; 0xc8 <__bad_interrupt>
       6:	00 00       	nop
       8:	5f c0       	rjmp	.+190    	; 0xc8 <__bad_interrupt>
       a:	00 00       	nop
       c:	5d c0       	rjmp	.+186    	; 0xc8 <__bad_interrupt>
       e:	00 00       	nop
      10:	5b c0       	rjmp	.+182    	; 0xc8 <__bad_interrupt>
      12:	00 00       	nop
      14:	59 c0       	rjmp	.+178    	; 0xc8 <__bad_interrupt>
      16:	00 00       	nop
      18:	9e c7       	rjmp	.+3900   	; 0xf56 <__vector_6>
      1a:	00 00       	nop
      1c:	f0 c7       	rjmp	.+4064   	; 0xffe <__vector_7>
      1e:	00 00       	nop
      20:	d8 c5       	rjmp	.+2992   	; 0xbd2 <__vector_8>
      22:	00 00       	nop
      24:	51 c0       	rjmp	.+162    	; 0xc8 <__bad_interrupt>
      26:	00 00       	nop
      28:	4f c0       	rjmp	.+158    	; 0xc8 <__bad_interrupt>
      2a:	00 00       	nop
      2c:	4d c0       	rjmp	.+154    	; 0xc8 <__bad_interrupt>
      2e:	00 00       	nop
      30:	4b c0       	rjmp	.+150    	; 0xc8 <__bad_interrupt>
      32:	00 00       	nop
      34:	1f c6       	rjmp	.+3134   	; 0xc74 <__vector_13>
      36:	00 00       	nop
      38:	50 c6       	rjmp	.+3232   	; 0xcda <__vector_14>
      3a:	00 00       	nop
      3c:	45 c0       	rjmp	.+138    	; 0xc8 <__bad_interrupt>
      3e:	00 00       	nop
      40:	43 c0       	rjmp	.+134    	; 0xc8 <__bad_interrupt>
      42:	00 00       	nop
      44:	41 c0       	rjmp	.+130    	; 0xc8 <__bad_interrupt>
      46:	00 00       	nop
      48:	3f c0       	rjmp	.+126    	; 0xc8 <__bad_interrupt>
      4a:	00 00       	nop
      4c:	3d c0       	rjmp	.+122    	; 0xc8 <__bad_interrupt>
      4e:	00 00       	nop
      50:	0e c7       	rjmp	.+3612   	; 0xe6e <__vector_20>
      52:	00 00       	nop
      54:	39 c0       	rjmp	.+114    	; 0xc8 <__bad_interrupt>
      56:	00 00       	nop
      58:	36 c7       	rjmp	.+3692   	; 0xec6 <__vector_22>
      5a:	00 00       	nop
      5c:	35 c0       	rjmp	.+106    	; 0xc8 <__bad_interrupt>
      5e:	00 00       	nop
      60:	33 c0       	rjmp	.+102    	; 0xc8 <__bad_interrupt>
      62:	00 00       	nop
      64:	31 c0       	rjmp	.+98     	; 0xc8 <__bad_interrupt>
      66:	00 00       	nop
      68:	2f c0       	rjmp	.+94     	; 0xc8 <__bad_interrupt>
      6a:	00 00       	nop
      6c:	89 c6       	rjmp	.+3346   	; 0xd80 <__vector_27>
      6e:	00 00       	nop
      70:	e2 c6       	rjmp	.+3524   	; 0xe36 <__vector_28>
      72:	00 00       	nop
      74:	29 c0       	rjmp	.+82     	; 0xc8 <__bad_interrupt>
      76:	00 00       	nop
      78:	27 c0       	rjmp	.+78     	; 0xc8 <__bad_interrupt>
      7a:	00 00       	nop
      7c:	b7 0b       	sbc	r27, r23
      7e:	e5 0b       	sbc	r30, r21
      80:	ec 0b       	sbc	r30, r28
      82:	a7 0c       	add	r10, r7
      84:	a7 0c       	add	r10, r7
      86:	fb 0b       	sbc	r31, r27
      88:	08 0c       	add	r0, r8
      8a:	46 0c       	add	r4, r6
      8c:	6d 0c       	add	r6, r13

0000008e <__ctors_end>:
      8e:	11 24       	eor	r1, r1
      90:	1f be       	out	0x3f, r1	; 63
      92:	cf ef       	ldi	r28, 0xFF	; 255
      94:	cd bf       	out	0x3d, r28	; 61
      96:	df e3       	ldi	r29, 0x3F	; 63
      98:	de bf       	out	0x3e, r29	; 62

0000009a <__do_copy_data>:
      9a:	18 e3       	ldi	r17, 0x38	; 56
      9c:	a0 e0       	ldi	r26, 0x00	; 0
      9e:	b8 e3       	ldi	r27, 0x38	; 56
      a0:	e6 ea       	ldi	r30, 0xA6	; 166
      a2:	ff e3       	ldi	r31, 0x3F	; 63
      a4:	02 c0       	rjmp	.+4      	; 0xaa <__do_copy_data+0x10>
      a6:	05 90       	lpm	r0, Z+
      a8:	0d 92       	st	X+, r0
      aa:	a6 33       	cpi	r26, 0x36	; 54
      ac:	b1 07       	cpc	r27, r17
      ae:	d9 f7       	brne	.-10     	; 0xa6 <__do_copy_data+0xc>

000000b0 <__do_clear_bss>:
      b0:	2b e3       	ldi	r18, 0x3B	; 59
      b2:	a6 e3       	ldi	r26, 0x36	; 54
      b4:	b8 e3       	ldi	r27, 0x38	; 56
      b6:	01 c0       	rjmp	.+2      	; 0xba <.do_clear_bss_start>

000000b8 <.do_clear_bss_loop>:
      b8:	1d 92       	st	X+, r1

000000ba <.do_clear_bss_start>:
      ba:	ab 31       	cpi	r26, 0x1B	; 27
      bc:	b2 07       	cpc	r27, r18
      be:	e1 f7       	brne	.-8      	; 0xb8 <.do_clear_bss_loop>
      c0:	0e 94 b8 1e 	call	0x3d70	; 0x3d70 <main>
      c4:	0c 94 79 1f 	jmp	0x3ef2	; 0x3ef2 <_exit>

000000c8 <__bad_interrupt>:
      c8:	9b cf       	rjmp	.-202    	; 0x0 <__vectors>

000000ca <chkVolt250>:
#include <main_def.h>
#include <resources.h>
#include <I2C.h>

//Returns measured voltage * 4 (2V returns 8) if it is in the expected range (DELTA)
uint8_t chkVolt250(){
      ca:	28 ed       	ldi	r18, 0xD8	; 216
      cc:	30 e0       	ldi	r19, 0x00	; 0
    uint8_t avgVolt = 9;
      ce:	89 e0       	ldi	r24, 0x09	; 9
        
    for (uint8_t x=225; x>24; x-=25) {
        if ((auIn > (x-DELTA)) && (auIn < (x+DELTA))) {
      d0:	40 91 cb 3a 	lds	r20, 0x3ACB	; 0x803acb <auIn>
      d4:	50 e0       	ldi	r21, 0x00	; 0
      d6:	42 17       	cp	r20, r18
      d8:	53 07       	cpc	r21, r19
      da:	4c f0       	brlt	.+18     	; 0xee <chkVolt250+0x24>
      dc:	40 91 cb 3a 	lds	r20, 0x3ACB	; 0x803acb <auIn>
      e0:	50 e0       	ldi	r21, 0x00	; 0
      e2:	b9 01       	movw	r22, r18
      e4:	6e 5e       	subi	r22, 0xEE	; 238
      e6:	7f 4f       	sbci	r23, 0xFF	; 255
      e8:	64 17       	cp	r22, r20
      ea:	75 07       	cpc	r23, r21
      ec:	2c f4       	brge	.+10     	; 0xf8 <chkVolt250+0x2e>
            break;
        }
        --avgVolt;
      ee:	81 50       	subi	r24, 0x01	; 1
      f0:	29 51       	subi	r18, 0x19	; 25
      f2:	31 09       	sbc	r19, r1

//Returns measured voltage * 4 (2V returns 8) if it is in the expected range (DELTA)
uint8_t chkVolt250(){
    uint8_t avgVolt = 9;
        
    for (uint8_t x=225; x>24; x-=25) {
      f4:	81 11       	cpse	r24, r1
      f6:	ec cf       	rjmp	.-40     	; 0xd0 <chkVolt250+0x6>
            break;
        }
        --avgVolt;
    }
    return avgVolt;
}
      f8:	08 95       	ret

000000fa <MakeFriends>:

// Main game loop
uint8_t MakeFriends(){
      fa:	cf 93       	push	r28
      fc:	df 93       	push	r29
    static uint8_t setDAC[2] = {255, 0};
    static uint8_t chkTmr = 0;
    static uint8_t jackIn = 0;
    static uint8_t candidate = 0;

    ++chkTmr;
      fe:	80 91 39 38 	lds	r24, 0x3839	; 0x803839 <chkTmr.3792>
     102:	8f 5f       	subi	r24, 0xFF	; 255
     104:	80 93 39 38 	sts	0x3839, r24	; 0x803839 <chkTmr.3792>
     108:	c4 e6       	ldi	r28, 0x64	; 100

    //Check if badge has found 3 friends
    uint8_t foundAll = 1;
     10a:	d1 e0       	ldi	r29, 0x01	; 1
    for (uint8_t x=0; x<4; ++x){
        if (CheckState(100+x) == 0) foundAll = 0;
     10c:	8c 2f       	mov	r24, r28
     10e:	0e 94 20 0a 	call	0x1440	; 0x1440 <CheckState>
     112:	81 11       	cpse	r24, r1
     114:	01 c0       	rjmp	.+2      	; 0x118 <MakeFriends+0x1e>
     116:	d0 e0       	ldi	r29, 0x00	; 0
     118:	cf 5f       	subi	r28, 0xFF	; 255

    ++chkTmr;

    //Check if badge has found 3 friends
    uint8_t foundAll = 1;
    for (uint8_t x=0; x<4; ++x){
     11a:	c8 36       	cpi	r28, 0x68	; 104
     11c:	b9 f7       	brne	.-18     	; 0x10c <MakeFriends+0x12>
        if (CheckState(100+x) == 0) foundAll = 0;
    }
    if (foundAll) UpdateState(124);
     11e:	dd 23       	and	r29, r29
     120:	19 f0       	breq	.+6      	; 0x128 <MakeFriends+0x2e>
     122:	8c e7       	ldi	r24, 0x7C	; 124
     124:	0e 94 ff 09 	call	0x13fe	; 0x13fe <UpdateState>

    //Set game state, must be able to hijack from other games.
    if (progress > FIRST_CONTACT) { 
     128:	80 91 38 38 	lds	r24, 0x3838	; 0x803838 <progress.3790>
     12c:	82 30       	cpi	r24, 0x02	; 2
     12e:	20 f0       	brcs	.+8      	; 0x138 <MakeFriends+0x3e>
        gameNow = FRIENDS; 
     130:	94 e0       	ldi	r25, 0x04	; 4
     132:	90 93 42 38 	sts	0x3842, r25	; 0x803842 <gameNow>
     136:	0d c0       	rjmp	.+26     	; 0x152 <MakeFriends+0x58>
    }
    
    //Clear game state if not communicating properly or headphones detected
    if (((progress == NO_OTHER) || detHdPh) && (gameNow == FRIENDS)) {
     138:	81 11       	cpse	r24, r1
     13a:	0b c0       	rjmp	.+22     	; 0x152 <MakeFriends+0x58>
     13c:	90 91 42 38 	lds	r25, 0x3842	; 0x803842 <gameNow>
     140:	94 30       	cpi	r25, 0x04	; 4
     142:	61 f4       	brne	.+24     	; 0x15c <MakeFriends+0x62>
        gameNow = TEXT; 
     144:	10 92 42 38 	sts	0x3842, r1	; 0x803842 <gameNow>
        effect = 0;
     148:	10 92 40 38 	sts	0x3840, r1	; 0x803840 <effect>
     14c:	10 92 41 38 	sts	0x3841, r1	; 0x803841 <effect+0x1>
     150:	05 c0       	rjmp	.+10     	; 0x15c <MakeFriends+0x62>
    if (progress > FIRST_CONTACT) { 
        gameNow = FRIENDS; 
    }
    
    //Clear game state if not communicating properly or headphones detected
    if (((progress == NO_OTHER) || detHdPh) && (gameNow == FRIENDS)) {
     152:	90 91 c8 3a 	lds	r25, 0x3AC8	; 0x803ac8 <detHdPh>
     156:	91 11       	cpse	r25, r1
     158:	f1 cf       	rjmp	.-30     	; 0x13c <MakeFriends+0x42>
     15a:	18 c0       	rjmp	.+48     	; 0x18c <MakeFriends+0x92>
        gameNow = TEXT; 
        effect = 0;
    }

    //Audio off, set voltage level (setDAC[0]*10mV)
    if ((progress == NO_OTHER) && (detHdPh == 0)) {
     15c:	81 11       	cpse	r24, r1
     15e:	16 c0       	rjmp	.+44     	; 0x18c <MakeFriends+0x92>
     160:	90 91 c8 3a 	lds	r25, 0x3AC8	; 0x803ac8 <detHdPh>
     164:	91 11       	cpse	r25, r1
     166:	12 c0       	rjmp	.+36     	; 0x18c <MakeFriends+0x92>
        setDAC[0] = whoami * 51;
     168:	80 91 43 38 	lds	r24, 0x3843	; 0x803843 <whoami>
     16c:	93 e3       	ldi	r25, 0x33	; 51
     16e:	89 9f       	mul	r24, r25
     170:	80 2d       	mov	r24, r0
     172:	11 24       	eor	r1, r1
     174:	80 93 00 38 	sts	0x3800, r24	; 0x803800 <__data_start>
        auRepAddr = &setDAC[0];
     178:	80 e0       	ldi	r24, 0x00	; 0
     17a:	98 e3       	ldi	r25, 0x38	; 56
     17c:	80 93 03 38 	sts	0x3803, r24	; 0x803803 <auRepAddr>
     180:	90 93 04 38 	sts	0x3804, r25	; 0x803804 <auRepAddr+0x1>
        auVolume = 255;
     184:	8f ef       	ldi	r24, 0xFF	; 255
     186:	80 93 bf 3a 	sts	0x3ABF, r24	; 0x803abf <auVolume>
     18a:	09 c0       	rjmp	.+18     	; 0x19e <MakeFriends+0xa4>
    } else {
        if (progress & NEXT){
     18c:	98 2f       	mov	r25, r24
     18e:	90 7f       	andi	r25, 0xF0	; 240
     190:	31 f0       	breq	.+12     	; 0x19e <MakeFriends+0xa4>
            progress++;
            progress&=0x0f;
     192:	8f 5f       	subi	r24, 0xFF	; 255
     194:	8f 70       	andi	r24, 0x0F	; 15
     196:	80 93 38 38 	sts	0x3838, r24	; 0x803838 <progress.3790>
            chkTmr = 0;
     19a:	10 92 39 38 	sts	0x3839, r1	; 0x803839 <chkTmr.3792>
        }
    }

    //Check for other badges ()
    if ((auIn < (setDAC[0] - DELTA)) || (auIn > (setDAC[0] + DELTA)) || (progress > FIRST_CONTACT)) {
     19e:	40 91 cb 3a 	lds	r20, 0x3ACB	; 0x803acb <auIn>
     1a2:	20 91 00 38 	lds	r18, 0x3800	; 0x803800 <__data_start>
     1a6:	30 e0       	ldi	r19, 0x00	; 0
     1a8:	50 e0       	ldi	r21, 0x00	; 0
     1aa:	b9 01       	movw	r22, r18
     1ac:	6a 50       	subi	r22, 0x0A	; 10
     1ae:	71 09       	sbc	r23, r1
     1b0:	80 91 38 38 	lds	r24, 0x3838	; 0x803838 <progress.3790>
     1b4:	46 17       	cp	r20, r22
     1b6:	57 07       	cpc	r21, r23
     1b8:	5c f0       	brlt	.+22     	; 0x1d0 <MakeFriends+0xd6>
     1ba:	40 91 cb 3a 	lds	r20, 0x3ACB	; 0x803acb <auIn>
     1be:	50 e0       	ldi	r21, 0x00	; 0
     1c0:	26 5f       	subi	r18, 0xF6	; 246
     1c2:	3f 4f       	sbci	r19, 0xFF	; 255
     1c4:	24 17       	cp	r18, r20
     1c6:	35 07       	cpc	r19, r21
     1c8:	1c f0       	brlt	.+6      	; 0x1d0 <MakeFriends+0xd6>
     1ca:	82 30       	cpi	r24, 0x02	; 2
     1cc:	08 f4       	brcc	.+2      	; 0x1d0 <MakeFriends+0xd6>
     1ce:	43 c0       	rjmp	.+134    	; 0x256 <MakeFriends+0x15c>
        if ((progress == NO_OTHER) && (detHdPh == 0)) {
     1d0:	81 11       	cpse	r24, r1
     1d2:	0b c0       	rjmp	.+22     	; 0x1ea <MakeFriends+0xf0>
     1d4:	80 91 c8 3a 	lds	r24, 0x3AC8	; 0x803ac8 <detHdPh>
     1d8:	81 11       	cpse	r24, r1
     1da:	96 c0       	rjmp	.+300    	; 0x308 <MakeFriends+0x20e>
            if (chkTmr >= 8) {
     1dc:	80 91 39 38 	lds	r24, 0x3839	; 0x803839 <chkTmr.3792>
     1e0:	88 30       	cpi	r24, 0x08	; 8
     1e2:	08 f4       	brcc	.+2      	; 0x1e6 <MakeFriends+0xec>
     1e4:	91 c0       	rjmp	.+290    	; 0x308 <MakeFriends+0x20e>
                progress |= NEXT;
     1e6:	80 ef       	ldi	r24, 0xF0	; 240
     1e8:	64 c0       	rjmp	.+200    	; 0x2b2 <MakeFriends+0x1b8>
            }
        }

        //Candidate found, check ranges
        else if (progress == FIRST_CONTACT) {
     1ea:	81 30       	cpi	r24, 0x01	; 1
     1ec:	41 f5       	brne	.+80     	; 0x23e <MakeFriends+0x144>
            jackIn = chkVolt250();
     1ee:	6d df       	rcall	.-294    	; 0xca <chkVolt250>
     1f0:	80 93 37 38 	sts	0x3837, r24	; 0x803837 <jackIn.3793>
            if (jackIn) {
     1f4:	88 23       	and	r24, r24
     1f6:	79 f1       	breq	.+94     	; 0x256 <MakeFriends+0x15c>
                if (chkTmr >= SHORT_WAIT){
     1f8:	90 91 39 38 	lds	r25, 0x3839	; 0x803839 <chkTmr.3792>
     1fc:	98 30       	cpi	r25, 0x08	; 8
     1fe:	08 f4       	brcc	.+2      	; 0x202 <MakeFriends+0x108>
     200:	83 c0       	rjmp	.+262    	; 0x308 <MakeFriends+0x20e>
                    if (   ((whoami == 1)&&((jackIn >= 3)&&(jackIn <= 5))) 
     202:	90 91 43 38 	lds	r25, 0x3843	; 0x803843 <whoami>
     206:	91 30       	cpi	r25, 0x01	; 1
     208:	11 f4       	brne	.+4      	; 0x20e <MakeFriends+0x114>
     20a:	83 50       	subi	r24, 0x03	; 3
     20c:	14 c0       	rjmp	.+40     	; 0x236 <MakeFriends+0x13c>
                    || ((whoami == 2)&&((jackIn == 3)||(jackIn == 5)||(jackIn == 6)))  
     20e:	92 30       	cpi	r25, 0x02	; 2
     210:	31 f4       	brne	.+12     	; 0x21e <MakeFriends+0x124>
     212:	83 30       	cpi	r24, 0x03	; 3
     214:	91 f0       	breq	.+36     	; 0x23a <MakeFriends+0x140>
     216:	85 50       	subi	r24, 0x05	; 5
     218:	82 30       	cpi	r24, 0x02	; 2
     21a:	e8 f4       	brcc	.+58     	; 0x256 <MakeFriends+0x15c>
     21c:	0e c0       	rjmp	.+28     	; 0x23a <MakeFriends+0x140>
                    || ((whoami == 3)&&((jackIn == 4)||(jackIn == 5)||(jackIn == 7))) 
     21e:	93 30       	cpi	r25, 0x03	; 3
     220:	39 f4       	brne	.+14     	; 0x230 <MakeFriends+0x136>
     222:	9c ef       	ldi	r25, 0xFC	; 252
     224:	98 0f       	add	r25, r24
     226:	92 30       	cpi	r25, 0x02	; 2
     228:	40 f0       	brcs	.+16     	; 0x23a <MakeFriends+0x140>
     22a:	87 30       	cpi	r24, 0x07	; 7
     22c:	a1 f4       	brne	.+40     	; 0x256 <MakeFriends+0x15c>
     22e:	05 c0       	rjmp	.+10     	; 0x23a <MakeFriends+0x140>
                    || ((whoami == 4)&&((jackIn >= 5)&&(jackIn <= 7)))   ) {
     230:	94 30       	cpi	r25, 0x04	; 4
     232:	89 f4       	brne	.+34     	; 0x256 <MakeFriends+0x15c>
     234:	85 50       	subi	r24, 0x05	; 5
     236:	83 30       	cpi	r24, 0x03	; 3
     238:	70 f4       	brcc	.+28     	; 0x256 <MakeFriends+0x15c>
                        progress |= NEXT;
     23a:	81 ef       	ldi	r24, 0xF1	; 241
     23c:	3a c0       	rjmp	.+116    	; 0x2b2 <MakeFriends+0x1b8>
                progress = NO_OTHER;
            }
        }

        //Wait for the other badge (and a bit longer for effect)
        else if (progress == SECOND_LOVE){
     23e:	82 30       	cpi	r24, 0x02	; 2
     240:	69 f0       	breq	.+26     	; 0x25c <MakeFriends+0x162>
                progress |= NEXT;
            }
        } 
        
        //Wait a bit, check Voltage again, if ok show who you connected with and your own number, save, exit
        else if (progress == THIRD_KISS) {
     242:	83 30       	cpi	r24, 0x03	; 3
     244:	c9 f1       	breq	.+114    	; 0x2b8 <MakeFriends+0x1be>
                    progress |= NEXT;
                } else progress = NO_OTHER;                
            }

        //Wait for quit
        } else if (progress == FOURTH_BASE) {
     246:	84 30       	cpi	r24, 0x04	; 4
     248:	09 f0       	breq	.+2      	; 0x24c <MakeFriends+0x152>
     24a:	5e c0       	rjmp	.+188    	; 0x308 <MakeFriends+0x20e>
            if (chkTmr >= (SHORT_WAIT<<3)) {
     24c:	80 91 39 38 	lds	r24, 0x3839	; 0x803839 <chkTmr.3792>
     250:	80 34       	cpi	r24, 0x40	; 64
     252:	08 f4       	brcc	.+2      	; 0x256 <MakeFriends+0x15c>
     254:	59 c0       	rjmp	.+178    	; 0x308 <MakeFriends+0x20e>
                    if (   ((whoami == 1)&&((jackIn >= 3)&&(jackIn <= 5))) 
                    || ((whoami == 2)&&((jackIn == 3)||(jackIn == 5)||(jackIn == 6)))  
                    || ((whoami == 3)&&((jackIn == 4)||(jackIn == 5)||(jackIn == 7))) 
                    || ((whoami == 4)&&((jackIn >= 5)&&(jackIn <= 7)))   ) {
                        progress |= NEXT;
                    } else progress = NO_OTHER;
     256:	10 92 38 38 	sts	0x3838, r1	; 0x803838 <progress.3790>
     25a:	56 c0       	rjmp	.+172    	; 0x308 <MakeFriends+0x20e>
        }

        //Wait for the other badge (and a bit longer for effect)
        else if (progress == SECOND_LOVE){
            
            effect = 7;
     25c:	87 e0       	ldi	r24, 0x07	; 7
     25e:	90 e0       	ldi	r25, 0x00	; 0
     260:	80 93 40 38 	sts	0x3840, r24	; 0x803840 <effect>
     264:	90 93 41 38 	sts	0x3841, r25	; 0x803841 <effect+0x1>
            if (chkTmr >= SHORT_WAIT) {
     268:	80 91 39 38 	lds	r24, 0x3839	; 0x803839 <chkTmr.3792>
     26c:	88 30       	cpi	r24, 0x08	; 8
     26e:	40 f0       	brcs	.+16     	; 0x280 <MakeFriends+0x186>
                setDAC[0] = floatAround(0x80, 8, 100, 255); 
     270:	2f ef       	ldi	r18, 0xFF	; 255
     272:	44 e6       	ldi	r20, 0x64	; 100
     274:	68 e0       	ldi	r22, 0x08	; 8
     276:	80 e8       	ldi	r24, 0x80	; 128
     278:	0e 94 46 09 	call	0x128c	; 0x128c <floatAround>
     27c:	80 93 00 38 	sts	0x3800, r24	; 0x803800 <__data_start>
            }

            //The badge with the lowest voltage will now go to 2.5V (impedance check, for people tricking the things with a power supply)
            if (chkTmr >= LONG_WAIT){
     280:	80 91 39 38 	lds	r24, 0x3839	; 0x803839 <chkTmr.3792>
     284:	8a 3f       	cpi	r24, 0xFA	; 250
     286:	08 f4       	brcc	.+2      	; 0x28a <MakeFriends+0x190>
     288:	3f c0       	rjmp	.+126    	; 0x308 <MakeFriends+0x20e>
                candidate = jackIn-whoami;
     28a:	80 91 43 38 	lds	r24, 0x3843	; 0x803843 <whoami>
     28e:	90 91 37 38 	lds	r25, 0x3837	; 0x803837 <jackIn.3793>
     292:	98 1b       	sub	r25, r24
     294:	90 93 36 38 	sts	0x3836, r25	; 0x803836 <__data_end>
                if (candidate > whoami) {
     298:	89 17       	cp	r24, r25
     29a:	10 f4       	brcc	.+4      	; 0x2a0 <MakeFriends+0x1a6>
                    setDAC[0] = 249;
     29c:	89 ef       	ldi	r24, 0xF9	; 249
     29e:	04 c0       	rjmp	.+8      	; 0x2a8 <MakeFriends+0x1ae>
                } else {
                    setDAC[0] = whoami * 51;
     2a0:	93 e3       	ldi	r25, 0x33	; 51
     2a2:	89 9f       	mul	r24, r25
     2a4:	80 2d       	mov	r24, r0
     2a6:	11 24       	eor	r1, r1
     2a8:	80 93 00 38 	sts	0x3800, r24	; 0x803800 <__data_start>
                }
                progress |= NEXT;
     2ac:	80 91 38 38 	lds	r24, 0x3838	; 0x803838 <progress.3790>
     2b0:	80 6f       	ori	r24, 0xF0	; 240
     2b2:	80 93 38 38 	sts	0x3838, r24	; 0x803838 <progress.3790>
     2b6:	28 c0       	rjmp	.+80     	; 0x308 <MakeFriends+0x20e>
            }
        } 
        
        //Wait a bit, check Voltage again, if ok show who you connected with and your own number, save, exit
        else if (progress == THIRD_KISS) {
            if (chkTmr >= SHORT_WAIT) {
     2b8:	80 91 39 38 	lds	r24, 0x3839	; 0x803839 <chkTmr.3792>
     2bc:	88 30       	cpi	r24, 0x08	; 8
                jackIn = chkVolt250();
     2be:	20 f1       	brcs	.+72     	; 0x308 <MakeFriends+0x20e>
     2c0:	04 df       	rcall	.-504    	; 0xca <chkVolt250>
     2c2:	80 93 37 38 	sts	0x3837, r24	; 0x803837 <jackIn.3793>
                if (jackIn == (((candidate > whoami)?candidate:whoami) + 5)) {
     2c6:	90 91 36 38 	lds	r25, 0x3836	; 0x803836 <__data_end>
     2ca:	48 2f       	mov	r20, r24
     2cc:	50 e0       	ldi	r21, 0x00	; 0
     2ce:	20 91 43 38 	lds	r18, 0x3843	; 0x803843 <whoami>
     2d2:	29 17       	cp	r18, r25
     2d4:	08 f4       	brcc	.+2      	; 0x2d8 <MakeFriends+0x1de>
     2d6:	29 2f       	mov	r18, r25
     2d8:	30 e0       	ldi	r19, 0x00	; 0
     2da:	2b 5f       	subi	r18, 0xFB	; 251
     2dc:	3f 4f       	sbci	r19, 0xFF	; 255
     2de:	42 17       	cp	r20, r18
     2e0:	53 07       	cpc	r21, r19
     2e2:	09 f0       	breq	.+2      	; 0x2e6 <MakeFriends+0x1ec>
     2e4:	b8 cf       	rjmp	.-144    	; 0x256 <MakeFriends+0x15c>
                    UpdateState(99+candidate);
     2e6:	83 e6       	ldi	r24, 0x63	; 99
     2e8:	89 0f       	add	r24, r25
     2ea:	0e 94 ff 09 	call	0x13fe	; 0x13fe <UpdateState>
                 
                    effect = 31;
     2ee:	8f e1       	ldi	r24, 0x1F	; 31
     2f0:	90 e0       	ldi	r25, 0x00	; 0
     2f2:	80 93 40 38 	sts	0x3840, r24	; 0x803840 <effect>
     2f6:	90 93 41 38 	sts	0x3841, r25	; 0x803841 <effect+0x1>
                    WingBar(candidate, whoami);
     2fa:	60 91 43 38 	lds	r22, 0x3843	; 0x803843 <whoami>
     2fe:	80 91 36 38 	lds	r24, 0x3836	; 0x803836 <__data_end>
     302:	0e 94 f0 0a 	call	0x15e0	; 0x15e0 <WingBar>
     306:	d2 cf       	rjmp	.-92     	; 0x2ac <MakeFriends+0x1b2>
    } else {
        progress = NO_OTHER;
    }
      
    return 0;
}
     308:	80 e0       	ldi	r24, 0x00	; 0
     30a:	df 91       	pop	r29
     30c:	cf 91       	pop	r28
     30e:	08 95       	ret

00000310 <I2C_init>:
// the Atmel device documentation mentions a special command for repeated start TWI_MCMD_REPSTART_gc,
// but this is not used in Atmel's demo code, so we don't use it either

void I2C_rep_start(uint8_t shifted_addr)						    // send repeated start, device_addr + LSB set if READ
{
	TWI0.MADDR = shifted_addr;	
     310:	81 e0       	ldi	r24, 0x01	; 1
     312:	80 93 22 04 	sts	0x0422, r24	; 0x800422 <__TEXT_REGION_LENGTH__+0x700422>
     316:	e6 e2       	ldi	r30, 0x26	; 38
     318:	f4 e0       	ldi	r31, 0x04	; 4
     31a:	80 83       	st	Z, r24
     31c:	10 92 30 04 	sts	0x0430, r1	; 0x800430 <__TEXT_REGION_LENGTH__+0x700430>
     320:	a1 e2       	ldi	r26, 0x21	; 33
     322:	b4 e0       	ldi	r27, 0x04	; 4
     324:	92 e0       	ldi	r25, 0x02	; 2
     326:	9c 93       	st	X, r25
     328:	90 83       	st	Z, r25
     32a:	10 92 31 04 	sts	0x0431, r1	; 0x800431 <__TEXT_REGION_LENGTH__+0x700431>
     32e:	e0 e1       	ldi	r30, 0x10	; 16
     330:	f8 e0       	ldi	r31, 0x08	; 8
     332:	97 e0       	ldi	r25, 0x07	; 7
     334:	96 83       	std	Z+6, r25	; 0x06
     336:	98 e0       	ldi	r25, 0x08	; 8
     338:	94 83       	std	Z+4, r25	; 0x04
     33a:	83 83       	std	Z+3, r24	; 0x03
     33c:	8c 93       	st	X, r24
     33e:	85 81       	ldd	r24, Z+5	; 0x05
     340:	81 60       	ori	r24, 0x01	; 1
     342:	85 83       	std	Z+5, r24	; 0x05
     344:	85 81       	ldd	r24, Z+5	; 0x05
     346:	84 6c       	ori	r24, 0xC4	; 196
     348:	85 83       	std	Z+5, r24	; 0x05
     34a:	08 95       	ret

0000034c <I2C_recover>:
     34c:	80 91 14 08 	lds	r24, 0x0814	; 0x800814 <__TEXT_REGION_LENGTH__+0x700814>
     350:	88 60       	ori	r24, 0x08	; 8
     352:	80 93 14 08 	sts	0x0814, r24	; 0x800814 <__TEXT_REGION_LENGTH__+0x700814>
     356:	10 92 13 08 	sts	0x0813, r1	; 0x800813 <__TEXT_REGION_LENGTH__+0x700813>
     35a:	82 e0       	ldi	r24, 0x02	; 2
     35c:	80 93 22 04 	sts	0x0422, r24	; 0x800422 <__TEXT_REGION_LENGTH__+0x700422>
     360:	99 e0       	ldi	r25, 0x09	; 9
     362:	21 e0       	ldi	r18, 0x01	; 1
     364:	81 e0       	ldi	r24, 0x01	; 1
     366:	20 93 21 04 	sts	0x0421, r18	; 0x800421 <__TEXT_REGION_LENGTH__+0x700421>
     36a:	30 e1       	ldi	r19, 0x10	; 16
     36c:	3a 95       	dec	r19
     36e:	f1 f7       	brne	.-4      	; 0x36c <I2C_recover+0x20>
     370:	00 c0       	rjmp	.+0      	; 0x372 <I2C_recover+0x26>
     372:	20 93 22 04 	sts	0x0422, r18	; 0x800422 <__TEXT_REGION_LENGTH__+0x700422>
     376:	30 e1       	ldi	r19, 0x10	; 16
     378:	3a 95       	dec	r19
     37a:	f1 f7       	brne	.-4      	; 0x378 <I2C_recover+0x2c>
     37c:	00 c0       	rjmp	.+0      	; 0x37e <I2C_recover+0x32>
     37e:	91 50       	subi	r25, 0x01	; 1
     380:	89 f7       	brne	.-30     	; 0x364 <I2C_recover+0x18>
     382:	28 e0       	ldi	r18, 0x08	; 8
     384:	20 93 14 08 	sts	0x0814, r18	; 0x800814 <__TEXT_REGION_LENGTH__+0x700814>
     388:	80 93 13 08 	sts	0x0813, r24	; 0x800813 <__TEXT_REGION_LENGTH__+0x700813>
     38c:	92 e0       	ldi	r25, 0x02	; 2
     38e:	90 93 21 04 	sts	0x0421, r25	; 0x800421 <__TEXT_REGION_LENGTH__+0x700421>
     392:	90 91 15 08 	lds	r25, 0x0815	; 0x800815 <__TEXT_REGION_LENGTH__+0x700815>
     396:	91 60       	ori	r25, 0x01	; 1
     398:	90 93 15 08 	sts	0x0815, r25	; 0x800815 <__TEXT_REGION_LENGTH__+0x700815>
     39c:	90 91 15 08 	lds	r25, 0x0815	; 0x800815 <__TEXT_REGION_LENGTH__+0x700815>
     3a0:	94 6c       	ori	r25, 0xC4	; 196
     3a2:	90 93 15 08 	sts	0x0815, r25	; 0x800815 <__TEXT_REGION_LENGTH__+0x700815>
     3a6:	20 93 14 08 	sts	0x0814, r18	; 0x800814 <__TEXT_REGION_LENGTH__+0x700814>
     3aa:	80 93 13 08 	sts	0x0813, r24	; 0x800813 <__TEXT_REGION_LENGTH__+0x700813>
     3ae:	80 93 21 04 	sts	0x0421, r24	; 0x800421 <__TEXT_REGION_LENGTH__+0x700421>
     3b2:	80 91 15 08 	lds	r24, 0x0815	; 0x800815 <__TEXT_REGION_LENGTH__+0x700815>
     3b6:	81 60       	ori	r24, 0x01	; 1
     3b8:	80 93 15 08 	sts	0x0815, r24	; 0x800815 <__TEXT_REGION_LENGTH__+0x700815>
     3bc:	80 91 15 08 	lds	r24, 0x0815	; 0x800815 <__TEXT_REGION_LENGTH__+0x700815>
     3c0:	84 6c       	ori	r24, 0xC4	; 196
     3c2:	80 93 15 08 	sts	0x0815, r24	; 0x800815 <__TEXT_REGION_LENGTH__+0x700815>
     3c6:	08 95       	ret

000003c8 <I2C_start>:
     3c8:	28 2f       	mov	r18, r24
     3ca:	90 91 15 08 	lds	r25, 0x0815	; 0x800815 <__TEXT_REGION_LENGTH__+0x700815>
     3ce:	90 6c       	ori	r25, 0xC0	; 192
     3d0:	90 93 15 08 	sts	0x0815, r25	; 0x800815 <__TEXT_REGION_LENGTH__+0x700815>
     3d4:	90 91 15 08 	lds	r25, 0x0815	; 0x800815 <__TEXT_REGION_LENGTH__+0x700815>
     3d8:	89 2f       	mov	r24, r25
     3da:	84 70       	andi	r24, 0x04	; 4
     3dc:	92 fd       	sbrc	r25, 2
     3de:	03 c0       	rjmp	.+6      	; 0x3e6 <I2C_start+0x1e>
     3e0:	20 93 17 08 	sts	0x0817, r18	; 0x800817 <__TEXT_REGION_LENGTH__+0x700817>
     3e4:	08 95       	ret
     3e6:	84 e0       	ldi	r24, 0x04	; 4
     3e8:	08 95       	ret

000003ea <I2C_wait_ACK>:
     3ea:	8c e0       	ldi	r24, 0x0C	; 12
     3ec:	80 93 69 3a 	sts	0x3A69, r24	; 0x803a69 <timeout_I2C>
     3f0:	80 91 15 08 	lds	r24, 0x0815	; 0x800815 <__TEXT_REGION_LENGTH__+0x700815>
     3f4:	87 fd       	sbrc	r24, 7
     3f6:	0a c0       	rjmp	.+20     	; 0x40c <__LOCK_REGION_LENGTH__+0xc>
     3f8:	80 91 15 08 	lds	r24, 0x0815	; 0x800815 <__TEXT_REGION_LENGTH__+0x700815>
     3fc:	86 fd       	sbrc	r24, 6
     3fe:	06 c0       	rjmp	.+12     	; 0x40c <__LOCK_REGION_LENGTH__+0xc>
     400:	80 91 69 3a 	lds	r24, 0x3A69	; 0x803a69 <timeout_I2C>
     404:	81 11       	cpse	r24, r1
     406:	f4 cf       	rjmp	.-24     	; 0x3f0 <I2C_wait_ACK+0x6>
     408:	8f ef       	ldi	r24, 0xFF	; 255
     40a:	08 95       	ret
     40c:	80 91 15 08 	lds	r24, 0x0815	; 0x800815 <__TEXT_REGION_LENGTH__+0x700815>
     410:	80 6c       	ori	r24, 0xC0	; 192
     412:	80 93 15 08 	sts	0x0815, r24	; 0x800815 <__TEXT_REGION_LENGTH__+0x700815>
     416:	80 91 15 08 	lds	r24, 0x0815	; 0x800815 <__TEXT_REGION_LENGTH__+0x700815>
     41a:	82 fd       	sbrc	r24, 2
     41c:	09 c0       	rjmp	.+18     	; 0x430 <__LOCK_REGION_LENGTH__+0x30>
     41e:	80 91 15 08 	lds	r24, 0x0815	; 0x800815 <__TEXT_REGION_LENGTH__+0x700815>
     422:	83 fd       	sbrc	r24, 3
     424:	07 c0       	rjmp	.+14     	; 0x434 <__LOCK_REGION_LENGTH__+0x34>
     426:	80 91 15 08 	lds	r24, 0x0815	; 0x800815 <__TEXT_REGION_LENGTH__+0x700815>
     42a:	82 95       	swap	r24
     42c:	81 70       	andi	r24, 0x01	; 1
     42e:	08 95       	ret
     430:	84 e0       	ldi	r24, 0x04	; 4
     432:	08 95       	ret
     434:	82 e0       	ldi	r24, 0x02	; 2
     436:	08 95       	ret

00000438 <I2C_read>:
}

uint8_t	I2C_read(uint8_t *data, uint8_t ack_flag)					// read data, ack_flag 0: send ACK, 1: send NACK, returns status
{
     438:	fc 01       	movw	r30, r24
	timeout_I2C = READ_TIMEOUT;										// reset timeout counter, will be decremented by LED matrix interrupt
     43a:	8c e0       	ldi	r24, 0x0C	; 12
     43c:	80 93 69 3a 	sts	0x3A69, r24	; 0x803a69 <timeout_I2C>
	if ((TWI0.MSTATUS & TWI_BUSSTATE_gm) == TWI_BUSSTATE_OWNER_gc)	// if master controls bus
     440:	90 91 15 08 	lds	r25, 0x0815	; 0x800815 <__TEXT_REGION_LENGTH__+0x700815>
     444:	89 2f       	mov	r24, r25
     446:	83 70       	andi	r24, 0x03	; 3
     448:	82 30       	cpi	r24, 0x02	; 2
     44a:	11 f0       	breq	.+4      	; 0x450 <I2C_read+0x18>
		else		TWI0.MCTRLB |= TWI_ACKACT_NACK_gc;				// setup NACK (last byte read)
		*data = TWI0.MDATA;
		if (ack_flag == 0) TWI0.MCTRLB |= TWI_MCMD_RECVTRANS_gc;	// send ACK, more bytes to follow					
		return 0;
	}
	else return 8;													// master does not control bus
     44c:	88 e0       	ldi	r24, 0x08	; 8
     44e:	08 95       	ret
uint8_t	I2C_read(uint8_t *data, uint8_t ack_flag)					// read data, ack_flag 0: send ACK, 1: send NACK, returns status
{
	timeout_I2C = READ_TIMEOUT;										// reset timeout counter, will be decremented by LED matrix interrupt
	if ((TWI0.MSTATUS & TWI_BUSSTATE_gm) == TWI_BUSSTATE_OWNER_gc)	// if master controls bus
	{		
		while (!(TWI0.MSTATUS & TWI_RIF_bm))						// wait for RIF set (data byte received)
     450:	90 91 15 08 	lds	r25, 0x0815	; 0x800815 <__TEXT_REGION_LENGTH__+0x700815>
     454:	97 fd       	sbrc	r25, 7
     456:	06 c0       	rjmp	.+12     	; 0x464 <I2C_read+0x2c>
		{
			if (!(timeout_I2C)) return 0xff;			            // return timeout error
     458:	90 91 69 3a 	lds	r25, 0x3A69	; 0x803a69 <timeout_I2C>
     45c:	91 11       	cpse	r25, r1
     45e:	f8 cf       	rjmp	.-16     	; 0x450 <I2C_read+0x18>
     460:	8f ef       	ldi	r24, 0xFF	; 255
     462:	08 95       	ret
		}
		TWI0.MSTATUS |= (TWI_RIF_bm | TWI_WIF_bm);					// clear Read and Write interrupt flags	
     464:	90 91 15 08 	lds	r25, 0x0815	; 0x800815 <__TEXT_REGION_LENGTH__+0x700815>
     468:	90 6c       	ori	r25, 0xC0	; 192
     46a:	90 93 15 08 	sts	0x0815, r25	; 0x800815 <__TEXT_REGION_LENGTH__+0x700815>
		if (TWI0.MSTATUS & TWI_BUSERR_bm) return 4;					// Bus Error, abort
     46e:	90 91 15 08 	lds	r25, 0x0815	; 0x800815 <__TEXT_REGION_LENGTH__+0x700815>
     472:	92 fd       	sbrc	r25, 2
     474:	1e c0       	rjmp	.+60     	; 0x4b2 <I2C_read+0x7a>
		if (TWI0.MSTATUS & TWI_ARBLOST_bm) return 2;				// Arbitration Lost, abort
     476:	90 91 15 08 	lds	r25, 0x0815	; 0x800815 <__TEXT_REGION_LENGTH__+0x700815>
     47a:	93 fd       	sbrc	r25, 3
     47c:	1d c0       	rjmp	.+58     	; 0x4b8 <I2C_read+0x80>
		if (TWI0.MSTATUS & TWI_RXACK_bm) return 1;					// Slave replied with NACK, abort				
     47e:	90 91 15 08 	lds	r25, 0x0815	; 0x800815 <__TEXT_REGION_LENGTH__+0x700815>
     482:	89 2f       	mov	r24, r25
     484:	80 71       	andi	r24, 0x10	; 16
     486:	94 fd       	sbrc	r25, 4
     488:	16 c0       	rjmp	.+44     	; 0x4b6 <I2C_read+0x7e>
		if (ack_flag == 0) TWI0.MCTRLB &= ~(1 << TWI_ACKACT_bp);	// setup ACK
     48a:	90 91 14 08 	lds	r25, 0x0814	; 0x800814 <__TEXT_REGION_LENGTH__+0x700814>
     48e:	61 11       	cpse	r22, r1
     490:	02 c0       	rjmp	.+4      	; 0x496 <I2C_read+0x5e>
     492:	9b 7f       	andi	r25, 0xFB	; 251
     494:	01 c0       	rjmp	.+2      	; 0x498 <I2C_read+0x60>
		else		TWI0.MCTRLB |= TWI_ACKACT_NACK_gc;				// setup NACK (last byte read)
     496:	94 60       	ori	r25, 0x04	; 4
     498:	90 93 14 08 	sts	0x0814, r25	; 0x800814 <__TEXT_REGION_LENGTH__+0x700814>
		*data = TWI0.MDATA;
     49c:	90 91 18 08 	lds	r25, 0x0818	; 0x800818 <__TEXT_REGION_LENGTH__+0x700818>
     4a0:	90 83       	st	Z, r25
		if (ack_flag == 0) TWI0.MCTRLB |= TWI_MCMD_RECVTRANS_gc;	// send ACK, more bytes to follow					
     4a2:	61 11       	cpse	r22, r1
     4a4:	09 c0       	rjmp	.+18     	; 0x4b8 <I2C_read+0x80>
     4a6:	90 91 14 08 	lds	r25, 0x0814	; 0x800814 <__TEXT_REGION_LENGTH__+0x700814>
     4aa:	92 60       	ori	r25, 0x02	; 2
     4ac:	90 93 14 08 	sts	0x0814, r25	; 0x800814 <__TEXT_REGION_LENGTH__+0x700814>
     4b0:	08 95       	ret
		while (!(TWI0.MSTATUS & TWI_RIF_bm))						// wait for RIF set (data byte received)
		{
			if (!(timeout_I2C)) return 0xff;			            // return timeout error
		}
		TWI0.MSTATUS |= (TWI_RIF_bm | TWI_WIF_bm);					// clear Read and Write interrupt flags	
		if (TWI0.MSTATUS & TWI_BUSERR_bm) return 4;					// Bus Error, abort
     4b2:	84 e0       	ldi	r24, 0x04	; 4
     4b4:	08 95       	ret
		if (TWI0.MSTATUS & TWI_ARBLOST_bm) return 2;				// Arbitration Lost, abort
		if (TWI0.MSTATUS & TWI_RXACK_bm) return 1;					// Slave replied with NACK, abort				
     4b6:	81 e0       	ldi	r24, 0x01	; 1
		*data = TWI0.MDATA;
		if (ack_flag == 0) TWI0.MCTRLB |= TWI_MCMD_RECVTRANS_gc;	// send ACK, more bytes to follow					
		return 0;
	}
	else return 8;													// master does not control bus
}
     4b8:	08 95       	ret

000004ba <I2C_write>:

uint8_t I2C_write(uint8_t *data)									// write data, return status
{
     4ba:	fc 01       	movw	r30, r24
	timeout_I2C = WRITE_TIMEOUT;									// reset timeout counter, will be decremented by LED matrix interrupt
     4bc:	8c e0       	ldi	r24, 0x0C	; 12
     4be:	80 93 69 3a 	sts	0x3A69, r24	; 0x803a69 <timeout_I2C>
	if ((TWI0.MSTATUS & TWI_BUSSTATE_gm) == TWI_BUSSTATE_OWNER_gc)	// if master controls bus
     4c2:	90 91 15 08 	lds	r25, 0x0815	; 0x800815 <__TEXT_REGION_LENGTH__+0x700815>
     4c6:	93 70       	andi	r25, 0x03	; 3
     4c8:	92 30       	cpi	r25, 0x02	; 2
     4ca:	b1 f4       	brne	.+44     	; 0x4f8 <I2C_write+0x3e>
	{
		TWI0.MDATA = *data;		
     4cc:	80 81       	ld	r24, Z
     4ce:	80 93 18 08 	sts	0x0818, r24	; 0x800818 <__TEXT_REGION_LENGTH__+0x700818>
		while (!(TWI0.MSTATUS & TWI_WIF_bm))						// wait until WIF set, status register contains ACK/NACK bit
     4d2:	80 91 15 08 	lds	r24, 0x0815	; 0x800815 <__TEXT_REGION_LENGTH__+0x700815>
     4d6:	86 fd       	sbrc	r24, 6
     4d8:	06 c0       	rjmp	.+12     	; 0x4e6 <I2C_write+0x2c>
		{
			if (!(timeout_I2C)) return 0xff;			            // return timeout error
     4da:	80 91 69 3a 	lds	r24, 0x3A69	; 0x803a69 <timeout_I2C>
     4de:	81 11       	cpse	r24, r1
     4e0:	f8 cf       	rjmp	.-16     	; 0x4d2 <I2C_write+0x18>
     4e2:	8f ef       	ldi	r24, 0xFF	; 255
     4e4:	08 95       	ret
		}
		if (TWI0.MSTATUS & TWI_BUSERR_bm) return 4;					// Bus Error, abort
     4e6:	80 91 15 08 	lds	r24, 0x0815	; 0x800815 <__TEXT_REGION_LENGTH__+0x700815>
     4ea:	82 fd       	sbrc	r24, 2
     4ec:	07 c0       	rjmp	.+14     	; 0x4fc <I2C_write+0x42>
		if (TWI0.MSTATUS & TWI_RXACK_bm) return 1;					// Slave replied with NACK, abort
     4ee:	80 91 15 08 	lds	r24, 0x0815	; 0x800815 <__TEXT_REGION_LENGTH__+0x700815>
	if ((TWI0.MSTATUS & TWI_BUSSTATE_gm) == TWI_BUSSTATE_OWNER_gc)	// if master controls bus
	{
		TWI0.MDATA = *data;		
		while (!(TWI0.MSTATUS & TWI_WIF_bm))						// wait until WIF set, status register contains ACK/NACK bit
		{
			if (!(timeout_I2C)) return 0xff;			            // return timeout error
     4f2:	82 95       	swap	r24
     4f4:	81 70       	andi	r24, 0x01	; 1
     4f6:	08 95       	ret
		}
		if (TWI0.MSTATUS & TWI_BUSERR_bm) return 4;					// Bus Error, abort
		if (TWI0.MSTATUS & TWI_RXACK_bm) return 1;					// Slave replied with NACK, abort
		return 0;													// no error	
	}
	else return 8;													// master does not control bus
     4f8:	88 e0       	ldi	r24, 0x08	; 8
     4fa:	08 95       	ret
		TWI0.MDATA = *data;		
		while (!(TWI0.MSTATUS & TWI_WIF_bm))						// wait until WIF set, status register contains ACK/NACK bit
		{
			if (!(timeout_I2C)) return 0xff;			            // return timeout error
		}
		if (TWI0.MSTATUS & TWI_BUSERR_bm) return 4;					// Bus Error, abort
     4fc:	84 e0       	ldi	r24, 0x04	; 4
		if (TWI0.MSTATUS & TWI_RXACK_bm) return 1;					// Slave replied with NACK, abort
		return 0;													// no error	
	}
	else return 8;													// master does not control bus
}
     4fe:	08 95       	ret

00000500 <I2C_stop>:

void I2C_stop()
{
	TWI0.MCTRLB |= TWI_MCMD_STOP_gc;
     500:	e0 e1       	ldi	r30, 0x10	; 16
     502:	f8 e0       	ldi	r31, 0x08	; 8
     504:	84 81       	ldd	r24, Z+4	; 0x04
     506:	83 60       	ori	r24, 0x03	; 3
     508:	84 83       	std	Z+4, r24	; 0x04
     50a:	08 95       	ret

0000050c <I2C_read_bytes>:
// addr_ptr		address of first array element to transfer
// slave reg	starting slave register
// num_bytes	number of bytes to transfer

uint8_t	I2C_read_bytes(uint8_t slave_addr, uint8_t *reg_ptr, uint8_t reg_len, uint8_t *dat_ptr, uint8_t dat_len)
{
     50c:	cf 92       	push	r12
     50e:	df 92       	push	r13
     510:	ff 92       	push	r15
     512:	0f 93       	push	r16
     514:	1f 93       	push	r17
     516:	cf 93       	push	r28
     518:	df 93       	push	r29
     51a:	6b 01       	movw	r12, r22
     51c:	f4 2e       	mov	r15, r20
     51e:	e9 01       	movw	r28, r18
	uint8_t status;
	if (dat_len > MAX_LEN) dat_len = MAX_LEN;
	status = I2C_start(slave_addr << 1);							// slave write address, LSB 0
     520:	18 2f       	mov	r17, r24
     522:	11 0f       	add	r17, r17
     524:	81 2f       	mov	r24, r17
     526:	50 df       	rcall	.-352    	; 0x3c8 <I2C_start>
	if (status != 0) goto error;
     528:	81 11       	cpse	r24, r1
	status = I2C_wait_ACK();										// wait for slave ACK
     52a:	2b c0       	rjmp	.+86     	; 0x582 <I2C_read_bytes+0x76>
     52c:	5e df       	rcall	.-324    	; 0x3ea <I2C_wait_ACK>
	if (status == 1) {
     52e:	81 30       	cpi	r24, 0x01	; 1
		I2C_stop();													// NACK, abort
     530:	19 f4       	brne	.+6      	; 0x538 <I2C_read_bytes+0x2c>
     532:	e6 df       	rcall	.-52     	; 0x500 <I2C_stop>
		return 1;
     534:	81 e0       	ldi	r24, 0x01	; 1
     536:	27 c0       	rjmp	.+78     	; 0x586 <I2C_read_bytes+0x7a>
	}
	if (status != 0) goto error;
     538:	81 11       	cpse	r24, r1
     53a:	23 c0       	rjmp	.+70     	; 0x582 <I2C_read_bytes+0x76>
    while(reg_len > 0){
     53c:	ff 20       	and	r15, r15
	    status = I2C_write(reg_ptr);    							// send slave start register
     53e:	49 f0       	breq	.+18     	; 0x552 <I2C_read_bytes+0x46>
     540:	c6 01       	movw	r24, r12
     542:	bb df       	rcall	.-138    	; 0x4ba <I2C_write>
	    if (status != 0) goto error;
     544:	81 11       	cpse	r24, r1
     546:	1d c0       	rjmp	.+58     	; 0x582 <I2C_read_bytes+0x76>
        ++reg_ptr;
     548:	8f ef       	ldi	r24, 0xFF	; 255
     54a:	c8 1a       	sub	r12, r24
     54c:	d8 0a       	sbc	r13, r24
        --reg_len;
     54e:	fa 94       	dec	r15
     550:	f5 cf       	rjmp	.-22     	; 0x53c <I2C_read_bytes+0x30>
     552:	01 34       	cpi	r16, 0x41	; 65
     554:	08 f0       	brcs	.+2      	; 0x558 <I2C_read_bytes+0x4c>
     556:	00 e4       	ldi	r16, 0x40	; 64
    }
	I2C_rep_start((slave_addr << 1) + 1);							// slave read address, LSB 1
     558:	1f 5f       	subi	r17, 0xFF	; 255
// the Atmel device documentation mentions a special command for repeated start TWI_MCMD_REPSTART_gc,
// but this is not used in Atmel's demo code, so we don't use it either

void I2C_rep_start(uint8_t shifted_addr)						    // send repeated start, device_addr + LSB set if READ
{
	TWI0.MADDR = shifted_addr;	
     55a:	10 93 17 08 	sts	0x0817, r17	; 0x800817 <__TEXT_REGION_LENGTH__+0x700817>
	    if (status != 0) goto error;
        ++reg_ptr;
        --reg_len;
    }
	I2C_rep_start((slave_addr << 1) + 1);							// slave read address, LSB 1
	while (dat_len > 1) {
     55e:	02 30       	cpi	r16, 0x02	; 2
		status = I2C_read(dat_ptr, 0);								// first bytes, send ACK
     560:	40 f0       	brcs	.+16     	; 0x572 <I2C_read_bytes+0x66>
     562:	60 e0       	ldi	r22, 0x00	; 0
     564:	ce 01       	movw	r24, r28
     566:	68 df       	rcall	.-304    	; 0x438 <I2C_read>
		if (status != 0) goto error;
     568:	81 11       	cpse	r24, r1
     56a:	0b c0       	rjmp	.+22     	; 0x582 <I2C_read_bytes+0x76>
		++dat_ptr;
		--dat_len;
     56c:	21 96       	adiw	r28, 0x01	; 1
     56e:	01 50       	subi	r16, 0x01	; 1
	}
	status = I2C_read(dat_ptr, 1);									// single or last byte, send NACK
     570:	f6 cf       	rjmp	.-20     	; 0x55e <I2C_read_bytes+0x52>
     572:	61 e0       	ldi	r22, 0x01	; 1
     574:	ce 01       	movw	r24, r28
	if (status != 0) goto error;
     576:	60 df       	rcall	.-320    	; 0x438 <I2C_read>
     578:	81 11       	cpse	r24, r1
	I2C_stop();
     57a:	03 c0       	rjmp	.+6      	; 0x582 <I2C_read_bytes+0x76>
     57c:	c1 df       	rcall	.-126    	; 0x500 <I2C_stop>
	return 0;
     57e:	80 e0       	ldi	r24, 0x00	; 0
     580:	02 c0       	rjmp	.+4      	; 0x586 <I2C_read_bytes+0x7a>
	
error:
	I2C_recover();													// clock out possibly stuck slave, reset master
     582:	e4 de       	rcall	.-568    	; 0x34c <I2C_recover>
     584:	8f ef       	ldi	r24, 0xFF	; 255
	return 0xff;													// flag error
     586:	df 91       	pop	r29
}
     588:	cf 91       	pop	r28
     58a:	1f 91       	pop	r17
     58c:	0f 91       	pop	r16
     58e:	ff 90       	pop	r15
     590:	df 90       	pop	r13
     592:	cf 90       	pop	r12
     594:	08 95       	ret

00000596 <initLanyard>:
uint8_t         lanyardCnt = 0;
uint8_t         lanyardState = TRUE;
uint16_t        lanyardLastActive = 0;

void initLanyard() {
    lanyardPos      = 0;
     596:	10 92 3d 38 	sts	0x383D, r1	; 0x80383d <lanyardPos>
    lanyardCnt      = 0;
     59a:	10 92 3c 38 	sts	0x383C, r1	; 0x80383c <lanyardCnt>
    lanyardState    = TRUE;
     59e:	81 e0       	ldi	r24, 0x01	; 1
     5a0:	80 93 02 38 	sts	0x3802, r24	; 0x803802 <lanyardState>
    ClearHackerLeds();
     5a4:	0c 94 2e 0b 	jmp	0x165c	; 0x165c <ClearHackerLeds>
     5a8:	08 95       	ret

000005aa <LanyardCode>:
}

// Main game loop
uint8_t LanyardCode(){
     5aa:	cf 93       	push	r28
    if (gameNow == LANYARD && idleTimeout(lanyardLastActive,LANYARD_MAX_IDLE)) {
     5ac:	80 91 42 38 	lds	r24, 0x3842	; 0x803842 <gameNow>
     5b0:	83 30       	cpi	r24, 0x03	; 3
     5b2:	81 f4       	brne	.+32     	; 0x5d4 <LanyardCode+0x2a>
     5b4:	6a e0       	ldi	r22, 0x0A	; 10
     5b6:	70 e0       	ldi	r23, 0x00	; 0
     5b8:	80 91 3a 38 	lds	r24, 0x383A	; 0x80383a <lanyardLastActive>
     5bc:	90 91 3b 38 	lds	r25, 0x383B	; 0x80383b <lanyardLastActive+0x1>
     5c0:	0e 94 6f 0e 	call	0x1cde	; 0x1cde <idleTimeout>
     5c4:	88 23       	and	r24, r24
     5c6:	31 f0       	breq	.+12     	; 0x5d4 <LanyardCode+0x2a>
        /* clean up maze game and go back to text game */
        initLanyard();
     5c8:	e6 df       	rcall	.-52     	; 0x596 <initLanyard>
        gameNow = TEXT;
     5ca:	10 92 42 38 	sts	0x3842, r1	; 0x803842 <gameNow>
        ClearHackerLeds();
     5ce:	0e 94 2e 0b 	call	0x165c	; 0x165c <ClearHackerLeds>
        return 0;
     5d2:	a3 c0       	rjmp	.+326    	; 0x71a <LanyardCode+0x170>
    }

    if (CheckState(LANYARD_COMPLETED))
     5d4:	8b e7       	ldi	r24, 0x7B	; 123
     5d6:	34 d7       	rcall	.+3688   	; 0x1440 <CheckState>
     5d8:	81 11       	cpse	r24, r1
     5da:	9f c0       	rjmp	.+318    	; 0x71a <LanyardCode+0x170>
        return 0;

    if ( gameNow != TEXT && gameNow != LANYARD )
     5dc:	80 91 42 38 	lds	r24, 0x3842	; 0x803842 <gameNow>
     5e0:	88 23       	and	r24, r24
     5e2:	19 f0       	breq	.+6      	; 0x5ea <LanyardCode+0x40>
     5e4:	83 30       	cpi	r24, 0x03	; 3
     5e6:	09 f0       	breq	.+2      	; 0x5ea <LanyardCode+0x40>
     5e8:	98 c0       	rjmp	.+304    	; 0x71a <LanyardCode+0x170>
        return 0;

    /* activate led for buttonstate */
    iLED[CAT] = (buttonState==0xff ? 0 : dimValue);
     5ea:	c0 91 12 bf 	lds	r28, 0xBF12	; 0x80bf12 <__bss_end+0x83f7>
     5ee:	ec 2f       	mov	r30, r28
     5f0:	f0 e0       	ldi	r31, 0x00	; 0
     5f2:	80 91 08 38 	lds	r24, 0x3808	; 0x803808 <buttonState>
     5f6:	8f 3f       	cpi	r24, 0xFF	; 255
     5f8:	19 f0       	breq	.+6      	; 0x600 <LanyardCode+0x56>
     5fa:	90 91 0c 38 	lds	r25, 0x380C	; 0x80380c <dimValue>
     5fe:	01 c0       	rjmp	.+2      	; 0x602 <LanyardCode+0x58>
     600:	90 e0       	ldi	r25, 0x00	; 0
     602:	e4 53       	subi	r30, 0x34	; 52
     604:	f5 4c       	sbci	r31, 0xC5	; 197
     606:	90 83       	st	Z, r25

    if (buttonState == 0xff)
     608:	8f 3f       	cpi	r24, 0xFF	; 255
     60a:	09 f4       	brne	.+2      	; 0x60e <LanyardCode+0x64>
     60c:	86 c0       	rjmp	.+268    	; 0x71a <LanyardCode+0x170>
        return 0;

    if (buttonState == lastButtonState)
     60e:	90 91 07 38 	lds	r25, 0x3807	; 0x803807 <lastButtonState>
     612:	89 17       	cp	r24, r25
     614:	09 f4       	brne	.+2      	; 0x618 <LanyardCode+0x6e>
     616:	81 c0       	rjmp	.+258    	; 0x71a <LanyardCode+0x170>
        return 0;

    lanyardLastActive = getClock();
     618:	0e 94 60 0e 	call	0x1cc0	; 0x1cc0 <getClock>
     61c:	80 93 3a 38 	sts	0x383A, r24	; 0x80383a <lanyardLastActive>
     620:	90 93 3b 38 	sts	0x383B, r25	; 0x80383b <lanyardLastActive+0x1>

    if (lastButtonState == 0xff){
     624:	80 91 07 38 	lds	r24, 0x3807	; 0x803807 <lastButtonState>
     628:	8f 3f       	cpi	r24, 0xFF	; 255
     62a:	09 f0       	breq	.+2      	; 0x62e <LanyardCode+0x84>
     62c:	76 c0       	rjmp	.+236    	; 0x71a <LanyardCode+0x170>
        effect = 0x13f + (buttonState << 5);
     62e:	80 91 08 38 	lds	r24, 0x3808	; 0x803808 <buttonState>
     632:	20 e2       	ldi	r18, 0x20	; 32
     634:	82 9f       	mul	r24, r18
     636:	c0 01       	movw	r24, r0
     638:	11 24       	eor	r1, r1
     63a:	81 5c       	subi	r24, 0xC1	; 193
     63c:	9e 4f       	sbci	r25, 0xFE	; 254
     63e:	80 93 40 38 	sts	0x3840, r24	; 0x803840 <effect>
     642:	90 93 41 38 	sts	0x3841, r25	; 0x803841 <effect+0x1>

        if (gameNow != LANYARD)
     646:	80 91 42 38 	lds	r24, 0x3842	; 0x803842 <gameNow>
     64a:	83 30       	cpi	r24, 0x03	; 3
            initLanyard();
     64c:	09 f0       	breq	.+2      	; 0x650 <LanyardCode+0xa6>
     64e:	a3 df       	rcall	.-186    	; 0x596 <initLanyard>
        gameNow = LANYARD;
     650:	83 e0       	ldi	r24, 0x03	; 3
     652:	80 93 42 38 	sts	0x3842, r24	; 0x803842 <gameNow>

        if (buttonState == lanyardCode[lanyardPos]) {
     656:	80 91 3d 38 	lds	r24, 0x383D	; 0x80383d <lanyardPos>
     65a:	e8 2f       	mov	r30, r24
     65c:	f0 e0       	ldi	r31, 0x00	; 0
     65e:	ea 5f       	subi	r30, 0xFA	; 250
     660:	f0 44       	sbci	r31, 0x40	; 64
     662:	20 81       	ld	r18, Z
     664:	90 91 08 38 	lds	r25, 0x3808	; 0x803808 <buttonState>
     668:	29 13       	cpse	r18, r25
     66a:	12 c0       	rjmp	.+36     	; 0x690 <LanyardCode+0xe6>
            lanyardState &= TRUE;
     66c:	90 91 02 38 	lds	r25, 0x3802	; 0x803802 <lanyardState>
     670:	91 70       	andi	r25, 0x01	; 1
     672:	90 93 02 38 	sts	0x3802, r25	; 0x803802 <lanyardState>
            iLED[EYE[R][L]] = 0;
     676:	e0 91 21 bf 	lds	r30, 0xBF21	; 0x80bf21 <__bss_end+0x8406>
     67a:	f0 e0       	ldi	r31, 0x00	; 0
     67c:	e4 53       	subi	r30, 0x34	; 52
     67e:	f5 4c       	sbci	r31, 0xC5	; 197
     680:	10 82       	st	Z, r1
            iLED[EYE[R][R]] = 0;
     682:	e0 91 20 bf 	lds	r30, 0xBF20	; 0x80bf20 <__bss_end+0x8405>
     686:	f0 e0       	ldi	r31, 0x00	; 0
     688:	e4 53       	subi	r30, 0x34	; 52
     68a:	f5 4c       	sbci	r31, 0xC5	; 197
     68c:	10 82       	st	Z, r1
     68e:	09 c0       	rjmp	.+18     	; 0x6a2 <LanyardCode+0xf8>
        } else {
            lanyardState = FALSE;
     690:	10 92 02 38 	sts	0x3802, r1	; 0x803802 <lanyardState>
            if (lanyardPos == 0 ) {
     694:	81 11       	cpse	r24, r1
                initLanyard();
     696:	05 c0       	rjmp	.+10     	; 0x6a2 <LanyardCode+0xf8>
     698:	7e df       	rcall	.-260    	; 0x596 <initLanyard>
                gameNow         = BASTET;
     69a:	82 e0       	ldi	r24, 0x02	; 2
     69c:	80 93 42 38 	sts	0x3842, r24	; 0x803842 <gameNow>
                return 0;
     6a0:	3c c0       	rjmp	.+120    	; 0x71a <LanyardCode+0x170>
            }
        }
        lanyardPos++;
     6a2:	8f 5f       	subi	r24, 0xFF	; 255
     6a4:	80 93 3d 38 	sts	0x383D, r24	; 0x80383d <lanyardPos>
        lanyardCnt++;            
     6a8:	80 91 3c 38 	lds	r24, 0x383C	; 0x80383c <lanyardCnt>
     6ac:	8f 5f       	subi	r24, 0xFF	; 255
     6ae:	80 93 3c 38 	sts	0x383C, r24	; 0x80383c <lanyardCnt>
        WingBar(lanyardCnt,lanyardCnt);
     6b2:	68 2f       	mov	r22, r24
     6b4:	95 d7       	rcall	.+3882   	; 0x15e0 <WingBar>
        if (lanyardCnt >= 4) {
     6b6:	80 91 3c 38 	lds	r24, 0x383C	; 0x80383c <lanyardCnt>
     6ba:	84 30       	cpi	r24, 0x04	; 4
     6bc:	70 f1       	brcs	.+92     	; 0x71a <LanyardCode+0x170>
            lanyardCnt = 0;
     6be:	10 92 3c 38 	sts	0x383C, r1	; 0x80383c <lanyardCnt>
            if (lanyardState == TRUE) {
     6c2:	80 91 02 38 	lds	r24, 0x3802	; 0x803802 <lanyardState>
     6c6:	81 30       	cpi	r24, 0x01	; 1
     6c8:	09 f5       	brne	.+66     	; 0x70c <LanyardCode+0x162>
                if (lanyardCnt == 0) {
                    iLED[HCKR[G][(lanyardPos>>1)-2]] = dimValue;
     6ca:	80 91 3d 38 	lds	r24, 0x383D	; 0x80383d <lanyardPos>
     6ce:	e8 2f       	mov	r30, r24
     6d0:	e6 95       	lsr	r30
     6d2:	f0 e0       	ldi	r31, 0x00	; 0
     6d4:	ec 5d       	subi	r30, 0xDC	; 220
     6d6:	f0 44       	sbci	r31, 0x40	; 64
     6d8:	a4 81       	ldd	r26, Z+4	; 0x04
     6da:	b0 e0       	ldi	r27, 0x00	; 0
     6dc:	90 91 0c 38 	lds	r25, 0x380C	; 0x80380c <dimValue>
     6e0:	a4 53       	subi	r26, 0x34	; 52
     6e2:	b5 4c       	sbci	r27, 0xC5	; 197
     6e4:	9c 93       	st	X, r25
                    iLED[HCKR[G][(lanyardPos>>1)-1]] = dimValue;
     6e6:	e5 81       	ldd	r30, Z+5	; 0x05
     6e8:	f0 e0       	ldi	r31, 0x00	; 0
     6ea:	90 91 0c 38 	lds	r25, 0x380C	; 0x80380c <dimValue>
     6ee:	e4 53       	subi	r30, 0x34	; 52
     6f0:	f5 4c       	sbci	r31, 0xC5	; 197
                }
                if (lanyardPos == LANYARD_LEN) {
     6f2:	90 83       	st	Z, r25
     6f4:	8c 30       	cpi	r24, 0x0C	; 12
                    UpdateState(LANYARD_COMPLETED);
     6f6:	89 f4       	brne	.+34     	; 0x71a <LanyardCode+0x170>
     6f8:	8b e7       	ldi	r24, 0x7B	; 123
     6fa:	81 d6       	rcall	.+3330   	; 0x13fe <UpdateState>
                    iLED[CAT]       = 0;
     6fc:	ec 2f       	mov	r30, r28
     6fe:	f0 e0       	ldi	r31, 0x00	; 0
     700:	e4 53       	subi	r30, 0x34	; 52
     702:	f5 4c       	sbci	r31, 0xC5	; 197
                    effect = 0x42;
     704:	10 82       	st	Z, r1
     706:	82 e4       	ldi	r24, 0x42	; 66
     708:	90 e0       	ldi	r25, 0x00	; 0
                    /*TODO state = STATE_MUSIC;*/
                }
            } else {
                initLanyard();
     70a:	03 c0       	rjmp	.+6      	; 0x712 <LanyardCode+0x168>
     70c:	44 df       	rcall	.-376    	; 0x596 <initLanyard>
                effect = 0x21;
     70e:	81 e2       	ldi	r24, 0x21	; 33
     710:	90 e0       	ldi	r25, 0x00	; 0
     712:	80 93 40 38 	sts	0x3840, r24	; 0x803840 <effect>
     716:	90 93 41 38 	sts	0x3841, r25	; 0x803841 <effect+0x1>
            }
        }
    }

    return 0;
}
     71a:	80 e0       	ldi	r24, 0x00	; 0
     71c:	cf 91       	pop	r28
     71e:	08 95       	ret

00000720 <initMaze>:
uint8_t         mazeState = TRUE;
uint8_t         inverted  = FALSE;
uint16_t        mazeLastActive = 0;

void initMaze() {
    mazeHckrPos = 0;
     720:	10 92 51 38 	sts	0x3851, r1	; 0x803851 <mazeHckrPos>
    mazePos = 0;
     724:	10 92 52 38 	sts	0x3852, r1	; 0x803852 <mazePos>
    mazeCnt = 0;
     728:	10 92 50 38 	sts	0x3850, r1	; 0x803850 <mazeCnt>
    mazeState = TRUE;
     72c:	81 e0       	ldi	r24, 0x01	; 1
     72e:	80 93 0d 38 	sts	0x380D, r24	; 0x80380d <mazeState>
    inverted  = FALSE;
     732:	10 92 4f 38 	sts	0x384F, r1	; 0x80384f <inverted>
    ClearHackerLeds();
     736:	92 c7       	rjmp	.+3876   	; 0x165c <ClearHackerLeds>
     738:	08 95       	ret

0000073a <showFieldStrength>:
}

void showFieldStrength(int16_t val) {
     73a:	cf 93       	push	r28
     73c:	df 93       	push	r29
     73e:	ec 01       	movw	r28, r24
    int16_t field;
 
    field = abs(val);
     740:	97 ff       	sbrs	r25, 7
     742:	03 c0       	rjmp	.+6      	; 0x74a <showFieldStrength+0x10>
     744:	d1 95       	neg	r29
     746:	c1 95       	neg	r28
     748:	d1 09       	sbc	r29, r1
 
    if ( field > HALL_FIELD_0 ) {
     74a:	cd 33       	cpi	r28, 0x3D	; 61
     74c:	d1 05       	cpc	r29, r1
     74e:	44 f0       	brlt	.+16     	; 0x760 <showFieldStrength+0x26>
        if (gameNow == TEXT) {
     750:	80 91 42 38 	lds	r24, 0x3842	; 0x803842 <gameNow>
     754:	81 11       	cpse	r24, r1
     756:	04 c0       	rjmp	.+8      	; 0x760 <showFieldStrength+0x26>
            initMaze();
     758:	e3 df       	rcall	.-58     	; 0x720 <initMaze>
            gameNow = MAZE;
     75a:	81 e0       	ldi	r24, 0x01	; 1
     75c:	80 93 42 38 	sts	0x3842, r24	; 0x803842 <gameNow>
        }
    }

    if (gameNow == MAZE) {
     760:	80 91 42 38 	lds	r24, 0x3842	; 0x803842 <gameNow>
     764:	81 30       	cpi	r24, 0x01	; 1
     766:	09 f5       	brne	.+66     	; 0x7aa <showFieldStrength+0x70>
        if ( field < HALL_FIELD_0 )
     768:	cc 33       	cpi	r28, 0x3C	; 60
     76a:	d1 05       	cpc	r29, r1
     76c:	1c f4       	brge	.+6      	; 0x774 <showFieldStrength+0x3a>
            WingBar(0,0);
     76e:	60 e0       	ldi	r22, 0x00	; 0
     770:	80 e0       	ldi	r24, 0x00	; 0
     772:	1a c0       	rjmp	.+52     	; 0x7a8 <showFieldStrength+0x6e>
        else if ( field < HALL_FIELD_1 )
     774:	c8 37       	cpi	r28, 0x78	; 120
     776:	d1 05       	cpc	r29, r1
     778:	1c f4       	brge	.+6      	; 0x780 <showFieldStrength+0x46>
            WingBar(1,1);
     77a:	61 e0       	ldi	r22, 0x01	; 1
     77c:	81 e0       	ldi	r24, 0x01	; 1
     77e:	14 c0       	rjmp	.+40     	; 0x7a8 <showFieldStrength+0x6e>
        else if ( field < HALL_FIELD_2 )
     780:	c6 39       	cpi	r28, 0x96	; 150
     782:	d1 05       	cpc	r29, r1
     784:	1c f4       	brge	.+6      	; 0x78c <showFieldStrength+0x52>
            WingBar(2,2);
     786:	62 e0       	ldi	r22, 0x02	; 2
     788:	82 e0       	ldi	r24, 0x02	; 2
     78a:	0e c0       	rjmp	.+28     	; 0x7a8 <showFieldStrength+0x6e>
        else if ( field < HALL_FIELD_3 )
     78c:	c8 3c       	cpi	r28, 0xC8	; 200
     78e:	d1 05       	cpc	r29, r1
     790:	1c f4       	brge	.+6      	; 0x798 <showFieldStrength+0x5e>
            WingBar(3,3);
     792:	63 e0       	ldi	r22, 0x03	; 3
     794:	83 e0       	ldi	r24, 0x03	; 3
     796:	08 c0       	rjmp	.+16     	; 0x7a8 <showFieldStrength+0x6e>
        else if ( field < HALL_FIELD_4 )
     798:	cc 32       	cpi	r28, 0x2C	; 44
     79a:	d1 40       	sbci	r29, 0x01	; 1
     79c:	1c f4       	brge	.+6      	; 0x7a4 <showFieldStrength+0x6a>
            WingBar(4,4);
     79e:	64 e0       	ldi	r22, 0x04	; 4
     7a0:	84 e0       	ldi	r24, 0x04	; 4
     7a2:	02 c0       	rjmp	.+4      	; 0x7a8 <showFieldStrength+0x6e>
        else
            WingBar(5,5);
     7a4:	65 e0       	ldi	r22, 0x05	; 5
     7a6:	85 e0       	ldi	r24, 0x05	; 5
     7a8:	1b d7       	rcall	.+3638   	; 0x15e0 <WingBar>
    }
}
     7aa:	df 91       	pop	r29
     7ac:	cf 91       	pop	r28
     7ae:	08 95       	ret

000007b0 <MagnetMaze>:

// Main game loop
uint8_t MagnetMaze(){
     7b0:	cf 93       	push	r28
     7b2:	df 93       	push	r29
    if (gameNow == MAZE && idleTimeout(mazeLastActive,MAZE_MAX_IDLE)) {
     7b4:	80 91 42 38 	lds	r24, 0x3842	; 0x803842 <gameNow>
     7b8:	81 30       	cpi	r24, 0x01	; 1
     7ba:	71 f4       	brne	.+28     	; 0x7d8 <MagnetMaze+0x28>
     7bc:	6a e0       	ldi	r22, 0x0A	; 10
     7be:	70 e0       	ldi	r23, 0x00	; 0
     7c0:	80 91 4d 38 	lds	r24, 0x384D	; 0x80384d <mazeLastActive>
     7c4:	90 91 4e 38 	lds	r25, 0x384E	; 0x80384e <mazeLastActive+0x1>
     7c8:	0e 94 6f 0e 	call	0x1cde	; 0x1cde <idleTimeout>
     7cc:	88 23       	and	r24, r24
     7ce:	21 f0       	breq	.+8      	; 0x7d8 <MagnetMaze+0x28>
        /* clean up maze game and go back to text game */
        initMaze();
     7d0:	a7 df       	rcall	.-178    	; 0x720 <initMaze>
        gameNow = TEXT;
     7d2:	10 92 42 38 	sts	0x3842, r1	; 0x803842 <gameNow>
        return 0;
     7d6:	e5 c0       	rjmp	.+458    	; 0x9a2 <MagnetMaze+0x1f2>
    }
        
    if (CheckState(MAZE_INACTIVE))
     7d8:	87 ef       	ldi	r24, 0xF7	; 247
     7da:	32 d6       	rcall	.+3172   	; 0x1440 <CheckState>
     7dc:	81 11       	cpse	r24, r1
     7de:	e1 c0       	rjmp	.+450    	; 0x9a2 <MagnetMaze+0x1f2>
        return 0;

    if (CheckState(MAZE_COMPLETED))
     7e0:	8d e7       	ldi	r24, 0x7D	; 125
     7e2:	2e d6       	rcall	.+3164   	; 0x1440 <CheckState>
     7e4:	81 11       	cpse	r24, r1
     7e6:	dd c0       	rjmp	.+442    	; 0x9a2 <MagnetMaze+0x1f2>
     7e8:	80 91 42 38 	lds	r24, 0x3842	; 0x803842 <gameNow>
        return 0;

    if ( (gameNow != TEXT) && (gameNow != MAZE) )
     7ec:	82 30       	cpi	r24, 0x02	; 2
     7ee:	08 f0       	brcs	.+2      	; 0x7f2 <MagnetMaze+0x42>
     7f0:	d8 c0       	rjmp	.+432    	; 0x9a2 <MagnetMaze+0x1f2>
     7f2:	80 91 f4 3a 	lds	r24, 0x3AF4	; 0x803af4 <calHall>
        return 0;

    if (calHall == 0)
     7f6:	90 91 f5 3a 	lds	r25, 0x3AF5	; 0x803af5 <calHall+0x1>
     7fa:	89 2b       	or	r24, r25
     7fc:	41 f4       	brne	.+16     	; 0x80e <MagnetMaze+0x5e>
     7fe:	80 91 c4 3a 	lds	r24, 0x3AC4	; 0x803ac4 <adcHall>
        calHall = adcHall;
     802:	90 91 c5 3a 	lds	r25, 0x3AC5	; 0x803ac5 <adcHall+0x1>
     806:	80 93 f4 3a 	sts	0x3AF4, r24	; 0x803af4 <calHall>
     80a:	90 93 f5 3a 	sts	0x3AF5, r25	; 0x803af5 <calHall+0x1>
     80e:	c0 91 c4 3a 	lds	r28, 0x3AC4	; 0x803ac4 <adcHall>

    int16_t valHall = adcHall - calHall;
     812:	d0 91 c5 3a 	lds	r29, 0x3AC5	; 0x803ac5 <adcHall+0x1>
     816:	80 91 f4 3a 	lds	r24, 0x3AF4	; 0x803af4 <calHall>
     81a:	90 91 f5 3a 	lds	r25, 0x3AF5	; 0x803af5 <calHall+0x1>
     81e:	c8 1b       	sub	r28, r24
     820:	d9 0b       	sbc	r29, r25
    showFieldStrength(valHall);
     822:	ce 01       	movw	r24, r28
     824:	8a df       	rcall	.-236    	; 0x73a <showFieldStrength>
     826:	80 91 54 38 	lds	r24, 0x3854	; 0x803854 <curHallState>

    switch (curHallState) {
     82a:	81 30       	cpi	r24, 0x01	; 1
     82c:	89 f0       	breq	.+34     	; 0x850 <MagnetMaze+0xa0>
     82e:	18 f0       	brcs	.+6      	; 0x836 <MagnetMaze+0x86>
     830:	82 30       	cpi	r24, 0x02	; 2
     832:	c1 f0       	breq	.+48     	; 0x864 <MagnetMaze+0xb4>
     834:	1f c0       	rjmp	.+62     	; 0x874 <MagnetMaze+0xc4>
     836:	c4 3d       	cpi	r28, 0xD4	; 212
        case 0:
            if ( valHall + HALL_HIGH < 0 ) {
     838:	9e ef       	ldi	r25, 0xFE	; 254
     83a:	d9 07       	cpc	r29, r25
     83c:	14 f4       	brge	.+4      	; 0x842 <MagnetMaze+0x92>
     83e:	91 e0       	ldi	r25, 0x01	; 1
                newHallState = 1;
     840:	04 c0       	rjmp	.+8      	; 0x84a <MagnetMaze+0x9a>
     842:	cd 32       	cpi	r28, 0x2D	; 45
            } else if ( valHall - HALL_HIGH > 0 ) {
     844:	d1 40       	sbci	r29, 0x01	; 1
     846:	5c f0       	brlt	.+22     	; 0x85e <MagnetMaze+0xae>
     848:	92 e0       	ldi	r25, 0x02	; 2
                newHallState = 2;
     84a:	90 93 53 38 	sts	0x3853, r25	; 0x803853 <newHallState>
     84e:	12 c0       	rjmp	.+36     	; 0x874 <MagnetMaze+0xc4>
     850:	cd 32       	cpi	r28, 0x2D	; 45
                newHallState = 0;
            }
            break;
        
        case 1:
            if ( valHall - HALL_HIGH > 0 ) {
     852:	91 e0       	ldi	r25, 0x01	; 1
     854:	d9 07       	cpc	r29, r25
     856:	c4 f7       	brge	.-16     	; 0x848 <MagnetMaze+0x98>
     858:	c9 38       	cpi	r28, 0x89	; 137
                newHallState = 2;
            } else if ( valHall + HALL_LOW > 0 ) {
     85a:	df 4f       	sbci	r29, 0xFF	; 255
     85c:	84 f3       	brlt	.-32     	; 0x83e <MagnetMaze+0x8e>
     85e:	10 92 53 38 	sts	0x3853, r1	; 0x803853 <newHallState>
            if ( valHall + HALL_HIGH < 0 ) {
                newHallState = 1;
            } else if ( valHall - HALL_HIGH > 0 ) {
                newHallState = 2;
            } else {
                newHallState = 0;
     862:	08 c0       	rjmp	.+16     	; 0x874 <MagnetMaze+0xc4>
     864:	c4 3d       	cpi	r28, 0xD4	; 212
                newHallState = 1;
            }
            break;
        
        case 2:
            if ( valHall + HALL_HIGH < 0 ) {
     866:	9e ef       	ldi	r25, 0xFE	; 254
     868:	d9 07       	cpc	r29, r25
     86a:	4c f3       	brlt	.-46     	; 0x83e <MagnetMaze+0x8e>
     86c:	c8 37       	cpi	r28, 0x78	; 120
                newHallState = 1;
            } else if ( valHall - HALL_LOW < 0 ) {
     86e:	d1 05       	cpc	r29, r1
     870:	b4 f3       	brlt	.-20     	; 0x85e <MagnetMaze+0xae>
     872:	ea cf       	rjmp	.-44     	; 0x848 <MagnetMaze+0x98>
     874:	c0 91 12 bf 	lds	r28, 0xBF12	; 0x80bf12 <__bss_end+0x83f7>
            }
            break;
    }

    /* Indicate that the magnet was read succesfully */
    iLED[CAT] = (newHallState ? dimValue : 0);
     878:	ec 2f       	mov	r30, r28
     87a:	f0 e0       	ldi	r31, 0x00	; 0
     87c:	90 91 53 38 	lds	r25, 0x3853	; 0x803853 <newHallState>
     880:	99 23       	and	r25, r25
     882:	19 f0       	breq	.+6      	; 0x88a <MagnetMaze+0xda>
     884:	20 91 0c 38 	lds	r18, 0x380C	; 0x80380c <dimValue>
     888:	01 c0       	rjmp	.+2      	; 0x88c <MagnetMaze+0xdc>
     88a:	20 e0       	ldi	r18, 0x00	; 0
     88c:	e4 53       	subi	r30, 0x34	; 52
     88e:	f5 4c       	sbci	r31, 0xC5	; 197
     890:	20 83       	st	Z, r18
     892:	2f e9       	ldi	r18, 0x9F	; 159
    effect = 0x19f;
     894:	31 e0       	ldi	r19, 0x01	; 1
     896:	20 93 40 38 	sts	0x3840, r18	; 0x803840 <effect>
     89a:	30 93 41 38 	sts	0x3841, r19	; 0x803841 <effect+0x1>
     89e:	89 17       	cp	r24, r25

    if (newHallState != curHallState) {
     8a0:	09 f4       	brne	.+2      	; 0x8a4 <MagnetMaze+0xf4>
     8a2:	7f c0       	rjmp	.+254    	; 0x9a2 <MagnetMaze+0x1f2>
     8a4:	0e 94 60 0e 	call	0x1cc0	; 0x1cc0 <getClock>
        /* keep track of time to enable an idle timeout to exit the game */
        mazeLastActive = getClock();
     8a8:	80 93 4d 38 	sts	0x384D, r24	; 0x80384d <mazeLastActive>
     8ac:	90 93 4e 38 	sts	0x384E, r25	; 0x80384e <mazeLastActive+0x1>
     8b0:	90 91 52 38 	lds	r25, 0x3852	; 0x803852 <mazePos>

        /* Make the maze work regardless of badge orientation */
        if ((mazePos == 0) && (newHallState != 0))
     8b4:	80 91 53 38 	lds	r24, 0x3853	; 0x803853 <newHallState>
     8b8:	91 11       	cpse	r25, r1
     8ba:	08 c0       	rjmp	.+16     	; 0x8cc <MagnetMaze+0x11c>
     8bc:	88 23       	and	r24, r24
     8be:	31 f0       	breq	.+12     	; 0x8cc <MagnetMaze+0x11c>
     8c0:	91 e0       	ldi	r25, 0x01	; 1
            inverted = (newHallState != mazeCode[0]) ? TRUE : FALSE;
     8c2:	81 30       	cpi	r24, 0x01	; 1
     8c4:	09 f4       	brne	.+2      	; 0x8c8 <MagnetMaze+0x118>
     8c6:	90 e0       	ldi	r25, 0x00	; 0
     8c8:	90 93 4f 38 	sts	0x384F, r25	; 0x80384f <inverted>
     8cc:	80 93 54 38 	sts	0x3854, r24	; 0x803854 <curHallState>

        curHallState = newHallState;
     8d0:	88 23       	and	r24, r24
        
        if (curHallState != 0) {
     8d2:	09 f4       	brne	.+2      	; 0x8d6 <MagnetMaze+0x126>
     8d4:	66 c0       	rjmp	.+204    	; 0x9a2 <MagnetMaze+0x1f2>
     8d6:	80 91 42 38 	lds	r24, 0x3842	; 0x803842 <gameNow>
            if (gameNow == TEXT)
     8da:	81 11       	cpse	r24, r1
     8dc:	01 c0       	rjmp	.+2      	; 0x8e0 <MagnetMaze+0x130>
                initMaze();
     8de:	20 df       	rcall	.-448    	; 0x720 <initMaze>
     8e0:	81 e0       	ldi	r24, 0x01	; 1
            gameNow = MAZE;
     8e2:	80 93 42 38 	sts	0x3842, r24	; 0x803842 <gameNow>
     8e6:	80 91 4f 38 	lds	r24, 0x384F	; 0x80384f <inverted>

            if ( (inverted ? curHallState^3 : curHallState) == mazeCode[mazePos]) {
     8ea:	20 91 54 38 	lds	r18, 0x3854	; 0x803854 <curHallState>
     8ee:	88 23       	and	r24, r24
     8f0:	11 f0       	breq	.+4      	; 0x8f6 <MagnetMaze+0x146>
     8f2:	83 e0       	ldi	r24, 0x03	; 3
     8f4:	28 27       	eor	r18, r24
     8f6:	30 e0       	ldi	r19, 0x00	; 0
     8f8:	80 91 52 38 	lds	r24, 0x3852	; 0x803852 <mazePos>
     8fc:	e8 2f       	mov	r30, r24
     8fe:	f0 e0       	ldi	r31, 0x00	; 0
     900:	e0 5a       	subi	r30, 0xA0	; 160
     902:	f0 44       	sbci	r31, 0x40	; 64
     904:	40 81       	ld	r20, Z
     906:	50 e0       	ldi	r21, 0x00	; 0
     908:	24 17       	cp	r18, r20
     90a:	35 07       	cpc	r19, r21
     90c:	91 f4       	brne	.+36     	; 0x932 <MagnetMaze+0x182>
     90e:	90 91 0d 38 	lds	r25, 0x380D	; 0x80380d <mazeState>
                mazeState &= TRUE;
     912:	91 70       	andi	r25, 0x01	; 1
     914:	90 93 0d 38 	sts	0x380D, r25	; 0x80380d <mazeState>
     918:	e0 91 21 bf 	lds	r30, 0xBF21	; 0x80bf21 <__bss_end+0x8406>
                iLED[EYE[R][L]] = 0;
     91c:	f0 e0       	ldi	r31, 0x00	; 0
     91e:	e4 53       	subi	r30, 0x34	; 52
     920:	f5 4c       	sbci	r31, 0xC5	; 197
     922:	10 82       	st	Z, r1
     924:	e0 91 20 bf 	lds	r30, 0xBF20	; 0x80bf20 <__bss_end+0x8405>
                iLED[EYE[R][R]] = 0;
     928:	f0 e0       	ldi	r31, 0x00	; 0
     92a:	e4 53       	subi	r30, 0x34	; 52
     92c:	f5 4c       	sbci	r31, 0xC5	; 197
     92e:	10 82       	st	Z, r1
     930:	02 c0       	rjmp	.+4      	; 0x936 <MagnetMaze+0x186>
     932:	10 92 0d 38 	sts	0x380D, r1	; 0x80380d <mazeState>
            } else {
                mazeState = FALSE;
     936:	8f 5f       	subi	r24, 0xFF	; 255
            }
            mazePos++;
     938:	80 93 52 38 	sts	0x3852, r24	; 0x803852 <mazePos>
     93c:	90 91 50 38 	lds	r25, 0x3850	; 0x803850 <mazeCnt>
            mazeCnt++;            
     940:	9f 5f       	subi	r25, 0xFF	; 255
     942:	93 30       	cpi	r25, 0x03	; 3
            if (mazeCnt >= 3) {
     944:	18 f4       	brcc	.+6      	; 0x94c <MagnetMaze+0x19c>
     946:	90 93 50 38 	sts	0x3850, r25	; 0x803850 <mazeCnt>
                iLED[EYE[R][R]] = 0;
            } else {
                mazeState = FALSE;
            }
            mazePos++;
            mazeCnt++;            
     94a:	2b c0       	rjmp	.+86     	; 0x9a2 <MagnetMaze+0x1f2>
     94c:	10 92 50 38 	sts	0x3850, r1	; 0x803850 <mazeCnt>
            if (mazeCnt >= 3) {
                mazeCnt = 0;
     950:	90 91 0d 38 	lds	r25, 0x380D	; 0x80380d <mazeState>
                if (mazeState == TRUE) {
     954:	91 30       	cpi	r25, 0x01	; 1
     956:	e1 f4       	brne	.+56     	; 0x990 <MagnetMaze+0x1e0>
     958:	90 91 51 38 	lds	r25, 0x3851	; 0x803851 <mazeHckrPos>
                    iLED[HCKR[G][mazeHckrPos]] = dimValue;
     95c:	e9 2f       	mov	r30, r25
     95e:	f0 e0       	ldi	r31, 0x00	; 0
     960:	ec 5d       	subi	r30, 0xDC	; 220
     962:	f0 44       	sbci	r31, 0x40	; 64
     964:	e6 81       	ldd	r30, Z+6	; 0x06
     966:	f0 e0       	ldi	r31, 0x00	; 0
     968:	20 91 0c 38 	lds	r18, 0x380C	; 0x80380c <dimValue>
     96c:	e4 53       	subi	r30, 0x34	; 52
     96e:	f5 4c       	sbci	r31, 0xC5	; 197
     970:	20 83       	st	Z, r18
     972:	9f 5f       	subi	r25, 0xFF	; 255
                    mazeHckrPos++;
     974:	90 93 51 38 	sts	0x3851, r25	; 0x803851 <mazeHckrPos>
                    if (mazePos == sizeof(mazeCode)) {
     978:	82 31       	cpi	r24, 0x12	; 18
     97a:	99 f4       	brne	.+38     	; 0x9a2 <MagnetMaze+0x1f2>
                        UpdateState(MAZE_COMPLETED);
     97c:	8d e7       	ldi	r24, 0x7D	; 125
     97e:	3f d5       	rcall	.+2686   	; 0x13fe <UpdateState>
     980:	ec 2f       	mov	r30, r28
                        iLED[CAT]       = 0;
     982:	f0 e0       	ldi	r31, 0x00	; 0
     984:	e4 53       	subi	r30, 0x34	; 52
     986:	f5 4c       	sbci	r31, 0xC5	; 197
     988:	10 82       	st	Z, r1
                        effect = 0x42;
     98a:	82 e4       	ldi	r24, 0x42	; 66
     98c:	90 e0       	ldi	r25, 0x00	; 0
     98e:	05 c0       	rjmp	.+10     	; 0x99a <MagnetMaze+0x1ea>
                        /*TODO state = STATE_MUSIC;*/
                    }
                } else {
                    initMaze();
     990:	c7 de       	rcall	.-626    	; 0x720 <initMaze>
     992:	10 92 42 38 	sts	0x3842, r1	; 0x803842 <gameNow>
                    gameNow   = TEXT;
     996:	81 e2       	ldi	r24, 0x21	; 33
                    effect = 0x21;
     998:	90 e0       	ldi	r25, 0x00	; 0
     99a:	80 93 40 38 	sts	0x3840, r24	; 0x803840 <effect>
     99e:	90 93 41 38 	sts	0x3841, r25	; 0x803841 <effect+0x1>
     9a2:	80 e0       	ldi	r24, 0x00	; 0
                }
            }
        }
    }
    return 0;
}
     9a4:	df 91       	pop	r29
     9a6:	cf 91       	pop	r28
     9a8:	08 95       	ret

000009aa <Setup>:
     9aa:	cf 93       	push	r28
    TCB1_CCMP = pitch;
    if (repeat) auRepAddr = auBuffer;
    else auSmpAddr = auBuffer;
    auVolume = volume;
    return 1;
}
     9ac:	df 93       	push	r29
     9ae:	f8 94       	cli
     9b0:	88 ed       	ldi	r24, 0xD8	; 216
     9b2:	84 bf       	out	0x34, r24	; 52
     9b4:	c1 e0       	ldi	r28, 0x01	; 1
     9b6:	c0 93 61 00 	sts	0x0061, r28	; 0x800061 <__TEXT_REGION_LENGTH__+0x700061>
     9ba:	8a e4       	ldi	r24, 0x4A	; 74
     9bc:	80 93 00 04 	sts	0x0400, r24	; 0x800400 <__TEXT_REGION_LENGTH__+0x700400>
     9c0:	8c e7       	ldi	r24, 0x7C	; 124
     9c2:	80 93 20 04 	sts	0x0420, r24	; 0x800420 <__TEXT_REGION_LENGTH__+0x700420>
     9c6:	9f e3       	ldi	r25, 0x3F	; 63
     9c8:	90 93 40 04 	sts	0x0440, r25	; 0x800440 <__TEXT_REGION_LENGTH__+0x700440>
     9cc:	80 91 53 04 	lds	r24, 0x0453	; 0x800453 <__TEXT_REGION_LENGTH__+0x700453>
     9d0:	80 68       	ori	r24, 0x80	; 128
     9d2:	80 93 53 04 	sts	0x0453, r24	; 0x800453 <__TEXT_REGION_LENGTH__+0x700453>
     9d6:	80 91 54 04 	lds	r24, 0x0454	; 0x800454 <__TEXT_REGION_LENGTH__+0x700454>
     9da:	80 68       	ori	r24, 0x80	; 128
     9dc:	80 93 54 04 	sts	0x0454, r24	; 0x800454 <__TEXT_REGION_LENGTH__+0x700454>
     9e0:	80 91 55 04 	lds	r24, 0x0455	; 0x800455 <__TEXT_REGION_LENGTH__+0x700455>
     9e4:	80 68       	ori	r24, 0x80	; 128
     9e6:	80 93 55 04 	sts	0x0455, r24	; 0x800455 <__TEXT_REGION_LENGTH__+0x700455>
     9ea:	80 91 33 04 	lds	r24, 0x0433	; 0x800433 <__TEXT_REGION_LENGTH__+0x700433>
     9ee:	80 68       	ori	r24, 0x80	; 128
     9f0:	80 93 33 04 	sts	0x0433, r24	; 0x800433 <__TEXT_REGION_LENGTH__+0x700433>
     9f4:	80 91 34 04 	lds	r24, 0x0434	; 0x800434 <__TEXT_REGION_LENGTH__+0x700434>
     9f8:	80 68       	ori	r24, 0x80	; 128
     9fa:	80 93 34 04 	sts	0x0434, r24	; 0x800434 <__TEXT_REGION_LENGTH__+0x700434>
     9fe:	80 91 35 04 	lds	r24, 0x0435	; 0x800435 <__TEXT_REGION_LENGTH__+0x700435>
     a02:	80 68       	ori	r24, 0x80	; 128
     a04:	80 93 35 04 	sts	0x0435, r24	; 0x800435 <__TEXT_REGION_LENGTH__+0x700435>
     a08:	c0 93 01 02 	sts	0x0201, r28	; 0x800201 <__TEXT_REGION_LENGTH__+0x700201>
     a0c:	d2 e0       	ldi	r29, 0x02	; 2
     a0e:	d0 93 05 04 	sts	0x0405, r29	; 0x800405 <__TEXT_REGION_LENGTH__+0x700405>
     a12:	2b e5       	ldi	r18, 0x5B	; 91
     a14:	31 e0       	ldi	r19, 0x01	; 1
     a16:	20 93 08 08 	sts	0x0808, r18	; 0x800808 <__TEXT_REGION_LENGTH__+0x700808>
     a1a:	30 93 09 08 	sts	0x0809, r19	; 0x800809 <__TEXT_REGION_LENGTH__+0x700809>
     a1e:	80 ea       	ldi	r24, 0xA0	; 160
     a20:	80 93 05 08 	sts	0x0805, r24	; 0x800805 <__TEXT_REGION_LENGTH__+0x700805>
     a24:	80 ec       	ldi	r24, 0xC0	; 192
     a26:	80 93 06 08 	sts	0x0806, r24	; 0x800806 <__TEXT_REGION_LENGTH__+0x700806>
     a2a:	83 e0       	ldi	r24, 0x03	; 3
     a2c:	80 93 07 08 	sts	0x0807, r24	; 0x800807 <__TEXT_REGION_LENGTH__+0x700807>
     a30:	1c ba       	out	0x1c, r1	; 28
     a32:	1d ba       	out	0x1d, r1	; 29
     a34:	1f ba       	out	0x1f, r1	; 31
     a36:	c0 93 03 0a 	sts	0x0A03, r28	; 0x800a03 <__TEXT_REGION_LENGTH__+0x700a03>
     a3a:	88 e0       	ldi	r24, 0x08	; 8
     a3c:	80 93 00 0a 	sts	0x0A00, r24	; 0x800a00 <__TEXT_REGION_LENGTH__+0x700a00>
     a40:	90 93 02 02 	sts	0x0202, r25	; 0x800202 <__TEXT_REGION_LENGTH__+0x700202>
     a44:	87 e7       	ldi	r24, 0x77	; 119
     a46:	80 93 01 0a 	sts	0x0A01, r24	; 0x800a01 <__TEXT_REGION_LENGTH__+0x700a01>
     a4a:	c0 93 0a 0a 	sts	0x0A0A, r28	; 0x800a0a <__TEXT_REGION_LENGTH__+0x700a0a>
     a4e:	8b e0       	ldi	r24, 0x0B	; 11
     a50:	80 93 05 0a 	sts	0x0A05, r24	; 0x800a05 <__TEXT_REGION_LENGTH__+0x700a05>
     a54:	80 91 00 0a 	lds	r24, 0x0A00	; 0x800a00 <__TEXT_REGION_LENGTH__+0x700a00>
     a58:	81 60       	ori	r24, 0x01	; 1
     a5a:	80 93 00 0a 	sts	0x0A00, r24	; 0x800a00 <__TEXT_REGION_LENGTH__+0x700a00>
     a5e:	85 e0       	ldi	r24, 0x05	; 5
     a60:	80 93 40 0a 	sts	0x0A40, r24	; 0x800a40 <__TEXT_REGION_LENGTH__+0x700a40>
     a64:	10 92 41 0a 	sts	0x0A41, r1	; 0x800a41 <__TEXT_REGION_LENGTH__+0x700a41>
     a68:	8f ef       	ldi	r24, 0xFF	; 255
     a6a:	91 e0       	ldi	r25, 0x01	; 1
     a6c:	80 93 4c 0a 	sts	0x0A4C, r24	; 0x800a4c <__TEXT_REGION_LENGTH__+0x700a4c>
     a70:	90 93 4d 0a 	sts	0x0A4D, r25	; 0x800a4d <__TEXT_REGION_LENGTH__+0x700a4d>
     a74:	10 92 45 0a 	sts	0x0A45, r1	; 0x800a45 <__TEXT_REGION_LENGTH__+0x700a45>
     a78:	c0 93 50 0a 	sts	0x0A50, r28	; 0x800a50 <__TEXT_REGION_LENGTH__+0x700a50>
     a7c:	10 92 51 0a 	sts	0x0A51, r1	; 0x800a51 <__TEXT_REGION_LENGTH__+0x700a51>
     a80:	8b e8       	ldi	r24, 0x8B	; 139
     a82:	93 e0       	ldi	r25, 0x03	; 3
     a84:	80 93 5c 0a 	sts	0x0A5C, r24	; 0x800a5c <__TEXT_REGION_LENGTH__+0x700a5c>
     a88:	90 93 5d 0a 	sts	0x0A5D, r25	; 0x800a5d <__TEXT_REGION_LENGTH__+0x700a5d>
     a8c:	c0 93 55 0a 	sts	0x0A55, r28	; 0x800a55 <__TEXT_REGION_LENGTH__+0x700a55>
     a90:	3f dc       	rcall	.-1922   	; 0x310 <I2C_init>
     a92:	82 e1       	ldi	r24, 0x12	; 18
     a94:	80 93 a0 00 	sts	0x00A0, r24	; 0x8000a0 <__TEXT_REGION_LENGTH__+0x7000a0>
     a98:	80 e2       	ldi	r24, 0x20	; 32
     a9a:	80 93 a2 00 	sts	0x00A2, r24	; 0x8000a2 <__TEXT_REGION_LENGTH__+0x7000a2>
     a9e:	c0 93 a1 00 	sts	0x00A1, r28	; 0x8000a1 <__TEXT_REGION_LENGTH__+0x7000a1>
     aa2:	d0 93 00 06 	sts	0x0600, r29	; 0x800600 <__TEXT_REGION_LENGTH__+0x700600>
     aa6:	84 e4       	ldi	r24, 0x44	; 68
     aa8:	80 93 02 06 	sts	0x0602, r24	; 0x800602 <__TEXT_REGION_LENGTH__+0x700602>
     aac:	8e e1       	ldi	r24, 0x1E	; 30
     aae:	80 93 06 06 	sts	0x0606, r24	; 0x800606 <__TEXT_REGION_LENGTH__+0x700606>
     ab2:	c0 93 0a 06 	sts	0x060A, r28	; 0x80060a <__TEXT_REGION_LENGTH__+0x70060a>
     ab6:	80 91 00 06 	lds	r24, 0x0600	; 0x800600 <__TEXT_REGION_LENGTH__+0x700600>
     aba:	81 60       	ori	r24, 0x01	; 1
     abc:	80 93 00 06 	sts	0x0600, r24	; 0x800600 <__TEXT_REGION_LENGTH__+0x700600>
     ac0:	c0 93 08 06 	sts	0x0608, r28	; 0x800608 <__TEXT_REGION_LENGTH__+0x700608>
     ac4:	10 92 40 06 	sts	0x0640, r1	; 0x800640 <__TEXT_REGION_LENGTH__+0x700640>
     ac8:	d0 93 41 06 	sts	0x0641, r29	; 0x800641 <__TEXT_REGION_LENGTH__+0x700641>
     acc:	82 e5       	ldi	r24, 0x52	; 82
     ace:	80 93 42 06 	sts	0x0642, r24	; 0x800642 <__TEXT_REGION_LENGTH__+0x700642>
     ad2:	84 e0       	ldi	r24, 0x04	; 4
     ad4:	80 93 45 06 	sts	0x0645, r24	; 0x800645 <__TEXT_REGION_LENGTH__+0x700645>
     ad8:	80 93 46 06 	sts	0x0646, r24	; 0x800646 <__TEXT_REGION_LENGTH__+0x700646>
     adc:	c0 93 4a 06 	sts	0x064A, r28	; 0x80064a <__TEXT_REGION_LENGTH__+0x70064a>
     ae0:	80 91 40 06 	lds	r24, 0x0640	; 0x800640 <__TEXT_REGION_LENGTH__+0x700640>
     ae4:	81 60       	ori	r24, 0x01	; 1
     ae6:	80 93 40 06 	sts	0x0640, r24	; 0x800640 <__TEXT_REGION_LENGTH__+0x700640>
     aea:	c0 93 48 06 	sts	0x0648, r28	; 0x800648 <__TEXT_REGION_LENGTH__+0x700648>
     aee:	80 e4       	ldi	r24, 0x40	; 64
     af0:	80 93 a0 06 	sts	0x06A0, r24	; 0x8006a0 <__TEXT_REGION_LENGTH__+0x7006a0>
     af4:	80 e8       	ldi	r24, 0x80	; 128
     af6:	80 93 a1 06 	sts	0x06A1, r24	; 0x8006a1 <__TEXT_REGION_LENGTH__+0x7006a1>
     afa:	80 91 a0 06 	lds	r24, 0x06A0	; 0x8006a0 <__TEXT_REGION_LENGTH__+0x7006a0>
     afe:	81 60       	ori	r24, 0x01	; 1
     b00:	80 93 a0 06 	sts	0x06A0, r24	; 0x8006a0 <__TEXT_REGION_LENGTH__+0x7006a0>
     b04:	80 91 41 01 	lds	r24, 0x0141	; 0x800141 <__TEXT_REGION_LENGTH__+0x700141>
     b08:	80 fd       	sbrc	r24, 0
     b0a:	fc cf       	rjmp	.-8      	; 0xb04 <Setup+0x15a>
     b0c:	80 e3       	ldi	r24, 0x30	; 48
     b0e:	80 93 40 01 	sts	0x0140, r24	; 0x800140 <__TEXT_REGION_LENGTH__+0x700140>
     b12:	10 92 47 01 	sts	0x0147, r1	; 0x800147 <__TEXT_REGION_LENGTH__+0x700147>
     b16:	80 91 41 01 	lds	r24, 0x0141	; 0x800141 <__TEXT_REGION_LENGTH__+0x700141>
     b1a:	82 fd       	sbrc	r24, 2
     b1c:	fc cf       	rjmp	.-8      	; 0xb16 <Setup+0x16c>
     b1e:	80 e0       	ldi	r24, 0x00	; 0
     b20:	98 e7       	ldi	r25, 0x78	; 120
     b22:	80 93 4a 01 	sts	0x014A, r24	; 0x80014a <__TEXT_REGION_LENGTH__+0x70014a>
     b26:	90 93 4b 01 	sts	0x014B, r25	; 0x80014b <__TEXT_REGION_LENGTH__+0x70014b>
     b2a:	80 91 48 01 	lds	r24, 0x0148	; 0x800148 <__TEXT_REGION_LENGTH__+0x700148>
     b2e:	90 91 49 01 	lds	r25, 0x0149	; 0x800149 <__TEXT_REGION_LENGTH__+0x700149>
     b32:	82 96       	adiw	r24, 0x22	; 34
     b34:	80 93 f8 3a 	sts	0x3AF8, r24	; 0x803af8 <tmp16bit>
     b38:	90 93 f9 3a 	sts	0x3AF9, r25	; 0x803af9 <tmp16bit+0x1>
     b3c:	20 91 4a 01 	lds	r18, 0x014A	; 0x80014a <__TEXT_REGION_LENGTH__+0x70014a>
     b40:	30 91 4b 01 	lds	r19, 0x014B	; 0x80014b <__TEXT_REGION_LENGTH__+0x70014b>
     b44:	80 91 f8 3a 	lds	r24, 0x3AF8	; 0x803af8 <tmp16bit>
     b48:	90 91 f9 3a 	lds	r25, 0x3AF9	; 0x803af9 <tmp16bit+0x1>
     b4c:	28 17       	cp	r18, r24
     b4e:	39 07       	cpc	r19, r25
     b50:	70 f4       	brcc	.+28     	; 0xb6e <Setup+0x1c4>
     b52:	20 91 4a 01 	lds	r18, 0x014A	; 0x80014a <__TEXT_REGION_LENGTH__+0x70014a>
     b56:	30 91 4b 01 	lds	r19, 0x014B	; 0x80014b <__TEXT_REGION_LENGTH__+0x70014b>
     b5a:	80 91 f8 3a 	lds	r24, 0x3AF8	; 0x803af8 <tmp16bit>
     b5e:	90 91 f9 3a 	lds	r25, 0x3AF9	; 0x803af9 <tmp16bit+0x1>
     b62:	82 1b       	sub	r24, r18
     b64:	93 0b       	sbc	r25, r19
     b66:	80 93 f8 3a 	sts	0x3AF8, r24	; 0x803af8 <tmp16bit>
     b6a:	90 93 f9 3a 	sts	0x3AF9, r25	; 0x803af9 <tmp16bit+0x1>
     b6e:	80 91 41 01 	lds	r24, 0x0141	; 0x800141 <__TEXT_REGION_LENGTH__+0x700141>
     b72:	83 fd       	sbrc	r24, 3
     b74:	fc cf       	rjmp	.-8      	; 0xb6e <Setup+0x1c4>
     b76:	80 91 f8 3a 	lds	r24, 0x3AF8	; 0x803af8 <tmp16bit>
     b7a:	90 91 f9 3a 	lds	r25, 0x3AF9	; 0x803af9 <tmp16bit+0x1>
     b7e:	80 93 4c 01 	sts	0x014C, r24	; 0x80014c <__TEXT_REGION_LENGTH__+0x70014c>
     b82:	90 93 4d 01 	sts	0x014D, r25	; 0x80014d <__TEXT_REGION_LENGTH__+0x70014d>
     b86:	83 e0       	ldi	r24, 0x03	; 3
     b88:	80 93 42 01 	sts	0x0142, r24	; 0x800142 <__TEXT_REGION_LENGTH__+0x700142>
     b8c:	81 e0       	ldi	r24, 0x01	; 1
     b8e:	80 93 52 01 	sts	0x0152, r24	; 0x800152 <__TEXT_REGION_LENGTH__+0x700152>
     b92:	88 e0       	ldi	r24, 0x08	; 8
     b94:	80 93 50 01 	sts	0x0150, r24	; 0x800150 <__TEXT_REGION_LENGTH__+0x700150>
     b98:	80 91 41 01 	lds	r24, 0x0141	; 0x800141 <__TEXT_REGION_LENGTH__+0x700141>
     b9c:	80 fd       	sbrc	r24, 0
     b9e:	fc cf       	rjmp	.-8      	; 0xb98 <Setup+0x1ee>
     ba0:	80 91 40 01 	lds	r24, 0x0140	; 0x800140 <__TEXT_REGION_LENGTH__+0x700140>
     ba4:	81 60       	ori	r24, 0x01	; 1
     ba6:	80 93 40 01 	sts	0x0140, r24	; 0x800140 <__TEXT_REGION_LENGTH__+0x700140>
     baa:	80 91 50 01 	lds	r24, 0x0150	; 0x800150 <__TEXT_REGION_LENGTH__+0x700150>
     bae:	81 60       	ori	r24, 0x01	; 1
     bb0:	80 93 50 01 	sts	0x0150, r24	; 0x800150 <__TEXT_REGION_LENGTH__+0x700150>
     bb4:	10 92 7e 3a 	sts	0x3A7E, r1	; 0x803a7e <serRx>
     bb8:	8e e7       	ldi	r24, 0x7E	; 126
     bba:	9a e3       	ldi	r25, 0x3A	; 58
     bbc:	80 93 c2 3a 	sts	0x3AC2, r24	; 0x803ac2 <serTxAddr>
     bc0:	90 93 c3 3a 	sts	0x3AC3, r25	; 0x803ac3 <serTxAddr+0x1>
     bc4:	8f ef       	ldi	r24, 0xFF	; 255
     bc6:	80 93 3e 38 	sts	0x383E, r24	; 0x80383e <adc0Chg>
     bca:	78 94       	sei
     bcc:	df 91       	pop	r29
     bce:	cf 91       	pop	r28
     bd0:	08 95       	ret

00000bd2 <__vector_8>:
     bd2:	1f 92       	push	r1
     bd4:	0f 92       	push	r0
     bd6:	0f b6       	in	r0, 0x3f	; 63
     bd8:	0f 92       	push	r0
     bda:	11 24       	eor	r1, r1
     bdc:	8f 93       	push	r24
     bde:	9f 93       	push	r25
     be0:	af 93       	push	r26
     be2:	bf 93       	push	r27
     be4:	ef 93       	push	r30
     be6:	ff 93       	push	r31
     be8:	87 e0       	ldi	r24, 0x07	; 7
     bea:	80 93 46 04 	sts	0x0446, r24	; 0x800446 <__TEXT_REGION_LENGTH__+0x700446>
     bee:	84 e4       	ldi	r24, 0x44	; 68
     bf0:	80 93 26 04 	sts	0x0426, r24	; 0x800426 <__TEXT_REGION_LENGTH__+0x700426>
     bf4:	ec b3       	in	r30, 0x1c	; 28
     bf6:	88 e0       	ldi	r24, 0x08	; 8
     bf8:	e8 9f       	mul	r30, r24
     bfa:	f0 01       	movw	r30, r0
     bfc:	11 24       	eor	r1, r1
     bfe:	e4 53       	subi	r30, 0x34	; 52
     c00:	f5 4c       	sbci	r31, 0xC5	; 197
     c02:	a8 e2       	ldi	r26, 0x28	; 40
     c04:	ba e0       	ldi	r27, 0x0A	; 10
     c06:	96 e0       	ldi	r25, 0x06	; 6
     c08:	81 91       	ld	r24, Z+
     c0a:	8d 93       	st	X+, r24
     c0c:	9a 95       	dec	r25
     c0e:	e1 f7       	brne	.-8      	; 0xc08 <__vector_8+0x36>
     c10:	8b e0       	ldi	r24, 0x0B	; 11
     c12:	80 93 05 0a 	sts	0x0A05, r24	; 0x800a05 <__TEXT_REGION_LENGTH__+0x700a05>
     c16:	8c b3       	in	r24, 0x1c	; 28
     c18:	83 30       	cpi	r24, 0x03	; 3
     c1a:	58 f4       	brcc	.+22     	; 0xc32 <__vector_8+0x60>
     c1c:	8c b3       	in	r24, 0x1c	; 28
     c1e:	91 e0       	ldi	r25, 0x01	; 1
     c20:	01 c0       	rjmp	.+2      	; 0xc24 <__vector_8+0x52>
     c22:	99 0f       	add	r25, r25
     c24:	8a 95       	dec	r24
     c26:	ea f7       	brpl	.-6      	; 0xc22 <__vector_8+0x50>
     c28:	99 b9       	out	0x09, r25	; 9
     c2a:	8c b3       	in	r24, 0x1c	; 28
     c2c:	83 95       	inc	r24
     c2e:	8c bb       	out	0x1c, r24	; 28
     c30:	0a c0       	rjmp	.+20     	; 0xc46 <__vector_8+0x74>
     c32:	8c b3       	in	r24, 0x1c	; 28
     c34:	83 30       	cpi	r24, 0x03	; 3
     c36:	21 f4       	brne	.+8      	; 0xc40 <__vector_8+0x6e>
     c38:	2a 9a       	sbi	0x05, 2	; 5
     c3a:	83 95       	inc	r24
     c3c:	8c bb       	out	0x1c, r24	; 28
     c3e:	03 c0       	rjmp	.+6      	; 0xc46 <__vector_8+0x74>
     c40:	2e 9a       	sbi	0x05, 6	; 5
     c42:	88 27       	eor	r24, r24
     c44:	8c bb       	out	0x1c, r24	; 28
     c46:	80 91 69 3a 	lds	r24, 0x3A69	; 0x803a69 <timeout_I2C>
     c4a:	88 23       	and	r24, r24
     c4c:	29 f0       	breq	.+10     	; 0xc58 <__vector_8+0x86>
     c4e:	80 91 69 3a 	lds	r24, 0x3A69	; 0x803a69 <timeout_I2C>
     c52:	81 50       	subi	r24, 0x01	; 1
     c54:	80 93 69 3a 	sts	0x3A69, r24	; 0x803a69 <timeout_I2C>
     c58:	8f ef       	ldi	r24, 0xFF	; 255
     c5a:	80 93 0b 0a 	sts	0x0A0B, r24	; 0x800a0b <__TEXT_REGION_LENGTH__+0x700a0b>
     c5e:	ff 91       	pop	r31
     c60:	ef 91       	pop	r30
     c62:	bf 91       	pop	r27
     c64:	af 91       	pop	r26
     c66:	9f 91       	pop	r25
     c68:	8f 91       	pop	r24
     c6a:	0f 90       	pop	r0
     c6c:	0f be       	out	0x3f, r0	; 63
     c6e:	0f 90       	pop	r0
     c70:	1f 90       	pop	r1
     c72:	18 95       	reti

00000c74 <__vector_13>:
     c74:	1f 92       	push	r1
     c76:	0f 92       	push	r0
     c78:	0f b6       	in	r0, 0x3f	; 63
     c7a:	0f 92       	push	r0
     c7c:	11 24       	eor	r1, r1
     c7e:	8f 93       	push	r24
     c80:	9f 93       	push	r25
     c82:	ef 93       	push	r30
     c84:	ff 93       	push	r31
     c86:	e0 91 c2 3a 	lds	r30, 0x3AC2	; 0x803ac2 <serTxAddr>
     c8a:	f0 91 c3 3a 	lds	r31, 0x3AC3	; 0x803ac3 <serTxAddr+0x1>
     c8e:	80 81       	ld	r24, Z
     c90:	88 23       	and	r24, r24
     c92:	91 f0       	breq	.+36     	; 0xcb8 <__vector_13+0x44>
     c94:	80 81       	ld	r24, Z
     c96:	80 93 02 08 	sts	0x0802, r24	; 0x800802 <__TEXT_REGION_LENGTH__+0x700802>
     c9a:	80 91 c2 3a 	lds	r24, 0x3AC2	; 0x803ac2 <serTxAddr>
     c9e:	90 91 c3 3a 	lds	r25, 0x3AC3	; 0x803ac3 <serTxAddr+0x1>
     ca2:	01 96       	adiw	r24, 0x01	; 1
     ca4:	80 93 c2 3a 	sts	0x3AC2, r24	; 0x803ac2 <serTxAddr>
     ca8:	90 93 c3 3a 	sts	0x3AC3, r25	; 0x803ac3 <serTxAddr+0x1>
     cac:	80 91 05 08 	lds	r24, 0x0805	; 0x800805 <__TEXT_REGION_LENGTH__+0x700805>
     cb0:	80 62       	ori	r24, 0x20	; 32
     cb2:	80 93 05 08 	sts	0x0805, r24	; 0x800805 <__TEXT_REGION_LENGTH__+0x700805>
     cb6:	05 c0       	rjmp	.+10     	; 0xcc2 <__vector_13+0x4e>
     cb8:	81 e0       	ldi	r24, 0x01	; 1
     cba:	80 93 09 38 	sts	0x3809, r24	; 0x803809 <serTxDone>
     cbe:	10 92 45 0a 	sts	0x0A45, r1	; 0x800a45 <__TEXT_REGION_LENGTH__+0x700a45>
     cc2:	81 e0       	ldi	r24, 0x01	; 1
     cc4:	80 93 46 0a 	sts	0x0A46, r24	; 0x800a46 <__TEXT_REGION_LENGTH__+0x700a46>
     cc8:	ff 91       	pop	r31
     cca:	ef 91       	pop	r30
     ccc:	9f 91       	pop	r25
     cce:	8f 91       	pop	r24
     cd0:	0f 90       	pop	r0
     cd2:	0f be       	out	0x3f, r0	; 63
     cd4:	0f 90       	pop	r0
     cd6:	1f 90       	pop	r1
     cd8:	18 95       	reti

00000cda <__vector_14>:
     cda:	1f 92       	push	r1
     cdc:	0f 92       	push	r0
     cde:	0f b6       	in	r0, 0x3f	; 63
     ce0:	0f 92       	push	r0
     ce2:	11 24       	eor	r1, r1
     ce4:	2f 93       	push	r18
     ce6:	3f 93       	push	r19
     ce8:	4f 93       	push	r20
     cea:	8f 93       	push	r24
     cec:	9f 93       	push	r25
     cee:	ef 93       	push	r30
     cf0:	ff 93       	push	r31
     cf2:	e0 91 05 38 	lds	r30, 0x3805	; 0x803805 <auSmpAddr>
     cf6:	f0 91 06 38 	lds	r31, 0x3806	; 0x803806 <auSmpAddr+0x1>
     cfa:	80 81       	ld	r24, Z
     cfc:	81 11       	cpse	r24, r1
     cfe:	08 c0       	rjmp	.+16     	; 0xd10 <__vector_14+0x36>
     d00:	80 91 03 38 	lds	r24, 0x3803	; 0x803803 <auRepAddr>
     d04:	90 91 04 38 	lds	r25, 0x3804	; 0x803804 <auRepAddr+0x1>
     d08:	80 93 05 38 	sts	0x3805, r24	; 0x803805 <auSmpAddr>
     d0c:	90 93 06 38 	sts	0x3806, r25	; 0x803806 <auSmpAddr+0x1>
     d10:	e0 91 05 38 	lds	r30, 0x3805	; 0x803805 <auSmpAddr>
     d14:	f0 91 06 38 	lds	r31, 0x3806	; 0x803806 <auSmpAddr+0x1>
     d18:	80 81       	ld	r24, Z
     d1a:	88 23       	and	r24, r24
     d1c:	e1 f0       	breq	.+56     	; 0xd56 <__vector_14+0x7c>
     d1e:	20 81       	ld	r18, Z
     d20:	40 91 bf 3a 	lds	r20, 0x3ABF	; 0x803abf <auVolume>
     d24:	30 e0       	ldi	r19, 0x00	; 0
     d26:	2f 57       	subi	r18, 0x7F	; 127
     d28:	31 09       	sbc	r19, r1
     d2a:	42 9f       	mul	r20, r18
     d2c:	c0 01       	movw	r24, r0
     d2e:	43 9f       	mul	r20, r19
     d30:	90 0d       	add	r25, r0
     d32:	11 24       	eor	r1, r1
     d34:	89 2f       	mov	r24, r25
     d36:	99 0f       	add	r25, r25
     d38:	99 0b       	sbc	r25, r25
     d3a:	80 58       	subi	r24, 0x80	; 128
     d3c:	9f 4f       	sbci	r25, 0xFF	; 255
     d3e:	80 93 a1 06 	sts	0x06A1, r24	; 0x8006a1 <__TEXT_REGION_LENGTH__+0x7006a1>
     d42:	80 91 05 38 	lds	r24, 0x3805	; 0x803805 <auSmpAddr>
     d46:	90 91 06 38 	lds	r25, 0x3806	; 0x803806 <auSmpAddr+0x1>
     d4a:	01 96       	adiw	r24, 0x01	; 1
     d4c:	80 93 05 38 	sts	0x3805, r24	; 0x803805 <auSmpAddr>
     d50:	90 93 06 38 	sts	0x3806, r25	; 0x803806 <auSmpAddr+0x1>
     d54:	06 c0       	rjmp	.+12     	; 0xd62 <__vector_14+0x88>
     d56:	8f ef       	ldi	r24, 0xFF	; 255
     d58:	80 93 bf 3a 	sts	0x3ABF, r24	; 0x803abf <auVolume>
     d5c:	80 e8       	ldi	r24, 0x80	; 128
     d5e:	80 93 a1 06 	sts	0x06A1, r24	; 0x8006a1 <__TEXT_REGION_LENGTH__+0x7006a1>
     d62:	81 e0       	ldi	r24, 0x01	; 1
     d64:	80 93 56 0a 	sts	0x0A56, r24	; 0x800a56 <__TEXT_REGION_LENGTH__+0x700a56>
     d68:	ff 91       	pop	r31
     d6a:	ef 91       	pop	r30
     d6c:	9f 91       	pop	r25
     d6e:	8f 91       	pop	r24
     d70:	4f 91       	pop	r20
     d72:	3f 91       	pop	r19
     d74:	2f 91       	pop	r18
     d76:	0f 90       	pop	r0
     d78:	0f be       	out	0x3f, r0	; 63
     d7a:	0f 90       	pop	r0
     d7c:	1f 90       	pop	r1
     d7e:	18 95       	reti

00000d80 <__vector_27>:
     d80:	1f 92       	push	r1
     d82:	0f 92       	push	r0
     d84:	0f b6       	in	r0, 0x3f	; 63
     d86:	0f 92       	push	r0
     d88:	11 24       	eor	r1, r1
     d8a:	8f 93       	push	r24
     d8c:	ef 93       	push	r30
     d8e:	ff 93       	push	r31
     d90:	80 91 4c 38 	lds	r24, 0x384C	; 0x80384c <serRxDone>
     d94:	81 11       	cpse	r24, r1
     d96:	44 c0       	rjmp	.+136    	; 0xe20 <__vector_27+0xa0>
     d98:	ed b3       	in	r30, 0x1d	; 29
     d9a:	f0 e0       	ldi	r31, 0x00	; 0
     d9c:	80 91 00 08 	lds	r24, 0x0800	; 0x800800 <__TEXT_REGION_LENGTH__+0x700800>
     da0:	e2 58       	subi	r30, 0x82	; 130
     da2:	f5 4c       	sbci	r31, 0xC5	; 197
     da4:	80 83       	st	Z, r24
     da6:	ed b3       	in	r30, 0x1d	; 29
     da8:	f0 e0       	ldi	r31, 0x00	; 0
     daa:	e2 58       	subi	r30, 0x82	; 130
     dac:	f5 4c       	sbci	r31, 0xC5	; 197
     dae:	80 81       	ld	r24, Z
     db0:	80 93 02 08 	sts	0x0802, r24	; 0x800802 <__TEXT_REGION_LENGTH__+0x700802>
     db4:	ed b3       	in	r30, 0x1d	; 29
     db6:	f0 e0       	ldi	r31, 0x00	; 0
     db8:	e2 58       	subi	r30, 0x82	; 130
     dba:	f5 4c       	sbci	r31, 0xC5	; 197
     dbc:	80 81       	ld	r24, Z
     dbe:	8a 30       	cpi	r24, 0x0A	; 10
     dc0:	39 f0       	breq	.+14     	; 0xdd0 <__vector_27+0x50>
     dc2:	ed b3       	in	r30, 0x1d	; 29
     dc4:	f0 e0       	ldi	r31, 0x00	; 0
     dc6:	e2 58       	subi	r30, 0x82	; 130
     dc8:	f5 4c       	sbci	r31, 0xC5	; 197
     dca:	80 81       	ld	r24, Z
     dcc:	8d 30       	cpi	r24, 0x0D	; 13
     dce:	49 f4       	brne	.+18     	; 0xde2 <__vector_27+0x62>
     dd0:	ed b3       	in	r30, 0x1d	; 29
     dd2:	f0 e0       	ldi	r31, 0x00	; 0
     dd4:	e2 58       	subi	r30, 0x82	; 130
     dd6:	f5 4c       	sbci	r31, 0xC5	; 197
     dd8:	10 82       	st	Z, r1
     dda:	81 e0       	ldi	r24, 0x01	; 1
     ddc:	80 93 4c 38 	sts	0x384C, r24	; 0x80384c <serRxDone>
     de0:	1f c0       	rjmp	.+62     	; 0xe20 <__vector_27+0xa0>
     de2:	ed b3       	in	r30, 0x1d	; 29
     de4:	f0 e0       	ldi	r31, 0x00	; 0
     de6:	e2 58       	subi	r30, 0x82	; 130
     de8:	f5 4c       	sbci	r31, 0xC5	; 197
     dea:	80 81       	ld	r24, Z
     dec:	88 30       	cpi	r24, 0x08	; 8
     dee:	39 f0       	breq	.+14     	; 0xdfe <__vector_27+0x7e>
     df0:	ed b3       	in	r30, 0x1d	; 29
     df2:	f0 e0       	ldi	r31, 0x00	; 0
     df4:	e2 58       	subi	r30, 0x82	; 130
     df6:	f5 4c       	sbci	r31, 0xC5	; 197
     df8:	80 81       	ld	r24, Z
     dfa:	8f 37       	cpi	r24, 0x7F	; 127
     dfc:	59 f4       	brne	.+22     	; 0xe14 <__vector_27+0x94>
     dfe:	8d b3       	in	r24, 0x1d	; 29
     e00:	88 23       	and	r24, r24
     e02:	41 f0       	breq	.+16     	; 0xe14 <__vector_27+0x94>
     e04:	ed b3       	in	r30, 0x1d	; 29
     e06:	f0 e0       	ldi	r31, 0x00	; 0
     e08:	e2 58       	subi	r30, 0x82	; 130
     e0a:	f5 4c       	sbci	r31, 0xC5	; 197
     e0c:	10 82       	st	Z, r1
     e0e:	8d b3       	in	r24, 0x1d	; 29
     e10:	81 50       	subi	r24, 0x01	; 1
     e12:	05 c0       	rjmp	.+10     	; 0xe1e <__vector_27+0x9e>
     e14:	8d b3       	in	r24, 0x1d	; 29
     e16:	80 34       	cpi	r24, 0x40	; 64
     e18:	18 f4       	brcc	.+6      	; 0xe20 <__vector_27+0xa0>
     e1a:	8d b3       	in	r24, 0x1d	; 29
     e1c:	8f 5f       	subi	r24, 0xFF	; 255
     e1e:	8d bb       	out	0x1d, r24	; 29
     e20:	80 e8       	ldi	r24, 0x80	; 128
     e22:	80 93 04 08 	sts	0x0804, r24	; 0x800804 <__TEXT_REGION_LENGTH__+0x700804>
     e26:	ff 91       	pop	r31
     e28:	ef 91       	pop	r30
     e2a:	8f 91       	pop	r24
     e2c:	0f 90       	pop	r0
     e2e:	0f be       	out	0x3f, r0	; 63
     e30:	0f 90       	pop	r0
     e32:	1f 90       	pop	r1
     e34:	18 95       	reti

00000e36 <__vector_28>:
     e36:	1f 92       	push	r1
     e38:	0f 92       	push	r0
     e3a:	0f b6       	in	r0, 0x3f	; 63
     e3c:	0f 92       	push	r0
     e3e:	11 24       	eor	r1, r1
     e40:	8f 93       	push	r24
     e42:	ef 93       	push	r30
     e44:	ff 93       	push	r31
     e46:	10 92 4a 0a 	sts	0x0A4A, r1	; 0x800a4a <__TEXT_REGION_LENGTH__+0x700a4a>
     e4a:	10 92 4b 0a 	sts	0x0A4B, r1	; 0x800a4b <__TEXT_REGION_LENGTH__+0x700a4b>
     e4e:	81 e0       	ldi	r24, 0x01	; 1
     e50:	80 93 45 0a 	sts	0x0A45, r24	; 0x800a45 <__TEXT_REGION_LENGTH__+0x700a45>
     e54:	e5 e0       	ldi	r30, 0x05	; 5
     e56:	f8 e0       	ldi	r31, 0x08	; 8
     e58:	80 81       	ld	r24, Z
     e5a:	8f 7d       	andi	r24, 0xDF	; 223
     e5c:	80 83       	st	Z, r24
     e5e:	ff 91       	pop	r31
     e60:	ef 91       	pop	r30
     e62:	8f 91       	pop	r24
     e64:	0f 90       	pop	r0
     e66:	0f be       	out	0x3f, r0	; 63
     e68:	0f 90       	pop	r0
     e6a:	1f 90       	pop	r1
     e6c:	18 95       	reti

00000e6e <__vector_20>:
     e6e:	1f 92       	push	r1
     e70:	0f 92       	push	r0
     e72:	0f b6       	in	r0, 0x3f	; 63
     e74:	0f 92       	push	r0
     e76:	11 24       	eor	r1, r1
     e78:	8f 93       	push	r24
     e7a:	9f 93       	push	r25
     e7c:	80 91 3e 38 	lds	r24, 0x383E	; 0x80383e <adc0Chg>
     e80:	81 11       	cpse	r24, r1
     e82:	12 c0       	rjmp	.+36     	; 0xea8 <__vector_20+0x3a>
     e84:	80 91 06 06 	lds	r24, 0x0606	; 0x800606 <__TEXT_REGION_LENGTH__+0x700606>
     e88:	8e 31       	cpi	r24, 0x1E	; 30
     e8a:	49 f4       	brne	.+18     	; 0xe9e <__vector_20+0x30>
     e8c:	80 91 10 06 	lds	r24, 0x0610	; 0x800610 <__TEXT_REGION_LENGTH__+0x700610>
     e90:	90 91 11 06 	lds	r25, 0x0611	; 0x800611 <__TEXT_REGION_LENGTH__+0x700611>
     e94:	80 93 f6 3a 	sts	0x3AF6, r24	; 0x803af6 <adcTemp>
     e98:	90 93 f7 3a 	sts	0x3AF7, r25	; 0x803af7 <adcTemp+0x1>
     e9c:	0a c0       	rjmp	.+20     	; 0xeb2 <__vector_20+0x44>
     e9e:	80 91 10 06 	lds	r24, 0x0610	; 0x800610 <__TEXT_REGION_LENGTH__+0x700610>
     ea2:	80 93 cb 3a 	sts	0x3ACB, r24	; 0x803acb <auIn>
     ea6:	05 c0       	rjmp	.+10     	; 0xeb2 <__vector_20+0x44>
     ea8:	80 91 3e 38 	lds	r24, 0x383E	; 0x80383e <adc0Chg>
     eac:	81 50       	subi	r24, 0x01	; 1
     eae:	80 93 3e 38 	sts	0x383E, r24	; 0x80383e <adc0Chg>
     eb2:	81 e0       	ldi	r24, 0x01	; 1
     eb4:	80 93 0b 06 	sts	0x060B, r24	; 0x80060b <__TEXT_REGION_LENGTH__+0x70060b>
     eb8:	9f 91       	pop	r25
     eba:	8f 91       	pop	r24
     ebc:	0f 90       	pop	r0
     ebe:	0f be       	out	0x3f, r0	; 63
     ec0:	0f 90       	pop	r0
     ec2:	1f 90       	pop	r1
     ec4:	18 95       	reti

00000ec6 <__vector_22>:
     ec6:	1f 92       	push	r1
     ec8:	0f 92       	push	r0
     eca:	0f b6       	in	r0, 0x3f	; 63
     ecc:	0f 92       	push	r0
     ece:	11 24       	eor	r1, r1
     ed0:	8f 93       	push	r24
     ed2:	9f 93       	push	r25
     ed4:	80 91 46 06 	lds	r24, 0x0646	; 0x800646 <__TEXT_REGION_LENGTH__+0x700646>
     ed8:	81 11       	cpse	r24, r1
     eda:	0a c0       	rjmp	.+20     	; 0xef0 <__vector_22+0x2a>
     edc:	80 91 50 06 	lds	r24, 0x0650	; 0x800650 <__TEXT_REGION_LENGTH__+0x700650>
     ee0:	90 91 51 06 	lds	r25, 0x0651	; 0x800651 <__TEXT_REGION_LENGTH__+0x700651>
     ee4:	80 93 c6 3a 	sts	0x3AC6, r24	; 0x803ac6 <adcPhot>
     ee8:	90 93 c7 3a 	sts	0x3AC7, r25	; 0x803ac7 <adcPhot+0x1>
     eec:	81 e0       	ldi	r24, 0x01	; 1
     eee:	10 c0       	rjmp	.+32     	; 0xf10 <__vector_22+0x4a>
     ef0:	80 91 46 06 	lds	r24, 0x0646	; 0x800646 <__TEXT_REGION_LENGTH__+0x700646>
     ef4:	81 30       	cpi	r24, 0x01	; 1
     ef6:	79 f4       	brne	.+30     	; 0xf16 <__vector_22+0x50>
     ef8:	88 e0       	ldi	r24, 0x08	; 8
     efa:	80 93 06 04 	sts	0x0406, r24	; 0x800406 <__TEXT_REGION_LENGTH__+0x700406>
     efe:	80 91 50 06 	lds	r24, 0x0650	; 0x800650 <__TEXT_REGION_LENGTH__+0x700650>
     f02:	90 91 51 06 	lds	r25, 0x0651	; 0x800651 <__TEXT_REGION_LENGTH__+0x700651>
     f06:	80 93 c4 3a 	sts	0x3AC4, r24	; 0x803ac4 <adcHall>
     f0a:	90 93 c5 3a 	sts	0x3AC5, r25	; 0x803ac5 <adcHall+0x1>
     f0e:	84 e0       	ldi	r24, 0x04	; 4
     f10:	80 93 46 06 	sts	0x0646, r24	; 0x800646 <__TEXT_REGION_LENGTH__+0x700646>
     f14:	10 c0       	rjmp	.+32     	; 0xf36 <__vector_22+0x70>
     f16:	80 91 50 06 	lds	r24, 0x0650	; 0x800650 <__TEXT_REGION_LENGTH__+0x700650>
     f1a:	90 91 51 06 	lds	r25, 0x0651	; 0x800651 <__TEXT_REGION_LENGTH__+0x700651>
     f1e:	80 93 c0 3a 	sts	0x3AC0, r24	; 0x803ac0 <adcBtns>
     f22:	90 93 c1 3a 	sts	0x3AC1, r25	; 0x803ac1 <adcBtns+0x1>
     f26:	8f b3       	in	r24, 0x1f	; 31
     f28:	8f 30       	cpi	r24, 0x0F	; 15
     f2a:	29 f4       	brne	.+10     	; 0xf36 <__vector_22+0x70>
     f2c:	10 92 46 06 	sts	0x0646, r1	; 0x800646 <__TEXT_REGION_LENGTH__+0x700646>
     f30:	88 e0       	ldi	r24, 0x08	; 8
     f32:	80 93 05 04 	sts	0x0405, r24	; 0x800405 <__TEXT_REGION_LENGTH__+0x700405>
     f36:	8f b3       	in	r24, 0x1f	; 31
     f38:	90 e0       	ldi	r25, 0x00	; 0
     f3a:	01 96       	adiw	r24, 0x01	; 1
     f3c:	8f 70       	andi	r24, 0x0F	; 15
     f3e:	99 27       	eor	r25, r25
     f40:	8f bb       	out	0x1f, r24	; 31
     f42:	81 e0       	ldi	r24, 0x01	; 1
     f44:	80 93 4b 06 	sts	0x064B, r24	; 0x80064b <__TEXT_REGION_LENGTH__+0x70064b>
     f48:	9f 91       	pop	r25
     f4a:	8f 91       	pop	r24
     f4c:	0f 90       	pop	r0
     f4e:	0f be       	out	0x3f, r0	; 63
     f50:	0f 90       	pop	r0
     f52:	1f 90       	pop	r1
     f54:	18 95       	reti

00000f56 <__vector_6>:
     f56:	1f 92       	push	r1
     f58:	0f 92       	push	r0
     f5a:	0f b6       	in	r0, 0x3f	; 63
     f5c:	0f 92       	push	r0
     f5e:	11 24       	eor	r1, r1
     f60:	2f 93       	push	r18
     f62:	3f 93       	push	r19
     f64:	8f 93       	push	r24
     f66:	9f 93       	push	r25
     f68:	80 91 43 01 	lds	r24, 0x0143	; 0x800143 <__TEXT_REGION_LENGTH__+0x700143>
     f6c:	81 ff       	sbrs	r24, 1
     f6e:	36 c0       	rjmp	.+108    	; 0xfdc <__vector_6+0x86>
     f70:	80 91 48 38 	lds	r24, 0x3848	; 0x803848 <buttonMark>
     f74:	8f 3f       	cpi	r24, 0xFF	; 255
     f76:	29 f0       	breq	.+10     	; 0xf82 <__vector_6+0x2c>
     f78:	80 91 48 38 	lds	r24, 0x3848	; 0x803848 <buttonMark>
     f7c:	8f 5f       	subi	r24, 0xFF	; 255
     f7e:	80 93 48 38 	sts	0x3848, r24	; 0x803848 <buttonMark>
     f82:	80 91 48 01 	lds	r24, 0x0148	; 0x800148 <__TEXT_REGION_LENGTH__+0x700148>
     f86:	90 91 49 01 	lds	r25, 0x0149	; 0x800149 <__TEXT_REGION_LENGTH__+0x700149>
     f8a:	82 96       	adiw	r24, 0x22	; 34
     f8c:	80 93 f8 3a 	sts	0x3AF8, r24	; 0x803af8 <tmp16bit>
     f90:	90 93 f9 3a 	sts	0x3AF9, r25	; 0x803af9 <tmp16bit+0x1>
     f94:	20 91 4a 01 	lds	r18, 0x014A	; 0x80014a <__TEXT_REGION_LENGTH__+0x70014a>
     f98:	30 91 4b 01 	lds	r19, 0x014B	; 0x80014b <__TEXT_REGION_LENGTH__+0x70014b>
     f9c:	80 91 f8 3a 	lds	r24, 0x3AF8	; 0x803af8 <tmp16bit>
     fa0:	90 91 f9 3a 	lds	r25, 0x3AF9	; 0x803af9 <tmp16bit+0x1>
     fa4:	28 17       	cp	r18, r24
     fa6:	39 07       	cpc	r19, r25
     fa8:	58 f4       	brcc	.+22     	; 0xfc0 <__vector_6+0x6a>
     faa:	20 91 4a 01 	lds	r18, 0x014A	; 0x80014a <__TEXT_REGION_LENGTH__+0x70014a>
     fae:	30 91 4b 01 	lds	r19, 0x014B	; 0x80014b <__TEXT_REGION_LENGTH__+0x70014b>
     fb2:	80 91 f8 3a 	lds	r24, 0x3AF8	; 0x803af8 <tmp16bit>
     fb6:	90 91 f9 3a 	lds	r25, 0x3AF9	; 0x803af9 <tmp16bit+0x1>
     fba:	82 1b       	sub	r24, r18
     fbc:	93 0b       	sbc	r25, r19
     fbe:	e6 cf       	rjmp	.-52     	; 0xf8c <__vector_6+0x36>
     fc0:	80 91 41 01 	lds	r24, 0x0141	; 0x800141 <__TEXT_REGION_LENGTH__+0x700141>
     fc4:	83 fd       	sbrc	r24, 3
     fc6:	fc cf       	rjmp	.-8      	; 0xfc0 <__vector_6+0x6a>
     fc8:	80 91 f8 3a 	lds	r24, 0x3AF8	; 0x803af8 <tmp16bit>
     fcc:	90 91 f9 3a 	lds	r25, 0x3AF9	; 0x803af9 <tmp16bit+0x1>
     fd0:	80 93 4c 01 	sts	0x014C, r24	; 0x80014c <__TEXT_REGION_LENGTH__+0x70014c>
     fd4:	90 93 4d 01 	sts	0x014D, r25	; 0x80014d <__TEXT_REGION_LENGTH__+0x70014d>
     fd8:	82 e0       	ldi	r24, 0x02	; 2
     fda:	06 c0       	rjmp	.+12     	; 0xfe8 <__vector_6+0x92>
     fdc:	80 91 49 38 	lds	r24, 0x3849	; 0x803849 <minuteMark>
     fe0:	8f 5f       	subi	r24, 0xFF	; 255
     fe2:	80 93 49 38 	sts	0x3849, r24	; 0x803849 <minuteMark>
     fe6:	81 e0       	ldi	r24, 0x01	; 1
     fe8:	80 93 43 01 	sts	0x0143, r24	; 0x800143 <__TEXT_REGION_LENGTH__+0x700143>
     fec:	9f 91       	pop	r25
     fee:	8f 91       	pop	r24
     ff0:	3f 91       	pop	r19
     ff2:	2f 91       	pop	r18
     ff4:	0f 90       	pop	r0
     ff6:	0f be       	out	0x3f, r0	; 63
     ff8:	0f 90       	pop	r0
     ffa:	1f 90       	pop	r1
     ffc:	18 95       	reti

00000ffe <__vector_7>:
     ffe:	1f 92       	push	r1
    1000:	0f 92       	push	r0
    1002:	0f b6       	in	r0, 0x3f	; 63
    1004:	0f 92       	push	r0
    1006:	11 24       	eor	r1, r1
    1008:	8f 93       	push	r24
    100a:	9f 93       	push	r25
    100c:	91 e0       	ldi	r25, 0x01	; 1
    100e:	90 93 48 06 	sts	0x0648, r25	; 0x800648 <__TEXT_REGION_LENGTH__+0x700648>
    1012:	80 91 4b 38 	lds	r24, 0x384B	; 0x80384b <fastTicker>
    1016:	8f 5f       	subi	r24, 0xFF	; 255
    1018:	80 93 4b 38 	sts	0x384B, r24	; 0x80384b <fastTicker>
    101c:	90 93 53 01 	sts	0x0153, r25	; 0x800153 <__TEXT_REGION_LENGTH__+0x700153>
    1020:	9f 91       	pop	r25
    1022:	8f 91       	pop	r24
    1024:	0f 90       	pop	r0
    1026:	0f be       	out	0x3f, r0	; 63
    1028:	0f 90       	pop	r0
    102a:	1f 90       	pop	r1
    102c:	18 95       	reti

0000102e <EERead>:
    102e:	90 91 02 10 	lds	r25, 0x1002	; 0x801002 <__TEXT_REGION_LENGTH__+0x701002>
    1032:	91 fd       	sbrc	r25, 1
    1034:	fc cf       	rjmp	.-8      	; 0x102e <EERead>
    1036:	fb 01       	movw	r30, r22
    1038:	48 0f       	add	r20, r24
    103a:	84 17       	cp	r24, r20
    103c:	39 f0       	breq	.+14     	; 0x104c <EERead+0x1e>
    103e:	a8 2f       	mov	r26, r24
    1040:	b0 e0       	ldi	r27, 0x00	; 0
    1042:	bc 5e       	subi	r27, 0xEC	; 236
    1044:	9c 91       	ld	r25, X
    1046:	91 93       	st	Z+, r25
    1048:	8f 5f       	subi	r24, 0xFF	; 255
    104a:	f7 cf       	rjmp	.-18     	; 0x103a <EERead+0xc>
    104c:	08 95       	ret

0000104e <EEWrite>:
    104e:	9d e9       	ldi	r25, 0x9D	; 157
    1050:	24 e0       	ldi	r18, 0x04	; 4
    1052:	33 e0       	ldi	r19, 0x03	; 3
    1054:	44 23       	and	r20, r20
    1056:	09 f1       	breq	.+66     	; 0x109a <EEWrite+0x4c>
    1058:	50 91 02 10 	lds	r21, 0x1002	; 0x801002 <__TEXT_REGION_LENGTH__+0x701002>
    105c:	51 fd       	sbrc	r21, 1
    105e:	fc cf       	rjmp	.-8      	; 0x1058 <EEWrite+0xa>
    1060:	94 bf       	out	0x34, r25	; 52
    1062:	20 93 00 10 	sts	0x1000, r18	; 0x801000 <__TEXT_REGION_LENGTH__+0x701000>
    1066:	e8 2f       	mov	r30, r24
    1068:	58 2f       	mov	r21, r24
    106a:	5f 71       	andi	r21, 0x1F	; 31
    106c:	8f 5f       	subi	r24, 0xFF	; 255
    106e:	6f 5f       	subi	r22, 0xFF	; 255
    1070:	7f 4f       	sbci	r23, 0xFF	; 255
    1072:	db 01       	movw	r26, r22
    1074:	11 97       	sbiw	r26, 0x01	; 1
    1076:	ac 91       	ld	r26, X
    1078:	f0 e0       	ldi	r31, 0x00	; 0
    107a:	fc 5e       	subi	r31, 0xEC	; 236
    107c:	a0 83       	st	Z, r26
    107e:	41 50       	subi	r20, 0x01	; 1
    1080:	19 f0       	breq	.+6      	; 0x1088 <EEWrite+0x3a>
    1082:	e8 2f       	mov	r30, r24
    1084:	5f 31       	cpi	r21, 0x1F	; 31
    1086:	81 f7       	brne	.-32     	; 0x1068 <EEWrite+0x1a>
    1088:	94 bf       	out	0x34, r25	; 52
    108a:	30 93 00 10 	sts	0x1000, r19	; 0x801000 <__TEXT_REGION_LENGTH__+0x701000>
    108e:	50 91 02 10 	lds	r21, 0x1002	; 0x801002 <__TEXT_REGION_LENGTH__+0x701002>
    1092:	52 ff       	sbrs	r21, 2
    1094:	df cf       	rjmp	.-66     	; 0x1054 <EEWrite+0x6>
    1096:	81 e0       	ldi	r24, 0x01	; 1
    1098:	08 95       	ret
    109a:	80 e0       	ldi	r24, 0x00	; 0
    109c:	08 95       	ret

0000109e <DecryptData>:
    109e:	f9 01       	movw	r30, r18
    10a0:	9c 01       	movw	r18, r24
    10a2:	2e 1b       	sub	r18, r30
    10a4:	3f 0b       	sbc	r19, r31
    10a6:	88 e0       	ldi	r24, 0x08	; 8
    10a8:	48 9f       	mul	r20, r24
    10aa:	a0 01       	movw	r20, r0
    10ac:	11 24       	eor	r1, r1
    10ae:	40 5b       	subi	r20, 0xB0	; 176
    10b0:	50 44       	sbci	r21, 0x40	; 64
    10b2:	66 23       	and	r22, r22
    10b4:	69 f0       	breq	.+26     	; 0x10d0 <DecryptData+0x32>
    10b6:	df 01       	movw	r26, r30
    10b8:	a2 0f       	add	r26, r18
    10ba:	b3 1f       	adc	r27, r19
    10bc:	a7 70       	andi	r26, 0x07	; 7
    10be:	bb 27       	eor	r27, r27
    10c0:	a4 0f       	add	r26, r20
    10c2:	b5 1f       	adc	r27, r21
    10c4:	80 81       	ld	r24, Z
    10c6:	9c 91       	ld	r25, X
    10c8:	98 27       	eor	r25, r24
    10ca:	91 93       	st	Z+, r25
    10cc:	61 50       	subi	r22, 0x01	; 1
    10ce:	f1 cf       	rjmp	.-30     	; 0x10b2 <DecryptData+0x14>
    10d0:	08 95       	ret

000010d2 <ExtEERead>:
    10d2:	a2 e0       	ldi	r26, 0x02	; 2
    10d4:	b0 e0       	ldi	r27, 0x00	; 0
    10d6:	ef e6       	ldi	r30, 0x6F	; 111
    10d8:	f8 e0       	ldi	r31, 0x08	; 8
    10da:	0c 94 50 1f 	jmp	0x3ea0	; 0x3ea0 <__prologue_saves__+0x10>
    10de:	d6 2e       	mov	r13, r22
    10e0:	c4 2e       	mov	r12, r20
    10e2:	59 01       	movw	r10, r18
    10e4:	7c 01       	movw	r14, r24
    10e6:	e8 94       	clt
    10e8:	f7 f8       	bld	r15, 7
    10ea:	f9 82       	std	Y+1, r15	; 0x01
    10ec:	ea 82       	std	Y+2, r14	; 0x02
    10ee:	06 2f       	mov	r16, r22
    10f0:	42 e0       	ldi	r20, 0x02	; 2
    10f2:	be 01       	movw	r22, r28
    10f4:	6f 5f       	subi	r22, 0xFF	; 255
    10f6:	7f 4f       	sbci	r23, 0xFF	; 255
    10f8:	80 e5       	ldi	r24, 0x50	; 80
    10fa:	08 da       	rcall	.-3056   	; 0x50c <I2C_read_bytes>
    10fc:	18 2f       	mov	r17, r24
    10fe:	81 11       	cpse	r24, r1
    1100:	05 c0       	rjmp	.+10     	; 0x110c <ExtEERead+0x3a>
    1102:	95 01       	movw	r18, r10
    1104:	4c 2d       	mov	r20, r12
    1106:	6d 2d       	mov	r22, r13
    1108:	c7 01       	movw	r24, r14
    110a:	c9 df       	rcall	.-110    	; 0x109e <DecryptData>
    110c:	81 2f       	mov	r24, r17
    110e:	22 96       	adiw	r28, 0x02	; 2
    1110:	ea e0       	ldi	r30, 0x0A	; 10
    1112:	0c 94 69 1f 	jmp	0x3ed2	; 0x3ed2 <__epilogue_restores__+0x10>

00001116 <SerSend>:
    1116:	20 91 09 38 	lds	r18, 0x3809	; 0x803809 <serTxDone>
    111a:	22 23       	and	r18, r18
    111c:	59 f0       	breq	.+22     	; 0x1134 <SerSend+0x1e>
    111e:	80 93 c2 3a 	sts	0x3AC2, r24	; 0x803ac2 <serTxAddr>
    1122:	90 93 c3 3a 	sts	0x3AC3, r25	; 0x803ac3 <serTxAddr+0x1>
    1126:	10 92 09 38 	sts	0x3809, r1	; 0x803809 <serTxDone>
    112a:	81 e0       	ldi	r24, 0x01	; 1
    112c:	80 93 45 0a 	sts	0x0A45, r24	; 0x800a45 <__TEXT_REGION_LENGTH__+0x700a45>
    1130:	80 e0       	ldi	r24, 0x00	; 0
    1132:	08 95       	ret
    1134:	81 e0       	ldi	r24, 0x01	; 1
    1136:	08 95       	ret

00001138 <SerSpeed>:
    1138:	28 2f       	mov	r18, r24
    113a:	81 11       	cpse	r24, r1
    113c:	01 c0       	rjmp	.+2      	; 0x1140 <SerSpeed+0x8>
    113e:	21 e0       	ldi	r18, 0x01	; 1
    1140:	8f ef       	ldi	r24, 0xFF	; 255
    1142:	90 e0       	ldi	r25, 0x00	; 0
    1144:	82 1b       	sub	r24, r18
    1146:	91 09       	sbc	r25, r1
    1148:	98 2f       	mov	r25, r24
    114a:	88 27       	eor	r24, r24
    114c:	81 50       	subi	r24, 0x01	; 1
    114e:	9f 4f       	sbci	r25, 0xFF	; 255
    1150:	80 93 4c 0a 	sts	0x0A4C, r24	; 0x800a4c <__TEXT_REGION_LENGTH__+0x700a4c>
    1154:	90 93 4d 0a 	sts	0x0A4D, r25	; 0x800a4d <__TEXT_REGION_LENGTH__+0x700a4d>
    1158:	08 95       	ret

0000115a <SelectTSens>:
    115a:	8f ef       	ldi	r24, 0xFF	; 255
    115c:	80 93 3e 38 	sts	0x383E, r24	; 0x80383e <adc0Chg>
    1160:	82 e1       	ldi	r24, 0x12	; 18
    1162:	80 93 a0 00 	sts	0x00A0, r24	; 0x8000a0 <__TEXT_REGION_LENGTH__+0x7000a0>
    1166:	e0 e0       	ldi	r30, 0x00	; 0
    1168:	f6 e0       	ldi	r31, 0x06	; 6
    116a:	80 81       	ld	r24, Z
    116c:	8b 7f       	andi	r24, 0xFB	; 251
    116e:	80 83       	st	Z, r24
    1170:	8e e1       	ldi	r24, 0x1E	; 30
    1172:	80 93 06 06 	sts	0x0606, r24	; 0x800606 <__TEXT_REGION_LENGTH__+0x700606>
    1176:	08 95       	ret

00001178 <SelectAuIn>:
    1178:	8f ef       	ldi	r24, 0xFF	; 255
    117a:	80 93 3e 38 	sts	0x383E, r24	; 0x80383e <adc0Chg>
    117e:	82 e2       	ldi	r24, 0x22	; 34
    1180:	80 93 a0 00 	sts	0x00A0, r24	; 0x8000a0 <__TEXT_REGION_LENGTH__+0x7000a0>
    1184:	e0 e0       	ldi	r30, 0x00	; 0
    1186:	f6 e0       	ldi	r31, 0x06	; 6
    1188:	80 81       	ld	r24, Z
    118a:	84 60       	ori	r24, 0x04	; 4
    118c:	80 83       	st	Z, r24
    118e:	87 e0       	ldi	r24, 0x07	; 7
    1190:	80 93 06 06 	sts	0x0606, r24	; 0x800606 <__TEXT_REGION_LENGTH__+0x700606>
    1194:	08 95       	ret

00001196 <CheckButtons>:
    1196:	80 91 c0 3a 	lds	r24, 0x3AC0	; 0x803ac0 <adcBtns>
    119a:	90 91 c1 3a 	lds	r25, 0x3AC1	; 0x803ac1 <adcBtns+0x1>
    119e:	24 e0       	ldi	r18, 0x04	; 4
    11a0:	96 95       	lsr	r25
    11a2:	87 95       	ror	r24
    11a4:	2a 95       	dec	r18
    11a6:	e1 f7       	brne	.-8      	; 0x11a0 <CheckButtons+0xa>
    11a8:	99 27       	eor	r25, r25
    11aa:	80 36       	cpi	r24, 0x60	; 96
    11ac:	91 05       	cpc	r25, r1
    11ae:	40 f4       	brcc	.+16     	; 0x11c0 <CheckButtons+0x2a>
    11b0:	8f 34       	cpi	r24, 0x4F	; 79
    11b2:	91 05       	cpc	r25, r1
    11b4:	88 f4       	brcc	.+34     	; 0x11d8 <CheckButtons+0x42>
    11b6:	c0 97       	sbiw	r24, 0x30	; 48
    11b8:	09 97       	sbiw	r24, 0x09	; 9
    11ba:	90 f4       	brcc	.+36     	; 0x11e0 <CheckButtons+0x4a>
    11bc:	92 e0       	ldi	r25, 0x02	; 2
    11be:	11 c0       	rjmp	.+34     	; 0x11e2 <CheckButtons+0x4c>
    11c0:	85 37       	cpi	r24, 0x75	; 117
    11c2:	91 05       	cpc	r25, r1
    11c4:	68 f0       	brcs	.+26     	; 0x11e0 <CheckButtons+0x4a>
    11c6:	8e 38       	cpi	r24, 0x8E	; 142
    11c8:	91 05       	cpc	r25, r1
    11ca:	40 f0       	brcs	.+16     	; 0x11dc <CheckButtons+0x46>
    11cc:	8e 59       	subi	r24, 0x9E	; 158
    11ce:	91 09       	sbc	r25, r1
    11d0:	81 97       	sbiw	r24, 0x21	; 33
    11d2:	30 f4       	brcc	.+12     	; 0x11e0 <CheckButtons+0x4a>
    11d4:	90 e0       	ldi	r25, 0x00	; 0
    11d6:	05 c0       	rjmp	.+10     	; 0x11e2 <CheckButtons+0x4c>
    11d8:	93 e0       	ldi	r25, 0x03	; 3
    11da:	03 c0       	rjmp	.+6      	; 0x11e2 <CheckButtons+0x4c>
    11dc:	91 e0       	ldi	r25, 0x01	; 1
    11de:	01 c0       	rjmp	.+2      	; 0x11e2 <CheckButtons+0x4c>
    11e0:	9f ef       	ldi	r25, 0xFF	; 255
    11e2:	80 91 2b 38 	lds	r24, 0x382B	; 0x80382b <previousValue.3914>
    11e6:	98 17       	cp	r25, r24
    11e8:	19 f0       	breq	.+6      	; 0x11f0 <CheckButtons+0x5a>
    11ea:	90 93 2b 38 	sts	0x382B, r25	; 0x80382b <previousValue.3914>
    11ee:	8f ef       	ldi	r24, 0xFF	; 255
    11f0:	08 95       	ret

000011f2 <lfsr>:
    11f2:	80 91 63 38 	lds	r24, 0x3863	; 0x803863 <lfsrSeed>
    11f6:	90 91 64 38 	lds	r25, 0x3864	; 0x803864 <lfsrSeed+0x1>
    11fa:	9c 01       	movw	r18, r24
    11fc:	32 2f       	mov	r19, r18
    11fe:	22 27       	eor	r18, r18
    1200:	32 95       	swap	r19
    1202:	33 0f       	add	r19, r19
    1204:	30 7e       	andi	r19, 0xE0	; 224
    1206:	82 27       	eor	r24, r18
    1208:	93 27       	eor	r25, r19
    120a:	9c 01       	movw	r18, r24
    120c:	23 2f       	mov	r18, r19
    120e:	33 27       	eor	r19, r19
    1210:	26 95       	lsr	r18
    1212:	82 27       	eor	r24, r18
    1214:	93 27       	eor	r25, r19
    1216:	9c 01       	movw	r18, r24
    1218:	36 95       	lsr	r19
    121a:	32 2f       	mov	r19, r18
    121c:	22 27       	eor	r18, r18
    121e:	37 95       	ror	r19
    1220:	27 95       	ror	r18
    1222:	82 27       	eor	r24, r18
    1224:	93 27       	eor	r25, r19
    1226:	80 93 63 38 	sts	0x3863, r24	; 0x803863 <lfsrSeed>
    122a:	90 93 64 38 	sts	0x3864, r25	; 0x803864 <lfsrSeed+0x1>
    122e:	08 95       	ret

00001230 <floatSpeed>:
    1230:	a0 e0       	ldi	r26, 0x00	; 0
    1232:	b0 e0       	ldi	r27, 0x00	; 0
    1234:	ee e1       	ldi	r30, 0x1E	; 30
    1236:	f9 e0       	ldi	r31, 0x09	; 9
    1238:	0c 94 53 1f 	jmp	0x3ea6	; 0x3ea6 <__prologue_saves__+0x16>
    123c:	7b 01       	movw	r14, r22
    123e:	8a 01       	movw	r16, r20
    1240:	c0 91 5c 0a 	lds	r28, 0x0A5C	; 0x800a5c <__TEXT_REGION_LENGTH__+0x700a5c>
    1244:	d0 91 5d 0a 	lds	r29, 0x0A5D	; 0x800a5d <__TEXT_REGION_LENGTH__+0x700a5d>
    1248:	e8 2f       	mov	r30, r24
    124a:	f0 e0       	ldi	r31, 0x00	; 0
    124c:	31 97       	sbiw	r30, 0x01	; 1
    124e:	e7 70       	andi	r30, 0x07	; 7
    1250:	ff 27       	eor	r31, r31
    1252:	e4 5d       	subi	r30, 0xD4	; 212
    1254:	f7 4c       	sbci	r31, 0xC7	; 199
    1256:	d0 80       	ld	r13, Z
    1258:	cc df       	rcall	.-104    	; 0x11f2 <lfsr>
    125a:	8d 21       	and	r24, r13
    125c:	c8 0f       	add	r28, r24
    125e:	d1 1d       	adc	r29, r1
    1260:	c8 df       	rcall	.-112    	; 0x11f2 <lfsr>
    1262:	8d 21       	and	r24, r13
    1264:	c8 1b       	sub	r28, r24
    1266:	d1 09       	sbc	r29, r1
    1268:	0c 17       	cp	r16, r28
    126a:	1d 07       	cpc	r17, r29
    126c:	08 f4       	brcc	.+2      	; 0x1270 <floatSpeed+0x40>
    126e:	e8 01       	movw	r28, r16
    1270:	c7 01       	movw	r24, r14
    1272:	ec 16       	cp	r14, r28
    1274:	fd 06       	cpc	r15, r29
    1276:	08 f4       	brcc	.+2      	; 0x127a <floatSpeed+0x4a>
    1278:	ce 01       	movw	r24, r28
    127a:	80 93 5c 0a 	sts	0x0A5C, r24	; 0x800a5c <__TEXT_REGION_LENGTH__+0x700a5c>
    127e:	90 93 5d 0a 	sts	0x0A5D, r25	; 0x800a5d <__TEXT_REGION_LENGTH__+0x700a5d>
    1282:	cd b7       	in	r28, 0x3d	; 61
    1284:	de b7       	in	r29, 0x3e	; 62
    1286:	e7 e0       	ldi	r30, 0x07	; 7
    1288:	0c 94 6c 1f 	jmp	0x3ed8	; 0x3ed8 <__epilogue_restores__+0x16>

0000128c <floatAround>:
    128c:	0f 93       	push	r16
    128e:	1f 93       	push	r17
    1290:	cf 93       	push	r28
    1292:	df 93       	push	r29
    1294:	c8 2f       	mov	r28, r24
    1296:	d4 2f       	mov	r29, r20
    1298:	02 2f       	mov	r16, r18
    129a:	e6 2f       	mov	r30, r22
    129c:	f0 e0       	ldi	r31, 0x00	; 0
    129e:	31 97       	sbiw	r30, 0x01	; 1
    12a0:	e7 70       	andi	r30, 0x07	; 7
    12a2:	ff 27       	eor	r31, r31
    12a4:	e4 5d       	subi	r30, 0xD4	; 212
    12a6:	f7 4c       	sbci	r31, 0xC7	; 199
    12a8:	10 81       	ld	r17, Z
    12aa:	a3 df       	rcall	.-186    	; 0x11f2 <lfsr>
    12ac:	81 23       	and	r24, r17
    12ae:	c8 0f       	add	r28, r24
    12b0:	a0 df       	rcall	.-192    	; 0x11f2 <lfsr>
    12b2:	81 23       	and	r24, r17
    12b4:	c8 1b       	sub	r28, r24
    12b6:	8c 2f       	mov	r24, r28
    12b8:	00 23       	and	r16, r16
    12ba:	41 f0       	breq	.+16     	; 0x12cc <floatAround+0x40>
    12bc:	9c 2f       	mov	r25, r28
    12be:	0c 17       	cp	r16, r28
    12c0:	08 f4       	brcc	.+2      	; 0x12c4 <floatAround+0x38>
    12c2:	90 2f       	mov	r25, r16
    12c4:	8d 2f       	mov	r24, r29
    12c6:	d9 17       	cp	r29, r25
    12c8:	08 f4       	brcc	.+2      	; 0x12cc <floatAround+0x40>
    12ca:	89 2f       	mov	r24, r25
    12cc:	41 e0       	ldi	r20, 0x01	; 1
    12ce:	50 e0       	ldi	r21, 0x00	; 0
    12d0:	8d 17       	cp	r24, r29
    12d2:	10 f0       	brcs	.+4      	; 0x12d8 <floatAround+0x4c>
    12d4:	40 e0       	ldi	r20, 0x00	; 0
    12d6:	50 e0       	ldi	r21, 0x00	; 0
    12d8:	2d 2f       	mov	r18, r29
    12da:	30 e0       	ldi	r19, 0x00	; 0
    12dc:	24 23       	and	r18, r20
    12de:	35 23       	and	r19, r21
    12e0:	23 2b       	or	r18, r19
    12e2:	09 f0       	breq	.+2      	; 0x12e6 <floatAround+0x5a>
    12e4:	8d 2f       	mov	r24, r29
    12e6:	df 91       	pop	r29
    12e8:	cf 91       	pop	r28
    12ea:	1f 91       	pop	r17
    12ec:	0f 91       	pop	r16
    12ee:	08 95       	ret

000012f0 <SaveGameState>:
    12f0:	cf 92       	push	r12
    12f2:	df 92       	push	r13
    12f4:	ff 92       	push	r15
    12f6:	0f 93       	push	r16
    12f8:	1f 93       	push	r17
    12fa:	cf 93       	push	r28
    12fc:	df 93       	push	r29
    12fe:	cd b7       	in	r28, 0x3d	; 61
    1300:	de b7       	in	r29, 0x3e	; 62
    1302:	64 97       	sbiw	r28, 0x14	; 20
    1304:	cd bf       	out	0x3d, r28	; 61
    1306:	de bf       	out	0x3e, r29	; 62
    1308:	44 e1       	ldi	r20, 0x14	; 20
    130a:	be 01       	movw	r22, r28
    130c:	6f 5f       	subi	r22, 0xFF	; 255
    130e:	7f 4f       	sbci	r23, 0xFF	; 255
    1310:	80 e0       	ldi	r24, 0x00	; 0
    1312:	8d de       	rcall	.-742    	; 0x102e <EERead>
    1314:	8a e6       	ldi	r24, 0x6A	; 106
    1316:	c8 2e       	mov	r12, r24
    1318:	8a e3       	ldi	r24, 0x3A	; 58
    131a:	d8 2e       	mov	r13, r24
    131c:	8e 01       	movw	r16, r28
    131e:	0f 5f       	subi	r16, 0xFF	; 255
    1320:	1f 4f       	sbci	r17, 0xFF	; 255
    1322:	f1 2c       	mov	r15, r1
    1324:	f8 01       	movw	r30, r16
    1326:	81 91       	ld	r24, Z+
    1328:	8f 01       	movw	r16, r30
    132a:	f6 01       	movw	r30, r12
    132c:	90 81       	ld	r25, Z
    132e:	98 13       	cpse	r25, r24
    1330:	08 c0       	rjmp	.+16     	; 0x1342 <SaveGameState+0x52>
    1332:	f3 94       	inc	r15
    1334:	ff ef       	ldi	r31, 0xFF	; 255
    1336:	cf 1a       	sub	r12, r31
    1338:	df 0a       	sbc	r13, r31
    133a:	80 e1       	ldi	r24, 0x10	; 16
    133c:	f8 12       	cpse	r15, r24
    133e:	f2 cf       	rjmp	.-28     	; 0x1324 <SaveGameState+0x34>
    1340:	08 c0       	rjmp	.+16     	; 0x1352 <SaveGameState+0x62>
    1342:	41 e0       	ldi	r20, 0x01	; 1
    1344:	b6 01       	movw	r22, r12
    1346:	8f 2d       	mov	r24, r15
    1348:	82 de       	rcall	.-764    	; 0x104e <EEWrite>
    134a:	88 23       	and	r24, r24
    134c:	91 f3       	breq	.-28     	; 0x1332 <SaveGameState+0x42>
    134e:	91 e0       	ldi	r25, 0x01	; 1
    1350:	36 c0       	rjmp	.+108    	; 0x13be <SaveGameState+0xce>
    1352:	20 91 44 38 	lds	r18, 0x3844	; 0x803844 <inventory>
    1356:	30 91 45 38 	lds	r19, 0x3845	; 0x803845 <inventory+0x1>
    135a:	30 93 7a 3a 	sts	0x3A7A, r19	; 0x803a7a <gameState+0x10>
    135e:	20 93 7b 3a 	sts	0x3A7B, r18	; 0x803a7b <gameState+0x11>
    1362:	80 91 46 38 	lds	r24, 0x3846	; 0x803846 <inventory+0x2>
    1366:	90 91 47 38 	lds	r25, 0x3847	; 0x803847 <inventory+0x3>
    136a:	90 93 7c 3a 	sts	0x3A7C, r25	; 0x803a7c <gameState+0x12>
    136e:	80 93 7d 3a 	sts	0x3A7D, r24	; 0x803a7d <gameState+0x13>
    1372:	89 89       	ldd	r24, Y+17	; 0x11
    1374:	9a 89       	ldd	r25, Y+18	; 0x12
    1376:	98 27       	eor	r25, r24
    1378:	89 27       	eor	r24, r25
    137a:	98 27       	eor	r25, r24
    137c:	28 17       	cp	r18, r24
    137e:	39 07       	cpc	r19, r25
    1380:	69 f4       	brne	.+26     	; 0x139c <SaveGameState+0xac>
    1382:	8b 89       	ldd	r24, Y+19	; 0x13
    1384:	9c 89       	ldd	r25, Y+20	; 0x14
    1386:	98 27       	eor	r25, r24
    1388:	89 27       	eor	r24, r25
    138a:	98 27       	eor	r25, r24
    138c:	20 91 46 38 	lds	r18, 0x3846	; 0x803846 <inventory+0x2>
    1390:	30 91 47 38 	lds	r19, 0x3847	; 0x803847 <inventory+0x3>
    1394:	28 17       	cp	r18, r24
    1396:	39 07       	cpc	r19, r25
    1398:	49 f4       	brne	.+18     	; 0x13ac <SaveGameState+0xbc>
    139a:	10 c0       	rjmp	.+32     	; 0x13bc <SaveGameState+0xcc>
    139c:	42 e0       	ldi	r20, 0x02	; 2
    139e:	6a e7       	ldi	r22, 0x7A	; 122
    13a0:	7a e3       	ldi	r23, 0x3A	; 58
    13a2:	80 e1       	ldi	r24, 0x10	; 16
    13a4:	54 de       	rcall	.-856    	; 0x104e <EEWrite>
    13a6:	88 23       	and	r24, r24
    13a8:	61 f3       	breq	.-40     	; 0x1382 <SaveGameState+0x92>
    13aa:	d1 cf       	rjmp	.-94     	; 0x134e <SaveGameState+0x5e>
    13ac:	42 e0       	ldi	r20, 0x02	; 2
    13ae:	6c e7       	ldi	r22, 0x7C	; 124
    13b0:	7a e3       	ldi	r23, 0x3A	; 58
    13b2:	82 e1       	ldi	r24, 0x12	; 18
    13b4:	4c de       	rcall	.-872    	; 0x104e <EEWrite>
    13b6:	91 e0       	ldi	r25, 0x01	; 1
    13b8:	81 11       	cpse	r24, r1
    13ba:	01 c0       	rjmp	.+2      	; 0x13be <SaveGameState+0xce>
    13bc:	90 e0       	ldi	r25, 0x00	; 0
    13be:	89 2f       	mov	r24, r25
    13c0:	64 96       	adiw	r28, 0x14	; 20
    13c2:	cd bf       	out	0x3d, r28	; 61
    13c4:	de bf       	out	0x3e, r29	; 62
    13c6:	df 91       	pop	r29
    13c8:	cf 91       	pop	r28
    13ca:	1f 91       	pop	r17
    13cc:	0f 91       	pop	r16
    13ce:	ff 90       	pop	r15
    13d0:	df 90       	pop	r13
    13d2:	cf 90       	pop	r12
    13d4:	08 95       	ret

000013d6 <ReadStatusBit>:
    13d6:	e8 2f       	mov	r30, r24
    13d8:	ef 77       	andi	r30, 0x7F	; 127
    13da:	e6 95       	lsr	r30
    13dc:	e6 95       	lsr	r30
    13de:	e6 95       	lsr	r30
    13e0:	f0 e0       	ldi	r31, 0x00	; 0
    13e2:	e6 59       	subi	r30, 0x96	; 150
    13e4:	f5 4c       	sbci	r31, 0xC5	; 197
    13e6:	20 81       	ld	r18, Z
    13e8:	30 e0       	ldi	r19, 0x00	; 0
    13ea:	87 70       	andi	r24, 0x07	; 7
    13ec:	a9 01       	movw	r20, r18
    13ee:	02 c0       	rjmp	.+4      	; 0x13f4 <ReadStatusBit+0x1e>
    13f0:	55 95       	asr	r21
    13f2:	47 95       	ror	r20
    13f4:	8a 95       	dec	r24
    13f6:	e2 f7       	brpl	.-8      	; 0x13f0 <ReadStatusBit+0x1a>
    13f8:	ca 01       	movw	r24, r20
    13fa:	81 70       	andi	r24, 0x01	; 1
    13fc:	08 95       	ret

000013fe <UpdateState>:
    13fe:	e8 2f       	mov	r30, r24
    1400:	ef 77       	andi	r30, 0x7F	; 127
    1402:	e9 f0       	breq	.+58     	; 0x143e <UpdateState+0x40>
    1404:	e6 95       	lsr	r30
    1406:	e6 95       	lsr	r30
    1408:	e6 95       	lsr	r30
    140a:	28 2f       	mov	r18, r24
    140c:	27 70       	andi	r18, 0x07	; 7
    140e:	f0 e0       	ldi	r31, 0x00	; 0
    1410:	e6 59       	subi	r30, 0x96	; 150
    1412:	f5 4c       	sbci	r31, 0xC5	; 197
    1414:	87 ff       	sbrs	r24, 7
    1416:	0a c0       	rjmp	.+20     	; 0x142c <UpdateState+0x2e>
    1418:	81 e0       	ldi	r24, 0x01	; 1
    141a:	90 e0       	ldi	r25, 0x00	; 0
    141c:	01 c0       	rjmp	.+2      	; 0x1420 <UpdateState+0x22>
    141e:	88 0f       	add	r24, r24
    1420:	2a 95       	dec	r18
    1422:	ea f7       	brpl	.-6      	; 0x141e <UpdateState+0x20>
    1424:	80 95       	com	r24
    1426:	90 81       	ld	r25, Z
    1428:	89 23       	and	r24, r25
    142a:	08 c0       	rjmp	.+16     	; 0x143c <UpdateState+0x3e>
    142c:	81 e0       	ldi	r24, 0x01	; 1
    142e:	90 e0       	ldi	r25, 0x00	; 0
    1430:	01 c0       	rjmp	.+2      	; 0x1434 <UpdateState+0x36>
    1432:	88 0f       	add	r24, r24
    1434:	2a 95       	dec	r18
    1436:	ea f7       	brpl	.-6      	; 0x1432 <UpdateState+0x34>
    1438:	90 81       	ld	r25, Z
    143a:	89 2b       	or	r24, r25
    143c:	80 83       	st	Z, r24
    143e:	08 95       	ret

00001440 <CheckState>:
    1440:	cf 93       	push	r28
    1442:	c8 2f       	mov	r28, r24
    1444:	8f 77       	andi	r24, 0x7F	; 127
    1446:	c7 df       	rcall	.-114    	; 0x13d6 <ReadStatusBit>
    1448:	2c 2f       	mov	r18, r28
    144a:	22 1f       	adc	r18, r18
    144c:	22 27       	eor	r18, r18
    144e:	22 1f       	adc	r18, r18
    1450:	91 e0       	ldi	r25, 0x01	; 1
    1452:	81 11       	cpse	r24, r1
    1454:	01 c0       	rjmp	.+2      	; 0x1458 <CheckState+0x18>
    1456:	90 e0       	ldi	r25, 0x00	; 0
    1458:	82 2f       	mov	r24, r18
    145a:	89 27       	eor	r24, r25
    145c:	cf 91       	pop	r28
    145e:	08 95       	ret

00001460 <getID>:
    1460:	e3 e0       	ldi	r30, 0x03	; 3
    1462:	f1 e1       	ldi	r31, 0x11	; 17
    1464:	80 e0       	ldi	r24, 0x00	; 0
    1466:	91 91       	ld	r25, Z+
    1468:	89 0f       	add	r24, r25
    146a:	ed 30       	cpi	r30, 0x0D	; 13
    146c:	91 e1       	ldi	r25, 0x11	; 17
    146e:	f9 07       	cpc	r31, r25
    1470:	d1 f7       	brne	.-12     	; 0x1466 <getID+0x6>
    1472:	83 70       	andi	r24, 0x03	; 3
    1474:	91 e0       	ldi	r25, 0x01	; 1
    1476:	98 0f       	add	r25, r24
    1478:	90 93 43 38 	sts	0x3843, r25	; 0x803843 <whoami>
    147c:	08 95       	ret

0000147e <Reset>:
    147e:	cf 93       	push	r28
    1480:	ea e6       	ldi	r30, 0x6A	; 106
    1482:	fa e3       	ldi	r31, 0x3A	; 58
    1484:	11 92       	st	Z+, r1
    1486:	8a e3       	ldi	r24, 0x3A	; 58
    1488:	ee 37       	cpi	r30, 0x7E	; 126
    148a:	f8 07       	cpc	r31, r24
    148c:	d9 f7       	brne	.-10     	; 0x1484 <Reset+0x6>
    148e:	e8 df       	rcall	.-48     	; 0x1460 <getID>
    1490:	c8 2f       	mov	r28, r24
    1492:	81 11       	cpse	r24, r1
    1494:	02 c0       	rjmp	.+4      	; 0x149a <Reset+0x1c>
    1496:	8e e6       	ldi	r24, 0x6E	; 110
    1498:	0b c0       	rjmp	.+22     	; 0x14b0 <Reset+0x32>
    149a:	81 30       	cpi	r24, 0x01	; 1
    149c:	11 f4       	brne	.+4      	; 0x14a2 <Reset+0x24>
    149e:	8f e6       	ldi	r24, 0x6F	; 111
    14a0:	07 c0       	rjmp	.+14     	; 0x14b0 <Reset+0x32>
    14a2:	82 30       	cpi	r24, 0x02	; 2
    14a4:	11 f4       	brne	.+4      	; 0x14aa <Reset+0x2c>
    14a6:	80 e7       	ldi	r24, 0x70	; 112
    14a8:	03 c0       	rjmp	.+6      	; 0x14b0 <Reset+0x32>
    14aa:	83 30       	cpi	r24, 0x03	; 3
    14ac:	11 f4       	brne	.+4      	; 0x14b2 <Reset+0x34>
    14ae:	81 e7       	ldi	r24, 0x71	; 113
    14b0:	a6 df       	rcall	.-180    	; 0x13fe <UpdateState>
    14b2:	84 e6       	ldi	r24, 0x64	; 100
    14b4:	8c 0f       	add	r24, r28
    14b6:	a3 df       	rcall	.-186    	; 0x13fe <UpdateState>
    14b8:	cf 91       	pop	r28
    14ba:	08 95       	ret

000014bc <LoadGameState>:
    14bc:	cf 93       	push	r28
    14be:	df 93       	push	r29
    14c0:	44 e1       	ldi	r20, 0x14	; 20
    14c2:	6a e6       	ldi	r22, 0x6A	; 106
    14c4:	7a e3       	ldi	r23, 0x3A	; 58
    14c6:	80 e0       	ldi	r24, 0x00	; 0
    14c8:	b2 dd       	rcall	.-1180   	; 0x102e <EERead>
    14ca:	ce e6       	ldi	r28, 0x6E	; 110
    14cc:	d0 e0       	ldi	r29, 0x00	; 0
    14ce:	8c 2f       	mov	r24, r28
    14d0:	82 df       	rcall	.-252    	; 0x13d6 <ReadStatusBit>
    14d2:	d8 0f       	add	r29, r24
    14d4:	cf 5f       	subi	r28, 0xFF	; 255
    14d6:	c2 37       	cpi	r28, 0x72	; 114
    14d8:	d1 f7       	brne	.-12     	; 0x14ce <LoadGameState+0x12>
    14da:	d1 30       	cpi	r29, 0x01	; 1
    14dc:	11 f0       	breq	.+4      	; 0x14e2 <LoadGameState+0x26>
    14de:	cf df       	rcall	.-98     	; 0x147e <Reset>
    14e0:	01 c0       	rjmp	.+2      	; 0x14e4 <LoadGameState+0x28>
    14e2:	be df       	rcall	.-132    	; 0x1460 <getID>
    14e4:	80 91 7a 3a 	lds	r24, 0x3A7A	; 0x803a7a <gameState+0x10>
    14e8:	90 91 7b 3a 	lds	r25, 0x3A7B	; 0x803a7b <gameState+0x11>
    14ec:	98 27       	eor	r25, r24
    14ee:	89 27       	eor	r24, r25
    14f0:	98 27       	eor	r25, r24
    14f2:	80 93 44 38 	sts	0x3844, r24	; 0x803844 <inventory>
    14f6:	90 93 45 38 	sts	0x3845, r25	; 0x803845 <inventory+0x1>
    14fa:	80 91 7c 3a 	lds	r24, 0x3A7C	; 0x803a7c <gameState+0x12>
    14fe:	90 91 7d 3a 	lds	r25, 0x3A7D	; 0x803a7d <gameState+0x13>
    1502:	98 27       	eor	r25, r24
    1504:	89 27       	eor	r24, r25
    1506:	98 27       	eor	r25, r24
    1508:	80 93 46 38 	sts	0x3846, r24	; 0x803846 <inventory+0x2>
    150c:	90 93 47 38 	sts	0x3847, r25	; 0x803847 <inventory+0x3>
    1510:	df 91       	pop	r29
    1512:	cf 91       	pop	r28
    1514:	08 95       	ret

00001516 <HotSummer>:
    1516:	cf 93       	push	r28
    1518:	86 e7       	ldi	r24, 0x76	; 118
    151a:	92 df       	rcall	.-220    	; 0x1440 <CheckState>
    151c:	c8 2f       	mov	r28, r24
    151e:	88 23       	and	r24, r24
    1520:	81 f0       	breq	.+32     	; 0x1542 <HotSummer+0x2c>
    1522:	e0 91 14 bf 	lds	r30, 0xBF14	; 0x80bf14 <__bss_end+0x83f9>
    1526:	f0 e0       	ldi	r31, 0x00	; 0
    1528:	e4 53       	subi	r30, 0x34	; 52
    152a:	f5 4c       	sbci	r31, 0xC5	; 197
    152c:	10 82       	st	Z, r1
    152e:	e0 91 15 bf 	lds	r30, 0xBF15	; 0x80bf15 <__bss_end+0x83fa>
    1532:	f0 e0       	ldi	r31, 0x00	; 0
    1534:	80 91 0c 38 	lds	r24, 0x380C	; 0x80380c <dimValue>
    1538:	e4 53       	subi	r30, 0x34	; 52
    153a:	f5 4c       	sbci	r31, 0xC5	; 197
    153c:	80 83       	st	Z, r24
    153e:	c1 e0       	ldi	r28, 0x01	; 1
    1540:	4c c0       	rjmp	.+152    	; 0x15da <HotSummer+0xc4>
    1542:	85 e7       	ldi	r24, 0x75	; 117
    1544:	7d df       	rcall	.-262    	; 0x1440 <CheckState>
    1546:	88 23       	and	r24, r24
    1548:	59 f1       	breq	.+86     	; 0x15a0 <HotSummer+0x8a>
    154a:	e0 91 14 bf 	lds	r30, 0xBF14	; 0x80bf14 <__bss_end+0x83f9>
    154e:	f0 e0       	ldi	r31, 0x00	; 0
    1550:	80 91 0c 38 	lds	r24, 0x380C	; 0x80380c <dimValue>
    1554:	e4 53       	subi	r30, 0x34	; 52
    1556:	f5 4c       	sbci	r31, 0xC5	; 197
    1558:	80 83       	st	Z, r24
    155a:	80 91 60 38 	lds	r24, 0x3860	; 0x803860 <cooledDown.3978>
    155e:	88 23       	and	r24, r24
    1560:	79 f0       	breq	.+30     	; 0x1580 <HotSummer+0x6a>
    1562:	80 91 c9 3a 	lds	r24, 0x3AC9	; 0x803ac9 <calTemp>
    1566:	90 91 ca 3a 	lds	r25, 0x3ACA	; 0x803aca <calTemp+0x1>
    156a:	20 91 f6 3a 	lds	r18, 0x3AF6	; 0x803af6 <adcTemp>
    156e:	30 91 f7 3a 	lds	r19, 0x3AF7	; 0x803af7 <adcTemp+0x1>
    1572:	80 96       	adiw	r24, 0x20	; 32
    1574:	28 17       	cp	r18, r24
    1576:	39 07       	cpc	r19, r25
    1578:	18 f0       	brcs	.+6      	; 0x1580 <HotSummer+0x6a>
    157a:	86 e7       	ldi	r24, 0x76	; 118
    157c:	40 df       	rcall	.-384    	; 0x13fe <UpdateState>
    157e:	2d c0       	rjmp	.+90     	; 0x15da <HotSummer+0xc4>
    1580:	80 91 c9 3a 	lds	r24, 0x3AC9	; 0x803ac9 <calTemp>
    1584:	90 91 ca 3a 	lds	r25, 0x3ACA	; 0x803aca <calTemp+0x1>
    1588:	20 91 f6 3a 	lds	r18, 0x3AF6	; 0x803af6 <adcTemp>
    158c:	30 91 f7 3a 	lds	r19, 0x3AF7	; 0x803af7 <adcTemp+0x1>
    1590:	08 96       	adiw	r24, 0x08	; 8
    1592:	82 17       	cp	r24, r18
    1594:	93 07       	cpc	r25, r19
    1596:	08 f1       	brcs	.+66     	; 0x15da <HotSummer+0xc4>
    1598:	81 e0       	ldi	r24, 0x01	; 1
    159a:	80 93 60 38 	sts	0x3860, r24	; 0x803860 <cooledDown.3978>
    159e:	1d c0       	rjmp	.+58     	; 0x15da <HotSummer+0xc4>
    15a0:	80 91 c9 3a 	lds	r24, 0x3AC9	; 0x803ac9 <calTemp>
    15a4:	90 91 ca 3a 	lds	r25, 0x3ACA	; 0x803aca <calTemp+0x1>
    15a8:	89 2b       	or	r24, r25
    15aa:	41 f4       	brne	.+16     	; 0x15bc <HotSummer+0xa6>
    15ac:	80 91 f6 3a 	lds	r24, 0x3AF6	; 0x803af6 <adcTemp>
    15b0:	90 91 f7 3a 	lds	r25, 0x3AF7	; 0x803af7 <adcTemp+0x1>
    15b4:	80 93 c9 3a 	sts	0x3AC9, r24	; 0x803ac9 <calTemp>
    15b8:	90 93 ca 3a 	sts	0x3ACA, r25	; 0x803aca <calTemp+0x1>
    15bc:	80 91 c9 3a 	lds	r24, 0x3AC9	; 0x803ac9 <calTemp>
    15c0:	90 91 ca 3a 	lds	r25, 0x3ACA	; 0x803aca <calTemp+0x1>
    15c4:	20 91 f6 3a 	lds	r18, 0x3AF6	; 0x803af6 <adcTemp>
    15c8:	30 91 f7 3a 	lds	r19, 0x3AF7	; 0x803af7 <adcTemp+0x1>
    15cc:	80 96       	adiw	r24, 0x20	; 32
    15ce:	28 17       	cp	r18, r24
    15d0:	39 07       	cpc	r19, r25
    15d2:	18 f0       	brcs	.+6      	; 0x15da <HotSummer+0xc4>
    15d4:	85 e7       	ldi	r24, 0x75	; 117
    15d6:	13 df       	rcall	.-474    	; 0x13fe <UpdateState>
    15d8:	c0 e0       	ldi	r28, 0x00	; 0
    15da:	8c 2f       	mov	r24, r28
    15dc:	cf 91       	pop	r28
    15de:	08 95       	ret

000015e0 <WingBar>:
    15e0:	e6 e1       	ldi	r30, 0x16	; 22
    15e2:	ff eb       	ldi	r31, 0xBF	; 191
    15e4:	90 e0       	ldi	r25, 0x00	; 0
    15e6:	a5 81       	ldd	r26, Z+5	; 0x05
    15e8:	b0 e0       	ldi	r27, 0x00	; 0
    15ea:	98 17       	cp	r25, r24
    15ec:	34 f4       	brge	.+12     	; 0x15fa <WingBar+0x1a>
    15ee:	20 91 0c 38 	lds	r18, 0x380C	; 0x80380c <dimValue>
    15f2:	a4 53       	subi	r26, 0x34	; 52
    15f4:	b5 4c       	sbci	r27, 0xC5	; 197
    15f6:	2c 93       	st	X, r18
    15f8:	03 c0       	rjmp	.+6      	; 0x1600 <WingBar+0x20>
    15fa:	a4 53       	subi	r26, 0x34	; 52
    15fc:	b5 4c       	sbci	r27, 0xC5	; 197
    15fe:	1c 92       	st	X, r1
    1600:	a0 81       	ld	r26, Z
    1602:	b0 e0       	ldi	r27, 0x00	; 0
    1604:	96 17       	cp	r25, r22
    1606:	34 f4       	brge	.+12     	; 0x1614 <WingBar+0x34>
    1608:	20 91 0c 38 	lds	r18, 0x380C	; 0x80380c <dimValue>
    160c:	a4 53       	subi	r26, 0x34	; 52
    160e:	b5 4c       	sbci	r27, 0xC5	; 197
    1610:	2c 93       	st	X, r18
    1612:	03 c0       	rjmp	.+6      	; 0x161a <WingBar+0x3a>
    1614:	a4 53       	subi	r26, 0x34	; 52
    1616:	b5 4c       	sbci	r27, 0xC5	; 197
    1618:	1c 92       	st	X, r1
    161a:	9f 5f       	subi	r25, 0xFF	; 255
    161c:	31 96       	adiw	r30, 0x01	; 1
    161e:	95 30       	cpi	r25, 0x05	; 5
    1620:	11 f7       	brne	.-60     	; 0x15e6 <WingBar+0x6>
    1622:	08 95       	ret

00001624 <SetBothEyes>:
    1624:	a0 e2       	ldi	r26, 0x20	; 32
    1626:	bf eb       	ldi	r27, 0xBF	; 191
    1628:	ec 91       	ld	r30, X
    162a:	f0 e0       	ldi	r31, 0x00	; 0
    162c:	e4 53       	subi	r30, 0x34	; 52
    162e:	f5 4c       	sbci	r31, 0xC5	; 197
    1630:	80 83       	st	Z, r24
    1632:	12 96       	adiw	r26, 0x02	; 2
    1634:	ec 91       	ld	r30, X
    1636:	12 97       	sbiw	r26, 0x02	; 2
    1638:	f0 e0       	ldi	r31, 0x00	; 0
    163a:	e4 53       	subi	r30, 0x34	; 52
    163c:	f5 4c       	sbci	r31, 0xC5	; 197
    163e:	60 83       	st	Z, r22
    1640:	11 96       	adiw	r26, 0x01	; 1
    1642:	ec 91       	ld	r30, X
    1644:	11 97       	sbiw	r26, 0x01	; 1
    1646:	f0 e0       	ldi	r31, 0x00	; 0
    1648:	e4 53       	subi	r30, 0x34	; 52
    164a:	f5 4c       	sbci	r31, 0xC5	; 197
    164c:	80 83       	st	Z, r24
    164e:	13 96       	adiw	r26, 0x03	; 3
    1650:	ec 91       	ld	r30, X
    1652:	f0 e0       	ldi	r31, 0x00	; 0
    1654:	e4 53       	subi	r30, 0x34	; 52
    1656:	f5 4c       	sbci	r31, 0xC5	; 197
    1658:	60 83       	st	Z, r22
    165a:	08 95       	ret

0000165c <ClearHackerLeds>:
    165c:	cf 93       	push	r28
    165e:	df 93       	push	r29
    1660:	e4 e2       	ldi	r30, 0x24	; 36
    1662:	ff eb       	ldi	r31, 0xBF	; 191
    1664:	ef 01       	movw	r28, r30
    1666:	a6 81       	ldd	r26, Z+6	; 0x06
    1668:	b0 e0       	ldi	r27, 0x00	; 0
    166a:	a4 53       	subi	r26, 0x34	; 52
    166c:	b5 4c       	sbci	r27, 0xC5	; 197
    166e:	1c 92       	st	X, r1
    1670:	31 96       	adiw	r30, 0x01	; 1
    1672:	a8 81       	ld	r26, Y
    1674:	b0 e0       	ldi	r27, 0x00	; 0
    1676:	a4 53       	subi	r26, 0x34	; 52
    1678:	b5 4c       	sbci	r27, 0xC5	; 197
    167a:	1c 92       	st	X, r1
    167c:	8f eb       	ldi	r24, 0xBF	; 191
    167e:	ea 32       	cpi	r30, 0x2A	; 42
    1680:	f8 07       	cpc	r31, r24
    1682:	81 f7       	brne	.-32     	; 0x1664 <ClearHackerLeds+0x8>
    1684:	df 91       	pop	r29
    1686:	cf 91       	pop	r28
    1688:	08 95       	ret

0000168a <GenerateBlinks>:
    168a:	a0 e0       	ldi	r26, 0x00	; 0
    168c:	b0 e0       	ldi	r27, 0x00	; 0
    168e:	eb e4       	ldi	r30, 0x4B	; 75
    1690:	fb e0       	ldi	r31, 0x0B	; 11
    1692:	0c 94 52 1f 	jmp	0x3ea4	; 0x3ea4 <__prologue_saves__+0x14>
    1696:	80 91 42 38 	lds	r24, 0x3842	; 0x803842 <gameNow>
    169a:	88 23       	and	r24, r24
    169c:	29 f0       	breq	.+10     	; 0x16a8 <GenerateBlinks+0x1e>
    169e:	80 e4       	ldi	r24, 0x40	; 64
    16a0:	cf de       	rcall	.-610    	; 0x1440 <CheckState>
    16a2:	81 11       	cpse	r24, r1
    16a4:	24 c0       	rjmp	.+72     	; 0x16ee <GenerateBlinks+0x64>
    16a6:	50 c0       	rjmp	.+160    	; 0x1748 <GenerateBlinks+0xbe>
    16a8:	c4 e2       	ldi	r28, 0x24	; 36
    16aa:	df eb       	ldi	r29, 0xBF	; 191
    16ac:	1a e7       	ldi	r17, 0x7A	; 122
    16ae:	81 2f       	mov	r24, r17
    16b0:	c7 de       	rcall	.-626    	; 0x1440 <CheckState>
    16b2:	ee 81       	ldd	r30, Y+6	; 0x06
    16b4:	f0 e0       	ldi	r31, 0x00	; 0
    16b6:	88 23       	and	r24, r24
    16b8:	59 f0       	breq	.+22     	; 0x16d0 <GenerateBlinks+0x46>
    16ba:	80 91 0c 38 	lds	r24, 0x380C	; 0x80380c <dimValue>
    16be:	e4 53       	subi	r30, 0x34	; 52
    16c0:	f5 4c       	sbci	r31, 0xC5	; 197
    16c2:	80 83       	st	Z, r24
    16c4:	e8 81       	ld	r30, Y
    16c6:	f0 e0       	ldi	r31, 0x00	; 0
    16c8:	e4 53       	subi	r30, 0x34	; 52
    16ca:	f5 4c       	sbci	r31, 0xC5	; 197
    16cc:	10 82       	st	Z, r1
    16ce:	0a c0       	rjmp	.+20     	; 0x16e4 <GenerateBlinks+0x5a>
    16d0:	e4 53       	subi	r30, 0x34	; 52
    16d2:	f5 4c       	sbci	r31, 0xC5	; 197
    16d4:	10 82       	st	Z, r1
    16d6:	e8 81       	ld	r30, Y
    16d8:	f0 e0       	ldi	r31, 0x00	; 0
    16da:	80 91 0c 38 	lds	r24, 0x380C	; 0x80380c <dimValue>
    16de:	e4 53       	subi	r30, 0x34	; 52
    16e0:	f5 4c       	sbci	r31, 0xC5	; 197
    16e2:	80 83       	st	Z, r24
    16e4:	1f 5f       	subi	r17, 0xFF	; 255
    16e6:	21 96       	adiw	r28, 0x01	; 1
    16e8:	10 38       	cpi	r17, 0x80	; 128
    16ea:	09 f7       	brne	.-62     	; 0x16ae <GenerateBlinks+0x24>
    16ec:	d8 cf       	rjmp	.-80     	; 0x169e <GenerateBlinks+0x14>
    16ee:	80 91 62 38 	lds	r24, 0x3862	; 0x803862 <HeartCount>
    16f2:	98 2f       	mov	r25, r24
    16f4:	9d 7f       	andi	r25, 0xFD	; 253
    16f6:	e0 91 13 bf 	lds	r30, 0xBF13	; 0x80bf13 <__bss_end+0x83f8>
    16fa:	f0 e0       	ldi	r31, 0x00	; 0
    16fc:	91 30       	cpi	r25, 0x01	; 1
    16fe:	11 f0       	breq	.+4      	; 0x1704 <GenerateBlinks+0x7a>
    1700:	85 30       	cpi	r24, 0x05	; 5
    1702:	21 f4       	brne	.+8      	; 0x170c <GenerateBlinks+0x82>
    1704:	90 91 0c 38 	lds	r25, 0x380C	; 0x80380c <dimValue>
    1708:	96 95       	lsr	r25
    170a:	06 c0       	rjmp	.+12     	; 0x1718 <GenerateBlinks+0x8e>
    170c:	82 30       	cpi	r24, 0x02	; 2
    170e:	11 f0       	breq	.+4      	; 0x1714 <GenerateBlinks+0x8a>
    1710:	84 30       	cpi	r24, 0x04	; 4
    1712:	31 f4       	brne	.+12     	; 0x1720 <GenerateBlinks+0x96>
    1714:	90 91 0c 38 	lds	r25, 0x380C	; 0x80380c <dimValue>
    1718:	e4 53       	subi	r30, 0x34	; 52
    171a:	f5 4c       	sbci	r31, 0xC5	; 197
    171c:	90 83       	st	Z, r25
    171e:	0c c0       	rjmp	.+24     	; 0x1738 <GenerateBlinks+0xae>
    1720:	88 23       	and	r24, r24
    1722:	11 f0       	breq	.+4      	; 0x1728 <GenerateBlinks+0x9e>
    1724:	86 30       	cpi	r24, 0x06	; 6
    1726:	29 f4       	brne	.+10     	; 0x1732 <GenerateBlinks+0xa8>
    1728:	90 91 0c 38 	lds	r25, 0x380C	; 0x80380c <dimValue>
    172c:	96 95       	lsr	r25
    172e:	96 95       	lsr	r25
    1730:	f3 cf       	rjmp	.-26     	; 0x1718 <GenerateBlinks+0x8e>
    1732:	e4 53       	subi	r30, 0x34	; 52
    1734:	f5 4c       	sbci	r31, 0xC5	; 197
    1736:	10 82       	st	Z, r1
    1738:	80 32       	cpi	r24, 0x20	; 32
    173a:	20 f4       	brcc	.+8      	; 0x1744 <GenerateBlinks+0xba>
    173c:	8f 5f       	subi	r24, 0xFF	; 255
    173e:	80 93 62 38 	sts	0x3862, r24	; 0x803862 <HeartCount>
    1742:	02 c0       	rjmp	.+4      	; 0x1748 <GenerateBlinks+0xbe>
    1744:	10 92 62 38 	sts	0x3862, r1	; 0x803862 <HeartCount>
    1748:	90 91 61 38 	lds	r25, 0x3861	; 0x803861 <LedCount>
    174c:	9f 5f       	subi	r25, 0xFF	; 255
    174e:	90 93 61 38 	sts	0x3861, r25	; 0x803861 <LedCount>
    1752:	e0 91 40 38 	lds	r30, 0x3840	; 0x803840 <effect>
    1756:	f0 91 41 38 	lds	r31, 0x3841	; 0x803841 <effect+0x1>
    175a:	ef 71       	andi	r30, 0x1F	; 31
    175c:	ff 27       	eor	r31, r31
    175e:	e9 30       	cpi	r30, 0x09	; 9
    1760:	f1 05       	cpc	r31, r1
    1762:	08 f0       	brcs	.+2      	; 0x1766 <GenerateBlinks+0xdc>
    1764:	f4 c0       	rjmp	.+488    	; 0x194e <GenerateBlinks+0x2c4>
    1766:	e2 5c       	subi	r30, 0xC2	; 194
    1768:	ff 4f       	sbci	r31, 0xFF	; 255
    176a:	0c 94 42 1f 	jmp	0x3e84	; 0x3e84 <__tablejump2__>
    176e:	60 e0       	ldi	r22, 0x00	; 0
    1770:	80 e0       	ldi	r24, 0x00	; 0
    1772:	36 df       	rcall	.-404    	; 0x15e0 <WingBar>
    1774:	e0 91 20 bf 	lds	r30, 0xBF20	; 0x80bf20 <__bss_end+0x8405>
    1778:	f0 e0       	ldi	r31, 0x00	; 0
    177a:	e4 53       	subi	r30, 0x34	; 52
    177c:	f5 4c       	sbci	r31, 0xC5	; 197
    177e:	10 82       	st	Z, r1
    1780:	e0 91 22 bf 	lds	r30, 0xBF22	; 0x80bf22 <__bss_end+0x8407>
    1784:	f0 e0       	ldi	r31, 0x00	; 0
    1786:	e4 53       	subi	r30, 0x34	; 52
    1788:	f5 4c       	sbci	r31, 0xC5	; 197
    178a:	10 82       	st	Z, r1
    178c:	e0 91 14 bf 	lds	r30, 0xBF14	; 0x80bf14 <__bss_end+0x83f9>
    1790:	f0 e0       	ldi	r31, 0x00	; 0
    1792:	e4 53       	subi	r30, 0x34	; 52
    1794:	f5 4c       	sbci	r31, 0xC5	; 197
    1796:	10 82       	st	Z, r1
    1798:	e0 91 21 bf 	lds	r30, 0xBF21	; 0x80bf21 <__bss_end+0x8406>
    179c:	f0 e0       	ldi	r31, 0x00	; 0
    179e:	e4 53       	subi	r30, 0x34	; 52
    17a0:	f5 4c       	sbci	r31, 0xC5	; 197
    17a2:	10 82       	st	Z, r1
    17a4:	e0 91 23 bf 	lds	r30, 0xBF23	; 0x80bf23 <__bss_end+0x8408>
    17a8:	f0 e0       	ldi	r31, 0x00	; 0
    17aa:	e4 53       	subi	r30, 0x34	; 52
    17ac:	f5 4c       	sbci	r31, 0xC5	; 197
    17ae:	10 82       	st	Z, r1
    17b0:	e0 91 15 bf 	lds	r30, 0xBF15	; 0x80bf15 <__bss_end+0x83fa>
    17b4:	f0 e0       	ldi	r31, 0x00	; 0
    17b6:	e4 53       	subi	r30, 0x34	; 52
    17b8:	f5 4c       	sbci	r31, 0xC5	; 197
    17ba:	10 82       	st	Z, r1
    17bc:	e0 91 12 bf 	lds	r30, 0xBF12	; 0x80bf12 <__bss_end+0x83f7>
    17c0:	f0 e0       	ldi	r31, 0x00	; 0
    17c2:	e4 53       	subi	r30, 0x34	; 52
    17c4:	f5 4c       	sbci	r31, 0xC5	; 197
    17c6:	10 82       	st	Z, r1
    17c8:	c2 c0       	rjmp	.+388    	; 0x194e <GenerateBlinks+0x2c4>
    17ca:	89 2f       	mov	r24, r25
    17cc:	81 70       	andi	r24, 0x01	; 1
    17ce:	90 fd       	sbrc	r25, 0
    17d0:	80 91 0c 38 	lds	r24, 0x380C	; 0x80380c <dimValue>
    17d4:	60 e0       	ldi	r22, 0x00	; 0
    17d6:	0d c0       	rjmp	.+26     	; 0x17f2 <GenerateBlinks+0x168>
    17d8:	69 2f       	mov	r22, r25
    17da:	70 e0       	ldi	r23, 0x00	; 0
    17dc:	93 ff       	sbrs	r25, 3
    17de:	02 c0       	rjmp	.+4      	; 0x17e4 <GenerateBlinks+0x15a>
    17e0:	60 95       	com	r22
    17e2:	70 95       	com	r23
    17e4:	95 e0       	ldi	r25, 0x05	; 5
    17e6:	66 0f       	add	r22, r22
    17e8:	77 1f       	adc	r23, r23
    17ea:	9a 95       	dec	r25
    17ec:	e1 f7       	brne	.-8      	; 0x17e6 <GenerateBlinks+0x15c>
    17ee:	61 5e       	subi	r22, 0xE1	; 225
    17f0:	80 e0       	ldi	r24, 0x00	; 0
    17f2:	18 df       	rcall	.-464    	; 0x1624 <SetBothEyes>
    17f4:	ac c0       	rjmp	.+344    	; 0x194e <GenerateBlinks+0x2c4>
    17f6:	89 2f       	mov	r24, r25
    17f8:	83 70       	andi	r24, 0x03	; 3
    17fa:	09 f0       	breq	.+2      	; 0x17fe <GenerateBlinks+0x174>
    17fc:	a8 c0       	rjmp	.+336    	; 0x194e <GenerateBlinks+0x2c4>
    17fe:	92 ff       	sbrs	r25, 2
    1800:	03 c0       	rjmp	.+6      	; 0x1808 <GenerateBlinks+0x17e>
    1802:	65 e0       	ldi	r22, 0x05	; 5
    1804:	85 e0       	ldi	r24, 0x05	; 5
    1806:	02 c0       	rjmp	.+4      	; 0x180c <GenerateBlinks+0x182>
    1808:	60 e0       	ldi	r22, 0x00	; 0
    180a:	80 e0       	ldi	r24, 0x00	; 0
    180c:	e9 de       	rcall	.-558    	; 0x15e0 <WingBar>
    180e:	9f c0       	rjmp	.+318    	; 0x194e <GenerateBlinks+0x2c4>
    1810:	95 30       	cpi	r25, 0x05	; 5
    1812:	10 f0       	brcs	.+4      	; 0x1818 <GenerateBlinks+0x18e>
    1814:	10 92 61 38 	sts	0x3861, r1	; 0x803861 <LedCount>
    1818:	40 91 61 38 	lds	r20, 0x3861	; 0x803861 <LedCount>
    181c:	24 2f       	mov	r18, r20
    181e:	30 e0       	ldi	r19, 0x00	; 0
    1820:	f9 01       	movw	r30, r18
    1822:	ea 5e       	subi	r30, 0xEA	; 234
    1824:	f0 44       	sbci	r31, 0x40	; 64
    1826:	e5 81       	ldd	r30, Z+5	; 0x05
    1828:	f0 e0       	ldi	r31, 0x00	; 0
    182a:	e4 53       	subi	r30, 0x34	; 52
    182c:	f5 4c       	sbci	r31, 0xC5	; 197
    182e:	10 82       	st	Z, r1
    1830:	44 30       	cpi	r20, 0x04	; 4
    1832:	19 f0       	breq	.+6      	; 0x183a <GenerateBlinks+0x1b0>
    1834:	c9 01       	movw	r24, r18
    1836:	01 96       	adiw	r24, 0x01	; 1
    1838:	02 c0       	rjmp	.+4      	; 0x183e <GenerateBlinks+0x1b4>
    183a:	80 e0       	ldi	r24, 0x00	; 0
    183c:	90 e0       	ldi	r25, 0x00	; 0
    183e:	fc 01       	movw	r30, r24
    1840:	ea 5e       	subi	r30, 0xEA	; 234
    1842:	f0 44       	sbci	r31, 0x40	; 64
    1844:	e5 81       	ldd	r30, Z+5	; 0x05
    1846:	f0 e0       	ldi	r31, 0x00	; 0
    1848:	80 91 0c 38 	lds	r24, 0x380C	; 0x80380c <dimValue>
    184c:	e4 53       	subi	r30, 0x34	; 52
    184e:	f5 4c       	sbci	r31, 0xC5	; 197
    1850:	80 83       	st	Z, r24
    1852:	ea e1       	ldi	r30, 0x1A	; 26
    1854:	ff eb       	ldi	r31, 0xBF	; 191
    1856:	e2 1b       	sub	r30, r18
    1858:	f3 0b       	sbc	r31, r19
    185a:	e0 81       	ld	r30, Z
    185c:	f0 e0       	ldi	r31, 0x00	; 0
    185e:	e4 53       	subi	r30, 0x34	; 52
    1860:	f5 4c       	sbci	r31, 0xC5	; 197
    1862:	10 82       	st	Z, r1
    1864:	44 30       	cpi	r20, 0x04	; 4
    1866:	29 f0       	breq	.+10     	; 0x1872 <GenerateBlinks+0x1e8>
    1868:	83 e0       	ldi	r24, 0x03	; 3
    186a:	90 e0       	ldi	r25, 0x00	; 0
    186c:	82 1b       	sub	r24, r18
    186e:	93 0b       	sbc	r25, r19
    1870:	02 c0       	rjmp	.+4      	; 0x1876 <GenerateBlinks+0x1ec>
    1872:	84 e0       	ldi	r24, 0x04	; 4
    1874:	90 e0       	ldi	r25, 0x00	; 0
    1876:	fc 01       	movw	r30, r24
    1878:	ea 5e       	subi	r30, 0xEA	; 234
    187a:	f0 44       	sbci	r31, 0x40	; 64
    187c:	e0 81       	ld	r30, Z
    187e:	f0 e0       	ldi	r31, 0x00	; 0
    1880:	80 91 0c 38 	lds	r24, 0x380C	; 0x80380c <dimValue>
    1884:	e4 53       	subi	r30, 0x34	; 52
    1886:	f5 4c       	sbci	r31, 0xC5	; 197
    1888:	80 83       	st	Z, r24
    188a:	61 c0       	rjmp	.+194    	; 0x194e <GenerateBlinks+0x2c4>
    188c:	c6 e1       	ldi	r28, 0x16	; 22
    188e:	df eb       	ldi	r29, 0xBF	; 191
    1890:	8b e1       	ldi	r24, 0x1B	; 27
    1892:	e8 2e       	mov	r14, r24
    1894:	8f eb       	ldi	r24, 0xBF	; 191
    1896:	f8 2e       	mov	r15, r24
    1898:	6e 01       	movw	r12, r28
    189a:	0d 81       	ldd	r16, Y+5	; 0x05
    189c:	10 e0       	ldi	r17, 0x00	; 0
    189e:	a9 dc       	rcall	.-1710   	; 0x11f2 <lfsr>
    18a0:	87 ff       	sbrs	r24, 7
    18a2:	03 c0       	rjmp	.+6      	; 0x18aa <GenerateBlinks+0x220>
    18a4:	80 91 0c 38 	lds	r24, 0x380C	; 0x80380c <dimValue>
    18a8:	01 c0       	rjmp	.+2      	; 0x18ac <GenerateBlinks+0x222>
    18aa:	80 e0       	ldi	r24, 0x00	; 0
    18ac:	f8 01       	movw	r30, r16
    18ae:	e4 53       	subi	r30, 0x34	; 52
    18b0:	f5 4c       	sbci	r31, 0xC5	; 197
    18b2:	80 83       	st	Z, r24
    18b4:	21 96       	adiw	r28, 0x01	; 1
    18b6:	f6 01       	movw	r30, r12
    18b8:	00 81       	ld	r16, Z
    18ba:	10 e0       	ldi	r17, 0x00	; 0
    18bc:	9a dc       	rcall	.-1740   	; 0x11f2 <lfsr>
    18be:	87 ff       	sbrs	r24, 7
    18c0:	03 c0       	rjmp	.+6      	; 0x18c8 <GenerateBlinks+0x23e>
    18c2:	80 91 0c 38 	lds	r24, 0x380C	; 0x80380c <dimValue>
    18c6:	01 c0       	rjmp	.+2      	; 0x18ca <GenerateBlinks+0x240>
    18c8:	80 e0       	ldi	r24, 0x00	; 0
    18ca:	f8 01       	movw	r30, r16
    18cc:	e4 53       	subi	r30, 0x34	; 52
    18ce:	f5 4c       	sbci	r31, 0xC5	; 197
    18d0:	80 83       	st	Z, r24
    18d2:	ec 16       	cp	r14, r28
    18d4:	fd 06       	cpc	r15, r29
    18d6:	01 f7       	brne	.-64     	; 0x1898 <GenerateBlinks+0x20e>
    18d8:	3a c0       	rjmp	.+116    	; 0x194e <GenerateBlinks+0x2c4>
    18da:	90 fd       	sbrc	r25, 0
    18dc:	38 c0       	rjmp	.+112    	; 0x194e <GenerateBlinks+0x2c4>
    18de:	e6 e1       	ldi	r30, 0x16	; 22
    18e0:	ff eb       	ldi	r31, 0xBF	; 191
    18e2:	8a e1       	ldi	r24, 0x1A	; 26
    18e4:	9f eb       	ldi	r25, 0xBF	; 191
    18e6:	9f 01       	movw	r18, r30
    18e8:	a5 81       	ldd	r26, Z+5	; 0x05
    18ea:	b0 e0       	ldi	r27, 0x00	; 0
    18ec:	c6 81       	ldd	r28, Z+6	; 0x06
    18ee:	d0 e0       	ldi	r29, 0x00	; 0
    18f0:	c4 53       	subi	r28, 0x34	; 52
    18f2:	d5 4c       	sbci	r29, 0xC5	; 197
    18f4:	48 81       	ld	r20, Y
    18f6:	a4 53       	subi	r26, 0x34	; 52
    18f8:	b5 4c       	sbci	r27, 0xC5	; 197
    18fa:	4c 93       	st	X, r20
    18fc:	31 96       	adiw	r30, 0x01	; 1
    18fe:	e9 01       	movw	r28, r18
    1900:	a8 81       	ld	r26, Y
    1902:	b0 e0       	ldi	r27, 0x00	; 0
    1904:	c0 81       	ld	r28, Z
    1906:	d0 e0       	ldi	r29, 0x00	; 0
    1908:	c4 53       	subi	r28, 0x34	; 52
    190a:	d5 4c       	sbci	r29, 0xC5	; 197
    190c:	28 81       	ld	r18, Y
    190e:	a4 53       	subi	r26, 0x34	; 52
    1910:	b5 4c       	sbci	r27, 0xC5	; 197
    1912:	2c 93       	st	X, r18
    1914:	8e 17       	cp	r24, r30
    1916:	9f 07       	cpc	r25, r31
    1918:	31 f7       	brne	.-52     	; 0x18e6 <GenerateBlinks+0x25c>
    191a:	c0 91 1f bf 	lds	r28, 0xBF1F	; 0x80bf1f <__bss_end+0x8404>
    191e:	d0 e0       	ldi	r29, 0x00	; 0
    1920:	68 dc       	rcall	.-1840   	; 0x11f2 <lfsr>
    1922:	81 3e       	cpi	r24, 0xE1	; 225
    1924:	18 f0       	brcs	.+6      	; 0x192c <GenerateBlinks+0x2a2>
    1926:	80 91 0c 38 	lds	r24, 0x380C	; 0x80380c <dimValue>
    192a:	01 c0       	rjmp	.+2      	; 0x192e <GenerateBlinks+0x2a4>
    192c:	80 e0       	ldi	r24, 0x00	; 0
    192e:	c4 53       	subi	r28, 0x34	; 52
    1930:	d5 4c       	sbci	r29, 0xC5	; 197
    1932:	88 83       	st	Y, r24
    1934:	c0 91 1a bf 	lds	r28, 0xBF1A	; 0x80bf1a <__bss_end+0x83ff>
    1938:	d0 e0       	ldi	r29, 0x00	; 0
    193a:	5b dc       	rcall	.-1866   	; 0x11f2 <lfsr>
    193c:	81 3e       	cpi	r24, 0xE1	; 225
    193e:	18 f0       	brcs	.+6      	; 0x1946 <GenerateBlinks+0x2bc>
    1940:	80 91 0c 38 	lds	r24, 0x380C	; 0x80380c <dimValue>
    1944:	01 c0       	rjmp	.+2      	; 0x1948 <GenerateBlinks+0x2be>
    1946:	80 e0       	ldi	r24, 0x00	; 0
    1948:	c4 53       	subi	r28, 0x34	; 52
    194a:	d5 4c       	sbci	r29, 0xC5	; 197
    194c:	88 83       	st	Y, r24
    194e:	cd b7       	in	r28, 0x3d	; 61
    1950:	de b7       	in	r29, 0x3e	; 62
    1952:	e8 e0       	ldi	r30, 0x08	; 8
    1954:	0c 94 6b 1f 	jmp	0x3ed6	; 0x3ed6 <__epilogue_restores__+0x14>

00001958 <FadeOut>:
    1958:	e0 91 03 38 	lds	r30, 0x3803	; 0x803803 <auRepAddr>
    195c:	f0 91 04 38 	lds	r31, 0x3804	; 0x803804 <auRepAddr+0x1>
    1960:	90 81       	ld	r25, Z
    1962:	99 23       	and	r25, r25
    1964:	99 f1       	breq	.+102    	; 0x19cc <FadeOut+0x74>
    1966:	20 91 4b 38 	lds	r18, 0x384B	; 0x80384b <fastTicker>
    196a:	90 91 4a 38 	lds	r25, 0x384A	; 0x80384a <oldTicker>
    196e:	29 1b       	sub	r18, r25
    1970:	30 e0       	ldi	r19, 0x00	; 0
    1972:	80 95       	com	r24
    1974:	87 70       	andi	r24, 0x07	; 7
    1976:	a9 01       	movw	r20, r18
    1978:	02 c0       	rjmp	.+4      	; 0x197e <FadeOut+0x26>
    197a:	55 95       	asr	r21
    197c:	47 95       	ror	r20
    197e:	8a 95       	dec	r24
    1980:	e2 f7       	brpl	.-8      	; 0x197a <FadeOut+0x22>
    1982:	ca 01       	movw	r24, r20
    1984:	44 23       	and	r20, r20
    1986:	11 f1       	breq	.+68     	; 0x19cc <FadeOut+0x74>
    1988:	30 91 bf 3a 	lds	r19, 0x3ABF	; 0x803abf <auVolume>
    198c:	43 17       	cp	r20, r19
    198e:	30 f4       	brcc	.+12     	; 0x199c <FadeOut+0x44>
    1990:	90 91 bf 3a 	lds	r25, 0x3ABF	; 0x803abf <auVolume>
    1994:	98 1b       	sub	r25, r24
    1996:	90 93 bf 3a 	sts	0x3ABF, r25	; 0x803abf <auVolume>
    199a:	14 c0       	rjmp	.+40     	; 0x19c4 <FadeOut+0x6c>
    199c:	10 92 bf 3a 	sts	0x3ABF, r1	; 0x803abf <auVolume>
    19a0:	66 23       	and	r22, r22
    19a2:	81 f0       	breq	.+32     	; 0x19c4 <FadeOut+0x6c>
    19a4:	8f e3       	ldi	r24, 0x3F	; 63
    19a6:	98 e3       	ldi	r25, 0x38	; 56
    19a8:	80 93 03 38 	sts	0x3803, r24	; 0x803803 <auRepAddr>
    19ac:	90 93 04 38 	sts	0x3804, r25	; 0x803804 <auRepAddr+0x1>
    19b0:	80 91 40 38 	lds	r24, 0x3840	; 0x803840 <effect>
    19b4:	90 91 41 38 	lds	r25, 0x3841	; 0x803841 <effect+0x1>
    19b8:	8f 71       	andi	r24, 0x1F	; 31
    19ba:	99 27       	eor	r25, r25
    19bc:	80 93 40 38 	sts	0x3840, r24	; 0x803840 <effect>
    19c0:	90 93 41 38 	sts	0x3841, r25	; 0x803841 <effect+0x1>
    19c4:	80 91 4b 38 	lds	r24, 0x384B	; 0x80384b <fastTicker>
    19c8:	80 93 4a 38 	sts	0x384A, r24	; 0x80384a <oldTicker>
    19cc:	08 95       	ret

000019ce <GenerateAudio>:

uint8_t GenerateAudio(){
    19ce:	0f 93       	push	r16
    19d0:	1f 93       	push	r17
    19d2:	cf 93       	push	r28
    static uint8_t start = 0;
    static uint8_t duration;

    //Headphones detected?
    if (auIn < HPLVL) {
    19d4:	80 91 cb 3a 	lds	r24, 0x3ACB	; 0x803acb <auIn>
    19d8:	89 31       	cpi	r24, 0x19	; 25
    19da:	08 f0       	brcs	.+2      	; 0x19de <GenerateAudio+0x10>
    19dc:	5e c1       	rjmp	.+700    	; 0x1c9a <GenerateAudio+0x2cc>

        detHdPh = 1;
    19de:	c1 e0       	ldi	r28, 0x01	; 1
    19e0:	c0 93 c8 3a 	sts	0x3AC8, r28	; 0x803ac8 <detHdPh>

        //Audio for text adventure
        if ((effect&0xff00)==0) {
    19e4:	80 91 40 38 	lds	r24, 0x3840	; 0x803840 <effect>
    19e8:	90 91 41 38 	lds	r25, 0x3841	; 0x803841 <effect+0x1>
    19ec:	88 27       	eor	r24, r24
    19ee:	89 2b       	or	r24, r25
    19f0:	09 f0       	breq	.+2      	; 0x19f4 <GenerateAudio+0x26>
    19f2:	0a c1       	rjmp	.+532    	; 0x1c08 <GenerateAudio+0x23a>
        
            //Silence, I kill u
            if ((effect&0xE0)==0){
    19f4:	80 91 40 38 	lds	r24, 0x3840	; 0x803840 <effect>
    19f8:	90 91 41 38 	lds	r25, 0x3841	; 0x803841 <effect+0x1>
    19fc:	80 7e       	andi	r24, 0xE0	; 224
    19fe:	99 27       	eor	r25, r25
    1a00:	89 2b       	or	r24, r25
    1a02:	49 f4       	brne	.+18     	; 0x1a16 <GenerateAudio+0x48>
                auRepAddr = &zero;
    1a04:	8f e3       	ldi	r24, 0x3F	; 63
    1a06:	98 e3       	ldi	r25, 0x38	; 56
    1a08:	80 93 03 38 	sts	0x3803, r24	; 0x803803 <auRepAddr>
    1a0c:	90 93 04 38 	sts	0x3804, r25	; 0x803804 <auRepAddr+0x1>
                start = 0;
    1a10:	10 92 5f 38 	sts	0x385F, r1	; 0x80385f <start.4042>
    1a14:	44 c1       	rjmp	.+648    	; 0x1c9e <GenerateAudio+0x2d0>
            }

            //Bad answer (buzzer, also used in other games)
            else if ((effect&0xE0)==32){
    1a16:	80 91 40 38 	lds	r24, 0x3840	; 0x803840 <effect>
    1a1a:	90 91 41 38 	lds	r25, 0x3841	; 0x803841 <effect+0x1>
    1a1e:	80 7e       	andi	r24, 0xE0	; 224
    1a20:	99 27       	eor	r25, r25
    1a22:	80 97       	sbiw	r24, 0x20	; 32
    1a24:	61 f5       	brne	.+88     	; 0x1a7e <GenerateAudio+0xb0>
                static uint8_t auBuffer[17] = {1, 255, 128, 128, 192, 255, 64, 255, 192, 128, 64, 1, 192, 1, 64, 128, 0}; 
                auBuffer[2] = floatAround(0x80, 5, 0x01, 0x00);
    1a26:	20 e0       	ldi	r18, 0x00	; 0
    1a28:	41 e0       	ldi	r20, 0x01	; 1
    1a2a:	65 e0       	ldi	r22, 0x05	; 5
    1a2c:	80 e8       	ldi	r24, 0x80	; 128
    1a2e:	2e dc       	rcall	.-1956   	; 0x128c <floatAround>
    1a30:	80 93 1c 38 	sts	0x381C, r24	; 0x80381c <auBuffer.4044+0x2>

                if (start == 0) {
    1a34:	80 91 5f 38 	lds	r24, 0x385F	; 0x80385f <start.4042>
    1a38:	81 11       	cpse	r24, r1
    1a3a:	14 c0       	rjmp	.+40     	; 0x1a64 <GenerateAudio+0x96>
    }
}

uint8_t Play(uint8_t * auBuffer, uint8_t repeat, uint16_t pitch, uint8_t volume)
{
    TCB1_CCMP = pitch;
    1a3c:	80 e0       	ldi	r24, 0x00	; 0
    1a3e:	91 e2       	ldi	r25, 0x21	; 33
    1a40:	80 93 5c 0a 	sts	0x0A5C, r24	; 0x800a5c <__TEXT_REGION_LENGTH__+0x700a5c>
    1a44:	90 93 5d 0a 	sts	0x0A5D, r25	; 0x800a5d <__TEXT_REGION_LENGTH__+0x700a5d>
    if (repeat) auRepAddr = auBuffer;
    1a48:	8a e1       	ldi	r24, 0x1A	; 26
    1a4a:	98 e3       	ldi	r25, 0x38	; 56
    1a4c:	80 93 03 38 	sts	0x3803, r24	; 0x803803 <auRepAddr>
    1a50:	90 93 04 38 	sts	0x3804, r25	; 0x803804 <auRepAddr+0x1>
    else auSmpAddr = auBuffer;
    auVolume = volume;
    1a54:	8f ef       	ldi	r24, 0xFF	; 255
    1a56:	80 93 bf 3a 	sts	0x3ABF, r24	; 0x803abf <auVolume>
            else if ((effect&0xE0)==32){
                static uint8_t auBuffer[17] = {1, 255, 128, 128, 192, 255, 64, 255, 192, 128, 64, 1, 192, 1, 64, 128, 0}; 
                auBuffer[2] = floatAround(0x80, 5, 0x01, 0x00);

                if (start == 0) {
                    start = Play(&auBuffer[0], 1, 0x2100, 0xff);
    1a5a:	c0 93 5f 38 	sts	0x385F, r28	; 0x80385f <start.4042>
                    duration = 4;
    1a5e:	84 e0       	ldi	r24, 0x04	; 4
    1a60:	80 93 5e 38 	sts	0x385E, r24	; 0x80385e <duration.4043>
                }

                if (duration == 0) FadeOut(4, start);
    1a64:	80 91 5e 38 	lds	r24, 0x385E	; 0x80385e <duration.4043>
    1a68:	81 11       	cpse	r24, r1
    1a6a:	04 c0       	rjmp	.+8      	; 0x1a74 <GenerateAudio+0xa6>
    1a6c:	60 91 5f 38 	lds	r22, 0x385F	; 0x80385f <start.4042>
    1a70:	84 e0       	ldi	r24, 0x04	; 4
    1a72:	72 df       	rcall	.-284    	; 0x1958 <FadeOut>
                floatSpeed(1, 0x2000, 0x2200);
    1a74:	40 e0       	ldi	r20, 0x00	; 0
    1a76:	52 e2       	ldi	r21, 0x22	; 34
    1a78:	60 e0       	ldi	r22, 0x00	; 0
    1a7a:	70 e2       	ldi	r23, 0x20	; 32
    1a7c:	0c c1       	rjmp	.+536    	; 0x1c96 <GenerateAudio+0x2c8>
            }

            //Good (bell)
            else if ((effect&0xE0)==64){
    1a7e:	80 91 40 38 	lds	r24, 0x3840	; 0x803840 <effect>
    1a82:	90 91 41 38 	lds	r25, 0x3841	; 0x803841 <effect+0x1>
    1a86:	80 7e       	andi	r24, 0xE0	; 224
    1a88:	99 27       	eor	r25, r25
    1a8a:	80 34       	cpi	r24, 0x40	; 64
    1a8c:	91 05       	cpc	r25, r1
    1a8e:	c1 f5       	brne	.+112    	; 0x1b00 <GenerateAudio+0x132>
                static uint8_t auBuffer[3] = {255, 1, 0};

                if (start == 0) {
    1a90:	80 91 5f 38 	lds	r24, 0x385F	; 0x80385f <start.4042>
    1a94:	81 11       	cpse	r24, r1
    1a96:	14 c0       	rjmp	.+40     	; 0x1ac0 <GenerateAudio+0xf2>
    }
}

uint8_t Play(uint8_t * auBuffer, uint8_t repeat, uint16_t pitch, uint8_t volume)
{
    TCB1_CCMP = pitch;
    1a98:	80 e0       	ldi	r24, 0x00	; 0
    1a9a:	9a e0       	ldi	r25, 0x0A	; 10
    1a9c:	80 93 5c 0a 	sts	0x0A5C, r24	; 0x800a5c <__TEXT_REGION_LENGTH__+0x700a5c>
    1aa0:	90 93 5d 0a 	sts	0x0A5D, r25	; 0x800a5d <__TEXT_REGION_LENGTH__+0x700a5d>
    if (repeat) auRepAddr = auBuffer;
    1aa4:	87 e1       	ldi	r24, 0x17	; 23
    1aa6:	98 e3       	ldi	r25, 0x38	; 56
    1aa8:	80 93 03 38 	sts	0x3803, r24	; 0x803803 <auRepAddr>
    1aac:	90 93 04 38 	sts	0x3804, r25	; 0x803804 <auRepAddr+0x1>
    else auSmpAddr = auBuffer;
    auVolume = volume;
    1ab0:	8f ef       	ldi	r24, 0xFF	; 255
    1ab2:	80 93 bf 3a 	sts	0x3ABF, r24	; 0x803abf <auVolume>
            //Good (bell)
            else if ((effect&0xE0)==64){
                static uint8_t auBuffer[3] = {255, 1, 0};

                if (start == 0) {
                    start = Play(&auBuffer[0], 1, 0x0a00, 0xff);
    1ab6:	c0 93 5f 38 	sts	0x385F, r28	; 0x80385f <start.4042>
                    duration = 4;
    1aba:	84 e0       	ldi	r24, 0x04	; 4
    1abc:	80 93 5e 38 	sts	0x385E, r24	; 0x80385e <duration.4043>
                }

                if (duration == 0) FadeOut(4, start);
    1ac0:	80 91 5e 38 	lds	r24, 0x385E	; 0x80385e <duration.4043>
    1ac4:	81 11       	cpse	r24, r1
    1ac6:	04 c0       	rjmp	.+8      	; 0x1ad0 <GenerateAudio+0x102>
    1ac8:	60 91 5f 38 	lds	r22, 0x385F	; 0x80385f <start.4042>
    1acc:	84 e0       	ldi	r24, 0x04	; 4
    1ace:	44 df       	rcall	.-376    	; 0x1958 <FadeOut>
                if (buttonMark){
    1ad0:	80 91 48 38 	lds	r24, 0x3848	; 0x803848 <buttonMark>
    1ad4:	88 23       	and	r24, r24
    1ad6:	09 f4       	brne	.+2      	; 0x1ada <GenerateAudio+0x10c>
    1ad8:	e2 c0       	rjmp	.+452    	; 0x1c9e <GenerateAudio+0x2d0>
                    TCB1_CCMP -= 0x080;                    
    1ada:	80 91 5c 0a 	lds	r24, 0x0A5C	; 0x800a5c <__TEXT_REGION_LENGTH__+0x700a5c>
    1ade:	90 91 5d 0a 	lds	r25, 0x0A5D	; 0x800a5d <__TEXT_REGION_LENGTH__+0x700a5d>
    1ae2:	80 58       	subi	r24, 0x80	; 128
    1ae4:	91 09       	sbc	r25, r1
    1ae6:	80 93 5c 0a 	sts	0x0A5C, r24	; 0x800a5c <__TEXT_REGION_LENGTH__+0x700a5c>
    1aea:	90 93 5d 0a 	sts	0x0A5D, r25	; 0x800a5d <__TEXT_REGION_LENGTH__+0x700a5d>
                    if (auVolume == 0) effect = 0;
    1aee:	80 91 bf 3a 	lds	r24, 0x3ABF	; 0x803abf <auVolume>
    1af2:	81 11       	cpse	r24, r1
    1af4:	d4 c0       	rjmp	.+424    	; 0x1c9e <GenerateAudio+0x2d0>
    1af6:	10 92 40 38 	sts	0x3840, r1	; 0x803840 <effect>
    1afa:	10 92 41 38 	sts	0x3841, r1	; 0x803841 <effect+0x1>
    1afe:	cf c0       	rjmp	.+414    	; 0x1c9e <GenerateAudio+0x2d0>
                }
            }

            //Rain storm with whistling wind
            else if ((effect&0xE0)==96){
    1b00:	80 91 40 38 	lds	r24, 0x3840	; 0x803840 <effect>
    1b04:	90 91 41 38 	lds	r25, 0x3841	; 0x803841 <effect+0x1>
    1b08:	80 7e       	andi	r24, 0xE0	; 224
    1b0a:	99 27       	eor	r25, r25
    1b0c:	80 36       	cpi	r24, 0x60	; 96
    1b0e:	91 05       	cpc	r25, r1
    1b10:	b9 f5       	brne	.+110    	; 0x1b80 <GenerateAudio+0x1b2>
                static uint8_t auBuffer[7];
                auBuffer[6]= 0;        
    1b12:	10 92 5d 38 	sts	0x385D, r1	; 0x80385d <auBuffer.4046+0x6>
                auRepAddr = &auBuffer[0];
    1b16:	87 e5       	ldi	r24, 0x57	; 87
    1b18:	98 e3       	ldi	r25, 0x38	; 56
    1b1a:	80 93 03 38 	sts	0x3803, r24	; 0x803803 <auRepAddr>
    1b1e:	90 93 04 38 	sts	0x3804, r25	; 0x803804 <auRepAddr+0x1>
    1b22:	8c 01       	movw	r16, r24

                //Noise is to be generated fast, outside of buttonMark loop
                for (uint8_t x=1; x<6; ++x){
    1b24:	c1 e0       	ldi	r28, 0x01	; 1
                    if ((x>0) && (x!=3)) auBuffer[x] = floatAround(0x80, 5, 0x01, 0x00);
    1b26:	c3 30       	cpi	r28, 0x03	; 3
    1b28:	39 f0       	breq	.+14     	; 0x1b38 <GenerateAudio+0x16a>
    1b2a:	20 e0       	ldi	r18, 0x00	; 0
    1b2c:	41 e0       	ldi	r20, 0x01	; 1
    1b2e:	65 e0       	ldi	r22, 0x05	; 5
    1b30:	80 e8       	ldi	r24, 0x80	; 128
    1b32:	ac db       	rcall	.-2216   	; 0x128c <floatAround>
    1b34:	f8 01       	movw	r30, r16
    1b36:	81 83       	std	Z+1, r24	; 0x01
                static uint8_t auBuffer[7];
                auBuffer[6]= 0;        
                auRepAddr = &auBuffer[0];

                //Noise is to be generated fast, outside of buttonMark loop
                for (uint8_t x=1; x<6; ++x){
    1b38:	cf 5f       	subi	r28, 0xFF	; 255
    1b3a:	0f 5f       	subi	r16, 0xFF	; 255
    1b3c:	1f 4f       	sbci	r17, 0xFF	; 255
    1b3e:	c6 30       	cpi	r28, 0x06	; 6
    1b40:	91 f7       	brne	.-28     	; 0x1b26 <GenerateAudio+0x158>
                    if ((x>0) && (x!=3)) auBuffer[x] = floatAround(0x80, 5, 0x01, 0x00);
                }

                if (buttonMark){
    1b42:	80 91 48 38 	lds	r24, 0x3848	; 0x803848 <buttonMark>
    1b46:	88 23       	and	r24, r24
    1b48:	09 f4       	brne	.+2      	; 0x1b4c <GenerateAudio+0x17e>
    1b4a:	a9 c0       	rjmp	.+338    	; 0x1c9e <GenerateAudio+0x2d0>
                    //"Floating" speed for howl (and noise, but that's hardly audible)
                    floatSpeed(5, 0x0280, 0x0400);
    1b4c:	40 e0       	ldi	r20, 0x00	; 0
    1b4e:	54 e0       	ldi	r21, 0x04	; 4
    1b50:	60 e8       	ldi	r22, 0x80	; 128
    1b52:	72 e0       	ldi	r23, 0x02	; 2
    1b54:	85 e0       	ldi	r24, 0x05	; 5
    1b56:	6c db       	rcall	.-2344   	; 0x1230 <floatSpeed>
            
                    //"Floating" volume and wind howl during 8 bit rainstorm needs some randomness
                    auVolume = floatAround(auVolume, 2, 0x10, 0xA0);
    1b58:	80 91 bf 3a 	lds	r24, 0x3ABF	; 0x803abf <auVolume>
    1b5c:	20 ea       	ldi	r18, 0xA0	; 160
    1b5e:	40 e1       	ldi	r20, 0x10	; 16
    1b60:	62 e0       	ldi	r22, 0x02	; 2
    1b62:	94 db       	rcall	.-2264   	; 0x128c <floatAround>
    1b64:	80 93 bf 3a 	sts	0x3ABF, r24	; 0x803abf <auVolume>
                    auBuffer[0] = floatAround(auBuffer[0], 2, 0x70, 0x90);
    1b68:	20 e9       	ldi	r18, 0x90	; 144
    1b6a:	40 e7       	ldi	r20, 0x70	; 112
    1b6c:	62 e0       	ldi	r22, 0x02	; 2
    1b6e:	80 91 57 38 	lds	r24, 0x3857	; 0x803857 <auBuffer.4046>
    1b72:	8c db       	rcall	.-2280   	; 0x128c <floatAround>
    1b74:	80 93 57 38 	sts	0x3857, r24	; 0x803857 <auBuffer.4046>
    1b78:	80 95       	com	r24
                    auBuffer[3] = 0xFF-auBuffer[0];  //Inverse value of wind[0] produces a whistle
    1b7a:	80 93 5a 38 	sts	0x385A, r24	; 0x80385a <auBuffer.4046+0x3>
    1b7e:	8f c0       	rjmp	.+286    	; 0x1c9e <GenerateAudio+0x2d0>
    1b80:	80 91 40 38 	lds	r24, 0x3840	; 0x803840 <effect>
                }
            }

            //Footsteps
            else if ((effect&0xE0)==128){
    1b84:	90 91 41 38 	lds	r25, 0x3841	; 0x803841 <effect+0x1>
    1b88:	80 7e       	andi	r24, 0xE0	; 224
    1b8a:	99 27       	eor	r25, r25
    1b8c:	80 38       	cpi	r24, 0x80	; 128
    1b8e:	91 05       	cpc	r25, r1
    1b90:	09 f4       	brne	.+2      	; 0x1b94 <GenerateAudio+0x1c6>
    1b92:	85 c0       	rjmp	.+266    	; 0x1c9e <GenerateAudio+0x2d0>
    1b94:	80 91 40 38 	lds	r24, 0x3840	; 0x803840 <effect>

            }

            //Bleeps
            else if ((effect&0xE0)==160){
    1b98:	90 91 41 38 	lds	r25, 0x3841	; 0x803841 <effect+0x1>
    1b9c:	80 7e       	andi	r24, 0xE0	; 224
    1b9e:	99 27       	eor	r25, r25
    1ba0:	80 3a       	cpi	r24, 0xA0	; 160
    1ba2:	91 05       	cpc	r25, r1
    1ba4:	61 f5       	brne	.+88     	; 0x1bfe <GenerateAudio+0x230>
    1ba6:	80 91 5f 38 	lds	r24, 0x385F	; 0x80385f <start.4042>
                static uint8_t auBuffer[6] = {255, 192, 128, 64 ,1 ,0};
                
                if (start == 0) {
    1baa:	81 11       	cpse	r24, r1
    1bac:	14 c0       	rjmp	.+40     	; 0x1bd6 <GenerateAudio+0x208>
    1bae:	80 e0       	ldi	r24, 0x00	; 0
    }
}

uint8_t Play(uint8_t * auBuffer, uint8_t repeat, uint16_t pitch, uint8_t volume)
{
    TCB1_CCMP = pitch;
    1bb0:	90 e2       	ldi	r25, 0x20	; 32
    1bb2:	80 93 5c 0a 	sts	0x0A5C, r24	; 0x800a5c <__TEXT_REGION_LENGTH__+0x700a5c>
    1bb6:	90 93 5d 0a 	sts	0x0A5D, r25	; 0x800a5d <__TEXT_REGION_LENGTH__+0x700a5d>
    1bba:	81 e1       	ldi	r24, 0x11	; 17
    if (repeat) auRepAddr = auBuffer;
    1bbc:	98 e3       	ldi	r25, 0x38	; 56
    1bbe:	80 93 03 38 	sts	0x3803, r24	; 0x803803 <auRepAddr>
    1bc2:	90 93 04 38 	sts	0x3804, r25	; 0x803804 <auRepAddr+0x1>
    1bc6:	8f ef       	ldi	r24, 0xFF	; 255
    else auSmpAddr = auBuffer;
    auVolume = volume;
    1bc8:	80 93 bf 3a 	sts	0x3ABF, r24	; 0x803abf <auVolume>
    1bcc:	c0 93 5f 38 	sts	0x385F, r28	; 0x80385f <start.4042>
            //Bleeps
            else if ((effect&0xE0)==160){
                static uint8_t auBuffer[6] = {255, 192, 128, 64 ,1 ,0};
                
                if (start == 0) {
                    start = Play(&auBuffer[0], 1, 0x2000, 0xff);
    1bd0:	8a e0       	ldi	r24, 0x0A	; 10
                    duration = 10;
    1bd2:	80 93 5e 38 	sts	0x385E, r24	; 0x80385e <duration.4043>
    1bd6:	80 91 5e 38 	lds	r24, 0x385E	; 0x80385e <duration.4043>
                }

                if (duration == 0) FadeOut(2, start);
    1bda:	81 11       	cpse	r24, r1
    1bdc:	04 c0       	rjmp	.+8      	; 0x1be6 <GenerateAudio+0x218>
    1bde:	60 91 5f 38 	lds	r22, 0x385F	; 0x80385f <start.4042>
    1be2:	82 e0       	ldi	r24, 0x02	; 2
    1be4:	b9 de       	rcall	.-654    	; 0x1958 <FadeOut>
    1be6:	80 91 48 38 	lds	r24, 0x3848	; 0x803848 <buttonMark>
                if (buttonMark){
    1bea:	88 23       	and	r24, r24
    1bec:	09 f4       	brne	.+2      	; 0x1bf0 <GenerateAudio+0x222>
    1bee:	57 c0       	rjmp	.+174    	; 0x1c9e <GenerateAudio+0x2d0>
                    floatSpeed(7, 0x0100, 0x4000);
    1bf0:	40 e0       	ldi	r20, 0x00	; 0
    1bf2:	50 e4       	ldi	r21, 0x40	; 64
    1bf4:	60 e0       	ldi	r22, 0x00	; 0
    1bf6:	71 e0       	ldi	r23, 0x01	; 1
    1bf8:	87 e0       	ldi	r24, 0x07	; 7
    1bfa:	1a db       	rcall	.-2508   	; 0x1230 <floatSpeed>
    1bfc:	50 c0       	rjmp	.+160    	; 0x1c9e <GenerateAudio+0x2d0>
    1bfe:	80 91 40 38 	lds	r24, 0x3840	; 0x803840 <effect>
                }
            }

            //
            else if ((effect&0xE0)==192){
    1c02:	90 91 41 38 	lds	r25, 0x3841	; 0x803841 <effect+0x1>
    1c06:	4b c0       	rjmp	.+150    	; 0x1c9e <GenerateAudio+0x2d0>
    1c08:	80 91 40 38 	lds	r24, 0x3840	; 0x803840 <effect>
            }

            //
            else {
            }
        } else if ((effect&0xff00)==0x0100) {
    1c0c:	90 91 41 38 	lds	r25, 0x3841	; 0x803841 <effect+0x1>
    1c10:	88 27       	eor	r24, r24
    1c12:	81 15       	cp	r24, r1
    1c14:	91 40       	sbci	r25, 0x01	; 1
    1c16:	09 f0       	breq	.+2      	; 0x1c1a <GenerateAudio+0x24c>
    1c18:	42 c0       	rjmp	.+132    	; 0x1c9e <GenerateAudio+0x2d0>
    1c1a:	80 91 40 38 	lds	r24, 0x3840	; 0x803840 <effect>
            if ((effect&0xE0) <= 0x90) {
    1c1e:	90 91 41 38 	lds	r25, 0x3841	; 0x803841 <effect+0x1>
    1c22:	80 7e       	andi	r24, 0xE0	; 224
    1c24:	99 27       	eor	r25, r25
    1c26:	81 39       	cpi	r24, 0x91	; 145
    1c28:	91 05       	cpc	r25, r1
    1c2a:	c8 f5       	brcc	.+114    	; 0x1c9e <GenerateAudio+0x2d0>
    1c2c:	80 91 5f 38 	lds	r24, 0x385F	; 0x80385f <start.4042>
                
                static uint8_t auBuffer[3] = {255, 1, 0};
                static uint16_t freq;

                if (start == 0) {
    1c30:	81 11       	cpse	r24, r1
    1c32:	22 c0       	rjmp	.+68     	; 0x1c78 <GenerateAudio+0x2aa>
    1c34:	80 91 40 38 	lds	r24, 0x3840	; 0x803840 <effect>
                    freq = ((effect&0xE0)+1)<<6;
    1c38:	90 91 41 38 	lds	r25, 0x3841	; 0x803841 <effect+0x1>
    1c3c:	80 7e       	andi	r24, 0xE0	; 224
    1c3e:	99 27       	eor	r25, r25
    1c40:	01 96       	adiw	r24, 0x01	; 1
    1c42:	26 e0       	ldi	r18, 0x06	; 6
    1c44:	88 0f       	add	r24, r24
    1c46:	99 1f       	adc	r25, r25
    1c48:	2a 95       	dec	r18
    1c4a:	e1 f7       	brne	.-8      	; 0x1c44 <GenerateAudio+0x276>
    1c4c:	80 93 55 38 	sts	0x3855, r24	; 0x803855 <freq.4053>
    1c50:	90 93 56 38 	sts	0x3856, r25	; 0x803856 <freq.4053+0x1>
    1c54:	80 93 5c 0a 	sts	0x0A5C, r24	; 0x800a5c <__TEXT_REGION_LENGTH__+0x700a5c>
    }
}

uint8_t Play(uint8_t * auBuffer, uint8_t repeat, uint16_t pitch, uint8_t volume)
{
    TCB1_CCMP = pitch;
    1c58:	90 93 5d 0a 	sts	0x0A5D, r25	; 0x800a5d <__TEXT_REGION_LENGTH__+0x700a5d>
    1c5c:	8e e0       	ldi	r24, 0x0E	; 14
    if (repeat) auRepAddr = auBuffer;
    1c5e:	98 e3       	ldi	r25, 0x38	; 56
    1c60:	80 93 03 38 	sts	0x3803, r24	; 0x803803 <auRepAddr>
    1c64:	90 93 04 38 	sts	0x3804, r25	; 0x803804 <auRepAddr+0x1>
    1c68:	8f ef       	ldi	r24, 0xFF	; 255
    else auSmpAddr = auBuffer;
    auVolume = volume;
    1c6a:	80 93 bf 3a 	sts	0x3ABF, r24	; 0x803abf <auVolume>
    1c6e:	c0 93 5f 38 	sts	0x385F, r28	; 0x80385f <start.4042>
                static uint8_t auBuffer[3] = {255, 1, 0};
                static uint16_t freq;

                if (start == 0) {
                    freq = ((effect&0xE0)+1)<<6;
                    start = Play(&auBuffer[0], 1, freq, 0xff);
    1c72:	83 e0       	ldi	r24, 0x03	; 3
                    duration = 3;
    1c74:	80 93 5e 38 	sts	0x385E, r24	; 0x80385e <duration.4043>
                }

                if (duration == 0) FadeOut(7, start);
    1c78:	80 91 5e 38 	lds	r24, 0x385E	; 0x80385e <duration.4043>
    1c7c:	81 11       	cpse	r24, r1
    1c7e:	04 c0       	rjmp	.+8      	; 0x1c88 <GenerateAudio+0x2ba>
    1c80:	60 91 5f 38 	lds	r22, 0x385F	; 0x80385f <start.4042>
    1c84:	87 e0       	ldi	r24, 0x07	; 7
    1c86:	68 de       	rcall	.-816    	; 0x1958 <FadeOut>
    1c88:	60 91 55 38 	lds	r22, 0x3855	; 0x803855 <freq.4053>
                floatSpeed(1, freq+0x0200, freq+0x0300);
    1c8c:	70 91 56 38 	lds	r23, 0x3856	; 0x803856 <freq.4053+0x1>
    1c90:	ab 01       	movw	r20, r22
    1c92:	5d 5f       	subi	r21, 0xFD	; 253
    1c94:	7e 5f       	subi	r23, 0xFE	; 254
    1c96:	81 e0       	ldi	r24, 0x01	; 1
    1c98:	b0 cf       	rjmp	.-160    	; 0x1bfa <GenerateAudio+0x22c>
    1c9a:	10 92 c8 3a 	sts	0x3AC8, r1	; 0x803ac8 <detHdPh>
                //auBuffer[] = floatAround(0x80, 5, 0x01, 0x00);
            }
        }
    } else {
        detHdPh = 0;
    1c9e:	80 91 48 38 	lds	r24, 0x3848	; 0x803848 <buttonMark>
    }

    if (buttonMark && duration) --duration;
    1ca2:	88 23       	and	r24, r24
    1ca4:	39 f0       	breq	.+14     	; 0x1cb4 <GenerateAudio+0x2e6>
    1ca6:	80 91 5e 38 	lds	r24, 0x385E	; 0x80385e <duration.4043>
    1caa:	88 23       	and	r24, r24
    1cac:	19 f0       	breq	.+6      	; 0x1cb4 <GenerateAudio+0x2e6>
    1cae:	81 50       	subi	r24, 0x01	; 1
    1cb0:	80 93 5e 38 	sts	0x385E, r24	; 0x80385e <duration.4043>
    1cb4:	80 91 48 38 	lds	r24, 0x3848	; 0x803848 <buttonMark>

    return buttonMark;
    1cb8:	cf 91       	pop	r28
}
    1cba:	1f 91       	pop	r17
    1cbc:	0f 91       	pop	r16
    1cbe:	08 95       	ret

00001cc0 <getClock>:
    1cc0:	80 91 48 01 	lds	r24, 0x0148	; 0x800148 <__TEXT_REGION_LENGTH__+0x700148>

uint16_t getClock() {
    uint16_t tmp = RTC_CNT;
    1cc4:	90 91 49 01 	lds	r25, 0x0149	; 0x800149 <__TEXT_REGION_LENGTH__+0x700149>
    return 60 * minuteMark + (tmp>>9);
    1cc8:	20 91 49 38 	lds	r18, 0x3849	; 0x803849 <minuteMark>
    1ccc:	89 2f       	mov	r24, r25
    1cce:	99 27       	eor	r25, r25
    1cd0:	86 95       	lsr	r24
}
    1cd2:	3c e3       	ldi	r19, 0x3C	; 60
    1cd4:	23 9f       	mul	r18, r19
    1cd6:	80 0d       	add	r24, r0
    1cd8:	91 1d       	adc	r25, r1
    1cda:	11 24       	eor	r1, r1
    1cdc:	08 95       	ret

00001cde <idleTimeout>:

uint8_t idleTimeout(uint16_t lastActive, uint16_t maxIdle) {
    1cde:	0f 93       	push	r16
    1ce0:	1f 93       	push	r17
    1ce2:	cf 93       	push	r28
    1ce4:	df 93       	push	r29
    1ce6:	8c 01       	movw	r16, r24
    1ce8:	eb 01       	movw	r28, r22
    uint16_t curClock;

    curClock = getClock();
    1cea:	ea df       	rcall	.-44     	; 0x1cc0 <getClock>
    1cec:	9c 01       	movw	r18, r24
    if (curClock < lastActive)
    1cee:	80 17       	cp	r24, r16
    1cf0:	91 07       	cpc	r25, r17
    1cf2:	08 f4       	brcc	.+2      	; 0x1cf6 <idleTimeout+0x18>
        curClock += 256 * 60;
    1cf4:	34 5c       	subi	r19, 0xC4	; 196

    return (curClock > (lastActive + maxIdle));
    1cf6:	c0 0f       	add	r28, r16
    1cf8:	d1 1f       	adc	r29, r17
    1cfa:	81 e0       	ldi	r24, 0x01	; 1
    1cfc:	c2 17       	cp	r28, r18
    1cfe:	d3 07       	cpc	r29, r19
    1d00:	08 f0       	brcs	.+2      	; 0x1d04 <idleTimeout+0x26>
    1d02:	80 e0       	ldi	r24, 0x00	; 0
}
    1d04:	df 91       	pop	r29
    1d06:	cf 91       	pop	r28
    1d08:	1f 91       	pop	r17
    1d0a:	0f 91       	pop	r16
    1d0c:	08 95       	ret

00001d0e <SelfTest>:

uint8_t SelfTest(){
    1d0e:	a4 e0       	ldi	r26, 0x04	; 4
    1d10:	b0 e0       	ldi	r27, 0x00	; 0
    1d12:	ed e8       	ldi	r30, 0x8D	; 141
    1d14:	fe e0       	ldi	r31, 0x0E	; 14
    1d16:	0c 94 58 1f 	jmp	0x3eb0	; 0x3eb0 <__prologue_saves__+0x20>
    uint8_t tstVal[4] = {0x01, 0};
    1d1a:	19 82       	std	Y+1, r1	; 0x01
    1d1c:	1a 82       	std	Y+2, r1	; 0x02
    1d1e:	1b 82       	std	Y+3, r1	; 0x03
    1d20:	1c 82       	std	Y+4, r1	; 0x04
    1d22:	a4 e2       	ldi	r26, 0x24	; 36
    1d24:	bf eb       	ldi	r27, 0xBF	; 191
    1d26:	8a e2       	ldi	r24, 0x2A	; 42
    1d28:	9f eb       	ldi	r25, 0xBF	; 191

    //Red HCKR all on 100%
    for (uint8_t x=0; x<6; ++x) {
        iLED[HCKR[R][x]] = 0xff;
    1d2a:	2f ef       	ldi	r18, 0xFF	; 255
    1d2c:	ed 91       	ld	r30, X+
    1d2e:	f0 e0       	ldi	r31, 0x00	; 0
    1d30:	e4 53       	subi	r30, 0x34	; 52
    1d32:	f5 4c       	sbci	r31, 0xC5	; 197
    1d34:	20 83       	st	Z, r18

uint8_t SelfTest(){
    uint8_t tstVal[4] = {0x01, 0};

    //Red HCKR all on 100%
    for (uint8_t x=0; x<6; ++x) {
    1d36:	8a 17       	cp	r24, r26
    1d38:	9b 07       	cpc	r25, r27
    1d3a:	c1 f7       	brne	.-16     	; 0x1d2c <SelfTest+0x1e>
        iLED[HCKR[R][x]] = 0xff;
    }

    //Light sensor
    tstVal[0] = adcPhot&0xff;
    1d3c:	80 91 c6 3a 	lds	r24, 0x3AC6	; 0x803ac6 <adcPhot>
    1d40:	90 91 c7 3a 	lds	r25, 0x3AC7	; 0x803ac7 <adcPhot+0x1>
    1d44:	89 83       	std	Y+1, r24	; 0x01
    while (tstVal[0] == (adcPhot&0xff)) ;
    1d46:	99 27       	eor	r25, r25
    1d48:	20 91 c6 3a 	lds	r18, 0x3AC6	; 0x803ac6 <adcPhot>
    1d4c:	30 91 c7 3a 	lds	r19, 0x3AC7	; 0x803ac7 <adcPhot+0x1>
    1d50:	33 27       	eor	r19, r19
    1d52:	28 17       	cp	r18, r24
    1d54:	39 07       	cpc	r19, r25
    1d56:	c1 f3       	breq	.-16     	; 0x1d48 <SelfTest+0x3a>
    iLED[HCKR[R][1]] = 0x00;
    1d58:	e0 91 25 bf 	lds	r30, 0xBF25	; 0x80bf25 <__bss_end+0x840a>
    1d5c:	f0 e0       	ldi	r31, 0x00	; 0
    1d5e:	e4 53       	subi	r30, 0x34	; 52
    1d60:	f5 4c       	sbci	r31, 0xC5	; 197
    1d62:	10 82       	st	Z, r1

    //Buttons (none pressed / shorted)
    while ((adcBtns>>4) < 200) ;
    1d64:	80 91 c0 3a 	lds	r24, 0x3AC0	; 0x803ac0 <adcBtns>
    1d68:	90 91 c1 3a 	lds	r25, 0x3AC1	; 0x803ac1 <adcBtns+0x1>
    1d6c:	80 38       	cpi	r24, 0x80	; 128
    1d6e:	9c 40       	sbci	r25, 0x0C	; 12
    1d70:	c8 f3       	brcs	.-14     	; 0x1d64 <SelfTest+0x56>
    iLED[HCKR[R][4]] = 0x00;
    1d72:	e0 91 28 bf 	lds	r30, 0xBF28	; 0x80bf28 <__bss_end+0x840d>
    1d76:	f0 e0       	ldi	r31, 0x00	; 0
    1d78:	e4 53       	subi	r30, 0x34	; 52
    1d7a:	f5 4c       	sbci	r31, 0xC5	; 197
    1d7c:	10 82       	st	Z, r1
    
    ExtEERead(0x3CCC, 4, 0, (uint8_t *)&tstVal[0]);
    1d7e:	9e 01       	movw	r18, r28
    1d80:	2f 5f       	subi	r18, 0xFF	; 255
    1d82:	3f 4f       	sbci	r19, 0xFF	; 255
    1d84:	40 e0       	ldi	r20, 0x00	; 0
    1d86:	64 e0       	ldi	r22, 0x04	; 4
    1d88:	8c ec       	ldi	r24, 0xCC	; 204
    1d8a:	9c e3       	ldi	r25, 0x3C	; 60
    1d8c:	a2 d9       	rcall	.-3260   	; 0x10d2 <ExtEERead>
    if ((tstVal[0] != 63) || (tstVal[1] != 0) || (tstVal[2] != 192) || (tstVal[3] != 20)){
    1d8e:	89 81       	ldd	r24, Y+1	; 0x01
    1d90:	8f 33       	cpi	r24, 0x3F	; 63
    1d92:	49 f4       	brne	.+18     	; 0x1da6 <SelfTest+0x98>
    1d94:	8a 81       	ldd	r24, Y+2	; 0x02
    1d96:	81 11       	cpse	r24, r1
    1d98:	06 c0       	rjmp	.+12     	; 0x1da6 <SelfTest+0x98>
    1d9a:	8b 81       	ldd	r24, Y+3	; 0x03
    1d9c:	80 3c       	cpi	r24, 0xC0	; 192
    1d9e:	19 f4       	brne	.+6      	; 0x1da6 <SelfTest+0x98>
    1da0:	8c 81       	ldd	r24, Y+4	; 0x04
    1da2:	84 31       	cpi	r24, 0x14	; 20
    1da4:	09 f0       	breq	.+2      	; 0x1da8 <SelfTest+0x9a>
    1da6:	ff cf       	rjmp	.-2      	; 0x1da6 <SelfTest+0x98>
    1da8:	80 e0       	ldi	r24, 0x00	; 0
    1daa:	90 e0       	ldi	r25, 0x00	; 0
        while(1);
    }
    
    //All LEDs off
    for (uint8_t x=0; x<40; ++x) {
        iLED[x]=0;
    1dac:	fc 01       	movw	r30, r24
    1dae:	e4 53       	subi	r30, 0x34	; 52
    1db0:	f5 4c       	sbci	r31, 0xC5	; 197
    1db2:	10 82       	st	Z, r1
    1db4:	01 96       	adiw	r24, 0x01	; 1
    if ((tstVal[0] != 63) || (tstVal[1] != 0) || (tstVal[2] != 192) || (tstVal[3] != 20)){
        while(1);
    }
    
    //All LEDs off
    for (uint8_t x=0; x<40; ++x) {
    1db6:	88 32       	cpi	r24, 0x28	; 40
    1db8:	91 05       	cpc	r25, r1
    1dba:	c1 f7       	brne	.-16     	; 0x1dac <SelfTest+0x9e>
        iLED[x]=0;
    }

    //for(uint8_t x=0; x<(adcPhot&0x3f); ++x) lfsr();
    lfsrSeed = (adcPhot + adcTemp)<<1 | 0x0001; 
    1dbc:	20 91 c6 3a 	lds	r18, 0x3AC6	; 0x803ac6 <adcPhot>
    1dc0:	30 91 c7 3a 	lds	r19, 0x3AC7	; 0x803ac7 <adcPhot+0x1>
    1dc4:	80 91 f6 3a 	lds	r24, 0x3AF6	; 0x803af6 <adcTemp>
    1dc8:	90 91 f7 3a 	lds	r25, 0x3AF7	; 0x803af7 <adcTemp+0x1>
    1dcc:	82 0f       	add	r24, r18
    1dce:	93 1f       	adc	r25, r19
    1dd0:	88 0f       	add	r24, r24
    1dd2:	99 1f       	adc	r25, r25
    1dd4:	81 60       	ori	r24, 0x01	; 1
    1dd6:	80 93 63 38 	sts	0x3863, r24	; 0x803863 <lfsrSeed>
    1dda:	90 93 64 38 	sts	0x3864, r25	; 0x803864 <lfsrSeed+0x1>

    return 0;
}
    1dde:	80 e0       	ldi	r24, 0x00	; 0
    1de0:	24 96       	adiw	r28, 0x04	; 4
    1de2:	e2 e0       	ldi	r30, 0x02	; 2
    1de4:	0c 94 71 1f 	jmp	0x3ee2	; 0x3ee2 <__epilogue_restores__+0x20>

00001de8 <simonLed>:

/**
 * Set the wing LED blocks to selected option
 * @param val
 */
void simonLed(uint8_t val) {
    1de8:	cf 93       	push	r28
    1dea:	df 93       	push	r29
    1dec:	e6 e1       	ldi	r30, 0x16	; 22
    1dee:	ff eb       	ldi	r31, 0xBF	; 191
    1df0:	ef 01       	movw	r28, r30
    for (uint8_t n = 0; n < 5; n++) {
        iLED[WING[L][n]] = 0;
    1df2:	a5 81       	ldd	r26, Z+5	; 0x05
    1df4:	b0 e0       	ldi	r27, 0x00	; 0
    1df6:	a4 53       	subi	r26, 0x34	; 52
    1df8:	b5 4c       	sbci	r27, 0xC5	; 197
    1dfa:	1c 92       	st	X, r1
    1dfc:	31 96       	adiw	r30, 0x01	; 1
        iLED[WING[R][n]] = 0;
    1dfe:	a8 81       	ld	r26, Y
    1e00:	b0 e0       	ldi	r27, 0x00	; 0
    1e02:	a4 53       	subi	r26, 0x34	; 52
    1e04:	b5 4c       	sbci	r27, 0xC5	; 197
    1e06:	1c 92       	st	X, r1
/**
 * Set the wing LED blocks to selected option
 * @param val
 */
void simonLed(uint8_t val) {
    for (uint8_t n = 0; n < 5; n++) {
    1e08:	9f eb       	ldi	r25, 0xBF	; 191
    1e0a:	eb 31       	cpi	r30, 0x1B	; 27
    1e0c:	f9 07       	cpc	r31, r25
    1e0e:	81 f7       	brne	.-32     	; 0x1df0 <simonLed+0x8>
        iLED[WING[L][n]] = 0;
        iLED[WING[R][n]] = 0;
    }
    if (val == 3) {         // II
    1e10:	83 30       	cpi	r24, 0x03	; 3
    1e12:	d9 f4       	brne	.+54     	; 0x1e4a <simonLed+0x62>
        iLED[WING[L][0]] = dimValue;
    1e14:	e0 91 1b bf 	lds	r30, 0xBF1B	; 0x80bf1b <__bss_end+0x8400>
    1e18:	f0 e0       	ldi	r31, 0x00	; 0
    1e1a:	80 91 0c 38 	lds	r24, 0x380C	; 0x80380c <dimValue>
    1e1e:	e4 53       	subi	r30, 0x34	; 52
    1e20:	f5 4c       	sbci	r31, 0xC5	; 197
    1e22:	80 83       	st	Z, r24
        iLED[WING[L][1]] = dimValue;
    1e24:	e0 91 1c bf 	lds	r30, 0xBF1C	; 0x80bf1c <__bss_end+0x8401>
    1e28:	f0 e0       	ldi	r31, 0x00	; 0
    1e2a:	80 91 0c 38 	lds	r24, 0x380C	; 0x80380c <dimValue>
    1e2e:	e4 53       	subi	r30, 0x34	; 52
    1e30:	f5 4c       	sbci	r31, 0xC5	; 197
    1e32:	80 83       	st	Z, r24
        iLED[WING[L][2]] = dimValue;
    1e34:	e0 91 1d bf 	lds	r30, 0xBF1D	; 0x80bf1d <__bss_end+0x8402>
    1e38:	f0 e0       	ldi	r31, 0x00	; 0
    1e3a:	80 91 0c 38 	lds	r24, 0x380C	; 0x80380c <dimValue>
    1e3e:	e4 53       	subi	r30, 0x34	; 52
    1e40:	f5 4c       	sbci	r31, 0xC5	; 197
    1e42:	80 83       	st	Z, r24
        effect = 0x013f;
    1e44:	8f e3       	ldi	r24, 0x3F	; 63
    1e46:	91 e0       	ldi	r25, 0x01	; 1
    1e48:	46 c0       	rjmp	.+140    	; 0x1ed6 <simonLed+0xee>
    } else if (val == 1) {  //
    1e4a:	81 30       	cpi	r24, 0x01	; 1
    1e4c:	99 f4       	brne	.+38     	; 0x1e74 <simonLed+0x8c>
        iLED[WING[L][3]] = dimValue;
    1e4e:	e0 91 1e bf 	lds	r30, 0xBF1E	; 0x80bf1e <__bss_end+0x8403>
    1e52:	f0 e0       	ldi	r31, 0x00	; 0
    1e54:	80 91 0c 38 	lds	r24, 0x380C	; 0x80380c <dimValue>
    1e58:	e4 53       	subi	r30, 0x34	; 52
    1e5a:	f5 4c       	sbci	r31, 0xC5	; 197
    1e5c:	80 83       	st	Z, r24
        iLED[WING[L][4]] = dimValue;
    1e5e:	e0 91 1f bf 	lds	r30, 0xBF1F	; 0x80bf1f <__bss_end+0x8404>
    1e62:	f0 e0       	ldi	r31, 0x00	; 0
    1e64:	80 91 0c 38 	lds	r24, 0x380C	; 0x80380c <dimValue>
    1e68:	e4 53       	subi	r30, 0x34	; 52
    1e6a:	f5 4c       	sbci	r31, 0xC5	; 197
    1e6c:	80 83       	st	Z, r24
        effect = 0x015f;
    1e6e:	8f e5       	ldi	r24, 0x5F	; 95
    1e70:	91 e0       	ldi	r25, 0x01	; 1
    1e72:	31 c0       	rjmp	.+98     	; 0x1ed6 <simonLed+0xee>
    } else if (val == 4) {  // III
    1e74:	84 30       	cpi	r24, 0x04	; 4
    1e76:	d9 f4       	brne	.+54     	; 0x1eae <simonLed+0xc6>
        iLED[WING[R][0]] = dimValue;
    1e78:	e0 91 16 bf 	lds	r30, 0xBF16	; 0x80bf16 <__bss_end+0x83fb>
    1e7c:	f0 e0       	ldi	r31, 0x00	; 0
    1e7e:	80 91 0c 38 	lds	r24, 0x380C	; 0x80380c <dimValue>
    1e82:	e4 53       	subi	r30, 0x34	; 52
    1e84:	f5 4c       	sbci	r31, 0xC5	; 197
    1e86:	80 83       	st	Z, r24
        iLED[WING[R][1]] = dimValue;
    1e88:	e0 91 17 bf 	lds	r30, 0xBF17	; 0x80bf17 <__bss_end+0x83fc>
    1e8c:	f0 e0       	ldi	r31, 0x00	; 0
    1e8e:	80 91 0c 38 	lds	r24, 0x380C	; 0x80380c <dimValue>
    1e92:	e4 53       	subi	r30, 0x34	; 52
    1e94:	f5 4c       	sbci	r31, 0xC5	; 197
    1e96:	80 83       	st	Z, r24
        iLED[WING[R][2]] = dimValue;
    1e98:	e0 91 18 bf 	lds	r30, 0xBF18	; 0x80bf18 <__bss_end+0x83fd>
    1e9c:	f0 e0       	ldi	r31, 0x00	; 0
    1e9e:	80 91 0c 38 	lds	r24, 0x380C	; 0x80380c <dimValue>
    1ea2:	e4 53       	subi	r30, 0x34	; 52
    1ea4:	f5 4c       	sbci	r31, 0xC5	; 197
    1ea6:	80 83       	st	Z, r24
        effect = 0x017f;
    1ea8:	8f e7       	ldi	r24, 0x7F	; 127
    1eaa:	91 e0       	ldi	r25, 0x01	; 1
    1eac:	14 c0       	rjmp	.+40     	; 0x1ed6 <simonLed+0xee>
    } else if (val == 2) {  // I
    1eae:	82 30       	cpi	r24, 0x02	; 2
    1eb0:	b1 f4       	brne	.+44     	; 0x1ede <simonLed+0xf6>
        iLED[WING[R][3]] = dimValue;
    1eb2:	e0 91 19 bf 	lds	r30, 0xBF19	; 0x80bf19 <__bss_end+0x83fe>
    1eb6:	f0 e0       	ldi	r31, 0x00	; 0
    1eb8:	80 91 0c 38 	lds	r24, 0x380C	; 0x80380c <dimValue>
    1ebc:	e4 53       	subi	r30, 0x34	; 52
    1ebe:	f5 4c       	sbci	r31, 0xC5	; 197
    1ec0:	80 83       	st	Z, r24
        iLED[WING[R][4]] = dimValue;
    1ec2:	e0 91 1a bf 	lds	r30, 0xBF1A	; 0x80bf1a <__bss_end+0x83ff>
    1ec6:	f0 e0       	ldi	r31, 0x00	; 0
    1ec8:	80 91 0c 38 	lds	r24, 0x380C	; 0x80380c <dimValue>
    1ecc:	e4 53       	subi	r30, 0x34	; 52
    1ece:	f5 4c       	sbci	r31, 0xC5	; 197
    1ed0:	80 83       	st	Z, r24
        effect = 0x019f;
    1ed2:	8f e9       	ldi	r24, 0x9F	; 159
    1ed4:	91 e0       	ldi	r25, 0x01	; 1
    1ed6:	80 93 40 38 	sts	0x3840, r24	; 0x803840 <effect>
    1eda:	90 93 41 38 	sts	0x3841, r25	; 0x803841 <effect+0x1>
    }
}
    1ede:	df 91       	pop	r29
    1ee0:	cf 91       	pop	r28
    1ee2:	08 95       	ret

00001ee4 <BastetDictates>:

/**
 * Main game loop
 * @return 0
 */
uint8_t BastetDictates() {
    1ee4:	cf 93       	push	r28
    1ee6:	df 93       	push	r29
    if ((TEXT != gameNow) && (BASTET != gameNow))
    1ee8:	80 91 42 38 	lds	r24, 0x3842	; 0x803842 <gameNow>
    1eec:	8d 7f       	andi	r24, 0xFD	; 253
    1eee:	09 f0       	breq	.+2      	; 0x1ef2 <BastetDictates+0xe>
    1ef0:	73 c1       	rjmp	.+742    	; 0x21d8 <BastetDictates+0x2f4>
        return 0;

    if (CheckState(BASTET_COMPLETED)) {
    1ef2:	8a e7       	ldi	r24, 0x7A	; 122
    1ef4:	a5 da       	rcall	.-2742   	; 0x1440 <CheckState>
    1ef6:	88 23       	and	r24, r24
    1ef8:	41 f0       	breq	.+16     	; 0x1f0a <BastetDictates+0x26>
        if (BASTET == gameNow) {
    1efa:	80 91 42 38 	lds	r24, 0x3842	; 0x803842 <gameNow>
    1efe:	82 30       	cpi	r24, 0x02	; 2
    1f00:	09 f0       	breq	.+2      	; 0x1f04 <BastetDictates+0x20>
    1f02:	6a c1       	rjmp	.+724    	; 0x21d8 <BastetDictates+0x2f4>
            gameNow = TEXT;
    1f04:	10 92 42 38 	sts	0x3842, r1	; 0x803842 <gameNow>
    1f08:	67 c1       	rjmp	.+718    	; 0x21d8 <BastetDictates+0x2f4>
        }
        return 0;
    }

    if (CheckState(LANYARD_COMPLETED))
    1f0a:	8b e7       	ldi	r24, 0x7B	; 123
    1f0c:	99 da       	rcall	.-2766   	; 0x1440 <CheckState>
    1f0e:	90 91 08 38 	lds	r25, 0x3808	; 0x803808 <buttonState>
    1f12:	88 23       	and	r24, r24
    1f14:	29 f0       	breq	.+10     	; 0x1f20 <BastetDictates+0x3c>
        if (buttonState!=0xff)
    1f16:	9f 3f       	cpi	r25, 0xFF	; 255
    1f18:	19 f0       	breq	.+6      	; 0x1f20 <BastetDictates+0x3c>
            gameNow = BASTET;
    1f1a:	82 e0       	ldi	r24, 0x02	; 2
    1f1c:	80 93 42 38 	sts	0x3842, r24	; 0x803842 <gameNow>

    iLED[CAT] = (buttonState==0xff ? 0 : dimValue);
    1f20:	e0 91 12 bf 	lds	r30, 0xBF12	; 0x80bf12 <__bss_end+0x83f7>
    1f24:	f0 e0       	ldi	r31, 0x00	; 0
    1f26:	9f 3f       	cpi	r25, 0xFF	; 255
    1f28:	19 f0       	breq	.+6      	; 0x1f30 <BastetDictates+0x4c>
    1f2a:	80 91 0c 38 	lds	r24, 0x380C	; 0x80380c <dimValue>
    1f2e:	01 c0       	rjmp	.+2      	; 0x1f32 <BastetDictates+0x4e>
    1f30:	80 e0       	ldi	r24, 0x00	; 0
    1f32:	e4 53       	subi	r30, 0x34	; 52
    1f34:	f5 4c       	sbci	r31, 0xC5	; 197
    1f36:	80 83       	st	Z, r24

    if (BASTET_BOOT == simonGameState) {
    1f38:	80 91 65 38 	lds	r24, 0x3865	; 0x803865 <simonGameState>
    1f3c:	81 11       	cpse	r24, r1
    1f3e:	0c c0       	rjmp	.+24     	; 0x1f58 <BastetDictates+0x74>
    1f40:	cb e6       	ldi	r28, 0x6B	; 107
        for (uint8_t i = 0; i < BASTET_LENGTH; i++) {
            simonState[i] = (lfsr() % 4);
    1f42:	d8 e3       	ldi	r29, 0x38	; 56
    1f44:	56 d9       	rcall	.-3412   	; 0x11f2 <lfsr>
    1f46:	83 70       	andi	r24, 0x03	; 3
    1f48:	89 93       	st	Y+, r24
            gameNow = BASTET;

    iLED[CAT] = (buttonState==0xff ? 0 : dimValue);

    if (BASTET_BOOT == simonGameState) {
        for (uint8_t i = 0; i < BASTET_LENGTH; i++) {
    1f4a:	88 e3       	ldi	r24, 0x38	; 56
    1f4c:	c7 37       	cpi	r28, 0x77	; 119
    1f4e:	d8 07       	cpc	r29, r24
    1f50:	c9 f7       	brne	.-14     	; 0x1f44 <BastetDictates+0x60>
            simonState[i] = (lfsr() % 4);
        }
        simonGameState = BASTET_GAME_START;
    1f52:	81 e0       	ldi	r24, 0x01	; 1
    1f54:	80 93 65 38 	sts	0x3865, r24	; 0x803865 <simonGameState>
    }

    if (BASTET_GAME_START == simonGameState && BASTET == gameNow) {
    1f58:	80 91 65 38 	lds	r24, 0x3865	; 0x803865 <simonGameState>
    1f5c:	81 30       	cpi	r24, 0x01	; 1
    1f5e:	71 f4       	brne	.+28     	; 0x1f7c <BastetDictates+0x98>
    1f60:	80 91 42 38 	lds	r24, 0x3842	; 0x803842 <gameNow>
    1f64:	82 30       	cpi	r24, 0x02	; 2
    1f66:	51 f4       	brne	.+20     	; 0x1f7c <BastetDictates+0x98>
        simonGameState = BASTET_GAME_INTRO;
    1f68:	80 93 65 38 	sts	0x3865, r24	; 0x803865 <simonGameState>
        simonPos = 0;
    1f6c:	10 92 6a 38 	sts	0x386A, r1	; 0x80386a <simonPos>
        simonInputPos = 0;
    1f70:	10 92 69 38 	sts	0x3869, r1	; 0x803869 <simonInputPos>
        simonTimer = 0;
    1f74:	10 92 68 38 	sts	0x3868, r1	; 0x803868 <simonTimer>
        simonCounter = 0;
    1f78:	10 92 66 38 	sts	0x3866, r1	; 0x803866 <simonCounter>
    }

    if (BASTET_GAME_INTRO == simonGameState) {
    1f7c:	80 91 65 38 	lds	r24, 0x3865	; 0x803865 <simonGameState>
    1f80:	82 30       	cpi	r24, 0x02	; 2
    1f82:	19 f5       	brne	.+70     	; 0x1fca <BastetDictates+0xe6>
        if (simonTimer > 5) {   // .33 seconds
    1f84:	80 91 68 38 	lds	r24, 0x3868	; 0x803868 <simonTimer>
    1f88:	86 30       	cpi	r24, 0x06	; 6
    1f8a:	38 f0       	brcs	.+14     	; 0x1f9a <BastetDictates+0xb6>
            simonCounter++;
    1f8c:	80 91 66 38 	lds	r24, 0x3866	; 0x803866 <simonCounter>
    1f90:	8f 5f       	subi	r24, 0xFF	; 255
    1f92:	80 93 66 38 	sts	0x3866, r24	; 0x803866 <simonCounter>
            simonTimer = 0;
    1f96:	10 92 68 38 	sts	0x3868, r1	; 0x803868 <simonTimer>
        }
        if (simonCounter > 5) {
    1f9a:	e0 91 66 38 	lds	r30, 0x3866	; 0x803866 <simonCounter>
    1f9e:	e6 30       	cpi	r30, 0x06	; 6
    1fa0:	48 f0       	brcs	.+18     	; 0x1fb4 <BastetDictates+0xd0>
            simonGameState = BASTET_GAME_SHOW_PATTERN;
    1fa2:	83 e0       	ldi	r24, 0x03	; 3
    1fa4:	80 93 65 38 	sts	0x3865, r24	; 0x803865 <simonGameState>
            simonTimer = 0;
    1fa8:	10 92 68 38 	sts	0x3868, r1	; 0x803868 <simonTimer>
            simonCounter = 0;
    1fac:	10 92 66 38 	sts	0x3866, r1	; 0x803866 <simonCounter>
            ClearHackerLeds();
    1fb0:	55 db       	rcall	.-2390   	; 0x165c <ClearHackerLeds>
            return 0;
    1fb2:	12 c1       	rjmp	.+548    	; 0x21d8 <BastetDictates+0x2f4>
        }
        iLED[HCKR[R][simonCounter]] = dimValue;
    1fb4:	f0 e0       	ldi	r31, 0x00	; 0
    1fb6:	ec 5d       	subi	r30, 0xDC	; 220
    1fb8:	f0 44       	sbci	r31, 0x40	; 64
    1fba:	e0 81       	ld	r30, Z
    1fbc:	f0 e0       	ldi	r31, 0x00	; 0
    1fbe:	80 91 0c 38 	lds	r24, 0x380C	; 0x80380c <dimValue>
    1fc2:	e4 53       	subi	r30, 0x34	; 52
    1fc4:	f5 4c       	sbci	r31, 0xC5	; 197
    1fc6:	80 83       	st	Z, r24
    1fc8:	2b c0       	rjmp	.+86     	; 0x2020 <BastetDictates+0x13c>
    }

    if (BASTET_GAME_SHOW_PATTERN == simonGameState) {
    1fca:	83 30       	cpi	r24, 0x03	; 3
    1fcc:	49 f5       	brne	.+82     	; 0x2020 <BastetDictates+0x13c>
        if (simonTimer > 7) {   // .5 second
    1fce:	80 91 68 38 	lds	r24, 0x3868	; 0x803868 <simonTimer>
    1fd2:	88 30       	cpi	r24, 0x08	; 8
    1fd4:	38 f0       	brcs	.+14     	; 0x1fe4 <BastetDictates+0x100>
            simonCounter++;
    1fd6:	80 91 66 38 	lds	r24, 0x3866	; 0x803866 <simonCounter>
    1fda:	8f 5f       	subi	r24, 0xFF	; 255
    1fdc:	80 93 66 38 	sts	0x3866, r24	; 0x803866 <simonCounter>
            simonTimer = 0;
    1fe0:	10 92 68 38 	sts	0x3868, r1	; 0x803868 <simonTimer>
        }
        if (simonCounter > simonPos) {
    1fe4:	e0 91 66 38 	lds	r30, 0x3866	; 0x803866 <simonCounter>
    1fe8:	80 91 6a 38 	lds	r24, 0x386A	; 0x80386a <simonPos>
    1fec:	8e 17       	cp	r24, r30
    1fee:	40 f4       	brcc	.+16     	; 0x2000 <BastetDictates+0x11c>
            simonInputPos = 0;
    1ff0:	10 92 69 38 	sts	0x3869, r1	; 0x803869 <simonInputPos>
            simonGameState = BASTET_GAME_INPUT;
    1ff4:	85 e0       	ldi	r24, 0x05	; 5
    1ff6:	80 93 65 38 	sts	0x3865, r24	; 0x803865 <simonGameState>
            simonLed(0);
    1ffa:	80 e0       	ldi	r24, 0x00	; 0
    1ffc:	f5 de       	rcall	.-534    	; 0x1de8 <simonLed>
    1ffe:	98 c0       	rjmp	.+304    	; 0x2130 <BastetDictates+0x24c>
            simonTimer = 0;
            return 0;
        }
        if (simonTimer < 3) {
    2000:	80 91 68 38 	lds	r24, 0x3868	; 0x803868 <simonTimer>
    2004:	83 30       	cpi	r24, 0x03	; 3
    2006:	30 f4       	brcc	.+12     	; 0x2014 <BastetDictates+0x130>
            simonLed(simonState[simonCounter] + 1);
    2008:	f0 e0       	ldi	r31, 0x00	; 0
    200a:	e5 59       	subi	r30, 0x95	; 149
    200c:	f7 4c       	sbci	r31, 0xC7	; 199
    200e:	80 81       	ld	r24, Z
    2010:	8f 5f       	subi	r24, 0xFF	; 255
    2012:	ea de       	rcall	.-556    	; 0x1de8 <simonLed>
        }
        if (simonTimer > 6) {
    2014:	80 91 68 38 	lds	r24, 0x3868	; 0x803868 <simonTimer>
    2018:	87 30       	cpi	r24, 0x07	; 7
    201a:	10 f0       	brcs	.+4      	; 0x2020 <BastetDictates+0x13c>
            simonLed(0);
    201c:	80 e0       	ldi	r24, 0x00	; 0
    201e:	e4 de       	rcall	.-568    	; 0x1de8 <simonLed>
    2020:	c0 91 65 38 	lds	r28, 0x3865	; 0x803865 <simonGameState>
        }
    }

    if (BASTET_GAME_INPUT == simonGameState) {
    2024:	c5 30       	cpi	r28, 0x05	; 5
    2026:	09 f0       	breq	.+2      	; 0x202a <BastetDictates+0x146>
    2028:	86 c0       	rjmp	.+268    	; 0x2136 <BastetDictates+0x252>
    202a:	80 91 08 38 	lds	r24, 0x3808	; 0x803808 <buttonState>
        //Button pressed
        if (lastButtonState != buttonState && (buttonState+1) > 0) {
    202e:	90 91 07 38 	lds	r25, 0x3807	; 0x803807 <lastButtonState>
    2032:	98 17       	cp	r25, r24
    2034:	09 f4       	brne	.+2      	; 0x2038 <BastetDictates+0x154>
    2036:	71 c0       	rjmp	.+226    	; 0x211a <BastetDictates+0x236>
    2038:	90 91 67 38 	lds	r25, 0x3867	; 0x803867 <simonWait>
            if (simonWait == 0 && buttonState < 4) {
    203c:	91 11       	cpse	r25, r1
    203e:	6f c0       	rjmp	.+222    	; 0x211e <BastetDictates+0x23a>
    2040:	84 30       	cpi	r24, 0x04	; 4
    2042:	08 f0       	brcs	.+2      	; 0x2046 <BastetDictates+0x162>
    2044:	6c c0       	rjmp	.+216    	; 0x211e <BastetDictates+0x23a>
                simonWait = 1;
    2046:	91 e0       	ldi	r25, 0x01	; 1
    2048:	90 93 67 38 	sts	0x3867, r25	; 0x803867 <simonWait>
                simonTimer = 0;
    204c:	10 92 68 38 	sts	0x3868, r1	; 0x803868 <simonTimer>
                simonLed(buttonState+1);
    2050:	8f 5f       	subi	r24, 0xFF	; 255
    2052:	ca de       	rcall	.-620    	; 0x1de8 <simonLed>
    2054:	84 e0       	ldi	r24, 0x04	; 4
                simonGameState = BASTET_GAME_WAIT_LEDS;
    2056:	80 93 65 38 	sts	0x3865, r24	; 0x803865 <simonGameState>
    205a:	c0 93 34 38 	sts	0x3834, r28	; 0x803834 <simonNextGameState>
                simonNextGameState = BASTET_GAME_INPUT;
    205e:	80 91 69 38 	lds	r24, 0x3869	; 0x803869 <simonInputPos>

                if (simonState[simonInputPos] == buttonState) {
    2062:	e8 2f       	mov	r30, r24
    2064:	f0 e0       	ldi	r31, 0x00	; 0
    2066:	e5 59       	subi	r30, 0x95	; 149
    2068:	f7 4c       	sbci	r31, 0xC7	; 199
    206a:	20 81       	ld	r18, Z
    206c:	90 91 08 38 	lds	r25, 0x3808	; 0x803808 <buttonState>
    2070:	29 13       	cpse	r18, r25
    2072:	1d c0       	rjmp	.+58     	; 0x20ae <BastetDictates+0x1ca>
    2074:	8f 5f       	subi	r24, 0xFF	; 255
                    simonInputPos++;
    2076:	80 93 69 38 	sts	0x3869, r24	; 0x803869 <simonInputPos>
    207a:	e0 91 6a 38 	lds	r30, 0x386A	; 0x80386a <simonPos>
                    if (simonInputPos > simonPos) {
    207e:	e8 17       	cp	r30, r24
    2080:	a0 f5       	brcc	.+104    	; 0x20ea <BastetDictates+0x206>
    2082:	ef 5f       	subi	r30, 0xFF	; 255
                        simonPos++;
    2084:	e0 93 6a 38 	sts	0x386A, r30	; 0x80386a <simonPos>
    2088:	10 92 68 38 	sts	0x3868, r1	; 0x803868 <simonTimer>
                        simonTimer = 0;
    208c:	10 92 66 38 	sts	0x3866, r1	; 0x803866 <simonCounter>
                        simonCounter = 0;
    2090:	e1 30       	cpi	r30, 0x01	; 1
                        if (simonPos > 1) { // BASTET_LENGTH = 12
    2092:	59 f0       	breq	.+22     	; 0x20aa <BastetDictates+0x1c6>
    2094:	e6 95       	lsr	r30
                            iLED[HCKR[G][(simonPos / 2) - 1]] = dimValue;
    2096:	f0 e0       	ldi	r31, 0x00	; 0
    2098:	ec 5d       	subi	r30, 0xDC	; 220
    209a:	f0 44       	sbci	r31, 0x40	; 64
    209c:	e5 81       	ldd	r30, Z+5	; 0x05
    209e:	f0 e0       	ldi	r31, 0x00	; 0
    20a0:	80 91 0c 38 	lds	r24, 0x380C	; 0x80380c <dimValue>
    20a4:	e4 53       	subi	r30, 0x34	; 52
    20a6:	f5 4c       	sbci	r31, 0xC5	; 197
    20a8:	80 83       	st	Z, r24
    20aa:	83 e0       	ldi	r24, 0x03	; 3
                        }
                        simonNextGameState = BASTET_GAME_SHOW_PATTERN;
    20ac:	1c c0       	rjmp	.+56     	; 0x20e6 <BastetDictates+0x202>
    20ae:	80 e2       	ldi	r24, 0x20	; 32
                    }
                } else {
                    effect = 32;
    20b0:	90 e0       	ldi	r25, 0x00	; 0
    20b2:	80 93 40 38 	sts	0x3840, r24	; 0x803840 <effect>
    20b6:	90 93 41 38 	sts	0x3841, r25	; 0x803841 <effect+0x1>
    20ba:	a4 e2       	ldi	r26, 0x24	; 36
    20bc:	bf eb       	ldi	r27, 0xBF	; 191
    20be:	ed 91       	ld	r30, X+
                    for (uint8_t n=0; n<6; n++){
                        iLED[HCKR[R][n]] = dimValue;
    20c0:	f0 e0       	ldi	r31, 0x00	; 0
    20c2:	80 91 0c 38 	lds	r24, 0x380C	; 0x80380c <dimValue>
    20c6:	e4 53       	subi	r30, 0x34	; 52
    20c8:	f5 4c       	sbci	r31, 0xC5	; 197
    20ca:	80 83       	st	Z, r24
    20cc:	8f eb       	ldi	r24, 0xBF	; 191
                        }
                        simonNextGameState = BASTET_GAME_SHOW_PATTERN;
                    }
                } else {
                    effect = 32;
                    for (uint8_t n=0; n<6; n++){
    20ce:	aa 32       	cpi	r26, 0x2A	; 42
    20d0:	b8 07       	cpc	r27, r24
    20d2:	a9 f7       	brne	.-22     	; 0x20be <BastetDictates+0x1da>
    20d4:	10 92 69 38 	sts	0x3869, r1	; 0x803869 <simonInputPos>
                        iLED[HCKR[R][n]] = dimValue;
                    }
                    simonInputPos = 0;
    20d8:	10 92 6a 38 	sts	0x386A, r1	; 0x80386a <simonPos>
                    simonPos = 0;
    20dc:	10 92 68 38 	sts	0x3868, r1	; 0x803868 <simonTimer>
                    simonTimer = 0;
    20e0:	10 92 66 38 	sts	0x3866, r1	; 0x803866 <simonCounter>
                    simonCounter = 0;
    20e4:	86 e0       	ldi	r24, 0x06	; 6
                    simonNextGameState = BASTET_GAME_OUTRO;
    20e6:	80 93 34 38 	sts	0x3834, r24	; 0x803834 <simonNextGameState>
    20ea:	80 91 69 38 	lds	r24, 0x3869	; 0x803869 <simonInputPos>
                }

                if (simonInputPos >= BASTET_LENGTH || simonPos >= BASTET_LENGTH) { // beetje dubbel
    20ee:	8c 30       	cpi	r24, 0x0C	; 12
    20f0:	20 f4       	brcc	.+8      	; 0x20fa <BastetDictates+0x216>
    20f2:	80 91 6a 38 	lds	r24, 0x386A	; 0x80386a <simonPos>
    20f6:	8c 30       	cpi	r24, 0x0C	; 12
    20f8:	90 f0       	brcs	.+36     	; 0x211e <BastetDictates+0x23a>
                    effect = 64|2;
    20fa:	82 e4       	ldi	r24, 0x42	; 66
    20fc:	90 e0       	ldi	r25, 0x00	; 0
    20fe:	80 93 40 38 	sts	0x3840, r24	; 0x803840 <effect>
    2102:	90 93 41 38 	sts	0x3841, r25	; 0x803841 <effect+0x1>
                    UpdateState(BASTET_COMPLETED);
    2106:	8a e7       	ldi	r24, 0x7A	; 122
    2108:	7a d9       	rcall	.-3340   	; 0x13fe <UpdateState>
    210a:	10 92 68 38 	sts	0x3868, r1	; 0x803868 <simonTimer>
                    simonTimer = 0;
    210e:	10 92 66 38 	sts	0x3866, r1	; 0x803866 <simonCounter>
                    simonCounter = 0;
    2112:	87 e0       	ldi	r24, 0x07	; 7
                    simonNextGameState = BASTET_GAME_OVER;
    2114:	80 93 34 38 	sts	0x3834, r24	; 0x803834 <simonNextGameState>
    2118:	02 c0       	rjmp	.+4      	; 0x211e <BastetDictates+0x23a>
    211a:	10 92 67 38 	sts	0x3867, r1	; 0x803867 <simonWait>
                }
            }
        
        //Button released, next or reset!
        } else {
            simonWait = 0;
    211e:	80 91 68 38 	lds	r24, 0x3868	; 0x803868 <simonTimer>
        }

        if (simonTimer == 200) {    // did you forget about Bastet?
    2122:	88 3c       	cpi	r24, 0xC8	; 200
    2124:	41 f4       	brne	.+16     	; 0x2136 <BastetDictates+0x252>
    2126:	83 e0       	ldi	r24, 0x03	; 3
            simonGameState = BASTET_GAME_SHOW_PATTERN;
    2128:	80 93 65 38 	sts	0x3865, r24	; 0x803865 <simonGameState>
    212c:	10 92 66 38 	sts	0x3866, r1	; 0x803866 <simonCounter>
            simonCounter = 0;
    2130:	10 92 68 38 	sts	0x3868, r1	; 0x803868 <simonTimer>
            simonTimer = 0;
    2134:	51 c0       	rjmp	.+162    	; 0x21d8 <BastetDictates+0x2f4>
            return 0;
    2136:	80 91 65 38 	lds	r24, 0x3865	; 0x803865 <simonGameState>
        }
    }

    if (BASTET_GAME_WAIT_LEDS == simonGameState) {
    213a:	84 30       	cpi	r24, 0x04	; 4
    213c:	81 f4       	brne	.+32     	; 0x215e <BastetDictates+0x27a>
        if (simonTimer >= 7) {
    213e:	80 91 68 38 	lds	r24, 0x3868	; 0x803868 <simonTimer>
    2142:	87 30       	cpi	r24, 0x07	; 7
    2144:	60 f0       	brcs	.+24     	; 0x215e <BastetDictates+0x27a>
            // on to next state after .5 second
            simonLed(0);  // LEDs off
    2146:	80 e0       	ldi	r24, 0x00	; 0
    2148:	4f de       	rcall	.-866    	; 0x1de8 <simonLed>
    214a:	10 92 67 38 	sts	0x3867, r1	; 0x803867 <simonWait>
            simonWait = 0;
    214e:	10 92 68 38 	sts	0x3868, r1	; 0x803868 <simonTimer>
            simonTimer = 0;
    2152:	10 92 66 38 	sts	0x3866, r1	; 0x803866 <simonCounter>
            simonCounter = 0;
    2156:	80 91 34 38 	lds	r24, 0x3834	; 0x803834 <simonNextGameState>
            simonGameState = simonNextGameState;
    215a:	80 93 65 38 	sts	0x3865, r24	; 0x803865 <simonGameState>
    215e:	80 91 65 38 	lds	r24, 0x3865	; 0x803865 <simonGameState>
        }
    }

    if (BASTET_GAME_OUTRO == simonGameState) {
    2162:	86 30       	cpi	r24, 0x06	; 6
    2164:	41 f5       	brne	.+80     	; 0x21b6 <BastetDictates+0x2d2>
    2166:	80 91 68 38 	lds	r24, 0x3868	; 0x803868 <simonTimer>
        if (simonTimer > 3) {
    216a:	84 30       	cpi	r24, 0x04	; 4
    216c:	38 f0       	brcs	.+14     	; 0x217c <BastetDictates+0x298>
    216e:	80 91 66 38 	lds	r24, 0x3866	; 0x803866 <simonCounter>
            simonCounter++;
    2172:	8f 5f       	subi	r24, 0xFF	; 255
    2174:	80 93 66 38 	sts	0x3866, r24	; 0x803866 <simonCounter>
    2178:	10 92 68 38 	sts	0x3868, r1	; 0x803868 <simonTimer>
            simonTimer = 0;
    217c:	80 91 66 38 	lds	r24, 0x3866	; 0x803866 <simonCounter>
        }
        if (simonCounter > 5) {
    2180:	86 30       	cpi	r24, 0x06	; 6
    2182:	40 f0       	brcs	.+16     	; 0x2194 <BastetDictates+0x2b0>
    2184:	10 92 68 38 	sts	0x3868, r1	; 0x803868 <simonTimer>
            simonTimer = 0;
    2188:	10 92 66 38 	sts	0x3866, r1	; 0x803866 <simonCounter>
            simonCounter = 0;
    218c:	87 e0       	ldi	r24, 0x07	; 7
            simonGameState = BASTET_GAME_OVER;
    218e:	80 93 65 38 	sts	0x3865, r24	; 0x803865 <simonGameState>
    2192:	22 c0       	rjmp	.+68     	; 0x21d8 <BastetDictates+0x2f4>
            return 0;
    2194:	e5 e0       	ldi	r30, 0x05	; 5
        }
        iLED[HCKR[R][5-simonCounter]] = 0;
    2196:	f0 e0       	ldi	r31, 0x00	; 0
    2198:	e8 1b       	sub	r30, r24
    219a:	f1 09       	sbc	r31, r1
    219c:	ec 5d       	subi	r30, 0xDC	; 220
    219e:	f0 44       	sbci	r31, 0x40	; 64
    21a0:	a0 81       	ld	r26, Z
    21a2:	b0 e0       	ldi	r27, 0x00	; 0
    21a4:	a4 53       	subi	r26, 0x34	; 52
    21a6:	b5 4c       	sbci	r27, 0xC5	; 197
    21a8:	1c 92       	st	X, r1
    21aa:	e6 81       	ldd	r30, Z+6	; 0x06
        iLED[HCKR[G][5-simonCounter]] = 0;
    21ac:	f0 e0       	ldi	r31, 0x00	; 0
    21ae:	e4 53       	subi	r30, 0x34	; 52
    21b0:	f5 4c       	sbci	r31, 0xC5	; 197
    21b2:	10 82       	st	Z, r1
    21b4:	0c c0       	rjmp	.+24     	; 0x21ce <BastetDictates+0x2ea>
    21b6:	87 30       	cpi	r24, 0x07	; 7
    }

    if (BASTET_GAME_OVER == simonGameState) {
    21b8:	51 f4       	brne	.+20     	; 0x21ce <BastetDictates+0x2ea>
        simonInputPos = 0;
    21ba:	10 92 69 38 	sts	0x3869, r1	; 0x803869 <simonInputPos>
        simonPos = 0;
    21be:	10 92 6a 38 	sts	0x386A, r1	; 0x80386a <simonPos>
        simonGameState = BASTET_BOOT; // BASTET_GAME_START for stale "field" s
    21c2:	10 92 65 38 	sts	0x3865, r1	; 0x803865 <simonGameState>
        gameNow = TEXT;
    21c6:	10 92 42 38 	sts	0x3842, r1	; 0x803842 <gameNow>
        simonLed(0);
    21ca:	80 e0       	ldi	r24, 0x00	; 0
    21cc:	0d de       	rcall	.-998    	; 0x1de8 <simonLed>
    21ce:	80 91 68 38 	lds	r24, 0x3868	; 0x803868 <simonTimer>
    }

    ++simonTimer;
    21d2:	8f 5f       	subi	r24, 0xFF	; 255
    21d4:	80 93 68 38 	sts	0x3868, r24	; 0x803868 <simonTimer>
    21d8:	80 e0       	ldi	r24, 0x00	; 0
    return 0;
}
    21da:	df 91       	pop	r29
    21dc:	cf 91       	pop	r28
    21de:	08 95       	ret

000021e0 <Cheat>:
    21e0:	a2 e1       	ldi	r26, 0x12	; 18

//
void SetResponse(uint8_t number, uint16_t address, uint16_t length, uint8_t type){
    reactStr[0][number]=address;
    reactStr[1][number]=length;
    reactStr[2][number]=type;
    21e2:	b0 e0       	ldi	r27, 0x00	; 0
    21e4:	e6 ef       	ldi	r30, 0xF6	; 246
    21e6:	f0 e1       	ldi	r31, 0x10	; 16
    21e8:	0c 94 57 1f 	jmp	0x3eae	; 0x3eae <__prologue_saves__+0x1e>
    21ec:	8a 8b       	std	Y+18, r24	; 0x12
    21ee:	80 e1       	ldi	r24, 0x10	; 16
    21f0:	e6 ef       	ldi	r30, 0xF6	; 246
    21f2:	fe eb       	ldi	r31, 0xBE	; 190
    21f4:	de 01       	movw	r26, r28
    21f6:	11 96       	adiw	r26, 0x01	; 1
    21f8:	01 90       	ld	r0, Z+
    21fa:	0d 92       	st	X+, r0
    21fc:	8a 95       	dec	r24
    21fe:	e1 f7       	brne	.-8      	; 0x21f8 <Cheat+0x18>
    2200:	fe 01       	movw	r30, r28
    2202:	31 96       	adiw	r30, 0x01	; 1
    2204:	90 e0       	ldi	r25, 0x00	; 0
    2206:	8f ef       	ldi	r24, 0xFF	; 255
    2208:	21 91       	ld	r18, Z+
    220a:	31 91       	ld	r19, Z+
    220c:	26 17       	cp	r18, r22
    220e:	37 07       	cpc	r19, r23
    2210:	09 f4       	brne	.+2      	; 0x2214 <Cheat+0x34>
    2212:	89 2f       	mov	r24, r25
    2214:	9f 5f       	subi	r25, 0xFF	; 255
    2216:	98 30       	cpi	r25, 0x08	; 8
    2218:	b9 f7       	brne	.-18     	; 0x2208 <Cheat+0x28>
    221a:	88 30       	cpi	r24, 0x08	; 8
    221c:	10 f0       	brcs	.+4      	; 0x2222 <Cheat+0x42>
    221e:	80 e0       	ldi	r24, 0x00	; 0
    2220:	14 c0       	rjmp	.+40     	; 0x224a <Cheat+0x6a>
    2222:	18 e1       	ldi	r17, 0x18	; 24
    2224:	18 0f       	add	r17, r24
    2226:	41 e0       	ldi	r20, 0x01	; 1
    2228:	be 01       	movw	r22, r28
    222a:	6f 5e       	subi	r22, 0xEF	; 239
    222c:	7f 4f       	sbci	r23, 0xFF	; 255
    222e:	81 2f       	mov	r24, r17
    2230:	0e 94 17 08 	call	0x102e	; 0x102e <EERead>
    2234:	89 89       	ldd	r24, Y+17	; 0x11
    2236:	8f 3f       	cpi	r24, 0xFF	; 255
    2238:	91 f7       	brne	.-28     	; 0x221e <Cheat+0x3e>
    223a:	41 e0       	ldi	r20, 0x01	; 1
    223c:	be 01       	movw	r22, r28
    223e:	6e 5e       	subi	r22, 0xEE	; 238
    2240:	7f 4f       	sbci	r23, 0xFF	; 255
    2242:	81 2f       	mov	r24, r17
    2244:	0e 94 27 08 	call	0x104e	; 0x104e <EEWrite>
    2248:	81 e0       	ldi	r24, 0x01	; 1
    224a:	62 96       	adiw	r28, 0x12	; 18
    224c:	e3 e0       	ldi	r30, 0x03	; 3
    224e:	0c 94 70 1f 	jmp	0x3ee0	; 0x3ee0 <__epilogue_restores__+0x1e>

00002252 <UnflipData>:
    2252:	26 2f       	mov	r18, r22
    2254:	fb 01       	movw	r30, r22
    2256:	35 e5       	ldi	r19, 0x55	; 85
    2258:	9e 2f       	mov	r25, r30
    225a:	92 1b       	sub	r25, r18
    225c:	98 17       	cp	r25, r24
    225e:	28 f4       	brcc	.+10     	; 0x226a <UnflipData+0x18>
    2260:	90 81       	ld	r25, Z
    2262:	92 95       	swap	r25
    2264:	93 27       	eor	r25, r19
    2266:	91 93       	st	Z+, r25
    2268:	f7 cf       	rjmp	.-18     	; 0x2258 <UnflipData+0x6>
    226a:	08 95       	ret

0000226c <ClearTxAfter>:
    226c:	8f 5f       	subi	r24, 0xFF	; 255
    226e:	88 30       	cpi	r24, 0x08	; 8
    2270:	30 f4       	brcc	.+12     	; 0x227e <ClearTxAfter+0x12>
    2272:	e8 2f       	mov	r30, r24
    2274:	f0 e0       	ldi	r31, 0x00	; 0
    2276:	ef 5a       	subi	r30, 0xAF	; 175
    2278:	f5 4c       	sbci	r31, 0xC5	; 197
    227a:	10 82       	st	Z, r1
    227c:	f7 cf       	rjmp	.-18     	; 0x226c <ClearTxAfter>
    227e:	08 95       	ret

00002280 <StartsWith>:
    2280:	ac 01       	movw	r20, r24
    2282:	90 e0       	ldi	r25, 0x00	; 0
    2284:	e9 2f       	mov	r30, r25
    2286:	f0 e0       	ldi	r31, 0x00	; 0
    2288:	da 01       	movw	r26, r20
    228a:	ae 0f       	add	r26, r30
    228c:	bf 1f       	adc	r27, r31
    228e:	3c 91       	ld	r19, X
    2290:	e6 0f       	add	r30, r22
    2292:	f7 1f       	adc	r31, r23
    2294:	31 11       	cpse	r19, r1
    2296:	05 c0       	rjmp	.+10     	; 0x22a2 <StartsWith+0x22>
    2298:	81 e0       	ldi	r24, 0x01	; 1
    229a:	90 81       	ld	r25, Z
    229c:	99 23       	and	r25, r25
    229e:	49 f0       	breq	.+18     	; 0x22b2 <StartsWith+0x32>
    22a0:	07 c0       	rjmp	.+14     	; 0x22b0 <StartsWith+0x30>
    22a2:	20 81       	ld	r18, Z
    22a4:	22 23       	and	r18, r18
    22a6:	c1 f3       	breq	.-16     	; 0x2298 <StartsWith+0x18>
    22a8:	32 13       	cpse	r19, r18
    22aa:	02 c0       	rjmp	.+4      	; 0x22b0 <StartsWith+0x30>
    22ac:	9f 5f       	subi	r25, 0xFF	; 255
    22ae:	ea cf       	rjmp	.-44     	; 0x2284 <StartsWith+0x4>
    22b0:	80 e0       	ldi	r24, 0x00	; 0
    22b2:	08 95       	ret

000022b4 <PrepareSending>:
    22b4:	cf 93       	push	r28
    22b6:	df 93       	push	r29
    22b8:	fc 01       	movw	r30, r24
    22ba:	61 15       	cp	r22, r1
    22bc:	71 05       	cpc	r23, r1
    22be:	59 f1       	breq	.+86     	; 0x2316 <PrepareSending+0x62>
    22c0:	a9 e5       	ldi	r26, 0x59	; 89
    22c2:	ba e3       	ldi	r27, 0x3A	; 58
    22c4:	c1 e5       	ldi	r28, 0x51	; 81
    22c6:	da e3       	ldi	r29, 0x3A	; 58
    22c8:	80 e0       	ldi	r24, 0x00	; 0
    22ca:	9f ef       	ldi	r25, 0xFF	; 255
    22cc:	6f 3f       	cpi	r22, 0xFF	; 255
    22ce:	71 05       	cpc	r23, r1
    22d0:	69 f0       	breq	.+26     	; 0x22ec <PrepareSending+0x38>
    22d2:	60 f0       	brcs	.+24     	; 0x22ec <PrepareSending+0x38>
    22d4:	ed 93       	st	X+, r30
    22d6:	fd 93       	st	X+, r31
    22d8:	99 93       	st	Y+, r25
    22da:	e1 50       	subi	r30, 0x01	; 1
    22dc:	ff 4f       	sbci	r31, 0xFF	; 255
    22de:	6f 5f       	subi	r22, 0xFF	; 255
    22e0:	71 09       	sbc	r23, r1
    22e2:	8f 5f       	subi	r24, 0xFF	; 255
    22e4:	87 30       	cpi	r24, 0x07	; 7
    22e6:	91 f7       	brne	.-28     	; 0x22cc <PrepareSending+0x18>
    22e8:	81 e0       	ldi	r24, 0x01	; 1
    22ea:	1e c0       	rjmp	.+60     	; 0x2328 <PrepareSending+0x74>
    22ec:	28 2f       	mov	r18, r24
    22ee:	30 e0       	ldi	r19, 0x00	; 0
    22f0:	d9 01       	movw	r26, r18
    22f2:	aa 0f       	add	r26, r26
    22f4:	bb 1f       	adc	r27, r27
    22f6:	a7 5a       	subi	r26, 0xA7	; 167
    22f8:	b5 4c       	sbci	r27, 0xC5	; 197
    22fa:	ed 93       	st	X+, r30
    22fc:	fc 93       	st	X, r31
    22fe:	6f 3f       	cpi	r22, 0xFF	; 255
    2300:	71 05       	cpc	r23, r1
    2302:	11 f4       	brne	.+4      	; 0x2308 <PrepareSending+0x54>
    2304:	6e ef       	ldi	r22, 0xFE	; 254
    2306:	70 e0       	ldi	r23, 0x00	; 0
    2308:	f9 01       	movw	r30, r18
    230a:	ef 5a       	subi	r30, 0xAF	; 175
    230c:	f5 4c       	sbci	r31, 0xC5	; 197
    230e:	60 83       	st	Z, r22
    2310:	40 93 4f 3a 	sts	0x3A4F, r20	; 0x803a4f <txTypeNow>
    2314:	05 c0       	rjmp	.+10     	; 0x2320 <PrepareSending+0x6c>
    2316:	10 92 59 3a 	sts	0x3A59, r1	; 0x803a59 <txAddrList>
    231a:	10 92 5a 3a 	sts	0x3A5A, r1	; 0x803a5a <txAddrList+0x1>
    231e:	80 e0       	ldi	r24, 0x00	; 0
    2320:	a5 df       	rcall	.-182    	; 0x226c <ClearTxAfter>
    2322:	10 92 50 3a 	sts	0x3A50, r1	; 0x803a50 <txAddrNow>
    2326:	80 e0       	ldi	r24, 0x00	; 0
    2328:	df 91       	pop	r29
    232a:	cf 91       	pop	r28
    232c:	08 95       	ret

0000232e <SetStandardResponse>:
}

//
uint8_t SetStandardResponse(uint8_t custStrEnd){
    232e:	cf 93       	push	r28
    2330:	df 93       	push	r29
    return 0;
}

//
void SetResponse(uint8_t number, uint16_t address, uint16_t length, uint8_t type){
    reactStr[0][number]=address;
    2332:	28 2f       	mov	r18, r24
    2334:	30 e0       	ldi	r19, 0x00	; 0
    2336:	f9 01       	movw	r30, r18
    2338:	ee 0f       	add	r30, r30
    233a:	ff 1f       	adc	r31, r31
    233c:	ec 5d       	subi	r30, 0xDC	; 220
    233e:	f6 4c       	sbci	r31, 0xC6	; 198
    2340:	a9 e5       	ldi	r26, 0x59	; 89
    2342:	ba e7       	ldi	r27, 0x7A	; 122
    2344:	a0 83       	st	Z, r26
    2346:	b1 83       	std	Z+1, r27	; 0x01
    reactStr[1][number]=length;
    2348:	f9 01       	movw	r30, r18
    234a:	ee 0f       	add	r30, r30
    234c:	ff 1f       	adc	r31, r31
    234e:	ec 59       	subi	r30, 0x9C	; 156
    2350:	f6 4c       	sbci	r31, 0xC6	; 198
    2352:	62 e0       	ldi	r22, 0x02	; 2
    2354:	70 e0       	ldi	r23, 0x00	; 0
    2356:	60 83       	st	Z, r22
    2358:	71 83       	std	Z+1, r23	; 0x01
    reactStr[2][number]=type;
    235a:	22 0f       	add	r18, r18
    235c:	33 1f       	adc	r19, r19
    235e:	f9 01       	movw	r30, r18
    2360:	ec 55       	subi	r30, 0x5C	; 92
    2362:	f6 4c       	sbci	r31, 0xC6	; 198
    2364:	41 e0       	ldi	r20, 0x01	; 1
    2366:	50 e0       	ldi	r21, 0x00	; 0
    2368:	40 83       	st	Z, r20
    236a:	51 83       	std	Z+1, r21	; 0x01
    return 0;
}

//
void SetResponse(uint8_t number, uint16_t address, uint16_t length, uint8_t type){
    reactStr[0][number]=address;
    236c:	21 e0       	ldi	r18, 0x01	; 1
    236e:	28 0f       	add	r18, r24
    2370:	30 e0       	ldi	r19, 0x00	; 0
    2372:	f9 01       	movw	r30, r18
    2374:	ee 0f       	add	r30, r30
    2376:	ff 1f       	adc	r31, r31
    2378:	ec 5d       	subi	r30, 0xDC	; 220
    237a:	f6 4c       	sbci	r31, 0xC6	; 198
    237c:	c2 e6       	ldi	r28, 0x62	; 98
    237e:	da e7       	ldi	r29, 0x7A	; 122
    2380:	c0 83       	st	Z, r28
    2382:	d1 83       	std	Z+1, r29	; 0x01
    reactStr[1][number]=length;
    2384:	f9 01       	movw	r30, r18
    2386:	ee 0f       	add	r30, r30
    2388:	ff 1f       	adc	r31, r31
    238a:	ec 59       	subi	r30, 0x9C	; 156
    238c:	f6 4c       	sbci	r31, 0xC6	; 198
    238e:	cc e0       	ldi	r28, 0x0C	; 12
    2390:	d0 e0       	ldi	r29, 0x00	; 0
    2392:	c0 83       	st	Z, r28
    2394:	d1 83       	std	Z+1, r29	; 0x01
    reactStr[2][number]=type;
    2396:	22 0f       	add	r18, r18
    2398:	33 1f       	adc	r19, r19
    239a:	f9 01       	movw	r30, r18
    239c:	ec 55       	subi	r30, 0x5C	; 92
    239e:	f6 4c       	sbci	r31, 0xC6	; 198
    23a0:	40 83       	st	Z, r20
    23a2:	51 83       	std	Z+1, r21	; 0x01
//
uint8_t SetStandardResponse(uint8_t custStrEnd){

    SetResponse(custStrEnd++, A_LF, 2, TEASER);
    SetResponse(custStrEnd++, A_LOCATION, L_LOCATION, TEASER);
    reactStr[0][custStrEnd++] = CURR_LOC;
    23a4:	e2 e0       	ldi	r30, 0x02	; 2
    23a6:	e8 0f       	add	r30, r24
    23a8:	f0 e0       	ldi	r31, 0x00	; 0
    23aa:	ee 0f       	add	r30, r30
    23ac:	ff 1f       	adc	r31, r31
    23ae:	ec 5d       	subi	r30, 0xDC	; 220
    23b0:	f6 4c       	sbci	r31, 0xC6	; 198
    23b2:	20 ef       	ldi	r18, 0xF0	; 240
    23b4:	3f ef       	ldi	r19, 0xFF	; 255
    23b6:	20 83       	st	Z, r18
    23b8:	31 83       	std	Z+1, r19	; 0x01
    return 0;
}

//
void SetResponse(uint8_t number, uint16_t address, uint16_t length, uint8_t type){
    reactStr[0][number]=address;
    23ba:	23 e0       	ldi	r18, 0x03	; 3
    23bc:	28 0f       	add	r18, r24
    23be:	30 e0       	ldi	r19, 0x00	; 0
    23c0:	f9 01       	movw	r30, r18
    23c2:	ee 0f       	add	r30, r30
    23c4:	ff 1f       	adc	r31, r31
    23c6:	ec 5d       	subi	r30, 0xDC	; 220
    23c8:	f6 4c       	sbci	r31, 0xC6	; 198
    23ca:	a0 83       	st	Z, r26
    23cc:	b1 83       	std	Z+1, r27	; 0x01
    reactStr[1][number]=length;
    23ce:	f9 01       	movw	r30, r18
    23d0:	ee 0f       	add	r30, r30
    23d2:	ff 1f       	adc	r31, r31
    23d4:	ec 59       	subi	r30, 0x9C	; 156
    23d6:	f6 4c       	sbci	r31, 0xC6	; 198
    23d8:	60 83       	st	Z, r22
    23da:	71 83       	std	Z+1, r23	; 0x01
    reactStr[2][number]=type;
    23dc:	22 0f       	add	r18, r18
    23de:	33 1f       	adc	r19, r19
    23e0:	f9 01       	movw	r30, r18
    23e2:	ec 55       	subi	r30, 0x5C	; 92
    23e4:	f6 4c       	sbci	r31, 0xC6	; 198
    23e6:	40 83       	st	Z, r20
    23e8:	51 83       	std	Z+1, r21	; 0x01
    return 0;
}

//
void SetResponse(uint8_t number, uint16_t address, uint16_t length, uint8_t type){
    reactStr[0][number]=address;
    23ea:	24 e0       	ldi	r18, 0x04	; 4
    23ec:	28 0f       	add	r18, r24
    23ee:	30 e0       	ldi	r19, 0x00	; 0
    23f0:	f9 01       	movw	r30, r18
    23f2:	ee 0f       	add	r30, r30
    23f4:	ff 1f       	adc	r31, r31
    23f6:	ec 5d       	subi	r30, 0xDC	; 220
    23f8:	f6 4c       	sbci	r31, 0xC6	; 198
    23fa:	a5 e5       	ldi	r26, 0x55	; 85
    23fc:	ba e7       	ldi	r27, 0x7A	; 122
    23fe:	a0 83       	st	Z, r26
    2400:	b1 83       	std	Z+1, r27	; 0x01
    reactStr[1][number]=length;
    2402:	f9 01       	movw	r30, r18
    2404:	ee 0f       	add	r30, r30
    2406:	ff 1f       	adc	r31, r31
    2408:	ec 59       	subi	r30, 0x9C	; 156
    240a:	f6 4c       	sbci	r31, 0xC6	; 198
    240c:	60 83       	st	Z, r22
    240e:	71 83       	std	Z+1, r23	; 0x01
    reactStr[2][number]=type;
    2410:	22 0f       	add	r18, r18
    2412:	33 1f       	adc	r19, r19
    2414:	f9 01       	movw	r30, r18
    2416:	ec 55       	subi	r30, 0x5C	; 92
    2418:	f6 4c       	sbci	r31, 0xC6	; 198
    241a:	40 83       	st	Z, r20
    241c:	51 83       	std	Z+1, r21	; 0x01
    reactStr[0][custStrEnd++] = CURR_LOC;
    SetResponse(custStrEnd++, A_LF, 2, TEASER);
    SetResponse(custStrEnd++, A_PROMPT, L_PROMPT, TEASER);

    return custStrEnd;
}
    241e:	8b 5f       	subi	r24, 0xFB	; 251
    2420:	df 91       	pop	r29
    2422:	cf 91       	pop	r28
    2424:	08 95       	ret

00002426 <PopulateObject>:

//Get all the relevant data and string addresses of an object
void PopulateObject(uint16_t offset, object_model_t *object){
    2426:	af 92       	push	r10
    2428:	bf 92       	push	r11
    242a:	df 92       	push	r13
    242c:	ef 92       	push	r14
    242e:	ff 92       	push	r15
    2430:	0f 93       	push	r16
    2432:	1f 93       	push	r17
    2434:	cf 93       	push	r28
    2436:	df 93       	push	r29
    2438:	cd b7       	in	r28, 0x3d	; 61
    243a:	de b7       	in	r29, 0x3e	; 62
    243c:	2c 97       	sbiw	r28, 0x0c	; 12
    243e:	cd bf       	out	0x3d, r28	; 61
    2440:	de bf       	out	0x3e, r29	; 62
    2442:	7c 01       	movw	r14, r24
    2444:	8b 01       	movw	r16, r22
    uint16_t parStr;
    offset += L_BOILER;

    //Fill things with fixed distance to offset
    uint8_t data[OFF_STRINGFLDS];
    ExtEERead(offset, OFF_STRINGFLDS, GAME, &data[0]);
    2446:	9e 01       	movw	r18, r28
    2448:	2f 5f       	subi	r18, 0xFF	; 255
    244a:	3f 4f       	sbci	r19, 0xFF	; 255
    244c:	40 e0       	ldi	r20, 0x00	; 0
    244e:	6c e0       	ldi	r22, 0x0C	; 12
    2450:	80 96       	adiw	r24, 0x20	; 32
    2452:	0e 94 69 08 	call	0x10d2	; 0x10d2 <ExtEERead>
    object->addrNextObj = (data[OFF_NEXTOBJ]<<8|data[OFF_NEXTOBJ+1])+L_BOILER;
    2456:	89 81       	ldd	r24, Y+1	; 0x01
    2458:	9a 81       	ldd	r25, Y+2	; 0x02
    245a:	98 27       	eor	r25, r24
    245c:	89 27       	eor	r24, r25
    245e:	98 27       	eor	r25, r24
    2460:	80 96       	adiw	r24, 0x20	; 32
    2462:	f8 01       	movw	r30, r16
    2464:	80 83       	st	Z, r24
    2466:	91 83       	std	Z+1, r25	; 0x01
    object->addrNextLvl = (data[OFF_NEXTLVL]<<8|data[OFF_NEXTLVL+1])+L_BOILER;
    2468:	8b 81       	ldd	r24, Y+3	; 0x03
    246a:	9c 81       	ldd	r25, Y+4	; 0x04
    246c:	98 27       	eor	r25, r24
    246e:	89 27       	eor	r24, r25
    2470:	98 27       	eor	r25, r24
    2472:	80 96       	adiw	r24, 0x20	; 32
    2474:	82 83       	std	Z+2, r24	; 0x02
    2476:	93 83       	std	Z+3, r25	; 0x03
    2478:	de 01       	movw	r26, r28
    247a:	15 96       	adiw	r26, 0x05	; 5
    247c:	34 96       	adiw	r30, 0x04	; 4
    247e:	c8 01       	movw	r24, r16
    2480:	0c 96       	adiw	r24, 0x0c	; 12
    for (uint8_t x=0; x<BYTE_FIELDS_LEN; ++x){
        object->byteField[x]=data[x+OFF_BYTEFLDS];
    2482:	2d 91       	ld	r18, X+
    2484:	21 93       	st	Z+, r18
    //Fill things with fixed distance to offset
    uint8_t data[OFF_STRINGFLDS];
    ExtEERead(offset, OFF_STRINGFLDS, GAME, &data[0]);
    object->addrNextObj = (data[OFF_NEXTOBJ]<<8|data[OFF_NEXTOBJ+1])+L_BOILER;
    object->addrNextLvl = (data[OFF_NEXTLVL]<<8|data[OFF_NEXTLVL+1])+L_BOILER;
    for (uint8_t x=0; x<BYTE_FIELDS_LEN; ++x){
    2486:	e8 17       	cp	r30, r24
    2488:	f9 07       	cpc	r31, r25
    248a:	d9 f7       	brne	.-10     	; 0x2482 <PopulateObject+0x5c>
        object->byteField[x]=data[x+OFF_BYTEFLDS];
    }

    //Find out where all of the strings begin and how long they are
    offset += OFF_STRINGFLDS;
    248c:	fc e2       	ldi	r31, 0x2C	; 44
    248e:	ef 0e       	add	r14, r31
    2490:	f1 1c       	adc	r15, r1
    2492:	58 01       	movw	r10, r16
    for(uint8_t x=0; x<STRING_FIELDS_LEN; ++x){
    2494:	d1 2c       	mov	r13, r1
        
        //Determine length
        ExtEERead(offset, 3, GAME, &data[0]);
    2496:	9e 01       	movw	r18, r28
    2498:	2f 5f       	subi	r18, 0xFF	; 255
    249a:	3f 4f       	sbci	r19, 0xFF	; 255
    249c:	40 e0       	ldi	r20, 0x00	; 0
    249e:	63 e0       	ldi	r22, 0x03	; 3
    24a0:	c7 01       	movw	r24, r14
    24a2:	0e 94 69 08 	call	0x10d2	; 0x10d2 <ExtEERead>
    24a6:	89 81       	ldd	r24, Y+1	; 0x01
    24a8:	9a 81       	ldd	r25, Y+2	; 0x02
    24aa:	98 27       	eor	r25, r24
    24ac:	89 27       	eor	r24, r25
    24ae:	98 27       	eor	r25, r24
        parStr = (data[0]<<8|data[1]);
        offset += 2;
    24b0:	97 01       	movw	r18, r14
    24b2:	2e 5f       	subi	r18, 0xFE	; 254
    24b4:	3f 4f       	sbci	r19, 0xFF	; 255
        if (x >= OPEN_ACL_MSG){
    24b6:	43 e0       	ldi	r20, 0x03	; 3
    24b8:	4d 15       	cp	r20, r13
    24ba:	80 f4       	brcc	.+32     	; 0x24dc <PopulateObject+0xb6>
            object->lenStr[x]= parStr-1;
    24bc:	ac 01       	movw	r20, r24
    24be:	41 50       	subi	r20, 0x01	; 1
    24c0:	51 09       	sbc	r21, r1
    24c2:	f8 01       	movw	r30, r16
    24c4:	42 8f       	std	Z+26, r20	; 0x1a
    24c6:	53 8f       	std	Z+27, r21	; 0x1b
            object->addrStr[x]=offset+1;
    24c8:	f3 e0       	ldi	r31, 0x03	; 3
    24ca:	ef 0e       	add	r14, r31
    24cc:	f1 1c       	adc	r15, r1
    24ce:	f8 01       	movw	r30, r16
    24d0:	e4 86       	std	Z+12, r14	; 0x0c
    24d2:	f5 86       	std	Z+13, r15	; 0x0d
            object->effect[x-OPEN_ACL_MSG] = data[2];
    24d4:	4b 81       	ldd	r20, Y+3	; 0x03
    24d6:	f5 01       	movw	r30, r10
    24d8:	44 a3       	std	Z+36, r20	; 0x24
    24da:	05 c0       	rjmp	.+10     	; 0x24e6 <PopulateObject+0xc0>
        } else {
            object->lenStr[x]= parStr;
    24dc:	f8 01       	movw	r30, r16
    24de:	82 8f       	std	Z+26, r24	; 0x1a
    24e0:	93 8f       	std	Z+27, r25	; 0x1b
            object->addrStr[x]=offset;
    24e2:	24 87       	std	Z+12, r18	; 0x0c
    24e4:	35 87       	std	Z+13, r19	; 0x0d
        }
        
        //Determine string start location for next field
        offset += parStr;
    24e6:	7c 01       	movw	r14, r24
    24e8:	e2 0e       	add	r14, r18
    24ea:	f3 1e       	adc	r15, r19
        object->byteField[x]=data[x+OFF_BYTEFLDS];
    }

    //Find out where all of the strings begin and how long they are
    offset += OFF_STRINGFLDS;
    for(uint8_t x=0; x<STRING_FIELDS_LEN; ++x){
    24ec:	d3 94       	inc	r13
    24ee:	0e 5f       	subi	r16, 0xFE	; 254
    24f0:	1f 4f       	sbci	r17, 0xFF	; 255
    24f2:	ff ef       	ldi	r31, 0xFF	; 255
    24f4:	af 1a       	sub	r10, r31
    24f6:	bf 0a       	sbc	r11, r31
    24f8:	47 e0       	ldi	r20, 0x07	; 7
    24fa:	d4 12       	cpse	r13, r20
    24fc:	cc cf       	rjmp	.-104    	; 0x2496 <PopulateObject+0x70>
        }
        
        //Determine string start location for next field
        offset += parStr;
    }    
}
    24fe:	2c 96       	adiw	r28, 0x0c	; 12
    2500:	cd bf       	out	0x3d, r28	; 61
    2502:	de bf       	out	0x3e, r29	; 62
    2504:	df 91       	pop	r29
    2506:	cf 91       	pop	r28
    2508:	1f 91       	pop	r17
    250a:	0f 91       	pop	r16
    250c:	ff 90       	pop	r15
    250e:	ef 90       	pop	r14
    2510:	df 90       	pop	r13
    2512:	bf 90       	pop	r11
    2514:	af 90       	pop	r10
    2516:	08 95       	ret

00002518 <CheckLetter>:

//Check if the entered letter corresponds with a name
uint8_t CheckLetter(uint16_t object, uint8_t letter){
    2518:	a0 e2       	ldi	r26, 0x20	; 32
    251a:	b0 e0       	ldi	r27, 0x00	; 0
    251c:	e2 e9       	ldi	r30, 0x92	; 146
    251e:	f2 e1       	ldi	r31, 0x12	; 18
    2520:	0c 94 52 1f 	jmp	0x3ea4	; 0x3ea4 <__prologue_saves__+0x14>
    2524:	c6 2e       	mov	r12, r22
    
    uint8_t found = 0;
    uint8_t data[32];

    object += L_BOILER;
    2526:	7c 01       	movw	r14, r24
    2528:	20 e2       	ldi	r18, 0x20	; 32
    252a:	e2 0e       	add	r14, r18
    252c:	f1 1c       	adc	r15, r1
    ExtEERead(object+OFF_STRINGFLDS, 2, GAME, &data[0]);
    252e:	9e 01       	movw	r18, r28
    2530:	2f 5f       	subi	r18, 0xFF	; 255
    2532:	3f 4f       	sbci	r19, 0xFF	; 255
    2534:	40 e0       	ldi	r20, 0x00	; 0
    2536:	62 e0       	ldi	r22, 0x02	; 2
    2538:	8c 96       	adiw	r24, 0x2c	; 44
    253a:	0e 94 69 08 	call	0x10d2	; 0x10d2 <ExtEERead>
    uint8_t x = data[1]; //Assuming a name is not longer than 255 characters.
    253e:	1a 81       	ldd	r17, Y+2	; 0x02
}

//Check if the entered letter corresponds with a name
uint8_t CheckLetter(uint16_t object, uint8_t letter){
    
    uint8_t found = 0;
    2540:	d1 2c       	mov	r13, r1

    object += L_BOILER;
    ExtEERead(object+OFF_STRINGFLDS, 2, GAME, &data[0]);
    uint8_t x = data[1]; //Assuming a name is not longer than 255 characters.

    while (x){
    2542:	11 23       	and	r17, r17
    2544:	59 f1       	breq	.+86     	; 0x259c <CheckLetter+0x84>
    2546:	01 2f       	mov	r16, r17
    2548:	11 32       	cpi	r17, 0x21	; 33
    254a:	08 f0       	brcs	.+2      	; 0x254e <CheckLetter+0x36>
    254c:	00 e2       	ldi	r16, 0x20	; 32
        uint8_t max;
        if (x>32) max = 32; else max = x;
        ExtEERead(object+OFF_STRINGFLDS+2, max, GAME, &data[0]);
    254e:	9e 01       	movw	r18, r28
    2550:	2f 5f       	subi	r18, 0xFF	; 255
    2552:	3f 4f       	sbci	r19, 0xFF	; 255
    2554:	40 e0       	ldi	r20, 0x00	; 0
    2556:	60 2f       	mov	r22, r16
    2558:	c7 01       	movw	r24, r14
    255a:	0e 96       	adiw	r24, 0x0e	; 14
    255c:	0e 94 69 08 	call	0x10d2	; 0x10d2 <ExtEERead>
    2560:	fe 01       	movw	r30, r28
    2562:	31 96       	adiw	r30, 0x01	; 1
        for (uint8_t y=0; y<max; ++y){
    2564:	80 e0       	ldi	r24, 0x00	; 0
            if (found){
    2566:	dd 20       	and	r13, r13
    2568:	61 f0       	breq	.+24     	; 0x2582 <CheckLetter+0x6a>
                if ((data[y]|0x20) == letter) return 1; else return 0;
    256a:	e1 e0       	ldi	r30, 0x01	; 1
    256c:	f0 e0       	ldi	r31, 0x00	; 0
    256e:	ec 0f       	add	r30, r28
    2570:	fd 1f       	adc	r31, r29
    2572:	e8 0f       	add	r30, r24
    2574:	f1 1d       	adc	r31, r1
    2576:	90 81       	ld	r25, Z
    2578:	90 62       	ori	r25, 0x20	; 32
    257a:	81 e0       	ldi	r24, 0x01	; 1
    257c:	9c 11       	cpse	r25, r12
    257e:	0e c0       	rjmp	.+28     	; 0x259c <CheckLetter+0x84>
    2580:	0e c0       	rjmp	.+28     	; 0x259e <CheckLetter+0x86>
            }
            if (data[y] == '[') found = 1;
    2582:	91 91       	ld	r25, Z+
    2584:	dd 24       	eor	r13, r13
    2586:	d3 94       	inc	r13
    2588:	9b 35       	cpi	r25, 0x5B	; 91
    258a:	09 f0       	breq	.+2      	; 0x258e <CheckLetter+0x76>
    258c:	d1 2c       	mov	r13, r1

    while (x){
        uint8_t max;
        if (x>32) max = 32; else max = x;
        ExtEERead(object+OFF_STRINGFLDS+2, max, GAME, &data[0]);
        for (uint8_t y=0; y<max; ++y){
    258e:	8f 5f       	subi	r24, 0xFF	; 255
    2590:	80 17       	cp	r24, r16
    2592:	48 f3       	brcs	.-46     	; 0x2566 <CheckLetter+0x4e>
            if (found){
                if ((data[y]|0x20) == letter) return 1; else return 0;
            }
            if (data[y] == '[') found = 1;
        }
        object += max;
    2594:	e0 0e       	add	r14, r16
    2596:	f1 1c       	adc	r15, r1
        x -= max;
    2598:	10 1b       	sub	r17, r16
    259a:	d3 cf       	rjmp	.-90     	; 0x2542 <CheckLetter+0x2a>
    }
    return 0;
    259c:	80 e0       	ldi	r24, 0x00	; 0
}
    259e:	a0 96       	adiw	r28, 0x20	; 32
    25a0:	e8 e0       	ldi	r30, 0x08	; 8
    25a2:	0c 94 6b 1f 	jmp	0x3ed6	; 0x3ed6 <__epilogue_restores__+0x14>

000025a6 <FindChild>:

//Returns the child's address if the child is visible and the search letter matches
uint16_t FindChild(uint16_t parent, uint8_t letter, uint16_t start){
    25a6:	af 92       	push	r10
    25a8:	bf 92       	push	r11
    25aa:	df 92       	push	r13
    25ac:	ef 92       	push	r14
    25ae:	ff 92       	push	r15
    25b0:	0f 93       	push	r16
    25b2:	1f 93       	push	r17
    25b4:	cf 93       	push	r28
    25b6:	df 93       	push	r29
    25b8:	00 d0       	rcall	.+0      	; 0x25ba <FindChild+0x14>
    25ba:	00 d0       	rcall	.+0      	; 0x25bc <FindChild+0x16>
    25bc:	cd b7       	in	r28, 0x3d	; 61
    25be:	de b7       	in	r29, 0x3e	; 62
    25c0:	d6 2e       	mov	r13, r22
    25c2:	5a 01       	movw	r10, r20
    
    uint16_t child = parent;
    uint8_t data[4];

    ExtEERead(child+L_BOILER, 4, GAME, &data[0]);
    25c4:	9e 01       	movw	r18, r28
    25c6:	2f 5f       	subi	r18, 0xFF	; 255
    25c8:	3f 4f       	sbci	r19, 0xFF	; 255
    25ca:	40 e0       	ldi	r20, 0x00	; 0
    25cc:	64 e0       	ldi	r22, 0x04	; 4
    25ce:	80 96       	adiw	r24, 0x20	; 32
    25d0:	0e 94 69 08 	call	0x10d2	; 0x10d2 <ExtEERead>
    25d4:	e9 80       	ldd	r14, Y+1	; 0x01
    25d6:	fa 80       	ldd	r15, Y+2	; 0x02
    25d8:	fe 24       	eor	r15, r14
    25da:	ef 24       	eor	r14, r15
    25dc:	fe 24       	eor	r15, r14
    25de:	0b 81       	ldd	r16, Y+3	; 0x03
    25e0:	1c 81       	ldd	r17, Y+4	; 0x04
    25e2:	10 27       	eor	r17, r16
    25e4:	01 27       	eor	r16, r17
    25e6:	10 27       	eor	r17, r16
    parent = (data[0]<<8|data[1]);    //Next object on parent level
    child =  (data[2]<<8|data[3]);    //First object on child level

    //As long as the child is within the parent's range
    while (parent>child){
    25e8:	0e 15       	cp	r16, r14
    25ea:	1f 05       	cpc	r17, r15
    25ec:	48 f5       	brcc	.+82     	; 0x2640 <FindChild+0x9a>

        //If child's address is higher than the start address, perform search for letter
        if (child>start){
    25ee:	a0 16       	cp	r10, r16
    25f0:	b1 06       	cpc	r11, r17
    25f2:	60 f0       	brcs	.+24     	; 0x260c <FindChild+0x66>
                if ((letter == 0)||(CheckLetter(child, letter))) return child;
            }
        }

        //Not visible or name not right
        ExtEERead(child+L_BOILER, 2, GAME, &data[0]);
    25f4:	9e 01       	movw	r18, r28
    25f6:	2f 5f       	subi	r18, 0xFF	; 255
    25f8:	3f 4f       	sbci	r19, 0xFF	; 255
    25fa:	40 e0       	ldi	r20, 0x00	; 0
    25fc:	62 e0       	ldi	r22, 0x02	; 2
    25fe:	c8 01       	movw	r24, r16
    2600:	80 96       	adiw	r24, 0x20	; 32
    2602:	0e 94 69 08 	call	0x10d2	; 0x10d2 <ExtEERead>
    2606:	09 81       	ldd	r16, Y+1	; 0x01
    2608:	1a 81       	ldd	r17, Y+2	; 0x02
    260a:	eb cf       	rjmp	.-42     	; 0x25e2 <FindChild+0x3c>
    //As long as the child is within the parent's range
    while (parent>child){

        //If child's address is higher than the start address, perform search for letter
        if (child>start){
            ExtEERead(child+OFF_BYTEFLDS+VISIBLE_ACL+L_BOILER, 1, GAME, &data[0]);
    260c:	9e 01       	movw	r18, r28
    260e:	2f 5f       	subi	r18, 0xFF	; 255
    2610:	3f 4f       	sbci	r19, 0xFF	; 255
    2612:	40 e0       	ldi	r20, 0x00	; 0
    2614:	61 e0       	ldi	r22, 0x01	; 1
    2616:	c8 01       	movw	r24, r16
    2618:	85 96       	adiw	r24, 0x25	; 37
    261a:	0e 94 69 08 	call	0x10d2	; 0x10d2 <ExtEERead>
            if ((data[0] == 0)||(CheckState(data[0]))) {
    261e:	89 81       	ldd	r24, Y+1	; 0x01
    2620:	81 11       	cpse	r24, r1
    2622:	03 c0       	rjmp	.+6      	; 0x262a <FindChild+0x84>
                if ((letter == 0)||(CheckLetter(child, letter))) return child;
    2624:	d1 10       	cpse	r13, r1
    2626:	06 c0       	rjmp	.+12     	; 0x2634 <FindChild+0x8e>
    2628:	0e c0       	rjmp	.+28     	; 0x2646 <FindChild+0xa0>
    while (parent>child){

        //If child's address is higher than the start address, perform search for letter
        if (child>start){
            ExtEERead(child+OFF_BYTEFLDS+VISIBLE_ACL+L_BOILER, 1, GAME, &data[0]);
            if ((data[0] == 0)||(CheckState(data[0]))) {
    262a:	0e 94 20 0a 	call	0x1440	; 0x1440 <CheckState>
    262e:	81 11       	cpse	r24, r1
    2630:	f9 cf       	rjmp	.-14     	; 0x2624 <FindChild+0x7e>
    2632:	e0 cf       	rjmp	.-64     	; 0x25f4 <FindChild+0x4e>
                if ((letter == 0)||(CheckLetter(child, letter))) return child;
    2634:	6d 2d       	mov	r22, r13
    2636:	c8 01       	movw	r24, r16
    2638:	6f df       	rcall	.-290    	; 0x2518 <CheckLetter>
    263a:	88 23       	and	r24, r24
    263c:	d9 f2       	breq	.-74     	; 0x25f4 <FindChild+0x4e>
    263e:	03 c0       	rjmp	.+6      	; 0x2646 <FindChild+0xa0>

        //Not visible or name not right
        ExtEERead(child+L_BOILER, 2, GAME, &data[0]);
        child = (data[0]<<8|data[1]);    //Next object on child level
        
    } return 0;
    2640:	80 e0       	ldi	r24, 0x00	; 0
    2642:	90 e0       	ldi	r25, 0x00	; 0
    2644:	01 c0       	rjmp	.+2      	; 0x2648 <FindChild+0xa2>
    2646:	c8 01       	movw	r24, r16
}
    2648:	24 96       	adiw	r28, 0x04	; 4
    264a:	cd bf       	out	0x3d, r28	; 61
    264c:	de bf       	out	0x3e, r29	; 62
    264e:	df 91       	pop	r29
    2650:	cf 91       	pop	r28
    2652:	1f 91       	pop	r17
    2654:	0f 91       	pop	r16
    2656:	ff 90       	pop	r15
    2658:	ef 90       	pop	r14
    265a:	df 90       	pop	r13
    265c:	bf 90       	pop	r11
    265e:	af 90       	pop	r10
    2660:	08 95       	ret

00002662 <InpOkChk>:

//Allow only a(A) to z(Z) and 0 to 9 as input
uint8_t InpOkChk(uint8_t test){
    test |= 0x20;
    2662:	80 62       	ori	r24, 0x20	; 32
    if ((test>='a')&&(test<='z')) return 1;
    2664:	9f e9       	ldi	r25, 0x9F	; 159
    2666:	98 0f       	add	r25, r24
    2668:	9a 31       	cpi	r25, 0x1A	; 26
    266a:	38 f0       	brcs	.+14     	; 0x267a <InpOkChk+0x18>
    266c:	90 ed       	ldi	r25, 0xD0	; 208
    266e:	98 0f       	add	r25, r24
    2670:	81 e0       	ldi	r24, 0x01	; 1
    2672:	9a 30       	cpi	r25, 0x0A	; 10
    2674:	18 f0       	brcs	.+6      	; 0x267c <InpOkChk+0x1a>
    2676:	80 e0       	ldi	r24, 0x00	; 0
    2678:	08 95       	ret
    267a:	81 e0       	ldi	r24, 0x01	; 1
    if ((test>='0')&&(test<='9')) return 1;
    return 0;
}
    267c:	08 95       	ret

0000267e <CleanInput>:

//Cleans input of garbage and returns length of cleaned input "o->d2  !\0" becomes "od2\0"
uint8_t CleanInput(uint8_t *data){
    267e:	0f 93       	push	r16
    2680:	1f 93       	push	r17
    2682:	cf 93       	push	r28
    2684:	df 93       	push	r29
    2686:	8c 01       	movw	r16, r24
    uint8_t cnt = 0;
    for (uint8_t x=0; data[x]!=0; ++x){
    2688:	d0 e0       	ldi	r29, 0x00	; 0
    return 0;
}

//Cleans input of garbage and returns length of cleaned input "o->d2  !\0" becomes "od2\0"
uint8_t CleanInput(uint8_t *data){
    uint8_t cnt = 0;
    268a:	c0 e0       	ldi	r28, 0x00	; 0
    for (uint8_t x=0; data[x]!=0; ++x){
    268c:	f8 01       	movw	r30, r16
    268e:	ed 0f       	add	r30, r29
    2690:	f1 1d       	adc	r31, r1
    2692:	80 81       	ld	r24, Z
    2694:	2c 2f       	mov	r18, r28
    2696:	30 e0       	ldi	r19, 0x00	; 0
    2698:	88 23       	and	r24, r24
    269a:	61 f0       	breq	.+24     	; 0x26b4 <CleanInput+0x36>
        data[cnt] = data[x];
    269c:	d8 01       	movw	r26, r16
    269e:	a2 0f       	add	r26, r18
    26a0:	b3 1f       	adc	r27, r19
    26a2:	8c 93       	st	X, r24
        if (data[x] == 0x1b) break; //Escape characters are not supported!
    26a4:	80 81       	ld	r24, Z
    26a6:	8b 31       	cpi	r24, 0x1B	; 27
    26a8:	29 f0       	breq	.+10     	; 0x26b4 <CleanInput+0x36>
        if (InpOkChk(data[x])) ++cnt;
    26aa:	db df       	rcall	.-74     	; 0x2662 <InpOkChk>
    26ac:	81 11       	cpse	r24, r1
    26ae:	cf 5f       	subi	r28, 0xFF	; 255
}

//Cleans input of garbage and returns length of cleaned input "o->d2  !\0" becomes "od2\0"
uint8_t CleanInput(uint8_t *data){
    uint8_t cnt = 0;
    for (uint8_t x=0; data[x]!=0; ++x){
    26b0:	df 5f       	subi	r29, 0xFF	; 255
    26b2:	ec cf       	rjmp	.-40     	; 0x268c <CleanInput+0xe>
        data[cnt] = data[x];
        if (data[x] == 0x1b) break; //Escape characters are not supported!
        if (InpOkChk(data[x])) ++cnt;
    }
    data[cnt] = 0;
    26b4:	f8 01       	movw	r30, r16
    26b6:	e2 0f       	add	r30, r18
    26b8:	f3 1f       	adc	r31, r19
    26ba:	10 82       	st	Z, r1
    return cnt;
}
    26bc:	8c 2f       	mov	r24, r28
    26be:	df 91       	pop	r29
    26c0:	cf 91       	pop	r28
    26c2:	1f 91       	pop	r17
    26c4:	0f 91       	pop	r16
    26c6:	08 95       	ret

000026c8 <CheckSend>:

//Send routine, optimized for low memory usage
uint8_t CheckSend(){
    26c8:	cf 93       	push	r28
    /*if (effect == 0){
        effect = currObj.byteField[EFFECTS];
    }*/

    //Check if more string(part)s have to be sent to the serial output if previous send operation is completed
    if ((txAddrNow < TXLISTLEN) && serTxDone){
    26ca:	20 91 50 3a 	lds	r18, 0x3A50	; 0x803a50 <txAddrNow>
    26ce:	28 30       	cpi	r18, 0x08	; 8
    26d0:	08 f0       	brcs	.+2      	; 0x26d4 <CheckSend+0xc>
    26d2:	49 c0       	rjmp	.+146    	; 0x2766 <CheckSend+0x9e>
    26d4:	80 91 09 38 	lds	r24, 0x3809	; 0x803809 <serTxDone>
    26d8:	88 23       	and	r24, r24
    26da:	09 f4       	brne	.+2      	; 0x26de <CheckSend+0x16>
    26dc:	44 c0       	rjmp	.+136    	; 0x2766 <CheckSend+0x9e>
        if (txStrLen[txAddrNow] == 0){
    26de:	82 2f       	mov	r24, r18
    26e0:	90 e0       	ldi	r25, 0x00	; 0
    26e2:	fc 01       	movw	r30, r24
    26e4:	ef 5a       	subi	r30, 0xAF	; 175
    26e6:	f5 4c       	sbci	r31, 0xC5	; 197
    26e8:	e0 81       	ld	r30, Z
    26ea:	e1 11       	cpse	r30, r1
    26ec:	06 c0       	rjmp	.+12     	; 0x26fa <CheckSend+0x32>
            txPart = 0;
    26ee:	10 92 0f 39 	sts	0x390F, r1	; 0x80390f <txPart.3939>
            txAddrNow = TXLISTLEN;
    26f2:	88 e0       	ldi	r24, 0x08	; 8
    26f4:	80 93 50 3a 	sts	0x3A50, r24	; 0x803a50 <txAddrNow>
    26f8:	2e c0       	rjmp	.+92     	; 0x2756 <CheckSend+0x8e>
        } else if (txPart < txStrLen[txAddrNow]){
    26fa:	50 91 0f 39 	lds	r21, 0x390F	; 0x80390f <txPart.3939>
    26fe:	5e 17       	cp	r21, r30
    2700:	60 f5       	brcc	.+88     	; 0x275a <CheckSend+0x92>
            EEreadLength = txStrLen[txAddrNow]-txPart;
    2702:	ce 2f       	mov	r28, r30
    2704:	c5 1b       	sub	r28, r21
    2706:	c1 32       	cpi	r28, 0x21	; 33
    2708:	08 f0       	brcs	.+2      	; 0x270c <CheckSend+0x44>
    270a:	c0 e2       	ldi	r28, 0x20	; 32
            if (EEreadLength>=TXLEN) EEreadLength = TXLEN-1;
            ExtEERead(txAddrList[txAddrNow]+txPart, EEreadLength, txTypeNow, &txBuffer[0]);
    270c:	88 0f       	add	r24, r24
    270e:	99 1f       	adc	r25, r25
    2710:	fc 01       	movw	r30, r24
    2712:	e7 5a       	subi	r30, 0xA7	; 167
    2714:	f5 4c       	sbci	r31, 0xC5	; 197
    2716:	80 81       	ld	r24, Z
    2718:	91 81       	ldd	r25, Z+1	; 0x01
    271a:	2a ef       	ldi	r18, 0xFA	; 250
    271c:	3a e3       	ldi	r19, 0x3A	; 58
    271e:	40 91 4f 3a 	lds	r20, 0x3A4F	; 0x803a4f <txTypeNow>
    2722:	6c 2f       	mov	r22, r28
    2724:	85 0f       	add	r24, r21
    2726:	91 1d       	adc	r25, r1
    2728:	0e 94 69 08 	call	0x10d2	; 0x10d2 <ExtEERead>
            txPart += EEreadLength;
    272c:	80 91 0f 39 	lds	r24, 0x390F	; 0x80390f <txPart.3939>
    2730:	8c 0f       	add	r24, r28
    2732:	80 93 0f 39 	sts	0x390F, r24	; 0x80390f <txPart.3939>
            txBuffer[EEreadLength] = 0; //Add string terminator after piece to send to plug memory leak
    2736:	ec 2f       	mov	r30, r28
    2738:	f0 e0       	ldi	r31, 0x00	; 0
    273a:	e6 50       	subi	r30, 0x06	; 6
    273c:	f5 4c       	sbci	r31, 0xC5	; 197
    273e:	10 82       	st	Z, r1
            if ((txBuffer[0] == 0) && (EEreadLength)) txBuffer[0] = 0xDB; //Block character when data wrong.
    2740:	80 91 fa 3a 	lds	r24, 0x3AFA	; 0x803afa <txBuffer>
    2744:	81 11       	cpse	r24, r1
    2746:	03 c0       	rjmp	.+6      	; 0x274e <CheckSend+0x86>
    2748:	8b ed       	ldi	r24, 0xDB	; 219
    274a:	80 93 fa 3a 	sts	0x3AFA, r24	; 0x803afa <txBuffer>
            SerSend(&txBuffer[0]);
    274e:	8a ef       	ldi	r24, 0xFA	; 250
    2750:	9a e3       	ldi	r25, 0x3A	; 58
    2752:	0e 94 8b 08 	call	0x1116	; 0x1116 <SerSend>
        } else {
            txPart = 0;
            ++txAddrNow;
        }
    } else if (serTxDone) return 0; //All is sent!
    return 1; //Still sending, do not change the data in the tx variables
    2756:	81 e0       	ldi	r24, 0x01	; 1
    2758:	0b c0       	rjmp	.+22     	; 0x2770 <CheckSend+0xa8>
            txPart += EEreadLength;
            txBuffer[EEreadLength] = 0; //Add string terminator after piece to send to plug memory leak
            if ((txBuffer[0] == 0) && (EEreadLength)) txBuffer[0] = 0xDB; //Block character when data wrong.
            SerSend(&txBuffer[0]);
        } else {
            txPart = 0;
    275a:	10 92 0f 39 	sts	0x390F, r1	; 0x80390f <txPart.3939>
            ++txAddrNow;
    275e:	2f 5f       	subi	r18, 0xFF	; 255
    2760:	20 93 50 3a 	sts	0x3A50, r18	; 0x803a50 <txAddrNow>
    2764:	f8 cf       	rjmp	.-16     	; 0x2756 <CheckSend+0x8e>
        }
    } else if (serTxDone) return 0; //All is sent!
    2766:	90 91 09 38 	lds	r25, 0x3809	; 0x803809 <serTxDone>
    276a:	81 e0       	ldi	r24, 0x01	; 1
    276c:	91 11       	cpse	r25, r1
    276e:	80 e0       	ldi	r24, 0x00	; 0
    return 1; //Still sending, do not change the data in the tx variables
}
    2770:	cf 91       	pop	r28
    2772:	08 95       	ret

00002774 <CheckResponse>:

//Send another part of the response and play the effect afterwards
uint8_t CheckResponse(){
    2774:	cf 93       	push	r28
    2776:	df 93       	push	r29
    static uint8_t number = 0;
    if (responseList){
    2778:	c0 91 23 39 	lds	r28, 0x3923	; 0x803923 <responseList>
    277c:	cc 23       	and	r28, r28
    277e:	b1 f1       	breq	.+108    	; 0x27ec <CheckResponse+0x78>
        --responseList;
    2780:	c1 50       	subi	r28, 0x01	; 1
    2782:	c0 93 23 39 	sts	0x3923, r28	; 0x803923 <responseList>
        if (reactStr[0][number] == CURR_LOC) {
    2786:	d0 91 0e 39 	lds	r29, 0x390E	; 0x80390e <number.3943>
    278a:	2d 2f       	mov	r18, r29
    278c:	30 e0       	ldi	r19, 0x00	; 0
    278e:	f9 01       	movw	r30, r18
    2790:	ee 0f       	add	r30, r30
    2792:	ff 1f       	adc	r31, r31
    2794:	ec 5d       	subi	r30, 0xDC	; 220
    2796:	f6 4c       	sbci	r31, 0xC6	; 198
    2798:	80 81       	ld	r24, Z
    279a:	91 81       	ldd	r25, Z+1	; 0x01
    279c:	80 3f       	cpi	r24, 0xF0	; 240
    279e:	4f ef       	ldi	r20, 0xFF	; 255
    27a0:	94 07       	cpc	r25, r20
    27a2:	51 f4       	brne	.+20     	; 0x27b8 <CheckResponse+0x44>
            PrepareSending(currObj.addrStr[NAME], currObj.lenStr[NAME], GAME);
    27a4:	60 91 3e 3a 	lds	r22, 0x3A3E	; 0x803a3e <currObj+0x1a>
    27a8:	70 91 3f 3a 	lds	r23, 0x3A3F	; 0x803a3f <currObj+0x1b>
    27ac:	40 e0       	ldi	r20, 0x00	; 0
    27ae:	80 91 30 3a 	lds	r24, 0x3A30	; 0x803a30 <currObj+0xc>
    27b2:	90 91 31 3a 	lds	r25, 0x3A31	; 0x803a31 <currObj+0xd>
    27b6:	0d c0       	rjmp	.+26     	; 0x27d2 <CheckResponse+0x5e>
        } else {
            PrepareSending(reactStr[0][number], reactStr[1][number], reactStr[2][number]);
    27b8:	d9 01       	movw	r26, r18
    27ba:	aa 0f       	add	r26, r26
    27bc:	bb 1f       	adc	r27, r27
    27be:	ac 55       	subi	r26, 0x5C	; 92
    27c0:	b6 4c       	sbci	r27, 0xC6	; 198
    27c2:	22 0f       	add	r18, r18
    27c4:	33 1f       	adc	r19, r19
    27c6:	f9 01       	movw	r30, r18
    27c8:	ec 59       	subi	r30, 0x9C	; 156
    27ca:	f6 4c       	sbci	r31, 0xC6	; 198
    27cc:	60 81       	ld	r22, Z
    27ce:	71 81       	ldd	r23, Z+1	; 0x01
    27d0:	4c 91       	ld	r20, X
    27d2:	70 dd       	rcall	.-1312   	; 0x22b4 <PrepareSending>
        }
        ++number;
    27d4:	df 5f       	subi	r29, 0xFF	; 255
    27d6:	d0 93 0e 39 	sts	0x390E, r29	; 0x80390e <number.3943>

        if (responseList == 0) {
    27da:	c1 11       	cpse	r28, r1
    27dc:	06 c0       	rjmp	.+12     	; 0x27ea <CheckResponse+0x76>
            //effect = currObj.byteField[EFFECTS];
            RXCNT = 0;
    27de:	1d ba       	out	0x1d, r1	; 29
            serRxDone = 0;
    27e0:	10 92 4c 38 	sts	0x384C, r1	; 0x80384c <serRxDone>
            number = 0;
    27e4:	10 92 0e 39 	sts	0x390E, r1	; 0x80390e <number.3943>
    27e8:	01 c0       	rjmp	.+2      	; 0x27ec <CheckResponse+0x78>
            return 0;
        }
        return 1;
    27ea:	c1 e0       	ldi	r28, 0x01	; 1
    }
    return 0;
}
    27ec:	8c 2f       	mov	r24, r28
    27ee:	df 91       	pop	r29
    27f0:	cf 91       	pop	r28
    27f2:	08 95       	ret

000027f4 <CheckInput>:

//User input check (and validation)
uint8_t CheckInput(uint8_t *data){
    27f4:	aa e0       	ldi	r26, 0x0A	; 10
    27f6:	b0 e0       	ldi	r27, 0x00	; 0
    27f8:	e0 e0       	ldi	r30, 0x00	; 0
    27fa:	f4 e1       	ldi	r31, 0x14	; 20
    27fc:	0c 94 4b 1f 	jmp	0x3e96	; 0x3e96 <__prologue_saves__+0x6>
    2800:	8c 01       	movw	r16, r24
    
    //Load game data after reboot
    if (currDepth == 0xff) {
    2802:	80 91 35 38 	lds	r24, 0x3835	; 0x803835 <currDepth>
    2806:	8f 3f       	cpi	r24, 0xFF	; 255
    2808:	49 f4       	brne	.+18     	; 0x281c <CheckInput+0x28>
        //Start at first location
        PopulateObject(route[0], &currObj);
    280a:	64 e2       	ldi	r22, 0x24	; 36
    280c:	7a e3       	ldi	r23, 0x3A	; 58
    280e:	80 91 e4 39 	lds	r24, 0x39E4	; 0x8039e4 <route>
    2812:	90 91 e5 39 	lds	r25, 0x39E5	; 0x8039e5 <route+0x1>
    2816:	07 de       	rcall	.-1010   	; 0x2426 <PopulateObject>
        currDepth = 0;
    2818:	10 92 35 38 	sts	0x3835, r1	; 0x803835 <currDepth>
    }

    if (serRxDone){
    281c:	80 91 4c 38 	lds	r24, 0x384C	; 0x80384c <serRxDone>
    2820:	88 23       	and	r24, r24
    2822:	09 f4       	brne	.+2      	; 0x2826 <CheckInput+0x32>
    2824:	d4 c1       	rjmp	.+936    	; 0x2bce <CheckInput+0x3da>

        //Special input requested from user by game
        if (specialInput[0]){
    2826:	80 91 13 39 	lds	r24, 0x3913	; 0x803913 <specialInput>
    282a:	88 23       	and	r24, r24
    282c:	09 f4       	brne	.+2      	; 0x2830 <CheckInput+0x3c>
    282e:	4f c0       	rjmp	.+158    	; 0x28ce <CheckInput+0xda>
            specialPassed = 0;
    2830:	10 92 12 39 	sts	0x3912, r1	; 0x803912 <specialPassed>
            data[0] = 'a';
    2834:	81 e6       	ldi	r24, 0x61	; 97
    2836:	f8 01       	movw	r30, r16
    2838:	80 83       	st	Z, r24
            
            //Normal code challenge
            if (StartsWith((uint8_t *)&serRx[0], &specialInput[0])) {
    283a:	63 e1       	ldi	r22, 0x13	; 19
    283c:	79 e3       	ldi	r23, 0x39	; 57
    283e:	8e e7       	ldi	r24, 0x7E	; 126
    2840:	9a e3       	ldi	r25, 0x3A	; 58
    2842:	1e dd       	rcall	.-1476   	; 0x2280 <StartsWith>
    2844:	f8 2e       	mov	r15, r24
    2846:	88 23       	and	r24, r24
    2848:	21 f0       	breq	.+8      	; 0x2852 <CheckInput+0x5e>
                specialPassed = 1;
    284a:	81 e0       	ldi	r24, 0x01	; 1
    284c:	80 93 12 39 	sts	0x3912, r24	; 0x803912 <specialPassed>
    2850:	04 c0       	rjmp	.+8      	; 0x285a <CheckInput+0x66>

            //Special challenge 1
            } else if ((specialInput[0] == '1')&&(specialInput[2] == 0)) {
    2852:	80 91 13 39 	lds	r24, 0x3913	; 0x803913 <specialInput>
    2856:	81 33       	cpi	r24, 0x31	; 49
    2858:	11 f0       	breq	.+4      	; 0x285e <CheckInput+0x6a>
                responseList = SetStandardResponse((3*MAX_CHEATS));
                return 1;
            }
        } 
        //Data received, but not any of the commands above
        return 0;
    285a:	f1 2c       	mov	r15, r1
    285c:	ba c1       	rjmp	.+884    	; 0x2bd2 <CheckInput+0x3de>
            //Normal code challenge
            if (StartsWith((uint8_t *)&serRx[0], &specialInput[0])) {
                specialPassed = 1;

            //Special challenge 1
            } else if ((specialInput[0] == '1')&&(specialInput[2] == 0)) {
    285e:	80 91 15 39 	lds	r24, 0x3915	; 0x803915 <specialInput+0x2>
    2862:	81 11       	cpse	r24, r1
    2864:	fa cf       	rjmp	.-12     	; 0x285a <CheckInput+0x66>
                uint8_t inputLen = CleanInput((uint8_t *)&serRx[0]);
    2866:	8e e7       	ldi	r24, 0x7E	; 126
    2868:	9a e3       	ldi	r25, 0x3A	; 58
    286a:	09 df       	rcall	.-494    	; 0x267e <CleanInput>
                specialPassed = 2;
    286c:	92 e0       	ldi	r25, 0x02	; 2
    286e:	90 93 12 39 	sts	0x3912, r25	; 0x803912 <specialPassed>
                data[1] = 0;
    2872:	f8 01       	movw	r30, r16
    2874:	11 82       	std	Z+1, r1	; 0x01

                if (inputLen >= 2) {
    2876:	82 30       	cpi	r24, 0x02	; 2
    2878:	80 f3       	brcs	.-32     	; 0x285a <CheckInput+0x66>
                    if ((serRx[0] >= '1') && (serRx[0] <= '4')) {
    287a:	80 91 7e 3a 	lds	r24, 0x3A7E	; 0x803a7e <serRx>
    287e:	81 33       	cpi	r24, 0x31	; 49
    2880:	60 f3       	brcs	.-40     	; 0x285a <CheckInput+0x66>
    2882:	80 91 7e 3a 	lds	r24, 0x3A7E	; 0x803a7e <serRx>
    2886:	85 33       	cpi	r24, 0x35	; 53
    2888:	40 f7       	brcc	.-48     	; 0x285a <CheckInput+0x66>
                        serRx[1] |= 0x20;
    288a:	80 91 7f 3a 	lds	r24, 0x3A7F	; 0x803a7f <serRx+0x1>
    288e:	80 62       	ori	r24, 0x20	; 32
    2890:	80 93 7f 3a 	sts	0x3A7F, r24	; 0x803a7f <serRx+0x1>
                        if ((serRx[1] == 'a')||(serRx[1] == 'e')||(serRx[1] == 'f')||(serRx[1] == 'w')) {
    2894:	80 91 7f 3a 	lds	r24, 0x3A7F	; 0x803a7f <serRx+0x1>
    2898:	81 36       	cpi	r24, 0x61	; 97
    289a:	61 f0       	breq	.+24     	; 0x28b4 <CheckInput+0xc0>
    289c:	80 91 7f 3a 	lds	r24, 0x3A7F	; 0x803a7f <serRx+0x1>
    28a0:	85 36       	cpi	r24, 0x65	; 101
    28a2:	41 f0       	breq	.+16     	; 0x28b4 <CheckInput+0xc0>
    28a4:	80 91 7f 3a 	lds	r24, 0x3A7F	; 0x803a7f <serRx+0x1>
    28a8:	86 36       	cpi	r24, 0x66	; 102
    28aa:	21 f0       	breq	.+8      	; 0x28b4 <CheckInput+0xc0>
    28ac:	80 91 7f 3a 	lds	r24, 0x3A7F	; 0x803a7f <serRx+0x1>
    28b0:	87 37       	cpi	r24, 0x77	; 119
    28b2:	99 f6       	brne	.-90     	; 0x285a <CheckInput+0x66>
                            data[1] = specialInput[1]+0x11;
    28b4:	80 91 14 39 	lds	r24, 0x3914	; 0x803914 <specialInput+0x1>
    28b8:	8f 5e       	subi	r24, 0xEF	; 239
    28ba:	f8 01       	movw	r30, r16
    28bc:	81 83       	std	Z+1, r24	; 0x01
                            data[2] = serRx[0];
    28be:	80 91 7e 3a 	lds	r24, 0x3A7E	; 0x803a7e <serRx>
    28c2:	82 83       	std	Z+2, r24	; 0x02
                            data[3] = serRx[1];
    28c4:	80 91 7f 3a 	lds	r24, 0x3A7F	; 0x803a7f <serRx+0x1>
    28c8:	83 83       	std	Z+3, r24	; 0x03
                            data[4] = 0;
    28ca:	14 82       	std	Z+4, r1	; 0x04
    28cc:	82 c1       	rjmp	.+772    	; 0x2bd2 <CheckInput+0x3de>
        } else {
      
            //SetResponse(0, A_LF, 4, TEASER);

            //Change status bit
            if ((serRx[0] == '#')&&(RXCNT == 6)){
    28ce:	80 91 7e 3a 	lds	r24, 0x3A7E	; 0x803a7e <serRx>
    28d2:	83 32       	cpi	r24, 0x23	; 35
    28d4:	89 f5       	brne	.+98     	; 0x2938 <CheckInput+0x144>
    28d6:	8d b3       	in	r24, 0x1d	; 29
    28d8:	86 30       	cpi	r24, 0x06	; 6
    28da:	71 f5       	brne	.+92     	; 0x2938 <CheckInput+0x144>
    28dc:	81 e0       	ldi	r24, 0x01	; 1
    28de:	90 e0       	ldi	r25, 0x00	; 0
    28e0:	10 e0       	ldi	r17, 0x00	; 0
                uint8_t bitNr = 0;

                for (uint8_t x=1; x<4; ++x) {
                    serRx[x] -= '0';
    28e2:	fc 01       	movw	r30, r24
    28e4:	e2 58       	subi	r30, 0x82	; 130
    28e6:	f5 4c       	sbci	r31, 0xC5	; 197
    28e8:	20 81       	ld	r18, Z
    28ea:	20 53       	subi	r18, 0x30	; 48
    28ec:	20 83       	st	Z, r18
                    bitNr *= 10;
    28ee:	11 0f       	add	r17, r17
    28f0:	21 2f       	mov	r18, r17
    28f2:	22 0f       	add	r18, r18
    28f4:	22 0f       	add	r18, r18
    28f6:	12 0f       	add	r17, r18
                    if (serRx[1] > 2) break;
    28f8:	20 91 7f 3a 	lds	r18, 0x3A7F	; 0x803a7f <serRx+0x1>
    28fc:	23 30       	cpi	r18, 0x03	; 3
    28fe:	48 f4       	brcc	.+18     	; 0x2912 <CheckInput+0x11e>
                    if (serRx[x] < 10) {
    2900:	20 81       	ld	r18, Z
    2902:	2a 30       	cpi	r18, 0x0A	; 10
    2904:	b8 f4       	brcc	.+46     	; 0x2934 <CheckInput+0x140>
                        bitNr += serRx[x];
    2906:	20 81       	ld	r18, Z
    2908:	12 0f       	add	r17, r18
    290a:	01 96       	adiw	r24, 0x01	; 1

            //Change status bit
            if ((serRx[0] == '#')&&(RXCNT == 6)){
                uint8_t bitNr = 0;

                for (uint8_t x=1; x<4; ++x) {
    290c:	84 30       	cpi	r24, 0x04	; 4
    290e:	91 05       	cpc	r25, r1
    2910:	41 f7       	brne	.-48     	; 0x28e2 <CheckInput+0xee>
                        continue;
                    }
                    bitNr = 0;
                    break;
                }
                if ((bitNr)&&(bitNr!=128)) {
    2912:	81 2f       	mov	r24, r17
    2914:	8f 77       	andi	r24, 0x7F	; 127
    2916:	71 f0       	breq	.+28     	; 0x2934 <CheckInput+0x140>
                    if (Cheat(0xff-bitNr, serRx[4]<<8|serRx[5])) UpdateState(bitNr);
    2918:	80 91 82 3a 	lds	r24, 0x3A82	; 0x803a82 <serRx+0x4>
    291c:	60 91 83 3a 	lds	r22, 0x3A83	; 0x803a83 <serRx+0x5>
    2920:	70 e0       	ldi	r23, 0x00	; 0
    2922:	78 2b       	or	r23, r24
    2924:	81 2f       	mov	r24, r17
    2926:	80 95       	com	r24
    2928:	5b dc       	rcall	.-1866   	; 0x21e0 <Cheat>
    292a:	88 23       	and	r24, r24
    292c:	19 f0       	breq	.+6      	; 0x2934 <CheckInput+0x140>
    292e:	81 2f       	mov	r24, r17
    2930:	0e 94 ff 09 	call	0x13fe	; 0x13fe <UpdateState>
                }
                
                responseList = SetStandardResponse(1);
    2934:	81 e0       	ldi	r24, 0x01	; 1
    2936:	48 c1       	rjmp	.+656    	; 0x2bc8 <CheckInput+0x3d4>
    2938:	d8 01       	movw	r26, r16
    293a:	80 e0       	ldi	r24, 0x00	; 0
    293c:	90 e0       	ldi	r25, 0x00	; 0
                return 1;            
            }
            
            //Read up to the \0 character and convert to lower case.
            for (uint8_t x=0; x<RXLEN; ++x){
                if ((serRx[x]<'A')||(serRx[x]>'Z')) data[x]=serRx[x]; else data[x]=serRx[x]|0x20;
    293e:	fc 01       	movw	r30, r24
    2940:	e2 58       	subi	r30, 0x82	; 130
    2942:	f5 4c       	sbci	r31, 0xC5	; 197
    2944:	20 81       	ld	r18, Z
    2946:	21 34       	cpi	r18, 0x41	; 65
    2948:	18 f0       	brcs	.+6      	; 0x2950 <CheckInput+0x15c>
    294a:	20 81       	ld	r18, Z
    294c:	2b 35       	cpi	r18, 0x5B	; 91
    294e:	10 f0       	brcs	.+4      	; 0x2954 <CheckInput+0x160>
    2950:	20 81       	ld	r18, Z
    2952:	02 c0       	rjmp	.+4      	; 0x2958 <CheckInput+0x164>
    2954:	20 81       	ld	r18, Z
    2956:	20 62       	ori	r18, 0x20	; 32
    2958:	2c 93       	st	X, r18
                if (serRx[x] == 0) {
    295a:	20 81       	ld	r18, Z
    295c:	21 11       	cpse	r18, r1
    295e:	05 c0       	rjmp	.+10     	; 0x296a <CheckInput+0x176>
                    data[x] = 0;
    2960:	f8 01       	movw	r30, r16
    2962:	e8 0f       	add	r30, r24
    2964:	f1 1d       	adc	r31, r1
    2966:	10 82       	st	Z, r1
                    break;
    2968:	05 c0       	rjmp	.+10     	; 0x2974 <CheckInput+0x180>
    296a:	01 96       	adiw	r24, 0x01	; 1
    296c:	11 96       	adiw	r26, 0x01	; 1
                
                return 1;            
            }
            
            //Read up to the \0 character and convert to lower case.
            for (uint8_t x=0; x<RXLEN; ++x){
    296e:	81 34       	cpi	r24, 0x41	; 65
    2970:	91 05       	cpc	r25, r1
    2972:	29 f7       	brne	.-54     	; 0x293e <CheckInput+0x14a>
                    break;
                }
            }

            //No text
            if (serRx[0] == 0){
    2974:	80 91 7e 3a 	lds	r24, 0x3A7E	; 0x803a7e <serRx>
                data[0] = 0;
    2978:	f8 01       	movw	r30, r16
                    break;
                }
            }

            //No text
            if (serRx[0] == 0){
    297a:	81 11       	cpse	r24, r1
    297c:	05 c0       	rjmp	.+10     	; 0x2988 <CheckInput+0x194>
                data[0] = 0;
    297e:	10 82       	st	Z, r1
                RXCNT = 0;
    2980:	1d ba       	out	0x1d, r1	; 29
                serRxDone = 0;
    2982:	10 92 4c 38 	sts	0x384C, r1	; 0x80384c <serRxDone>
    2986:	23 c1       	rjmp	.+582    	; 0x2bce <CheckInput+0x3da>
                return 1;
            }

            //Help text
            if ((data[0] == '?')||(data[0] == 'h')){
    2988:	80 81       	ld	r24, Z
    298a:	8f 33       	cpi	r24, 0x3F	; 63
    298c:	11 f0       	breq	.+4      	; 0x2992 <CheckInput+0x19e>
    298e:	88 36       	cpi	r24, 0x68	; 104
    2990:	49 f4       	brne	.+18     	; 0x29a4 <CheckInput+0x1b0>
    return 0;
}

//
void SetResponse(uint8_t number, uint16_t address, uint16_t length, uint8_t type){
    reactStr[0][number]=address;
    2992:	83 e9       	ldi	r24, 0x93	; 147
    2994:	9b e7       	ldi	r25, 0x7B	; 123
    2996:	80 93 26 39 	sts	0x3926, r24	; 0x803926 <reactStr+0x2>
    299a:	90 93 27 39 	sts	0x3927, r25	; 0x803927 <reactStr+0x3>
    reactStr[1][number]=length;
    299e:	8d e6       	ldi	r24, 0x6D	; 109
    29a0:	94 e0       	ldi	r25, 0x04	; 4
    29a2:	0a c0       	rjmp	.+20     	; 0x29b8 <CheckInput+0x1c4>
                responseList = SetStandardResponse(2);
                return 1;
            }        
        
            //Alphabet text
            if (data[0] == 'a'){
    29a4:	81 36       	cpi	r24, 0x61	; 97
    29a6:	a1 f4       	brne	.+40     	; 0x29d0 <CheckInput+0x1dc>
    return 0;
}

//
void SetResponse(uint8_t number, uint16_t address, uint16_t length, uint8_t type){
    reactStr[0][number]=address;
    29a8:	8e e6       	ldi	r24, 0x6E	; 110
    29aa:	9a e7       	ldi	r25, 0x7A	; 122
    29ac:	80 93 26 39 	sts	0x3926, r24	; 0x803926 <reactStr+0x2>
    29b0:	90 93 27 39 	sts	0x3927, r25	; 0x803927 <reactStr+0x3>
    reactStr[1][number]=length;
    29b4:	85 e2       	ldi	r24, 0x25	; 37
    29b6:	91 e0       	ldi	r25, 0x01	; 1
    29b8:	80 93 66 39 	sts	0x3966, r24	; 0x803966 <reactStr+0x42>
    29bc:	90 93 67 39 	sts	0x3967, r25	; 0x803967 <reactStr+0x43>
    reactStr[2][number]=type;
    29c0:	81 e0       	ldi	r24, 0x01	; 1
    29c2:	90 e0       	ldi	r25, 0x00	; 0
    29c4:	80 93 a6 39 	sts	0x39A6, r24	; 0x8039a6 <reactStr+0x82>
    29c8:	90 93 a7 39 	sts	0x39A7, r25	; 0x8039a7 <reactStr+0x83>
            }        
        
            //Alphabet text
            if (data[0] == 'a'){
                SetResponse(1, A_ALPHABET, L_ALPHABET, TEASER);
                responseList = SetStandardResponse(2);
    29cc:	82 e0       	ldi	r24, 0x02	; 2
    29ce:	fc c0       	rjmp	.+504    	; 0x2bc8 <CheckInput+0x3d4>
                return 1;
            }

            //Whoami text
            if (data[0] == 'w'){
    29d0:	87 37       	cpi	r24, 0x77	; 119
    29d2:	09 f0       	breq	.+2      	; 0x29d6 <CheckInput+0x1e2>
    29d4:	41 c0       	rjmp	.+130    	; 0x2a58 <CheckInput+0x264>
    return 0;
}

//
void SetResponse(uint8_t number, uint16_t address, uint16_t length, uint8_t type){
    reactStr[0][number]=address;
    29d6:	8d e8       	ldi	r24, 0x8D	; 141
    29d8:	96 e7       	ldi	r25, 0x76	; 118
    29da:	80 93 26 39 	sts	0x3926, r24	; 0x803926 <reactStr+0x2>
    29de:	90 93 27 39 	sts	0x3927, r25	; 0x803927 <reactStr+0x3>
    reactStr[1][number]=length;
    29e2:	82 e1       	ldi	r24, 0x12	; 18
    29e4:	90 e0       	ldi	r25, 0x00	; 0
    29e6:	80 93 66 39 	sts	0x3966, r24	; 0x803966 <reactStr+0x42>
    29ea:	90 93 67 39 	sts	0x3967, r25	; 0x803967 <reactStr+0x43>
    reactStr[2][number]=type;
    29ee:	21 e0       	ldi	r18, 0x01	; 1
    29f0:	30 e0       	ldi	r19, 0x00	; 0
    29f2:	20 93 a6 39 	sts	0x39A6, r18	; 0x8039a6 <reactStr+0x82>
    29f6:	30 93 a7 39 	sts	0x39A7, r19	; 0x8039a7 <reactStr+0x83>
            }

            //Whoami text
            if (data[0] == 'w'){
                SetResponse(1, A_HELLO, L_HELLO, TEASER);
                SetResponse(2, names[0][whoami-1], names[1][whoami-1], TEASER);
    29fa:	80 91 43 38 	lds	r24, 0x3843	; 0x803843 <whoami>
    29fe:	90 e0       	ldi	r25, 0x00	; 0
    2a00:	fc 01       	movw	r30, r24
    2a02:	ee 0f       	add	r30, r30
    2a04:	ff 1f       	adc	r31, r31
    2a06:	e4 56       	subi	r30, 0x64	; 100
    2a08:	f0 44       	sbci	r31, 0x40	; 64
    2a0a:	40 81       	ld	r20, Z
    2a0c:	51 81       	ldd	r21, Z+1	; 0x01
    2a0e:	88 0f       	add	r24, r24
    2a10:	99 1f       	adc	r25, r25
    2a12:	fc 01       	movw	r30, r24
    2a14:	ec 56       	subi	r30, 0x6C	; 108
    2a16:	f0 44       	sbci	r31, 0x40	; 64
    return 0;
}

//
void SetResponse(uint8_t number, uint16_t address, uint16_t length, uint8_t type){
    reactStr[0][number]=address;
    2a18:	80 81       	ld	r24, Z
    2a1a:	91 81       	ldd	r25, Z+1	; 0x01
    2a1c:	80 93 28 39 	sts	0x3928, r24	; 0x803928 <reactStr+0x4>
    2a20:	90 93 29 39 	sts	0x3929, r25	; 0x803929 <reactStr+0x5>
    reactStr[1][number]=length;
    2a24:	40 93 68 39 	sts	0x3968, r20	; 0x803968 <reactStr+0x44>
    2a28:	50 93 69 39 	sts	0x3969, r21	; 0x803969 <reactStr+0x45>
    reactStr[2][number]=type;
    2a2c:	20 93 a8 39 	sts	0x39A8, r18	; 0x8039a8 <reactStr+0x84>
    2a30:	30 93 a9 39 	sts	0x39A9, r19	; 0x8039a9 <reactStr+0x85>
    return 0;
}

//
void SetResponse(uint8_t number, uint16_t address, uint16_t length, uint8_t type){
    reactStr[0][number]=address;
    2a34:	8f e5       	ldi	r24, 0x5F	; 95
    2a36:	96 e7       	ldi	r25, 0x76	; 118
    2a38:	80 93 2a 39 	sts	0x392A, r24	; 0x80392a <reactStr+0x6>
    2a3c:	90 93 2b 39 	sts	0x392B, r25	; 0x80392b <reactStr+0x7>
    reactStr[1][number]=length;
    2a40:	8a e1       	ldi	r24, 0x1A	; 26
    2a42:	90 e0       	ldi	r25, 0x00	; 0
    2a44:	80 93 6a 39 	sts	0x396A, r24	; 0x80396a <reactStr+0x46>
    2a48:	90 93 6b 39 	sts	0x396B, r25	; 0x80396b <reactStr+0x47>
    reactStr[2][number]=type;
    2a4c:	20 93 aa 39 	sts	0x39AA, r18	; 0x8039aa <reactStr+0x86>
    2a50:	30 93 ab 39 	sts	0x39AB, r19	; 0x8039ab <reactStr+0x87>
                } else {
                    SetResponse(2, A_ERROR, L_ERROR, TEASER);
                }*/

                SetResponse(3, A_PLEASED, L_PLEASED, TEASER);
                responseList = SetStandardResponse(4);
    2a54:	84 e0       	ldi	r24, 0x04	; 4
                responseList = SetStandardResponse(2);
                return 1;
            }*/

            //Fake cheat = reset badge!
            if (StartsWith(&data[0], "iddqd")){
    2a56:	b8 c0       	rjmp	.+368    	; 0x2bc8 <CheckInput+0x3d4>
    2a58:	62 e7       	ldi	r22, 0x72	; 114
    2a5a:	7f eb       	ldi	r23, 0xBF	; 191
    2a5c:	c8 01       	movw	r24, r16
    2a5e:	10 dc       	rcall	.-2016   	; 0x2280 <StartsWith>
    2a60:	88 23       	and	r24, r24
    2a62:	19 f1       	breq	.+70     	; 0x2aaa <CheckInput+0x2b6>
            
                //Reset game data by wiping the UUID bits
                for (uint8_t x=0; x<4; ++x){
                    UpdateState(128+110+x);
    2a64:	8e ee       	ldi	r24, 0xEE	; 238
    2a66:	0e 94 ff 09 	call	0x13fe	; 0x13fe <UpdateState>
    2a6a:	8f ee       	ldi	r24, 0xEF	; 239
    2a6c:	0e 94 ff 09 	call	0x13fe	; 0x13fe <UpdateState>
    2a70:	80 ef       	ldi	r24, 0xF0	; 240
    2a72:	0e 94 ff 09 	call	0x13fe	; 0x13fe <UpdateState>
    2a76:	81 ef       	ldi	r24, 0xF1	; 241
    2a78:	0e 94 ff 09 	call	0x13fe	; 0x13fe <UpdateState>
                }
                SaveGameState();
    2a7c:	0e 94 78 09 	call	0x12f0	; 0x12f0 <SaveGameState>

                uint8_t cheat[] = "Gotcha! ";
    2a80:	89 e0       	ldi	r24, 0x09	; 9
    2a82:	e5 e8       	ldi	r30, 0x85	; 133
    2a84:	ff eb       	ldi	r31, 0xBF	; 191
    2a86:	de 01       	movw	r26, r28
    2a88:	11 96       	adiw	r26, 0x01	; 1
    2a8a:	01 90       	ld	r0, Z+
    2a8c:	0d 92       	st	X+, r0
    2a8e:	8a 95       	dec	r24
    2a90:	e1 f7       	brne	.-8      	; 0x2a8a <CheckInput+0x296>
                SerSpeed(60);
    2a92:	8c e3       	ldi	r24, 0x3C	; 60
    2a94:	0e 94 9c 08 	call	0x1138	; 0x1138 <SerSpeed>
                while(1){
                    if (serTxDone) SerSend(&cheat[0]);
    2a98:	80 91 09 38 	lds	r24, 0x3809	; 0x803809 <serTxDone>
    2a9c:	88 23       	and	r24, r24
    2a9e:	e1 f3       	breq	.-8      	; 0x2a98 <CheckInput+0x2a4>
    2aa0:	ce 01       	movw	r24, r28
    2aa2:	01 96       	adiw	r24, 0x01	; 1
    2aa4:	0e 94 8b 08 	call	0x1116	; 0x1116 <SerSend>
                }
            }
            
            //Cheat reset
            if (StartsWith(&data[0], "ikillu")){
    2aa8:	f7 cf       	rjmp	.-18     	; 0x2a98 <CheckInput+0x2a4>
    2aaa:	68 e7       	ldi	r22, 0x78	; 120
    2aac:	7f eb       	ldi	r23, 0xBF	; 191
    2aae:	c8 01       	movw	r24, r16
    2ab0:	e7 db       	rcall	.-2098   	; 0x2280 <StartsWith>
    2ab2:	88 23       	and	r24, r24
    2ab4:	81 f1       	breq	.+96     	; 0x2b16 <CheckInput+0x322>
                
                //Reset cheat data by resetting the EEPROM bytes
                uint8_t empty=0xff;
    2ab6:	8f ef       	ldi	r24, 0xFF	; 255
    2ab8:	8a 87       	std	Y+10, r24	; 0x0a
    2aba:	18 e1       	ldi	r17, 0x18	; 24
                for (uint8_t x=0; x<MAX_CHEATS; ++x){
                    EEWrite(CHEATS+x, &empty, 1);
    2abc:	41 e0       	ldi	r20, 0x01	; 1
    2abe:	be 01       	movw	r22, r28
    2ac0:	66 5f       	subi	r22, 0xF6	; 246
    2ac2:	7f 4f       	sbci	r23, 0xFF	; 255
    2ac4:	81 2f       	mov	r24, r17
    2ac6:	0e 94 27 08 	call	0x104e	; 0x104e <EEWrite>
    2aca:	1f 5f       	subi	r17, 0xFF	; 255
            //Cheat reset
            if (StartsWith(&data[0], "ikillu")){
                
                //Reset cheat data by resetting the EEPROM bytes
                uint8_t empty=0xff;
                for (uint8_t x=0; x<MAX_CHEATS; ++x){
    2acc:	10 32       	cpi	r17, 0x20	; 32
    2ace:	b1 f7       	brne	.-20     	; 0x2abc <CheckInput+0x2c8>
                    EEWrite(CHEATS+x, &empty, 1);
                }
                //Reset game data by wiping the UUID bits
                for (uint8_t x=0; x<4; ++x){
                    UpdateState(128+110+x);
    2ad0:	8e ee       	ldi	r24, 0xEE	; 238
    2ad2:	0e 94 ff 09 	call	0x13fe	; 0x13fe <UpdateState>
    2ad6:	8f ee       	ldi	r24, 0xEF	; 239
    2ad8:	0e 94 ff 09 	call	0x13fe	; 0x13fe <UpdateState>
    2adc:	80 ef       	ldi	r24, 0xF0	; 240
    2ade:	0e 94 ff 09 	call	0x13fe	; 0x13fe <UpdateState>
    2ae2:	81 ef       	ldi	r24, 0xF1	; 241
    2ae4:	0e 94 ff 09 	call	0x13fe	; 0x13fe <UpdateState>
                }
                
                SaveGameState();
    2ae8:	0e 94 78 09 	call	0x12f0	; 0x12f0 <SaveGameState>

                uint8_t cheat[] = "Reset! ";
    2aec:	88 e0       	ldi	r24, 0x08	; 8
    2aee:	ee e8       	ldi	r30, 0x8E	; 142
    2af0:	ff eb       	ldi	r31, 0xBF	; 191
    2af2:	de 01       	movw	r26, r28
    2af4:	11 96       	adiw	r26, 0x01	; 1
    2af6:	01 90       	ld	r0, Z+
    2af8:	0d 92       	st	X+, r0
    2afa:	8a 95       	dec	r24
    2afc:	e1 f7       	brne	.-8      	; 0x2af6 <CheckInput+0x302>
                SerSpeed(60);
    2afe:	8c e3       	ldi	r24, 0x3C	; 60
    2b00:	0e 94 9c 08 	call	0x1138	; 0x1138 <SerSpeed>
                while(1){
                    if (serTxDone) SerSend(&cheat[0]);
    2b04:	80 91 09 38 	lds	r24, 0x3809	; 0x803809 <serTxDone>
    2b08:	88 23       	and	r24, r24
    2b0a:	e1 f3       	breq	.-8      	; 0x2b04 <CheckInput+0x310>
    2b0c:	ce 01       	movw	r24, r28
    2b0e:	01 96       	adiw	r24, 0x01	; 1
    2b10:	0e 94 8b 08 	call	0x1116	; 0x1116 <SerSend>
                }
            }

            //Show used cheat codes
            if (StartsWith(&data[0], "cheat")){
    2b14:	f7 cf       	rjmp	.-18     	; 0x2b04 <CheckInput+0x310>
    2b16:	6f e7       	ldi	r22, 0x7F	; 127
    2b18:	7f eb       	ldi	r23, 0xBF	; 191
    2b1a:	c8 01       	movw	r24, r16
    2b1c:	b1 db       	rcall	.-2206   	; 0x2280 <StartsWith>
    2b1e:	88 23       	and	r24, r24
    2b20:	09 f4       	brne	.+2      	; 0x2b24 <CheckInput+0x330>
    2b22:	9b ce       	rjmp	.-714    	; 0x285a <CheckInput+0x66>
    2b24:	84 e2       	ldi	r24, 0x24	; 36
    2b26:	c8 2e       	mov	r12, r24
    2b28:	89 e3       	ldi	r24, 0x39	; 57
    2b2a:	d8 2e       	mov	r13, r24
    2b2c:	94 e6       	ldi	r25, 0x64	; 100
    2b2e:	e9 2e       	mov	r14, r25
    2b30:	99 e3       	ldi	r25, 0x39	; 57
    2b32:	f9 2e       	mov	r15, r25
    2b34:	04 ea       	ldi	r16, 0xA4	; 164
    2b36:	19 e3       	ldi	r17, 0x39	; 57
    2b38:	28 e1       	ldi	r18, 0x18	; 24
    2b3a:	52 2e       	mov	r5, r18
}

//
void SetResponse(uint8_t number, uint16_t address, uint16_t length, uint8_t type){
    reactStr[0][number]=address;
    reactStr[1][number]=length;
    2b3c:	aa 24       	eor	r10, r10
    2b3e:	a3 94       	inc	r10
    2b40:	b1 2c       	mov	r11, r1
    return 0;
}

//
void SetResponse(uint8_t number, uint16_t address, uint16_t length, uint8_t type){
    reactStr[0][number]=address;
    2b42:	47 e5       	ldi	r20, 0x57	; 87
    2b44:	84 2e       	mov	r8, r20
    2b46:	4a e7       	ldi	r20, 0x7A	; 122
    2b48:	94 2e       	mov	r9, r20
    reactStr[1][number]=length;
    2b4a:	52 e0       	ldi	r21, 0x02	; 2
    2b4c:	65 2e       	mov	r6, r21
    2b4e:	71 2c       	mov	r7, r1
            if (StartsWith(&data[0], "cheat")){
                uint8_t bit;
                for (uint8_t x=0; x<MAX_CHEATS; ++x){
                    
                    //Set up sending out number
                    EERead(CHEATS+x, &bit, 1);
    2b50:	41 e0       	ldi	r20, 0x01	; 1
    2b52:	be 01       	movw	r22, r28
    2b54:	6f 5f       	subi	r22, 0xFF	; 255
    2b56:	7f 4f       	sbci	r23, 0xFF	; 255
    2b58:	85 2d       	mov	r24, r5
    2b5a:	0e 94 17 08 	call	0x102e	; 0x102e <EERead>
                    bit = 0xff-bit;
    2b5e:	89 81       	ldd	r24, Y+1	; 0x01
    2b60:	80 95       	com	r24
    2b62:	89 83       	std	Y+1, r24	; 0x01
    return 0;
}

//
void SetResponse(uint8_t number, uint16_t address, uint16_t length, uint8_t type){
    reactStr[0][number]=address;
    2b64:	28 2f       	mov	r18, r24
    2b66:	22 95       	swap	r18
    2b68:	2f 70       	andi	r18, 0x0F	; 15
    2b6a:	30 e0       	ldi	r19, 0x00	; 0
    2b6c:	23 57       	subi	r18, 0x73	; 115
    2b6e:	3b 48       	sbci	r19, 0x8B	; 139
    2b70:	f6 01       	movw	r30, r12
    2b72:	20 83       	st	Z, r18
    2b74:	31 83       	std	Z+1, r19	; 0x01
    reactStr[1][number]=length;
    2b76:	f7 01       	movw	r30, r14
    2b78:	a0 82       	st	Z, r10
    2b7a:	b1 82       	std	Z+1, r11	; 0x01
    reactStr[2][number]=type;
    2b7c:	f8 01       	movw	r30, r16
    2b7e:	a0 82       	st	Z, r10
    2b80:	b1 82       	std	Z+1, r11	; 0x01
    return 0;
}

//
void SetResponse(uint8_t number, uint16_t address, uint16_t length, uint8_t type){
    reactStr[0][number]=address;
    2b82:	8f 70       	andi	r24, 0x0F	; 15
    2b84:	90 e0       	ldi	r25, 0x00	; 0
    2b86:	83 57       	subi	r24, 0x73	; 115
    2b88:	9b 48       	sbci	r25, 0x8B	; 139
    2b8a:	f6 01       	movw	r30, r12
    2b8c:	82 83       	std	Z+2, r24	; 0x02
    2b8e:	93 83       	std	Z+3, r25	; 0x03
    reactStr[1][number]=length;
    2b90:	f7 01       	movw	r30, r14
    2b92:	a2 82       	std	Z+2, r10	; 0x02
    2b94:	b3 82       	std	Z+3, r11	; 0x03
    reactStr[2][number]=type;
    2b96:	f8 01       	movw	r30, r16
    2b98:	a2 82       	std	Z+2, r10	; 0x02
    2b9a:	b3 82       	std	Z+3, r11	; 0x03
    return 0;
}

//
void SetResponse(uint8_t number, uint16_t address, uint16_t length, uint8_t type){
    reactStr[0][number]=address;
    2b9c:	f6 01       	movw	r30, r12
    2b9e:	84 82       	std	Z+4, r8	; 0x04
    2ba0:	95 82       	std	Z+5, r9	; 0x05
    reactStr[1][number]=length;
    2ba2:	f7 01       	movw	r30, r14
    2ba4:	64 82       	std	Z+4, r6	; 0x04
    2ba6:	75 82       	std	Z+5, r7	; 0x05
    reactStr[2][number]=type;
    2ba8:	f8 01       	movw	r30, r16
    2baa:	a4 82       	std	Z+4, r10	; 0x04
    2bac:	b5 82       	std	Z+5, r11	; 0x05
    2bae:	53 94       	inc	r5
    2bb0:	f6 e0       	ldi	r31, 0x06	; 6
    2bb2:	cf 0e       	add	r12, r31
    2bb4:	d1 1c       	adc	r13, r1
    2bb6:	86 e0       	ldi	r24, 0x06	; 6
    2bb8:	e8 0e       	add	r14, r24
    2bba:	f1 1c       	adc	r15, r1
    2bbc:	0a 5f       	subi	r16, 0xFA	; 250
            }

            //Show used cheat codes
            if (StartsWith(&data[0], "cheat")){
                uint8_t bit;
                for (uint8_t x=0; x<MAX_CHEATS; ++x){
    2bbe:	1f 4f       	sbci	r17, 0xFF	; 255
    2bc0:	e0 e2       	ldi	r30, 0x20	; 32
    2bc2:	5e 12       	cpse	r5, r30
                    //SetResponse(x*4, A_HEXPREFIX, L_HEXPREFIX, TEASER);
                    SetResponse(x*3, A_DIGITS+(bit>>4), 1, TEASER);               
                    SetResponse(x*3+1, A_DIGITS+(bit%16), 1, TEASER);
                    SetResponse(x*3+2, A_COMMA, L_COMMA, TEASER);
                }
                responseList = SetStandardResponse((3*MAX_CHEATS));
    2bc4:	c5 cf       	rjmp	.-118    	; 0x2b50 <CheckInput+0x35c>
    2bc6:	88 e1       	ldi	r24, 0x18	; 24
    2bc8:	b2 db       	rcall	.-2204   	; 0x232e <SetStandardResponse>
    2bca:	80 93 23 39 	sts	0x3923, r24	; 0x803923 <responseList>
        //Data received, but not any of the commands above
        return 0;
    }

    //Serial input not available yet
    return 1;
    2bce:	ff 24       	eor	r15, r15
    2bd0:	f3 94       	inc	r15
}
    2bd2:	8f 2d       	mov	r24, r15
    2bd4:	2a 96       	adiw	r28, 0x0a	; 10
    2bd6:	ef e0       	ldi	r30, 0x0F	; 15
    2bd8:	0c 94 64 1f 	jmp	0x3ec8	; 0x3ec8 <__epilogue_restores__+0x6>

00002bdc <ShowInventory>:

uint8_t ShowInventory(uint8_t elements){
    2bdc:	ab e2       	ldi	r26, 0x2B	; 43
    2bde:	b0 e0       	ldi	r27, 0x00	; 0
    2be0:	e4 ef       	ldi	r30, 0xF4	; 244
    2be2:	f5 e1       	ldi	r31, 0x15	; 21
    2be4:	0c 94 4f 1f 	jmp	0x3e9e	; 0x3e9e <__prologue_saves__+0xe>
    object_model_t actObj1;

    SetResponse(elements++, A_NOWCARRING, L_NOWCARRING, TEASER);
    2be8:	99 24       	eor	r9, r9
    2bea:	93 94       	inc	r9
    2bec:	98 0e       	add	r9, r24
    return 0;
}

//
void SetResponse(uint8_t number, uint16_t address, uint16_t length, uint8_t type){
    reactStr[0][number]=address;
    2bee:	90 e0       	ldi	r25, 0x00	; 0
    2bf0:	fc 01       	movw	r30, r24
    2bf2:	ee 0f       	add	r30, r30
    2bf4:	ff 1f       	adc	r31, r31
    2bf6:	ec 5d       	subi	r30, 0xDC	; 220
    2bf8:	f6 4c       	sbci	r31, 0xC6	; 198
    2bfa:	2c ec       	ldi	r18, 0xCC	; 204
    2bfc:	37 e7       	ldi	r19, 0x77	; 119
    2bfe:	20 83       	st	Z, r18
    2c00:	31 83       	std	Z+1, r19	; 0x01
    reactStr[1][number]=length;
    2c02:	fc 01       	movw	r30, r24
    2c04:	ee 0f       	add	r30, r30
    2c06:	ff 1f       	adc	r31, r31
    2c08:	ec 59       	subi	r30, 0x9C	; 156
    2c0a:	f6 4c       	sbci	r31, 0xC6	; 198
    2c0c:	26 e1       	ldi	r18, 0x16	; 22
    2c0e:	30 e0       	ldi	r19, 0x00	; 0
    2c10:	20 83       	st	Z, r18
    2c12:	31 83       	std	Z+1, r19	; 0x01
    reactStr[2][number]=type;
    2c14:	88 0f       	add	r24, r24
    2c16:	99 1f       	adc	r25, r25
    2c18:	fc 01       	movw	r30, r24
    2c1a:	ec 55       	subi	r30, 0x5C	; 92
    2c1c:	f6 4c       	sbci	r31, 0xC6	; 198
    2c1e:	81 e0       	ldi	r24, 0x01	; 1
    2c20:	90 e0       	ldi	r25, 0x00	; 0
    2c22:	80 83       	st	Z, r24
    2c24:	91 83       	std	Z+1, r25	; 0x01
    2c26:	04 e4       	ldi	r16, 0x44	; 68
    2c28:	18 e3       	ldi	r17, 0x38	; 56
    return 0;
}

//
void SetResponse(uint8_t number, uint16_t address, uint16_t length, uint8_t type){
    reactStr[0][number]=address;
    2c2a:	37 e5       	ldi	r19, 0x57	; 87
    2c2c:	e3 2e       	mov	r14, r19
    2c2e:	3a e7       	ldi	r19, 0x7A	; 122
    2c30:	f3 2e       	mov	r15, r19
    reactStr[1][number]=length;
    2c32:	42 e0       	ldi	r20, 0x02	; 2
    2c34:	c4 2e       	mov	r12, r20
    2c36:	d1 2c       	mov	r13, r1
    reactStr[2][number]=type;
    2c38:	aa 24       	eor	r10, r10
    2c3a:	a3 94       	inc	r10
    2c3c:	b1 2c       	mov	r11, r1
    object_model_t actObj1;

    SetResponse(elements++, A_NOWCARRING, L_NOWCARRING, TEASER);

    for (uint8_t x=0; x<2; ++x) {
        if (inventory[x]) {
    2c3e:	f8 01       	movw	r30, r16
    2c40:	81 91       	ld	r24, Z+
    2c42:	91 91       	ld	r25, Z+
    2c44:	8f 01       	movw	r16, r30
    2c46:	00 97       	sbiw	r24, 0x00	; 0
    2c48:	c9 f1       	breq	.+114    	; 0x2cbc <ShowInventory+0xe0>
            PopulateObject(inventory[x], &actObj1);
    2c4a:	be 01       	movw	r22, r28
    2c4c:	6f 5f       	subi	r22, 0xFF	; 255
    2c4e:	7f 4f       	sbci	r23, 0xFF	; 255
    2c50:	ea db       	rcall	.-2092   	; 0x2426 <PopulateObject>
            SetResponse(elements++, actObj1.addrStr[NAME], actObj1.lenStr[NAME], GAME);
    2c52:	2b 8d       	ldd	r18, Y+27	; 0x1b
    2c54:	3c 8d       	ldd	r19, Y+28	; 0x1c
    return 0;
}

//
void SetResponse(uint8_t number, uint16_t address, uint16_t length, uint8_t type){
    reactStr[0][number]=address;
    2c56:	89 2d       	mov	r24, r9
    2c58:	90 e0       	ldi	r25, 0x00	; 0
    2c5a:	fc 01       	movw	r30, r24
    2c5c:	ee 0f       	add	r30, r30
    2c5e:	ff 1f       	adc	r31, r31
    2c60:	ec 5d       	subi	r30, 0xDC	; 220
    2c62:	f6 4c       	sbci	r31, 0xC6	; 198
    2c64:	4d 85       	ldd	r20, Y+13	; 0x0d
    2c66:	5e 85       	ldd	r21, Y+14	; 0x0e
    2c68:	40 83       	st	Z, r20
    2c6a:	51 83       	std	Z+1, r21	; 0x01
    reactStr[1][number]=length;
    2c6c:	fc 01       	movw	r30, r24
    2c6e:	ee 0f       	add	r30, r30
    2c70:	ff 1f       	adc	r31, r31
    2c72:	ec 59       	subi	r30, 0x9C	; 156
    2c74:	f6 4c       	sbci	r31, 0xC6	; 198
    2c76:	20 83       	st	Z, r18
    2c78:	31 83       	std	Z+1, r19	; 0x01
    reactStr[2][number]=type;
    2c7a:	88 0f       	add	r24, r24
    2c7c:	99 1f       	adc	r25, r25
    2c7e:	fc 01       	movw	r30, r24
    2c80:	ec 55       	subi	r30, 0x5C	; 92
    2c82:	f6 4c       	sbci	r31, 0xC6	; 198
    2c84:	10 82       	st	Z, r1
    2c86:	11 82       	std	Z+1, r1	; 0x01
    return 0;
}

//
void SetResponse(uint8_t number, uint16_t address, uint16_t length, uint8_t type){
    reactStr[0][number]=address;
    2c88:	81 e0       	ldi	r24, 0x01	; 1
    2c8a:	89 0d       	add	r24, r9
    2c8c:	90 e0       	ldi	r25, 0x00	; 0
    2c8e:	93 94       	inc	r9
    2c90:	93 94       	inc	r9
    2c92:	fc 01       	movw	r30, r24
    2c94:	ee 0f       	add	r30, r30
    2c96:	ff 1f       	adc	r31, r31
    2c98:	ec 5d       	subi	r30, 0xDC	; 220
    2c9a:	f6 4c       	sbci	r31, 0xC6	; 198
    2c9c:	e0 82       	st	Z, r14
    2c9e:	f1 82       	std	Z+1, r15	; 0x01
    reactStr[1][number]=length;
    2ca0:	fc 01       	movw	r30, r24
    2ca2:	ee 0f       	add	r30, r30
    2ca4:	ff 1f       	adc	r31, r31
    2ca6:	ec 59       	subi	r30, 0x9C	; 156
    2ca8:	f6 4c       	sbci	r31, 0xC6	; 198
    2caa:	c0 82       	st	Z, r12
    2cac:	d1 82       	std	Z+1, r13	; 0x01
    reactStr[2][number]=type;
    2cae:	88 0f       	add	r24, r24
    2cb0:	99 1f       	adc	r25, r25
    2cb2:	fc 01       	movw	r30, r24
    2cb4:	ec 55       	subi	r30, 0x5C	; 92
    2cb6:	f6 4c       	sbci	r31, 0xC6	; 198
    2cb8:	a0 82       	st	Z, r10
    2cba:	b1 82       	std	Z+1, r11	; 0x01
uint8_t ShowInventory(uint8_t elements){
    object_model_t actObj1;

    SetResponse(elements++, A_NOWCARRING, L_NOWCARRING, TEASER);

    for (uint8_t x=0; x<2; ++x) {
    2cbc:	f8 e3       	ldi	r31, 0x38	; 56
    2cbe:	08 34       	cpi	r16, 0x48	; 72
    2cc0:	1f 07       	cpc	r17, r31
    2cc2:	09 f0       	breq	.+2      	; 0x2cc6 <ShowInventory+0xea>
    2cc4:	bc cf       	rjmp	.-136    	; 0x2c3e <ShowInventory+0x62>
        }
    }
    elements -= 1;
            
    return elements;
}
    2cc6:	8f ef       	ldi	r24, 0xFF	; 255
    2cc8:	89 0d       	add	r24, r9
    2cca:	ab 96       	adiw	r28, 0x2b	; 43
    2ccc:	eb e0       	ldi	r30, 0x0B	; 11
    2cce:	0c 94 68 1f 	jmp	0x3ed0	; 0x3ed0 <__epilogue_restores__+0xe>

00002cd2 <ProcessInput>:

//The game logic!
uint8_t ProcessInput(uint8_t *data){
    2cd2:	a8 e0       	ldi	r26, 0x08	; 8
    2cd4:	b0 e0       	ldi	r27, 0x00	; 0
    2cd6:	ef e6       	ldi	r30, 0x6F	; 111
    2cd8:	f6 e1       	ldi	r31, 0x16	; 22
    2cda:	0c 94 4c 1f 	jmp	0x3e98	; 0x3e98 <__prologue_saves__+0x8>
    2cde:	3c 01       	movw	r6, r24
    static object_model_t actObj1, actObj2;
    uint8_t elements = 1;

    CleanInput(&data[0]);
    2ce0:	ce dc       	rcall	.-1636   	; 0x267e <CleanInput>
    uint8_t inputLen = CleanInput(&data[0]);
    2ce2:	c3 01       	movw	r24, r6
    2ce4:	cc dc       	rcall	.-1640   	; 0x267e <CleanInput>
    2ce6:	f8 2e       	mov	r15, r24
    return 0;
}

//
void SetResponse(uint8_t number, uint16_t address, uint16_t length, uint8_t type){
    reactStr[0][number]=address;
    2ce8:	29 e5       	ldi	r18, 0x59	; 89
    2cea:	3a e7       	ldi	r19, 0x7A	; 122
    2cec:	20 93 24 39 	sts	0x3924, r18	; 0x803924 <reactStr>
    2cf0:	30 93 25 39 	sts	0x3925, r19	; 0x803925 <reactStr+0x1>
    reactStr[1][number]=length;
    2cf4:	84 e0       	ldi	r24, 0x04	; 4
    2cf6:	90 e0       	ldi	r25, 0x00	; 0
    2cf8:	80 93 64 39 	sts	0x3964, r24	; 0x803964 <reactStr+0x40>
    2cfc:	90 93 65 39 	sts	0x3965, r25	; 0x803965 <reactStr+0x41>
    reactStr[2][number]=type;
    2d00:	01 e0       	ldi	r16, 0x01	; 1
    2d02:	10 e0       	ldi	r17, 0x00	; 0
    2d04:	00 93 a4 39 	sts	0x39A4, r16	; 0x8039a4 <reactStr+0x80>
    2d08:	10 93 a5 39 	sts	0x39A5, r17	; 0x8039a5 <reactStr+0x81>

    CleanInput(&data[0]);
    uint8_t inputLen = CleanInput(&data[0]);
    SetResponse(0, A_LF, 4, TEASER);

    if (inputLen) {
    2d0c:	ff 20       	and	r15, r15
    2d0e:	09 f4       	brne	.+2      	; 0x2d12 <ProcessInput+0x40>
    2d10:	54 c7       	rjmp	.+3752   	; 0x3bba <ProcessInput+0xee8>

        //eXit to previous location
        if (data[0] == 'x'){
    2d12:	d3 01       	movw	r26, r6
    2d14:	8c 91       	ld	r24, X
    2d16:	88 37       	cpi	r24, 0x78	; 120
    2d18:	09 f0       	breq	.+2      	; 0x2d1c <ProcessInput+0x4a>
    2d1a:	45 c0       	rjmp	.+138    	; 0x2da6 <ProcessInput+0xd4>

            //Standing in the Lobby?
            if ((route[currDepth] == 0)||(currDepth == 0)){
    2d1c:	80 91 35 38 	lds	r24, 0x3835	; 0x803835 <currDepth>
    2d20:	e8 2f       	mov	r30, r24
    2d22:	f0 e0       	ldi	r31, 0x00	; 0
    2d24:	ee 0f       	add	r30, r30
    2d26:	ff 1f       	adc	r31, r31
    2d28:	ec 51       	subi	r30, 0x1C	; 28
    2d2a:	f6 4c       	sbci	r31, 0xC6	; 198
    2d2c:	20 81       	ld	r18, Z
    2d2e:	31 81       	ldd	r19, Z+1	; 0x01
    2d30:	23 2b       	or	r18, r19
    2d32:	11 f0       	breq	.+4      	; 0x2d38 <ProcessInput+0x66>
    2d34:	81 11       	cpse	r24, r1
    2d36:	03 c0       	rjmp	.+6      	; 0x2d3e <ProcessInput+0x6c>
    return 0;
}

//
void SetResponse(uint8_t number, uint16_t address, uint16_t length, uint8_t type){
    reactStr[0][number]=address;
    2d38:	84 e4       	ldi	r24, 0x44	; 68
    2d3a:	96 e7       	ldi	r25, 0x76	; 118
    2d3c:	13 c5       	rjmp	.+2598   	; 0x3764 <ProcessInput+0xa92>
            //Standing in the Lobby?
            if ((route[currDepth] == 0)||(currDepth == 0)){
                SetResponse(elements++, A_NOTPOSSIBLE, L_NOTPOSSIBLE, TEASER);
            
            //Is there a way to go back?
            } else if (CheckState(currObj.byteField[OPEN_ACL])){
    2d3e:	80 91 2a 3a 	lds	r24, 0x3A2A	; 0x803a2a <currObj+0x6>
    2d42:	0e 94 20 0a 	call	0x1440	; 0x1440 <CheckState>
    2d46:	88 23       	and	r24, r24
    2d48:	b9 f0       	breq	.+46     	; 0x2d78 <ProcessInput+0xa6>
                --currDepth;
    2d4a:	e0 91 35 38 	lds	r30, 0x3835	; 0x803835 <currDepth>
    2d4e:	e1 50       	subi	r30, 0x01	; 1
    2d50:	e0 93 35 38 	sts	0x3835, r30	; 0x803835 <currDepth>
                PopulateObject(route[currDepth], &currObj);
    2d54:	f0 e0       	ldi	r31, 0x00	; 0
    2d56:	ee 0f       	add	r30, r30
    2d58:	ff 1f       	adc	r31, r31
    2d5a:	ec 51       	subi	r30, 0x1C	; 28
    2d5c:	f6 4c       	sbci	r31, 0xC6	; 198
    2d5e:	64 e2       	ldi	r22, 0x24	; 36
    2d60:	7a e3       	ldi	r23, 0x3A	; 58
    2d62:	80 81       	ld	r24, Z
    2d64:	91 81       	ldd	r25, Z+1	; 0x01
    2d66:	5f db       	rcall	.-2370   	; 0x2426 <PopulateObject>
                effect = currObj.byteField[EFFECTS];
    2d68:	80 91 28 3a 	lds	r24, 0x3A28	; 0x803a28 <currObj+0x4>
    2d6c:	90 e0       	ldi	r25, 0x00	; 0
    2d6e:	80 93 40 38 	sts	0x3840, r24	; 0x803840 <effect>
    2d72:	90 93 41 38 	sts	0x3841, r25	; 0x803841 <effect+0x1>
    2d76:	2a c2       	rjmp	.+1108   	; 0x31cc <ProcessInput+0x4fa>
            
            //No way out, print denied message of location
            } else {
                SetResponse(elements++, currObj.addrStr[OPEN_ACL_MSG], currObj.lenStr[OPEN_ACL_MSG], GAME);
    2d78:	80 91 46 3a 	lds	r24, 0x3A46	; 0x803a46 <currObj+0x22>
    2d7c:	90 91 47 3a 	lds	r25, 0x3A47	; 0x803a47 <currObj+0x23>
    return 0;
}

//
void SetResponse(uint8_t number, uint16_t address, uint16_t length, uint8_t type){
    reactStr[0][number]=address;
    2d80:	20 91 38 3a 	lds	r18, 0x3A38	; 0x803a38 <currObj+0x14>
    2d84:	30 91 39 3a 	lds	r19, 0x3A39	; 0x803a39 <currObj+0x15>
    2d88:	20 93 26 39 	sts	0x3926, r18	; 0x803926 <reactStr+0x2>
    2d8c:	30 93 27 39 	sts	0x3927, r19	; 0x803927 <reactStr+0x3>
    reactStr[1][number]=length;
    2d90:	80 93 66 39 	sts	0x3966, r24	; 0x803966 <reactStr+0x42>
    2d94:	90 93 67 39 	sts	0x3967, r25	; 0x803967 <reactStr+0x43>
    reactStr[2][number]=type;
    2d98:	10 92 a6 39 	sts	0x39A6, r1	; 0x8039a6 <reactStr+0x82>
    2d9c:	10 92 a7 39 	sts	0x39A7, r1	; 0x8039a7 <reactStr+0x83>
                effect = currObj.byteField[EFFECTS];
            
            //No way out, print denied message of location
            } else {
                SetResponse(elements++, currObj.addrStr[OPEN_ACL_MSG], currObj.lenStr[OPEN_ACL_MSG], GAME);
                effect = currObj.effect[0];               
    2da0:	80 91 4c 3a 	lds	r24, 0x3A4C	; 0x803a4c <currObj+0x28>
    2da4:	a9 c5       	rjmp	.+2898   	; 0x38f8 <ProcessInput+0xc26>
            }   
        
        //Enter locations or Open objects    
        } else if ((data[0] == 'e')||(data[0] == 'o')) {
    2da6:	85 36       	cpi	r24, 0x65	; 101
    2da8:	19 f0       	breq	.+6      	; 0x2db0 <ProcessInput+0xde>
    2daa:	8f 36       	cpi	r24, 0x6F	; 111
    2dac:	09 f0       	breq	.+2      	; 0x2db0 <ProcessInput+0xde>
    2dae:	de c0       	rjmp	.+444    	; 0x2f6c <ProcessInput+0x29a>
                
            //Not possible, too many/little characters
            if (inputLen != 2){
    2db0:	b2 e0       	ldi	r27, 0x02	; 2
    2db2:	fb 12       	cpse	r15, r27
    2db4:	c1 cf       	rjmp	.-126    	; 0x2d38 <ProcessInput+0x66>
                SetResponse(elements++, A_NOTPOSSIBLE, L_NOTPOSSIBLE, TEASER);
            } else {
                uint8_t canDo = 0;
                route[currDepth+1] = FindChild(route[currDepth], data[1], 0);
    2db6:	00 91 35 38 	lds	r16, 0x3835	; 0x803835 <currDepth>
    2dba:	10 e0       	ldi	r17, 0x00	; 0
    2dbc:	f8 01       	movw	r30, r16
    2dbe:	ee 0f       	add	r30, r30
    2dc0:	ff 1f       	adc	r31, r31
    2dc2:	ec 51       	subi	r30, 0x1C	; 28
    2dc4:	f6 4c       	sbci	r31, 0xC6	; 198
    2dc6:	40 e0       	ldi	r20, 0x00	; 0
    2dc8:	50 e0       	ldi	r21, 0x00	; 0
    2dca:	d3 01       	movw	r26, r6
    2dcc:	11 96       	adiw	r26, 0x01	; 1
    2dce:	6c 91       	ld	r22, X
    2dd0:	80 81       	ld	r24, Z
    2dd2:	91 81       	ldd	r25, Z+1	; 0x01
    2dd4:	e8 db       	rcall	.-2096   	; 0x25a6 <FindChild>
    2dd6:	00 0f       	add	r16, r16
    2dd8:	11 1f       	adc	r17, r17
    2dda:	f8 01       	movw	r30, r16
    2ddc:	ea 51       	subi	r30, 0x1A	; 26
    2dde:	f6 4c       	sbci	r31, 0xC6	; 198
    2de0:	80 83       	st	Z, r24
    2de2:	91 83       	std	Z+1, r25	; 0x01
                    
                //Child found?
                if (route[currDepth+1]) {
    2de4:	90 91 35 38 	lds	r25, 0x3835	; 0x803835 <currDepth>
    2de8:	29 2f       	mov	r18, r25
    2dea:	30 e0       	ldi	r19, 0x00	; 0
    2dec:	f9 01       	movw	r30, r18
    2dee:	ee 0f       	add	r30, r30
    2df0:	ff 1f       	adc	r31, r31
    2df2:	ea 51       	subi	r30, 0x1A	; 26
    2df4:	f6 4c       	sbci	r31, 0xC6	; 198
    2df6:	40 81       	ld	r20, Z
    2df8:	51 81       	ldd	r21, Z+1	; 0x01
    2dfa:	41 15       	cp	r20, r1
    2dfc:	51 05       	cpc	r21, r1
    2dfe:	21 f0       	breq	.+8      	; 0x2e08 <ProcessInput+0x136>
                    PopulateObject(route[currDepth+1], &actObj1);
    2e00:	63 ee       	ldi	r22, 0xE3	; 227
    2e02:	78 e3       	ldi	r23, 0x38	; 56
    2e04:	ca 01       	movw	r24, r20
    2e06:	1c c0       	rjmp	.+56     	; 0x2e40 <ProcessInput+0x16e>
                    canDo = 1;
                //No child, maybe a step back, letter ok?
                } else if (currDepth) {
    2e08:	99 23       	and	r25, r25
    2e0a:	09 f4       	brne	.+2      	; 0x2e0e <ProcessInput+0x13c>
    2e0c:	dc c6       	rjmp	.+3512   	; 0x3bc6 <ProcessInput+0xef4>
                    if (CheckLetter(route[currDepth-1], data[1])) {
    2e0e:	22 0f       	add	r18, r18
    2e10:	33 1f       	adc	r19, r19
    2e12:	f9 01       	movw	r30, r18
    2e14:	ee 51       	subi	r30, 0x1E	; 30
    2e16:	f6 4c       	sbci	r31, 0xC6	; 198
    2e18:	d3 01       	movw	r26, r6
    2e1a:	11 96       	adiw	r26, 0x01	; 1
    2e1c:	6c 91       	ld	r22, X
    2e1e:	80 81       	ld	r24, Z
    2e20:	91 81       	ldd	r25, Z+1	; 0x01
    2e22:	7a db       	rcall	.-2316   	; 0x2518 <CheckLetter>
    2e24:	88 23       	and	r24, r24
    2e26:	09 f4       	brne	.+2      	; 0x2e2a <ProcessInput+0x158>
    2e28:	ce c6       	rjmp	.+3484   	; 0x3bc6 <ProcessInput+0xef4>
                        PopulateObject(route[currDepth-1], &actObj1);
    2e2a:	e0 91 35 38 	lds	r30, 0x3835	; 0x803835 <currDepth>
    2e2e:	f0 e0       	ldi	r31, 0x00	; 0
    2e30:	ee 0f       	add	r30, r30
    2e32:	ff 1f       	adc	r31, r31
    2e34:	ee 51       	subi	r30, 0x1E	; 30
    2e36:	f6 4c       	sbci	r31, 0xC6	; 198
    2e38:	63 ee       	ldi	r22, 0xE3	; 227
    2e3a:	78 e3       	ldi	r23, 0x38	; 56
    2e3c:	80 81       	ld	r24, Z
    2e3e:	91 81       	ldd	r25, Z+1	; 0x01
    2e40:	f2 da       	rcall	.-2588   	; 0x2426 <PopulateObject>
                    }
                }

                //The candidate is found! Let's check if the action is legit
                if (canDo) {
                    if ((data[0] == 'e') && ((actObj1.byteField[ACTION_MASK]&ENTER)==0)) {
    2e42:	d3 01       	movw	r26, r6
    2e44:	8c 91       	ld	r24, X
    2e46:	85 36       	cpi	r24, 0x65	; 101
    2e48:	c1 f4       	brne	.+48     	; 0x2e7a <ProcessInput+0x1a8>
    2e4a:	80 91 eb 38 	lds	r24, 0x38EB	; 0x8038eb <actObj1.3991+0x8>
    2e4e:	80 fd       	sbrc	r24, 0
    2e50:	1d c0       	rjmp	.+58     	; 0x2e8c <ProcessInput+0x1ba>
    return 0;
}

//
void SetResponse(uint8_t number, uint16_t address, uint16_t length, uint8_t type){
    reactStr[0][number]=address;
    2e52:	8d e9       	ldi	r24, 0x9D	; 157
    2e54:	99 e7       	ldi	r25, 0x79	; 121
    2e56:	80 93 26 39 	sts	0x3926, r24	; 0x803926 <reactStr+0x2>
    2e5a:	90 93 27 39 	sts	0x3927, r25	; 0x803927 <reactStr+0x3>
    reactStr[1][number]=length;
    2e5e:	8e e1       	ldi	r24, 0x1E	; 30
    2e60:	90 e0       	ldi	r25, 0x00	; 0
    2e62:	80 93 66 39 	sts	0x3966, r24	; 0x803966 <reactStr+0x42>
    2e66:	90 93 67 39 	sts	0x3967, r25	; 0x803967 <reactStr+0x43>
    reactStr[2][number]=type;
    2e6a:	81 e0       	ldi	r24, 0x01	; 1
    2e6c:	90 e0       	ldi	r25, 0x00	; 0
    2e6e:	80 93 a6 39 	sts	0x39A6, r24	; 0x8039a6 <reactStr+0x82>
    2e72:	90 93 a7 39 	sts	0x39A7, r25	; 0x8039a7 <reactStr+0x83>
                }

                //The candidate is found! Let's check if the action is legit
                if (canDo) {
                    if ((data[0] == 'e') && ((actObj1.byteField[ACTION_MASK]&ENTER)==0)) {
                        SetResponse(elements++, A_CANTENTER, L_CANTENTER, TEASER);
    2e76:	12 e0       	ldi	r17, 0x02	; 2
    2e78:	97 c6       	rjmp	.+3374   	; 0x3ba8 <ProcessInput+0xed6>
                    } else if ((data[0] == 'o') && ((actObj1.byteField[ACTION_MASK]&OPEN)==0)) {
    2e7a:	8f 36       	cpi	r24, 0x6F	; 111
    2e7c:	39 f4       	brne	.+14     	; 0x2e8c <ProcessInput+0x1ba>
    2e7e:	80 91 eb 38 	lds	r24, 0x38EB	; 0x8038eb <actObj1.3991+0x8>
    2e82:	81 fd       	sbrc	r24, 1
    2e84:	03 c0       	rjmp	.+6      	; 0x2e8c <ProcessInput+0x1ba>
    return 0;
}

//
void SetResponse(uint8_t number, uint16_t address, uint16_t length, uint8_t type){
    reactStr[0][number]=address;
    2e86:	82 e8       	ldi	r24, 0x82	; 130
    2e88:	99 e7       	ldi	r25, 0x79	; 121
    2e8a:	6c c4       	rjmp	.+2264   	; 0x3764 <ProcessInput+0xa92>
                        SetResponse(elements++, A_CANTENTER, L_CANTENTER, TEASER);
                    } else if ((data[0] == 'o') && ((actObj1.byteField[ACTION_MASK]&OPEN)==0)) {
                        SetResponse(elements++, A_CANTOPEN, L_CANTOPEN, TEASER);
                    
                    //Action legit, permission granted?
                    } else if (CheckState(actObj1.byteField[OPEN_ACL])) {
    2e8c:	80 91 e9 38 	lds	r24, 0x38E9	; 0x8038e9 <actObj1.3991+0x6>
    2e90:	0e 94 20 0a 	call	0x1440	; 0x1440 <CheckState>
    2e94:	e0 91 35 38 	lds	r30, 0x3835	; 0x803835 <currDepth>
    2e98:	88 23       	and	r24, r24
    2e9a:	09 f4       	brne	.+2      	; 0x2e9e <ProcessInput+0x1cc>
    2e9c:	49 c0       	rjmp	.+146    	; 0x2f30 <ProcessInput+0x25e>
                            
                        //Yes! Check if we must move forward or backwards.
                        if (route[currDepth+1]) ++currDepth; else --currDepth;
    2e9e:	ae 2f       	mov	r26, r30
    2ea0:	b0 e0       	ldi	r27, 0x00	; 0
    2ea2:	aa 0f       	add	r26, r26
    2ea4:	bb 1f       	adc	r27, r27
    2ea6:	aa 51       	subi	r26, 0x1A	; 26
    2ea8:	b6 4c       	sbci	r27, 0xC6	; 198
    2eaa:	8d 91       	ld	r24, X+
    2eac:	9c 91       	ld	r25, X
    2eae:	89 2b       	or	r24, r25
    2eb0:	11 f0       	breq	.+4      	; 0x2eb6 <ProcessInput+0x1e4>
    2eb2:	ef 5f       	subi	r30, 0xFF	; 255
    2eb4:	01 c0       	rjmp	.+2      	; 0x2eb8 <ProcessInput+0x1e6>
    2eb6:	e1 50       	subi	r30, 0x01	; 1
    2eb8:	e0 93 35 38 	sts	0x3835, r30	; 0x803835 <currDepth>
                        PopulateObject(route[currDepth], &currObj);
    2ebc:	e0 91 35 38 	lds	r30, 0x3835	; 0x803835 <currDepth>
    2ec0:	f0 e0       	ldi	r31, 0x00	; 0
    2ec2:	ee 0f       	add	r30, r30
    2ec4:	ff 1f       	adc	r31, r31
    2ec6:	ec 51       	subi	r30, 0x1C	; 28
    2ec8:	f6 4c       	sbci	r31, 0xC6	; 198
    2eca:	64 e2       	ldi	r22, 0x24	; 36
    2ecc:	7a e3       	ldi	r23, 0x3A	; 58
    2ece:	80 81       	ld	r24, Z
    2ed0:	91 81       	ldd	r25, Z+1	; 0x01
    2ed2:	a9 da       	rcall	.-2734   	; 0x2426 <PopulateObject>
                        SetResponse(elements++, currObj.addrStr[DESC], currObj.lenStr[DESC],GAME);
    2ed4:	80 91 40 3a 	lds	r24, 0x3A40	; 0x803a40 <currObj+0x1c>
    2ed8:	90 91 41 3a 	lds	r25, 0x3A41	; 0x803a41 <currObj+0x1d>
    return 0;
}

//
void SetResponse(uint8_t number, uint16_t address, uint16_t length, uint8_t type){
    reactStr[0][number]=address;
    2edc:	20 91 32 3a 	lds	r18, 0x3A32	; 0x803a32 <currObj+0xe>
    2ee0:	30 91 33 3a 	lds	r19, 0x3A33	; 0x803a33 <currObj+0xf>
    2ee4:	20 93 26 39 	sts	0x3926, r18	; 0x803926 <reactStr+0x2>
    2ee8:	30 93 27 39 	sts	0x3927, r19	; 0x803927 <reactStr+0x3>
    reactStr[1][number]=length;
    2eec:	80 93 66 39 	sts	0x3966, r24	; 0x803966 <reactStr+0x42>
    2ef0:	90 93 67 39 	sts	0x3967, r25	; 0x803967 <reactStr+0x43>
    reactStr[2][number]=type;
    2ef4:	10 92 a6 39 	sts	0x39A6, r1	; 0x8039a6 <reactStr+0x82>
    2ef8:	10 92 a7 39 	sts	0x39A7, r1	; 0x8039a7 <reactStr+0x83>
    return 0;
}

//
void SetResponse(uint8_t number, uint16_t address, uint16_t length, uint8_t type){
    reactStr[0][number]=address;
    2efc:	89 e5       	ldi	r24, 0x59	; 89
    2efe:	9a e7       	ldi	r25, 0x7A	; 122
    2f00:	80 93 28 39 	sts	0x3928, r24	; 0x803928 <reactStr+0x4>
    2f04:	90 93 29 39 	sts	0x3929, r25	; 0x803929 <reactStr+0x5>
    reactStr[1][number]=length;
    2f08:	82 e0       	ldi	r24, 0x02	; 2
    2f0a:	90 e0       	ldi	r25, 0x00	; 0
    2f0c:	80 93 68 39 	sts	0x3968, r24	; 0x803968 <reactStr+0x44>
    2f10:	90 93 69 39 	sts	0x3969, r25	; 0x803969 <reactStr+0x45>
    reactStr[2][number]=type;
    2f14:	81 e0       	ldi	r24, 0x01	; 1
    2f16:	90 e0       	ldi	r25, 0x00	; 0
    2f18:	80 93 a8 39 	sts	0x39A8, r24	; 0x8039a8 <reactStr+0x84>
    2f1c:	90 93 a9 39 	sts	0x39A9, r25	; 0x8039a9 <reactStr+0x85>
                        //Yes! Check if we must move forward or backwards.
                        if (route[currDepth+1]) ++currDepth; else --currDepth;
                        PopulateObject(route[currDepth], &currObj);
                        SetResponse(elements++, currObj.addrStr[DESC], currObj.lenStr[DESC],GAME);
                        SetResponse(elements++, A_LF, 2, TEASER);
                        effect = currObj.byteField[EFFECTS];
    2f20:	80 91 28 3a 	lds	r24, 0x3A28	; 0x803a28 <currObj+0x4>
    2f24:	90 e0       	ldi	r25, 0x00	; 0
    2f26:	80 93 40 38 	sts	0x3840, r24	; 0x803840 <effect>
    2f2a:	90 93 41 38 	sts	0x3841, r25	; 0x803841 <effect+0x1>
    2f2e:	07 c4       	rjmp	.+2062   	; 0x373e <ProcessInput+0xa6c>
                                                  
                    //Not granted!
                    } else {
                        route[currDepth+1] = 0;
    2f30:	f0 e0       	ldi	r31, 0x00	; 0
    2f32:	ee 0f       	add	r30, r30
    2f34:	ff 1f       	adc	r31, r31
    2f36:	ea 51       	subi	r30, 0x1A	; 26
    2f38:	f6 4c       	sbci	r31, 0xC6	; 198
    2f3a:	10 82       	st	Z, r1
    2f3c:	11 82       	std	Z+1, r1	; 0x01
                        SetResponse(elements++, actObj1.addrStr[OPEN_ACL_MSG], actObj1.lenStr[OPEN_ACL_MSG], GAME);
    2f3e:	80 91 05 39 	lds	r24, 0x3905	; 0x803905 <actObj1.3991+0x22>
    2f42:	90 91 06 39 	lds	r25, 0x3906	; 0x803906 <actObj1.3991+0x23>
    return 0;
}

//
void SetResponse(uint8_t number, uint16_t address, uint16_t length, uint8_t type){
    reactStr[0][number]=address;
    2f46:	20 91 f7 38 	lds	r18, 0x38F7	; 0x8038f7 <actObj1.3991+0x14>
    2f4a:	30 91 f8 38 	lds	r19, 0x38F8	; 0x8038f8 <actObj1.3991+0x15>
    2f4e:	20 93 26 39 	sts	0x3926, r18	; 0x803926 <reactStr+0x2>
    2f52:	30 93 27 39 	sts	0x3927, r19	; 0x803927 <reactStr+0x3>
    reactStr[1][number]=length;
    2f56:	80 93 66 39 	sts	0x3966, r24	; 0x803966 <reactStr+0x42>
    2f5a:	90 93 67 39 	sts	0x3967, r25	; 0x803967 <reactStr+0x43>
    reactStr[2][number]=type;
    2f5e:	10 92 a6 39 	sts	0x39A6, r1	; 0x8039a6 <reactStr+0x82>
    2f62:	10 92 a7 39 	sts	0x39A7, r1	; 0x8039a7 <reactStr+0x83>
                                                  
                    //Not granted!
                    } else {
                        route[currDepth+1] = 0;
                        SetResponse(elements++, actObj1.addrStr[OPEN_ACL_MSG], actObj1.lenStr[OPEN_ACL_MSG], GAME);
                        effect = actObj1.effect[0];              
    2f66:	80 91 0b 39 	lds	r24, 0x390B	; 0x80390b <actObj1.3991+0x28>
    2f6a:	c6 c4       	rjmp	.+2444   	; 0x38f8 <ProcessInput+0xc26>
                    SetResponse(elements++, A_DONTSEE, L_DONTSEE, TEASER);                
                }
            }

        //Look around or at objects
        } else if (data[0] == 'l') {
    2f6c:	8c 36       	cpi	r24, 0x6C	; 108
    2f6e:	09 f0       	breq	.+2      	; 0x2f72 <ProcessInput+0x2a0>
    2f70:	59 c1       	rjmp	.+690    	; 0x3224 <ProcessInput+0x552>
    2f72:	e0 91 35 38 	lds	r30, 0x3835	; 0x803835 <currDepth>
            if (inputLen == 1) {
    2f76:	b1 e0       	ldi	r27, 0x01	; 1
    2f78:	fb 12       	cpse	r15, r27
    2f7a:	f1 c0       	rjmp	.+482    	; 0x315e <ProcessInput+0x48c>

                //Show info about this area first
                SetResponse(elements++, currObj.addrStr[DESC], currObj.lenStr[DESC],GAME);
    2f7c:	80 91 40 3a 	lds	r24, 0x3A40	; 0x803a40 <currObj+0x1c>
    2f80:	90 91 41 3a 	lds	r25, 0x3A41	; 0x803a41 <currObj+0x1d>
    return 0;
}

//
void SetResponse(uint8_t number, uint16_t address, uint16_t length, uint8_t type){
    reactStr[0][number]=address;
    2f84:	40 91 32 3a 	lds	r20, 0x3A32	; 0x803a32 <currObj+0xe>
    2f88:	50 91 33 3a 	lds	r21, 0x3A33	; 0x803a33 <currObj+0xf>
    2f8c:	40 93 26 39 	sts	0x3926, r20	; 0x803926 <reactStr+0x2>
    2f90:	50 93 27 39 	sts	0x3927, r21	; 0x803927 <reactStr+0x3>
    reactStr[1][number]=length;
    2f94:	80 93 66 39 	sts	0x3966, r24	; 0x803966 <reactStr+0x42>
    2f98:	90 93 67 39 	sts	0x3967, r25	; 0x803967 <reactStr+0x43>
    reactStr[2][number]=type;
    2f9c:	10 92 a6 39 	sts	0x39A6, r1	; 0x8039a6 <reactStr+0x82>
    2fa0:	10 92 a7 39 	sts	0x39A7, r1	; 0x8039a7 <reactStr+0x83>
    return 0;
}

//
void SetResponse(uint8_t number, uint16_t address, uint16_t length, uint8_t type){
    reactStr[0][number]=address;
    2fa4:	20 93 28 39 	sts	0x3928, r18	; 0x803928 <reactStr+0x4>
    2fa8:	30 93 29 39 	sts	0x3929, r19	; 0x803929 <reactStr+0x5>
    reactStr[1][number]=length;
    2fac:	82 e0       	ldi	r24, 0x02	; 2
    2fae:	90 e0       	ldi	r25, 0x00	; 0
    2fb0:	80 93 68 39 	sts	0x3968, r24	; 0x803968 <reactStr+0x44>
    2fb4:	90 93 69 39 	sts	0x3969, r25	; 0x803969 <reactStr+0x45>
    reactStr[2][number]=type;
    2fb8:	00 93 a8 39 	sts	0x39A8, r16	; 0x8039a8 <reactStr+0x84>
    2fbc:	10 93 a9 39 	sts	0x39A9, r17	; 0x8039a9 <reactStr+0x85>
    return 0;
}

//
void SetResponse(uint8_t number, uint16_t address, uint16_t length, uint8_t type){
    reactStr[0][number]=address;
    2fc0:	8b ee       	ldi	r24, 0xEB	; 235
    2fc2:	99 e7       	ldi	r25, 0x79	; 121
    2fc4:	80 93 2a 39 	sts	0x392A, r24	; 0x80392a <reactStr+0x6>
    2fc8:	90 93 2b 39 	sts	0x392B, r25	; 0x80392b <reactStr+0x7>
    reactStr[1][number]=length;
    2fcc:	85 e1       	ldi	r24, 0x15	; 21
    2fce:	90 e0       	ldi	r25, 0x00	; 0
    2fd0:	80 93 6a 39 	sts	0x396A, r24	; 0x80396a <reactStr+0x46>
    2fd4:	90 93 6b 39 	sts	0x396B, r25	; 0x80396b <reactStr+0x47>
    reactStr[2][number]=type;
    2fd8:	00 93 aa 39 	sts	0x39AA, r16	; 0x8039aa <reactStr+0x86>
    2fdc:	10 93 ab 39 	sts	0x39AB, r17	; 0x8039ab <reactStr+0x87>
                SetResponse(elements++, currObj.addrStr[DESC], currObj.lenStr[DESC],GAME);
                SetResponse(elements++, A_LF, 2, TEASER);
                SetResponse(elements++, A_LOOK, L_LOOK, TEASER);

                //Check the visible children first
                route[currDepth+1] = 0;
    2fe0:	f0 e0       	ldi	r31, 0x00	; 0
    2fe2:	ee 0f       	add	r30, r30
    2fe4:	ff 1f       	adc	r31, r31
    2fe6:	ea 51       	subi	r30, 0x1A	; 26
    2fe8:	f6 4c       	sbci	r31, 0xC6	; 198
    2fea:	10 82       	st	Z, r1
    2fec:	11 82       	std	Z+1, r1	; 0x01
            if (inputLen == 1) {

                //Show info about this area first
                SetResponse(elements++, currObj.addrStr[DESC], currObj.lenStr[DESC],GAME);
                SetResponse(elements++, A_LF, 2, TEASER);
                SetResponse(elements++, A_LOOK, L_LOOK, TEASER);
    2fee:	14 e0       	ldi	r17, 0x04	; 4
    2ff0:	91 2e       	mov	r9, r17
    return 0;
}

//
void SetResponse(uint8_t number, uint16_t address, uint16_t length, uint8_t type){
    reactStr[0][number]=address;
    2ff2:	07 e5       	ldi	r16, 0x57	; 87
    2ff4:	e0 2e       	mov	r14, r16
    2ff6:	0a e7       	ldi	r16, 0x7A	; 122
    2ff8:	f0 2e       	mov	r15, r16
    reactStr[1][number]=length;
    2ffa:	82 e0       	ldi	r24, 0x02	; 2
    2ffc:	c8 2e       	mov	r12, r24
    2ffe:	d1 2c       	mov	r13, r1
    reactStr[2][number]=type;
    3000:	aa 24       	eor	r10, r10
    3002:	a3 94       	inc	r10
    3004:	b1 2c       	mov	r11, r1
                SetResponse(elements++, A_LOOK, L_LOOK, TEASER);

                //Check the visible children first
                route[currDepth+1] = 0;
                do{
                    route[currDepth+1] = FindChild(route[currDepth], 0, route[currDepth+1]);
    3006:	80 91 35 38 	lds	r24, 0x3835	; 0x803835 <currDepth>
    300a:	90 e0       	ldi	r25, 0x00	; 0
    300c:	8c 01       	movw	r16, r24
    300e:	00 0f       	add	r16, r16
    3010:	11 1f       	adc	r17, r17
    3012:	0a 51       	subi	r16, 0x1A	; 26
    3014:	16 4c       	sbci	r17, 0xC6	; 198
    3016:	f8 01       	movw	r30, r16
    3018:	40 81       	ld	r20, Z
    301a:	51 81       	ldd	r21, Z+1	; 0x01
    301c:	88 0f       	add	r24, r24
    301e:	99 1f       	adc	r25, r25
    3020:	fc 01       	movw	r30, r24
    3022:	ec 51       	subi	r30, 0x1C	; 28
    3024:	f6 4c       	sbci	r31, 0xC6	; 198
    3026:	60 e0       	ldi	r22, 0x00	; 0
    3028:	80 81       	ld	r24, Z
    302a:	91 81       	ldd	r25, Z+1	; 0x01
    302c:	bc da       	rcall	.-2696   	; 0x25a6 <FindChild>
    302e:	d8 01       	movw	r26, r16
    3030:	8d 93       	st	X+, r24
    3032:	9c 93       	st	X, r25
                    if (route[currDepth+1]) {
    3034:	e0 91 35 38 	lds	r30, 0x3835	; 0x803835 <currDepth>
    3038:	f0 e0       	ldi	r31, 0x00	; 0
    303a:	ee 0f       	add	r30, r30
    303c:	ff 1f       	adc	r31, r31
    303e:	ea 51       	subi	r30, 0x1A	; 26
    3040:	f6 4c       	sbci	r31, 0xC6	; 198
    3042:	80 81       	ld	r24, Z
    3044:	91 81       	ldd	r25, Z+1	; 0x01
    3046:	00 97       	sbiw	r24, 0x00	; 0
    3048:	09 f4       	brne	.+2      	; 0x304c <ProcessInput+0x37a>
    304a:	4a c0       	rjmp	.+148    	; 0x30e0 <ProcessInput+0x40e>
                        if ((route[currDepth+1] != inventory[0])&&(route[currDepth+1] != inventory[1])) {
    304c:	20 91 44 38 	lds	r18, 0x3844	; 0x803844 <inventory>
    3050:	30 91 45 38 	lds	r19, 0x3845	; 0x803845 <inventory+0x1>
    3054:	82 17       	cp	r24, r18
    3056:	93 07       	cpc	r25, r19
    3058:	09 f4       	brne	.+2      	; 0x305c <ProcessInput+0x38a>
    305a:	42 c0       	rjmp	.+132    	; 0x30e0 <ProcessInput+0x40e>
    305c:	20 91 46 38 	lds	r18, 0x3846	; 0x803846 <inventory+0x2>
    3060:	30 91 47 38 	lds	r19, 0x3847	; 0x803847 <inventory+0x3>
    3064:	82 17       	cp	r24, r18
    3066:	93 07       	cpc	r25, r19
                            PopulateObject(route[currDepth+1], &actObj1);
    3068:	d9 f1       	breq	.+118    	; 0x30e0 <ProcessInput+0x40e>
    306a:	63 ee       	ldi	r22, 0xE3	; 227
    306c:	78 e3       	ldi	r23, 0x38	; 56
    306e:	db d9       	rcall	.-3146   	; 0x2426 <PopulateObject>
                            SetResponse(elements++, actObj1.addrStr[NAME], actObj1.lenStr[NAME],GAME);
    3070:	80 91 fd 38 	lds	r24, 0x38FD	; 0x8038fd <actObj1.3991+0x1a>
    3074:	90 91 fe 38 	lds	r25, 0x38FE	; 0x8038fe <actObj1.3991+0x1b>
    return 0;
}

//
void SetResponse(uint8_t number, uint16_t address, uint16_t length, uint8_t type){
    reactStr[0][number]=address;
    3078:	e9 2d       	mov	r30, r9
    307a:	f0 e0       	ldi	r31, 0x00	; 0
    307c:	df 01       	movw	r26, r30
    307e:	aa 0f       	add	r26, r26
    3080:	bb 1f       	adc	r27, r27
    3082:	ac 5d       	subi	r26, 0xDC	; 220
    3084:	b6 4c       	sbci	r27, 0xC6	; 198
    3086:	20 91 ef 38 	lds	r18, 0x38EF	; 0x8038ef <actObj1.3991+0xc>
    308a:	30 91 f0 38 	lds	r19, 0x38F0	; 0x8038f0 <actObj1.3991+0xd>
    308e:	2d 93       	st	X+, r18
    3090:	3c 93       	st	X, r19
    reactStr[1][number]=length;
    3092:	df 01       	movw	r26, r30
    3094:	aa 0f       	add	r26, r26
    3096:	bb 1f       	adc	r27, r27
    3098:	ac 59       	subi	r26, 0x9C	; 156
    309a:	b6 4c       	sbci	r27, 0xC6	; 198
    309c:	8d 93       	st	X+, r24
    309e:	9c 93       	st	X, r25
    reactStr[2][number]=type;
    30a0:	ee 0f       	add	r30, r30
    30a2:	ff 1f       	adc	r31, r31
    30a4:	ec 55       	subi	r30, 0x5C	; 92
    30a6:	f6 4c       	sbci	r31, 0xC6	; 198
    30a8:	10 82       	st	Z, r1
    30aa:	11 82       	std	Z+1, r1	; 0x01
    return 0;
}

//
void SetResponse(uint8_t number, uint16_t address, uint16_t length, uint8_t type){
    reactStr[0][number]=address;
    30ac:	81 e0       	ldi	r24, 0x01	; 1
    30ae:	89 0d       	add	r24, r9
    30b0:	90 e0       	ldi	r25, 0x00	; 0
    30b2:	93 94       	inc	r9
    30b4:	93 94       	inc	r9
    30b6:	fc 01       	movw	r30, r24
    30b8:	ee 0f       	add	r30, r30
    30ba:	ff 1f       	adc	r31, r31
    30bc:	ec 5d       	subi	r30, 0xDC	; 220
    30be:	f6 4c       	sbci	r31, 0xC6	; 198
    30c0:	e0 82       	st	Z, r14
    30c2:	f1 82       	std	Z+1, r15	; 0x01
    reactStr[1][number]=length;
    30c4:	fc 01       	movw	r30, r24
    30c6:	ee 0f       	add	r30, r30
    30c8:	ff 1f       	adc	r31, r31
    30ca:	ec 59       	subi	r30, 0x9C	; 156
    30cc:	f6 4c       	sbci	r31, 0xC6	; 198
    30ce:	c0 82       	st	Z, r12
    30d0:	d1 82       	std	Z+1, r13	; 0x01
    reactStr[2][number]=type;
    30d2:	88 0f       	add	r24, r24
    30d4:	99 1f       	adc	r25, r25
    30d6:	fc 01       	movw	r30, r24
    30d8:	ec 55       	subi	r30, 0x5C	; 92
    30da:	f6 4c       	sbci	r31, 0xC6	; 198
    30dc:	a0 82       	st	Z, r10
    30de:	b1 82       	std	Z+1, r11	; 0x01
                            PopulateObject(route[currDepth+1], &actObj1);
                            SetResponse(elements++, actObj1.addrStr[NAME], actObj1.lenStr[NAME],GAME);
                            SetResponse(elements++, A_COMMA, L_COMMA, TEASER);
                        }
                    }
                }while (route[currDepth+1]);
    30e0:	20 91 35 38 	lds	r18, 0x3835	; 0x803835 <currDepth>
    30e4:	82 2f       	mov	r24, r18
    30e6:	90 e0       	ldi	r25, 0x00	; 0
    30e8:	fc 01       	movw	r30, r24
    30ea:	ee 0f       	add	r30, r30
    30ec:	ff 1f       	adc	r31, r31
    30ee:	ea 51       	subi	r30, 0x1A	; 26
    30f0:	f6 4c       	sbci	r31, 0xC6	; 198
    30f2:	40 81       	ld	r20, Z
    30f4:	51 81       	ldd	r21, Z+1	; 0x01
    30f6:	45 2b       	or	r20, r21
    30f8:	09 f0       	breq	.+2      	; 0x30fc <ProcessInput+0x42a>
    30fa:	85 cf       	rjmp	.-246    	; 0x3006 <ProcessInput+0x334>

                //Look back if not on level 0
                if (currDepth) {
    30fc:	22 23       	and	r18, r18
    30fe:	61 f1       	breq	.+88     	; 0x3158 <ProcessInput+0x486>
                    PopulateObject(route[currDepth-1], &actObj1);
    3100:	88 0f       	add	r24, r24
    3102:	99 1f       	adc	r25, r25
    3104:	fc 01       	movw	r30, r24
    3106:	ee 51       	subi	r30, 0x1E	; 30
    3108:	f6 4c       	sbci	r31, 0xC6	; 198
    310a:	63 ee       	ldi	r22, 0xE3	; 227
    310c:	78 e3       	ldi	r23, 0x38	; 56
    310e:	80 81       	ld	r24, Z
    3110:	91 81       	ldd	r25, Z+1	; 0x01
    3112:	89 d9       	rcall	.-3310   	; 0x2426 <PopulateObject>
                    SetResponse(elements++, actObj1.addrStr[NAME], actObj1.lenStr[NAME],GAME);
    3114:	20 91 fd 38 	lds	r18, 0x38FD	; 0x8038fd <actObj1.3991+0x1a>
    3118:	30 91 fe 38 	lds	r19, 0x38FE	; 0x8038fe <actObj1.3991+0x1b>
    311c:	11 e0       	ldi	r17, 0x01	; 1
    311e:	19 0d       	add	r17, r9
    return 0;
}

//
void SetResponse(uint8_t number, uint16_t address, uint16_t length, uint8_t type){
    reactStr[0][number]=address;
    3120:	89 2d       	mov	r24, r9
    3122:	90 e0       	ldi	r25, 0x00	; 0
    3124:	fc 01       	movw	r30, r24
    3126:	ee 0f       	add	r30, r30
    3128:	ff 1f       	adc	r31, r31
    312a:	ec 5d       	subi	r30, 0xDC	; 220
    312c:	f6 4c       	sbci	r31, 0xC6	; 198
    312e:	40 91 ef 38 	lds	r20, 0x38EF	; 0x8038ef <actObj1.3991+0xc>
    3132:	50 91 f0 38 	lds	r21, 0x38F0	; 0x8038f0 <actObj1.3991+0xd>
    3136:	40 83       	st	Z, r20
    3138:	51 83       	std	Z+1, r21	; 0x01
    reactStr[1][number]=length;
    313a:	fc 01       	movw	r30, r24
    313c:	ee 0f       	add	r30, r30
    313e:	ff 1f       	adc	r31, r31
    3140:	ec 59       	subi	r30, 0x9C	; 156
    3142:	f6 4c       	sbci	r31, 0xC6	; 198
    3144:	20 83       	st	Z, r18
    3146:	31 83       	std	Z+1, r19	; 0x01
    reactStr[2][number]=type;
    3148:	88 0f       	add	r24, r24
    314a:	99 1f       	adc	r25, r25
    314c:	fc 01       	movw	r30, r24
    314e:	ec 55       	subi	r30, 0x5C	; 92
    3150:	f6 4c       	sbci	r31, 0xC6	; 198
    3152:	10 82       	st	Z, r1
    3154:	11 82       	std	Z+1, r1	; 0x01
    3156:	28 c5       	rjmp	.+2640   	; 0x3ba8 <ProcessInput+0xed6>

                //Look back if not on level 0
                if (currDepth) {
                    PopulateObject(route[currDepth-1], &actObj1);
                    SetResponse(elements++, actObj1.addrStr[NAME], actObj1.lenStr[NAME],GAME);
                } else elements-=1;
    3158:	1f ef       	ldi	r17, 0xFF	; 255
    315a:	19 0d       	add	r17, r9
    315c:	25 c5       	rjmp	.+2634   	; 0x3ba8 <ProcessInput+0xed6>

            } else {
                route[currDepth+1] = FindChild(route[currDepth], data[1], 0);
    315e:	ee 2e       	mov	r14, r30
    3160:	f1 2c       	mov	r15, r1
    3162:	f7 01       	movw	r30, r14
    3164:	ee 0f       	add	r30, r30
    3166:	ff 1f       	adc	r31, r31
    3168:	ec 51       	subi	r30, 0x1C	; 28
    316a:	f6 4c       	sbci	r31, 0xC6	; 198
    316c:	40 e0       	ldi	r20, 0x00	; 0
    316e:	50 e0       	ldi	r21, 0x00	; 0
    3170:	d3 01       	movw	r26, r6
    3172:	11 96       	adiw	r26, 0x01	; 1
    3174:	6c 91       	ld	r22, X
    3176:	80 81       	ld	r24, Z
    3178:	91 81       	ldd	r25, Z+1	; 0x01
    317a:	15 da       	rcall	.-3030   	; 0x25a6 <FindChild>
    317c:	f7 01       	movw	r30, r14
    317e:	ee 0f       	add	r30, r30
    3180:	ff 1f       	adc	r31, r31
    3182:	ea 51       	subi	r30, 0x1A	; 26
    3184:	f6 4c       	sbci	r31, 0xC6	; 198
    3186:	80 83       	st	Z, r24
    3188:	91 83       	std	Z+1, r25	; 0x01
                if (route[currDepth+1]) {
    318a:	90 91 35 38 	lds	r25, 0x3835	; 0x803835 <currDepth>
    318e:	29 2f       	mov	r18, r25
    3190:	30 e0       	ldi	r19, 0x00	; 0
    3192:	f9 01       	movw	r30, r18
    3194:	ee 0f       	add	r30, r30
    3196:	ff 1f       	adc	r31, r31
    3198:	ea 51       	subi	r30, 0x1A	; 26
    319a:	f6 4c       	sbci	r31, 0xC6	; 198
    319c:	40 81       	ld	r20, Z
    319e:	51 81       	ldd	r21, Z+1	; 0x01
    31a0:	41 15       	cp	r20, r1
    31a2:	51 05       	cpc	r21, r1
    31a4:	21 f0       	breq	.+8      	; 0x31ae <ProcessInput+0x4dc>
                    PopulateObject(route[currDepth+1], &actObj1);
    31a6:	63 ee       	ldi	r22, 0xE3	; 227
    31a8:	78 e3       	ldi	r23, 0x38	; 56
    31aa:	ca 01       	movw	r24, r20
    31ac:	1c c0       	rjmp	.+56     	; 0x31e6 <ProcessInput+0x514>
                    SetResponse(elements++, actObj1.addrStr[DESC], actObj1.lenStr[DESC],GAME);   
                } else if (currDepth) {
    31ae:	99 23       	and	r25, r25
                    if (CheckLetter(route[currDepth-1], data[1])) {
    31b0:	81 f1       	breq	.+96     	; 0x3212 <ProcessInput+0x540>
    31b2:	22 0f       	add	r18, r18
    31b4:	33 1f       	adc	r19, r19
    31b6:	f9 01       	movw	r30, r18
    31b8:	ee 51       	subi	r30, 0x1E	; 30
    31ba:	f6 4c       	sbci	r31, 0xC6	; 198
    31bc:	d3 01       	movw	r26, r6
    31be:	11 96       	adiw	r26, 0x01	; 1
    31c0:	6c 91       	ld	r22, X
    31c2:	80 81       	ld	r24, Z
    31c4:	91 81       	ldd	r25, Z+1	; 0x01
    31c6:	a8 d9       	rcall	.-3248   	; 0x2518 <CheckLetter>
    31c8:	81 11       	cpse	r24, r1
    31ca:	02 c0       	rjmp	.+4      	; 0x31d0 <ProcessInput+0x4fe>
}

//The game logic!
uint8_t ProcessInput(uint8_t *data){
    static object_model_t actObj1, actObj2;
    uint8_t elements = 1;
    31cc:	11 e0       	ldi	r17, 0x01	; 1
                if (route[currDepth+1]) {
                    PopulateObject(route[currDepth+1], &actObj1);
                    SetResponse(elements++, actObj1.addrStr[DESC], actObj1.lenStr[DESC],GAME);   
                } else if (currDepth) {
                    if (CheckLetter(route[currDepth-1], data[1])) {
                        PopulateObject(route[currDepth-1], &actObj1);
    31ce:	ec c4       	rjmp	.+2520   	; 0x3ba8 <ProcessInput+0xed6>
    31d0:	e0 91 35 38 	lds	r30, 0x3835	; 0x803835 <currDepth>
    31d4:	f0 e0       	ldi	r31, 0x00	; 0
    31d6:	ee 0f       	add	r30, r30
    31d8:	ff 1f       	adc	r31, r31
    31da:	ee 51       	subi	r30, 0x1E	; 30
    31dc:	f6 4c       	sbci	r31, 0xC6	; 198
    31de:	63 ee       	ldi	r22, 0xE3	; 227
    31e0:	78 e3       	ldi	r23, 0x38	; 56
    31e2:	80 81       	ld	r24, Z
    31e4:	91 81       	ldd	r25, Z+1	; 0x01
    31e6:	1f d9       	rcall	.-3522   	; 0x2426 <PopulateObject>
                        SetResponse(elements++, actObj1.addrStr[DESC], actObj1.lenStr[DESC],GAME);
    31e8:	80 91 ff 38 	lds	r24, 0x38FF	; 0x8038ff <actObj1.3991+0x1c>
    31ec:	90 91 00 39 	lds	r25, 0x3900	; 0x803900 <actObj1.3991+0x1d>
    return 0;
}

//
void SetResponse(uint8_t number, uint16_t address, uint16_t length, uint8_t type){
    reactStr[0][number]=address;
    31f0:	20 91 f1 38 	lds	r18, 0x38F1	; 0x8038f1 <actObj1.3991+0xe>
    31f4:	30 91 f2 38 	lds	r19, 0x38F2	; 0x8038f2 <actObj1.3991+0xf>
    31f8:	20 93 26 39 	sts	0x3926, r18	; 0x803926 <reactStr+0x2>
    31fc:	30 93 27 39 	sts	0x3927, r19	; 0x803927 <reactStr+0x3>
    reactStr[1][number]=length;
    3200:	80 93 66 39 	sts	0x3966, r24	; 0x803966 <reactStr+0x42>
    3204:	90 93 67 39 	sts	0x3967, r25	; 0x803967 <reactStr+0x43>
    reactStr[2][number]=type;
    3208:	10 92 a6 39 	sts	0x39A6, r1	; 0x8039a6 <reactStr+0x82>
    320c:	10 92 a7 39 	sts	0x39A7, r1	; 0x8039a7 <reactStr+0x83>
    3210:	32 ce       	rjmp	.-924    	; 0x2e76 <ProcessInput+0x1a4>
    return 0;
}

//
void SetResponse(uint8_t number, uint16_t address, uint16_t length, uint8_t type){
    reactStr[0][number]=address;
    3212:	81 ed       	ldi	r24, 0xD1	; 209
    3214:	99 e7       	ldi	r25, 0x79	; 121
    3216:	80 93 26 39 	sts	0x3926, r24	; 0x803926 <reactStr+0x2>
    321a:	90 93 27 39 	sts	0x3927, r25	; 0x803927 <reactStr+0x3>
    reactStr[1][number]=length;
    321e:	8a e1       	ldi	r24, 0x1A	; 26
    3220:	90 e0       	ldi	r25, 0x00	; 0
    3222:	c9 c2       	rjmp	.+1426   	; 0x37b6 <ProcessInput+0xae4>
                    SetResponse(elements++, A_DONTSEE, L_DONTSEE, TEASER);
                }
            }
        
        //Pick up an object
        } else if (data[0] == 'p') {
    3224:	80 37       	cpi	r24, 0x70	; 112
    3226:	09 f0       	breq	.+2      	; 0x322a <ProcessInput+0x558>
    3228:	92 c0       	rjmp	.+292    	; 0x334e <ProcessInput+0x67c>
            if (inventory[0]&&inventory[1]) {
    322a:	80 91 44 38 	lds	r24, 0x3844	; 0x803844 <inventory>
    322e:	90 91 45 38 	lds	r25, 0x3845	; 0x803845 <inventory+0x1>
    3232:	89 2b       	or	r24, r25
    3234:	79 f0       	breq	.+30     	; 0x3254 <ProcessInput+0x582>
    3236:	80 91 46 38 	lds	r24, 0x3846	; 0x803846 <inventory+0x2>
    323a:	90 91 47 38 	lds	r25, 0x3847	; 0x803847 <inventory+0x3>
    323e:	89 2b       	or	r24, r25
    3240:	49 f0       	breq	.+18     	; 0x3254 <ProcessInput+0x582>
    return 0;
}

//
void SetResponse(uint8_t number, uint16_t address, uint16_t length, uint8_t type){
    reactStr[0][number]=address;
    3242:	87 e0       	ldi	r24, 0x07	; 7
    3244:	98 e7       	ldi	r25, 0x78	; 120
    3246:	80 93 26 39 	sts	0x3926, r24	; 0x803926 <reactStr+0x2>
    324a:	90 93 27 39 	sts	0x3927, r25	; 0x803927 <reactStr+0x3>
    reactStr[1][number]=length;
    324e:	89 e5       	ldi	r24, 0x59	; 89
    3250:	90 e0       	ldi	r25, 0x00	; 0
    3252:	b1 c2       	rjmp	.+1378   	; 0x37b6 <ProcessInput+0xae4>
        
        //Pick up an object
        } else if (data[0] == 'p') {
            if (inventory[0]&&inventory[1]) {
                SetResponse(elements++, A_CARRYTWO, L_CARRYTWO, TEASER);
            } else if (inputLen != 2) {
    3254:	b2 e0       	ldi	r27, 0x02	; 2
    3256:	fb 12       	cpse	r15, r27
    3258:	6f cd       	rjmp	.-1314   	; 0x2d38 <ProcessInput+0x66>
                SetResponse(elements++, A_NOTPOSSIBLE, L_NOTPOSSIBLE, TEASER);
            } else {
                route[currDepth+1] = FindChild(route[currDepth], data[1], 0);
    325a:	00 91 35 38 	lds	r16, 0x3835	; 0x803835 <currDepth>
    325e:	10 e0       	ldi	r17, 0x00	; 0
    3260:	f8 01       	movw	r30, r16
    3262:	ee 0f       	add	r30, r30
    3264:	ff 1f       	adc	r31, r31
    3266:	ec 51       	subi	r30, 0x1C	; 28
    3268:	f6 4c       	sbci	r31, 0xC6	; 198
    326a:	40 e0       	ldi	r20, 0x00	; 0
    326c:	50 e0       	ldi	r21, 0x00	; 0
    326e:	d3 01       	movw	r26, r6
    3270:	11 96       	adiw	r26, 0x01	; 1
    3272:	6c 91       	ld	r22, X
    3274:	80 81       	ld	r24, Z
    3276:	91 81       	ldd	r25, Z+1	; 0x01
    3278:	96 d9       	rcall	.-3284   	; 0x25a6 <FindChild>
    327a:	00 0f       	add	r16, r16
    327c:	11 1f       	adc	r17, r17
    327e:	f8 01       	movw	r30, r16
    3280:	ea 51       	subi	r30, 0x1A	; 26
    3282:	f6 4c       	sbci	r31, 0xC6	; 198
    3284:	80 83       	st	Z, r24
    3286:	91 83       	std	Z+1, r25	; 0x01
                if (route[currDepth+1]) {
    3288:	20 91 35 38 	lds	r18, 0x3835	; 0x803835 <currDepth>
    328c:	30 e0       	ldi	r19, 0x00	; 0
    328e:	2f 5f       	subi	r18, 0xFF	; 255
    3290:	3f 4f       	sbci	r19, 0xFF	; 255
    3292:	22 0f       	add	r18, r18
    3294:	33 1f       	adc	r19, r19
    3296:	f9 01       	movw	r30, r18
    3298:	ec 51       	subi	r30, 0x1C	; 28
    329a:	f6 4c       	sbci	r31, 0xC6	; 198
    329c:	80 81       	ld	r24, Z
    329e:	91 81       	ldd	r25, Z+1	; 0x01
    32a0:	00 97       	sbiw	r24, 0x00	; 0
    32a2:	09 f4       	brne	.+2      	; 0x32a6 <ProcessInput+0x5d4>
    32a4:	38 c3       	rjmp	.+1648   	; 0x3916 <ProcessInput+0xc44>
                    if ((route[currDepth+1] == inventory[0])||(route[currDepth+1] == inventory[1])) {
    32a6:	40 91 44 38 	lds	r20, 0x3844	; 0x803844 <inventory>
    32aa:	50 91 45 38 	lds	r21, 0x3845	; 0x803845 <inventory+0x1>
    32ae:	84 17       	cp	r24, r20
    32b0:	95 07       	cpc	r25, r21
    32b2:	39 f0       	breq	.+14     	; 0x32c2 <ProcessInput+0x5f0>
    32b4:	40 91 46 38 	lds	r20, 0x3846	; 0x803846 <inventory+0x2>
    32b8:	50 91 47 38 	lds	r21, 0x3847	; 0x803847 <inventory+0x3>
    32bc:	84 17       	cp	r24, r20
    32be:	95 07       	cpc	r25, r21
    32c0:	c1 f4       	brne	.+48     	; 0x32f2 <ProcessInput+0x620>
    return 0;
}

//
void SetResponse(uint8_t number, uint16_t address, uint16_t length, uint8_t type){
    reactStr[0][number]=address;
    32c2:	82 ee       	ldi	r24, 0xE2	; 226
    32c4:	97 e7       	ldi	r25, 0x77	; 119
    32c6:	80 93 26 39 	sts	0x3926, r24	; 0x803926 <reactStr+0x2>
    32ca:	90 93 27 39 	sts	0x3927, r25	; 0x803927 <reactStr+0x3>
    reactStr[1][number]=length;
    32ce:	85 e2       	ldi	r24, 0x25	; 37
    32d0:	90 e0       	ldi	r25, 0x00	; 0
    32d2:	80 93 66 39 	sts	0x3966, r24	; 0x803966 <reactStr+0x42>
    32d6:	90 93 67 39 	sts	0x3967, r25	; 0x803967 <reactStr+0x43>
    reactStr[2][number]=type;
    32da:	81 e0       	ldi	r24, 0x01	; 1
    32dc:	90 e0       	ldi	r25, 0x00	; 0
    32de:	80 93 a6 39 	sts	0x39A6, r24	; 0x8039a6 <reactStr+0x82>
    32e2:	90 93 a7 39 	sts	0x39A7, r25	; 0x8039a7 <reactStr+0x83>
            } else {
                route[currDepth+1] = FindChild(route[currDepth], data[1], 0);
                if (route[currDepth+1]) {
                    if ((route[currDepth+1] == inventory[0])||(route[currDepth+1] == inventory[1])) {
                        SetResponse(elements++, A_ALREADYCARRYING, L_ALREADYCARRYING, TEASER);
                        route[currDepth+1] = 0;
    32e6:	f9 01       	movw	r30, r18
    32e8:	ec 51       	subi	r30, 0x1C	; 28
    32ea:	f6 4c       	sbci	r31, 0xC6	; 198
    32ec:	10 82       	st	Z, r1
    32ee:	11 82       	std	Z+1, r1	; 0x01
                    } else {
                        //Put item in the inventory if possible
                        PopulateObject(route[currDepth+1], &actObj1);  
    32f0:	c2 cd       	rjmp	.-1148   	; 0x2e76 <ProcessInput+0x1a4>
    32f2:	63 ee       	ldi	r22, 0xE3	; 227
    32f4:	78 e3       	ldi	r23, 0x38	; 56
    32f6:	97 d8       	rcall	.-3794   	; 0x2426 <PopulateObject>
                        if (CheckState(actObj1.byteField[ACTION_ACL])) {
    32f8:	80 91 ea 38 	lds	r24, 0x38EA	; 0x8038ea <actObj1.3991+0x7>
    32fc:	0e 94 20 0a 	call	0x1440	; 0x1440 <CheckState>
    3300:	88 23       	and	r24, r24
    3302:	09 f4       	brne	.+2      	; 0x3306 <ProcessInput+0x634>
    3304:	e3 c2       	rjmp	.+1478   	; 0x38cc <ProcessInput+0xbfa>
                            if (actObj1.byteField[ITEM_NR]) {
    3306:	80 91 ee 38 	lds	r24, 0x38EE	; 0x8038ee <actObj1.3991+0xb>
    330a:	88 23       	and	r24, r24
    330c:	09 f4       	brne	.+2      	; 0x3310 <ProcessInput+0x63e>
    330e:	14 cd       	rjmp	.-1496   	; 0x2d38 <ProcessInput+0x66>
                                if (inventory[0]) {
    3310:	80 91 44 38 	lds	r24, 0x3844	; 0x803844 <inventory>
    3314:	90 91 45 38 	lds	r25, 0x3845	; 0x803845 <inventory+0x1>
    3318:	e0 91 35 38 	lds	r30, 0x3835	; 0x803835 <currDepth>
                                    inventory[1] = route[currDepth+1];
    331c:	f0 e0       	ldi	r31, 0x00	; 0
    331e:	ee 0f       	add	r30, r30
    3320:	ff 1f       	adc	r31, r31
    3322:	ea 51       	subi	r30, 0x1A	; 26
    3324:	f6 4c       	sbci	r31, 0xC6	; 198
                    } else {
                        //Put item in the inventory if possible
                        PopulateObject(route[currDepth+1], &actObj1);  
                        if (CheckState(actObj1.byteField[ACTION_ACL])) {
                            if (actObj1.byteField[ITEM_NR]) {
                                if (inventory[0]) {
    3326:	89 2b       	or	r24, r25
    3328:	39 f0       	breq	.+14     	; 0x3338 <ProcessInput+0x666>
                                    inventory[1] = route[currDepth+1];
    332a:	80 81       	ld	r24, Z
    332c:	91 81       	ldd	r25, Z+1	; 0x01
    332e:	80 93 46 38 	sts	0x3846, r24	; 0x803846 <inventory+0x2>
    3332:	90 93 47 38 	sts	0x3847, r25	; 0x803847 <inventory+0x3>
    3336:	06 c0       	rjmp	.+12     	; 0x3344 <ProcessInput+0x672>
                                } else {
                                    inventory[0] = route[currDepth+1];
    3338:	80 81       	ld	r24, Z
    333a:	91 81       	ldd	r25, Z+1	; 0x01
    333c:	80 93 44 38 	sts	0x3844, r24	; 0x803844 <inventory>
    3340:	90 93 45 38 	sts	0x3845, r25	; 0x803845 <inventory+0x1>
                                }
                                UpdateState(actObj1.byteField[ACTION_STATE]);
    3344:	80 91 ed 38 	lds	r24, 0x38ED	; 0x8038ed <actObj1.3991+0xa>
    3348:	0e 94 ff 09 	call	0x13fe	; 0x13fe <UpdateState>
    334c:	2b c0       	rjmp	.+86     	; 0x33a4 <ProcessInput+0x6d2>
                } else SetResponse(elements++, A_NOSUCHOBJECT, L_NOSUCHOBJECT, TEASER);
            }
        } else

        //Drop item if in inventory
        if (data[0] == 'd') {
    334e:	84 36       	cpi	r24, 0x64	; 100
    3350:	d9 f4       	brne	.+54     	; 0x3388 <ProcessInput+0x6b6>
            if ((inventory[0] == 0)&&(inventory[1] == 0)){
    3352:	80 91 44 38 	lds	r24, 0x3844	; 0x803844 <inventory>
    3356:	90 91 45 38 	lds	r25, 0x3845	; 0x803845 <inventory+0x1>
    335a:	00 97       	sbiw	r24, 0x00	; 0
    335c:	09 f0       	breq	.+2      	; 0x3360 <ProcessInput+0x68e>
    335e:	3c c4       	rjmp	.+2168   	; 0x3bd8 <ProcessInput+0xf06>
    3360:	80 91 46 38 	lds	r24, 0x3846	; 0x803846 <inventory+0x2>
    3364:	90 91 47 38 	lds	r25, 0x3847	; 0x803847 <inventory+0x3>
    3368:	89 2b       	or	r24, r25
    336a:	49 f4       	brne	.+18     	; 0x337e <ProcessInput+0x6ac>
    return 0;
}

//
void SetResponse(uint8_t number, uint16_t address, uint16_t length, uint8_t type){
    reactStr[0][number]=address;
    336c:	86 ea       	ldi	r24, 0xA6	; 166
    336e:	97 e7       	ldi	r25, 0x77	; 119
    3370:	80 93 26 39 	sts	0x3926, r24	; 0x803926 <reactStr+0x2>
    3374:	90 93 27 39 	sts	0x3927, r25	; 0x803927 <reactStr+0x3>
    reactStr[1][number]=length;
    3378:	86 e2       	ldi	r24, 0x26	; 38
    337a:	90 e0       	ldi	r25, 0x00	; 0
    337c:	72 cd       	rjmp	.-1308   	; 0x2e62 <ProcessInput+0x190>

        //Drop item if in inventory
        if (data[0] == 'd') {
            if ((inventory[0] == 0)&&(inventory[1] == 0)){
                SetResponse(elements++, A_EMPTYHANDS, L_EMPTYHANDS, TEASER);
            } else if (inputLen != 2) {
    337e:	b2 e0       	ldi	r27, 0x02	; 2
    3380:	fb 16       	cp	r15, r27
    3382:	09 f4       	brne	.+2      	; 0x3386 <ProcessInput+0x6b4>
    3384:	8b c4       	rjmp	.+2326   	; 0x3c9c <ProcessInput+0xfca>
    3386:	d8 cc       	rjmp	.-1616   	; 0x2d38 <ProcessInput+0x66>
                }
            }
        } 

        //Inventory list
        else if (data[0] == 'i') {
    3388:	89 36       	cpi	r24, 0x69	; 105
            if ((inventory[0] == 0)&&(inventory[1] == 0)){
    338a:	81 f4       	brne	.+32     	; 0x33ac <ProcessInput+0x6da>
    338c:	80 91 44 38 	lds	r24, 0x3844	; 0x803844 <inventory>
    3390:	90 91 45 38 	lds	r25, 0x3845	; 0x803845 <inventory+0x1>
    3394:	89 2b       	or	r24, r25
    3396:	31 f4       	brne	.+12     	; 0x33a4 <ProcessInput+0x6d2>
    3398:	80 91 46 38 	lds	r24, 0x3846	; 0x803846 <inventory+0x2>
    339c:	90 91 47 38 	lds	r25, 0x3847	; 0x803847 <inventory+0x3>
    33a0:	89 2b       	or	r24, r25
                SetResponse(elements++, A_EMPTYHANDS, L_EMPTYHANDS, TEASER);
                } else {
                    elements = ShowInventory(elements);
    33a2:	21 f3       	breq	.-56     	; 0x336c <ProcessInput+0x69a>
    33a4:	81 e0       	ldi	r24, 0x01	; 1
    33a6:	1a dc       	rcall	.-1996   	; 0x2bdc <ShowInventory>
    33a8:	18 2f       	mov	r17, r24
    33aa:	fe c3       	rjmp	.+2044   	; 0x3ba8 <ProcessInput+0xed6>
                }        
        
        //Talk, use, give, read
        } else if ((data[0] == 't')||(data[0] == 'u')||(data[0] == 'g')||(data[0] == 'r')) {
    33ac:	9c e8       	ldi	r25, 0x8C	; 140
    33ae:	98 0f       	add	r25, r24
    33b0:	92 30       	cpi	r25, 0x02	; 2
    33b2:	28 f0       	brcs	.+10     	; 0x33be <ProcessInput+0x6ec>
    33b4:	87 36       	cpi	r24, 0x67	; 103
    33b6:	19 f0       	breq	.+6      	; 0x33be <ProcessInput+0x6ec>
    33b8:	82 37       	cpi	r24, 0x72	; 114
    33ba:	09 f0       	breq	.+2      	; 0x33be <ProcessInput+0x6ec>
    33bc:	b5 c2       	rjmp	.+1386   	; 0x3928 <ProcessInput+0xc56>
            if ((inputLen<2)||(inputLen>3)) {
    33be:	8e ef       	ldi	r24, 0xFE	; 254
    33c0:	8f 0d       	add	r24, r15
    33c2:	82 30       	cpi	r24, 0x02	; 2
    33c4:	08 f0       	brcs	.+2      	; 0x33c8 <ProcessInput+0x6f6>
    33c6:	b8 cc       	rjmp	.-1680   	; 0x2d38 <ProcessInput+0x66>
                SetResponse(elements++, A_NOTPOSSIBLE, L_NOTPOSSIBLE, TEASER);                
            
            //Check for visible person or object first
            } else {
                route[currDepth+1] = FindChild(route[currDepth], data[inputLen-1], 0);
    33c8:	e0 91 35 38 	lds	r30, 0x3835	; 0x803835 <currDepth>
    33cc:	0e 2f       	mov	r16, r30
    33ce:	10 e0       	ldi	r17, 0x00	; 0
    33d0:	d3 01       	movw	r26, r6
    33d2:	af 0d       	add	r26, r15
    33d4:	b1 1d       	adc	r27, r1
    33d6:	11 97       	sbiw	r26, 0x01	; 1
    33d8:	f8 01       	movw	r30, r16
    33da:	ee 0f       	add	r30, r30
    33dc:	ff 1f       	adc	r31, r31
    33de:	ec 51       	subi	r30, 0x1C	; 28
    33e0:	f6 4c       	sbci	r31, 0xC6	; 198
    33e2:	40 e0       	ldi	r20, 0x00	; 0
    33e4:	50 e0       	ldi	r21, 0x00	; 0
    33e6:	6c 91       	ld	r22, X
    33e8:	80 81       	ld	r24, Z
    33ea:	91 81       	ldd	r25, Z+1	; 0x01
    33ec:	dc d8       	rcall	.-3656   	; 0x25a6 <FindChild>
    33ee:	f8 01       	movw	r30, r16
    33f0:	ee 0f       	add	r30, r30
    33f2:	ff 1f       	adc	r31, r31
    33f4:	ea 51       	subi	r30, 0x1A	; 26
    33f6:	f6 4c       	sbci	r31, 0xC6	; 198
    33f8:	80 83       	st	Z, r24
    33fa:	91 83       	std	Z+1, r25	; 0x01
                if (route[currDepth+1]) {
    33fc:	e0 91 35 38 	lds	r30, 0x3835	; 0x803835 <currDepth>
    3400:	f0 e0       	ldi	r31, 0x00	; 0
    3402:	ee 0f       	add	r30, r30
    3404:	ff 1f       	adc	r31, r31
    3406:	ea 51       	subi	r30, 0x1A	; 26
    3408:	f6 4c       	sbci	r31, 0xC6	; 198
    340a:	80 81       	ld	r24, Z
    340c:	91 81       	ldd	r25, Z+1	; 0x01
    340e:	00 97       	sbiw	r24, 0x00	; 0
    3410:	09 f4       	brne	.+2      	; 0x3414 <ProcessInput+0x742>
    3412:	78 c2       	rjmp	.+1264   	; 0x3904 <ProcessInput+0xc32>
                    
                    //Give item to person / use item on object 
                    if ((inputLen == 3)&&((data[0] == 'u')||(data[0] == 'g'))) {
    3414:	f3 e0       	ldi	r31, 0x03	; 3
    3416:	ff 12       	cpse	r15, r31
    3418:	60 c1       	rjmp	.+704    	; 0x36da <ProcessInput+0xa08>
    341a:	d3 01       	movw	r26, r6
    341c:	2c 91       	ld	r18, X
    341e:	25 37       	cpi	r18, 0x75	; 117
    3420:	19 f0       	breq	.+6      	; 0x3428 <ProcessInput+0x756>
    3422:	27 36       	cpi	r18, 0x67	; 103
    3424:	09 f0       	breq	.+2      	; 0x3428 <ProcessInput+0x756>
    3426:	59 c1       	rjmp	.+690    	; 0x36da <ProcessInput+0xa08>
    3428:	00 e0       	ldi	r16, 0x00	; 0
    342a:	11 e0       	ldi	r17, 0x01	; 1
    return 0;
}

//
void SetResponse(uint8_t number, uint16_t address, uint16_t length, uint8_t type){
    reactStr[0][number]=address;
    342c:	41 e6       	ldi	r20, 0x61	; 97
    342e:	c4 2e       	mov	r12, r20
    3430:	49 e7       	ldi	r20, 0x79	; 121
    3432:	d4 2e       	mov	r13, r20
    reactStr[1][number]=length;
    3434:	51 e2       	ldi	r21, 0x21	; 33
    3436:	a5 2e       	mov	r10, r21
    3438:	b1 2c       	mov	r11, r1
    reactStr[2][number]=type;
    343a:	88 24       	eor	r8, r8
    343c:	83 94       	inc	r8
                if (route[currDepth+1]) {
                    
                    //Give item to person / use item on object 
                    if ((inputLen == 3)&&((data[0] == 'u')||(data[0] == 'g'))) {
                        for (uint8_t x=0; x<2; ++x) {
                            if (inventory[x]) { 
    343e:	91 2c       	mov	r9, r1
    3440:	e0 2e       	mov	r14, r16
    3442:	f1 2c       	mov	r15, r1
    3444:	c7 01       	movw	r24, r14
    3446:	88 0f       	add	r24, r24
    3448:	99 1f       	adc	r25, r25
    344a:	fc 01       	movw	r30, r24
    344c:	ec 5b       	subi	r30, 0xBC	; 188
    344e:	f7 4c       	sbci	r31, 0xC7	; 199
    3450:	7f 01       	movw	r14, r30
    3452:	80 81       	ld	r24, Z
    3454:	91 81       	ldd	r25, Z+1	; 0x01
    3456:	00 97       	sbiw	r24, 0x00	; 0
                                if (CheckLetter(inventory[x], data[1])) {
    3458:	79 f0       	breq	.+30     	; 0x3478 <ProcessInput+0x7a6>
    345a:	d3 01       	movw	r26, r6
    345c:	11 96       	adiw	r26, 0x01	; 1
    345e:	6c 91       	ld	r22, X
    3460:	5b d8       	rcall	.-3914   	; 0x2518 <CheckLetter>
    3462:	88 23       	and	r24, r24
    3464:	49 f0       	breq	.+18     	; 0x3478 <ProcessInput+0x7a6>
                                    PopulateObject(inventory[x], &actObj2);
    3466:	68 eb       	ldi	r22, 0xB8	; 184
    3468:	78 e3       	ldi	r23, 0x38	; 56
    346a:	f7 01       	movw	r30, r14
    346c:	80 81       	ld	r24, Z
    346e:	91 81       	ldd	r25, Z+1	; 0x01
    3470:	0e 94 13 12 	call	0x2426	; 0x2426 <PopulateObject>
                                    x = 2;
    3474:	02 e0       	ldi	r16, 0x02	; 2
    3476:	1d c0       	rjmp	.+58     	; 0x34b2 <ProcessInput+0x7e0>
                                }
                            }
                            if (x == 1) { 
    3478:	01 30       	cpi	r16, 0x01	; 1
    347a:	d1 f4       	brne	.+52     	; 0x34b0 <ProcessInput+0x7de>
    return 0;
}

//
void SetResponse(uint8_t number, uint16_t address, uint16_t length, uint8_t type){
    reactStr[0][number]=address;
    347c:	e1 2f       	mov	r30, r17
    347e:	f0 e0       	ldi	r31, 0x00	; 0
    3480:	df 01       	movw	r26, r30
    3482:	aa 0f       	add	r26, r26
    3484:	bb 1f       	adc	r27, r27
    3486:	ac 5d       	subi	r26, 0xDC	; 220
    3488:	b6 4c       	sbci	r27, 0xC6	; 198
    348a:	cd 92       	st	X+, r12
    348c:	dc 92       	st	X, r13
    reactStr[1][number]=length;
    348e:	df 01       	movw	r26, r30
    3490:	aa 0f       	add	r26, r26
    3492:	bb 1f       	adc	r27, r27
    3494:	ac 59       	subi	r26, 0x9C	; 156
    3496:	b6 4c       	sbci	r27, 0xC6	; 198
    3498:	ad 92       	st	X+, r10
    349a:	bc 92       	st	X, r11
    reactStr[2][number]=type;
    349c:	ee 0f       	add	r30, r30
    349e:	ff 1f       	adc	r31, r31
    34a0:	ec 55       	subi	r30, 0x5C	; 92
    34a2:	f6 4c       	sbci	r31, 0xC6	; 198
    34a4:	80 82       	st	Z, r8
    34a6:	91 82       	std	Z+1, r9	; 0x01
                                    x = 2;
                                }
                            }
                            if (x == 1) { 
                                SetResponse(elements++, A_NOTCARRYING, L_NOTCARRYING, TEASER);
                                data[0] = 0;
    34a8:	d3 01       	movw	r26, r6
    34aa:	1c 92       	st	X, r1
                                    PopulateObject(inventory[x], &actObj2);
                                    x = 2;
                                }
                            }
                            if (x == 1) { 
                                SetResponse(elements++, A_NOTCARRYING, L_NOTCARRYING, TEASER);
    34ac:	1f 5f       	subi	r17, 0xFF	; 255
    34ae:	01 c0       	rjmp	.+2      	; 0x34b2 <ProcessInput+0x7e0>
    34b0:	00 e0       	ldi	r16, 0x00	; 0
                route[currDepth+1] = FindChild(route[currDepth], data[inputLen-1], 0);
                if (route[currDepth+1]) {
                    
                    //Give item to person / use item on object 
                    if ((inputLen == 3)&&((data[0] == 'u')||(data[0] == 'g'))) {
                        for (uint8_t x=0; x<2; ++x) {
    34b2:	0f 5f       	subi	r16, 0xFF	; 255
    34b4:	01 30       	cpi	r16, 0x01	; 1
    34b6:	21 f2       	breq	.-120    	; 0x3440 <ProcessInput+0x76e>
                                data[0] = 0;
                            }
                        }

                        //Both the item and person/object are found, check if action is legit
                        if (data[0]){
    34b8:	f3 01       	movw	r30, r6
    34ba:	80 81       	ld	r24, Z
    34bc:	88 23       	and	r24, r24
    34be:	09 f4       	brne	.+2      	; 0x34c2 <ProcessInput+0x7f0>
    34c0:	73 c3       	rjmp	.+1766   	; 0x3ba8 <ProcessInput+0xed6>
                            PopulateObject(route[currDepth+1], &actObj1);
    34c2:	e0 91 35 38 	lds	r30, 0x3835	; 0x803835 <currDepth>
    34c6:	f0 e0       	ldi	r31, 0x00	; 0
    34c8:	ee 0f       	add	r30, r30
    34ca:	ff 1f       	adc	r31, r31
    34cc:	ea 51       	subi	r30, 0x1A	; 26
    34ce:	f6 4c       	sbci	r31, 0xC6	; 198
    34d0:	63 ee       	ldi	r22, 0xE3	; 227
    34d2:	78 e3       	ldi	r23, 0x38	; 56
    34d4:	80 81       	ld	r24, Z
    34d6:	91 81       	ldd	r25, Z+1	; 0x01
    34d8:	0e 94 13 12 	call	0x2426	; 0x2426 <PopulateObject>

                            //Special game
                            if (actObj1.lenStr[ACTION_STR1] == 1) {
    34dc:	e0 90 01 39 	lds	r14, 0x3901	; 0x803901 <actObj1.3991+0x1e>
    34e0:	f0 90 02 39 	lds	r15, 0x3902	; 0x803902 <actObj1.3991+0x1f>
    34e4:	f1 e0       	ldi	r31, 0x01	; 1
    34e6:	ef 16       	cp	r14, r31
    34e8:	f1 04       	cpc	r15, r1
    34ea:	09 f0       	breq	.+2      	; 0x34ee <ProcessInput+0x81c>
    34ec:	89 c0       	rjmp	.+274    	; 0x3600 <ProcessInput+0x92e>
                                ExtEERead(actObj1.addrStr[ACTION_STR1], 1, GAME, &data[2]);
    34ee:	93 01       	movw	r18, r6
    34f0:	2e 5f       	subi	r18, 0xFE	; 254
    34f2:	3f 4f       	sbci	r19, 0xFF	; 255
    34f4:	40 e0       	ldi	r20, 0x00	; 0
    34f6:	61 e0       	ldi	r22, 0x01	; 1
    34f8:	80 91 f3 38 	lds	r24, 0x38F3	; 0x8038f3 <actObj1.3991+0x10>
    34fc:	90 91 f4 38 	lds	r25, 0x38F4	; 0x8038f4 <actObj1.3991+0x11>
    3500:	0e 94 69 08 	call	0x10d2	; 0x10d2 <ExtEERead>
                                if (data[2] == '1') {
    3504:	d3 01       	movw	r26, r6
    3506:	12 96       	adiw	r26, 0x02	; 2
    3508:	3c 91       	ld	r19, X
    350a:	31 33       	cpi	r19, 0x31	; 49
    350c:	09 f0       	breq	.+2      	; 0x3510 <ProcessInput+0x83e>
    350e:	4c c3       	rjmp	.+1688   	; 0x3ba8 <ProcessInput+0xed6>
                                    uint8_t item = actObj2.byteField[ITEM_NR];
    3510:	20 91 c3 38 	lds	r18, 0x38C3	; 0x8038c3 <actObj2.3992+0xb>
                                    if ((item < 31)||(item > 34)) {
    3514:	51 ee       	ldi	r21, 0xE1	; 225
    3516:	52 0f       	add	r21, r18
    3518:	41 e0       	ldi	r20, 0x01	; 1
    351a:	41 0f       	add	r20, r17
    351c:	81 2f       	mov	r24, r17
    351e:	90 e0       	ldi	r25, 0x00	; 0
    return 0;
}

//
void SetResponse(uint8_t number, uint16_t address, uint16_t length, uint8_t type){
    reactStr[0][number]=address;
    3520:	fc 01       	movw	r30, r24
    3522:	ee 0f       	add	r30, r30
    3524:	ff 1f       	adc	r31, r31
    3526:	ec 5d       	subi	r30, 0xDC	; 220
    3528:	f6 4c       	sbci	r31, 0xC6	; 198
                            //Special game
                            if (actObj1.lenStr[ACTION_STR1] == 1) {
                                ExtEERead(actObj1.addrStr[ACTION_STR1], 1, GAME, &data[2]);
                                if (data[2] == '1') {
                                    uint8_t item = actObj2.byteField[ITEM_NR];
                                    if ((item < 31)||(item > 34)) {
    352a:	54 30       	cpi	r21, 0x04	; 4
    352c:	b0 f0       	brcs	.+44     	; 0x355a <ProcessInput+0x888>
    return 0;
}

//
void SetResponse(uint8_t number, uint16_t address, uint16_t length, uint8_t type){
    reactStr[0][number]=address;
    352e:	21 e0       	ldi	r18, 0x01	; 1
    3530:	39 e7       	ldi	r19, 0x79	; 121
    3532:	20 83       	st	Z, r18
    3534:	31 83       	std	Z+1, r19	; 0x01
    reactStr[1][number]=length;
    3536:	fc 01       	movw	r30, r24
    3538:	ee 0f       	add	r30, r30
    353a:	ff 1f       	adc	r31, r31
    353c:	ec 59       	subi	r30, 0x9C	; 156
    353e:	f6 4c       	sbci	r31, 0xC6	; 198
    3540:	2a e1       	ldi	r18, 0x1A	; 26
    3542:	30 e0       	ldi	r19, 0x00	; 0
    3544:	20 83       	st	Z, r18
    3546:	31 83       	std	Z+1, r19	; 0x01
    reactStr[2][number]=type;
    3548:	88 0f       	add	r24, r24
    354a:	99 1f       	adc	r25, r25
    354c:	fc 01       	movw	r30, r24
    354e:	ec 55       	subi	r30, 0x5C	; 92
    3550:	f6 4c       	sbci	r31, 0xC6	; 198
    3552:	e0 82       	st	Z, r14
    3554:	f1 82       	std	Z+1, r15	; 0x01
                            if (actObj1.lenStr[ACTION_STR1] == 1) {
                                ExtEERead(actObj1.addrStr[ACTION_STR1], 1, GAME, &data[2]);
                                if (data[2] == '1') {
                                    uint8_t item = actObj2.byteField[ITEM_NR];
                                    if ((item < 31)||(item > 34)) {
                                        SetResponse(elements++, A_CANTUSE, L_CANTUSE, TEASER);
    3556:	14 2f       	mov	r17, r20
    3558:	27 c3       	rjmp	.+1614   	; 0x3ba8 <ProcessInput+0xed6>
    return 0;
}

//
void SetResponse(uint8_t number, uint16_t address, uint16_t length, uint8_t type){
    reactStr[0][number]=address;
    355a:	60 e5       	ldi	r22, 0x50	; 80
    355c:	75 e7       	ldi	r23, 0x75	; 117
    355e:	60 83       	st	Z, r22
    3560:	71 83       	std	Z+1, r23	; 0x01
    reactStr[1][number]=length;
    3562:	fc 01       	movw	r30, r24
    3564:	ee 0f       	add	r30, r30
    3566:	ff 1f       	adc	r31, r31
    3568:	ec 59       	subi	r30, 0x9C	; 156
    356a:	f6 4c       	sbci	r31, 0xC6	; 198
    356c:	62 eb       	ldi	r22, 0xB2	; 178
    356e:	70 e0       	ldi	r23, 0x00	; 0
    3570:	60 83       	st	Z, r22
    3572:	71 83       	std	Z+1, r23	; 0x01
    reactStr[2][number]=type;
    3574:	88 0f       	add	r24, r24
    3576:	99 1f       	adc	r25, r25
    3578:	fc 01       	movw	r30, r24
    357a:	ec 55       	subi	r30, 0x5C	; 92
    357c:	f6 4c       	sbci	r31, 0xC6	; 198
    357e:	e0 82       	st	Z, r14
    3580:	f1 82       	std	Z+1, r15	; 0x01
    return 0;
}

//
void SetResponse(uint8_t number, uint16_t address, uint16_t length, uint8_t type){
    reactStr[0][number]=address;
    3582:	84 2f       	mov	r24, r20
    3584:	90 e0       	ldi	r25, 0x00	; 0
    3586:	fc 01       	movw	r30, r24
    3588:	ee 0f       	add	r30, r30
    358a:	ff 1f       	adc	r31, r31
    358c:	ec 5d       	subi	r30, 0xDC	; 220
    358e:	f6 4c       	sbci	r31, 0xC6	; 198
    3590:	49 e5       	ldi	r20, 0x59	; 89
    3592:	5a e7       	ldi	r21, 0x7A	; 122
    3594:	40 83       	st	Z, r20
    3596:	51 83       	std	Z+1, r21	; 0x01
    reactStr[1][number]=length;
    3598:	fc 01       	movw	r30, r24
    359a:	ee 0f       	add	r30, r30
    359c:	ff 1f       	adc	r31, r31
    359e:	ec 59       	subi	r30, 0x9C	; 156
    35a0:	f6 4c       	sbci	r31, 0xC6	; 198
    35a2:	42 e0       	ldi	r20, 0x02	; 2
    35a4:	50 e0       	ldi	r21, 0x00	; 0
    35a6:	40 83       	st	Z, r20
    35a8:	51 83       	std	Z+1, r21	; 0x01
    reactStr[2][number]=type;
    35aa:	88 0f       	add	r24, r24
    35ac:	99 1f       	adc	r25, r25
    35ae:	fc 01       	movw	r30, r24
    35b0:	ec 55       	subi	r30, 0x5C	; 92
    35b2:	f6 4c       	sbci	r31, 0xC6	; 198
    35b4:	e0 82       	st	Z, r14
    35b6:	f1 82       	std	Z+1, r15	; 0x01
    return 0;
}

//
void SetResponse(uint8_t number, uint16_t address, uint16_t length, uint8_t type){
    reactStr[0][number]=address;
    35b8:	82 e0       	ldi	r24, 0x02	; 2
    35ba:	81 0f       	add	r24, r17
    35bc:	90 e0       	ldi	r25, 0x00	; 0
    35be:	1d 5f       	subi	r17, 0xFD	; 253
    35c0:	fc 01       	movw	r30, r24
    35c2:	ee 0f       	add	r30, r30
    35c4:	ff 1f       	adc	r31, r31
    35c6:	ec 5d       	subi	r30, 0xDC	; 220
    35c8:	f6 4c       	sbci	r31, 0xC6	; 198
    35ca:	4d ea       	ldi	r20, 0xAD	; 173
    35cc:	58 e7       	ldi	r21, 0x78	; 120
    35ce:	40 83       	st	Z, r20
    35d0:	51 83       	std	Z+1, r21	; 0x01
    reactStr[1][number]=length;
    35d2:	fc 01       	movw	r30, r24
    35d4:	ee 0f       	add	r30, r30
    35d6:	ff 1f       	adc	r31, r31
    35d8:	ec 59       	subi	r30, 0x9C	; 156
    35da:	f6 4c       	sbci	r31, 0xC6	; 198
    35dc:	42 e1       	ldi	r20, 0x12	; 18
    35de:	50 e0       	ldi	r21, 0x00	; 0
    35e0:	40 83       	st	Z, r20
    35e2:	51 83       	std	Z+1, r21	; 0x01
    reactStr[2][number]=type;
    35e4:	88 0f       	add	r24, r24
    35e6:	99 1f       	adc	r25, r25
    35e8:	fc 01       	movw	r30, r24
    35ea:	ec 55       	subi	r30, 0x5C	; 92
    35ec:	f6 4c       	sbci	r31, 0xC6	; 198
    35ee:	e0 82       	st	Z, r14
    35f0:	f1 82       	std	Z+1, r15	; 0x01
                                        SetResponse(elements++, A_CANTUSE, L_CANTUSE, TEASER);
                                    } else {
                                        SetResponse(elements++, A_PRIEST, L_PRIEST, TEASER);
                                        SetResponse(elements++, A_LF, 2, TEASER);
                                        SetResponse(elements++, A_RESPONSE, L_RESPONSE, TEASER);
                                        specialInput[0] = '1';
    35f2:	30 93 13 39 	sts	0x3913, r19	; 0x803913 <specialInput>
                                        specialInput[1] = item;
    35f6:	20 93 14 39 	sts	0x3914, r18	; 0x803914 <specialInput+0x1>
                                        specialInput[2] = 0;
    35fa:	10 92 15 39 	sts	0x3915, r1	; 0x803915 <specialInput+0x2>
    35fe:	d4 c2       	rjmp	.+1448   	; 0x3ba8 <ProcessInput+0xed6>
                                    }
                                }

                            //Normal "use ... on ..." or "give ... to ..." action
                            } else if (actObj1.byteField[ACTION_ITEM] == actObj2.byteField[ITEM_NR]) {
    3600:	90 91 ec 38 	lds	r25, 0x38EC	; 0x8038ec <actObj1.3991+0x9>
    3604:	80 91 c3 38 	lds	r24, 0x38C3	; 0x8038c3 <actObj2.3992+0xb>
    3608:	98 13       	cpse	r25, r24
    360a:	2e c0       	rjmp	.+92     	; 0x3668 <ProcessInput+0x996>
                                SetResponse(elements++, actObj1.addrStr[ACTION_MSG], actObj1.lenStr[ACTION_MSG], GAME);
    360c:	20 91 09 39 	lds	r18, 0x3909	; 0x803909 <actObj1.3991+0x26>
    3610:	30 91 0a 39 	lds	r19, 0x390A	; 0x80390a <actObj1.3991+0x27>
    3614:	01 e0       	ldi	r16, 0x01	; 1
    3616:	01 0f       	add	r16, r17
    return 0;
}

//
void SetResponse(uint8_t number, uint16_t address, uint16_t length, uint8_t type){
    reactStr[0][number]=address;
    3618:	81 2f       	mov	r24, r17
    361a:	90 e0       	ldi	r25, 0x00	; 0
    361c:	fc 01       	movw	r30, r24
    361e:	ee 0f       	add	r30, r30
    3620:	ff 1f       	adc	r31, r31
    3622:	ec 5d       	subi	r30, 0xDC	; 220
    3624:	f6 4c       	sbci	r31, 0xC6	; 198
    3626:	40 91 fb 38 	lds	r20, 0x38FB	; 0x8038fb <actObj1.3991+0x18>
    362a:	50 91 fc 38 	lds	r21, 0x38FC	; 0x8038fc <actObj1.3991+0x19>
    362e:	40 83       	st	Z, r20
    3630:	51 83       	std	Z+1, r21	; 0x01
    reactStr[1][number]=length;
    3632:	fc 01       	movw	r30, r24
    3634:	ee 0f       	add	r30, r30
    3636:	ff 1f       	adc	r31, r31
    3638:	ec 59       	subi	r30, 0x9C	; 156
    363a:	f6 4c       	sbci	r31, 0xC6	; 198
    363c:	20 83       	st	Z, r18
    363e:	31 83       	std	Z+1, r19	; 0x01
    reactStr[2][number]=type;
    3640:	88 0f       	add	r24, r24
    3642:	99 1f       	adc	r25, r25
    3644:	fc 01       	movw	r30, r24
    3646:	ec 55       	subi	r30, 0x5C	; 92
    3648:	f6 4c       	sbci	r31, 0xC6	; 198
    364a:	10 82       	st	Z, r1
    364c:	11 82       	std	Z+1, r1	; 0x01
                                }

                            //Normal "use ... on ..." or "give ... to ..." action
                            } else if (actObj1.byteField[ACTION_ITEM] == actObj2.byteField[ITEM_NR]) {
                                SetResponse(elements++, actObj1.addrStr[ACTION_MSG], actObj1.lenStr[ACTION_MSG], GAME);
                                effect = actObj1.effect[2];
    364e:	80 91 0d 39 	lds	r24, 0x390D	; 0x80390d <actObj1.3991+0x2a>
    3652:	90 e0       	ldi	r25, 0x00	; 0
    3654:	80 93 40 38 	sts	0x3840, r24	; 0x803840 <effect>
    3658:	90 93 41 38 	sts	0x3841, r25	; 0x803841 <effect+0x1>
                                UpdateState(actObj1.byteField[ACTION_STATE]);
    365c:	80 91 ed 38 	lds	r24, 0x38ED	; 0x8038ed <actObj1.3991+0xa>
    3660:	0e 94 ff 09 	call	0x13fe	; 0x13fe <UpdateState>
                                    }
                                }

                            //Normal "use ... on ..." or "give ... to ..." action
                            } else if (actObj1.byteField[ACTION_ITEM] == actObj2.byteField[ITEM_NR]) {
                                SetResponse(elements++, actObj1.addrStr[ACTION_MSG], actObj1.lenStr[ACTION_MSG], GAME);
    3664:	10 2f       	mov	r17, r16
    3666:	a0 c2       	rjmp	.+1344   	; 0x3ba8 <ProcessInput+0xed6>
                                effect = actObj1.effect[2];
                                UpdateState(actObj1.byteField[ACTION_STATE]);
                                
                            } else {
                                if (data[0] == 'u') {
    3668:	f3 01       	movw	r30, r6
    366a:	80 81       	ld	r24, Z
    366c:	85 37       	cpi	r24, 0x75	; 117
    366e:	99 f4       	brne	.+38     	; 0x3696 <ProcessInput+0x9c4>
    return 0;
}

//
void SetResponse(uint8_t number, uint16_t address, uint16_t length, uint8_t type){
    reactStr[0][number]=address;
    3670:	81 2f       	mov	r24, r17
    3672:	90 e0       	ldi	r25, 0x00	; 0
    3674:	fc 01       	movw	r30, r24
    3676:	ee 0f       	add	r30, r30
    3678:	ff 1f       	adc	r31, r31
    367a:	ec 5d       	subi	r30, 0xDC	; 220
    367c:	f6 4c       	sbci	r31, 0xC6	; 198
    367e:	21 e0       	ldi	r18, 0x01	; 1
    3680:	39 e7       	ldi	r19, 0x79	; 121
    3682:	20 83       	st	Z, r18
    3684:	31 83       	std	Z+1, r19	; 0x01
    reactStr[1][number]=length;
    3686:	fc 01       	movw	r30, r24
    3688:	ee 0f       	add	r30, r30
    368a:	ff 1f       	adc	r31, r31
    368c:	ec 59       	subi	r30, 0x9C	; 156
    368e:	f6 4c       	sbci	r31, 0xC6	; 198
    3690:	2a e1       	ldi	r18, 0x1A	; 26
    3692:	30 e0       	ldi	r19, 0x00	; 0
    3694:	15 c0       	rjmp	.+42     	; 0x36c0 <ProcessInput+0x9ee>
                                UpdateState(actObj1.byteField[ACTION_STATE]);
                                
                            } else {
                                if (data[0] == 'u') {
                                    SetResponse(elements++, A_CANTUSE, L_CANTUSE, TEASER);
                                } else if (data[0] == 'g') {
    3696:	87 36       	cpi	r24, 0x67	; 103
    3698:	09 f0       	breq	.+2      	; 0x369c <ProcessInput+0x9ca>
    369a:	86 c2       	rjmp	.+1292   	; 0x3ba8 <ProcessInput+0xed6>
    return 0;
}

//
void SetResponse(uint8_t number, uint16_t address, uint16_t length, uint8_t type){
    reactStr[0][number]=address;
    369c:	81 2f       	mov	r24, r17
    369e:	90 e0       	ldi	r25, 0x00	; 0
    36a0:	fc 01       	movw	r30, r24
    36a2:	ee 0f       	add	r30, r30
    36a4:	ff 1f       	adc	r31, r31
    36a6:	ec 5d       	subi	r30, 0xDC	; 220
    36a8:	f6 4c       	sbci	r31, 0xC6	; 198
    36aa:	2f e9       	ldi	r18, 0x9F	; 159
    36ac:	36 e7       	ldi	r19, 0x76	; 118
    36ae:	20 83       	st	Z, r18
    36b0:	31 83       	std	Z+1, r19	; 0x01
    reactStr[1][number]=length;
    36b2:	fc 01       	movw	r30, r24
    36b4:	ee 0f       	add	r30, r30
    36b6:	ff 1f       	adc	r31, r31
    36b8:	ec 59       	subi	r30, 0x9C	; 156
    36ba:	f6 4c       	sbci	r31, 0xC6	; 198
    36bc:	28 e2       	ldi	r18, 0x28	; 40
    36be:	30 e0       	ldi	r19, 0x00	; 0
    36c0:	20 83       	st	Z, r18
    36c2:	31 83       	std	Z+1, r19	; 0x01
    reactStr[2][number]=type;
    36c4:	88 0f       	add	r24, r24
    36c6:	99 1f       	adc	r25, r25
    36c8:	fc 01       	movw	r30, r24
    36ca:	ec 55       	subi	r30, 0x5C	; 92
    36cc:	f6 4c       	sbci	r31, 0xC6	; 198
    36ce:	81 e0       	ldi	r24, 0x01	; 1
    36d0:	90 e0       	ldi	r25, 0x00	; 0
    36d2:	80 83       	st	Z, r24
    36d4:	91 83       	std	Z+1, r25	; 0x01
                                
                            } else {
                                if (data[0] == 'u') {
                                    SetResponse(elements++, A_CANTUSE, L_CANTUSE, TEASER);
                                } else if (data[0] == 'g') {
                                    SetResponse(elements++, A_CANTGIVE, L_CANTGIVE, TEASER);                                    
    36d6:	1f 5f       	subi	r17, 0xFF	; 255
    36d8:	67 c2       	rjmp	.+1230   	; 0x3ba8 <ProcessInput+0xed6>
                            }
                        }
                    
                    //Talk to person, read or use object (without item)                          
                    } else {
                        PopulateObject(route[currDepth+1], &actObj1);
    36da:	63 ee       	ldi	r22, 0xE3	; 227
    36dc:	78 e3       	ldi	r23, 0x38	; 56
    36de:	0e 94 13 12 	call	0x2426	; 0x2426 <PopulateObject>
                        if ((data[0] == 't')&&((actObj1.byteField[ACTION_MASK]&TALK) == 0)) {
    36e2:	d3 01       	movw	r26, r6
    36e4:	8c 91       	ld	r24, X
    36e6:	84 37       	cpi	r24, 0x74	; 116
    36e8:	61 f5       	brne	.+88     	; 0x3742 <ProcessInput+0xa70>
    36ea:	80 91 eb 38 	lds	r24, 0x38EB	; 0x8038eb <actObj1.3991+0x8>
    36ee:	83 fd       	sbrc	r24, 3
    36f0:	43 c0       	rjmp	.+134    	; 0x3778 <ProcessInput+0xaa6>
    return 0;
}

//
void SetResponse(uint8_t number, uint16_t address, uint16_t length, uint8_t type){
    reactStr[0][number]=address;
    36f2:	8b e1       	ldi	r24, 0x1B	; 27
    36f4:	99 e7       	ldi	r25, 0x79	; 121
    36f6:	80 93 26 39 	sts	0x3926, r24	; 0x803926 <reactStr+0x2>
    36fa:	90 93 27 39 	sts	0x3927, r25	; 0x803927 <reactStr+0x3>
    reactStr[1][number]=length;
    36fe:	8e e1       	ldi	r24, 0x1E	; 30
    3700:	90 e0       	ldi	r25, 0x00	; 0
    3702:	80 93 66 39 	sts	0x3966, r24	; 0x803966 <reactStr+0x42>
    3706:	90 93 67 39 	sts	0x3967, r25	; 0x803967 <reactStr+0x43>
    reactStr[2][number]=type;
    370a:	81 e0       	ldi	r24, 0x01	; 1
    370c:	90 e0       	ldi	r25, 0x00	; 0
    370e:	80 93 a6 39 	sts	0x39A6, r24	; 0x8039a6 <reactStr+0x82>
    3712:	90 93 a7 39 	sts	0x39A7, r25	; 0x8039a7 <reactStr+0x83>
                    //Talk to person, read or use object (without item)                          
                    } else {
                        PopulateObject(route[currDepth+1], &actObj1);
                        if ((data[0] == 't')&&((actObj1.byteField[ACTION_MASK]&TALK) == 0)) {
                            SetResponse(elements++, A_WHYTALK, L_WHYTALK, TEASER);
                            SetResponse(elements++, actObj1.addrStr[NAME], actObj1.lenStr[NAME], GAME);
    3716:	80 91 fd 38 	lds	r24, 0x38FD	; 0x8038fd <actObj1.3991+0x1a>
    371a:	90 91 fe 38 	lds	r25, 0x38FE	; 0x8038fe <actObj1.3991+0x1b>
    return 0;
}

//
void SetResponse(uint8_t number, uint16_t address, uint16_t length, uint8_t type){
    reactStr[0][number]=address;
    371e:	20 91 ef 38 	lds	r18, 0x38EF	; 0x8038ef <actObj1.3991+0xc>
    3722:	30 91 f0 38 	lds	r19, 0x38F0	; 0x8038f0 <actObj1.3991+0xd>
    3726:	20 93 28 39 	sts	0x3928, r18	; 0x803928 <reactStr+0x4>
    372a:	30 93 29 39 	sts	0x3929, r19	; 0x803929 <reactStr+0x5>
    reactStr[1][number]=length;
    372e:	80 93 68 39 	sts	0x3968, r24	; 0x803968 <reactStr+0x44>
    3732:	90 93 69 39 	sts	0x3969, r25	; 0x803969 <reactStr+0x45>
    reactStr[2][number]=type;
    3736:	10 92 a8 39 	sts	0x39A8, r1	; 0x8039a8 <reactStr+0x84>
    373a:	10 92 a9 39 	sts	0x39A9, r1	; 0x8039a9 <reactStr+0x85>
                    //Talk to person, read or use object (without item)                          
                    } else {
                        PopulateObject(route[currDepth+1], &actObj1);
                        if ((data[0] == 't')&&((actObj1.byteField[ACTION_MASK]&TALK) == 0)) {
                            SetResponse(elements++, A_WHYTALK, L_WHYTALK, TEASER);
                            SetResponse(elements++, actObj1.addrStr[NAME], actObj1.lenStr[NAME], GAME);
    373e:	13 e0       	ldi	r17, 0x03	; 3
    3740:	33 c2       	rjmp	.+1126   	; 0x3ba8 <ProcessInput+0xed6>
                        } else if ((data[0] == 'u')&&((actObj1.byteField[ACTION_MASK]&USE) == 0)) {
    3742:	85 37       	cpi	r24, 0x75	; 117
    3744:	39 f4       	brne	.+14     	; 0x3754 <ProcessInput+0xa82>
    3746:	80 91 eb 38 	lds	r24, 0x38EB	; 0x8038eb <actObj1.3991+0x8>
    374a:	84 fd       	sbrc	r24, 4
    374c:	15 c0       	rjmp	.+42     	; 0x3778 <ProcessInput+0xaa6>
    return 0;
}

//
void SetResponse(uint8_t number, uint16_t address, uint16_t length, uint8_t type){
    reactStr[0][number]=address;
    374e:	81 e0       	ldi	r24, 0x01	; 1
    3750:	99 e7       	ldi	r25, 0x79	; 121
    3752:	3b c2       	rjmp	.+1142   	; 0x3bca <ProcessInput+0xef8>
                        if ((data[0] == 't')&&((actObj1.byteField[ACTION_MASK]&TALK) == 0)) {
                            SetResponse(elements++, A_WHYTALK, L_WHYTALK, TEASER);
                            SetResponse(elements++, actObj1.addrStr[NAME], actObj1.lenStr[NAME], GAME);
                        } else if ((data[0] == 'u')&&((actObj1.byteField[ACTION_MASK]&USE) == 0)) {
                            SetResponse(elements++, A_CANTUSE, L_CANTUSE, TEASER);
                        } else if ((data[0] == 'r')&&((actObj1.byteField[ACTION_MASK]&READ) == 0)) {
    3754:	82 37       	cpi	r24, 0x72	; 114
    3756:	69 f4       	brne	.+26     	; 0x3772 <ProcessInput+0xaa0>
    3758:	80 91 eb 38 	lds	r24, 0x38EB	; 0x8038eb <actObj1.3991+0x8>
    375c:	85 fd       	sbrc	r24, 5
    375e:	0c c0       	rjmp	.+24     	; 0x3778 <ProcessInput+0xaa6>
    return 0;
}

//
void SetResponse(uint8_t number, uint16_t address, uint16_t length, uint8_t type){
    reactStr[0][number]=address;
    3760:	86 ee       	ldi	r24, 0xE6	; 230
    3762:	98 e7       	ldi	r25, 0x78	; 120
    3764:	80 93 26 39 	sts	0x3926, r24	; 0x803926 <reactStr+0x2>
    3768:	90 93 27 39 	sts	0x3927, r25	; 0x803927 <reactStr+0x3>
    reactStr[1][number]=length;
    376c:	8b e1       	ldi	r24, 0x1B	; 27
    376e:	90 e0       	ldi	r25, 0x00	; 0
    3770:	78 cb       	rjmp	.-2320   	; 0x2e62 <ProcessInput+0x190>
                            SetResponse(elements++, actObj1.addrStr[NAME], actObj1.lenStr[NAME], GAME);
                        } else if ((data[0] == 'u')&&((actObj1.byteField[ACTION_MASK]&USE) == 0)) {
                            SetResponse(elements++, A_CANTUSE, L_CANTUSE, TEASER);
                        } else if ((data[0] == 'r')&&((actObj1.byteField[ACTION_MASK]&READ) == 0)) {
                            SetResponse(elements++, A_CANTREAD, L_CANTREAD, TEASER);
                        } else if (data[0] == 'g'){ 
    3772:	87 36       	cpi	r24, 0x67	; 103
    3774:	09 f4       	brne	.+2      	; 0x3778 <ProcessInput+0xaa6>
    3776:	e0 ca       	rjmp	.-2624   	; 0x2d38 <ProcessInput+0x66>
                            SetResponse(elements++, A_NOTPOSSIBLE, L_NOTPOSSIBLE, TEASER);  
                        } else {

                            //Special game, not enough characters
                            if (actObj1.lenStr[ACTION_STR1] == 1) {
    3778:	00 91 01 39 	lds	r16, 0x3901	; 0x803901 <actObj1.3991+0x1e>
    377c:	10 91 02 39 	lds	r17, 0x3902	; 0x803902 <actObj1.3991+0x1f>
    3780:	01 30       	cpi	r16, 0x01	; 1
    3782:	11 05       	cpc	r17, r1
    3784:	09 f5       	brne	.+66     	; 0x37c8 <ProcessInput+0xaf6>
                                ExtEERead(actObj1.addrStr[ACTION_STR1], 1, GAME, &data[2]);
    3786:	93 01       	movw	r18, r6
    3788:	2e 5f       	subi	r18, 0xFE	; 254
    378a:	3f 4f       	sbci	r19, 0xFF	; 255
    378c:	40 e0       	ldi	r20, 0x00	; 0
    378e:	61 e0       	ldi	r22, 0x01	; 1
    3790:	80 91 f3 38 	lds	r24, 0x38F3	; 0x8038f3 <actObj1.3991+0x10>
    3794:	90 91 f4 38 	lds	r25, 0x38F4	; 0x8038f4 <actObj1.3991+0x11>
    3798:	0e 94 69 08 	call	0x10d2	; 0x10d2 <ExtEERead>
                                if (data[2] == '1') {
    379c:	f3 01       	movw	r30, r6
    379e:	82 81       	ldd	r24, Z+2	; 0x02
    37a0:	81 33       	cpi	r24, 0x31	; 49
    37a2:	09 f0       	breq	.+2      	; 0x37a6 <ProcessInput+0xad4>
    37a4:	13 cd       	rjmp	.-1498   	; 0x31cc <ProcessInput+0x4fa>
    return 0;
}

//
void SetResponse(uint8_t number, uint16_t address, uint16_t length, uint8_t type){
    reactStr[0][number]=address;
    37a6:	85 e2       	ldi	r24, 0x25	; 37
    37a8:	95 e7       	ldi	r25, 0x75	; 117
    37aa:	80 93 26 39 	sts	0x3926, r24	; 0x803926 <reactStr+0x2>
    37ae:	90 93 27 39 	sts	0x3927, r25	; 0x803927 <reactStr+0x3>
    reactStr[1][number]=length;
    37b2:	8b e2       	ldi	r24, 0x2B	; 43
    37b4:	90 e0       	ldi	r25, 0x00	; 0
    37b6:	80 93 66 39 	sts	0x3966, r24	; 0x803966 <reactStr+0x42>
    37ba:	90 93 67 39 	sts	0x3967, r25	; 0x803967 <reactStr+0x43>
    reactStr[2][number]=type;
    37be:	00 93 a6 39 	sts	0x39A6, r16	; 0x8039a6 <reactStr+0x82>
    37c2:	10 93 a7 39 	sts	0x39A7, r17	; 0x8039a7 <reactStr+0x83>
    37c6:	57 cb       	rjmp	.-2386   	; 0x2e76 <ProcessInput+0x1a4>
                                if (data[2] == '1') {
                                    SetResponse(elements++, A_PLEASEOFFER, L_PLEASEOFFER, TEASER);
                                }

                            //General request
                            } else if (actObj1.lenStr[ACTION_STR1]) {
    37c8:	01 15       	cp	r16, r1
    37ca:	11 05       	cpc	r17, r1
    37cc:	09 f4       	brne	.+2      	; 0x37d0 <ProcessInput+0xafe>
    37ce:	58 c0       	rjmp	.+176    	; 0x3880 <ProcessInput+0xbae>
    return 0;
}

//
void SetResponse(uint8_t number, uint16_t address, uint16_t length, uint8_t type){
    reactStr[0][number]=address;
    37d0:	80 91 f3 38 	lds	r24, 0x38F3	; 0x8038f3 <actObj1.3991+0x10>
    37d4:	90 91 f4 38 	lds	r25, 0x38F4	; 0x8038f4 <actObj1.3991+0x11>
    37d8:	80 93 26 39 	sts	0x3926, r24	; 0x803926 <reactStr+0x2>
    37dc:	90 93 27 39 	sts	0x3927, r25	; 0x803927 <reactStr+0x3>
    reactStr[1][number]=length;
    37e0:	00 93 66 39 	sts	0x3966, r16	; 0x803966 <reactStr+0x42>
    37e4:	10 93 67 39 	sts	0x3967, r17	; 0x803967 <reactStr+0x43>
    reactStr[2][number]=type;
    37e8:	10 92 a6 39 	sts	0x39A6, r1	; 0x8039a6 <reactStr+0x82>
    37ec:	10 92 a7 39 	sts	0x39A7, r1	; 0x8039a7 <reactStr+0x83>
    return 0;
}

//
void SetResponse(uint8_t number, uint16_t address, uint16_t length, uint8_t type){
    reactStr[0][number]=address;
    37f0:	89 e5       	ldi	r24, 0x59	; 89
    37f2:	9a e7       	ldi	r25, 0x7A	; 122
    37f4:	80 93 28 39 	sts	0x3928, r24	; 0x803928 <reactStr+0x4>
    37f8:	90 93 29 39 	sts	0x3929, r25	; 0x803929 <reactStr+0x5>
    reactStr[1][number]=length;
    37fc:	82 e0       	ldi	r24, 0x02	; 2
    37fe:	90 e0       	ldi	r25, 0x00	; 0
    3800:	80 93 68 39 	sts	0x3968, r24	; 0x803968 <reactStr+0x44>
    3804:	90 93 69 39 	sts	0x3969, r25	; 0x803969 <reactStr+0x45>
    reactStr[2][number]=type;
    3808:	81 e0       	ldi	r24, 0x01	; 1
    380a:	90 e0       	ldi	r25, 0x00	; 0
    380c:	80 93 a8 39 	sts	0x39A8, r24	; 0x8039a8 <reactStr+0x84>
    3810:	90 93 a9 39 	sts	0x39A9, r25	; 0x8039a9 <reactStr+0x85>
    return 0;
}

//
void SetResponse(uint8_t number, uint16_t address, uint16_t length, uint8_t type){
    reactStr[0][number]=address;
    3814:	2d ea       	ldi	r18, 0xAD	; 173
    3816:	38 e7       	ldi	r19, 0x78	; 120
    3818:	20 93 2a 39 	sts	0x392A, r18	; 0x80392a <reactStr+0x6>
    381c:	30 93 2b 39 	sts	0x392B, r19	; 0x80392b <reactStr+0x7>
    reactStr[1][number]=length;
    3820:	22 e1       	ldi	r18, 0x12	; 18
    3822:	30 e0       	ldi	r19, 0x00	; 0
    3824:	20 93 6a 39 	sts	0x396A, r18	; 0x80396a <reactStr+0x46>
    3828:	30 93 6b 39 	sts	0x396B, r19	; 0x80396b <reactStr+0x47>
    reactStr[2][number]=type;
    382c:	80 93 aa 39 	sts	0x39AA, r24	; 0x8039aa <reactStr+0x86>
    3830:	90 93 ab 39 	sts	0x39AB, r25	; 0x8039ab <reactStr+0x87>
                            //General request
                            } else if (actObj1.lenStr[ACTION_STR1]) {
                                SetResponse(elements++, actObj1.addrStr[ACTION_STR1], actObj1.lenStr[ACTION_STR1], GAME);
                                SetResponse(elements++, A_LF, 2, TEASER);
                                SetResponse(elements++, A_RESPONSE, L_RESPONSE, TEASER);
                                if (actObj1.lenStr[ACTION_STR2]>(INP_LENGTH-1)) actObj1.lenStr[ACTION_STR2] = (INP_LENGTH-1);
    3834:	80 91 03 39 	lds	r24, 0x3903	; 0x803903 <actObj1.3991+0x20>
    3838:	90 91 04 39 	lds	r25, 0x3904	; 0x803904 <actObj1.3991+0x21>
    383c:	40 97       	sbiw	r24, 0x10	; 16
    383e:	30 f0       	brcs	.+12     	; 0x384c <ProcessInput+0xb7a>
    3840:	8f e0       	ldi	r24, 0x0F	; 15
    3842:	90 e0       	ldi	r25, 0x00	; 0
    3844:	80 93 03 39 	sts	0x3903, r24	; 0x803903 <actObj1.3991+0x20>
    3848:	90 93 04 39 	sts	0x3904, r25	; 0x803904 <actObj1.3991+0x21>
                                ExtEERead(actObj1.addrStr[ACTION_STR2], actObj1.lenStr[ACTION_STR2], GAME, (uint8_t *)&specialInput[0]);
    384c:	23 e1       	ldi	r18, 0x13	; 19
    384e:	39 e3       	ldi	r19, 0x39	; 57
    3850:	40 e0       	ldi	r20, 0x00	; 0
    3852:	60 91 03 39 	lds	r22, 0x3903	; 0x803903 <actObj1.3991+0x20>
    3856:	80 91 f5 38 	lds	r24, 0x38F5	; 0x8038f5 <actObj1.3991+0x12>
    385a:	90 91 f6 38 	lds	r25, 0x38F6	; 0x8038f6 <actObj1.3991+0x13>
    385e:	0e 94 69 08 	call	0x10d2	; 0x10d2 <ExtEERead>
                                UnflipData(actObj1.lenStr[ACTION_STR2], (uint8_t *)&specialInput[0]);
    3862:	63 e1       	ldi	r22, 0x13	; 19
    3864:	79 e3       	ldi	r23, 0x39	; 57
    3866:	80 91 03 39 	lds	r24, 0x3903	; 0x803903 <actObj1.3991+0x20>
    386a:	0e 94 29 11 	call	0x2252	; 0x2252 <UnflipData>
                                specialInput[actObj1.lenStr[ACTION_STR2]] = 0;
    386e:	e0 91 03 39 	lds	r30, 0x3903	; 0x803903 <actObj1.3991+0x20>
    3872:	f0 91 04 39 	lds	r31, 0x3904	; 0x803904 <actObj1.3991+0x21>
    3876:	ed 5e       	subi	r30, 0xED	; 237
    3878:	f6 4c       	sbci	r31, 0xC6	; 198
    387a:	10 82       	st	Z, r1

                            //General request
                            } else if (actObj1.lenStr[ACTION_STR1]) {
                                SetResponse(elements++, actObj1.addrStr[ACTION_STR1], actObj1.lenStr[ACTION_STR1], GAME);
                                SetResponse(elements++, A_LF, 2, TEASER);
                                SetResponse(elements++, A_RESPONSE, L_RESPONSE, TEASER);
    387c:	14 e0       	ldi	r17, 0x04	; 4
    387e:	94 c1       	rjmp	.+808    	; 0x3ba8 <ProcessInput+0xed6>
                                ExtEERead(actObj1.addrStr[ACTION_STR2], actObj1.lenStr[ACTION_STR2], GAME, (uint8_t *)&specialInput[0]);
                                UnflipData(actObj1.lenStr[ACTION_STR2], (uint8_t *)&specialInput[0]);
                                specialInput[actObj1.lenStr[ACTION_STR2]] = 0;
                            
                            //Normal action    
                            } else if (CheckState(actObj1.byteField[ACTION_ACL])){
    3880:	80 91 ea 38 	lds	r24, 0x38EA	; 0x8038ea <actObj1.3991+0x7>
    3884:	0e 94 20 0a 	call	0x1440	; 0x1440 <CheckState>
    3888:	88 23       	and	r24, r24
    388a:	01 f1       	breq	.+64     	; 0x38cc <ProcessInput+0xbfa>
                                SetResponse(elements++, actObj1.addrStr[ACTION_MSG], actObj1.lenStr[ACTION_MSG], GAME);
    388c:	80 91 09 39 	lds	r24, 0x3909	; 0x803909 <actObj1.3991+0x26>
    3890:	90 91 0a 39 	lds	r25, 0x390A	; 0x80390a <actObj1.3991+0x27>
    return 0;
}

//
void SetResponse(uint8_t number, uint16_t address, uint16_t length, uint8_t type){
    reactStr[0][number]=address;
    3894:	20 91 fb 38 	lds	r18, 0x38FB	; 0x8038fb <actObj1.3991+0x18>
    3898:	30 91 fc 38 	lds	r19, 0x38FC	; 0x8038fc <actObj1.3991+0x19>
    389c:	20 93 26 39 	sts	0x3926, r18	; 0x803926 <reactStr+0x2>
    38a0:	30 93 27 39 	sts	0x3927, r19	; 0x803927 <reactStr+0x3>
    reactStr[1][number]=length;
    38a4:	80 93 66 39 	sts	0x3966, r24	; 0x803966 <reactStr+0x42>
    38a8:	90 93 67 39 	sts	0x3967, r25	; 0x803967 <reactStr+0x43>
    reactStr[2][number]=type;
    38ac:	10 92 a6 39 	sts	0x39A6, r1	; 0x8039a6 <reactStr+0x82>
    38b0:	10 92 a7 39 	sts	0x39A7, r1	; 0x8039a7 <reactStr+0x83>
                                specialInput[actObj1.lenStr[ACTION_STR2]] = 0;
                            
                            //Normal action    
                            } else if (CheckState(actObj1.byteField[ACTION_ACL])){
                                SetResponse(elements++, actObj1.addrStr[ACTION_MSG], actObj1.lenStr[ACTION_MSG], GAME);
                                effect = actObj1.effect[2];
    38b4:	80 91 0d 39 	lds	r24, 0x390D	; 0x80390d <actObj1.3991+0x2a>
    38b8:	90 e0       	ldi	r25, 0x00	; 0
    38ba:	80 93 40 38 	sts	0x3840, r24	; 0x803840 <effect>
    38be:	90 93 41 38 	sts	0x3841, r25	; 0x803841 <effect+0x1>
                                UpdateState(actObj1.byteField[ACTION_STATE]);
    38c2:	80 91 ed 38 	lds	r24, 0x38ED	; 0x8038ed <actObj1.3991+0xa>
    38c6:	0e 94 ff 09 	call	0x13fe	; 0x13fe <UpdateState>
    38ca:	d5 ca       	rjmp	.-2646   	; 0x2e76 <ProcessInput+0x1a4>
                            } else {
                                SetResponse(elements++, actObj1.addrStr[ACTION_ACL_MSG], actObj1.lenStr[ACTION_ACL_MSG], GAME);
    38cc:	80 91 07 39 	lds	r24, 0x3907	; 0x803907 <actObj1.3991+0x24>
    38d0:	90 91 08 39 	lds	r25, 0x3908	; 0x803908 <actObj1.3991+0x25>
    return 0;
}

//
void SetResponse(uint8_t number, uint16_t address, uint16_t length, uint8_t type){
    reactStr[0][number]=address;
    38d4:	20 91 f9 38 	lds	r18, 0x38F9	; 0x8038f9 <actObj1.3991+0x16>
    38d8:	30 91 fa 38 	lds	r19, 0x38FA	; 0x8038fa <actObj1.3991+0x17>
    38dc:	20 93 26 39 	sts	0x3926, r18	; 0x803926 <reactStr+0x2>
    38e0:	30 93 27 39 	sts	0x3927, r19	; 0x803927 <reactStr+0x3>
    reactStr[1][number]=length;
    38e4:	80 93 66 39 	sts	0x3966, r24	; 0x803966 <reactStr+0x42>
    38e8:	90 93 67 39 	sts	0x3967, r25	; 0x803967 <reactStr+0x43>
    reactStr[2][number]=type;
    38ec:	10 92 a6 39 	sts	0x39A6, r1	; 0x8039a6 <reactStr+0x82>
    38f0:	10 92 a7 39 	sts	0x39A7, r1	; 0x8039a7 <reactStr+0x83>
                                SetResponse(elements++, actObj1.addrStr[ACTION_MSG], actObj1.lenStr[ACTION_MSG], GAME);
                                effect = actObj1.effect[2];
                                UpdateState(actObj1.byteField[ACTION_STATE]);
                            } else {
                                SetResponse(elements++, actObj1.addrStr[ACTION_ACL_MSG], actObj1.lenStr[ACTION_ACL_MSG], GAME);
                                effect = actObj1.effect[1];
    38f4:	80 91 0c 39 	lds	r24, 0x390C	; 0x80390c <actObj1.3991+0x29>
    38f8:	90 e0       	ldi	r25, 0x00	; 0
    38fa:	80 93 40 38 	sts	0x3840, r24	; 0x803840 <effect>
    38fe:	90 93 41 38 	sts	0x3841, r25	; 0x803841 <effect+0x1>
    3902:	b9 ca       	rjmp	.-2702   	; 0x2e76 <ProcessInput+0x1a4>
                        }
                    }

                //Person or object not found
                } else {
                    if ((data[0] == 't')||(data[0] == 'g')){
    3904:	d3 01       	movw	r26, r6
    3906:	8c 91       	ld	r24, X
    3908:	84 37       	cpi	r24, 0x74	; 116
    390a:	11 f0       	breq	.+4      	; 0x3910 <ProcessInput+0xc3e>
    390c:	87 36       	cpi	r24, 0x67	; 103
    390e:	19 f4       	brne	.+6      	; 0x3916 <ProcessInput+0xc44>
    return 0;
}

//
void SetResponse(uint8_t number, uint16_t address, uint16_t length, uint8_t type){
    reactStr[0][number]=address;
    3910:	89 e3       	ldi	r24, 0x39	; 57
    3912:	99 e7       	ldi	r25, 0x79	; 121
    3914:	02 c0       	rjmp	.+4      	; 0x391a <ProcessInput+0xc48>
    3916:	8d e4       	ldi	r24, 0x4D	; 77
    3918:	99 e7       	ldi	r25, 0x79	; 121
    391a:	80 93 26 39 	sts	0x3926, r24	; 0x803926 <reactStr+0x2>
    391e:	90 93 27 39 	sts	0x3927, r25	; 0x803927 <reactStr+0x3>
    reactStr[1][number]=length;
    3922:	84 e1       	ldi	r24, 0x14	; 20
    3924:	90 e0       	ldi	r25, 0x00	; 0
    3926:	9d ca       	rjmp	.-2758   	; 0x2e62 <ProcessInput+0x190>
                    }
                }
            }
        
        //Special answer given
        } else if (data[0] == 'a'){
    3928:	81 36       	cpi	r24, 0x61	; 97
    392a:	09 f0       	breq	.+2      	; 0x392e <ProcessInput+0xc5c>
    392c:	4f cc       	rjmp	.-1890   	; 0x31cc <ProcessInput+0x4fa>
            
            //Priest offerings
            if (specialPassed >= 2) {
    392e:	80 91 12 39 	lds	r24, 0x3912	; 0x803912 <specialPassed>
    3932:	82 30       	cpi	r24, 0x02	; 2
    3934:	08 f4       	brcc	.+2      	; 0x3938 <ProcessInput+0xc66>
    3936:	c7 c0       	rjmp	.+398    	; 0x3ac6 <ProcessInput+0xdf4>
                if (data[1] > 0) {
    3938:	f3 01       	movw	r30, r6
    393a:	21 81       	ldd	r18, Z+1	; 0x01
    393c:	22 23       	and	r18, r18
    393e:	09 f4       	brne	.+2      	; 0x3942 <ProcessInput+0xc70>
    3940:	af c0       	rjmp	.+350    	; 0x3aa0 <ProcessInput+0xdce>

                    //uint8_t  digit[10] = {0, 0, 0, 0, 0, 0, 0, 0, 0, 0};
                    uint8_t  digit[8] = {0, 0, 0, 0, 0, 0, 0, 0};
    3942:	ce 01       	movw	r24, r28
    3944:	01 96       	adiw	r24, 0x01	; 1
    3946:	7c 01       	movw	r14, r24
    3948:	88 e0       	ldi	r24, 0x08	; 8
    394a:	d7 01       	movw	r26, r14
    394c:	1d 92       	st	X+, r1
    394e:	8a 95       	dec	r24
    3950:	e9 f7       	brne	.-6      	; 0x394c <ProcessInput+0xc7a>
                        answer = ((offering  & 2) << 19) + ((offering  & 1) << 8) + \
                        ((element   & 2) << 15) + ((element   & 1) << 4) + \
                        ((kneelings & 2) << 11) + ((kneelings & 1))
                        answer = answer << (3-person)
                    */
                    data[1]-='0'; // item 31 needs to become something that results in 0 when doing %4
    3952:	20 53       	subi	r18, 0x30	; 48
    3954:	21 83       	std	Z+1, r18	; 0x01
                    data[2]-='1';
    3956:	32 81       	ldd	r19, Z+2	; 0x02
    3958:	31 53       	subi	r19, 0x31	; 49
    395a:	32 83       	std	Z+2, r19	; 0x02
                    if (data[3] == 'a') data[3] = 1;
    395c:	83 81       	ldd	r24, Z+3	; 0x03
    395e:	81 36       	cpi	r24, 0x61	; 97
    3960:	11 f4       	brne	.+4      	; 0x3966 <ProcessInput+0xc94>
    3962:	81 e0       	ldi	r24, 0x01	; 1
    3964:	0c c0       	rjmp	.+24     	; 0x397e <ProcessInput+0xcac>
                    else if (data[3] == 'e') data[3] = 0;
    3966:	85 36       	cpi	r24, 0x65	; 101
    3968:	19 f4       	brne	.+6      	; 0x3970 <ProcessInput+0xc9e>
    396a:	f3 01       	movw	r30, r6
    396c:	13 82       	std	Z+3, r1	; 0x03
    396e:	08 c0       	rjmp	.+16     	; 0x3980 <ProcessInput+0xcae>
                    else if (data[3] == 'f') data[3] = 3;
    3970:	86 36       	cpi	r24, 0x66	; 102
    3972:	19 f4       	brne	.+6      	; 0x397a <ProcessInput+0xca8>
    3974:	83 e0       	ldi	r24, 0x03	; 3
    3976:	83 83       	std	Z+3, r24	; 0x03
    3978:	03 c0       	rjmp	.+6      	; 0x3980 <ProcessInput+0xcae>
                    else data[3] = 2;
    397a:	82 e0       	ldi	r24, 0x02	; 2
    397c:	f3 01       	movw	r30, r6
    397e:	83 83       	std	Z+3, r24	; 0x03

                    if (data[1] & 2) answer += (1UL << 20);
    3980:	21 fd       	sbrc	r18, 1
    3982:	04 c0       	rjmp	.+8      	; 0x398c <ProcessInput+0xcba>
            if (specialPassed >= 2) {
                if (data[1] > 0) {

                    //uint8_t  digit[10] = {0, 0, 0, 0, 0, 0, 0, 0, 0, 0};
                    uint8_t  digit[8] = {0, 0, 0, 0, 0, 0, 0, 0};
                    uint32_t answer = 0;
    3984:	80 e0       	ldi	r24, 0x00	; 0
    3986:	90 e0       	ldi	r25, 0x00	; 0
    3988:	dc 01       	movw	r26, r24
    398a:	04 c0       	rjmp	.+8      	; 0x3994 <ProcessInput+0xcc2>
                    if (data[3] == 'a') data[3] = 1;
                    else if (data[3] == 'e') data[3] = 0;
                    else if (data[3] == 'f') data[3] = 3;
                    else data[3] = 2;

                    if (data[1] & 2) answer += (1UL << 20);
    398c:	80 e0       	ldi	r24, 0x00	; 0
    398e:	90 e0       	ldi	r25, 0x00	; 0
    3990:	a0 e1       	ldi	r26, 0x10	; 16
    3992:	b0 e0       	ldi	r27, 0x00	; 0
                    if (data[1] & 1) answer += (1 << 8);
    3994:	20 ff       	sbrs	r18, 0
    3996:	03 c0       	rjmp	.+6      	; 0x399e <ProcessInput+0xccc>
    3998:	9f 5f       	subi	r25, 0xFF	; 255
    399a:	af 4f       	sbci	r26, 0xFF	; 255
    399c:	bf 4f       	sbci	r27, 0xFF	; 255
                    if (data[3] & 2) answer += (1UL << 16);
    399e:	f3 01       	movw	r30, r6
    39a0:	23 81       	ldd	r18, Z+3	; 0x03
    39a2:	21 fd       	sbrc	r18, 1
    39a4:	11 96       	adiw	r26, 0x01	; 1
                    if (data[3] & 1) answer += (1 << 4);
    39a6:	20 ff       	sbrs	r18, 0
    39a8:	03 c0       	rjmp	.+6      	; 0x39b0 <ProcessInput+0xcde>
    39aa:	40 96       	adiw	r24, 0x10	; 16
    39ac:	a1 1d       	adc	r26, r1
    39ae:	b1 1d       	adc	r27, r1
                    if (data[2] & 2) answer += (1 << 12);
    39b0:	31 ff       	sbrs	r19, 1
    39b2:	03 c0       	rjmp	.+6      	; 0x39ba <ProcessInput+0xce8>
    39b4:	90 5f       	subi	r25, 0xF0	; 240
    39b6:	af 4f       	sbci	r26, 0xFF	; 255
    39b8:	bf 4f       	sbci	r27, 0xFF	; 255
                    if (data[2] & 1) answer += 1;
    39ba:	30 ff       	sbrs	r19, 0
    39bc:	03 c0       	rjmp	.+6      	; 0x39c4 <ProcessInput+0xcf2>
    39be:	01 96       	adiw	r24, 0x01	; 1
    39c0:	a1 1d       	adc	r26, r1
    39c2:	b1 1d       	adc	r27, r1
                    answer <<= (4 - whoami);            
    39c4:	40 91 43 38 	lds	r20, 0x3843	; 0x803843 <whoami>
    39c8:	24 e0       	ldi	r18, 0x04	; 4
    39ca:	30 e0       	ldi	r19, 0x00	; 0
    39cc:	24 1b       	sub	r18, r20
    39ce:	31 09       	sbc	r19, r1
    39d0:	04 c0       	rjmp	.+8      	; 0x39da <ProcessInput+0xd08>
    39d2:	88 0f       	add	r24, r24
    39d4:	99 1f       	adc	r25, r25
    39d6:	aa 1f       	adc	r26, r26
    39d8:	bb 1f       	adc	r27, r27
    39da:	2a 95       	dec	r18
    39dc:	d2 f7       	brpl	.-12     	; 0x39d2 <ProcessInput+0xd00>
    return 0;
}

//
void SetResponse(uint8_t number, uint16_t address, uint16_t length, uint8_t type){
    reactStr[0][number]=address;
    39de:	28 ec       	ldi	r18, 0xC8	; 200
    39e0:	34 e7       	ldi	r19, 0x74	; 116
    39e2:	20 93 26 39 	sts	0x3926, r18	; 0x803926 <reactStr+0x2>
    39e6:	30 93 27 39 	sts	0x3927, r19	; 0x803927 <reactStr+0x3>
    reactStr[1][number]=length;
    39ea:	20 e2       	ldi	r18, 0x20	; 32
    39ec:	30 e0       	ldi	r19, 0x00	; 0
    39ee:	20 93 66 39 	sts	0x3966, r18	; 0x803966 <reactStr+0x42>
    39f2:	30 93 67 39 	sts	0x3967, r19	; 0x803967 <reactStr+0x43>
    reactStr[2][number]=type;
    39f6:	21 e0       	ldi	r18, 0x01	; 1
    39f8:	30 e0       	ldi	r19, 0x00	; 0
    39fa:	20 93 a6 39 	sts	0x39A6, r18	; 0x8039a6 <reactStr+0x82>
    39fe:	30 93 a7 39 	sts	0x39A7, r19	; 0x8039a7 <reactStr+0x83>
    return 0;
}

//
void SetResponse(uint8_t number, uint16_t address, uint16_t length, uint8_t type){
    reactStr[0][number]=address;
    3a02:	4d e9       	ldi	r20, 0x9D	; 157
    3a04:	54 e7       	ldi	r21, 0x74	; 116
    3a06:	40 93 28 39 	sts	0x3928, r20	; 0x803928 <reactStr+0x4>
    3a0a:	50 93 29 39 	sts	0x3929, r21	; 0x803929 <reactStr+0x5>
    reactStr[1][number]=length;
    3a0e:	42 e0       	ldi	r20, 0x02	; 2
    3a10:	50 e0       	ldi	r21, 0x00	; 0
    3a12:	40 93 68 39 	sts	0x3968, r20	; 0x803968 <reactStr+0x44>
    3a16:	50 93 69 39 	sts	0x3969, r21	; 0x803969 <reactStr+0x45>
    reactStr[2][number]=type;
    3a1a:	20 93 a8 39 	sts	0x39A8, r18	; 0x8039a8 <reactStr+0x84>
    3a1e:	30 93 a9 39 	sts	0x39A9, r19	; 0x8039a9 <reactStr+0x85>

                    SetResponse(elements++, A_YOURPART, L_YOURPART, TEASER);
                    SetResponse(elements++, A_HEXPREFIX, L_HEXPREFIX, TEASER);
                    
                    //Set up sending out number
                    for (n=7; n>=0; --n) {
    3a22:	07 e0       	ldi	r16, 0x07	; 7
                        digit[n] = answer % 16;
    3a24:	f7 01       	movw	r30, r14
    3a26:	e0 0f       	add	r30, r16
    3a28:	f1 1d       	adc	r31, r1
    3a2a:	28 2f       	mov	r18, r24
    3a2c:	2f 70       	andi	r18, 0x0F	; 15
    3a2e:	20 83       	st	Z, r18
                        answer /= 16;
    3a30:	44 e0       	ldi	r20, 0x04	; 4
    3a32:	b6 95       	lsr	r27
    3a34:	a7 95       	ror	r26
    3a36:	97 95       	ror	r25
    3a38:	87 95       	ror	r24
    3a3a:	4a 95       	dec	r20
    3a3c:	d1 f7       	brne	.-12     	; 0x3a32 <ProcessInput+0xd60>
                        if (answer == 0) break;
    3a3e:	00 97       	sbiw	r24, 0x00	; 0
    3a40:	a1 05       	cpc	r26, r1
    3a42:	b1 05       	cpc	r27, r1
    3a44:	49 f4       	brne	.+18     	; 0x3a58 <ProcessInput+0xd86>
    3a46:	24 e2       	ldi	r18, 0x24	; 36
    3a48:	c2 2e       	mov	r12, r18
    3a4a:	29 e3       	ldi	r18, 0x39	; 57
    3a4c:	d2 2e       	mov	r13, r18
    3a4e:	13 e0       	ldi	r17, 0x03	; 3
}

//
void SetResponse(uint8_t number, uint16_t address, uint16_t length, uint8_t type){
    reactStr[0][number]=address;
    reactStr[1][number]=length;
    3a50:	aa 24       	eor	r10, r10
    3a52:	a3 94       	inc	r10
    3a54:	b1 2c       	mov	r11, r1
    3a56:	02 c0       	rjmp	.+4      	; 0x3a5c <ProcessInput+0xd8a>

                    SetResponse(elements++, A_YOURPART, L_YOURPART, TEASER);
                    SetResponse(elements++, A_HEXPREFIX, L_HEXPREFIX, TEASER);
                    
                    //Set up sending out number
                    for (n=7; n>=0; --n) {
    3a58:	01 50       	subi	r16, 0x01	; 1
                        digit[n] = answer % 16;
                        answer /= 16;
                        if (answer == 0) break;
                    }
    3a5a:	e4 cf       	rjmp	.-56     	; 0x3a24 <ProcessInput+0xd52>
    3a5c:	b2 e0       	ldi	r27, 0x02	; 2
    3a5e:	cb 0e       	add	r12, r27
    3a60:	d1 1c       	adc	r13, r1

                    for (; n<8; ++n) {
    3a62:	08 30       	cpi	r16, 0x08	; 8
    3a64:	08 f0       	brcs	.+2      	; 0x3a68 <ProcessInput+0xd96>
    3a66:	9e c0       	rjmp	.+316    	; 0x3ba4 <ProcessInput+0xed2>
                        SetResponse(elements++, A_DIGITS+digit[n], 1, TEASER);
    3a68:	1f 5f       	subi	r17, 0xFF	; 255
    3a6a:	f7 01       	movw	r30, r14
    3a6c:	e0 0f       	add	r30, r16
    3a6e:	f1 1d       	adc	r31, r1
    return 0;
}

//
void SetResponse(uint8_t number, uint16_t address, uint16_t length, uint8_t type){
    reactStr[0][number]=address;
    3a70:	80 81       	ld	r24, Z
    3a72:	90 e0       	ldi	r25, 0x00	; 0
    3a74:	83 57       	subi	r24, 0x73	; 115
    3a76:	9b 48       	sbci	r25, 0x8B	; 139
    3a78:	d6 01       	movw	r26, r12
    3a7a:	14 96       	adiw	r26, 0x04	; 4
    3a7c:	8d 93       	st	X+, r24
    3a7e:	9c 93       	st	X, r25
    3a80:	15 97       	sbiw	r26, 0x05	; 5
    reactStr[1][number]=length;
    3a82:	f6 01       	movw	r30, r12
    3a84:	ec 5b       	subi	r30, 0xBC	; 188
    3a86:	ff 4f       	sbci	r31, 0xFF	; 255
    3a88:	a0 82       	st	Z, r10
    3a8a:	b1 82       	std	Z+1, r11	; 0x01
    reactStr[2][number]=type;
    3a8c:	e0 5c       	subi	r30, 0xC0	; 192
    3a8e:	ff 4f       	sbci	r31, 0xFF	; 255
    3a90:	a0 82       	st	Z, r10
    3a92:	b1 82       	std	Z+1, r11	; 0x01
                        if (answer == 0) break;
                    }

                    for (; n<8; ++n) {
                        SetResponse(elements++, A_DIGITS+digit[n], 1, TEASER);
                        UpdateState(actObj1.byteField[ACTION_STATE]);
    3a94:	80 91 ed 38 	lds	r24, 0x38ED	; 0x8038ed <actObj1.3991+0xa>
    3a98:	0e 94 ff 09 	call	0x13fe	; 0x13fe <UpdateState>
                        digit[n] = answer % 16;
                        answer /= 16;
                        if (answer == 0) break;
                    }

                    for (; n<8; ++n) {
    3a9c:	0f 5f       	subi	r16, 0xFF	; 255
    3a9e:	de cf       	rjmp	.-68     	; 0x3a5c <ProcessInput+0xd8a>
    return 0;
}

//
void SetResponse(uint8_t number, uint16_t address, uint16_t length, uint8_t type){
    reactStr[0][number]=address;
    3aa0:	88 ee       	ldi	r24, 0xE8	; 232
    3aa2:	94 e7       	ldi	r25, 0x74	; 116
    3aa4:	80 93 26 39 	sts	0x3926, r24	; 0x803926 <reactStr+0x2>
    3aa8:	90 93 27 39 	sts	0x3927, r25	; 0x803927 <reactStr+0x3>
    reactStr[1][number]=length;
    3aac:	8d e3       	ldi	r24, 0x3D	; 61
    3aae:	90 e0       	ldi	r25, 0x00	; 0
    3ab0:	80 93 66 39 	sts	0x3966, r24	; 0x803966 <reactStr+0x42>
    3ab4:	90 93 67 39 	sts	0x3967, r25	; 0x803967 <reactStr+0x43>
    reactStr[2][number]=type;
    3ab8:	81 e0       	ldi	r24, 0x01	; 1
    3aba:	90 e0       	ldi	r25, 0x00	; 0
    3abc:	80 93 a6 39 	sts	0x39A6, r24	; 0x8039a6 <reactStr+0x82>
    3ac0:	90 93 a7 39 	sts	0x39A7, r25	; 0x8039a7 <reactStr+0x83>
    3ac4:	6e c0       	rjmp	.+220    	; 0x3ba2 <ProcessInput+0xed0>
    3ac6:	e0 91 35 38 	lds	r30, 0x3835	; 0x803835 <currDepth>
                    SetResponse(elements++, A_BADOFFERING, L_BADOFFERING, TEASER);
                }
            
            //Other questions    
            } else if (specialPassed == 1) {
                PopulateObject(route[currDepth+1], &actObj1);
    3aca:	f0 e0       	ldi	r31, 0x00	; 0
    3acc:	ee 0f       	add	r30, r30
    3ace:	ff 1f       	adc	r31, r31
    3ad0:	ea 51       	subi	r30, 0x1A	; 26
    3ad2:	f6 4c       	sbci	r31, 0xC6	; 198
    3ad4:	63 ee       	ldi	r22, 0xE3	; 227
    3ad6:	78 e3       	ldi	r23, 0x38	; 56
                } else {
                    SetResponse(elements++, A_BADOFFERING, L_BADOFFERING, TEASER);
                }
            
            //Other questions    
            } else if (specialPassed == 1) {
    3ad8:	81 30       	cpi	r24, 0x01	; 1
    3ada:	09 f0       	breq	.+2      	; 0x3ade <ProcessInput+0xe0c>
    3adc:	46 c0       	rjmp	.+140    	; 0x3b6a <ProcessInput+0xe98>
                PopulateObject(route[currDepth+1], &actObj1);
    3ade:	80 81       	ld	r24, Z
    3ae0:	91 81       	ldd	r25, Z+1	; 0x01
    3ae2:	0e 94 13 12 	call	0x2426	; 0x2426 <PopulateObject>
                if (CheckState(actObj1.byteField[ACTION_ACL])){
    3ae6:	80 91 ea 38 	lds	r24, 0x38EA	; 0x8038ea <actObj1.3991+0x7>
    3aea:	0e 94 20 0a 	call	0x1440	; 0x1440 <CheckState>
    3aee:	88 23       	and	r24, r24
    3af0:	01 f1       	breq	.+64     	; 0x3b32 <ProcessInput+0xe60>
                    SetResponse(elements++, actObj1.addrStr[ACTION_MSG], actObj1.lenStr[ACTION_MSG], GAME);
    3af2:	80 91 09 39 	lds	r24, 0x3909	; 0x803909 <actObj1.3991+0x26>
    3af6:	90 91 0a 39 	lds	r25, 0x390A	; 0x80390a <actObj1.3991+0x27>
    return 0;
}

//
void SetResponse(uint8_t number, uint16_t address, uint16_t length, uint8_t type){
    reactStr[0][number]=address;
    3afa:	20 91 fb 38 	lds	r18, 0x38FB	; 0x8038fb <actObj1.3991+0x18>
    3afe:	30 91 fc 38 	lds	r19, 0x38FC	; 0x8038fc <actObj1.3991+0x19>
    3b02:	20 93 26 39 	sts	0x3926, r18	; 0x803926 <reactStr+0x2>
    3b06:	30 93 27 39 	sts	0x3927, r19	; 0x803927 <reactStr+0x3>
    reactStr[1][number]=length;
    3b0a:	80 93 66 39 	sts	0x3966, r24	; 0x803966 <reactStr+0x42>
    3b0e:	90 93 67 39 	sts	0x3967, r25	; 0x803967 <reactStr+0x43>
    reactStr[2][number]=type;
    3b12:	10 92 a6 39 	sts	0x39A6, r1	; 0x8039a6 <reactStr+0x82>
    3b16:	10 92 a7 39 	sts	0x39A7, r1	; 0x8039a7 <reactStr+0x83>
            //Other questions    
            } else if (specialPassed == 1) {
                PopulateObject(route[currDepth+1], &actObj1);
                if (CheckState(actObj1.byteField[ACTION_ACL])){
                    SetResponse(elements++, actObj1.addrStr[ACTION_MSG], actObj1.lenStr[ACTION_MSG], GAME);
                    effect = actObj1.effect[2];
    3b1a:	80 91 0d 39 	lds	r24, 0x390D	; 0x80390d <actObj1.3991+0x2a>
    3b1e:	90 e0       	ldi	r25, 0x00	; 0
    3b20:	80 93 40 38 	sts	0x3840, r24	; 0x803840 <effect>
    3b24:	90 93 41 38 	sts	0x3841, r25	; 0x803841 <effect+0x1>
                    UpdateState(actObj1.byteField[ACTION_STATE]);
    3b28:	80 91 ed 38 	lds	r24, 0x38ED	; 0x8038ed <actObj1.3991+0xa>
    3b2c:	0e 94 ff 09 	call	0x13fe	; 0x13fe <UpdateState>
    3b30:	38 c0       	rjmp	.+112    	; 0x3ba2 <ProcessInput+0xed0>
                } else {
                    SetResponse(elements++, actObj1.addrStr[ACTION_ACL_MSG], actObj1.lenStr[ACTION_ACL_MSG], GAME);
    3b32:	80 91 07 39 	lds	r24, 0x3907	; 0x803907 <actObj1.3991+0x24>
    3b36:	90 91 08 39 	lds	r25, 0x3908	; 0x803908 <actObj1.3991+0x25>
    return 0;
}

//
void SetResponse(uint8_t number, uint16_t address, uint16_t length, uint8_t type){
    reactStr[0][number]=address;
    3b3a:	20 91 f9 38 	lds	r18, 0x38F9	; 0x8038f9 <actObj1.3991+0x16>
    3b3e:	30 91 fa 38 	lds	r19, 0x38FA	; 0x8038fa <actObj1.3991+0x17>
    3b42:	20 93 26 39 	sts	0x3926, r18	; 0x803926 <reactStr+0x2>
    3b46:	30 93 27 39 	sts	0x3927, r19	; 0x803927 <reactStr+0x3>
    reactStr[1][number]=length;
    3b4a:	80 93 66 39 	sts	0x3966, r24	; 0x803966 <reactStr+0x42>
    3b4e:	90 93 67 39 	sts	0x3967, r25	; 0x803967 <reactStr+0x43>
    reactStr[2][number]=type;
    3b52:	10 92 a6 39 	sts	0x39A6, r1	; 0x8039a6 <reactStr+0x82>
    3b56:	10 92 a7 39 	sts	0x39A7, r1	; 0x8039a7 <reactStr+0x83>
                    SetResponse(elements++, actObj1.addrStr[ACTION_MSG], actObj1.lenStr[ACTION_MSG], GAME);
                    effect = actObj1.effect[2];
                    UpdateState(actObj1.byteField[ACTION_STATE]);
                } else {
                    SetResponse(elements++, actObj1.addrStr[ACTION_ACL_MSG], actObj1.lenStr[ACTION_ACL_MSG], GAME);
                    effect = actObj1.effect[1];
    3b5a:	80 91 0c 39 	lds	r24, 0x390C	; 0x80390c <actObj1.3991+0x29>
    3b5e:	90 e0       	ldi	r25, 0x00	; 0
    3b60:	80 93 40 38 	sts	0x3840, r24	; 0x803840 <effect>
    3b64:	90 93 41 38 	sts	0x3841, r25	; 0x803841 <effect+0x1>
    3b68:	1c c0       	rjmp	.+56     	; 0x3ba2 <ProcessInput+0xed0>
                }

            } else {
                PopulateObject(route[currDepth+1], &actObj1);
    3b6a:	80 81       	ld	r24, Z
    3b6c:	91 81       	ldd	r25, Z+1	; 0x01
    3b6e:	0e 94 13 12 	call	0x2426	; 0x2426 <PopulateObject>
    return 0;
}

//
void SetResponse(uint8_t number, uint16_t address, uint16_t length, uint8_t type){
    reactStr[0][number]=address;
    3b72:	80 e6       	ldi	r24, 0x60	; 96
    3b74:	98 e7       	ldi	r25, 0x78	; 120
    3b76:	80 93 26 39 	sts	0x3926, r24	; 0x803926 <reactStr+0x2>
    3b7a:	90 93 27 39 	sts	0x3927, r25	; 0x803927 <reactStr+0x3>
    reactStr[1][number]=length;
    3b7e:	8d e4       	ldi	r24, 0x4D	; 77
    3b80:	90 e0       	ldi	r25, 0x00	; 0
    3b82:	80 93 66 39 	sts	0x3966, r24	; 0x803966 <reactStr+0x42>
    3b86:	90 93 67 39 	sts	0x3967, r25	; 0x803967 <reactStr+0x43>
    reactStr[2][number]=type;
    3b8a:	81 e0       	ldi	r24, 0x01	; 1
    3b8c:	90 e0       	ldi	r25, 0x00	; 0
    3b8e:	80 93 a6 39 	sts	0x39A6, r24	; 0x8039a6 <reactStr+0x82>
    3b92:	90 93 a7 39 	sts	0x39A7, r25	; 0x8039a7 <reactStr+0x83>
                }

            } else {
                PopulateObject(route[currDepth+1], &actObj1);
                SetResponse(elements++, A_INCORRECT, L_INCORRECT, TEASER);
                PunishmentTime = getClock();
    3b96:	0e 94 60 0e 	call	0x1cc0	; 0x1cc0 <getClock>
    3b9a:	80 93 10 39 	sts	0x3910, r24	; 0x803910 <PunishmentTime>
    3b9e:	90 93 11 39 	sts	0x3911, r25	; 0x803911 <PunishmentTime+0x1>
                    effect = actObj1.effect[1];
                }

            } else {
                PopulateObject(route[currDepth+1], &actObj1);
                SetResponse(elements++, A_INCORRECT, L_INCORRECT, TEASER);
    3ba2:	12 e0       	ldi	r17, 0x02	; 2
                PunishmentTime = getClock();
            }
            specialInput[0] = 0;
    3ba4:	10 92 13 39 	sts	0x3913, r1	; 0x803913 <specialInput>

        }
                    
        //Input handled
        if (specialInput[0]) responseList = elements; else responseList = SetStandardResponse(elements);
    3ba8:	80 91 13 39 	lds	r24, 0x3913	; 0x803913 <specialInput>
    3bac:	88 23       	and	r24, r24
    3bae:	19 f0       	breq	.+6      	; 0x3bb6 <ProcessInput+0xee4>
    3bb0:	10 93 23 39 	sts	0x3923, r17	; 0x803923 <responseList>
    3bb4:	8b c0       	rjmp	.+278    	; 0x3ccc <ProcessInput+0xffa>
    3bb6:	81 2f       	mov	r24, r17
    3bb8:	01 c0       	rjmp	.+2      	; 0x3bbc <ProcessInput+0xeea>

    } else {

        responseList = SetStandardResponse(1);
    3bba:	81 e0       	ldi	r24, 0x01	; 1
    3bbc:	0e 94 97 11 	call	0x232e	; 0x232e <SetStandardResponse>
    3bc0:	80 93 23 39 	sts	0x3923, r24	; 0x803923 <responseList>
    3bc4:	83 c0       	rjmp	.+262    	; 0x3ccc <ProcessInput+0xffa>
    return 0;
}

//
void SetResponse(uint8_t number, uint16_t address, uint16_t length, uint8_t type){
    reactStr[0][number]=address;
    3bc6:	81 ed       	ldi	r24, 0xD1	; 209
    3bc8:	99 e7       	ldi	r25, 0x79	; 121
    3bca:	80 93 26 39 	sts	0x3926, r24	; 0x803926 <reactStr+0x2>
    3bce:	90 93 27 39 	sts	0x3927, r25	; 0x803927 <reactStr+0x3>
    reactStr[1][number]=length;
    3bd2:	8a e1       	ldi	r24, 0x1A	; 26
    3bd4:	90 e0       	ldi	r25, 0x00	; 0
    3bd6:	45 c9       	rjmp	.-3446   	; 0x2e62 <ProcessInput+0x190>

        //Drop item if in inventory
        if (data[0] == 'd') {
            if ((inventory[0] == 0)&&(inventory[1] == 0)){
                SetResponse(elements++, A_EMPTYHANDS, L_EMPTYHANDS, TEASER);
            } else if (inputLen != 2) {
    3bd8:	f2 e0       	ldi	r31, 0x02	; 2
    3bda:	ff 12       	cpse	r15, r31
    3bdc:	ad c8       	rjmp	.-3750   	; 0x2d38 <ProcessInput+0x66>
                SetResponse(elements++, A_NOTPOSSIBLE, L_NOTPOSSIBLE, TEASER);
            } else {
                for (uint8_t x=0; x<2; ++x) {
                    if (inventory[x]) {
                        if (CheckLetter(inventory[x], data[1])) {
    3bde:	f3 01       	movw	r30, r6
    3be0:	61 81       	ldd	r22, Z+1	; 0x01
    3be2:	0e 94 8c 12 	call	0x2518	; 0x2518 <CheckLetter>
    3be6:	88 23       	and	r24, r24
    3be8:	09 f4       	brne	.+2      	; 0x3bec <ProcessInput+0xf1a>
    3bea:	58 c0       	rjmp	.+176    	; 0x3c9c <ProcessInput+0xfca>
                SetResponse(elements++, A_EMPTYHANDS, L_EMPTYHANDS, TEASER);
            } else if (inputLen != 2) {
                SetResponse(elements++, A_NOTPOSSIBLE, L_NOTPOSSIBLE, TEASER);
            } else {
                for (uint8_t x=0; x<2; ++x) {
                    if (inventory[x]) {
    3bec:	00 e0       	ldi	r16, 0x00	; 0
    3bee:	10 e0       	ldi	r17, 0x00	; 0
                        if (CheckLetter(inventory[x], data[1])) {
                            PopulateObject(inventory[x], &actObj1);
    3bf0:	00 0f       	add	r16, r16
    3bf2:	11 1f       	adc	r17, r17
    3bf4:	0c 5b       	subi	r16, 0xBC	; 188
    3bf6:	17 4c       	sbci	r17, 0xC7	; 199
    3bf8:	63 ee       	ldi	r22, 0xE3	; 227
    3bfa:	78 e3       	ldi	r23, 0x38	; 56
    3bfc:	d8 01       	movw	r26, r16
    3bfe:	8d 91       	ld	r24, X+
    3c00:	9c 91       	ld	r25, X
    3c02:	0e 94 13 12 	call	0x2426	; 0x2426 <PopulateObject>
    return 0;
}

//
void SetResponse(uint8_t number, uint16_t address, uint16_t length, uint8_t type){
    reactStr[0][number]=address;
    3c06:	86 e9       	ldi	r24, 0x96	; 150
    3c08:	97 e7       	ldi	r25, 0x77	; 119
    3c0a:	80 93 26 39 	sts	0x3926, r24	; 0x803926 <reactStr+0x2>
    3c0e:	90 93 27 39 	sts	0x3927, r25	; 0x803927 <reactStr+0x3>
    reactStr[1][number]=length;
    3c12:	80 e1       	ldi	r24, 0x10	; 16
    3c14:	90 e0       	ldi	r25, 0x00	; 0
    3c16:	80 93 66 39 	sts	0x3966, r24	; 0x803966 <reactStr+0x42>
    3c1a:	90 93 67 39 	sts	0x3967, r25	; 0x803967 <reactStr+0x43>
    reactStr[2][number]=type;
    3c1e:	81 e0       	ldi	r24, 0x01	; 1
    3c20:	90 e0       	ldi	r25, 0x00	; 0
    3c22:	80 93 a6 39 	sts	0x39A6, r24	; 0x8039a6 <reactStr+0x82>
    3c26:	90 93 a7 39 	sts	0x39A7, r25	; 0x8039a7 <reactStr+0x83>
                for (uint8_t x=0; x<2; ++x) {
                    if (inventory[x]) {
                        if (CheckLetter(inventory[x], data[1])) {
                            PopulateObject(inventory[x], &actObj1);
                            SetResponse(elements++, A_DROPPING, L_DROPPING, TEASER);
                            SetResponse(elements++, actObj1.addrStr[NAME], actObj1.lenStr[NAME], GAME);
    3c2a:	20 91 fd 38 	lds	r18, 0x38FD	; 0x8038fd <actObj1.3991+0x1a>
    3c2e:	30 91 fe 38 	lds	r19, 0x38FE	; 0x8038fe <actObj1.3991+0x1b>
    return 0;
}

//
void SetResponse(uint8_t number, uint16_t address, uint16_t length, uint8_t type){
    reactStr[0][number]=address;
    3c32:	40 91 ef 38 	lds	r20, 0x38EF	; 0x8038ef <actObj1.3991+0xc>
    3c36:	50 91 f0 38 	lds	r21, 0x38F0	; 0x8038f0 <actObj1.3991+0xd>
    3c3a:	40 93 28 39 	sts	0x3928, r20	; 0x803928 <reactStr+0x4>
    3c3e:	50 93 29 39 	sts	0x3929, r21	; 0x803929 <reactStr+0x5>
    reactStr[1][number]=length;
    3c42:	20 93 68 39 	sts	0x3968, r18	; 0x803968 <reactStr+0x44>
    3c46:	30 93 69 39 	sts	0x3969, r19	; 0x803969 <reactStr+0x45>
    reactStr[2][number]=type;
    3c4a:	10 92 a8 39 	sts	0x39A8, r1	; 0x8039a8 <reactStr+0x84>
    3c4e:	10 92 a9 39 	sts	0x39A9, r1	; 0x8039a9 <reactStr+0x85>
    return 0;
}

//
void SetResponse(uint8_t number, uint16_t address, uint16_t length, uint8_t type){
    reactStr[0][number]=address;
    3c52:	29 e5       	ldi	r18, 0x59	; 89
    3c54:	3a e7       	ldi	r19, 0x7A	; 122
    3c56:	20 93 2a 39 	sts	0x392A, r18	; 0x80392a <reactStr+0x6>
    3c5a:	30 93 2b 39 	sts	0x392B, r19	; 0x80392b <reactStr+0x7>
    reactStr[1][number]=length;
    3c5e:	22 e0       	ldi	r18, 0x02	; 2
    3c60:	30 e0       	ldi	r19, 0x00	; 0
    3c62:	20 93 6a 39 	sts	0x396A, r18	; 0x80396a <reactStr+0x46>
    3c66:	30 93 6b 39 	sts	0x396B, r19	; 0x80396b <reactStr+0x47>
    reactStr[2][number]=type;
    3c6a:	80 93 aa 39 	sts	0x39AA, r24	; 0x8039aa <reactStr+0x86>
    3c6e:	90 93 ab 39 	sts	0x39AB, r25	; 0x8039ab <reactStr+0x87>
    return 0;
}

//
void SetResponse(uint8_t number, uint16_t address, uint16_t length, uint8_t type){
    reactStr[0][number]=address;
    3c72:	29 e5       	ldi	r18, 0x59	; 89
    3c74:	37 e7       	ldi	r19, 0x77	; 119
    3c76:	20 93 2c 39 	sts	0x392C, r18	; 0x80392c <reactStr+0x8>
    3c7a:	30 93 2d 39 	sts	0x392D, r19	; 0x80392d <reactStr+0x9>
    reactStr[1][number]=length;
    3c7e:	2d e3       	ldi	r18, 0x3D	; 61
    3c80:	30 e0       	ldi	r19, 0x00	; 0
    3c82:	20 93 6c 39 	sts	0x396C, r18	; 0x80396c <reactStr+0x48>
    3c86:	30 93 6d 39 	sts	0x396D, r19	; 0x80396d <reactStr+0x49>
    reactStr[2][number]=type;
    3c8a:	80 93 ac 39 	sts	0x39AC, r24	; 0x8039ac <reactStr+0x88>
    3c8e:	90 93 ad 39 	sts	0x39AD, r25	; 0x8039ad <reactStr+0x89>
                            PopulateObject(inventory[x], &actObj1);
                            SetResponse(elements++, A_DROPPING, L_DROPPING, TEASER);
                            SetResponse(elements++, actObj1.addrStr[NAME], actObj1.lenStr[NAME], GAME);
                            SetResponse(elements++, A_LF, 2, TEASER);
                            SetResponse(elements++, A_RETURNING, L_RETURNING, TEASER);
                            inventory[x] = 0;
    3c92:	f8 01       	movw	r30, r16
    3c94:	10 82       	st	Z, r1
    3c96:	11 82       	std	Z+1, r1	; 0x01
                        if (CheckLetter(inventory[x], data[1])) {
                            PopulateObject(inventory[x], &actObj1);
                            SetResponse(elements++, A_DROPPING, L_DROPPING, TEASER);
                            SetResponse(elements++, actObj1.addrStr[NAME], actObj1.lenStr[NAME], GAME);
                            SetResponse(elements++, A_LF, 2, TEASER);
                            SetResponse(elements++, A_RETURNING, L_RETURNING, TEASER);
    3c98:	15 e0       	ldi	r17, 0x05	; 5
                            inventory[x] = 0;
                            break;
    3c9a:	86 cf       	rjmp	.-244    	; 0x3ba8 <ProcessInput+0xed6>
                SetResponse(elements++, A_EMPTYHANDS, L_EMPTYHANDS, TEASER);
            } else if (inputLen != 2) {
                SetResponse(elements++, A_NOTPOSSIBLE, L_NOTPOSSIBLE, TEASER);
            } else {
                for (uint8_t x=0; x<2; ++x) {
                    if (inventory[x]) {
    3c9c:	80 91 46 38 	lds	r24, 0x3846	; 0x803846 <inventory+0x2>
    3ca0:	90 91 47 38 	lds	r25, 0x3847	; 0x803847 <inventory+0x3>
    3ca4:	00 97       	sbiw	r24, 0x00	; 0
    3ca6:	49 f0       	breq	.+18     	; 0x3cba <ProcessInput+0xfe8>
                        if (CheckLetter(inventory[x], data[1])) {
    3ca8:	f3 01       	movw	r30, r6
    3caa:	61 81       	ldd	r22, Z+1	; 0x01
    3cac:	0e 94 8c 12 	call	0x2518	; 0x2518 <CheckLetter>
    3cb0:	88 23       	and	r24, r24
    3cb2:	19 f0       	breq	.+6      	; 0x3cba <ProcessInput+0xfe8>
                SetResponse(elements++, A_EMPTYHANDS, L_EMPTYHANDS, TEASER);
            } else if (inputLen != 2) {
                SetResponse(elements++, A_NOTPOSSIBLE, L_NOTPOSSIBLE, TEASER);
            } else {
                for (uint8_t x=0; x<2; ++x) {
                    if (inventory[x]) {
    3cb4:	01 e0       	ldi	r16, 0x01	; 1
    3cb6:	10 e0       	ldi	r17, 0x00	; 0
    3cb8:	9b cf       	rjmp	.-202    	; 0x3bf0 <ProcessInput+0xf1e>
    return 0;
}

//
void SetResponse(uint8_t number, uint16_t address, uint16_t length, uint8_t type){
    reactStr[0][number]=address;
    3cba:	81 e6       	ldi	r24, 0x61	; 97
    3cbc:	99 e7       	ldi	r25, 0x79	; 121
    3cbe:	80 93 26 39 	sts	0x3926, r24	; 0x803926 <reactStr+0x2>
    3cc2:	90 93 27 39 	sts	0x3927, r25	; 0x803927 <reactStr+0x3>
    reactStr[1][number]=length;
    3cc6:	81 e2       	ldi	r24, 0x21	; 33
    3cc8:	90 e0       	ldi	r25, 0x00	; 0
    } else {

        responseList = SetStandardResponse(1);
    }

    data[0] = 0;
    3cca:	cb c8       	rjmp	.-3690   	; 0x2e62 <ProcessInput+0x190>
    3ccc:	f3 01       	movw	r30, r6
    serRxDone = 0;
    3cce:	10 82       	st	Z, r1
    3cd0:	10 92 4c 38 	sts	0x384C, r1	; 0x80384c <serRxDone>
    RXCNT = 0;    
    return 0;
}
    3cd4:	1d ba       	out	0x1d, r1	; 29
    3cd6:	80 e0       	ldi	r24, 0x00	; 0
    3cd8:	28 96       	adiw	r28, 0x08	; 8
    3cda:	ee e0       	ldi	r30, 0x0E	; 14
    3cdc:	f6 c0       	rjmp	.+492    	; 0x3eca <__epilogue_restores__+0x8>

00003cde <TextAdventure>:


//MAIN GAME STRUCTURE
uint8_t TextAdventure(){
    3cde:	cf 93       	push	r28
    static uint8_t serInput[RXLEN];
    uint16_t PunishmentCount;
    
    /* Count down PunishmentTime on WING LEDs */
    if (PunishmentTime != 0) {
    3ce0:	80 91 10 39 	lds	r24, 0x3910	; 0x803910 <PunishmentTime>
    3ce4:	90 91 11 39 	lds	r25, 0x3911	; 0x803911 <PunishmentTime+0x1>
    3ce8:	89 2b       	or	r24, r25
    3cea:	09 f1       	breq	.+66     	; 0x3d2e <TextAdventure+0x50>
        PunishmentCount = getClock();
    3cec:	0e 94 60 0e 	call	0x1cc0	; 0x1cc0 <getClock>
        if (PunishmentCount < PunishmentTime)
    3cf0:	20 91 10 39 	lds	r18, 0x3910	; 0x803910 <PunishmentTime>
    3cf4:	30 91 11 39 	lds	r19, 0x3911	; 0x803911 <PunishmentTime+0x1>
    3cf8:	82 17       	cp	r24, r18
    3cfa:	93 07       	cpc	r25, r19
    3cfc:	08 f4       	brcc	.+2      	; 0x3d00 <TextAdventure+0x22>
            PunishmentCount += 256 * 60;
    3cfe:	94 5c       	subi	r25, 0xC4	; 196
        PunishmentCount -= PunishmentTime;
    3d00:	ac 01       	movw	r20, r24
    3d02:	42 1b       	sub	r20, r18
    3d04:	53 0b       	sbc	r21, r19
    3d06:	9a 01       	movw	r18, r20
        if (PunishmentCount > 10) {
    3d08:	4b 30       	cpi	r20, 0x0B	; 11
    3d0a:	51 05       	cpc	r21, r1
    3d0c:	30 f0       	brcs	.+12     	; 0x3d1a <TextAdventure+0x3c>
            PunishmentTime = 0;
    3d0e:	10 92 10 39 	sts	0x3910, r1	; 0x803910 <PunishmentTime>
    3d12:	10 92 11 39 	sts	0x3911, r1	; 0x803911 <PunishmentTime+0x1>
            PunishmentCount = 10;
    3d16:	2a e0       	ldi	r18, 0x0A	; 10
    3d18:	30 e0       	ldi	r19, 0x00	; 0
        }
        if (gameNow == TEXT ) {
    3d1a:	80 91 42 38 	lds	r24, 0x3842	; 0x803842 <gameNow>
    3d1e:	81 11       	cpse	r24, r1
    3d20:	06 c0       	rjmp	.+12     	; 0x3d2e <TextAdventure+0x50>
            WingBar(10-PunishmentCount,5-PunishmentCount);
    3d22:	65 e0       	ldi	r22, 0x05	; 5
    3d24:	62 1b       	sub	r22, r18
    3d26:	8a e0       	ldi	r24, 0x0A	; 10
    3d28:	82 1b       	sub	r24, r18
    3d2a:	0e 94 f0 0a 	call	0x15e0	; 0x15e0 <WingBar>
        }
    }

    //Still sending data to serial?
    if (CheckSend()) return 1;
    3d2e:	0e 94 64 13 	call	0x26c8	; 0x26c8 <CheckSend>
    3d32:	88 23       	and	r24, r24
    3d34:	11 f0       	breq	.+4      	; 0x3d3a <TextAdventure+0x5c>
    3d36:	c1 e0       	ldi	r28, 0x01	; 1
    3d38:	18 c0       	rjmp	.+48     	; 0x3d6a <TextAdventure+0x8c>

    //Not sending? Process next response part to send, if any.
    if (CheckResponse()) return 1;        
    3d3a:	0e 94 ba 13 	call	0x2774	; 0x2774 <CheckResponse>
    3d3e:	c8 2f       	mov	r28, r24
    3d40:	81 11       	cpse	r24, r1
    3d42:	f9 cf       	rjmp	.-14     	; 0x3d36 <TextAdventure+0x58>

    if (PunishmentTime == 0) {
    3d44:	80 91 10 39 	lds	r24, 0x3910	; 0x803910 <PunishmentTime>
    3d48:	90 91 11 39 	lds	r25, 0x3911	; 0x803911 <PunishmentTime+0x1>
    3d4c:	89 2b       	or	r24, r25
    3d4e:	69 f4       	brne	.+26     	; 0x3d6a <TextAdventure+0x8c>
        //No responses to send, check if there is user input.
        if (CheckInput(&serInput[0])) return 2; 
    3d50:	87 e7       	ldi	r24, 0x77	; 119
    3d52:	98 e3       	ldi	r25, 0x38	; 56
    3d54:	0e 94 fa 13 	call	0x27f4	; 0x27f4 <CheckInput>
    3d58:	c8 2f       	mov	r28, r24
    3d5a:	81 11       	cpse	r24, r1
    3d5c:	05 c0       	rjmp	.+10     	; 0x3d68 <TextAdventure+0x8a>

        //Input found, process and save (changes only)
        ProcessInput(&serInput[0]);
    3d5e:	87 e7       	ldi	r24, 0x77	; 119
    3d60:	98 e3       	ldi	r25, 0x38	; 56
    3d62:	0e 94 69 16 	call	0x2cd2	; 0x2cd2 <ProcessInput>
    3d66:	01 c0       	rjmp	.+2      	; 0x3d6a <TextAdventure+0x8c>
    //Not sending? Process next response part to send, if any.
    if (CheckResponse()) return 1;        

    if (PunishmentTime == 0) {
        //No responses to send, check if there is user input.
        if (CheckInput(&serInput[0])) return 2; 
    3d68:	c2 e0       	ldi	r28, 0x02	; 2
        //Input found, process and save (changes only)
        ProcessInput(&serInput[0]);
    }

    return 0;
}
    3d6a:	8c 2f       	mov	r24, r28
    3d6c:	cf 91       	pop	r28
    3d6e:	08 95       	ret

00003d70 <main>:


//This is where it begins, inits first and main program in while(1) loop.
int main(void)
{
    Setup();
    3d70:	0e 94 d5 04 	call	0x9aa	; 0x9aa <Setup>
    LoadGameState();
    3d74:	0e 94 5e 0a 	call	0x14bc	; 0x14bc <LoadGameState>
    gameState[0]|=1;
    3d78:	80 91 6a 3a 	lds	r24, 0x3A6A	; 0x803a6a <gameState>
    3d7c:	81 60       	ori	r24, 0x01	; 1
    3d7e:	80 93 6a 3a 	sts	0x3A6A, r24	; 0x803a6a <gameState>
    SelfTest();
    3d82:	0e 94 87 0e 	call	0x1d0e	; 0x1d0e <SelfTest>
            if (adcPhot < 10) UpdateState(116);
            if (adcPhot > 100) UpdateState(128+116);

            dimValueSum -= (dimValueSum>>6);
            dimValueSum += 256;
            dimValueSum -= QSINE[31-(adcPhot>>7)];
    3d86:	cf e1       	ldi	r28, 0x1F	; 31
    3d88:	d0 e0       	ldi	r29, 0x00	; 0
    LoadGameState();
    gameState[0]|=1;
    SelfTest();

    while (TRUE) {
        if (GenerateAudio()) {
    3d8a:	0e 94 e7 0c 	call	0x19ce	; 0x19ce <GenerateAudio>
    3d8e:	88 23       	and	r24, r24
    3d90:	e1 f3       	breq	.-8      	; 0x3d8a <main+0x1a>
            lastButtonState = buttonState;
    3d92:	80 91 08 38 	lds	r24, 0x3808	; 0x803808 <buttonState>
    3d96:	80 93 07 38 	sts	0x3807, r24	; 0x803807 <lastButtonState>
            buttonState = CheckButtons();
    3d9a:	0e 94 cb 08 	call	0x1196	; 0x1196 <CheckButtons>
    3d9e:	80 93 08 38 	sts	0x3808, r24	; 0x803808 <buttonState>
            --buttonMark;
    3da2:	80 91 48 38 	lds	r24, 0x3848	; 0x803848 <buttonMark>
    3da6:	81 50       	subi	r24, 0x01	; 1
    3da8:	80 93 48 38 	sts	0x3848, r24	; 0x803848 <buttonMark>

            if (VREF_CTRLA == 0x12) SelectAuIn(); else SelectTSens();
    3dac:	80 91 a0 00 	lds	r24, 0x00A0	; 0x8000a0 <__TEXT_REGION_LENGTH__+0x7000a0>
    3db0:	82 31       	cpi	r24, 0x12	; 18
    3db2:	19 f4       	brne	.+6      	; 0x3dba <main+0x4a>
    3db4:	0e 94 bc 08 	call	0x1178	; 0x1178 <SelectAuIn>
    3db8:	02 c0       	rjmp	.+4      	; 0x3dbe <main+0x4e>
    3dba:	0e 94 ad 08 	call	0x115a	; 0x115a <SelectTSens>

            GenerateBlinks();
    3dbe:	0e 94 45 0b 	call	0x168a	; 0x168a <GenerateBlinks>

            //Main game, to complete: Finish sub-game MagnetMaze and MakeFriends too.
            TextAdventure();
    3dc2:	8d df       	rcall	.-230    	; 0x3cde <TextAdventure>

            //Other games & user interaction checks
            MagnetMaze();
    3dc4:	0e 94 d8 03 	call	0x7b0	; 0x7b0 <MagnetMaze>
            LanyardCode();
    3dc8:	0e 94 d5 02 	call	0x5aa	; 0x5aa <LanyardCode>
            BastetDictates();
    3dcc:	0e 94 72 0f 	call	0x1ee4	; 0x1ee4 <BastetDictates>
            MakeFriends();
    3dd0:	0e 94 7d 00 	call	0xfa	; 0xfa <MakeFriends>

            //Save progress
            SaveGameState();
    3dd4:	0e 94 78 09 	call	0x12f0	; 0x12f0 <SaveGameState>

            //Check light sensor status (added hysteresis to preserve writing cycles to internal EEPROM)
            if (adcPhot < 10) UpdateState(116);
    3dd8:	80 91 c6 3a 	lds	r24, 0x3AC6	; 0x803ac6 <adcPhot>
    3ddc:	90 91 c7 3a 	lds	r25, 0x3AC7	; 0x803ac7 <adcPhot+0x1>
    3de0:	0a 97       	sbiw	r24, 0x0a	; 10
    3de2:	18 f4       	brcc	.+6      	; 0x3dea <main+0x7a>
    3de4:	84 e7       	ldi	r24, 0x74	; 116
    3de6:	0e 94 ff 09 	call	0x13fe	; 0x13fe <UpdateState>
            if (adcPhot > 100) UpdateState(128+116);
    3dea:	80 91 c6 3a 	lds	r24, 0x3AC6	; 0x803ac6 <adcPhot>
    3dee:	90 91 c7 3a 	lds	r25, 0x3AC7	; 0x803ac7 <adcPhot+0x1>
    3df2:	85 36       	cpi	r24, 0x65	; 101
    3df4:	91 05       	cpc	r25, r1
    3df6:	18 f0       	brcs	.+6      	; 0x3dfe <main+0x8e>
    3df8:	84 ef       	ldi	r24, 0xF4	; 244
    3dfa:	0e 94 ff 09 	call	0x13fe	; 0x13fe <UpdateState>

            dimValueSum -= (dimValueSum>>6);
    3dfe:	20 91 0a 38 	lds	r18, 0x380A	; 0x80380a <dimValueSum>
    3e02:	30 91 0b 38 	lds	r19, 0x380B	; 0x80380b <dimValueSum+0x1>
    3e06:	80 91 0a 38 	lds	r24, 0x380A	; 0x80380a <dimValueSum>
    3e0a:	90 91 0b 38 	lds	r25, 0x380B	; 0x80380b <dimValueSum+0x1>
    3e0e:	46 e0       	ldi	r20, 0x06	; 6
    3e10:	36 95       	lsr	r19
    3e12:	27 95       	ror	r18
    3e14:	4a 95       	dec	r20
    3e16:	e1 f7       	brne	.-8      	; 0x3e10 <main+0xa0>
    3e18:	82 1b       	sub	r24, r18
    3e1a:	93 0b       	sbc	r25, r19
    3e1c:	80 93 0a 38 	sts	0x380A, r24	; 0x80380a <dimValueSum>
    3e20:	90 93 0b 38 	sts	0x380B, r25	; 0x80380b <dimValueSum+0x1>
            dimValueSum += 256;
    3e24:	80 91 0a 38 	lds	r24, 0x380A	; 0x80380a <dimValueSum>
    3e28:	90 91 0b 38 	lds	r25, 0x380B	; 0x80380b <dimValueSum+0x1>
    3e2c:	93 95       	inc	r25
    3e2e:	80 93 0a 38 	sts	0x380A, r24	; 0x80380a <dimValueSum>
    3e32:	90 93 0b 38 	sts	0x380B, r25	; 0x80380b <dimValueSum+0x1>
            dimValueSum -= QSINE[31-(adcPhot>>7)];
    3e36:	20 91 c6 3a 	lds	r18, 0x3AC6	; 0x803ac6 <adcPhot>
    3e3a:	30 91 c7 3a 	lds	r19, 0x3AC7	; 0x803ac7 <adcPhot+0x1>
    3e3e:	80 91 0a 38 	lds	r24, 0x380A	; 0x80380a <dimValueSum>
    3e42:	90 91 0b 38 	lds	r25, 0x380B	; 0x80380b <dimValueSum+0x1>
    3e46:	22 0f       	add	r18, r18
    3e48:	23 2f       	mov	r18, r19
    3e4a:	22 1f       	adc	r18, r18
    3e4c:	33 0b       	sbc	r19, r19
    3e4e:	31 95       	neg	r19
    3e50:	fe 01       	movw	r30, r28
    3e52:	e2 1b       	sub	r30, r18
    3e54:	f3 0b       	sbc	r31, r19
    3e56:	e0 5d       	subi	r30, 0xD0	; 208
    3e58:	f0 44       	sbci	r31, 0x40	; 64
    3e5a:	20 81       	ld	r18, Z
    3e5c:	82 1b       	sub	r24, r18
    3e5e:	91 09       	sbc	r25, r1
    3e60:	80 93 0a 38 	sts	0x380A, r24	; 0x80380a <dimValueSum>
    3e64:	90 93 0b 38 	sts	0x380B, r25	; 0x80380b <dimValueSum+0x1>
            dimValue     = dimValueSum>>6;
    3e68:	80 91 0a 38 	lds	r24, 0x380A	; 0x80380a <dimValueSum>
    3e6c:	90 91 0b 38 	lds	r25, 0x380B	; 0x80380b <dimValueSum+0x1>
    3e70:	66 e0       	ldi	r22, 0x06	; 6
    3e72:	96 95       	lsr	r25
    3e74:	87 95       	ror	r24
    3e76:	6a 95       	dec	r22
    3e78:	e1 f7       	brne	.-8      	; 0x3e72 <main+0x102>
    3e7a:	80 93 0c 38 	sts	0x380C, r24	; 0x80380c <dimValue>

            //Check temperature
            HotSummer();
    3e7e:	0e 94 8b 0a 	call	0x1516	; 0x1516 <HotSummer>
    3e82:	83 cf       	rjmp	.-250    	; 0x3d8a <main+0x1a>

00003e84 <__tablejump2__>:
    3e84:	ee 0f       	add	r30, r30
    3e86:	ff 1f       	adc	r31, r31
    3e88:	05 90       	lpm	r0, Z+
    3e8a:	f4 91       	lpm	r31, Z
    3e8c:	e0 2d       	mov	r30, r0
    3e8e:	09 94       	ijmp

00003e90 <__prologue_saves__>:
    3e90:	2f 92       	push	r2
    3e92:	3f 92       	push	r3
    3e94:	4f 92       	push	r4
    3e96:	5f 92       	push	r5
    3e98:	6f 92       	push	r6
    3e9a:	7f 92       	push	r7
    3e9c:	8f 92       	push	r8
    3e9e:	9f 92       	push	r9
    3ea0:	af 92       	push	r10
    3ea2:	bf 92       	push	r11
    3ea4:	cf 92       	push	r12
    3ea6:	df 92       	push	r13
    3ea8:	ef 92       	push	r14
    3eaa:	ff 92       	push	r15
    3eac:	0f 93       	push	r16
    3eae:	1f 93       	push	r17
    3eb0:	cf 93       	push	r28
    3eb2:	df 93       	push	r29
    3eb4:	cd b7       	in	r28, 0x3d	; 61
    3eb6:	de b7       	in	r29, 0x3e	; 62
    3eb8:	ca 1b       	sub	r28, r26
    3eba:	db 0b       	sbc	r29, r27
    3ebc:	cd bf       	out	0x3d, r28	; 61
    3ebe:	de bf       	out	0x3e, r29	; 62
    3ec0:	09 94       	ijmp

00003ec2 <__epilogue_restores__>:
    3ec2:	2a 88       	ldd	r2, Y+18	; 0x12
    3ec4:	39 88       	ldd	r3, Y+17	; 0x11
    3ec6:	48 88       	ldd	r4, Y+16	; 0x10
    3ec8:	5f 84       	ldd	r5, Y+15	; 0x0f
    3eca:	6e 84       	ldd	r6, Y+14	; 0x0e
    3ecc:	7d 84       	ldd	r7, Y+13	; 0x0d
    3ece:	8c 84       	ldd	r8, Y+12	; 0x0c
    3ed0:	9b 84       	ldd	r9, Y+11	; 0x0b
    3ed2:	aa 84       	ldd	r10, Y+10	; 0x0a
    3ed4:	b9 84       	ldd	r11, Y+9	; 0x09
    3ed6:	c8 84       	ldd	r12, Y+8	; 0x08
    3ed8:	df 80       	ldd	r13, Y+7	; 0x07
    3eda:	ee 80       	ldd	r14, Y+6	; 0x06
    3edc:	fd 80       	ldd	r15, Y+5	; 0x05
    3ede:	0c 81       	ldd	r16, Y+4	; 0x04
    3ee0:	1b 81       	ldd	r17, Y+3	; 0x03
    3ee2:	aa 81       	ldd	r26, Y+2	; 0x02
    3ee4:	b9 81       	ldd	r27, Y+1	; 0x01
    3ee6:	ce 0f       	add	r28, r30
    3ee8:	d1 1d       	adc	r29, r1
    3eea:	cd bf       	out	0x3d, r28	; 61
    3eec:	de bf       	out	0x3e, r29	; 62
    3eee:	ed 01       	movw	r28, r26
    3ef0:	08 95       	ret

00003ef2 <_exit>:
    3ef2:	f8 94       	cli

00003ef4 <__stop_program>:
    3ef4:	ff cf       	rjmp	.-2      	; 0x3ef4 <__stop_program>
