
ISR_IO.elf:     file format elf32-avr

Sections:
Idx Name          Size      VMA       LMA       File off  Algn
  0 .data         00000002  00803800  00000d54  00000e08  2**0
                  CONTENTS, ALLOC, LOAD, DATA
  1 .text         00000d10  00000000  00000000  000000b4  2**1
                  CONTENTS, ALLOC, LOAD, READONLY, CODE
  2 .rodata       00000044  00008d10  00000d10  00000dc4  2**0
                  CONTENTS, ALLOC, LOAD, READONLY, DATA
  3 .bss          000000ec  00803802  00803802  00000e0a  2**0
                  ALLOC
  4 .comment      00000030  00000000  00000000  00000e0a  2**0
                  CONTENTS, READONLY
  5 .note.gnu.avr.deviceinfo 00000040  00000000  00000000  00000e3c  2**2
                  CONTENTS, READONLY
  6 .debug_aranges 000001c0  00000000  00000000  00000e7c  2**0
                  CONTENTS, READONLY, DEBUGGING
  7 .debug_info   000033a8  00000000  00000000  0000103c  2**0
                  CONTENTS, READONLY, DEBUGGING
  8 .debug_abbrev 00002085  00000000  00000000  000043e4  2**0
                  CONTENTS, READONLY, DEBUGGING
  9 .debug_line   00001599  00000000  00000000  00006469  2**0
                  CONTENTS, READONLY, DEBUGGING
 10 .debug_frame  0000051c  00000000  00000000  00007a04  2**2
                  CONTENTS, READONLY, DEBUGGING
 11 .debug_str    0000150f  00000000  00000000  00007f20  2**0
                  CONTENTS, READONLY, DEBUGGING
 12 .debug_loc    00001421  00000000  00000000  0000942f  2**0
                  CONTENTS, READONLY, DEBUGGING
 13 .debug_ranges 00000168  00000000  00000000  0000a850  2**0
                  CONTENTS, READONLY, DEBUGGING

Disassembly of section .text:

00000000 <__vectors>:
   0:	3d c0       	rjmp	.+122    	; 0x7c <__ctors_end>
   2:	00 00       	nop
   4:	56 c0       	rjmp	.+172    	; 0xb2 <__bad_interrupt>
   6:	00 00       	nop
   8:	54 c0       	rjmp	.+168    	; 0xb2 <__bad_interrupt>
   a:	00 00       	nop
   c:	52 c0       	rjmp	.+164    	; 0xb2 <__bad_interrupt>
   e:	00 00       	nop
  10:	50 c0       	rjmp	.+160    	; 0xb2 <__bad_interrupt>
  12:	00 00       	nop
  14:	4e c0       	rjmp	.+156    	; 0xb2 <__bad_interrupt>
  16:	00 00       	nop
  18:	fd c3       	rjmp	.+2042   	; 0x814 <__vector_6>
  1a:	00 00       	nop
  1c:	4f c4       	rjmp	.+2206   	; 0x8bc <__vector_7>
  1e:	00 00       	nop
  20:	75 c2       	rjmp	.+1258   	; 0x50c <__vector_8>
  22:	00 00       	nop
  24:	46 c0       	rjmp	.+140    	; 0xb2 <__bad_interrupt>
  26:	00 00       	nop
  28:	44 c0       	rjmp	.+136    	; 0xb2 <__bad_interrupt>
  2a:	00 00       	nop
  2c:	42 c0       	rjmp	.+132    	; 0xb2 <__bad_interrupt>
  2e:	00 00       	nop
  30:	40 c0       	rjmp	.+128    	; 0xb2 <__bad_interrupt>
  32:	00 00       	nop
  34:	bf c2       	rjmp	.+1406   	; 0x5b4 <__vector_13>
  36:	00 00       	nop
  38:	f0 c2       	rjmp	.+1504   	; 0x61a <__vector_14>
  3a:	00 00       	nop
  3c:	3a c0       	rjmp	.+116    	; 0xb2 <__bad_interrupt>
  3e:	00 00       	nop
  40:	38 c0       	rjmp	.+112    	; 0xb2 <__bad_interrupt>
  42:	00 00       	nop
  44:	36 c0       	rjmp	.+108    	; 0xb2 <__bad_interrupt>
  46:	00 00       	nop
  48:	34 c0       	rjmp	.+104    	; 0xb2 <__bad_interrupt>
  4a:	00 00       	nop
  4c:	32 c0       	rjmp	.+100    	; 0xb2 <__bad_interrupt>
  4e:	00 00       	nop
  50:	63 c3       	rjmp	.+1734   	; 0x718 <__vector_20>
  52:	00 00       	nop
  54:	2e c0       	rjmp	.+92     	; 0xb2 <__bad_interrupt>
  56:	00 00       	nop
  58:	8d c3       	rjmp	.+1818   	; 0x774 <__vector_22>
  5a:	00 00       	nop
  5c:	2a c0       	rjmp	.+84     	; 0xb2 <__bad_interrupt>
  5e:	00 00       	nop
  60:	28 c0       	rjmp	.+80     	; 0xb2 <__bad_interrupt>
  62:	00 00       	nop
  64:	26 c0       	rjmp	.+76     	; 0xb2 <__bad_interrupt>
  66:	00 00       	nop
  68:	24 c0       	rjmp	.+72     	; 0xb2 <__bad_interrupt>
  6a:	00 00       	nop
  6c:	05 c3       	rjmp	.+1546   	; 0x678 <__vector_27>
  6e:	00 00       	nop
  70:	37 c3       	rjmp	.+1646   	; 0x6e0 <__vector_28>
  72:	00 00       	nop
  74:	1e c0       	rjmp	.+60     	; 0xb2 <__bad_interrupt>
  76:	00 00       	nop
  78:	1c c0       	rjmp	.+56     	; 0xb2 <__bad_interrupt>
	...

0000007c <__ctors_end>:
  7c:	11 24       	eor	r1, r1
  7e:	1f be       	out	0x3f, r1	; 63
  80:	cf ef       	ldi	r28, 0xFF	; 255
  82:	cd bf       	out	0x3d, r28	; 61
  84:	df e3       	ldi	r29, 0x3F	; 63
  86:	de bf       	out	0x3e, r29	; 62

00000088 <__do_copy_data>:
  88:	18 e3       	ldi	r17, 0x38	; 56
  8a:	a0 e0       	ldi	r26, 0x00	; 0
  8c:	b8 e3       	ldi	r27, 0x38	; 56
  8e:	e4 e5       	ldi	r30, 0x54	; 84
  90:	fd e0       	ldi	r31, 0x0D	; 13
  92:	02 c0       	rjmp	.+4      	; 0x98 <__do_copy_data+0x10>
  94:	05 90       	lpm	r0, Z+
  96:	0d 92       	st	X+, r0
  98:	a2 30       	cpi	r26, 0x02	; 2
  9a:	b1 07       	cpc	r27, r17
  9c:	d9 f7       	brne	.-10     	; 0x94 <__do_copy_data+0xc>

0000009e <__do_clear_bss>:
  9e:	28 e3       	ldi	r18, 0x38	; 56
  a0:	a2 e0       	ldi	r26, 0x02	; 2
  a2:	b8 e3       	ldi	r27, 0x38	; 56
  a4:	01 c0       	rjmp	.+2      	; 0xa8 <.do_clear_bss_start>

000000a6 <.do_clear_bss_loop>:
  a6:	1d 92       	st	X+, r1

000000a8 <.do_clear_bss_start>:
  a8:	ae 3e       	cpi	r26, 0xEE	; 238
  aa:	b2 07       	cpc	r27, r18
  ac:	e1 f7       	brne	.-8      	; 0xa6 <.do_clear_bss_loop>
  ae:	e3 d5       	rcall	.+3014   	; 0xc76 <main>
  b0:	2d c6       	rjmp	.+3162   	; 0xd0c <_exit>

000000b2 <__bad_interrupt>:
  b2:	a6 cf       	rjmp	.-180    	; 0x0 <__vectors>

000000b4 <I2C_init>:
// the Atmel device documentation mentions a special command for repeated start TWI_MCMD_REPSTART_gc,
// but this is not used in Atmel's demo code, so we don't use it either

void I2C_rep_start(uint8_t shifted_addr)						    // send repeated start, device_addr + LSB set if READ
{
	TWI0.MADDR = shifted_addr;	
  b4:	81 e0       	ldi	r24, 0x01	; 1
  b6:	80 93 22 04 	sts	0x0422, r24	; 0x800422 <__TEXT_REGION_LENGTH__+0x700422>
  ba:	e6 e2       	ldi	r30, 0x26	; 38
  bc:	f4 e0       	ldi	r31, 0x04	; 4
  be:	80 83       	st	Z, r24
  c0:	10 92 30 04 	sts	0x0430, r1	; 0x800430 <__TEXT_REGION_LENGTH__+0x700430>
  c4:	a1 e2       	ldi	r26, 0x21	; 33
  c6:	b4 e0       	ldi	r27, 0x04	; 4
  c8:	92 e0       	ldi	r25, 0x02	; 2
  ca:	9c 93       	st	X, r25
  cc:	90 83       	st	Z, r25
  ce:	10 92 31 04 	sts	0x0431, r1	; 0x800431 <__TEXT_REGION_LENGTH__+0x700431>
  d2:	e0 e1       	ldi	r30, 0x10	; 16
  d4:	f8 e0       	ldi	r31, 0x08	; 8
  d6:	9d e2       	ldi	r25, 0x2D	; 45
  d8:	96 83       	std	Z+6, r25	; 0x06
  da:	98 e0       	ldi	r25, 0x08	; 8
  dc:	94 83       	std	Z+4, r25	; 0x04
  de:	83 83       	std	Z+3, r24	; 0x03
  e0:	8c 93       	st	X, r24
  e2:	85 81       	ldd	r24, Z+5	; 0x05
  e4:	81 60       	ori	r24, 0x01	; 1
  e6:	85 83       	std	Z+5, r24	; 0x05
  e8:	85 81       	ldd	r24, Z+5	; 0x05
  ea:	84 6c       	ori	r24, 0xC4	; 196
  ec:	85 83       	std	Z+5, r24	; 0x05
  ee:	08 95       	ret

000000f0 <I2C_recover>:
  f0:	e0 e1       	ldi	r30, 0x10	; 16
  f2:	f8 e0       	ldi	r31, 0x08	; 8
  f4:	84 81       	ldd	r24, Z+4	; 0x04
  f6:	88 60       	ori	r24, 0x08	; 8
  f8:	84 83       	std	Z+4, r24	; 0x04
  fa:	13 82       	std	Z+3, r1	; 0x03
  fc:	82 e0       	ldi	r24, 0x02	; 2
  fe:	80 93 22 04 	sts	0x0422, r24	; 0x800422 <__TEXT_REGION_LENGTH__+0x700422>
 102:	89 e0       	ldi	r24, 0x09	; 9
 104:	a1 e2       	ldi	r26, 0x21	; 33
 106:	b4 e0       	ldi	r27, 0x04	; 4
 108:	91 e0       	ldi	r25, 0x01	; 1
 10a:	e2 e2       	ldi	r30, 0x22	; 34
 10c:	f4 e0       	ldi	r31, 0x04	; 4
 10e:	9c 93       	st	X, r25
 110:	20 e1       	ldi	r18, 0x10	; 16
 112:	2a 95       	dec	r18
 114:	f1 f7       	brne	.-4      	; 0x112 <I2C_recover+0x22>
 116:	00 c0       	rjmp	.+0      	; 0x118 <I2C_recover+0x28>
 118:	90 83       	st	Z, r25
 11a:	20 e1       	ldi	r18, 0x10	; 16
 11c:	2a 95       	dec	r18
 11e:	f1 f7       	brne	.-4      	; 0x11c <I2C_recover+0x2c>
 120:	00 c0       	rjmp	.+0      	; 0x122 <I2C_recover+0x32>
 122:	81 50       	subi	r24, 0x01	; 1
 124:	a1 f7       	brne	.-24     	; 0x10e <I2C_recover+0x1e>
 126:	e0 e1       	ldi	r30, 0x10	; 16
 128:	f8 e0       	ldi	r31, 0x08	; 8
 12a:	28 e0       	ldi	r18, 0x08	; 8
 12c:	24 83       	std	Z+4, r18	; 0x04
 12e:	81 e0       	ldi	r24, 0x01	; 1
 130:	83 83       	std	Z+3, r24	; 0x03
 132:	a1 e2       	ldi	r26, 0x21	; 33
 134:	b4 e0       	ldi	r27, 0x04	; 4
 136:	92 e0       	ldi	r25, 0x02	; 2
 138:	9c 93       	st	X, r25
 13a:	95 81       	ldd	r25, Z+5	; 0x05
 13c:	91 60       	ori	r25, 0x01	; 1
 13e:	95 83       	std	Z+5, r25	; 0x05
 140:	95 81       	ldd	r25, Z+5	; 0x05
 142:	94 6c       	ori	r25, 0xC4	; 196
 144:	95 83       	std	Z+5, r25	; 0x05
 146:	24 83       	std	Z+4, r18	; 0x04
 148:	83 83       	std	Z+3, r24	; 0x03
 14a:	8c 93       	st	X, r24
 14c:	85 81       	ldd	r24, Z+5	; 0x05
 14e:	81 60       	ori	r24, 0x01	; 1
 150:	85 83       	std	Z+5, r24	; 0x05
 152:	85 81       	ldd	r24, Z+5	; 0x05
 154:	84 6c       	ori	r24, 0xC4	; 196
 156:	85 83       	std	Z+5, r24	; 0x05
 158:	08 95       	ret

0000015a <I2C_start>:
 15a:	28 2f       	mov	r18, r24
 15c:	e0 e1       	ldi	r30, 0x10	; 16
 15e:	f8 e0       	ldi	r31, 0x08	; 8
 160:	95 81       	ldd	r25, Z+5	; 0x05
 162:	90 6c       	ori	r25, 0xC0	; 192
 164:	95 83       	std	Z+5, r25	; 0x05
 166:	95 81       	ldd	r25, Z+5	; 0x05
 168:	89 2f       	mov	r24, r25
 16a:	84 70       	andi	r24, 0x04	; 4
 16c:	92 fd       	sbrc	r25, 2
 16e:	03 c0       	rjmp	.+6      	; 0x176 <I2C_start+0x1c>
 170:	20 93 17 08 	sts	0x0817, r18	; 0x800817 <__TEXT_REGION_LENGTH__+0x700817>
 174:	08 95       	ret
 176:	84 e0       	ldi	r24, 0x04	; 4
 178:	08 95       	ret

0000017a <I2C_wait_ACK>:
 17a:	8c e0       	ldi	r24, 0x0C	; 12
 17c:	80 93 21 38 	sts	0x3821, r24	; 0x803821 <timeout_I2C>
 180:	e0 e1       	ldi	r30, 0x10	; 16
 182:	f8 e0       	ldi	r31, 0x08	; 8
 184:	04 c0       	rjmp	.+8      	; 0x18e <I2C_wait_ACK+0x14>
 186:	80 91 21 38 	lds	r24, 0x3821	; 0x803821 <timeout_I2C>
 18a:	88 23       	and	r24, r24
 18c:	b9 f0       	breq	.+46     	; 0x1bc <I2C_wait_ACK+0x42>
 18e:	85 81       	ldd	r24, Z+5	; 0x05
 190:	88 23       	and	r24, r24
 192:	1c f0       	brlt	.+6      	; 0x19a <I2C_wait_ACK+0x20>
 194:	85 81       	ldd	r24, Z+5	; 0x05
 196:	86 ff       	sbrs	r24, 6
 198:	f6 cf       	rjmp	.-20     	; 0x186 <I2C_wait_ACK+0xc>
 19a:	e0 e1       	ldi	r30, 0x10	; 16
 19c:	f8 e0       	ldi	r31, 0x08	; 8
 19e:	85 81       	ldd	r24, Z+5	; 0x05
 1a0:	80 6c       	ori	r24, 0xC0	; 192
 1a2:	85 83       	std	Z+5, r24	; 0x05
 1a4:	85 81       	ldd	r24, Z+5	; 0x05
 1a6:	82 fd       	sbrc	r24, 2
 1a8:	0b c0       	rjmp	.+22     	; 0x1c0 <I2C_wait_ACK+0x46>
 1aa:	80 91 15 08 	lds	r24, 0x0815	; 0x800815 <__TEXT_REGION_LENGTH__+0x700815>
 1ae:	83 fd       	sbrc	r24, 3
 1b0:	09 c0       	rjmp	.+18     	; 0x1c4 <I2C_wait_ACK+0x4a>
 1b2:	80 91 15 08 	lds	r24, 0x0815	; 0x800815 <__TEXT_REGION_LENGTH__+0x700815>
 1b6:	82 95       	swap	r24
 1b8:	81 70       	andi	r24, 0x01	; 1
 1ba:	08 95       	ret
 1bc:	8f ef       	ldi	r24, 0xFF	; 255
 1be:	08 95       	ret
 1c0:	84 e0       	ldi	r24, 0x04	; 4
 1c2:	08 95       	ret
 1c4:	82 e0       	ldi	r24, 0x02	; 2
 1c6:	08 95       	ret

000001c8 <I2C_read>:
}

uint8_t	I2C_read(uint8_t *data, uint8_t ack_flag)					// read data, ack_flag 0: send ACK, 1: send NACK, returns status
{
 1c8:	dc 01       	movw	r26, r24
	timeout_I2C = READ_TIMEOUT;										// reset timeout counter, will be decremented by LED matrix interrupt
 1ca:	9c e0       	ldi	r25, 0x0C	; 12
 1cc:	90 93 21 38 	sts	0x3821, r25	; 0x803821 <timeout_I2C>
	if ((TWI0.MSTATUS & TWI_BUSSTATE_gm) == TWI_BUSSTATE_OWNER_gc)	// if master controls bus
 1d0:	90 91 15 08 	lds	r25, 0x0815	; 0x800815 <__TEXT_REGION_LENGTH__+0x700815>
 1d4:	89 2f       	mov	r24, r25
 1d6:	83 70       	andi	r24, 0x03	; 3
 1d8:	82 30       	cpi	r24, 0x02	; 2
 1da:	39 f0       	breq	.+14     	; 0x1ea <I2C_read+0x22>
		else		TWI0.MCTRLB |= TWI_ACKACT_NACK_gc;				// setup NACK (last byte read)
		*data = TWI0.MDATA;
		if (ack_flag == 0) TWI0.MCTRLB |= TWI_MCMD_RECVTRANS_gc;	// send ACK, more bytes to follow					
		return 0;
	}
	else return 8;													// master does not control bus
 1dc:	88 e0       	ldi	r24, 0x08	; 8
 1de:	08 95       	ret
	timeout_I2C = READ_TIMEOUT;										// reset timeout counter, will be decremented by LED matrix interrupt
	if ((TWI0.MSTATUS & TWI_BUSSTATE_gm) == TWI_BUSSTATE_OWNER_gc)	// if master controls bus
	{		
		while (!(TWI0.MSTATUS & TWI_RIF_bm))						// wait for RIF set (data byte received)
		{
			if (!(timeout_I2C)) return 0xff;			            // return timeout error
 1e0:	90 91 21 38 	lds	r25, 0x3821	; 0x803821 <timeout_I2C>
 1e4:	91 11       	cpse	r25, r1
 1e6:	03 c0       	rjmp	.+6      	; 0x1ee <I2C_read+0x26>
 1e8:	2a c0       	rjmp	.+84     	; 0x23e <I2C_read+0x76>
uint8_t	I2C_read(uint8_t *data, uint8_t ack_flag)					// read data, ack_flag 0: send ACK, 1: send NACK, returns status
{
	timeout_I2C = READ_TIMEOUT;										// reset timeout counter, will be decremented by LED matrix interrupt
	if ((TWI0.MSTATUS & TWI_BUSSTATE_gm) == TWI_BUSSTATE_OWNER_gc)	// if master controls bus
	{		
		while (!(TWI0.MSTATUS & TWI_RIF_bm))						// wait for RIF set (data byte received)
 1ea:	e0 e1       	ldi	r30, 0x10	; 16
 1ec:	f8 e0       	ldi	r31, 0x08	; 8
 1ee:	95 81       	ldd	r25, Z+5	; 0x05
 1f0:	99 23       	and	r25, r25
 1f2:	b4 f7       	brge	.-20     	; 0x1e0 <I2C_read+0x18>
		{
			if (!(timeout_I2C)) return 0xff;			            // return timeout error
		}
		TWI0.MSTATUS |= (TWI_RIF_bm | TWI_WIF_bm);					// clear Read and Write interrupt flags	
 1f4:	e0 e1       	ldi	r30, 0x10	; 16
 1f6:	f8 e0       	ldi	r31, 0x08	; 8
 1f8:	95 81       	ldd	r25, Z+5	; 0x05
 1fa:	90 6c       	ori	r25, 0xC0	; 192
 1fc:	95 83       	std	Z+5, r25	; 0x05
		if (TWI0.MSTATUS & TWI_BUSERR_bm) return 4;					// Bus Error, abort
 1fe:	95 81       	ldd	r25, Z+5	; 0x05
 200:	92 fd       	sbrc	r25, 2
 202:	1f c0       	rjmp	.+62     	; 0x242 <I2C_read+0x7a>
		if (TWI0.MSTATUS & TWI_ARBLOST_bm) return 2;				// Arbitration Lost, abort
 204:	90 91 15 08 	lds	r25, 0x0815	; 0x800815 <__TEXT_REGION_LENGTH__+0x700815>
 208:	93 fd       	sbrc	r25, 3
 20a:	1e c0       	rjmp	.+60     	; 0x248 <I2C_read+0x80>
		if (TWI0.MSTATUS & TWI_RXACK_bm) return 1;					// Slave replied with NACK, abort				
 20c:	90 91 15 08 	lds	r25, 0x0815	; 0x800815 <__TEXT_REGION_LENGTH__+0x700815>
 210:	89 2f       	mov	r24, r25
 212:	80 71       	andi	r24, 0x10	; 16
 214:	94 fd       	sbrc	r25, 4
 216:	17 c0       	rjmp	.+46     	; 0x246 <I2C_read+0x7e>
		if (ack_flag == 0) TWI0.MCTRLB &= ~(1 << TWI_ACKACT_bp);	// setup ACK
 218:	61 11       	cpse	r22, r1
 21a:	09 c0       	rjmp	.+18     	; 0x22e <I2C_read+0x66>
 21c:	94 81       	ldd	r25, Z+4	; 0x04
 21e:	9b 7f       	andi	r25, 0xFB	; 251
 220:	94 83       	std	Z+4, r25	; 0x04
		else		TWI0.MCTRLB |= TWI_ACKACT_NACK_gc;				// setup NACK (last byte read)
		*data = TWI0.MDATA;
 222:	90 85       	ldd	r25, Z+8	; 0x08
 224:	9c 93       	st	X, r25
		if (ack_flag == 0) TWI0.MCTRLB |= TWI_MCMD_RECVTRANS_gc;	// send ACK, more bytes to follow					
 226:	94 81       	ldd	r25, Z+4	; 0x04
 228:	92 60       	ori	r25, 0x02	; 2
 22a:	94 83       	std	Z+4, r25	; 0x04
 22c:	08 95       	ret
		TWI0.MSTATUS |= (TWI_RIF_bm | TWI_WIF_bm);					// clear Read and Write interrupt flags	
		if (TWI0.MSTATUS & TWI_BUSERR_bm) return 4;					// Bus Error, abort
		if (TWI0.MSTATUS & TWI_ARBLOST_bm) return 2;				// Arbitration Lost, abort
		if (TWI0.MSTATUS & TWI_RXACK_bm) return 1;					// Slave replied with NACK, abort				
		if (ack_flag == 0) TWI0.MCTRLB &= ~(1 << TWI_ACKACT_bp);	// setup ACK
		else		TWI0.MCTRLB |= TWI_ACKACT_NACK_gc;				// setup NACK (last byte read)
 22e:	e0 e1       	ldi	r30, 0x10	; 16
 230:	f8 e0       	ldi	r31, 0x08	; 8
 232:	94 81       	ldd	r25, Z+4	; 0x04
 234:	94 60       	ori	r25, 0x04	; 4
 236:	94 83       	std	Z+4, r25	; 0x04
		*data = TWI0.MDATA;
 238:	90 85       	ldd	r25, Z+8	; 0x08
 23a:	9c 93       	st	X, r25
 23c:	08 95       	ret
	timeout_I2C = READ_TIMEOUT;										// reset timeout counter, will be decremented by LED matrix interrupt
	if ((TWI0.MSTATUS & TWI_BUSSTATE_gm) == TWI_BUSSTATE_OWNER_gc)	// if master controls bus
	{		
		while (!(TWI0.MSTATUS & TWI_RIF_bm))						// wait for RIF set (data byte received)
		{
			if (!(timeout_I2C)) return 0xff;			            // return timeout error
 23e:	8f ef       	ldi	r24, 0xFF	; 255
 240:	08 95       	ret
		}
		TWI0.MSTATUS |= (TWI_RIF_bm | TWI_WIF_bm);					// clear Read and Write interrupt flags	
		if (TWI0.MSTATUS & TWI_BUSERR_bm) return 4;					// Bus Error, abort
 242:	84 e0       	ldi	r24, 0x04	; 4
 244:	08 95       	ret
		if (TWI0.MSTATUS & TWI_ARBLOST_bm) return 2;				// Arbitration Lost, abort
		if (TWI0.MSTATUS & TWI_RXACK_bm) return 1;					// Slave replied with NACK, abort				
 246:	81 e0       	ldi	r24, 0x01	; 1
		*data = TWI0.MDATA;
		if (ack_flag == 0) TWI0.MCTRLB |= TWI_MCMD_RECVTRANS_gc;	// send ACK, more bytes to follow					
		return 0;
	}
	else return 8;													// master does not control bus
}
 248:	08 95       	ret

0000024a <I2C_write>:

uint8_t I2C_write(uint8_t *data)									// write data, return status
{
 24a:	fc 01       	movw	r30, r24
	timeout_I2C = WRITE_TIMEOUT;									// reset timeout counter, will be decremented by LED matrix interrupt
 24c:	9c e0       	ldi	r25, 0x0C	; 12
 24e:	90 93 21 38 	sts	0x3821, r25	; 0x803821 <timeout_I2C>
	if ((TWI0.MSTATUS & TWI_BUSSTATE_gm) == TWI_BUSSTATE_OWNER_gc)	// if master controls bus
 252:	90 91 15 08 	lds	r25, 0x0815	; 0x800815 <__TEXT_REGION_LENGTH__+0x700815>
 256:	93 70       	andi	r25, 0x03	; 3
 258:	92 30       	cpi	r25, 0x02	; 2
 25a:	b1 f4       	brne	.+44     	; 0x288 <I2C_write+0x3e>
	{
		TWI0.MDATA = *data;		
 25c:	80 81       	ld	r24, Z
 25e:	80 93 18 08 	sts	0x0818, r24	; 0x800818 <__TEXT_REGION_LENGTH__+0x700818>
		while (!(TWI0.MSTATUS & TWI_WIF_bm))						// wait until WIF set, status register contains ACK/NACK bit
 262:	e0 e1       	ldi	r30, 0x10	; 16
 264:	f8 e0       	ldi	r31, 0x08	; 8
 266:	04 c0       	rjmp	.+8      	; 0x270 <I2C_write+0x26>
		{
			if (!(timeout_I2C)) return 0xff;			            // return timeout error
 268:	80 91 21 38 	lds	r24, 0x3821	; 0x803821 <timeout_I2C>
 26c:	88 23       	and	r24, r24
 26e:	71 f0       	breq	.+28     	; 0x28c <I2C_write+0x42>
{
	timeout_I2C = WRITE_TIMEOUT;									// reset timeout counter, will be decremented by LED matrix interrupt
	if ((TWI0.MSTATUS & TWI_BUSSTATE_gm) == TWI_BUSSTATE_OWNER_gc)	// if master controls bus
	{
		TWI0.MDATA = *data;		
		while (!(TWI0.MSTATUS & TWI_WIF_bm))						// wait until WIF set, status register contains ACK/NACK bit
 270:	85 81       	ldd	r24, Z+5	; 0x05
 272:	86 ff       	sbrs	r24, 6
 274:	f9 cf       	rjmp	.-14     	; 0x268 <I2C_write+0x1e>
		{
			if (!(timeout_I2C)) return 0xff;			            // return timeout error
		}
		if (TWI0.MSTATUS & TWI_BUSERR_bm) return 4;					// Bus Error, abort
 276:	80 91 15 08 	lds	r24, 0x0815	; 0x800815 <__TEXT_REGION_LENGTH__+0x700815>
 27a:	82 fd       	sbrc	r24, 2
 27c:	09 c0       	rjmp	.+18     	; 0x290 <I2C_write+0x46>
		if (TWI0.MSTATUS & TWI_RXACK_bm) return 1;					// Slave replied with NACK, abort
 27e:	80 91 15 08 	lds	r24, 0x0815	; 0x800815 <__TEXT_REGION_LENGTH__+0x700815>
	if ((TWI0.MSTATUS & TWI_BUSSTATE_gm) == TWI_BUSSTATE_OWNER_gc)	// if master controls bus
	{
		TWI0.MDATA = *data;		
		while (!(TWI0.MSTATUS & TWI_WIF_bm))						// wait until WIF set, status register contains ACK/NACK bit
		{
			if (!(timeout_I2C)) return 0xff;			            // return timeout error
 282:	82 95       	swap	r24
 284:	81 70       	andi	r24, 0x01	; 1
 286:	08 95       	ret
		}
		if (TWI0.MSTATUS & TWI_BUSERR_bm) return 4;					// Bus Error, abort
		if (TWI0.MSTATUS & TWI_RXACK_bm) return 1;					// Slave replied with NACK, abort
		return 0;													// no error	
	}
	else return 8;													// master does not control bus
 288:	88 e0       	ldi	r24, 0x08	; 8
 28a:	08 95       	ret
	if ((TWI0.MSTATUS & TWI_BUSSTATE_gm) == TWI_BUSSTATE_OWNER_gc)	// if master controls bus
	{
		TWI0.MDATA = *data;		
		while (!(TWI0.MSTATUS & TWI_WIF_bm))						// wait until WIF set, status register contains ACK/NACK bit
		{
			if (!(timeout_I2C)) return 0xff;			            // return timeout error
 28c:	8f ef       	ldi	r24, 0xFF	; 255
 28e:	08 95       	ret
		}
		if (TWI0.MSTATUS & TWI_BUSERR_bm) return 4;					// Bus Error, abort
 290:	84 e0       	ldi	r24, 0x04	; 4
		if (TWI0.MSTATUS & TWI_RXACK_bm) return 1;					// Slave replied with NACK, abort
		return 0;													// no error	
	}
	else return 8;													// master does not control bus
}
 292:	08 95       	ret

00000294 <I2C_stop>:

void I2C_stop()
{
	TWI0.MCTRLB |= TWI_MCMD_STOP_gc;
 294:	e0 e1       	ldi	r30, 0x10	; 16
 296:	f8 e0       	ldi	r31, 0x08	; 8
 298:	84 81       	ldd	r24, Z+4	; 0x04
 29a:	83 60       	ori	r24, 0x03	; 3
 29c:	84 83       	std	Z+4, r24	; 0x04
 29e:	08 95       	ret

000002a0 <I2C_read_bytes>:
// addr_ptr		address of first array element to transfer
// slave reg	starting slave register
// num_bytes	number of bytes to transfer

uint8_t	I2C_read_bytes(uint8_t slave_addr, uint8_t *reg_ptr, uint8_t reg_len, uint8_t *dat_ptr, uint8_t dat_len)
{
 2a0:	cf 92       	push	r12
 2a2:	df 92       	push	r13
 2a4:	ef 92       	push	r14
 2a6:	ff 92       	push	r15
 2a8:	0f 93       	push	r16
 2aa:	1f 93       	push	r17
 2ac:	cf 93       	push	r28
 2ae:	df 93       	push	r29
 2b0:	eb 01       	movw	r28, r22
 2b2:	c4 2e       	mov	r12, r20
 2b4:	79 01       	movw	r14, r18
	uint8_t status;
	if (dat_len > MAX_LEN) dat_len = MAX_LEN;
	status = I2C_start(slave_addr << 1);							// slave write address, LSB 0
 2b6:	18 2f       	mov	r17, r24
 2b8:	11 0f       	add	r17, r17
 2ba:	81 2f       	mov	r24, r17
 2bc:	4e df       	rcall	.-356    	; 0x15a <I2C_start>
	if (status != 0) goto error;
 2be:	81 11       	cpse	r24, r1
	status = I2C_wait_ACK();										// wait for slave ACK
 2c0:	3c c0       	rjmp	.+120    	; 0x33a <I2C_read_bytes+0x9a>
 2c2:	5b df       	rcall	.-330    	; 0x17a <I2C_wait_ACK>
	if (status == 1) {
 2c4:	81 30       	cpi	r24, 0x01	; 1
		I2C_stop();													// NACK, abort
 2c6:	19 f4       	brne	.+6      	; 0x2ce <I2C_read_bytes+0x2e>
 2c8:	e5 df       	rcall	.-54     	; 0x294 <I2C_stop>
		return 1;
 2ca:	81 e0       	ldi	r24, 0x01	; 1
 2cc:	38 c0       	rjmp	.+112    	; 0x33e <I2C_read_bytes+0x9e>
	}
	if (status != 0) goto error;
 2ce:	81 11       	cpse	r24, r1
 2d0:	34 c0       	rjmp	.+104    	; 0x33a <I2C_read_bytes+0x9a>
    while(reg_len > 0){
 2d2:	cc 20       	and	r12, r12
 2d4:	79 f0       	breq	.+30     	; 0x2f4 <I2C_read_bytes+0x54>
 2d6:	ca 94       	dec	r12
 2d8:	d1 2c       	mov	r13, r1
 2da:	8f ef       	ldi	r24, 0xFF	; 255
 2dc:	c8 1a       	sub	r12, r24
 2de:	d8 0a       	sbc	r13, r24
 2e0:	cc 0e       	add	r12, r28
	    status = I2C_write(reg_ptr);    							// send slave start register
 2e2:	dd 1e       	adc	r13, r29
 2e4:	ce 01       	movw	r24, r28
 2e6:	b1 df       	rcall	.-158    	; 0x24a <I2C_write>
	    if (status != 0) goto error;
 2e8:	81 11       	cpse	r24, r1
 2ea:	27 c0       	rjmp	.+78     	; 0x33a <I2C_read_bytes+0x9a>
        ++reg_ptr;
 2ec:	21 96       	adiw	r28, 0x01	; 1
	if (status == 1) {
		I2C_stop();													// NACK, abort
		return 1;
	}
	if (status != 0) goto error;
    while(reg_len > 0){
 2ee:	cc 16       	cp	r12, r28
 2f0:	dd 06       	cpc	r13, r29
 2f2:	c1 f7       	brne	.-16     	; 0x2e4 <I2C_read_bytes+0x44>
 2f4:	01 34       	cpi	r16, 0x41	; 65
 2f6:	08 f0       	brcs	.+2      	; 0x2fa <I2C_read_bytes+0x5a>
 2f8:	00 e4       	ldi	r16, 0x40	; 64
	    status = I2C_write(reg_ptr);    							// send slave start register
	    if (status != 0) goto error;
        ++reg_ptr;
        --reg_len;
    }
	I2C_rep_start((slave_addr << 1) + 1);							// slave read address, LSB 1
 2fa:	1f 5f       	subi	r17, 0xFF	; 255
// the Atmel device documentation mentions a special command for repeated start TWI_MCMD_REPSTART_gc,
// but this is not used in Atmel's demo code, so we don't use it either

void I2C_rep_start(uint8_t shifted_addr)						    // send repeated start, device_addr + LSB set if READ
{
	TWI0.MADDR = shifted_addr;	
 2fc:	10 93 17 08 	sts	0x0817, r17	; 0x800817 <__TEXT_REGION_LENGTH__+0x700817>
	    if (status != 0) goto error;
        ++reg_ptr;
        --reg_len;
    }
	I2C_rep_start((slave_addr << 1) + 1);							// slave read address, LSB 1
	while (dat_len > 1) {
 300:	02 30       	cpi	r16, 0x02	; 2
 302:	90 f0       	brcs	.+36     	; 0x328 <I2C_read_bytes+0x88>
 304:	02 50       	subi	r16, 0x02	; 2
 306:	c0 2f       	mov	r28, r16
 308:	d0 e0       	ldi	r29, 0x00	; 0
 30a:	21 96       	adiw	r28, 0x01	; 1
 30c:	ce 0d       	add	r28, r14
		status = I2C_read(dat_ptr, 0);								// first bytes, send ACK
 30e:	df 1d       	adc	r29, r15
 310:	60 e0       	ldi	r22, 0x00	; 0
 312:	c7 01       	movw	r24, r14
 314:	59 df       	rcall	.-334    	; 0x1c8 <I2C_read>
		if (status != 0) goto error;
 316:	81 11       	cpse	r24, r1
 318:	10 c0       	rjmp	.+32     	; 0x33a <I2C_read_bytes+0x9a>
		++dat_ptr;
 31a:	8f ef       	ldi	r24, 0xFF	; 255
 31c:	e8 1a       	sub	r14, r24
 31e:	f8 0a       	sbc	r15, r24
	    if (status != 0) goto error;
        ++reg_ptr;
        --reg_len;
    }
	I2C_rep_start((slave_addr << 1) + 1);							// slave read address, LSB 1
	while (dat_len > 1) {
 320:	ec 16       	cp	r14, r28
 322:	fd 06       	cpc	r15, r29
 324:	a9 f7       	brne	.-22     	; 0x310 <I2C_read_bytes+0x70>
 326:	01 c0       	rjmp	.+2      	; 0x32a <I2C_read_bytes+0x8a>
		status = I2C_read(dat_ptr, 0);								// first bytes, send ACK
		if (status != 0) goto error;
		++dat_ptr;
		--dat_len;
	}
	status = I2C_read(dat_ptr, 1);									// single or last byte, send NACK
 328:	e7 01       	movw	r28, r14
 32a:	61 e0       	ldi	r22, 0x01	; 1
 32c:	ce 01       	movw	r24, r28
	if (status != 0) goto error;
 32e:	4c df       	rcall	.-360    	; 0x1c8 <I2C_read>
 330:	81 11       	cpse	r24, r1
	I2C_stop();
 332:	03 c0       	rjmp	.+6      	; 0x33a <I2C_read_bytes+0x9a>
 334:	af df       	rcall	.-162    	; 0x294 <I2C_stop>
	return 0;
 336:	80 e0       	ldi	r24, 0x00	; 0
 338:	02 c0       	rjmp	.+4      	; 0x33e <I2C_read_bytes+0x9e>
	
error:
	I2C_recover();													// clock out possibly stuck slave, reset master
 33a:	da de       	rcall	.-588    	; 0xf0 <I2C_recover>
 33c:	8f ef       	ldi	r24, 0xFF	; 255
	return 0xff;													// flag error
 33e:	df 91       	pop	r29
}
 340:	cf 91       	pop	r28
 342:	1f 91       	pop	r17
 344:	0f 91       	pop	r16
 346:	ff 90       	pop	r15
 348:	ef 90       	pop	r14
 34a:	df 90       	pop	r13
 34c:	cf 90       	pop	r12
 34e:	08 95       	ret

00000350 <setup>:
 350:	cf 93       	push	r28
        CCP = CCP_SPM_gc;
        NVMCTRL_CTRLA = NVMCTRL_CMD_PAGEERASEWRITE_gc;          // Erase old data and write new data to EEPROM
        if (NVMCTRL_STATUS & NVMCTRL_WRERROR_bm) return 1;
    }
    return 0;
}
 352:	df 93       	push	r29
 354:	f8 94       	cli
 356:	88 ed       	ldi	r24, 0xD8	; 216
 358:	84 bf       	out	0x34, r24	; 52
 35a:	c1 e0       	ldi	r28, 0x01	; 1
 35c:	c0 93 61 00 	sts	0x0061, r28	; 0x800061 <__TEXT_REGION_LENGTH__+0x700061>
 360:	8a e4       	ldi	r24, 0x4A	; 74
 362:	80 93 00 04 	sts	0x0400, r24	; 0x800400 <__TEXT_REGION_LENGTH__+0x700400>
 366:	8c e7       	ldi	r24, 0x7C	; 124
 368:	80 93 20 04 	sts	0x0420, r24	; 0x800420 <__TEXT_REGION_LENGTH__+0x700420>
 36c:	8f e3       	ldi	r24, 0x3F	; 63
 36e:	80 93 40 04 	sts	0x0440, r24	; 0x800440 <__TEXT_REGION_LENGTH__+0x700440>
 372:	c0 93 01 02 	sts	0x0201, r28	; 0x800201 <__TEXT_REGION_LENGTH__+0x700201>
 376:	d2 e0       	ldi	r29, 0x02	; 2
 378:	d0 93 05 04 	sts	0x0405, r29	; 0x800405 <__TEXT_REGION_LENGTH__+0x700405>
 37c:	2b e5       	ldi	r18, 0x5B	; 91
 37e:	31 e0       	ldi	r19, 0x01	; 1
 380:	20 93 08 08 	sts	0x0808, r18	; 0x800808 <__TEXT_REGION_LENGTH__+0x700808>
 384:	30 93 09 08 	sts	0x0809, r19	; 0x800809 <__TEXT_REGION_LENGTH__+0x700809>
 388:	90 ea       	ldi	r25, 0xA0	; 160
 38a:	90 93 05 08 	sts	0x0805, r25	; 0x800805 <__TEXT_REGION_LENGTH__+0x700805>
 38e:	90 ec       	ldi	r25, 0xC0	; 192
 390:	90 93 06 08 	sts	0x0806, r25	; 0x800806 <__TEXT_REGION_LENGTH__+0x700806>
 394:	93 e0       	ldi	r25, 0x03	; 3
 396:	90 93 07 08 	sts	0x0807, r25	; 0x800807 <__TEXT_REGION_LENGTH__+0x700807>
 39a:	1c ba       	out	0x1c, r1	; 28
 39c:	1d ba       	out	0x1d, r1	; 29
 39e:	1e ba       	out	0x1e, r1	; 30
 3a0:	1f ba       	out	0x1f, r1	; 31
 3a2:	c0 93 03 0a 	sts	0x0A03, r28	; 0x800a03 <__TEXT_REGION_LENGTH__+0x700a03>
 3a6:	e0 e0       	ldi	r30, 0x00	; 0
 3a8:	fa e0       	ldi	r31, 0x0A	; 10
 3aa:	98 e0       	ldi	r25, 0x08	; 8
 3ac:	90 83       	st	Z, r25
 3ae:	80 93 02 02 	sts	0x0202, r24	; 0x800202 <__TEXT_REGION_LENGTH__+0x700202>
 3b2:	87 e7       	ldi	r24, 0x77	; 119
 3b4:	80 93 01 0a 	sts	0x0A01, r24	; 0x800a01 <__TEXT_REGION_LENGTH__+0x700a01>
 3b8:	c0 93 0a 0a 	sts	0x0A0A, r28	; 0x800a0a <__TEXT_REGION_LENGTH__+0x700a0a>
 3bc:	8b e0       	ldi	r24, 0x0B	; 11
 3be:	80 93 05 0a 	sts	0x0A05, r24	; 0x800a05 <__TEXT_REGION_LENGTH__+0x700a05>
 3c2:	80 81       	ld	r24, Z
 3c4:	81 60       	ori	r24, 0x01	; 1
 3c6:	80 83       	st	Z, r24
 3c8:	85 e0       	ldi	r24, 0x05	; 5
 3ca:	80 93 40 0a 	sts	0x0A40, r24	; 0x800a40 <__TEXT_REGION_LENGTH__+0x700a40>
 3ce:	10 92 41 0a 	sts	0x0A41, r1	; 0x800a41 <__TEXT_REGION_LENGTH__+0x700a41>
 3d2:	8f ef       	ldi	r24, 0xFF	; 255
 3d4:	91 e0       	ldi	r25, 0x01	; 1
 3d6:	80 93 4c 0a 	sts	0x0A4C, r24	; 0x800a4c <__TEXT_REGION_LENGTH__+0x700a4c>
 3da:	90 93 4d 0a 	sts	0x0A4D, r25	; 0x800a4d <__TEXT_REGION_LENGTH__+0x700a4d>
 3de:	10 92 45 0a 	sts	0x0A45, r1	; 0x800a45 <__TEXT_REGION_LENGTH__+0x700a45>
 3e2:	c0 93 50 0a 	sts	0x0A50, r28	; 0x800a50 <__TEXT_REGION_LENGTH__+0x700a50>
 3e6:	10 92 51 0a 	sts	0x0A51, r1	; 0x800a51 <__TEXT_REGION_LENGTH__+0x700a51>
 3ea:	8b e8       	ldi	r24, 0x8B	; 139
 3ec:	93 e0       	ldi	r25, 0x03	; 3
 3ee:	80 93 5c 0a 	sts	0x0A5C, r24	; 0x800a5c <__TEXT_REGION_LENGTH__+0x700a5c>
 3f2:	90 93 5d 0a 	sts	0x0A5D, r25	; 0x800a5d <__TEXT_REGION_LENGTH__+0x700a5d>
 3f6:	c0 93 55 0a 	sts	0x0A55, r28	; 0x800a55 <__TEXT_REGION_LENGTH__+0x700a55>
 3fa:	5c de       	rcall	.-840    	; 0xb4 <I2C_init>
 3fc:	82 e1       	ldi	r24, 0x12	; 18
 3fe:	80 93 a0 00 	sts	0x00A0, r24	; 0x8000a0 <__TEXT_REGION_LENGTH__+0x7000a0>
 402:	80 e2       	ldi	r24, 0x20	; 32
 404:	80 93 a2 00 	sts	0x00A2, r24	; 0x8000a2 <__TEXT_REGION_LENGTH__+0x7000a2>
 408:	c0 93 a1 00 	sts	0x00A1, r28	; 0x8000a1 <__TEXT_REGION_LENGTH__+0x7000a1>
 40c:	e0 e0       	ldi	r30, 0x00	; 0
 40e:	f6 e0       	ldi	r31, 0x06	; 6
 410:	86 e0       	ldi	r24, 0x06	; 6
 412:	80 83       	st	Z, r24
 414:	84 e4       	ldi	r24, 0x44	; 68
 416:	80 93 02 06 	sts	0x0602, r24	; 0x800602 <__TEXT_REGION_LENGTH__+0x700602>
 41a:	8e e1       	ldi	r24, 0x1E	; 30
 41c:	80 93 06 06 	sts	0x0606, r24	; 0x800606 <__TEXT_REGION_LENGTH__+0x700606>
 420:	c0 93 0a 06 	sts	0x060A, r28	; 0x80060a <__TEXT_REGION_LENGTH__+0x70060a>
 424:	80 81       	ld	r24, Z
 426:	81 60       	ori	r24, 0x01	; 1
 428:	80 83       	st	Z, r24
 42a:	c0 93 08 06 	sts	0x0608, r28	; 0x800608 <__TEXT_REGION_LENGTH__+0x700608>
 42e:	e0 e4       	ldi	r30, 0x40	; 64
 430:	f6 e0       	ldi	r31, 0x06	; 6
 432:	10 82       	st	Z, r1
 434:	d0 93 41 06 	sts	0x0641, r29	; 0x800641 <__TEXT_REGION_LENGTH__+0x700641>
 438:	82 e5       	ldi	r24, 0x52	; 82
 43a:	80 93 42 06 	sts	0x0642, r24	; 0x800642 <__TEXT_REGION_LENGTH__+0x700642>
 43e:	84 e0       	ldi	r24, 0x04	; 4
 440:	80 93 45 06 	sts	0x0645, r24	; 0x800645 <__TEXT_REGION_LENGTH__+0x700645>
 444:	80 93 46 06 	sts	0x0646, r24	; 0x800646 <__TEXT_REGION_LENGTH__+0x700646>
 448:	c0 93 4a 06 	sts	0x064A, r28	; 0x80064a <__TEXT_REGION_LENGTH__+0x70064a>
 44c:	80 81       	ld	r24, Z
 44e:	81 60       	ori	r24, 0x01	; 1
 450:	80 83       	st	Z, r24
 452:	c0 93 48 06 	sts	0x0648, r28	; 0x800648 <__TEXT_REGION_LENGTH__+0x700648>
 456:	e0 ea       	ldi	r30, 0xA0	; 160
 458:	f6 e0       	ldi	r31, 0x06	; 6
 45a:	80 e4       	ldi	r24, 0x40	; 64
 45c:	80 83       	st	Z, r24
 45e:	80 e8       	ldi	r24, 0x80	; 128
 460:	80 93 a1 06 	sts	0x06A1, r24	; 0x8006a1 <__TEXT_REGION_LENGTH__+0x7006a1>
 464:	80 81       	ld	r24, Z
 466:	81 60       	ori	r24, 0x01	; 1
 468:	80 83       	st	Z, r24
 46a:	e1 e4       	ldi	r30, 0x41	; 65
 46c:	f1 e0       	ldi	r31, 0x01	; 1
 46e:	80 81       	ld	r24, Z
 470:	80 fd       	sbrc	r24, 0
 472:	fd cf       	rjmp	.-6      	; 0x46e <__LOCK_REGION_LENGTH__+0x6e>
 474:	80 e3       	ldi	r24, 0x30	; 48
 476:	80 93 40 01 	sts	0x0140, r24	; 0x800140 <__TEXT_REGION_LENGTH__+0x700140>
 47a:	10 92 47 01 	sts	0x0147, r1	; 0x800147 <__TEXT_REGION_LENGTH__+0x700147>
 47e:	e1 e4       	ldi	r30, 0x41	; 65
 480:	f1 e0       	ldi	r31, 0x01	; 1
 482:	80 81       	ld	r24, Z
 484:	82 fd       	sbrc	r24, 2
 486:	fd cf       	rjmp	.-6      	; 0x482 <__LOCK_REGION_LENGTH__+0x82>
 488:	ea e4       	ldi	r30, 0x4A	; 74
 48a:	f1 e0       	ldi	r31, 0x01	; 1
 48c:	80 e0       	ldi	r24, 0x00	; 0
 48e:	98 e7       	ldi	r25, 0x78	; 120
 490:	80 83       	st	Z, r24
 492:	91 83       	std	Z+1, r25	; 0x01
 494:	80 91 48 01 	lds	r24, 0x0148	; 0x800148 <__TEXT_REGION_LENGTH__+0x700148>
 498:	90 91 49 01 	lds	r25, 0x0149	; 0x800149 <__TEXT_REGION_LENGTH__+0x700149>
 49c:	60 81       	ld	r22, Z
 49e:	71 81       	ldd	r23, Z+1	; 0x01
 4a0:	82 96       	adiw	r24, 0x22	; 34
 4a2:	11 d4       	rcall	.+2082   	; 0xcc6 <__udivmodhi4>
 4a4:	80 93 97 38 	sts	0x3897, r24	; 0x803897 <tmp16bit>
 4a8:	90 93 98 38 	sts	0x3898, r25	; 0x803898 <tmp16bit+0x1>
 4ac:	e1 e4       	ldi	r30, 0x41	; 65
 4ae:	f1 e0       	ldi	r31, 0x01	; 1
 4b0:	80 81       	ld	r24, Z
 4b2:	83 fd       	sbrc	r24, 3
 4b4:	fd cf       	rjmp	.-6      	; 0x4b0 <__LOCK_REGION_LENGTH__+0xb0>
 4b6:	80 91 97 38 	lds	r24, 0x3897	; 0x803897 <tmp16bit>
 4ba:	90 91 98 38 	lds	r25, 0x3898	; 0x803898 <tmp16bit+0x1>
 4be:	80 93 4c 01 	sts	0x014C, r24	; 0x80014c <__TEXT_REGION_LENGTH__+0x70014c>
 4c2:	90 93 4d 01 	sts	0x014D, r25	; 0x80014d <__TEXT_REGION_LENGTH__+0x70014d>
 4c6:	83 e0       	ldi	r24, 0x03	; 3
 4c8:	80 93 42 01 	sts	0x0142, r24	; 0x800142 <__TEXT_REGION_LENGTH__+0x700142>
 4cc:	81 e0       	ldi	r24, 0x01	; 1
 4ce:	80 93 52 01 	sts	0x0152, r24	; 0x800152 <__TEXT_REGION_LENGTH__+0x700152>
 4d2:	88 e0       	ldi	r24, 0x08	; 8
 4d4:	80 93 50 01 	sts	0x0150, r24	; 0x800150 <__TEXT_REGION_LENGTH__+0x700150>
 4d8:	e1 e4       	ldi	r30, 0x41	; 65
 4da:	f1 e0       	ldi	r31, 0x01	; 1
 4dc:	80 81       	ld	r24, Z
 4de:	80 fd       	sbrc	r24, 0
 4e0:	fd cf       	rjmp	.-6      	; 0x4dc <__LOCK_REGION_LENGTH__+0xdc>
 4e2:	e0 e4       	ldi	r30, 0x40	; 64
 4e4:	f1 e0       	ldi	r31, 0x01	; 1
 4e6:	80 81       	ld	r24, Z
 4e8:	81 60       	ori	r24, 0x01	; 1
 4ea:	80 83       	st	Z, r24
 4ec:	e0 e5       	ldi	r30, 0x50	; 80
 4ee:	f1 e0       	ldi	r31, 0x01	; 1
 4f0:	80 81       	ld	r24, Z
 4f2:	81 60       	ori	r24, 0x01	; 1
 4f4:	80 83       	st	Z, r24
 4f6:	e2 e2       	ldi	r30, 0x22	; 34
 4f8:	f8 e3       	ldi	r31, 0x38	; 56
 4fa:	10 82       	st	Z, r1
 4fc:	e0 93 46 38 	sts	0x3846, r30	; 0x803846 <serTxAddr>
 500:	f0 93 47 38 	sts	0x3847, r31	; 0x803847 <serTxAddr+0x1>
 504:	78 94       	sei
 506:	df 91       	pop	r29
 508:	cf 91       	pop	r28
 50a:	08 95       	ret

0000050c <__vector_8>:
 50c:	1f 92       	push	r1
 50e:	0f 92       	push	r0
 510:	0f b6       	in	r0, 0x3f	; 63
 512:	0f 92       	push	r0
 514:	11 24       	eor	r1, r1
 516:	8f 93       	push	r24
 518:	9f 93       	push	r25
 51a:	af 93       	push	r26
 51c:	bf 93       	push	r27
 51e:	ef 93       	push	r30
 520:	ff 93       	push	r31
 522:	87 e0       	ldi	r24, 0x07	; 7
 524:	80 93 46 04 	sts	0x0446, r24	; 0x800446 <__TEXT_REGION_LENGTH__+0x700446>
 528:	84 e4       	ldi	r24, 0x44	; 68
 52a:	80 93 26 04 	sts	0x0426, r24	; 0x800426 <__TEXT_REGION_LENGTH__+0x700426>
 52e:	ec b3       	in	r30, 0x1c	; 28
 530:	f0 e0       	ldi	r31, 0x00	; 0
 532:	ee 0f       	add	r30, r30
 534:	ff 1f       	adc	r31, r31
 536:	ee 0f       	add	r30, r30
 538:	ff 1f       	adc	r31, r31
 53a:	ee 0f       	add	r30, r30
 53c:	ff 1f       	adc	r31, r31
 53e:	e3 59       	subi	r30, 0x93	; 147
 540:	f7 4c       	sbci	r31, 0xC7	; 199
 542:	a8 e2       	ldi	r26, 0x28	; 40
 544:	ba e0       	ldi	r27, 0x0A	; 10
 546:	96 e0       	ldi	r25, 0x06	; 6
 548:	81 91       	ld	r24, Z+
 54a:	8d 93       	st	X+, r24
 54c:	9a 95       	dec	r25
 54e:	e1 f7       	brne	.-8      	; 0x548 <__vector_8+0x3c>
 550:	8b e0       	ldi	r24, 0x0B	; 11
 552:	80 93 05 0a 	sts	0x0A05, r24	; 0x800a05 <__TEXT_REGION_LENGTH__+0x700a05>
 556:	8c b3       	in	r24, 0x1c	; 28
 558:	83 30       	cpi	r24, 0x03	; 3
 55a:	58 f4       	brcc	.+22     	; 0x572 <__vector_8+0x66>
 55c:	8c b3       	in	r24, 0x1c	; 28
 55e:	91 e0       	ldi	r25, 0x01	; 1
 560:	01 c0       	rjmp	.+2      	; 0x564 <__vector_8+0x58>
 562:	99 0f       	add	r25, r25
 564:	8a 95       	dec	r24
 566:	ea f7       	brpl	.-6      	; 0x562 <__vector_8+0x56>
 568:	99 b9       	out	0x09, r25	; 9
 56a:	8c b3       	in	r24, 0x1c	; 28
 56c:	83 95       	inc	r24
 56e:	8c bb       	out	0x1c, r24	; 28
 570:	0a c0       	rjmp	.+20     	; 0x586 <__vector_8+0x7a>
 572:	8c b3       	in	r24, 0x1c	; 28
 574:	83 30       	cpi	r24, 0x03	; 3
 576:	21 f4       	brne	.+8      	; 0x580 <__vector_8+0x74>
 578:	2a 9a       	sbi	0x05, 2	; 5
 57a:	83 95       	inc	r24
 57c:	8c bb       	out	0x1c, r24	; 28
 57e:	03 c0       	rjmp	.+6      	; 0x586 <__vector_8+0x7a>
 580:	2e 9a       	sbi	0x05, 6	; 5
 582:	88 27       	eor	r24, r24
 584:	8c bb       	out	0x1c, r24	; 28
 586:	80 91 21 38 	lds	r24, 0x3821	; 0x803821 <timeout_I2C>
 58a:	88 23       	and	r24, r24
 58c:	29 f0       	breq	.+10     	; 0x598 <__vector_8+0x8c>
 58e:	80 91 21 38 	lds	r24, 0x3821	; 0x803821 <timeout_I2C>
 592:	81 50       	subi	r24, 0x01	; 1
 594:	80 93 21 38 	sts	0x3821, r24	; 0x803821 <timeout_I2C>
 598:	8f ef       	ldi	r24, 0xFF	; 255
 59a:	80 93 0b 0a 	sts	0x0A0B, r24	; 0x800a0b <__TEXT_REGION_LENGTH__+0x700a0b>
 59e:	ff 91       	pop	r31
 5a0:	ef 91       	pop	r30
 5a2:	bf 91       	pop	r27
 5a4:	af 91       	pop	r26
 5a6:	9f 91       	pop	r25
 5a8:	8f 91       	pop	r24
 5aa:	0f 90       	pop	r0
 5ac:	0f be       	out	0x3f, r0	; 63
 5ae:	0f 90       	pop	r0
 5b0:	1f 90       	pop	r1
 5b2:	18 95       	reti

000005b4 <__vector_13>:
 5b4:	1f 92       	push	r1
 5b6:	0f 92       	push	r0
 5b8:	0f b6       	in	r0, 0x3f	; 63
 5ba:	0f 92       	push	r0
 5bc:	11 24       	eor	r1, r1
 5be:	8f 93       	push	r24
 5c0:	9f 93       	push	r25
 5c2:	ef 93       	push	r30
 5c4:	ff 93       	push	r31
 5c6:	e0 91 46 38 	lds	r30, 0x3846	; 0x803846 <serTxAddr>
 5ca:	f0 91 47 38 	lds	r31, 0x3847	; 0x803847 <serTxAddr+0x1>
 5ce:	80 81       	ld	r24, Z
 5d0:	88 23       	and	r24, r24
 5d2:	91 f0       	breq	.+36     	; 0x5f8 <__vector_13+0x44>
 5d4:	80 81       	ld	r24, Z
 5d6:	80 93 02 08 	sts	0x0802, r24	; 0x800802 <__TEXT_REGION_LENGTH__+0x700802>
 5da:	80 91 46 38 	lds	r24, 0x3846	; 0x803846 <serTxAddr>
 5de:	90 91 47 38 	lds	r25, 0x3847	; 0x803847 <serTxAddr+0x1>
 5e2:	01 96       	adiw	r24, 0x01	; 1
 5e4:	80 93 46 38 	sts	0x3846, r24	; 0x803846 <serTxAddr>
 5e8:	90 93 47 38 	sts	0x3847, r25	; 0x803847 <serTxAddr+0x1>
 5ec:	e5 e0       	ldi	r30, 0x05	; 5
 5ee:	f8 e0       	ldi	r31, 0x08	; 8
 5f0:	80 81       	ld	r24, Z
 5f2:	80 62       	ori	r24, 0x20	; 32
 5f4:	80 83       	st	Z, r24
 5f6:	05 c0       	rjmp	.+10     	; 0x602 <__vector_13+0x4e>
 5f8:	81 e0       	ldi	r24, 0x01	; 1
 5fa:	80 93 00 38 	sts	0x3800, r24	; 0x803800 <__data_start>
 5fe:	10 92 45 0a 	sts	0x0A45, r1	; 0x800a45 <__TEXT_REGION_LENGTH__+0x700a45>
 602:	81 e0       	ldi	r24, 0x01	; 1
 604:	80 93 46 0a 	sts	0x0A46, r24	; 0x800a46 <__TEXT_REGION_LENGTH__+0x700a46>
 608:	ff 91       	pop	r31
 60a:	ef 91       	pop	r30
 60c:	9f 91       	pop	r25
 60e:	8f 91       	pop	r24
 610:	0f 90       	pop	r0
 612:	0f be       	out	0x3f, r0	; 63
 614:	0f 90       	pop	r0
 616:	1f 90       	pop	r1
 618:	18 95       	reti

0000061a <__vector_14>:
 61a:	1f 92       	push	r1
 61c:	0f 92       	push	r0
 61e:	0f b6       	in	r0, 0x3f	; 63
 620:	0f 92       	push	r0
 622:	11 24       	eor	r1, r1
 624:	8f 93       	push	r24
 626:	9f 93       	push	r25
 628:	ef 93       	push	r30
 62a:	ff 93       	push	r31
 62c:	e0 91 42 38 	lds	r30, 0x3842	; 0x803842 <auSmpAddr>
 630:	f0 91 43 38 	lds	r31, 0x3843	; 0x803843 <auSmpAddr+0x1>
 634:	80 81       	ld	r24, Z
 636:	88 23       	and	r24, r24
 638:	69 f0       	breq	.+26     	; 0x654 <__vector_14+0x3a>
 63a:	80 81       	ld	r24, Z
 63c:	80 93 a1 06 	sts	0x06A1, r24	; 0x8006a1 <__TEXT_REGION_LENGTH__+0x7006a1>
 640:	80 91 42 38 	lds	r24, 0x3842	; 0x803842 <auSmpAddr>
 644:	90 91 43 38 	lds	r25, 0x3843	; 0x803843 <auSmpAddr+0x1>
 648:	01 96       	adiw	r24, 0x01	; 1
 64a:	80 93 42 38 	sts	0x3842, r24	; 0x803842 <auSmpAddr>
 64e:	90 93 43 38 	sts	0x3843, r25	; 0x803843 <auSmpAddr+0x1>
 652:	06 c0       	rjmp	.+12     	; 0x660 <__vector_14+0x46>
 654:	80 e8       	ldi	r24, 0x80	; 128
 656:	80 93 a1 06 	sts	0x06A1, r24	; 0x8006a1 <__TEXT_REGION_LENGTH__+0x7006a1>
 65a:	81 e0       	ldi	r24, 0x01	; 1
 65c:	80 93 95 38 	sts	0x3895, r24	; 0x803895 <auPlayDone>
 660:	81 e0       	ldi	r24, 0x01	; 1
 662:	80 93 56 0a 	sts	0x0A56, r24	; 0x800a56 <__TEXT_REGION_LENGTH__+0x700a56>
 666:	ff 91       	pop	r31
 668:	ef 91       	pop	r30
 66a:	9f 91       	pop	r25
 66c:	8f 91       	pop	r24
 66e:	0f 90       	pop	r0
 670:	0f be       	out	0x3f, r0	; 63
 672:	0f 90       	pop	r0
 674:	1f 90       	pop	r1
 676:	18 95       	reti

00000678 <__vector_27>:
 678:	1f 92       	push	r1
 67a:	0f 92       	push	r0
 67c:	0f b6       	in	r0, 0x3f	; 63
 67e:	0f 92       	push	r0
 680:	11 24       	eor	r1, r1
 682:	8f 93       	push	r24
 684:	ef 93       	push	r30
 686:	ff 93       	push	r31
 688:	80 91 05 38 	lds	r24, 0x3805	; 0x803805 <serRxDone>
 68c:	81 11       	cpse	r24, r1
 68e:	1d c0       	rjmp	.+58     	; 0x6ca <__vector_27+0x52>
 690:	ed b3       	in	r30, 0x1d	; 29
 692:	f0 e0       	ldi	r31, 0x00	; 0
 694:	80 91 00 08 	lds	r24, 0x0800	; 0x800800 <__TEXT_REGION_LENGTH__+0x700800>
 698:	ee 5d       	subi	r30, 0xDE	; 222
 69a:	f7 4c       	sbci	r31, 0xC7	; 199
 69c:	80 83       	st	Z, r24
 69e:	ed b3       	in	r30, 0x1d	; 29
 6a0:	f0 e0       	ldi	r31, 0x00	; 0
 6a2:	ee 5d       	subi	r30, 0xDE	; 222
 6a4:	f7 4c       	sbci	r31, 0xC7	; 199
 6a6:	80 81       	ld	r24, Z
 6a8:	8a 30       	cpi	r24, 0x0A	; 10
 6aa:	49 f4       	brne	.+18     	; 0x6be <__vector_27+0x46>
 6ac:	ed b3       	in	r30, 0x1d	; 29
 6ae:	f0 e0       	ldi	r31, 0x00	; 0
 6b0:	ee 5d       	subi	r30, 0xDE	; 222
 6b2:	f7 4c       	sbci	r31, 0xC7	; 199
 6b4:	10 82       	st	Z, r1
 6b6:	81 e0       	ldi	r24, 0x01	; 1
 6b8:	80 93 05 38 	sts	0x3805, r24	; 0x803805 <serRxDone>
 6bc:	06 c0       	rjmp	.+12     	; 0x6ca <__vector_27+0x52>
 6be:	8d b3       	in	r24, 0x1d	; 29
 6c0:	8f 31       	cpi	r24, 0x1F	; 31
 6c2:	18 f4       	brcc	.+6      	; 0x6ca <__vector_27+0x52>
 6c4:	8d b3       	in	r24, 0x1d	; 29
 6c6:	8f 5f       	subi	r24, 0xFF	; 255
 6c8:	8d bb       	out	0x1d, r24	; 29
 6ca:	80 e8       	ldi	r24, 0x80	; 128
 6cc:	80 93 04 08 	sts	0x0804, r24	; 0x800804 <__TEXT_REGION_LENGTH__+0x700804>
 6d0:	ff 91       	pop	r31
 6d2:	ef 91       	pop	r30
 6d4:	8f 91       	pop	r24
 6d6:	0f 90       	pop	r0
 6d8:	0f be       	out	0x3f, r0	; 63
 6da:	0f 90       	pop	r0
 6dc:	1f 90       	pop	r1
 6de:	18 95       	reti

000006e0 <__vector_28>:
 6e0:	1f 92       	push	r1
 6e2:	0f 92       	push	r0
 6e4:	0f b6       	in	r0, 0x3f	; 63
 6e6:	0f 92       	push	r0
 6e8:	11 24       	eor	r1, r1
 6ea:	8f 93       	push	r24
 6ec:	ef 93       	push	r30
 6ee:	ff 93       	push	r31
 6f0:	10 92 4a 0a 	sts	0x0A4A, r1	; 0x800a4a <__TEXT_REGION_LENGTH__+0x700a4a>
 6f4:	10 92 4b 0a 	sts	0x0A4B, r1	; 0x800a4b <__TEXT_REGION_LENGTH__+0x700a4b>
 6f8:	81 e0       	ldi	r24, 0x01	; 1
 6fa:	80 93 45 0a 	sts	0x0A45, r24	; 0x800a45 <__TEXT_REGION_LENGTH__+0x700a45>
 6fe:	e5 e0       	ldi	r30, 0x05	; 5
 700:	f8 e0       	ldi	r31, 0x08	; 8
 702:	80 81       	ld	r24, Z
 704:	8f 7d       	andi	r24, 0xDF	; 223
 706:	80 83       	st	Z, r24
 708:	ff 91       	pop	r31
 70a:	ef 91       	pop	r30
 70c:	8f 91       	pop	r24
 70e:	0f 90       	pop	r0
 710:	0f be       	out	0x3f, r0	; 63
 712:	0f 90       	pop	r0
 714:	1f 90       	pop	r1
 716:	18 95       	reti

00000718 <__vector_20>:
 718:	1f 92       	push	r1
 71a:	0f 92       	push	r0
 71c:	0f b6       	in	r0, 0x3f	; 63
 71e:	0f 92       	push	r0
 720:	11 24       	eor	r1, r1
 722:	8f 93       	push	r24
 724:	ef 93       	push	r30
 726:	ff 93       	push	r31
 728:	8e b3       	in	r24, 0x1e	; 30
 72a:	8f 5f       	subi	r24, 0xFF	; 255
 72c:	8f 71       	andi	r24, 0x1F	; 31
 72e:	8e bb       	out	0x1e, r24	; 30
 730:	80 91 02 38 	lds	r24, 0x3802	; 0x803802 <__data_end>
 734:	81 11       	cpse	r24, r1
 736:	11 c0       	rjmp	.+34     	; 0x75a <__vector_20+0x42>
 738:	80 91 06 06 	lds	r24, 0x0606	; 0x800606 <__TEXT_REGION_LENGTH__+0x700606>
 73c:	8e 31       	cpi	r24, 0x1E	; 30
 73e:	29 f4       	brne	.+10     	; 0x74a <__vector_20+0x32>
 740:	80 91 10 06 	lds	r24, 0x0610	; 0x800610 <__TEXT_REGION_LENGTH__+0x700610>
 744:	80 93 96 38 	sts	0x3896, r24	; 0x803896 <adcTemp>
 748:	0a c0       	rjmp	.+20     	; 0x75e <__vector_20+0x46>
 74a:	ee b3       	in	r30, 0x1e	; 30
 74c:	f0 e0       	ldi	r31, 0x00	; 0
 74e:	80 91 10 06 	lds	r24, 0x0610	; 0x800610 <__TEXT_REGION_LENGTH__+0x700610>
 752:	e3 5b       	subi	r30, 0xB3	; 179
 754:	f7 4c       	sbci	r31, 0xC7	; 199
 756:	80 83       	st	Z, r24
 758:	02 c0       	rjmp	.+4      	; 0x75e <__vector_20+0x46>
 75a:	10 92 02 38 	sts	0x3802, r1	; 0x803802 <__data_end>
 75e:	81 e0       	ldi	r24, 0x01	; 1
 760:	80 93 0b 06 	sts	0x060B, r24	; 0x80060b <__TEXT_REGION_LENGTH__+0x70060b>
 764:	ff 91       	pop	r31
 766:	ef 91       	pop	r30
 768:	8f 91       	pop	r24
 76a:	0f 90       	pop	r0
 76c:	0f be       	out	0x3f, r0	; 63
 76e:	0f 90       	pop	r0
 770:	1f 90       	pop	r1
 772:	18 95       	reti

00000774 <__vector_22>:
 774:	1f 92       	push	r1
 776:	0f 92       	push	r0
 778:	0f b6       	in	r0, 0x3f	; 63
 77a:	0f 92       	push	r0
 77c:	11 24       	eor	r1, r1
 77e:	8f 93       	push	r24
 780:	9f 93       	push	r25
 782:	80 91 46 06 	lds	r24, 0x0646	; 0x800646 <__TEXT_REGION_LENGTH__+0x700646>
 786:	81 11       	cpse	r24, r1
 788:	0c c0       	rjmp	.+24     	; 0x7a2 <__vector_22+0x2e>
 78a:	80 91 50 06 	lds	r24, 0x0650	; 0x800650 <__TEXT_REGION_LENGTH__+0x700650>
 78e:	90 91 51 06 	lds	r25, 0x0651	; 0x800651 <__TEXT_REGION_LENGTH__+0x700651>
 792:	80 93 4a 38 	sts	0x384A, r24	; 0x80384a <adcPhot>
 796:	90 93 4b 38 	sts	0x384B, r25	; 0x80384b <adcPhot+0x1>
 79a:	81 e0       	ldi	r24, 0x01	; 1
 79c:	80 93 46 06 	sts	0x0646, r24	; 0x800646 <__TEXT_REGION_LENGTH__+0x700646>
 7a0:	23 c0       	rjmp	.+70     	; 0x7e8 <__vector_22+0x74>
 7a2:	80 91 46 06 	lds	r24, 0x0646	; 0x800646 <__TEXT_REGION_LENGTH__+0x700646>
 7a6:	81 30       	cpi	r24, 0x01	; 1
 7a8:	79 f4       	brne	.+30     	; 0x7c8 <__vector_22+0x54>
 7aa:	88 e0       	ldi	r24, 0x08	; 8
 7ac:	80 93 06 04 	sts	0x0406, r24	; 0x800406 <__TEXT_REGION_LENGTH__+0x700406>
 7b0:	80 91 50 06 	lds	r24, 0x0650	; 0x800650 <__TEXT_REGION_LENGTH__+0x700650>
 7b4:	90 91 51 06 	lds	r25, 0x0651	; 0x800651 <__TEXT_REGION_LENGTH__+0x700651>
 7b8:	80 93 48 38 	sts	0x3848, r24	; 0x803848 <adcHall>
 7bc:	90 93 49 38 	sts	0x3849, r25	; 0x803849 <adcHall+0x1>
 7c0:	84 e0       	ldi	r24, 0x04	; 4
 7c2:	80 93 46 06 	sts	0x0646, r24	; 0x800646 <__TEXT_REGION_LENGTH__+0x700646>
 7c6:	10 c0       	rjmp	.+32     	; 0x7e8 <__vector_22+0x74>
 7c8:	80 91 50 06 	lds	r24, 0x0650	; 0x800650 <__TEXT_REGION_LENGTH__+0x700650>
 7cc:	90 91 51 06 	lds	r25, 0x0651	; 0x800651 <__TEXT_REGION_LENGTH__+0x700651>
 7d0:	80 93 44 38 	sts	0x3844, r24	; 0x803844 <adcBtns>
 7d4:	90 93 45 38 	sts	0x3845, r25	; 0x803845 <adcBtns+0x1>
 7d8:	8f b3       	in	r24, 0x1f	; 31
 7da:	8f 30       	cpi	r24, 0x0F	; 15
 7dc:	29 f4       	brne	.+10     	; 0x7e8 <__vector_22+0x74>
 7de:	10 92 46 06 	sts	0x0646, r1	; 0x800646 <__TEXT_REGION_LENGTH__+0x700646>
 7e2:	88 e0       	ldi	r24, 0x08	; 8
 7e4:	80 93 05 04 	sts	0x0405, r24	; 0x800405 <__TEXT_REGION_LENGTH__+0x700405>
 7e8:	8f b3       	in	r24, 0x1f	; 31
 7ea:	90 e0       	ldi	r25, 0x00	; 0
 7ec:	01 96       	adiw	r24, 0x01	; 1
 7ee:	8f 70       	andi	r24, 0x0F	; 15
 7f0:	90 78       	andi	r25, 0x80	; 128
 7f2:	99 23       	and	r25, r25
 7f4:	24 f4       	brge	.+8      	; 0x7fe <__vector_22+0x8a>
 7f6:	01 97       	sbiw	r24, 0x01	; 1
 7f8:	80 6f       	ori	r24, 0xF0	; 240
 7fa:	9f 6f       	ori	r25, 0xFF	; 255
 7fc:	01 96       	adiw	r24, 0x01	; 1
 7fe:	8f bb       	out	0x1f, r24	; 31
 800:	81 e0       	ldi	r24, 0x01	; 1
 802:	80 93 4b 06 	sts	0x064B, r24	; 0x80064b <__TEXT_REGION_LENGTH__+0x70064b>
 806:	9f 91       	pop	r25
 808:	8f 91       	pop	r24
 80a:	0f 90       	pop	r0
 80c:	0f be       	out	0x3f, r0	; 63
 80e:	0f 90       	pop	r0
 810:	1f 90       	pop	r1
 812:	18 95       	reti

00000814 <__vector_6>:
 814:	1f 92       	push	r1
 816:	0f 92       	push	r0
 818:	0f b6       	in	r0, 0x3f	; 63
 81a:	0f 92       	push	r0
 81c:	11 24       	eor	r1, r1
 81e:	5f 93       	push	r21
 820:	6f 93       	push	r22
 822:	7f 93       	push	r23
 824:	8f 93       	push	r24
 826:	9f 93       	push	r25
 828:	af 93       	push	r26
 82a:	bf 93       	push	r27
 82c:	ef 93       	push	r30
 82e:	ff 93       	push	r31
 830:	80 91 43 01 	lds	r24, 0x0143	; 0x800143 <__TEXT_REGION_LENGTH__+0x700143>
 834:	81 ff       	sbrs	r24, 1
 836:	28 c0       	rjmp	.+80     	; 0x888 <__vector_6+0x74>
 838:	80 91 03 38 	lds	r24, 0x3803	; 0x803803 <buttonMark>
 83c:	8f 3f       	cpi	r24, 0xFF	; 255
 83e:	29 f0       	breq	.+10     	; 0x84a <__vector_6+0x36>
 840:	80 91 03 38 	lds	r24, 0x3803	; 0x803803 <buttonMark>
 844:	8f 5f       	subi	r24, 0xFF	; 255
 846:	80 93 03 38 	sts	0x3803, r24	; 0x803803 <buttonMark>
 84a:	80 91 48 01 	lds	r24, 0x0148	; 0x800148 <__TEXT_REGION_LENGTH__+0x700148>
 84e:	90 91 49 01 	lds	r25, 0x0149	; 0x800149 <__TEXT_REGION_LENGTH__+0x700149>
 852:	60 91 4a 01 	lds	r22, 0x014A	; 0x80014a <__TEXT_REGION_LENGTH__+0x70014a>
 856:	70 91 4b 01 	lds	r23, 0x014B	; 0x80014b <__TEXT_REGION_LENGTH__+0x70014b>
 85a:	82 96       	adiw	r24, 0x22	; 34
 85c:	34 d2       	rcall	.+1128   	; 0xcc6 <__udivmodhi4>
 85e:	80 93 97 38 	sts	0x3897, r24	; 0x803897 <tmp16bit>
 862:	90 93 98 38 	sts	0x3898, r25	; 0x803898 <tmp16bit+0x1>
 866:	e1 e4       	ldi	r30, 0x41	; 65
 868:	f1 e0       	ldi	r31, 0x01	; 1
 86a:	80 81       	ld	r24, Z
 86c:	83 fd       	sbrc	r24, 3
 86e:	fd cf       	rjmp	.-6      	; 0x86a <__vector_6+0x56>
 870:	80 91 97 38 	lds	r24, 0x3897	; 0x803897 <tmp16bit>
 874:	90 91 98 38 	lds	r25, 0x3898	; 0x803898 <tmp16bit+0x1>
 878:	80 93 4c 01 	sts	0x014C, r24	; 0x80014c <__TEXT_REGION_LENGTH__+0x70014c>
 87c:	90 93 4d 01 	sts	0x014D, r25	; 0x80014d <__TEXT_REGION_LENGTH__+0x70014d>
 880:	82 e0       	ldi	r24, 0x02	; 2
 882:	80 93 43 01 	sts	0x0143, r24	; 0x800143 <__TEXT_REGION_LENGTH__+0x700143>
 886:	0c c0       	rjmp	.+24     	; 0x8a0 <__vector_6+0x8c>
 888:	80 91 04 38 	lds	r24, 0x3804	; 0x803804 <minuteMark>
 88c:	8f 3f       	cpi	r24, 0xFF	; 255
 88e:	29 f0       	breq	.+10     	; 0x89a <__vector_6+0x86>
 890:	80 91 04 38 	lds	r24, 0x3804	; 0x803804 <minuteMark>
 894:	8f 5f       	subi	r24, 0xFF	; 255
 896:	80 93 04 38 	sts	0x3804, r24	; 0x803804 <minuteMark>
 89a:	81 e0       	ldi	r24, 0x01	; 1
 89c:	80 93 43 01 	sts	0x0143, r24	; 0x800143 <__TEXT_REGION_LENGTH__+0x700143>
 8a0:	ff 91       	pop	r31
 8a2:	ef 91       	pop	r30
 8a4:	bf 91       	pop	r27
 8a6:	af 91       	pop	r26
 8a8:	9f 91       	pop	r25
 8aa:	8f 91       	pop	r24
 8ac:	7f 91       	pop	r23
 8ae:	6f 91       	pop	r22
 8b0:	5f 91       	pop	r21
 8b2:	0f 90       	pop	r0
 8b4:	0f be       	out	0x3f, r0	; 63
 8b6:	0f 90       	pop	r0
 8b8:	1f 90       	pop	r1
 8ba:	18 95       	reti

000008bc <__vector_7>:
 8bc:	1f 92       	push	r1
 8be:	0f 92       	push	r0
 8c0:	0f b6       	in	r0, 0x3f	; 63
 8c2:	0f 92       	push	r0
 8c4:	11 24       	eor	r1, r1
 8c6:	8f 93       	push	r24
 8c8:	81 e0       	ldi	r24, 0x01	; 1
 8ca:	80 93 48 06 	sts	0x0648, r24	; 0x800648 <__TEXT_REGION_LENGTH__+0x700648>
 8ce:	80 93 53 01 	sts	0x0153, r24	; 0x800153 <__TEXT_REGION_LENGTH__+0x700153>
 8d2:	8f 91       	pop	r24
 8d4:	0f 90       	pop	r0
 8d6:	0f be       	out	0x3f, r0	; 63
 8d8:	0f 90       	pop	r0
 8da:	1f 90       	pop	r1
 8dc:	18 95       	reti

000008de <SerSend>:

//Sends a set of characters to the serial port, stops only when character value 0 is reached.
uint8_t SerSend(unsigned char *addr){
 8de:	9c 01       	movw	r18, r24
    if (serTxDone){
 8e0:	90 91 00 38 	lds	r25, 0x3800	; 0x803800 <__data_start>
 8e4:	99 23       	and	r25, r25
 8e6:	59 f0       	breq	.+22     	; 0x8fe <SerSend+0x20>
        serTxAddr = addr;
 8e8:	20 93 46 38 	sts	0x3846, r18	; 0x803846 <serTxAddr>
 8ec:	30 93 47 38 	sts	0x3847, r19	; 0x803847 <serTxAddr+0x1>
        serTxDone = 0;
 8f0:	10 92 00 38 	sts	0x3800, r1	; 0x803800 <__data_start>
        TCB0_INTCTRL = 0x01;
 8f4:	81 e0       	ldi	r24, 0x01	; 1
 8f6:	80 93 45 0a 	sts	0x0A45, r24	; 0x800a45 <__TEXT_REGION_LENGTH__+0x700a45>
        return 0;
 8fa:	80 e0       	ldi	r24, 0x00	; 0
 8fc:	08 95       	ret
    } else return 1;    //Error: Still sending data
 8fe:	81 e0       	ldi	r24, 0x01	; 1
};
 900:	08 95       	ret

00000902 <SerSpeed>:

// Set serial character output speed, 255-0 (0.8 to 100ms delay between characters)
void SerSpeed(uint8_t serSpd){
 902:	28 2f       	mov	r18, r24
    if (serSpd<1) serSpd = 1;
 904:	81 11       	cpse	r24, r1
 906:	01 c0       	rjmp	.+2      	; 0x90a <SerSpeed+0x8>
 908:	21 e0       	ldi	r18, 0x01	; 1
    TCB0_CCMP = ((uint16_t)(0xFF-serSpd)<<8) + 0xFF;
 90a:	8f ef       	ldi	r24, 0xFF	; 255
 90c:	90 e0       	ldi	r25, 0x00	; 0
 90e:	82 1b       	sub	r24, r18
 910:	91 09       	sbc	r25, r1
 912:	98 2f       	mov	r25, r24
 914:	88 27       	eor	r24, r24
 916:	81 50       	subi	r24, 0x01	; 1
 918:	9f 4f       	sbci	r25, 0xFF	; 255
 91a:	80 93 4c 0a 	sts	0x0A4C, r24	; 0x800a4c <__TEXT_REGION_LENGTH__+0x700a4c>
 91e:	90 93 4d 0a 	sts	0x0A4D, r25	; 0x800a4d <__TEXT_REGION_LENGTH__+0x700a4d>
 922:	08 95       	ret

00000924 <SelectTSens>:
};

// Select temperature sensor
void SelectTSens(){
     VREF_CTRLA   = 0x12;    //0x22 for audio in/out (2.5V), 0x12 for temperature in, audio out (1.1V/2.5V)
 924:	82 e1       	ldi	r24, 0x12	; 18
 926:	80 93 a0 00 	sts	0x00A0, r24	; 0x8000a0 <__TEXT_REGION_LENGTH__+0x7000a0>
     ADC0_CTRLA   |= ADC_RESSEL_bm;
 92a:	e0 e0       	ldi	r30, 0x00	; 0
 92c:	f6 e0       	ldi	r31, 0x06	; 6
 92e:	80 81       	ld	r24, Z
 930:	84 60       	ori	r24, 0x04	; 4
 932:	80 83       	st	Z, r24
     ADC0_MUXPOS  = 0x1E;    //Audio in: AIN7 at (0x07), Temperature: Internal sensor at (0x1E)
 934:	8e e1       	ldi	r24, 0x1E	; 30
 936:	80 93 06 06 	sts	0x0606, r24	; 0x800606 <__TEXT_REGION_LENGTH__+0x700606>
     adc0Chg = 1;
 93a:	81 e0       	ldi	r24, 0x01	; 1
 93c:	80 93 02 38 	sts	0x3802, r24	; 0x803802 <__data_end>
 940:	08 95       	ret

00000942 <SelectAuIn>:
};

// Select "audio" input (0-2.5V)
void SelectAuIn(){
     VREF_CTRLA   = 0x22;    //0x22 for audio in/out (2.5V), 0x12 for temperature in, audio out (1.1V/2.5V)
 942:	82 e2       	ldi	r24, 0x22	; 34
 944:	80 93 a0 00 	sts	0x00A0, r24	; 0x8000a0 <__TEXT_REGION_LENGTH__+0x7000a0>
     ADC0_CTRLA   &= ~(ADC_RESSEL_bm);
 948:	e0 e0       	ldi	r30, 0x00	; 0
 94a:	f6 e0       	ldi	r31, 0x06	; 6
 94c:	80 81       	ld	r24, Z
 94e:	8b 7f       	andi	r24, 0xFB	; 251
 950:	80 83       	st	Z, r24
     ADC0_MUXPOS  = 0x07;    //Audio in: AIN7 at (0x07), Temperature: Internal sensor at (0x1E)
 952:	87 e0       	ldi	r24, 0x07	; 7
 954:	80 93 06 06 	sts	0x0606, r24	; 0x800606 <__TEXT_REGION_LENGTH__+0x700606>
     adc0Chg = 1;
 958:	81 e0       	ldi	r24, 0x01	; 1
 95a:	80 93 02 38 	sts	0x3802, r24	; 0x803802 <__data_end>
 95e:	08 95       	ret

00000960 <LoadGameState>:
    } else
    if ((data[0] == 't')||(data[0] == 'u')){
        
    } 

    txAddrNow = 0;  //Start at first pointer, initiates sending in CheckSend
 960:	80 e0       	ldi	r24, 0x00	; 0
 962:	08 95       	ret

00000964 <DecryptData>:
 964:	f9 01       	movw	r30, r18
 966:	80 96       	adiw	r24, 0x20	; 32
 968:	66 23       	and	r22, r22
 96a:	99 f0       	breq	.+38     	; 0x992 <DecryptData+0x2e>
 96c:	dc 01       	movw	r26, r24
 96e:	a7 70       	andi	r26, 0x07	; 7
 970:	bb 27       	eor	r27, r27
 972:	aa 0f       	add	r26, r26
 974:	bb 1f       	adc	r27, r27
 976:	aa 0f       	add	r26, r26
 978:	bb 1f       	adc	r27, r27
 97a:	aa 0f       	add	r26, r26
 97c:	bb 1f       	adc	r27, r27
 97e:	a0 5e       	subi	r26, 0xE0	; 224
 980:	b2 47       	sbci	r27, 0x72	; 114
 982:	a4 0f       	add	r26, r20
 984:	b1 1d       	adc	r27, r1
 986:	9c 91       	ld	r25, X
 988:	80 81       	ld	r24, Z
 98a:	89 27       	eor	r24, r25
 98c:	81 93       	st	Z+, r24
 98e:	61 50       	subi	r22, 0x01	; 1
 990:	d9 f7       	brne	.-10     	; 0x988 <DecryptData+0x24>
 992:	08 95       	ret

00000994 <ExtEERead>:
 994:	af 92       	push	r10
 996:	bf 92       	push	r11
 998:	cf 92       	push	r12
 99a:	df 92       	push	r13
 99c:	ef 92       	push	r14
 99e:	ff 92       	push	r15
 9a0:	0f 93       	push	r16
 9a2:	1f 93       	push	r17
 9a4:	cf 93       	push	r28
 9a6:	df 93       	push	r29
 9a8:	00 d0       	rcall	.+0      	; 0x9aa <ExtEERead+0x16>
 9aa:	cd b7       	in	r28, 0x3d	; 61
 9ac:	de b7       	in	r29, 0x3e	; 62
 9ae:	d6 2e       	mov	r13, r22
 9b0:	c4 2e       	mov	r12, r20
 9b2:	59 01       	movw	r10, r18
 9b4:	7c 01       	movw	r14, r24
 9b6:	e8 94       	clt
 9b8:	f7 f8       	bld	r15, 7
 9ba:	f9 82       	std	Y+1, r15	; 0x01
 9bc:	ea 82       	std	Y+2, r14	; 0x02
 9be:	06 2f       	mov	r16, r22
 9c0:	42 e0       	ldi	r20, 0x02	; 2
 9c2:	be 01       	movw	r22, r28
 9c4:	6f 5f       	subi	r22, 0xFF	; 255
 9c6:	7f 4f       	sbci	r23, 0xFF	; 255
 9c8:	80 e5       	ldi	r24, 0x50	; 80
 9ca:	6a dc       	rcall	.-1836   	; 0x2a0 <I2C_read_bytes>
 9cc:	18 2f       	mov	r17, r24
 9ce:	81 11       	cpse	r24, r1
 9d0:	05 c0       	rjmp	.+10     	; 0x9dc <ExtEERead+0x48>
 9d2:	95 01       	movw	r18, r10
 9d4:	4c 2d       	mov	r20, r12
 9d6:	6d 2d       	mov	r22, r13
 9d8:	c7 01       	movw	r24, r14
 9da:	c4 df       	rcall	.-120    	; 0x964 <DecryptData>
 9dc:	81 2f       	mov	r24, r17
 9de:	0f 90       	pop	r0
 9e0:	0f 90       	pop	r0
 9e2:	df 91       	pop	r29
 9e4:	cf 91       	pop	r28
 9e6:	1f 91       	pop	r17
 9e8:	0f 91       	pop	r16
 9ea:	ff 90       	pop	r15
 9ec:	ef 90       	pop	r14
 9ee:	df 90       	pop	r13
 9f0:	cf 90       	pop	r12
 9f2:	bf 90       	pop	r11
 9f4:	af 90       	pop	r10
 9f6:	08 95       	ret

000009f8 <ClearTxAfter>:
 9f8:	8f 5f       	subi	r24, 0xFF	; 255
 9fa:	88 30       	cpi	r24, 0x08	; 8
 9fc:	40 f4       	brcc	.+16     	; 0xa0e <ClearTxAfter+0x16>
 9fe:	e8 2f       	mov	r30, r24
 a00:	f0 e0       	ldi	r31, 0x00	; 0
 a02:	e7 5f       	subi	r30, 0xF7	; 247
 a04:	f7 4c       	sbci	r31, 0xC7	; 199
 a06:	10 82       	st	Z, r1
 a08:	8f 5f       	subi	r24, 0xFF	; 255
 a0a:	88 30       	cpi	r24, 0x08	; 8
 a0c:	c1 f7       	brne	.-16     	; 0x9fe <ClearTxAfter+0x6>
 a0e:	08 95       	ret

00000a10 <StartsWith>:
 a10:	fc 01       	movw	r30, r24
 a12:	90 81       	ld	r25, Z
 a14:	91 11       	cpse	r25, r1
 a16:	07 c0       	rjmp	.+14     	; 0xa26 <StartsWith+0x16>
 a18:	81 e0       	ldi	r24, 0x01	; 1
 a1a:	08 95       	ret
 a1c:	81 e0       	ldi	r24, 0x01	; 1
 a1e:	92 17       	cp	r25, r18
 a20:	39 f0       	breq	.+14     	; 0xa30 <StartsWith+0x20>
 a22:	80 e0       	ldi	r24, 0x00	; 0
 a24:	08 95       	ret
 a26:	fb 01       	movw	r30, r22
 a28:	20 81       	ld	r18, Z
 a2a:	21 11       	cpse	r18, r1
 a2c:	f7 cf       	rjmp	.-18     	; 0xa1c <StartsWith+0xc>
 a2e:	81 e0       	ldi	r24, 0x01	; 1
 a30:	08 95       	ret

00000a32 <PrepareSending>:
 a32:	dc 01       	movw	r26, r24
 a34:	ab 01       	movw	r20, r22
 a36:	6f 3f       	cpi	r22, 0xFF	; 255
 a38:	71 05       	cpc	r23, r1
 a3a:	d1 f0       	breq	.+52     	; 0xa70 <PrepareSending+0x3e>
 a3c:	c8 f0       	brcs	.+50     	; 0xa70 <PrepareSending+0x3e>
 a3e:	90 e0       	ldi	r25, 0x00	; 0
 a40:	8f ef       	ldi	r24, 0xFF	; 255
 a42:	29 2f       	mov	r18, r25
 a44:	30 e0       	ldi	r19, 0x00	; 0
 a46:	f9 01       	movw	r30, r18
 a48:	ee 0f       	add	r30, r30
 a4a:	ff 1f       	adc	r31, r31
 a4c:	ef 5e       	subi	r30, 0xEF	; 239
 a4e:	f7 4c       	sbci	r31, 0xC7	; 199
 a50:	a0 83       	st	Z, r26
 a52:	b1 83       	std	Z+1, r27	; 0x01
 a54:	f9 01       	movw	r30, r18
 a56:	e7 5f       	subi	r30, 0xF7	; 247
 a58:	f7 4c       	sbci	r31, 0xC7	; 199
 a5a:	80 83       	st	Z, r24
 a5c:	a1 50       	subi	r26, 0x01	; 1
 a5e:	bf 4f       	sbci	r27, 0xFF	; 255
 a60:	4f 5f       	subi	r20, 0xFF	; 255
 a62:	51 09       	sbc	r21, r1
 a64:	9f 5f       	subi	r25, 0xFF	; 255
 a66:	4f 3f       	cpi	r20, 0xFF	; 255
 a68:	51 05       	cpc	r21, r1
 a6a:	09 f0       	breq	.+2      	; 0xa6e <PrepareSending+0x3c>
 a6c:	50 f7       	brcc	.-44     	; 0xa42 <PrepareSending+0x10>
 a6e:	01 c0       	rjmp	.+2      	; 0xa72 <PrepareSending+0x40>
 a70:	90 e0       	ldi	r25, 0x00	; 0
 a72:	29 2f       	mov	r18, r25
 a74:	30 e0       	ldi	r19, 0x00	; 0
 a76:	f9 01       	movw	r30, r18
 a78:	ee 0f       	add	r30, r30
 a7a:	ff 1f       	adc	r31, r31
 a7c:	ef 5e       	subi	r30, 0xEF	; 239
 a7e:	f7 4c       	sbci	r31, 0xC7	; 199
 a80:	a0 83       	st	Z, r26
 a82:	b1 83       	std	Z+1, r27	; 0x01
 a84:	f9 01       	movw	r30, r18
 a86:	e7 5f       	subi	r30, 0xF7	; 247
 a88:	f7 4c       	sbci	r31, 0xC7	; 199
 a8a:	9a 01       	movw	r18, r20
 a8c:	a1 e8       	ldi	r26, 0x81	; 129
 a8e:	b0 e8       	ldi	r27, 0x80	; 128
 a90:	2e d1       	rcall	.+604    	; 0xcee <__umulhisi3>
 a92:	88 0f       	add	r24, r24
 a94:	89 2f       	mov	r24, r25
 a96:	88 1f       	adc	r24, r24
 a98:	99 0b       	sbc	r25, r25
 a9a:	91 95       	neg	r25
 a9c:	6f ef       	ldi	r22, 0xFF	; 255
 a9e:	68 9f       	mul	r22, r24
 aa0:	90 01       	movw	r18, r0
 aa2:	69 9f       	mul	r22, r25
 aa4:	30 0d       	add	r19, r0
 aa6:	11 24       	eor	r1, r1
 aa8:	ca 01       	movw	r24, r20
 aaa:	82 1b       	sub	r24, r18
 aac:	93 0b       	sbc	r25, r19
 aae:	80 83       	st	Z, r24
 ab0:	81 e0       	ldi	r24, 0x01	; 1
 ab2:	4f 3f       	cpi	r20, 0xFF	; 255
 ab4:	51 05       	cpc	r21, r1
 ab6:	09 f0       	breq	.+2      	; 0xaba <PrepareSending+0x88>
 ab8:	08 f4       	brcc	.+2      	; 0xabc <PrepareSending+0x8a>
 aba:	80 e0       	ldi	r24, 0x00	; 0
 abc:	08 95       	ret

00000abe <CheckSend>:
 abe:	cf 93       	push	r28
 ac0:	80 91 08 38 	lds	r24, 0x3808	; 0x803808 <txAddrNow>
 ac4:	88 30       	cpi	r24, 0x08	; 8
 ac6:	d8 f5       	brcc	.+118    	; 0xb3e <CheckSend+0x80>
 ac8:	90 91 00 38 	lds	r25, 0x3800	; 0x803800 <__data_start>
 acc:	99 23       	and	r25, r25
 ace:	b9 f1       	breq	.+110    	; 0xb3e <CheckSend+0x80>
 ad0:	28 2f       	mov	r18, r24
 ad2:	30 e0       	ldi	r19, 0x00	; 0
 ad4:	f9 01       	movw	r30, r18
 ad6:	e7 5f       	subi	r30, 0xF7	; 247
 ad8:	f7 4c       	sbci	r31, 0xC7	; 199
 ada:	e0 81       	ld	r30, Z
 adc:	90 91 06 38 	lds	r25, 0x3806	; 0x803806 <txPart.3988>
 ae0:	9e 17       	cp	r25, r30
 ae2:	30 f5       	brcc	.+76     	; 0xb30 <CheckSend+0x72>
 ae4:	ce 2f       	mov	r28, r30
 ae6:	c9 1b       	sub	r28, r25
 ae8:	c1 32       	cpi	r28, 0x21	; 33
 aea:	08 f0       	brcs	.+2      	; 0xaee <CheckSend+0x30>
 aec:	c0 e2       	ldi	r28, 0x20	; 32
 aee:	22 0f       	add	r18, r18
 af0:	33 1f       	adc	r19, r19
 af2:	f9 01       	movw	r30, r18
 af4:	ef 5e       	subi	r30, 0xEF	; 239
 af6:	f7 4c       	sbci	r31, 0xC7	; 199
 af8:	01 90       	ld	r0, Z+
 afa:	f0 81       	ld	r31, Z
 afc:	e0 2d       	mov	r30, r0
 afe:	23 eb       	ldi	r18, 0xB3	; 179
 b00:	38 e3       	ldi	r19, 0x38	; 56
 b02:	40 91 07 38 	lds	r20, 0x3807	; 0x803807 <txTypeNow>
 b06:	6c 2f       	mov	r22, r28
 b08:	df 01       	movw	r26, r30
 b0a:	a9 0f       	add	r26, r25
 b0c:	b1 1d       	adc	r27, r1
 b0e:	cd 01       	movw	r24, r26
 b10:	41 df       	rcall	.-382    	; 0x994 <ExtEERead>
 b12:	80 91 06 38 	lds	r24, 0x3806	; 0x803806 <txPart.3988>
 b16:	8c 0f       	add	r24, r28
 b18:	80 93 06 38 	sts	0x3806, r24	; 0x803806 <txPart.3988>
 b1c:	ec 2f       	mov	r30, r28
 b1e:	f0 e0       	ldi	r31, 0x00	; 0
 b20:	ed 54       	subi	r30, 0x4D	; 77
 b22:	f7 4c       	sbci	r31, 0xC7	; 199
 b24:	10 82       	st	Z, r1
 b26:	83 eb       	ldi	r24, 0xB3	; 179
 b28:	98 e3       	ldi	r25, 0x38	; 56
 b2a:	d9 de       	rcall	.-590    	; 0x8de <SerSend>
 b2c:	81 e0       	ldi	r24, 0x01	; 1
 b2e:	0c c0       	rjmp	.+24     	; 0xb48 <CheckSend+0x8a>
 b30:	10 92 06 38 	sts	0x3806, r1	; 0x803806 <txPart.3988>
 b34:	8f 5f       	subi	r24, 0xFF	; 255
 b36:	80 93 08 38 	sts	0x3808, r24	; 0x803808 <txAddrNow>
 b3a:	81 e0       	ldi	r24, 0x01	; 1
 b3c:	05 c0       	rjmp	.+10     	; 0xb48 <CheckSend+0x8a>
 b3e:	90 91 00 38 	lds	r25, 0x3800	; 0x803800 <__data_start>
 b42:	81 e0       	ldi	r24, 0x01	; 1
 b44:	91 11       	cpse	r25, r1
 b46:	80 e0       	ldi	r24, 0x00	; 0
 b48:	cf 91       	pop	r28
 b4a:	08 95       	ret

00000b4c <CheckInput>:
 b4c:	cf 93       	push	r28
 b4e:	df 93       	push	r29
 b50:	cd b7       	in	r28, 0x3d	; 61
 b52:	de b7       	in	r29, 0x3e	; 62
 b54:	2a 97       	sbiw	r28, 0x0a	; 10
 b56:	cd bf       	out	0x3d, r28	; 61
 b58:	de bf       	out	0x3e, r29	; 62
 b5a:	20 91 05 38 	lds	r18, 0x3805	; 0x803805 <serRxDone>
 b5e:	22 23       	and	r18, r18
 b60:	09 f4       	brne	.+2      	; 0xb64 <CheckInput+0x18>
 b62:	67 c0       	rjmp	.+206    	; 0xc32 <CheckInput+0xe6>
 b64:	20 91 22 38 	lds	r18, 0x3822	; 0x803822 <serRx>
 b68:	22 23       	and	r18, r18
 b6a:	61 f1       	breq	.+88     	; 0xbc4 <CheckInput+0x78>
 b6c:	20 e0       	ldi	r18, 0x00	; 0
 b6e:	30 e0       	ldi	r19, 0x00	; 0
 b70:	40 e0       	ldi	r20, 0x00	; 0
 b72:	f9 01       	movw	r30, r18
 b74:	ee 5d       	subi	r30, 0xDE	; 222
 b76:	f7 4c       	sbci	r31, 0xC7	; 199
 b78:	50 81       	ld	r21, Z
 b7a:	51 34       	cpi	r21, 0x41	; 65
 b7c:	30 f0       	brcs	.+12     	; 0xb8a <CheckInput+0x3e>
 b7e:	f9 01       	movw	r30, r18
 b80:	ee 5d       	subi	r30, 0xDE	; 222
 b82:	f7 4c       	sbci	r31, 0xC7	; 199
 b84:	50 81       	ld	r21, Z
 b86:	5b 35       	cpi	r21, 0x5B	; 91
 b88:	48 f0       	brcs	.+18     	; 0xb9c <CheckInput+0x50>
 b8a:	f9 01       	movw	r30, r18
 b8c:	ee 5d       	subi	r30, 0xDE	; 222
 b8e:	f7 4c       	sbci	r31, 0xC7	; 199
 b90:	20 81       	ld	r18, Z
 b92:	fc 01       	movw	r30, r24
 b94:	e4 0f       	add	r30, r20
 b96:	f1 1d       	adc	r31, r1
 b98:	20 83       	st	Z, r18
 b9a:	09 c0       	rjmp	.+18     	; 0xbae <CheckInput+0x62>
 b9c:	f9 01       	movw	r30, r18
 b9e:	ee 5d       	subi	r30, 0xDE	; 222
 ba0:	f7 4c       	sbci	r31, 0xC7	; 199
 ba2:	20 81       	ld	r18, Z
 ba4:	fc 01       	movw	r30, r24
 ba6:	e4 0f       	add	r30, r20
 ba8:	f1 1d       	adc	r31, r1
 baa:	20 62       	ori	r18, 0x20	; 32
 bac:	20 83       	st	Z, r18
 bae:	10 92 05 38 	sts	0x3805, r1	; 0x803805 <serRxDone>
 bb2:	4f 5f       	subi	r20, 0xFF	; 255
 bb4:	24 2f       	mov	r18, r20
 bb6:	30 e0       	ldi	r19, 0x00	; 0
 bb8:	f9 01       	movw	r30, r18
 bba:	ee 5d       	subi	r30, 0xDE	; 222
 bbc:	f7 4c       	sbci	r31, 0xC7	; 199
 bbe:	50 81       	ld	r21, Z
 bc0:	51 11       	cpse	r21, r1
 bc2:	d7 cf       	rjmp	.-82     	; 0xb72 <CheckInput+0x26>
 bc4:	fc 01       	movw	r30, r24
 bc6:	20 81       	ld	r18, Z
 bc8:	2f 33       	cpi	r18, 0x3F	; 63
 bca:	11 f0       	breq	.+4      	; 0xbd0 <CheckInput+0x84>
 bcc:	28 36       	cpi	r18, 0x68	; 104
 bce:	59 f4       	brne	.+22     	; 0xbe6 <CheckInput+0x9a>
 bd0:	2f ef       	ldi	r18, 0xFF	; 255
 bd2:	41 e0       	ldi	r20, 0x01	; 1
 bd4:	65 ea       	ldi	r22, 0xA5	; 165
 bd6:	73 e0       	ldi	r23, 0x03	; 3
 bd8:	8b e5       	ldi	r24, 0x5B	; 91
 bda:	9c e7       	ldi	r25, 0x7C	; 124
 bdc:	2a df       	rcall	.-428    	; 0xa32 <PrepareSending>
 bde:	10 92 08 38 	sts	0x3808, r1	; 0x803808 <txAddrNow>
 be2:	81 e0       	ldi	r24, 0x01	; 1
 be4:	27 c0       	rjmp	.+78     	; 0xc34 <CheckInput+0xe8>
 be6:	21 37       	cpi	r18, 0x71	; 113
 be8:	61 f4       	brne	.+24     	; 0xc02 <CheckInput+0xb6>
 bea:	10 92 11 38 	sts	0x3811, r1	; 0x803811 <txAddrList>
 bee:	10 92 12 38 	sts	0x3812, r1	; 0x803812 <txAddrList+0x1>
 bf2:	10 92 09 38 	sts	0x3809, r1	; 0x803809 <txStrLen>
 bf6:	80 e0       	ldi	r24, 0x00	; 0
 bf8:	ff de       	rcall	.-514    	; 0x9f8 <ClearTxAfter>
 bfa:	10 92 08 38 	sts	0x3808, r1	; 0x803808 <txAddrNow>
 bfe:	81 e0       	ldi	r24, 0x01	; 1
 c00:	19 c0       	rjmp	.+50     	; 0xc34 <CheckInput+0xe8>
 c02:	60 e1       	ldi	r22, 0x10	; 16
 c04:	7d e8       	ldi	r23, 0x8D	; 141
 c06:	04 df       	rcall	.-504    	; 0xa10 <StartsWith>
 c08:	88 23       	and	r24, r24
 c0a:	a1 f0       	breq	.+40     	; 0xc34 <CheckInput+0xe8>
 c0c:	8a e0       	ldi	r24, 0x0A	; 10
 c0e:	e6 e1       	ldi	r30, 0x16	; 22
 c10:	fd e8       	ldi	r31, 0x8D	; 141
 c12:	de 01       	movw	r26, r28
 c14:	11 96       	adiw	r26, 0x01	; 1
 c16:	01 90       	ld	r0, Z+
 c18:	0d 92       	st	X+, r0
 c1a:	8a 95       	dec	r24
 c1c:	e1 f7       	brne	.-8      	; 0xc16 <CheckInput+0xca>
 c1e:	8f ef       	ldi	r24, 0xFF	; 255
 c20:	70 de       	rcall	.-800    	; 0x902 <SerSpeed>
 c22:	80 91 00 38 	lds	r24, 0x3800	; 0x803800 <__data_start>
 c26:	88 23       	and	r24, r24
 c28:	e1 f3       	breq	.-8      	; 0xc22 <CheckInput+0xd6>
 c2a:	ce 01       	movw	r24, r28
 c2c:	01 96       	adiw	r24, 0x01	; 1
 c2e:	57 de       	rcall	.-850    	; 0x8de <SerSend>
 c30:	f8 cf       	rjmp	.-16     	; 0xc22 <CheckInput+0xd6>
 c32:	81 e0       	ldi	r24, 0x01	; 1
 c34:	2a 96       	adiw	r28, 0x0a	; 10
 c36:	cd bf       	out	0x3d, r28	; 61
 c38:	de bf       	out	0x3e, r29	; 62
 c3a:	df 91       	pop	r29
 c3c:	cf 91       	pop	r28
 c3e:	08 95       	ret

00000c40 <TextAdventure>:
}


// Main game loop
uint8_t TextAdventure(){
 c40:	cf 93       	push	r28
 c42:	df 93       	push	r29
 c44:	cd b7       	in	r28, 0x3d	; 61
 c46:	de b7       	in	r29, 0x3e	; 62
 c48:	a0 97       	sbiw	r28, 0x20	; 32
 c4a:	cd bf       	out	0x3d, r28	; 61
 c4c:	de bf       	out	0x3e, r29	; 62
    uint8_t serInput[RXLEN];
    if (CheckSend()) return 1;                      //Still sending data to serial, return 1
 c4e:	37 df       	rcall	.-402    	; 0xabe <CheckSend>
 c50:	81 11       	cpse	r24, r1
 c52:	08 c0       	rjmp	.+16     	; 0xc64 <TextAdventure+0x24>
    if (CheckInput(&serInput[0])) return 2;         //No valid input to process, return 2
 c54:	ce 01       	movw	r24, r28
 c56:	01 96       	adiw	r24, 0x01	; 1
 c58:	79 df       	rcall	.-270    	; 0xb4c <CheckInput>
 c5a:	81 11       	cpse	r24, r1
 c5c:	05 c0       	rjmp	.+10     	; 0xc68 <TextAdventure+0x28>
    } else
    if ((data[0] == 't')||(data[0] == 'u')){
        
    } 

    txAddrNow = 0;  //Start at first pointer, initiates sending in CheckSend
 c5e:	10 92 08 38 	sts	0x3808, r1	; 0x803808 <txAddrNow>
 c62:	03 c0       	rjmp	.+6      	; 0xc6a <TextAdventure+0x2a>


// Main game loop
uint8_t TextAdventure(){
    uint8_t serInput[RXLEN];
    if (CheckSend()) return 1;                      //Still sending data to serial, return 1
 c64:	81 e0       	ldi	r24, 0x01	; 1
 c66:	01 c0       	rjmp	.+2      	; 0xc6a <TextAdventure+0x2a>
    if (CheckInput(&serInput[0])) return 2;         //No valid input to process, return 2
 c68:	82 e0       	ldi	r24, 0x02	; 2
    ProcessInput(&serInput[0]);                     //Check which response to generate and fill tx arrays
    //CheckChanges();                               //Check if things are changed, write to EEPROM
    return 0;
 c6a:	a0 96       	adiw	r28, 0x20	; 32
 c6c:	cd bf       	out	0x3d, r28	; 61
 c6e:	de bf       	out	0x3e, r29	; 62
 c70:	df 91       	pop	r29
 c72:	cf 91       	pop	r28
 c74:	08 95       	ret

00000c76 <main>:



//This is where it begins, inits first and main program in while(1) loop.
int main(void)
{
 c76:	cf 93       	push	r28
 c78:	df 93       	push	r29
 c7a:	cd b7       	in	r28, 0x3d	; 61
 c7c:	de b7       	in	r29, 0x3e	; 62
 c7e:	a4 97       	sbiw	r28, 0x24	; 36
 c80:	cd bf       	out	0x3d, r28	; 61
 c82:	de bf       	out	0x3e, r29	; 62
    setup();
 c84:	65 db       	rcall	.-2358   	; 0x350 <setup>
    LoadGameState();
 c86:	6c de       	rcall	.-808    	; 0x960 <LoadGameState>

    SerSpeed(1);
 c88:	81 e0       	ldi	r24, 0x01	; 1
 c8a:	3b de       	rcall	.-906    	; 0x902 <SerSpeed>
 c8c:	84 e2       	ldi	r24, 0x24	; 36
    unsigned char strTest[]="\aHckerHotel2020 badge pest!\b\b\b\b\bt\n";
 c8e:	e0 e3       	ldi	r30, 0x30	; 48
 c90:	fd e8       	ldi	r31, 0x8D	; 141
 c92:	de 01       	movw	r26, r28
 c94:	11 96       	adiw	r26, 0x01	; 1
 c96:	01 90       	ld	r0, Z+
 c98:	0d 92       	st	X+, r0
 c9a:	8a 95       	dec	r24
 c9c:	e1 f7       	brne	.-8      	; 0xc96 <main+0x20>
    SerSend(&strTest[0]);
 c9e:	ce 01       	movw	r24, r28
 ca0:	01 96       	adiw	r24, 0x01	; 1
 ca2:	1d de       	rcall	.-966    	; 0x8de <SerSend>
    //volatile uint8_t retVal = 0;
    //uint8_t btns = 0;
    uint8_t bla = 0;

    //if (I2C_write_bytes(devAddr, &memAddr[0], 2, &strTest[0], sizeof(strTest))) retVal = 0xFA;
    SerSpeed(255);
 ca4:	8f ef       	ldi	r24, 0xFF	; 255
 ca6:	2d de       	rcall	.-934    	; 0x902 <SerSpeed>
 ca8:	10 e0       	ldi	r17, 0x00	; 0
    //I2C 
    //uint8_t devAddr = 0x50;
    //uint8_t memAddr[2] = {0,0};
    //volatile uint8_t retVal = 0;
    //uint8_t btns = 0;
    uint8_t bla = 0;
 caa:	80 91 03 38 	lds	r24, 0x3803	; 0x803803 <buttonMark>
            RXCNT = 0;
            serRxDone = 0;         
        }*/

        //buttonMark is updated by hardware timer, every increment there is a new button value available  
        if (buttonMark){
 cae:	88 23       	and	r24, r24
 cb0:	e1 f3       	breq	.-8      	; 0xcaa <main+0x34>
 cb2:	10 92 03 38 	sts	0x3803, r1	; 0x803803 <buttonMark>
            */
            //btns = serRx[0]; 
            buttonMark = 0;

            bla++;
            if (bla%2) SelectAuIn(); else SelectTSens();    //Switch between audio in and temperature for testing
 cb6:	1f 5f       	subi	r17, 0xFF	; 255
 cb8:	10 ff       	sbrs	r17, 0
 cba:	02 c0       	rjmp	.+4      	; 0xcc0 <main+0x4a>
 cbc:	42 de       	rcall	.-892    	; 0x942 <SelectAuIn>
 cbe:	01 c0       	rjmp	.+2      	; 0xcc2 <main+0x4c>
 cc0:	31 de       	rcall	.-926    	; 0x924 <SelectTSens>
            EERead(17, (uint8_t*)&serRx[6], 1);                                                   //"H" character (second char of strTest)
            if (I2C_read_bytes(devAddr, &memAddr[0], 2, (uint8_t*)&serRx[7], 1)) retVal = 0xFA;   //Bell character (first char of strTest)
            serRx[8] = retVal;
            while (serTxDone == 0);
            //SerSend((uint8_t*) &serRx[0]);*/
            TextAdventure();
 cc2:	be df       	rcall	.-132    	; 0xc40 <TextAdventure>
 cc4:	f2 cf       	rjmp	.-28     	; 0xcaa <main+0x34>

00000cc6 <__udivmodhi4>:
 cc6:	aa 1b       	sub	r26, r26
 cc8:	bb 1b       	sub	r27, r27
 cca:	51 e1       	ldi	r21, 0x11	; 17
 ccc:	07 c0       	rjmp	.+14     	; 0xcdc <__udivmodhi4_ep>

00000cce <__udivmodhi4_loop>:
 cce:	aa 1f       	adc	r26, r26
 cd0:	bb 1f       	adc	r27, r27
 cd2:	a6 17       	cp	r26, r22
 cd4:	b7 07       	cpc	r27, r23
 cd6:	10 f0       	brcs	.+4      	; 0xcdc <__udivmodhi4_ep>
 cd8:	a6 1b       	sub	r26, r22
 cda:	b7 0b       	sbc	r27, r23

00000cdc <__udivmodhi4_ep>:
 cdc:	88 1f       	adc	r24, r24
 cde:	99 1f       	adc	r25, r25
 ce0:	5a 95       	dec	r21
 ce2:	a9 f7       	brne	.-22     	; 0xcce <__udivmodhi4_loop>
 ce4:	80 95       	com	r24
 ce6:	90 95       	com	r25
 ce8:	bc 01       	movw	r22, r24
 cea:	cd 01       	movw	r24, r26
 cec:	08 95       	ret

00000cee <__umulhisi3>:
 cee:	a2 9f       	mul	r26, r18
 cf0:	b0 01       	movw	r22, r0
 cf2:	b3 9f       	mul	r27, r19
 cf4:	c0 01       	movw	r24, r0
 cf6:	a3 9f       	mul	r26, r19
 cf8:	70 0d       	add	r23, r0
 cfa:	81 1d       	adc	r24, r1
 cfc:	11 24       	eor	r1, r1
 cfe:	91 1d       	adc	r25, r1
 d00:	b2 9f       	mul	r27, r18
 d02:	70 0d       	add	r23, r0
 d04:	81 1d       	adc	r24, r1
 d06:	11 24       	eor	r1, r1
 d08:	91 1d       	adc	r25, r1
 d0a:	08 95       	ret

00000d0c <_exit>:
 d0c:	f8 94       	cli

00000d0e <__stop_program>:
 d0e:	ff cf       	rjmp	.-2      	; 0xd0e <__stop_program>
