
ISR_IO.elf:     file format elf32-avr

Sections:
Idx Name          Size      VMA       LMA       File off  Algn
  0 .data         0000002e  00803800  00003f14  00003fc8  2**0
                  CONTENTS, ALLOC, LOAD, DATA
  1 .text         00003e1a  00000000  00000000  000000b4  2**1
                  CONTENTS, ALLOC, LOAD, READONLY, CODE
  2 .rodata       000000fa  0000be1a  00003e1a  00003ece  2**0
                  CONTENTS, ALLOC, LOAD, READONLY, DATA
  3 .bss          000002ec  0080382e  0080382e  00003ff6  2**0
                  ALLOC
  4 .comment      00000030  00000000  00000000  00003ff6  2**0
                  CONTENTS, READONLY
  5 .note.gnu.avr.deviceinfo 00000040  00000000  00000000  00004028  2**2
                  CONTENTS, READONLY
  6 .debug_aranges 00000328  00000000  00000000  00004068  2**0
                  CONTENTS, READONLY, DEBUGGING
  7 .debug_info   00006d64  00000000  00000000  00004390  2**0
                  CONTENTS, READONLY, DEBUGGING
  8 .debug_abbrev 000028ce  00000000  00000000  0000b0f4  2**0
                  CONTENTS, READONLY, DEBUGGING
  9 .debug_line   00003cca  00000000  00000000  0000d9c2  2**0
                  CONTENTS, READONLY, DEBUGGING
 10 .debug_frame  0000098c  00000000  00000000  0001168c  2**2
                  CONTENTS, READONLY, DEBUGGING
 11 .debug_str    00001a6b  00000000  00000000  00012018  2**0
                  CONTENTS, READONLY, DEBUGGING
 12 .debug_loc    000044dc  00000000  00000000  00013a83  2**0
                  CONTENTS, READONLY, DEBUGGING
 13 .debug_ranges 000003b0  00000000  00000000  00017f5f  2**0
                  CONTENTS, READONLY, DEBUGGING

Disassembly of section .text:

00000000 <__vectors>:
       0:	3d c0       	rjmp	.+122    	; 0x7c <__ctors_end>
       2:	00 00       	nop
       4:	58 c0       	rjmp	.+176    	; 0xb6 <__bad_interrupt>
       6:	00 00       	nop
       8:	56 c0       	rjmp	.+172    	; 0xb6 <__bad_interrupt>
       a:	00 00       	nop
       c:	54 c0       	rjmp	.+168    	; 0xb6 <__bad_interrupt>
       e:	00 00       	nop
      10:	52 c0       	rjmp	.+164    	; 0xb6 <__bad_interrupt>
      12:	00 00       	nop
      14:	50 c0       	rjmp	.+160    	; 0xb6 <__bad_interrupt>
      16:	00 00       	nop
      18:	0c 94 27 08 	jmp	0x104e	; 0x104e <__vector_6>
      1c:	0c 94 7e 08 	jmp	0x10fc	; 0x10fc <__vector_7>
      20:	49 c6       	rjmp	.+3218   	; 0xcb4 <__vector_8>
      22:	00 00       	nop
      24:	48 c0       	rjmp	.+144    	; 0xb6 <__bad_interrupt>
      26:	00 00       	nop
      28:	46 c0       	rjmp	.+140    	; 0xb6 <__bad_interrupt>
      2a:	00 00       	nop
      2c:	44 c0       	rjmp	.+136    	; 0xb6 <__bad_interrupt>
      2e:	00 00       	nop
      30:	42 c0       	rjmp	.+132    	; 0xb6 <__bad_interrupt>
      32:	00 00       	nop
      34:	90 c6       	rjmp	.+3360   	; 0xd56 <__vector_13>
      36:	00 00       	nop
      38:	c1 c6       	rjmp	.+3458   	; 0xdbc <__vector_14>
      3a:	00 00       	nop
      3c:	3c c0       	rjmp	.+120    	; 0xb6 <__bad_interrupt>
      3e:	00 00       	nop
      40:	3a c0       	rjmp	.+116    	; 0xb6 <__bad_interrupt>
      42:	00 00       	nop
      44:	38 c0       	rjmp	.+112    	; 0xb6 <__bad_interrupt>
      46:	00 00       	nop
      48:	36 c0       	rjmp	.+108    	; 0xb6 <__bad_interrupt>
      4a:	00 00       	nop
      4c:	34 c0       	rjmp	.+104    	; 0xb6 <__bad_interrupt>
      4e:	00 00       	nop
      50:	7f c7       	rjmp	.+3838   	; 0xf50 <__vector_20>
      52:	00 00       	nop
      54:	30 c0       	rjmp	.+96     	; 0xb6 <__bad_interrupt>
      56:	00 00       	nop
      58:	b2 c7       	rjmp	.+3940   	; 0xfbe <__vector_22>
      5a:	00 00       	nop
      5c:	2c c0       	rjmp	.+88     	; 0xb6 <__bad_interrupt>
      5e:	00 00       	nop
      60:	2a c0       	rjmp	.+84     	; 0xb6 <__bad_interrupt>
      62:	00 00       	nop
      64:	28 c0       	rjmp	.+80     	; 0xb6 <__bad_interrupt>
      66:	00 00       	nop
      68:	26 c0       	rjmp	.+76     	; 0xb6 <__bad_interrupt>
      6a:	00 00       	nop
      6c:	fa c6       	rjmp	.+3572   	; 0xe62 <__vector_27>
      6e:	00 00       	nop
      70:	53 c7       	rjmp	.+3750   	; 0xf18 <__vector_28>
      72:	00 00       	nop
      74:	20 c0       	rjmp	.+64     	; 0xb6 <__bad_interrupt>
      76:	00 00       	nop
      78:	1e c0       	rjmp	.+60     	; 0xb6 <__bad_interrupt>
	...

0000007c <__ctors_end>:
      7c:	11 24       	eor	r1, r1
      7e:	1f be       	out	0x3f, r1	; 63
      80:	cf ef       	ldi	r28, 0xFF	; 255
      82:	cd bf       	out	0x3d, r28	; 61
      84:	df e3       	ldi	r29, 0x3F	; 63
      86:	de bf       	out	0x3e, r29	; 62

00000088 <__do_copy_data>:
      88:	18 e3       	ldi	r17, 0x38	; 56
      8a:	a0 e0       	ldi	r26, 0x00	; 0
      8c:	b8 e3       	ldi	r27, 0x38	; 56
      8e:	e4 e1       	ldi	r30, 0x14	; 20
      90:	ff e3       	ldi	r31, 0x3F	; 63
      92:	02 c0       	rjmp	.+4      	; 0x98 <__do_copy_data+0x10>
      94:	05 90       	lpm	r0, Z+
      96:	0d 92       	st	X+, r0
      98:	ae 32       	cpi	r26, 0x2E	; 46
      9a:	b1 07       	cpc	r27, r17
      9c:	d9 f7       	brne	.-10     	; 0x94 <__do_copy_data+0xc>

0000009e <__do_clear_bss>:
      9e:	2b e3       	ldi	r18, 0x3B	; 59
      a0:	ae e2       	ldi	r26, 0x2E	; 46
      a2:	b8 e3       	ldi	r27, 0x38	; 56
      a4:	01 c0       	rjmp	.+2      	; 0xa8 <.do_clear_bss_start>

000000a6 <.do_clear_bss_loop>:
      a6:	1d 92       	st	X+, r1

000000a8 <.do_clear_bss_start>:
      a8:	aa 31       	cpi	r26, 0x1A	; 26
      aa:	b2 07       	cpc	r27, r18
      ac:	e1 f7       	brne	.-8      	; 0xa6 <.do_clear_bss_loop>
      ae:	0e 94 b7 1e 	call	0x3d6e	; 0x3d6e <main>
      b2:	0c 94 0b 1f 	jmp	0x3e16	; 0x3e16 <_exit>

000000b6 <__bad_interrupt>:
      b6:	a4 cf       	rjmp	.-184    	; 0x0 <__vectors>

000000b8 <chkVolt250>:
#include <main_def.h>
#include <resources.h>
#include <I2C.h>

//Returns measured voltage * 4 (2V returns 8) if it is in the expected range (DELTA)
uint8_t chkVolt250(){
      b8:	20 91 32 38 	lds	r18, 0x3832	; 0x803832 <avgVolt.3776>
      bc:	85 e1       	ldi	r24, 0x15	; 21
      be:	90 e0       	ldi	r25, 0x00	; 0
    static uint8_t avgVolt = 0;
        
    for (uint8_t x=25; x<226; x+=25) {
        if ((auIn[0] > (x-DELTA)) && (auIn[0] < (x+DELTA))) {
      c0:	40 91 c2 3a 	lds	r20, 0x3AC2	; 0x803ac2 <auIn>
      c4:	50 e0       	ldi	r21, 0x00	; 0
      c6:	48 17       	cp	r20, r24
      c8:	59 07       	cpc	r21, r25
      ca:	74 f0       	brlt	.+28     	; 0xe8 <chkVolt250+0x30>
      cc:	40 91 c2 3a 	lds	r20, 0x3AC2	; 0x803ac2 <auIn>
      d0:	50 e0       	ldi	r21, 0x00	; 0
      d2:	bc 01       	movw	r22, r24
      d4:	68 5f       	subi	r22, 0xF8	; 248
      d6:	7f 4f       	sbci	r23, 0xFF	; 255
      d8:	64 17       	cp	r22, r20
      da:	75 07       	cpc	r23, r21
      dc:	2c f0       	brlt	.+10     	; 0xe8 <chkVolt250+0x30>
      de:	20 93 32 38 	sts	0x3832, r18	; 0x803832 <avgVolt.3776>
            break;
        }
        ++avgVolt;
    }
    return avgVolt;
      e2:	80 91 32 38 	lds	r24, 0x3832	; 0x803832 <avgVolt.3776>
      e6:	08 95       	ret
        
    for (uint8_t x=25; x<226; x+=25) {
        if ((auIn[0] > (x-DELTA)) && (auIn[0] < (x+DELTA))) {
            break;
        }
        ++avgVolt;
      e8:	2f 5f       	subi	r18, 0xFF	; 255
      ea:	49 96       	adiw	r24, 0x19	; 25

//Returns measured voltage * 4 (2V returns 8) if it is in the expected range (DELTA)
uint8_t chkVolt250(){
    static uint8_t avgVolt = 0;
        
    for (uint8_t x=25; x<226; x+=25) {
      ec:	86 3f       	cpi	r24, 0xF6	; 246
      ee:	91 05       	cpc	r25, r1
      f0:	39 f7       	brne	.-50     	; 0xc0 <chkVolt250+0x8>
      f2:	f5 cf       	rjmp	.-22     	; 0xde <chkVolt250+0x26>

000000f4 <MakeFriends>:
    }
    return avgVolt;
}

// Main game loop
uint8_t MakeFriends(){
      f4:	ef 92       	push	r14
      f6:	ff 92       	push	r15
      f8:	0f 93       	push	r16
      fa:	1f 93       	push	r17
      fc:	cf 93       	push	r28
      fe:	df 93       	push	r29
     100:	c4 e6       	ldi	r28, 0x64	; 100
    static uint8_t chkTmr = 0;
    static uint8_t jackIn = 0;
    static uint8_t candidate = 0;

    //Check if badge has found 3 friends
    uint8_t foundAll = 1;
     102:	d1 e0       	ldi	r29, 0x01	; 1
    for (uint8_t x=0; x<4; x++){
        if (CheckState(100+x) == 0) foundAll = 0;
     104:	8c 2f       	mov	r24, r28
     106:	0e 94 63 0a 	call	0x14c6	; 0x14c6 <CheckState>
     10a:	81 11       	cpse	r24, r1
     10c:	01 c0       	rjmp	.+2      	; 0x110 <MakeFriends+0x1c>
     10e:	d0 e0       	ldi	r29, 0x00	; 0
     110:	cf 5f       	subi	r28, 0xFF	; 255
    static uint8_t jackIn = 0;
    static uint8_t candidate = 0;

    //Check if badge has found 3 friends
    uint8_t foundAll = 1;
    for (uint8_t x=0; x<4; x++){
     112:	c8 36       	cpi	r28, 0x68	; 104
     114:	b9 f7       	brne	.-18     	; 0x104 <MakeFriends+0x10>
        if (CheckState(100+x) == 0) foundAll = 0;
    }
    if (foundAll) UpdateState(124);
     116:	dd 23       	and	r29, r29
     118:	19 f0       	breq	.+6      	; 0x120 <MakeFriends+0x2c>
     11a:	8c e7       	ldi	r24, 0x7C	; 124
     11c:	0e 94 59 0a 	call	0x14b2	; 0x14b2 <UpdateState>


    //Checking for headphones
    if (detHdPh) return 0;
     120:	80 91 bf 3a 	lds	r24, 0x3ABF	; 0x803abf <detHdPh>
     124:	81 11       	cpse	r24, r1
     126:	1e c1       	rjmp	.+572    	; 0x364 <MakeFriends+0x270>

    //Audio off, set voltage level (setDAC[0]*10mV)
    if (progress == NO_OTHER) {
     128:	80 91 31 38 	lds	r24, 0x3831	; 0x803831 <progress.3783>
     12c:	81 11       	cpse	r24, r1
     12e:	11 c0       	rjmp	.+34     	; 0x152 <MakeFriends+0x5e>
        setDAC[0] = whoami * 50;
     130:	90 91 3d 38 	lds	r25, 0x383D	; 0x80383d <whoami>
     134:	22 e3       	ldi	r18, 0x32	; 50
     136:	92 9f       	mul	r25, r18
     138:	90 2d       	mov	r25, r0
     13a:	11 24       	eor	r1, r1
     13c:	90 93 00 38 	sts	0x3800, r25	; 0x803800 <__data_start>
        auRepAddr = &setDAC[0];
     140:	20 e0       	ldi	r18, 0x00	; 0
     142:	38 e3       	ldi	r19, 0x38	; 56
     144:	20 93 03 38 	sts	0x3803, r18	; 0x803803 <auRepAddr>
     148:	30 93 04 38 	sts	0x3804, r19	; 0x803804 <auRepAddr+0x1>
        auVolume = 255;
     14c:	9f ef       	ldi	r25, 0xFF	; 255
     14e:	90 93 b6 3a 	sts	0x3AB6, r25	; 0x803ab6 <auVolume>
    }

    //Check for other badges
    if ((auIn[0] < (setDAC[0] - DELTA)) || (auIn[0] > (setDAC[0] + DELTA)) ||((progress > FIRST_CONTACT))) {
     152:	40 91 c2 3a 	lds	r20, 0x3AC2	; 0x803ac2 <auIn>
     156:	20 91 00 38 	lds	r18, 0x3800	; 0x803800 <__data_start>
     15a:	30 e0       	ldi	r19, 0x00	; 0
     15c:	50 e0       	ldi	r21, 0x00	; 0
     15e:	b9 01       	movw	r22, r18
     160:	65 50       	subi	r22, 0x05	; 5
     162:	71 09       	sbc	r23, r1
     164:	46 17       	cp	r20, r22
     166:	57 07       	cpc	r21, r23
     168:	64 f0       	brlt	.+24     	; 0x182 <MakeFriends+0x8e>
     16a:	40 91 c2 3a 	lds	r20, 0x3AC2	; 0x803ac2 <auIn>
     16e:	50 e0       	ldi	r21, 0x00	; 0
     170:	2b 5f       	subi	r18, 0xFB	; 251
     172:	3f 4f       	sbci	r19, 0xFF	; 255
     174:	24 17       	cp	r18, r20
     176:	35 07       	cpc	r19, r21
     178:	24 f0       	brlt	.+8      	; 0x182 <MakeFriends+0x8e>
     17a:	82 30       	cpi	r24, 0x02	; 2
     17c:	08 f0       	brcs	.+2      	; 0x180 <MakeFriends+0x8c>
     17e:	40 c0       	rjmp	.+128    	; 0x200 <MakeFriends+0x10c>
     180:	ef c0       	rjmp	.+478    	; 0x360 <MakeFriends+0x26c>
        if (progress == NO_OTHER) {
     182:	81 11       	cpse	r24, r1
     184:	0a c0       	rjmp	.+20     	; 0x19a <MakeFriends+0xa6>
            ++chkTmr;
     186:	80 91 30 38 	lds	r24, 0x3830	; 0x803830 <chkTmr.3785>
     18a:	8f 5f       	subi	r24, 0xFF	; 255
     18c:	80 93 30 38 	sts	0x3830, r24	; 0x803830 <chkTmr.3785>
            if (chkTmr >= 8) {
     190:	88 30       	cpi	r24, 0x08	; 8
     192:	08 f4       	brcc	.+2      	; 0x196 <MakeFriends+0xa2>
     194:	e7 c0       	rjmp	.+462    	; 0x364 <MakeFriends+0x270>
                progress = FIRST_CONTACT;
     196:	81 e0       	ldi	r24, 0x01	; 1
     198:	81 c0       	rjmp	.+258    	; 0x29c <MakeFriends+0x1a8>
                chkTmr = 0;
            }
        }

        //Candidate found, check ranges
        else if (progress == FIRST_CONTACT) {
     19a:	81 30       	cpi	r24, 0x01	; 1
     19c:	89 f5       	brne	.+98     	; 0x200 <MakeFriends+0x10c>
            jackIn = chkVolt250();
     19e:	8c df       	rcall	.-232    	; 0xb8 <chkVolt250>
     1a0:	80 93 2f 38 	sts	0x382F, r24	; 0x80382f <jackIn.3786>
            if (jackIn) {
     1a4:	88 23       	and	r24, r24
     1a6:	49 f1       	breq	.+82     	; 0x1fa <MakeFriends+0x106>
                ++chkTmr;
     1a8:	90 91 30 38 	lds	r25, 0x3830	; 0x803830 <chkTmr.3785>
     1ac:	9f 5f       	subi	r25, 0xFF	; 255
     1ae:	90 93 30 38 	sts	0x3830, r25	; 0x803830 <chkTmr.3785>
                if (chkTmr >= SHORT_WAIT){
     1b2:	98 30       	cpi	r25, 0x08	; 8
     1b4:	08 f4       	brcc	.+2      	; 0x1b8 <MakeFriends+0xc4>
     1b6:	d6 c0       	rjmp	.+428    	; 0x364 <MakeFriends+0x270>
                    if ((whoami == 1)&&((jackIn == 3)||(jackIn == 4)||(jackIn == 5))) {
     1b8:	90 91 3d 38 	lds	r25, 0x383D	; 0x80383d <whoami>
     1bc:	91 30       	cpi	r25, 0x01	; 1
     1be:	29 f4       	brne	.+10     	; 0x1ca <MakeFriends+0xd6>
     1c0:	83 50       	subi	r24, 0x03	; 3
     1c2:	83 30       	cpi	r24, 0x03	; 3
     1c4:	b8 f4       	brcc	.+46     	; 0x1f4 <MakeFriends+0x100>
                        progress = SECOND_LOVE; 
     1c6:	82 e0       	ldi	r24, 0x02	; 2
     1c8:	69 c0       	rjmp	.+210    	; 0x29c <MakeFriends+0x1a8>
                    } else if ((whoami == 2)&&((jackIn == 3)||(jackIn == 5)||(jackIn == 6))) {
     1ca:	92 30       	cpi	r25, 0x02	; 2
     1cc:	31 f4       	brne	.+12     	; 0x1da <MakeFriends+0xe6>
     1ce:	83 30       	cpi	r24, 0x03	; 3
     1d0:	d1 f3       	breq	.-12     	; 0x1c6 <MakeFriends+0xd2>
     1d2:	85 50       	subi	r24, 0x05	; 5
     1d4:	82 30       	cpi	r24, 0x02	; 2
     1d6:	70 f4       	brcc	.+28     	; 0x1f4 <MakeFriends+0x100>
     1d8:	f6 cf       	rjmp	.-20     	; 0x1c6 <MakeFriends+0xd2>
                        progress = SECOND_LOVE;
                    } else  if ((whoami == 3)&&((jackIn == 4)||(jackIn == 5)||(jackIn == 7))) {
     1da:	93 30       	cpi	r25, 0x03	; 3
     1dc:	39 f4       	brne	.+14     	; 0x1ec <MakeFriends+0xf8>
     1de:	9c ef       	ldi	r25, 0xFC	; 252
     1e0:	98 0f       	add	r25, r24
     1e2:	92 30       	cpi	r25, 0x02	; 2
     1e4:	80 f3       	brcs	.-32     	; 0x1c6 <MakeFriends+0xd2>
     1e6:	87 30       	cpi	r24, 0x07	; 7
     1e8:	29 f4       	brne	.+10     	; 0x1f4 <MakeFriends+0x100>
     1ea:	ed cf       	rjmp	.-38     	; 0x1c6 <MakeFriends+0xd2>
                        progress = SECOND_LOVE;
                    } else if ((whoami == 4)&&((jackIn == 5)||(jackIn == 6)||(jackIn == 7))) {
     1ec:	94 30       	cpi	r25, 0x04	; 4
     1ee:	11 f4       	brne	.+4      	; 0x1f4 <MakeFriends+0x100>
     1f0:	85 50       	subi	r24, 0x05	; 5
     1f2:	e7 cf       	rjmp	.-50     	; 0x1c2 <MakeFriends+0xce>
                        progress = SECOND_LOVE;
                    } else progress = NO_OTHER;
     1f4:	10 92 31 38 	sts	0x3831, r1	; 0x803831 <progress.3783>
     1f8:	53 c0       	rjmp	.+166    	; 0x2a0 <MakeFriends+0x1ac>
                    chkTmr = 0;
                }
            } else {
                chkTmr = 0;
     1fa:	10 92 30 38 	sts	0x3830, r1	; 0x803830 <chkTmr.3785>
     1fe:	b0 c0       	rjmp	.+352    	; 0x360 <MakeFriends+0x26c>
                progress = NO_OTHER;
            }
        }

        //Wait for the other badge (and a bit longer)
        else if (progress == SECOND_LOVE){
     200:	82 30       	cpi	r24, 0x02	; 2
     202:	09 f0       	breq	.+2      	; 0x206 <MakeFriends+0x112>
     204:	50 c0       	rjmp	.+160    	; 0x2a6 <MakeFriends+0x1b2>
            ++chkTmr;
     206:	80 91 30 38 	lds	r24, 0x3830	; 0x803830 <chkTmr.3785>
     20a:	8f 5f       	subi	r24, 0xFF	; 255
     20c:	80 93 30 38 	sts	0x3830, r24	; 0x803830 <chkTmr.3785>
     210:	c6 e4       	ldi	r28, 0x46	; 70
     212:	de eb       	ldi	r29, 0xBE	; 190
     214:	7e 01       	movw	r14, r28
            for (uint8_t x=0; x<5; ++x){
                iLED[WING[L][x]] = (lfsr() > 127)?dimValue:0;
     216:	0d 81       	ldd	r16, Y+5	; 0x05
     218:	10 e0       	ldi	r17, 0x00	; 0
     21a:	0e 94 35 09 	call	0x126a	; 0x126a <lfsr>
     21e:	87 ff       	sbrs	r24, 7
     220:	03 c0       	rjmp	.+6      	; 0x228 <MakeFriends+0x134>
     222:	80 91 0a 38 	lds	r24, 0x380A	; 0x80380a <dimValue>
     226:	01 c0       	rjmp	.+2      	; 0x22a <MakeFriends+0x136>
     228:	80 e0       	ldi	r24, 0x00	; 0
     22a:	f8 01       	movw	r30, r16
     22c:	e6 53       	subi	r30, 0x36	; 54
     22e:	f5 4c       	sbci	r31, 0xC5	; 197
     230:	80 83       	st	Z, r24
     232:	21 96       	adiw	r28, 0x01	; 1
                iLED[WING[R][x]] = (lfsr() > 127)?dimValue:0;
     234:	f7 01       	movw	r30, r14
     236:	00 81       	ld	r16, Z
     238:	10 e0       	ldi	r17, 0x00	; 0
     23a:	0e 94 35 09 	call	0x126a	; 0x126a <lfsr>
     23e:	87 ff       	sbrs	r24, 7
     240:	03 c0       	rjmp	.+6      	; 0x248 <MakeFriends+0x154>
     242:	80 91 0a 38 	lds	r24, 0x380A	; 0x80380a <dimValue>
     246:	01 c0       	rjmp	.+2      	; 0x24a <MakeFriends+0x156>
     248:	80 e0       	ldi	r24, 0x00	; 0
     24a:	f8 01       	movw	r30, r16
     24c:	e6 53       	subi	r30, 0x36	; 54
     24e:	f5 4c       	sbci	r31, 0xC5	; 197
     250:	80 83       	st	Z, r24
        }

        //Wait for the other badge (and a bit longer)
        else if (progress == SECOND_LOVE){
            ++chkTmr;
            for (uint8_t x=0; x<5; ++x){
     252:	fe eb       	ldi	r31, 0xBE	; 190
     254:	cb 34       	cpi	r28, 0x4B	; 75
     256:	df 07       	cpc	r29, r31
     258:	e9 f6       	brne	.-70     	; 0x214 <MakeFriends+0x120>
                iLED[WING[L][x]] = (lfsr() > 127)?dimValue:0;
                iLED[WING[R][x]] = (lfsr() > 127)?dimValue:0;
            }
            if (chkTmr >= SHORT_WAIT) {
     25a:	80 91 30 38 	lds	r24, 0x3830	; 0x803830 <chkTmr.3785>
     25e:	88 30       	cpi	r24, 0x08	; 8
     260:	40 f0       	brcs	.+16     	; 0x272 <MakeFriends+0x17e>
                setDAC[0] = floatAround(0x80, 8, 100, 255); 
     262:	2f ef       	ldi	r18, 0xFF	; 255
     264:	44 e6       	ldi	r20, 0x64	; 100
     266:	68 e0       	ldi	r22, 0x08	; 8
     268:	80 e8       	ldi	r24, 0x80	; 128
     26a:	0e 94 86 09 	call	0x130c	; 0x130c <floatAround>
     26e:	80 93 00 38 	sts	0x3800, r24	; 0x803800 <__data_start>
            }
            //The badge with the lowest voltage will now go to 2.5V (impedance check, for people tricking the things with a power supply)
            if (chkTmr >= LONG_WAIT){
     272:	80 91 30 38 	lds	r24, 0x3830	; 0x803830 <chkTmr.3785>
     276:	8a 3f       	cpi	r24, 0xFA	; 250
     278:	08 f4       	brcc	.+2      	; 0x27c <MakeFriends+0x188>
     27a:	74 c0       	rjmp	.+232    	; 0x364 <MakeFriends+0x270>
                candidate = jackIn-whoami;
     27c:	90 91 3d 38 	lds	r25, 0x383D	; 0x80383d <whoami>
     280:	80 91 2f 38 	lds	r24, 0x382F	; 0x80382f <jackIn.3786>
     284:	89 1b       	sub	r24, r25
     286:	80 93 2e 38 	sts	0x382E, r24	; 0x80382e <__data_end>
                if (candidate > whoami) setDAC[0] = 250; else setDAC[0] = 0;
     28a:	98 17       	cp	r25, r24
     28c:	20 f4       	brcc	.+8      	; 0x296 <MakeFriends+0x1a2>
     28e:	8a ef       	ldi	r24, 0xFA	; 250
     290:	80 93 00 38 	sts	0x3800, r24	; 0x803800 <__data_start>
     294:	02 c0       	rjmp	.+4      	; 0x29a <MakeFriends+0x1a6>
     296:	10 92 00 38 	sts	0x3800, r1	; 0x803800 <__data_start>
                progress = THIRD_KISS;
     29a:	83 e0       	ldi	r24, 0x03	; 3
     29c:	80 93 31 38 	sts	0x3831, r24	; 0x803831 <progress.3783>
                chkTmr = 0;
     2a0:	10 92 30 38 	sts	0x3830, r1	; 0x803830 <chkTmr.3785>
     2a4:	5f c0       	rjmp	.+190    	; 0x364 <MakeFriends+0x270>
            }
        } 
        
        //Wait a bit, check Voltage again, if ok show who you connected with and your own number, save, exit
        else if (progress == THIRD_KISS) {
     2a6:	83 30       	cpi	r24, 0x03	; 3
     2a8:	e1 f5       	brne	.+120    	; 0x322 <MakeFriends+0x22e>
            chkTmr++;
     2aa:	80 91 30 38 	lds	r24, 0x3830	; 0x803830 <chkTmr.3785>
     2ae:	8f 5f       	subi	r24, 0xFF	; 255
     2b0:	80 93 30 38 	sts	0x3830, r24	; 0x803830 <chkTmr.3785>
            if (chkTmr >= SHORT_WAIT) {
     2b4:	88 30       	cpi	r24, 0x08	; 8
     2b6:	08 f4       	brcc	.+2      	; 0x2ba <MakeFriends+0x1c6>
                if (chkVolt250() == 5) {
     2b8:	55 c0       	rjmp	.+170    	; 0x364 <MakeFriends+0x270>
     2ba:	fe de       	rcall	.-516    	; 0xb8 <chkVolt250>
     2bc:	85 30       	cpi	r24, 0x05	; 5
     2be:	09 f0       	breq	.+2      	; 0x2c2 <MakeFriends+0x1ce>
     2c0:	99 cf       	rjmp	.-206    	; 0x1f4 <MakeFriends+0x100>
                    UpdateState(99+candidate);
     2c2:	80 91 2e 38 	lds	r24, 0x382E	; 0x80382e <__data_end>
     2c6:	8d 59       	subi	r24, 0x9D	; 157
     2c8:	0e 94 59 0a 	call	0x14b2	; 0x14b2 <UpdateState>
                    UpdateState(99+whoami);
     2cc:	80 91 3d 38 	lds	r24, 0x383D	; 0x80383d <whoami>
     2d0:	8d 59       	subi	r24, 0x9D	; 157
     2d2:	0e 94 59 0a 	call	0x14b2	; 0x14b2 <UpdateState>
                    for (uint8_t x=0; x<5; ++x){
                        iLED[WING[L][x]] = (x<candidate)?dimValue:0;
     2d6:	20 91 2e 38 	lds	r18, 0x382E	; 0x80382e <__data_end>
                        iLED[WING[R][x]] = (x<whoami)?dimValue:00;
     2da:	30 91 3d 38 	lds	r19, 0x383D	; 0x80383d <whoami>
     2de:	a6 e4       	ldi	r26, 0x46	; 70
     2e0:	be eb       	ldi	r27, 0xBE	; 190
            chkTmr++;
            if (chkTmr >= SHORT_WAIT) {
                if (chkVolt250() == 5) {
                    UpdateState(99+candidate);
                    UpdateState(99+whoami);
                    for (uint8_t x=0; x<5; ++x){
     2e2:	80 e0       	ldi	r24, 0x00	; 0
     2e4:	ed 01       	movw	r28, r26
                        iLED[WING[L][x]] = (x<candidate)?dimValue:0;
     2e6:	15 96       	adiw	r26, 0x05	; 5
     2e8:	ec 91       	ld	r30, X
     2ea:	15 97       	sbiw	r26, 0x05	; 5
     2ec:	f0 e0       	ldi	r31, 0x00	; 0
     2ee:	82 17       	cp	r24, r18
     2f0:	18 f4       	brcc	.+6      	; 0x2f8 <MakeFriends+0x204>
     2f2:	90 91 0a 38 	lds	r25, 0x380A	; 0x80380a <dimValue>
     2f6:	01 c0       	rjmp	.+2      	; 0x2fa <MakeFriends+0x206>
     2f8:	90 e0       	ldi	r25, 0x00	; 0
     2fa:	e6 53       	subi	r30, 0x36	; 54
     2fc:	f5 4c       	sbci	r31, 0xC5	; 197
     2fe:	90 83       	st	Z, r25
     300:	11 96       	adiw	r26, 0x01	; 1
                        iLED[WING[R][x]] = (x<whoami)?dimValue:00;
     302:	e8 81       	ld	r30, Y
     304:	f0 e0       	ldi	r31, 0x00	; 0
     306:	83 17       	cp	r24, r19
     308:	18 f4       	brcc	.+6      	; 0x310 <MakeFriends+0x21c>
     30a:	90 91 0a 38 	lds	r25, 0x380A	; 0x80380a <dimValue>
     30e:	01 c0       	rjmp	.+2      	; 0x312 <MakeFriends+0x21e>
     310:	90 e0       	ldi	r25, 0x00	; 0
     312:	e6 53       	subi	r30, 0x36	; 54
     314:	f5 4c       	sbci	r31, 0xC5	; 197
     316:	90 83       	st	Z, r25
            chkTmr++;
            if (chkTmr >= SHORT_WAIT) {
                if (chkVolt250() == 5) {
                    UpdateState(99+candidate);
                    UpdateState(99+whoami);
                    for (uint8_t x=0; x<5; ++x){
     318:	8f 5f       	subi	r24, 0xFF	; 255
     31a:	85 30       	cpi	r24, 0x05	; 5
     31c:	19 f7       	brne	.-58     	; 0x2e4 <MakeFriends+0x1f0>
                        iLED[WING[L][x]] = (x<candidate)?dimValue:0;
                        iLED[WING[R][x]] = (x<whoami)?dimValue:00;
                    }   
                    progress = FOURTH_BASE;
     31e:	84 e0       	ldi	r24, 0x04	; 4
     320:	bd cf       	rjmp	.-134    	; 0x29c <MakeFriends+0x1a8>
                } else progress = NO_OTHER;                
                chkTmr = 0;
            }

        //Wait for divorce of force quit
        } else if (progress == FOURTH_BASE) {
     322:	84 30       	cpi	r24, 0x04	; 4
            if (chkVolt250() == 5) {
     324:	f9 f4       	brne	.+62     	; 0x364 <MakeFriends+0x270>
     326:	c8 de       	rcall	.-624    	; 0xb8 <chkVolt250>
     328:	85 30       	cpi	r24, 0x05	; 5
     32a:	e1 f4       	brne	.+56     	; 0x364 <MakeFriends+0x270>
                chkTmr++;
     32c:	80 91 30 38 	lds	r24, 0x3830	; 0x803830 <chkTmr.3785>
     330:	8f 5f       	subi	r24, 0xFF	; 255
     332:	80 93 30 38 	sts	0x3830, r24	; 0x803830 <chkTmr.3785>
                if (chkTmr >= LONG_WAIT) {
     336:	8a 3f       	cpi	r24, 0xFA	; 250
     338:	a8 f0       	brcs	.+42     	; 0x364 <MakeFriends+0x270>
     33a:	e6 e4       	ldi	r30, 0x46	; 70
     33c:	fe eb       	ldi	r31, 0xBE	; 190
     33e:	8b e4       	ldi	r24, 0x4B	; 75
     340:	9e eb       	ldi	r25, 0xBE	; 190
     342:	ef 01       	movw	r28, r30
                    for (uint8_t x=0; x<5; ++x){
                        iLED[WING[L][x]] = 0;
     344:	a5 81       	ldd	r26, Z+5	; 0x05
     346:	b0 e0       	ldi	r27, 0x00	; 0
     348:	a6 53       	subi	r26, 0x36	; 54
     34a:	b5 4c       	sbci	r27, 0xC5	; 197
     34c:	1c 92       	st	X, r1
     34e:	31 96       	adiw	r30, 0x01	; 1
                        iLED[WING[R][x]] = 0;
     350:	a8 81       	ld	r26, Y
     352:	b0 e0       	ldi	r27, 0x00	; 0
     354:	a6 53       	subi	r26, 0x36	; 54
     356:	b5 4c       	sbci	r27, 0xC5	; 197
     358:	1c 92       	st	X, r1
        //Wait for divorce of force quit
        } else if (progress == FOURTH_BASE) {
            if (chkVolt250() == 5) {
                chkTmr++;
                if (chkTmr >= LONG_WAIT) {
                    for (uint8_t x=0; x<5; ++x){
     35a:	8e 17       	cp	r24, r30
     35c:	9f 07       	cpc	r25, r31
     35e:	89 f7       	brne	.-30     	; 0x342 <MakeFriends+0x24e>
                    }                    
                }
            }
        }

    } else progress = NO_OTHER;
     360:	10 92 31 38 	sts	0x3831, r1	; 0x803831 <progress.3783>
      
    return 0;
}
     364:	80 e0       	ldi	r24, 0x00	; 0
     366:	df 91       	pop	r29
     368:	cf 91       	pop	r28
     36a:	1f 91       	pop	r17
     36c:	0f 91       	pop	r16
     36e:	ff 90       	pop	r15
     370:	ef 90       	pop	r14
     372:	08 95       	ret

00000374 <I2C_init>:
// the Atmel device documentation mentions a special command for repeated start TWI_MCMD_REPSTART_gc,
// but this is not used in Atmel's demo code, so we don't use it either

void I2C_rep_start(uint8_t shifted_addr)						    // send repeated start, device_addr + LSB set if READ
{
	TWI0.MADDR = shifted_addr;	
     374:	81 e0       	ldi	r24, 0x01	; 1
     376:	80 93 22 04 	sts	0x0422, r24	; 0x800422 <__TEXT_REGION_LENGTH__+0x700422>
     37a:	e6 e2       	ldi	r30, 0x26	; 38
     37c:	f4 e0       	ldi	r31, 0x04	; 4
     37e:	80 83       	st	Z, r24
     380:	10 92 30 04 	sts	0x0430, r1	; 0x800430 <__TEXT_REGION_LENGTH__+0x700430>
     384:	a1 e2       	ldi	r26, 0x21	; 33
     386:	b4 e0       	ldi	r27, 0x04	; 4
     388:	92 e0       	ldi	r25, 0x02	; 2
     38a:	9c 93       	st	X, r25
     38c:	90 83       	st	Z, r25
     38e:	10 92 31 04 	sts	0x0431, r1	; 0x800431 <__TEXT_REGION_LENGTH__+0x700431>
     392:	e0 e1       	ldi	r30, 0x10	; 16
     394:	f8 e0       	ldi	r31, 0x08	; 8
     396:	97 e0       	ldi	r25, 0x07	; 7
     398:	96 83       	std	Z+6, r25	; 0x06
     39a:	98 e0       	ldi	r25, 0x08	; 8
     39c:	94 83       	std	Z+4, r25	; 0x04
     39e:	83 83       	std	Z+3, r24	; 0x03
     3a0:	8c 93       	st	X, r24
     3a2:	85 81       	ldd	r24, Z+5	; 0x05
     3a4:	81 60       	ori	r24, 0x01	; 1
     3a6:	85 83       	std	Z+5, r24	; 0x05
     3a8:	85 81       	ldd	r24, Z+5	; 0x05
     3aa:	84 6c       	ori	r24, 0xC4	; 196
     3ac:	85 83       	std	Z+5, r24	; 0x05
     3ae:	08 95       	ret

000003b0 <I2C_recover>:
     3b0:	80 91 14 08 	lds	r24, 0x0814	; 0x800814 <__TEXT_REGION_LENGTH__+0x700814>
     3b4:	88 60       	ori	r24, 0x08	; 8
     3b6:	80 93 14 08 	sts	0x0814, r24	; 0x800814 <__TEXT_REGION_LENGTH__+0x700814>
     3ba:	10 92 13 08 	sts	0x0813, r1	; 0x800813 <__TEXT_REGION_LENGTH__+0x700813>
     3be:	82 e0       	ldi	r24, 0x02	; 2
     3c0:	80 93 22 04 	sts	0x0422, r24	; 0x800422 <__TEXT_REGION_LENGTH__+0x700422>
     3c4:	99 e0       	ldi	r25, 0x09	; 9
     3c6:	21 e0       	ldi	r18, 0x01	; 1
     3c8:	81 e0       	ldi	r24, 0x01	; 1
     3ca:	20 93 21 04 	sts	0x0421, r18	; 0x800421 <__TEXT_REGION_LENGTH__+0x700421>
     3ce:	30 e1       	ldi	r19, 0x10	; 16
     3d0:	3a 95       	dec	r19
     3d2:	f1 f7       	brne	.-4      	; 0x3d0 <I2C_recover+0x20>
     3d4:	00 c0       	rjmp	.+0      	; 0x3d6 <I2C_recover+0x26>
     3d6:	20 93 22 04 	sts	0x0422, r18	; 0x800422 <__TEXT_REGION_LENGTH__+0x700422>
     3da:	30 e1       	ldi	r19, 0x10	; 16
     3dc:	3a 95       	dec	r19
     3de:	f1 f7       	brne	.-4      	; 0x3dc <I2C_recover+0x2c>
     3e0:	00 c0       	rjmp	.+0      	; 0x3e2 <I2C_recover+0x32>
     3e2:	91 50       	subi	r25, 0x01	; 1
     3e4:	89 f7       	brne	.-30     	; 0x3c8 <I2C_recover+0x18>
     3e6:	28 e0       	ldi	r18, 0x08	; 8
     3e8:	20 93 14 08 	sts	0x0814, r18	; 0x800814 <__TEXT_REGION_LENGTH__+0x700814>
     3ec:	80 93 13 08 	sts	0x0813, r24	; 0x800813 <__TEXT_REGION_LENGTH__+0x700813>
     3f0:	92 e0       	ldi	r25, 0x02	; 2
     3f2:	90 93 21 04 	sts	0x0421, r25	; 0x800421 <__TEXT_REGION_LENGTH__+0x700421>
     3f6:	90 91 15 08 	lds	r25, 0x0815	; 0x800815 <__TEXT_REGION_LENGTH__+0x700815>
     3fa:	91 60       	ori	r25, 0x01	; 1
     3fc:	90 93 15 08 	sts	0x0815, r25	; 0x800815 <__TEXT_REGION_LENGTH__+0x700815>
     400:	90 91 15 08 	lds	r25, 0x0815	; 0x800815 <__TEXT_REGION_LENGTH__+0x700815>
     404:	94 6c       	ori	r25, 0xC4	; 196
     406:	90 93 15 08 	sts	0x0815, r25	; 0x800815 <__TEXT_REGION_LENGTH__+0x700815>
     40a:	20 93 14 08 	sts	0x0814, r18	; 0x800814 <__TEXT_REGION_LENGTH__+0x700814>
     40e:	80 93 13 08 	sts	0x0813, r24	; 0x800813 <__TEXT_REGION_LENGTH__+0x700813>
     412:	80 93 21 04 	sts	0x0421, r24	; 0x800421 <__TEXT_REGION_LENGTH__+0x700421>
     416:	80 91 15 08 	lds	r24, 0x0815	; 0x800815 <__TEXT_REGION_LENGTH__+0x700815>
     41a:	81 60       	ori	r24, 0x01	; 1
     41c:	80 93 15 08 	sts	0x0815, r24	; 0x800815 <__TEXT_REGION_LENGTH__+0x700815>
     420:	80 91 15 08 	lds	r24, 0x0815	; 0x800815 <__TEXT_REGION_LENGTH__+0x700815>
     424:	84 6c       	ori	r24, 0xC4	; 196
     426:	80 93 15 08 	sts	0x0815, r24	; 0x800815 <__TEXT_REGION_LENGTH__+0x700815>
     42a:	08 95       	ret

0000042c <I2C_start>:
     42c:	28 2f       	mov	r18, r24
     42e:	90 91 15 08 	lds	r25, 0x0815	; 0x800815 <__TEXT_REGION_LENGTH__+0x700815>
     432:	90 6c       	ori	r25, 0xC0	; 192
     434:	90 93 15 08 	sts	0x0815, r25	; 0x800815 <__TEXT_REGION_LENGTH__+0x700815>
     438:	90 91 15 08 	lds	r25, 0x0815	; 0x800815 <__TEXT_REGION_LENGTH__+0x700815>
     43c:	89 2f       	mov	r24, r25
     43e:	84 70       	andi	r24, 0x04	; 4
     440:	92 fd       	sbrc	r25, 2
     442:	03 c0       	rjmp	.+6      	; 0x44a <I2C_start+0x1e>
     444:	20 93 17 08 	sts	0x0817, r18	; 0x800817 <__TEXT_REGION_LENGTH__+0x700817>
     448:	08 95       	ret
     44a:	84 e0       	ldi	r24, 0x04	; 4
     44c:	08 95       	ret

0000044e <I2C_wait_ACK>:
     44e:	8c e0       	ldi	r24, 0x0C	; 12
     450:	80 93 60 3a 	sts	0x3A60, r24	; 0x803a60 <timeout_I2C>
     454:	80 91 15 08 	lds	r24, 0x0815	; 0x800815 <__TEXT_REGION_LENGTH__+0x700815>
     458:	87 fd       	sbrc	r24, 7
     45a:	0a c0       	rjmp	.+20     	; 0x470 <I2C_wait_ACK+0x22>
     45c:	80 91 15 08 	lds	r24, 0x0815	; 0x800815 <__TEXT_REGION_LENGTH__+0x700815>
     460:	86 fd       	sbrc	r24, 6
     462:	06 c0       	rjmp	.+12     	; 0x470 <I2C_wait_ACK+0x22>
     464:	80 91 60 3a 	lds	r24, 0x3A60	; 0x803a60 <timeout_I2C>
     468:	81 11       	cpse	r24, r1
     46a:	f4 cf       	rjmp	.-24     	; 0x454 <I2C_wait_ACK+0x6>
     46c:	8f ef       	ldi	r24, 0xFF	; 255
     46e:	08 95       	ret
     470:	80 91 15 08 	lds	r24, 0x0815	; 0x800815 <__TEXT_REGION_LENGTH__+0x700815>
     474:	80 6c       	ori	r24, 0xC0	; 192
     476:	80 93 15 08 	sts	0x0815, r24	; 0x800815 <__TEXT_REGION_LENGTH__+0x700815>
     47a:	80 91 15 08 	lds	r24, 0x0815	; 0x800815 <__TEXT_REGION_LENGTH__+0x700815>
     47e:	82 fd       	sbrc	r24, 2
     480:	09 c0       	rjmp	.+18     	; 0x494 <I2C_wait_ACK+0x46>
     482:	80 91 15 08 	lds	r24, 0x0815	; 0x800815 <__TEXT_REGION_LENGTH__+0x700815>
     486:	83 fd       	sbrc	r24, 3
     488:	07 c0       	rjmp	.+14     	; 0x498 <I2C_wait_ACK+0x4a>
     48a:	80 91 15 08 	lds	r24, 0x0815	; 0x800815 <__TEXT_REGION_LENGTH__+0x700815>
     48e:	82 95       	swap	r24
     490:	81 70       	andi	r24, 0x01	; 1
     492:	08 95       	ret
     494:	84 e0       	ldi	r24, 0x04	; 4
     496:	08 95       	ret
     498:	82 e0       	ldi	r24, 0x02	; 2
     49a:	08 95       	ret

0000049c <I2C_read>:
}

uint8_t	I2C_read(uint8_t *data, uint8_t ack_flag)					// read data, ack_flag 0: send ACK, 1: send NACK, returns status
{
     49c:	fc 01       	movw	r30, r24
	timeout_I2C = READ_TIMEOUT;										// reset timeout counter, will be decremented by LED matrix interrupt
     49e:	8c e0       	ldi	r24, 0x0C	; 12
     4a0:	80 93 60 3a 	sts	0x3A60, r24	; 0x803a60 <timeout_I2C>
	if ((TWI0.MSTATUS & TWI_BUSSTATE_gm) == TWI_BUSSTATE_OWNER_gc)	// if master controls bus
     4a4:	90 91 15 08 	lds	r25, 0x0815	; 0x800815 <__TEXT_REGION_LENGTH__+0x700815>
     4a8:	89 2f       	mov	r24, r25
     4aa:	83 70       	andi	r24, 0x03	; 3
     4ac:	82 30       	cpi	r24, 0x02	; 2
     4ae:	11 f0       	breq	.+4      	; 0x4b4 <I2C_read+0x18>
		else		TWI0.MCTRLB |= TWI_ACKACT_NACK_gc;				// setup NACK (last byte read)
		*data = TWI0.MDATA;
		if (ack_flag == 0) TWI0.MCTRLB |= TWI_MCMD_RECVTRANS_gc;	// send ACK, more bytes to follow					
		return 0;
	}
	else return 8;													// master does not control bus
     4b0:	88 e0       	ldi	r24, 0x08	; 8
     4b2:	08 95       	ret
uint8_t	I2C_read(uint8_t *data, uint8_t ack_flag)					// read data, ack_flag 0: send ACK, 1: send NACK, returns status
{
	timeout_I2C = READ_TIMEOUT;										// reset timeout counter, will be decremented by LED matrix interrupt
	if ((TWI0.MSTATUS & TWI_BUSSTATE_gm) == TWI_BUSSTATE_OWNER_gc)	// if master controls bus
	{		
		while (!(TWI0.MSTATUS & TWI_RIF_bm))						// wait for RIF set (data byte received)
     4b4:	90 91 15 08 	lds	r25, 0x0815	; 0x800815 <__TEXT_REGION_LENGTH__+0x700815>
     4b8:	97 fd       	sbrc	r25, 7
     4ba:	06 c0       	rjmp	.+12     	; 0x4c8 <I2C_read+0x2c>
		{
			if (!(timeout_I2C)) return 0xff;			            // return timeout error
     4bc:	90 91 60 3a 	lds	r25, 0x3A60	; 0x803a60 <timeout_I2C>
     4c0:	91 11       	cpse	r25, r1
     4c2:	f8 cf       	rjmp	.-16     	; 0x4b4 <I2C_read+0x18>
     4c4:	8f ef       	ldi	r24, 0xFF	; 255
     4c6:	08 95       	ret
		}
		TWI0.MSTATUS |= (TWI_RIF_bm | TWI_WIF_bm);					// clear Read and Write interrupt flags	
     4c8:	90 91 15 08 	lds	r25, 0x0815	; 0x800815 <__TEXT_REGION_LENGTH__+0x700815>
     4cc:	90 6c       	ori	r25, 0xC0	; 192
     4ce:	90 93 15 08 	sts	0x0815, r25	; 0x800815 <__TEXT_REGION_LENGTH__+0x700815>
		if (TWI0.MSTATUS & TWI_BUSERR_bm) return 4;					// Bus Error, abort
     4d2:	90 91 15 08 	lds	r25, 0x0815	; 0x800815 <__TEXT_REGION_LENGTH__+0x700815>
     4d6:	92 fd       	sbrc	r25, 2
     4d8:	1e c0       	rjmp	.+60     	; 0x516 <I2C_read+0x7a>
		if (TWI0.MSTATUS & TWI_ARBLOST_bm) return 2;				// Arbitration Lost, abort
     4da:	90 91 15 08 	lds	r25, 0x0815	; 0x800815 <__TEXT_REGION_LENGTH__+0x700815>
     4de:	93 fd       	sbrc	r25, 3
     4e0:	1d c0       	rjmp	.+58     	; 0x51c <I2C_read+0x80>
		if (TWI0.MSTATUS & TWI_RXACK_bm) return 1;					// Slave replied with NACK, abort				
     4e2:	90 91 15 08 	lds	r25, 0x0815	; 0x800815 <__TEXT_REGION_LENGTH__+0x700815>
     4e6:	89 2f       	mov	r24, r25
     4e8:	80 71       	andi	r24, 0x10	; 16
     4ea:	94 fd       	sbrc	r25, 4
     4ec:	16 c0       	rjmp	.+44     	; 0x51a <I2C_read+0x7e>
		if (ack_flag == 0) TWI0.MCTRLB &= ~(1 << TWI_ACKACT_bp);	// setup ACK
     4ee:	90 91 14 08 	lds	r25, 0x0814	; 0x800814 <__TEXT_REGION_LENGTH__+0x700814>
     4f2:	61 11       	cpse	r22, r1
     4f4:	02 c0       	rjmp	.+4      	; 0x4fa <I2C_read+0x5e>
     4f6:	9b 7f       	andi	r25, 0xFB	; 251
     4f8:	01 c0       	rjmp	.+2      	; 0x4fc <I2C_read+0x60>
		else		TWI0.MCTRLB |= TWI_ACKACT_NACK_gc;				// setup NACK (last byte read)
     4fa:	94 60       	ori	r25, 0x04	; 4
     4fc:	90 93 14 08 	sts	0x0814, r25	; 0x800814 <__TEXT_REGION_LENGTH__+0x700814>
		*data = TWI0.MDATA;
     500:	90 91 18 08 	lds	r25, 0x0818	; 0x800818 <__TEXT_REGION_LENGTH__+0x700818>
     504:	90 83       	st	Z, r25
		if (ack_flag == 0) TWI0.MCTRLB |= TWI_MCMD_RECVTRANS_gc;	// send ACK, more bytes to follow					
     506:	61 11       	cpse	r22, r1
     508:	09 c0       	rjmp	.+18     	; 0x51c <I2C_read+0x80>
     50a:	90 91 14 08 	lds	r25, 0x0814	; 0x800814 <__TEXT_REGION_LENGTH__+0x700814>
     50e:	92 60       	ori	r25, 0x02	; 2
     510:	90 93 14 08 	sts	0x0814, r25	; 0x800814 <__TEXT_REGION_LENGTH__+0x700814>
     514:	08 95       	ret
		while (!(TWI0.MSTATUS & TWI_RIF_bm))						// wait for RIF set (data byte received)
		{
			if (!(timeout_I2C)) return 0xff;			            // return timeout error
		}
		TWI0.MSTATUS |= (TWI_RIF_bm | TWI_WIF_bm);					// clear Read and Write interrupt flags	
		if (TWI0.MSTATUS & TWI_BUSERR_bm) return 4;					// Bus Error, abort
     516:	84 e0       	ldi	r24, 0x04	; 4
     518:	08 95       	ret
		if (TWI0.MSTATUS & TWI_ARBLOST_bm) return 2;				// Arbitration Lost, abort
		if (TWI0.MSTATUS & TWI_RXACK_bm) return 1;					// Slave replied with NACK, abort				
     51a:	81 e0       	ldi	r24, 0x01	; 1
		*data = TWI0.MDATA;
		if (ack_flag == 0) TWI0.MCTRLB |= TWI_MCMD_RECVTRANS_gc;	// send ACK, more bytes to follow					
		return 0;
	}
	else return 8;													// master does not control bus
}
     51c:	08 95       	ret

0000051e <I2C_write>:

uint8_t I2C_write(uint8_t *data)									// write data, return status
{
     51e:	fc 01       	movw	r30, r24
	timeout_I2C = WRITE_TIMEOUT;									// reset timeout counter, will be decremented by LED matrix interrupt
     520:	8c e0       	ldi	r24, 0x0C	; 12
     522:	80 93 60 3a 	sts	0x3A60, r24	; 0x803a60 <timeout_I2C>
	if ((TWI0.MSTATUS & TWI_BUSSTATE_gm) == TWI_BUSSTATE_OWNER_gc)	// if master controls bus
     526:	90 91 15 08 	lds	r25, 0x0815	; 0x800815 <__TEXT_REGION_LENGTH__+0x700815>
     52a:	93 70       	andi	r25, 0x03	; 3
     52c:	92 30       	cpi	r25, 0x02	; 2
     52e:	b1 f4       	brne	.+44     	; 0x55c <I2C_write+0x3e>
	{
		TWI0.MDATA = *data;		
     530:	80 81       	ld	r24, Z
     532:	80 93 18 08 	sts	0x0818, r24	; 0x800818 <__TEXT_REGION_LENGTH__+0x700818>
		while (!(TWI0.MSTATUS & TWI_WIF_bm))						// wait until WIF set, status register contains ACK/NACK bit
     536:	80 91 15 08 	lds	r24, 0x0815	; 0x800815 <__TEXT_REGION_LENGTH__+0x700815>
     53a:	86 fd       	sbrc	r24, 6
     53c:	06 c0       	rjmp	.+12     	; 0x54a <I2C_write+0x2c>
		{
			if (!(timeout_I2C)) return 0xff;			            // return timeout error
     53e:	80 91 60 3a 	lds	r24, 0x3A60	; 0x803a60 <timeout_I2C>
     542:	81 11       	cpse	r24, r1
     544:	f8 cf       	rjmp	.-16     	; 0x536 <I2C_write+0x18>
     546:	8f ef       	ldi	r24, 0xFF	; 255
     548:	08 95       	ret
		}
		if (TWI0.MSTATUS & TWI_BUSERR_bm) return 4;					// Bus Error, abort
     54a:	80 91 15 08 	lds	r24, 0x0815	; 0x800815 <__TEXT_REGION_LENGTH__+0x700815>
     54e:	82 fd       	sbrc	r24, 2
     550:	07 c0       	rjmp	.+14     	; 0x560 <I2C_write+0x42>
		if (TWI0.MSTATUS & TWI_RXACK_bm) return 1;					// Slave replied with NACK, abort
     552:	80 91 15 08 	lds	r24, 0x0815	; 0x800815 <__TEXT_REGION_LENGTH__+0x700815>
	if ((TWI0.MSTATUS & TWI_BUSSTATE_gm) == TWI_BUSSTATE_OWNER_gc)	// if master controls bus
	{
		TWI0.MDATA = *data;		
		while (!(TWI0.MSTATUS & TWI_WIF_bm))						// wait until WIF set, status register contains ACK/NACK bit
		{
			if (!(timeout_I2C)) return 0xff;			            // return timeout error
     556:	82 95       	swap	r24
     558:	81 70       	andi	r24, 0x01	; 1
     55a:	08 95       	ret
		}
		if (TWI0.MSTATUS & TWI_BUSERR_bm) return 4;					// Bus Error, abort
		if (TWI0.MSTATUS & TWI_RXACK_bm) return 1;					// Slave replied with NACK, abort
		return 0;													// no error	
	}
	else return 8;													// master does not control bus
     55c:	88 e0       	ldi	r24, 0x08	; 8
     55e:	08 95       	ret
		TWI0.MDATA = *data;		
		while (!(TWI0.MSTATUS & TWI_WIF_bm))						// wait until WIF set, status register contains ACK/NACK bit
		{
			if (!(timeout_I2C)) return 0xff;			            // return timeout error
		}
		if (TWI0.MSTATUS & TWI_BUSERR_bm) return 4;					// Bus Error, abort
     560:	84 e0       	ldi	r24, 0x04	; 4
		if (TWI0.MSTATUS & TWI_RXACK_bm) return 1;					// Slave replied with NACK, abort
		return 0;													// no error	
	}
	else return 8;													// master does not control bus
}
     562:	08 95       	ret

00000564 <I2C_stop>:

void I2C_stop()
{
	TWI0.MCTRLB |= TWI_MCMD_STOP_gc;
     564:	e0 e1       	ldi	r30, 0x10	; 16
     566:	f8 e0       	ldi	r31, 0x08	; 8
     568:	84 81       	ldd	r24, Z+4	; 0x04
     56a:	83 60       	ori	r24, 0x03	; 3
     56c:	84 83       	std	Z+4, r24	; 0x04
     56e:	08 95       	ret

00000570 <I2C_read_bytes>:
// addr_ptr		address of first array element to transfer
// slave reg	starting slave register
// num_bytes	number of bytes to transfer

uint8_t	I2C_read_bytes(uint8_t slave_addr, uint8_t *reg_ptr, uint8_t reg_len, uint8_t *dat_ptr, uint8_t dat_len)
{
     570:	cf 92       	push	r12
     572:	df 92       	push	r13
     574:	ff 92       	push	r15
     576:	0f 93       	push	r16
     578:	1f 93       	push	r17
     57a:	cf 93       	push	r28
     57c:	df 93       	push	r29
     57e:	6b 01       	movw	r12, r22
     580:	f4 2e       	mov	r15, r20
     582:	e9 01       	movw	r28, r18
	uint8_t status;
	if (dat_len > MAX_LEN) dat_len = MAX_LEN;
	status = I2C_start(slave_addr << 1);							// slave write address, LSB 0
     584:	18 2f       	mov	r17, r24
     586:	11 0f       	add	r17, r17
     588:	81 2f       	mov	r24, r17
     58a:	50 df       	rcall	.-352    	; 0x42c <I2C_start>
	if (status != 0) goto error;
     58c:	81 11       	cpse	r24, r1
	status = I2C_wait_ACK();										// wait for slave ACK
     58e:	2b c0       	rjmp	.+86     	; 0x5e6 <I2C_read_bytes+0x76>
     590:	5e df       	rcall	.-324    	; 0x44e <I2C_wait_ACK>
	if (status == 1) {
     592:	81 30       	cpi	r24, 0x01	; 1
		I2C_stop();													// NACK, abort
     594:	19 f4       	brne	.+6      	; 0x59c <I2C_read_bytes+0x2c>
     596:	e6 df       	rcall	.-52     	; 0x564 <I2C_stop>
		return 1;
     598:	81 e0       	ldi	r24, 0x01	; 1
     59a:	27 c0       	rjmp	.+78     	; 0x5ea <I2C_read_bytes+0x7a>
	}
	if (status != 0) goto error;
     59c:	81 11       	cpse	r24, r1
     59e:	23 c0       	rjmp	.+70     	; 0x5e6 <I2C_read_bytes+0x76>
    while(reg_len > 0){
     5a0:	ff 20       	and	r15, r15
	    status = I2C_write(reg_ptr);    							// send slave start register
     5a2:	49 f0       	breq	.+18     	; 0x5b6 <I2C_read_bytes+0x46>
     5a4:	c6 01       	movw	r24, r12
     5a6:	bb df       	rcall	.-138    	; 0x51e <I2C_write>
	    if (status != 0) goto error;
     5a8:	81 11       	cpse	r24, r1
     5aa:	1d c0       	rjmp	.+58     	; 0x5e6 <I2C_read_bytes+0x76>
        ++reg_ptr;
     5ac:	8f ef       	ldi	r24, 0xFF	; 255
     5ae:	c8 1a       	sub	r12, r24
     5b0:	d8 0a       	sbc	r13, r24
        --reg_len;
     5b2:	fa 94       	dec	r15
     5b4:	f5 cf       	rjmp	.-22     	; 0x5a0 <I2C_read_bytes+0x30>
     5b6:	01 34       	cpi	r16, 0x41	; 65
     5b8:	08 f0       	brcs	.+2      	; 0x5bc <I2C_read_bytes+0x4c>
     5ba:	00 e4       	ldi	r16, 0x40	; 64
    }
	I2C_rep_start((slave_addr << 1) + 1);							// slave read address, LSB 1
     5bc:	1f 5f       	subi	r17, 0xFF	; 255
// the Atmel device documentation mentions a special command for repeated start TWI_MCMD_REPSTART_gc,
// but this is not used in Atmel's demo code, so we don't use it either

void I2C_rep_start(uint8_t shifted_addr)						    // send repeated start, device_addr + LSB set if READ
{
	TWI0.MADDR = shifted_addr;	
     5be:	10 93 17 08 	sts	0x0817, r17	; 0x800817 <__TEXT_REGION_LENGTH__+0x700817>
	    if (status != 0) goto error;
        ++reg_ptr;
        --reg_len;
    }
	I2C_rep_start((slave_addr << 1) + 1);							// slave read address, LSB 1
	while (dat_len > 1) {
     5c2:	02 30       	cpi	r16, 0x02	; 2
		status = I2C_read(dat_ptr, 0);								// first bytes, send ACK
     5c4:	40 f0       	brcs	.+16     	; 0x5d6 <I2C_read_bytes+0x66>
     5c6:	60 e0       	ldi	r22, 0x00	; 0
     5c8:	ce 01       	movw	r24, r28
     5ca:	68 df       	rcall	.-304    	; 0x49c <I2C_read>
		if (status != 0) goto error;
     5cc:	81 11       	cpse	r24, r1
     5ce:	0b c0       	rjmp	.+22     	; 0x5e6 <I2C_read_bytes+0x76>
		++dat_ptr;
		--dat_len;
     5d0:	21 96       	adiw	r28, 0x01	; 1
     5d2:	01 50       	subi	r16, 0x01	; 1
	}
	status = I2C_read(dat_ptr, 1);									// single or last byte, send NACK
     5d4:	f6 cf       	rjmp	.-20     	; 0x5c2 <I2C_read_bytes+0x52>
     5d6:	61 e0       	ldi	r22, 0x01	; 1
     5d8:	ce 01       	movw	r24, r28
	if (status != 0) goto error;
     5da:	60 df       	rcall	.-320    	; 0x49c <I2C_read>
     5dc:	81 11       	cpse	r24, r1
	I2C_stop();
     5de:	03 c0       	rjmp	.+6      	; 0x5e6 <I2C_read_bytes+0x76>
     5e0:	c1 df       	rcall	.-126    	; 0x564 <I2C_stop>
	return 0;
     5e2:	80 e0       	ldi	r24, 0x00	; 0
     5e4:	02 c0       	rjmp	.+4      	; 0x5ea <I2C_read_bytes+0x7a>
	
error:
	I2C_recover();													// clock out possibly stuck slave, reset master
     5e6:	e4 de       	rcall	.-568    	; 0x3b0 <I2C_recover>
     5e8:	8f ef       	ldi	r24, 0xFF	; 255
	return 0xff;													// flag error
     5ea:	df 91       	pop	r29
}
     5ec:	cf 91       	pop	r28
     5ee:	1f 91       	pop	r17
     5f0:	0f 91       	pop	r16
     5f2:	ff 90       	pop	r15
     5f4:	df 90       	pop	r13
     5f6:	cf 90       	pop	r12
     5f8:	08 95       	ret

000005fa <initLanyard>:
uint8_t         lanyardCnt = 0;
uint8_t         lanyardState = TRUE;
uint16_t        lanyardLastActive = 0;

void initLanyard() {
    lanyardPos      = 0;
     5fa:	10 92 36 38 	sts	0x3836, r1	; 0x803836 <lanyardPos>
    lanyardCnt      = 0;
     5fe:	10 92 35 38 	sts	0x3835, r1	; 0x803835 <lanyardCnt>
    lanyardState    = TRUE;
     602:	81 e0       	ldi	r24, 0x01	; 1
     604:	80 93 02 38 	sts	0x3802, r24	; 0x803802 <lanyardState>
    iLED[CAT]       = 0;
     608:	e0 91 42 be 	lds	r30, 0xBE42	; 0x80be42 <__bss_end+0x8328>
     60c:	f0 e0       	ldi	r31, 0x00	; 0
     60e:	e6 53       	subi	r30, 0x36	; 54
     610:	f5 4c       	sbci	r31, 0xC5	; 197
     612:	10 82       	st	Z, r1
    iLED[EYE[G][L]] = 0;
     614:	e0 91 53 be 	lds	r30, 0xBE53	; 0x80be53 <__bss_end+0x8339>
     618:	f0 e0       	ldi	r31, 0x00	; 0
     61a:	e6 53       	subi	r30, 0x36	; 54
     61c:	f5 4c       	sbci	r31, 0xC5	; 197
     61e:	10 82       	st	Z, r1
    iLED[EYE[G][R]] = 0;
     620:	e0 91 52 be 	lds	r30, 0xBE52	; 0x80be52 <__bss_end+0x8338>
     624:	f0 e0       	ldi	r31, 0x00	; 0
     626:	e6 53       	subi	r30, 0x36	; 54
     628:	f5 4c       	sbci	r31, 0xC5	; 197
     62a:	10 82       	st	Z, r1
    iLED[EYE[R][L]] = 0;
     62c:	e0 91 51 be 	lds	r30, 0xBE51	; 0x80be51 <__bss_end+0x8337>
     630:	f0 e0       	ldi	r31, 0x00	; 0
     632:	e6 53       	subi	r30, 0x36	; 54
     634:	f5 4c       	sbci	r31, 0xC5	; 197
     636:	10 82       	st	Z, r1
    iLED[EYE[R][R]] = 0;
     638:	e0 91 50 be 	lds	r30, 0xBE50	; 0x80be50 <__bss_end+0x8336>
     63c:	f0 e0       	ldi	r31, 0x00	; 0
     63e:	e6 53       	subi	r30, 0x36	; 54
     640:	f5 4c       	sbci	r31, 0xC5	; 197
     642:	10 82       	st	Z, r1
     644:	aa e5       	ldi	r26, 0x5A	; 90
     646:	be eb       	ldi	r27, 0xBE	; 190
    for (int i=0; i<6; i++ )
        iLED[HCKR[G][i]] = 0;
     648:	ed 91       	ld	r30, X+
     64a:	f0 e0       	ldi	r31, 0x00	; 0
     64c:	e6 53       	subi	r30, 0x36	; 54
     64e:	f5 4c       	sbci	r31, 0xC5	; 197
     650:	10 82       	st	Z, r1
    iLED[CAT]       = 0;
    iLED[EYE[G][L]] = 0;
    iLED[EYE[G][R]] = 0;
    iLED[EYE[R][L]] = 0;
    iLED[EYE[R][R]] = 0;
    for (int i=0; i<6; i++ )
     652:	8e eb       	ldi	r24, 0xBE	; 190
     654:	a0 36       	cpi	r26, 0x60	; 96
     656:	b8 07       	cpc	r27, r24
     658:	b9 f7       	brne	.-18     	; 0x648 <initLanyard+0x4e>
        iLED[HCKR[G][i]] = 0;
}
     65a:	08 95       	ret

0000065c <LanyardCode>:

// Main game loop
uint8_t LanyardCode(){
     65c:	cf 93       	push	r28
    if (gameNow == LANYARD && idleTimeout(lanyardLastActive,LANYARD_MAX_IDLE)) {
     65e:	80 91 3c 38 	lds	r24, 0x383C	; 0x80383c <gameNow>
     662:	83 30       	cpi	r24, 0x03	; 3
     664:	91 f4       	brne	.+36     	; 0x68a <LanyardCode+0x2e>
     666:	6a e0       	ldi	r22, 0x0A	; 10
     668:	70 e0       	ldi	r23, 0x00	; 0
     66a:	80 91 33 38 	lds	r24, 0x3833	; 0x803833 <lanyardLastActive>
     66e:	90 91 34 38 	lds	r25, 0x3834	; 0x803834 <lanyardLastActive+0x1>
     672:	0e 94 79 0d 	call	0x1af2	; 0x1af2 <idleTimeout>
     676:	88 23       	and	r24, r24
     678:	41 f0       	breq	.+16     	; 0x68a <LanyardCode+0x2e>
        /* clean up maze game and go back to text game */
        initLanyard();
     67a:	bf df       	rcall	.-130    	; 0x5fa <initLanyard>
        gameNow = TEXT;
     67c:	10 92 3c 38 	sts	0x383C, r1	; 0x80383c <gameNow>
        effect = 0;
     680:	10 92 3a 38 	sts	0x383A, r1	; 0x80383a <effect>
     684:	10 92 3b 38 	sts	0x383B, r1	; 0x80383b <effect+0x1>
        return 0;
     688:	9c c0       	rjmp	.+312    	; 0x7c2 <LanyardCode+0x166>
    }

    if (CheckState(LANYARD_COMPLETED))
     68a:	8b e7       	ldi	r24, 0x7B	; 123
     68c:	1c d7       	rcall	.+3640   	; 0x14c6 <CheckState>
     68e:	81 11       	cpse	r24, r1
     690:	98 c0       	rjmp	.+304    	; 0x7c2 <LanyardCode+0x166>
        return 0;

    if ( gameNow != TEXT && gameNow != LANYARD )
     692:	80 91 3c 38 	lds	r24, 0x383C	; 0x80383c <gameNow>
     696:	88 23       	and	r24, r24
     698:	19 f0       	breq	.+6      	; 0x6a0 <LanyardCode+0x44>
     69a:	83 30       	cpi	r24, 0x03	; 3
     69c:	09 f0       	breq	.+2      	; 0x6a0 <LanyardCode+0x44>
     69e:	91 c0       	rjmp	.+290    	; 0x7c2 <LanyardCode+0x166>
        return 0;

    if (buttonState == 0xff)
     6a0:	80 91 08 38 	lds	r24, 0x3808	; 0x803808 <buttonState>
     6a4:	8f 3f       	cpi	r24, 0xFF	; 255
     6a6:	09 f4       	brne	.+2      	; 0x6aa <LanyardCode+0x4e>
     6a8:	8c c0       	rjmp	.+280    	; 0x7c2 <LanyardCode+0x166>
        return 0;

    /* activate led for buttonstate */
    iLED[CAT] = (buttonState==0xff ? 0 : dimValue);
     6aa:	c0 91 42 be 	lds	r28, 0xBE42	; 0x80be42 <__bss_end+0x8328>
     6ae:	ec 2f       	mov	r30, r28
     6b0:	f0 e0       	ldi	r31, 0x00	; 0
     6b2:	90 91 0a 38 	lds	r25, 0x380A	; 0x80380a <dimValue>
     6b6:	e6 53       	subi	r30, 0x36	; 54
     6b8:	f5 4c       	sbci	r31, 0xC5	; 197
     6ba:	90 83       	st	Z, r25

    if (buttonState == lastButtonState)
     6bc:	90 91 07 38 	lds	r25, 0x3807	; 0x803807 <lastButtonState>
     6c0:	89 17       	cp	r24, r25
     6c2:	09 f4       	brne	.+2      	; 0x6c6 <LanyardCode+0x6a>
     6c4:	7e c0       	rjmp	.+252    	; 0x7c2 <LanyardCode+0x166>
        return 0;

    lanyardLastActive = getClock();
     6c6:	0e 94 6a 0d 	call	0x1ad4	; 0x1ad4 <getClock>
     6ca:	80 93 33 38 	sts	0x3833, r24	; 0x803833 <lanyardLastActive>
     6ce:	90 93 34 38 	sts	0x3834, r25	; 0x803834 <lanyardLastActive+0x1>

    if (lastButtonState == 0xff){
     6d2:	80 91 07 38 	lds	r24, 0x3807	; 0x803807 <lastButtonState>
     6d6:	8f 3f       	cpi	r24, 0xFF	; 255
     6d8:	09 f0       	breq	.+2      	; 0x6dc <LanyardCode+0x80>
     6da:	73 c0       	rjmp	.+230    	; 0x7c2 <LanyardCode+0x166>
        switch (buttonState) {
     6dc:	90 91 08 38 	lds	r25, 0x3808	; 0x803808 <buttonState>
     6e0:	91 30       	cpi	r25, 0x01	; 1
     6e2:	59 f0       	breq	.+22     	; 0x6fa <LanyardCode+0x9e>
     6e4:	38 f0       	brcs	.+14     	; 0x6f4 <LanyardCode+0x98>
     6e6:	92 30       	cpi	r25, 0x02	; 2
     6e8:	59 f0       	breq	.+22     	; 0x700 <LanyardCode+0xa4>
     6ea:	93 30       	cpi	r25, 0x03	; 3
     6ec:	79 f4       	brne	.+30     	; 0x70c <LanyardCode+0xb0>
            case 1:
                effect = 0x17f;
                break;

            case 3:
                effect = 0x13f;
     6ee:	2f e3       	ldi	r18, 0x3F	; 63
     6f0:	31 e0       	ldi	r19, 0x01	; 1
     6f2:	08 c0       	rjmp	.+16     	; 0x704 <LanyardCode+0xa8>
    lanyardLastActive = getClock();

    if (lastButtonState == 0xff){
        switch (buttonState) {
            case 0:
                effect = 0x19f;
     6f4:	2f e9       	ldi	r18, 0x9F	; 159
     6f6:	31 e0       	ldi	r19, 0x01	; 1
     6f8:	05 c0       	rjmp	.+10     	; 0x704 <LanyardCode+0xa8>
                break;

            case 1:
                effect = 0x17f;
     6fa:	2f e7       	ldi	r18, 0x7F	; 127
     6fc:	31 e0       	ldi	r19, 0x01	; 1
     6fe:	02 c0       	rjmp	.+4      	; 0x704 <LanyardCode+0xa8>
            case 3:
                effect = 0x13f;
                break;

            case 2:
                effect = 0x15f;
     700:	2f e5       	ldi	r18, 0x5F	; 95
     702:	31 e0       	ldi	r19, 0x01	; 1
     704:	20 93 3a 38 	sts	0x383A, r18	; 0x80383a <effect>
     708:	30 93 3b 38 	sts	0x383B, r19	; 0x80383b <effect+0x1>
                break;
        }
        gameNow = LANYARD;
     70c:	83 e0       	ldi	r24, 0x03	; 3
     70e:	80 93 3c 38 	sts	0x383C, r24	; 0x80383c <gameNow>

        if (buttonState == lanyardCode[lanyardPos]) {
     712:	80 91 36 38 	lds	r24, 0x3836	; 0x803836 <lanyardPos>
     716:	e8 2f       	mov	r30, r24
     718:	f0 e0       	ldi	r31, 0x00	; 0
     71a:	e6 5d       	subi	r30, 0xD6	; 214
     71c:	f1 44       	sbci	r31, 0x41	; 65
     71e:	20 81       	ld	r18, Z
     720:	92 13       	cpse	r25, r18
     722:	12 c0       	rjmp	.+36     	; 0x748 <LanyardCode+0xec>
            lanyardState &= TRUE;
     724:	90 91 02 38 	lds	r25, 0x3802	; 0x803802 <lanyardState>
     728:	91 70       	andi	r25, 0x01	; 1
     72a:	90 93 02 38 	sts	0x3802, r25	; 0x803802 <lanyardState>
            iLED[EYE[R][L]] = 0;
     72e:	e0 91 51 be 	lds	r30, 0xBE51	; 0x80be51 <__bss_end+0x8337>
     732:	f0 e0       	ldi	r31, 0x00	; 0
     734:	e6 53       	subi	r30, 0x36	; 54
     736:	f5 4c       	sbci	r31, 0xC5	; 197
     738:	10 82       	st	Z, r1
            iLED[EYE[R][R]] = 0;
     73a:	e0 91 50 be 	lds	r30, 0xBE50	; 0x80be50 <__bss_end+0x8336>
     73e:	f0 e0       	ldi	r31, 0x00	; 0
     740:	e6 53       	subi	r30, 0x36	; 54
     742:	f5 4c       	sbci	r31, 0xC5	; 197
     744:	10 82       	st	Z, r1
     746:	09 c0       	rjmp	.+18     	; 0x75a <LanyardCode+0xfe>
        } else {
            lanyardState = FALSE;
     748:	10 92 02 38 	sts	0x3802, r1	; 0x803802 <lanyardState>
            if (lanyardPos < 4 ) {
     74c:	84 30       	cpi	r24, 0x04	; 4
                initLanyard();
     74e:	28 f4       	brcc	.+10     	; 0x75a <LanyardCode+0xfe>
     750:	54 df       	rcall	.-344    	; 0x5fa <initLanyard>
                gameNow         = BASTET;
     752:	82 e0       	ldi	r24, 0x02	; 2
     754:	80 93 3c 38 	sts	0x383C, r24	; 0x80383c <gameNow>
                return 0;
     758:	34 c0       	rjmp	.+104    	; 0x7c2 <LanyardCode+0x166>
            }
        }
        lanyardPos++;
     75a:	8f 5f       	subi	r24, 0xFF	; 255
     75c:	80 93 36 38 	sts	0x3836, r24	; 0x803836 <lanyardPos>
        lanyardCnt++;            
     760:	90 91 35 38 	lds	r25, 0x3835	; 0x803835 <lanyardCnt>
     764:	9f 5f       	subi	r25, 0xFF	; 255
        if (lanyardCnt >= 4) {
     766:	94 30       	cpi	r25, 0x04	; 4
     768:	18 f4       	brcc	.+6      	; 0x770 <LanyardCode+0x114>
                gameNow         = BASTET;
                return 0;
            }
        }
        lanyardPos++;
        lanyardCnt++;            
     76a:	90 93 35 38 	sts	0x3835, r25	; 0x803835 <lanyardCnt>
     76e:	29 c0       	rjmp	.+82     	; 0x7c2 <LanyardCode+0x166>
        if (lanyardCnt >= 4) {
            lanyardCnt = 0;
     770:	10 92 35 38 	sts	0x3835, r1	; 0x803835 <lanyardCnt>
            if (lanyardState == TRUE) {
     774:	90 91 02 38 	lds	r25, 0x3802	; 0x803802 <lanyardState>
     778:	91 30       	cpi	r25, 0x01	; 1
     77a:	e1 f4       	brne	.+56     	; 0x7b4 <LanyardCode+0x158>
                if ((lanyardPos % 4) == 0) {
     77c:	98 2f       	mov	r25, r24
     77e:	93 70       	andi	r25, 0x03	; 3
     780:	69 f4       	brne	.+26     	; 0x79c <LanyardCode+0x140>
                    iLED[HCKR[G][(lanyardPos>>2)-1]] = dimValue;
     782:	e8 2f       	mov	r30, r24
     784:	e6 95       	lsr	r30
     786:	e6 95       	lsr	r30
     788:	f0 e0       	ldi	r31, 0x00	; 0
     78a:	ec 5a       	subi	r30, 0xAC	; 172
     78c:	f1 44       	sbci	r31, 0x41	; 65
     78e:	e5 81       	ldd	r30, Z+5	; 0x05
     790:	f0 e0       	ldi	r31, 0x00	; 0
     792:	90 91 0a 38 	lds	r25, 0x380A	; 0x80380a <dimValue>
     796:	e6 53       	subi	r30, 0x36	; 54
     798:	f5 4c       	sbci	r31, 0xC5	; 197
     79a:	90 83       	st	Z, r25
                }
                if (lanyardPos == sizeof(lanyardCode)) {
     79c:	88 31       	cpi	r24, 0x18	; 24
                    UpdateState(LANYARD_COMPLETED);
     79e:	89 f4       	brne	.+34     	; 0x7c2 <LanyardCode+0x166>
     7a0:	8b e7       	ldi	r24, 0x7B	; 123
     7a2:	87 d6       	rcall	.+3342   	; 0x14b2 <UpdateState>
                    iLED[CAT]       = 0;
     7a4:	ec 2f       	mov	r30, r28
     7a6:	f0 e0       	ldi	r31, 0x00	; 0
     7a8:	e6 53       	subi	r30, 0x36	; 54
     7aa:	f5 4c       	sbci	r31, 0xC5	; 197
                    effect = 0x42;
     7ac:	10 82       	st	Z, r1
     7ae:	82 e4       	ldi	r24, 0x42	; 66
     7b0:	90 e0       	ldi	r25, 0x00	; 0
                    /*TODO state = STATE_MUSIC;*/
                }
            } else {
                initLanyard();
     7b2:	03 c0       	rjmp	.+6      	; 0x7ba <LanyardCode+0x15e>
     7b4:	22 df       	rcall	.-444    	; 0x5fa <initLanyard>
                effect = 0x21;
     7b6:	81 e2       	ldi	r24, 0x21	; 33
     7b8:	90 e0       	ldi	r25, 0x00	; 0
     7ba:	80 93 3a 38 	sts	0x383A, r24	; 0x80383a <effect>
     7be:	90 93 3b 38 	sts	0x383B, r25	; 0x80383b <effect+0x1>
            }
        }
    }

    return 0;
}
     7c2:	80 e0       	ldi	r24, 0x00	; 0
     7c4:	cf 91       	pop	r28
     7c6:	08 95       	ret

000007c8 <initMaze>:
uint8_t         mazeState = TRUE;
uint8_t         inverted  = FALSE;
uint16_t        mazeLastActive = 0;

void initMaze() {
    mazeHckrPos = 0;
     7c8:	10 92 49 38 	sts	0x3849, r1	; 0x803849 <mazeHckrPos>
    mazePos = 0;
     7cc:	10 92 4a 38 	sts	0x384A, r1	; 0x80384a <mazePos>
    mazeCnt = 0;
     7d0:	10 92 48 38 	sts	0x3848, r1	; 0x803848 <mazeCnt>
    mazeState = TRUE;
     7d4:	81 e0       	ldi	r24, 0x01	; 1
     7d6:	80 93 0b 38 	sts	0x380B, r24	; 0x80380b <mazeState>
    inverted  = FALSE;
     7da:	10 92 47 38 	sts	0x3847, r1	; 0x803847 <inverted>
    iLED[CAT]       = 0;
     7de:	e0 91 42 be 	lds	r30, 0xBE42	; 0x80be42 <__bss_end+0x8328>
     7e2:	f0 e0       	ldi	r31, 0x00	; 0
     7e4:	e6 53       	subi	r30, 0x36	; 54
     7e6:	f5 4c       	sbci	r31, 0xC5	; 197
     7e8:	10 82       	st	Z, r1
    iLED[EYE[G][L]] = 0;
     7ea:	e0 91 53 be 	lds	r30, 0xBE53	; 0x80be53 <__bss_end+0x8339>
     7ee:	f0 e0       	ldi	r31, 0x00	; 0
     7f0:	e6 53       	subi	r30, 0x36	; 54
     7f2:	f5 4c       	sbci	r31, 0xC5	; 197
     7f4:	10 82       	st	Z, r1
    iLED[EYE[G][R]] = 0;
     7f6:	e0 91 52 be 	lds	r30, 0xBE52	; 0x80be52 <__bss_end+0x8338>
     7fa:	f0 e0       	ldi	r31, 0x00	; 0
     7fc:	e6 53       	subi	r30, 0x36	; 54
     7fe:	f5 4c       	sbci	r31, 0xC5	; 197
     800:	10 82       	st	Z, r1
    iLED[EYE[R][L]] = 0;
     802:	e0 91 51 be 	lds	r30, 0xBE51	; 0x80be51 <__bss_end+0x8337>
     806:	f0 e0       	ldi	r31, 0x00	; 0
     808:	e6 53       	subi	r30, 0x36	; 54
     80a:	f5 4c       	sbci	r31, 0xC5	; 197
     80c:	10 82       	st	Z, r1
    iLED[EYE[R][R]] = 0;
     80e:	e0 91 50 be 	lds	r30, 0xBE50	; 0x80be50 <__bss_end+0x8336>
     812:	f0 e0       	ldi	r31, 0x00	; 0
     814:	e6 53       	subi	r30, 0x36	; 54
     816:	f5 4c       	sbci	r31, 0xC5	; 197
     818:	10 82       	st	Z, r1
     81a:	aa e5       	ldi	r26, 0x5A	; 90
     81c:	be eb       	ldi	r27, 0xBE	; 190
    for (int i=0; i<6; i++ )
        iLED[HCKR[G][i]] = 0;
     81e:	ed 91       	ld	r30, X+
     820:	f0 e0       	ldi	r31, 0x00	; 0
     822:	e6 53       	subi	r30, 0x36	; 54
     824:	f5 4c       	sbci	r31, 0xC5	; 197
     826:	10 82       	st	Z, r1
    iLED[CAT]       = 0;
    iLED[EYE[G][L]] = 0;
    iLED[EYE[G][R]] = 0;
    iLED[EYE[R][L]] = 0;
    iLED[EYE[R][R]] = 0;
    for (int i=0; i<6; i++ )
     828:	8e eb       	ldi	r24, 0xBE	; 190
     82a:	a0 36       	cpi	r26, 0x60	; 96
     82c:	b8 07       	cpc	r27, r24
     82e:	b9 f7       	brne	.-18     	; 0x81e <initMaze+0x56>
        iLED[HCKR[G][i]] = 0;
}
     830:	08 95       	ret

00000832 <showFieldStrength>:

void showFieldStrength(int16_t val) {
    int16_t tmp;

    tmp = abs(val);
     832:	97 ff       	sbrs	r25, 7
     834:	03 c0       	rjmp	.+6      	; 0x83c <showFieldStrength+0xa>
     836:	91 95       	neg	r25
     838:	81 95       	neg	r24
     83a:	91 09       	sbc	r25, r1

    if ( tmp*2 > HALL_LOW )
     83c:	9c 01       	movw	r18, r24
     83e:	22 0f       	add	r18, r18
     840:	33 1f       	adc	r19, r19
     842:	29 37       	cpi	r18, 0x79	; 121
     844:	31 05       	cpc	r19, r1
     846:	1c f0       	brlt	.+6      	; 0x84e <showFieldStrength+0x1c>
        gameNow = MAZE;
     848:	41 e0       	ldi	r20, 0x01	; 1
     84a:	40 93 3c 38 	sts	0x383C, r20	; 0x80383c <gameNow>

    if (gameNow == MAZE) {
     84e:	40 91 3c 38 	lds	r20, 0x383C	; 0x80383c <gameNow>
     852:	41 30       	cpi	r20, 0x01	; 1
     854:	21 f5       	brne	.+72     	; 0x89e <showFieldStrength+0x6c>
        if ( tmp*2 < HALL_LOW )
     856:	28 37       	cpi	r18, 0x78	; 120
     858:	31 05       	cpc	r19, r1
     85a:	1c f4       	brge	.+6      	; 0x862 <showFieldStrength+0x30>
            WingBar(0,0);
     85c:	60 e0       	ldi	r22, 0x00	; 0
     85e:	80 e0       	ldi	r24, 0x00	; 0
     860:	1d c0       	rjmp	.+58     	; 0x89c <showFieldStrength+0x6a>
        else if ( tmp   < HALL_LOW )
     862:	88 37       	cpi	r24, 0x78	; 120
     864:	91 05       	cpc	r25, r1
     866:	1c f4       	brge	.+6      	; 0x86e <showFieldStrength+0x3c>
            WingBar(1,1);
     868:	61 e0       	ldi	r22, 0x01	; 1
     86a:	81 e0       	ldi	r24, 0x01	; 1
     86c:	17 c0       	rjmp	.+46     	; 0x89c <showFieldStrength+0x6a>
        else if ( tmp*2 < HALL_HIGH )
     86e:	2c 32       	cpi	r18, 0x2C	; 44
     870:	41 e0       	ldi	r20, 0x01	; 1
     872:	34 07       	cpc	r19, r20
     874:	1c f4       	brge	.+6      	; 0x87c <showFieldStrength+0x4a>
            WingBar(2,2);
     876:	62 e0       	ldi	r22, 0x02	; 2
     878:	82 e0       	ldi	r24, 0x02	; 2
     87a:	10 c0       	rjmp	.+32     	; 0x89c <showFieldStrength+0x6a>
        else if ( tmp*3 < HALL_HIGH*2 )
     87c:	28 0f       	add	r18, r24
     87e:	39 1f       	adc	r19, r25
     880:	28 35       	cpi	r18, 0x58	; 88
     882:	32 40       	sbci	r19, 0x02	; 2
     884:	1c f4       	brge	.+6      	; 0x88c <showFieldStrength+0x5a>
            WingBar(3,3);
     886:	63 e0       	ldi	r22, 0x03	; 3
     888:	83 e0       	ldi	r24, 0x03	; 3
     88a:	08 c0       	rjmp	.+16     	; 0x89c <showFieldStrength+0x6a>
        else if ( tmp   < HALL_HIGH )
     88c:	8c 32       	cpi	r24, 0x2C	; 44
     88e:	91 40       	sbci	r25, 0x01	; 1
     890:	1c f4       	brge	.+6      	; 0x898 <showFieldStrength+0x66>
            WingBar(4,4);
     892:	64 e0       	ldi	r22, 0x04	; 4
     894:	84 e0       	ldi	r24, 0x04	; 4
     896:	02 c0       	rjmp	.+4      	; 0x89c <showFieldStrength+0x6a>
        else
            WingBar(5,5);
     898:	65 e0       	ldi	r22, 0x05	; 5
     89a:	85 e0       	ldi	r24, 0x05	; 5
     89c:	ed c6       	rjmp	.+3546   	; 0x1678 <WingBar>
     89e:	08 95       	ret

000008a0 <MagnetMaze>:
    }
}

// Main game loop
uint8_t MagnetMaze(){
     8a0:	cf 93       	push	r28
     8a2:	df 93       	push	r29
    if (gameNow == MAZE && idleTimeout(mazeLastActive,MAZE_MAX_IDLE)) {
     8a4:	80 91 3c 38 	lds	r24, 0x383C	; 0x80383c <gameNow>
     8a8:	81 30       	cpi	r24, 0x01	; 1
     8aa:	91 f4       	brne	.+36     	; 0x8d0 <MagnetMaze+0x30>
     8ac:	6a e0       	ldi	r22, 0x0A	; 10
     8ae:	70 e0       	ldi	r23, 0x00	; 0
     8b0:	80 91 45 38 	lds	r24, 0x3845	; 0x803845 <mazeLastActive>
     8b4:	90 91 46 38 	lds	r25, 0x3846	; 0x803846 <mazeLastActive+0x1>
     8b8:	0e 94 79 0d 	call	0x1af2	; 0x1af2 <idleTimeout>
     8bc:	88 23       	and	r24, r24
     8be:	41 f0       	breq	.+16     	; 0x8d0 <MagnetMaze+0x30>
        /* clean up maze game and go back to text game */
        initMaze();
     8c0:	83 df       	rcall	.-250    	; 0x7c8 <initMaze>
        gameNow = TEXT;
     8c2:	10 92 3c 38 	sts	0x383C, r1	; 0x80383c <gameNow>
        effect = 0;
     8c6:	10 92 3a 38 	sts	0x383A, r1	; 0x80383a <effect>
     8ca:	10 92 3b 38 	sts	0x383B, r1	; 0x80383b <effect+0x1>
        return 0;
     8ce:	dc c0       	rjmp	.+440    	; 0xa88 <MagnetMaze+0x1e8>
    }
        
    if (CheckState(MAZE_INACTIVE))
     8d0:	87 ef       	ldi	r24, 0xF7	; 247
     8d2:	f9 d5       	rcall	.+3058   	; 0x14c6 <CheckState>
     8d4:	81 11       	cpse	r24, r1
     8d6:	d8 c0       	rjmp	.+432    	; 0xa88 <MagnetMaze+0x1e8>
        return 0;

    if (CheckState(MAZE_COMPLETED))
     8d8:	8d e7       	ldi	r24, 0x7D	; 125
     8da:	f5 d5       	rcall	.+3050   	; 0x14c6 <CheckState>
     8dc:	81 11       	cpse	r24, r1
     8de:	d4 c0       	rjmp	.+424    	; 0xa88 <MagnetMaze+0x1e8>
     8e0:	80 91 3c 38 	lds	r24, 0x383C	; 0x80383c <gameNow>
        return 0;

    if ( (gameNow != TEXT) && (gameNow != MAZE) )
     8e4:	82 30       	cpi	r24, 0x02	; 2
     8e6:	08 f0       	brcs	.+2      	; 0x8ea <MagnetMaze+0x4a>
     8e8:	cf c0       	rjmp	.+414    	; 0xa88 <MagnetMaze+0x1e8>
     8ea:	80 91 f3 3a 	lds	r24, 0x3AF3	; 0x803af3 <calHall>
        return 0;

    if (calHall == 0)
     8ee:	90 91 f4 3a 	lds	r25, 0x3AF4	; 0x803af4 <calHall+0x1>
     8f2:	89 2b       	or	r24, r25
     8f4:	41 f4       	brne	.+16     	; 0x906 <MagnetMaze+0x66>
     8f6:	80 91 bb 3a 	lds	r24, 0x3ABB	; 0x803abb <adcHall>
        calHall = adcHall;
     8fa:	90 91 bc 3a 	lds	r25, 0x3ABC	; 0x803abc <adcHall+0x1>
     8fe:	80 93 f3 3a 	sts	0x3AF3, r24	; 0x803af3 <calHall>
     902:	90 93 f4 3a 	sts	0x3AF4, r25	; 0x803af4 <calHall+0x1>
     906:	c0 91 bb 3a 	lds	r28, 0x3ABB	; 0x803abb <adcHall>

    int16_t valHall = adcHall - calHall;
     90a:	d0 91 bc 3a 	lds	r29, 0x3ABC	; 0x803abc <adcHall+0x1>
     90e:	80 91 f3 3a 	lds	r24, 0x3AF3	; 0x803af3 <calHall>
     912:	90 91 f4 3a 	lds	r25, 0x3AF4	; 0x803af4 <calHall+0x1>
     916:	c8 1b       	sub	r28, r24
     918:	d9 0b       	sbc	r29, r25
    showFieldStrength(valHall);
     91a:	ce 01       	movw	r24, r28
     91c:	8a df       	rcall	.-236    	; 0x832 <showFieldStrength>
     91e:	80 91 4c 38 	lds	r24, 0x384C	; 0x80384c <curHallState>

    switch (curHallState) {
     922:	81 30       	cpi	r24, 0x01	; 1
     924:	89 f0       	breq	.+34     	; 0x948 <MagnetMaze+0xa8>
     926:	18 f0       	brcs	.+6      	; 0x92e <MagnetMaze+0x8e>
     928:	82 30       	cpi	r24, 0x02	; 2
     92a:	c1 f0       	breq	.+48     	; 0x95c <MagnetMaze+0xbc>
     92c:	1f c0       	rjmp	.+62     	; 0x96c <MagnetMaze+0xcc>
     92e:	c4 3d       	cpi	r28, 0xD4	; 212
        case 0:
            if ( valHall + HALL_HIGH < 0 ) {
     930:	9e ef       	ldi	r25, 0xFE	; 254
     932:	d9 07       	cpc	r29, r25
     934:	14 f4       	brge	.+4      	; 0x93a <MagnetMaze+0x9a>
     936:	91 e0       	ldi	r25, 0x01	; 1
                newHallState = 1;
     938:	04 c0       	rjmp	.+8      	; 0x942 <MagnetMaze+0xa2>
     93a:	cd 32       	cpi	r28, 0x2D	; 45
            } else if ( valHall - HALL_HIGH > 0 ) {
     93c:	d1 40       	sbci	r29, 0x01	; 1
     93e:	5c f0       	brlt	.+22     	; 0x956 <MagnetMaze+0xb6>
     940:	92 e0       	ldi	r25, 0x02	; 2
                newHallState = 2;
     942:	90 93 4b 38 	sts	0x384B, r25	; 0x80384b <newHallState>
     946:	12 c0       	rjmp	.+36     	; 0x96c <MagnetMaze+0xcc>
     948:	cd 32       	cpi	r28, 0x2D	; 45
                newHallState = 0;
            }
            break;
        
        case 1:
            if ( valHall - HALL_HIGH > 0 ) {
     94a:	91 e0       	ldi	r25, 0x01	; 1
     94c:	d9 07       	cpc	r29, r25
     94e:	c4 f7       	brge	.-16     	; 0x940 <MagnetMaze+0xa0>
     950:	c9 38       	cpi	r28, 0x89	; 137
                newHallState = 2;
            } else if ( valHall + HALL_LOW > 0 ) {
     952:	df 4f       	sbci	r29, 0xFF	; 255
     954:	84 f3       	brlt	.-32     	; 0x936 <MagnetMaze+0x96>
     956:	10 92 4b 38 	sts	0x384B, r1	; 0x80384b <newHallState>
            if ( valHall + HALL_HIGH < 0 ) {
                newHallState = 1;
            } else if ( valHall - HALL_HIGH > 0 ) {
                newHallState = 2;
            } else {
                newHallState = 0;
     95a:	08 c0       	rjmp	.+16     	; 0x96c <MagnetMaze+0xcc>
     95c:	c4 3d       	cpi	r28, 0xD4	; 212
                newHallState = 1;
            }
            break;
        
        case 2:
            if ( valHall + HALL_HIGH < 0 ) {
     95e:	9e ef       	ldi	r25, 0xFE	; 254
     960:	d9 07       	cpc	r29, r25
     962:	4c f3       	brlt	.-46     	; 0x936 <MagnetMaze+0x96>
     964:	c8 37       	cpi	r28, 0x78	; 120
                newHallState = 1;
            } else if ( valHall - HALL_LOW < 0 ) {
     966:	d1 05       	cpc	r29, r1
     968:	b4 f3       	brlt	.-20     	; 0x956 <MagnetMaze+0xb6>
     96a:	ea cf       	rjmp	.-44     	; 0x940 <MagnetMaze+0xa0>
     96c:	c0 91 42 be 	lds	r28, 0xBE42	; 0x80be42 <__bss_end+0x8328>
            }
            break;
    }

    /* Indicate that the magnet was read succesfully */
    iLED[CAT] = (newHallState ? dimValue : 0);
     970:	ec 2f       	mov	r30, r28
     972:	f0 e0       	ldi	r31, 0x00	; 0
     974:	90 91 4b 38 	lds	r25, 0x384B	; 0x80384b <newHallState>
     978:	99 23       	and	r25, r25
     97a:	19 f0       	breq	.+6      	; 0x982 <MagnetMaze+0xe2>
     97c:	20 91 0a 38 	lds	r18, 0x380A	; 0x80380a <dimValue>
     980:	01 c0       	rjmp	.+2      	; 0x984 <MagnetMaze+0xe4>
     982:	20 e0       	ldi	r18, 0x00	; 0
     984:	e6 53       	subi	r30, 0x36	; 54
     986:	f5 4c       	sbci	r31, 0xC5	; 197
     988:	20 83       	st	Z, r18
     98a:	2f e9       	ldi	r18, 0x9F	; 159
    effect = 0x19f;
     98c:	31 e0       	ldi	r19, 0x01	; 1
     98e:	20 93 3a 38 	sts	0x383A, r18	; 0x80383a <effect>
     992:	30 93 3b 38 	sts	0x383B, r19	; 0x80383b <effect+0x1>
     996:	89 17       	cp	r24, r25

    if (newHallState != curHallState) {
     998:	09 f4       	brne	.+2      	; 0x99c <MagnetMaze+0xfc>
     99a:	76 c0       	rjmp	.+236    	; 0xa88 <MagnetMaze+0x1e8>
     99c:	0e 94 6a 0d 	call	0x1ad4	; 0x1ad4 <getClock>
        /* keep track of time to enable an idle timeout to exit the game */
        mazeLastActive = getClock();
     9a0:	80 93 45 38 	sts	0x3845, r24	; 0x803845 <mazeLastActive>
     9a4:	90 93 46 38 	sts	0x3846, r25	; 0x803846 <mazeLastActive+0x1>
     9a8:	20 91 4a 38 	lds	r18, 0x384A	; 0x80384a <mazePos>

        /* Make the maze work regardless of badge orientation */
        if ((mazePos == 0) && (newHallState != 0))
     9ac:	80 91 4b 38 	lds	r24, 0x384B	; 0x80384b <newHallState>
     9b0:	21 11       	cpse	r18, r1
     9b2:	08 c0       	rjmp	.+16     	; 0x9c4 <MagnetMaze+0x124>
     9b4:	88 23       	and	r24, r24
     9b6:	31 f0       	breq	.+12     	; 0x9c4 <MagnetMaze+0x124>
     9b8:	91 e0       	ldi	r25, 0x01	; 1
            inverted = (newHallState != mazeCode[0]) ? TRUE : FALSE;
     9ba:	81 30       	cpi	r24, 0x01	; 1
     9bc:	09 f4       	brne	.+2      	; 0x9c0 <MagnetMaze+0x120>
     9be:	90 e0       	ldi	r25, 0x00	; 0
     9c0:	90 93 47 38 	sts	0x3847, r25	; 0x803847 <inverted>
     9c4:	80 93 4c 38 	sts	0x384C, r24	; 0x80384c <curHallState>

        curHallState = newHallState;
     9c8:	88 23       	and	r24, r24
        
        if (curHallState != 0) {
     9ca:	09 f4       	brne	.+2      	; 0x9ce <MagnetMaze+0x12e>
     9cc:	5d c0       	rjmp	.+186    	; 0xa88 <MagnetMaze+0x1e8>
     9ce:	91 e0       	ldi	r25, 0x01	; 1
            gameNow = MAZE;
     9d0:	90 93 3c 38 	sts	0x383C, r25	; 0x80383c <gameNow>
     9d4:	90 91 47 38 	lds	r25, 0x3847	; 0x803847 <inverted>
            if ( (inverted ? curHallState^3 : curHallState) == mazeCode[mazePos]) {
     9d8:	99 23       	and	r25, r25
     9da:	11 f0       	breq	.+4      	; 0x9e0 <MagnetMaze+0x140>
     9dc:	93 e0       	ldi	r25, 0x03	; 3
     9de:	89 27       	eor	r24, r25
     9e0:	90 e0       	ldi	r25, 0x00	; 0
     9e2:	e2 2f       	mov	r30, r18
     9e4:	f0 e0       	ldi	r31, 0x00	; 0
     9e6:	e0 58       	subi	r30, 0x80	; 128
     9e8:	f1 44       	sbci	r31, 0x41	; 65
     9ea:	40 81       	ld	r20, Z
     9ec:	50 e0       	ldi	r21, 0x00	; 0
     9ee:	84 17       	cp	r24, r20
     9f0:	95 07       	cpc	r25, r21
     9f2:	91 f4       	brne	.+36     	; 0xa18 <MagnetMaze+0x178>
     9f4:	80 91 0b 38 	lds	r24, 0x380B	; 0x80380b <mazeState>
                mazeState &= TRUE;
     9f8:	81 70       	andi	r24, 0x01	; 1
     9fa:	80 93 0b 38 	sts	0x380B, r24	; 0x80380b <mazeState>
     9fe:	e0 91 51 be 	lds	r30, 0xBE51	; 0x80be51 <__bss_end+0x8337>
                iLED[EYE[R][L]] = 0;
     a02:	f0 e0       	ldi	r31, 0x00	; 0
     a04:	e6 53       	subi	r30, 0x36	; 54
     a06:	f5 4c       	sbci	r31, 0xC5	; 197
     a08:	10 82       	st	Z, r1
     a0a:	e0 91 50 be 	lds	r30, 0xBE50	; 0x80be50 <__bss_end+0x8336>
                iLED[EYE[R][R]] = 0;
     a0e:	f0 e0       	ldi	r31, 0x00	; 0
     a10:	e6 53       	subi	r30, 0x36	; 54
     a12:	f5 4c       	sbci	r31, 0xC5	; 197
     a14:	10 82       	st	Z, r1
     a16:	02 c0       	rjmp	.+4      	; 0xa1c <MagnetMaze+0x17c>
     a18:	10 92 0b 38 	sts	0x380B, r1	; 0x80380b <mazeState>
            } else {
                mazeState = FALSE;
     a1c:	2f 5f       	subi	r18, 0xFF	; 255
            }
            mazePos++;
     a1e:	20 93 4a 38 	sts	0x384A, r18	; 0x80384a <mazePos>
     a22:	80 91 48 38 	lds	r24, 0x3848	; 0x803848 <mazeCnt>
            mazeCnt++;            
     a26:	8f 5f       	subi	r24, 0xFF	; 255
     a28:	83 30       	cpi	r24, 0x03	; 3
            if (mazeCnt >= 3) {
     a2a:	18 f4       	brcc	.+6      	; 0xa32 <MagnetMaze+0x192>
     a2c:	80 93 48 38 	sts	0x3848, r24	; 0x803848 <mazeCnt>
                iLED[EYE[R][R]] = 0;
            } else {
                mazeState = FALSE;
            }
            mazePos++;
            mazeCnt++;            
     a30:	2b c0       	rjmp	.+86     	; 0xa88 <MagnetMaze+0x1e8>
     a32:	10 92 48 38 	sts	0x3848, r1	; 0x803848 <mazeCnt>
            if (mazeCnt >= 3) {
                mazeCnt = 0;
     a36:	80 91 0b 38 	lds	r24, 0x380B	; 0x80380b <mazeState>
                if (mazeState == TRUE) {
     a3a:	81 30       	cpi	r24, 0x01	; 1
     a3c:	e1 f4       	brne	.+56     	; 0xa76 <MagnetMaze+0x1d6>
     a3e:	80 91 49 38 	lds	r24, 0x3849	; 0x803849 <mazeHckrPos>
                    iLED[HCKR[G][mazeHckrPos]] = dimValue;
     a42:	e8 2f       	mov	r30, r24
     a44:	f0 e0       	ldi	r31, 0x00	; 0
     a46:	ec 5a       	subi	r30, 0xAC	; 172
     a48:	f1 44       	sbci	r31, 0x41	; 65
     a4a:	e6 81       	ldd	r30, Z+6	; 0x06
     a4c:	f0 e0       	ldi	r31, 0x00	; 0
     a4e:	90 91 0a 38 	lds	r25, 0x380A	; 0x80380a <dimValue>
     a52:	e6 53       	subi	r30, 0x36	; 54
     a54:	f5 4c       	sbci	r31, 0xC5	; 197
     a56:	90 83       	st	Z, r25
     a58:	8f 5f       	subi	r24, 0xFF	; 255
                    mazeHckrPos++;
     a5a:	80 93 49 38 	sts	0x3849, r24	; 0x803849 <mazeHckrPos>
                    if (mazePos == sizeof(mazeCode)) {
     a5e:	22 31       	cpi	r18, 0x12	; 18
     a60:	99 f4       	brne	.+38     	; 0xa88 <MagnetMaze+0x1e8>
                        UpdateState(MAZE_COMPLETED);
     a62:	8d e7       	ldi	r24, 0x7D	; 125
     a64:	26 d5       	rcall	.+2636   	; 0x14b2 <UpdateState>
     a66:	ec 2f       	mov	r30, r28
                        iLED[CAT]       = 0;
     a68:	f0 e0       	ldi	r31, 0x00	; 0
     a6a:	e6 53       	subi	r30, 0x36	; 54
     a6c:	f5 4c       	sbci	r31, 0xC5	; 197
     a6e:	10 82       	st	Z, r1
                        effect = 0x42;
     a70:	82 e4       	ldi	r24, 0x42	; 66
     a72:	90 e0       	ldi	r25, 0x00	; 0
     a74:	05 c0       	rjmp	.+10     	; 0xa80 <MagnetMaze+0x1e0>
                        /*TODO state = STATE_MUSIC;*/
                    }
                } else {
                    initMaze();
     a76:	a8 de       	rcall	.-688    	; 0x7c8 <initMaze>
     a78:	10 92 3c 38 	sts	0x383C, r1	; 0x80383c <gameNow>
                    gameNow   = TEXT;
     a7c:	81 e2       	ldi	r24, 0x21	; 33
                    effect = 0x21;
     a7e:	90 e0       	ldi	r25, 0x00	; 0
     a80:	80 93 3a 38 	sts	0x383A, r24	; 0x80383a <effect>
     a84:	90 93 3b 38 	sts	0x383B, r25	; 0x80383b <effect+0x1>
     a88:	80 e0       	ldi	r24, 0x00	; 0
                }
            }
        }
    }
    return 0;
}
     a8a:	df 91       	pop	r29
     a8c:	cf 91       	pop	r28
     a8e:	08 95       	ret

00000a90 <Setup>:
     a90:	cf 93       	push	r28
volatile uint16_t tmp16bit;    
volatile uint8_t mask[8] = {0x01, 0x03, 0x07, 0x0f, 0x1f, 0x3f, 0x7f, 0xff};
uint8_t HeartCount = 0;
uint8_t LedCount = 0;

void Setup(){
     a92:	df 93       	push	r29
    cli();
     a94:	f8 94       	cli

    //Set up clock at 10MHz
    CCP = CCP_IOREG_gc;
     a96:	88 ed       	ldi	r24, 0xD8	; 216
     a98:	84 bf       	out	0x34, r24	; 52
    CLKCTRL_MCLKCTRLB = 0x01;
     a9a:	c1 e0       	ldi	r28, 0x01	; 1
     a9c:	c0 93 61 00 	sts	0x0061, r28	; 0x800061 <__TEXT_REGION_LENGTH__+0x700061>

    //Set I/O direction registers
    PORTA_DIR = 0b01001010;
     aa0:	8a e4       	ldi	r24, 0x4A	; 74
     aa2:	80 93 00 04 	sts	0x0400, r24	; 0x800400 <__TEXT_REGION_LENGTH__+0x700400>
    PORTB_DIR = 0b01111100;
     aa6:	8c e7       	ldi	r24, 0x7C	; 124
     aa8:	80 93 20 04 	sts	0x0420, r24	; 0x800420 <__TEXT_REGION_LENGTH__+0x700420>
    PORTC_DIR = 0b00111111;
     aac:	9f e3       	ldi	r25, 0x3F	; 63
     aae:	90 93 40 04 	sts	0x0440, r25	; 0x800440 <__TEXT_REGION_LENGTH__+0x700440>

    //Invert some pins for correcting LED reversal error
    PORTC_PIN3CTRL |= 0x80;
     ab2:	80 91 53 04 	lds	r24, 0x0453	; 0x800453 <__TEXT_REGION_LENGTH__+0x700453>
     ab6:	80 68       	ori	r24, 0x80	; 128
     ab8:	80 93 53 04 	sts	0x0453, r24	; 0x800453 <__TEXT_REGION_LENGTH__+0x700453>
    PORTC_PIN4CTRL |= 0x80;
     abc:	80 91 54 04 	lds	r24, 0x0454	; 0x800454 <__TEXT_REGION_LENGTH__+0x700454>
     ac0:	80 68       	ori	r24, 0x80	; 128
     ac2:	80 93 54 04 	sts	0x0454, r24	; 0x800454 <__TEXT_REGION_LENGTH__+0x700454>
    PORTC_PIN5CTRL |= 0x80;
     ac6:	80 91 55 04 	lds	r24, 0x0455	; 0x800455 <__TEXT_REGION_LENGTH__+0x700455>
     aca:	80 68       	ori	r24, 0x80	; 128
     acc:	80 93 55 04 	sts	0x0455, r24	; 0x800455 <__TEXT_REGION_LENGTH__+0x700455>
    PORTB_PIN3CTRL |= 0x80;
     ad0:	80 91 33 04 	lds	r24, 0x0433	; 0x800433 <__TEXT_REGION_LENGTH__+0x700433>
     ad4:	80 68       	ori	r24, 0x80	; 128
     ad6:	80 93 33 04 	sts	0x0433, r24	; 0x800433 <__TEXT_REGION_LENGTH__+0x700433>
    PORTB_PIN4CTRL |= 0x80;
     ada:	80 91 34 04 	lds	r24, 0x0434	; 0x800434 <__TEXT_REGION_LENGTH__+0x700434>
     ade:	80 68       	ori	r24, 0x80	; 128
     ae0:	80 93 34 04 	sts	0x0434, r24	; 0x800434 <__TEXT_REGION_LENGTH__+0x700434>
    PORTB_PIN5CTRL |= 0x80;
     ae4:	80 91 35 04 	lds	r24, 0x0435	; 0x800435 <__TEXT_REGION_LENGTH__+0x700435>
     ae8:	80 68       	ori	r24, 0x80	; 128
     aea:	80 93 35 04 	sts	0x0435, r24	; 0x800435 <__TEXT_REGION_LENGTH__+0x700435>
    PORTB_PIN2CTRL |= 0x80;
    PORTB_PIN6CTRL |= 0x80;
    */

    //UART (Alternative pins PA1=TxD, PA2=RxD, baudrate 9600, 8n1, RX and Buffer empty interrupts on)
    PORTMUX_CTRLB = 0x01;
     aee:	c0 93 01 02 	sts	0x0201, r28	; 0x800201 <__TEXT_REGION_LENGTH__+0x700201>
    PORTA_OUTSET = 0x02;
     af2:	d2 e0       	ldi	r29, 0x02	; 2
     af4:	d0 93 05 04 	sts	0x0405, r29	; 0x800405 <__TEXT_REGION_LENGTH__+0x700405>
    USART0_BAUD = (uint16_t)USART0_BAUD_RATE(115200);
     af8:	2b e5       	ldi	r18, 0x5B	; 91
     afa:	31 e0       	ldi	r19, 0x01	; 1
     afc:	20 93 08 08 	sts	0x0808, r18	; 0x800808 <__TEXT_REGION_LENGTH__+0x700808>
     b00:	30 93 09 08 	sts	0x0809, r19	; 0x800809 <__TEXT_REGION_LENGTH__+0x700809>
    USART0_CTRLA = 0xA0; //Interrupts on
     b04:	80 ea       	ldi	r24, 0xA0	; 160
     b06:	80 93 05 08 	sts	0x0805, r24	; 0x800805 <__TEXT_REGION_LENGTH__+0x700805>
    USART0_CTRLB = 0xC0; //RX and TX on
     b0a:	80 ec       	ldi	r24, 0xC0	; 192
     b0c:	80 93 06 08 	sts	0x0806, r24	; 0x800806 <__TEXT_REGION_LENGTH__+0x700806>
    USART0_CTRLC = 0x03; //8 bits data, no parity, 1 stop bit
     b10:	83 e0       	ldi	r24, 0x03	; 3
     b12:	80 93 07 08 	sts	0x0807, r24	; 0x800807 <__TEXT_REGION_LENGTH__+0x700807>
     
    //GPIO registers 0..3 can be used for global variables used in ISR routines (ASM capability: IN, OUT, SBI, CBI, SBIS, SBIC)
    L_COL = 0;     //Used in LED array to hold currently driven column value
     b16:	1c ba       	out	0x1c, r1	; 28
    RXCNT = 0;     //Used as UART receive counter
     b18:	1d ba       	out	0x1d, r1	; 29
    AUPOS = 0;     //Used as audio input/output buffer counter
     b1a:	1e ba       	out	0x1e, r1	; 30
    GPIOR3 = 0;    //
     b1c:	1f ba       	out	0x1f, r1	; 31

    //Init TCA (split mode, f_CLK/16, PWM on 6 alternative pins, underflow int enabled, synced and started)
    TCA0_SPLIT_CTRLD = 1;
     b1e:	c0 93 03 0a 	sts	0x0A03, r28	; 0x800a03 <__TEXT_REGION_LENGTH__+0x700a03>
    TCA0_SPLIT_CTRLA = (0x4)<<1;
     b22:	88 e0       	ldi	r24, 0x08	; 8
     b24:	80 93 00 0a 	sts	0x0A00, r24	; 0x800a00 <__TEXT_REGION_LENGTH__+0x700a00>
    PORTMUX_CTRLC = 0x3F;
     b28:	90 93 02 02 	sts	0x0202, r25	; 0x800202 <__TEXT_REGION_LENGTH__+0x700202>
    TCA0_SPLIT_CTRLB = 0x77;
     b2c:	87 e7       	ldi	r24, 0x77	; 119
     b2e:	80 93 01 0a 	sts	0x0A01, r24	; 0x800a01 <__TEXT_REGION_LENGTH__+0x700a01>
    TCA0_SPLIT_INTCTRL = 0x1;
     b32:	c0 93 0a 0a 	sts	0x0A0A, r28	; 0x800a0a <__TEXT_REGION_LENGTH__+0x700a0a>
    TCA0_SPLIT_CTRLESET = ((0x2)<<2)|0x3;
     b36:	8b e0       	ldi	r24, 0x0B	; 11
     b38:	80 93 05 0a 	sts	0x0A05, r24	; 0x800a05 <__TEXT_REGION_LENGTH__+0x700a05>
    TCA0_SPLIT_CTRLA |= 1;
     b3c:	80 91 00 0a 	lds	r24, 0x0A00	; 0x800a00 <__TEXT_REGION_LENGTH__+0x700a00>
     b40:	81 60       	ori	r24, 0x01	; 1
     b42:	80 93 00 0a 	sts	0x0A00, r24	; 0x800a00 <__TEXT_REGION_LENGTH__+0x700a00>
     
    //Init TCB0 (compare value sets serial Tx pause between characters, uses TCA0 prescaler, enabled, interrupt disabled)
    TCB0_CTRLA = ((0x02)<<1)|0x01;
     b46:	85 e0       	ldi	r24, 0x05	; 5
     b48:	80 93 40 0a 	sts	0x0A40, r24	; 0x800a40 <__TEXT_REGION_LENGTH__+0x700a40>
    TCB0_CTRLB = 0;
     b4c:	10 92 41 0a 	sts	0x0A41, r1	; 0x800a41 <__TEXT_REGION_LENGTH__+0x700a41>
    TCB0_CCMP = 0x01FF;
     b50:	8f ef       	ldi	r24, 0xFF	; 255
     b52:	91 e0       	ldi	r25, 0x01	; 1
     b54:	80 93 4c 0a 	sts	0x0A4C, r24	; 0x800a4c <__TEXT_REGION_LENGTH__+0x700a4c>
     b58:	90 93 4d 0a 	sts	0x0A4D, r25	; 0x800a4d <__TEXT_REGION_LENGTH__+0x700a4d>
    TCB0_INTCTRL = 0x00;     
     b5c:	10 92 45 0a 	sts	0x0A45, r1	; 0x800a45 <__TEXT_REGION_LENGTH__+0x700a45>
     
    //Init TCB1 (compare value sets audio sample rate (0x038B = 11025sps), enabled, interrupt enabled)
    TCB1_CTRLA = 0x01;
     b60:	c0 93 50 0a 	sts	0x0A50, r28	; 0x800a50 <__TEXT_REGION_LENGTH__+0x700a50>
    TCB1_CTRLB = 0;
     b64:	10 92 51 0a 	sts	0x0A51, r1	; 0x800a51 <__TEXT_REGION_LENGTH__+0x700a51>
    TCB1_CCMP = 0x038B;
     b68:	8b e8       	ldi	r24, 0x8B	; 139
     b6a:	93 e0       	ldi	r25, 0x03	; 3
     b6c:	80 93 5c 0a 	sts	0x0A5C, r24	; 0x800a5c <__TEXT_REGION_LENGTH__+0x700a5c>
     b70:	90 93 5d 0a 	sts	0x0A5D, r25	; 0x800a5d <__TEXT_REGION_LENGTH__+0x700a5d>
    TCB1_INTCTRL = 0x01;
     b74:	c0 93 55 0a 	sts	0x0A55, r28	; 0x800a55 <__TEXT_REGION_LENGTH__+0x700a55>

    //Init I2C (100kHz)
    I2C_init();
     b78:	fd db       	rcall	.-2054   	; 0x374 <I2C_init>

    //VREF (DAC, ADC's)
    VREF_CTRLA   = 0x12;    //0x22 for audio in/out (2.5V), 0x12 for temperature in, audio out (1.1V/2.5V)
     b7a:	82 e1       	ldi	r24, 0x12	; 18
     b7c:	80 93 a0 00 	sts	0x00A0, r24	; 0x8000a0 <__TEXT_REGION_LENGTH__+0x7000a0>
    VREF_CTRLC   = 0x20;    //ADC1 reference at 2.5V
     b80:	80 e2       	ldi	r24, 0x20	; 32
     b82:	80 93 a2 00 	sts	0x00A2, r24	; 0x8000a2 <__TEXT_REGION_LENGTH__+0x7000a2>
    VREF_CTRLB   = 0x01;    //DAC0 ref forced enabled
     b86:	c0 93 a1 00 	sts	0x00A1, r28	; 0x8000a1 <__TEXT_REGION_LENGTH__+0x7000a1>

    //Init ADC0 (audio in, also controls DAC output rate, internal temperature?)
    ADC0_CTRLA   = 0x02;    //10 bit resolution, free running
     b8a:	d0 93 00 06 	sts	0x0600, r29	; 0x800600 <__TEXT_REGION_LENGTH__+0x700600>
    ADC0_CTRLC   = 0x44;    //Reduced sample capacitor, internal reference, clock/32 => 24038sps
     b8e:	84 e4       	ldi	r24, 0x44	; 68
     b90:	80 93 02 06 	sts	0x0602, r24	; 0x800602 <__TEXT_REGION_LENGTH__+0x700602>
    ADC0_MUXPOS  = 0x1E;    //Audio in: AIN7 at (0x07), Temperature: Internal sensor at (0x1E)
     b94:	8e e1       	ldi	r24, 0x1E	; 30
     b96:	80 93 06 06 	sts	0x0606, r24	; 0x800606 <__TEXT_REGION_LENGTH__+0x700606>
    ADC0_INTCTRL = 0x01;    //Result ready interrupt enabled
     b9a:	c0 93 0a 06 	sts	0x060A, r28	; 0x80060a <__TEXT_REGION_LENGTH__+0x70060a>
    ADC0_CTRLA  |= 0x01;    //ADC0 enabled
     b9e:	80 91 00 06 	lds	r24, 0x0600	; 0x800600 <__TEXT_REGION_LENGTH__+0x700600>
     ba2:	81 60       	ori	r24, 0x01	; 1
     ba4:	80 93 00 06 	sts	0x0600, r24	; 0x800600 <__TEXT_REGION_LENGTH__+0x700600>
    ADC0_COMMAND = 0x01;    //Start first conversion, after that it will run periodically.
     ba8:	c0 93 08 06 	sts	0x0608, r28	; 0x800608 <__TEXT_REGION_LENGTH__+0x700608>

    //Init ADC1 (buttons and sensors: CH0=Photo transistor, CH1=Hall, CH4=Buttons)
    ADC1_CTRLA   = 0;
     bac:	10 92 40 06 	sts	0x0640, r1	; 0x800640 <__TEXT_REGION_LENGTH__+0x700640>
    ADC1_CTRLB   = 0x02;    //4 results automatically accumulated
     bb0:	d0 93 41 06 	sts	0x0641, r29	; 0x800641 <__TEXT_REGION_LENGTH__+0x700641>
    ADC1_CTRLC   = 0x52;    //Reduced sample capacitor, VDD as reference, clock/8
     bb4:	82 e5       	ldi	r24, 0x52	; 82
     bb6:	80 93 42 06 	sts	0x0642, r24	; 0x800642 <__TEXT_REGION_LENGTH__+0x700642>
    ADC1_SAMPCTRL= 0x04;    //Extend sampling time with 4 cycles (6 total)
     bba:	84 e0       	ldi	r24, 0x04	; 4
     bbc:	80 93 45 06 	sts	0x0645, r24	; 0x800645 <__TEXT_REGION_LENGTH__+0x700645>
    ADC1_MUXPOS  = 0x04;    //Start with Buttons, for sensors, activate sensor power first.
     bc0:	80 93 46 06 	sts	0x0646, r24	; 0x800646 <__TEXT_REGION_LENGTH__+0x700646>
    ADC1_INTCTRL = 0x01;    //Result ready interrupt enabled
     bc4:	c0 93 4a 06 	sts	0x064A, r28	; 0x80064a <__TEXT_REGION_LENGTH__+0x70064a>
    ADC1_CTRLA  |= 0x01;    //ADC0 enabled
     bc8:	80 91 40 06 	lds	r24, 0x0640	; 0x800640 <__TEXT_REGION_LENGTH__+0x700640>
     bcc:	81 60       	ori	r24, 0x01	; 1
     bce:	80 93 40 06 	sts	0x0640, r24	; 0x800640 <__TEXT_REGION_LENGTH__+0x700640>
    ADC1_COMMAND = 0x01;    //Start single conversion
     bd2:	c0 93 48 06 	sts	0x0648, r28	; 0x800648 <__TEXT_REGION_LENGTH__+0x700648>

    //Init DAC0
    DAC0_CTRLA = 0x40;     //Enable output buffer (connect to pin)
     bd6:	80 e4       	ldi	r24, 0x40	; 64
     bd8:	80 93 a0 06 	sts	0x06A0, r24	; 0x8006a0 <__TEXT_REGION_LENGTH__+0x7006a0>
    DAC0_DATA = 0x80;      //Data value at half point (about 1.25V)
     bdc:	80 e8       	ldi	r24, 0x80	; 128
     bde:	80 93 a1 06 	sts	0x06A1, r24	; 0x8006a1 <__TEXT_REGION_LENGTH__+0x7006a1>
    DAC0_CTRLA |= 0x01;    //Enable DAC
     be2:	80 91 a0 06 	lds	r24, 0x06A0	; 0x8006a0 <__TEXT_REGION_LENGTH__+0x7006a0>
     be6:	81 60       	ori	r24, 0x01	; 1
     be8:	80 93 a0 06 	sts	0x06A0, r24	; 0x8006a0 <__TEXT_REGION_LENGTH__+0x7006a0>
     
    //PIT and RTC interrupts
    while(RTC_STATUS & RTC_CTRLABUSY_bm);
     bec:	80 91 41 01 	lds	r24, 0x0141	; 0x800141 <__TEXT_REGION_LENGTH__+0x700141>
     bf0:	80 fd       	sbrc	r24, 0
     bf2:	fc cf       	rjmp	.-8      	; 0xbec <Setup+0x15c>
    RTC_CTRLA          = (0x6)<<3;                         //Prescaler: /64
     bf4:	80 e3       	ldi	r24, 0x30	; 48
     bf6:	80 93 40 01 	sts	0x0140, r24	; 0x800140 <__TEXT_REGION_LENGTH__+0x700140>
    RTC_CLKSEL         = 0;                                //Clock source: internal 32768Hz clock
     bfa:	10 92 47 01 	sts	0x0147, r1	; 0x800147 <__TEXT_REGION_LENGTH__+0x700147>
    while(RTC_STATUS & RTC_PERBUSY_bm);
     bfe:	80 91 41 01 	lds	r24, 0x0141	; 0x800141 <__TEXT_REGION_LENGTH__+0x700141>
     c02:	82 fd       	sbrc	r24, 2
     c04:	fc cf       	rjmp	.-8      	; 0xbfe <Setup+0x16e>
    RTC_PER            = 512*60;                           //60 second period (for clocking how long the device has been running?)
     c06:	80 e0       	ldi	r24, 0x00	; 0
     c08:	98 e7       	ldi	r25, 0x78	; 120
     c0a:	80 93 4a 01 	sts	0x014A, r24	; 0x80014a <__TEXT_REGION_LENGTH__+0x70014a>
     c0e:	90 93 4b 01 	sts	0x014B, r25	; 0x80014b <__TEXT_REGION_LENGTH__+0x70014b>
    tmp16bit = (RTC_CNT + BTN_TMR);
     c12:	80 91 48 01 	lds	r24, 0x0148	; 0x800148 <__TEXT_REGION_LENGTH__+0x700148>
     c16:	90 91 49 01 	lds	r25, 0x0149	; 0x800149 <__TEXT_REGION_LENGTH__+0x700149>
     c1a:	82 96       	adiw	r24, 0x22	; 34
     c1c:	80 93 f7 3a 	sts	0x3AF7, r24	; 0x803af7 <tmp16bit>
     c20:	90 93 f8 3a 	sts	0x3AF8, r25	; 0x803af8 <tmp16bit+0x1>
    if (tmp16bit > RTC_PER) tmp16bit -= RTC_PER;
     c24:	20 91 4a 01 	lds	r18, 0x014A	; 0x80014a <__TEXT_REGION_LENGTH__+0x70014a>
     c28:	30 91 4b 01 	lds	r19, 0x014B	; 0x80014b <__TEXT_REGION_LENGTH__+0x70014b>
     c2c:	80 91 f7 3a 	lds	r24, 0x3AF7	; 0x803af7 <tmp16bit>
     c30:	90 91 f8 3a 	lds	r25, 0x3AF8	; 0x803af8 <tmp16bit+0x1>
     c34:	28 17       	cp	r18, r24
     c36:	39 07       	cpc	r19, r25
     c38:	70 f4       	brcc	.+28     	; 0xc56 <Setup+0x1c6>
     c3a:	20 91 4a 01 	lds	r18, 0x014A	; 0x80014a <__TEXT_REGION_LENGTH__+0x70014a>
     c3e:	30 91 4b 01 	lds	r19, 0x014B	; 0x80014b <__TEXT_REGION_LENGTH__+0x70014b>
     c42:	80 91 f7 3a 	lds	r24, 0x3AF7	; 0x803af7 <tmp16bit>
     c46:	90 91 f8 3a 	lds	r25, 0x3AF8	; 0x803af8 <tmp16bit+0x1>
     c4a:	82 1b       	sub	r24, r18
     c4c:	93 0b       	sbc	r25, r19
     c4e:	80 93 f7 3a 	sts	0x3AF7, r24	; 0x803af7 <tmp16bit>
     c52:	90 93 f8 3a 	sts	0x3AF8, r25	; 0x803af8 <tmp16bit+0x1>
    while(RTC_STATUS & RTC_CMPBUSY_bm);
     c56:	80 91 41 01 	lds	r24, 0x0141	; 0x800141 <__TEXT_REGION_LENGTH__+0x700141>
     c5a:	83 fd       	sbrc	r24, 3
     c5c:	fc cf       	rjmp	.-8      	; 0xc56 <Setup+0x1c6>
    RTC_CMP            = tmp16bit;                         //Button timing
     c5e:	80 91 f7 3a 	lds	r24, 0x3AF7	; 0x803af7 <tmp16bit>
     c62:	90 91 f8 3a 	lds	r25, 0x3AF8	; 0x803af8 <tmp16bit+0x1>
     c66:	80 93 4c 01 	sts	0x014C, r24	; 0x80014c <__TEXT_REGION_LENGTH__+0x70014c>
     c6a:	90 93 4d 01 	sts	0x014D, r25	; 0x80014d <__TEXT_REGION_LENGTH__+0x70014d>
    RTC_INTCTRL        = 0x03;                             //RTC overflow interrupt enabled
     c6e:	83 e0       	ldi	r24, 0x03	; 3
     c70:	80 93 42 01 	sts	0x0142, r24	; 0x800142 <__TEXT_REGION_LENGTH__+0x700142>
    RTC_PITINTCTRL     = 0x01;                             //PIT interrupt enabled
     c74:	81 e0       	ldi	r24, 0x01	; 1
     c76:	80 93 52 01 	sts	0x0152, r24	; 0x800152 <__TEXT_REGION_LENGTH__+0x700152>
    RTC_PITCTRLA       = (0x1)<<3;                         //Interrupt fires after 4 RTC clock cycles Rate=(RTCCLK/(PRESC*PERIOD)) 32768/256=128Hz
     c7a:	88 e0       	ldi	r24, 0x08	; 8
     c7c:	80 93 50 01 	sts	0x0150, r24	; 0x800150 <__TEXT_REGION_LENGTH__+0x700150>
    while(RTC_STATUS & RTC_CTRLABUSY_bm);      
     c80:	80 91 41 01 	lds	r24, 0x0141	; 0x800141 <__TEXT_REGION_LENGTH__+0x700141>
     c84:	80 fd       	sbrc	r24, 0
     c86:	fc cf       	rjmp	.-8      	; 0xc80 <Setup+0x1f0>
    RTC_CTRLA          |= 0x01;                            //Enable RTC
     c88:	80 91 40 01 	lds	r24, 0x0140	; 0x800140 <__TEXT_REGION_LENGTH__+0x700140>
     c8c:	81 60       	ori	r24, 0x01	; 1
     c8e:	80 93 40 01 	sts	0x0140, r24	; 0x800140 <__TEXT_REGION_LENGTH__+0x700140>
    RTC_PITCTRLA       |= 0x01;                            //Enable PIT
     c92:	80 91 50 01 	lds	r24, 0x0150	; 0x800150 <__TEXT_REGION_LENGTH__+0x700150>
     c96:	81 60       	ori	r24, 0x01	; 1
     c98:	80 93 50 01 	sts	0x0150, r24	; 0x800150 <__TEXT_REGION_LENGTH__+0x700150>
     
    //Other inits
    serRx[0] = 0;           // Empty Rx buffer (first char is enough)
     c9c:	10 92 75 3a 	sts	0x3A75, r1	; 0x803a75 <serRx>
    serTxAddr = &serRx[0];  // Point to first address of the Rx buffer
     ca0:	85 e7       	ldi	r24, 0x75	; 117
     ca2:	9a e3       	ldi	r25, 0x3A	; 58
     ca4:	80 93 b9 3a 	sts	0x3AB9, r24	; 0x803ab9 <serTxAddr>
     ca8:	90 93 ba 3a 	sts	0x3ABA, r25	; 0x803aba <serTxAddr+0x1>

    sei();
     cac:	78 94       	sei
}
     cae:	df 91       	pop	r29
     cb0:	cf 91       	pop	r28
     cb2:	08 95       	ret

00000cb4 <__vector_8>:

// TCA0 is used for driving the LED matrix at 488Hz (* 5 columns = 2440Hz). The lower 8 bit underflow interrupt is used to load new values and shift between columns.
ISR(TCA0_LUNF_vect){
     cb4:	1f 92       	push	r1
     cb6:	0f 92       	push	r0
     cb8:	0f b6       	in	r0, 0x3f	; 63
     cba:	0f 92       	push	r0
     cbc:	11 24       	eor	r1, r1
     cbe:	8f 93       	push	r24
     cc0:	9f 93       	push	r25
     cc2:	af 93       	push	r26
     cc4:	bf 93       	push	r27
     cc6:	ef 93       	push	r30
     cc8:	ff 93       	push	r31
    //Turn off all columns
    PORTC_OUTCLR = 0x07;
     cca:	87 e0       	ldi	r24, 0x07	; 7
     ccc:	80 93 46 04 	sts	0x0446, r24	; 0x800446 <__TEXT_REGION_LENGTH__+0x700446>
    PORTB_OUTCLR = 0x44;
     cd0:	84 e4       	ldi	r24, 0x44	; 68
     cd2:	80 93 26 04 	sts	0x0426, r24	; 0x800426 <__TEXT_REGION_LENGTH__+0x700426>
    "ldi r25, 6        \n"
    "ld r24, %a[arr]+  \n"
    "st %a[wo]+, r24   \n"
    "dec r25           \n"
    "brne .-8          \n"
    :: [wo] "e" (&TCA0_SPLIT_LCMP0), [arr] "e" (&iLED[(L_COL<<3)]) : "r25", "r24", "cc", "memory");
     cd6:	ec b3       	in	r30, 0x1c	; 28
     cd8:	88 e0       	ldi	r24, 0x08	; 8
     cda:	e8 9f       	mul	r30, r24
     cdc:	f0 01       	movw	r30, r0
     cde:	11 24       	eor	r1, r1
     ce0:	e6 53       	subi	r30, 0x36	; 54
     ce2:	f5 4c       	sbci	r31, 0xC5	; 197
    //Turn off all columns
    PORTC_OUTCLR = 0x07;
    PORTB_OUTCLR = 0x44;

    //Write all of the compare registers of TCA0 with PWM values in array (rows)
    asm(
     ce4:	a8 e2       	ldi	r26, 0x28	; 40
     ce6:	ba e0       	ldi	r27, 0x0A	; 10
     ce8:	96 e0       	ldi	r25, 0x06	; 6
     cea:	81 91       	ld	r24, Z+
     cec:	8d 93       	st	X+, r24
     cee:	9a 95       	dec	r25
     cf0:	e1 f7       	brne	.-8      	; 0xcea <__vector_8+0x36>
    "st %a[wo]+, r24   \n"
    "dec r25           \n"
    "brne .-8          \n"
    :: [wo] "e" (&TCA0_SPLIT_LCMP0), [arr] "e" (&iLED[(L_COL<<3)]) : "r25", "r24", "cc", "memory");

    TCA0_SPLIT_CTRLESET = ((0x2)<<2)|0x3; //Sync timers: Moved this below the PWM value loading to fix the data shifting in asm above.
     cf2:	8b e0       	ldi	r24, 0x0B	; 11
     cf4:	80 93 05 0a 	sts	0x0A05, r24	; 0x800a05 <__TEXT_REGION_LENGTH__+0x700a05>

    //Turn on the right column
    if (L_COL<3) {
     cf8:	8c b3       	in	r24, 0x1c	; 28
     cfa:	83 30       	cpi	r24, 0x03	; 3
     cfc:	58 f4       	brcc	.+22     	; 0xd14 <__vector_8+0x60>
        asm(
     cfe:	8c b3       	in	r24, 0x1c	; 28
     d00:	91 e0       	ldi	r25, 0x01	; 1
     d02:	01 c0       	rjmp	.+2      	; 0xd06 <__vector_8+0x52>
     d04:	99 0f       	add	r25, r25
     d06:	8a 95       	dec	r24
     d08:	ea f7       	brpl	.-6      	; 0xd04 <__vector_8+0x50>
     d0a:	99 b9       	out	0x09, r25	; 9
     d0c:	8c b3       	in	r24, 0x1c	; 28
     d0e:	83 95       	inc	r24
     d10:	8c bb       	out	0x1c, r24	; 28
     d12:	0a c0       	rjmp	.+20     	; 0xd28 <__vector_8+0x74>
        "in r24, %[io0]  \n"
        "inc r24         \n"
        "out %[io0], r24 \n"
        :: [io0] "I" (&L_COL), [vpc] "I" (&VPORTC_OUT) : "r24", "r25", "cc");
        } else {
        asm(
     d14:	8c b3       	in	r24, 0x1c	; 28
     d16:	83 30       	cpi	r24, 0x03	; 3
     d18:	21 f4       	brne	.+8      	; 0xd22 <__vector_8+0x6e>
     d1a:	2a 9a       	sbi	0x05, 2	; 5
     d1c:	83 95       	inc	r24
     d1e:	8c bb       	out	0x1c, r24	; 28
     d20:	03 c0       	rjmp	.+6      	; 0xd28 <__vector_8+0x74>
     d22:	2e 9a       	sbi	0x05, 6	; 5
     d24:	88 27       	eor	r24, r24
     d26:	8c bb       	out	0x1c, r24	; 28
        "clr r24         \n"
        "out %[io0], r24 \n"
        :: [io0] "I" (&L_COL), [vpb] "I" (&VPORTB_OUT) : "r24", "cc");
    }
    
    if(timeout_I2C) --timeout_I2C;
     d28:	80 91 60 3a 	lds	r24, 0x3A60	; 0x803a60 <timeout_I2C>
     d2c:	88 23       	and	r24, r24
     d2e:	29 f0       	breq	.+10     	; 0xd3a <__vector_8+0x86>
     d30:	80 91 60 3a 	lds	r24, 0x3A60	; 0x803a60 <timeout_I2C>
     d34:	81 50       	subi	r24, 0x01	; 1
     d36:	80 93 60 3a 	sts	0x3A60, r24	; 0x803a60 <timeout_I2C>
    TCA0_SPLIT_INTFLAGS = 0xFF;
     d3a:	8f ef       	ldi	r24, 0xFF	; 255
     d3c:	80 93 0b 0a 	sts	0x0A0B, r24	; 0x800a0b <__TEXT_REGION_LENGTH__+0x700a0b>
}
     d40:	ff 91       	pop	r31
     d42:	ef 91       	pop	r30
     d44:	bf 91       	pop	r27
     d46:	af 91       	pop	r26
     d48:	9f 91       	pop	r25
     d4a:	8f 91       	pop	r24
     d4c:	0f 90       	pop	r0
     d4e:	0f be       	out	0x3f, r0	; 63
     d50:	0f 90       	pop	r0
     d52:	1f 90       	pop	r1
     d54:	18 95       	reti

00000d56 <__vector_13>:

// TCB0 is used for (slowly) sending serial characters. A 0x00 character code is needed to terminate sending or it will leak memory to serial. It's a feature, honest! 
ISR(TCB0_INT_vect){
     d56:	1f 92       	push	r1
     d58:	0f 92       	push	r0
     d5a:	0f b6       	in	r0, 0x3f	; 63
     d5c:	0f 92       	push	r0
     d5e:	11 24       	eor	r1, r1
     d60:	8f 93       	push	r24
     d62:	9f 93       	push	r25
     d64:	ef 93       	push	r30
     d66:	ff 93       	push	r31
    if (*serTxAddr) {
     d68:	e0 91 b9 3a 	lds	r30, 0x3AB9	; 0x803ab9 <serTxAddr>
     d6c:	f0 91 ba 3a 	lds	r31, 0x3ABA	; 0x803aba <serTxAddr+0x1>
     d70:	80 81       	ld	r24, Z
     d72:	88 23       	and	r24, r24
     d74:	91 f0       	breq	.+36     	; 0xd9a <__vector_13+0x44>
        USART0_TXDATAL = *serTxAddr;
     d76:	80 81       	ld	r24, Z
     d78:	80 93 02 08 	sts	0x0802, r24	; 0x800802 <__TEXT_REGION_LENGTH__+0x700802>
        serTxAddr++;
     d7c:	80 91 b9 3a 	lds	r24, 0x3AB9	; 0x803ab9 <serTxAddr>
     d80:	90 91 ba 3a 	lds	r25, 0x3ABA	; 0x803aba <serTxAddr+0x1>
     d84:	01 96       	adiw	r24, 0x01	; 1
     d86:	80 93 b9 3a 	sts	0x3AB9, r24	; 0x803ab9 <serTxAddr>
     d8a:	90 93 ba 3a 	sts	0x3ABA, r25	; 0x803aba <serTxAddr+0x1>
        USART0_CTRLA |= USART_DREIE_bm;
     d8e:	80 91 05 08 	lds	r24, 0x0805	; 0x800805 <__TEXT_REGION_LENGTH__+0x700805>
     d92:	80 62       	ori	r24, 0x20	; 32
     d94:	80 93 05 08 	sts	0x0805, r24	; 0x800805 <__TEXT_REGION_LENGTH__+0x700805>
     d98:	05 c0       	rjmp	.+10     	; 0xda4 <__vector_13+0x4e>
    } else {
        serTxDone = 1;
     d9a:	81 e0       	ldi	r24, 0x01	; 1
     d9c:	80 93 09 38 	sts	0x3809, r24	; 0x803809 <serTxDone>
        TCB0_INTCTRL = 0x00;
     da0:	10 92 45 0a 	sts	0x0A45, r1	; 0x800a45 <__TEXT_REGION_LENGTH__+0x700a45>
    }
    TCB0_INTFLAGS = TCB_CAPT_bm;
     da4:	81 e0       	ldi	r24, 0x01	; 1
     da6:	80 93 46 0a 	sts	0x0A46, r24	; 0x800a46 <__TEXT_REGION_LENGTH__+0x700a46>
}
     daa:	ff 91       	pop	r31
     dac:	ef 91       	pop	r30
     dae:	9f 91       	pop	r25
     db0:	8f 91       	pop	r24
     db2:	0f 90       	pop	r0
     db4:	0f be       	out	0x3f, r0	; 63
     db6:	0f 90       	pop	r0
     db8:	1f 90       	pop	r1
     dba:	18 95       	reti

00000dbc <__vector_14>:

// TCB1 is used for audio generation. Keeps playing "data" until 0 is reached. Audio sample data can contain 0x01 to 0xFF, centered around 0x80
ISR(TCB1_INT_vect){
     dbc:	1f 92       	push	r1
     dbe:	0f 92       	push	r0
     dc0:	0f b6       	in	r0, 0x3f	; 63
     dc2:	0f 92       	push	r0
     dc4:	11 24       	eor	r1, r1
     dc6:	2f 93       	push	r18
     dc8:	3f 93       	push	r19
     dca:	4f 93       	push	r20
     dcc:	8f 93       	push	r24
     dce:	9f 93       	push	r25
     dd0:	ef 93       	push	r30
     dd2:	ff 93       	push	r31
    int16_t volCtrl;
    if (*auSmpAddr == 0) auSmpAddr = auRepAddr;
     dd4:	e0 91 05 38 	lds	r30, 0x3805	; 0x803805 <auSmpAddr>
     dd8:	f0 91 06 38 	lds	r31, 0x3806	; 0x803806 <auSmpAddr+0x1>
     ddc:	80 81       	ld	r24, Z
     dde:	81 11       	cpse	r24, r1
     de0:	08 c0       	rjmp	.+16     	; 0xdf2 <__vector_14+0x36>
     de2:	80 91 03 38 	lds	r24, 0x3803	; 0x803803 <auRepAddr>
     de6:	90 91 04 38 	lds	r25, 0x3804	; 0x803804 <auRepAddr+0x1>
     dea:	80 93 05 38 	sts	0x3805, r24	; 0x803805 <auSmpAddr>
     dee:	90 93 06 38 	sts	0x3806, r25	; 0x803806 <auSmpAddr+0x1>
    if (*auSmpAddr) {
     df2:	e0 91 05 38 	lds	r30, 0x3805	; 0x803805 <auSmpAddr>
     df6:	f0 91 06 38 	lds	r31, 0x3806	; 0x803806 <auSmpAddr+0x1>
     dfa:	80 81       	ld	r24, Z
     dfc:	88 23       	and	r24, r24
     dfe:	e1 f0       	breq	.+56     	; 0xe38 <__vector_14+0x7c>
        volCtrl = ((((int16_t)(*auSmpAddr) - 0x7f) * auVolume) >> 8) + 0x80;
     e00:	20 81       	ld	r18, Z
     e02:	40 91 b6 3a 	lds	r20, 0x3AB6	; 0x803ab6 <auVolume>
        DAC0_DATA = (uint8_t)(volCtrl);
     e06:	30 e0       	ldi	r19, 0x00	; 0
     e08:	2f 57       	subi	r18, 0x7F	; 127
     e0a:	31 09       	sbc	r19, r1
     e0c:	42 9f       	mul	r20, r18
     e0e:	c0 01       	movw	r24, r0
     e10:	43 9f       	mul	r20, r19
     e12:	90 0d       	add	r25, r0
     e14:	11 24       	eor	r1, r1
     e16:	89 2f       	mov	r24, r25
     e18:	99 0f       	add	r25, r25
     e1a:	99 0b       	sbc	r25, r25
     e1c:	80 58       	subi	r24, 0x80	; 128
     e1e:	9f 4f       	sbci	r25, 0xFF	; 255
     e20:	80 93 a1 06 	sts	0x06A1, r24	; 0x8006a1 <__TEXT_REGION_LENGTH__+0x7006a1>
        ++auSmpAddr;
     e24:	80 91 05 38 	lds	r24, 0x3805	; 0x803805 <auSmpAddr>
     e28:	90 91 06 38 	lds	r25, 0x3806	; 0x803806 <auSmpAddr+0x1>
     e2c:	01 96       	adiw	r24, 0x01	; 1
     e2e:	80 93 05 38 	sts	0x3805, r24	; 0x803805 <auSmpAddr>
     e32:	90 93 06 38 	sts	0x3806, r25	; 0x803806 <auSmpAddr+0x1>
     e36:	06 c0       	rjmp	.+12     	; 0xe44 <__vector_14+0x88>
    } else {
        DAC0_DATA = 0x80;
     e38:	80 e8       	ldi	r24, 0x80	; 128
     e3a:	80 93 a1 06 	sts	0x06A1, r24	; 0x8006a1 <__TEXT_REGION_LENGTH__+0x7006a1>
        auPlayDone = 1;
     e3e:	81 e0       	ldi	r24, 0x01	; 1
     e40:	80 93 f2 3a 	sts	0x3AF2, r24	; 0x803af2 <auPlayDone>
    }
    TCB1_INTFLAGS = TCB_CAPT_bm;
     e44:	81 e0       	ldi	r24, 0x01	; 1
     e46:	80 93 56 0a 	sts	0x0A56, r24	; 0x800a56 <__TEXT_REGION_LENGTH__+0x700a56>
}
     e4a:	ff 91       	pop	r31
     e4c:	ef 91       	pop	r30
     e4e:	9f 91       	pop	r25
     e50:	8f 91       	pop	r24
     e52:	4f 91       	pop	r20
     e54:	3f 91       	pop	r19
     e56:	2f 91       	pop	r18
     e58:	0f 90       	pop	r0
     e5a:	0f be       	out	0x3f, r0	; 63
     e5c:	0f 90       	pop	r0
     e5e:	1f 90       	pop	r1
     e60:	18 95       	reti

00000e62 <__vector_27>:

// Reads up to RXLEN characters until LF is found, LF sets the serRxDone flag and writes 0 instead of LF.
ISR(USART0_RXC_vect){
     e62:	1f 92       	push	r1
     e64:	0f 92       	push	r0
     e66:	0f b6       	in	r0, 0x3f	; 63
     e68:	0f 92       	push	r0
     e6a:	11 24       	eor	r1, r1
     e6c:	8f 93       	push	r24
     e6e:	ef 93       	push	r30
     e70:	ff 93       	push	r31
    if (serRxDone == 0){
     e72:	80 91 44 38 	lds	r24, 0x3844	; 0x803844 <serRxDone>
     e76:	81 11       	cpse	r24, r1
     e78:	44 c0       	rjmp	.+136    	; 0xf02 <__vector_27+0xa0>
        serRx[RXCNT] = USART0.RXDATAL;
     e7a:	ed b3       	in	r30, 0x1d	; 29
     e7c:	f0 e0       	ldi	r31, 0x00	; 0
     e7e:	80 91 00 08 	lds	r24, 0x0800	; 0x800800 <__TEXT_REGION_LENGTH__+0x700800>
     e82:	eb 58       	subi	r30, 0x8B	; 139
     e84:	f5 4c       	sbci	r31, 0xC5	; 197
     e86:	80 83       	st	Z, r24
        USART0_TXDATAL = serRx[RXCNT];
     e88:	ed b3       	in	r30, 0x1d	; 29
     e8a:	f0 e0       	ldi	r31, 0x00	; 0
     e8c:	eb 58       	subi	r30, 0x8B	; 139
     e8e:	f5 4c       	sbci	r31, 0xC5	; 197
     e90:	80 81       	ld	r24, Z
     e92:	80 93 02 08 	sts	0x0802, r24	; 0x800802 <__TEXT_REGION_LENGTH__+0x700802>
        if ((serRx[RXCNT] == 0x0A)||(serRx[RXCNT] == 0x0D)){
     e96:	ed b3       	in	r30, 0x1d	; 29
     e98:	f0 e0       	ldi	r31, 0x00	; 0
     e9a:	eb 58       	subi	r30, 0x8B	; 139
     e9c:	f5 4c       	sbci	r31, 0xC5	; 197
     e9e:	80 81       	ld	r24, Z
     ea0:	8a 30       	cpi	r24, 0x0A	; 10
     ea2:	39 f0       	breq	.+14     	; 0xeb2 <__vector_27+0x50>
     ea4:	ed b3       	in	r30, 0x1d	; 29
     ea6:	f0 e0       	ldi	r31, 0x00	; 0
     ea8:	eb 58       	subi	r30, 0x8B	; 139
     eaa:	f5 4c       	sbci	r31, 0xC5	; 197
     eac:	80 81       	ld	r24, Z
     eae:	8d 30       	cpi	r24, 0x0D	; 13
     eb0:	49 f4       	brne	.+18     	; 0xec4 <__vector_27+0x62>
            serRx[RXCNT] = 0;
     eb2:	ed b3       	in	r30, 0x1d	; 29
     eb4:	f0 e0       	ldi	r31, 0x00	; 0
     eb6:	eb 58       	subi	r30, 0x8B	; 139
     eb8:	f5 4c       	sbci	r31, 0xC5	; 197
     eba:	10 82       	st	Z, r1
            serRxDone = 1;
     ebc:	81 e0       	ldi	r24, 0x01	; 1
     ebe:	80 93 44 38 	sts	0x3844, r24	; 0x803844 <serRxDone>
     ec2:	1f c0       	rjmp	.+62     	; 0xf02 <__vector_27+0xa0>
        } else if (((serRx[RXCNT] == 0x08)||(serRx[RXCNT] == 0x7F))&&(RXCNT > 0)) {
     ec4:	ed b3       	in	r30, 0x1d	; 29
     ec6:	f0 e0       	ldi	r31, 0x00	; 0
     ec8:	eb 58       	subi	r30, 0x8B	; 139
     eca:	f5 4c       	sbci	r31, 0xC5	; 197
     ecc:	80 81       	ld	r24, Z
     ece:	88 30       	cpi	r24, 0x08	; 8
     ed0:	39 f0       	breq	.+14     	; 0xee0 <__vector_27+0x7e>
     ed2:	ed b3       	in	r30, 0x1d	; 29
     ed4:	f0 e0       	ldi	r31, 0x00	; 0
     ed6:	eb 58       	subi	r30, 0x8B	; 139
     ed8:	f5 4c       	sbci	r31, 0xC5	; 197
     eda:	80 81       	ld	r24, Z
     edc:	8f 37       	cpi	r24, 0x7F	; 127
     ede:	59 f4       	brne	.+22     	; 0xef6 <__vector_27+0x94>
     ee0:	8d b3       	in	r24, 0x1d	; 29
     ee2:	88 23       	and	r24, r24
     ee4:	41 f0       	breq	.+16     	; 0xef6 <__vector_27+0x94>
            serRx[RXCNT] = 0;
     ee6:	ed b3       	in	r30, 0x1d	; 29
     ee8:	f0 e0       	ldi	r31, 0x00	; 0
     eea:	eb 58       	subi	r30, 0x8B	; 139
     eec:	f5 4c       	sbci	r31, 0xC5	; 197
     eee:	10 82       	st	Z, r1
            --RXCNT;
     ef0:	8d b3       	in	r24, 0x1d	; 29
     ef2:	81 50       	subi	r24, 0x01	; 1
     ef4:	05 c0       	rjmp	.+10     	; 0xf00 <__vector_27+0x9e>
        } else if (RXCNT < (RXLEN-1)) ++RXCNT;
     ef6:	8d b3       	in	r24, 0x1d	; 29
     ef8:	80 34       	cpi	r24, 0x40	; 64
     efa:	18 f4       	brcc	.+6      	; 0xf02 <__vector_27+0xa0>
     efc:	8d b3       	in	r24, 0x1d	; 29
     efe:	8f 5f       	subi	r24, 0xFF	; 255
     f00:	8d bb       	out	0x1d, r24	; 29
    }
    USART0_STATUS = USART_RXCIF_bm;
     f02:	80 e8       	ldi	r24, 0x80	; 128
     f04:	80 93 04 08 	sts	0x0804, r24	; 0x800804 <__TEXT_REGION_LENGTH__+0x700804>
};
     f08:	ff 91       	pop	r31
     f0a:	ef 91       	pop	r30
     f0c:	8f 91       	pop	r24
     f0e:	0f 90       	pop	r0
     f10:	0f be       	out	0x3f, r0	; 63
     f12:	0f 90       	pop	r0
     f14:	1f 90       	pop	r1
     f16:	18 95       	reti

00000f18 <__vector_28>:

// Trigger new data write and turn off DRE interrupt.
ISR(USART0_DRE_vect){
     f18:	1f 92       	push	r1
     f1a:	0f 92       	push	r0
     f1c:	0f b6       	in	r0, 0x3f	; 63
     f1e:	0f 92       	push	r0
     f20:	11 24       	eor	r1, r1
     f22:	8f 93       	push	r24
     f24:	ef 93       	push	r30
     f26:	ff 93       	push	r31
    TCB0_CNT = 0;
     f28:	10 92 4a 0a 	sts	0x0A4A, r1	; 0x800a4a <__TEXT_REGION_LENGTH__+0x700a4a>
     f2c:	10 92 4b 0a 	sts	0x0A4B, r1	; 0x800a4b <__TEXT_REGION_LENGTH__+0x700a4b>
    TCB0_INTCTRL = 0x01;
     f30:	81 e0       	ldi	r24, 0x01	; 1
     f32:	80 93 45 0a 	sts	0x0A45, r24	; 0x800a45 <__TEXT_REGION_LENGTH__+0x700a45>
    USART0_CTRLA &= ~(USART_DREIE_bm);
     f36:	e5 e0       	ldi	r30, 0x05	; 5
     f38:	f8 e0       	ldi	r31, 0x08	; 8
     f3a:	80 81       	ld	r24, Z
     f3c:	8f 7d       	andi	r24, 0xDF	; 223
     f3e:	80 83       	st	Z, r24
};
     f40:	ff 91       	pop	r31
     f42:	ef 91       	pop	r30
     f44:	8f 91       	pop	r24
     f46:	0f 90       	pop	r0
     f48:	0f be       	out	0x3f, r0	; 63
     f4a:	0f 90       	pop	r0
     f4c:	1f 90       	pop	r1
     f4e:	18 95       	reti

00000f50 <__vector_20>:

// ADC used for audio input and temperature sensor.
ISR(ADC0_RESRDY_vect){
     f50:	1f 92       	push	r1
     f52:	0f 92       	push	r0
     f54:	0f b6       	in	r0, 0x3f	; 63
     f56:	0f 92       	push	r0
     f58:	11 24       	eor	r1, r1
     f5a:	8f 93       	push	r24
     f5c:	9f 93       	push	r25
     f5e:	ef 93       	push	r30
     f60:	ff 93       	push	r31
    //If just switched reference, discard first few samples
    if (adc0Chg == 0){
     f62:	80 91 37 38 	lds	r24, 0x3837	; 0x803837 <adc0Chg>
     f66:	81 11       	cpse	r24, r1
     f68:	19 c0       	rjmp	.+50     	; 0xf9c <__vector_20+0x4c>
        AUPOS = (AUPOS+1)&(AULEN-1);
     f6a:	8e b3       	in	r24, 0x1e	; 30
     f6c:	8f 5f       	subi	r24, 0xFF	; 255
     f6e:	87 70       	andi	r24, 0x07	; 7
     f70:	8e bb       	out	0x1e, r24	; 30
        if (ADC0_MUXPOS == 0x1E) adcTemp = ADC0_RES; else auIn[AUPOS]=ADC0_RESL;
     f72:	80 91 06 06 	lds	r24, 0x0606	; 0x800606 <__TEXT_REGION_LENGTH__+0x700606>
     f76:	8e 31       	cpi	r24, 0x1E	; 30
     f78:	49 f4       	brne	.+18     	; 0xf8c <__vector_20+0x3c>
     f7a:	80 91 10 06 	lds	r24, 0x0610	; 0x800610 <__TEXT_REGION_LENGTH__+0x700610>
     f7e:	90 91 11 06 	lds	r25, 0x0611	; 0x800611 <__TEXT_REGION_LENGTH__+0x700611>
     f82:	80 93 f5 3a 	sts	0x3AF5, r24	; 0x803af5 <adcTemp>
     f86:	90 93 f6 3a 	sts	0x3AF6, r25	; 0x803af6 <adcTemp+0x1>
     f8a:	0d c0       	rjmp	.+26     	; 0xfa6 <__vector_20+0x56>
     f8c:	ee b3       	in	r30, 0x1e	; 30
     f8e:	f0 e0       	ldi	r31, 0x00	; 0
     f90:	80 91 10 06 	lds	r24, 0x0610	; 0x800610 <__TEXT_REGION_LENGTH__+0x700610>
     f94:	ee 53       	subi	r30, 0x3E	; 62
     f96:	f5 4c       	sbci	r31, 0xC5	; 197
     f98:	80 83       	st	Z, r24
     f9a:	05 c0       	rjmp	.+10     	; 0xfa6 <__vector_20+0x56>
    } else --adc0Chg;
     f9c:	80 91 37 38 	lds	r24, 0x3837	; 0x803837 <adc0Chg>
     fa0:	81 50       	subi	r24, 0x01	; 1
     fa2:	80 93 37 38 	sts	0x3837, r24	; 0x803837 <adc0Chg>
    ADC0_INTFLAGS = ADC_RESRDY_bm;
     fa6:	81 e0       	ldi	r24, 0x01	; 1
     fa8:	80 93 0b 06 	sts	0x060B, r24	; 0x80060b <__TEXT_REGION_LENGTH__+0x70060b>
}
     fac:	ff 91       	pop	r31
     fae:	ef 91       	pop	r30
     fb0:	9f 91       	pop	r25
     fb2:	8f 91       	pop	r24
     fb4:	0f 90       	pop	r0
     fb6:	0f be       	out	0x3f, r0	; 63
     fb8:	0f 90       	pop	r0
     fba:	1f 90       	pop	r1
     fbc:	18 95       	reti

00000fbe <__vector_22>:

// Reads out sensors at 8Hz and buttons at 42Hz (timed by PIT), power for the sensors is on 1/8th of the time to save power.
ISR(ADC1_RESRDY_vect){
     fbe:	1f 92       	push	r1
     fc0:	0f 92       	push	r0
     fc2:	0f b6       	in	r0, 0x3f	; 63
     fc4:	0f 92       	push	r0
     fc6:	11 24       	eor	r1, r1
     fc8:	8f 93       	push	r24
     fca:	9f 93       	push	r25
    if (ADC1_MUXPOS == 0) {
     fcc:	80 91 46 06 	lds	r24, 0x0646	; 0x800646 <__TEXT_REGION_LENGTH__+0x700646>
     fd0:	81 11       	cpse	r24, r1
     fd2:	0a c0       	rjmp	.+20     	; 0xfe8 <__vector_22+0x2a>
        adcPhot = ADC1_RES;
     fd4:	80 91 50 06 	lds	r24, 0x0650	; 0x800650 <__TEXT_REGION_LENGTH__+0x700650>
     fd8:	90 91 51 06 	lds	r25, 0x0651	; 0x800651 <__TEXT_REGION_LENGTH__+0x700651>
     fdc:	80 93 bd 3a 	sts	0x3ABD, r24	; 0x803abd <adcPhot>
     fe0:	90 93 be 3a 	sts	0x3ABE, r25	; 0x803abe <adcPhot+0x1>
        ADC1_MUXPOS = 0x01;             //Select Hall sensor
     fe4:	81 e0       	ldi	r24, 0x01	; 1
     fe6:	10 c0       	rjmp	.+32     	; 0x1008 <__vector_22+0x4a>
    } else if (ADC1_MUXPOS == 1){
     fe8:	80 91 46 06 	lds	r24, 0x0646	; 0x800646 <__TEXT_REGION_LENGTH__+0x700646>
     fec:	81 30       	cpi	r24, 0x01	; 1
     fee:	79 f4       	brne	.+30     	; 0x100e <__vector_22+0x50>
        PORTA_OUTCLR = 0b00001000;      //Turn off sensor power
     ff0:	88 e0       	ldi	r24, 0x08	; 8
     ff2:	80 93 06 04 	sts	0x0406, r24	; 0x800406 <__TEXT_REGION_LENGTH__+0x700406>
        adcHall = ADC1_RES;
     ff6:	80 91 50 06 	lds	r24, 0x0650	; 0x800650 <__TEXT_REGION_LENGTH__+0x700650>
     ffa:	90 91 51 06 	lds	r25, 0x0651	; 0x800651 <__TEXT_REGION_LENGTH__+0x700651>
     ffe:	80 93 bb 3a 	sts	0x3ABB, r24	; 0x803abb <adcHall>
    1002:	90 93 bc 3a 	sts	0x3ABC, r25	; 0x803abc <adcHall+0x1>
        ADC1_MUXPOS = 0x04;             //select buttons
    1006:	84 e0       	ldi	r24, 0x04	; 4
    1008:	80 93 46 06 	sts	0x0646, r24	; 0x800646 <__TEXT_REGION_LENGTH__+0x700646>
    100c:	10 c0       	rjmp	.+32     	; 0x102e <__vector_22+0x70>
    } else {
        adcBtns = ADC1_RES;
    100e:	80 91 50 06 	lds	r24, 0x0650	; 0x800650 <__TEXT_REGION_LENGTH__+0x700650>
    1012:	90 91 51 06 	lds	r25, 0x0651	; 0x800651 <__TEXT_REGION_LENGTH__+0x700651>
    1016:	80 93 b7 3a 	sts	0x3AB7, r24	; 0x803ab7 <adcBtns>
    101a:	90 93 b8 3a 	sts	0x3AB8, r25	; 0x803ab8 <adcBtns+0x1>
        if (A1CNT == 15){
    101e:	8f b3       	in	r24, 0x1f	; 31
    1020:	8f 30       	cpi	r24, 0x0F	; 15
    1022:	29 f4       	brne	.+10     	; 0x102e <__vector_22+0x70>
            ADC1_MUXPOS = 0x00;         //Select photo transistor
    1024:	10 92 46 06 	sts	0x0646, r1	; 0x800646 <__TEXT_REGION_LENGTH__+0x700646>
            PORTA_OUTSET = 0b00001000;  //Turn on sensor power
    1028:	88 e0       	ldi	r24, 0x08	; 8
    102a:	80 93 05 04 	sts	0x0405, r24	; 0x800405 <__TEXT_REGION_LENGTH__+0x700405>
        }
    }

    A1CNT=(A1CNT+1)%16;        
    102e:	8f b3       	in	r24, 0x1f	; 31
    1030:	90 e0       	ldi	r25, 0x00	; 0
    1032:	01 96       	adiw	r24, 0x01	; 1
    1034:	8f 70       	andi	r24, 0x0F	; 15
    1036:	99 27       	eor	r25, r25
    1038:	8f bb       	out	0x1f, r24	; 31
    ADC1_INTFLAGS = ADC_RESRDY_bm;
    103a:	81 e0       	ldi	r24, 0x01	; 1
    103c:	80 93 4b 06 	sts	0x064B, r24	; 0x80064b <__TEXT_REGION_LENGTH__+0x70064b>
}
    1040:	9f 91       	pop	r25
    1042:	8f 91       	pop	r24
    1044:	0f 90       	pop	r0
    1046:	0f be       	out	0x3f, r0	; 63
    1048:	0f 90       	pop	r0
    104a:	1f 90       	pop	r1
    104c:	18 95       	reti

0000104e <__vector_6>:

// RTC compare interrupt, triggers at 512/BTN_TMR rate, also RTC overflow interrupt, triggers once a minute
ISR(RTC_CNT_vect) {
    104e:	1f 92       	push	r1
    1050:	0f 92       	push	r0
    1052:	0f b6       	in	r0, 0x3f	; 63
    1054:	0f 92       	push	r0
    1056:	11 24       	eor	r1, r1
    1058:	2f 93       	push	r18
    105a:	3f 93       	push	r19
    105c:	8f 93       	push	r24
    105e:	9f 93       	push	r25
    if (RTC_INTFLAGS & RTC_CMP_bm){
    1060:	80 91 43 01 	lds	r24, 0x0143	; 0x800143 <__TEXT_REGION_LENGTH__+0x700143>
    1064:	81 ff       	sbrs	r24, 1
    1066:	39 c0       	rjmp	.+114    	; 0x10da <__vector_6+0x8c>
        if (buttonMark<0xff) buttonMark++;   // For button timing purposes
    1068:	80 91 42 38 	lds	r24, 0x3842	; 0x803842 <buttonMark>
    106c:	8f 3f       	cpi	r24, 0xFF	; 255
    106e:	29 f0       	breq	.+10     	; 0x107a <__vector_6+0x2c>
    1070:	80 91 42 38 	lds	r24, 0x3842	; 0x803842 <buttonMark>
    1074:	8f 5f       	subi	r24, 0xFF	; 255
    1076:	80 93 42 38 	sts	0x3842, r24	; 0x803842 <buttonMark>
        //tmp16bit = (RTC_CNT + BTN_TMR)%RTC_PER;
        tmp16bit = (RTC_CNT + BTN_TMR);
    107a:	80 91 48 01 	lds	r24, 0x0148	; 0x800148 <__TEXT_REGION_LENGTH__+0x700148>
    107e:	90 91 49 01 	lds	r25, 0x0149	; 0x800149 <__TEXT_REGION_LENGTH__+0x700149>
    1082:	82 96       	adiw	r24, 0x22	; 34
    1084:	80 93 f7 3a 	sts	0x3AF7, r24	; 0x803af7 <tmp16bit>
    1088:	90 93 f8 3a 	sts	0x3AF8, r25	; 0x803af8 <tmp16bit+0x1>
        if (tmp16bit > RTC_PER) tmp16bit -= RTC_PER;
    108c:	20 91 4a 01 	lds	r18, 0x014A	; 0x80014a <__TEXT_REGION_LENGTH__+0x70014a>
    1090:	30 91 4b 01 	lds	r19, 0x014B	; 0x80014b <__TEXT_REGION_LENGTH__+0x70014b>
    1094:	80 91 f7 3a 	lds	r24, 0x3AF7	; 0x803af7 <tmp16bit>
    1098:	90 91 f8 3a 	lds	r25, 0x3AF8	; 0x803af8 <tmp16bit+0x1>
    109c:	28 17       	cp	r18, r24
    109e:	39 07       	cpc	r19, r25
    10a0:	70 f4       	brcc	.+28     	; 0x10be <__vector_6+0x70>
    10a2:	20 91 4a 01 	lds	r18, 0x014A	; 0x80014a <__TEXT_REGION_LENGTH__+0x70014a>
    10a6:	30 91 4b 01 	lds	r19, 0x014B	; 0x80014b <__TEXT_REGION_LENGTH__+0x70014b>
    10aa:	80 91 f7 3a 	lds	r24, 0x3AF7	; 0x803af7 <tmp16bit>
    10ae:	90 91 f8 3a 	lds	r25, 0x3AF8	; 0x803af8 <tmp16bit+0x1>
    10b2:	82 1b       	sub	r24, r18
    10b4:	93 0b       	sbc	r25, r19
    10b6:	80 93 f7 3a 	sts	0x3AF7, r24	; 0x803af7 <tmp16bit>
    10ba:	90 93 f8 3a 	sts	0x3AF8, r25	; 0x803af8 <tmp16bit+0x1>
        while(RTC_STATUS & RTC_CMPBUSY_bm);
    10be:	80 91 41 01 	lds	r24, 0x0141	; 0x800141 <__TEXT_REGION_LENGTH__+0x700141>
    10c2:	83 fd       	sbrc	r24, 3
    10c4:	fc cf       	rjmp	.-8      	; 0x10be <__vector_6+0x70>
        RTC_CMP = tmp16bit;                 // Button timing: next interrupt set
    10c6:	80 91 f7 3a 	lds	r24, 0x3AF7	; 0x803af7 <tmp16bit>
    10ca:	90 91 f8 3a 	lds	r25, 0x3AF8	; 0x803af8 <tmp16bit+0x1>
    10ce:	80 93 4c 01 	sts	0x014C, r24	; 0x80014c <__TEXT_REGION_LENGTH__+0x70014c>
    10d2:	90 93 4d 01 	sts	0x014D, r25	; 0x80014d <__TEXT_REGION_LENGTH__+0x70014d>
        RTC_INTFLAGS = RTC_CMP_bm;		    // clear interrupt flag
    10d6:	82 e0       	ldi	r24, 0x02	; 2
    10d8:	06 c0       	rjmp	.+12     	; 0x10e6 <__vector_6+0x98>
    } else {
        minuteMark++;                       // For very slow timing purposes, overflows to 0
    10da:	80 91 43 38 	lds	r24, 0x3843	; 0x803843 <minuteMark>
    10de:	8f 5f       	subi	r24, 0xFF	; 255
    10e0:	80 93 43 38 	sts	0x3843, r24	; 0x803843 <minuteMark>
        RTC_INTFLAGS = RTC_OVF_bm;		    // clear interrupt flag
    10e4:	81 e0       	ldi	r24, 0x01	; 1
    10e6:	80 93 43 01 	sts	0x0143, r24	; 0x800143 <__TEXT_REGION_LENGTH__+0x700143>
    }
}
    10ea:	9f 91       	pop	r25
    10ec:	8f 91       	pop	r24
    10ee:	3f 91       	pop	r19
    10f0:	2f 91       	pop	r18
    10f2:	0f 90       	pop	r0
    10f4:	0f be       	out	0x3f, r0	; 63
    10f6:	0f 90       	pop	r0
    10f8:	1f 90       	pop	r1
    10fa:	18 95       	reti

000010fc <__vector_7>:

// PIT interrupt (timing of ADC1: sensor values)
ISR(RTC_PIT_vect) {						// PIT interrupt handling code
    10fc:	1f 92       	push	r1
    10fe:	0f 92       	push	r0
    1100:	0f b6       	in	r0, 0x3f	; 63
    1102:	0f 92       	push	r0
    1104:	11 24       	eor	r1, r1
    1106:	8f 93       	push	r24
    ADC1_COMMAND = 0x01;
    1108:	81 e0       	ldi	r24, 0x01	; 1
    110a:	80 93 48 06 	sts	0x0648, r24	; 0x800648 <__TEXT_REGION_LENGTH__+0x700648>
    RTC_PITINTFLAGS = RTC_PI_bm;		// clear interrupt flag
    110e:	80 93 53 01 	sts	0x0153, r24	; 0x800153 <__TEXT_REGION_LENGTH__+0x700153>
}
    1112:	8f 91       	pop	r24
    1114:	0f 90       	pop	r0
    1116:	0f be       	out	0x3f, r0	; 63
    1118:	0f 90       	pop	r0
    111a:	1f 90       	pop	r1
    111c:	18 95       	reti

0000111e <EERead>:

// Read bytes from EEPROM
void EERead(uint8_t eeAddr, uint8_t *eeValues, uint8_t size)
{
    while(NVMCTRL_STATUS & NVMCTRL_EEBUSY_bm);              // Wait until any write operation has finished
    111e:	90 91 02 10 	lds	r25, 0x1002	; 0x801002 <__TEXT_REGION_LENGTH__+0x701002>
    1122:	91 fd       	sbrc	r25, 1
    1124:	fc cf       	rjmp	.-8      	; 0x111e <EERead>
    1126:	fb 01       	movw	r30, r22
    1128:	48 0f       	add	r20, r24

    while(size){
    112a:	84 17       	cp	r24, r20
    112c:	39 f0       	breq	.+14     	; 0x113c <EERead+0x1e>
        *eeValues++ = *(uint8_t *)(EEPROM_START+eeAddr++);  // Read data from buffer
    112e:	a8 2f       	mov	r26, r24
    1130:	b0 e0       	ldi	r27, 0x00	; 0
    1132:	bc 5e       	subi	r27, 0xEC	; 236
    1134:	9c 91       	ld	r25, X
    1136:	91 93       	st	Z+, r25
    1138:	8f 5f       	subi	r24, 0xFF	; 255
    113a:	f7 cf       	rjmp	.-18     	; 0x112a <EERead+0xc>
        --size;
    }
}
    113c:	08 95       	ret

0000113e <EEWrite>:
{
    uint8_t lastByteOfPage;
    while(size){
        lastByteOfPage = 0;
        while(NVMCTRL_STATUS & NVMCTRL_EEBUSY_bm);              // Wait until any write operation has finished
        CCP = CCP_SPM_gc;                                       // Gain access to NVMCTRL_CTRLA
    113e:	9d e9       	ldi	r25, 0x9D	; 157
        NVMCTRL_CTRLA = NVMCTRL_CMD_PAGEBUFCLR_gc;              // Clear page buffer
    1140:	24 e0       	ldi	r18, 0x04	; 4
            if ((eeAddr % EEPROM_PAGE_SIZE) == (EEPROM_PAGE_SIZE-1)) lastByteOfPage = 1;
            *(uint8_t *)(EEPROM_START+eeAddr++) = *eeValues++;  // Write data to buffer
            --size;
        }
        CCP = CCP_SPM_gc;
        NVMCTRL_CTRLA = NVMCTRL_CMD_PAGEERASEWRITE_gc;          // Erase old data and write new data to EEPROM
    1142:	33 e0       	ldi	r19, 0x03	; 3

// Write bytes to the EEPROM, if address exceeds EEPROM space data wraps around
uint8_t EEWrite(uint8_t eeAddr, uint8_t *eeValues, uint8_t size)
{
    uint8_t lastByteOfPage;
    while(size){
    1144:	44 23       	and	r20, r20
    1146:	09 f1       	breq	.+66     	; 0x118a <EEWrite+0x4c>
        lastByteOfPage = 0;
        while(NVMCTRL_STATUS & NVMCTRL_EEBUSY_bm);              // Wait until any write operation has finished
    1148:	50 91 02 10 	lds	r21, 0x1002	; 0x801002 <__TEXT_REGION_LENGTH__+0x701002>
    114c:	51 fd       	sbrc	r21, 1
    114e:	fc cf       	rjmp	.-8      	; 0x1148 <EEWrite+0xa>
        CCP = CCP_SPM_gc;                                       // Gain access to NVMCTRL_CTRLA
    1150:	94 bf       	out	0x34, r25	; 52
        NVMCTRL_CTRLA = NVMCTRL_CMD_PAGEBUFCLR_gc;              // Clear page buffer
    1152:	20 93 00 10 	sts	0x1000, r18	; 0x801000 <__TEXT_REGION_LENGTH__+0x701000>
    1156:	e8 2f       	mov	r30, r24
        while((size) && (lastByteOfPage == 0)){
            if ((eeAddr % EEPROM_PAGE_SIZE) == (EEPROM_PAGE_SIZE-1)) lastByteOfPage = 1;
    1158:	58 2f       	mov	r21, r24
    115a:	5f 71       	andi	r21, 0x1F	; 31
            *(uint8_t *)(EEPROM_START+eeAddr++) = *eeValues++;  // Write data to buffer
    115c:	8f 5f       	subi	r24, 0xFF	; 255
    115e:	6f 5f       	subi	r22, 0xFF	; 255
    1160:	7f 4f       	sbci	r23, 0xFF	; 255
    1162:	db 01       	movw	r26, r22
    1164:	11 97       	sbiw	r26, 0x01	; 1
    1166:	ac 91       	ld	r26, X
    1168:	f0 e0       	ldi	r31, 0x00	; 0
    116a:	fc 5e       	subi	r31, 0xEC	; 236
    116c:	a0 83       	st	Z, r26
            --size;
    116e:	41 50       	subi	r20, 0x01	; 1
    while(size){
        lastByteOfPage = 0;
        while(NVMCTRL_STATUS & NVMCTRL_EEBUSY_bm);              // Wait until any write operation has finished
        CCP = CCP_SPM_gc;                                       // Gain access to NVMCTRL_CTRLA
        NVMCTRL_CTRLA = NVMCTRL_CMD_PAGEBUFCLR_gc;              // Clear page buffer
        while((size) && (lastByteOfPage == 0)){
    1170:	19 f0       	breq	.+6      	; 0x1178 <EEWrite+0x3a>
            if ((eeAddr % EEPROM_PAGE_SIZE) == (EEPROM_PAGE_SIZE-1)) lastByteOfPage = 1;
            *(uint8_t *)(EEPROM_START+eeAddr++) = *eeValues++;  // Write data to buffer
    1172:	e8 2f       	mov	r30, r24
    while(size){
        lastByteOfPage = 0;
        while(NVMCTRL_STATUS & NVMCTRL_EEBUSY_bm);              // Wait until any write operation has finished
        CCP = CCP_SPM_gc;                                       // Gain access to NVMCTRL_CTRLA
        NVMCTRL_CTRLA = NVMCTRL_CMD_PAGEBUFCLR_gc;              // Clear page buffer
        while((size) && (lastByteOfPage == 0)){
    1174:	5f 31       	cpi	r21, 0x1F	; 31
    1176:	81 f7       	brne	.-32     	; 0x1158 <EEWrite+0x1a>
            if ((eeAddr % EEPROM_PAGE_SIZE) == (EEPROM_PAGE_SIZE-1)) lastByteOfPage = 1;
            *(uint8_t *)(EEPROM_START+eeAddr++) = *eeValues++;  // Write data to buffer
            --size;
        }
        CCP = CCP_SPM_gc;
    1178:	94 bf       	out	0x34, r25	; 52
        NVMCTRL_CTRLA = NVMCTRL_CMD_PAGEERASEWRITE_gc;          // Erase old data and write new data to EEPROM
    117a:	30 93 00 10 	sts	0x1000, r19	; 0x801000 <__TEXT_REGION_LENGTH__+0x701000>
        if (NVMCTRL_STATUS & NVMCTRL_WRERROR_bm) return 1;
    117e:	50 91 02 10 	lds	r21, 0x1002	; 0x801002 <__TEXT_REGION_LENGTH__+0x701002>
    1182:	52 ff       	sbrs	r21, 2
    1184:	df cf       	rjmp	.-66     	; 0x1144 <EEWrite+0x6>
    1186:	81 e0       	ldi	r24, 0x01	; 1
    }
    return 0;
}
    1188:	08 95       	ret
        }
        CCP = CCP_SPM_gc;
        NVMCTRL_CTRLA = NVMCTRL_CMD_PAGEERASEWRITE_gc;          // Erase old data and write new data to EEPROM
        if (NVMCTRL_STATUS & NVMCTRL_WRERROR_bm) return 1;
    }
    return 0;
    118a:	80 e0       	ldi	r24, 0x00	; 0
    118c:	08 95       	ret

0000118e <SerSend>:
}

// Sends a set of characters to the serial port, stops only when character value 0 is reached.
uint8_t SerSend(unsigned char *addr){
    if (serTxDone){
    118e:	20 91 09 38 	lds	r18, 0x3809	; 0x803809 <serTxDone>
    1192:	22 23       	and	r18, r18
    1194:	59 f0       	breq	.+22     	; 0x11ac <SerSend+0x1e>
        serTxAddr = addr;
    1196:	80 93 b9 3a 	sts	0x3AB9, r24	; 0x803ab9 <serTxAddr>
    119a:	90 93 ba 3a 	sts	0x3ABA, r25	; 0x803aba <serTxAddr+0x1>
        serTxDone = 0;
    119e:	10 92 09 38 	sts	0x3809, r1	; 0x803809 <serTxDone>
        TCB0_INTCTRL = 0x01;
    11a2:	81 e0       	ldi	r24, 0x01	; 1
    11a4:	80 93 45 0a 	sts	0x0A45, r24	; 0x800a45 <__TEXT_REGION_LENGTH__+0x700a45>
        return 0;
    11a8:	80 e0       	ldi	r24, 0x00	; 0
    11aa:	08 95       	ret
    } else return 1;    //Error: Still sending data
    11ac:	81 e0       	ldi	r24, 0x01	; 1
};
    11ae:	08 95       	ret

000011b0 <SerSpeed>:

// Set serial character output speed, 255-0 (0.8 to 100ms delay between characters)
void SerSpeed(uint8_t serSpd){
    11b0:	28 2f       	mov	r18, r24
    if (serSpd<1) serSpd = 1;
    11b2:	81 11       	cpse	r24, r1
    11b4:	01 c0       	rjmp	.+2      	; 0x11b8 <SerSpeed+0x8>
    11b6:	21 e0       	ldi	r18, 0x01	; 1
    TCB0_CCMP = ((uint16_t)(0xFF-serSpd)<<8) + 0xFF;
    11b8:	8f ef       	ldi	r24, 0xFF	; 255
    11ba:	90 e0       	ldi	r25, 0x00	; 0
    11bc:	82 1b       	sub	r24, r18
    11be:	91 09       	sbc	r25, r1
    11c0:	98 2f       	mov	r25, r24
    11c2:	88 27       	eor	r24, r24
    11c4:	81 50       	subi	r24, 0x01	; 1
    11c6:	9f 4f       	sbci	r25, 0xFF	; 255
    11c8:	80 93 4c 0a 	sts	0x0A4C, r24	; 0x800a4c <__TEXT_REGION_LENGTH__+0x700a4c>
    11cc:	90 93 4d 0a 	sts	0x0A4D, r25	; 0x800a4d <__TEXT_REGION_LENGTH__+0x700a4d>
    11d0:	08 95       	ret

000011d2 <SelectTSens>:
};

// Select temperature sensor
void SelectTSens(){
     VREF_CTRLA   = 0x12;    //0x22 for audio in/out (2.5V), 0x12 for temperature in, audio out (1.1V/2.5V)
    11d2:	82 e1       	ldi	r24, 0x12	; 18
    11d4:	80 93 a0 00 	sts	0x00A0, r24	; 0x8000a0 <__TEXT_REGION_LENGTH__+0x7000a0>
     ADC0_CTRLA   &= ~(ADC_RESSEL_bm);
    11d8:	e0 e0       	ldi	r30, 0x00	; 0
    11da:	f6 e0       	ldi	r31, 0x06	; 6
    11dc:	80 81       	ld	r24, Z
    11de:	8b 7f       	andi	r24, 0xFB	; 251
    11e0:	80 83       	st	Z, r24
     ADC0_MUXPOS  = 0x1E;    //Audio in: AIN7 at (0x07), Temperature: Internal sensor at (0x1E)
    11e2:	8e e1       	ldi	r24, 0x1E	; 30
    11e4:	80 93 06 06 	sts	0x0606, r24	; 0x800606 <__TEXT_REGION_LENGTH__+0x700606>
     adc0Chg = 3;
    11e8:	83 e0       	ldi	r24, 0x03	; 3
    11ea:	80 93 37 38 	sts	0x3837, r24	; 0x803837 <adc0Chg>
    11ee:	08 95       	ret

000011f0 <SelectAuIn>:
};

// Select "audio" input (0-2.5V)
void SelectAuIn(){
     VREF_CTRLA   = 0x22;    //0x22 for audio in/out (2.5V), 0x12 for temperature in, audio out (1.1V/2.5V)
    11f0:	82 e2       	ldi	r24, 0x22	; 34
    11f2:	80 93 a0 00 	sts	0x00A0, r24	; 0x8000a0 <__TEXT_REGION_LENGTH__+0x7000a0>
     ADC0_CTRLA   |= ADC_RESSEL_bm;
    11f6:	e0 e0       	ldi	r30, 0x00	; 0
    11f8:	f6 e0       	ldi	r31, 0x06	; 6
    11fa:	80 81       	ld	r24, Z
    11fc:	84 60       	ori	r24, 0x04	; 4
    11fe:	80 83       	st	Z, r24
     ADC0_MUXPOS  = 0x07;    //Audio in: AIN7 at (0x07), Temperature: Internal sensor at (0x1E)
    1200:	87 e0       	ldi	r24, 0x07	; 7
    1202:	80 93 06 06 	sts	0x0606, r24	; 0x800606 <__TEXT_REGION_LENGTH__+0x700606>
     adc0Chg = 3;
    1206:	83 e0       	ldi	r24, 0x03	; 3
    1208:	80 93 37 38 	sts	0x3837, r24	; 0x803837 <adc0Chg>
    120c:	08 95       	ret

0000120e <CheckButtons>:
};

// Returns button combination (4LSB) and number of consecutive times this combination is detected. First read should always be ignored! 
uint8_t CheckButtons(){
    static uint8_t previousValue = 0xFF;
    uint8_t bADC = (uint8_t)(adcBtns>>4);
    120e:	80 91 b7 3a 	lds	r24, 0x3AB7	; 0x803ab7 <adcBtns>
    1212:	90 91 b8 3a 	lds	r25, 0x3AB8	; 0x803ab8 <adcBtns+0x1>
    uint8_t button = 0xFF;     //FF = released or error

        switch(bADC){
    1216:	24 e0       	ldi	r18, 0x04	; 4
    1218:	96 95       	lsr	r25
    121a:	87 95       	ror	r24
    121c:	2a 95       	dec	r18
    121e:	e1 f7       	brne	.-8      	; 0x1218 <CheckButtons+0xa>
    1220:	99 27       	eor	r25, r25
    1222:	80 36       	cpi	r24, 0x60	; 96
    1224:	91 05       	cpc	r25, r1
    1226:	40 f4       	brcc	.+16     	; 0x1238 <CheckButtons+0x2a>
    1228:	8f 34       	cpi	r24, 0x4F	; 79
    122a:	91 05       	cpc	r25, r1
    122c:	88 f4       	brcc	.+34     	; 0x1250 <CheckButtons+0x42>
    122e:	c0 97       	sbiw	r24, 0x30	; 48
    1230:	09 97       	sbiw	r24, 0x09	; 9
    1232:	90 f4       	brcc	.+36     	; 0x1258 <CheckButtons+0x4a>

            case 48 ... 56:          //52: Bottom left (+/-4)
            button = 2;
    1234:	92 e0       	ldi	r25, 0x02	; 2
    1236:	11 c0       	rjmp	.+34     	; 0x125a <CheckButtons+0x4c>
uint8_t CheckButtons(){
    static uint8_t previousValue = 0xFF;
    uint8_t bADC = (uint8_t)(adcBtns>>4);
    uint8_t button = 0xFF;     //FF = released or error

        switch(bADC){
    1238:	85 37       	cpi	r24, 0x75	; 117
    123a:	91 05       	cpc	r25, r1
    123c:	68 f0       	brcs	.+26     	; 0x1258 <CheckButtons+0x4a>
    123e:	8e 38       	cpi	r24, 0x8E	; 142
    1240:	91 05       	cpc	r25, r1
    1242:	40 f0       	brcs	.+16     	; 0x1254 <CheckButtons+0x46>
    1244:	8e 59       	subi	r24, 0x9E	; 158
    1246:	91 09       	sbc	r25, r1
    1248:	81 97       	sbiw	r24, 0x21	; 33
    124a:	30 f4       	brcc	.+12     	; 0x1258 <CheckButtons+0x4a>
            case 117 ... 141:        //129: Top right (+/- 12)
            button = 1;
            break;

            case 158 ... 190:        //174: Bottom right (+/- 16)
            button = 0;
    124c:	90 e0       	ldi	r25, 0x00	; 0
            break;
    124e:	05 c0       	rjmp	.+10     	; 0x125a <CheckButtons+0x4c>
            case 48 ... 56:          //52: Bottom left (+/-4)
            button = 2;
            break;

            case 79 ... 95:          //87: Top left (+/-8)
            button = 3;
    1250:	93 e0       	ldi	r25, 0x03	; 3
            break;
    1252:	03 c0       	rjmp	.+6      	; 0x125a <CheckButtons+0x4c>

            case 117 ... 141:        //129: Top right (+/- 12)
            button = 1;
    1254:	91 e0       	ldi	r25, 0x01	; 1
            break;
    1256:	01 c0       	rjmp	.+2      	; 0x125a <CheckButtons+0x4c>

// Returns button combination (4LSB) and number of consecutive times this combination is detected. First read should always be ignored! 
uint8_t CheckButtons(){
    static uint8_t previousValue = 0xFF;
    uint8_t bADC = (uint8_t)(adcBtns>>4);
    uint8_t button = 0xFF;     //FF = released or error
    1258:	9f ef       	ldi	r25, 0xFF	; 255
            case 158 ... 190:        //174: Bottom right (+/- 16)
            button = 0;
            break;
        }

        if (((previousValue+1)== 0) || (button != previousValue)) {
    125a:	80 91 22 38 	lds	r24, 0x3822	; 0x803822 <previousValue.3878>
    125e:	98 17       	cp	r25, r24
    1260:	19 f0       	breq	.+6      	; 0x1268 <CheckButtons+0x5a>
            previousValue = button;
    1262:	90 93 22 38 	sts	0x3822, r25	; 0x803822 <previousValue.3878>
            return 0xFF;
    1266:	8f ef       	ldi	r24, 0xFF	; 255
        } else return button;

}
    1268:	08 95       	ret

0000126a <lfsr>:

uint8_t lfsr(){
    static uint16_t state = 0xd401;
    state ^= (state << 13);
    126a:	80 91 20 38 	lds	r24, 0x3820	; 0x803820 <state.3888>
    126e:	90 91 21 38 	lds	r25, 0x3821	; 0x803821 <state.3888+0x1>
    1272:	9c 01       	movw	r18, r24
    1274:	32 2f       	mov	r19, r18
    1276:	22 27       	eor	r18, r18
    1278:	32 95       	swap	r19
    127a:	33 0f       	add	r19, r19
    127c:	30 7e       	andi	r19, 0xE0	; 224
    127e:	82 27       	eor	r24, r18
    1280:	93 27       	eor	r25, r19
    state ^= (state >> 9);
    1282:	9c 01       	movw	r18, r24
    1284:	23 2f       	mov	r18, r19
    1286:	33 27       	eor	r19, r19
    1288:	26 95       	lsr	r18
    128a:	82 27       	eor	r24, r18
    128c:	93 27       	eor	r25, r19
    state ^= (state << 7);
    128e:	9c 01       	movw	r18, r24
    1290:	36 95       	lsr	r19
    1292:	32 2f       	mov	r19, r18
    1294:	22 27       	eor	r18, r18
    1296:	37 95       	ror	r19
    1298:	27 95       	ror	r18
    129a:	82 27       	eor	r24, r18
    129c:	93 27       	eor	r25, r19
    129e:	80 93 20 38 	sts	0x3820, r24	; 0x803820 <state.3888>
    12a2:	90 93 21 38 	sts	0x3821, r25	; 0x803821 <state.3888+0x1>
    return (state & 0xff);
}
    12a6:	08 95       	ret

000012a8 <floatSpeed>:

void floatSpeed(uint8_t bits, uint16_t min, uint16_t max){
    12a8:	df 92       	push	r13
    12aa:	ef 92       	push	r14
    12ac:	ff 92       	push	r15
    12ae:	0f 93       	push	r16
    12b0:	1f 93       	push	r17
    12b2:	cf 93       	push	r28
    12b4:	df 93       	push	r29
    12b6:	7b 01       	movw	r14, r22
    12b8:	8a 01       	movw	r16, r20
    uint16_t val = TCB1_CCMP;
    12ba:	c0 91 5c 0a 	lds	r28, 0x0A5C	; 0x800a5c <__TEXT_REGION_LENGTH__+0x700a5c>
    12be:	d0 91 5d 0a 	lds	r29, 0x0A5D	; 0x800a5d <__TEXT_REGION_LENGTH__+0x700a5d>
    bits = mask[(bits-1)&0x07];
    12c2:	e8 2f       	mov	r30, r24
    12c4:	f0 e0       	ldi	r31, 0x00	; 0
    12c6:	31 97       	sbiw	r30, 0x01	; 1
    12c8:	e7 70       	andi	r30, 0x07	; 7
    12ca:	ff 27       	eor	r31, r31
    12cc:	ed 5d       	subi	r30, 0xDD	; 221
    12ce:	f7 4c       	sbci	r31, 0xC7	; 199
    12d0:	d0 80       	ld	r13, Z
    val += (lfsr()&bits);
    12d2:	cb df       	rcall	.-106    	; 0x126a <lfsr>
    12d4:	8d 21       	and	r24, r13
    12d6:	c8 0f       	add	r28, r24
    12d8:	d1 1d       	adc	r29, r1
    val -= (lfsr()&bits);
    12da:	c7 df       	rcall	.-114    	; 0x126a <lfsr>
    12dc:	8d 21       	and	r24, r13
    12de:	c8 1b       	sub	r28, r24
    12e0:	d1 09       	sbc	r29, r1
    12e2:	0c 17       	cp	r16, r28
    12e4:	1d 07       	cpc	r17, r29
    12e6:	08 f4       	brcc	.+2      	; 0x12ea <floatSpeed+0x42>
    12e8:	e8 01       	movw	r28, r16
    12ea:	c7 01       	movw	r24, r14
    12ec:	ec 16       	cp	r14, r28
    12ee:	fd 06       	cpc	r15, r29
    12f0:	08 f4       	brcc	.+2      	; 0x12f4 <floatSpeed+0x4c>
    12f2:	ce 01       	movw	r24, r28
    12f4:	80 93 5c 0a 	sts	0x0A5C, r24	; 0x800a5c <__TEXT_REGION_LENGTH__+0x700a5c>
    if (val > max) val = max;    
    if (val < min) val = min;  
    TCB1_CCMP = val;
    12f8:	90 93 5d 0a 	sts	0x0A5D, r25	; 0x800a5d <__TEXT_REGION_LENGTH__+0x700a5d>
    12fc:	df 91       	pop	r29
}
    12fe:	cf 91       	pop	r28
    1300:	1f 91       	pop	r17
    1302:	0f 91       	pop	r16
    1304:	ff 90       	pop	r15
    1306:	ef 90       	pop	r14
    1308:	df 90       	pop	r13
    130a:	08 95       	ret

0000130c <floatAround>:
    130c:	0f 93       	push	r16

uint8_t floatAround(uint8_t sample, uint8_t bits, uint8_t min, uint8_t max){
    130e:	1f 93       	push	r17
    1310:	cf 93       	push	r28
    1312:	df 93       	push	r29
    1314:	c8 2f       	mov	r28, r24
    1316:	d4 2f       	mov	r29, r20
    1318:	02 2f       	mov	r16, r18
    bits = mask[(bits-1)&0x07];
    131a:	e6 2f       	mov	r30, r22
    131c:	f0 e0       	ldi	r31, 0x00	; 0
    131e:	31 97       	sbiw	r30, 0x01	; 1
    1320:	e7 70       	andi	r30, 0x07	; 7
    1322:	ff 27       	eor	r31, r31
    1324:	ed 5d       	subi	r30, 0xDD	; 221
    1326:	f7 4c       	sbci	r31, 0xC7	; 199
    1328:	10 81       	ld	r17, Z
    sample += lfsr()&bits;
    132a:	9f df       	rcall	.-194    	; 0x126a <lfsr>
    132c:	81 23       	and	r24, r17
    132e:	c8 0f       	add	r28, r24
    sample -= lfsr()&bits;
    1330:	9c df       	rcall	.-200    	; 0x126a <lfsr>
    1332:	81 23       	and	r24, r17
    1334:	c8 1b       	sub	r28, r24
    1336:	8c 2f       	mov	r24, r28
    1338:	00 23       	and	r16, r16
    if (max){
    133a:	41 f0       	breq	.+16     	; 0x134c <floatAround+0x40>
    133c:	9c 2f       	mov	r25, r28
    133e:	0c 17       	cp	r16, r28
    1340:	08 f4       	brcc	.+2      	; 0x1344 <floatAround+0x38>
    1342:	90 2f       	mov	r25, r16
    1344:	8d 2f       	mov	r24, r29
    1346:	d9 17       	cp	r29, r25
    1348:	08 f4       	brcc	.+2      	; 0x134c <floatAround+0x40>
    134a:	89 2f       	mov	r24, r25
    134c:	41 e0       	ldi	r20, 0x01	; 1
        if (sample > max) sample = max;
        if (sample < min) sample = min;
    }
    if (min & (sample < min)) sample = min;
    134e:	50 e0       	ldi	r21, 0x00	; 0
    1350:	8d 17       	cp	r24, r29
    1352:	10 f0       	brcs	.+4      	; 0x1358 <floatAround+0x4c>
    1354:	40 e0       	ldi	r20, 0x00	; 0
    1356:	50 e0       	ldi	r21, 0x00	; 0
    1358:	2d 2f       	mov	r18, r29
    135a:	30 e0       	ldi	r19, 0x00	; 0
    135c:	24 23       	and	r18, r20
    135e:	35 23       	and	r19, r21
    1360:	23 2b       	or	r18, r19
    1362:	09 f0       	breq	.+2      	; 0x1366 <floatAround+0x5a>
    1364:	8d 2f       	mov	r24, r29
    1366:	df 91       	pop	r29

    return sample;
}
    1368:	cf 91       	pop	r28
    136a:	1f 91       	pop	r17
    136c:	0f 91       	pop	r16
    136e:	08 95       	ret

00001370 <SaveGameState>:
    1370:	cf 92       	push	r12
    inventory[0] = (gameState[INVADDR]<<8|gameState[INVADDR+1]);
    inventory[1] = (gameState[INVADDR+2]<<8|gameState[INVADDR+3]);
}

//Save changed data to EEPROM
uint8_t SaveGameState(){
    1372:	df 92       	push	r13
    1374:	ff 92       	push	r15
    1376:	0f 93       	push	r16
    1378:	1f 93       	push	r17
    137a:	cf 93       	push	r28
    137c:	df 93       	push	r29
    137e:	cd b7       	in	r28, 0x3d	; 61
    1380:	de b7       	in	r29, 0x3e	; 62
    1382:	64 97       	sbiw	r28, 0x14	; 20
    1384:	cd bf       	out	0x3d, r28	; 61
    1386:	de bf       	out	0x3e, r29	; 62
    uint8_t gameCheck[BOOTCHK];

    //Read all data up to the boot/check result address from EEPROM
    EERead(0, &gameCheck[0], BOOTCHK);
    1388:	44 e1       	ldi	r20, 0x14	; 20
    138a:	be 01       	movw	r22, r28
    138c:	6f 5f       	subi	r22, 0xFF	; 255
    138e:	7f 4f       	sbci	r23, 0xFF	; 255
    1390:	80 e0       	ldi	r24, 0x00	; 0
    1392:	c5 de       	rcall	.-630    	; 0x111e <EERead>
    1394:	81 e6       	ldi	r24, 0x61	; 97
    1396:	c8 2e       	mov	r12, r24
    1398:	8a e3       	ldi	r24, 0x3A	; 58
    139a:	d8 2e       	mov	r13, r24
    139c:	8e 01       	movw	r16, r28
    139e:	0f 5f       	subi	r16, 0xFF	; 255
    13a0:	1f 4f       	sbci	r17, 0xFF	; 255

    //Check game status bits
    for (uint8_t x=0; x<STATLEN; ++x){
    13a2:	f1 2c       	mov	r15, r1
        if (gameState[x] != gameCheck[x]){
    13a4:	f8 01       	movw	r30, r16
    13a6:	81 91       	ld	r24, Z+
    13a8:	8f 01       	movw	r16, r30
    13aa:	f6 01       	movw	r30, r12
    13ac:	90 81       	ld	r25, Z
    13ae:	98 13       	cpse	r25, r24
    13b0:	08 c0       	rjmp	.+16     	; 0x13c2 <SaveGameState+0x52>

    //Read all data up to the boot/check result address from EEPROM
    EERead(0, &gameCheck[0], BOOTCHK);

    //Check game status bits
    for (uint8_t x=0; x<STATLEN; ++x){
    13b2:	f3 94       	inc	r15
    13b4:	ff ef       	ldi	r31, 0xFF	; 255
    13b6:	cf 1a       	sub	r12, r31
    13b8:	df 0a       	sbc	r13, r31
    13ba:	80 e1       	ldi	r24, 0x10	; 16
    13bc:	f8 12       	cpse	r15, r24
    13be:	f2 cf       	rjmp	.-28     	; 0x13a4 <SaveGameState+0x34>
    13c0:	08 c0       	rjmp	.+16     	; 0x13d2 <SaveGameState+0x62>
        if (gameState[x] != gameCheck[x]){
            if (EEWrite(x, &gameState[x], 1)) return 1;
    13c2:	41 e0       	ldi	r20, 0x01	; 1
    13c4:	b6 01       	movw	r22, r12
    13c6:	8f 2d       	mov	r24, r15
    13c8:	ba de       	rcall	.-652    	; 0x113e <EEWrite>
    13ca:	88 23       	and	r24, r24
    13cc:	91 f3       	breq	.-28     	; 0x13b2 <SaveGameState+0x42>
    13ce:	91 e0       	ldi	r25, 0x01	; 1
    13d0:	36 c0       	rjmp	.+108    	; 0x143e <SaveGameState+0xce>
        }
    }

    //Check the inventory too
    gameState[INVADDR] = (uint8_t)(inventory[0]>>8);
    13d2:	20 91 3e 38 	lds	r18, 0x383E	; 0x80383e <inventory>
    13d6:	30 91 3f 38 	lds	r19, 0x383F	; 0x80383f <inventory+0x1>
    13da:	30 93 71 3a 	sts	0x3A71, r19	; 0x803a71 <gameState+0x10>
    gameState[INVADDR+1] = (uint8_t)(inventory[0]&0xff);
    13de:	20 93 72 3a 	sts	0x3A72, r18	; 0x803a72 <gameState+0x11>
    gameState[INVADDR+2] = (uint8_t)(inventory[1]>>8);
    13e2:	80 91 40 38 	lds	r24, 0x3840	; 0x803840 <inventory+0x2>
    13e6:	90 91 41 38 	lds	r25, 0x3841	; 0x803841 <inventory+0x3>
    13ea:	90 93 73 3a 	sts	0x3A73, r25	; 0x803a73 <gameState+0x12>
    gameState[INVADDR+3] = (uint8_t)(inventory[1]&0xff);
    13ee:	80 93 74 3a 	sts	0x3A74, r24	; 0x803a74 <gameState+0x13>
    if (inventory[0] != (gameCheck[INVADDR]<<8|gameCheck[INVADDR+1])) {
    13f2:	89 89       	ldd	r24, Y+17	; 0x11
    13f4:	9a 89       	ldd	r25, Y+18	; 0x12
    13f6:	98 27       	eor	r25, r24
    13f8:	89 27       	eor	r24, r25
    13fa:	98 27       	eor	r25, r24
    13fc:	28 17       	cp	r18, r24
    13fe:	39 07       	cpc	r19, r25
    1400:	69 f4       	brne	.+26     	; 0x141c <SaveGameState+0xac>
        if (EEWrite(INVADDR, &gameState[INVADDR], 2)) return 1;
    }
    if (inventory[1] != (gameCheck[INVADDR+2]<<8|gameCheck[INVADDR+3])) {
    1402:	8b 89       	ldd	r24, Y+19	; 0x13
    1404:	9c 89       	ldd	r25, Y+20	; 0x14
    1406:	98 27       	eor	r25, r24
    1408:	89 27       	eor	r24, r25
    140a:	98 27       	eor	r25, r24
    140c:	20 91 40 38 	lds	r18, 0x3840	; 0x803840 <inventory+0x2>
    1410:	30 91 41 38 	lds	r19, 0x3841	; 0x803841 <inventory+0x3>
    1414:	28 17       	cp	r18, r24
    1416:	39 07       	cpc	r19, r25
    1418:	49 f4       	brne	.+18     	; 0x142c <SaveGameState+0xbc>
    141a:	10 c0       	rjmp	.+32     	; 0x143c <SaveGameState+0xcc>
    gameState[INVADDR] = (uint8_t)(inventory[0]>>8);
    gameState[INVADDR+1] = (uint8_t)(inventory[0]&0xff);
    gameState[INVADDR+2] = (uint8_t)(inventory[1]>>8);
    gameState[INVADDR+3] = (uint8_t)(inventory[1]&0xff);
    if (inventory[0] != (gameCheck[INVADDR]<<8|gameCheck[INVADDR+1])) {
        if (EEWrite(INVADDR, &gameState[INVADDR], 2)) return 1;
    141c:	42 e0       	ldi	r20, 0x02	; 2
    141e:	61 e7       	ldi	r22, 0x71	; 113
    1420:	7a e3       	ldi	r23, 0x3A	; 58
    1422:	80 e1       	ldi	r24, 0x10	; 16
    1424:	8c de       	rcall	.-744    	; 0x113e <EEWrite>
    1426:	88 23       	and	r24, r24
    1428:	61 f3       	breq	.-40     	; 0x1402 <SaveGameState+0x92>
    142a:	d1 cf       	rjmp	.-94     	; 0x13ce <SaveGameState+0x5e>
    }
    if (inventory[1] != (gameCheck[INVADDR+2]<<8|gameCheck[INVADDR+3])) {
        if (EEWrite(INVADDR+2, &gameState[INVADDR+2], 2)) return 1;
    142c:	42 e0       	ldi	r20, 0x02	; 2
    142e:	63 e7       	ldi	r22, 0x73	; 115
    1430:	7a e3       	ldi	r23, 0x3A	; 58
    1432:	82 e1       	ldi	r24, 0x12	; 18
    1434:	84 de       	rcall	.-760    	; 0x113e <EEWrite>
    EERead(0, &gameCheck[0], BOOTCHK);

    //Check game status bits
    for (uint8_t x=0; x<STATLEN; ++x){
        if (gameState[x] != gameCheck[x]){
            if (EEWrite(x, &gameState[x], 1)) return 1;
    1436:	91 e0       	ldi	r25, 0x01	; 1
    1438:	81 11       	cpse	r24, r1
    143a:	01 c0       	rjmp	.+2      	; 0x143e <SaveGameState+0xce>
    143c:	90 e0       	ldi	r25, 0x00	; 0
    if (inventory[1] != (gameCheck[INVADDR+2]<<8|gameCheck[INVADDR+3])) {
        if (EEWrite(INVADDR+2, &gameState[INVADDR+2], 2)) return 1;
    }

    return 0;
}
    143e:	89 2f       	mov	r24, r25
    1440:	64 96       	adiw	r28, 0x14	; 20
    1442:	cd bf       	out	0x3d, r28	; 61
    1444:	de bf       	out	0x3e, r29	; 62
    1446:	df 91       	pop	r29
    1448:	cf 91       	pop	r28
    144a:	1f 91       	pop	r17
    144c:	0f 91       	pop	r16
    144e:	ff 90       	pop	r15
    1450:	df 90       	pop	r13
    1452:	cf 90       	pop	r12
    1454:	08 95       	ret

00001456 <ReadStatusBit>:

uint8_t ReadStatusBit(uint8_t number){
    number &= 0x7f;
    if (gameState[number>>3] & (1<<(number&7))) return 1; else return 0;
    1456:	e8 2f       	mov	r30, r24
    1458:	ef 77       	andi	r30, 0x7F	; 127
    145a:	e6 95       	lsr	r30
    145c:	e6 95       	lsr	r30
    145e:	e6 95       	lsr	r30
    1460:	f0 e0       	ldi	r31, 0x00	; 0
    1462:	ef 59       	subi	r30, 0x9F	; 159
    1464:	f5 4c       	sbci	r31, 0xC5	; 197
    1466:	20 81       	ld	r18, Z
    1468:	30 e0       	ldi	r19, 0x00	; 0
    146a:	87 70       	andi	r24, 0x07	; 7
    146c:	a9 01       	movw	r20, r18
    146e:	02 c0       	rjmp	.+4      	; 0x1474 <ReadStatusBit+0x1e>
    1470:	55 95       	asr	r21
    1472:	47 95       	ror	r20
    1474:	8a 95       	dec	r24
    1476:	e2 f7       	brpl	.-8      	; 0x1470 <ReadStatusBit+0x1a>
    1478:	ca 01       	movw	r24, r20
}
    147a:	81 70       	andi	r24, 0x01	; 1
    147c:	08 95       	ret

0000147e <WriteStatusBit>:

void WriteStatusBit(uint8_t number, uint8_t state){
    number &= 0x7f;
    147e:	e8 2f       	mov	r30, r24
    1480:	ef 77       	andi	r30, 0x7F	; 127
    1482:	e6 95       	lsr	r30
    1484:	e6 95       	lsr	r30
    1486:	e6 95       	lsr	r30
    1488:	28 2f       	mov	r18, r24
    148a:	27 70       	andi	r18, 0x07	; 7
    if (state) gameState[number>>3] |= 1<<(number&7);
    148c:	f0 e0       	ldi	r31, 0x00	; 0
    148e:	ef 59       	subi	r30, 0x9F	; 159
    1490:	f5 4c       	sbci	r31, 0xC5	; 197
    1492:	81 e0       	ldi	r24, 0x01	; 1
    1494:	90 e0       	ldi	r25, 0x00	; 0
    1496:	01 c0       	rjmp	.+2      	; 0x149a <WriteStatusBit+0x1c>
    1498:	88 0f       	add	r24, r24
    149a:	2a 95       	dec	r18
    149c:	ea f7       	brpl	.-6      	; 0x1498 <WriteStatusBit+0x1a>
    149e:	66 23       	and	r22, r22
    14a0:	19 f0       	breq	.+6      	; 0x14a8 <WriteStatusBit+0x2a>
    14a2:	90 81       	ld	r25, Z
    14a4:	89 2b       	or	r24, r25
    14a6:	03 c0       	rjmp	.+6      	; 0x14ae <WriteStatusBit+0x30>
    else gameState[number>>3] &= ~(1<<(number&7));
    14a8:	80 95       	com	r24
    14aa:	90 81       	ld	r25, Z
    14ac:	89 23       	and	r24, r25
    14ae:	80 83       	st	Z, r24
    14b0:	08 95       	ret

000014b2 <UpdateState>:
}

//Update game state: num -> vBBBBbbb v=value(0 is set!), BBBB=Byte number, bbb=bit number
void UpdateState(uint8_t num){
    14b2:	98 2f       	mov	r25, r24
    uint8_t clearBit = num & 0x80;
    num &= 0x7f;
    14b4:	8f 77       	andi	r24, 0x7F	; 127
    if (num) {
    14b6:	31 f0       	breq	.+12     	; 0x14c4 <UpdateState+0x12>
        if (clearBit) {
    14b8:	97 ff       	sbrs	r25, 7
    14ba:	02 c0       	rjmp	.+4      	; 0x14c0 <UpdateState+0xe>
            WriteStatusBit(num, 0);
    14bc:	60 e0       	ldi	r22, 0x00	; 0
    14be:	01 c0       	rjmp	.+2      	; 0x14c2 <UpdateState+0x10>
        } else {
            WriteStatusBit(num, 1);
    14c0:	61 e0       	ldi	r22, 0x01	; 1
    14c2:	dd cf       	rjmp	.-70     	; 0x147e <WriteStatusBit>
    14c4:	08 95       	ret

000014c6 <CheckState>:
        }
    }
}

//Checks if state of bit BBBBbbb matches with v (inverted) bit
uint8_t CheckState(uint8_t num){
    14c6:	cf 93       	push	r28
    14c8:	c8 2f       	mov	r28, r24
    uint8_t bitSet = 0;
    if (ReadStatusBit(num & 0x7f)){
    14ca:	8f 77       	andi	r24, 0x7F	; 127
    14cc:	c4 df       	rcall	.-120    	; 0x1456 <ReadStatusBit>
    14ce:	2c 2f       	mov	r18, r28
    14d0:	22 1f       	adc	r18, r18
    14d2:	22 27       	eor	r18, r18
    14d4:	22 1f       	adc	r18, r18
    14d6:	91 e0       	ldi	r25, 0x01	; 1
    14d8:	81 11       	cpse	r24, r1
    14da:	01 c0       	rjmp	.+2      	; 0x14de <CheckState+0x18>
    14dc:	90 e0       	ldi	r25, 0x00	; 0
    }
    if (((num & 0x80)>0)^(bitSet>0)){
        return 1;
    }
    return 0;
}
    14de:	82 2f       	mov	r24, r18
    14e0:	89 27       	eor	r24, r25
    14e2:	cf 91       	pop	r28
    14e4:	08 95       	ret

000014e6 <getID>:

//Give out a number 0..3, calculated using serial number fields
uint8_t getID(){
    uint8_t id = 0;
    uint8_t *serNum;
    serNum = (uint8_t*)&SIGROW_SERNUM0;
    14e6:	e3 e0       	ldi	r30, 0x03	; 3
    14e8:	f1 e1       	ldi	r31, 0x11	; 17
    return 0;
}

//Give out a number 0..3, calculated using serial number fields
uint8_t getID(){
    uint8_t id = 0;
    14ea:	80 e0       	ldi	r24, 0x00	; 0
    uint8_t *serNum;
    serNum = (uint8_t*)&SIGROW_SERNUM0;

    for (uint8_t x=0; x<10; ++x){
        id += *serNum;
    14ec:	91 91       	ld	r25, Z+
    14ee:	89 0f       	add	r24, r25
uint8_t getID(){
    uint8_t id = 0;
    uint8_t *serNum;
    serNum = (uint8_t*)&SIGROW_SERNUM0;

    for (uint8_t x=0; x<10; ++x){
    14f0:	ed 30       	cpi	r30, 0x0D	; 13
    14f2:	91 e1       	ldi	r25, 0x11	; 17
    14f4:	f9 07       	cpc	r31, r25
    14f6:	d1 f7       	brne	.-12     	; 0x14ec <getID+0x6>
        id += *serNum;
        ++serNum;
    }
    id %= 4;
    whoami = id+1;
    14f8:	83 70       	andi	r24, 0x03	; 3
    14fa:	8f 5f       	subi	r24, 0xFF	; 255
    14fc:	80 93 3d 38 	sts	0x383D, r24	; 0x80383d <whoami>
    return whoami;
}
    1500:	08 95       	ret

00001502 <Reset>:

void Reset(){
    1502:	e1 e6       	ldi	r30, 0x61	; 97
    1504:	fa e3       	ldi	r31, 0x3A	; 58
    //# 110   set to 1 by FW if badge UUID mod 4 == 0
    //# 111   set to 1 by FW if badge UUID mod 4 == 1
    //# 112   set to 1 by FW if badge UUID mod 4 == 2
    //# 113   set to 1 by FW if badge UUID mod 4 == 3
    for (uint8_t x=0; x<sizeof(gameState); ++x){
        gameState[x] = 0;
    1506:	11 92       	st	Z+, r1
    //Reset game progress (all zeroes) and load some bits:
    //# 110   set to 1 by FW if badge UUID mod 4 == 0
    //# 111   set to 1 by FW if badge UUID mod 4 == 1
    //# 112   set to 1 by FW if badge UUID mod 4 == 2
    //# 113   set to 1 by FW if badge UUID mod 4 == 3
    for (uint8_t x=0; x<sizeof(gameState); ++x){
    1508:	8a e3       	ldi	r24, 0x3A	; 58
    150a:	e5 37       	cpi	r30, 0x75	; 117
    150c:	f8 07       	cpc	r31, r24
    150e:	d9 f7       	brne	.-10     	; 0x1506 <Reset+0x4>
        gameState[x] = 0;
    }

    uint8_t id = getID();
    1510:	ea df       	rcall	.-44     	; 0x14e6 <getID>

    //Write bit in gameState location 110..113
    if (id == 0) WriteStatusBit(110, 1);
    1512:	81 11       	cpse	r24, r1
    1514:	04 c0       	rjmp	.+8      	; 0x151e <Reset+0x1c>
    if (gameState[number>>3] & (1<<(number&7))) return 1; else return 0;
}

void WriteStatusBit(uint8_t number, uint8_t state){
    number &= 0x7f;
    if (state) gameState[number>>3] |= 1<<(number&7);
    1516:	80 91 6e 3a 	lds	r24, 0x3A6E	; 0x803a6e <gameState+0xd>
    151a:	80 64       	ori	r24, 0x40	; 64
    151c:	05 c0       	rjmp	.+10     	; 0x1528 <Reset+0x26>

    uint8_t id = getID();

    //Write bit in gameState location 110..113
    if (id == 0) WriteStatusBit(110, 1);
    else if (id == 1) WriteStatusBit(111, 1);
    151e:	81 30       	cpi	r24, 0x01	; 1
    1520:	31 f4       	brne	.+12     	; 0x152e <Reset+0x2c>
    if (gameState[number>>3] & (1<<(number&7))) return 1; else return 0;
}

void WriteStatusBit(uint8_t number, uint8_t state){
    number &= 0x7f;
    if (state) gameState[number>>3] |= 1<<(number&7);
    1522:	80 91 6e 3a 	lds	r24, 0x3A6E	; 0x803a6e <gameState+0xd>
    1526:	80 68       	ori	r24, 0x80	; 128
    1528:	80 93 6e 3a 	sts	0x3A6E, r24	; 0x803a6e <gameState+0xd>
    152c:	0d c0       	rjmp	.+26     	; 0x1548 <Reset+0x46>
    uint8_t id = getID();

    //Write bit in gameState location 110..113
    if (id == 0) WriteStatusBit(110, 1);
    else if (id == 1) WriteStatusBit(111, 1);
    else if (id == 2) WriteStatusBit(112, 1);
    152e:	82 30       	cpi	r24, 0x02	; 2
    1530:	21 f4       	brne	.+8      	; 0x153a <Reset+0x38>
    if (gameState[number>>3] & (1<<(number&7))) return 1; else return 0;
}

void WriteStatusBit(uint8_t number, uint8_t state){
    number &= 0x7f;
    if (state) gameState[number>>3] |= 1<<(number&7);
    1532:	80 91 6f 3a 	lds	r24, 0x3A6F	; 0x803a6f <gameState+0xe>
    1536:	81 60       	ori	r24, 0x01	; 1
    1538:	05 c0       	rjmp	.+10     	; 0x1544 <Reset+0x42>

    //Write bit in gameState location 110..113
    if (id == 0) WriteStatusBit(110, 1);
    else if (id == 1) WriteStatusBit(111, 1);
    else if (id == 2) WriteStatusBit(112, 1);
    else if (id == 3) WriteStatusBit(113, 1);
    153a:	83 30       	cpi	r24, 0x03	; 3
    153c:	29 f4       	brne	.+10     	; 0x1548 <Reset+0x46>
    if (gameState[number>>3] & (1<<(number&7))) return 1; else return 0;
}

void WriteStatusBit(uint8_t number, uint8_t state){
    number &= 0x7f;
    if (state) gameState[number>>3] |= 1<<(number&7);
    153e:	80 91 6f 3a 	lds	r24, 0x3A6F	; 0x803a6f <gameState+0xe>
    1542:	82 60       	ori	r24, 0x02	; 2
    1544:	80 93 6f 3a 	sts	0x3A6F, r24	; 0x803a6f <gameState+0xe>
    1548:	80 91 61 3a 	lds	r24, 0x3A61	; 0x803a61 <gameState>
    154c:	81 60       	ori	r24, 0x01	; 1
    154e:	80 93 61 3a 	sts	0x3A61, r24	; 0x803a61 <gameState>
    1552:	08 95       	ret

00001554 <LoadGameState>:

    return sample;
}

//Load game status
void LoadGameState(){
    1554:	cf 93       	push	r28
    1556:	df 93       	push	r29
    EERead(0, &gameState[0], BOOTCHK);   //Load game status bits from EEPROM
    1558:	44 e1       	ldi	r20, 0x14	; 20
    155a:	61 e6       	ldi	r22, 0x61	; 97
    155c:	7a e3       	ldi	r23, 0x3A	; 58
    155e:	80 e0       	ldi	r24, 0x00	; 0
    1560:	de dd       	rcall	.-1092   	; 0x111e <EERead>
    1562:	ce e6       	ldi	r28, 0x6E	; 110

    uint8_t idSet = 0;
    1564:	d0 e0       	ldi	r29, 0x00	; 0
    for (uint8_t x=0; x<4; ++x){
        idSet += ReadStatusBit(110+x);
    1566:	8c 2f       	mov	r24, r28
    1568:	76 df       	rcall	.-276    	; 0x1456 <ReadStatusBit>
    156a:	d8 0f       	add	r29, r24
    156c:	cf 5f       	subi	r28, 0xFF	; 255
//Load game status
void LoadGameState(){
    EERead(0, &gameState[0], BOOTCHK);   //Load game status bits from EEPROM

    uint8_t idSet = 0;
    for (uint8_t x=0; x<4; ++x){
    156e:	c2 37       	cpi	r28, 0x72	; 114
    1570:	d1 f7       	brne	.-12     	; 0x1566 <LoadGameState+0x12>
        idSet += ReadStatusBit(110+x);
    }

    //Check if badge is reset(0 = cheated!) or new(3) or error(2)
    if (idSet != 1) {
    1572:	d1 30       	cpi	r29, 0x01	; 1
        Reset();
    1574:	11 f0       	breq	.+4      	; 0x157a <LoadGameState+0x26>
    1576:	c5 df       	rcall	.-118    	; 0x1502 <Reset>
    } else getID();
    1578:	01 c0       	rjmp	.+2      	; 0x157c <LoadGameState+0x28>
    157a:	b5 df       	rcall	.-150    	; 0x14e6 <getID>

    inventory[0] = (gameState[INVADDR]<<8|gameState[INVADDR+1]);
    157c:	80 91 71 3a 	lds	r24, 0x3A71	; 0x803a71 <gameState+0x10>
    1580:	90 91 72 3a 	lds	r25, 0x3A72	; 0x803a72 <gameState+0x11>
    1584:	98 27       	eor	r25, r24
    1586:	89 27       	eor	r24, r25
    1588:	98 27       	eor	r25, r24
    158a:	80 93 3e 38 	sts	0x383E, r24	; 0x80383e <inventory>
    158e:	90 93 3f 38 	sts	0x383F, r25	; 0x80383f <inventory+0x1>
    inventory[1] = (gameState[INVADDR+2]<<8|gameState[INVADDR+3]);
    1592:	80 91 73 3a 	lds	r24, 0x3A73	; 0x803a73 <gameState+0x12>
    1596:	90 91 74 3a 	lds	r25, 0x3A74	; 0x803a74 <gameState+0x13>
    159a:	98 27       	eor	r25, r24
    159c:	89 27       	eor	r24, r25
    159e:	98 27       	eor	r25, r24
    15a0:	80 93 40 38 	sts	0x3840, r24	; 0x803840 <inventory+0x2>
    15a4:	90 93 41 38 	sts	0x3841, r25	; 0x803841 <inventory+0x3>
}
    15a8:	df 91       	pop	r29
    15aa:	cf 91       	pop	r28
    15ac:	08 95       	ret

000015ae <HotSummer>:
    //Write bit 0, must always be 1!
    WriteStatusBit(0, 1);
}

//Sets specific game bits after the badge is heated for one and two times.
uint8_t HotSummer(){
    15ae:	cf 93       	push	r28
    static uint8_t cooledDown = 0;

    if (CheckState(SUMMERS_COMPLETED)){
    15b0:	86 e7       	ldi	r24, 0x76	; 118
    15b2:	89 df       	rcall	.-238    	; 0x14c6 <CheckState>
    15b4:	c8 2f       	mov	r28, r24
    15b6:	88 23       	and	r24, r24
    15b8:	81 f0       	breq	.+32     	; 0x15da <HotSummer+0x2c>
        iLED[SCARAB[G]] = 0;
    15ba:	e0 91 45 be 	lds	r30, 0xBE45	; 0x80be45 <__bss_end+0x832b>
    15be:	f0 e0       	ldi	r31, 0x00	; 0
    15c0:	e6 53       	subi	r30, 0x36	; 54
    15c2:	f5 4c       	sbci	r31, 0xC5	; 197
    15c4:	10 82       	st	Z, r1
        iLED[SCARAB[R]] = dimValue;
    15c6:	e0 91 44 be 	lds	r30, 0xBE44	; 0x80be44 <__bss_end+0x832a>
    15ca:	f0 e0       	ldi	r31, 0x00	; 0
    15cc:	80 91 0a 38 	lds	r24, 0x380A	; 0x80380a <dimValue>
    15d0:	e6 53       	subi	r30, 0x36	; 54
    15d2:	f5 4c       	sbci	r31, 0xC5	; 197
    15d4:	80 83       	st	Z, r24
        return 1;
    15d6:	c1 e0       	ldi	r28, 0x01	; 1
    15d8:	4c c0       	rjmp	.+152    	; 0x1672 <HotSummer+0xc4>
    }

    if (CheckState(FIRST_SUMMER)) {
    15da:	85 e7       	ldi	r24, 0x75	; 117
    15dc:	74 df       	rcall	.-280    	; 0x14c6 <CheckState>
    15de:	88 23       	and	r24, r24
    15e0:	59 f1       	breq	.+86     	; 0x1638 <HotSummer+0x8a>
        iLED[SCARAB[G]] = dimValue;
    15e2:	e0 91 45 be 	lds	r30, 0xBE45	; 0x80be45 <__bss_end+0x832b>
    15e6:	f0 e0       	ldi	r31, 0x00	; 0
    15e8:	80 91 0a 38 	lds	r24, 0x380A	; 0x80380a <dimValue>
    15ec:	e6 53       	subi	r30, 0x36	; 54
    15ee:	f5 4c       	sbci	r31, 0xC5	; 197
    15f0:	80 83       	st	Z, r24
        if ((cooledDown) && (adcTemp >= (calTemp + 32))) {
    15f2:	80 91 59 38 	lds	r24, 0x3859	; 0x803859 <cooledDown.3947>
    15f6:	88 23       	and	r24, r24
    15f8:	79 f0       	breq	.+30     	; 0x1618 <HotSummer+0x6a>
    15fa:	80 91 c0 3a 	lds	r24, 0x3AC0	; 0x803ac0 <calTemp>
    15fe:	90 91 c1 3a 	lds	r25, 0x3AC1	; 0x803ac1 <calTemp+0x1>
    1602:	20 91 f5 3a 	lds	r18, 0x3AF5	; 0x803af5 <adcTemp>
    1606:	30 91 f6 3a 	lds	r19, 0x3AF6	; 0x803af6 <adcTemp+0x1>
    160a:	80 96       	adiw	r24, 0x20	; 32
    160c:	28 17       	cp	r18, r24
    160e:	39 07       	cpc	r19, r25
            UpdateState(SUMMERS_COMPLETED);
    1610:	18 f0       	brcs	.+6      	; 0x1618 <HotSummer+0x6a>
    1612:	86 e7       	ldi	r24, 0x76	; 118
    1614:	4e df       	rcall	.-356    	; 0x14b2 <UpdateState>
            return 0;
    1616:	2d c0       	rjmp	.+90     	; 0x1672 <HotSummer+0xc4>
        }
        if (adcTemp <= (calTemp + 8)) cooledDown = 1;
    1618:	80 91 c0 3a 	lds	r24, 0x3AC0	; 0x803ac0 <calTemp>
    161c:	90 91 c1 3a 	lds	r25, 0x3AC1	; 0x803ac1 <calTemp+0x1>
    1620:	20 91 f5 3a 	lds	r18, 0x3AF5	; 0x803af5 <adcTemp>
    1624:	30 91 f6 3a 	lds	r19, 0x3AF6	; 0x803af6 <adcTemp+0x1>
    1628:	08 96       	adiw	r24, 0x08	; 8
    162a:	82 17       	cp	r24, r18
    162c:	93 07       	cpc	r25, r19
    162e:	08 f1       	brcs	.+66     	; 0x1672 <HotSummer+0xc4>
    1630:	81 e0       	ldi	r24, 0x01	; 1
    1632:	80 93 59 38 	sts	0x3859, r24	; 0x803859 <cooledDown.3947>
    1636:	1d c0       	rjmp	.+58     	; 0x1672 <HotSummer+0xc4>
                   
    } else {
        if (calTemp == 0) calTemp = adcTemp;
    1638:	80 91 c0 3a 	lds	r24, 0x3AC0	; 0x803ac0 <calTemp>
    163c:	90 91 c1 3a 	lds	r25, 0x3AC1	; 0x803ac1 <calTemp+0x1>
    1640:	89 2b       	or	r24, r25
    1642:	41 f4       	brne	.+16     	; 0x1654 <HotSummer+0xa6>
    1644:	80 91 f5 3a 	lds	r24, 0x3AF5	; 0x803af5 <adcTemp>
    1648:	90 91 f6 3a 	lds	r25, 0x3AF6	; 0x803af6 <adcTemp+0x1>
    164c:	80 93 c0 3a 	sts	0x3AC0, r24	; 0x803ac0 <calTemp>
    1650:	90 93 c1 3a 	sts	0x3AC1, r25	; 0x803ac1 <calTemp+0x1>
        if (adcTemp >= (calTemp + 32)) {
    1654:	80 91 c0 3a 	lds	r24, 0x3AC0	; 0x803ac0 <calTemp>
    1658:	90 91 c1 3a 	lds	r25, 0x3AC1	; 0x803ac1 <calTemp+0x1>
    165c:	20 91 f5 3a 	lds	r18, 0x3AF5	; 0x803af5 <adcTemp>
    1660:	30 91 f6 3a 	lds	r19, 0x3AF6	; 0x803af6 <adcTemp+0x1>
    1664:	80 96       	adiw	r24, 0x20	; 32
    1666:	28 17       	cp	r18, r24
    1668:	39 07       	cpc	r19, r25
            UpdateState(FIRST_SUMMER);
    166a:	18 f0       	brcs	.+6      	; 0x1672 <HotSummer+0xc4>
    166c:	85 e7       	ldi	r24, 0x75	; 117
    166e:	21 df       	rcall	.-446    	; 0x14b2 <UpdateState>
        }
    }
    return 0;
    1670:	c0 e0       	ldi	r28, 0x00	; 0
}
    1672:	8c 2f       	mov	r24, r28
    1674:	cf 91       	pop	r28
    1676:	08 95       	ret

00001678 <WingBar>:

void WingBar(int8_t l, int8_t r) {
    1678:	e6 e4       	ldi	r30, 0x46	; 70
    167a:	fe eb       	ldi	r31, 0xBE	; 190
    for (int8_t i=0; i<5; i++) {
    167c:	90 e0       	ldi	r25, 0x00	; 0
        if (i<l)
            iLED[WING[L][i]] = dimValue;
    167e:	a5 81       	ldd	r26, Z+5	; 0x05
    1680:	b0 e0       	ldi	r27, 0x00	; 0
    return 0;
}

void WingBar(int8_t l, int8_t r) {
    for (int8_t i=0; i<5; i++) {
        if (i<l)
    1682:	98 17       	cp	r25, r24
    1684:	34 f4       	brge	.+12     	; 0x1692 <WingBar+0x1a>
            iLED[WING[L][i]] = dimValue;
    1686:	20 91 0a 38 	lds	r18, 0x380A	; 0x80380a <dimValue>
    168a:	a6 53       	subi	r26, 0x36	; 54
    168c:	b5 4c       	sbci	r27, 0xC5	; 197
    168e:	2c 93       	st	X, r18
    1690:	03 c0       	rjmp	.+6      	; 0x1698 <WingBar+0x20>
        else
            iLED[WING[L][i]] = 0;
    1692:	a6 53       	subi	r26, 0x36	; 54
    1694:	b5 4c       	sbci	r27, 0xC5	; 197
    1696:	1c 92       	st	X, r1
        if (i<r)
            iLED[WING[R][i]] = dimValue;
    1698:	a0 81       	ld	r26, Z
    169a:	b0 e0       	ldi	r27, 0x00	; 0
    for (int8_t i=0; i<5; i++) {
        if (i<l)
            iLED[WING[L][i]] = dimValue;
        else
            iLED[WING[L][i]] = 0;
        if (i<r)
    169c:	96 17       	cp	r25, r22
    169e:	34 f4       	brge	.+12     	; 0x16ac <WingBar+0x34>
            iLED[WING[R][i]] = dimValue;
    16a0:	20 91 0a 38 	lds	r18, 0x380A	; 0x80380a <dimValue>
    16a4:	a6 53       	subi	r26, 0x36	; 54
    16a6:	b5 4c       	sbci	r27, 0xC5	; 197
    16a8:	2c 93       	st	X, r18
    16aa:	03 c0       	rjmp	.+6      	; 0x16b2 <WingBar+0x3a>
        else
            iLED[WING[R][i]] = 0;
    16ac:	a6 53       	subi	r26, 0x36	; 54
    16ae:	b5 4c       	sbci	r27, 0xC5	; 197
    16b0:	1c 92       	st	X, r1
    16b2:	9f 5f       	subi	r25, 0xFF	; 255
    16b4:	31 96       	adiw	r30, 0x01	; 1
    }
    return 0;
}

void WingBar(int8_t l, int8_t r) {
    for (int8_t i=0; i<5; i++) {
    16b6:	95 30       	cpi	r25, 0x05	; 5
    16b8:	11 f7       	brne	.-60     	; 0x167e <WingBar+0x6>
        if (i<r)
            iLED[WING[R][i]] = dimValue;
        else
            iLED[WING[R][i]] = 0;
    }
}
    16ba:	08 95       	ret

000016bc <SetBothEyes>:

void SetBothEyes(uint8_t r, uint8_t g) {
    for (uint8_t i=0; i<2; i++) {
        iLED[EYE[R][i]] = r;
    16bc:	a0 e5       	ldi	r26, 0x50	; 80
    16be:	be eb       	ldi	r27, 0xBE	; 190
    16c0:	ec 91       	ld	r30, X
    16c2:	f0 e0       	ldi	r31, 0x00	; 0
    16c4:	e6 53       	subi	r30, 0x36	; 54
    16c6:	f5 4c       	sbci	r31, 0xC5	; 197
    16c8:	80 83       	st	Z, r24
        iLED[EYE[G][i]] = g;
    16ca:	12 96       	adiw	r26, 0x02	; 2
    16cc:	ec 91       	ld	r30, X
    16ce:	12 97       	sbiw	r26, 0x02	; 2
    16d0:	f0 e0       	ldi	r31, 0x00	; 0
    16d2:	e6 53       	subi	r30, 0x36	; 54
    16d4:	f5 4c       	sbci	r31, 0xC5	; 197
    16d6:	60 83       	st	Z, r22
    }
}

void SetBothEyes(uint8_t r, uint8_t g) {
    for (uint8_t i=0; i<2; i++) {
        iLED[EYE[R][i]] = r;
    16d8:	11 96       	adiw	r26, 0x01	; 1
    16da:	ec 91       	ld	r30, X
    16dc:	11 97       	sbiw	r26, 0x01	; 1
    16de:	f0 e0       	ldi	r31, 0x00	; 0
    16e0:	e6 53       	subi	r30, 0x36	; 54
    16e2:	f5 4c       	sbci	r31, 0xC5	; 197
    16e4:	80 83       	st	Z, r24
        iLED[EYE[G][i]] = g;
    16e6:	13 96       	adiw	r26, 0x03	; 3
    16e8:	ec 91       	ld	r30, X
    16ea:	f0 e0       	ldi	r31, 0x00	; 0
    16ec:	e6 53       	subi	r30, 0x36	; 54
    16ee:	f5 4c       	sbci	r31, 0xC5	; 197
    16f0:	60 83       	st	Z, r22
    16f2:	08 95       	ret

000016f4 <GenerateBlinks>:
    }
}

void GenerateBlinks(){
    16f4:	1f 93       	push	r17
    16f6:	cf 93       	push	r28
    16f8:	df 93       	push	r29
    used by the games, the other LEDs can be used by setting 
    effect (or be set directly)
    */

    //Activate HCKR & BADGER leds based on the state-bits
    if (gameNow == TEXT) {
    16fa:	80 91 3c 38 	lds	r24, 0x383C	; 0x80383c <gameNow>
    16fe:	88 23       	and	r24, r24
    1700:	29 f0       	breq	.+10     	; 0x170c <GenerateBlinks+0x18>
                iLED[HCKR[R][i]] = dimValue;
            }
        }
    }

    if (CheckState(GEM_STATE)) {
    1702:	80 e4       	ldi	r24, 0x40	; 64
    1704:	e0 de       	rcall	.-576    	; 0x14c6 <CheckState>
    1706:	81 11       	cpse	r24, r1
    1708:	24 c0       	rjmp	.+72     	; 0x1752 <GenerateBlinks+0x5e>
    170a:	50 c0       	rjmp	.+160    	; 0x17ac <GenerateBlinks+0xb8>
    170c:	c4 e5       	ldi	r28, 0x54	; 84
    170e:	de eb       	ldi	r29, 0xBE	; 190
    used by the games, the other LEDs can be used by setting 
    effect (or be set directly)
    */

    //Activate HCKR & BADGER leds based on the state-bits
    if (gameNow == TEXT) {
    1710:	1a e7       	ldi	r17, 0x7A	; 122
        for (uint8_t i=0;i<6;i++) {
            if(CheckState(HACKER_STATES + i)) {
    1712:	81 2f       	mov	r24, r17
    1714:	d8 de       	rcall	.-592    	; 0x14c6 <CheckState>
                iLED[HCKR[G][i]] = dimValue;
    1716:	ee 81       	ldd	r30, Y+6	; 0x06
    1718:	f0 e0       	ldi	r31, 0x00	; 0
    */

    //Activate HCKR & BADGER leds based on the state-bits
    if (gameNow == TEXT) {
        for (uint8_t i=0;i<6;i++) {
            if(CheckState(HACKER_STATES + i)) {
    171a:	88 23       	and	r24, r24
    171c:	59 f0       	breq	.+22     	; 0x1734 <GenerateBlinks+0x40>
                iLED[HCKR[G][i]] = dimValue;
    171e:	80 91 0a 38 	lds	r24, 0x380A	; 0x80380a <dimValue>
    1722:	e6 53       	subi	r30, 0x36	; 54
    1724:	f5 4c       	sbci	r31, 0xC5	; 197
    1726:	80 83       	st	Z, r24
                iLED[HCKR[R][i]] = 0;
    1728:	e8 81       	ld	r30, Y
    172a:	f0 e0       	ldi	r31, 0x00	; 0
    172c:	e6 53       	subi	r30, 0x36	; 54
    172e:	f5 4c       	sbci	r31, 0xC5	; 197
    1730:	10 82       	st	Z, r1
    1732:	0a c0       	rjmp	.+20     	; 0x1748 <GenerateBlinks+0x54>
            } else {
                iLED[HCKR[G][i]] = 0;
    1734:	e6 53       	subi	r30, 0x36	; 54
    1736:	f5 4c       	sbci	r31, 0xC5	; 197
    1738:	10 82       	st	Z, r1
                iLED[HCKR[R][i]] = dimValue;
    173a:	e8 81       	ld	r30, Y
    173c:	f0 e0       	ldi	r31, 0x00	; 0
    173e:	80 91 0a 38 	lds	r24, 0x380A	; 0x80380a <dimValue>
    1742:	e6 53       	subi	r30, 0x36	; 54
    1744:	f5 4c       	sbci	r31, 0xC5	; 197
    1746:	80 83       	st	Z, r24
    1748:	1f 5f       	subi	r17, 0xFF	; 255
    174a:	21 96       	adiw	r28, 0x01	; 1
    effect (or be set directly)
    */

    //Activate HCKR & BADGER leds based on the state-bits
    if (gameNow == TEXT) {
        for (uint8_t i=0;i<6;i++) {
    174c:	10 38       	cpi	r17, 0x80	; 128
    174e:	09 f7       	brne	.-62     	; 0x1712 <GenerateBlinks+0x1e>
    1750:	d8 cf       	rjmp	.-80     	; 0x1702 <GenerateBlinks+0xe>
            }
        }
    }

    if (CheckState(GEM_STATE)) {
        if ( HeartCount == 1 || HeartCount == 3 || HeartCount == 5 )
    1752:	80 91 5b 38 	lds	r24, 0x385B	; 0x80385b <HeartCount>
    1756:	98 2f       	mov	r25, r24
    1758:	9d 7f       	andi	r25, 0xFD	; 253
    175a:	e0 91 43 be 	lds	r30, 0xBE43	; 0x80be43 <__bss_end+0x8329>
            iLED[BADGER] = dimValue>>1 ;
    175e:	f0 e0       	ldi	r31, 0x00	; 0
            }
        }
    }

    if (CheckState(GEM_STATE)) {
        if ( HeartCount == 1 || HeartCount == 3 || HeartCount == 5 )
    1760:	91 30       	cpi	r25, 0x01	; 1
    1762:	11 f0       	breq	.+4      	; 0x1768 <GenerateBlinks+0x74>
    1764:	85 30       	cpi	r24, 0x05	; 5
    1766:	21 f4       	brne	.+8      	; 0x1770 <GenerateBlinks+0x7c>
            iLED[BADGER] = dimValue>>1 ;
    1768:	90 91 0a 38 	lds	r25, 0x380A	; 0x80380a <dimValue>
    176c:	96 95       	lsr	r25
    176e:	06 c0       	rjmp	.+12     	; 0x177c <GenerateBlinks+0x88>
        else if ( HeartCount == 2 || HeartCount == 4 )
    1770:	82 30       	cpi	r24, 0x02	; 2
    1772:	11 f0       	breq	.+4      	; 0x1778 <GenerateBlinks+0x84>
    1774:	84 30       	cpi	r24, 0x04	; 4
    1776:	31 f4       	brne	.+12     	; 0x1784 <GenerateBlinks+0x90>
            iLED[BADGER] = dimValue;
    1778:	90 91 0a 38 	lds	r25, 0x380A	; 0x80380a <dimValue>
    177c:	e6 53       	subi	r30, 0x36	; 54
    177e:	f5 4c       	sbci	r31, 0xC5	; 197
    1780:	90 83       	st	Z, r25
    1782:	0c c0       	rjmp	.+24     	; 0x179c <GenerateBlinks+0xa8>
        else if ( HeartCount == 0 || HeartCount == 6 )
    1784:	88 23       	and	r24, r24
    1786:	11 f0       	breq	.+4      	; 0x178c <GenerateBlinks+0x98>
    1788:	86 30       	cpi	r24, 0x06	; 6
    178a:	29 f4       	brne	.+10     	; 0x1796 <GenerateBlinks+0xa2>
            iLED[BADGER] = dimValue>>2;
    178c:	90 91 0a 38 	lds	r25, 0x380A	; 0x80380a <dimValue>
    1790:	96 95       	lsr	r25
    1792:	96 95       	lsr	r25
    1794:	f3 cf       	rjmp	.-26     	; 0x177c <GenerateBlinks+0x88>
        else
            iLED[BADGER] = 0;
    1796:	e6 53       	subi	r30, 0x36	; 54
    1798:	f5 4c       	sbci	r31, 0xC5	; 197
    179a:	10 82       	st	Z, r1
        if (HeartCount<32)
    179c:	80 32       	cpi	r24, 0x20	; 32
    179e:	20 f4       	brcc	.+8      	; 0x17a8 <GenerateBlinks+0xb4>
            HeartCount++;
    17a0:	8f 5f       	subi	r24, 0xFF	; 255
    17a2:	80 93 5b 38 	sts	0x385B, r24	; 0x80385b <HeartCount>
    17a6:	02 c0       	rjmp	.+4      	; 0x17ac <GenerateBlinks+0xb8>
        else
            HeartCount = 0;
    17a8:	10 92 5b 38 	sts	0x385B, r1	; 0x80385b <HeartCount>
    }

    //LEDs effects for all games
    // Keep a counter for dynamic effects
    LedCount++;
    17ac:	90 91 5a 38 	lds	r25, 0x385A	; 0x80385a <LedCount>
    17b0:	9f 5f       	subi	r25, 0xFF	; 255
    17b2:	90 93 5a 38 	sts	0x385A, r25	; 0x80385a <LedCount>

    switch (effect&0x1f) {
    17b6:	20 91 3a 38 	lds	r18, 0x383A	; 0x80383a <effect>
    17ba:	30 91 3b 38 	lds	r19, 0x383B	; 0x80383b <effect+0x1>
    17be:	2f 71       	andi	r18, 0x1F	; 31
    17c0:	33 27       	eor	r19, r19
    17c2:	21 30       	cpi	r18, 0x01	; 1
    17c4:	31 05       	cpc	r19, r1
    17c6:	99 f1       	breq	.+102    	; 0x182e <GenerateBlinks+0x13a>
    17c8:	20 f0       	brcs	.+8      	; 0x17d2 <GenerateBlinks+0xde>
    17ca:	22 30       	cpi	r18, 0x02	; 2
    17cc:	31 05       	cpc	r19, r1
    17ce:	b1 f1       	breq	.+108    	; 0x183c <GenerateBlinks+0x148>
    17d0:	46 c0       	rjmp	.+140    	; 0x185e <GenerateBlinks+0x16a>
        // All LEDs off
        case 0:
            WingBar(0,0);
    17d2:	60 e0       	ldi	r22, 0x00	; 0
    17d4:	80 e0       	ldi	r24, 0x00	; 0
    17d6:	50 df       	rcall	.-352    	; 0x1678 <WingBar>
            for (uint8_t i=0; i<2; i++) {
                iLED[EYE[R][i]] = 0;
    17d8:	e0 91 50 be 	lds	r30, 0xBE50	; 0x80be50 <__bss_end+0x8336>
    17dc:	f0 e0       	ldi	r31, 0x00	; 0
    17de:	e6 53       	subi	r30, 0x36	; 54
    17e0:	f5 4c       	sbci	r31, 0xC5	; 197
    17e2:	10 82       	st	Z, r1
                iLED[EYE[G][i]] = 0;
    17e4:	e0 91 52 be 	lds	r30, 0xBE52	; 0x80be52 <__bss_end+0x8338>
    17e8:	f0 e0       	ldi	r31, 0x00	; 0
    17ea:	e6 53       	subi	r30, 0x36	; 54
    17ec:	f5 4c       	sbci	r31, 0xC5	; 197
    17ee:	10 82       	st	Z, r1
                iLED[SCARAB[i]] = 0;
    17f0:	e0 91 44 be 	lds	r30, 0xBE44	; 0x80be44 <__bss_end+0x832a>
    17f4:	f0 e0       	ldi	r31, 0x00	; 0
    17f6:	e6 53       	subi	r30, 0x36	; 54
    17f8:	f5 4c       	sbci	r31, 0xC5	; 197
    17fa:	10 82       	st	Z, r1
    switch (effect&0x1f) {
        // All LEDs off
        case 0:
            WingBar(0,0);
            for (uint8_t i=0; i<2; i++) {
                iLED[EYE[R][i]] = 0;
    17fc:	e0 91 51 be 	lds	r30, 0xBE51	; 0x80be51 <__bss_end+0x8337>
    1800:	f0 e0       	ldi	r31, 0x00	; 0
    1802:	e6 53       	subi	r30, 0x36	; 54
    1804:	f5 4c       	sbci	r31, 0xC5	; 197
    1806:	10 82       	st	Z, r1
                iLED[EYE[G][i]] = 0;
    1808:	e0 91 53 be 	lds	r30, 0xBE53	; 0x80be53 <__bss_end+0x8339>
    180c:	f0 e0       	ldi	r31, 0x00	; 0
    180e:	e6 53       	subi	r30, 0x36	; 54
    1810:	f5 4c       	sbci	r31, 0xC5	; 197
    1812:	10 82       	st	Z, r1
                iLED[SCARAB[i]] = 0;
    1814:	e0 91 45 be 	lds	r30, 0xBE45	; 0x80be45 <__bss_end+0x832b>
    1818:	f0 e0       	ldi	r31, 0x00	; 0
    181a:	e6 53       	subi	r30, 0x36	; 54
    181c:	f5 4c       	sbci	r31, 0xC5	; 197
    181e:	10 82       	st	Z, r1
            }
            iLED[CAT] = 0;
    1820:	e0 91 42 be 	lds	r30, 0xBE42	; 0x80be42 <__bss_end+0x8328>
    1824:	f0 e0       	ldi	r31, 0x00	; 0
    1826:	e6 53       	subi	r30, 0x36	; 54
    1828:	f5 4c       	sbci	r31, 0xC5	; 197
    182a:	10 82       	st	Z, r1
            break;
    182c:	18 c0       	rjmp	.+48     	; 0x185e <GenerateBlinks+0x16a>

        //'flashing red eyes',       # 1 can be used when a bad answer is given
        case 1:
            SetBothEyes((LedCount & 1 ? dimValue : 0),0);
    182e:	89 2f       	mov	r24, r25
    1830:	81 70       	andi	r24, 0x01	; 1
    1832:	90 fd       	sbrc	r25, 0
    1834:	80 91 0a 38 	lds	r24, 0x380A	; 0x80380a <dimValue>
    1838:	60 e0       	ldi	r22, 0x00	; 0
    183a:	0d c0       	rjmp	.+26     	; 0x1856 <GenerateBlinks+0x162>
    183c:	69 2f       	mov	r22, r25
    183e:	70 e0       	ldi	r23, 0x00	; 0
            break;

        //'flashing green eyes',     # 2 can be used when a good answer is given
        case 2:
            SetBothEyes(0, 0x1f + (((LedCount & 0x08) ? ((LedCount&0x07)^0x07) : (LedCount&0x07))<<5));
    1840:	93 ff       	sbrs	r25, 3
    1842:	02 c0       	rjmp	.+4      	; 0x1848 <GenerateBlinks+0x154>
    1844:	60 95       	com	r22
    1846:	70 95       	com	r23
    1848:	85 e0       	ldi	r24, 0x05	; 5
    184a:	66 0f       	add	r22, r22
    184c:	77 1f       	adc	r23, r23
    184e:	8a 95       	dec	r24
    1850:	e1 f7       	brne	.-8      	; 0x184a <GenerateBlinks+0x156>
    1852:	61 5e       	subi	r22, 0xE1	; 225
    1854:	80 e0       	ldi	r24, 0x00	; 0
        // No LED action, game will do it's own LED magic
        case 31:
        default:
            break;
    }
}
    1856:	df 91       	pop	r29
    1858:	cf 91       	pop	r28
            SetBothEyes((LedCount & 1 ? dimValue : 0),0);
            break;

        //'flashing green eyes',     # 2 can be used when a good answer is given
        case 2:
            SetBothEyes(0, 0x1f + (((LedCount & 0x08) ? ((LedCount&0x07)^0x07) : (LedCount&0x07))<<5));
    185a:	1f 91       	pop	r17
    185c:	2f cf       	rjmp	.-418    	; 0x16bc <SetBothEyes>
        // No LED action, game will do it's own LED magic
        case 31:
        default:
            break;
    }
}
    185e:	df 91       	pop	r29
    1860:	cf 91       	pop	r28
    1862:	1f 91       	pop	r17
    1864:	08 95       	ret

00001866 <GenerateAudio>:


uint8_t GenerateAudio(){
    1866:	0f 93       	push	r16
    1868:	1f 93       	push	r17
    186a:	cf 93       	push	r28

    if (auIn[AULEN>>1] < HPLVL) {
    186c:	80 91 c6 3a 	lds	r24, 0x3AC6	; 0x803ac6 <auIn+0x4>
    1870:	89 31       	cpi	r24, 0x19	; 25
    1872:	08 f0       	brcs	.+2      	; 0x1876 <GenerateAudio+0x10>
    1874:	27 c1       	rjmp	.+590    	; 0x1ac4 <GenerateAudio+0x25e>

        detHdPh = 1;
    1876:	c1 e0       	ldi	r28, 0x01	; 1
    1878:	c0 93 bf 3a 	sts	0x3ABF, r28	; 0x803abf <detHdPh>

        //Audio for text adventure
        if ((effect&0xff00)==0) {
    187c:	80 91 3a 38 	lds	r24, 0x383A	; 0x80383a <effect>
    1880:	90 91 3b 38 	lds	r25, 0x383B	; 0x80383b <effect+0x1>
    1884:	88 27       	eor	r24, r24
    1886:	89 2b       	or	r24, r25
    1888:	09 f0       	breq	.+2      	; 0x188c <GenerateAudio+0x26>
    188a:	bf c0       	rjmp	.+382    	; 0x1a0a <GenerateAudio+0x1a4>

            //Silence
            if ((effect&0xE0)==0){
    188c:	80 91 3a 38 	lds	r24, 0x383A	; 0x80383a <effect>
    1890:	90 91 3b 38 	lds	r25, 0x383B	; 0x80383b <effect+0x1>
    1894:	80 7e       	andi	r24, 0xE0	; 224
    1896:	99 27       	eor	r25, r25
    1898:	89 2b       	or	r24, r25
    189a:	31 f4       	brne	.+12     	; 0x18a8 <GenerateAudio+0x42>
                auRepAddr = &zero;
    189c:	88 e3       	ldi	r24, 0x38	; 56
    189e:	98 e3       	ldi	r25, 0x38	; 56
    18a0:	80 93 03 38 	sts	0x3803, r24	; 0x803803 <auRepAddr>
    18a4:	90 93 04 38 	sts	0x3804, r25	; 0x803804 <auRepAddr+0x1>
            }

            //Bad (buzzer)
            if ((effect&0xE0)==32){
    18a8:	80 91 3a 38 	lds	r24, 0x383A	; 0x80383a <effect>
    18ac:	90 91 3b 38 	lds	r25, 0x383B	; 0x80383b <effect+0x1>
    18b0:	80 7e       	andi	r24, 0xE0	; 224
    18b2:	99 27       	eor	r25, r25
    18b4:	80 97       	sbiw	r24, 0x20	; 32
    18b6:	09 f0       	breq	.+2      	; 0x18ba <GenerateAudio+0x54>
    18b8:	59 c0       	rjmp	.+178    	; 0x196c <GenerateAudio+0x106>
                static uint8_t auBuffer[17] = {1, 255, 128, 128, 192, 255, 64, 255, 192, 128, 64, 1, 192, 1, 64, 128, 0}; 
                static uint8_t loudness, duration, start;
                floatSpeed(1, 0x2000, 0x2200);
    18ba:	40 e0       	ldi	r20, 0x00	; 0
    18bc:	52 e2       	ldi	r21, 0x22	; 34
    18be:	60 e0       	ldi	r22, 0x00	; 0
    18c0:	70 e2       	ldi	r23, 0x20	; 32
    18c2:	81 e0       	ldi	r24, 0x01	; 1
    18c4:	f1 dc       	rcall	.-1566   	; 0x12a8 <floatSpeed>
                auBuffer[2] = floatAround(0x80, 5, 0x01, 0x00);
    18c6:	20 e0       	ldi	r18, 0x00	; 0
    18c8:	41 e0       	ldi	r20, 0x01	; 1
    18ca:	65 e0       	ldi	r22, 0x05	; 5
    18cc:	80 e8       	ldi	r24, 0x80	; 128
    18ce:	1e dd       	rcall	.-1476   	; 0x130c <floatAround>
    18d0:	80 93 11 38 	sts	0x3811, r24	; 0x803811 <auBuffer.3982+0x2>

                if (buttonMark) {
    18d4:	80 91 42 38 	lds	r24, 0x3842	; 0x803842 <buttonMark>
    18d8:	88 23       	and	r24, r24
    18da:	09 f4       	brne	.+2      	; 0x18de <GenerateAudio+0x78>
    18dc:	47 c0       	rjmp	.+142    	; 0x196c <GenerateAudio+0x106>
                    if (start == 0) {
    18de:	80 91 58 38 	lds	r24, 0x3858	; 0x803858 <start.3985>
    18e2:	81 11       	cpse	r24, r1
    18e4:	15 c0       	rjmp	.+42     	; 0x1910 <GenerateAudio+0xaa>
                        duration = 4;
    18e6:	84 e0       	ldi	r24, 0x04	; 4
    18e8:	80 93 57 38 	sts	0x3857, r24	; 0x803857 <duration.3984>
                        loudness = 0xff;
    18ec:	8f ef       	ldi	r24, 0xFF	; 255
    18ee:	80 93 56 38 	sts	0x3856, r24	; 0x803856 <loudness.3983>
                        TCB1_CCMP = 0x2000;
    18f2:	80 e0       	ldi	r24, 0x00	; 0
    18f4:	90 e2       	ldi	r25, 0x20	; 32
    18f6:	80 93 5c 0a 	sts	0x0A5C, r24	; 0x800a5c <__TEXT_REGION_LENGTH__+0x700a5c>
    18fa:	90 93 5d 0a 	sts	0x0A5D, r25	; 0x800a5d <__TEXT_REGION_LENGTH__+0x700a5d>
                        auRepAddr = &auBuffer[0];
    18fe:	8f e0       	ldi	r24, 0x0F	; 15
    1900:	98 e3       	ldi	r25, 0x38	; 56
    1902:	80 93 03 38 	sts	0x3803, r24	; 0x803803 <auRepAddr>
    1906:	90 93 04 38 	sts	0x3804, r25	; 0x803804 <auRepAddr+0x1>
                        start = 1;
    190a:	81 e0       	ldi	r24, 0x01	; 1
    190c:	80 93 58 38 	sts	0x3858, r24	; 0x803858 <start.3985>
                    }

                    if (loudness) {
    1910:	80 91 56 38 	lds	r24, 0x3856	; 0x803856 <loudness.3983>
    1914:	88 23       	and	r24, r24
    1916:	69 f0       	breq	.+26     	; 0x1932 <GenerateAudio+0xcc>
                        auVolume = loudness;
    1918:	80 93 b6 3a 	sts	0x3AB6, r24	; 0x803ab6 <auVolume>
                        if (duration) duration--; else loudness >>= 1;
    191c:	90 91 57 38 	lds	r25, 0x3857	; 0x803857 <duration.3984>
    1920:	99 23       	and	r25, r25
    1922:	21 f0       	breq	.+8      	; 0x192c <GenerateAudio+0xc6>
    1924:	91 50       	subi	r25, 0x01	; 1
    1926:	90 93 57 38 	sts	0x3857, r25	; 0x803857 <duration.3984>
    192a:	03 c0       	rjmp	.+6      	; 0x1932 <GenerateAudio+0xcc>
    192c:	86 95       	lsr	r24
    192e:	80 93 56 38 	sts	0x3856, r24	; 0x803856 <loudness.3983>
                    } 

                    if (loudness == 0) {
    1932:	80 91 56 38 	lds	r24, 0x3856	; 0x803856 <loudness.3983>
    1936:	81 11       	cpse	r24, r1
    1938:	19 c0       	rjmp	.+50     	; 0x196c <GenerateAudio+0x106>
                        effect &= 0x1f;
    193a:	80 91 3a 38 	lds	r24, 0x383A	; 0x80383a <effect>
    193e:	90 91 3b 38 	lds	r25, 0x383B	; 0x80383b <effect+0x1>
    1942:	8f 71       	andi	r24, 0x1F	; 31
    1944:	99 27       	eor	r25, r25
    1946:	80 93 3a 38 	sts	0x383A, r24	; 0x80383a <effect>
    194a:	90 93 3b 38 	sts	0x383B, r25	; 0x80383b <effect+0x1>
                        auRepAddr = &zero;
    194e:	88 e3       	ldi	r24, 0x38	; 56
    1950:	98 e3       	ldi	r25, 0x38	; 56
    1952:	80 93 03 38 	sts	0x3803, r24	; 0x803803 <auRepAddr>
    1956:	90 93 04 38 	sts	0x3804, r25	; 0x803804 <auRepAddr+0x1>
                        auSmpAddr = &zero;
    195a:	80 93 05 38 	sts	0x3805, r24	; 0x803805 <auSmpAddr>
    195e:	90 93 06 38 	sts	0x3806, r25	; 0x803806 <auSmpAddr+0x1>
                        auVolume = 0xff;
    1962:	8f ef       	ldi	r24, 0xFF	; 255
    1964:	80 93 b6 3a 	sts	0x3AB6, r24	; 0x803ab6 <auVolume>
                        start = 0;
    1968:	10 92 58 38 	sts	0x3858, r1	; 0x803858 <start.3985>
                    }
                }
            }

            //Good (bell)
            if ((effect&0xE0)==64){
    196c:	80 91 3a 38 	lds	r24, 0x383A	; 0x80383a <effect>
    1970:	90 91 3b 38 	lds	r25, 0x383B	; 0x80383b <effect+0x1>
                //auBuffer = 
            }

            //Rain storm with whistling wind
            if ((effect&0xE0)==96){
    1974:	80 91 3a 38 	lds	r24, 0x383A	; 0x80383a <effect>
    1978:	90 91 3b 38 	lds	r25, 0x383B	; 0x80383b <effect+0x1>
    197c:	80 7e       	andi	r24, 0xE0	; 224
    197e:	99 27       	eor	r25, r25
    1980:	80 36       	cpi	r24, 0x60	; 96
    1982:	91 05       	cpc	r25, r1
    1984:	a9 f5       	brne	.+106    	; 0x19f0 <GenerateAudio+0x18a>
                static uint8_t auBuffer[7];
                auBuffer[6]= 0;        
    1986:	10 92 55 38 	sts	0x3855, r1	; 0x803855 <auBuffer.3986+0x6>
                auRepAddr = &auBuffer[0];
    198a:	8f e4       	ldi	r24, 0x4F	; 79
    198c:	98 e3       	ldi	r25, 0x38	; 56
    198e:	80 93 03 38 	sts	0x3803, r24	; 0x803803 <auRepAddr>
    1992:	90 93 04 38 	sts	0x3804, r25	; 0x803804 <auRepAddr+0x1>
    1996:	8c 01       	movw	r16, r24

                //Noise is to be generated fast, outside of buttonMark loop
                for (uint8_t x=1; x<6; ++x){
    1998:	c1 e0       	ldi	r28, 0x01	; 1
                    if ((x>0) && (x!=3)) auBuffer[x] = floatAround(0x80, 5, 0x01, 0x00);
    199a:	c3 30       	cpi	r28, 0x03	; 3
    199c:	39 f0       	breq	.+14     	; 0x19ac <GenerateAudio+0x146>
    199e:	20 e0       	ldi	r18, 0x00	; 0
    19a0:	41 e0       	ldi	r20, 0x01	; 1
    19a2:	65 e0       	ldi	r22, 0x05	; 5
    19a4:	80 e8       	ldi	r24, 0x80	; 128
    19a6:	b2 dc       	rcall	.-1692   	; 0x130c <floatAround>
    19a8:	f8 01       	movw	r30, r16
    19aa:	81 83       	std	Z+1, r24	; 0x01
                static uint8_t auBuffer[7];
                auBuffer[6]= 0;        
                auRepAddr = &auBuffer[0];

                //Noise is to be generated fast, outside of buttonMark loop
                for (uint8_t x=1; x<6; ++x){
    19ac:	cf 5f       	subi	r28, 0xFF	; 255
    19ae:	0f 5f       	subi	r16, 0xFF	; 255
    19b0:	1f 4f       	sbci	r17, 0xFF	; 255
    19b2:	c6 30       	cpi	r28, 0x06	; 6
    19b4:	91 f7       	brne	.-28     	; 0x199a <GenerateAudio+0x134>
                    if ((x>0) && (x!=3)) auBuffer[x] = floatAround(0x80, 5, 0x01, 0x00);
                }

                if (buttonMark){
    19b6:	80 91 42 38 	lds	r24, 0x3842	; 0x803842 <buttonMark>
    19ba:	88 23       	and	r24, r24
    19bc:	c9 f0       	breq	.+50     	; 0x19f0 <GenerateAudio+0x18a>
                    //"Floating" speed for howl (and noise, but that's hardly audible)
                    floatSpeed(5, 0x0280, 0x0400);
    19be:	40 e0       	ldi	r20, 0x00	; 0
    19c0:	54 e0       	ldi	r21, 0x04	; 4
    19c2:	60 e8       	ldi	r22, 0x80	; 128
    19c4:	72 e0       	ldi	r23, 0x02	; 2
    19c6:	85 e0       	ldi	r24, 0x05	; 5
    19c8:	6f dc       	rcall	.-1826   	; 0x12a8 <floatSpeed>
            
                    //"Floating" volume and wind howl during 8 bit rainstorm needs some randomness
                    auVolume = floatAround(auVolume, 2, 0x10, 0xA0);
    19ca:	80 91 b6 3a 	lds	r24, 0x3AB6	; 0x803ab6 <auVolume>
    19ce:	20 ea       	ldi	r18, 0xA0	; 160
    19d0:	40 e1       	ldi	r20, 0x10	; 16
    19d2:	62 e0       	ldi	r22, 0x02	; 2
    19d4:	9b dc       	rcall	.-1738   	; 0x130c <floatAround>
    19d6:	80 93 b6 3a 	sts	0x3AB6, r24	; 0x803ab6 <auVolume>
                    auBuffer[0] = floatAround(auBuffer[0], 2, 0x70, 0x90);
    19da:	20 e9       	ldi	r18, 0x90	; 144
    19dc:	40 e7       	ldi	r20, 0x70	; 112
    19de:	62 e0       	ldi	r22, 0x02	; 2
    19e0:	80 91 4f 38 	lds	r24, 0x384F	; 0x80384f <auBuffer.3986>
    19e4:	93 dc       	rcall	.-1754   	; 0x130c <floatAround>
    19e6:	80 93 4f 38 	sts	0x384F, r24	; 0x80384f <auBuffer.3986>
                    auBuffer[3] = 0xFF-auBuffer[0];  //Inverse value of wind[0] produces a whistle
    19ea:	80 95       	com	r24
    19ec:	80 93 52 38 	sts	0x3852, r24	; 0x803852 <auBuffer.3986+0x3>
                }
            }

            //Footsteps
            if ((effect&0xE0)==128){
    19f0:	80 91 3a 38 	lds	r24, 0x383A	; 0x80383a <effect>
    19f4:	90 91 3b 38 	lds	r25, 0x383B	; 0x80383b <effect+0x1>

            }

            //
            if ((effect&0xE0)==160){
    19f8:	80 91 3a 38 	lds	r24, 0x383A	; 0x80383a <effect>
    19fc:	90 91 3b 38 	lds	r25, 0x383B	; 0x80383b <effect+0x1>

            }

            //
            if ((effect&0xE0)==192){
    1a00:	80 91 3a 38 	lds	r24, 0x383A	; 0x80383a <effect>
    1a04:	90 91 3b 38 	lds	r25, 0x383B	; 0x80383b <effect+0x1>
    1a08:	5f c0       	rjmp	.+190    	; 0x1ac8 <GenerateAudio+0x262>
            }

            //
            else {
            }
        } else if ((effect&0xff00)==0x0100) {
    1a0a:	80 91 3a 38 	lds	r24, 0x383A	; 0x80383a <effect>
    1a0e:	90 91 3b 38 	lds	r25, 0x383B	; 0x80383b <effect+0x1>
    1a12:	88 27       	eor	r24, r24
    1a14:	81 15       	cp	r24, r1
    1a16:	91 40       	sbci	r25, 0x01	; 1
    1a18:	09 f0       	breq	.+2      	; 0x1a1c <GenerateAudio+0x1b6>
    1a1a:	56 c0       	rjmp	.+172    	; 0x1ac8 <GenerateAudio+0x262>
            if ((effect&0xE0) <= 0x90) {
    1a1c:	80 91 3a 38 	lds	r24, 0x383A	; 0x80383a <effect>
    1a20:	90 91 3b 38 	lds	r25, 0x383B	; 0x80383b <effect+0x1>
    1a24:	80 7e       	andi	r24, 0xE0	; 224
    1a26:	99 27       	eor	r25, r25
    1a28:	81 39       	cpi	r24, 0x91	; 145
    1a2a:	91 05       	cpc	r25, r1
    1a2c:	08 f0       	brcs	.+2      	; 0x1a30 <GenerateAudio+0x1ca>
    1a2e:	4c c0       	rjmp	.+152    	; 0x1ac8 <GenerateAudio+0x262>
                
                static uint8_t auBuffer[3] = {255, 1, 0};
                static uint8_t duration, start;
                uint16_t freq = ((effect&0xE0)+1)<<6;
    1a30:	60 91 3a 38 	lds	r22, 0x383A	; 0x80383a <effect>
    1a34:	70 91 3b 38 	lds	r23, 0x383B	; 0x80383b <effect+0x1>
    1a38:	60 7e       	andi	r22, 0xE0	; 224
    1a3a:	77 27       	eor	r23, r23
    1a3c:	6f 5f       	subi	r22, 0xFF	; 255
    1a3e:	7f 4f       	sbci	r23, 0xFF	; 255
    1a40:	86 e0       	ldi	r24, 0x06	; 6
    1a42:	66 0f       	add	r22, r22
    1a44:	77 1f       	adc	r23, r23
    1a46:	8a 95       	dec	r24
                floatSpeed(1, freq+0x0200, freq+0x0300);
    1a48:	e1 f7       	brne	.-8      	; 0x1a42 <GenerateAudio+0x1dc>
    1a4a:	ab 01       	movw	r20, r22
    1a4c:	5d 5f       	subi	r21, 0xFD	; 253
    1a4e:	7e 5f       	subi	r23, 0xFE	; 254
    1a50:	81 e0       	ldi	r24, 0x01	; 1
    1a52:	2a dc       	rcall	.-1964   	; 0x12a8 <floatSpeed>
                //auBuffer[] = floatAround(0x80, 5, 0x01, 0x00);

                if (buttonMark) {
    1a54:	80 91 42 38 	lds	r24, 0x3842	; 0x803842 <buttonMark>
    1a58:	88 23       	and	r24, r24
    1a5a:	b1 f1       	breq	.+108    	; 0x1ac8 <GenerateAudio+0x262>
                    if (start == 0) {
    1a5c:	80 91 4e 38 	lds	r24, 0x384E	; 0x80384e <start.3993>
    1a60:	81 11       	cpse	r24, r1
    1a62:	0e c0       	rjmp	.+28     	; 0x1a80 <GenerateAudio+0x21a>
                        duration = 3;
    1a64:	83 e0       	ldi	r24, 0x03	; 3
    1a66:	80 93 4d 38 	sts	0x384D, r24	; 0x80384d <duration.3992>
                        auRepAddr = &auBuffer[0];
    1a6a:	8c e0       	ldi	r24, 0x0C	; 12
    1a6c:	98 e3       	ldi	r25, 0x38	; 56
    1a6e:	80 93 03 38 	sts	0x3803, r24	; 0x803803 <auRepAddr>
    1a72:	90 93 04 38 	sts	0x3804, r25	; 0x803804 <auRepAddr+0x1>
                        auVolume = 255;
    1a76:	8f ef       	ldi	r24, 0xFF	; 255
    1a78:	80 93 b6 3a 	sts	0x3AB6, r24	; 0x803ab6 <auVolume>
                        start = 1;
    1a7c:	c0 93 4e 38 	sts	0x384E, r28	; 0x80384e <start.3993>
                    }   if (duration == 0) {
    1a80:	80 91 4d 38 	lds	r24, 0x384D	; 0x80384d <duration.3992>
    1a84:	81 11       	cpse	r24, r1
    1a86:	1a c0       	rjmp	.+52     	; 0x1abc <GenerateAudio+0x256>
                        effect &= 0x1f;
    1a88:	80 91 3a 38 	lds	r24, 0x383A	; 0x80383a <effect>
    1a8c:	90 91 3b 38 	lds	r25, 0x383B	; 0x80383b <effect+0x1>
    1a90:	8f 71       	andi	r24, 0x1F	; 31
    1a92:	99 27       	eor	r25, r25
    1a94:	80 93 3a 38 	sts	0x383A, r24	; 0x80383a <effect>
    1a98:	90 93 3b 38 	sts	0x383B, r25	; 0x80383b <effect+0x1>
                        auRepAddr = &zero;
    1a9c:	88 e3       	ldi	r24, 0x38	; 56
    1a9e:	98 e3       	ldi	r25, 0x38	; 56
    1aa0:	80 93 03 38 	sts	0x3803, r24	; 0x803803 <auRepAddr>
    1aa4:	90 93 04 38 	sts	0x3804, r25	; 0x803804 <auRepAddr+0x1>
                        auSmpAddr = &zero;
    1aa8:	80 93 05 38 	sts	0x3805, r24	; 0x803805 <auSmpAddr>
    1aac:	90 93 06 38 	sts	0x3806, r25	; 0x803806 <auSmpAddr+0x1>
                        auVolume = 0xff;
    1ab0:	8f ef       	ldi	r24, 0xFF	; 255
    1ab2:	80 93 b6 3a 	sts	0x3AB6, r24	; 0x803ab6 <auVolume>
                        start = 0;
    1ab6:	10 92 4e 38 	sts	0x384E, r1	; 0x80384e <start.3993>
    1aba:	06 c0       	rjmp	.+12     	; 0x1ac8 <GenerateAudio+0x262>
                    } else duration--;
    1abc:	81 50       	subi	r24, 0x01	; 1
    1abe:	80 93 4d 38 	sts	0x384D, r24	; 0x80384d <duration.3992>
    1ac2:	02 c0       	rjmp	.+4      	; 0x1ac8 <GenerateAudio+0x262>
                }
            }
        }
    } else {
        detHdPh = 0;
    1ac4:	10 92 bf 3a 	sts	0x3ABF, r1	; 0x803abf <detHdPh>
    }
    return buttonMark;
    1ac8:	80 91 42 38 	lds	r24, 0x3842	; 0x803842 <buttonMark>
}
    1acc:	cf 91       	pop	r28
    1ace:	1f 91       	pop	r17
    1ad0:	0f 91       	pop	r16
    1ad2:	08 95       	ret

00001ad4 <getClock>:

uint16_t getClock() {
    return 60 * minuteMark + (RTC_CNT>>9);
    1ad4:	20 91 43 38 	lds	r18, 0x3843	; 0x803843 <minuteMark>
    1ad8:	80 91 48 01 	lds	r24, 0x0148	; 0x800148 <__TEXT_REGION_LENGTH__+0x700148>
    1adc:	90 91 49 01 	lds	r25, 0x0149	; 0x800149 <__TEXT_REGION_LENGTH__+0x700149>
    1ae0:	89 2f       	mov	r24, r25
    1ae2:	99 27       	eor	r25, r25
    1ae4:	86 95       	lsr	r24
}
    1ae6:	3c e3       	ldi	r19, 0x3C	; 60
    1ae8:	23 9f       	mul	r18, r19
    1aea:	80 0d       	add	r24, r0
    1aec:	91 1d       	adc	r25, r1
    1aee:	11 24       	eor	r1, r1
    1af0:	08 95       	ret

00001af2 <idleTimeout>:

uint8_t idleTimeout(uint16_t lastActive, uint16_t maxIdle) {
    1af2:	0f 93       	push	r16
    1af4:	1f 93       	push	r17
    1af6:	cf 93       	push	r28
    1af8:	df 93       	push	r29
    1afa:	8c 01       	movw	r16, r24
    1afc:	eb 01       	movw	r28, r22
    uint16_t curClock;

    curClock = getClock();
    1afe:	ea df       	rcall	.-44     	; 0x1ad4 <getClock>
    1b00:	9c 01       	movw	r18, r24
    if (curClock < lastActive)
    1b02:	80 17       	cp	r24, r16
    1b04:	91 07       	cpc	r25, r17
    1b06:	08 f4       	brcc	.+2      	; 0x1b0a <idleTimeout+0x18>
        curClock += 256 * 60;
    1b08:	34 5c       	subi	r19, 0xC4	; 196

    return (curClock > (lastActive + maxIdle));
    1b0a:	c0 0f       	add	r28, r16
    1b0c:	d1 1f       	adc	r29, r17
    1b0e:	81 e0       	ldi	r24, 0x01	; 1
    1b10:	c2 17       	cp	r28, r18
    1b12:	d3 07       	cpc	r29, r19
    1b14:	08 f0       	brcs	.+2      	; 0x1b18 <idleTimeout+0x26>
    1b16:	80 e0       	ldi	r24, 0x00	; 0
}
    1b18:	df 91       	pop	r29
    1b1a:	cf 91       	pop	r28
    1b1c:	1f 91       	pop	r17
    1b1e:	0f 91       	pop	r16
    1b20:	08 95       	ret

00001b22 <simonLed>:

/**
 * Set the wing LED blocks to selected option
 * @param val
 */
void simonLed(uint8_t val) {
    1b22:	cf 93       	push	r28
    1b24:	df 93       	push	r29
    1b26:	e6 e4       	ldi	r30, 0x46	; 70
    1b28:	fe eb       	ldi	r31, 0xBE	; 190
    1b2a:	ef 01       	movw	r28, r30
    for (uint8_t n = 0; n < 5; n++) {
        iLED[WING[L][n]] = 0;
    1b2c:	a5 81       	ldd	r26, Z+5	; 0x05
    1b2e:	b0 e0       	ldi	r27, 0x00	; 0
    1b30:	a6 53       	subi	r26, 0x36	; 54
    1b32:	b5 4c       	sbci	r27, 0xC5	; 197
    1b34:	1c 92       	st	X, r1
    1b36:	31 96       	adiw	r30, 0x01	; 1
        iLED[WING[R][n]] = 0;
    1b38:	a8 81       	ld	r26, Y
    1b3a:	b0 e0       	ldi	r27, 0x00	; 0
    1b3c:	a6 53       	subi	r26, 0x36	; 54
    1b3e:	b5 4c       	sbci	r27, 0xC5	; 197
    1b40:	1c 92       	st	X, r1
/**
 * Set the wing LED blocks to selected option
 * @param val
 */
void simonLed(uint8_t val) {
    for (uint8_t n = 0; n < 5; n++) {
    1b42:	9e eb       	ldi	r25, 0xBE	; 190
    1b44:	eb 34       	cpi	r30, 0x4B	; 75
    1b46:	f9 07       	cpc	r31, r25
    1b48:	81 f7       	brne	.-32     	; 0x1b2a <simonLed+0x8>
        iLED[WING[L][n]] = 0;
        iLED[WING[R][n]] = 0;
    }
    if (val == 3) {         // II
    1b4a:	83 30       	cpi	r24, 0x03	; 3
    1b4c:	d9 f4       	brne	.+54     	; 0x1b84 <simonLed+0x62>
        iLED[WING[L][0]] = dimValue;
    1b4e:	e0 91 4b be 	lds	r30, 0xBE4B	; 0x80be4b <__bss_end+0x8331>
    1b52:	f0 e0       	ldi	r31, 0x00	; 0
    1b54:	80 91 0a 38 	lds	r24, 0x380A	; 0x80380a <dimValue>
    1b58:	e6 53       	subi	r30, 0x36	; 54
    1b5a:	f5 4c       	sbci	r31, 0xC5	; 197
    1b5c:	80 83       	st	Z, r24
        iLED[WING[L][1]] = dimValue;
    1b5e:	e0 91 4c be 	lds	r30, 0xBE4C	; 0x80be4c <__bss_end+0x8332>
    1b62:	f0 e0       	ldi	r31, 0x00	; 0
    1b64:	80 91 0a 38 	lds	r24, 0x380A	; 0x80380a <dimValue>
    1b68:	e6 53       	subi	r30, 0x36	; 54
    1b6a:	f5 4c       	sbci	r31, 0xC5	; 197
    1b6c:	80 83       	st	Z, r24
        iLED[WING[L][2]] = dimValue;
    1b6e:	e0 91 4d be 	lds	r30, 0xBE4D	; 0x80be4d <__bss_end+0x8333>
    1b72:	f0 e0       	ldi	r31, 0x00	; 0
    1b74:	80 91 0a 38 	lds	r24, 0x380A	; 0x80380a <dimValue>
    1b78:	e6 53       	subi	r30, 0x36	; 54
    1b7a:	f5 4c       	sbci	r31, 0xC5	; 197
    1b7c:	80 83       	st	Z, r24
        effect = 0x013f;
    1b7e:	8f e3       	ldi	r24, 0x3F	; 63
    1b80:	91 e0       	ldi	r25, 0x01	; 1
    1b82:	46 c0       	rjmp	.+140    	; 0x1c10 <simonLed+0xee>
    } else if (val == 1) {  //
    1b84:	81 30       	cpi	r24, 0x01	; 1
    1b86:	99 f4       	brne	.+38     	; 0x1bae <simonLed+0x8c>
        iLED[WING[L][3]] = dimValue;
    1b88:	e0 91 4e be 	lds	r30, 0xBE4E	; 0x80be4e <__bss_end+0x8334>
    1b8c:	f0 e0       	ldi	r31, 0x00	; 0
    1b8e:	80 91 0a 38 	lds	r24, 0x380A	; 0x80380a <dimValue>
    1b92:	e6 53       	subi	r30, 0x36	; 54
    1b94:	f5 4c       	sbci	r31, 0xC5	; 197
    1b96:	80 83       	st	Z, r24
        iLED[WING[L][4]] = dimValue;
    1b98:	e0 91 4f be 	lds	r30, 0xBE4F	; 0x80be4f <__bss_end+0x8335>
    1b9c:	f0 e0       	ldi	r31, 0x00	; 0
    1b9e:	80 91 0a 38 	lds	r24, 0x380A	; 0x80380a <dimValue>
    1ba2:	e6 53       	subi	r30, 0x36	; 54
    1ba4:	f5 4c       	sbci	r31, 0xC5	; 197
    1ba6:	80 83       	st	Z, r24
        effect = 0x015f;
    1ba8:	8f e5       	ldi	r24, 0x5F	; 95
    1baa:	91 e0       	ldi	r25, 0x01	; 1
    1bac:	31 c0       	rjmp	.+98     	; 0x1c10 <simonLed+0xee>
    } else if (val == 4) {  // III
    1bae:	84 30       	cpi	r24, 0x04	; 4
    1bb0:	d9 f4       	brne	.+54     	; 0x1be8 <simonLed+0xc6>
        iLED[WING[R][0]] = dimValue;
    1bb2:	e0 91 46 be 	lds	r30, 0xBE46	; 0x80be46 <__bss_end+0x832c>
    1bb6:	f0 e0       	ldi	r31, 0x00	; 0
    1bb8:	80 91 0a 38 	lds	r24, 0x380A	; 0x80380a <dimValue>
    1bbc:	e6 53       	subi	r30, 0x36	; 54
    1bbe:	f5 4c       	sbci	r31, 0xC5	; 197
    1bc0:	80 83       	st	Z, r24
        iLED[WING[R][1]] = dimValue;
    1bc2:	e0 91 47 be 	lds	r30, 0xBE47	; 0x80be47 <__bss_end+0x832d>
    1bc6:	f0 e0       	ldi	r31, 0x00	; 0
    1bc8:	80 91 0a 38 	lds	r24, 0x380A	; 0x80380a <dimValue>
    1bcc:	e6 53       	subi	r30, 0x36	; 54
    1bce:	f5 4c       	sbci	r31, 0xC5	; 197
    1bd0:	80 83       	st	Z, r24
        iLED[WING[R][2]] = dimValue;
    1bd2:	e0 91 48 be 	lds	r30, 0xBE48	; 0x80be48 <__bss_end+0x832e>
    1bd6:	f0 e0       	ldi	r31, 0x00	; 0
    1bd8:	80 91 0a 38 	lds	r24, 0x380A	; 0x80380a <dimValue>
    1bdc:	e6 53       	subi	r30, 0x36	; 54
    1bde:	f5 4c       	sbci	r31, 0xC5	; 197
    1be0:	80 83       	st	Z, r24
        effect = 0x017f;
    1be2:	8f e7       	ldi	r24, 0x7F	; 127
    1be4:	91 e0       	ldi	r25, 0x01	; 1
    1be6:	14 c0       	rjmp	.+40     	; 0x1c10 <simonLed+0xee>
    } else if (val == 2) {  // I
    1be8:	82 30       	cpi	r24, 0x02	; 2
    1bea:	b1 f4       	brne	.+44     	; 0x1c18 <simonLed+0xf6>
        iLED[WING[R][3]] = dimValue;
    1bec:	e0 91 49 be 	lds	r30, 0xBE49	; 0x80be49 <__bss_end+0x832f>
    1bf0:	f0 e0       	ldi	r31, 0x00	; 0
    1bf2:	80 91 0a 38 	lds	r24, 0x380A	; 0x80380a <dimValue>
    1bf6:	e6 53       	subi	r30, 0x36	; 54
    1bf8:	f5 4c       	sbci	r31, 0xC5	; 197
    1bfa:	80 83       	st	Z, r24
        iLED[WING[R][4]] = dimValue;
    1bfc:	e0 91 4a be 	lds	r30, 0xBE4A	; 0x80be4a <__bss_end+0x8330>
    1c00:	f0 e0       	ldi	r31, 0x00	; 0
    1c02:	80 91 0a 38 	lds	r24, 0x380A	; 0x80380a <dimValue>
    1c06:	e6 53       	subi	r30, 0x36	; 54
    1c08:	f5 4c       	sbci	r31, 0xC5	; 197
    1c0a:	80 83       	st	Z, r24
        effect = 0x019f;
    1c0c:	8f e9       	ldi	r24, 0x9F	; 159
    1c0e:	91 e0       	ldi	r25, 0x01	; 1
    1c10:	80 93 3a 38 	sts	0x383A, r24	; 0x80383a <effect>
    1c14:	90 93 3b 38 	sts	0x383B, r25	; 0x80383b <effect+0x1>
    }
}
    1c18:	df 91       	pop	r29
    1c1a:	cf 91       	pop	r28
    1c1c:	08 95       	ret

00001c1e <BastetDictates>:

/**
 * Main game loop
 * @return 0
 */
uint8_t BastetDictates() {
    1c1e:	0f 93       	push	r16
    1c20:	1f 93       	push	r17
    1c22:	cf 93       	push	r28
    1c24:	df 93       	push	r29
    if (CheckState(BASTET_COMPLETED))
    1c26:	8a e7       	ldi	r24, 0x7A	; 122
    1c28:	4e dc       	rcall	.-1892   	; 0x14c6 <CheckState>
    1c2a:	81 11       	cpse	r24, r1
    1c2c:	5a c1       	rjmp	.+692    	; 0x1ee2 <BastetDictates+0x2c4>
        return 0;

    if ((TEXT != gameNow) && (BASTET != gameNow))
    1c2e:	80 91 3c 38 	lds	r24, 0x383C	; 0x80383c <gameNow>
    1c32:	8d 7f       	andi	r24, 0xFD	; 253
    1c34:	09 f0       	breq	.+2      	; 0x1c38 <BastetDictates+0x1a>
    1c36:	55 c1       	rjmp	.+682    	; 0x1ee2 <BastetDictates+0x2c4>
        return 0;

    if (BASTET_BOOT == simonGameState) {
    1c38:	80 91 5c 38 	lds	r24, 0x385C	; 0x80385c <simonGameState>
    1c3c:	81 11       	cpse	r24, r1
    1c3e:	21 c0       	rjmp	.+66     	; 0x1c82 <BastetDictates+0x64>
        simonPos = ((adcPhot+adcTemp)&0x3f);
    1c40:	20 91 bd 3a 	lds	r18, 0x3ABD	; 0x803abd <adcPhot>
    1c44:	30 91 be 3a 	lds	r19, 0x3ABE	; 0x803abe <adcPhot+0x1>
    1c48:	80 91 f5 3a 	lds	r24, 0x3AF5	; 0x803af5 <adcTemp>
    1c4c:	90 91 f6 3a 	lds	r25, 0x3AF6	; 0x803af6 <adcTemp+0x1>
    1c50:	82 0f       	add	r24, r18
    1c52:	8f 73       	andi	r24, 0x3F	; 63
    1c54:	80 93 61 38 	sts	0x3861, r24	; 0x803861 <simonPos>
        for(uint8_t x=0; x<simonPos; ++x) lfsr();
    1c58:	c0 e0       	ldi	r28, 0x00	; 0
    1c5a:	80 91 61 38 	lds	r24, 0x3861	; 0x803861 <simonPos>
    1c5e:	c8 17       	cp	r28, r24
    1c60:	18 f4       	brcc	.+6      	; 0x1c68 <BastetDictates+0x4a>
    1c62:	03 db       	rcall	.-2554   	; 0x126a <lfsr>
    1c64:	cf 5f       	subi	r28, 0xFF	; 255
    1c66:	f9 cf       	rjmp	.-14     	; 0x1c5a <BastetDictates+0x3c>
    1c68:	c2 e6       	ldi	r28, 0x62	; 98
    1c6a:	d8 e3       	ldi	r29, 0x38	; 56
    1c6c:	0e e6       	ldi	r16, 0x6E	; 110

        for (uint8_t i = 0; i < BASTET_LENGTH; i++) {
            simonState[i] = (lfsr() % 4);
    1c6e:	18 e3       	ldi	r17, 0x38	; 56
    1c70:	fc da       	rcall	.-2568   	; 0x126a <lfsr>
    1c72:	83 70       	andi	r24, 0x03	; 3
    1c74:	89 93       	st	Y+, r24

    if (BASTET_BOOT == simonGameState) {
        simonPos = ((adcPhot+adcTemp)&0x3f);
        for(uint8_t x=0; x<simonPos; ++x) lfsr();

        for (uint8_t i = 0; i < BASTET_LENGTH; i++) {
    1c76:	0c 17       	cp	r16, r28
    1c78:	1d 07       	cpc	r17, r29
    1c7a:	d1 f7       	brne	.-12     	; 0x1c70 <BastetDictates+0x52>
            simonState[i] = (lfsr() % 4);
        }
        simonGameState = BASTET_GAME_START;
    1c7c:	81 e0       	ldi	r24, 0x01	; 1
    1c7e:	80 93 5c 38 	sts	0x385C, r24	; 0x80385c <simonGameState>
    }

    if (BASTET_GAME_START == simonGameState && BASTET == gameNow) {
    1c82:	80 91 5c 38 	lds	r24, 0x385C	; 0x80385c <simonGameState>
    1c86:	81 30       	cpi	r24, 0x01	; 1
    1c88:	71 f4       	brne	.+28     	; 0x1ca6 <BastetDictates+0x88>
    1c8a:	80 91 3c 38 	lds	r24, 0x383C	; 0x80383c <gameNow>
    1c8e:	82 30       	cpi	r24, 0x02	; 2
    1c90:	51 f4       	brne	.+20     	; 0x1ca6 <BastetDictates+0x88>
        simonGameState = BASTET_GAME_INTRO;
    1c92:	80 93 5c 38 	sts	0x385C, r24	; 0x80385c <simonGameState>
        simonPos = 0;
    1c96:	10 92 61 38 	sts	0x3861, r1	; 0x803861 <simonPos>
        simonInputPos = 0;
    1c9a:	10 92 60 38 	sts	0x3860, r1	; 0x803860 <simonInputPos>
        simonTimer = 0;
    1c9e:	10 92 5f 38 	sts	0x385F, r1	; 0x80385f <simonTimer>
        simonCounter = 0;
    1ca2:	10 92 5d 38 	sts	0x385D, r1	; 0x80385d <simonCounter>
    }

    if (BASTET_GAME_INTRO == simonGameState) {
    1ca6:	80 91 5c 38 	lds	r24, 0x385C	; 0x80385c <simonGameState>
    1caa:	82 30       	cpi	r24, 0x02	; 2
    1cac:	11 f5       	brne	.+68     	; 0x1cf2 <BastetDictates+0xd4>
        if (simonTimer > 5) {   // .33 seconds
    1cae:	80 91 5f 38 	lds	r24, 0x385F	; 0x80385f <simonTimer>
    1cb2:	86 30       	cpi	r24, 0x06	; 6
    1cb4:	38 f0       	brcs	.+14     	; 0x1cc4 <BastetDictates+0xa6>
            simonCounter++;
    1cb6:	80 91 5d 38 	lds	r24, 0x385D	; 0x80385d <simonCounter>
    1cba:	8f 5f       	subi	r24, 0xFF	; 255
    1cbc:	80 93 5d 38 	sts	0x385D, r24	; 0x80385d <simonCounter>
            simonTimer = 0;
    1cc0:	10 92 5f 38 	sts	0x385F, r1	; 0x80385f <simonTimer>
        }
        if (simonCounter > 6) {
    1cc4:	e0 91 5d 38 	lds	r30, 0x385D	; 0x80385d <simonCounter>
    1cc8:	e7 30       	cpi	r30, 0x07	; 7
    1cca:	40 f0       	brcs	.+16     	; 0x1cdc <BastetDictates+0xbe>
            simonGameState = BASTET_GAME_SHOW_PATTERN;
    1ccc:	83 e0       	ldi	r24, 0x03	; 3
    1cce:	80 93 5c 38 	sts	0x385C, r24	; 0x80385c <simonGameState>
//            for (uint8_t n=0; n<6; n++){
//                iLED[HCKR[R][n]] = 1;
//            }
            simonTimer = 0;
    1cd2:	10 92 5f 38 	sts	0x385F, r1	; 0x80385f <simonTimer>
            simonCounter = 0;
    1cd6:	10 92 5d 38 	sts	0x385D, r1	; 0x80385d <simonCounter>
            return 0;
    1cda:	03 c1       	rjmp	.+518    	; 0x1ee2 <BastetDictates+0x2c4>
        }
        iLED[HCKR[R][simonCounter]] = dimValue;
    1cdc:	f0 e0       	ldi	r31, 0x00	; 0
    1cde:	ec 5a       	subi	r30, 0xAC	; 172
    1ce0:	f1 44       	sbci	r31, 0x41	; 65
    1ce2:	e0 81       	ld	r30, Z
    1ce4:	f0 e0       	ldi	r31, 0x00	; 0
    1ce6:	80 91 0a 38 	lds	r24, 0x380A	; 0x80380a <dimValue>
    1cea:	e6 53       	subi	r30, 0x36	; 54
    1cec:	f5 4c       	sbci	r31, 0xC5	; 197
    1cee:	80 83       	st	Z, r24
    1cf0:	21 c0       	rjmp	.+66     	; 0x1d34 <BastetDictates+0x116>
    }

    if (BASTET_GAME_SHOW_PATTERN == simonGameState) {
    1cf2:	83 30       	cpi	r24, 0x03	; 3
    1cf4:	f9 f4       	brne	.+62     	; 0x1d34 <BastetDictates+0x116>
        if (simonTimer > 15) {   //  ! second
    1cf6:	80 91 5f 38 	lds	r24, 0x385F	; 0x80385f <simonTimer>
    1cfa:	80 31       	cpi	r24, 0x10	; 16
    1cfc:	38 f0       	brcs	.+14     	; 0x1d0c <BastetDictates+0xee>
            simonCounter++;
    1cfe:	80 91 5d 38 	lds	r24, 0x385D	; 0x80385d <simonCounter>
    1d02:	8f 5f       	subi	r24, 0xFF	; 255
    1d04:	80 93 5d 38 	sts	0x385D, r24	; 0x80385d <simonCounter>
            simonTimer = 0;
    1d08:	10 92 5f 38 	sts	0x385F, r1	; 0x80385f <simonTimer>
        }
        if (simonCounter > simonPos) {
    1d0c:	e0 91 5d 38 	lds	r30, 0x385D	; 0x80385d <simonCounter>
    1d10:	80 91 61 38 	lds	r24, 0x3861	; 0x803861 <simonPos>
    1d14:	8e 17       	cp	r24, r30
    1d16:	40 f4       	brcc	.+16     	; 0x1d28 <BastetDictates+0x10a>
            simonGameState = BASTET_GAME_INPUT;
    1d18:	85 e0       	ldi	r24, 0x05	; 5
    1d1a:	80 93 5c 38 	sts	0x385C, r24	; 0x80385c <simonGameState>
            simonLed(0);
    1d1e:	80 e0       	ldi	r24, 0x00	; 0
    1d20:	00 df       	rcall	.-512    	; 0x1b22 <simonLed>
            simonTimer = 0;
    1d22:	10 92 5f 38 	sts	0x385F, r1	; 0x80385f <simonTimer>
            return 0;
    1d26:	dd c0       	rjmp	.+442    	; 0x1ee2 <BastetDictates+0x2c4>
        }
        simonLed(simonState[simonCounter]+1);
    1d28:	f0 e0       	ldi	r31, 0x00	; 0
    1d2a:	ee 59       	subi	r30, 0x9E	; 158
    1d2c:	f7 4c       	sbci	r31, 0xC7	; 199
    1d2e:	80 81       	ld	r24, Z
    1d30:	8f 5f       	subi	r24, 0xFF	; 255
    1d32:	f7 de       	rcall	.-530    	; 0x1b22 <simonLed>
    }

    if (BASTET_GAME_INPUT == simonGameState) {
    1d34:	c0 91 5c 38 	lds	r28, 0x385C	; 0x80385c <simonGameState>
    1d38:	c5 30       	cpi	r28, 0x05	; 5
    1d3a:	09 f0       	breq	.+2      	; 0x1d3e <BastetDictates+0x120>
    1d3c:	73 c0       	rjmp	.+230    	; 0x1e24 <BastetDictates+0x206>
        //Button pressed
        if (lastButtonState != buttonState && (buttonState+1) > 0) {
    1d3e:	80 91 08 38 	lds	r24, 0x3808	; 0x803808 <buttonState>
    1d42:	90 91 07 38 	lds	r25, 0x3807	; 0x803807 <lastButtonState>
    1d46:	98 17       	cp	r25, r24
    1d48:	09 f4       	brne	.+2      	; 0x1d4c <BastetDictates+0x12e>
    1d4a:	6a c0       	rjmp	.+212    	; 0x1e20 <BastetDictates+0x202>
            if (simonWait == 0) {
    1d4c:	90 91 5e 38 	lds	r25, 0x385E	; 0x80385e <simonWait>
    1d50:	91 11       	cpse	r25, r1
    1d52:	7c c0       	rjmp	.+248    	; 0x1e4c <BastetDictates+0x22e>
                simonWait = 1;
    1d54:	91 e0       	ldi	r25, 0x01	; 1
    1d56:	90 93 5e 38 	sts	0x385E, r25	; 0x80385e <simonWait>
                simonTimer = 0;
    1d5a:	10 92 5f 38 	sts	0x385F, r1	; 0x80385f <simonTimer>
                simonLed(buttonState+1);
    1d5e:	8f 5f       	subi	r24, 0xFF	; 255
    1d60:	e0 de       	rcall	.-576    	; 0x1b22 <simonLed>
                simonGameState = BASTET_GAME_WAIT_LEDS;
    1d62:	84 e0       	ldi	r24, 0x04	; 4
    1d64:	80 93 5c 38 	sts	0x385C, r24	; 0x80385c <simonGameState>
                simonNextGameState = BASTET_GAME_INPUT;
    1d68:	c0 93 2b 38 	sts	0x382B, r28	; 0x80382b <simonNextGameState>

                // is the below check correct .. do I have off by one ?
                if (simonState[simonInputPos] == buttonState) {
    1d6c:	80 91 60 38 	lds	r24, 0x3860	; 0x803860 <simonInputPos>
    1d70:	e8 2f       	mov	r30, r24
    1d72:	f0 e0       	ldi	r31, 0x00	; 0
    1d74:	ee 59       	subi	r30, 0x9E	; 158
    1d76:	f7 4c       	sbci	r31, 0xC7	; 199
    1d78:	20 81       	ld	r18, Z
    1d7a:	90 91 08 38 	lds	r25, 0x3808	; 0x803808 <buttonState>
    1d7e:	29 13       	cpse	r18, r25
    1d80:	18 c0       	rjmp	.+48     	; 0x1db2 <BastetDictates+0x194>
                    simonInputPos++;
    1d82:	8f 5f       	subi	r24, 0xFF	; 255
    1d84:	80 93 60 38 	sts	0x3860, r24	; 0x803860 <simonInputPos>
                    if (simonInputPos >= simonPos) {
    1d88:	90 91 61 38 	lds	r25, 0x3861	; 0x803861 <simonPos>
    1d8c:	89 17       	cp	r24, r25
    1d8e:	80 f1       	brcs	.+96     	; 0x1df0 <BastetDictates+0x1d2>
                        effect = 0x42;
    1d90:	22 e4       	ldi	r18, 0x42	; 66
    1d92:	30 e0       	ldi	r19, 0x00	; 0
    1d94:	20 93 3a 38 	sts	0x383A, r18	; 0x80383a <effect>
    1d98:	30 93 3b 38 	sts	0x383B, r19	; 0x80383b <effect+0x1>
                        simonPos++;
    1d9c:	9f 5f       	subi	r25, 0xFF	; 255
    1d9e:	90 93 61 38 	sts	0x3861, r25	; 0x803861 <simonPos>
                        simonInputPos = 0;
    1da2:	10 92 60 38 	sts	0x3860, r1	; 0x803860 <simonInputPos>
                        simonTimer = 0;
    1da6:	10 92 5f 38 	sts	0x385F, r1	; 0x80385f <simonTimer>
                        simonCounter = 0;
    1daa:	10 92 5d 38 	sts	0x385D, r1	; 0x80385d <simonCounter>
                        simonNextGameState = BASTET_GAME_SHOW_PATTERN;
    1dae:	83 e0       	ldi	r24, 0x03	; 3
    1db0:	1d c0       	rjmp	.+58     	; 0x1dec <BastetDictates+0x1ce>
                    }
                } else {
                    effect = 0x0105;    // TODO fail sound
    1db2:	85 e0       	ldi	r24, 0x05	; 5
    1db4:	91 e0       	ldi	r25, 0x01	; 1
    1db6:	80 93 3a 38 	sts	0x383A, r24	; 0x80383a <effect>
    1dba:	90 93 3b 38 	sts	0x383B, r25	; 0x80383b <effect+0x1>
    1dbe:	a4 e5       	ldi	r26, 0x54	; 84
    1dc0:	be eb       	ldi	r27, 0xBE	; 190
    1dc2:	8a e5       	ldi	r24, 0x5A	; 90
    1dc4:	9e eb       	ldi	r25, 0xBE	; 190
                    for (uint8_t n=0; n<6; n++){
                        iLED[HCKR[R][n]] = dimValue;
    1dc6:	ed 91       	ld	r30, X+
    1dc8:	f0 e0       	ldi	r31, 0x00	; 0
    1dca:	20 91 0a 38 	lds	r18, 0x380A	; 0x80380a <dimValue>
    1dce:	e6 53       	subi	r30, 0x36	; 54
    1dd0:	f5 4c       	sbci	r31, 0xC5	; 197
    1dd2:	20 83       	st	Z, r18
                        simonCounter = 0;
                        simonNextGameState = BASTET_GAME_SHOW_PATTERN;
                    }
                } else {
                    effect = 0x0105;    // TODO fail sound
                    for (uint8_t n=0; n<6; n++){
    1dd4:	8a 17       	cp	r24, r26
    1dd6:	9b 07       	cpc	r25, r27
    1dd8:	b1 f7       	brne	.-20     	; 0x1dc6 <BastetDictates+0x1a8>
                        iLED[HCKR[R][n]] = dimValue;
                    }
                    simonInputPos = 0;
    1dda:	10 92 60 38 	sts	0x3860, r1	; 0x803860 <simonInputPos>
                    simonPos = 0;
    1dde:	10 92 61 38 	sts	0x3861, r1	; 0x803861 <simonPos>
                    simonTimer = 0;
    1de2:	10 92 5f 38 	sts	0x385F, r1	; 0x80385f <simonTimer>
                    simonCounter = 0;
    1de6:	10 92 5d 38 	sts	0x385D, r1	; 0x80385d <simonCounter>
                    simonNextGameState = BASTET_GAME_OUTRO;
    1dea:	86 e0       	ldi	r24, 0x06	; 6
    1dec:	80 93 2b 38 	sts	0x382B, r24	; 0x80382b <simonNextGameState>
                }

                if (simonInputPos >= BASTET_LENGTH || simonPos >= BASTET_LENGTH) { // beetje dubbel
    1df0:	80 91 60 38 	lds	r24, 0x3860	; 0x803860 <simonInputPos>
    1df4:	8c 30       	cpi	r24, 0x0C	; 12
    1df6:	20 f4       	brcc	.+8      	; 0x1e00 <BastetDictates+0x1e2>
    1df8:	80 91 61 38 	lds	r24, 0x3861	; 0x803861 <simonPos>
    1dfc:	8c 30       	cpi	r24, 0x0C	; 12
    1dfe:	90 f0       	brcs	.+36     	; 0x1e24 <BastetDictates+0x206>
                    // TODO win animu !!
                    effect = 0x0106;    // TODO win sound ?!
    1e00:	86 e0       	ldi	r24, 0x06	; 6
    1e02:	91 e0       	ldi	r25, 0x01	; 1
    1e04:	80 93 3a 38 	sts	0x383A, r24	; 0x80383a <effect>
    1e08:	90 93 3b 38 	sts	0x383B, r25	; 0x80383b <effect+0x1>
                    UpdateState(BASTET_COMPLETED);
    1e0c:	8a e7       	ldi	r24, 0x7A	; 122
    1e0e:	51 db       	rcall	.-2398   	; 0x14b2 <UpdateState>
                    simonTimer = 0;
    1e10:	10 92 5f 38 	sts	0x385F, r1	; 0x80385f <simonTimer>
                    simonCounter = 0;
    1e14:	10 92 5d 38 	sts	0x385D, r1	; 0x80385d <simonCounter>
                    simonNextGameState = BASTET_GAME_OVER;
    1e18:	87 e0       	ldi	r24, 0x07	; 7
    1e1a:	80 93 2b 38 	sts	0x382B, r24	; 0x80382b <simonNextGameState>
    1e1e:	02 c0       	rjmp	.+4      	; 0x1e24 <BastetDictates+0x206>
                }
            }
        
        //Button released, next or reset!
        } else {
            simonWait = 0;
    1e20:	10 92 5e 38 	sts	0x385E, r1	; 0x80385e <simonWait>
        }
    }

    if (BASTET_GAME_WAIT_LEDS == simonGameState) {
    1e24:	80 91 5c 38 	lds	r24, 0x385C	; 0x80385c <simonGameState>
    1e28:	84 30       	cpi	r24, 0x04	; 4
        if (simonTimer >= 7) {
    1e2a:	81 f4       	brne	.+32     	; 0x1e4c <BastetDictates+0x22e>
    1e2c:	80 91 5f 38 	lds	r24, 0x385F	; 0x80385f <simonTimer>
    1e30:	87 30       	cpi	r24, 0x07	; 7
            // on to next state after .5 second
            simonLed(0);  // LEDs off
    1e32:	60 f0       	brcs	.+24     	; 0x1e4c <BastetDictates+0x22e>
    1e34:	80 e0       	ldi	r24, 0x00	; 0
    1e36:	75 de       	rcall	.-790    	; 0x1b22 <simonLed>
            simonWait = 0;
    1e38:	10 92 5e 38 	sts	0x385E, r1	; 0x80385e <simonWait>
            simonTimer = 0;
    1e3c:	10 92 5f 38 	sts	0x385F, r1	; 0x80385f <simonTimer>
            simonCounter = 0;
    1e40:	10 92 5d 38 	sts	0x385D, r1	; 0x80385d <simonCounter>
            simonGameState = simonNextGameState;
    1e44:	80 91 2b 38 	lds	r24, 0x382B	; 0x80382b <simonNextGameState>
    1e48:	80 93 5c 38 	sts	0x385C, r24	; 0x80385c <simonGameState>
        }
    }

    if (BASTET_GAME_OUTRO == simonGameState) {
    1e4c:	80 91 5c 38 	lds	r24, 0x385C	; 0x80385c <simonGameState>
    1e50:	86 30       	cpi	r24, 0x06	; 6
    1e52:	21 f5       	brne	.+72     	; 0x1e9c <BastetDictates+0x27e>
        if (simonTimer > 5) {   // .33 second
    1e54:	80 91 5f 38 	lds	r24, 0x385F	; 0x80385f <simonTimer>
    1e58:	86 30       	cpi	r24, 0x06	; 6
    1e5a:	38 f0       	brcs	.+14     	; 0x1e6a <BastetDictates+0x24c>
            simonCounter++;
    1e5c:	80 91 5d 38 	lds	r24, 0x385D	; 0x80385d <simonCounter>
    1e60:	8f 5f       	subi	r24, 0xFF	; 255
    1e62:	80 93 5d 38 	sts	0x385D, r24	; 0x80385d <simonCounter>
            simonTimer = 0;
    1e66:	10 92 5f 38 	sts	0x385F, r1	; 0x80385f <simonTimer>
        }
        if (simonCounter > 6) {
    1e6a:	80 91 5d 38 	lds	r24, 0x385D	; 0x80385d <simonCounter>
    1e6e:	87 30       	cpi	r24, 0x07	; 7
    1e70:	40 f0       	brcs	.+16     	; 0x1e82 <BastetDictates+0x264>
            simonTimer = 0;
    1e72:	10 92 5f 38 	sts	0x385F, r1	; 0x80385f <simonTimer>
            simonCounter = 0;
    1e76:	10 92 5d 38 	sts	0x385D, r1	; 0x80385d <simonCounter>
            simonGameState = BASTET_GAME_OVER;
    1e7a:	87 e0       	ldi	r24, 0x07	; 7
    1e7c:	80 93 5c 38 	sts	0x385C, r24	; 0x80385c <simonGameState>
            return 0;
    1e80:	30 c0       	rjmp	.+96     	; 0x1ee2 <BastetDictates+0x2c4>
        }
        iLED[HCKR[R][5-simonCounter]] = 1;
    1e82:	e5 e0       	ldi	r30, 0x05	; 5
    1e84:	f0 e0       	ldi	r31, 0x00	; 0
    1e86:	e8 1b       	sub	r30, r24
    1e88:	f1 09       	sbc	r31, r1
    1e8a:	ec 5a       	subi	r30, 0xAC	; 172
    1e8c:	f1 44       	sbci	r31, 0x41	; 65
    1e8e:	e0 81       	ld	r30, Z
    1e90:	f0 e0       	ldi	r31, 0x00	; 0
    1e92:	e6 53       	subi	r30, 0x36	; 54
    1e94:	f5 4c       	sbci	r31, 0xC5	; 197
    1e96:	81 e0       	ldi	r24, 0x01	; 1
    1e98:	80 83       	st	Z, r24
    1e9a:	1e c0       	rjmp	.+60     	; 0x1ed8 <BastetDictates+0x2ba>
    }

    if (BASTET_GAME_OVER == simonGameState) {
    1e9c:	87 30       	cpi	r24, 0x07	; 7
    1e9e:	e1 f4       	brne	.+56     	; 0x1ed8 <BastetDictates+0x2ba>
        simonInputPos = 0;
    1ea0:	10 92 60 38 	sts	0x3860, r1	; 0x803860 <simonInputPos>
        simonPos = 0;
    1ea4:	10 92 61 38 	sts	0x3861, r1	; 0x803861 <simonPos>
        simonGameState = BASTET_GAME_START; // BASTET_BOOT for fresh "field" ??
    1ea8:	81 e0       	ldi	r24, 0x01	; 1
    1eaa:	80 93 5c 38 	sts	0x385C, r24	; 0x80385c <simonGameState>
        gameNow = TEXT;
    1eae:	10 92 3c 38 	sts	0x383C, r1	; 0x80383c <gameNow>
    1eb2:	e6 e4       	ldi	r30, 0x46	; 70
    1eb4:	fe eb       	ldi	r31, 0xBE	; 190
    1eb6:	2b e4       	ldi	r18, 0x4B	; 75
    1eb8:	3e eb       	ldi	r19, 0xBE	; 190
    1eba:	ef 01       	movw	r28, r30
        for (uint8_t n=0; n<5; n++){
            iLED[WING[L][n]] = 1;
    1ebc:	a5 81       	ldd	r26, Z+5	; 0x05
    1ebe:	b0 e0       	ldi	r27, 0x00	; 0
    1ec0:	a6 53       	subi	r26, 0x36	; 54
    1ec2:	b5 4c       	sbci	r27, 0xC5	; 197
    1ec4:	8c 93       	st	X, r24
    1ec6:	31 96       	adiw	r30, 0x01	; 1
            iLED[WING[R][n]] = 1;
    1ec8:	a8 81       	ld	r26, Y
    1eca:	b0 e0       	ldi	r27, 0x00	; 0
    1ecc:	a6 53       	subi	r26, 0x36	; 54
    1ece:	b5 4c       	sbci	r27, 0xC5	; 197
    1ed0:	8c 93       	st	X, r24
    if (BASTET_GAME_OVER == simonGameState) {
        simonInputPos = 0;
        simonPos = 0;
        simonGameState = BASTET_GAME_START; // BASTET_BOOT for fresh "field" ??
        gameNow = TEXT;
        for (uint8_t n=0; n<5; n++){
    1ed2:	2e 17       	cp	r18, r30
    1ed4:	3f 07       	cpc	r19, r31
    1ed6:	89 f7       	brne	.-30     	; 0x1eba <BastetDictates+0x29c>
            iLED[WING[L][n]] = 1;
            iLED[WING[R][n]] = 1;
        }
    }

    ++simonTimer;
    1ed8:	80 91 5f 38 	lds	r24, 0x385F	; 0x80385f <simonTimer>
    1edc:	8f 5f       	subi	r24, 0xFF	; 255
    1ede:	80 93 5f 38 	sts	0x385F, r24	; 0x80385f <simonTimer>
    return 0;
}
    1ee2:	80 e0       	ldi	r24, 0x00	; 0
    1ee4:	df 91       	pop	r29
    1ee6:	cf 91       	pop	r28
    1ee8:	1f 91       	pop	r17
    1eea:	0f 91       	pop	r16
    1eec:	08 95       	ret

00001eee <Cheat>:

//
void SetResponse(uint8_t number, uint16_t address, uint16_t length, uint8_t type){
    reactStr[0][number]=address;
    reactStr[1][number]=length;
    reactStr[2][number]=type;
    1eee:	1f 93       	push	r17
    1ef0:	cf 93       	push	r28
    1ef2:	df 93       	push	r29
    1ef4:	cd b7       	in	r28, 0x3d	; 61
    1ef6:	de b7       	in	r29, 0x3e	; 62
    1ef8:	62 97       	sbiw	r28, 0x12	; 18
    1efa:	cd bf       	out	0x3d, r28	; 61
    1efc:	de bf       	out	0x3e, r29	; 62
    1efe:	8a 8b       	std	Y+18, r24	; 0x12
    1f00:	80 e1       	ldi	r24, 0x10	; 16
    1f02:	ea e1       	ldi	r30, 0x1A	; 26
    1f04:	fe eb       	ldi	r31, 0xBE	; 190
    1f06:	de 01       	movw	r26, r28
    1f08:	11 96       	adiw	r26, 0x01	; 1
    1f0a:	01 90       	ld	r0, Z+
    1f0c:	0d 92       	st	X+, r0
    1f0e:	8a 95       	dec	r24
    1f10:	e1 f7       	brne	.-8      	; 0x1f0a <Cheat+0x1c>
    1f12:	fe 01       	movw	r30, r28
    1f14:	31 96       	adiw	r30, 0x01	; 1
    1f16:	90 e0       	ldi	r25, 0x00	; 0
    1f18:	8f ef       	ldi	r24, 0xFF	; 255
    1f1a:	21 91       	ld	r18, Z+
    1f1c:	31 91       	ld	r19, Z+
    1f1e:	26 17       	cp	r18, r22
    1f20:	37 07       	cpc	r19, r23
    1f22:	09 f4       	brne	.+2      	; 0x1f26 <Cheat+0x38>
    1f24:	89 2f       	mov	r24, r25
    1f26:	9f 5f       	subi	r25, 0xFF	; 255
    1f28:	98 30       	cpi	r25, 0x08	; 8
    1f2a:	b9 f7       	brne	.-18     	; 0x1f1a <Cheat+0x2c>
    1f2c:	88 30       	cpi	r24, 0x08	; 8
    1f2e:	10 f0       	brcs	.+4      	; 0x1f34 <Cheat+0x46>
    1f30:	80 e0       	ldi	r24, 0x00	; 0
    1f32:	12 c0       	rjmp	.+36     	; 0x1f58 <Cheat+0x6a>
    1f34:	18 e1       	ldi	r17, 0x18	; 24
    1f36:	18 0f       	add	r17, r24
    1f38:	41 e0       	ldi	r20, 0x01	; 1
    1f3a:	be 01       	movw	r22, r28
    1f3c:	6f 5e       	subi	r22, 0xEF	; 239
    1f3e:	7f 4f       	sbci	r23, 0xFF	; 255
    1f40:	81 2f       	mov	r24, r17
    1f42:	ed d8       	rcall	.-3622   	; 0x111e <EERead>
    1f44:	89 89       	ldd	r24, Y+17	; 0x11
    1f46:	8f 3f       	cpi	r24, 0xFF	; 255
    1f48:	99 f7       	brne	.-26     	; 0x1f30 <Cheat+0x42>
    1f4a:	41 e0       	ldi	r20, 0x01	; 1
    1f4c:	be 01       	movw	r22, r28
    1f4e:	6e 5e       	subi	r22, 0xEE	; 238
    1f50:	7f 4f       	sbci	r23, 0xFF	; 255
    1f52:	81 2f       	mov	r24, r17
    1f54:	f4 d8       	rcall	.-3608   	; 0x113e <EEWrite>
    1f56:	81 e0       	ldi	r24, 0x01	; 1
    1f58:	62 96       	adiw	r28, 0x12	; 18
    1f5a:	cd bf       	out	0x3d, r28	; 61
    1f5c:	de bf       	out	0x3e, r29	; 62
    1f5e:	df 91       	pop	r29
    1f60:	cf 91       	pop	r28
    1f62:	1f 91       	pop	r17
    1f64:	08 95       	ret

00001f66 <DecryptData>:
    1f66:	f9 01       	movw	r30, r18
    1f68:	9c 01       	movw	r18, r24
    1f6a:	2e 1b       	sub	r18, r30
    1f6c:	3f 0b       	sbc	r19, r31
    1f6e:	88 e0       	ldi	r24, 0x08	; 8
    1f70:	48 9f       	mul	r20, r24
    1f72:	a0 01       	movw	r20, r0
    1f74:	11 24       	eor	r1, r1
    1f76:	4c 5f       	subi	r20, 0xFC	; 252
    1f78:	50 44       	sbci	r21, 0x40	; 64
    1f7a:	66 23       	and	r22, r22
    1f7c:	69 f0       	breq	.+26     	; 0x1f98 <DecryptData+0x32>
    1f7e:	df 01       	movw	r26, r30
    1f80:	a2 0f       	add	r26, r18
    1f82:	b3 1f       	adc	r27, r19
    1f84:	a7 70       	andi	r26, 0x07	; 7
    1f86:	bb 27       	eor	r27, r27
    1f88:	a4 0f       	add	r26, r20
    1f8a:	b5 1f       	adc	r27, r21
    1f8c:	80 81       	ld	r24, Z
    1f8e:	9c 91       	ld	r25, X
    1f90:	98 27       	eor	r25, r24
    1f92:	91 93       	st	Z+, r25
    1f94:	61 50       	subi	r22, 0x01	; 1
    1f96:	f1 cf       	rjmp	.-30     	; 0x1f7a <DecryptData+0x14>
    1f98:	08 95       	ret

00001f9a <UnflipData>:
    1f9a:	26 2f       	mov	r18, r22
    1f9c:	fb 01       	movw	r30, r22
    1f9e:	35 e5       	ldi	r19, 0x55	; 85
    1fa0:	9e 2f       	mov	r25, r30
    1fa2:	92 1b       	sub	r25, r18
    1fa4:	98 17       	cp	r25, r24
    1fa6:	28 f4       	brcc	.+10     	; 0x1fb2 <UnflipData+0x18>
    1fa8:	90 81       	ld	r25, Z
    1faa:	92 95       	swap	r25
    1fac:	93 27       	eor	r25, r19
    1fae:	91 93       	st	Z+, r25
    1fb0:	f7 cf       	rjmp	.-18     	; 0x1fa0 <UnflipData+0x6>
    1fb2:	08 95       	ret

00001fb4 <ExtEERead>:
    1fb4:	af 92       	push	r10
    1fb6:	bf 92       	push	r11
    1fb8:	cf 92       	push	r12
    1fba:	df 92       	push	r13
    1fbc:	ef 92       	push	r14
    1fbe:	ff 92       	push	r15
    1fc0:	0f 93       	push	r16
    1fc2:	1f 93       	push	r17
    1fc4:	cf 93       	push	r28
    1fc6:	df 93       	push	r29
    1fc8:	00 d0       	rcall	.+0      	; 0x1fca <ExtEERead+0x16>
    1fca:	cd b7       	in	r28, 0x3d	; 61
    1fcc:	de b7       	in	r29, 0x3e	; 62
    1fce:	d6 2e       	mov	r13, r22
    1fd0:	c4 2e       	mov	r12, r20
    1fd2:	59 01       	movw	r10, r18
    1fd4:	7c 01       	movw	r14, r24
    1fd6:	e8 94       	clt
    1fd8:	f7 f8       	bld	r15, 7
    1fda:	f9 82       	std	Y+1, r15	; 0x01
    1fdc:	ea 82       	std	Y+2, r14	; 0x02
    1fde:	06 2f       	mov	r16, r22
    1fe0:	42 e0       	ldi	r20, 0x02	; 2
    1fe2:	be 01       	movw	r22, r28
    1fe4:	6f 5f       	subi	r22, 0xFF	; 255
    1fe6:	7f 4f       	sbci	r23, 0xFF	; 255
    1fe8:	80 e5       	ldi	r24, 0x50	; 80
    1fea:	0e 94 b8 02 	call	0x570	; 0x570 <I2C_read_bytes>
    1fee:	18 2f       	mov	r17, r24
    1ff0:	81 11       	cpse	r24, r1
    1ff2:	05 c0       	rjmp	.+10     	; 0x1ffe <ExtEERead+0x4a>
    1ff4:	95 01       	movw	r18, r10
    1ff6:	4c 2d       	mov	r20, r12
    1ff8:	6d 2d       	mov	r22, r13
    1ffa:	c7 01       	movw	r24, r14
    1ffc:	b4 df       	rcall	.-152    	; 0x1f66 <DecryptData>
    1ffe:	81 2f       	mov	r24, r17
    2000:	0f 90       	pop	r0
    2002:	0f 90       	pop	r0
    2004:	df 91       	pop	r29
    2006:	cf 91       	pop	r28
    2008:	1f 91       	pop	r17
    200a:	0f 91       	pop	r16
    200c:	ff 90       	pop	r15
    200e:	ef 90       	pop	r14
    2010:	df 90       	pop	r13
    2012:	cf 90       	pop	r12
    2014:	bf 90       	pop	r11
    2016:	af 90       	pop	r10
    2018:	08 95       	ret

0000201a <ClearTxAfter>:
    201a:	8f 5f       	subi	r24, 0xFF	; 255
    201c:	88 30       	cpi	r24, 0x08	; 8
    201e:	30 f4       	brcc	.+12     	; 0x202c <ClearTxAfter+0x12>
    2020:	e8 2f       	mov	r30, r24
    2022:	f0 e0       	ldi	r31, 0x00	; 0
    2024:	e8 5b       	subi	r30, 0xB8	; 184
    2026:	f5 4c       	sbci	r31, 0xC5	; 197
    2028:	10 82       	st	Z, r1
    202a:	f7 cf       	rjmp	.-18     	; 0x201a <ClearTxAfter>
    202c:	08 95       	ret

0000202e <StartsWith>:
    202e:	ac 01       	movw	r20, r24
    2030:	90 e0       	ldi	r25, 0x00	; 0
    2032:	e9 2f       	mov	r30, r25
    2034:	f0 e0       	ldi	r31, 0x00	; 0
    2036:	da 01       	movw	r26, r20
    2038:	ae 0f       	add	r26, r30
    203a:	bf 1f       	adc	r27, r31
    203c:	3c 91       	ld	r19, X
    203e:	e6 0f       	add	r30, r22
    2040:	f7 1f       	adc	r31, r23
    2042:	31 11       	cpse	r19, r1
    2044:	05 c0       	rjmp	.+10     	; 0x2050 <StartsWith+0x22>
    2046:	81 e0       	ldi	r24, 0x01	; 1
    2048:	90 81       	ld	r25, Z
    204a:	99 23       	and	r25, r25
    204c:	49 f0       	breq	.+18     	; 0x2060 <StartsWith+0x32>
    204e:	07 c0       	rjmp	.+14     	; 0x205e <StartsWith+0x30>
    2050:	20 81       	ld	r18, Z
    2052:	22 23       	and	r18, r18
    2054:	c1 f3       	breq	.-16     	; 0x2046 <StartsWith+0x18>
    2056:	32 13       	cpse	r19, r18
    2058:	02 c0       	rjmp	.+4      	; 0x205e <StartsWith+0x30>
    205a:	9f 5f       	subi	r25, 0xFF	; 255
    205c:	ea cf       	rjmp	.-44     	; 0x2032 <StartsWith+0x4>
    205e:	80 e0       	ldi	r24, 0x00	; 0
    2060:	08 95       	ret

00002062 <PrepareSending>:
    2062:	cf 93       	push	r28
    2064:	df 93       	push	r29
    2066:	fc 01       	movw	r30, r24
    2068:	61 15       	cp	r22, r1
    206a:	71 05       	cpc	r23, r1
    206c:	59 f1       	breq	.+86     	; 0x20c4 <PrepareSending+0x62>
    206e:	a0 e5       	ldi	r26, 0x50	; 80
    2070:	ba e3       	ldi	r27, 0x3A	; 58
    2072:	c8 e4       	ldi	r28, 0x48	; 72
    2074:	da e3       	ldi	r29, 0x3A	; 58
    2076:	80 e0       	ldi	r24, 0x00	; 0
    2078:	9f ef       	ldi	r25, 0xFF	; 255
    207a:	6f 3f       	cpi	r22, 0xFF	; 255
    207c:	71 05       	cpc	r23, r1
    207e:	69 f0       	breq	.+26     	; 0x209a <PrepareSending+0x38>
    2080:	60 f0       	brcs	.+24     	; 0x209a <PrepareSending+0x38>
    2082:	ed 93       	st	X+, r30
    2084:	fd 93       	st	X+, r31
    2086:	99 93       	st	Y+, r25
    2088:	e1 50       	subi	r30, 0x01	; 1
    208a:	ff 4f       	sbci	r31, 0xFF	; 255
    208c:	6f 5f       	subi	r22, 0xFF	; 255
    208e:	71 09       	sbc	r23, r1
    2090:	8f 5f       	subi	r24, 0xFF	; 255
    2092:	87 30       	cpi	r24, 0x07	; 7
    2094:	91 f7       	brne	.-28     	; 0x207a <PrepareSending+0x18>
    2096:	81 e0       	ldi	r24, 0x01	; 1
    2098:	1e c0       	rjmp	.+60     	; 0x20d6 <PrepareSending+0x74>
    209a:	28 2f       	mov	r18, r24
    209c:	30 e0       	ldi	r19, 0x00	; 0
    209e:	d9 01       	movw	r26, r18
    20a0:	aa 0f       	add	r26, r26
    20a2:	bb 1f       	adc	r27, r27
    20a4:	a0 5b       	subi	r26, 0xB0	; 176
    20a6:	b5 4c       	sbci	r27, 0xC5	; 197
    20a8:	ed 93       	st	X+, r30
    20aa:	fc 93       	st	X, r31
    20ac:	6f 3f       	cpi	r22, 0xFF	; 255
    20ae:	71 05       	cpc	r23, r1
    20b0:	11 f4       	brne	.+4      	; 0x20b6 <PrepareSending+0x54>
    20b2:	6e ef       	ldi	r22, 0xFE	; 254
    20b4:	70 e0       	ldi	r23, 0x00	; 0
    20b6:	f9 01       	movw	r30, r18
    20b8:	e8 5b       	subi	r30, 0xB8	; 184
    20ba:	f5 4c       	sbci	r31, 0xC5	; 197
    20bc:	60 83       	st	Z, r22
    20be:	40 93 46 3a 	sts	0x3A46, r20	; 0x803a46 <txTypeNow>
    20c2:	05 c0       	rjmp	.+10     	; 0x20ce <PrepareSending+0x6c>
    20c4:	10 92 50 3a 	sts	0x3A50, r1	; 0x803a50 <txAddrList>
    20c8:	10 92 51 3a 	sts	0x3A51, r1	; 0x803a51 <txAddrList+0x1>
    20cc:	80 e0       	ldi	r24, 0x00	; 0
    20ce:	a5 df       	rcall	.-182    	; 0x201a <ClearTxAfter>
    20d0:	10 92 47 3a 	sts	0x3A47, r1	; 0x803a47 <txAddrNow>
    20d4:	80 e0       	ldi	r24, 0x00	; 0
    20d6:	df 91       	pop	r29
    20d8:	cf 91       	pop	r28
    20da:	08 95       	ret

000020dc <SetStandardResponse>:
}

//
uint8_t SetStandardResponse(uint8_t custStrEnd){
    20dc:	cf 93       	push	r28
    20de:	df 93       	push	r29
    return 0;
}

//
void SetResponse(uint8_t number, uint16_t address, uint16_t length, uint8_t type){
    reactStr[0][number]=address;
    20e0:	28 2f       	mov	r18, r24
    20e2:	30 e0       	ldi	r19, 0x00	; 0
    20e4:	f9 01       	movw	r30, r18
    20e6:	ee 0f       	add	r30, r30
    20e8:	ff 1f       	adc	r31, r31
    20ea:	e5 5e       	subi	r30, 0xE5	; 229
    20ec:	f6 4c       	sbci	r31, 0xC6	; 198
    20ee:	ab e5       	ldi	r26, 0x5B	; 91
    20f0:	ba e7       	ldi	r27, 0x7A	; 122
    20f2:	a0 83       	st	Z, r26
    20f4:	b1 83       	std	Z+1, r27	; 0x01
    reactStr[1][number]=length;
    20f6:	f9 01       	movw	r30, r18
    20f8:	ee 0f       	add	r30, r30
    20fa:	ff 1f       	adc	r31, r31
    20fc:	e5 5a       	subi	r30, 0xA5	; 165
    20fe:	f6 4c       	sbci	r31, 0xC6	; 198
    2100:	62 e0       	ldi	r22, 0x02	; 2
    2102:	70 e0       	ldi	r23, 0x00	; 0
    2104:	60 83       	st	Z, r22
    2106:	71 83       	std	Z+1, r23	; 0x01
    reactStr[2][number]=type;
    2108:	22 0f       	add	r18, r18
    210a:	33 1f       	adc	r19, r19
    210c:	f9 01       	movw	r30, r18
    210e:	e5 56       	subi	r30, 0x65	; 101
    2110:	f6 4c       	sbci	r31, 0xC6	; 198
    2112:	41 e0       	ldi	r20, 0x01	; 1
    2114:	50 e0       	ldi	r21, 0x00	; 0
    2116:	40 83       	st	Z, r20
    2118:	51 83       	std	Z+1, r21	; 0x01
    return 0;
}

//
void SetResponse(uint8_t number, uint16_t address, uint16_t length, uint8_t type){
    reactStr[0][number]=address;
    211a:	21 e0       	ldi	r18, 0x01	; 1
    211c:	28 0f       	add	r18, r24
    211e:	30 e0       	ldi	r19, 0x00	; 0
    2120:	f9 01       	movw	r30, r18
    2122:	ee 0f       	add	r30, r30
    2124:	ff 1f       	adc	r31, r31
    2126:	e5 5e       	subi	r30, 0xE5	; 229
    2128:	f6 4c       	sbci	r31, 0xC6	; 198
    212a:	c4 e6       	ldi	r28, 0x64	; 100
    212c:	da e7       	ldi	r29, 0x7A	; 122
    212e:	c0 83       	st	Z, r28
    2130:	d1 83       	std	Z+1, r29	; 0x01
    reactStr[1][number]=length;
    2132:	f9 01       	movw	r30, r18
    2134:	ee 0f       	add	r30, r30
    2136:	ff 1f       	adc	r31, r31
    2138:	e5 5a       	subi	r30, 0xA5	; 165
    213a:	f6 4c       	sbci	r31, 0xC6	; 198
    213c:	ca e0       	ldi	r28, 0x0A	; 10
    213e:	d0 e0       	ldi	r29, 0x00	; 0
    2140:	c0 83       	st	Z, r28
    2142:	d1 83       	std	Z+1, r29	; 0x01
    reactStr[2][number]=type;
    2144:	22 0f       	add	r18, r18
    2146:	33 1f       	adc	r19, r19
    2148:	f9 01       	movw	r30, r18
    214a:	e5 56       	subi	r30, 0x65	; 101
    214c:	f6 4c       	sbci	r31, 0xC6	; 198
    214e:	40 83       	st	Z, r20
    2150:	51 83       	std	Z+1, r21	; 0x01
uint8_t SetStandardResponse(uint8_t custStrEnd){

    SetResponse(custStrEnd++, A_LF, 2, TEASER);
    SetResponse(custStrEnd++, A_LOCATION, L_LOCATION, TEASER);
    //SetResponse(custStrEnd++, A_SPACE, L_SPACE, TEASER);
    reactStr[0][custStrEnd++] = CURR_LOC;
    2152:	e2 e0       	ldi	r30, 0x02	; 2
    2154:	e8 0f       	add	r30, r24
    2156:	f0 e0       	ldi	r31, 0x00	; 0
    2158:	ee 0f       	add	r30, r30
    215a:	ff 1f       	adc	r31, r31
    215c:	e5 5e       	subi	r30, 0xE5	; 229
    215e:	f6 4c       	sbci	r31, 0xC6	; 198
    2160:	20 ef       	ldi	r18, 0xF0	; 240
    2162:	3f ef       	ldi	r19, 0xFF	; 255
    2164:	20 83       	st	Z, r18
    2166:	31 83       	std	Z+1, r19	; 0x01
    return 0;
}

//
void SetResponse(uint8_t number, uint16_t address, uint16_t length, uint8_t type){
    reactStr[0][number]=address;
    2168:	23 e0       	ldi	r18, 0x03	; 3
    216a:	28 0f       	add	r18, r24
    216c:	30 e0       	ldi	r19, 0x00	; 0
    216e:	f9 01       	movw	r30, r18
    2170:	ee 0f       	add	r30, r30
    2172:	ff 1f       	adc	r31, r31
    2174:	e5 5e       	subi	r30, 0xE5	; 229
    2176:	f6 4c       	sbci	r31, 0xC6	; 198
    2178:	a0 83       	st	Z, r26
    217a:	b1 83       	std	Z+1, r27	; 0x01
    reactStr[1][number]=length;
    217c:	f9 01       	movw	r30, r18
    217e:	ee 0f       	add	r30, r30
    2180:	ff 1f       	adc	r31, r31
    2182:	e5 5a       	subi	r30, 0xA5	; 165
    2184:	f6 4c       	sbci	r31, 0xC6	; 198
    2186:	60 83       	st	Z, r22
    2188:	71 83       	std	Z+1, r23	; 0x01
    reactStr[2][number]=type;
    218a:	22 0f       	add	r18, r18
    218c:	33 1f       	adc	r19, r19
    218e:	f9 01       	movw	r30, r18
    2190:	e5 56       	subi	r30, 0x65	; 101
    2192:	f6 4c       	sbci	r31, 0xC6	; 198
    2194:	40 83       	st	Z, r20
    2196:	51 83       	std	Z+1, r21	; 0x01
    return 0;
}

//
void SetResponse(uint8_t number, uint16_t address, uint16_t length, uint8_t type){
    reactStr[0][number]=address;
    2198:	24 e0       	ldi	r18, 0x04	; 4
    219a:	28 0f       	add	r18, r24
    219c:	30 e0       	ldi	r19, 0x00	; 0
    219e:	f9 01       	movw	r30, r18
    21a0:	ee 0f       	add	r30, r30
    21a2:	ff 1f       	adc	r31, r31
    21a4:	e5 5e       	subi	r30, 0xE5	; 229
    21a6:	f6 4c       	sbci	r31, 0xC6	; 198
    21a8:	a7 e5       	ldi	r26, 0x57	; 87
    21aa:	ba e7       	ldi	r27, 0x7A	; 122
    21ac:	a0 83       	st	Z, r26
    21ae:	b1 83       	std	Z+1, r27	; 0x01
    reactStr[1][number]=length;
    21b0:	f9 01       	movw	r30, r18
    21b2:	ee 0f       	add	r30, r30
    21b4:	ff 1f       	adc	r31, r31
    21b6:	e5 5a       	subi	r30, 0xA5	; 165
    21b8:	f6 4c       	sbci	r31, 0xC6	; 198
    21ba:	60 83       	st	Z, r22
    21bc:	71 83       	std	Z+1, r23	; 0x01
    reactStr[2][number]=type;
    21be:	22 0f       	add	r18, r18
    21c0:	33 1f       	adc	r19, r19
    21c2:	f9 01       	movw	r30, r18
    21c4:	e5 56       	subi	r30, 0x65	; 101
    21c6:	f6 4c       	sbci	r31, 0xC6	; 198
    21c8:	40 83       	st	Z, r20
    21ca:	51 83       	std	Z+1, r21	; 0x01
    SetResponse(custStrEnd++, A_LF, 2, TEASER);
    SetResponse(custStrEnd++, A_PROMPT, L_PROMPT, TEASER);
    //SetResponse(custStrEnd++, A_SPACE, L_SPACE, TEASER);

    return custStrEnd;
}
    21cc:	8b 5f       	subi	r24, 0xFB	; 251
    21ce:	df 91       	pop	r29
    21d0:	cf 91       	pop	r28
    21d2:	08 95       	ret

000021d4 <PopulateObject>:

//Get all the relevant data and string addresses of an object
void PopulateObject(uint16_t offset, object_model_t *object){
    21d4:	af 92       	push	r10
    21d6:	bf 92       	push	r11
    21d8:	df 92       	push	r13
    21da:	ef 92       	push	r14
    21dc:	ff 92       	push	r15
    21de:	0f 93       	push	r16
    21e0:	1f 93       	push	r17
    21e2:	cf 93       	push	r28
    21e4:	df 93       	push	r29
    21e6:	cd b7       	in	r28, 0x3d	; 61
    21e8:	de b7       	in	r29, 0x3e	; 62
    21ea:	2c 97       	sbiw	r28, 0x0c	; 12
    21ec:	cd bf       	out	0x3d, r28	; 61
    21ee:	de bf       	out	0x3e, r29	; 62
    21f0:	7c 01       	movw	r14, r24
    21f2:	8b 01       	movw	r16, r22
    uint16_t parStr;
    offset += L_BOILER;

    //Fill things with fixed distance to offset
    uint8_t data[OFF_STRINGFLDS];
    ExtEERead(offset, OFF_STRINGFLDS, GAME, &data[0]);
    21f4:	9e 01       	movw	r18, r28
    21f6:	2f 5f       	subi	r18, 0xFF	; 255
    21f8:	3f 4f       	sbci	r19, 0xFF	; 255
    21fa:	40 e0       	ldi	r20, 0x00	; 0
    21fc:	6c e0       	ldi	r22, 0x0C	; 12
    21fe:	80 96       	adiw	r24, 0x20	; 32
    2200:	d9 de       	rcall	.-590    	; 0x1fb4 <ExtEERead>
    object->addrNextObj = (data[OFF_NEXTOBJ]<<8|data[OFF_NEXTOBJ+1])+L_BOILER;
    2202:	89 81       	ldd	r24, Y+1	; 0x01
    2204:	9a 81       	ldd	r25, Y+2	; 0x02
    2206:	98 27       	eor	r25, r24
    2208:	89 27       	eor	r24, r25
    220a:	98 27       	eor	r25, r24
    220c:	80 96       	adiw	r24, 0x20	; 32
    220e:	f8 01       	movw	r30, r16
    2210:	80 83       	st	Z, r24
    2212:	91 83       	std	Z+1, r25	; 0x01
    object->addrNextLvl = (data[OFF_NEXTLVL]<<8|data[OFF_NEXTLVL+1])+L_BOILER;
    2214:	8b 81       	ldd	r24, Y+3	; 0x03
    2216:	9c 81       	ldd	r25, Y+4	; 0x04
    2218:	98 27       	eor	r25, r24
    221a:	89 27       	eor	r24, r25
    221c:	98 27       	eor	r25, r24
    221e:	80 96       	adiw	r24, 0x20	; 32
    2220:	82 83       	std	Z+2, r24	; 0x02
    2222:	93 83       	std	Z+3, r25	; 0x03
    2224:	de 01       	movw	r26, r28
    2226:	15 96       	adiw	r26, 0x05	; 5
    2228:	34 96       	adiw	r30, 0x04	; 4
    222a:	c8 01       	movw	r24, r16
    222c:	0c 96       	adiw	r24, 0x0c	; 12
    for (uint8_t x=0; x<BYTE_FIELDS_LEN; ++x){
        object->byteField[x]=data[x+OFF_BYTEFLDS];
    222e:	2d 91       	ld	r18, X+
    2230:	21 93       	st	Z+, r18
    //Fill things with fixed distance to offset
    uint8_t data[OFF_STRINGFLDS];
    ExtEERead(offset, OFF_STRINGFLDS, GAME, &data[0]);
    object->addrNextObj = (data[OFF_NEXTOBJ]<<8|data[OFF_NEXTOBJ+1])+L_BOILER;
    object->addrNextLvl = (data[OFF_NEXTLVL]<<8|data[OFF_NEXTLVL+1])+L_BOILER;
    for (uint8_t x=0; x<BYTE_FIELDS_LEN; ++x){
    2232:	e8 17       	cp	r30, r24
    2234:	f9 07       	cpc	r31, r25
    2236:	d9 f7       	brne	.-10     	; 0x222e <PopulateObject+0x5a>
        object->byteField[x]=data[x+OFF_BYTEFLDS];
    }

    //Find out where all of the strings begin and how long they are
    offset += OFF_STRINGFLDS;
    2238:	fc e2       	ldi	r31, 0x2C	; 44
    223a:	ef 0e       	add	r14, r31
    223c:	f1 1c       	adc	r15, r1
    223e:	58 01       	movw	r10, r16
    for(uint8_t x=0; x<STRING_FIELDS_LEN; ++x){
    2240:	d1 2c       	mov	r13, r1
        
        //Determine length
        ExtEERead(offset, 3, GAME, &data[0]);
    2242:	9e 01       	movw	r18, r28
    2244:	2f 5f       	subi	r18, 0xFF	; 255
    2246:	3f 4f       	sbci	r19, 0xFF	; 255
    2248:	40 e0       	ldi	r20, 0x00	; 0
    224a:	63 e0       	ldi	r22, 0x03	; 3
    224c:	c7 01       	movw	r24, r14
    224e:	b2 de       	rcall	.-668    	; 0x1fb4 <ExtEERead>
    2250:	89 81       	ldd	r24, Y+1	; 0x01
    2252:	9a 81       	ldd	r25, Y+2	; 0x02
    2254:	98 27       	eor	r25, r24
    2256:	89 27       	eor	r24, r25
    2258:	98 27       	eor	r25, r24
        parStr = (data[0]<<8|data[1]);
        offset += 2;
    225a:	97 01       	movw	r18, r14
    225c:	2e 5f       	subi	r18, 0xFE	; 254
    225e:	3f 4f       	sbci	r19, 0xFF	; 255
        if (x >= OPEN_ACL_MSG){
    2260:	43 e0       	ldi	r20, 0x03	; 3
    2262:	4d 15       	cp	r20, r13
    2264:	80 f4       	brcc	.+32     	; 0x2286 <PopulateObject+0xb2>
            object->lenStr[x]= parStr-1;
    2266:	ac 01       	movw	r20, r24
    2268:	41 50       	subi	r20, 0x01	; 1
    226a:	51 09       	sbc	r21, r1
    226c:	f8 01       	movw	r30, r16
    226e:	42 8f       	std	Z+26, r20	; 0x1a
    2270:	53 8f       	std	Z+27, r21	; 0x1b
            object->addrStr[x]=offset+1;
    2272:	f3 e0       	ldi	r31, 0x03	; 3
    2274:	ef 0e       	add	r14, r31
    2276:	f1 1c       	adc	r15, r1
    2278:	f8 01       	movw	r30, r16
    227a:	e4 86       	std	Z+12, r14	; 0x0c
    227c:	f5 86       	std	Z+13, r15	; 0x0d
            object->effect[x-OPEN_ACL_MSG] = data[2];
    227e:	4b 81       	ldd	r20, Y+3	; 0x03
    2280:	f5 01       	movw	r30, r10
    2282:	44 a3       	std	Z+36, r20	; 0x24
    2284:	05 c0       	rjmp	.+10     	; 0x2290 <PopulateObject+0xbc>
        } else {
            object->lenStr[x]= parStr;
    2286:	f8 01       	movw	r30, r16
    2288:	82 8f       	std	Z+26, r24	; 0x1a
    228a:	93 8f       	std	Z+27, r25	; 0x1b
            object->addrStr[x]=offset;
    228c:	24 87       	std	Z+12, r18	; 0x0c
    228e:	35 87       	std	Z+13, r19	; 0x0d
        }
        
        //Determine string start location for next field
        offset += parStr;
    2290:	7c 01       	movw	r14, r24
    2292:	e2 0e       	add	r14, r18
    2294:	f3 1e       	adc	r15, r19
        object->byteField[x]=data[x+OFF_BYTEFLDS];
    }

    //Find out where all of the strings begin and how long they are
    offset += OFF_STRINGFLDS;
    for(uint8_t x=0; x<STRING_FIELDS_LEN; ++x){
    2296:	d3 94       	inc	r13
    2298:	0e 5f       	subi	r16, 0xFE	; 254
    229a:	1f 4f       	sbci	r17, 0xFF	; 255
    229c:	ff ef       	ldi	r31, 0xFF	; 255
    229e:	af 1a       	sub	r10, r31
    22a0:	bf 0a       	sbc	r11, r31
    22a2:	47 e0       	ldi	r20, 0x07	; 7
    22a4:	d4 12       	cpse	r13, r20
    22a6:	cd cf       	rjmp	.-102    	; 0x2242 <PopulateObject+0x6e>
        }
        
        //Determine string start location for next field
        offset += parStr;
    }    
}
    22a8:	2c 96       	adiw	r28, 0x0c	; 12
    22aa:	cd bf       	out	0x3d, r28	; 61
    22ac:	de bf       	out	0x3e, r29	; 62
    22ae:	df 91       	pop	r29
    22b0:	cf 91       	pop	r28
    22b2:	1f 91       	pop	r17
    22b4:	0f 91       	pop	r16
    22b6:	ff 90       	pop	r15
    22b8:	ef 90       	pop	r14
    22ba:	df 90       	pop	r13
    22bc:	bf 90       	pop	r11
    22be:	af 90       	pop	r10
    22c0:	08 95       	ret

000022c2 <CheckLetter>:

//Check if the entered letter corresponds with a name
uint8_t CheckLetter(uint16_t object, uint8_t letter){
    22c2:	cf 92       	push	r12
    22c4:	df 92       	push	r13
    22c6:	ef 92       	push	r14
    22c8:	ff 92       	push	r15
    22ca:	0f 93       	push	r16
    22cc:	1f 93       	push	r17
    22ce:	cf 93       	push	r28
    22d0:	df 93       	push	r29
    22d2:	cd b7       	in	r28, 0x3d	; 61
    22d4:	de b7       	in	r29, 0x3e	; 62
    22d6:	a0 97       	sbiw	r28, 0x20	; 32
    22d8:	cd bf       	out	0x3d, r28	; 61
    22da:	de bf       	out	0x3e, r29	; 62
    22dc:	c6 2e       	mov	r12, r22
    
    uint8_t found = 0;
    uint8_t data[32];

    object += L_BOILER;
    22de:	7c 01       	movw	r14, r24
    22e0:	20 e2       	ldi	r18, 0x20	; 32
    22e2:	e2 0e       	add	r14, r18
    22e4:	f1 1c       	adc	r15, r1
    ExtEERead(object+OFF_STRINGFLDS, 2, GAME, &data[0]);
    22e6:	9e 01       	movw	r18, r28
    22e8:	2f 5f       	subi	r18, 0xFF	; 255
    22ea:	3f 4f       	sbci	r19, 0xFF	; 255
    22ec:	40 e0       	ldi	r20, 0x00	; 0
    22ee:	62 e0       	ldi	r22, 0x02	; 2
    22f0:	8c 96       	adiw	r24, 0x2c	; 44
    22f2:	60 de       	rcall	.-832    	; 0x1fb4 <ExtEERead>
    uint8_t x = data[1]; //Assuming a name is not longer than 255 characters.
    22f4:	1a 81       	ldd	r17, Y+2	; 0x02
}

//Check if the entered letter corresponds with a name
uint8_t CheckLetter(uint16_t object, uint8_t letter){
    
    uint8_t found = 0;
    22f6:	d1 2c       	mov	r13, r1

    object += L_BOILER;
    ExtEERead(object+OFF_STRINGFLDS, 2, GAME, &data[0]);
    uint8_t x = data[1]; //Assuming a name is not longer than 255 characters.

    while (x){
    22f8:	11 23       	and	r17, r17
    22fa:	51 f1       	breq	.+84     	; 0x2350 <CheckLetter+0x8e>
    22fc:	01 2f       	mov	r16, r17
    22fe:	11 32       	cpi	r17, 0x21	; 33
    2300:	08 f0       	brcs	.+2      	; 0x2304 <CheckLetter+0x42>
    2302:	00 e2       	ldi	r16, 0x20	; 32
        uint8_t max;
        if (x>32) max = 32; else max = x;
        ExtEERead(object+OFF_STRINGFLDS+2, max, GAME, &data[0]);
    2304:	9e 01       	movw	r18, r28
    2306:	2f 5f       	subi	r18, 0xFF	; 255
    2308:	3f 4f       	sbci	r19, 0xFF	; 255
    230a:	40 e0       	ldi	r20, 0x00	; 0
    230c:	60 2f       	mov	r22, r16
    230e:	c7 01       	movw	r24, r14
    2310:	0e 96       	adiw	r24, 0x0e	; 14
    2312:	50 de       	rcall	.-864    	; 0x1fb4 <ExtEERead>
    2314:	fe 01       	movw	r30, r28
    2316:	31 96       	adiw	r30, 0x01	; 1
        for (uint8_t y=0; y<max; ++y){
    2318:	80 e0       	ldi	r24, 0x00	; 0
            if (found){
    231a:	dd 20       	and	r13, r13
    231c:	61 f0       	breq	.+24     	; 0x2336 <CheckLetter+0x74>
                if ((data[y]|0x20) == letter) return 1; else return 0;
    231e:	e1 e0       	ldi	r30, 0x01	; 1
    2320:	f0 e0       	ldi	r31, 0x00	; 0
    2322:	ec 0f       	add	r30, r28
    2324:	fd 1f       	adc	r31, r29
    2326:	e8 0f       	add	r30, r24
    2328:	f1 1d       	adc	r31, r1
    232a:	90 81       	ld	r25, Z
    232c:	90 62       	ori	r25, 0x20	; 32
    232e:	81 e0       	ldi	r24, 0x01	; 1
    2330:	9c 11       	cpse	r25, r12
    2332:	0e c0       	rjmp	.+28     	; 0x2350 <CheckLetter+0x8e>
    2334:	0e c0       	rjmp	.+28     	; 0x2352 <CheckLetter+0x90>
            }
            if (data[y] == '[') found = 1;
    2336:	91 91       	ld	r25, Z+
    2338:	dd 24       	eor	r13, r13
    233a:	d3 94       	inc	r13
    233c:	9b 35       	cpi	r25, 0x5B	; 91
    233e:	09 f0       	breq	.+2      	; 0x2342 <CheckLetter+0x80>
    2340:	d1 2c       	mov	r13, r1

    while (x){
        uint8_t max;
        if (x>32) max = 32; else max = x;
        ExtEERead(object+OFF_STRINGFLDS+2, max, GAME, &data[0]);
        for (uint8_t y=0; y<max; ++y){
    2342:	8f 5f       	subi	r24, 0xFF	; 255
    2344:	80 17       	cp	r24, r16
    2346:	48 f3       	brcs	.-46     	; 0x231a <CheckLetter+0x58>
            if (found){
                if ((data[y]|0x20) == letter) return 1; else return 0;
            }
            if (data[y] == '[') found = 1;
        }
        object += max;
    2348:	e0 0e       	add	r14, r16
    234a:	f1 1c       	adc	r15, r1
        x -= max;
    234c:	10 1b       	sub	r17, r16
    234e:	d4 cf       	rjmp	.-88     	; 0x22f8 <CheckLetter+0x36>
    }
    return 0;
    2350:	80 e0       	ldi	r24, 0x00	; 0
}
    2352:	a0 96       	adiw	r28, 0x20	; 32
    2354:	cd bf       	out	0x3d, r28	; 61
    2356:	de bf       	out	0x3e, r29	; 62
    2358:	df 91       	pop	r29
    235a:	cf 91       	pop	r28
    235c:	1f 91       	pop	r17
    235e:	0f 91       	pop	r16
    2360:	ff 90       	pop	r15
    2362:	ef 90       	pop	r14
    2364:	df 90       	pop	r13
    2366:	cf 90       	pop	r12
    2368:	08 95       	ret

0000236a <FindChild>:

//Returns the child's address if the child is visible and the search letter matches
uint16_t FindChild(uint16_t parent, uint8_t letter, uint16_t start){
    236a:	af 92       	push	r10
    236c:	bf 92       	push	r11
    236e:	df 92       	push	r13
    2370:	ef 92       	push	r14
    2372:	ff 92       	push	r15
    2374:	0f 93       	push	r16
    2376:	1f 93       	push	r17
    2378:	cf 93       	push	r28
    237a:	df 93       	push	r29
    237c:	00 d0       	rcall	.+0      	; 0x237e <FindChild+0x14>
    237e:	00 d0       	rcall	.+0      	; 0x2380 <FindChild+0x16>
    2380:	cd b7       	in	r28, 0x3d	; 61
    2382:	de b7       	in	r29, 0x3e	; 62
    2384:	d6 2e       	mov	r13, r22
    2386:	5a 01       	movw	r10, r20
    
    uint16_t child = parent;
    uint8_t data[4];

    ExtEERead(child+L_BOILER, 4, GAME, &data[0]);
    2388:	9e 01       	movw	r18, r28
    238a:	2f 5f       	subi	r18, 0xFF	; 255
    238c:	3f 4f       	sbci	r19, 0xFF	; 255
    238e:	40 e0       	ldi	r20, 0x00	; 0
    2390:	64 e0       	ldi	r22, 0x04	; 4
    2392:	80 96       	adiw	r24, 0x20	; 32
    2394:	0f de       	rcall	.-994    	; 0x1fb4 <ExtEERead>
    2396:	e9 80       	ldd	r14, Y+1	; 0x01
    2398:	fa 80       	ldd	r15, Y+2	; 0x02
    239a:	fe 24       	eor	r15, r14
    239c:	ef 24       	eor	r14, r15
    239e:	fe 24       	eor	r15, r14
    23a0:	0b 81       	ldd	r16, Y+3	; 0x03
    23a2:	1c 81       	ldd	r17, Y+4	; 0x04
    23a4:	10 27       	eor	r17, r16
    23a6:	01 27       	eor	r16, r17
    23a8:	10 27       	eor	r17, r16
    parent = (data[0]<<8|data[1]);    //Next object on parent level
    child =  (data[2]<<8|data[3]);    //First object on child level

    //As long as the child is within the parent's range
    while (parent>child){
    23aa:	0e 15       	cp	r16, r14
    23ac:	1f 05       	cpc	r17, r15
    23ae:	30 f5       	brcc	.+76     	; 0x23fc <FindChild+0x92>

        //If child's address is higher than the start address, perform search for letter
        if (child>start){
    23b0:	a0 16       	cp	r10, r16
    23b2:	b1 06       	cpc	r11, r17
    23b4:	58 f0       	brcs	.+22     	; 0x23cc <FindChild+0x62>
                if ((letter == 0)||(CheckLetter(child, letter))) return child;
            }
        }

        //Not visible or name not right
        ExtEERead(child+L_BOILER, 2, GAME, &data[0]);
    23b6:	9e 01       	movw	r18, r28
    23b8:	2f 5f       	subi	r18, 0xFF	; 255
    23ba:	3f 4f       	sbci	r19, 0xFF	; 255
    23bc:	40 e0       	ldi	r20, 0x00	; 0
    23be:	62 e0       	ldi	r22, 0x02	; 2
    23c0:	c8 01       	movw	r24, r16
    23c2:	80 96       	adiw	r24, 0x20	; 32
    23c4:	f7 dd       	rcall	.-1042   	; 0x1fb4 <ExtEERead>
    23c6:	09 81       	ldd	r16, Y+1	; 0x01
    23c8:	1a 81       	ldd	r17, Y+2	; 0x02
    23ca:	ec cf       	rjmp	.-40     	; 0x23a4 <FindChild+0x3a>
    //As long as the child is within the parent's range
    while (parent>child){

        //If child's address is higher than the start address, perform search for letter
        if (child>start){
            ExtEERead(child+OFF_BYTEFLDS+VISIBLE_ACL+L_BOILER, 1, GAME, &data[0]);
    23cc:	9e 01       	movw	r18, r28
    23ce:	2f 5f       	subi	r18, 0xFF	; 255
    23d0:	3f 4f       	sbci	r19, 0xFF	; 255
    23d2:	40 e0       	ldi	r20, 0x00	; 0
    23d4:	61 e0       	ldi	r22, 0x01	; 1
    23d6:	c8 01       	movw	r24, r16
    23d8:	85 96       	adiw	r24, 0x25	; 37
    23da:	ec dd       	rcall	.-1064   	; 0x1fb4 <ExtEERead>
            if ((data[0] == 0)||(CheckState(data[0]))) {
    23dc:	89 81       	ldd	r24, Y+1	; 0x01
    23de:	81 11       	cpse	r24, r1
    23e0:	03 c0       	rjmp	.+6      	; 0x23e8 <FindChild+0x7e>
                if ((letter == 0)||(CheckLetter(child, letter))) return child;
    23e2:	d1 10       	cpse	r13, r1
    23e4:	05 c0       	rjmp	.+10     	; 0x23f0 <FindChild+0x86>
    while (parent>child){

        //If child's address is higher than the start address, perform search for letter
        if (child>start){
            ExtEERead(child+OFF_BYTEFLDS+VISIBLE_ACL+L_BOILER, 1, GAME, &data[0]);
            if ((data[0] == 0)||(CheckState(data[0]))) {
    23e6:	0d c0       	rjmp	.+26     	; 0x2402 <FindChild+0x98>
    23e8:	6e d8       	rcall	.-3876   	; 0x14c6 <CheckState>
    23ea:	81 11       	cpse	r24, r1
    23ec:	fa cf       	rjmp	.-12     	; 0x23e2 <FindChild+0x78>
                if ((letter == 0)||(CheckLetter(child, letter))) return child;
    23ee:	e3 cf       	rjmp	.-58     	; 0x23b6 <FindChild+0x4c>
    23f0:	6d 2d       	mov	r22, r13
    23f2:	c8 01       	movw	r24, r16
    23f4:	66 df       	rcall	.-308    	; 0x22c2 <CheckLetter>
    23f6:	88 23       	and	r24, r24
    23f8:	f1 f2       	breq	.-68     	; 0x23b6 <FindChild+0x4c>
    23fa:	03 c0       	rjmp	.+6      	; 0x2402 <FindChild+0x98>

        //Not visible or name not right
        ExtEERead(child+L_BOILER, 2, GAME, &data[0]);
        child = (data[0]<<8|data[1]);    //Next object on child level
        
    } return 0;
    23fc:	80 e0       	ldi	r24, 0x00	; 0
    23fe:	90 e0       	ldi	r25, 0x00	; 0
    2400:	01 c0       	rjmp	.+2      	; 0x2404 <FindChild+0x9a>
    2402:	c8 01       	movw	r24, r16
}
    2404:	24 96       	adiw	r28, 0x04	; 4
    2406:	cd bf       	out	0x3d, r28	; 61
    2408:	de bf       	out	0x3e, r29	; 62
    240a:	df 91       	pop	r29
    240c:	cf 91       	pop	r28
    240e:	1f 91       	pop	r17
    2410:	0f 91       	pop	r16
    2412:	ff 90       	pop	r15
    2414:	ef 90       	pop	r14
    2416:	df 90       	pop	r13
    2418:	bf 90       	pop	r11
    241a:	af 90       	pop	r10
    241c:	08 95       	ret

0000241e <InpOkChk>:

//Allow only a(A) to z(Z) and 0 to 9 as input
uint8_t InpOkChk(uint8_t test){
    test |= 0x20;
    241e:	80 62       	ori	r24, 0x20	; 32
    if ((test>='a')&&(test<='z')) return 1;
    2420:	9f e9       	ldi	r25, 0x9F	; 159
    2422:	98 0f       	add	r25, r24
    2424:	9a 31       	cpi	r25, 0x1A	; 26
    2426:	38 f0       	brcs	.+14     	; 0x2436 <InpOkChk+0x18>
    2428:	90 ed       	ldi	r25, 0xD0	; 208
    242a:	98 0f       	add	r25, r24
    242c:	81 e0       	ldi	r24, 0x01	; 1
    242e:	9a 30       	cpi	r25, 0x0A	; 10
    2430:	18 f0       	brcs	.+6      	; 0x2438 <InpOkChk+0x1a>
    2432:	80 e0       	ldi	r24, 0x00	; 0
    2434:	08 95       	ret
    2436:	81 e0       	ldi	r24, 0x01	; 1
    if ((test>='0')&&(test<='9')) return 1;
    return 0;
}
    2438:	08 95       	ret

0000243a <CleanInput>:

//Cleans input of garbage and returns length of cleaned input "o->d2  !\0" becomes "od2\0"
uint8_t CleanInput(uint8_t *data){
    243a:	0f 93       	push	r16
    243c:	1f 93       	push	r17
    243e:	cf 93       	push	r28
    2440:	df 93       	push	r29
    2442:	8c 01       	movw	r16, r24
    uint8_t cnt = 0;
    for (uint8_t x=0; data[x]!=0; ++x){
    2444:	d0 e0       	ldi	r29, 0x00	; 0
    return 0;
}

//Cleans input of garbage and returns length of cleaned input "o->d2  !\0" becomes "od2\0"
uint8_t CleanInput(uint8_t *data){
    uint8_t cnt = 0;
    2446:	c0 e0       	ldi	r28, 0x00	; 0
    for (uint8_t x=0; data[x]!=0; ++x){
    2448:	f8 01       	movw	r30, r16
    244a:	ed 0f       	add	r30, r29
    244c:	f1 1d       	adc	r31, r1
    244e:	20 81       	ld	r18, Z
    2450:	8c 2f       	mov	r24, r28
    2452:	90 e0       	ldi	r25, 0x00	; 0
    2454:	22 23       	and	r18, r18
    2456:	51 f0       	breq	.+20     	; 0x246c <CleanInput+0x32>
        data[cnt] = data[x];
    2458:	d8 01       	movw	r26, r16
    245a:	a8 0f       	add	r26, r24
    245c:	b9 1f       	adc	r27, r25
    245e:	2c 93       	st	X, r18
        if (InpOkChk(data[x])) ++cnt;
    2460:	80 81       	ld	r24, Z
    2462:	dd df       	rcall	.-70     	; 0x241e <InpOkChk>
    2464:	81 11       	cpse	r24, r1
    2466:	cf 5f       	subi	r28, 0xFF	; 255
}

//Cleans input of garbage and returns length of cleaned input "o->d2  !\0" becomes "od2\0"
uint8_t CleanInput(uint8_t *data){
    uint8_t cnt = 0;
    for (uint8_t x=0; data[x]!=0; ++x){
    2468:	df 5f       	subi	r29, 0xFF	; 255
    246a:	ee cf       	rjmp	.-36     	; 0x2448 <CleanInput+0xe>
        data[cnt] = data[x];
        if (InpOkChk(data[x])) ++cnt;
    }
    data[cnt] = 0;
    246c:	f8 01       	movw	r30, r16
    246e:	e8 0f       	add	r30, r24
    2470:	f9 1f       	adc	r31, r25
    2472:	10 82       	st	Z, r1
    return cnt;
}
    2474:	8c 2f       	mov	r24, r28
    2476:	df 91       	pop	r29
    2478:	cf 91       	pop	r28
    247a:	1f 91       	pop	r17
    247c:	0f 91       	pop	r16
    247e:	08 95       	ret

00002480 <CheckSend>:

//Send routine, optimized for low memory usage
uint8_t CheckSend(){
    2480:	cf 93       	push	r28
    static uint8_t txPart;
    uint8_t EEreadLength=0;

    //Play effects if available and not already playing
    if (effect == 0){
    2482:	80 91 3a 38 	lds	r24, 0x383A	; 0x80383a <effect>
    2486:	90 91 3b 38 	lds	r25, 0x383B	; 0x80383b <effect+0x1>
    248a:	89 2b       	or	r24, r25
    248c:	99 f4       	brne	.+38     	; 0x24b4 <CheckSend+0x34>
        effect = currObj.byteField[EFFECTS];
    248e:	80 91 1f 3a 	lds	r24, 0x3A1F	; 0x803a1f <currObj+0x4>
    2492:	90 e0       	ldi	r25, 0x00	; 0
    2494:	80 93 3a 38 	sts	0x383A, r24	; 0x80383a <effect>
    2498:	90 93 3b 38 	sts	0x383B, r25	; 0x80383b <effect+0x1>
        auStart = ((effect&0xE0)>0);
    249c:	80 91 3a 38 	lds	r24, 0x383A	; 0x80383a <effect>
    24a0:	90 91 3b 38 	lds	r25, 0x383B	; 0x80383b <effect+0x1>
    24a4:	80 7e       	andi	r24, 0xE0	; 224
    24a6:	99 27       	eor	r25, r25
    24a8:	21 e0       	ldi	r18, 0x01	; 1
    24aa:	89 2b       	or	r24, r25
    24ac:	09 f4       	brne	.+2      	; 0x24b0 <CheckSend+0x30>
    24ae:	20 e0       	ldi	r18, 0x00	; 0
    24b0:	20 93 39 38 	sts	0x3839, r18	; 0x803839 <auStart>
    }

    //Check if more string(part)s have to be sent to the serial output if previous send operation is completed
    if ((txAddrNow < TXLISTLEN) && serTxDone){
    24b4:	20 91 47 3a 	lds	r18, 0x3A47	; 0x803a47 <txAddrNow>
    24b8:	28 30       	cpi	r18, 0x08	; 8
    24ba:	08 f0       	brcs	.+2      	; 0x24be <CheckSend+0x3e>
    24bc:	48 c0       	rjmp	.+144    	; 0x254e <CheckSend+0xce>
    24be:	80 91 09 38 	lds	r24, 0x3809	; 0x803809 <serTxDone>
    24c2:	88 23       	and	r24, r24
    24c4:	09 f4       	brne	.+2      	; 0x24c8 <CheckSend+0x48>
    24c6:	43 c0       	rjmp	.+134    	; 0x254e <CheckSend+0xce>
        if (txStrLen[txAddrNow] == 0){
    24c8:	82 2f       	mov	r24, r18
    24ca:	90 e0       	ldi	r25, 0x00	; 0
    24cc:	fc 01       	movw	r30, r24
    24ce:	e8 5b       	subi	r30, 0xB8	; 184
    24d0:	f5 4c       	sbci	r31, 0xC5	; 197
    24d2:	e0 81       	ld	r30, Z
    24d4:	e1 11       	cpse	r30, r1
    24d6:	06 c0       	rjmp	.+12     	; 0x24e4 <CheckSend+0x64>
            txPart = 0;
    24d8:	10 92 06 39 	sts	0x3906, r1	; 0x803906 <txPart.3950>
            txAddrNow = TXLISTLEN;
    24dc:	88 e0       	ldi	r24, 0x08	; 8
    24de:	80 93 47 3a 	sts	0x3A47, r24	; 0x803a47 <txAddrNow>
    24e2:	2d c0       	rjmp	.+90     	; 0x253e <CheckSend+0xbe>
        } else if (txPart < txStrLen[txAddrNow]){
    24e4:	50 91 06 39 	lds	r21, 0x3906	; 0x803906 <txPart.3950>
    24e8:	5e 17       	cp	r21, r30
    24ea:	58 f5       	brcc	.+86     	; 0x2542 <CheckSend+0xc2>
            EEreadLength = txStrLen[txAddrNow]-txPart;
    24ec:	ce 2f       	mov	r28, r30
    24ee:	c5 1b       	sub	r28, r21
    24f0:	c1 32       	cpi	r28, 0x21	; 33
    24f2:	08 f0       	brcs	.+2      	; 0x24f6 <CheckSend+0x76>
    24f4:	c0 e2       	ldi	r28, 0x20	; 32
            if (EEreadLength>=TXLEN) EEreadLength = TXLEN-1;
            ExtEERead(txAddrList[txAddrNow]+txPart, EEreadLength, txTypeNow, &txBuffer[0]);
    24f6:	88 0f       	add	r24, r24
    24f8:	99 1f       	adc	r25, r25
    24fa:	fc 01       	movw	r30, r24
    24fc:	e0 5b       	subi	r30, 0xB0	; 176
    24fe:	f5 4c       	sbci	r31, 0xC5	; 197
    2500:	80 81       	ld	r24, Z
    2502:	91 81       	ldd	r25, Z+1	; 0x01
    2504:	29 ef       	ldi	r18, 0xF9	; 249
    2506:	3a e3       	ldi	r19, 0x3A	; 58
    2508:	40 91 46 3a 	lds	r20, 0x3A46	; 0x803a46 <txTypeNow>
    250c:	6c 2f       	mov	r22, r28
    250e:	85 0f       	add	r24, r21
    2510:	91 1d       	adc	r25, r1
    2512:	50 dd       	rcall	.-1376   	; 0x1fb4 <ExtEERead>
            txPart += EEreadLength;
    2514:	80 91 06 39 	lds	r24, 0x3906	; 0x803906 <txPart.3950>
    2518:	8c 0f       	add	r24, r28
    251a:	80 93 06 39 	sts	0x3906, r24	; 0x803906 <txPart.3950>
            txBuffer[EEreadLength] = 0; //Add string terminator after piece to send to plug memory leak
    251e:	ec 2f       	mov	r30, r28
    2520:	f0 e0       	ldi	r31, 0x00	; 0
    2522:	e7 50       	subi	r30, 0x07	; 7
    2524:	f5 4c       	sbci	r31, 0xC5	; 197
    2526:	10 82       	st	Z, r1
            if ((txBuffer[0] == 0) && (EEreadLength)) txBuffer[0] = 0xDB; //Block character when data wrong.
    2528:	80 91 f9 3a 	lds	r24, 0x3AF9	; 0x803af9 <txBuffer>
    252c:	81 11       	cpse	r24, r1
    252e:	03 c0       	rjmp	.+6      	; 0x2536 <CheckSend+0xb6>
    2530:	8b ed       	ldi	r24, 0xDB	; 219
    2532:	80 93 f9 3a 	sts	0x3AF9, r24	; 0x803af9 <txBuffer>
            SerSend(&txBuffer[0]);
    2536:	89 ef       	ldi	r24, 0xF9	; 249
    2538:	9a e3       	ldi	r25, 0x3A	; 58
    253a:	0e 94 c7 08 	call	0x118e	; 0x118e <SerSend>
        } else {
            txPart = 0;
            ++txAddrNow;
        }
    } else if (serTxDone) return 0; //All is sent!
    return 1; //Still sending, do not change the data in the tx variables
    253e:	81 e0       	ldi	r24, 0x01	; 1
    2540:	0b c0       	rjmp	.+22     	; 0x2558 <CheckSend+0xd8>
            txPart += EEreadLength;
            txBuffer[EEreadLength] = 0; //Add string terminator after piece to send to plug memory leak
            if ((txBuffer[0] == 0) && (EEreadLength)) txBuffer[0] = 0xDB; //Block character when data wrong.
            SerSend(&txBuffer[0]);
        } else {
            txPart = 0;
    2542:	10 92 06 39 	sts	0x3906, r1	; 0x803906 <txPart.3950>
            ++txAddrNow;
    2546:	2f 5f       	subi	r18, 0xFF	; 255
    2548:	20 93 47 3a 	sts	0x3A47, r18	; 0x803a47 <txAddrNow>
    254c:	f8 cf       	rjmp	.-16     	; 0x253e <CheckSend+0xbe>
        }
    } else if (serTxDone) return 0; //All is sent!
    254e:	90 91 09 38 	lds	r25, 0x3809	; 0x803809 <serTxDone>
    2552:	81 e0       	ldi	r24, 0x01	; 1
    2554:	91 11       	cpse	r25, r1
    2556:	80 e0       	ldi	r24, 0x00	; 0
    return 1; //Still sending, do not change the data in the tx variables
}
    2558:	cf 91       	pop	r28
    255a:	08 95       	ret

0000255c <CheckResponse>:

//Send another part of the response and play the effect afterwards
uint8_t CheckResponse(){
    255c:	cf 93       	push	r28
    255e:	df 93       	push	r29
    static uint8_t number = 0;
    if (responseList){
    2560:	c0 91 1a 39 	lds	r28, 0x391A	; 0x80391a <responseList>
    2564:	cc 23       	and	r28, r28
    2566:	e9 f1       	breq	.+122    	; 0x25e2 <CheckResponse+0x86>
        --responseList;
    2568:	c1 50       	subi	r28, 0x01	; 1
    256a:	c0 93 1a 39 	sts	0x391A, r28	; 0x80391a <responseList>
        if (reactStr[0][number] == CURR_LOC) {
    256e:	d0 91 05 39 	lds	r29, 0x3905	; 0x803905 <number.3954>
    2572:	2d 2f       	mov	r18, r29
    2574:	30 e0       	ldi	r19, 0x00	; 0
    2576:	f9 01       	movw	r30, r18
    2578:	ee 0f       	add	r30, r30
    257a:	ff 1f       	adc	r31, r31
    257c:	e5 5e       	subi	r30, 0xE5	; 229
    257e:	f6 4c       	sbci	r31, 0xC6	; 198
    2580:	80 81       	ld	r24, Z
    2582:	91 81       	ldd	r25, Z+1	; 0x01
    2584:	80 3f       	cpi	r24, 0xF0	; 240
    2586:	4f ef       	ldi	r20, 0xFF	; 255
    2588:	94 07       	cpc	r25, r20
    258a:	51 f4       	brne	.+20     	; 0x25a0 <CheckResponse+0x44>
            PrepareSending(currObj.addrStr[NAME], currObj.lenStr[NAME], GAME);
    258c:	60 91 35 3a 	lds	r22, 0x3A35	; 0x803a35 <currObj+0x1a>
    2590:	70 91 36 3a 	lds	r23, 0x3A36	; 0x803a36 <currObj+0x1b>
    2594:	40 e0       	ldi	r20, 0x00	; 0
    2596:	80 91 27 3a 	lds	r24, 0x3A27	; 0x803a27 <currObj+0xc>
    259a:	90 91 28 3a 	lds	r25, 0x3A28	; 0x803a28 <currObj+0xd>
    259e:	0d c0       	rjmp	.+26     	; 0x25ba <CheckResponse+0x5e>
        } else {
            PrepareSending(reactStr[0][number], reactStr[1][number], reactStr[2][number]);
    25a0:	d9 01       	movw	r26, r18
    25a2:	aa 0f       	add	r26, r26
    25a4:	bb 1f       	adc	r27, r27
    25a6:	a5 56       	subi	r26, 0x65	; 101
    25a8:	b6 4c       	sbci	r27, 0xC6	; 198
    25aa:	22 0f       	add	r18, r18
    25ac:	33 1f       	adc	r19, r19
    25ae:	f9 01       	movw	r30, r18
    25b0:	e5 5a       	subi	r30, 0xA5	; 165
    25b2:	f6 4c       	sbci	r31, 0xC6	; 198
    25b4:	60 81       	ld	r22, Z
    25b6:	71 81       	ldd	r23, Z+1	; 0x01
    25b8:	4c 91       	ld	r20, X
    25ba:	53 dd       	rcall	.-1370   	; 0x2062 <PrepareSending>
        }
        ++number;
    25bc:	df 5f       	subi	r29, 0xFF	; 255
    25be:	d0 93 05 39 	sts	0x3905, r29	; 0x803905 <number.3954>

        if (responseList == 0) {
    25c2:	c1 11       	cpse	r28, r1
    25c4:	0d c0       	rjmp	.+26     	; 0x25e0 <CheckResponse+0x84>
            effect = currObj.byteField[EFFECTS];
    25c6:	80 91 1f 3a 	lds	r24, 0x3A1F	; 0x803a1f <currObj+0x4>
    25ca:	90 e0       	ldi	r25, 0x00	; 0
    25cc:	80 93 3a 38 	sts	0x383A, r24	; 0x80383a <effect>
    25d0:	90 93 3b 38 	sts	0x383B, r25	; 0x80383b <effect+0x1>
            RXCNT = 0;
    25d4:	1d ba       	out	0x1d, r1	; 29
            serRxDone = 0;
    25d6:	10 92 44 38 	sts	0x3844, r1	; 0x803844 <serRxDone>
            number = 0;
    25da:	10 92 05 39 	sts	0x3905, r1	; 0x803905 <number.3954>
    25de:	01 c0       	rjmp	.+2      	; 0x25e2 <CheckResponse+0x86>
            return 0;
        }
        return 1;
    25e0:	c1 e0       	ldi	r28, 0x01	; 1
    }
    return 0;
}
    25e2:	8c 2f       	mov	r24, r28
    25e4:	df 91       	pop	r29
    25e6:	cf 91       	pop	r28
    25e8:	08 95       	ret

000025ea <CheckInput>:

//User input check (and validation)
uint8_t CheckInput(uint8_t *data){
    25ea:	3f 92       	push	r3
    25ec:	4f 92       	push	r4
    25ee:	5f 92       	push	r5
    25f0:	6f 92       	push	r6
    25f2:	7f 92       	push	r7
    25f4:	8f 92       	push	r8
    25f6:	9f 92       	push	r9
    25f8:	af 92       	push	r10
    25fa:	bf 92       	push	r11
    25fc:	cf 92       	push	r12
    25fe:	df 92       	push	r13
    2600:	ef 92       	push	r14
    2602:	ff 92       	push	r15
    2604:	0f 93       	push	r16
    2606:	1f 93       	push	r17
    2608:	cf 93       	push	r28
    260a:	df 93       	push	r29
    260c:	cd b7       	in	r28, 0x3d	; 61
    260e:	de b7       	in	r29, 0x3e	; 62
    2610:	a1 97       	sbiw	r28, 0x21	; 33
    2612:	cd bf       	out	0x3d, r28	; 61
    2614:	de bf       	out	0x3e, r29	; 62
    2616:	8c 01       	movw	r16, r24
    
    //Load game data after reboot
    if (currDepth == 0xff) {
    2618:	80 91 2c 38 	lds	r24, 0x382C	; 0x80382c <currDepth>
    261c:	8f 3f       	cpi	r24, 0xFF	; 255
    261e:	49 f4       	brne	.+18     	; 0x2632 <CheckInput+0x48>
        //Start at first location
        PopulateObject(route[0], &currObj);
    2620:	6b e1       	ldi	r22, 0x1B	; 27
    2622:	7a e3       	ldi	r23, 0x3A	; 58
    2624:	80 91 db 39 	lds	r24, 0x39DB	; 0x8039db <route>
    2628:	90 91 dc 39 	lds	r25, 0x39DC	; 0x8039dc <route+0x1>
    262c:	d3 dd       	rcall	.-1114   	; 0x21d4 <PopulateObject>
        currDepth = 0;
    262e:	10 92 2c 38 	sts	0x382C, r1	; 0x80382c <currDepth>
    }

    if (serRxDone){
    2632:	80 91 44 38 	lds	r24, 0x3844	; 0x803844 <serRxDone>
    2636:	88 23       	and	r24, r24
    2638:	09 f4       	brne	.+2      	; 0x263c <CheckInput+0x52>
    263a:	6e c2       	rjmp	.+1244   	; 0x2b18 <CheckInput+0x52e>

        //Special input requested from user by game
        if (specialInput[0]){
    263c:	80 91 0a 39 	lds	r24, 0x390A	; 0x80390a <specialInput>
    2640:	88 23       	and	r24, r24
    2642:	09 f4       	brne	.+2      	; 0x2646 <CheckInput+0x5c>
    2644:	57 c0       	rjmp	.+174    	; 0x26f4 <CheckInput+0x10a>
            specialPassed = 0;
    2646:	10 92 09 39 	sts	0x3909, r1	; 0x803909 <specialPassed>
            data[0] = 'a';
    264a:	81 e6       	ldi	r24, 0x61	; 97
    264c:	f8 01       	movw	r30, r16
    264e:	80 83       	st	Z, r24
            
            //Normal code challenge
            if (StartsWith((uint8_t *)&serRx[0], &specialInput[0])) {
    2650:	6a e0       	ldi	r22, 0x0A	; 10
    2652:	79 e3       	ldi	r23, 0x39	; 57
    2654:	85 e7       	ldi	r24, 0x75	; 117
    2656:	9a e3       	ldi	r25, 0x3A	; 58
    2658:	ea dc       	rcall	.-1580   	; 0x202e <StartsWith>
    265a:	f8 2e       	mov	r15, r24
    265c:	88 23       	and	r24, r24
    265e:	21 f0       	breq	.+8      	; 0x2668 <CheckInput+0x7e>
                specialPassed = 1;
    2660:	81 e0       	ldi	r24, 0x01	; 1
    2662:	80 93 09 39 	sts	0x3909, r24	; 0x803909 <specialPassed>
    2666:	04 c0       	rjmp	.+8      	; 0x2670 <CheckInput+0x86>
                //specialInput[0] = 0;
                //data[1] = 0;

            //Special challenge 1
            } else if ((specialInput[0] == '1')&&(specialInput[2] == 0)) {
    2668:	80 91 0a 39 	lds	r24, 0x390A	; 0x80390a <specialInput>
    266c:	81 33       	cpi	r24, 0x31	; 49
    266e:	11 f0       	breq	.+4      	; 0x2674 <CheckInput+0x8a>
                responseList = 32;
                return 1;
            }
        } 
        //Data received, but not any of the commands above
        return 0;
    2670:	f1 2c       	mov	r15, r1
    2672:	54 c2       	rjmp	.+1192   	; 0x2b1c <CheckInput+0x532>
                specialPassed = 1;
                //specialInput[0] = 0;
                //data[1] = 0;

            //Special challenge 1
            } else if ((specialInput[0] == '1')&&(specialInput[2] == 0)) {
    2674:	80 91 0c 39 	lds	r24, 0x390C	; 0x80390c <specialInput+0x2>
    2678:	81 11       	cpse	r24, r1
    267a:	fa cf       	rjmp	.-12     	; 0x2670 <CheckInput+0x86>
                uint8_t inputLen = CleanInput((uint8_t *)&serRx[0]);
    267c:	85 e7       	ldi	r24, 0x75	; 117
    267e:	9a e3       	ldi	r25, 0x3A	; 58
    2680:	dc de       	rcall	.-584    	; 0x243a <CleanInput>
                specialPassed = 2;
    2682:	92 e0       	ldi	r25, 0x02	; 2
    2684:	90 93 09 39 	sts	0x3909, r25	; 0x803909 <specialPassed>
                data[1] = 0;
    2688:	f8 01       	movw	r30, r16
    268a:	11 82       	std	Z+1, r1	; 0x01

                if (inputLen >= 2) {
    268c:	82 30       	cpi	r24, 0x02	; 2
    268e:	80 f3       	brcs	.-32     	; 0x2670 <CheckInput+0x86>
                    if ((serRx[0] == '1')||(serRx[0] == '2')||(serRx[0] == '3')||(serRx[0] == '4')) {
    2690:	80 91 75 3a 	lds	r24, 0x3A75	; 0x803a75 <serRx>
    2694:	81 33       	cpi	r24, 0x31	; 49
    2696:	61 f0       	breq	.+24     	; 0x26b0 <CheckInput+0xc6>
    2698:	80 91 75 3a 	lds	r24, 0x3A75	; 0x803a75 <serRx>
    269c:	82 33       	cpi	r24, 0x32	; 50
    269e:	41 f0       	breq	.+16     	; 0x26b0 <CheckInput+0xc6>
    26a0:	80 91 75 3a 	lds	r24, 0x3A75	; 0x803a75 <serRx>
    26a4:	83 33       	cpi	r24, 0x33	; 51
    26a6:	21 f0       	breq	.+8      	; 0x26b0 <CheckInput+0xc6>
    26a8:	80 91 75 3a 	lds	r24, 0x3A75	; 0x803a75 <serRx>
    26ac:	84 33       	cpi	r24, 0x34	; 52
    26ae:	01 f7       	brne	.-64     	; 0x2670 <CheckInput+0x86>
                        serRx[1] |= 0x20;
    26b0:	80 91 76 3a 	lds	r24, 0x3A76	; 0x803a76 <serRx+0x1>
    26b4:	80 62       	ori	r24, 0x20	; 32
    26b6:	80 93 76 3a 	sts	0x3A76, r24	; 0x803a76 <serRx+0x1>
                        if ((serRx[1] == 'a')||(serRx[1] == 'e')||(serRx[1] == 'f')||(serRx[1] == 'w')) {
    26ba:	80 91 76 3a 	lds	r24, 0x3A76	; 0x803a76 <serRx+0x1>
    26be:	81 36       	cpi	r24, 0x61	; 97
    26c0:	61 f0       	breq	.+24     	; 0x26da <CheckInput+0xf0>
    26c2:	80 91 76 3a 	lds	r24, 0x3A76	; 0x803a76 <serRx+0x1>
    26c6:	85 36       	cpi	r24, 0x65	; 101
    26c8:	41 f0       	breq	.+16     	; 0x26da <CheckInput+0xf0>
    26ca:	80 91 76 3a 	lds	r24, 0x3A76	; 0x803a76 <serRx+0x1>
    26ce:	86 36       	cpi	r24, 0x66	; 102
    26d0:	21 f0       	breq	.+8      	; 0x26da <CheckInput+0xf0>
    26d2:	80 91 76 3a 	lds	r24, 0x3A76	; 0x803a76 <serRx+0x1>
    26d6:	87 37       	cpi	r24, 0x77	; 119
    26d8:	59 f6       	brne	.-106    	; 0x2670 <CheckInput+0x86>
                            data[1] = specialInput[1]+0x11;
    26da:	80 91 0b 39 	lds	r24, 0x390B	; 0x80390b <specialInput+0x1>
    26de:	8f 5e       	subi	r24, 0xEF	; 239
    26e0:	f8 01       	movw	r30, r16
    26e2:	81 83       	std	Z+1, r24	; 0x01
                            data[2] = serRx[0];
    26e4:	80 91 75 3a 	lds	r24, 0x3A75	; 0x803a75 <serRx>
    26e8:	82 83       	std	Z+2, r24	; 0x02
                            data[3] = serRx[1];
    26ea:	80 91 76 3a 	lds	r24, 0x3A76	; 0x803a76 <serRx+0x1>
    26ee:	83 83       	std	Z+3, r24	; 0x03
                            data[4] = 0;
    26f0:	14 82       	std	Z+4, r1	; 0x04
    26f2:	14 c2       	rjmp	.+1064   	; 0x2b1c <CheckInput+0x532>
        
        //Normal input
        } else {

            //Change status bit
            if ((serRx[0] == '#')&&(RXCNT == 6)){
    26f4:	80 91 75 3a 	lds	r24, 0x3A75	; 0x803a75 <serRx>
    26f8:	83 32       	cpi	r24, 0x23	; 35
    26fa:	89 f5       	brne	.+98     	; 0x275e <CheckInput+0x174>
    26fc:	8d b3       	in	r24, 0x1d	; 29
    26fe:	86 30       	cpi	r24, 0x06	; 6
    2700:	71 f5       	brne	.+92     	; 0x275e <CheckInput+0x174>
    2702:	81 e0       	ldi	r24, 0x01	; 1
    2704:	90 e0       	ldi	r25, 0x00	; 0
    2706:	10 e0       	ldi	r17, 0x00	; 0
                uint8_t bitNr = 0;

                for (uint8_t x=1; x<4; ++x) {
                    serRx[x] -= '0';
    2708:	fc 01       	movw	r30, r24
    270a:	eb 58       	subi	r30, 0x8B	; 139
    270c:	f5 4c       	sbci	r31, 0xC5	; 197
    270e:	20 81       	ld	r18, Z
    2710:	20 53       	subi	r18, 0x30	; 48
    2712:	20 83       	st	Z, r18
                    bitNr *= 10;
    2714:	11 0f       	add	r17, r17
    2716:	21 2f       	mov	r18, r17
    2718:	22 0f       	add	r18, r18
    271a:	22 0f       	add	r18, r18
    271c:	12 0f       	add	r17, r18
                    if (serRx[1] > 2) break;
    271e:	20 91 76 3a 	lds	r18, 0x3A76	; 0x803a76 <serRx+0x1>
    2722:	23 30       	cpi	r18, 0x03	; 3
    2724:	48 f4       	brcc	.+18     	; 0x2738 <CheckInput+0x14e>
                    if (serRx[x] < 10) {
    2726:	20 81       	ld	r18, Z
    2728:	2a 30       	cpi	r18, 0x0A	; 10
    272a:	b8 f4       	brcc	.+46     	; 0x275a <CheckInput+0x170>
                        bitNr += serRx[x];
    272c:	20 81       	ld	r18, Z
    272e:	12 0f       	add	r17, r18
    2730:	01 96       	adiw	r24, 0x01	; 1

            //Change status bit
            if ((serRx[0] == '#')&&(RXCNT == 6)){
                uint8_t bitNr = 0;

                for (uint8_t x=1; x<4; ++x) {
    2732:	84 30       	cpi	r24, 0x04	; 4
    2734:	91 05       	cpc	r25, r1
    2736:	41 f7       	brne	.-48     	; 0x2708 <CheckInput+0x11e>
                        continue;
                    }
                    bitNr = 0;
                    break;
                }
                if ((bitNr)&&(bitNr!=128)) {
    2738:	81 2f       	mov	r24, r17
    273a:	8f 77       	andi	r24, 0x7F	; 127
    273c:	71 f0       	breq	.+28     	; 0x275a <CheckInput+0x170>
                    if (Cheat(0xff-bitNr, serRx[4]<<8|serRx[5])) UpdateState(bitNr);
    273e:	80 91 79 3a 	lds	r24, 0x3A79	; 0x803a79 <serRx+0x4>
    2742:	60 91 7a 3a 	lds	r22, 0x3A7A	; 0x803a7a <serRx+0x5>
    2746:	70 e0       	ldi	r23, 0x00	; 0
    2748:	78 2b       	or	r23, r24
    274a:	81 2f       	mov	r24, r17
    274c:	80 95       	com	r24
    274e:	cf db       	rcall	.-2146   	; 0x1eee <Cheat>
    2750:	88 23       	and	r24, r24
    2752:	19 f0       	breq	.+6      	; 0x275a <CheckInput+0x170>
    2754:	81 2f       	mov	r24, r17
    2756:	0e 94 59 0a 	call	0x14b2	; 0x14b2 <UpdateState>
                }
                responseList = SetStandardResponse(0);
    275a:	80 e0       	ldi	r24, 0x00	; 0
    275c:	50 c0       	rjmp	.+160    	; 0x27fe <CheckInput+0x214>
    275e:	d8 01       	movw	r26, r16
    2760:	80 e0       	ldi	r24, 0x00	; 0
    2762:	90 e0       	ldi	r25, 0x00	; 0
                return 1;            
            }
            
            //Read up to the \0 character and convert to lower case.
            for (uint8_t x=0; x<RXLEN; ++x){
                if ((serRx[x]<'A')||(serRx[x]>'Z')) data[x]=serRx[x]; else data[x]=serRx[x]|0x20;
    2764:	fc 01       	movw	r30, r24
    2766:	eb 58       	subi	r30, 0x8B	; 139
    2768:	f5 4c       	sbci	r31, 0xC5	; 197
    276a:	20 81       	ld	r18, Z
    276c:	21 34       	cpi	r18, 0x41	; 65
    276e:	18 f0       	brcs	.+6      	; 0x2776 <CheckInput+0x18c>
    2770:	20 81       	ld	r18, Z
    2772:	2b 35       	cpi	r18, 0x5B	; 91
    2774:	10 f0       	brcs	.+4      	; 0x277a <CheckInput+0x190>
    2776:	20 81       	ld	r18, Z
    2778:	02 c0       	rjmp	.+4      	; 0x277e <CheckInput+0x194>
    277a:	20 81       	ld	r18, Z
    277c:	20 62       	ori	r18, 0x20	; 32
    277e:	2c 93       	st	X, r18
                if (serRx[x] == 0) {
    2780:	20 81       	ld	r18, Z
    2782:	21 11       	cpse	r18, r1
    2784:	05 c0       	rjmp	.+10     	; 0x2790 <CheckInput+0x1a6>
                    data[x] = 0;
    2786:	f8 01       	movw	r30, r16
    2788:	e8 0f       	add	r30, r24
    278a:	f1 1d       	adc	r31, r1
    278c:	10 82       	st	Z, r1
                    break;
    278e:	05 c0       	rjmp	.+10     	; 0x279a <CheckInput+0x1b0>
    2790:	01 96       	adiw	r24, 0x01	; 1
    2792:	11 96       	adiw	r26, 0x01	; 1
                responseList = SetStandardResponse(0);
                return 1;            
            }
            
            //Read up to the \0 character and convert to lower case.
            for (uint8_t x=0; x<RXLEN; ++x){
    2794:	81 34       	cpi	r24, 0x41	; 65
    2796:	91 05       	cpc	r25, r1
    2798:	29 f7       	brne	.-54     	; 0x2764 <CheckInput+0x17a>
                    break;
                }
            }

            //No text
            if (serRx[0] == 0){
    279a:	80 91 75 3a 	lds	r24, 0x3A75	; 0x803a75 <serRx>
                data[0] = 0;
    279e:	f8 01       	movw	r30, r16
                    break;
                }
            }

            //No text
            if (serRx[0] == 0){
    27a0:	81 11       	cpse	r24, r1
    27a2:	05 c0       	rjmp	.+10     	; 0x27ae <CheckInput+0x1c4>
                data[0] = 0;
    27a4:	10 82       	st	Z, r1
                RXCNT = 0;
    27a6:	1d ba       	out	0x1d, r1	; 29
                serRxDone = 0;
    27a8:	10 92 44 38 	sts	0x3844, r1	; 0x803844 <serRxDone>
    27ac:	b5 c1       	rjmp	.+874    	; 0x2b18 <CheckInput+0x52e>
                return 1;
            }

            //Help text
            if ((data[0] == '?')||(data[0] == 'h')){
    27ae:	80 81       	ld	r24, Z
    27b0:	8f 33       	cpi	r24, 0x3F	; 63
    27b2:	11 f0       	breq	.+4      	; 0x27b8 <CheckInput+0x1ce>
    27b4:	88 36       	cpi	r24, 0x68	; 104
    27b6:	39 f5       	brne	.+78     	; 0x2806 <CheckInput+0x21c>
    return 0;
}

//
void SetResponse(uint8_t number, uint16_t address, uint16_t length, uint8_t type){
    reactStr[0][number]=address;
    27b8:	8b e5       	ldi	r24, 0x5B	; 91
    27ba:	9a e7       	ldi	r25, 0x7A	; 122
    27bc:	80 93 1b 39 	sts	0x391B, r24	; 0x80391b <reactStr>
    27c0:	90 93 1c 39 	sts	0x391C, r25	; 0x80391c <reactStr+0x1>
    reactStr[1][number]=length;
    27c4:	84 e0       	ldi	r24, 0x04	; 4
    27c6:	90 e0       	ldi	r25, 0x00	; 0
    27c8:	80 93 5b 39 	sts	0x395B, r24	; 0x80395b <reactStr+0x40>
    27cc:	90 93 5c 39 	sts	0x395C, r25	; 0x80395c <reactStr+0x41>
    reactStr[2][number]=type;
    27d0:	81 e0       	ldi	r24, 0x01	; 1
    27d2:	90 e0       	ldi	r25, 0x00	; 0
    27d4:	80 93 9b 39 	sts	0x399B, r24	; 0x80399b <reactStr+0x80>
    27d8:	90 93 9c 39 	sts	0x399C, r25	; 0x80399c <reactStr+0x81>
    return 0;
}

//
void SetResponse(uint8_t number, uint16_t address, uint16_t length, uint8_t type){
    reactStr[0][number]=address;
    27dc:	23 e9       	ldi	r18, 0x93	; 147
    27de:	3b e7       	ldi	r19, 0x7B	; 123
    27e0:	20 93 1d 39 	sts	0x391D, r18	; 0x80391d <reactStr+0x2>
    27e4:	30 93 1e 39 	sts	0x391E, r19	; 0x80391e <reactStr+0x3>
    reactStr[1][number]=length;
    27e8:	2d e6       	ldi	r18, 0x6D	; 109
    27ea:	34 e0       	ldi	r19, 0x04	; 4
    27ec:	20 93 5d 39 	sts	0x395D, r18	; 0x80395d <reactStr+0x42>
    27f0:	30 93 5e 39 	sts	0x395E, r19	; 0x80395e <reactStr+0x43>
    reactStr[2][number]=type;
    27f4:	80 93 9d 39 	sts	0x399D, r24	; 0x80399d <reactStr+0x82>
    27f8:	90 93 9e 39 	sts	0x399E, r25	; 0x80399e <reactStr+0x83>

            //Help text
            if ((data[0] == '?')||(data[0] == 'h')){
                SetResponse(0, A_LF, 4, TEASER);
                SetResponse(1, A_HELP, L_HELP, TEASER);
                responseList = SetStandardResponse(2);
    27fc:	82 e0       	ldi	r24, 0x02	; 2
    27fe:	6e dc       	rcall	.-1828   	; 0x20dc <SetStandardResponse>
    2800:	80 93 1a 39 	sts	0x391A, r24	; 0x80391a <responseList>
    2804:	89 c1       	rjmp	.+786    	; 0x2b18 <CheckInput+0x52e>
                return 1;
            }        
        
            //Alphabet text
            if (data[0] == 'a'){
    2806:	81 36       	cpi	r24, 0x61	; 97
    2808:	d9 f4       	brne	.+54     	; 0x2840 <CheckInput+0x256>
    return 0;
}

//
void SetResponse(uint8_t number, uint16_t address, uint16_t length, uint8_t type){
    reactStr[0][number]=address;
    280a:	8b e5       	ldi	r24, 0x5B	; 91
    280c:	9a e7       	ldi	r25, 0x7A	; 122
    280e:	80 93 1b 39 	sts	0x391B, r24	; 0x80391b <reactStr>
    2812:	90 93 1c 39 	sts	0x391C, r25	; 0x80391c <reactStr+0x1>
    reactStr[1][number]=length;
    2816:	84 e0       	ldi	r24, 0x04	; 4
    2818:	90 e0       	ldi	r25, 0x00	; 0
    281a:	80 93 5b 39 	sts	0x395B, r24	; 0x80395b <reactStr+0x40>
    281e:	90 93 5c 39 	sts	0x395C, r25	; 0x80395c <reactStr+0x41>
    reactStr[2][number]=type;
    2822:	81 e0       	ldi	r24, 0x01	; 1
    2824:	90 e0       	ldi	r25, 0x00	; 0
    2826:	80 93 9b 39 	sts	0x399B, r24	; 0x80399b <reactStr+0x80>
    282a:	90 93 9c 39 	sts	0x399C, r25	; 0x80399c <reactStr+0x81>
    return 0;
}

//
void SetResponse(uint8_t number, uint16_t address, uint16_t length, uint8_t type){
    reactStr[0][number]=address;
    282e:	2e e6       	ldi	r18, 0x6E	; 110
    2830:	3a e7       	ldi	r19, 0x7A	; 122
    2832:	20 93 1d 39 	sts	0x391D, r18	; 0x80391d <reactStr+0x2>
    2836:	30 93 1e 39 	sts	0x391E, r19	; 0x80391e <reactStr+0x3>
    reactStr[1][number]=length;
    283a:	25 e2       	ldi	r18, 0x25	; 37
    283c:	31 e0       	ldi	r19, 0x01	; 1
    283e:	d6 cf       	rjmp	.-84     	; 0x27ec <CheckInput+0x202>
                responseList = SetStandardResponse(2);
                return 1;
            }

            //Whoami text
            if (data[0] == 'w'){
    2840:	87 37       	cpi	r24, 0x77	; 119
    2842:	09 f0       	breq	.+2      	; 0x2846 <CheckInput+0x25c>
    2844:	6e c0       	rjmp	.+220    	; 0x2922 <CheckInput+0x338>
    return 0;
}

//
void SetResponse(uint8_t number, uint16_t address, uint16_t length, uint8_t type){
    reactStr[0][number]=address;
    2846:	8b e5       	ldi	r24, 0x5B	; 91
    2848:	9a e7       	ldi	r25, 0x7A	; 122
    284a:	80 93 1b 39 	sts	0x391B, r24	; 0x80391b <reactStr>
    284e:	90 93 1c 39 	sts	0x391C, r25	; 0x80391c <reactStr+0x1>
    reactStr[1][number]=length;
    2852:	84 e0       	ldi	r24, 0x04	; 4
    2854:	90 e0       	ldi	r25, 0x00	; 0
    2856:	80 93 5b 39 	sts	0x395B, r24	; 0x80395b <reactStr+0x40>
    285a:	90 93 5c 39 	sts	0x395C, r25	; 0x80395c <reactStr+0x41>
    reactStr[2][number]=type;
    285e:	21 e0       	ldi	r18, 0x01	; 1
    2860:	30 e0       	ldi	r19, 0x00	; 0
    2862:	20 93 9b 39 	sts	0x399B, r18	; 0x80399b <reactStr+0x80>
    2866:	30 93 9c 39 	sts	0x399C, r19	; 0x80399c <reactStr+0x81>
    return 0;
}

//
void SetResponse(uint8_t number, uint16_t address, uint16_t length, uint8_t type){
    reactStr[0][number]=address;
    286a:	8a ec       	ldi	r24, 0xCA	; 202
    286c:	96 e7       	ldi	r25, 0x76	; 118
    286e:	80 93 1d 39 	sts	0x391D, r24	; 0x80391d <reactStr+0x2>
    2872:	90 93 1e 39 	sts	0x391E, r25	; 0x80391e <reactStr+0x3>
    reactStr[1][number]=length;
    2876:	82 e1       	ldi	r24, 0x12	; 18
    2878:	90 e0       	ldi	r25, 0x00	; 0
    287a:	80 93 5d 39 	sts	0x395D, r24	; 0x80395d <reactStr+0x42>
    287e:	90 93 5e 39 	sts	0x395E, r25	; 0x80395e <reactStr+0x43>
    reactStr[2][number]=type;
    2882:	20 93 9d 39 	sts	0x399D, r18	; 0x80399d <reactStr+0x82>
    2886:	30 93 9e 39 	sts	0x399E, r19	; 0x80399e <reactStr+0x83>

            //Whoami text
            if (data[0] == 'w'){
                SetResponse(0, A_LF, 4, TEASER);
                SetResponse(1, A_HELLO, L_HELLO, TEASER);
                if (whoami == 1) {
    288a:	80 91 3d 38 	lds	r24, 0x383D	; 0x80383d <whoami>
    288e:	81 30       	cpi	r24, 0x01	; 1
    2890:	19 f4       	brne	.+6      	; 0x2898 <CheckInput+0x2ae>
    return 0;
}

//
void SetResponse(uint8_t number, uint16_t address, uint16_t length, uint8_t type){
    reactStr[0][number]=address;
    2892:	84 ec       	ldi	r24, 0xC4	; 196
    2894:	96 e7       	ldi	r25, 0x76	; 118
    2896:	0f c0       	rjmp	.+30     	; 0x28b6 <CheckInput+0x2cc>
            if (data[0] == 'w'){
                SetResponse(0, A_LF, 4, TEASER);
                SetResponse(1, A_HELLO, L_HELLO, TEASER);
                if (whoami == 1) {
                    SetResponse(2, A_ANUBIS, L_ANUBIS, TEASER);
                } else if (whoami == 2) {
    2898:	82 30       	cpi	r24, 0x02	; 2
    289a:	49 f4       	brne	.+18     	; 0x28ae <CheckInput+0x2c4>
    return 0;
}

//
void SetResponse(uint8_t number, uint16_t address, uint16_t length, uint8_t type){
    reactStr[0][number]=address;
    289c:	81 ec       	ldi	r24, 0xC1	; 193
    289e:	96 e7       	ldi	r25, 0x76	; 118
    28a0:	80 93 1f 39 	sts	0x391F, r24	; 0x80391f <reactStr+0x4>
    28a4:	90 93 20 39 	sts	0x3920, r25	; 0x803920 <reactStr+0x5>
    reactStr[1][number]=length;
    28a8:	83 e0       	ldi	r24, 0x03	; 3
    28aa:	90 e0       	ldi	r25, 0x00	; 0
    28ac:	1e c0       	rjmp	.+60     	; 0x28ea <CheckInput+0x300>
                SetResponse(1, A_HELLO, L_HELLO, TEASER);
                if (whoami == 1) {
                    SetResponse(2, A_ANUBIS, L_ANUBIS, TEASER);
                } else if (whoami == 2) {
                    SetResponse(2, A_BES, L_BES, TEASER);
                } else if (whoami == 3) {
    28ae:	83 30       	cpi	r24, 0x03	; 3
    28b0:	49 f4       	brne	.+18     	; 0x28c4 <CheckInput+0x2da>
    return 0;
}

//
void SetResponse(uint8_t number, uint16_t address, uint16_t length, uint8_t type){
    reactStr[0][number]=address;
    28b2:	8b eb       	ldi	r24, 0xBB	; 187
    28b4:	96 e7       	ldi	r25, 0x76	; 118
    28b6:	80 93 1f 39 	sts	0x391F, r24	; 0x80391f <reactStr+0x4>
    28ba:	90 93 20 39 	sts	0x3920, r25	; 0x803920 <reactStr+0x5>
    reactStr[1][number]=length;
    28be:	86 e0       	ldi	r24, 0x06	; 6
    28c0:	90 e0       	ldi	r25, 0x00	; 0
    28c2:	13 c0       	rjmp	.+38     	; 0x28ea <CheckInput+0x300>
                    SetResponse(2, A_ANUBIS, L_ANUBIS, TEASER);
                } else if (whoami == 2) {
                    SetResponse(2, A_BES, L_BES, TEASER);
                } else if (whoami == 3) {
                    SetResponse(2, A_KHONSU, L_KHONSU, TEASER);
                } else if (whoami == 4) {
    28c4:	84 30       	cpi	r24, 0x04	; 4
    28c6:	49 f4       	brne	.+18     	; 0x28da <CheckInput+0x2f0>
    return 0;
}

//
void SetResponse(uint8_t number, uint16_t address, uint16_t length, uint8_t type){
    reactStr[0][number]=address;
    28c8:	86 eb       	ldi	r24, 0xB6	; 182
    28ca:	96 e7       	ldi	r25, 0x76	; 118
    28cc:	80 93 1f 39 	sts	0x391F, r24	; 0x80391f <reactStr+0x4>
    28d0:	90 93 20 39 	sts	0x3920, r25	; 0x803920 <reactStr+0x5>
    reactStr[1][number]=length;
    28d4:	85 e0       	ldi	r24, 0x05	; 5
    28d6:	90 e0       	ldi	r25, 0x00	; 0
    28d8:	08 c0       	rjmp	.+16     	; 0x28ea <CheckInput+0x300>
    return 0;
}

//
void SetResponse(uint8_t number, uint16_t address, uint16_t length, uint8_t type){
    reactStr[0][number]=address;
    28da:	8f e3       	ldi	r24, 0x3F	; 63
    28dc:	96 e7       	ldi	r25, 0x76	; 118
    28de:	80 93 1f 39 	sts	0x391F, r24	; 0x80391f <reactStr+0x4>
    28e2:	90 93 20 39 	sts	0x3920, r25	; 0x803920 <reactStr+0x5>
    reactStr[1][number]=length;
    28e6:	82 e4       	ldi	r24, 0x42	; 66
    28e8:	90 e0       	ldi	r25, 0x00	; 0
    28ea:	80 93 5f 39 	sts	0x395F, r24	; 0x80395f <reactStr+0x44>
    28ee:	90 93 60 39 	sts	0x3960, r25	; 0x803960 <reactStr+0x45>
    reactStr[2][number]=type;
    28f2:	20 93 9f 39 	sts	0x399F, r18	; 0x80399f <reactStr+0x84>
    28f6:	30 93 a0 39 	sts	0x39A0, r19	; 0x8039a0 <reactStr+0x85>
    return 0;
}

//
void SetResponse(uint8_t number, uint16_t address, uint16_t length, uint8_t type){
    reactStr[0][number]=address;
    28fa:	8c e9       	ldi	r24, 0x9C	; 156
    28fc:	96 e7       	ldi	r25, 0x76	; 118
    28fe:	80 93 21 39 	sts	0x3921, r24	; 0x803921 <reactStr+0x6>
    2902:	90 93 22 39 	sts	0x3922, r25	; 0x803922 <reactStr+0x7>
    reactStr[1][number]=length;
    2906:	8a e1       	ldi	r24, 0x1A	; 26
    2908:	90 e0       	ldi	r25, 0x00	; 0
    290a:	80 93 61 39 	sts	0x3961, r24	; 0x803961 <reactStr+0x46>
    290e:	90 93 62 39 	sts	0x3962, r25	; 0x803962 <reactStr+0x47>
    reactStr[2][number]=type;
    2912:	81 e0       	ldi	r24, 0x01	; 1
    2914:	90 e0       	ldi	r25, 0x00	; 0
    2916:	80 93 a1 39 	sts	0x39A1, r24	; 0x8039a1 <reactStr+0x86>
    291a:	90 93 a2 39 	sts	0x39A2, r25	; 0x8039a2 <reactStr+0x87>
                    SetResponse(2, A_THOTH, L_THOTH, TEASER);
                } else {
                    SetResponse(2, A_ERROR, L_ERROR, TEASER);
                }
                SetResponse(3, A_PLEASED, L_PLEASED, TEASER);
                responseList = SetStandardResponse(4);
    291e:	84 e0       	ldi	r24, 0x04	; 4
    2920:	6e cf       	rjmp	.-292    	; 0x27fe <CheckInput+0x214>
                return 1;
            }

            //Quit text
            if (data[0] == 'q'){
    2922:	81 37       	cpi	r24, 0x71	; 113
    2924:	d9 f4       	brne	.+54     	; 0x295c <CheckInput+0x372>
    return 0;
}

//
void SetResponse(uint8_t number, uint16_t address, uint16_t length, uint8_t type){
    reactStr[0][number]=address;
    2926:	8b e5       	ldi	r24, 0x5B	; 91
    2928:	9a e7       	ldi	r25, 0x7A	; 122
    292a:	80 93 1b 39 	sts	0x391B, r24	; 0x80391b <reactStr>
    292e:	90 93 1c 39 	sts	0x391C, r25	; 0x80391c <reactStr+0x1>
    reactStr[1][number]=length;
    2932:	84 e0       	ldi	r24, 0x04	; 4
    2934:	90 e0       	ldi	r25, 0x00	; 0
    2936:	80 93 5b 39 	sts	0x395B, r24	; 0x80395b <reactStr+0x40>
    293a:	90 93 5c 39 	sts	0x395C, r25	; 0x80395c <reactStr+0x41>
    reactStr[2][number]=type;
    293e:	81 e0       	ldi	r24, 0x01	; 1
    2940:	90 e0       	ldi	r25, 0x00	; 0
    2942:	80 93 9b 39 	sts	0x399B, r24	; 0x80399b <reactStr+0x80>
    2946:	90 93 9c 39 	sts	0x399C, r25	; 0x80399c <reactStr+0x81>
    return 0;
}

//
void SetResponse(uint8_t number, uint16_t address, uint16_t length, uint8_t type){
    reactStr[0][number]=address;
    294a:	22 e0       	ldi	r18, 0x02	; 2
    294c:	3a e7       	ldi	r19, 0x7A	; 122
    294e:	20 93 1d 39 	sts	0x391D, r18	; 0x80391d <reactStr+0x2>
    2952:	30 93 1e 39 	sts	0x391E, r19	; 0x80391e <reactStr+0x3>
    reactStr[1][number]=length;
    2956:	25 e5       	ldi	r18, 0x55	; 85
    2958:	30 e0       	ldi	r19, 0x00	; 0
                responseList = SetStandardResponse(2);
                return 1;
            }

            //Fake cheat = reset badge!
            if (StartsWith(&data[0], "iddqd")){
    295a:	48 cf       	rjmp	.-368    	; 0x27ec <CheckInput+0x202>
    295c:	62 e9       	ldi	r22, 0x92	; 146
    295e:	7e eb       	ldi	r23, 0xBE	; 190
    2960:	c8 01       	movw	r24, r16
    2962:	65 db       	rcall	.-2358   	; 0x202e <StartsWith>
    2964:	88 23       	and	r24, r24
    2966:	f9 f0       	breq	.+62     	; 0x29a6 <CheckInput+0x3bc>
    2968:	1e e6       	ldi	r17, 0x6E	; 110
            
                //Reset game data by wiping the UUID bits
                for (uint8_t x=0; x<4; ++x){
                    WriteStatusBit(110+x, 0);
    296a:	60 e0       	ldi	r22, 0x00	; 0
    296c:	81 2f       	mov	r24, r17
    296e:	0e 94 3f 0a 	call	0x147e	; 0x147e <WriteStatusBit>
    2972:	1f 5f       	subi	r17, 0xFF	; 255

            //Fake cheat = reset badge!
            if (StartsWith(&data[0], "iddqd")){
            
                //Reset game data by wiping the UUID bits
                for (uint8_t x=0; x<4; ++x){
    2974:	12 37       	cpi	r17, 0x72	; 114
    2976:	c9 f7       	brne	.-14     	; 0x296a <CheckInput+0x380>
                    WriteStatusBit(110+x, 0);
                }
                SaveGameState();
    2978:	0e 94 b8 09 	call	0x1370	; 0x1370 <SaveGameState>

                uint8_t cheat[] = "Cheater! Contact badge team... ";
    297c:	80 e2       	ldi	r24, 0x20	; 32
    297e:	e5 ed       	ldi	r30, 0xD5	; 213
    2980:	fe eb       	ldi	r31, 0xBE	; 190
    2982:	de 01       	movw	r26, r28
    2984:	11 96       	adiw	r26, 0x01	; 1
    2986:	01 90       	ld	r0, Z+
    2988:	0d 92       	st	X+, r0
    298a:	8a 95       	dec	r24
    298c:	e1 f7       	brne	.-8      	; 0x2986 <CheckInput+0x39c>
                SerSpeed(60);
    298e:	8c e3       	ldi	r24, 0x3C	; 60
    2990:	0e 94 d8 08 	call	0x11b0	; 0x11b0 <SerSpeed>
                while(1){
                    if (serTxDone) SerSend(&cheat[0]);
    2994:	80 91 09 38 	lds	r24, 0x3809	; 0x803809 <serTxDone>
    2998:	88 23       	and	r24, r24
    299a:	e1 f3       	breq	.-8      	; 0x2994 <CheckInput+0x3aa>
    299c:	ce 01       	movw	r24, r28
    299e:	01 96       	adiw	r24, 0x01	; 1
    29a0:	0e 94 c7 08 	call	0x118e	; 0x118e <SerSend>
                }
            }
            
            //Cheat reset (Quote from: Donald E. Westlake)
            if (StartsWith(&data[0], "the trouble with real life is, there's no reset button")){
    29a4:	f7 cf       	rjmp	.-18     	; 0x2994 <CheckInput+0x3aa>
    29a6:	68 e9       	ldi	r22, 0x98	; 152
    29a8:	7e eb       	ldi	r23, 0xBE	; 190
    29aa:	c8 01       	movw	r24, r16
    29ac:	40 db       	rcall	.-2432   	; 0x202e <StartsWith>
    29ae:	88 23       	and	r24, r24
    29b0:	61 f1       	breq	.+88     	; 0x2a0a <CheckInput+0x420>
                
                //Reset cheat data by resetting the EEPROM bytes
                uint8_t empty=0xff;
    29b2:	8f ef       	ldi	r24, 0xFF	; 255
    29b4:	89 a3       	std	Y+33, r24	; 0x21
    29b6:	18 e1       	ldi	r17, 0x18	; 24
                for (uint8_t x=0; x<MAX_CHEATS; ++x){
                    EEWrite(CHEATS+x, &empty, 1);
    29b8:	41 e0       	ldi	r20, 0x01	; 1
    29ba:	be 01       	movw	r22, r28
    29bc:	6f 5d       	subi	r22, 0xDF	; 223
    29be:	7f 4f       	sbci	r23, 0xFF	; 255
    29c0:	81 2f       	mov	r24, r17
    29c2:	0e 94 9f 08 	call	0x113e	; 0x113e <EEWrite>
    29c6:	1f 5f       	subi	r17, 0xFF	; 255
            //Cheat reset (Quote from: Donald E. Westlake)
            if (StartsWith(&data[0], "the trouble with real life is, there's no reset button")){
                
                //Reset cheat data by resetting the EEPROM bytes
                uint8_t empty=0xff;
                for (uint8_t x=0; x<MAX_CHEATS; ++x){
    29c8:	10 32       	cpi	r17, 0x20	; 32
    29ca:	b1 f7       	brne	.-20     	; 0x29b8 <CheckInput+0x3ce>
    29cc:	1e e6       	ldi	r17, 0x6E	; 110
                    EEWrite(CHEATS+x, &empty, 1);
                }
                //Reset game data by wiping the UUID bits
                for (uint8_t x=0; x<4; ++x){
                    WriteStatusBit(110+x, 0);
    29ce:	60 e0       	ldi	r22, 0x00	; 0
    29d0:	81 2f       	mov	r24, r17
    29d2:	0e 94 3f 0a 	call	0x147e	; 0x147e <WriteStatusBit>
    29d6:	1f 5f       	subi	r17, 0xFF	; 255
                uint8_t empty=0xff;
                for (uint8_t x=0; x<MAX_CHEATS; ++x){
                    EEWrite(CHEATS+x, &empty, 1);
                }
                //Reset game data by wiping the UUID bits
                for (uint8_t x=0; x<4; ++x){
    29d8:	12 37       	cpi	r17, 0x72	; 114
    29da:	c9 f7       	brne	.-14     	; 0x29ce <CheckInput+0x3e4>
                    WriteStatusBit(110+x, 0);
                }
                
                SaveGameState();
    29dc:	0e 94 b8 09 	call	0x1370	; 0x1370 <SaveGameState>

                uint8_t cheat[] = "Reset please! ";
    29e0:	8f e0       	ldi	r24, 0x0F	; 15
    29e2:	e5 ef       	ldi	r30, 0xF5	; 245
    29e4:	fe eb       	ldi	r31, 0xBE	; 190
    29e6:	de 01       	movw	r26, r28
    29e8:	11 96       	adiw	r26, 0x01	; 1
    29ea:	01 90       	ld	r0, Z+
    29ec:	0d 92       	st	X+, r0
    29ee:	8a 95       	dec	r24
    29f0:	e1 f7       	brne	.-8      	; 0x29ea <CheckInput+0x400>
                SerSpeed(60);
    29f2:	8c e3       	ldi	r24, 0x3C	; 60
    29f4:	0e 94 d8 08 	call	0x11b0	; 0x11b0 <SerSpeed>
                while(1){
                    if (serTxDone) SerSend(&cheat[0]);
    29f8:	80 91 09 38 	lds	r24, 0x3809	; 0x803809 <serTxDone>
    29fc:	88 23       	and	r24, r24
    29fe:	e1 f3       	breq	.-8      	; 0x29f8 <CheckInput+0x40e>
    2a00:	ce 01       	movw	r24, r28
    2a02:	01 96       	adiw	r24, 0x01	; 1
    2a04:	0e 94 c7 08 	call	0x118e	; 0x118e <SerSend>
                }
            }
            if (StartsWith(&data[0], "cheat")){
    2a08:	f7 cf       	rjmp	.-18     	; 0x29f8 <CheckInput+0x40e>
    2a0a:	6f ec       	ldi	r22, 0xCF	; 207
    2a0c:	7e eb       	ldi	r23, 0xBE	; 190
    2a0e:	c8 01       	movw	r24, r16
    2a10:	0e db       	rcall	.-2532   	; 0x202e <StartsWith>
    2a12:	88 23       	and	r24, r24
    2a14:	09 f4       	brne	.+2      	; 0x2a18 <CheckInput+0x42e>
    2a16:	2c ce       	rjmp	.-936    	; 0x2670 <CheckInput+0x86>
    2a18:	8b e1       	ldi	r24, 0x1B	; 27
    2a1a:	c8 2e       	mov	r12, r24
    2a1c:	89 e3       	ldi	r24, 0x39	; 57
    2a1e:	d8 2e       	mov	r13, r24
    2a20:	9b e5       	ldi	r25, 0x5B	; 91
    2a22:	e9 2e       	mov	r14, r25
    2a24:	99 e3       	ldi	r25, 0x39	; 57
    2a26:	f9 2e       	mov	r15, r25
    2a28:	0b e9       	ldi	r16, 0x9B	; 155
    2a2a:	19 e3       	ldi	r17, 0x39	; 57
    2a2c:	28 e1       	ldi	r18, 0x18	; 24
    2a2e:	32 2e       	mov	r3, r18
    return 0;
}

//
void SetResponse(uint8_t number, uint16_t address, uint16_t length, uint8_t type){
    reactStr[0][number]=address;
    2a30:	3a ed       	ldi	r19, 0xDA	; 218
    2a32:	63 2e       	mov	r6, r19
    2a34:	34 e7       	ldi	r19, 0x74	; 116
    2a36:	73 2e       	mov	r7, r19
    reactStr[1][number]=length;
    2a38:	42 e0       	ldi	r20, 0x02	; 2
    2a3a:	84 2e       	mov	r8, r20
    2a3c:	91 2c       	mov	r9, r1
    reactStr[2][number]=type;
    2a3e:	aa 24       	eor	r10, r10
    2a40:	a3 94       	inc	r10
    2a42:	b1 2c       	mov	r11, r1
    return 0;
}

//
void SetResponse(uint8_t number, uint16_t address, uint16_t length, uint8_t type){
    reactStr[0][number]=address;
    2a44:	69 e5       	ldi	r22, 0x59	; 89
    2a46:	46 2e       	mov	r4, r22
    2a48:	6a e7       	ldi	r22, 0x7A	; 122
    2a4a:	56 2e       	mov	r5, r22
                uint8_t bit, digit[3];

                for (uint8_t x=0; x<MAX_CHEATS; ++x){
                    
                    //Set up sending out number
                    EERead(CHEATS+x, &bit, 1);
    2a4c:	41 e0       	ldi	r20, 0x01	; 1
    2a4e:	be 01       	movw	r22, r28
    2a50:	6f 5d       	subi	r22, 0xDF	; 223
    2a52:	7f 4f       	sbci	r23, 0xFF	; 255
    2a54:	83 2d       	mov	r24, r3
    2a56:	0e 94 8f 08 	call	0x111e	; 0x111e <EERead>
                    bit = 0xff-bit;
    2a5a:	89 a1       	ldd	r24, Y+33	; 0x21
    2a5c:	80 95       	com	r24
    2a5e:	89 a3       	std	Y+33, r24	; 0x21
    return 0;
}

//
void SetResponse(uint8_t number, uint16_t address, uint16_t length, uint8_t type){
    reactStr[0][number]=address;
    2a60:	f6 01       	movw	r30, r12
    2a62:	60 82       	st	Z, r6
    2a64:	71 82       	std	Z+1, r7	; 0x01
    reactStr[1][number]=length;
    2a66:	f7 01       	movw	r30, r14
    2a68:	80 82       	st	Z, r8
    2a6a:	91 82       	std	Z+1, r9	; 0x01
    reactStr[2][number]=type;
    2a6c:	f8 01       	movw	r30, r16
    2a6e:	a0 82       	st	Z, r10
    2a70:	b1 82       	std	Z+1, r11	; 0x01
                    for (n=0; n<3; ++n) {
                        SetResponse(x*4+n, A_DIGITS+digit[n], 1, TEASER);
                    } 
                    */
                    SetResponse(x*4, A_HEXPREFIX, L_HEXPREFIX, TEASER);
                    SetResponse(x*4+1, A_DIGITS+digit[bit>>4], 1, TEASER);               
    2a72:	98 2f       	mov	r25, r24
    2a74:	92 95       	swap	r25
    2a76:	9f 70       	andi	r25, 0x0F	; 15
    2a78:	e1 e0       	ldi	r30, 0x01	; 1
    2a7a:	f0 e0       	ldi	r31, 0x00	; 0
    2a7c:	ec 0f       	add	r30, r28
    2a7e:	fd 1f       	adc	r31, r29
    2a80:	e9 0f       	add	r30, r25
    2a82:	f1 1d       	adc	r31, r1
    return 0;
}

//
void SetResponse(uint8_t number, uint16_t address, uint16_t length, uint8_t type){
    reactStr[0][number]=address;
    2a84:	20 81       	ld	r18, Z
    2a86:	30 e0       	ldi	r19, 0x00	; 0
    2a88:	26 53       	subi	r18, 0x36	; 54
    2a8a:	3b 48       	sbci	r19, 0x8B	; 139
    2a8c:	f6 01       	movw	r30, r12
    2a8e:	22 83       	std	Z+2, r18	; 0x02
    2a90:	33 83       	std	Z+3, r19	; 0x03
    reactStr[1][number]=length;
    2a92:	f7 01       	movw	r30, r14
    2a94:	a2 82       	std	Z+2, r10	; 0x02
    2a96:	b3 82       	std	Z+3, r11	; 0x03
    reactStr[2][number]=type;
    2a98:	f8 01       	movw	r30, r16
    2a9a:	a2 82       	std	Z+2, r10	; 0x02
    2a9c:	b3 82       	std	Z+3, r11	; 0x03
                        SetResponse(x*4+n, A_DIGITS+digit[n], 1, TEASER);
                    } 
                    */
                    SetResponse(x*4, A_HEXPREFIX, L_HEXPREFIX, TEASER);
                    SetResponse(x*4+1, A_DIGITS+digit[bit>>4], 1, TEASER);               
                    SetResponse(x*4+2, A_DIGITS+digit[bit%16], 1, TEASER);
    2a9e:	8f 70       	andi	r24, 0x0F	; 15
    2aa0:	e1 e0       	ldi	r30, 0x01	; 1
    2aa2:	f0 e0       	ldi	r31, 0x00	; 0
    2aa4:	ec 0f       	add	r30, r28
    2aa6:	fd 1f       	adc	r31, r29
    2aa8:	e8 0f       	add	r30, r24
    2aaa:	f1 1d       	adc	r31, r1
    return 0;
}

//
void SetResponse(uint8_t number, uint16_t address, uint16_t length, uint8_t type){
    reactStr[0][number]=address;
    2aac:	80 81       	ld	r24, Z
    2aae:	90 e0       	ldi	r25, 0x00	; 0
    2ab0:	86 53       	subi	r24, 0x36	; 54
    2ab2:	9b 48       	sbci	r25, 0x8B	; 139
    2ab4:	f6 01       	movw	r30, r12
    2ab6:	84 83       	std	Z+4, r24	; 0x04
    2ab8:	95 83       	std	Z+5, r25	; 0x05
    reactStr[1][number]=length;
    2aba:	f7 01       	movw	r30, r14
    2abc:	a4 82       	std	Z+4, r10	; 0x04
    2abe:	b5 82       	std	Z+5, r11	; 0x05
    reactStr[2][number]=type;
    2ac0:	f8 01       	movw	r30, r16
    2ac2:	a4 82       	std	Z+4, r10	; 0x04
    2ac4:	b5 82       	std	Z+5, r11	; 0x05
    return 0;
}

//
void SetResponse(uint8_t number, uint16_t address, uint16_t length, uint8_t type){
    reactStr[0][number]=address;
    2ac6:	f6 01       	movw	r30, r12
    2ac8:	46 82       	std	Z+6, r4	; 0x06
    2aca:	57 82       	std	Z+7, r5	; 0x07
    reactStr[1][number]=length;
    2acc:	f7 01       	movw	r30, r14
    2ace:	86 82       	std	Z+6, r8	; 0x06
    2ad0:	97 82       	std	Z+7, r9	; 0x07
    reactStr[2][number]=type;
    2ad2:	f8 01       	movw	r30, r16
    2ad4:	a6 82       	std	Z+6, r10	; 0x06
    2ad6:	b7 82       	std	Z+7, r11	; 0x07
    2ad8:	33 94       	inc	r3
    2ada:	f8 e0       	ldi	r31, 0x08	; 8
    2adc:	cf 0e       	add	r12, r31
    2ade:	d1 1c       	adc	r13, r1
    2ae0:	88 e0       	ldi	r24, 0x08	; 8
    2ae2:	e8 0e       	add	r14, r24
    2ae4:	f1 1c       	adc	r15, r1
    2ae6:	08 5f       	subi	r16, 0xF8	; 248
    2ae8:	1f 4f       	sbci	r17, 0xFF	; 255
            }
            if (StartsWith(&data[0], "cheat")){
                //int8_t n;
                uint8_t bit, digit[3];

                for (uint8_t x=0; x<MAX_CHEATS; ++x){
    2aea:	e0 e2       	ldi	r30, 0x20	; 32
    2aec:	3e 12       	cpse	r3, r30
    2aee:	ae cf       	rjmp	.-164    	; 0x2a4c <CheckInput+0x462>
    return 0;
}

//
void SetResponse(uint8_t number, uint16_t address, uint16_t length, uint8_t type){
    reactStr[0][number]=address;
    2af0:	8b e5       	ldi	r24, 0x5B	; 91
    2af2:	9a e7       	ldi	r25, 0x7A	; 122
    2af4:	80 93 59 39 	sts	0x3959, r24	; 0x803959 <reactStr+0x3e>
    2af8:	90 93 5a 39 	sts	0x395A, r25	; 0x80395a <reactStr+0x3f>
    reactStr[1][number]=length;
    2afc:	84 e0       	ldi	r24, 0x04	; 4
    2afe:	90 e0       	ldi	r25, 0x00	; 0
    2b00:	80 93 99 39 	sts	0x3999, r24	; 0x803999 <reactStr+0x7e>
    2b04:	90 93 9a 39 	sts	0x399A, r25	; 0x80399a <reactStr+0x7f>
    reactStr[2][number]=type;
    2b08:	81 e0       	ldi	r24, 0x01	; 1
    2b0a:	90 e0       	ldi	r25, 0x00	; 0
    2b0c:	80 93 d9 39 	sts	0x39D9, r24	; 0x8039d9 <reactStr+0xbe>
    2b10:	90 93 da 39 	sts	0x39DA, r25	; 0x8039da <reactStr+0xbf>
                    SetResponse(x*4+1, A_DIGITS+digit[bit>>4], 1, TEASER);               
                    SetResponse(x*4+2, A_DIGITS+digit[bit%16], 1, TEASER);
                    SetResponse(x*4+3, A_COMMA, L_COMMA, TEASER);
                }
                SetResponse((4*MAX_CHEATS)-1, A_LF, 4, TEASER);
                responseList = 32;
    2b14:	30 92 1a 39 	sts	0x391A, r3	; 0x80391a <responseList>
        //Data received, but not any of the commands above
        return 0;
    }

    //Serial input not available yet
    return 1;
    2b18:	ff 24       	eor	r15, r15
    2b1a:	f3 94       	inc	r15
}
    2b1c:	8f 2d       	mov	r24, r15
    2b1e:	a1 96       	adiw	r28, 0x21	; 33
    2b20:	cd bf       	out	0x3d, r28	; 61
    2b22:	de bf       	out	0x3e, r29	; 62
    2b24:	df 91       	pop	r29
    2b26:	cf 91       	pop	r28
    2b28:	1f 91       	pop	r17
    2b2a:	0f 91       	pop	r16
    2b2c:	ff 90       	pop	r15
    2b2e:	ef 90       	pop	r14
    2b30:	df 90       	pop	r13
    2b32:	cf 90       	pop	r12
    2b34:	bf 90       	pop	r11
    2b36:	af 90       	pop	r10
    2b38:	9f 90       	pop	r9
    2b3a:	8f 90       	pop	r8
    2b3c:	7f 90       	pop	r7
    2b3e:	6f 90       	pop	r6
    2b40:	5f 90       	pop	r5
    2b42:	4f 90       	pop	r4
    2b44:	3f 90       	pop	r3
    2b46:	08 95       	ret

00002b48 <ProcessInput>:

//The game logic!
uint8_t ProcessInput(uint8_t *data){
    2b48:	5f 92       	push	r5
    2b4a:	6f 92       	push	r6
    2b4c:	7f 92       	push	r7
    2b4e:	8f 92       	push	r8
    2b50:	9f 92       	push	r9
    2b52:	af 92       	push	r10
    2b54:	bf 92       	push	r11
    2b56:	cf 92       	push	r12
    2b58:	df 92       	push	r13
    2b5a:	ef 92       	push	r14
    2b5c:	ff 92       	push	r15
    2b5e:	0f 93       	push	r16
    2b60:	1f 93       	push	r17
    2b62:	cf 93       	push	r28
    2b64:	df 93       	push	r29
    2b66:	cd b7       	in	r28, 0x3d	; 61
    2b68:	de b7       	in	r29, 0x3e	; 62
    2b6a:	28 97       	sbiw	r28, 0x08	; 8
    2b6c:	cd bf       	out	0x3d, r28	; 61
    2b6e:	de bf       	out	0x3e, r29	; 62
    2b70:	8c 01       	movw	r16, r24
    static object_model_t actObj1, actObj2;
    uint8_t elements = 1;

    CleanInput(&data[0]);
    2b72:	63 dc       	rcall	.-1850   	; 0x243a <CleanInput>
    uint8_t inputLen = CleanInput(&data[0]);
    2b74:	c8 01       	movw	r24, r16
    2b76:	61 dc       	rcall	.-1854   	; 0x243a <CleanInput>
    2b78:	f8 2e       	mov	r15, r24

    if (inputLen) {
    2b7a:	88 23       	and	r24, r24
    2b7c:	09 f4       	brne	.+2      	; 0x2b80 <ProcessInput+0x38>
    2b7e:	fc c7       	rjmp	.+4088   	; 0x3b78 <ProcessInput+0x1030>

        //eXit to previous location
        if (data[0] == 'x'){
    2b80:	d8 01       	movw	r26, r16
    2b82:	8c 91       	ld	r24, X
    2b84:	88 37       	cpi	r24, 0x78	; 120
    2b86:	09 f0       	breq	.+2      	; 0x2b8a <ProcessInput+0x42>
    2b88:	45 c0       	rjmp	.+138    	; 0x2c14 <ProcessInput+0xcc>

            //Standing in the Lobby?
            if ((route[currDepth] == 0)||(currDepth == 0)){
    2b8a:	80 91 2c 38 	lds	r24, 0x382C	; 0x80382c <currDepth>
    2b8e:	e8 2f       	mov	r30, r24
    2b90:	f0 e0       	ldi	r31, 0x00	; 0
    2b92:	ee 0f       	add	r30, r30
    2b94:	ff 1f       	adc	r31, r31
    2b96:	e5 52       	subi	r30, 0x25	; 37
    2b98:	f6 4c       	sbci	r31, 0xC6	; 198
    2b9a:	20 81       	ld	r18, Z
    2b9c:	31 81       	ldd	r19, Z+1	; 0x01
    2b9e:	23 2b       	or	r18, r19
    2ba0:	11 f0       	breq	.+4      	; 0x2ba6 <ProcessInput+0x5e>
    2ba2:	81 11       	cpse	r24, r1
    2ba4:	03 c0       	rjmp	.+6      	; 0x2bac <ProcessInput+0x64>
    return 0;
}

//
void SetResponse(uint8_t number, uint16_t address, uint16_t length, uint8_t type){
    reactStr[0][number]=address;
    2ba6:	81 e8       	ldi	r24, 0x81	; 129
    2ba8:	96 e7       	ldi	r25, 0x76	; 118
    2baa:	a1 c5       	rjmp	.+2882   	; 0x36ee <ProcessInput+0xba6>
            //Standing in the Lobby?
            if ((route[currDepth] == 0)||(currDepth == 0)){
                SetResponse(elements++, A_NOTPOSSIBLE, L_NOTPOSSIBLE, TEASER);
            
            //Is there a way to go back?
            } else if (CheckState(currObj.byteField[OPEN_ACL])){
    2bac:	80 91 21 3a 	lds	r24, 0x3A21	; 0x803a21 <currObj+0x6>
    2bb0:	0e 94 63 0a 	call	0x14c6	; 0x14c6 <CheckState>
    2bb4:	88 23       	and	r24, r24
    2bb6:	b9 f0       	breq	.+46     	; 0x2be6 <ProcessInput+0x9e>
                --currDepth;
    2bb8:	e0 91 2c 38 	lds	r30, 0x382C	; 0x80382c <currDepth>
    2bbc:	e1 50       	subi	r30, 0x01	; 1
    2bbe:	e0 93 2c 38 	sts	0x382C, r30	; 0x80382c <currDepth>
                PopulateObject(route[currDepth], &currObj);
    2bc2:	f0 e0       	ldi	r31, 0x00	; 0
    2bc4:	ee 0f       	add	r30, r30
    2bc6:	ff 1f       	adc	r31, r31
    2bc8:	e5 52       	subi	r30, 0x25	; 37
    2bca:	f6 4c       	sbci	r31, 0xC6	; 198
    2bcc:	6b e1       	ldi	r22, 0x1B	; 27
    2bce:	7a e3       	ldi	r23, 0x3A	; 58
    2bd0:	80 81       	ld	r24, Z
    2bd2:	91 81       	ldd	r25, Z+1	; 0x01
    2bd4:	ff da       	rcall	.-2562   	; 0x21d4 <PopulateObject>
                effect = currObj.byteField[EFFECTS];
    2bd6:	80 91 1f 3a 	lds	r24, 0x3A1F	; 0x803a1f <currObj+0x4>
    2bda:	90 e0       	ldi	r25, 0x00	; 0
    2bdc:	80 93 3a 38 	sts	0x383A, r24	; 0x80383a <effect>
    2be0:	90 93 3b 38 	sts	0x383B, r25	; 0x80383b <effect+0x1>
    2be4:	31 c2       	rjmp	.+1122   	; 0x3048 <ProcessInput+0x500>
            
            //No way out, print denied message of location
            } else {
                SetResponse(elements++, currObj.addrStr[OPEN_ACL_MSG], currObj.lenStr[OPEN_ACL_MSG], GAME);
    2be6:	80 91 3d 3a 	lds	r24, 0x3A3D	; 0x803a3d <currObj+0x22>
    2bea:	90 91 3e 3a 	lds	r25, 0x3A3E	; 0x803a3e <currObj+0x23>
    return 0;
}

//
void SetResponse(uint8_t number, uint16_t address, uint16_t length, uint8_t type){
    reactStr[0][number]=address;
    2bee:	20 91 2f 3a 	lds	r18, 0x3A2F	; 0x803a2f <currObj+0x14>
    2bf2:	30 91 30 3a 	lds	r19, 0x3A30	; 0x803a30 <currObj+0x15>
    2bf6:	20 93 1d 39 	sts	0x391D, r18	; 0x80391d <reactStr+0x2>
    2bfa:	30 93 1e 39 	sts	0x391E, r19	; 0x80391e <reactStr+0x3>
    reactStr[1][number]=length;
    2bfe:	80 93 5d 39 	sts	0x395D, r24	; 0x80395d <reactStr+0x42>
    2c02:	90 93 5e 39 	sts	0x395E, r25	; 0x80395e <reactStr+0x43>
    reactStr[2][number]=type;
    2c06:	10 92 9d 39 	sts	0x399D, r1	; 0x80399d <reactStr+0x82>
    2c0a:	10 92 9e 39 	sts	0x399E, r1	; 0x80399e <reactStr+0x83>
                effect = currObj.byteField[EFFECTS];
            
            //No way out, print denied message of location
            } else {
                SetResponse(elements++, currObj.addrStr[OPEN_ACL_MSG], currObj.lenStr[OPEN_ACL_MSG], GAME);
                effect = currObj.effect[0];               
    2c0e:	80 91 43 3a 	lds	r24, 0x3A43	; 0x803a43 <currObj+0x28>
    2c12:	3a c6       	rjmp	.+3188   	; 0x3888 <ProcessInput+0xd40>
            }   
        
        //Enter locations or Open objects    
        } else if ((data[0] == 'e')||(data[0] == 'o')) {
    2c14:	85 36       	cpi	r24, 0x65	; 101
    2c16:	19 f0       	breq	.+6      	; 0x2c1e <ProcessInput+0xd6>
    2c18:	8f 36       	cpi	r24, 0x6F	; 111
    2c1a:	09 f0       	breq	.+2      	; 0x2c1e <ProcessInput+0xd6>
    2c1c:	df c0       	rjmp	.+446    	; 0x2ddc <ProcessInput+0x294>
                
            //Not possible, too many/little characters
            if (inputLen != 2){
    2c1e:	b2 e0       	ldi	r27, 0x02	; 2
    2c20:	fb 12       	cpse	r15, r27
    2c22:	c1 cf       	rjmp	.-126    	; 0x2ba6 <ProcessInput+0x5e>
                SetResponse(elements++, A_NOTPOSSIBLE, L_NOTPOSSIBLE, TEASER);
            } else {
                uint8_t canDo = 0;
                route[currDepth+1] = FindChild(route[currDepth], data[1], 0);
    2c24:	e0 90 2c 38 	lds	r14, 0x382C	; 0x80382c <currDepth>
    2c28:	f1 2c       	mov	r15, r1
    2c2a:	f7 01       	movw	r30, r14
    2c2c:	ee 0f       	add	r30, r30
    2c2e:	ff 1f       	adc	r31, r31
    2c30:	e5 52       	subi	r30, 0x25	; 37
    2c32:	f6 4c       	sbci	r31, 0xC6	; 198
    2c34:	40 e0       	ldi	r20, 0x00	; 0
    2c36:	50 e0       	ldi	r21, 0x00	; 0
    2c38:	d8 01       	movw	r26, r16
    2c3a:	11 96       	adiw	r26, 0x01	; 1
    2c3c:	6c 91       	ld	r22, X
    2c3e:	80 81       	ld	r24, Z
    2c40:	91 81       	ldd	r25, Z+1	; 0x01
    2c42:	93 db       	rcall	.-2266   	; 0x236a <FindChild>
    2c44:	f7 01       	movw	r30, r14
    2c46:	ee 0f       	add	r30, r30
    2c48:	ff 1f       	adc	r31, r31
    2c4a:	e3 52       	subi	r30, 0x23	; 35
    2c4c:	f6 4c       	sbci	r31, 0xC6	; 198
    2c4e:	80 83       	st	Z, r24
    2c50:	91 83       	std	Z+1, r25	; 0x01
                    
                //Child found?
                if (route[currDepth+1]) {
    2c52:	90 91 2c 38 	lds	r25, 0x382C	; 0x80382c <currDepth>
    2c56:	29 2f       	mov	r18, r25
    2c58:	30 e0       	ldi	r19, 0x00	; 0
    2c5a:	f9 01       	movw	r30, r18
    2c5c:	ee 0f       	add	r30, r30
    2c5e:	ff 1f       	adc	r31, r31
    2c60:	e3 52       	subi	r30, 0x23	; 35
    2c62:	f6 4c       	sbci	r31, 0xC6	; 198
    2c64:	40 81       	ld	r20, Z
    2c66:	51 81       	ldd	r21, Z+1	; 0x01
    2c68:	41 15       	cp	r20, r1
    2c6a:	51 05       	cpc	r21, r1
    2c6c:	21 f0       	breq	.+8      	; 0x2c76 <ProcessInput+0x12e>
                    PopulateObject(route[currDepth+1], &actObj1);
    2c6e:	6a ed       	ldi	r22, 0xDA	; 218
    2c70:	78 e3       	ldi	r23, 0x38	; 56
    2c72:	ca 01       	movw	r24, r20
    2c74:	1c c0       	rjmp	.+56     	; 0x2cae <ProcessInput+0x166>
                    canDo = 1;
                //No child, maybe a step back, letter ok?
                } else if (currDepth) {
    2c76:	99 23       	and	r25, r25
    2c78:	09 f4       	brne	.+2      	; 0x2c7c <ProcessInput+0x134>
    2c7a:	95 c7       	rjmp	.+3882   	; 0x3ba6 <ProcessInput+0x105e>
                    if (CheckLetter(route[currDepth-1], data[1])) {
    2c7c:	22 0f       	add	r18, r18
    2c7e:	33 1f       	adc	r19, r19
    2c80:	f9 01       	movw	r30, r18
    2c82:	e7 52       	subi	r30, 0x27	; 39
    2c84:	f6 4c       	sbci	r31, 0xC6	; 198
    2c86:	d8 01       	movw	r26, r16
    2c88:	11 96       	adiw	r26, 0x01	; 1
    2c8a:	6c 91       	ld	r22, X
    2c8c:	80 81       	ld	r24, Z
    2c8e:	91 81       	ldd	r25, Z+1	; 0x01
    2c90:	18 db       	rcall	.-2512   	; 0x22c2 <CheckLetter>
    2c92:	88 23       	and	r24, r24
    2c94:	09 f4       	brne	.+2      	; 0x2c98 <ProcessInput+0x150>
    2c96:	87 c7       	rjmp	.+3854   	; 0x3ba6 <ProcessInput+0x105e>
                        PopulateObject(route[currDepth-1], &actObj1);
    2c98:	e0 91 2c 38 	lds	r30, 0x382C	; 0x80382c <currDepth>
    2c9c:	f0 e0       	ldi	r31, 0x00	; 0
    2c9e:	ee 0f       	add	r30, r30
    2ca0:	ff 1f       	adc	r31, r31
    2ca2:	e7 52       	subi	r30, 0x27	; 39
    2ca4:	f6 4c       	sbci	r31, 0xC6	; 198
    2ca6:	6a ed       	ldi	r22, 0xDA	; 218
    2ca8:	78 e3       	ldi	r23, 0x38	; 56
    2caa:	80 81       	ld	r24, Z
    2cac:	91 81       	ldd	r25, Z+1	; 0x01
    2cae:	92 da       	rcall	.-2780   	; 0x21d4 <PopulateObject>
                    }
                }

                //The candidate is found! Let's check if the action is legit
                if (canDo) {
                    if ((data[0] == 'e') && ((actObj1.byteField[ACTION_MASK]&ENTER)==0)) {
    2cb0:	f8 01       	movw	r30, r16
    2cb2:	80 81       	ld	r24, Z
    2cb4:	85 36       	cpi	r24, 0x65	; 101
    2cb6:	c9 f4       	brne	.+50     	; 0x2cea <ProcessInput+0x1a2>
    2cb8:	80 91 e2 38 	lds	r24, 0x38E2	; 0x8038e2 <actObj1.3995+0x8>
    2cbc:	80 fd       	sbrc	r24, 0
    2cbe:	1e c0       	rjmp	.+60     	; 0x2cfc <ProcessInput+0x1b4>
    return 0;
}

//
void SetResponse(uint8_t number, uint16_t address, uint16_t length, uint8_t type){
    reactStr[0][number]=address;
    2cc0:	8f e9       	ldi	r24, 0x9F	; 159
    2cc2:	99 e7       	ldi	r25, 0x79	; 121
    2cc4:	80 93 1d 39 	sts	0x391D, r24	; 0x80391d <reactStr+0x2>
    2cc8:	90 93 1e 39 	sts	0x391E, r25	; 0x80391e <reactStr+0x3>
    reactStr[1][number]=length;
    2ccc:	8e e1       	ldi	r24, 0x1E	; 30
    2cce:	90 e0       	ldi	r25, 0x00	; 0
    2cd0:	80 93 5d 39 	sts	0x395D, r24	; 0x80395d <reactStr+0x42>
    2cd4:	90 93 5e 39 	sts	0x395E, r25	; 0x80395e <reactStr+0x43>
    reactStr[2][number]=type;
    2cd8:	81 e0       	ldi	r24, 0x01	; 1
    2cda:	90 e0       	ldi	r25, 0x00	; 0
    2cdc:	80 93 9d 39 	sts	0x399D, r24	; 0x80399d <reactStr+0x82>
    2ce0:	90 93 9e 39 	sts	0x399E, r25	; 0x80399e <reactStr+0x83>
                }

                //The candidate is found! Let's check if the action is legit
                if (canDo) {
                    if ((data[0] == 'e') && ((actObj1.byteField[ACTION_MASK]&ENTER)==0)) {
                        SetResponse(elements++, A_CANTENTER, L_CANTENTER, TEASER);
    2ce4:	72 e0       	ldi	r23, 0x02	; 2
    2ce6:	77 2e       	mov	r7, r23
    2ce8:	2c c7       	rjmp	.+3672   	; 0x3b42 <ProcessInput+0xffa>
                    } else if ((data[0] == 'o') && ((actObj1.byteField[ACTION_MASK]&OPEN)==0)) {
    2cea:	8f 36       	cpi	r24, 0x6F	; 111
    2cec:	39 f4       	brne	.+14     	; 0x2cfc <ProcessInput+0x1b4>
    2cee:	80 91 e2 38 	lds	r24, 0x38E2	; 0x8038e2 <actObj1.3995+0x8>
    2cf2:	81 fd       	sbrc	r24, 1
    2cf4:	03 c0       	rjmp	.+6      	; 0x2cfc <ProcessInput+0x1b4>
    return 0;
}

//
void SetResponse(uint8_t number, uint16_t address, uint16_t length, uint8_t type){
    reactStr[0][number]=address;
    2cf6:	84 e8       	ldi	r24, 0x84	; 132
    2cf8:	99 e7       	ldi	r25, 0x79	; 121
    2cfa:	f9 c4       	rjmp	.+2546   	; 0x36ee <ProcessInput+0xba6>
                        SetResponse(elements++, A_CANTENTER, L_CANTENTER, TEASER);
                    } else if ((data[0] == 'o') && ((actObj1.byteField[ACTION_MASK]&OPEN)==0)) {
                        SetResponse(elements++, A_CANTOPEN, L_CANTOPEN, TEASER);
                    
                    //Action legit, permission granted?
                    } else if (CheckState(actObj1.byteField[OPEN_ACL])) {
    2cfc:	80 91 e0 38 	lds	r24, 0x38E0	; 0x8038e0 <actObj1.3995+0x6>
    2d00:	0e 94 63 0a 	call	0x14c6	; 0x14c6 <CheckState>
    2d04:	e0 91 2c 38 	lds	r30, 0x382C	; 0x80382c <currDepth>
    2d08:	88 23       	and	r24, r24
    2d0a:	09 f4       	brne	.+2      	; 0x2d0e <ProcessInput+0x1c6>
    2d0c:	49 c0       	rjmp	.+146    	; 0x2da0 <ProcessInput+0x258>
                            
                        //Yes! Check if we must move forward or backwards.
                        if (route[currDepth+1]) ++currDepth; else --currDepth;
    2d0e:	ae 2f       	mov	r26, r30
    2d10:	b0 e0       	ldi	r27, 0x00	; 0
    2d12:	aa 0f       	add	r26, r26
    2d14:	bb 1f       	adc	r27, r27
    2d16:	a3 52       	subi	r26, 0x23	; 35
    2d18:	b6 4c       	sbci	r27, 0xC6	; 198
    2d1a:	8d 91       	ld	r24, X+
    2d1c:	9c 91       	ld	r25, X
    2d1e:	89 2b       	or	r24, r25
    2d20:	11 f0       	breq	.+4      	; 0x2d26 <ProcessInput+0x1de>
    2d22:	ef 5f       	subi	r30, 0xFF	; 255
    2d24:	01 c0       	rjmp	.+2      	; 0x2d28 <ProcessInput+0x1e0>
    2d26:	e1 50       	subi	r30, 0x01	; 1
    2d28:	e0 93 2c 38 	sts	0x382C, r30	; 0x80382c <currDepth>
                        PopulateObject(route[currDepth], &currObj);
    2d2c:	e0 91 2c 38 	lds	r30, 0x382C	; 0x80382c <currDepth>
    2d30:	f0 e0       	ldi	r31, 0x00	; 0
    2d32:	ee 0f       	add	r30, r30
    2d34:	ff 1f       	adc	r31, r31
    2d36:	e5 52       	subi	r30, 0x25	; 37
    2d38:	f6 4c       	sbci	r31, 0xC6	; 198
    2d3a:	6b e1       	ldi	r22, 0x1B	; 27
    2d3c:	7a e3       	ldi	r23, 0x3A	; 58
    2d3e:	80 81       	ld	r24, Z
    2d40:	91 81       	ldd	r25, Z+1	; 0x01
    2d42:	48 da       	rcall	.-2928   	; 0x21d4 <PopulateObject>
                        SetResponse(elements++, currObj.addrStr[DESC], currObj.lenStr[DESC],GAME);
    2d44:	80 91 37 3a 	lds	r24, 0x3A37	; 0x803a37 <currObj+0x1c>
    2d48:	90 91 38 3a 	lds	r25, 0x3A38	; 0x803a38 <currObj+0x1d>
    return 0;
}

//
void SetResponse(uint8_t number, uint16_t address, uint16_t length, uint8_t type){
    reactStr[0][number]=address;
    2d4c:	20 91 29 3a 	lds	r18, 0x3A29	; 0x803a29 <currObj+0xe>
    2d50:	30 91 2a 3a 	lds	r19, 0x3A2A	; 0x803a2a <currObj+0xf>
    2d54:	20 93 1d 39 	sts	0x391D, r18	; 0x80391d <reactStr+0x2>
    2d58:	30 93 1e 39 	sts	0x391E, r19	; 0x80391e <reactStr+0x3>
    reactStr[1][number]=length;
    2d5c:	80 93 5d 39 	sts	0x395D, r24	; 0x80395d <reactStr+0x42>
    2d60:	90 93 5e 39 	sts	0x395E, r25	; 0x80395e <reactStr+0x43>
    reactStr[2][number]=type;
    2d64:	10 92 9d 39 	sts	0x399D, r1	; 0x80399d <reactStr+0x82>
    2d68:	10 92 9e 39 	sts	0x399E, r1	; 0x80399e <reactStr+0x83>
    return 0;
}

//
void SetResponse(uint8_t number, uint16_t address, uint16_t length, uint8_t type){
    reactStr[0][number]=address;
    2d6c:	8b e5       	ldi	r24, 0x5B	; 91
    2d6e:	9a e7       	ldi	r25, 0x7A	; 122
    2d70:	80 93 1f 39 	sts	0x391F, r24	; 0x80391f <reactStr+0x4>
    2d74:	90 93 20 39 	sts	0x3920, r25	; 0x803920 <reactStr+0x5>
    reactStr[1][number]=length;
    2d78:	82 e0       	ldi	r24, 0x02	; 2
    2d7a:	90 e0       	ldi	r25, 0x00	; 0
    2d7c:	80 93 5f 39 	sts	0x395F, r24	; 0x80395f <reactStr+0x44>
    2d80:	90 93 60 39 	sts	0x3960, r25	; 0x803960 <reactStr+0x45>
    reactStr[2][number]=type;
    2d84:	81 e0       	ldi	r24, 0x01	; 1
    2d86:	90 e0       	ldi	r25, 0x00	; 0
    2d88:	80 93 9f 39 	sts	0x399F, r24	; 0x80399f <reactStr+0x84>
    2d8c:	90 93 a0 39 	sts	0x39A0, r25	; 0x8039a0 <reactStr+0x85>
                        //Yes! Check if we must move forward or backwards.
                        if (route[currDepth+1]) ++currDepth; else --currDepth;
                        PopulateObject(route[currDepth], &currObj);
                        SetResponse(elements++, currObj.addrStr[DESC], currObj.lenStr[DESC],GAME);
                        SetResponse(elements++, A_LF, 2, TEASER);
                        effect = currObj.byteField[EFFECTS];
    2d90:	80 91 1f 3a 	lds	r24, 0x3A1F	; 0x803a1f <currObj+0x4>
    2d94:	90 e0       	ldi	r25, 0x00	; 0
    2d96:	80 93 3a 38 	sts	0x383A, r24	; 0x80383a <effect>
    2d9a:	90 93 3b 38 	sts	0x383B, r25	; 0x80383b <effect+0x1>
    2d9e:	8d c4       	rjmp	.+2330   	; 0x36ba <ProcessInput+0xb72>
                                                  
                    //Not granted!
                    } else {
                        route[currDepth+1] = 0;
    2da0:	f0 e0       	ldi	r31, 0x00	; 0
    2da2:	ee 0f       	add	r30, r30
    2da4:	ff 1f       	adc	r31, r31
    2da6:	e3 52       	subi	r30, 0x23	; 35
    2da8:	f6 4c       	sbci	r31, 0xC6	; 198
    2daa:	10 82       	st	Z, r1
    2dac:	11 82       	std	Z+1, r1	; 0x01
                        SetResponse(elements++, actObj1.addrStr[OPEN_ACL_MSG], actObj1.lenStr[OPEN_ACL_MSG], GAME);
    2dae:	80 91 fc 38 	lds	r24, 0x38FC	; 0x8038fc <actObj1.3995+0x22>
    2db2:	90 91 fd 38 	lds	r25, 0x38FD	; 0x8038fd <actObj1.3995+0x23>
    return 0;
}

//
void SetResponse(uint8_t number, uint16_t address, uint16_t length, uint8_t type){
    reactStr[0][number]=address;
    2db6:	20 91 ee 38 	lds	r18, 0x38EE	; 0x8038ee <actObj1.3995+0x14>
    2dba:	30 91 ef 38 	lds	r19, 0x38EF	; 0x8038ef <actObj1.3995+0x15>
    2dbe:	20 93 1d 39 	sts	0x391D, r18	; 0x80391d <reactStr+0x2>
    2dc2:	30 93 1e 39 	sts	0x391E, r19	; 0x80391e <reactStr+0x3>
    reactStr[1][number]=length;
    2dc6:	80 93 5d 39 	sts	0x395D, r24	; 0x80395d <reactStr+0x42>
    2dca:	90 93 5e 39 	sts	0x395E, r25	; 0x80395e <reactStr+0x43>
    reactStr[2][number]=type;
    2dce:	10 92 9d 39 	sts	0x399D, r1	; 0x80399d <reactStr+0x82>
    2dd2:	10 92 9e 39 	sts	0x399E, r1	; 0x80399e <reactStr+0x83>
                                                  
                    //Not granted!
                    } else {
                        route[currDepth+1] = 0;
                        SetResponse(elements++, actObj1.addrStr[OPEN_ACL_MSG], actObj1.lenStr[OPEN_ACL_MSG], GAME);
                        effect = actObj1.effect[0];              
    2dd6:	80 91 02 39 	lds	r24, 0x3902	; 0x803902 <actObj1.3995+0x28>
    2dda:	56 c5       	rjmp	.+2732   	; 0x3888 <ProcessInput+0xd40>
                    SetResponse(elements++, A_DONTSEE, L_DONTSEE, TEASER);                
                }
            }

        //Look around or at objects
        } else if (data[0] == 'l') {
    2ddc:	8c 36       	cpi	r24, 0x6C	; 108
    2dde:	09 f0       	breq	.+2      	; 0x2de2 <ProcessInput+0x29a>
    2de0:	57 c1       	rjmp	.+686    	; 0x3090 <ProcessInput+0x548>
    2de2:	e0 91 2c 38 	lds	r30, 0x382C	; 0x80382c <currDepth>
            if (inputLen == 1) {
    2de6:	b1 e0       	ldi	r27, 0x01	; 1
    2de8:	fb 12       	cpse	r15, r27
    2dea:	f6 c0       	rjmp	.+492    	; 0x2fd8 <ProcessInput+0x490>

                //Show info about this area first
                SetResponse(elements++, currObj.addrStr[DESC], currObj.lenStr[DESC],GAME);
    2dec:	80 91 37 3a 	lds	r24, 0x3A37	; 0x803a37 <currObj+0x1c>
    2df0:	90 91 38 3a 	lds	r25, 0x3A38	; 0x803a38 <currObj+0x1d>
    return 0;
}

//
void SetResponse(uint8_t number, uint16_t address, uint16_t length, uint8_t type){
    reactStr[0][number]=address;
    2df4:	20 91 29 3a 	lds	r18, 0x3A29	; 0x803a29 <currObj+0xe>
    2df8:	30 91 2a 3a 	lds	r19, 0x3A2A	; 0x803a2a <currObj+0xf>
    2dfc:	20 93 1d 39 	sts	0x391D, r18	; 0x80391d <reactStr+0x2>
    2e00:	30 93 1e 39 	sts	0x391E, r19	; 0x80391e <reactStr+0x3>
    reactStr[1][number]=length;
    2e04:	80 93 5d 39 	sts	0x395D, r24	; 0x80395d <reactStr+0x42>
    2e08:	90 93 5e 39 	sts	0x395E, r25	; 0x80395e <reactStr+0x43>
    reactStr[2][number]=type;
    2e0c:	10 92 9d 39 	sts	0x399D, r1	; 0x80399d <reactStr+0x82>
    2e10:	10 92 9e 39 	sts	0x399E, r1	; 0x80399e <reactStr+0x83>
    return 0;
}

//
void SetResponse(uint8_t number, uint16_t address, uint16_t length, uint8_t type){
    reactStr[0][number]=address;
    2e14:	8b e5       	ldi	r24, 0x5B	; 91
    2e16:	9a e7       	ldi	r25, 0x7A	; 122
    2e18:	80 93 1f 39 	sts	0x391F, r24	; 0x80391f <reactStr+0x4>
    2e1c:	90 93 20 39 	sts	0x3920, r25	; 0x803920 <reactStr+0x5>
    reactStr[1][number]=length;
    2e20:	82 e0       	ldi	r24, 0x02	; 2
    2e22:	90 e0       	ldi	r25, 0x00	; 0
    2e24:	80 93 5f 39 	sts	0x395F, r24	; 0x80395f <reactStr+0x44>
    2e28:	90 93 60 39 	sts	0x3960, r25	; 0x803960 <reactStr+0x45>
    reactStr[2][number]=type;
    2e2c:	81 e0       	ldi	r24, 0x01	; 1
    2e2e:	90 e0       	ldi	r25, 0x00	; 0
    2e30:	80 93 9f 39 	sts	0x399F, r24	; 0x80399f <reactStr+0x84>
    2e34:	90 93 a0 39 	sts	0x39A0, r25	; 0x8039a0 <reactStr+0x85>
    return 0;
}

//
void SetResponse(uint8_t number, uint16_t address, uint16_t length, uint8_t type){
    reactStr[0][number]=address;
    2e38:	2d ee       	ldi	r18, 0xED	; 237
    2e3a:	39 e7       	ldi	r19, 0x79	; 121
    2e3c:	20 93 21 39 	sts	0x3921, r18	; 0x803921 <reactStr+0x6>
    2e40:	30 93 22 39 	sts	0x3922, r19	; 0x803922 <reactStr+0x7>
    reactStr[1][number]=length;
    2e44:	25 e1       	ldi	r18, 0x15	; 21
    2e46:	30 e0       	ldi	r19, 0x00	; 0
    2e48:	20 93 61 39 	sts	0x3961, r18	; 0x803961 <reactStr+0x46>
    2e4c:	30 93 62 39 	sts	0x3962, r19	; 0x803962 <reactStr+0x47>
    reactStr[2][number]=type;
    2e50:	80 93 a1 39 	sts	0x39A1, r24	; 0x8039a1 <reactStr+0x86>
    2e54:	90 93 a2 39 	sts	0x39A2, r25	; 0x8039a2 <reactStr+0x87>
                SetResponse(elements++, currObj.addrStr[DESC], currObj.lenStr[DESC],GAME);
                SetResponse(elements++, A_LF, 2, TEASER);
                SetResponse(elements++, A_LOOK, L_LOOK, TEASER);

                //Check the visible children first
                route[currDepth+1] = 0;
    2e58:	f0 e0       	ldi	r31, 0x00	; 0
    2e5a:	ee 0f       	add	r30, r30
    2e5c:	ff 1f       	adc	r31, r31
    2e5e:	e3 52       	subi	r30, 0x23	; 35
    2e60:	f6 4c       	sbci	r31, 0xC6	; 198
    2e62:	10 82       	st	Z, r1
    2e64:	11 82       	std	Z+1, r1	; 0x01
            if (inputLen == 1) {

                //Show info about this area first
                SetResponse(elements++, currObj.addrStr[DESC], currObj.lenStr[DESC],GAME);
                SetResponse(elements++, A_LF, 2, TEASER);
                SetResponse(elements++, A_LOOK, L_LOOK, TEASER);
    2e66:	84 e0       	ldi	r24, 0x04	; 4
    2e68:	68 2e       	mov	r6, r24
    return 0;
}

//
void SetResponse(uint8_t number, uint16_t address, uint16_t length, uint8_t type){
    reactStr[0][number]=address;
    2e6a:	99 e5       	ldi	r25, 0x59	; 89
    2e6c:	c9 2e       	mov	r12, r25
    2e6e:	9a e7       	ldi	r25, 0x7A	; 122
    2e70:	d9 2e       	mov	r13, r25
    reactStr[1][number]=length;
    2e72:	22 e0       	ldi	r18, 0x02	; 2
    2e74:	a2 2e       	mov	r10, r18
    2e76:	b1 2c       	mov	r11, r1
    reactStr[2][number]=type;
    2e78:	88 24       	eor	r8, r8
    2e7a:	83 94       	inc	r8
    2e7c:	91 2c       	mov	r9, r1
                SetResponse(elements++, A_LOOK, L_LOOK, TEASER);

                //Check the visible children first
                route[currDepth+1] = 0;
                do{
                    route[currDepth+1] = FindChild(route[currDepth], 0, route[currDepth+1]);
    2e7e:	80 91 2c 38 	lds	r24, 0x382C	; 0x80382c <currDepth>
    2e82:	90 e0       	ldi	r25, 0x00	; 0
    2e84:	9c 01       	movw	r18, r24
    2e86:	22 0f       	add	r18, r18
    2e88:	33 1f       	adc	r19, r19
    2e8a:	f9 01       	movw	r30, r18
    2e8c:	e3 52       	subi	r30, 0x23	; 35
    2e8e:	f6 4c       	sbci	r31, 0xC6	; 198
    2e90:	7f 01       	movw	r14, r30
    2e92:	40 81       	ld	r20, Z
    2e94:	51 81       	ldd	r21, Z+1	; 0x01
    2e96:	f9 01       	movw	r30, r18
    2e98:	e5 52       	subi	r30, 0x25	; 37
    2e9a:	f6 4c       	sbci	r31, 0xC6	; 198
    2e9c:	60 e0       	ldi	r22, 0x00	; 0
    2e9e:	80 81       	ld	r24, Z
    2ea0:	91 81       	ldd	r25, Z+1	; 0x01
    2ea2:	63 da       	rcall	.-2874   	; 0x236a <FindChild>
    2ea4:	d7 01       	movw	r26, r14
    2ea6:	8d 93       	st	X+, r24
    2ea8:	9c 93       	st	X, r25
                    if (route[currDepth+1]) {
    2eaa:	e0 91 2c 38 	lds	r30, 0x382C	; 0x80382c <currDepth>
    2eae:	f0 e0       	ldi	r31, 0x00	; 0
    2eb0:	ee 0f       	add	r30, r30
    2eb2:	ff 1f       	adc	r31, r31
    2eb4:	e3 52       	subi	r30, 0x23	; 35
    2eb6:	f6 4c       	sbci	r31, 0xC6	; 198
    2eb8:	80 81       	ld	r24, Z
    2eba:	91 81       	ldd	r25, Z+1	; 0x01
    2ebc:	00 97       	sbiw	r24, 0x00	; 0
    2ebe:	09 f4       	brne	.+2      	; 0x2ec2 <ProcessInput+0x37a>
    2ec0:	4a c0       	rjmp	.+148    	; 0x2f56 <ProcessInput+0x40e>
                        if ((route[currDepth+1] != inventory[0])&&(route[currDepth+1] != inventory[1])) {
    2ec2:	20 91 3e 38 	lds	r18, 0x383E	; 0x80383e <inventory>
    2ec6:	30 91 3f 38 	lds	r19, 0x383F	; 0x80383f <inventory+0x1>
    2eca:	82 17       	cp	r24, r18
    2ecc:	93 07       	cpc	r25, r19
    2ece:	09 f4       	brne	.+2      	; 0x2ed2 <ProcessInput+0x38a>
    2ed0:	42 c0       	rjmp	.+132    	; 0x2f56 <ProcessInput+0x40e>
    2ed2:	20 91 40 38 	lds	r18, 0x3840	; 0x803840 <inventory+0x2>
    2ed6:	30 91 41 38 	lds	r19, 0x3841	; 0x803841 <inventory+0x3>
    2eda:	82 17       	cp	r24, r18
    2edc:	93 07       	cpc	r25, r19
                            PopulateObject(route[currDepth+1], &actObj1);
    2ede:	d9 f1       	breq	.+118    	; 0x2f56 <ProcessInput+0x40e>
    2ee0:	6a ed       	ldi	r22, 0xDA	; 218
    2ee2:	78 e3       	ldi	r23, 0x38	; 56
    2ee4:	77 d9       	rcall	.-3346   	; 0x21d4 <PopulateObject>
                            SetResponse(elements++, actObj1.addrStr[NAME], actObj1.lenStr[NAME],GAME);
    2ee6:	80 91 f4 38 	lds	r24, 0x38F4	; 0x8038f4 <actObj1.3995+0x1a>
    2eea:	90 91 f5 38 	lds	r25, 0x38F5	; 0x8038f5 <actObj1.3995+0x1b>
    return 0;
}

//
void SetResponse(uint8_t number, uint16_t address, uint16_t length, uint8_t type){
    reactStr[0][number]=address;
    2eee:	e6 2d       	mov	r30, r6
    2ef0:	f0 e0       	ldi	r31, 0x00	; 0
    2ef2:	df 01       	movw	r26, r30
    2ef4:	aa 0f       	add	r26, r26
    2ef6:	bb 1f       	adc	r27, r27
    2ef8:	a5 5e       	subi	r26, 0xE5	; 229
    2efa:	b6 4c       	sbci	r27, 0xC6	; 198
    2efc:	20 91 e6 38 	lds	r18, 0x38E6	; 0x8038e6 <actObj1.3995+0xc>
    2f00:	30 91 e7 38 	lds	r19, 0x38E7	; 0x8038e7 <actObj1.3995+0xd>
    2f04:	2d 93       	st	X+, r18
    2f06:	3c 93       	st	X, r19
    reactStr[1][number]=length;
    2f08:	df 01       	movw	r26, r30
    2f0a:	aa 0f       	add	r26, r26
    2f0c:	bb 1f       	adc	r27, r27
    2f0e:	a5 5a       	subi	r26, 0xA5	; 165
    2f10:	b6 4c       	sbci	r27, 0xC6	; 198
    2f12:	8d 93       	st	X+, r24
    2f14:	9c 93       	st	X, r25
    reactStr[2][number]=type;
    2f16:	ee 0f       	add	r30, r30
    2f18:	ff 1f       	adc	r31, r31
    2f1a:	e5 56       	subi	r30, 0x65	; 101
    2f1c:	f6 4c       	sbci	r31, 0xC6	; 198
    2f1e:	10 82       	st	Z, r1
    2f20:	11 82       	std	Z+1, r1	; 0x01
    return 0;
}

//
void SetResponse(uint8_t number, uint16_t address, uint16_t length, uint8_t type){
    reactStr[0][number]=address;
    2f22:	81 e0       	ldi	r24, 0x01	; 1
    2f24:	86 0d       	add	r24, r6
    2f26:	90 e0       	ldi	r25, 0x00	; 0
    2f28:	63 94       	inc	r6
    2f2a:	63 94       	inc	r6
    2f2c:	fc 01       	movw	r30, r24
    2f2e:	ee 0f       	add	r30, r30
    2f30:	ff 1f       	adc	r31, r31
    2f32:	e5 5e       	subi	r30, 0xE5	; 229
    2f34:	f6 4c       	sbci	r31, 0xC6	; 198
    2f36:	c0 82       	st	Z, r12
    2f38:	d1 82       	std	Z+1, r13	; 0x01
    reactStr[1][number]=length;
    2f3a:	fc 01       	movw	r30, r24
    2f3c:	ee 0f       	add	r30, r30
    2f3e:	ff 1f       	adc	r31, r31
    2f40:	e5 5a       	subi	r30, 0xA5	; 165
    2f42:	f6 4c       	sbci	r31, 0xC6	; 198
    2f44:	a0 82       	st	Z, r10
    2f46:	b1 82       	std	Z+1, r11	; 0x01
    reactStr[2][number]=type;
    2f48:	88 0f       	add	r24, r24
    2f4a:	99 1f       	adc	r25, r25
    2f4c:	fc 01       	movw	r30, r24
    2f4e:	e5 56       	subi	r30, 0x65	; 101
    2f50:	f6 4c       	sbci	r31, 0xC6	; 198
    2f52:	80 82       	st	Z, r8
    2f54:	91 82       	std	Z+1, r9	; 0x01
                            PopulateObject(route[currDepth+1], &actObj1);
                            SetResponse(elements++, actObj1.addrStr[NAME], actObj1.lenStr[NAME],GAME);
                            SetResponse(elements++, A_COMMA, L_COMMA, TEASER);
                        }
                    }
                }while (route[currDepth+1]);
    2f56:	20 91 2c 38 	lds	r18, 0x382C	; 0x80382c <currDepth>
    2f5a:	82 2f       	mov	r24, r18
    2f5c:	90 e0       	ldi	r25, 0x00	; 0
    2f5e:	fc 01       	movw	r30, r24
    2f60:	ee 0f       	add	r30, r30
    2f62:	ff 1f       	adc	r31, r31
    2f64:	e3 52       	subi	r30, 0x23	; 35
    2f66:	f6 4c       	sbci	r31, 0xC6	; 198
    2f68:	40 81       	ld	r20, Z
    2f6a:	51 81       	ldd	r21, Z+1	; 0x01
    2f6c:	45 2b       	or	r20, r21
    2f6e:	09 f0       	breq	.+2      	; 0x2f72 <ProcessInput+0x42a>
    2f70:	86 cf       	rjmp	.-244    	; 0x2e7e <ProcessInput+0x336>

                //Look back if not on level 0
                if (currDepth) {
    2f72:	22 23       	and	r18, r18
    2f74:	69 f1       	breq	.+90     	; 0x2fd0 <ProcessInput+0x488>
                    PopulateObject(route[currDepth-1], &actObj1);
    2f76:	88 0f       	add	r24, r24
    2f78:	99 1f       	adc	r25, r25
    2f7a:	fc 01       	movw	r30, r24
    2f7c:	e7 52       	subi	r30, 0x27	; 39
    2f7e:	f6 4c       	sbci	r31, 0xC6	; 198
    2f80:	6a ed       	ldi	r22, 0xDA	; 218
    2f82:	78 e3       	ldi	r23, 0x38	; 56
    2f84:	80 81       	ld	r24, Z
    2f86:	91 81       	ldd	r25, Z+1	; 0x01
    2f88:	25 d9       	rcall	.-3510   	; 0x21d4 <PopulateObject>
                    SetResponse(elements++, actObj1.addrStr[NAME], actObj1.lenStr[NAME],GAME);
    2f8a:	20 91 f4 38 	lds	r18, 0x38F4	; 0x8038f4 <actObj1.3995+0x1a>
    2f8e:	30 91 f5 38 	lds	r19, 0x38F5	; 0x8038f5 <actObj1.3995+0x1b>
    2f92:	77 24       	eor	r7, r7
    2f94:	73 94       	inc	r7
    2f96:	76 0c       	add	r7, r6
    return 0;
}

//
void SetResponse(uint8_t number, uint16_t address, uint16_t length, uint8_t type){
    reactStr[0][number]=address;
    2f98:	86 2d       	mov	r24, r6
    2f9a:	90 e0       	ldi	r25, 0x00	; 0
    2f9c:	fc 01       	movw	r30, r24
    2f9e:	ee 0f       	add	r30, r30
    2fa0:	ff 1f       	adc	r31, r31
    2fa2:	e5 5e       	subi	r30, 0xE5	; 229
    2fa4:	f6 4c       	sbci	r31, 0xC6	; 198
    2fa6:	40 91 e6 38 	lds	r20, 0x38E6	; 0x8038e6 <actObj1.3995+0xc>
    2faa:	50 91 e7 38 	lds	r21, 0x38E7	; 0x8038e7 <actObj1.3995+0xd>
    2fae:	40 83       	st	Z, r20
    2fb0:	51 83       	std	Z+1, r21	; 0x01
    reactStr[1][number]=length;
    2fb2:	fc 01       	movw	r30, r24
    2fb4:	ee 0f       	add	r30, r30
    2fb6:	ff 1f       	adc	r31, r31
    2fb8:	e5 5a       	subi	r30, 0xA5	; 165
    2fba:	f6 4c       	sbci	r31, 0xC6	; 198
    2fbc:	20 83       	st	Z, r18
    2fbe:	31 83       	std	Z+1, r19	; 0x01
    reactStr[2][number]=type;
    2fc0:	88 0f       	add	r24, r24
    2fc2:	99 1f       	adc	r25, r25
    2fc4:	fc 01       	movw	r30, r24
    2fc6:	e5 56       	subi	r30, 0x65	; 101
    2fc8:	f6 4c       	sbci	r31, 0xC6	; 198
    2fca:	10 82       	st	Z, r1
    2fcc:	11 82       	std	Z+1, r1	; 0x01
    2fce:	b9 c5       	rjmp	.+2930   	; 0x3b42 <ProcessInput+0xffa>

                //Look back if not on level 0
                if (currDepth) {
                    PopulateObject(route[currDepth-1], &actObj1);
                    SetResponse(elements++, actObj1.addrStr[NAME], actObj1.lenStr[NAME],GAME);
                } else elements-=1;
    2fd0:	77 24       	eor	r7, r7
    2fd2:	7a 94       	dec	r7
    2fd4:	76 0c       	add	r7, r6
    2fd6:	b5 c5       	rjmp	.+2922   	; 0x3b42 <ProcessInput+0xffa>

            } else {
                route[currDepth+1] = FindChild(route[currDepth], data[1], 0);
    2fd8:	ee 2e       	mov	r14, r30
    2fda:	f1 2c       	mov	r15, r1
    2fdc:	f7 01       	movw	r30, r14
    2fde:	ee 0f       	add	r30, r30
    2fe0:	ff 1f       	adc	r31, r31
    2fe2:	e5 52       	subi	r30, 0x25	; 37
    2fe4:	f6 4c       	sbci	r31, 0xC6	; 198
    2fe6:	40 e0       	ldi	r20, 0x00	; 0
    2fe8:	50 e0       	ldi	r21, 0x00	; 0
    2fea:	d8 01       	movw	r26, r16
    2fec:	11 96       	adiw	r26, 0x01	; 1
    2fee:	6c 91       	ld	r22, X
    2ff0:	80 81       	ld	r24, Z
    2ff2:	91 81       	ldd	r25, Z+1	; 0x01
    2ff4:	ba d9       	rcall	.-3212   	; 0x236a <FindChild>
    2ff6:	f7 01       	movw	r30, r14
    2ff8:	ee 0f       	add	r30, r30
    2ffa:	ff 1f       	adc	r31, r31
    2ffc:	e3 52       	subi	r30, 0x23	; 35
    2ffe:	f6 4c       	sbci	r31, 0xC6	; 198
    3000:	80 83       	st	Z, r24
    3002:	91 83       	std	Z+1, r25	; 0x01
                if (route[currDepth+1]) {
    3004:	90 91 2c 38 	lds	r25, 0x382C	; 0x80382c <currDepth>
    3008:	29 2f       	mov	r18, r25
    300a:	30 e0       	ldi	r19, 0x00	; 0
    300c:	f9 01       	movw	r30, r18
    300e:	ee 0f       	add	r30, r30
    3010:	ff 1f       	adc	r31, r31
    3012:	e3 52       	subi	r30, 0x23	; 35
    3014:	f6 4c       	sbci	r31, 0xC6	; 198
    3016:	40 81       	ld	r20, Z
    3018:	51 81       	ldd	r21, Z+1	; 0x01
    301a:	41 15       	cp	r20, r1
    301c:	51 05       	cpc	r21, r1
    301e:	21 f0       	breq	.+8      	; 0x3028 <ProcessInput+0x4e0>
                    PopulateObject(route[currDepth+1], &actObj1);
    3020:	6a ed       	ldi	r22, 0xDA	; 218
    3022:	78 e3       	ldi	r23, 0x38	; 56
    3024:	ca 01       	movw	r24, r20
    3026:	1e c0       	rjmp	.+60     	; 0x3064 <ProcessInput+0x51c>
//TODO: CHECKSTATE -> A_CANTLOOK item
                    SetResponse(elements++, actObj1.addrStr[DESC], actObj1.lenStr[DESC],GAME);   
                } else if (currDepth) {
    3028:	99 23       	and	r25, r25
    302a:	09 f4       	brne	.+2      	; 0x302e <ProcessInput+0x4e6>
                    if (CheckLetter(route[currDepth-1], data[1])) {
    302c:	bc c5       	rjmp	.+2936   	; 0x3ba6 <ProcessInput+0x105e>
    302e:	22 0f       	add	r18, r18
    3030:	33 1f       	adc	r19, r19
    3032:	f9 01       	movw	r30, r18
    3034:	e7 52       	subi	r30, 0x27	; 39
    3036:	f6 4c       	sbci	r31, 0xC6	; 198
    3038:	d8 01       	movw	r26, r16
    303a:	11 96       	adiw	r26, 0x01	; 1
    303c:	6c 91       	ld	r22, X
    303e:	80 81       	ld	r24, Z
    3040:	91 81       	ldd	r25, Z+1	; 0x01
    3042:	3f d9       	rcall	.-3458   	; 0x22c2 <CheckLetter>
    3044:	81 11       	cpse	r24, r1
    3046:	03 c0       	rjmp	.+6      	; 0x304e <ProcessInput+0x506>
}

//The game logic!
uint8_t ProcessInput(uint8_t *data){
    static object_model_t actObj1, actObj2;
    uint8_t elements = 1;
    3048:	77 24       	eor	r7, r7
    304a:	73 94       	inc	r7
                    PopulateObject(route[currDepth+1], &actObj1);
//TODO: CHECKSTATE -> A_CANTLOOK item
                    SetResponse(elements++, actObj1.addrStr[DESC], actObj1.lenStr[DESC],GAME);   
                } else if (currDepth) {
                    if (CheckLetter(route[currDepth-1], data[1])) {
                        PopulateObject(route[currDepth-1], &actObj1);
    304c:	7a c5       	rjmp	.+2804   	; 0x3b42 <ProcessInput+0xffa>
    304e:	e0 91 2c 38 	lds	r30, 0x382C	; 0x80382c <currDepth>
    3052:	f0 e0       	ldi	r31, 0x00	; 0
    3054:	ee 0f       	add	r30, r30
    3056:	ff 1f       	adc	r31, r31
    3058:	e7 52       	subi	r30, 0x27	; 39
    305a:	f6 4c       	sbci	r31, 0xC6	; 198
    305c:	6a ed       	ldi	r22, 0xDA	; 218
    305e:	78 e3       	ldi	r23, 0x38	; 56
    3060:	80 81       	ld	r24, Z
    3062:	91 81       	ldd	r25, Z+1	; 0x01
    3064:	b7 d8       	rcall	.-3730   	; 0x21d4 <PopulateObject>
                        SetResponse(elements++, actObj1.addrStr[DESC], actObj1.lenStr[DESC],GAME);
    3066:	80 91 f6 38 	lds	r24, 0x38F6	; 0x8038f6 <actObj1.3995+0x1c>
    306a:	90 91 f7 38 	lds	r25, 0x38F7	; 0x8038f7 <actObj1.3995+0x1d>
    return 0;
}

//
void SetResponse(uint8_t number, uint16_t address, uint16_t length, uint8_t type){
    reactStr[0][number]=address;
    306e:	20 91 e8 38 	lds	r18, 0x38E8	; 0x8038e8 <actObj1.3995+0xe>
    3072:	30 91 e9 38 	lds	r19, 0x38E9	; 0x8038e9 <actObj1.3995+0xf>
    3076:	20 93 1d 39 	sts	0x391D, r18	; 0x80391d <reactStr+0x2>
    307a:	30 93 1e 39 	sts	0x391E, r19	; 0x80391e <reactStr+0x3>
    reactStr[1][number]=length;
    307e:	80 93 5d 39 	sts	0x395D, r24	; 0x80395d <reactStr+0x42>
    3082:	90 93 5e 39 	sts	0x395E, r25	; 0x80395e <reactStr+0x43>
    reactStr[2][number]=type;
    3086:	10 92 9d 39 	sts	0x399D, r1	; 0x80399d <reactStr+0x82>
    308a:	10 92 9e 39 	sts	0x399E, r1	; 0x80399e <reactStr+0x83>
    308e:	2a ce       	rjmp	.-940    	; 0x2ce4 <ProcessInput+0x19c>
                    SetResponse(elements++, A_DONTSEE, L_DONTSEE, TEASER);
                }
            }
        
        //Pick up an object
        } else if (data[0] == 'p') {
    3090:	80 37       	cpi	r24, 0x70	; 112
    3092:	09 f0       	breq	.+2      	; 0x3096 <ProcessInput+0x54e>
    3094:	96 c0       	rjmp	.+300    	; 0x31c2 <ProcessInput+0x67a>
            if (inventory[0]&&inventory[1]) {
    3096:	80 91 3e 38 	lds	r24, 0x383E	; 0x80383e <inventory>
    309a:	90 91 3f 38 	lds	r25, 0x383F	; 0x80383f <inventory+0x1>
    309e:	89 2b       	or	r24, r25
    30a0:	79 f0       	breq	.+30     	; 0x30c0 <ProcessInput+0x578>
    30a2:	80 91 40 38 	lds	r24, 0x3840	; 0x803840 <inventory+0x2>
    30a6:	90 91 41 38 	lds	r25, 0x3841	; 0x803841 <inventory+0x3>
    30aa:	89 2b       	or	r24, r25
    30ac:	49 f0       	breq	.+18     	; 0x30c0 <ProcessInput+0x578>
    return 0;
}

//
void SetResponse(uint8_t number, uint16_t address, uint16_t length, uint8_t type){
    reactStr[0][number]=address;
    30ae:	84 e4       	ldi	r24, 0x44	; 68
    30b0:	98 e7       	ldi	r25, 0x78	; 120
    30b2:	80 93 1d 39 	sts	0x391D, r24	; 0x80391d <reactStr+0x2>
    30b6:	90 93 1e 39 	sts	0x391E, r25	; 0x80391e <reactStr+0x3>
    reactStr[1][number]=length;
    30ba:	89 e5       	ldi	r24, 0x59	; 89
    30bc:	90 e0       	ldi	r25, 0x00	; 0
    30be:	08 ce       	rjmp	.-1008   	; 0x2cd0 <ProcessInput+0x188>
        
        //Pick up an object
        } else if (data[0] == 'p') {
            if (inventory[0]&&inventory[1]) {
                SetResponse(elements++, A_CARRYTWO, L_CARRYTWO, TEASER);
            } else if (inputLen != 2) {
    30c0:	b2 e0       	ldi	r27, 0x02	; 2
    30c2:	fb 12       	cpse	r15, r27
    30c4:	70 cd       	rjmp	.-1312   	; 0x2ba6 <ProcessInput+0x5e>
                SetResponse(elements++, A_NOTPOSSIBLE, L_NOTPOSSIBLE, TEASER);
            } else {
                route[currDepth+1] = FindChild(route[currDepth], data[1], 0);
    30c6:	e0 90 2c 38 	lds	r14, 0x382C	; 0x80382c <currDepth>
    30ca:	f1 2c       	mov	r15, r1
    30cc:	f7 01       	movw	r30, r14
    30ce:	ee 0f       	add	r30, r30
    30d0:	ff 1f       	adc	r31, r31
    30d2:	e5 52       	subi	r30, 0x25	; 37
    30d4:	f6 4c       	sbci	r31, 0xC6	; 198
    30d6:	40 e0       	ldi	r20, 0x00	; 0
    30d8:	50 e0       	ldi	r21, 0x00	; 0
    30da:	d8 01       	movw	r26, r16
    30dc:	11 96       	adiw	r26, 0x01	; 1
    30de:	6c 91       	ld	r22, X
    30e0:	80 81       	ld	r24, Z
    30e2:	91 81       	ldd	r25, Z+1	; 0x01
    30e4:	42 d9       	rcall	.-3452   	; 0x236a <FindChild>
    30e6:	f7 01       	movw	r30, r14
    30e8:	ee 0f       	add	r30, r30
    30ea:	ff 1f       	adc	r31, r31
    30ec:	e3 52       	subi	r30, 0x23	; 35
    30ee:	f6 4c       	sbci	r31, 0xC6	; 198
    30f0:	80 83       	st	Z, r24
    30f2:	91 83       	std	Z+1, r25	; 0x01
                if (route[currDepth+1]) {
    30f4:	20 91 2c 38 	lds	r18, 0x382C	; 0x80382c <currDepth>
    30f8:	30 e0       	ldi	r19, 0x00	; 0
    30fa:	2f 5f       	subi	r18, 0xFF	; 255
    30fc:	3f 4f       	sbci	r19, 0xFF	; 255
    30fe:	22 0f       	add	r18, r18
    3100:	33 1f       	adc	r19, r19
    3102:	f9 01       	movw	r30, r18
    3104:	e5 52       	subi	r30, 0x25	; 37
    3106:	f6 4c       	sbci	r31, 0xC6	; 198
    3108:	80 81       	ld	r24, Z
    310a:	91 81       	ldd	r25, Z+1	; 0x01
    310c:	00 97       	sbiw	r24, 0x00	; 0
    310e:	09 f4       	brne	.+2      	; 0x3112 <ProcessInput+0x5ca>
    3110:	ca c3       	rjmp	.+1940   	; 0x38a6 <ProcessInput+0xd5e>
                    if ((route[currDepth+1] == inventory[0])||(route[currDepth+1] == inventory[1])) {
    3112:	40 91 3e 38 	lds	r20, 0x383E	; 0x80383e <inventory>
    3116:	50 91 3f 38 	lds	r21, 0x383F	; 0x80383f <inventory+0x1>
    311a:	84 17       	cp	r24, r20
    311c:	95 07       	cpc	r25, r21
    311e:	39 f0       	breq	.+14     	; 0x312e <ProcessInput+0x5e6>
    3120:	40 91 40 38 	lds	r20, 0x3840	; 0x803840 <inventory+0x2>
    3124:	50 91 41 38 	lds	r21, 0x3841	; 0x803841 <inventory+0x3>
    3128:	84 17       	cp	r24, r20
    312a:	95 07       	cpc	r25, r21
    312c:	c1 f4       	brne	.+48     	; 0x315e <ProcessInput+0x616>
    return 0;
}

//
void SetResponse(uint8_t number, uint16_t address, uint16_t length, uint8_t type){
    reactStr[0][number]=address;
    312e:	8f e1       	ldi	r24, 0x1F	; 31
    3130:	98 e7       	ldi	r25, 0x78	; 120
    3132:	80 93 1d 39 	sts	0x391D, r24	; 0x80391d <reactStr+0x2>
    3136:	90 93 1e 39 	sts	0x391E, r25	; 0x80391e <reactStr+0x3>
    reactStr[1][number]=length;
    313a:	85 e2       	ldi	r24, 0x25	; 37
    313c:	90 e0       	ldi	r25, 0x00	; 0
    313e:	80 93 5d 39 	sts	0x395D, r24	; 0x80395d <reactStr+0x42>
    3142:	90 93 5e 39 	sts	0x395E, r25	; 0x80395e <reactStr+0x43>
    reactStr[2][number]=type;
    3146:	81 e0       	ldi	r24, 0x01	; 1
    3148:	90 e0       	ldi	r25, 0x00	; 0
    314a:	80 93 9d 39 	sts	0x399D, r24	; 0x80399d <reactStr+0x82>
    314e:	90 93 9e 39 	sts	0x399E, r25	; 0x80399e <reactStr+0x83>
            } else {
                route[currDepth+1] = FindChild(route[currDepth], data[1], 0);
                if (route[currDepth+1]) {
                    if ((route[currDepth+1] == inventory[0])||(route[currDepth+1] == inventory[1])) {
                        SetResponse(elements++, A_ALREADYCARRYING, L_ALREADYCARRYING, TEASER);
                        route[currDepth+1] = 0;
    3152:	f9 01       	movw	r30, r18
    3154:	e5 52       	subi	r30, 0x25	; 37
    3156:	f6 4c       	sbci	r31, 0xC6	; 198
    3158:	10 82       	st	Z, r1
    315a:	11 82       	std	Z+1, r1	; 0x01
                    } else {
                        //Put item in the inventory if possible
                        PopulateObject(route[currDepth+1], &actObj1);  
    315c:	c3 cd       	rjmp	.-1146   	; 0x2ce4 <ProcessInput+0x19c>
    315e:	6a ed       	ldi	r22, 0xDA	; 218
    3160:	78 e3       	ldi	r23, 0x38	; 56
    3162:	38 d8       	rcall	.-3984   	; 0x21d4 <PopulateObject>
                        if (CheckState(actObj1.byteField[ACTION_ACL])) {
    3164:	80 91 e1 38 	lds	r24, 0x38E1	; 0x8038e1 <actObj1.3995+0x7>
    3168:	0e 94 63 0a 	call	0x14c6	; 0x14c6 <CheckState>
    316c:	88 23       	and	r24, r24
    316e:	09 f4       	brne	.+2      	; 0x3172 <ProcessInput+0x62a>
    3170:	75 c3       	rjmp	.+1770   	; 0x385c <ProcessInput+0xd14>
                            if (actObj1.byteField[ITEM_NR]) {
    3172:	80 91 e5 38 	lds	r24, 0x38E5	; 0x8038e5 <actObj1.3995+0xb>
    3176:	88 23       	and	r24, r24
    3178:	09 f4       	brne	.+2      	; 0x317c <ProcessInput+0x634>
    317a:	15 cd       	rjmp	.-1494   	; 0x2ba6 <ProcessInput+0x5e>
                                if (inventory[0]) {
    317c:	80 91 3e 38 	lds	r24, 0x383E	; 0x80383e <inventory>
    3180:	90 91 3f 38 	lds	r25, 0x383F	; 0x80383f <inventory+0x1>
    3184:	e0 91 2c 38 	lds	r30, 0x382C	; 0x80382c <currDepth>
                                    inventory[1] = route[currDepth+1];
    3188:	f0 e0       	ldi	r31, 0x00	; 0
    318a:	ee 0f       	add	r30, r30
    318c:	ff 1f       	adc	r31, r31
    318e:	e3 52       	subi	r30, 0x23	; 35
    3190:	f6 4c       	sbci	r31, 0xC6	; 198
                    } else {
                        //Put item in the inventory if possible
                        PopulateObject(route[currDepth+1], &actObj1);  
                        if (CheckState(actObj1.byteField[ACTION_ACL])) {
                            if (actObj1.byteField[ITEM_NR]) {
                                if (inventory[0]) {
    3192:	89 2b       	or	r24, r25
    3194:	39 f0       	breq	.+14     	; 0x31a4 <ProcessInput+0x65c>
                                    inventory[1] = route[currDepth+1];
    3196:	80 81       	ld	r24, Z
    3198:	91 81       	ldd	r25, Z+1	; 0x01
    319a:	80 93 40 38 	sts	0x3840, r24	; 0x803840 <inventory+0x2>
    319e:	90 93 41 38 	sts	0x3841, r25	; 0x803841 <inventory+0x3>
    31a2:	06 c0       	rjmp	.+12     	; 0x31b0 <ProcessInput+0x668>
                                } else {
                                    inventory[0] = route[currDepth+1];
    31a4:	80 81       	ld	r24, Z
    31a6:	91 81       	ldd	r25, Z+1	; 0x01
    31a8:	80 93 3e 38 	sts	0x383E, r24	; 0x80383e <inventory>
    31ac:	90 93 3f 38 	sts	0x383F, r25	; 0x80383f <inventory+0x1>
    return 0;
}

//
void SetResponse(uint8_t number, uint16_t address, uint16_t length, uint8_t type){
    reactStr[0][number]=address;
    31b0:	89 e0       	ldi	r24, 0x09	; 9
    31b2:	98 e7       	ldi	r25, 0x78	; 120
    31b4:	80 93 1d 39 	sts	0x391D, r24	; 0x80391d <reactStr+0x2>
    31b8:	90 93 1e 39 	sts	0x391E, r25	; 0x80391e <reactStr+0x3>
    reactStr[1][number]=length;
    31bc:	86 e1       	ldi	r24, 0x16	; 22
    31be:	90 e0       	ldi	r25, 0x00	; 0
    31c0:	5e c2       	rjmp	.+1212   	; 0x367e <ProcessInput+0xb36>
                } else SetResponse(elements++, A_NOSUCHOBJECT, L_NOSUCHOBJECT, TEASER);
            }
        } else

        //Drop item if in inventory
        if (data[0] == 'd') {
    31c2:	84 36       	cpi	r24, 0x64	; 100
    31c4:	d9 f4       	brne	.+54     	; 0x31fc <ProcessInput+0x6b4>
            if ((inventory[0] == 0)&&(inventory[1] == 0)){
    31c6:	80 91 3e 38 	lds	r24, 0x383E	; 0x80383e <inventory>
    31ca:	90 91 3f 38 	lds	r25, 0x383F	; 0x80383f <inventory+0x1>
    31ce:	00 97       	sbiw	r24, 0x00	; 0
    31d0:	09 f0       	breq	.+2      	; 0x31d4 <ProcessInput+0x68c>
    31d2:	ec c4       	rjmp	.+2520   	; 0x3bac <ProcessInput+0x1064>
    31d4:	80 91 40 38 	lds	r24, 0x3840	; 0x803840 <inventory+0x2>
    31d8:	90 91 41 38 	lds	r25, 0x3841	; 0x803841 <inventory+0x3>
    31dc:	89 2b       	or	r24, r25
    31de:	49 f4       	brne	.+18     	; 0x31f2 <ProcessInput+0x6aa>
    return 0;
}

//
void SetResponse(uint8_t number, uint16_t address, uint16_t length, uint8_t type){
    reactStr[0][number]=address;
    31e0:	83 ee       	ldi	r24, 0xE3	; 227
    31e2:	97 e7       	ldi	r25, 0x77	; 119
    31e4:	80 93 1d 39 	sts	0x391D, r24	; 0x80391d <reactStr+0x2>
    31e8:	90 93 1e 39 	sts	0x391E, r25	; 0x80391e <reactStr+0x3>
    reactStr[1][number]=length;
    31ec:	86 e2       	ldi	r24, 0x26	; 38
    31ee:	90 e0       	ldi	r25, 0x00	; 0
    31f0:	6f cd       	rjmp	.-1314   	; 0x2cd0 <ProcessInput+0x188>

        //Drop item if in inventory
        if (data[0] == 'd') {
            if ((inventory[0] == 0)&&(inventory[1] == 0)){
                SetResponse(elements++, A_EMPTYHANDS, L_EMPTYHANDS, TEASER);
            } else if (inputLen != 2) {
    31f2:	b2 e0       	ldi	r27, 0x02	; 2
    31f4:	fb 16       	cp	r15, r27
    31f6:	09 f4       	brne	.+2      	; 0x31fa <ProcessInput+0x6b2>
    31f8:	40 c5       	rjmp	.+2688   	; 0x3c7a <ProcessInput+0x1132>
    31fa:	d5 cc       	rjmp	.-1622   	; 0x2ba6 <ProcessInput+0x5e>
                    if (x) SetResponse(elements++, A_NOTCARRYING, L_NOTCARRYING, TEASER);
                }
            }

        //Inventory list
        } else if (data[0] == 'i') {
    31fc:	89 36       	cpi	r24, 0x69	; 105
    31fe:	09 f0       	breq	.+2      	; 0x3202 <ProcessInput+0x6ba>
    3200:	7b c0       	rjmp	.+246    	; 0x32f8 <ProcessInput+0x7b0>
            if ((inventory[0] == 0)&&(inventory[1] == 0)){
    3202:	80 91 3e 38 	lds	r24, 0x383E	; 0x80383e <inventory>
    3206:	90 91 3f 38 	lds	r25, 0x383F	; 0x80383f <inventory+0x1>
    320a:	89 2b       	or	r24, r25
    320c:	31 f4       	brne	.+12     	; 0x321a <ProcessInput+0x6d2>
    320e:	80 91 40 38 	lds	r24, 0x3840	; 0x803840 <inventory+0x2>
    3212:	90 91 41 38 	lds	r25, 0x3841	; 0x803841 <inventory+0x3>
    3216:	89 2b       	or	r24, r25
    3218:	19 f3       	breq	.-58     	; 0x31e0 <ProcessInput+0x698>
    return 0;
}

//
void SetResponse(uint8_t number, uint16_t address, uint16_t length, uint8_t type){
    reactStr[0][number]=address;
    321a:	89 e0       	ldi	r24, 0x09	; 9
    321c:	98 e7       	ldi	r25, 0x78	; 120
    321e:	80 93 1d 39 	sts	0x391D, r24	; 0x80391d <reactStr+0x2>
    3222:	90 93 1e 39 	sts	0x391E, r25	; 0x80391e <reactStr+0x3>
    reactStr[1][number]=length;
    3226:	86 e1       	ldi	r24, 0x16	; 22
    3228:	90 e0       	ldi	r25, 0x00	; 0
    322a:	80 93 5d 39 	sts	0x395D, r24	; 0x80395d <reactStr+0x42>
    322e:	90 93 5e 39 	sts	0x395E, r25	; 0x80395e <reactStr+0x43>
    reactStr[2][number]=type;
    3232:	81 e0       	ldi	r24, 0x01	; 1
    3234:	90 e0       	ldi	r25, 0x00	; 0
    3236:	80 93 9d 39 	sts	0x399D, r24	; 0x80399d <reactStr+0x82>
    323a:	90 93 9e 39 	sts	0x399E, r25	; 0x80399e <reactStr+0x83>
    323e:	2e e3       	ldi	r18, 0x3E	; 62
    3240:	e2 2e       	mov	r14, r18
    3242:	28 e3       	ldi	r18, 0x38	; 56
    3244:	f2 2e       	mov	r15, r18
    3246:	32 e4       	ldi	r19, 0x42	; 66
    3248:	63 2e       	mov	r6, r19
    324a:	38 e3       	ldi	r19, 0x38	; 56
    324c:	73 2e       	mov	r7, r19
        //Inventory list
        } else if (data[0] == 'i') {
            if ((inventory[0] == 0)&&(inventory[1] == 0)){
                SetResponse(elements++, A_EMPTYHANDS, L_EMPTYHANDS, TEASER);
            } else {
                SetResponse(elements++, A_NOWCARRING, L_NOWCARRING, TEASER);
    324e:	42 e0       	ldi	r20, 0x02	; 2
    3250:	54 2e       	mov	r5, r20
    return 0;
}

//
void SetResponse(uint8_t number, uint16_t address, uint16_t length, uint8_t type){
    reactStr[0][number]=address;
    3252:	59 e5       	ldi	r21, 0x59	; 89
    3254:	c5 2e       	mov	r12, r21
    3256:	5a e7       	ldi	r21, 0x7A	; 122
    3258:	d5 2e       	mov	r13, r21
    reactStr[1][number]=length;
    325a:	62 e0       	ldi	r22, 0x02	; 2
    325c:	a6 2e       	mov	r10, r22
    325e:	b1 2c       	mov	r11, r1
    reactStr[2][number]=type;
    3260:	88 24       	eor	r8, r8
    3262:	83 94       	inc	r8
    3264:	91 2c       	mov	r9, r1
            } else {
                SetResponse(elements++, A_NOWCARRING, L_NOWCARRING, TEASER);
                //SetResponse(elements++, A_SPACE, L_SPACE, TEASER);
                
                for (uint8_t x=0; x<2; ++x) {
                    if (inventory[x]) {
    3266:	d7 01       	movw	r26, r14
    3268:	8d 91       	ld	r24, X+
    326a:	9d 91       	ld	r25, X+
    326c:	7d 01       	movw	r14, r26
    326e:	00 97       	sbiw	r24, 0x00	; 0
    3270:	d9 f1       	breq	.+118    	; 0x32e8 <ProcessInput+0x7a0>
                        PopulateObject(inventory[x], &actObj1);
    3272:	6a ed       	ldi	r22, 0xDA	; 218
    3274:	78 e3       	ldi	r23, 0x38	; 56
    3276:	0e 94 ea 10 	call	0x21d4	; 0x21d4 <PopulateObject>
                        SetResponse(elements++, actObj1.addrStr[NAME], actObj1.lenStr[NAME], GAME);
    327a:	80 91 f4 38 	lds	r24, 0x38F4	; 0x8038f4 <actObj1.3995+0x1a>
    327e:	90 91 f5 38 	lds	r25, 0x38F5	; 0x8038f5 <actObj1.3995+0x1b>
    return 0;
}

//
void SetResponse(uint8_t number, uint16_t address, uint16_t length, uint8_t type){
    reactStr[0][number]=address;
    3282:	e5 2d       	mov	r30, r5
    3284:	f0 e0       	ldi	r31, 0x00	; 0
    3286:	df 01       	movw	r26, r30
    3288:	aa 0f       	add	r26, r26
    328a:	bb 1f       	adc	r27, r27
    328c:	a5 5e       	subi	r26, 0xE5	; 229
    328e:	b6 4c       	sbci	r27, 0xC6	; 198
    3290:	20 91 e6 38 	lds	r18, 0x38E6	; 0x8038e6 <actObj1.3995+0xc>
    3294:	30 91 e7 38 	lds	r19, 0x38E7	; 0x8038e7 <actObj1.3995+0xd>
    3298:	2d 93       	st	X+, r18
    329a:	3c 93       	st	X, r19
    reactStr[1][number]=length;
    329c:	df 01       	movw	r26, r30
    329e:	aa 0f       	add	r26, r26
    32a0:	bb 1f       	adc	r27, r27
    32a2:	a5 5a       	subi	r26, 0xA5	; 165
    32a4:	b6 4c       	sbci	r27, 0xC6	; 198
    32a6:	8d 93       	st	X+, r24
    32a8:	9c 93       	st	X, r25
    reactStr[2][number]=type;
    32aa:	ee 0f       	add	r30, r30
    32ac:	ff 1f       	adc	r31, r31
    32ae:	e5 56       	subi	r30, 0x65	; 101
    32b0:	f6 4c       	sbci	r31, 0xC6	; 198
    32b2:	10 82       	st	Z, r1
    32b4:	11 82       	std	Z+1, r1	; 0x01
    return 0;
}

//
void SetResponse(uint8_t number, uint16_t address, uint16_t length, uint8_t type){
    reactStr[0][number]=address;
    32b6:	e1 e0       	ldi	r30, 0x01	; 1
    32b8:	e5 0d       	add	r30, r5
    32ba:	f0 e0       	ldi	r31, 0x00	; 0
    32bc:	53 94       	inc	r5
    32be:	53 94       	inc	r5
    32c0:	df 01       	movw	r26, r30
    32c2:	aa 0f       	add	r26, r26
    32c4:	bb 1f       	adc	r27, r27
    32c6:	a5 5e       	subi	r26, 0xE5	; 229
    32c8:	b6 4c       	sbci	r27, 0xC6	; 198
    32ca:	cd 92       	st	X+, r12
    32cc:	dc 92       	st	X, r13
    reactStr[1][number]=length;
    32ce:	df 01       	movw	r26, r30
    32d0:	aa 0f       	add	r26, r26
    32d2:	bb 1f       	adc	r27, r27
    32d4:	a5 5a       	subi	r26, 0xA5	; 165
    32d6:	b6 4c       	sbci	r27, 0xC6	; 198
    32d8:	ad 92       	st	X+, r10
    32da:	bc 92       	st	X, r11
    reactStr[2][number]=type;
    32dc:	ee 0f       	add	r30, r30
    32de:	ff 1f       	adc	r31, r31
    32e0:	e5 56       	subi	r30, 0x65	; 101
    32e2:	f6 4c       	sbci	r31, 0xC6	; 198
    32e4:	80 82       	st	Z, r8
    32e6:	91 82       	std	Z+1, r9	; 0x01
                SetResponse(elements++, A_EMPTYHANDS, L_EMPTYHANDS, TEASER);
            } else {
                SetResponse(elements++, A_NOWCARRING, L_NOWCARRING, TEASER);
                //SetResponse(elements++, A_SPACE, L_SPACE, TEASER);
                
                for (uint8_t x=0; x<2; ++x) {
    32e8:	6e 14       	cp	r6, r14
    32ea:	7f 04       	cpc	r7, r15
    32ec:	09 f0       	breq	.+2      	; 0x32f0 <ProcessInput+0x7a8>
    32ee:	bb cf       	rjmp	.-138    	; 0x3266 <ProcessInput+0x71e>
                        SetResponse(elements++, actObj1.addrStr[NAME], actObj1.lenStr[NAME], GAME);
                        SetResponse(elements++, A_COMMA, L_COMMA, TEASER);
                        //SetResponse(elements++, A_SPACE, L_SPACE, TEASER);
                    }
                }
                elements -= 1;
    32f0:	77 24       	eor	r7, r7
    32f2:	7a 94       	dec	r7
    32f4:	75 0c       	add	r7, r5
    32f6:	25 c4       	rjmp	.+2122   	; 0x3b42 <ProcessInput+0xffa>
            }            
        
        //Talk, use, give, read
        } else if ((data[0] == 't')||(data[0] == 'u')||(data[0] == 'g')||(data[0] == 'r')) {
    32f8:	9c e8       	ldi	r25, 0x8C	; 140
    32fa:	98 0f       	add	r25, r24
    32fc:	92 30       	cpi	r25, 0x02	; 2
    32fe:	28 f0       	brcs	.+10     	; 0x330a <ProcessInput+0x7c2>
    3300:	87 36       	cpi	r24, 0x67	; 103
    3302:	19 f0       	breq	.+6      	; 0x330a <ProcessInput+0x7c2>
    3304:	82 37       	cpi	r24, 0x72	; 114
    3306:	09 f0       	breq	.+2      	; 0x330a <ProcessInput+0x7c2>
    3308:	d7 c2       	rjmp	.+1454   	; 0x38b8 <ProcessInput+0xd70>
            if ((inputLen<2)||(inputLen>3)) {
    330a:	8e ef       	ldi	r24, 0xFE	; 254
    330c:	8f 0d       	add	r24, r15
    330e:	82 30       	cpi	r24, 0x02	; 2
    3310:	08 f0       	brcs	.+2      	; 0x3314 <ProcessInput+0x7cc>
    3312:	49 cc       	rjmp	.-1902   	; 0x2ba6 <ProcessInput+0x5e>
                SetResponse(elements++, A_NOTPOSSIBLE, L_NOTPOSSIBLE, TEASER);                
            
            //Check for visible person or object first
            } else {
                route[currDepth+1] = FindChild(route[currDepth], data[inputLen-1], 0);
    3314:	e0 91 2c 38 	lds	r30, 0x382C	; 0x80382c <currDepth>
    3318:	ce 2e       	mov	r12, r30
    331a:	d1 2c       	mov	r13, r1
    331c:	d8 01       	movw	r26, r16
    331e:	af 0d       	add	r26, r15
    3320:	b1 1d       	adc	r27, r1
    3322:	11 97       	sbiw	r26, 0x01	; 1
    3324:	f6 01       	movw	r30, r12
    3326:	ee 0f       	add	r30, r30
    3328:	ff 1f       	adc	r31, r31
    332a:	e5 52       	subi	r30, 0x25	; 37
    332c:	f6 4c       	sbci	r31, 0xC6	; 198
    332e:	40 e0       	ldi	r20, 0x00	; 0
    3330:	50 e0       	ldi	r21, 0x00	; 0
    3332:	6c 91       	ld	r22, X
    3334:	80 81       	ld	r24, Z
    3336:	91 81       	ldd	r25, Z+1	; 0x01
    3338:	18 d8       	rcall	.-4048   	; 0x236a <FindChild>
    333a:	f6 01       	movw	r30, r12
    333c:	ee 0f       	add	r30, r30
    333e:	ff 1f       	adc	r31, r31
    3340:	e3 52       	subi	r30, 0x23	; 35
    3342:	f6 4c       	sbci	r31, 0xC6	; 198
    3344:	80 83       	st	Z, r24
    3346:	91 83       	std	Z+1, r25	; 0x01
                if (route[currDepth+1]) {
    3348:	e0 91 2c 38 	lds	r30, 0x382C	; 0x80382c <currDepth>
    334c:	f0 e0       	ldi	r31, 0x00	; 0
    334e:	ee 0f       	add	r30, r30
    3350:	ff 1f       	adc	r31, r31
    3352:	e3 52       	subi	r30, 0x23	; 35
    3354:	f6 4c       	sbci	r31, 0xC6	; 198
    3356:	80 81       	ld	r24, Z
    3358:	91 81       	ldd	r25, Z+1	; 0x01
    335a:	00 97       	sbiw	r24, 0x00	; 0
    335c:	09 f4       	brne	.+2      	; 0x3360 <ProcessInput+0x818>
    335e:	9a c2       	rjmp	.+1332   	; 0x3894 <ProcessInput+0xd4c>
                    
                    //Give item to person / use item on object 
                    if ((inputLen == 3)&&((data[0] == 'u')||(data[0] == 'g'))) {
    3360:	b3 e0       	ldi	r27, 0x03	; 3
    3362:	fb 12       	cpse	r15, r27
    3364:	78 c1       	rjmp	.+752    	; 0x3656 <ProcessInput+0xb0e>
    3366:	f8 01       	movw	r30, r16
    3368:	20 81       	ld	r18, Z
    336a:	25 37       	cpi	r18, 0x75	; 117
    336c:	19 f0       	breq	.+6      	; 0x3374 <ProcessInput+0x82c>
    336e:	27 36       	cpi	r18, 0x67	; 103
    3370:	09 f0       	breq	.+2      	; 0x3374 <ProcessInput+0x82c>
    3372:	71 c1       	rjmp	.+738    	; 0x3656 <ProcessInput+0xb0e>
    3374:	61 2c       	mov	r6, r1
    3376:	77 24       	eor	r7, r7
    3378:	73 94       	inc	r7
    return 0;
}

//
void SetResponse(uint8_t number, uint16_t address, uint16_t length, uint8_t type){
    reactStr[0][number]=address;
    337a:	53 e6       	ldi	r21, 0x63	; 99
    337c:	c5 2e       	mov	r12, r21
    337e:	59 e7       	ldi	r21, 0x79	; 121
    3380:	d5 2e       	mov	r13, r21
    reactStr[1][number]=length;
    3382:	61 e2       	ldi	r22, 0x21	; 33
    3384:	a6 2e       	mov	r10, r22
    3386:	b1 2c       	mov	r11, r1
    reactStr[2][number]=type;
    3388:	88 24       	eor	r8, r8
    338a:	83 94       	inc	r8
    338c:	91 2c       	mov	r9, r1
                if (route[currDepth+1]) {
                    
                    //Give item to person / use item on object 
                    if ((inputLen == 3)&&((data[0] == 'u')||(data[0] == 'g'))) {
                        for (uint8_t x=0; x<2; x++) {
                            if (inventory[x]) { 
    338e:	e6 2c       	mov	r14, r6
    3390:	f1 2c       	mov	r15, r1
    3392:	c7 01       	movw	r24, r14
    3394:	88 0f       	add	r24, r24
    3396:	99 1f       	adc	r25, r25
    3398:	9c 01       	movw	r18, r24
    339a:	22 5c       	subi	r18, 0xC2	; 194
    339c:	37 4c       	sbci	r19, 0xC7	; 199
    339e:	79 01       	movw	r14, r18
    33a0:	d9 01       	movw	r26, r18
    33a2:	8d 91       	ld	r24, X+
    33a4:	9c 91       	ld	r25, X
    33a6:	00 97       	sbiw	r24, 0x00	; 0
    33a8:	81 f0       	breq	.+32     	; 0x33ca <ProcessInput+0x882>
                                if (CheckLetter(inventory[x], data[1])) {
    33aa:	f8 01       	movw	r30, r16
    33ac:	61 81       	ldd	r22, Z+1	; 0x01
    33ae:	0e 94 61 11 	call	0x22c2	; 0x22c2 <CheckLetter>
    33b2:	88 23       	and	r24, r24
    33b4:	51 f0       	breq	.+20     	; 0x33ca <ProcessInput+0x882>
                                    PopulateObject(inventory[x], &actObj2);
    33b6:	6f ea       	ldi	r22, 0xAF	; 175
    33b8:	78 e3       	ldi	r23, 0x38	; 56
    33ba:	d7 01       	movw	r26, r14
    33bc:	8d 91       	ld	r24, X+
    33be:	9c 91       	ld	r25, X
    33c0:	0e 94 ea 10 	call	0x21d4	; 0x21d4 <PopulateObject>
                                    x = 2;
    33c4:	32 e0       	ldi	r19, 0x02	; 2
    33c6:	63 2e       	mov	r6, r19
    33c8:	1e c0       	rjmp	.+60     	; 0x3406 <ProcessInput+0x8be>
                                }
                            }
                            if (x == 1) { 
    33ca:	b1 e0       	ldi	r27, 0x01	; 1
    33cc:	6b 12       	cpse	r6, r27
    33ce:	1a c0       	rjmp	.+52     	; 0x3404 <ProcessInput+0x8bc>
    return 0;
}

//
void SetResponse(uint8_t number, uint16_t address, uint16_t length, uint8_t type){
    reactStr[0][number]=address;
    33d0:	e7 2d       	mov	r30, r7
    33d2:	f0 e0       	ldi	r31, 0x00	; 0
    33d4:	df 01       	movw	r26, r30
    33d6:	aa 0f       	add	r26, r26
    33d8:	bb 1f       	adc	r27, r27
    33da:	a5 5e       	subi	r26, 0xE5	; 229
    33dc:	b6 4c       	sbci	r27, 0xC6	; 198
    33de:	cd 92       	st	X+, r12
    33e0:	dc 92       	st	X, r13
    reactStr[1][number]=length;
    33e2:	df 01       	movw	r26, r30
    33e4:	aa 0f       	add	r26, r26
    33e6:	bb 1f       	adc	r27, r27
    33e8:	a5 5a       	subi	r26, 0xA5	; 165
    33ea:	b6 4c       	sbci	r27, 0xC6	; 198
    33ec:	ad 92       	st	X+, r10
    33ee:	bc 92       	st	X, r11
    reactStr[2][number]=type;
    33f0:	ee 0f       	add	r30, r30
    33f2:	ff 1f       	adc	r31, r31
    33f4:	e5 56       	subi	r30, 0x65	; 101
    33f6:	f6 4c       	sbci	r31, 0xC6	; 198
    33f8:	80 82       	st	Z, r8
    33fa:	91 82       	std	Z+1, r9	; 0x01
                                    x = 2;
                                }
                            }
                            if (x == 1) { 
                                SetResponse(elements++, A_NOTCARRYING, L_NOTCARRYING, TEASER);
                                data[0] = 0;
    33fc:	f8 01       	movw	r30, r16
    33fe:	10 82       	st	Z, r1
                                    PopulateObject(inventory[x], &actObj2);
                                    x = 2;
                                }
                            }
                            if (x == 1) { 
                                SetResponse(elements++, A_NOTCARRYING, L_NOTCARRYING, TEASER);
    3400:	73 94       	inc	r7
    3402:	01 c0       	rjmp	.+2      	; 0x3406 <ProcessInput+0x8be>
    3404:	61 2c       	mov	r6, r1
                route[currDepth+1] = FindChild(route[currDepth], data[inputLen-1], 0);
                if (route[currDepth+1]) {
                    
                    //Give item to person / use item on object 
                    if ((inputLen == 3)&&((data[0] == 'u')||(data[0] == 'g'))) {
                        for (uint8_t x=0; x<2; x++) {
    3406:	63 94       	inc	r6
    3408:	f1 e0       	ldi	r31, 0x01	; 1
    340a:	6f 16       	cp	r6, r31
    340c:	09 f4       	brne	.+2      	; 0x3410 <ProcessInput+0x8c8>
    340e:	bf cf       	rjmp	.-130    	; 0x338e <ProcessInput+0x846>
                                data[0] = 0;
                            }
                        }

                        //Both the item and person/object are found, check if action is legit
                        if (data[0]){
    3410:	d8 01       	movw	r26, r16
    3412:	8c 91       	ld	r24, X
    3414:	88 23       	and	r24, r24
    3416:	09 f4       	brne	.+2      	; 0x341a <ProcessInput+0x8d2>
    3418:	94 c3       	rjmp	.+1832   	; 0x3b42 <ProcessInput+0xffa>
                            PopulateObject(route[currDepth+1], &actObj1);
    341a:	e0 91 2c 38 	lds	r30, 0x382C	; 0x80382c <currDepth>
    341e:	f0 e0       	ldi	r31, 0x00	; 0
    3420:	ee 0f       	add	r30, r30
    3422:	ff 1f       	adc	r31, r31
    3424:	e3 52       	subi	r30, 0x23	; 35
    3426:	f6 4c       	sbci	r31, 0xC6	; 198
    3428:	6a ed       	ldi	r22, 0xDA	; 218
    342a:	78 e3       	ldi	r23, 0x38	; 56
    342c:	80 81       	ld	r24, Z
    342e:	91 81       	ldd	r25, Z+1	; 0x01
    3430:	0e 94 ea 10 	call	0x21d4	; 0x21d4 <PopulateObject>

                            //Special game
                            if (actObj1.lenStr[ACTION_STR1] == 1) {
    3434:	e0 90 f8 38 	lds	r14, 0x38F8	; 0x8038f8 <actObj1.3995+0x1e>
    3438:	f0 90 f9 38 	lds	r15, 0x38F9	; 0x8038f9 <actObj1.3995+0x1f>
    343c:	b1 e0       	ldi	r27, 0x01	; 1
    343e:	eb 16       	cp	r14, r27
    3440:	f1 04       	cpc	r15, r1
    3442:	09 f0       	breq	.+2      	; 0x3446 <ProcessInput+0x8fe>
    3444:	9a c0       	rjmp	.+308    	; 0x357a <ProcessInput+0xa32>
                                ExtEERead(actObj1.addrStr[ACTION_STR1], 1, GAME, &data[2]);
    3446:	98 01       	movw	r18, r16
    3448:	2e 5f       	subi	r18, 0xFE	; 254
    344a:	3f 4f       	sbci	r19, 0xFF	; 255
    344c:	40 e0       	ldi	r20, 0x00	; 0
    344e:	61 e0       	ldi	r22, 0x01	; 1
    3450:	80 91 ea 38 	lds	r24, 0x38EA	; 0x8038ea <actObj1.3995+0x10>
    3454:	90 91 eb 38 	lds	r25, 0x38EB	; 0x8038eb <actObj1.3995+0x11>
    3458:	0e 94 da 0f 	call	0x1fb4	; 0x1fb4 <ExtEERead>
                                if (data[2] == '1') {
    345c:	f8 01       	movw	r30, r16
    345e:	42 81       	ldd	r20, Z+2	; 0x02
    3460:	21 e0       	ldi	r18, 0x01	; 1
    3462:	27 0d       	add	r18, r7
    3464:	87 2d       	mov	r24, r7
    3466:	90 e0       	ldi	r25, 0x00	; 0
    3468:	41 33       	cpi	r20, 0x31	; 49
    346a:	09 f0       	breq	.+2      	; 0x346e <ProcessInput+0x926>
    346c:	6b c0       	rjmp	.+214    	; 0x3544 <ProcessInput+0x9fc>
                                    uint8_t item = actObj2.byteField[ITEM_NR];
    346e:	30 91 ba 38 	lds	r19, 0x38BA	; 0x8038ba <actObj2.3996+0xb>
                                    if ((item < 31)||(item > 34)) {
    3472:	51 ee       	ldi	r21, 0xE1	; 225
    3474:	53 0f       	add	r21, r19
    return 0;
}

//
void SetResponse(uint8_t number, uint16_t address, uint16_t length, uint8_t type){
    reactStr[0][number]=address;
    3476:	fc 01       	movw	r30, r24
    3478:	ee 0f       	add	r30, r30
    347a:	ff 1f       	adc	r31, r31
    347c:	e5 5e       	subi	r30, 0xE5	; 229
    347e:	f6 4c       	sbci	r31, 0xC6	; 198
                            //Special game
                            if (actObj1.lenStr[ACTION_STR1] == 1) {
                                ExtEERead(actObj1.addrStr[ACTION_STR1], 1, GAME, &data[2]);
                                if (data[2] == '1') {
                                    uint8_t item = actObj2.byteField[ITEM_NR];
                                    if ((item < 31)||(item > 34)) {
    3480:	54 30       	cpi	r21, 0x04	; 4
    3482:	60 f0       	brcs	.+24     	; 0x349c <ProcessInput+0x954>
    return 0;
}

//
void SetResponse(uint8_t number, uint16_t address, uint16_t length, uint8_t type){
    reactStr[0][number]=address;
    3484:	43 e0       	ldi	r20, 0x03	; 3
    3486:	59 e7       	ldi	r21, 0x79	; 121
    3488:	40 83       	st	Z, r20
    348a:	51 83       	std	Z+1, r21	; 0x01
    reactStr[1][number]=length;
    348c:	fc 01       	movw	r30, r24
    348e:	ee 0f       	add	r30, r30
    3490:	ff 1f       	adc	r31, r31
    3492:	e5 5a       	subi	r30, 0xA5	; 165
    3494:	f6 4c       	sbci	r31, 0xC6	; 198
    3496:	4a e1       	ldi	r20, 0x1A	; 26
    3498:	50 e0       	ldi	r21, 0x00	; 0
    349a:	64 c0       	rjmp	.+200    	; 0x3564 <ProcessInput+0xa1c>
    return 0;
}

//
void SetResponse(uint8_t number, uint16_t address, uint16_t length, uint8_t type){
    reactStr[0][number]=address;
    349c:	6d e8       	ldi	r22, 0x8D	; 141
    349e:	75 e7       	ldi	r23, 0x75	; 117
    34a0:	60 83       	st	Z, r22
    34a2:	71 83       	std	Z+1, r23	; 0x01
    reactStr[1][number]=length;
    34a4:	fc 01       	movw	r30, r24
    34a6:	ee 0f       	add	r30, r30
    34a8:	ff 1f       	adc	r31, r31
    34aa:	e5 5a       	subi	r30, 0xA5	; 165
    34ac:	f6 4c       	sbci	r31, 0xC6	; 198
    34ae:	62 eb       	ldi	r22, 0xB2	; 178
    34b0:	70 e0       	ldi	r23, 0x00	; 0
    34b2:	60 83       	st	Z, r22
    34b4:	71 83       	std	Z+1, r23	; 0x01
    reactStr[2][number]=type;
    34b6:	88 0f       	add	r24, r24
    34b8:	99 1f       	adc	r25, r25
    34ba:	fc 01       	movw	r30, r24
    34bc:	e5 56       	subi	r30, 0x65	; 101
    34be:	f6 4c       	sbci	r31, 0xC6	; 198
    34c0:	e0 82       	st	Z, r14
    34c2:	f1 82       	std	Z+1, r15	; 0x01
    return 0;
}

//
void SetResponse(uint8_t number, uint16_t address, uint16_t length, uint8_t type){
    reactStr[0][number]=address;
    34c4:	82 2f       	mov	r24, r18
    34c6:	90 e0       	ldi	r25, 0x00	; 0
    34c8:	fc 01       	movw	r30, r24
    34ca:	ee 0f       	add	r30, r30
    34cc:	ff 1f       	adc	r31, r31
    34ce:	e5 5e       	subi	r30, 0xE5	; 229
    34d0:	f6 4c       	sbci	r31, 0xC6	; 198
    34d2:	6b e5       	ldi	r22, 0x5B	; 91
    34d4:	7a e7       	ldi	r23, 0x7A	; 122
    34d6:	60 83       	st	Z, r22
    34d8:	71 83       	std	Z+1, r23	; 0x01
    reactStr[1][number]=length;
    34da:	fc 01       	movw	r30, r24
    34dc:	ee 0f       	add	r30, r30
    34de:	ff 1f       	adc	r31, r31
    34e0:	e5 5a       	subi	r30, 0xA5	; 165
    34e2:	f6 4c       	sbci	r31, 0xC6	; 198
    34e4:	62 e0       	ldi	r22, 0x02	; 2
    34e6:	70 e0       	ldi	r23, 0x00	; 0
    34e8:	60 83       	st	Z, r22
    34ea:	71 83       	std	Z+1, r23	; 0x01
    reactStr[2][number]=type;
    34ec:	88 0f       	add	r24, r24
    34ee:	99 1f       	adc	r25, r25
    34f0:	fc 01       	movw	r30, r24
    34f2:	e5 56       	subi	r30, 0x65	; 101
    34f4:	f6 4c       	sbci	r31, 0xC6	; 198
    34f6:	e0 82       	st	Z, r14
    34f8:	f1 82       	std	Z+1, r15	; 0x01
    return 0;
}

//
void SetResponse(uint8_t number, uint16_t address, uint16_t length, uint8_t type){
    reactStr[0][number]=address;
    34fa:	82 e0       	ldi	r24, 0x02	; 2
    34fc:	87 0d       	add	r24, r7
    34fe:	90 e0       	ldi	r25, 0x00	; 0
    3500:	f3 e0       	ldi	r31, 0x03	; 3
    3502:	7f 0e       	add	r7, r31
    3504:	fc 01       	movw	r30, r24
    3506:	ee 0f       	add	r30, r30
    3508:	ff 1f       	adc	r31, r31
    350a:	e5 5e       	subi	r30, 0xE5	; 229
    350c:	f6 4c       	sbci	r31, 0xC6	; 198
    350e:	6f ea       	ldi	r22, 0xAF	; 175
    3510:	78 e7       	ldi	r23, 0x78	; 120
    3512:	60 83       	st	Z, r22
    3514:	71 83       	std	Z+1, r23	; 0x01
    reactStr[1][number]=length;
    3516:	fc 01       	movw	r30, r24
    3518:	ee 0f       	add	r30, r30
    351a:	ff 1f       	adc	r31, r31
    351c:	e5 5a       	subi	r30, 0xA5	; 165
    351e:	f6 4c       	sbci	r31, 0xC6	; 198
    3520:	62 e1       	ldi	r22, 0x12	; 18
    3522:	70 e0       	ldi	r23, 0x00	; 0
    3524:	60 83       	st	Z, r22
    3526:	71 83       	std	Z+1, r23	; 0x01
    reactStr[2][number]=type;
    3528:	88 0f       	add	r24, r24
    352a:	99 1f       	adc	r25, r25
    352c:	fc 01       	movw	r30, r24
    352e:	e5 56       	subi	r30, 0x65	; 101
    3530:	f6 4c       	sbci	r31, 0xC6	; 198
    3532:	e0 82       	st	Z, r14
    3534:	f1 82       	std	Z+1, r15	; 0x01
                                        SetResponse(elements++, A_CANTUSE, L_CANTUSE, TEASER);
                                    } else {
                                        SetResponse(elements++, A_PRIEST, L_PRIEST, TEASER);
                                        SetResponse(elements++, A_LF, 2, TEASER);
                                        SetResponse(elements++, A_RESPONSE, L_RESPONSE, TEASER);
                                        specialInput[0] = '1';
    3536:	40 93 0a 39 	sts	0x390A, r20	; 0x80390a <specialInput>
                                        specialInput[1] = item;
    353a:	30 93 0b 39 	sts	0x390B, r19	; 0x80390b <specialInput+0x1>
                                        specialInput[2] = 0;
    353e:	10 92 0c 39 	sts	0x390C, r1	; 0x80390c <specialInput+0x2>
    3542:	ff c2       	rjmp	.+1534   	; 0x3b42 <ProcessInput+0xffa>
    return 0;
}

//
void SetResponse(uint8_t number, uint16_t address, uint16_t length, uint8_t type){
    reactStr[0][number]=address;
    3544:	fc 01       	movw	r30, r24
    3546:	ee 0f       	add	r30, r30
    3548:	ff 1f       	adc	r31, r31
    354a:	e5 5e       	subi	r30, 0xE5	; 229
    354c:	f6 4c       	sbci	r31, 0xC6	; 198
    354e:	4f e3       	ldi	r20, 0x3F	; 63
    3550:	56 e7       	ldi	r21, 0x76	; 118
    3552:	40 83       	st	Z, r20
    3554:	51 83       	std	Z+1, r21	; 0x01
    reactStr[1][number]=length;
    3556:	fc 01       	movw	r30, r24
    3558:	ee 0f       	add	r30, r30
    355a:	ff 1f       	adc	r31, r31
    355c:	e5 5a       	subi	r30, 0xA5	; 165
    355e:	f6 4c       	sbci	r31, 0xC6	; 198
    3560:	42 e4       	ldi	r20, 0x42	; 66
    3562:	50 e0       	ldi	r21, 0x00	; 0
    3564:	40 83       	st	Z, r20
    3566:	51 83       	std	Z+1, r21	; 0x01
    reactStr[2][number]=type;
    3568:	88 0f       	add	r24, r24
    356a:	99 1f       	adc	r25, r25
    356c:	fc 01       	movw	r30, r24
    356e:	e5 56       	subi	r30, 0x65	; 101
    3570:	f6 4c       	sbci	r31, 0xC6	; 198
    3572:	e0 82       	st	Z, r14
    3574:	f1 82       	std	Z+1, r15	; 0x01
                                        specialInput[2] = 0;
                                    }

                                //There should not be another special
                                } else {
                                    SetResponse(elements++, A_ERROR, L_ERROR, TEASER);
    3576:	72 2e       	mov	r7, r18
    3578:	e4 c2       	rjmp	.+1480   	; 0x3b42 <ProcessInput+0xffa>
                                }

                            //Normal "use ... on ..." or "give ... to ..." action
                            } else if (actObj1.byteField[ACTION_ITEM] == actObj2.byteField[ITEM_NR]) {
    357a:	90 91 e3 38 	lds	r25, 0x38E3	; 0x8038e3 <actObj1.3995+0x9>
    357e:	80 91 ba 38 	lds	r24, 0x38BA	; 0x8038ba <actObj2.3996+0xb>
    3582:	98 13       	cpse	r25, r24
    3584:	2f c0       	rjmp	.+94     	; 0x35e4 <ProcessInput+0xa9c>
                                SetResponse(elements++, actObj1.addrStr[ACTION_MSG], actObj1.lenStr[ACTION_MSG], GAME);
    3586:	20 91 00 39 	lds	r18, 0x3900	; 0x803900 <actObj1.3995+0x26>
    358a:	30 91 01 39 	lds	r19, 0x3901	; 0x803901 <actObj1.3995+0x27>
    358e:	ff 24       	eor	r15, r15
    3590:	f3 94       	inc	r15
    3592:	f7 0c       	add	r15, r7
    return 0;
}

//
void SetResponse(uint8_t number, uint16_t address, uint16_t length, uint8_t type){
    reactStr[0][number]=address;
    3594:	87 2d       	mov	r24, r7
    3596:	90 e0       	ldi	r25, 0x00	; 0
    3598:	fc 01       	movw	r30, r24
    359a:	ee 0f       	add	r30, r30
    359c:	ff 1f       	adc	r31, r31
    359e:	e5 5e       	subi	r30, 0xE5	; 229
    35a0:	f6 4c       	sbci	r31, 0xC6	; 198
    35a2:	40 91 f2 38 	lds	r20, 0x38F2	; 0x8038f2 <actObj1.3995+0x18>
    35a6:	50 91 f3 38 	lds	r21, 0x38F3	; 0x8038f3 <actObj1.3995+0x19>
    35aa:	40 83       	st	Z, r20
    35ac:	51 83       	std	Z+1, r21	; 0x01
    reactStr[1][number]=length;
    35ae:	fc 01       	movw	r30, r24
    35b0:	ee 0f       	add	r30, r30
    35b2:	ff 1f       	adc	r31, r31
    35b4:	e5 5a       	subi	r30, 0xA5	; 165
    35b6:	f6 4c       	sbci	r31, 0xC6	; 198
    35b8:	20 83       	st	Z, r18
    35ba:	31 83       	std	Z+1, r19	; 0x01
    reactStr[2][number]=type;
    35bc:	88 0f       	add	r24, r24
    35be:	99 1f       	adc	r25, r25
    35c0:	fc 01       	movw	r30, r24
    35c2:	e5 56       	subi	r30, 0x65	; 101
    35c4:	f6 4c       	sbci	r31, 0xC6	; 198
    35c6:	10 82       	st	Z, r1
    35c8:	11 82       	std	Z+1, r1	; 0x01
                                }

                            //Normal "use ... on ..." or "give ... to ..." action
                            } else if (actObj1.byteField[ACTION_ITEM] == actObj2.byteField[ITEM_NR]) {
                                SetResponse(elements++, actObj1.addrStr[ACTION_MSG], actObj1.lenStr[ACTION_MSG], GAME);
                                effect = actObj1.effect[2];
    35ca:	80 91 04 39 	lds	r24, 0x3904	; 0x803904 <actObj1.3995+0x2a>
    35ce:	90 e0       	ldi	r25, 0x00	; 0
    35d0:	80 93 3a 38 	sts	0x383A, r24	; 0x80383a <effect>
    35d4:	90 93 3b 38 	sts	0x383B, r25	; 0x80383b <effect+0x1>
                                UpdateState(actObj1.byteField[ACTION_STATE]);
    35d8:	80 91 e4 38 	lds	r24, 0x38E4	; 0x8038e4 <actObj1.3995+0xa>
    35dc:	0e 94 59 0a 	call	0x14b2	; 0x14b2 <UpdateState>
                                    SetResponse(elements++, A_ERROR, L_ERROR, TEASER);
                                }

                            //Normal "use ... on ..." or "give ... to ..." action
                            } else if (actObj1.byteField[ACTION_ITEM] == actObj2.byteField[ITEM_NR]) {
                                SetResponse(elements++, actObj1.addrStr[ACTION_MSG], actObj1.lenStr[ACTION_MSG], GAME);
    35e0:	7f 2c       	mov	r7, r15
    35e2:	af c2       	rjmp	.+1374   	; 0x3b42 <ProcessInput+0xffa>
                                effect = actObj1.effect[2];
                                UpdateState(actObj1.byteField[ACTION_STATE]);
                                
                            } else {
                                if (data[0] == 'u') {
    35e4:	d8 01       	movw	r26, r16
    35e6:	8c 91       	ld	r24, X
    35e8:	85 37       	cpi	r24, 0x75	; 117
    35ea:	99 f4       	brne	.+38     	; 0x3612 <ProcessInput+0xaca>
    return 0;
}

//
void SetResponse(uint8_t number, uint16_t address, uint16_t length, uint8_t type){
    reactStr[0][number]=address;
    35ec:	87 2d       	mov	r24, r7
    35ee:	90 e0       	ldi	r25, 0x00	; 0
    35f0:	fc 01       	movw	r30, r24
    35f2:	ee 0f       	add	r30, r30
    35f4:	ff 1f       	adc	r31, r31
    35f6:	e5 5e       	subi	r30, 0xE5	; 229
    35f8:	f6 4c       	sbci	r31, 0xC6	; 198
    35fa:	23 e0       	ldi	r18, 0x03	; 3
    35fc:	39 e7       	ldi	r19, 0x79	; 121
    35fe:	20 83       	st	Z, r18
    3600:	31 83       	std	Z+1, r19	; 0x01
    reactStr[1][number]=length;
    3602:	fc 01       	movw	r30, r24
    3604:	ee 0f       	add	r30, r30
    3606:	ff 1f       	adc	r31, r31
    3608:	e5 5a       	subi	r30, 0xA5	; 165
    360a:	f6 4c       	sbci	r31, 0xC6	; 198
    360c:	2a e1       	ldi	r18, 0x1A	; 26
    360e:	30 e0       	ldi	r19, 0x00	; 0
    3610:	15 c0       	rjmp	.+42     	; 0x363c <ProcessInput+0xaf4>
                                UpdateState(actObj1.byteField[ACTION_STATE]);
                                
                            } else {
                                if (data[0] == 'u') {
                                    SetResponse(elements++, A_CANTUSE, L_CANTUSE, TEASER);
                                } else if (data[0] == 'g') {
    3612:	87 36       	cpi	r24, 0x67	; 103
    3614:	09 f0       	breq	.+2      	; 0x3618 <ProcessInput+0xad0>
    3616:	95 c2       	rjmp	.+1322   	; 0x3b42 <ProcessInput+0xffa>
    return 0;
}

//
void SetResponse(uint8_t number, uint16_t address, uint16_t length, uint8_t type){
    reactStr[0][number]=address;
    3618:	87 2d       	mov	r24, r7
    361a:	90 e0       	ldi	r25, 0x00	; 0
    361c:	fc 01       	movw	r30, r24
    361e:	ee 0f       	add	r30, r30
    3620:	ff 1f       	adc	r31, r31
    3622:	e5 5e       	subi	r30, 0xE5	; 229
    3624:	f6 4c       	sbci	r31, 0xC6	; 198
    3626:	2c ed       	ldi	r18, 0xDC	; 220
    3628:	36 e7       	ldi	r19, 0x76	; 118
    362a:	20 83       	st	Z, r18
    362c:	31 83       	std	Z+1, r19	; 0x01
    reactStr[1][number]=length;
    362e:	fc 01       	movw	r30, r24
    3630:	ee 0f       	add	r30, r30
    3632:	ff 1f       	adc	r31, r31
    3634:	e5 5a       	subi	r30, 0xA5	; 165
    3636:	f6 4c       	sbci	r31, 0xC6	; 198
    3638:	28 e2       	ldi	r18, 0x28	; 40
    363a:	30 e0       	ldi	r19, 0x00	; 0
    363c:	20 83       	st	Z, r18
    363e:	31 83       	std	Z+1, r19	; 0x01
    reactStr[2][number]=type;
    3640:	88 0f       	add	r24, r24
    3642:	99 1f       	adc	r25, r25
    3644:	fc 01       	movw	r30, r24
    3646:	e5 56       	subi	r30, 0x65	; 101
    3648:	f6 4c       	sbci	r31, 0xC6	; 198
    364a:	81 e0       	ldi	r24, 0x01	; 1
    364c:	90 e0       	ldi	r25, 0x00	; 0
    364e:	80 83       	st	Z, r24
    3650:	91 83       	std	Z+1, r25	; 0x01
                                
                            } else {
                                if (data[0] == 'u') {
                                    SetResponse(elements++, A_CANTUSE, L_CANTUSE, TEASER);
                                } else if (data[0] == 'g') {
                                    SetResponse(elements++, A_CANTGIVE, L_CANTGIVE, TEASER);                                    
    3652:	73 94       	inc	r7
    3654:	76 c2       	rjmp	.+1260   	; 0x3b42 <ProcessInput+0xffa>
                            }
                        }
                    
                    //Talk to person, read or use object (without item)                          
                    } else {
                        PopulateObject(route[currDepth+1], &actObj1);
    3656:	6a ed       	ldi	r22, 0xDA	; 218
    3658:	78 e3       	ldi	r23, 0x38	; 56
    365a:	0e 94 ea 10 	call	0x21d4	; 0x21d4 <PopulateObject>
                        if ((data[0] == 't')&&((actObj1.byteField[ACTION_MASK]&TALK) == 0)) {
    365e:	f8 01       	movw	r30, r16
    3660:	80 81       	ld	r24, Z
    3662:	84 37       	cpi	r24, 0x74	; 116
    3664:	69 f5       	brne	.+90     	; 0x36c0 <ProcessInput+0xb78>
    3666:	80 91 e2 38 	lds	r24, 0x38E2	; 0x8038e2 <actObj1.3995+0x8>
    366a:	83 fd       	sbrc	r24, 3
    366c:	4a c0       	rjmp	.+148    	; 0x3702 <ProcessInput+0xbba>
    return 0;
}

//
void SetResponse(uint8_t number, uint16_t address, uint16_t length, uint8_t type){
    reactStr[0][number]=address;
    366e:	8d e1       	ldi	r24, 0x1D	; 29
    3670:	99 e7       	ldi	r25, 0x79	; 121
    3672:	80 93 1d 39 	sts	0x391D, r24	; 0x80391d <reactStr+0x2>
    3676:	90 93 1e 39 	sts	0x391E, r25	; 0x80391e <reactStr+0x3>
    reactStr[1][number]=length;
    367a:	8e e1       	ldi	r24, 0x1E	; 30
    367c:	90 e0       	ldi	r25, 0x00	; 0
    367e:	80 93 5d 39 	sts	0x395D, r24	; 0x80395d <reactStr+0x42>
    3682:	90 93 5e 39 	sts	0x395E, r25	; 0x80395e <reactStr+0x43>
    reactStr[2][number]=type;
    3686:	81 e0       	ldi	r24, 0x01	; 1
    3688:	90 e0       	ldi	r25, 0x00	; 0
    368a:	80 93 9d 39 	sts	0x399D, r24	; 0x80399d <reactStr+0x82>
    368e:	90 93 9e 39 	sts	0x399E, r25	; 0x80399e <reactStr+0x83>
                    //Talk to person, read or use object (without item)                          
                    } else {
                        PopulateObject(route[currDepth+1], &actObj1);
                        if ((data[0] == 't')&&((actObj1.byteField[ACTION_MASK]&TALK) == 0)) {
                            SetResponse(elements++, A_WHYTALK, L_WHYTALK, TEASER);
                            SetResponse(elements++, actObj1.addrStr[NAME], actObj1.lenStr[NAME], GAME);
    3692:	80 91 f4 38 	lds	r24, 0x38F4	; 0x8038f4 <actObj1.3995+0x1a>
    3696:	90 91 f5 38 	lds	r25, 0x38F5	; 0x8038f5 <actObj1.3995+0x1b>
    return 0;
}

//
void SetResponse(uint8_t number, uint16_t address, uint16_t length, uint8_t type){
    reactStr[0][number]=address;
    369a:	20 91 e6 38 	lds	r18, 0x38E6	; 0x8038e6 <actObj1.3995+0xc>
    369e:	30 91 e7 38 	lds	r19, 0x38E7	; 0x8038e7 <actObj1.3995+0xd>
    36a2:	20 93 1f 39 	sts	0x391F, r18	; 0x80391f <reactStr+0x4>
    36a6:	30 93 20 39 	sts	0x3920, r19	; 0x803920 <reactStr+0x5>
    reactStr[1][number]=length;
    36aa:	80 93 5f 39 	sts	0x395F, r24	; 0x80395f <reactStr+0x44>
    36ae:	90 93 60 39 	sts	0x3960, r25	; 0x803960 <reactStr+0x45>
    reactStr[2][number]=type;
    36b2:	10 92 9f 39 	sts	0x399F, r1	; 0x80399f <reactStr+0x84>
    36b6:	10 92 a0 39 	sts	0x39A0, r1	; 0x8039a0 <reactStr+0x85>
                    //Talk to person, read or use object (without item)                          
                    } else {
                        PopulateObject(route[currDepth+1], &actObj1);
                        if ((data[0] == 't')&&((actObj1.byteField[ACTION_MASK]&TALK) == 0)) {
                            SetResponse(elements++, A_WHYTALK, L_WHYTALK, TEASER);
                            SetResponse(elements++, actObj1.addrStr[NAME], actObj1.lenStr[NAME], GAME);
    36ba:	e3 e0       	ldi	r30, 0x03	; 3
    36bc:	7e 2e       	mov	r7, r30
    36be:	41 c2       	rjmp	.+1154   	; 0x3b42 <ProcessInput+0xffa>
                        } else if ((data[0] == 'u')&&((actObj1.byteField[ACTION_MASK]&USE) == 0)) {
    36c0:	85 37       	cpi	r24, 0x75	; 117
    36c2:	69 f4       	brne	.+26     	; 0x36de <ProcessInput+0xb96>
    36c4:	80 91 e2 38 	lds	r24, 0x38E2	; 0x8038e2 <actObj1.3995+0x8>
    36c8:	84 fd       	sbrc	r24, 4
    36ca:	1b c0       	rjmp	.+54     	; 0x3702 <ProcessInput+0xbba>
    return 0;
}

//
void SetResponse(uint8_t number, uint16_t address, uint16_t length, uint8_t type){
    reactStr[0][number]=address;
    36cc:	83 e0       	ldi	r24, 0x03	; 3
    36ce:	99 e7       	ldi	r25, 0x79	; 121
    36d0:	80 93 1d 39 	sts	0x391D, r24	; 0x80391d <reactStr+0x2>
    36d4:	90 93 1e 39 	sts	0x391E, r25	; 0x80391e <reactStr+0x3>
    reactStr[1][number]=length;
    36d8:	8a e1       	ldi	r24, 0x1A	; 26
    36da:	90 e0       	ldi	r25, 0x00	; 0
    36dc:	f9 ca       	rjmp	.-2574   	; 0x2cd0 <ProcessInput+0x188>
                        if ((data[0] == 't')&&((actObj1.byteField[ACTION_MASK]&TALK) == 0)) {
                            SetResponse(elements++, A_WHYTALK, L_WHYTALK, TEASER);
                            SetResponse(elements++, actObj1.addrStr[NAME], actObj1.lenStr[NAME], GAME);
                        } else if ((data[0] == 'u')&&((actObj1.byteField[ACTION_MASK]&USE) == 0)) {
                            SetResponse(elements++, A_CANTUSE, L_CANTUSE, TEASER);
                        } else if ((data[0] == 'r')&&((actObj1.byteField[ACTION_MASK]&READ) == 0)) {
    36de:	82 37       	cpi	r24, 0x72	; 114
    36e0:	69 f4       	brne	.+26     	; 0x36fc <ProcessInput+0xbb4>
    36e2:	80 91 e2 38 	lds	r24, 0x38E2	; 0x8038e2 <actObj1.3995+0x8>
    36e6:	85 fd       	sbrc	r24, 5
    36e8:	0c c0       	rjmp	.+24     	; 0x3702 <ProcessInput+0xbba>
    return 0;
}

//
void SetResponse(uint8_t number, uint16_t address, uint16_t length, uint8_t type){
    reactStr[0][number]=address;
    36ea:	88 ee       	ldi	r24, 0xE8	; 232
    36ec:	98 e7       	ldi	r25, 0x78	; 120
    36ee:	80 93 1d 39 	sts	0x391D, r24	; 0x80391d <reactStr+0x2>
    36f2:	90 93 1e 39 	sts	0x391E, r25	; 0x80391e <reactStr+0x3>
    reactStr[1][number]=length;
    36f6:	8b e1       	ldi	r24, 0x1B	; 27
    36f8:	90 e0       	ldi	r25, 0x00	; 0
    36fa:	ea ca       	rjmp	.-2604   	; 0x2cd0 <ProcessInput+0x188>
                            SetResponse(elements++, actObj1.addrStr[NAME], actObj1.lenStr[NAME], GAME);
                        } else if ((data[0] == 'u')&&((actObj1.byteField[ACTION_MASK]&USE) == 0)) {
                            SetResponse(elements++, A_CANTUSE, L_CANTUSE, TEASER);
                        } else if ((data[0] == 'r')&&((actObj1.byteField[ACTION_MASK]&READ) == 0)) {
                            SetResponse(elements++, A_CANTREAD, L_CANTREAD, TEASER);
                        } else if (data[0] == 'g'){ 
    36fc:	87 36       	cpi	r24, 0x67	; 103
    36fe:	09 f4       	brne	.+2      	; 0x3702 <ProcessInput+0xbba>
    3700:	52 ca       	rjmp	.-2908   	; 0x2ba6 <ProcessInput+0x5e>
                            SetResponse(elements++, A_NOTPOSSIBLE, L_NOTPOSSIBLE, TEASER);  
                        } else {

                            //Special game, not enough characters
                            if (actObj1.lenStr[ACTION_STR1] == 1) {
    3702:	e0 90 f8 38 	lds	r14, 0x38F8	; 0x8038f8 <actObj1.3995+0x1e>
    3706:	f0 90 f9 38 	lds	r15, 0x38F9	; 0x8038f9 <actObj1.3995+0x1f>
    370a:	f1 e0       	ldi	r31, 0x01	; 1
    370c:	ef 16       	cp	r14, r31
    370e:	f1 04       	cpc	r15, r1
    3710:	11 f5       	brne	.+68     	; 0x3756 <ProcessInput+0xc0e>
                                ExtEERead(actObj1.addrStr[ACTION_STR1], 1, GAME, &data[2]);
    3712:	98 01       	movw	r18, r16
    3714:	2e 5f       	subi	r18, 0xFE	; 254
    3716:	3f 4f       	sbci	r19, 0xFF	; 255
    3718:	40 e0       	ldi	r20, 0x00	; 0
    371a:	61 e0       	ldi	r22, 0x01	; 1
    371c:	80 91 ea 38 	lds	r24, 0x38EA	; 0x8038ea <actObj1.3995+0x10>
    3720:	90 91 eb 38 	lds	r25, 0x38EB	; 0x8038eb <actObj1.3995+0x11>
    3724:	0e 94 da 0f 	call	0x1fb4	; 0x1fb4 <ExtEERead>
                                if (data[2] == '1') {
    3728:	d8 01       	movw	r26, r16
    372a:	12 96       	adiw	r26, 0x02	; 2
    372c:	8c 91       	ld	r24, X
    372e:	81 33       	cpi	r24, 0x31	; 49
    3730:	09 f0       	breq	.+2      	; 0x3734 <ProcessInput+0xbec>
    3732:	8a cc       	rjmp	.-1772   	; 0x3048 <ProcessInput+0x500>
    return 0;
}

//
void SetResponse(uint8_t number, uint16_t address, uint16_t length, uint8_t type){
    reactStr[0][number]=address;
    3734:	82 e6       	ldi	r24, 0x62	; 98
    3736:	95 e7       	ldi	r25, 0x75	; 117
    3738:	80 93 1d 39 	sts	0x391D, r24	; 0x80391d <reactStr+0x2>
    373c:	90 93 1e 39 	sts	0x391E, r25	; 0x80391e <reactStr+0x3>
    reactStr[1][number]=length;
    3740:	8b e2       	ldi	r24, 0x2B	; 43
    3742:	90 e0       	ldi	r25, 0x00	; 0
    3744:	80 93 5d 39 	sts	0x395D, r24	; 0x80395d <reactStr+0x42>
    3748:	90 93 5e 39 	sts	0x395E, r25	; 0x80395e <reactStr+0x43>
    reactStr[2][number]=type;
    374c:	e0 92 9d 39 	sts	0x399D, r14	; 0x80399d <reactStr+0x82>
    3750:	f0 92 9e 39 	sts	0x399E, r15	; 0x80399e <reactStr+0x83>
    3754:	c7 ca       	rjmp	.-2674   	; 0x2ce4 <ProcessInput+0x19c>
                                if (data[2] == '1') {
                                    SetResponse(elements++, A_PLEASEOFFER, L_PLEASEOFFER, TEASER);
                                }

                            //General request
                            } else if (actObj1.lenStr[ACTION_STR1]) {
    3756:	e1 14       	cp	r14, r1
    3758:	f1 04       	cpc	r15, r1
    375a:	09 f4       	brne	.+2      	; 0x375e <ProcessInput+0xc16>
    375c:	59 c0       	rjmp	.+178    	; 0x3810 <ProcessInput+0xcc8>
    return 0;
}

//
void SetResponse(uint8_t number, uint16_t address, uint16_t length, uint8_t type){
    reactStr[0][number]=address;
    375e:	80 91 ea 38 	lds	r24, 0x38EA	; 0x8038ea <actObj1.3995+0x10>
    3762:	90 91 eb 38 	lds	r25, 0x38EB	; 0x8038eb <actObj1.3995+0x11>
    3766:	80 93 1d 39 	sts	0x391D, r24	; 0x80391d <reactStr+0x2>
    376a:	90 93 1e 39 	sts	0x391E, r25	; 0x80391e <reactStr+0x3>
    reactStr[1][number]=length;
    376e:	e0 92 5d 39 	sts	0x395D, r14	; 0x80395d <reactStr+0x42>
    3772:	f0 92 5e 39 	sts	0x395E, r15	; 0x80395e <reactStr+0x43>
    reactStr[2][number]=type;
    3776:	10 92 9d 39 	sts	0x399D, r1	; 0x80399d <reactStr+0x82>
    377a:	10 92 9e 39 	sts	0x399E, r1	; 0x80399e <reactStr+0x83>
    return 0;
}

//
void SetResponse(uint8_t number, uint16_t address, uint16_t length, uint8_t type){
    reactStr[0][number]=address;
    377e:	8b e5       	ldi	r24, 0x5B	; 91
    3780:	9a e7       	ldi	r25, 0x7A	; 122
    3782:	80 93 1f 39 	sts	0x391F, r24	; 0x80391f <reactStr+0x4>
    3786:	90 93 20 39 	sts	0x3920, r25	; 0x803920 <reactStr+0x5>
    reactStr[1][number]=length;
    378a:	82 e0       	ldi	r24, 0x02	; 2
    378c:	90 e0       	ldi	r25, 0x00	; 0
    378e:	80 93 5f 39 	sts	0x395F, r24	; 0x80395f <reactStr+0x44>
    3792:	90 93 60 39 	sts	0x3960, r25	; 0x803960 <reactStr+0x45>
    reactStr[2][number]=type;
    3796:	81 e0       	ldi	r24, 0x01	; 1
    3798:	90 e0       	ldi	r25, 0x00	; 0
    379a:	80 93 9f 39 	sts	0x399F, r24	; 0x80399f <reactStr+0x84>
    379e:	90 93 a0 39 	sts	0x39A0, r25	; 0x8039a0 <reactStr+0x85>
    return 0;
}

//
void SetResponse(uint8_t number, uint16_t address, uint16_t length, uint8_t type){
    reactStr[0][number]=address;
    37a2:	2f ea       	ldi	r18, 0xAF	; 175
    37a4:	38 e7       	ldi	r19, 0x78	; 120
    37a6:	20 93 21 39 	sts	0x3921, r18	; 0x803921 <reactStr+0x6>
    37aa:	30 93 22 39 	sts	0x3922, r19	; 0x803922 <reactStr+0x7>
    reactStr[1][number]=length;
    37ae:	22 e1       	ldi	r18, 0x12	; 18
    37b0:	30 e0       	ldi	r19, 0x00	; 0
    37b2:	20 93 61 39 	sts	0x3961, r18	; 0x803961 <reactStr+0x46>
    37b6:	30 93 62 39 	sts	0x3962, r19	; 0x803962 <reactStr+0x47>
    reactStr[2][number]=type;
    37ba:	80 93 a1 39 	sts	0x39A1, r24	; 0x8039a1 <reactStr+0x86>
    37be:	90 93 a2 39 	sts	0x39A2, r25	; 0x8039a2 <reactStr+0x87>
                            //General request
                            } else if (actObj1.lenStr[ACTION_STR1]) {
                                SetResponse(elements++, actObj1.addrStr[ACTION_STR1], actObj1.lenStr[ACTION_STR1], GAME);
                                SetResponse(elements++, A_LF, 2, TEASER);
                                SetResponse(elements++, A_RESPONSE, L_RESPONSE, TEASER);
                                if (actObj1.lenStr[ACTION_STR2]>(INP_LENGTH-1)) actObj1.lenStr[ACTION_STR2] = (INP_LENGTH-1);
    37c2:	80 91 fa 38 	lds	r24, 0x38FA	; 0x8038fa <actObj1.3995+0x20>
    37c6:	90 91 fb 38 	lds	r25, 0x38FB	; 0x8038fb <actObj1.3995+0x21>
    37ca:	40 97       	sbiw	r24, 0x10	; 16
    37cc:	30 f0       	brcs	.+12     	; 0x37da <ProcessInput+0xc92>
    37ce:	8f e0       	ldi	r24, 0x0F	; 15
    37d0:	90 e0       	ldi	r25, 0x00	; 0
    37d2:	80 93 fa 38 	sts	0x38FA, r24	; 0x8038fa <actObj1.3995+0x20>
    37d6:	90 93 fb 38 	sts	0x38FB, r25	; 0x8038fb <actObj1.3995+0x21>
                                ExtEERead(actObj1.addrStr[ACTION_STR2], actObj1.lenStr[ACTION_STR2], GAME, (uint8_t *)&specialInput[0]);
    37da:	2a e0       	ldi	r18, 0x0A	; 10
    37dc:	39 e3       	ldi	r19, 0x39	; 57
    37de:	40 e0       	ldi	r20, 0x00	; 0
    37e0:	60 91 fa 38 	lds	r22, 0x38FA	; 0x8038fa <actObj1.3995+0x20>
    37e4:	80 91 ec 38 	lds	r24, 0x38EC	; 0x8038ec <actObj1.3995+0x12>
    37e8:	90 91 ed 38 	lds	r25, 0x38ED	; 0x8038ed <actObj1.3995+0x13>
    37ec:	0e 94 da 0f 	call	0x1fb4	; 0x1fb4 <ExtEERead>
                                UnflipData(actObj1.lenStr[ACTION_STR2], (uint8_t *)&specialInput[0]);
    37f0:	6a e0       	ldi	r22, 0x0A	; 10
    37f2:	79 e3       	ldi	r23, 0x39	; 57
    37f4:	80 91 fa 38 	lds	r24, 0x38FA	; 0x8038fa <actObj1.3995+0x20>
    37f8:	0e 94 cd 0f 	call	0x1f9a	; 0x1f9a <UnflipData>
                                specialInput[actObj1.lenStr[ACTION_STR2]] = 0;
    37fc:	e0 91 fa 38 	lds	r30, 0x38FA	; 0x8038fa <actObj1.3995+0x20>
    3800:	f0 91 fb 38 	lds	r31, 0x38FB	; 0x8038fb <actObj1.3995+0x21>
    3804:	e6 5f       	subi	r30, 0xF6	; 246
    3806:	f6 4c       	sbci	r31, 0xC6	; 198
    3808:	10 82       	st	Z, r1

                            //General request
                            } else if (actObj1.lenStr[ACTION_STR1]) {
                                SetResponse(elements++, actObj1.addrStr[ACTION_STR1], actObj1.lenStr[ACTION_STR1], GAME);
                                SetResponse(elements++, A_LF, 2, TEASER);
                                SetResponse(elements++, A_RESPONSE, L_RESPONSE, TEASER);
    380a:	74 e0       	ldi	r23, 0x04	; 4
    380c:	77 2e       	mov	r7, r23
    380e:	99 c1       	rjmp	.+818    	; 0x3b42 <ProcessInput+0xffa>
                                ExtEERead(actObj1.addrStr[ACTION_STR2], actObj1.lenStr[ACTION_STR2], GAME, (uint8_t *)&specialInput[0]);
                                UnflipData(actObj1.lenStr[ACTION_STR2], (uint8_t *)&specialInput[0]);
                                specialInput[actObj1.lenStr[ACTION_STR2]] = 0;
                            
                            //Normal action    
                            } else if (CheckState(actObj1.byteField[ACTION_ACL])){
    3810:	80 91 e1 38 	lds	r24, 0x38E1	; 0x8038e1 <actObj1.3995+0x7>
    3814:	0e 94 63 0a 	call	0x14c6	; 0x14c6 <CheckState>
    3818:	88 23       	and	r24, r24
    381a:	01 f1       	breq	.+64     	; 0x385c <ProcessInput+0xd14>
                                SetResponse(elements++, actObj1.addrStr[ACTION_MSG], actObj1.lenStr[ACTION_MSG], GAME);
    381c:	80 91 00 39 	lds	r24, 0x3900	; 0x803900 <actObj1.3995+0x26>
    3820:	90 91 01 39 	lds	r25, 0x3901	; 0x803901 <actObj1.3995+0x27>
    return 0;
}

//
void SetResponse(uint8_t number, uint16_t address, uint16_t length, uint8_t type){
    reactStr[0][number]=address;
    3824:	20 91 f2 38 	lds	r18, 0x38F2	; 0x8038f2 <actObj1.3995+0x18>
    3828:	30 91 f3 38 	lds	r19, 0x38F3	; 0x8038f3 <actObj1.3995+0x19>
    382c:	20 93 1d 39 	sts	0x391D, r18	; 0x80391d <reactStr+0x2>
    3830:	30 93 1e 39 	sts	0x391E, r19	; 0x80391e <reactStr+0x3>
    reactStr[1][number]=length;
    3834:	80 93 5d 39 	sts	0x395D, r24	; 0x80395d <reactStr+0x42>
    3838:	90 93 5e 39 	sts	0x395E, r25	; 0x80395e <reactStr+0x43>
    reactStr[2][number]=type;
    383c:	10 92 9d 39 	sts	0x399D, r1	; 0x80399d <reactStr+0x82>
    3840:	10 92 9e 39 	sts	0x399E, r1	; 0x80399e <reactStr+0x83>
                                specialInput[actObj1.lenStr[ACTION_STR2]] = 0;
                            
                            //Normal action    
                            } else if (CheckState(actObj1.byteField[ACTION_ACL])){
                                SetResponse(elements++, actObj1.addrStr[ACTION_MSG], actObj1.lenStr[ACTION_MSG], GAME);
                                effect = actObj1.effect[2];
    3844:	80 91 04 39 	lds	r24, 0x3904	; 0x803904 <actObj1.3995+0x2a>
    3848:	90 e0       	ldi	r25, 0x00	; 0
    384a:	80 93 3a 38 	sts	0x383A, r24	; 0x80383a <effect>
    384e:	90 93 3b 38 	sts	0x383B, r25	; 0x80383b <effect+0x1>
                                UpdateState(actObj1.byteField[ACTION_STATE]);
    3852:	80 91 e4 38 	lds	r24, 0x38E4	; 0x8038e4 <actObj1.3995+0xa>
    3856:	0e 94 59 0a 	call	0x14b2	; 0x14b2 <UpdateState>
    385a:	44 ca       	rjmp	.-2936   	; 0x2ce4 <ProcessInput+0x19c>
                            } else {
                                SetResponse(elements++, actObj1.addrStr[ACTION_ACL_MSG], actObj1.lenStr[ACTION_ACL_MSG], GAME);
    385c:	80 91 fe 38 	lds	r24, 0x38FE	; 0x8038fe <actObj1.3995+0x24>
    3860:	90 91 ff 38 	lds	r25, 0x38FF	; 0x8038ff <actObj1.3995+0x25>
    return 0;
}

//
void SetResponse(uint8_t number, uint16_t address, uint16_t length, uint8_t type){
    reactStr[0][number]=address;
    3864:	20 91 f0 38 	lds	r18, 0x38F0	; 0x8038f0 <actObj1.3995+0x16>
    3868:	30 91 f1 38 	lds	r19, 0x38F1	; 0x8038f1 <actObj1.3995+0x17>
    386c:	20 93 1d 39 	sts	0x391D, r18	; 0x80391d <reactStr+0x2>
    3870:	30 93 1e 39 	sts	0x391E, r19	; 0x80391e <reactStr+0x3>
    reactStr[1][number]=length;
    3874:	80 93 5d 39 	sts	0x395D, r24	; 0x80395d <reactStr+0x42>
    3878:	90 93 5e 39 	sts	0x395E, r25	; 0x80395e <reactStr+0x43>
    reactStr[2][number]=type;
    387c:	10 92 9d 39 	sts	0x399D, r1	; 0x80399d <reactStr+0x82>
    3880:	10 92 9e 39 	sts	0x399E, r1	; 0x80399e <reactStr+0x83>
                                SetResponse(elements++, actObj1.addrStr[ACTION_MSG], actObj1.lenStr[ACTION_MSG], GAME);
                                effect = actObj1.effect[2];
                                UpdateState(actObj1.byteField[ACTION_STATE]);
                            } else {
                                SetResponse(elements++, actObj1.addrStr[ACTION_ACL_MSG], actObj1.lenStr[ACTION_ACL_MSG], GAME);
                                effect = actObj1.effect[1];
    3884:	80 91 03 39 	lds	r24, 0x3903	; 0x803903 <actObj1.3995+0x29>
    3888:	90 e0       	ldi	r25, 0x00	; 0
    388a:	80 93 3a 38 	sts	0x383A, r24	; 0x80383a <effect>
    388e:	90 93 3b 38 	sts	0x383B, r25	; 0x80383b <effect+0x1>
    3892:	28 ca       	rjmp	.-2992   	; 0x2ce4 <ProcessInput+0x19c>
                        }
                    }

                //Person or object not found
                } else {
                    if ((data[0] == 't')||(data[0] == 'g')){
    3894:	f8 01       	movw	r30, r16
    3896:	80 81       	ld	r24, Z
    3898:	84 37       	cpi	r24, 0x74	; 116
    389a:	11 f0       	breq	.+4      	; 0x38a0 <ProcessInput+0xd58>
    389c:	87 36       	cpi	r24, 0x67	; 103
    389e:	19 f4       	brne	.+6      	; 0x38a6 <ProcessInput+0xd5e>
    return 0;
}

//
void SetResponse(uint8_t number, uint16_t address, uint16_t length, uint8_t type){
    reactStr[0][number]=address;
    38a0:	8b e3       	ldi	r24, 0x3B	; 59
    38a2:	99 e7       	ldi	r25, 0x79	; 121
    38a4:	02 c0       	rjmp	.+4      	; 0x38aa <ProcessInput+0xd62>
    38a6:	8f e4       	ldi	r24, 0x4F	; 79
    38a8:	99 e7       	ldi	r25, 0x79	; 121
    38aa:	80 93 1d 39 	sts	0x391D, r24	; 0x80391d <reactStr+0x2>
    38ae:	90 93 1e 39 	sts	0x391E, r25	; 0x80391e <reactStr+0x3>
    reactStr[1][number]=length;
    38b2:	84 e1       	ldi	r24, 0x14	; 20
    38b4:	90 e0       	ldi	r25, 0x00	; 0
    38b6:	0c ca       	rjmp	.-3048   	; 0x2cd0 <ProcessInput+0x188>
                    }
                }
            }
        
        //Special answer given
        } else if (data[0] == 'a'){
    38b8:	81 36       	cpi	r24, 0x61	; 97
    38ba:	09 f0       	breq	.+2      	; 0x38be <ProcessInput+0xd76>
    38bc:	c5 cb       	rjmp	.-2166   	; 0x3048 <ProcessInput+0x500>
            
            //Priest offerings
            if (specialPassed >= 2) {
    38be:	80 91 09 39 	lds	r24, 0x3909	; 0x803909 <specialPassed>
    38c2:	82 30       	cpi	r24, 0x02	; 2
    38c4:	08 f4       	brcc	.+2      	; 0x38c8 <ProcessInput+0xd80>
    38c6:	cb c0       	rjmp	.+406    	; 0x3a5e <ProcessInput+0xf16>
                if (data[1] > 0) {
    38c8:	d8 01       	movw	r26, r16
    38ca:	11 96       	adiw	r26, 0x01	; 1
    38cc:	2c 91       	ld	r18, X
    38ce:	22 23       	and	r18, r18
    38d0:	09 f4       	brne	.+2      	; 0x38d4 <ProcessInput+0xd8c>
    38d2:	b2 c0       	rjmp	.+356    	; 0x3a38 <ProcessInput+0xef0>

                    //uint8_t  digit[10] = {0, 0, 0, 0, 0, 0, 0, 0, 0, 0};
                    uint8_t  digit[8] = {0, 0, 0, 0, 0, 0, 0, 0};
    38d4:	fe 01       	movw	r30, r28
    38d6:	31 96       	adiw	r30, 0x01	; 1
    38d8:	7f 01       	movw	r14, r30
    38da:	88 e0       	ldi	r24, 0x08	; 8
    38dc:	df 01       	movw	r26, r30
    38de:	1d 92       	st	X+, r1
    38e0:	8a 95       	dec	r24
    38e2:	e9 f7       	brne	.-6      	; 0x38de <ProcessInput+0xd96>
                        answer = ((offering  & 2) << 19) + ((offering  & 1) << 8) + \
                        ((element   & 2) << 15) + ((element   & 1) << 4) + \
                        ((kneelings & 2) << 11) + ((kneelings & 1))
                        answer = answer << (3-person)
                    */
                    data[1]-='1';
    38e4:	21 53       	subi	r18, 0x31	; 49
    38e6:	f8 01       	movw	r30, r16
    38e8:	21 83       	std	Z+1, r18	; 0x01
                    data[2]-='1';
    38ea:	32 81       	ldd	r19, Z+2	; 0x02
    38ec:	31 53       	subi	r19, 0x31	; 49
    38ee:	32 83       	std	Z+2, r19	; 0x02
                    if (data[3] == 'a') data[3] = 1;
    38f0:	83 81       	ldd	r24, Z+3	; 0x03
    38f2:	81 36       	cpi	r24, 0x61	; 97
    38f4:	11 f4       	brne	.+4      	; 0x38fa <ProcessInput+0xdb2>
    38f6:	81 e0       	ldi	r24, 0x01	; 1
    38f8:	08 c0       	rjmp	.+16     	; 0x390a <ProcessInput+0xdc2>
                    else if (data[3] == 'e') data[3] = 0;
    38fa:	85 36       	cpi	r24, 0x65	; 101
    38fc:	11 f4       	brne	.+4      	; 0x3902 <ProcessInput+0xdba>
    38fe:	13 82       	std	Z+3, r1	; 0x03
    3900:	08 c0       	rjmp	.+16     	; 0x3912 <ProcessInput+0xdca>
                    else if (data[3] == 'f') data[3] = 3;
    3902:	86 36       	cpi	r24, 0x66	; 102
    3904:	21 f4       	brne	.+8      	; 0x390e <ProcessInput+0xdc6>
    3906:	83 e0       	ldi	r24, 0x03	; 3
    3908:	f8 01       	movw	r30, r16
    390a:	83 83       	std	Z+3, r24	; 0x03
    390c:	02 c0       	rjmp	.+4      	; 0x3912 <ProcessInput+0xdca>
                    else data[3] = 2;
    390e:	82 e0       	ldi	r24, 0x02	; 2
    3910:	83 83       	std	Z+3, r24	; 0x03

                    if (data[1] & 2) answer += (1UL << 20);
    3912:	21 fd       	sbrc	r18, 1
    3914:	04 c0       	rjmp	.+8      	; 0x391e <ProcessInput+0xdd6>
            if (specialPassed >= 2) {
                if (data[1] > 0) {

                    //uint8_t  digit[10] = {0, 0, 0, 0, 0, 0, 0, 0, 0, 0};
                    uint8_t  digit[8] = {0, 0, 0, 0, 0, 0, 0, 0};
                    uint32_t answer = 0;
    3916:	80 e0       	ldi	r24, 0x00	; 0
    3918:	90 e0       	ldi	r25, 0x00	; 0
    391a:	dc 01       	movw	r26, r24
    391c:	04 c0       	rjmp	.+8      	; 0x3926 <ProcessInput+0xdde>
                    if (data[3] == 'a') data[3] = 1;
                    else if (data[3] == 'e') data[3] = 0;
                    else if (data[3] == 'f') data[3] = 3;
                    else data[3] = 2;

                    if (data[1] & 2) answer += (1UL << 20);
    391e:	80 e0       	ldi	r24, 0x00	; 0
    3920:	90 e0       	ldi	r25, 0x00	; 0
    3922:	a0 e1       	ldi	r26, 0x10	; 16
    3924:	b0 e0       	ldi	r27, 0x00	; 0
                    if (data[1] & 1) answer += (1 << 8);
    3926:	20 ff       	sbrs	r18, 0
    3928:	03 c0       	rjmp	.+6      	; 0x3930 <ProcessInput+0xde8>
    392a:	9f 5f       	subi	r25, 0xFF	; 255
    392c:	af 4f       	sbci	r26, 0xFF	; 255
    392e:	bf 4f       	sbci	r27, 0xFF	; 255
                    if (data[3] & 2) answer += (1UL << 16);
    3930:	f8 01       	movw	r30, r16
    3932:	23 81       	ldd	r18, Z+3	; 0x03
    3934:	21 fd       	sbrc	r18, 1
    3936:	11 96       	adiw	r26, 0x01	; 1
                    if (data[3] & 1) answer += (1 << 4);
    3938:	20 ff       	sbrs	r18, 0
    393a:	03 c0       	rjmp	.+6      	; 0x3942 <ProcessInput+0xdfa>
    393c:	40 96       	adiw	r24, 0x10	; 16
    393e:	a1 1d       	adc	r26, r1
    3940:	b1 1d       	adc	r27, r1
                    if (data[2] & 2) answer += (1 << 12);
    3942:	31 ff       	sbrs	r19, 1
    3944:	03 c0       	rjmp	.+6      	; 0x394c <ProcessInput+0xe04>
    3946:	90 5f       	subi	r25, 0xF0	; 240
    3948:	af 4f       	sbci	r26, 0xFF	; 255
    394a:	bf 4f       	sbci	r27, 0xFF	; 255
                    if (data[2] & 1) answer += 1;
    394c:	30 ff       	sbrs	r19, 0
    394e:	03 c0       	rjmp	.+6      	; 0x3956 <ProcessInput+0xe0e>
    3950:	01 96       	adiw	r24, 0x01	; 1
    3952:	a1 1d       	adc	r26, r1
    3954:	b1 1d       	adc	r27, r1
                    answer <<= (4 - whoami);            
    3956:	40 91 3d 38 	lds	r20, 0x383D	; 0x80383d <whoami>
    395a:	24 e0       	ldi	r18, 0x04	; 4
    395c:	30 e0       	ldi	r19, 0x00	; 0
    395e:	24 1b       	sub	r18, r20
    3960:	31 09       	sbc	r19, r1
    3962:	04 c0       	rjmp	.+8      	; 0x396c <ProcessInput+0xe24>
    3964:	88 0f       	add	r24, r24
    3966:	99 1f       	adc	r25, r25
    3968:	aa 1f       	adc	r26, r26
    396a:	bb 1f       	adc	r27, r27
    396c:	2a 95       	dec	r18
    396e:	d2 f7       	brpl	.-12     	; 0x3964 <ProcessInput+0xe1c>
    return 0;
}

//
void SetResponse(uint8_t number, uint16_t address, uint16_t length, uint8_t type){
    reactStr[0][number]=address;
    3970:	25 e0       	ldi	r18, 0x05	; 5
    3972:	35 e7       	ldi	r19, 0x75	; 117
    3974:	20 93 1d 39 	sts	0x391D, r18	; 0x80391d <reactStr+0x2>
    3978:	30 93 1e 39 	sts	0x391E, r19	; 0x80391e <reactStr+0x3>
    reactStr[1][number]=length;
    397c:	20 e2       	ldi	r18, 0x20	; 32
    397e:	30 e0       	ldi	r19, 0x00	; 0
    3980:	20 93 5d 39 	sts	0x395D, r18	; 0x80395d <reactStr+0x42>
    3984:	30 93 5e 39 	sts	0x395E, r19	; 0x80395e <reactStr+0x43>
    reactStr[2][number]=type;
    3988:	21 e0       	ldi	r18, 0x01	; 1
    398a:	30 e0       	ldi	r19, 0x00	; 0
    398c:	20 93 9d 39 	sts	0x399D, r18	; 0x80399d <reactStr+0x82>
    3990:	30 93 9e 39 	sts	0x399E, r19	; 0x80399e <reactStr+0x83>
    return 0;
}

//
void SetResponse(uint8_t number, uint16_t address, uint16_t length, uint8_t type){
    reactStr[0][number]=address;
    3994:	4a ed       	ldi	r20, 0xDA	; 218
    3996:	54 e7       	ldi	r21, 0x74	; 116
    3998:	40 93 1f 39 	sts	0x391F, r20	; 0x80391f <reactStr+0x4>
    399c:	50 93 20 39 	sts	0x3920, r21	; 0x803920 <reactStr+0x5>
    reactStr[1][number]=length;
    39a0:	42 e0       	ldi	r20, 0x02	; 2
    39a2:	50 e0       	ldi	r21, 0x00	; 0
    39a4:	40 93 5f 39 	sts	0x395F, r20	; 0x80395f <reactStr+0x44>
    39a8:	50 93 60 39 	sts	0x3960, r21	; 0x803960 <reactStr+0x45>
    reactStr[2][number]=type;
    39ac:	20 93 9f 39 	sts	0x399F, r18	; 0x80399f <reactStr+0x84>
    39b0:	30 93 a0 39 	sts	0x39A0, r19	; 0x8039a0 <reactStr+0x85>

                    SetResponse(elements++, A_YOURPART, L_YOURPART, TEASER);
                    SetResponse(elements++, A_HEXPREFIX, L_HEXPREFIX, TEASER);
                    
                    //Set up sending out number
                    for (n=7; n>=0; --n) {
    39b4:	67 e0       	ldi	r22, 0x07	; 7
    39b6:	d6 2e       	mov	r13, r22
                        digit[n] = answer % 16;
    39b8:	f7 01       	movw	r30, r14
    39ba:	ed 0d       	add	r30, r13
    39bc:	f1 1d       	adc	r31, r1
    39be:	28 2f       	mov	r18, r24
    39c0:	2f 70       	andi	r18, 0x0F	; 15
    39c2:	20 83       	st	Z, r18
                        answer /= 16;
    39c4:	54 e0       	ldi	r21, 0x04	; 4
    39c6:	b6 95       	lsr	r27
    39c8:	a7 95       	ror	r26
    39ca:	97 95       	ror	r25
    39cc:	87 95       	ror	r24
    39ce:	5a 95       	dec	r21
    39d0:	d1 f7       	brne	.-12     	; 0x39c6 <ProcessInput+0xe7e>
                        if (answer == 0) break;
    39d2:	00 97       	sbiw	r24, 0x00	; 0
    39d4:	a1 05       	cpc	r26, r1
    39d6:	b1 05       	cpc	r27, r1
    39d8:	51 f4       	brne	.+20     	; 0x39ee <ProcessInput+0xea6>
    39da:	2b e1       	ldi	r18, 0x1B	; 27
    39dc:	a2 2e       	mov	r10, r18
    39de:	29 e3       	ldi	r18, 0x39	; 57
    39e0:	b2 2e       	mov	r11, r18
    39e2:	33 e0       	ldi	r19, 0x03	; 3
    39e4:	73 2e       	mov	r7, r19
}

//
void SetResponse(uint8_t number, uint16_t address, uint16_t length, uint8_t type){
    reactStr[0][number]=address;
    reactStr[1][number]=length;
    39e6:	88 24       	eor	r8, r8
    39e8:	83 94       	inc	r8
    39ea:	91 2c       	mov	r9, r1
    39ec:	02 c0       	rjmp	.+4      	; 0x39f2 <ProcessInput+0xeaa>

                    SetResponse(elements++, A_YOURPART, L_YOURPART, TEASER);
                    SetResponse(elements++, A_HEXPREFIX, L_HEXPREFIX, TEASER);
                    
                    //Set up sending out number
                    for (n=7; n>=0; --n) {
    39ee:	da 94       	dec	r13
                        digit[n] = answer % 16;
                        answer /= 16;
                        if (answer == 0) break;
                    }
    39f0:	e3 cf       	rjmp	.-58     	; 0x39b8 <ProcessInput+0xe70>
    39f2:	b2 e0       	ldi	r27, 0x02	; 2
    39f4:	ab 0e       	add	r10, r27
    39f6:	b1 1c       	adc	r11, r1

                    for (; n<8; ++n) {
    39f8:	e7 e0       	ldi	r30, 0x07	; 7
    39fa:	ed 15       	cp	r30, r13
    39fc:	08 f4       	brcc	.+2      	; 0x3a00 <ProcessInput+0xeb8>
    39fe:	9f c0       	rjmp	.+318    	; 0x3b3e <ProcessInput+0xff6>
                        SetResponse(elements++, A_DIGITS+digit[n], 1, TEASER);
    3a00:	73 94       	inc	r7
    3a02:	f7 01       	movw	r30, r14
    3a04:	ed 0d       	add	r30, r13
    3a06:	f1 1d       	adc	r31, r1
    return 0;
}

//
void SetResponse(uint8_t number, uint16_t address, uint16_t length, uint8_t type){
    reactStr[0][number]=address;
    3a08:	80 81       	ld	r24, Z
    3a0a:	90 e0       	ldi	r25, 0x00	; 0
    3a0c:	86 53       	subi	r24, 0x36	; 54
    3a0e:	9b 48       	sbci	r25, 0x8B	; 139
    3a10:	d5 01       	movw	r26, r10
    3a12:	14 96       	adiw	r26, 0x04	; 4
    3a14:	8d 93       	st	X+, r24
    3a16:	9c 93       	st	X, r25
    3a18:	15 97       	sbiw	r26, 0x05	; 5
    reactStr[1][number]=length;
    3a1a:	f5 01       	movw	r30, r10
    3a1c:	ec 5b       	subi	r30, 0xBC	; 188
    3a1e:	ff 4f       	sbci	r31, 0xFF	; 255
    3a20:	80 82       	st	Z, r8
    3a22:	91 82       	std	Z+1, r9	; 0x01
    reactStr[2][number]=type;
    3a24:	e0 5c       	subi	r30, 0xC0	; 192
    3a26:	ff 4f       	sbci	r31, 0xFF	; 255
    3a28:	80 82       	st	Z, r8
    3a2a:	91 82       	std	Z+1, r9	; 0x01
                        if (answer == 0) break;
                    }

                    for (; n<8; ++n) {
                        SetResponse(elements++, A_DIGITS+digit[n], 1, TEASER);
                        UpdateState(actObj1.byteField[ACTION_STATE]);
    3a2c:	80 91 e4 38 	lds	r24, 0x38E4	; 0x8038e4 <actObj1.3995+0xa>
    3a30:	0e 94 59 0a 	call	0x14b2	; 0x14b2 <UpdateState>
                        digit[n] = answer % 16;
                        answer /= 16;
                        if (answer == 0) break;
                    }

                    for (; n<8; ++n) {
    3a34:	d3 94       	inc	r13
    3a36:	dd cf       	rjmp	.-70     	; 0x39f2 <ProcessInput+0xeaa>
    return 0;
}

//
void SetResponse(uint8_t number, uint16_t address, uint16_t length, uint8_t type){
    reactStr[0][number]=address;
    3a38:	85 e2       	ldi	r24, 0x25	; 37
    3a3a:	95 e7       	ldi	r25, 0x75	; 117
    3a3c:	80 93 1d 39 	sts	0x391D, r24	; 0x80391d <reactStr+0x2>
    3a40:	90 93 1e 39 	sts	0x391E, r25	; 0x80391e <reactStr+0x3>
    reactStr[1][number]=length;
    3a44:	8d e3       	ldi	r24, 0x3D	; 61
    3a46:	90 e0       	ldi	r25, 0x00	; 0
    3a48:	80 93 5d 39 	sts	0x395D, r24	; 0x80395d <reactStr+0x42>
    3a4c:	90 93 5e 39 	sts	0x395E, r25	; 0x80395e <reactStr+0x43>
    reactStr[2][number]=type;
    3a50:	81 e0       	ldi	r24, 0x01	; 1
    3a52:	90 e0       	ldi	r25, 0x00	; 0
    3a54:	80 93 9d 39 	sts	0x399D, r24	; 0x80399d <reactStr+0x82>
    3a58:	90 93 9e 39 	sts	0x399E, r25	; 0x80399e <reactStr+0x83>
    3a5c:	6e c0       	rjmp	.+220    	; 0x3b3a <ProcessInput+0xff2>
    3a5e:	e0 91 2c 38 	lds	r30, 0x382C	; 0x80382c <currDepth>
                    SetResponse(elements++, A_BADOFFERING, L_BADOFFERING, TEASER);
                }
            
            //Other questions    
            } else if (specialPassed == 1) {
                PopulateObject(route[currDepth+1], &actObj1);
    3a62:	f0 e0       	ldi	r31, 0x00	; 0
    3a64:	ee 0f       	add	r30, r30
    3a66:	ff 1f       	adc	r31, r31
    3a68:	e3 52       	subi	r30, 0x23	; 35
    3a6a:	f6 4c       	sbci	r31, 0xC6	; 198
    3a6c:	6a ed       	ldi	r22, 0xDA	; 218
    3a6e:	78 e3       	ldi	r23, 0x38	; 56
                } else {
                    SetResponse(elements++, A_BADOFFERING, L_BADOFFERING, TEASER);
                }
            
            //Other questions    
            } else if (specialPassed == 1) {
    3a70:	81 30       	cpi	r24, 0x01	; 1
    3a72:	09 f0       	breq	.+2      	; 0x3a76 <ProcessInput+0xf2e>
    3a74:	46 c0       	rjmp	.+140    	; 0x3b02 <ProcessInput+0xfba>
                PopulateObject(route[currDepth+1], &actObj1);
    3a76:	80 81       	ld	r24, Z
    3a78:	91 81       	ldd	r25, Z+1	; 0x01
    3a7a:	0e 94 ea 10 	call	0x21d4	; 0x21d4 <PopulateObject>
                if (CheckState(actObj1.byteField[ACTION_ACL])){
    3a7e:	80 91 e1 38 	lds	r24, 0x38E1	; 0x8038e1 <actObj1.3995+0x7>
    3a82:	0e 94 63 0a 	call	0x14c6	; 0x14c6 <CheckState>
    3a86:	88 23       	and	r24, r24
    3a88:	01 f1       	breq	.+64     	; 0x3aca <ProcessInput+0xf82>
                    SetResponse(elements++, actObj1.addrStr[ACTION_MSG], actObj1.lenStr[ACTION_MSG], GAME);
    3a8a:	80 91 00 39 	lds	r24, 0x3900	; 0x803900 <actObj1.3995+0x26>
    3a8e:	90 91 01 39 	lds	r25, 0x3901	; 0x803901 <actObj1.3995+0x27>
    return 0;
}

//
void SetResponse(uint8_t number, uint16_t address, uint16_t length, uint8_t type){
    reactStr[0][number]=address;
    3a92:	20 91 f2 38 	lds	r18, 0x38F2	; 0x8038f2 <actObj1.3995+0x18>
    3a96:	30 91 f3 38 	lds	r19, 0x38F3	; 0x8038f3 <actObj1.3995+0x19>
    3a9a:	20 93 1d 39 	sts	0x391D, r18	; 0x80391d <reactStr+0x2>
    3a9e:	30 93 1e 39 	sts	0x391E, r19	; 0x80391e <reactStr+0x3>
    reactStr[1][number]=length;
    3aa2:	80 93 5d 39 	sts	0x395D, r24	; 0x80395d <reactStr+0x42>
    3aa6:	90 93 5e 39 	sts	0x395E, r25	; 0x80395e <reactStr+0x43>
    reactStr[2][number]=type;
    3aaa:	10 92 9d 39 	sts	0x399D, r1	; 0x80399d <reactStr+0x82>
    3aae:	10 92 9e 39 	sts	0x399E, r1	; 0x80399e <reactStr+0x83>
            //Other questions    
            } else if (specialPassed == 1) {
                PopulateObject(route[currDepth+1], &actObj1);
                if (CheckState(actObj1.byteField[ACTION_ACL])){
                    SetResponse(elements++, actObj1.addrStr[ACTION_MSG], actObj1.lenStr[ACTION_MSG], GAME);
                    effect = actObj1.effect[2];
    3ab2:	80 91 04 39 	lds	r24, 0x3904	; 0x803904 <actObj1.3995+0x2a>
    3ab6:	90 e0       	ldi	r25, 0x00	; 0
    3ab8:	80 93 3a 38 	sts	0x383A, r24	; 0x80383a <effect>
    3abc:	90 93 3b 38 	sts	0x383B, r25	; 0x80383b <effect+0x1>
                    UpdateState(actObj1.byteField[ACTION_STATE]);
    3ac0:	80 91 e4 38 	lds	r24, 0x38E4	; 0x8038e4 <actObj1.3995+0xa>
    3ac4:	0e 94 59 0a 	call	0x14b2	; 0x14b2 <UpdateState>
    3ac8:	38 c0       	rjmp	.+112    	; 0x3b3a <ProcessInput+0xff2>
                } else {
                    SetResponse(elements++, actObj1.addrStr[ACTION_ACL_MSG], actObj1.lenStr[ACTION_ACL_MSG], GAME);
    3aca:	80 91 fe 38 	lds	r24, 0x38FE	; 0x8038fe <actObj1.3995+0x24>
    3ace:	90 91 ff 38 	lds	r25, 0x38FF	; 0x8038ff <actObj1.3995+0x25>
    return 0;
}

//
void SetResponse(uint8_t number, uint16_t address, uint16_t length, uint8_t type){
    reactStr[0][number]=address;
    3ad2:	20 91 f0 38 	lds	r18, 0x38F0	; 0x8038f0 <actObj1.3995+0x16>
    3ad6:	30 91 f1 38 	lds	r19, 0x38F1	; 0x8038f1 <actObj1.3995+0x17>
    3ada:	20 93 1d 39 	sts	0x391D, r18	; 0x80391d <reactStr+0x2>
    3ade:	30 93 1e 39 	sts	0x391E, r19	; 0x80391e <reactStr+0x3>
    reactStr[1][number]=length;
    3ae2:	80 93 5d 39 	sts	0x395D, r24	; 0x80395d <reactStr+0x42>
    3ae6:	90 93 5e 39 	sts	0x395E, r25	; 0x80395e <reactStr+0x43>
    reactStr[2][number]=type;
    3aea:	10 92 9d 39 	sts	0x399D, r1	; 0x80399d <reactStr+0x82>
    3aee:	10 92 9e 39 	sts	0x399E, r1	; 0x80399e <reactStr+0x83>
                    SetResponse(elements++, actObj1.addrStr[ACTION_MSG], actObj1.lenStr[ACTION_MSG], GAME);
                    effect = actObj1.effect[2];
                    UpdateState(actObj1.byteField[ACTION_STATE]);
                } else {
                    SetResponse(elements++, actObj1.addrStr[ACTION_ACL_MSG], actObj1.lenStr[ACTION_ACL_MSG], GAME);
                    effect = actObj1.effect[1];
    3af2:	80 91 03 39 	lds	r24, 0x3903	; 0x803903 <actObj1.3995+0x29>
    3af6:	90 e0       	ldi	r25, 0x00	; 0
    3af8:	80 93 3a 38 	sts	0x383A, r24	; 0x80383a <effect>
    3afc:	90 93 3b 38 	sts	0x383B, r25	; 0x80383b <effect+0x1>
    3b00:	1c c0       	rjmp	.+56     	; 0x3b3a <ProcessInput+0xff2>
                }

            } else {
                PopulateObject(route[currDepth+1], &actObj1);
    3b02:	80 81       	ld	r24, Z
    3b04:	91 81       	ldd	r25, Z+1	; 0x01
    3b06:	0e 94 ea 10 	call	0x21d4	; 0x21d4 <PopulateObject>
    return 0;
}

//
void SetResponse(uint8_t number, uint16_t address, uint16_t length, uint8_t type){
    reactStr[0][number]=address;
    3b0a:	8d e9       	ldi	r24, 0x9D	; 157
    3b0c:	98 e7       	ldi	r25, 0x78	; 120
    3b0e:	80 93 1d 39 	sts	0x391D, r24	; 0x80391d <reactStr+0x2>
    3b12:	90 93 1e 39 	sts	0x391E, r25	; 0x80391e <reactStr+0x3>
    reactStr[1][number]=length;
    3b16:	82 e1       	ldi	r24, 0x12	; 18
    3b18:	90 e0       	ldi	r25, 0x00	; 0
    3b1a:	80 93 5d 39 	sts	0x395D, r24	; 0x80395d <reactStr+0x42>
    3b1e:	90 93 5e 39 	sts	0x395E, r25	; 0x80395e <reactStr+0x43>
    reactStr[2][number]=type;
    3b22:	81 e0       	ldi	r24, 0x01	; 1
    3b24:	90 e0       	ldi	r25, 0x00	; 0
    3b26:	80 93 9d 39 	sts	0x399D, r24	; 0x80399d <reactStr+0x82>
    3b2a:	90 93 9e 39 	sts	0x399E, r25	; 0x80399e <reactStr+0x83>
                }

            } else {
                PopulateObject(route[currDepth+1], &actObj1);
                SetResponse(elements++, A_INCORRECT, L_INCORRECT, TEASER);
                PunishmentTime = getClock();
    3b2e:	0e 94 6a 0d 	call	0x1ad4	; 0x1ad4 <getClock>
    3b32:	80 93 07 39 	sts	0x3907, r24	; 0x803907 <PunishmentTime>
    3b36:	90 93 08 39 	sts	0x3908, r25	; 0x803908 <PunishmentTime+0x1>
                    effect = actObj1.effect[1];
                }

            } else {
                PopulateObject(route[currDepth+1], &actObj1);
                SetResponse(elements++, A_INCORRECT, L_INCORRECT, TEASER);
    3b3a:	82 e0       	ldi	r24, 0x02	; 2
    3b3c:	78 2e       	mov	r7, r24
                PunishmentTime = getClock();
            }
            specialInput[0] = 0;
    3b3e:	10 92 0a 39 	sts	0x390A, r1	; 0x80390a <specialInput>
    return 0;
}

//
void SetResponse(uint8_t number, uint16_t address, uint16_t length, uint8_t type){
    reactStr[0][number]=address;
    3b42:	8b e5       	ldi	r24, 0x5B	; 91
    3b44:	9a e7       	ldi	r25, 0x7A	; 122
    3b46:	80 93 1b 39 	sts	0x391B, r24	; 0x80391b <reactStr>
    3b4a:	90 93 1c 39 	sts	0x391C, r25	; 0x80391c <reactStr+0x1>
    reactStr[1][number]=length;
    3b4e:	82 e0       	ldi	r24, 0x02	; 2
    3b50:	90 e0       	ldi	r25, 0x00	; 0
    3b52:	80 93 5b 39 	sts	0x395B, r24	; 0x80395b <reactStr+0x40>
    3b56:	90 93 5c 39 	sts	0x395C, r25	; 0x80395c <reactStr+0x41>
    reactStr[2][number]=type;
    3b5a:	81 e0       	ldi	r24, 0x01	; 1
    3b5c:	90 e0       	ldi	r25, 0x00	; 0
    3b5e:	80 93 9b 39 	sts	0x399B, r24	; 0x80399b <reactStr+0x80>
    3b62:	90 93 9c 39 	sts	0x399C, r25	; 0x80399c <reactStr+0x81>
               
        }
            
        //Input handled
        SetResponse(0, A_LF, 2, TEASER);
        if (specialInput[0]) responseList = elements; else responseList = SetStandardResponse(elements);
    3b66:	80 91 0a 39 	lds	r24, 0x390A	; 0x80390a <specialInput>
    3b6a:	88 23       	and	r24, r24
    3b6c:	19 f0       	breq	.+6      	; 0x3b74 <ProcessInput+0x102c>
    3b6e:	70 92 1a 39 	sts	0x391A, r7	; 0x80391a <responseList>
    3b72:	9b c0       	rjmp	.+310    	; 0x3caa <ProcessInput+0x1162>
    3b74:	87 2d       	mov	r24, r7
    3b76:	12 c0       	rjmp	.+36     	; 0x3b9c <ProcessInput+0x1054>
    return 0;
}

//
void SetResponse(uint8_t number, uint16_t address, uint16_t length, uint8_t type){
    reactStr[0][number]=address;
    3b78:	8b e5       	ldi	r24, 0x5B	; 91
    3b7a:	9a e7       	ldi	r25, 0x7A	; 122
    3b7c:	80 93 1b 39 	sts	0x391B, r24	; 0x80391b <reactStr>
    3b80:	90 93 1c 39 	sts	0x391C, r25	; 0x80391c <reactStr+0x1>
    reactStr[1][number]=length;
    3b84:	82 e0       	ldi	r24, 0x02	; 2
    3b86:	90 e0       	ldi	r25, 0x00	; 0
    3b88:	80 93 5b 39 	sts	0x395B, r24	; 0x80395b <reactStr+0x40>
    3b8c:	90 93 5c 39 	sts	0x395C, r25	; 0x80395c <reactStr+0x41>
    reactStr[2][number]=type;
    3b90:	81 e0       	ldi	r24, 0x01	; 1
    3b92:	90 e0       	ldi	r25, 0x00	; 0
    3b94:	80 93 9b 39 	sts	0x399B, r24	; 0x80399b <reactStr+0x80>
    3b98:	90 93 9c 39 	sts	0x399C, r25	; 0x80399c <reactStr+0x81>
        SetResponse(0, A_LF, 2, TEASER);
        if (specialInput[0]) responseList = elements; else responseList = SetStandardResponse(elements);

    } else {
        SetResponse(0, A_LF, 2, TEASER);
        responseList = SetStandardResponse(1);
    3b9c:	0e 94 6e 10 	call	0x20dc	; 0x20dc <SetStandardResponse>
    3ba0:	80 93 1a 39 	sts	0x391A, r24	; 0x80391a <responseList>
    3ba4:	82 c0       	rjmp	.+260    	; 0x3caa <ProcessInput+0x1162>
    return 0;
}

//
void SetResponse(uint8_t number, uint16_t address, uint16_t length, uint8_t type){
    reactStr[0][number]=address;
    3ba6:	83 ed       	ldi	r24, 0xD3	; 211
    3ba8:	99 e7       	ldi	r25, 0x79	; 121
    3baa:	92 cd       	rjmp	.-1244   	; 0x36d0 <ProcessInput+0xb88>

        //Drop item if in inventory
        if (data[0] == 'd') {
            if ((inventory[0] == 0)&&(inventory[1] == 0)){
                SetResponse(elements++, A_EMPTYHANDS, L_EMPTYHANDS, TEASER);
            } else if (inputLen != 2) {
    3bac:	b2 e0       	ldi	r27, 0x02	; 2
    3bae:	fb 12       	cpse	r15, r27
    3bb0:	0c 94 d3 15 	jmp	0x2ba6	; 0x2ba6 <ProcessInput+0x5e>
                SetResponse(elements++, A_NOTPOSSIBLE, L_NOTPOSSIBLE, TEASER);
            } else {
                for (uint8_t x=0; x<2; ++x) {
                    if (inventory[x]) {
                        if (CheckLetter(inventory[x], data[1])) {
    3bb4:	d8 01       	movw	r26, r16
    3bb6:	11 96       	adiw	r26, 0x01	; 1
    3bb8:	6c 91       	ld	r22, X
    3bba:	0e 94 61 11 	call	0x22c2	; 0x22c2 <CheckLetter>
    3bbe:	88 23       	and	r24, r24
    3bc0:	09 f4       	brne	.+2      	; 0x3bc4 <ProcessInput+0x107c>
    3bc2:	5b c0       	rjmp	.+182    	; 0x3c7a <ProcessInput+0x1132>
                SetResponse(elements++, A_EMPTYHANDS, L_EMPTYHANDS, TEASER);
            } else if (inputLen != 2) {
                SetResponse(elements++, A_NOTPOSSIBLE, L_NOTPOSSIBLE, TEASER);
            } else {
                for (uint8_t x=0; x<2; ++x) {
                    if (inventory[x]) {
    3bc4:	80 e0       	ldi	r24, 0x00	; 0
    3bc6:	90 e0       	ldi	r25, 0x00	; 0
                        if (CheckLetter(inventory[x], data[1])) {
                            PopulateObject(inventory[x], &actObj1);
    3bc8:	88 0f       	add	r24, r24
    3bca:	99 1f       	adc	r25, r25
    3bcc:	9c 01       	movw	r18, r24
    3bce:	22 5c       	subi	r18, 0xC2	; 194
    3bd0:	37 4c       	sbci	r19, 0xC7	; 199
    3bd2:	79 01       	movw	r14, r18
    3bd4:	6a ed       	ldi	r22, 0xDA	; 218
    3bd6:	78 e3       	ldi	r23, 0x38	; 56
    3bd8:	d9 01       	movw	r26, r18
    3bda:	8d 91       	ld	r24, X+
    3bdc:	9c 91       	ld	r25, X
    3bde:	0e 94 ea 10 	call	0x21d4	; 0x21d4 <PopulateObject>
    return 0;
}

//
void SetResponse(uint8_t number, uint16_t address, uint16_t length, uint8_t type){
    reactStr[0][number]=address;
    3be2:	83 ed       	ldi	r24, 0xD3	; 211
    3be4:	97 e7       	ldi	r25, 0x77	; 119
    3be6:	80 93 1d 39 	sts	0x391D, r24	; 0x80391d <reactStr+0x2>
    3bea:	90 93 1e 39 	sts	0x391E, r25	; 0x80391e <reactStr+0x3>
    reactStr[1][number]=length;
    3bee:	80 e1       	ldi	r24, 0x10	; 16
    3bf0:	90 e0       	ldi	r25, 0x00	; 0
    3bf2:	80 93 5d 39 	sts	0x395D, r24	; 0x80395d <reactStr+0x42>
    3bf6:	90 93 5e 39 	sts	0x395E, r25	; 0x80395e <reactStr+0x43>
    reactStr[2][number]=type;
    3bfa:	81 e0       	ldi	r24, 0x01	; 1
    3bfc:	90 e0       	ldi	r25, 0x00	; 0
    3bfe:	80 93 9d 39 	sts	0x399D, r24	; 0x80399d <reactStr+0x82>
    3c02:	90 93 9e 39 	sts	0x399E, r25	; 0x80399e <reactStr+0x83>
                for (uint8_t x=0; x<2; ++x) {
                    if (inventory[x]) {
                        if (CheckLetter(inventory[x], data[1])) {
                            PopulateObject(inventory[x], &actObj1);
                            SetResponse(elements++, A_DROPPING, L_DROPPING, TEASER);
                            SetResponse(elements++, actObj1.addrStr[NAME], actObj1.lenStr[NAME], GAME);
    3c06:	20 91 f4 38 	lds	r18, 0x38F4	; 0x8038f4 <actObj1.3995+0x1a>
    3c0a:	30 91 f5 38 	lds	r19, 0x38F5	; 0x8038f5 <actObj1.3995+0x1b>
    return 0;
}

//
void SetResponse(uint8_t number, uint16_t address, uint16_t length, uint8_t type){
    reactStr[0][number]=address;
    3c0e:	40 91 e6 38 	lds	r20, 0x38E6	; 0x8038e6 <actObj1.3995+0xc>
    3c12:	50 91 e7 38 	lds	r21, 0x38E7	; 0x8038e7 <actObj1.3995+0xd>
    3c16:	40 93 1f 39 	sts	0x391F, r20	; 0x80391f <reactStr+0x4>
    3c1a:	50 93 20 39 	sts	0x3920, r21	; 0x803920 <reactStr+0x5>
    reactStr[1][number]=length;
    3c1e:	20 93 5f 39 	sts	0x395F, r18	; 0x80395f <reactStr+0x44>
    3c22:	30 93 60 39 	sts	0x3960, r19	; 0x803960 <reactStr+0x45>
    reactStr[2][number]=type;
    3c26:	10 92 9f 39 	sts	0x399F, r1	; 0x80399f <reactStr+0x84>
    3c2a:	10 92 a0 39 	sts	0x39A0, r1	; 0x8039a0 <reactStr+0x85>
    return 0;
}

//
void SetResponse(uint8_t number, uint16_t address, uint16_t length, uint8_t type){
    reactStr[0][number]=address;
    3c2e:	2b e5       	ldi	r18, 0x5B	; 91
    3c30:	3a e7       	ldi	r19, 0x7A	; 122
    3c32:	20 93 21 39 	sts	0x3921, r18	; 0x803921 <reactStr+0x6>
    3c36:	30 93 22 39 	sts	0x3922, r19	; 0x803922 <reactStr+0x7>
    reactStr[1][number]=length;
    3c3a:	22 e0       	ldi	r18, 0x02	; 2
    3c3c:	30 e0       	ldi	r19, 0x00	; 0
    3c3e:	20 93 61 39 	sts	0x3961, r18	; 0x803961 <reactStr+0x46>
    3c42:	30 93 62 39 	sts	0x3962, r19	; 0x803962 <reactStr+0x47>
    reactStr[2][number]=type;
    3c46:	80 93 a1 39 	sts	0x39A1, r24	; 0x8039a1 <reactStr+0x86>
    3c4a:	90 93 a2 39 	sts	0x39A2, r25	; 0x8039a2 <reactStr+0x87>
    return 0;
}

//
void SetResponse(uint8_t number, uint16_t address, uint16_t length, uint8_t type){
    reactStr[0][number]=address;
    3c4e:	26 e9       	ldi	r18, 0x96	; 150
    3c50:	37 e7       	ldi	r19, 0x77	; 119
    3c52:	20 93 23 39 	sts	0x3923, r18	; 0x803923 <reactStr+0x8>
    3c56:	30 93 24 39 	sts	0x3924, r19	; 0x803924 <reactStr+0x9>
    reactStr[1][number]=length;
    3c5a:	2d e3       	ldi	r18, 0x3D	; 61
    3c5c:	30 e0       	ldi	r19, 0x00	; 0
    3c5e:	20 93 63 39 	sts	0x3963, r18	; 0x803963 <reactStr+0x48>
    3c62:	30 93 64 39 	sts	0x3964, r19	; 0x803964 <reactStr+0x49>
    reactStr[2][number]=type;
    3c66:	80 93 a3 39 	sts	0x39A3, r24	; 0x8039a3 <reactStr+0x88>
    3c6a:	90 93 a4 39 	sts	0x39A4, r25	; 0x8039a4 <reactStr+0x89>
                            PopulateObject(inventory[x], &actObj1);
                            SetResponse(elements++, A_DROPPING, L_DROPPING, TEASER);
                            SetResponse(elements++, actObj1.addrStr[NAME], actObj1.lenStr[NAME], GAME);
                            SetResponse(elements++, A_LF, 2, TEASER);
                            SetResponse(elements++, A_RETURNING, L_RETURNING, TEASER);
                            inventory[x] = 0;
    3c6e:	f7 01       	movw	r30, r14
    3c70:	10 82       	st	Z, r1
    3c72:	11 82       	std	Z+1, r1	; 0x01
                        if (CheckLetter(inventory[x], data[1])) {
                            PopulateObject(inventory[x], &actObj1);
                            SetResponse(elements++, A_DROPPING, L_DROPPING, TEASER);
                            SetResponse(elements++, actObj1.addrStr[NAME], actObj1.lenStr[NAME], GAME);
                            SetResponse(elements++, A_LF, 2, TEASER);
                            SetResponse(elements++, A_RETURNING, L_RETURNING, TEASER);
    3c74:	f5 e0       	ldi	r31, 0x05	; 5
    3c76:	7f 2e       	mov	r7, r31
                            inventory[x] = 0;
                            break;
    3c78:	64 cf       	rjmp	.-312    	; 0x3b42 <ProcessInput+0xffa>
                SetResponse(elements++, A_EMPTYHANDS, L_EMPTYHANDS, TEASER);
            } else if (inputLen != 2) {
                SetResponse(elements++, A_NOTPOSSIBLE, L_NOTPOSSIBLE, TEASER);
            } else {
                for (uint8_t x=0; x<2; ++x) {
                    if (inventory[x]) {
    3c7a:	80 91 40 38 	lds	r24, 0x3840	; 0x803840 <inventory+0x2>
    3c7e:	90 91 41 38 	lds	r25, 0x3841	; 0x803841 <inventory+0x3>
    3c82:	00 97       	sbiw	r24, 0x00	; 0
    3c84:	49 f0       	breq	.+18     	; 0x3c98 <ProcessInput+0x1150>
                        if (CheckLetter(inventory[x], data[1])) {
    3c86:	f8 01       	movw	r30, r16
    3c88:	61 81       	ldd	r22, Z+1	; 0x01
    3c8a:	0e 94 61 11 	call	0x22c2	; 0x22c2 <CheckLetter>
    3c8e:	88 23       	and	r24, r24
    3c90:	19 f0       	breq	.+6      	; 0x3c98 <ProcessInput+0x1150>
                SetResponse(elements++, A_EMPTYHANDS, L_EMPTYHANDS, TEASER);
            } else if (inputLen != 2) {
                SetResponse(elements++, A_NOTPOSSIBLE, L_NOTPOSSIBLE, TEASER);
            } else {
                for (uint8_t x=0; x<2; ++x) {
                    if (inventory[x]) {
    3c92:	81 e0       	ldi	r24, 0x01	; 1
    3c94:	90 e0       	ldi	r25, 0x00	; 0
    3c96:	98 cf       	rjmp	.-208    	; 0x3bc8 <ProcessInput+0x1080>
    return 0;
}

//
void SetResponse(uint8_t number, uint16_t address, uint16_t length, uint8_t type){
    reactStr[0][number]=address;
    3c98:	83 e6       	ldi	r24, 0x63	; 99
    3c9a:	99 e7       	ldi	r25, 0x79	; 121
    3c9c:	80 93 1d 39 	sts	0x391D, r24	; 0x80391d <reactStr+0x2>
    3ca0:	90 93 1e 39 	sts	0x391E, r25	; 0x80391e <reactStr+0x3>
    reactStr[1][number]=length;
    3ca4:	81 e2       	ldi	r24, 0x21	; 33
    3ca6:	90 e0       	ldi	r25, 0x00	; 0
    3ca8:	13 c8       	rjmp	.-4058   	; 0x2cd0 <ProcessInput+0x188>
    } else {
        SetResponse(0, A_LF, 2, TEASER);
        responseList = SetStandardResponse(1);
    }

    data[0] = 0;
    3caa:	d8 01       	movw	r26, r16
    3cac:	1c 92       	st	X, r1
    serRxDone = 0;
    3cae:	10 92 44 38 	sts	0x3844, r1	; 0x803844 <serRxDone>
    RXCNT = 0;    
    3cb2:	1d ba       	out	0x1d, r1	; 29
    return 0;
}
    3cb4:	80 e0       	ldi	r24, 0x00	; 0
    3cb6:	28 96       	adiw	r28, 0x08	; 8
    3cb8:	cd bf       	out	0x3d, r28	; 61
    3cba:	de bf       	out	0x3e, r29	; 62
    3cbc:	df 91       	pop	r29
    3cbe:	cf 91       	pop	r28
    3cc0:	1f 91       	pop	r17
    3cc2:	0f 91       	pop	r16
    3cc4:	ff 90       	pop	r15
    3cc6:	ef 90       	pop	r14
    3cc8:	df 90       	pop	r13
    3cca:	cf 90       	pop	r12
    3ccc:	bf 90       	pop	r11
    3cce:	af 90       	pop	r10
    3cd0:	9f 90       	pop	r9
    3cd2:	8f 90       	pop	r8
    3cd4:	7f 90       	pop	r7
    3cd6:	6f 90       	pop	r6
    3cd8:	5f 90       	pop	r5
    3cda:	08 95       	ret

00003cdc <TextAdventure>:


//MAIN GAME STRUCTURE
uint8_t TextAdventure(){
    3cdc:	cf 93       	push	r28
    static uint8_t serInput[RXLEN];
    uint16_t PunishmentCount;
    
    /* Count down PunishmentTime on WING LEDs */
    if (PunishmentTime != 0) {
    3cde:	80 91 07 39 	lds	r24, 0x3907	; 0x803907 <PunishmentTime>
    3ce2:	90 91 08 39 	lds	r25, 0x3908	; 0x803908 <PunishmentTime+0x1>
    3ce6:	89 2b       	or	r24, r25
    3ce8:	09 f1       	breq	.+66     	; 0x3d2c <TextAdventure+0x50>
        PunishmentCount = getClock();
    3cea:	0e 94 6a 0d 	call	0x1ad4	; 0x1ad4 <getClock>
        if (PunishmentCount < PunishmentTime)
    3cee:	20 91 07 39 	lds	r18, 0x3907	; 0x803907 <PunishmentTime>
    3cf2:	30 91 08 39 	lds	r19, 0x3908	; 0x803908 <PunishmentTime+0x1>
    3cf6:	82 17       	cp	r24, r18
    3cf8:	93 07       	cpc	r25, r19
    3cfa:	08 f4       	brcc	.+2      	; 0x3cfe <TextAdventure+0x22>
            PunishmentCount += 256 * 60;
    3cfc:	94 5c       	subi	r25, 0xC4	; 196
        PunishmentCount -= PunishmentTime;
    3cfe:	ac 01       	movw	r20, r24
    3d00:	42 1b       	sub	r20, r18
    3d02:	53 0b       	sbc	r21, r19
    3d04:	9a 01       	movw	r18, r20
        if (PunishmentCount > 10) {
    3d06:	4b 30       	cpi	r20, 0x0B	; 11
    3d08:	51 05       	cpc	r21, r1
    3d0a:	30 f0       	brcs	.+12     	; 0x3d18 <TextAdventure+0x3c>
            PunishmentTime = 0;
    3d0c:	10 92 07 39 	sts	0x3907, r1	; 0x803907 <PunishmentTime>
    3d10:	10 92 08 39 	sts	0x3908, r1	; 0x803908 <PunishmentTime+0x1>
            PunishmentCount = 10;
    3d14:	2a e0       	ldi	r18, 0x0A	; 10
    3d16:	30 e0       	ldi	r19, 0x00	; 0
        }
        if (gameNow == TEXT ) {
    3d18:	80 91 3c 38 	lds	r24, 0x383C	; 0x80383c <gameNow>
    3d1c:	81 11       	cpse	r24, r1
    3d1e:	06 c0       	rjmp	.+12     	; 0x3d2c <TextAdventure+0x50>
            WingBar(10-PunishmentCount,5-PunishmentCount);
    3d20:	65 e0       	ldi	r22, 0x05	; 5
    3d22:	62 1b       	sub	r22, r18
    3d24:	8a e0       	ldi	r24, 0x0A	; 10
    3d26:	82 1b       	sub	r24, r18
    3d28:	0e 94 3c 0b 	call	0x1678	; 0x1678 <WingBar>
        }
    }

    //Still sending data to serial?
    if (CheckSend()) return 1;
    3d2c:	0e 94 40 12 	call	0x2480	; 0x2480 <CheckSend>
    3d30:	88 23       	and	r24, r24
    3d32:	11 f0       	breq	.+4      	; 0x3d38 <TextAdventure+0x5c>
    3d34:	c1 e0       	ldi	r28, 0x01	; 1
    3d36:	18 c0       	rjmp	.+48     	; 0x3d68 <TextAdventure+0x8c>

    //Not sending? Process next response part to send, if any.
    if (CheckResponse()) return 1;        
    3d38:	0e 94 ae 12 	call	0x255c	; 0x255c <CheckResponse>
    3d3c:	c8 2f       	mov	r28, r24
    3d3e:	81 11       	cpse	r24, r1
    3d40:	f9 cf       	rjmp	.-14     	; 0x3d34 <TextAdventure+0x58>

    if (PunishmentTime == 0) {
    3d42:	80 91 07 39 	lds	r24, 0x3907	; 0x803907 <PunishmentTime>
    3d46:	90 91 08 39 	lds	r25, 0x3908	; 0x803908 <PunishmentTime+0x1>
    3d4a:	89 2b       	or	r24, r25
    3d4c:	69 f4       	brne	.+26     	; 0x3d68 <TextAdventure+0x8c>
        //No responses to send, check if there is user input.
        if (CheckInput(&serInput[0])) return 2; 
    3d4e:	8e e6       	ldi	r24, 0x6E	; 110
    3d50:	98 e3       	ldi	r25, 0x38	; 56
    3d52:	0e 94 f5 12 	call	0x25ea	; 0x25ea <CheckInput>
    3d56:	c8 2f       	mov	r28, r24
    3d58:	81 11       	cpse	r24, r1
    3d5a:	05 c0       	rjmp	.+10     	; 0x3d66 <TextAdventure+0x8a>

        //Input found, process and save (changes only)
        ProcessInput(&serInput[0]);
    3d5c:	8e e6       	ldi	r24, 0x6E	; 110
    3d5e:	98 e3       	ldi	r25, 0x38	; 56
    3d60:	0e 94 a4 15 	call	0x2b48	; 0x2b48 <ProcessInput>
    3d64:	01 c0       	rjmp	.+2      	; 0x3d68 <TextAdventure+0x8c>
    //Not sending? Process next response part to send, if any.
    if (CheckResponse()) return 1;        

    if (PunishmentTime == 0) {
        //No responses to send, check if there is user input.
        if (CheckInput(&serInput[0])) return 2; 
    3d66:	c2 e0       	ldi	r28, 0x02	; 2
        //Input found, process and save (changes only)
        ProcessInput(&serInput[0]);
    }

    return 0;
}
    3d68:	8c 2f       	mov	r24, r28
    3d6a:	cf 91       	pop	r28
    3d6c:	08 95       	ret

00003d6e <main>:


//This is where it begins, inits first and main program in while(1) loop.
int main(void)
{
    Setup();
    3d6e:	0e 94 48 05 	call	0xa90	; 0xa90 <Setup>

    LoadGameState();
    3d72:	0e 94 aa 0a 	call	0x1554	; 0x1554 <LoadGameState>
            SaveGameState();

            //Check light sensor status (added hysteresis to preserve writing cycles to internal EEPROM)
            if (adcPhot < 10) WriteStatusBit(116, 1);
            if (adcPhot > 100) WriteStatusBit(116, 0);
            dimValue = 0 - QSINE[31-(adcPhot>>7)];
    3d76:	cf e1       	ldi	r28, 0x1F	; 31
    3d78:	d0 e0       	ldi	r29, 0x00	; 0
    Setup();

    LoadGameState();

    while (TRUE) {
        if (GenerateAudio()) {
    3d7a:	0e 94 33 0c 	call	0x1866	; 0x1866 <GenerateAudio>
    3d7e:	88 23       	and	r24, r24
    3d80:	e1 f3       	breq	.-8      	; 0x3d7a <main+0xc>
            lastButtonState = buttonState;
    3d82:	80 91 08 38 	lds	r24, 0x3808	; 0x803808 <buttonState>
    3d86:	80 93 07 38 	sts	0x3807, r24	; 0x803807 <lastButtonState>
            buttonState = CheckButtons();
    3d8a:	0e 94 07 09 	call	0x120e	; 0x120e <CheckButtons>
    3d8e:	80 93 08 38 	sts	0x3808, r24	; 0x803808 <buttonState>
            buttonMark = 0;
    3d92:	10 92 42 38 	sts	0x3842, r1	; 0x803842 <buttonMark>

            if (VREF_CTRLA == 0x12) SelectAuIn(); else SelectTSens();
    3d96:	80 91 a0 00 	lds	r24, 0x00A0	; 0x8000a0 <__TEXT_REGION_LENGTH__+0x7000a0>
    3d9a:	82 31       	cpi	r24, 0x12	; 18
    3d9c:	19 f4       	brne	.+6      	; 0x3da4 <main+0x36>
    3d9e:	0e 94 f8 08 	call	0x11f0	; 0x11f0 <SelectAuIn>
    3da2:	02 c0       	rjmp	.+4      	; 0x3da8 <main+0x3a>
    3da4:	0e 94 e9 08 	call	0x11d2	; 0x11d2 <SelectTSens>

            GenerateBlinks();
    3da8:	0e 94 7a 0b 	call	0x16f4	; 0x16f4 <GenerateBlinks>

            //Main game, to complete: Finish sub-game MagnetMaze and MakeFriends too.
            TextAdventure();
    3dac:	97 df       	rcall	.-210    	; 0x3cdc <TextAdventure>

            //Other games & user interaction checks
            MagnetMaze();
    3dae:	0e 94 50 04 	call	0x8a0	; 0x8a0 <MagnetMaze>
            LanyardCode();
    3db2:	0e 94 2e 03 	call	0x65c	; 0x65c <LanyardCode>
            BastetDictates();
    3db6:	0e 94 0f 0e 	call	0x1c1e	; 0x1c1e <BastetDictates>
            MakeFriends();
    3dba:	0e 94 7a 00 	call	0xf4	; 0xf4 <MakeFriends>

            //Save progress
            SaveGameState();
    3dbe:	0e 94 b8 09 	call	0x1370	; 0x1370 <SaveGameState>

            //Check light sensor status (added hysteresis to preserve writing cycles to internal EEPROM)
            if (adcPhot < 10) WriteStatusBit(116, 1);
    3dc2:	80 91 bd 3a 	lds	r24, 0x3ABD	; 0x803abd <adcPhot>
    3dc6:	90 91 be 3a 	lds	r25, 0x3ABE	; 0x803abe <adcPhot+0x1>
    3dca:	0a 97       	sbiw	r24, 0x0a	; 10
    3dcc:	20 f4       	brcc	.+8      	; 0x3dd6 <main+0x68>
    3dce:	61 e0       	ldi	r22, 0x01	; 1
    3dd0:	84 e7       	ldi	r24, 0x74	; 116
    3dd2:	0e 94 3f 0a 	call	0x147e	; 0x147e <WriteStatusBit>
            if (adcPhot > 100) WriteStatusBit(116, 0);
    3dd6:	80 91 bd 3a 	lds	r24, 0x3ABD	; 0x803abd <adcPhot>
    3dda:	90 91 be 3a 	lds	r25, 0x3ABE	; 0x803abe <adcPhot+0x1>
    3dde:	85 36       	cpi	r24, 0x65	; 101
    3de0:	91 05       	cpc	r25, r1
    3de2:	20 f0       	brcs	.+8      	; 0x3dec <main+0x7e>
    3de4:	60 e0       	ldi	r22, 0x00	; 0
    3de6:	84 e7       	ldi	r24, 0x74	; 116
    3de8:	0e 94 3f 0a 	call	0x147e	; 0x147e <WriteStatusBit>
            dimValue = 0 - QSINE[31-(adcPhot>>7)];
    3dec:	80 91 bd 3a 	lds	r24, 0x3ABD	; 0x803abd <adcPhot>
    3df0:	90 91 be 3a 	lds	r25, 0x3ABE	; 0x803abe <adcPhot+0x1>
    3df4:	88 0f       	add	r24, r24
    3df6:	89 2f       	mov	r24, r25
    3df8:	88 1f       	adc	r24, r24
    3dfa:	99 0b       	sbc	r25, r25
    3dfc:	91 95       	neg	r25
    3dfe:	fe 01       	movw	r30, r28
    3e00:	e8 1b       	sub	r30, r24
    3e02:	f9 0b       	sbc	r31, r25
    3e04:	e0 5a       	subi	r30, 0xA0	; 160
    3e06:	f1 44       	sbci	r31, 0x41	; 65
    3e08:	80 81       	ld	r24, Z
    3e0a:	81 95       	neg	r24
    3e0c:	80 93 0a 38 	sts	0x380A, r24	; 0x80380a <dimValue>

            //Check temperature
            HotSummer();
    3e10:	0e 94 d7 0a 	call	0x15ae	; 0x15ae <HotSummer>
    3e14:	b2 cf       	rjmp	.-156    	; 0x3d7a <main+0xc>

00003e16 <_exit>:
    3e16:	f8 94       	cli

00003e18 <__stop_program>:
    3e18:	ff cf       	rjmp	.-2      	; 0x3e18 <__stop_program>
