
ISR_IO.elf:     file format elf32-avr

Sections:
Idx Name          Size      VMA       LMA       File off  Algn
  0 .data         00000090  00803800  000029da  00002a8e  2**0
                  CONTENTS, ALLOC, LOAD, DATA
  1 .text         0000299c  00000000  00000000  000000b4  2**1
                  CONTENTS, ALLOC, LOAD, READONLY, CODE
  2 .rodata       0000003e  0000a99c  0000299c  00002a50  2**0
                  CONTENTS, ALLOC, LOAD, READONLY, DATA
  3 .bss          000002cb  00803890  00803890  00002b1e  2**0
                  ALLOC
  4 .comment      00000030  00000000  00000000  00002b1e  2**0
                  CONTENTS, READONLY
  5 .note.gnu.avr.deviceinfo 00000040  00000000  00000000  00002b50  2**2
                  CONTENTS, READONLY
  6 .debug_aranges 00000260  00000000  00000000  00002b90  2**0
                  CONTENTS, READONLY, DEBUGGING
  7 .debug_info   000054a9  00000000  00000000  00002df0  2**0
                  CONTENTS, READONLY, DEBUGGING
  8 .debug_abbrev 00002366  00000000  00000000  00008299  2**0
                  CONTENTS, READONLY, DEBUGGING
  9 .debug_line   00002743  00000000  00000000  0000a5ff  2**0
                  CONTENTS, READONLY, DEBUGGING
 10 .debug_frame  00000780  00000000  00000000  0000cd44  2**2
                  CONTENTS, READONLY, DEBUGGING
 11 .debug_str    0000174b  00000000  00000000  0000d4c4  2**0
                  CONTENTS, READONLY, DEBUGGING
 12 .debug_loc    00003965  00000000  00000000  0000ec0f  2**0
                  CONTENTS, READONLY, DEBUGGING
 13 .debug_ranges 000002c0  00000000  00000000  00012574  2**0
                  CONTENTS, READONLY, DEBUGGING

Disassembly of section .text:

00000000 <__vectors>:
       0:	3d c0       	rjmp	.+122    	; 0x7c <__ctors_end>
       2:	00 00       	nop
       4:	58 c0       	rjmp	.+176    	; 0xb6 <__bad_interrupt>
       6:	00 00       	nop
       8:	56 c0       	rjmp	.+172    	; 0xb6 <__bad_interrupt>
       a:	00 00       	nop
       c:	54 c0       	rjmp	.+168    	; 0xb6 <__bad_interrupt>
       e:	00 00       	nop
      10:	52 c0       	rjmp	.+164    	; 0xb6 <__bad_interrupt>
      12:	00 00       	nop
      14:	50 c0       	rjmp	.+160    	; 0xb6 <__bad_interrupt>
      16:	00 00       	nop
      18:	3d c4       	rjmp	.+2170   	; 0x894 <__vector_6>
      1a:	00 00       	nop
      1c:	89 c4       	rjmp	.+2322   	; 0x930 <__vector_7>
      1e:	00 00       	nop
      20:	8e c2       	rjmp	.+1308   	; 0x53e <__vector_8>
      22:	00 00       	nop
      24:	48 c0       	rjmp	.+144    	; 0xb6 <__bad_interrupt>
      26:	00 00       	nop
      28:	46 c0       	rjmp	.+140    	; 0xb6 <__bad_interrupt>
      2a:	00 00       	nop
      2c:	44 c0       	rjmp	.+136    	; 0xb6 <__bad_interrupt>
      2e:	00 00       	nop
      30:	42 c0       	rjmp	.+132    	; 0xb6 <__bad_interrupt>
      32:	00 00       	nop
      34:	d5 c2       	rjmp	.+1450   	; 0x5e0 <__vector_13>
      36:	00 00       	nop
      38:	06 c3       	rjmp	.+1548   	; 0x646 <__vector_14>
      3a:	00 00       	nop
      3c:	3c c0       	rjmp	.+120    	; 0xb6 <__bad_interrupt>
      3e:	00 00       	nop
      40:	3a c0       	rjmp	.+116    	; 0xb6 <__bad_interrupt>
      42:	00 00       	nop
      44:	38 c0       	rjmp	.+112    	; 0xb6 <__bad_interrupt>
      46:	00 00       	nop
      48:	36 c0       	rjmp	.+108    	; 0xb6 <__bad_interrupt>
      4a:	00 00       	nop
      4c:	34 c0       	rjmp	.+104    	; 0xb6 <__bad_interrupt>
      4e:	00 00       	nop
      50:	ab c3       	rjmp	.+1878   	; 0x7a8 <__vector_20>
      52:	00 00       	nop
      54:	30 c0       	rjmp	.+96     	; 0xb6 <__bad_interrupt>
      56:	00 00       	nop
      58:	d5 c3       	rjmp	.+1962   	; 0x804 <__vector_22>
      5a:	00 00       	nop
      5c:	2c c0       	rjmp	.+88     	; 0xb6 <__bad_interrupt>
      5e:	00 00       	nop
      60:	2a c0       	rjmp	.+84     	; 0xb6 <__bad_interrupt>
      62:	00 00       	nop
      64:	28 c0       	rjmp	.+80     	; 0xb6 <__bad_interrupt>
      66:	00 00       	nop
      68:	26 c0       	rjmp	.+76     	; 0xb6 <__bad_interrupt>
      6a:	00 00       	nop
      6c:	3f c3       	rjmp	.+1662   	; 0x6ec <__vector_27>
      6e:	00 00       	nop
      70:	7f c3       	rjmp	.+1790   	; 0x770 <__vector_28>
      72:	00 00       	nop
      74:	20 c0       	rjmp	.+64     	; 0xb6 <__bad_interrupt>
      76:	00 00       	nop
      78:	1e c0       	rjmp	.+60     	; 0xb6 <__bad_interrupt>
	...

0000007c <__ctors_end>:
      7c:	11 24       	eor	r1, r1
      7e:	1f be       	out	0x3f, r1	; 63
      80:	cf ef       	ldi	r28, 0xFF	; 255
      82:	cd bf       	out	0x3d, r28	; 61
      84:	df e3       	ldi	r29, 0x3F	; 63
      86:	de bf       	out	0x3e, r29	; 62

00000088 <__do_copy_data>:
      88:	18 e3       	ldi	r17, 0x38	; 56
      8a:	a0 e0       	ldi	r26, 0x00	; 0
      8c:	b8 e3       	ldi	r27, 0x38	; 56
      8e:	ea ed       	ldi	r30, 0xDA	; 218
      90:	f9 e2       	ldi	r31, 0x29	; 41
      92:	02 c0       	rjmp	.+4      	; 0x98 <__do_copy_data+0x10>
      94:	05 90       	lpm	r0, Z+
      96:	0d 92       	st	X+, r0
      98:	a0 39       	cpi	r26, 0x90	; 144
      9a:	b1 07       	cpc	r27, r17
      9c:	d9 f7       	brne	.-10     	; 0x94 <__do_copy_data+0xc>

0000009e <__do_clear_bss>:
      9e:	2b e3       	ldi	r18, 0x3B	; 59
      a0:	a0 e9       	ldi	r26, 0x90	; 144
      a2:	b8 e3       	ldi	r27, 0x38	; 56
      a4:	01 c0       	rjmp	.+2      	; 0xa8 <.do_clear_bss_start>

000000a6 <.do_clear_bss_loop>:
      a6:	1d 92       	st	X+, r1

000000a8 <.do_clear_bss_start>:
      a8:	ab 35       	cpi	r26, 0x5B	; 91
      aa:	b2 07       	cpc	r27, r18
      ac:	e1 f7       	brne	.-8      	; 0xa6 <.do_clear_bss_loop>
      ae:	0e 94 07 14 	call	0x280e	; 0x280e <main>
      b2:	0c 94 cc 14 	jmp	0x2998	; 0x2998 <_exit>

000000b6 <__bad_interrupt>:
      b6:	a4 cf       	rjmp	.-184    	; 0x0 <__vectors>

000000b8 <I2C_init>:
// the Atmel device documentation mentions a special command for repeated start TWI_MCMD_REPSTART_gc,
// but this is not used in Atmel's demo code, so we don't use it either

void I2C_rep_start(uint8_t shifted_addr)						    // send repeated start, device_addr + LSB set if READ
{
	TWI0.MADDR = shifted_addr;	
      b8:	81 e0       	ldi	r24, 0x01	; 1
      ba:	80 93 22 04 	sts	0x0422, r24	; 0x800422 <__TEXT_REGION_LENGTH__+0x700422>
      be:	e6 e2       	ldi	r30, 0x26	; 38
      c0:	f4 e0       	ldi	r31, 0x04	; 4
      c2:	80 83       	st	Z, r24
      c4:	10 92 30 04 	sts	0x0430, r1	; 0x800430 <__TEXT_REGION_LENGTH__+0x700430>
      c8:	a1 e2       	ldi	r26, 0x21	; 33
      ca:	b4 e0       	ldi	r27, 0x04	; 4
      cc:	92 e0       	ldi	r25, 0x02	; 2
      ce:	9c 93       	st	X, r25
      d0:	90 83       	st	Z, r25
      d2:	10 92 31 04 	sts	0x0431, r1	; 0x800431 <__TEXT_REGION_LENGTH__+0x700431>
      d6:	e0 e1       	ldi	r30, 0x10	; 16
      d8:	f8 e0       	ldi	r31, 0x08	; 8
      da:	9d e2       	ldi	r25, 0x2D	; 45
      dc:	96 83       	std	Z+6, r25	; 0x06
      de:	98 e0       	ldi	r25, 0x08	; 8
      e0:	94 83       	std	Z+4, r25	; 0x04
      e2:	83 83       	std	Z+3, r24	; 0x03
      e4:	8c 93       	st	X, r24
      e6:	85 81       	ldd	r24, Z+5	; 0x05
      e8:	81 60       	ori	r24, 0x01	; 1
      ea:	85 83       	std	Z+5, r24	; 0x05
      ec:	85 81       	ldd	r24, Z+5	; 0x05
      ee:	84 6c       	ori	r24, 0xC4	; 196
      f0:	85 83       	std	Z+5, r24	; 0x05
      f2:	08 95       	ret

000000f4 <I2C_recover>:
      f4:	80 91 14 08 	lds	r24, 0x0814	; 0x800814 <__TEXT_REGION_LENGTH__+0x700814>
      f8:	88 60       	ori	r24, 0x08	; 8
      fa:	80 93 14 08 	sts	0x0814, r24	; 0x800814 <__TEXT_REGION_LENGTH__+0x700814>
      fe:	10 92 13 08 	sts	0x0813, r1	; 0x800813 <__TEXT_REGION_LENGTH__+0x700813>
     102:	82 e0       	ldi	r24, 0x02	; 2
     104:	80 93 22 04 	sts	0x0422, r24	; 0x800422 <__TEXT_REGION_LENGTH__+0x700422>
     108:	99 e0       	ldi	r25, 0x09	; 9
     10a:	21 e0       	ldi	r18, 0x01	; 1
     10c:	81 e0       	ldi	r24, 0x01	; 1
     10e:	20 93 21 04 	sts	0x0421, r18	; 0x800421 <__TEXT_REGION_LENGTH__+0x700421>
     112:	30 e1       	ldi	r19, 0x10	; 16
     114:	3a 95       	dec	r19
     116:	f1 f7       	brne	.-4      	; 0x114 <I2C_recover+0x20>
     118:	00 c0       	rjmp	.+0      	; 0x11a <I2C_recover+0x26>
     11a:	20 93 22 04 	sts	0x0422, r18	; 0x800422 <__TEXT_REGION_LENGTH__+0x700422>
     11e:	30 e1       	ldi	r19, 0x10	; 16
     120:	3a 95       	dec	r19
     122:	f1 f7       	brne	.-4      	; 0x120 <I2C_recover+0x2c>
     124:	00 c0       	rjmp	.+0      	; 0x126 <I2C_recover+0x32>
     126:	91 50       	subi	r25, 0x01	; 1
     128:	89 f7       	brne	.-30     	; 0x10c <I2C_recover+0x18>
     12a:	28 e0       	ldi	r18, 0x08	; 8
     12c:	20 93 14 08 	sts	0x0814, r18	; 0x800814 <__TEXT_REGION_LENGTH__+0x700814>
     130:	80 93 13 08 	sts	0x0813, r24	; 0x800813 <__TEXT_REGION_LENGTH__+0x700813>
     134:	92 e0       	ldi	r25, 0x02	; 2
     136:	90 93 21 04 	sts	0x0421, r25	; 0x800421 <__TEXT_REGION_LENGTH__+0x700421>
     13a:	90 91 15 08 	lds	r25, 0x0815	; 0x800815 <__TEXT_REGION_LENGTH__+0x700815>
     13e:	91 60       	ori	r25, 0x01	; 1
     140:	90 93 15 08 	sts	0x0815, r25	; 0x800815 <__TEXT_REGION_LENGTH__+0x700815>
     144:	90 91 15 08 	lds	r25, 0x0815	; 0x800815 <__TEXT_REGION_LENGTH__+0x700815>
     148:	94 6c       	ori	r25, 0xC4	; 196
     14a:	90 93 15 08 	sts	0x0815, r25	; 0x800815 <__TEXT_REGION_LENGTH__+0x700815>
     14e:	20 93 14 08 	sts	0x0814, r18	; 0x800814 <__TEXT_REGION_LENGTH__+0x700814>
     152:	80 93 13 08 	sts	0x0813, r24	; 0x800813 <__TEXT_REGION_LENGTH__+0x700813>
     156:	80 93 21 04 	sts	0x0421, r24	; 0x800421 <__TEXT_REGION_LENGTH__+0x700421>
     15a:	80 91 15 08 	lds	r24, 0x0815	; 0x800815 <__TEXT_REGION_LENGTH__+0x700815>
     15e:	81 60       	ori	r24, 0x01	; 1
     160:	80 93 15 08 	sts	0x0815, r24	; 0x800815 <__TEXT_REGION_LENGTH__+0x700815>
     164:	80 91 15 08 	lds	r24, 0x0815	; 0x800815 <__TEXT_REGION_LENGTH__+0x700815>
     168:	84 6c       	ori	r24, 0xC4	; 196
     16a:	80 93 15 08 	sts	0x0815, r24	; 0x800815 <__TEXT_REGION_LENGTH__+0x700815>
     16e:	08 95       	ret

00000170 <I2C_start>:
     170:	28 2f       	mov	r18, r24
     172:	90 91 15 08 	lds	r25, 0x0815	; 0x800815 <__TEXT_REGION_LENGTH__+0x700815>
     176:	90 6c       	ori	r25, 0xC0	; 192
     178:	90 93 15 08 	sts	0x0815, r25	; 0x800815 <__TEXT_REGION_LENGTH__+0x700815>
     17c:	90 91 15 08 	lds	r25, 0x0815	; 0x800815 <__TEXT_REGION_LENGTH__+0x700815>
     180:	89 2f       	mov	r24, r25
     182:	84 70       	andi	r24, 0x04	; 4
     184:	92 fd       	sbrc	r25, 2
     186:	03 c0       	rjmp	.+6      	; 0x18e <I2C_start+0x1e>
     188:	20 93 17 08 	sts	0x0817, r18	; 0x800817 <__TEXT_REGION_LENGTH__+0x700817>
     18c:	08 95       	ret
     18e:	84 e0       	ldi	r24, 0x04	; 4
     190:	08 95       	ret

00000192 <I2C_wait_ACK>:
     192:	8c e0       	ldi	r24, 0x0C	; 12
     194:	80 93 8e 3a 	sts	0x3A8E, r24	; 0x803a8e <timeout_I2C>
     198:	80 91 15 08 	lds	r24, 0x0815	; 0x800815 <__TEXT_REGION_LENGTH__+0x700815>
     19c:	87 fd       	sbrc	r24, 7
     19e:	0a c0       	rjmp	.+20     	; 0x1b4 <I2C_wait_ACK+0x22>
     1a0:	80 91 15 08 	lds	r24, 0x0815	; 0x800815 <__TEXT_REGION_LENGTH__+0x700815>
     1a4:	86 fd       	sbrc	r24, 6
     1a6:	06 c0       	rjmp	.+12     	; 0x1b4 <I2C_wait_ACK+0x22>
     1a8:	80 91 8e 3a 	lds	r24, 0x3A8E	; 0x803a8e <timeout_I2C>
     1ac:	81 11       	cpse	r24, r1
     1ae:	f4 cf       	rjmp	.-24     	; 0x198 <I2C_wait_ACK+0x6>
     1b0:	8f ef       	ldi	r24, 0xFF	; 255
     1b2:	08 95       	ret
     1b4:	80 91 15 08 	lds	r24, 0x0815	; 0x800815 <__TEXT_REGION_LENGTH__+0x700815>
     1b8:	80 6c       	ori	r24, 0xC0	; 192
     1ba:	80 93 15 08 	sts	0x0815, r24	; 0x800815 <__TEXT_REGION_LENGTH__+0x700815>
     1be:	80 91 15 08 	lds	r24, 0x0815	; 0x800815 <__TEXT_REGION_LENGTH__+0x700815>
     1c2:	82 fd       	sbrc	r24, 2
     1c4:	09 c0       	rjmp	.+18     	; 0x1d8 <I2C_wait_ACK+0x46>
     1c6:	80 91 15 08 	lds	r24, 0x0815	; 0x800815 <__TEXT_REGION_LENGTH__+0x700815>
     1ca:	83 fd       	sbrc	r24, 3
     1cc:	07 c0       	rjmp	.+14     	; 0x1dc <I2C_wait_ACK+0x4a>
     1ce:	80 91 15 08 	lds	r24, 0x0815	; 0x800815 <__TEXT_REGION_LENGTH__+0x700815>
     1d2:	82 95       	swap	r24
     1d4:	81 70       	andi	r24, 0x01	; 1
     1d6:	08 95       	ret
     1d8:	84 e0       	ldi	r24, 0x04	; 4
     1da:	08 95       	ret
     1dc:	82 e0       	ldi	r24, 0x02	; 2
     1de:	08 95       	ret

000001e0 <I2C_read>:
}

uint8_t	I2C_read(uint8_t *data, uint8_t ack_flag)					// read data, ack_flag 0: send ACK, 1: send NACK, returns status
{
     1e0:	fc 01       	movw	r30, r24
	timeout_I2C = READ_TIMEOUT;										// reset timeout counter, will be decremented by LED matrix interrupt
     1e2:	8c e0       	ldi	r24, 0x0C	; 12
     1e4:	80 93 8e 3a 	sts	0x3A8E, r24	; 0x803a8e <timeout_I2C>
	if ((TWI0.MSTATUS & TWI_BUSSTATE_gm) == TWI_BUSSTATE_OWNER_gc)	// if master controls bus
     1e8:	90 91 15 08 	lds	r25, 0x0815	; 0x800815 <__TEXT_REGION_LENGTH__+0x700815>
     1ec:	89 2f       	mov	r24, r25
     1ee:	83 70       	andi	r24, 0x03	; 3
     1f0:	82 30       	cpi	r24, 0x02	; 2
     1f2:	11 f0       	breq	.+4      	; 0x1f8 <I2C_read+0x18>
		else		TWI0.MCTRLB |= TWI_ACKACT_NACK_gc;				// setup NACK (last byte read)
		*data = TWI0.MDATA;
		if (ack_flag == 0) TWI0.MCTRLB |= TWI_MCMD_RECVTRANS_gc;	// send ACK, more bytes to follow					
		return 0;
	}
	else return 8;													// master does not control bus
     1f4:	88 e0       	ldi	r24, 0x08	; 8
     1f6:	08 95       	ret
uint8_t	I2C_read(uint8_t *data, uint8_t ack_flag)					// read data, ack_flag 0: send ACK, 1: send NACK, returns status
{
	timeout_I2C = READ_TIMEOUT;										// reset timeout counter, will be decremented by LED matrix interrupt
	if ((TWI0.MSTATUS & TWI_BUSSTATE_gm) == TWI_BUSSTATE_OWNER_gc)	// if master controls bus
	{		
		while (!(TWI0.MSTATUS & TWI_RIF_bm))						// wait for RIF set (data byte received)
     1f8:	90 91 15 08 	lds	r25, 0x0815	; 0x800815 <__TEXT_REGION_LENGTH__+0x700815>
     1fc:	97 fd       	sbrc	r25, 7
     1fe:	06 c0       	rjmp	.+12     	; 0x20c <I2C_read+0x2c>
		{
			if (!(timeout_I2C)) return 0xff;			            // return timeout error
     200:	90 91 8e 3a 	lds	r25, 0x3A8E	; 0x803a8e <timeout_I2C>
     204:	91 11       	cpse	r25, r1
     206:	f8 cf       	rjmp	.-16     	; 0x1f8 <I2C_read+0x18>
     208:	8f ef       	ldi	r24, 0xFF	; 255
     20a:	08 95       	ret
		}
		TWI0.MSTATUS |= (TWI_RIF_bm | TWI_WIF_bm);					// clear Read and Write interrupt flags	
     20c:	90 91 15 08 	lds	r25, 0x0815	; 0x800815 <__TEXT_REGION_LENGTH__+0x700815>
     210:	90 6c       	ori	r25, 0xC0	; 192
     212:	90 93 15 08 	sts	0x0815, r25	; 0x800815 <__TEXT_REGION_LENGTH__+0x700815>
		if (TWI0.MSTATUS & TWI_BUSERR_bm) return 4;					// Bus Error, abort
     216:	90 91 15 08 	lds	r25, 0x0815	; 0x800815 <__TEXT_REGION_LENGTH__+0x700815>
     21a:	92 fd       	sbrc	r25, 2
     21c:	1e c0       	rjmp	.+60     	; 0x25a <I2C_read+0x7a>
		if (TWI0.MSTATUS & TWI_ARBLOST_bm) return 2;				// Arbitration Lost, abort
     21e:	90 91 15 08 	lds	r25, 0x0815	; 0x800815 <__TEXT_REGION_LENGTH__+0x700815>
     222:	93 fd       	sbrc	r25, 3
     224:	1d c0       	rjmp	.+58     	; 0x260 <I2C_read+0x80>
		if (TWI0.MSTATUS & TWI_RXACK_bm) return 1;					// Slave replied with NACK, abort				
     226:	90 91 15 08 	lds	r25, 0x0815	; 0x800815 <__TEXT_REGION_LENGTH__+0x700815>
     22a:	89 2f       	mov	r24, r25
     22c:	80 71       	andi	r24, 0x10	; 16
     22e:	94 fd       	sbrc	r25, 4
     230:	16 c0       	rjmp	.+44     	; 0x25e <I2C_read+0x7e>
		if (ack_flag == 0) TWI0.MCTRLB &= ~(1 << TWI_ACKACT_bp);	// setup ACK
     232:	90 91 14 08 	lds	r25, 0x0814	; 0x800814 <__TEXT_REGION_LENGTH__+0x700814>
     236:	61 11       	cpse	r22, r1
     238:	02 c0       	rjmp	.+4      	; 0x23e <I2C_read+0x5e>
     23a:	9b 7f       	andi	r25, 0xFB	; 251
     23c:	01 c0       	rjmp	.+2      	; 0x240 <I2C_read+0x60>
		else		TWI0.MCTRLB |= TWI_ACKACT_NACK_gc;				// setup NACK (last byte read)
     23e:	94 60       	ori	r25, 0x04	; 4
     240:	90 93 14 08 	sts	0x0814, r25	; 0x800814 <__TEXT_REGION_LENGTH__+0x700814>
		*data = TWI0.MDATA;
     244:	90 91 18 08 	lds	r25, 0x0818	; 0x800818 <__TEXT_REGION_LENGTH__+0x700818>
     248:	90 83       	st	Z, r25
		if (ack_flag == 0) TWI0.MCTRLB |= TWI_MCMD_RECVTRANS_gc;	// send ACK, more bytes to follow					
     24a:	61 11       	cpse	r22, r1
     24c:	09 c0       	rjmp	.+18     	; 0x260 <I2C_read+0x80>
     24e:	90 91 14 08 	lds	r25, 0x0814	; 0x800814 <__TEXT_REGION_LENGTH__+0x700814>
     252:	92 60       	ori	r25, 0x02	; 2
     254:	90 93 14 08 	sts	0x0814, r25	; 0x800814 <__TEXT_REGION_LENGTH__+0x700814>
     258:	08 95       	ret
		while (!(TWI0.MSTATUS & TWI_RIF_bm))						// wait for RIF set (data byte received)
		{
			if (!(timeout_I2C)) return 0xff;			            // return timeout error
		}
		TWI0.MSTATUS |= (TWI_RIF_bm | TWI_WIF_bm);					// clear Read and Write interrupt flags	
		if (TWI0.MSTATUS & TWI_BUSERR_bm) return 4;					// Bus Error, abort
     25a:	84 e0       	ldi	r24, 0x04	; 4
     25c:	08 95       	ret
		if (TWI0.MSTATUS & TWI_ARBLOST_bm) return 2;				// Arbitration Lost, abort
		if (TWI0.MSTATUS & TWI_RXACK_bm) return 1;					// Slave replied with NACK, abort				
     25e:	81 e0       	ldi	r24, 0x01	; 1
		*data = TWI0.MDATA;
		if (ack_flag == 0) TWI0.MCTRLB |= TWI_MCMD_RECVTRANS_gc;	// send ACK, more bytes to follow					
		return 0;
	}
	else return 8;													// master does not control bus
}
     260:	08 95       	ret

00000262 <I2C_write>:

uint8_t I2C_write(uint8_t *data)									// write data, return status
{
     262:	fc 01       	movw	r30, r24
	timeout_I2C = WRITE_TIMEOUT;									// reset timeout counter, will be decremented by LED matrix interrupt
     264:	8c e0       	ldi	r24, 0x0C	; 12
     266:	80 93 8e 3a 	sts	0x3A8E, r24	; 0x803a8e <timeout_I2C>
	if ((TWI0.MSTATUS & TWI_BUSSTATE_gm) == TWI_BUSSTATE_OWNER_gc)	// if master controls bus
     26a:	90 91 15 08 	lds	r25, 0x0815	; 0x800815 <__TEXT_REGION_LENGTH__+0x700815>
     26e:	93 70       	andi	r25, 0x03	; 3
     270:	92 30       	cpi	r25, 0x02	; 2
     272:	b1 f4       	brne	.+44     	; 0x2a0 <I2C_write+0x3e>
	{
		TWI0.MDATA = *data;		
     274:	80 81       	ld	r24, Z
     276:	80 93 18 08 	sts	0x0818, r24	; 0x800818 <__TEXT_REGION_LENGTH__+0x700818>
		while (!(TWI0.MSTATUS & TWI_WIF_bm))						// wait until WIF set, status register contains ACK/NACK bit
     27a:	80 91 15 08 	lds	r24, 0x0815	; 0x800815 <__TEXT_REGION_LENGTH__+0x700815>
     27e:	86 fd       	sbrc	r24, 6
     280:	06 c0       	rjmp	.+12     	; 0x28e <I2C_write+0x2c>
		{
			if (!(timeout_I2C)) return 0xff;			            // return timeout error
     282:	80 91 8e 3a 	lds	r24, 0x3A8E	; 0x803a8e <timeout_I2C>
     286:	81 11       	cpse	r24, r1
     288:	f8 cf       	rjmp	.-16     	; 0x27a <I2C_write+0x18>
     28a:	8f ef       	ldi	r24, 0xFF	; 255
     28c:	08 95       	ret
		}
		if (TWI0.MSTATUS & TWI_BUSERR_bm) return 4;					// Bus Error, abort
     28e:	80 91 15 08 	lds	r24, 0x0815	; 0x800815 <__TEXT_REGION_LENGTH__+0x700815>
     292:	82 fd       	sbrc	r24, 2
     294:	07 c0       	rjmp	.+14     	; 0x2a4 <I2C_write+0x42>
		if (TWI0.MSTATUS & TWI_RXACK_bm) return 1;					// Slave replied with NACK, abort
     296:	80 91 15 08 	lds	r24, 0x0815	; 0x800815 <__TEXT_REGION_LENGTH__+0x700815>
	if ((TWI0.MSTATUS & TWI_BUSSTATE_gm) == TWI_BUSSTATE_OWNER_gc)	// if master controls bus
	{
		TWI0.MDATA = *data;		
		while (!(TWI0.MSTATUS & TWI_WIF_bm))						// wait until WIF set, status register contains ACK/NACK bit
		{
			if (!(timeout_I2C)) return 0xff;			            // return timeout error
     29a:	82 95       	swap	r24
     29c:	81 70       	andi	r24, 0x01	; 1
     29e:	08 95       	ret
		}
		if (TWI0.MSTATUS & TWI_BUSERR_bm) return 4;					// Bus Error, abort
		if (TWI0.MSTATUS & TWI_RXACK_bm) return 1;					// Slave replied with NACK, abort
		return 0;													// no error	
	}
	else return 8;													// master does not control bus
     2a0:	88 e0       	ldi	r24, 0x08	; 8
     2a2:	08 95       	ret
		TWI0.MDATA = *data;		
		while (!(TWI0.MSTATUS & TWI_WIF_bm))						// wait until WIF set, status register contains ACK/NACK bit
		{
			if (!(timeout_I2C)) return 0xff;			            // return timeout error
		}
		if (TWI0.MSTATUS & TWI_BUSERR_bm) return 4;					// Bus Error, abort
     2a4:	84 e0       	ldi	r24, 0x04	; 4
		if (TWI0.MSTATUS & TWI_RXACK_bm) return 1;					// Slave replied with NACK, abort
		return 0;													// no error	
	}
	else return 8;													// master does not control bus
}
     2a6:	08 95       	ret

000002a8 <I2C_stop>:

void I2C_stop()
{
	TWI0.MCTRLB |= TWI_MCMD_STOP_gc;
     2a8:	e0 e1       	ldi	r30, 0x10	; 16
     2aa:	f8 e0       	ldi	r31, 0x08	; 8
     2ac:	84 81       	ldd	r24, Z+4	; 0x04
     2ae:	83 60       	ori	r24, 0x03	; 3
     2b0:	84 83       	std	Z+4, r24	; 0x04
     2b2:	08 95       	ret

000002b4 <I2C_read_bytes>:
// addr_ptr		address of first array element to transfer
// slave reg	starting slave register
// num_bytes	number of bytes to transfer

uint8_t	I2C_read_bytes(uint8_t slave_addr, uint8_t *reg_ptr, uint8_t reg_len, uint8_t *dat_ptr, uint8_t dat_len)
{
     2b4:	cf 92       	push	r12
     2b6:	df 92       	push	r13
     2b8:	ff 92       	push	r15
     2ba:	0f 93       	push	r16
     2bc:	1f 93       	push	r17
     2be:	cf 93       	push	r28
     2c0:	df 93       	push	r29
     2c2:	6b 01       	movw	r12, r22
     2c4:	f4 2e       	mov	r15, r20
     2c6:	e9 01       	movw	r28, r18
	uint8_t status;
	if (dat_len > MAX_LEN) dat_len = MAX_LEN;
	status = I2C_start(slave_addr << 1);							// slave write address, LSB 0
     2c8:	18 2f       	mov	r17, r24
     2ca:	11 0f       	add	r17, r17
     2cc:	81 2f       	mov	r24, r17
     2ce:	50 df       	rcall	.-352    	; 0x170 <I2C_start>
	if (status != 0) goto error;
     2d0:	81 11       	cpse	r24, r1
	status = I2C_wait_ACK();										// wait for slave ACK
     2d2:	2b c0       	rjmp	.+86     	; 0x32a <I2C_read_bytes+0x76>
     2d4:	5e df       	rcall	.-324    	; 0x192 <I2C_wait_ACK>
	if (status == 1) {
     2d6:	81 30       	cpi	r24, 0x01	; 1
		I2C_stop();													// NACK, abort
     2d8:	19 f4       	brne	.+6      	; 0x2e0 <I2C_read_bytes+0x2c>
     2da:	e6 df       	rcall	.-52     	; 0x2a8 <I2C_stop>
		return 1;
     2dc:	81 e0       	ldi	r24, 0x01	; 1
     2de:	27 c0       	rjmp	.+78     	; 0x32e <I2C_read_bytes+0x7a>
	}
	if (status != 0) goto error;
     2e0:	81 11       	cpse	r24, r1
     2e2:	23 c0       	rjmp	.+70     	; 0x32a <I2C_read_bytes+0x76>
    while(reg_len > 0){
     2e4:	ff 20       	and	r15, r15
	    status = I2C_write(reg_ptr);    							// send slave start register
     2e6:	49 f0       	breq	.+18     	; 0x2fa <I2C_read_bytes+0x46>
     2e8:	c6 01       	movw	r24, r12
     2ea:	bb df       	rcall	.-138    	; 0x262 <I2C_write>
	    if (status != 0) goto error;
     2ec:	81 11       	cpse	r24, r1
     2ee:	1d c0       	rjmp	.+58     	; 0x32a <I2C_read_bytes+0x76>
        ++reg_ptr;
     2f0:	8f ef       	ldi	r24, 0xFF	; 255
     2f2:	c8 1a       	sub	r12, r24
     2f4:	d8 0a       	sbc	r13, r24
        --reg_len;
     2f6:	fa 94       	dec	r15
     2f8:	f5 cf       	rjmp	.-22     	; 0x2e4 <I2C_read_bytes+0x30>
     2fa:	01 34       	cpi	r16, 0x41	; 65
     2fc:	08 f0       	brcs	.+2      	; 0x300 <I2C_read_bytes+0x4c>
     2fe:	00 e4       	ldi	r16, 0x40	; 64
    }
	I2C_rep_start((slave_addr << 1) + 1);							// slave read address, LSB 1
     300:	1f 5f       	subi	r17, 0xFF	; 255
// the Atmel device documentation mentions a special command for repeated start TWI_MCMD_REPSTART_gc,
// but this is not used in Atmel's demo code, so we don't use it either

void I2C_rep_start(uint8_t shifted_addr)						    // send repeated start, device_addr + LSB set if READ
{
	TWI0.MADDR = shifted_addr;	
     302:	10 93 17 08 	sts	0x0817, r17	; 0x800817 <__TEXT_REGION_LENGTH__+0x700817>
	    if (status != 0) goto error;
        ++reg_ptr;
        --reg_len;
    }
	I2C_rep_start((slave_addr << 1) + 1);							// slave read address, LSB 1
	while (dat_len > 1) {
     306:	02 30       	cpi	r16, 0x02	; 2
		status = I2C_read(dat_ptr, 0);								// first bytes, send ACK
     308:	40 f0       	brcs	.+16     	; 0x31a <I2C_read_bytes+0x66>
     30a:	60 e0       	ldi	r22, 0x00	; 0
     30c:	ce 01       	movw	r24, r28
     30e:	68 df       	rcall	.-304    	; 0x1e0 <I2C_read>
		if (status != 0) goto error;
     310:	81 11       	cpse	r24, r1
     312:	0b c0       	rjmp	.+22     	; 0x32a <I2C_read_bytes+0x76>
		++dat_ptr;
		--dat_len;
     314:	21 96       	adiw	r28, 0x01	; 1
     316:	01 50       	subi	r16, 0x01	; 1
	}
	status = I2C_read(dat_ptr, 1);									// single or last byte, send NACK
     318:	f6 cf       	rjmp	.-20     	; 0x306 <I2C_read_bytes+0x52>
     31a:	61 e0       	ldi	r22, 0x01	; 1
     31c:	ce 01       	movw	r24, r28
	if (status != 0) goto error;
     31e:	60 df       	rcall	.-320    	; 0x1e0 <I2C_read>
     320:	81 11       	cpse	r24, r1
	I2C_stop();
     322:	03 c0       	rjmp	.+6      	; 0x32a <I2C_read_bytes+0x76>
     324:	c1 df       	rcall	.-126    	; 0x2a8 <I2C_stop>
	return 0;
     326:	80 e0       	ldi	r24, 0x00	; 0
     328:	02 c0       	rjmp	.+4      	; 0x32e <I2C_read_bytes+0x7a>
	
error:
	I2C_recover();													// clock out possibly stuck slave, reset master
     32a:	e4 de       	rcall	.-568    	; 0xf4 <I2C_recover>
     32c:	8f ef       	ldi	r24, 0xFF	; 255
	return 0xff;													// flag error
     32e:	df 91       	pop	r29
}
     330:	cf 91       	pop	r28
     332:	1f 91       	pop	r17
     334:	0f 91       	pop	r16
     336:	ff 90       	pop	r15
     338:	df 90       	pop	r13
     33a:	cf 90       	pop	r12
     33c:	08 95       	ret

0000033e <Setup>:
     33e:	cf 93       	push	r28
// Select "audio" input (0-2.5V)
void SelectAuIn(){
     VREF_CTRLA   = 0x22;    //0x22 for audio in/out (2.5V), 0x12 for temperature in, audio out (1.1V/2.5V)
     ADC0_CTRLA   &= ~(ADC_RESSEL_bm);
     ADC0_MUXPOS  = 0x07;    //Audio in: AIN7 at (0x07), Temperature: Internal sensor at (0x1E)
     adc0Chg = 1;
     340:	df 93       	push	r29
     342:	f8 94       	cli
     344:	88 ed       	ldi	r24, 0xD8	; 216
     346:	84 bf       	out	0x34, r24	; 52
     348:	c1 e0       	ldi	r28, 0x01	; 1
     34a:	c0 93 61 00 	sts	0x0061, r28	; 0x800061 <__TEXT_REGION_LENGTH__+0x700061>
     34e:	8a e4       	ldi	r24, 0x4A	; 74
     350:	80 93 00 04 	sts	0x0400, r24	; 0x800400 <__TEXT_REGION_LENGTH__+0x700400>
     354:	8c e7       	ldi	r24, 0x7C	; 124
     356:	80 93 20 04 	sts	0x0420, r24	; 0x800420 <__TEXT_REGION_LENGTH__+0x700420>
     35a:	9f e3       	ldi	r25, 0x3F	; 63
     35c:	90 93 40 04 	sts	0x0440, r25	; 0x800440 <__TEXT_REGION_LENGTH__+0x700440>
     360:	80 91 53 04 	lds	r24, 0x0453	; 0x800453 <__TEXT_REGION_LENGTH__+0x700453>
     364:	80 68       	ori	r24, 0x80	; 128
     366:	80 93 53 04 	sts	0x0453, r24	; 0x800453 <__TEXT_REGION_LENGTH__+0x700453>
     36a:	80 91 54 04 	lds	r24, 0x0454	; 0x800454 <__TEXT_REGION_LENGTH__+0x700454>
     36e:	80 68       	ori	r24, 0x80	; 128
     370:	80 93 54 04 	sts	0x0454, r24	; 0x800454 <__TEXT_REGION_LENGTH__+0x700454>
     374:	80 91 55 04 	lds	r24, 0x0455	; 0x800455 <__TEXT_REGION_LENGTH__+0x700455>
     378:	80 68       	ori	r24, 0x80	; 128
     37a:	80 93 55 04 	sts	0x0455, r24	; 0x800455 <__TEXT_REGION_LENGTH__+0x700455>
     37e:	80 91 33 04 	lds	r24, 0x0433	; 0x800433 <__TEXT_REGION_LENGTH__+0x700433>
     382:	80 68       	ori	r24, 0x80	; 128
     384:	80 93 33 04 	sts	0x0433, r24	; 0x800433 <__TEXT_REGION_LENGTH__+0x700433>
     388:	80 91 34 04 	lds	r24, 0x0434	; 0x800434 <__TEXT_REGION_LENGTH__+0x700434>
     38c:	80 68       	ori	r24, 0x80	; 128
     38e:	80 93 34 04 	sts	0x0434, r24	; 0x800434 <__TEXT_REGION_LENGTH__+0x700434>
     392:	80 91 35 04 	lds	r24, 0x0435	; 0x800435 <__TEXT_REGION_LENGTH__+0x700435>
     396:	80 68       	ori	r24, 0x80	; 128
     398:	80 93 35 04 	sts	0x0435, r24	; 0x800435 <__TEXT_REGION_LENGTH__+0x700435>
     39c:	c0 93 01 02 	sts	0x0201, r28	; 0x800201 <__TEXT_REGION_LENGTH__+0x700201>
     3a0:	d2 e0       	ldi	r29, 0x02	; 2
     3a2:	d0 93 05 04 	sts	0x0405, r29	; 0x800405 <__TEXT_REGION_LENGTH__+0x700405>
     3a6:	2b e5       	ldi	r18, 0x5B	; 91
     3a8:	31 e0       	ldi	r19, 0x01	; 1
     3aa:	20 93 08 08 	sts	0x0808, r18	; 0x800808 <__TEXT_REGION_LENGTH__+0x700808>
     3ae:	30 93 09 08 	sts	0x0809, r19	; 0x800809 <__TEXT_REGION_LENGTH__+0x700809>
     3b2:	80 ea       	ldi	r24, 0xA0	; 160
     3b4:	80 93 05 08 	sts	0x0805, r24	; 0x800805 <__TEXT_REGION_LENGTH__+0x700805>
     3b8:	80 ec       	ldi	r24, 0xC0	; 192
     3ba:	80 93 06 08 	sts	0x0806, r24	; 0x800806 <__TEXT_REGION_LENGTH__+0x700806>
     3be:	83 e0       	ldi	r24, 0x03	; 3
     3c0:	80 93 07 08 	sts	0x0807, r24	; 0x800807 <__TEXT_REGION_LENGTH__+0x700807>
     3c4:	1c ba       	out	0x1c, r1	; 28
     3c6:	1d ba       	out	0x1d, r1	; 29
     3c8:	1e ba       	out	0x1e, r1	; 30
     3ca:	1f ba       	out	0x1f, r1	; 31
     3cc:	c0 93 03 0a 	sts	0x0A03, r28	; 0x800a03 <__TEXT_REGION_LENGTH__+0x700a03>
     3d0:	88 e0       	ldi	r24, 0x08	; 8
     3d2:	80 93 00 0a 	sts	0x0A00, r24	; 0x800a00 <__TEXT_REGION_LENGTH__+0x700a00>
     3d6:	90 93 02 02 	sts	0x0202, r25	; 0x800202 <__TEXT_REGION_LENGTH__+0x700202>
     3da:	87 e7       	ldi	r24, 0x77	; 119
     3dc:	80 93 01 0a 	sts	0x0A01, r24	; 0x800a01 <__TEXT_REGION_LENGTH__+0x700a01>
     3e0:	c0 93 0a 0a 	sts	0x0A0A, r28	; 0x800a0a <__TEXT_REGION_LENGTH__+0x700a0a>
     3e4:	8b e0       	ldi	r24, 0x0B	; 11
     3e6:	80 93 05 0a 	sts	0x0A05, r24	; 0x800a05 <__TEXT_REGION_LENGTH__+0x700a05>
     3ea:	80 91 00 0a 	lds	r24, 0x0A00	; 0x800a00 <__TEXT_REGION_LENGTH__+0x700a00>
     3ee:	81 60       	ori	r24, 0x01	; 1
     3f0:	80 93 00 0a 	sts	0x0A00, r24	; 0x800a00 <__TEXT_REGION_LENGTH__+0x700a00>
     3f4:	85 e0       	ldi	r24, 0x05	; 5
     3f6:	80 93 40 0a 	sts	0x0A40, r24	; 0x800a40 <__TEXT_REGION_LENGTH__+0x700a40>
     3fa:	10 92 41 0a 	sts	0x0A41, r1	; 0x800a41 <__TEXT_REGION_LENGTH__+0x700a41>
     3fe:	8f ef       	ldi	r24, 0xFF	; 255
     400:	91 e0       	ldi	r25, 0x01	; 1
     402:	80 93 4c 0a 	sts	0x0A4C, r24	; 0x800a4c <__TEXT_REGION_LENGTH__+0x700a4c>
     406:	90 93 4d 0a 	sts	0x0A4D, r25	; 0x800a4d <__TEXT_REGION_LENGTH__+0x700a4d>
     40a:	10 92 45 0a 	sts	0x0A45, r1	; 0x800a45 <__TEXT_REGION_LENGTH__+0x700a45>
     40e:	c0 93 50 0a 	sts	0x0A50, r28	; 0x800a50 <__TEXT_REGION_LENGTH__+0x700a50>
     412:	10 92 51 0a 	sts	0x0A51, r1	; 0x800a51 <__TEXT_REGION_LENGTH__+0x700a51>
     416:	8b e8       	ldi	r24, 0x8B	; 139
     418:	93 e0       	ldi	r25, 0x03	; 3
     41a:	80 93 5c 0a 	sts	0x0A5C, r24	; 0x800a5c <__TEXT_REGION_LENGTH__+0x700a5c>
     41e:	90 93 5d 0a 	sts	0x0A5D, r25	; 0x800a5d <__TEXT_REGION_LENGTH__+0x700a5d>
     422:	c0 93 55 0a 	sts	0x0A55, r28	; 0x800a55 <__TEXT_REGION_LENGTH__+0x700a55>
     426:	48 de       	rcall	.-880    	; 0xb8 <I2C_init>
     428:	82 e1       	ldi	r24, 0x12	; 18
     42a:	80 93 a0 00 	sts	0x00A0, r24	; 0x8000a0 <__TEXT_REGION_LENGTH__+0x7000a0>
     42e:	80 e2       	ldi	r24, 0x20	; 32
     430:	80 93 a2 00 	sts	0x00A2, r24	; 0x8000a2 <__TEXT_REGION_LENGTH__+0x7000a2>
     434:	c0 93 a1 00 	sts	0x00A1, r28	; 0x8000a1 <__TEXT_REGION_LENGTH__+0x7000a1>
     438:	86 e0       	ldi	r24, 0x06	; 6
     43a:	80 93 00 06 	sts	0x0600, r24	; 0x800600 <__TEXT_REGION_LENGTH__+0x700600>
     43e:	84 e4       	ldi	r24, 0x44	; 68
     440:	80 93 02 06 	sts	0x0602, r24	; 0x800602 <__TEXT_REGION_LENGTH__+0x700602>
     444:	8e e1       	ldi	r24, 0x1E	; 30
     446:	80 93 06 06 	sts	0x0606, r24	; 0x800606 <__TEXT_REGION_LENGTH__+0x700606>
     44a:	c0 93 0a 06 	sts	0x060A, r28	; 0x80060a <__TEXT_REGION_LENGTH__+0x70060a>
     44e:	80 91 00 06 	lds	r24, 0x0600	; 0x800600 <__TEXT_REGION_LENGTH__+0x700600>
     452:	81 60       	ori	r24, 0x01	; 1
     454:	80 93 00 06 	sts	0x0600, r24	; 0x800600 <__TEXT_REGION_LENGTH__+0x700600>
     458:	c0 93 08 06 	sts	0x0608, r28	; 0x800608 <__TEXT_REGION_LENGTH__+0x700608>
     45c:	10 92 40 06 	sts	0x0640, r1	; 0x800640 <__TEXT_REGION_LENGTH__+0x700640>
     460:	d0 93 41 06 	sts	0x0641, r29	; 0x800641 <__TEXT_REGION_LENGTH__+0x700641>
     464:	82 e5       	ldi	r24, 0x52	; 82
     466:	80 93 42 06 	sts	0x0642, r24	; 0x800642 <__TEXT_REGION_LENGTH__+0x700642>
     46a:	84 e0       	ldi	r24, 0x04	; 4
     46c:	80 93 45 06 	sts	0x0645, r24	; 0x800645 <__TEXT_REGION_LENGTH__+0x700645>
     470:	80 93 46 06 	sts	0x0646, r24	; 0x800646 <__TEXT_REGION_LENGTH__+0x700646>
     474:	c0 93 4a 06 	sts	0x064A, r28	; 0x80064a <__TEXT_REGION_LENGTH__+0x70064a>
     478:	80 91 40 06 	lds	r24, 0x0640	; 0x800640 <__TEXT_REGION_LENGTH__+0x700640>
     47c:	81 60       	ori	r24, 0x01	; 1
     47e:	80 93 40 06 	sts	0x0640, r24	; 0x800640 <__TEXT_REGION_LENGTH__+0x700640>
     482:	c0 93 48 06 	sts	0x0648, r28	; 0x800648 <__TEXT_REGION_LENGTH__+0x700648>
     486:	80 e4       	ldi	r24, 0x40	; 64
     488:	80 93 a0 06 	sts	0x06A0, r24	; 0x8006a0 <__TEXT_REGION_LENGTH__+0x7006a0>
     48c:	80 e8       	ldi	r24, 0x80	; 128
     48e:	80 93 a1 06 	sts	0x06A1, r24	; 0x8006a1 <__TEXT_REGION_LENGTH__+0x7006a1>
     492:	80 91 a0 06 	lds	r24, 0x06A0	; 0x8006a0 <__TEXT_REGION_LENGTH__+0x7006a0>
     496:	81 60       	ori	r24, 0x01	; 1
     498:	80 93 a0 06 	sts	0x06A0, r24	; 0x8006a0 <__TEXT_REGION_LENGTH__+0x7006a0>
     49c:	80 91 41 01 	lds	r24, 0x0141	; 0x800141 <__TEXT_REGION_LENGTH__+0x700141>
     4a0:	80 fd       	sbrc	r24, 0
     4a2:	fc cf       	rjmp	.-8      	; 0x49c <__LOCK_REGION_LENGTH__+0x9c>
     4a4:	80 e3       	ldi	r24, 0x30	; 48
     4a6:	80 93 40 01 	sts	0x0140, r24	; 0x800140 <__TEXT_REGION_LENGTH__+0x700140>
     4aa:	10 92 47 01 	sts	0x0147, r1	; 0x800147 <__TEXT_REGION_LENGTH__+0x700147>
     4ae:	80 91 41 01 	lds	r24, 0x0141	; 0x800141 <__TEXT_REGION_LENGTH__+0x700141>
     4b2:	82 fd       	sbrc	r24, 2
     4b4:	fc cf       	rjmp	.-8      	; 0x4ae <__LOCK_REGION_LENGTH__+0xae>
     4b6:	80 e0       	ldi	r24, 0x00	; 0
     4b8:	98 e7       	ldi	r25, 0x78	; 120
     4ba:	80 93 4a 01 	sts	0x014A, r24	; 0x80014a <__TEXT_REGION_LENGTH__+0x70014a>
     4be:	90 93 4b 01 	sts	0x014B, r25	; 0x80014b <__TEXT_REGION_LENGTH__+0x70014b>
     4c2:	80 91 48 01 	lds	r24, 0x0148	; 0x800148 <__TEXT_REGION_LENGTH__+0x700148>
     4c6:	90 91 49 01 	lds	r25, 0x0149	; 0x800149 <__TEXT_REGION_LENGTH__+0x700149>
     4ca:	60 91 4a 01 	lds	r22, 0x014A	; 0x80014a <__TEXT_REGION_LENGTH__+0x70014a>
     4ce:	70 91 4b 01 	lds	r23, 0x014B	; 0x80014b <__TEXT_REGION_LENGTH__+0x70014b>
     4d2:	82 96       	adiw	r24, 0x22	; 34
     4d4:	0e 94 96 14 	call	0x292c	; 0x292c <__udivmodhi4>
     4d8:	80 93 38 3b 	sts	0x3B38, r24	; 0x803b38 <tmp16bit>
     4dc:	90 93 39 3b 	sts	0x3B39, r25	; 0x803b39 <tmp16bit+0x1>
     4e0:	80 91 41 01 	lds	r24, 0x0141	; 0x800141 <__TEXT_REGION_LENGTH__+0x700141>
     4e4:	83 fd       	sbrc	r24, 3
     4e6:	fc cf       	rjmp	.-8      	; 0x4e0 <__LOCK_REGION_LENGTH__+0xe0>
     4e8:	80 91 38 3b 	lds	r24, 0x3B38	; 0x803b38 <tmp16bit>
     4ec:	90 91 39 3b 	lds	r25, 0x3B39	; 0x803b39 <tmp16bit+0x1>
     4f0:	80 93 4c 01 	sts	0x014C, r24	; 0x80014c <__TEXT_REGION_LENGTH__+0x70014c>
     4f4:	90 93 4d 01 	sts	0x014D, r25	; 0x80014d <__TEXT_REGION_LENGTH__+0x70014d>
     4f8:	83 e0       	ldi	r24, 0x03	; 3
     4fa:	80 93 42 01 	sts	0x0142, r24	; 0x800142 <__TEXT_REGION_LENGTH__+0x700142>
     4fe:	81 e0       	ldi	r24, 0x01	; 1
     500:	80 93 52 01 	sts	0x0152, r24	; 0x800152 <__TEXT_REGION_LENGTH__+0x700152>
     504:	88 e0       	ldi	r24, 0x08	; 8
     506:	80 93 50 01 	sts	0x0150, r24	; 0x800150 <__TEXT_REGION_LENGTH__+0x700150>
     50a:	80 91 41 01 	lds	r24, 0x0141	; 0x800141 <__TEXT_REGION_LENGTH__+0x700141>
     50e:	80 fd       	sbrc	r24, 0
     510:	fc cf       	rjmp	.-8      	; 0x50a <__LOCK_REGION_LENGTH__+0x10a>
     512:	80 91 40 01 	lds	r24, 0x0140	; 0x800140 <__TEXT_REGION_LENGTH__+0x700140>
     516:	81 60       	ori	r24, 0x01	; 1
     518:	80 93 40 01 	sts	0x0140, r24	; 0x800140 <__TEXT_REGION_LENGTH__+0x700140>
     51c:	80 91 50 01 	lds	r24, 0x0150	; 0x800150 <__TEXT_REGION_LENGTH__+0x700150>
     520:	81 60       	ori	r24, 0x01	; 1
     522:	80 93 50 01 	sts	0x0150, r24	; 0x800150 <__TEXT_REGION_LENGTH__+0x700150>
     526:	10 92 a3 3a 	sts	0x3AA3, r1	; 0x803aa3 <serRx>
     52a:	83 ea       	ldi	r24, 0xA3	; 163
     52c:	9a e3       	ldi	r25, 0x3A	; 58
     52e:	80 93 e7 3a 	sts	0x3AE7, r24	; 0x803ae7 <serTxAddr>
     532:	90 93 e8 3a 	sts	0x3AE8, r25	; 0x803ae8 <serTxAddr+0x1>
     536:	78 94       	sei
     538:	df 91       	pop	r29
     53a:	cf 91       	pop	r28
     53c:	08 95       	ret

0000053e <__vector_8>:
     53e:	1f 92       	push	r1
     540:	0f 92       	push	r0
     542:	0f b6       	in	r0, 0x3f	; 63
     544:	0f 92       	push	r0
     546:	11 24       	eor	r1, r1
     548:	8f 93       	push	r24
     54a:	9f 93       	push	r25
     54c:	af 93       	push	r26
     54e:	bf 93       	push	r27
     550:	ef 93       	push	r30
     552:	ff 93       	push	r31
     554:	87 e0       	ldi	r24, 0x07	; 7
     556:	80 93 46 04 	sts	0x0446, r24	; 0x800446 <__TEXT_REGION_LENGTH__+0x700446>
     55a:	84 e4       	ldi	r24, 0x44	; 68
     55c:	80 93 26 04 	sts	0x0426, r24	; 0x800426 <__TEXT_REGION_LENGTH__+0x700426>
     560:	ec b3       	in	r30, 0x1c	; 28
     562:	88 e0       	ldi	r24, 0x08	; 8
     564:	e8 9f       	mul	r30, r24
     566:	f0 01       	movw	r30, r0
     568:	11 24       	eor	r1, r1
     56a:	e2 5f       	subi	r30, 0xF2	; 242
     56c:	f4 4c       	sbci	r31, 0xC4	; 196
     56e:	a8 e2       	ldi	r26, 0x28	; 40
     570:	ba e0       	ldi	r27, 0x0A	; 10
     572:	96 e0       	ldi	r25, 0x06	; 6
     574:	81 91       	ld	r24, Z+
     576:	8d 93       	st	X+, r24
     578:	9a 95       	dec	r25
     57a:	e1 f7       	brne	.-8      	; 0x574 <__vector_8+0x36>
     57c:	8b e0       	ldi	r24, 0x0B	; 11
     57e:	80 93 05 0a 	sts	0x0A05, r24	; 0x800a05 <__TEXT_REGION_LENGTH__+0x700a05>
     582:	8c b3       	in	r24, 0x1c	; 28
     584:	83 30       	cpi	r24, 0x03	; 3
     586:	58 f4       	brcc	.+22     	; 0x59e <__vector_8+0x60>
     588:	8c b3       	in	r24, 0x1c	; 28
     58a:	91 e0       	ldi	r25, 0x01	; 1
     58c:	01 c0       	rjmp	.+2      	; 0x590 <__vector_8+0x52>
     58e:	99 0f       	add	r25, r25
     590:	8a 95       	dec	r24
     592:	ea f7       	brpl	.-6      	; 0x58e <__vector_8+0x50>
     594:	99 b9       	out	0x09, r25	; 9
     596:	8c b3       	in	r24, 0x1c	; 28
     598:	83 95       	inc	r24
     59a:	8c bb       	out	0x1c, r24	; 28
     59c:	0a c0       	rjmp	.+20     	; 0x5b2 <__vector_8+0x74>
     59e:	8c b3       	in	r24, 0x1c	; 28
     5a0:	83 30       	cpi	r24, 0x03	; 3
     5a2:	21 f4       	brne	.+8      	; 0x5ac <__vector_8+0x6e>
     5a4:	2a 9a       	sbi	0x05, 2	; 5
     5a6:	83 95       	inc	r24
     5a8:	8c bb       	out	0x1c, r24	; 28
     5aa:	03 c0       	rjmp	.+6      	; 0x5b2 <__vector_8+0x74>
     5ac:	2e 9a       	sbi	0x05, 6	; 5
     5ae:	88 27       	eor	r24, r24
     5b0:	8c bb       	out	0x1c, r24	; 28
     5b2:	80 91 8e 3a 	lds	r24, 0x3A8E	; 0x803a8e <timeout_I2C>
     5b6:	88 23       	and	r24, r24
     5b8:	29 f0       	breq	.+10     	; 0x5c4 <__vector_8+0x86>
     5ba:	80 91 8e 3a 	lds	r24, 0x3A8E	; 0x803a8e <timeout_I2C>
     5be:	81 50       	subi	r24, 0x01	; 1
     5c0:	80 93 8e 3a 	sts	0x3A8E, r24	; 0x803a8e <timeout_I2C>
     5c4:	8f ef       	ldi	r24, 0xFF	; 255
     5c6:	80 93 0b 0a 	sts	0x0A0B, r24	; 0x800a0b <__TEXT_REGION_LENGTH__+0x700a0b>
     5ca:	ff 91       	pop	r31
     5cc:	ef 91       	pop	r30
     5ce:	bf 91       	pop	r27
     5d0:	af 91       	pop	r26
     5d2:	9f 91       	pop	r25
     5d4:	8f 91       	pop	r24
     5d6:	0f 90       	pop	r0
     5d8:	0f be       	out	0x3f, r0	; 63
     5da:	0f 90       	pop	r0
     5dc:	1f 90       	pop	r1
     5de:	18 95       	reti

000005e0 <__vector_13>:
     5e0:	1f 92       	push	r1
     5e2:	0f 92       	push	r0
     5e4:	0f b6       	in	r0, 0x3f	; 63
     5e6:	0f 92       	push	r0
     5e8:	11 24       	eor	r1, r1
     5ea:	8f 93       	push	r24
     5ec:	9f 93       	push	r25
     5ee:	ef 93       	push	r30
     5f0:	ff 93       	push	r31
     5f2:	e0 91 e7 3a 	lds	r30, 0x3AE7	; 0x803ae7 <serTxAddr>
     5f6:	f0 91 e8 3a 	lds	r31, 0x3AE8	; 0x803ae8 <serTxAddr+0x1>
     5fa:	80 81       	ld	r24, Z
     5fc:	88 23       	and	r24, r24
     5fe:	91 f0       	breq	.+36     	; 0x624 <__vector_13+0x44>
     600:	80 81       	ld	r24, Z
     602:	80 93 02 08 	sts	0x0802, r24	; 0x800802 <__TEXT_REGION_LENGTH__+0x700802>
     606:	80 91 e7 3a 	lds	r24, 0x3AE7	; 0x803ae7 <serTxAddr>
     60a:	90 91 e8 3a 	lds	r25, 0x3AE8	; 0x803ae8 <serTxAddr+0x1>
     60e:	01 96       	adiw	r24, 0x01	; 1
     610:	80 93 e7 3a 	sts	0x3AE7, r24	; 0x803ae7 <serTxAddr>
     614:	90 93 e8 3a 	sts	0x3AE8, r25	; 0x803ae8 <serTxAddr+0x1>
     618:	80 91 05 08 	lds	r24, 0x0805	; 0x800805 <__TEXT_REGION_LENGTH__+0x700805>
     61c:	80 62       	ori	r24, 0x20	; 32
     61e:	80 93 05 08 	sts	0x0805, r24	; 0x800805 <__TEXT_REGION_LENGTH__+0x700805>
     622:	05 c0       	rjmp	.+10     	; 0x62e <__vector_13+0x4e>
     624:	81 e0       	ldi	r24, 0x01	; 1
     626:	80 93 04 38 	sts	0x3804, r24	; 0x803804 <serTxDone>
     62a:	10 92 45 0a 	sts	0x0A45, r1	; 0x800a45 <__TEXT_REGION_LENGTH__+0x700a45>
     62e:	81 e0       	ldi	r24, 0x01	; 1
     630:	80 93 46 0a 	sts	0x0A46, r24	; 0x800a46 <__TEXT_REGION_LENGTH__+0x700a46>
     634:	ff 91       	pop	r31
     636:	ef 91       	pop	r30
     638:	9f 91       	pop	r25
     63a:	8f 91       	pop	r24
     63c:	0f 90       	pop	r0
     63e:	0f be       	out	0x3f, r0	; 63
     640:	0f 90       	pop	r0
     642:	1f 90       	pop	r1
     644:	18 95       	reti

00000646 <__vector_14>:
     646:	1f 92       	push	r1
     648:	0f 92       	push	r0
     64a:	0f b6       	in	r0, 0x3f	; 63
     64c:	0f 92       	push	r0
     64e:	11 24       	eor	r1, r1
     650:	2f 93       	push	r18
     652:	3f 93       	push	r19
     654:	4f 93       	push	r20
     656:	8f 93       	push	r24
     658:	9f 93       	push	r25
     65a:	ef 93       	push	r30
     65c:	ff 93       	push	r31
     65e:	e0 91 02 38 	lds	r30, 0x3802	; 0x803802 <auSmpAddr>
     662:	f0 91 03 38 	lds	r31, 0x3803	; 0x803803 <auSmpAddr+0x1>
     666:	80 81       	ld	r24, Z
     668:	81 11       	cpse	r24, r1
     66a:	08 c0       	rjmp	.+16     	; 0x67c <__vector_14+0x36>
     66c:	80 91 00 38 	lds	r24, 0x3800	; 0x803800 <__data_start>
     670:	90 91 01 38 	lds	r25, 0x3801	; 0x803801 <__data_start+0x1>
     674:	80 93 02 38 	sts	0x3802, r24	; 0x803802 <auSmpAddr>
     678:	90 93 03 38 	sts	0x3803, r25	; 0x803803 <auSmpAddr+0x1>
     67c:	e0 91 02 38 	lds	r30, 0x3802	; 0x803802 <auSmpAddr>
     680:	f0 91 03 38 	lds	r31, 0x3803	; 0x803803 <auSmpAddr+0x1>
     684:	80 81       	ld	r24, Z
     686:	88 23       	and	r24, r24
     688:	e1 f0       	breq	.+56     	; 0x6c2 <__vector_14+0x7c>
     68a:	20 81       	ld	r18, Z
     68c:	40 91 e4 3a 	lds	r20, 0x3AE4	; 0x803ae4 <auVolume>
     690:	30 e0       	ldi	r19, 0x00	; 0
     692:	2f 57       	subi	r18, 0x7F	; 127
     694:	31 09       	sbc	r19, r1
     696:	42 9f       	mul	r20, r18
     698:	c0 01       	movw	r24, r0
     69a:	43 9f       	mul	r20, r19
     69c:	90 0d       	add	r25, r0
     69e:	11 24       	eor	r1, r1
     6a0:	89 2f       	mov	r24, r25
     6a2:	99 0f       	add	r25, r25
     6a4:	99 0b       	sbc	r25, r25
     6a6:	80 58       	subi	r24, 0x80	; 128
     6a8:	9f 4f       	sbci	r25, 0xFF	; 255
     6aa:	80 93 a1 06 	sts	0x06A1, r24	; 0x8006a1 <__TEXT_REGION_LENGTH__+0x7006a1>
     6ae:	80 91 02 38 	lds	r24, 0x3802	; 0x803802 <auSmpAddr>
     6b2:	90 91 03 38 	lds	r25, 0x3803	; 0x803803 <auSmpAddr+0x1>
     6b6:	01 96       	adiw	r24, 0x01	; 1
     6b8:	80 93 02 38 	sts	0x3802, r24	; 0x803802 <auSmpAddr>
     6bc:	90 93 03 38 	sts	0x3803, r25	; 0x803803 <auSmpAddr+0x1>
     6c0:	06 c0       	rjmp	.+12     	; 0x6ce <__vector_14+0x88>
     6c2:	80 e8       	ldi	r24, 0x80	; 128
     6c4:	80 93 a1 06 	sts	0x06A1, r24	; 0x8006a1 <__TEXT_REGION_LENGTH__+0x7006a1>
     6c8:	81 e0       	ldi	r24, 0x01	; 1
     6ca:	80 93 36 3b 	sts	0x3B36, r24	; 0x803b36 <auPlayDone>
     6ce:	81 e0       	ldi	r24, 0x01	; 1
     6d0:	80 93 56 0a 	sts	0x0A56, r24	; 0x800a56 <__TEXT_REGION_LENGTH__+0x700a56>
     6d4:	ff 91       	pop	r31
     6d6:	ef 91       	pop	r30
     6d8:	9f 91       	pop	r25
     6da:	8f 91       	pop	r24
     6dc:	4f 91       	pop	r20
     6de:	3f 91       	pop	r19
     6e0:	2f 91       	pop	r18
     6e2:	0f 90       	pop	r0
     6e4:	0f be       	out	0x3f, r0	; 63
     6e6:	0f 90       	pop	r0
     6e8:	1f 90       	pop	r1
     6ea:	18 95       	reti

000006ec <__vector_27>:
     6ec:	1f 92       	push	r1
     6ee:	0f 92       	push	r0
     6f0:	0f b6       	in	r0, 0x3f	; 63
     6f2:	0f 92       	push	r0
     6f4:	11 24       	eor	r1, r1
     6f6:	8f 93       	push	r24
     6f8:	ef 93       	push	r30
     6fa:	ff 93       	push	r31
     6fc:	80 91 9c 38 	lds	r24, 0x389C	; 0x80389c <serRxDone>
     700:	81 11       	cpse	r24, r1
     702:	2b c0       	rjmp	.+86     	; 0x75a <__vector_27+0x6e>
     704:	ed b3       	in	r30, 0x1d	; 29
     706:	f0 e0       	ldi	r31, 0x00	; 0
     708:	80 91 00 08 	lds	r24, 0x0800	; 0x800800 <__TEXT_REGION_LENGTH__+0x700800>
     70c:	ed 55       	subi	r30, 0x5D	; 93
     70e:	f5 4c       	sbci	r31, 0xC5	; 197
     710:	80 83       	st	Z, r24
     712:	ed b3       	in	r30, 0x1d	; 29
     714:	f0 e0       	ldi	r31, 0x00	; 0
     716:	ed 55       	subi	r30, 0x5D	; 93
     718:	f5 4c       	sbci	r31, 0xC5	; 197
     71a:	80 81       	ld	r24, Z
     71c:	80 93 02 08 	sts	0x0802, r24	; 0x800802 <__TEXT_REGION_LENGTH__+0x700802>
     720:	ed b3       	in	r30, 0x1d	; 29
     722:	f0 e0       	ldi	r31, 0x00	; 0
     724:	ed 55       	subi	r30, 0x5D	; 93
     726:	f5 4c       	sbci	r31, 0xC5	; 197
     728:	80 81       	ld	r24, Z
     72a:	8a 30       	cpi	r24, 0x0A	; 10
     72c:	39 f0       	breq	.+14     	; 0x73c <__vector_27+0x50>
     72e:	ed b3       	in	r30, 0x1d	; 29
     730:	f0 e0       	ldi	r31, 0x00	; 0
     732:	ed 55       	subi	r30, 0x5D	; 93
     734:	f5 4c       	sbci	r31, 0xC5	; 197
     736:	80 81       	ld	r24, Z
     738:	8d 30       	cpi	r24, 0x0D	; 13
     73a:	49 f4       	brne	.+18     	; 0x74e <__vector_27+0x62>
     73c:	ed b3       	in	r30, 0x1d	; 29
     73e:	f0 e0       	ldi	r31, 0x00	; 0
     740:	ed 55       	subi	r30, 0x5D	; 93
     742:	f5 4c       	sbci	r31, 0xC5	; 197
     744:	10 82       	st	Z, r1
     746:	81 e0       	ldi	r24, 0x01	; 1
     748:	80 93 9c 38 	sts	0x389C, r24	; 0x80389c <serRxDone>
     74c:	06 c0       	rjmp	.+12     	; 0x75a <__vector_27+0x6e>
     74e:	8d b3       	in	r24, 0x1d	; 29
     750:	80 34       	cpi	r24, 0x40	; 64
     752:	18 f4       	brcc	.+6      	; 0x75a <__vector_27+0x6e>
     754:	8d b3       	in	r24, 0x1d	; 29
     756:	8f 5f       	subi	r24, 0xFF	; 255
     758:	8d bb       	out	0x1d, r24	; 29
     75a:	80 e8       	ldi	r24, 0x80	; 128
     75c:	80 93 04 08 	sts	0x0804, r24	; 0x800804 <__TEXT_REGION_LENGTH__+0x700804>
     760:	ff 91       	pop	r31
     762:	ef 91       	pop	r30
     764:	8f 91       	pop	r24
     766:	0f 90       	pop	r0
     768:	0f be       	out	0x3f, r0	; 63
     76a:	0f 90       	pop	r0
     76c:	1f 90       	pop	r1
     76e:	18 95       	reti

00000770 <__vector_28>:
     770:	1f 92       	push	r1
     772:	0f 92       	push	r0
     774:	0f b6       	in	r0, 0x3f	; 63
     776:	0f 92       	push	r0
     778:	11 24       	eor	r1, r1
     77a:	8f 93       	push	r24
     77c:	ef 93       	push	r30
     77e:	ff 93       	push	r31
     780:	10 92 4a 0a 	sts	0x0A4A, r1	; 0x800a4a <__TEXT_REGION_LENGTH__+0x700a4a>
     784:	10 92 4b 0a 	sts	0x0A4B, r1	; 0x800a4b <__TEXT_REGION_LENGTH__+0x700a4b>
     788:	81 e0       	ldi	r24, 0x01	; 1
     78a:	80 93 45 0a 	sts	0x0A45, r24	; 0x800a45 <__TEXT_REGION_LENGTH__+0x700a45>
     78e:	e5 e0       	ldi	r30, 0x05	; 5
     790:	f8 e0       	ldi	r31, 0x08	; 8
     792:	80 81       	ld	r24, Z
     794:	8f 7d       	andi	r24, 0xDF	; 223
     796:	80 83       	st	Z, r24
     798:	ff 91       	pop	r31
     79a:	ef 91       	pop	r30
     79c:	8f 91       	pop	r24
     79e:	0f 90       	pop	r0
     7a0:	0f be       	out	0x3f, r0	; 63
     7a2:	0f 90       	pop	r0
     7a4:	1f 90       	pop	r1
     7a6:	18 95       	reti

000007a8 <__vector_20>:
     7a8:	1f 92       	push	r1
     7aa:	0f 92       	push	r0
     7ac:	0f b6       	in	r0, 0x3f	; 63
     7ae:	0f 92       	push	r0
     7b0:	11 24       	eor	r1, r1
     7b2:	8f 93       	push	r24
     7b4:	ef 93       	push	r30
     7b6:	ff 93       	push	r31
     7b8:	80 91 90 38 	lds	r24, 0x3890	; 0x803890 <__data_end>
     7bc:	81 11       	cpse	r24, r1
     7be:	15 c0       	rjmp	.+42     	; 0x7ea <__vector_20+0x42>
     7c0:	8e b3       	in	r24, 0x1e	; 30
     7c2:	8f 5f       	subi	r24, 0xFF	; 255
     7c4:	8f 71       	andi	r24, 0x1F	; 31
     7c6:	8e bb       	out	0x1e, r24	; 30
     7c8:	80 91 06 06 	lds	r24, 0x0606	; 0x800606 <__TEXT_REGION_LENGTH__+0x700606>
     7cc:	8e 31       	cpi	r24, 0x1E	; 30
     7ce:	29 f4       	brne	.+10     	; 0x7da <__vector_20+0x32>
     7d0:	80 91 10 06 	lds	r24, 0x0610	; 0x800610 <__TEXT_REGION_LENGTH__+0x700610>
     7d4:	80 93 37 3b 	sts	0x3B37, r24	; 0x803b37 <adcTemp>
     7d8:	0a c0       	rjmp	.+20     	; 0x7ee <__vector_20+0x46>
     7da:	ee b3       	in	r30, 0x1e	; 30
     7dc:	f0 e0       	ldi	r31, 0x00	; 0
     7de:	80 91 10 06 	lds	r24, 0x0610	; 0x800610 <__TEXT_REGION_LENGTH__+0x700610>
     7e2:	e2 51       	subi	r30, 0x12	; 18
     7e4:	f5 4c       	sbci	r31, 0xC5	; 197
     7e6:	80 83       	st	Z, r24
     7e8:	02 c0       	rjmp	.+4      	; 0x7ee <__vector_20+0x46>
     7ea:	10 92 90 38 	sts	0x3890, r1	; 0x803890 <__data_end>
     7ee:	81 e0       	ldi	r24, 0x01	; 1
     7f0:	80 93 0b 06 	sts	0x060B, r24	; 0x80060b <__TEXT_REGION_LENGTH__+0x70060b>
     7f4:	ff 91       	pop	r31
     7f6:	ef 91       	pop	r30
     7f8:	8f 91       	pop	r24
     7fa:	0f 90       	pop	r0
     7fc:	0f be       	out	0x3f, r0	; 63
     7fe:	0f 90       	pop	r0
     800:	1f 90       	pop	r1
     802:	18 95       	reti

00000804 <__vector_22>:
     804:	1f 92       	push	r1
     806:	0f 92       	push	r0
     808:	0f b6       	in	r0, 0x3f	; 63
     80a:	0f 92       	push	r0
     80c:	11 24       	eor	r1, r1
     80e:	8f 93       	push	r24
     810:	9f 93       	push	r25
     812:	80 91 46 06 	lds	r24, 0x0646	; 0x800646 <__TEXT_REGION_LENGTH__+0x700646>
     816:	81 11       	cpse	r24, r1
     818:	0a c0       	rjmp	.+20     	; 0x82e <__vector_22+0x2a>
     81a:	80 91 50 06 	lds	r24, 0x0650	; 0x800650 <__TEXT_REGION_LENGTH__+0x700650>
     81e:	90 91 51 06 	lds	r25, 0x0651	; 0x800651 <__TEXT_REGION_LENGTH__+0x700651>
     822:	80 93 eb 3a 	sts	0x3AEB, r24	; 0x803aeb <adcPhot>
     826:	90 93 ec 3a 	sts	0x3AEC, r25	; 0x803aec <adcPhot+0x1>
     82a:	81 e0       	ldi	r24, 0x01	; 1
     82c:	10 c0       	rjmp	.+32     	; 0x84e <__vector_22+0x4a>
     82e:	80 91 46 06 	lds	r24, 0x0646	; 0x800646 <__TEXT_REGION_LENGTH__+0x700646>
     832:	81 30       	cpi	r24, 0x01	; 1
     834:	79 f4       	brne	.+30     	; 0x854 <__vector_22+0x50>
     836:	88 e0       	ldi	r24, 0x08	; 8
     838:	80 93 06 04 	sts	0x0406, r24	; 0x800406 <__TEXT_REGION_LENGTH__+0x700406>
     83c:	80 91 50 06 	lds	r24, 0x0650	; 0x800650 <__TEXT_REGION_LENGTH__+0x700650>
     840:	90 91 51 06 	lds	r25, 0x0651	; 0x800651 <__TEXT_REGION_LENGTH__+0x700651>
     844:	80 93 e9 3a 	sts	0x3AE9, r24	; 0x803ae9 <adcHall>
     848:	90 93 ea 3a 	sts	0x3AEA, r25	; 0x803aea <adcHall+0x1>
     84c:	84 e0       	ldi	r24, 0x04	; 4
     84e:	80 93 46 06 	sts	0x0646, r24	; 0x800646 <__TEXT_REGION_LENGTH__+0x700646>
     852:	10 c0       	rjmp	.+32     	; 0x874 <__vector_22+0x70>
     854:	80 91 50 06 	lds	r24, 0x0650	; 0x800650 <__TEXT_REGION_LENGTH__+0x700650>
     858:	90 91 51 06 	lds	r25, 0x0651	; 0x800651 <__TEXT_REGION_LENGTH__+0x700651>
     85c:	80 93 e5 3a 	sts	0x3AE5, r24	; 0x803ae5 <adcBtns>
     860:	90 93 e6 3a 	sts	0x3AE6, r25	; 0x803ae6 <adcBtns+0x1>
     864:	8f b3       	in	r24, 0x1f	; 31
     866:	8f 30       	cpi	r24, 0x0F	; 15
     868:	29 f4       	brne	.+10     	; 0x874 <__vector_22+0x70>
     86a:	10 92 46 06 	sts	0x0646, r1	; 0x800646 <__TEXT_REGION_LENGTH__+0x700646>
     86e:	88 e0       	ldi	r24, 0x08	; 8
     870:	80 93 05 04 	sts	0x0405, r24	; 0x800405 <__TEXT_REGION_LENGTH__+0x700405>
     874:	8f b3       	in	r24, 0x1f	; 31
     876:	90 e0       	ldi	r25, 0x00	; 0
     878:	01 96       	adiw	r24, 0x01	; 1
     87a:	8f 70       	andi	r24, 0x0F	; 15
     87c:	99 27       	eor	r25, r25
     87e:	8f bb       	out	0x1f, r24	; 31
     880:	81 e0       	ldi	r24, 0x01	; 1
     882:	80 93 4b 06 	sts	0x064B, r24	; 0x80064b <__TEXT_REGION_LENGTH__+0x70064b>
     886:	9f 91       	pop	r25
     888:	8f 91       	pop	r24
     88a:	0f 90       	pop	r0
     88c:	0f be       	out	0x3f, r0	; 63
     88e:	0f 90       	pop	r0
     890:	1f 90       	pop	r1
     892:	18 95       	reti

00000894 <__vector_6>:
     894:	1f 92       	push	r1
     896:	0f 92       	push	r0
     898:	0f b6       	in	r0, 0x3f	; 63
     89a:	0f 92       	push	r0
     89c:	11 24       	eor	r1, r1
     89e:	5f 93       	push	r21
     8a0:	6f 93       	push	r22
     8a2:	7f 93       	push	r23
     8a4:	8f 93       	push	r24
     8a6:	9f 93       	push	r25
     8a8:	af 93       	push	r26
     8aa:	bf 93       	push	r27
     8ac:	80 91 43 01 	lds	r24, 0x0143	; 0x800143 <__TEXT_REGION_LENGTH__+0x700143>
     8b0:	81 ff       	sbrs	r24, 1
     8b2:	26 c0       	rjmp	.+76     	; 0x900 <__vector_6+0x6c>
     8b4:	80 91 9a 38 	lds	r24, 0x389A	; 0x80389a <buttonMark>
     8b8:	8f 3f       	cpi	r24, 0xFF	; 255
     8ba:	29 f0       	breq	.+10     	; 0x8c6 <__vector_6+0x32>
     8bc:	80 91 9a 38 	lds	r24, 0x389A	; 0x80389a <buttonMark>
     8c0:	8f 5f       	subi	r24, 0xFF	; 255
     8c2:	80 93 9a 38 	sts	0x389A, r24	; 0x80389a <buttonMark>
     8c6:	80 91 48 01 	lds	r24, 0x0148	; 0x800148 <__TEXT_REGION_LENGTH__+0x700148>
     8ca:	90 91 49 01 	lds	r25, 0x0149	; 0x800149 <__TEXT_REGION_LENGTH__+0x700149>
     8ce:	60 91 4a 01 	lds	r22, 0x014A	; 0x80014a <__TEXT_REGION_LENGTH__+0x70014a>
     8d2:	70 91 4b 01 	lds	r23, 0x014B	; 0x80014b <__TEXT_REGION_LENGTH__+0x70014b>
     8d6:	82 96       	adiw	r24, 0x22	; 34
     8d8:	0e 94 96 14 	call	0x292c	; 0x292c <__udivmodhi4>
     8dc:	80 93 38 3b 	sts	0x3B38, r24	; 0x803b38 <tmp16bit>
     8e0:	90 93 39 3b 	sts	0x3B39, r25	; 0x803b39 <tmp16bit+0x1>
     8e4:	80 91 41 01 	lds	r24, 0x0141	; 0x800141 <__TEXT_REGION_LENGTH__+0x700141>
     8e8:	83 fd       	sbrc	r24, 3
     8ea:	fc cf       	rjmp	.-8      	; 0x8e4 <__vector_6+0x50>
     8ec:	80 91 38 3b 	lds	r24, 0x3B38	; 0x803b38 <tmp16bit>
     8f0:	90 91 39 3b 	lds	r25, 0x3B39	; 0x803b39 <tmp16bit+0x1>
     8f4:	80 93 4c 01 	sts	0x014C, r24	; 0x80014c <__TEXT_REGION_LENGTH__+0x70014c>
     8f8:	90 93 4d 01 	sts	0x014D, r25	; 0x80014d <__TEXT_REGION_LENGTH__+0x70014d>
     8fc:	82 e0       	ldi	r24, 0x02	; 2
     8fe:	0a c0       	rjmp	.+20     	; 0x914 <__vector_6+0x80>
     900:	80 91 9b 38 	lds	r24, 0x389B	; 0x80389b <minuteMark>
     904:	8f 3f       	cpi	r24, 0xFF	; 255
     906:	29 f0       	breq	.+10     	; 0x912 <__vector_6+0x7e>
     908:	80 91 9b 38 	lds	r24, 0x389B	; 0x80389b <minuteMark>
     90c:	8f 5f       	subi	r24, 0xFF	; 255
     90e:	80 93 9b 38 	sts	0x389B, r24	; 0x80389b <minuteMark>
     912:	81 e0       	ldi	r24, 0x01	; 1
     914:	80 93 43 01 	sts	0x0143, r24	; 0x800143 <__TEXT_REGION_LENGTH__+0x700143>
     918:	bf 91       	pop	r27
     91a:	af 91       	pop	r26
     91c:	9f 91       	pop	r25
     91e:	8f 91       	pop	r24
     920:	7f 91       	pop	r23
     922:	6f 91       	pop	r22
     924:	5f 91       	pop	r21
     926:	0f 90       	pop	r0
     928:	0f be       	out	0x3f, r0	; 63
     92a:	0f 90       	pop	r0
     92c:	1f 90       	pop	r1
     92e:	18 95       	reti

00000930 <__vector_7>:
     930:	1f 92       	push	r1
     932:	0f 92       	push	r0
     934:	0f b6       	in	r0, 0x3f	; 63
     936:	0f 92       	push	r0
     938:	11 24       	eor	r1, r1
     93a:	8f 93       	push	r24
     93c:	81 e0       	ldi	r24, 0x01	; 1
     93e:	80 93 48 06 	sts	0x0648, r24	; 0x800648 <__TEXT_REGION_LENGTH__+0x700648>
     942:	80 93 53 01 	sts	0x0153, r24	; 0x800153 <__TEXT_REGION_LENGTH__+0x700153>
     946:	8f 91       	pop	r24
     948:	0f 90       	pop	r0
     94a:	0f be       	out	0x3f, r0	; 63
     94c:	0f 90       	pop	r0
     94e:	1f 90       	pop	r1
     950:	18 95       	reti

00000952 <EERead>:
     952:	90 91 02 10 	lds	r25, 0x1002	; 0x801002 <__TEXT_REGION_LENGTH__+0x701002>
     956:	91 fd       	sbrc	r25, 1
     958:	fc cf       	rjmp	.-8      	; 0x952 <EERead>
     95a:	fb 01       	movw	r30, r22
     95c:	48 0f       	add	r20, r24
     95e:	84 17       	cp	r24, r20
     960:	39 f0       	breq	.+14     	; 0x970 <EERead+0x1e>
     962:	a8 2f       	mov	r26, r24
     964:	b0 e0       	ldi	r27, 0x00	; 0
     966:	bc 5e       	subi	r27, 0xEC	; 236
     968:	9c 91       	ld	r25, X
     96a:	91 93       	st	Z+, r25
     96c:	8f 5f       	subi	r24, 0xFF	; 255
     96e:	f7 cf       	rjmp	.-18     	; 0x95e <EERead+0xc>
     970:	08 95       	ret

00000972 <EEWrite>:
     972:	9d e9       	ldi	r25, 0x9D	; 157
     974:	24 e0       	ldi	r18, 0x04	; 4
     976:	33 e0       	ldi	r19, 0x03	; 3
     978:	44 23       	and	r20, r20
     97a:	09 f1       	breq	.+66     	; 0x9be <EEWrite+0x4c>
     97c:	50 91 02 10 	lds	r21, 0x1002	; 0x801002 <__TEXT_REGION_LENGTH__+0x701002>
     980:	51 fd       	sbrc	r21, 1
     982:	fc cf       	rjmp	.-8      	; 0x97c <EEWrite+0xa>
     984:	94 bf       	out	0x34, r25	; 52
     986:	20 93 00 10 	sts	0x1000, r18	; 0x801000 <__TEXT_REGION_LENGTH__+0x701000>
     98a:	e8 2f       	mov	r30, r24
     98c:	58 2f       	mov	r21, r24
     98e:	5f 71       	andi	r21, 0x1F	; 31
     990:	8f 5f       	subi	r24, 0xFF	; 255
     992:	6f 5f       	subi	r22, 0xFF	; 255
     994:	7f 4f       	sbci	r23, 0xFF	; 255
     996:	db 01       	movw	r26, r22
     998:	11 97       	sbiw	r26, 0x01	; 1
     99a:	ac 91       	ld	r26, X
     99c:	f0 e0       	ldi	r31, 0x00	; 0
     99e:	fc 5e       	subi	r31, 0xEC	; 236
     9a0:	a0 83       	st	Z, r26
     9a2:	41 50       	subi	r20, 0x01	; 1
     9a4:	19 f0       	breq	.+6      	; 0x9ac <EEWrite+0x3a>
     9a6:	e8 2f       	mov	r30, r24
     9a8:	5f 31       	cpi	r21, 0x1F	; 31
     9aa:	81 f7       	brne	.-32     	; 0x98c <EEWrite+0x1a>
     9ac:	94 bf       	out	0x34, r25	; 52
     9ae:	30 93 00 10 	sts	0x1000, r19	; 0x801000 <__TEXT_REGION_LENGTH__+0x701000>
     9b2:	50 91 02 10 	lds	r21, 0x1002	; 0x801002 <__TEXT_REGION_LENGTH__+0x701002>
     9b6:	52 ff       	sbrs	r21, 2
     9b8:	df cf       	rjmp	.-66     	; 0x978 <EEWrite+0x6>
     9ba:	81 e0       	ldi	r24, 0x01	; 1
     9bc:	08 95       	ret
     9be:	80 e0       	ldi	r24, 0x00	; 0
     9c0:	08 95       	ret

000009c2 <SerSend>:
     9c2:	20 91 04 38 	lds	r18, 0x3804	; 0x803804 <serTxDone>
     9c6:	22 23       	and	r18, r18
     9c8:	59 f0       	breq	.+22     	; 0x9e0 <SerSend+0x1e>
     9ca:	80 93 e7 3a 	sts	0x3AE7, r24	; 0x803ae7 <serTxAddr>
     9ce:	90 93 e8 3a 	sts	0x3AE8, r25	; 0x803ae8 <serTxAddr+0x1>
     9d2:	10 92 04 38 	sts	0x3804, r1	; 0x803804 <serTxDone>
     9d6:	81 e0       	ldi	r24, 0x01	; 1
     9d8:	80 93 45 0a 	sts	0x0A45, r24	; 0x800a45 <__TEXT_REGION_LENGTH__+0x700a45>
     9dc:	80 e0       	ldi	r24, 0x00	; 0
     9de:	08 95       	ret
     9e0:	81 e0       	ldi	r24, 0x01	; 1
     9e2:	08 95       	ret

000009e4 <SerSpeed>:
     9e4:	28 2f       	mov	r18, r24
     9e6:	81 11       	cpse	r24, r1
     9e8:	01 c0       	rjmp	.+2      	; 0x9ec <SerSpeed+0x8>
     9ea:	21 e0       	ldi	r18, 0x01	; 1
     9ec:	8f ef       	ldi	r24, 0xFF	; 255
     9ee:	90 e0       	ldi	r25, 0x00	; 0
     9f0:	82 1b       	sub	r24, r18
     9f2:	91 09       	sbc	r25, r1
     9f4:	98 2f       	mov	r25, r24
     9f6:	88 27       	eor	r24, r24
     9f8:	81 50       	subi	r24, 0x01	; 1
     9fa:	9f 4f       	sbci	r25, 0xFF	; 255
     9fc:	80 93 4c 0a 	sts	0x0A4C, r24	; 0x800a4c <__TEXT_REGION_LENGTH__+0x700a4c>
     a00:	90 93 4d 0a 	sts	0x0A4D, r25	; 0x800a4d <__TEXT_REGION_LENGTH__+0x700a4d>
     a04:	08 95       	ret

00000a06 <CheckButtons>:
};

// Returns button combination (4LSB) and number of consecutive times this combination is detected. First read should always be ignored! 
uint8_t CheckButtons(uint8_t previousValue){
    uint8_t bADC = (uint8_t)(adcBtns>>4);
     a06:	20 91 e5 3a 	lds	r18, 0x3AE5	; 0x803ae5 <adcBtns>
     a0a:	30 91 e6 3a 	lds	r19, 0x3AE6	; 0x803ae6 <adcBtns+0x1>
    uint8_t bNibble = 0x0F;     //MSB to LSB: Bottom left, top left, top right, bottom right, 0F is error
    
    switch(bADC){
     a0e:	94 e0       	ldi	r25, 0x04	; 4
     a10:	36 95       	lsr	r19
     a12:	27 95       	ror	r18
     a14:	9a 95       	dec	r25
     a16:	e1 f7       	brne	.-8      	; 0xa10 <CheckButtons+0xa>
     a18:	33 27       	eor	r19, r19
     a1a:	2c 35       	cpi	r18, 0x5C	; 92
     a1c:	31 05       	cpc	r19, r1
     a1e:	d0 f4       	brcc	.+52     	; 0xa54 <CheckButtons+0x4e>
     a20:	23 35       	cpi	r18, 0x53	; 83
     a22:	31 05       	cpc	r19, r1
     a24:	a8 f5       	brcc	.+106    	; 0xa90 <CheckButtons+0x8a>
     a26:	22 33       	cpi	r18, 0x32	; 50
     a28:	31 05       	cpc	r19, r1
     a2a:	50 f4       	brcc	.+20     	; 0xa40 <CheckButtons+0x3a>
     a2c:	2d 32       	cpi	r18, 0x2D	; 45
     a2e:	31 05       	cpc	r19, r1
     a30:	58 f5       	brcc	.+86     	; 0xa88 <CheckButtons+0x82>
     a32:	23 52       	subi	r18, 0x23	; 35
     a34:	31 09       	sbc	r19, r1
     a36:	25 30       	cpi	r18, 0x05	; 5
     a38:	31 05       	cpc	r19, r1
     a3a:	80 f5       	brcc	.+96     	; 0xa9c <CheckButtons+0x96>
        case 28 ... 32:         //30: All buttons pressed
        bNibble = 0b1111;
        break;

        case 35 ... 39:          //37: Both left
        bNibble = 0b1100;
     a3c:	9c e0       	ldi	r25, 0x0C	; 12
     a3e:	2f c0       	rjmp	.+94     	; 0xa9e <CheckButtons+0x98>
// Returns button combination (4LSB) and number of consecutive times this combination is detected. First read should always be ignored! 
uint8_t CheckButtons(uint8_t previousValue){
    uint8_t bADC = (uint8_t)(adcBtns>>4);
    uint8_t bNibble = 0x0F;     //MSB to LSB: Bottom left, top left, top right, bottom right, 0F is error
    
    switch(bADC){
     a40:	27 33       	cpi	r18, 0x37	; 55
     a42:	31 05       	cpc	r19, r1
     a44:	18 f1       	brcs	.+70     	; 0xa8c <CheckButtons+0x86>
     a46:	2e 53       	subi	r18, 0x3E	; 62
     a48:	31 09       	sbc	r19, r1
     a4a:	27 30       	cpi	r18, 0x07	; 7
     a4c:	31 05       	cpc	r19, r1
     a4e:	30 f5       	brcc	.+76     	; 0xa9c <CheckButtons+0x96>
        case 50 ... 54:          //52: Bottom left
        bNibble = 0b1000;
        break;

        case 62 ... 68:          //65: Both top
        bNibble = 0b0110;
     a50:	96 e0       	ldi	r25, 0x06	; 6
        break;
     a52:	25 c0       	rjmp	.+74     	; 0xa9e <CheckButtons+0x98>
// Returns button combination (4LSB) and number of consecutive times this combination is detected. First read should always be ignored! 
uint8_t CheckButtons(uint8_t previousValue){
    uint8_t bADC = (uint8_t)(adcBtns>>4);
    uint8_t bNibble = 0x0F;     //MSB to LSB: Bottom left, top left, top right, bottom right, 0F is error
    
    switch(bADC){
     a54:	2a 38       	cpi	r18, 0x8A	; 138
     a56:	31 05       	cpc	r19, r1
     a58:	50 f4       	brcc	.+20     	; 0xa6e <CheckButtons+0x68>
     a5a:	29 37       	cpi	r18, 0x79	; 121
     a5c:	31 05       	cpc	r19, r1
     a5e:	d0 f4       	brcc	.+52     	; 0xa94 <CheckButtons+0x8e>
     a60:	23 56       	subi	r18, 0x63	; 99
     a62:	31 09       	sbc	r19, r1
     a64:	2b 30       	cpi	r18, 0x0B	; 11
     a66:	31 05       	cpc	r19, r1
     a68:	c8 f4       	brcc	.+50     	; 0xa9c <CheckButtons+0x96>
        case 83 ... 91:          //87: Top left
        bNibble = 0b0100;
        break;

        case 99 ... 109:         //104: Both right
        bNibble = 0b0011;
     a6a:	93 e0       	ldi	r25, 0x03	; 3
        break;
     a6c:	18 c0       	rjmp	.+48     	; 0xa9e <CheckButtons+0x98>
// Returns button combination (4LSB) and number of consecutive times this combination is detected. First read should always be ignored! 
uint8_t CheckButtons(uint8_t previousValue){
    uint8_t bADC = (uint8_t)(adcBtns>>4);
    uint8_t bNibble = 0x0F;     //MSB to LSB: Bottom left, top left, top right, bottom right, 0F is error
    
    switch(bADC){
     a6e:	22 3a       	cpi	r18, 0xA2	; 162
     a70:	31 05       	cpc	r19, r1
     a72:	a0 f0       	brcs	.+40     	; 0xa9c <CheckButtons+0x96>
     a74:	2b 3b       	cpi	r18, 0xBB	; 187
     a76:	31 05       	cpc	r19, r1
     a78:	78 f0       	brcs	.+30     	; 0xa98 <CheckButtons+0x92>
     a7a:	20 5f       	subi	r18, 0xF0	; 240
     a7c:	31 09       	sbc	r19, r1
     a7e:	20 31       	cpi	r18, 0x10	; 16
     a80:	31 05       	cpc	r19, r1
     a82:	60 f4       	brcc	.+24     	; 0xa9c <CheckButtons+0x96>
        case 162 ... 186:        //174: Bottom right
        bNibble = 0b0001;
        break;

        case 240 ... 255:        //255: No button pressed
        bNibble = 0b0000;
     a84:	90 e0       	ldi	r25, 0x00	; 0
        break;
     a86:	0b c0       	rjmp	.+22     	; 0xa9e <CheckButtons+0x98>
        case 35 ... 39:          //37: Both left
        bNibble = 0b1100;
        break;

        case 45 ... 49:          //47: Both bottom
        bNibble = 0b1001;
     a88:	99 e0       	ldi	r25, 0x09	; 9
        break;
     a8a:	09 c0       	rjmp	.+18     	; 0xa9e <CheckButtons+0x98>

        case 50 ... 54:          //52: Bottom left
        bNibble = 0b1000;
     a8c:	98 e0       	ldi	r25, 0x08	; 8
        break;
     a8e:	07 c0       	rjmp	.+14     	; 0xa9e <CheckButtons+0x98>
        case 62 ... 68:          //65: Both top
        bNibble = 0b0110;
        break;

        case 83 ... 91:          //87: Top left
        bNibble = 0b0100;
     a90:	94 e0       	ldi	r25, 0x04	; 4
        break;
     a92:	05 c0       	rjmp	.+10     	; 0xa9e <CheckButtons+0x98>
        case 99 ... 109:         //104: Both right
        bNibble = 0b0011;
        break;

        case 121 ... 137:        //129: Top right
        bNibble = 0b0010;
     a94:	92 e0       	ldi	r25, 0x02	; 2
        break;
     a96:	03 c0       	rjmp	.+6      	; 0xa9e <CheckButtons+0x98>

        case 162 ... 186:        //174: Bottom right
        bNibble = 0b0001;
     a98:	91 e0       	ldi	r25, 0x01	; 1
        break;
     a9a:	01 c0       	rjmp	.+2      	; 0xa9e <CheckButtons+0x98>
};

// Returns button combination (4LSB) and number of consecutive times this combination is detected. First read should always be ignored! 
uint8_t CheckButtons(uint8_t previousValue){
    uint8_t bADC = (uint8_t)(adcBtns>>4);
    uint8_t bNibble = 0x0F;     //MSB to LSB: Bottom left, top left, top right, bottom right, 0F is error
     a9c:	9f e0       	ldi	r25, 0x0F	; 15
        case 240 ... 255:        //255: No button pressed
        bNibble = 0b0000;
        break;
    }

    if ((previousValue&0x0F)==bNibble){
     a9e:	28 2f       	mov	r18, r24
     aa0:	2f 70       	andi	r18, 0x0F	; 15
     aa2:	92 13       	cpse	r25, r18
     aa4:	06 c0       	rjmp	.+12     	; 0xab2 <CheckButtons+0xac>
        if ((previousValue&0xF0) < 0xF0) previousValue += 0x10; //Same value? Increase time nibble
     aa6:	98 2f       	mov	r25, r24
     aa8:	90 7f       	andi	r25, 0xF0	; 240
     aaa:	90 3f       	cpi	r25, 0xF0	; 240
     aac:	39 f0       	breq	.+14     	; 0xabc <CheckButtons+0xb6>
     aae:	80 5f       	subi	r24, 0xF0	; 240
     ab0:	08 95       	ret
        return previousValue;       
    } else if (bNibble == 0) return 0xFF; //Buttons released, 0xFF triggers readout, previousValue holds last button value.
     ab2:	99 23       	and	r25, r25
     ab4:	11 f0       	breq	.+4      	; 0xaba <CheckButtons+0xb4>
     ab6:	89 2f       	mov	r24, r25
     ab8:	08 95       	ret
     aba:	8f ef       	ldi	r24, 0xFF	; 255
              else return bNibble;  //New value  
}
     abc:	08 95       	ret

00000abe <lfsr>:

uint8_t lfsr(){
    static uint16_t state = 0xd401;
    state ^= (state << 13);
     abe:	80 91 85 38 	lds	r24, 0x3885	; 0x803885 <state.3863>
     ac2:	90 91 86 38 	lds	r25, 0x3886	; 0x803886 <state.3863+0x1>
     ac6:	9c 01       	movw	r18, r24
     ac8:	32 2f       	mov	r19, r18
     aca:	22 27       	eor	r18, r18
     acc:	32 95       	swap	r19
     ace:	33 0f       	add	r19, r19
     ad0:	30 7e       	andi	r19, 0xE0	; 224
     ad2:	82 27       	eor	r24, r18
     ad4:	93 27       	eor	r25, r19
    state ^= (state >> 9);
     ad6:	9c 01       	movw	r18, r24
     ad8:	23 2f       	mov	r18, r19
     ada:	33 27       	eor	r19, r19
     adc:	26 95       	lsr	r18
     ade:	82 27       	eor	r24, r18
     ae0:	93 27       	eor	r25, r19
    state ^= (state << 7);
     ae2:	9c 01       	movw	r18, r24
     ae4:	36 95       	lsr	r19
     ae6:	32 2f       	mov	r19, r18
     ae8:	22 27       	eor	r18, r18
     aea:	37 95       	ror	r19
     aec:	27 95       	ror	r18
     aee:	82 27       	eor	r24, r18
     af0:	93 27       	eor	r25, r19
     af2:	80 93 85 38 	sts	0x3885, r24	; 0x803885 <state.3863>
     af6:	90 93 86 38 	sts	0x3886, r25	; 0x803886 <state.3863+0x1>
    return (state & 0xff);
}
     afa:	08 95       	ret

00000afc <floatSpeed>:

void floatSpeed(uint8_t bits, uint16_t min, uint16_t max){
     afc:	df 92       	push	r13
     afe:	ef 92       	push	r14
     b00:	ff 92       	push	r15
     b02:	0f 93       	push	r16
     b04:	1f 93       	push	r17
     b06:	cf 93       	push	r28
     b08:	df 93       	push	r29
     b0a:	7b 01       	movw	r14, r22
     b0c:	8a 01       	movw	r16, r20
    uint16_t val = TCB1_CCMP;
     b0e:	c0 91 5c 0a 	lds	r28, 0x0A5C	; 0x800a5c <__TEXT_REGION_LENGTH__+0x700a5c>
     b12:	d0 91 5d 0a 	lds	r29, 0x0A5D	; 0x800a5d <__TEXT_REGION_LENGTH__+0x700a5d>
    bits = mask[(bits-1)&0x07];
     b16:	e8 2f       	mov	r30, r24
     b18:	f0 e0       	ldi	r31, 0x00	; 0
     b1a:	31 97       	sbiw	r30, 0x01	; 1
     b1c:	e7 70       	andi	r30, 0x07	; 7
     b1e:	ff 27       	eor	r31, r31
     b20:	e9 57       	subi	r30, 0x79	; 121
     b22:	f7 4c       	sbci	r31, 0xC7	; 199
     b24:	d0 80       	ld	r13, Z
    val += (lfsr()&bits);
     b26:	cb df       	rcall	.-106    	; 0xabe <lfsr>
     b28:	8d 21       	and	r24, r13
     b2a:	c8 0f       	add	r28, r24
     b2c:	d1 1d       	adc	r29, r1
    val -= (lfsr()&bits);
     b2e:	c7 df       	rcall	.-114    	; 0xabe <lfsr>
     b30:	8d 21       	and	r24, r13
     b32:	c8 1b       	sub	r28, r24
     b34:	d1 09       	sbc	r29, r1
     b36:	0c 17       	cp	r16, r28
     b38:	1d 07       	cpc	r17, r29
     b3a:	08 f4       	brcc	.+2      	; 0xb3e <floatSpeed+0x42>
     b3c:	e8 01       	movw	r28, r16
     b3e:	c7 01       	movw	r24, r14
     b40:	ec 16       	cp	r14, r28
     b42:	fd 06       	cpc	r15, r29
     b44:	08 f4       	brcc	.+2      	; 0xb48 <floatSpeed+0x4c>
     b46:	ce 01       	movw	r24, r28
     b48:	80 93 5c 0a 	sts	0x0A5C, r24	; 0x800a5c <__TEXT_REGION_LENGTH__+0x700a5c>
    if (val > max) val = max;    //0x038B is normal rate, for wind we need to be a bit slower
    if (val < min) val = min;  
    TCB1_CCMP = val;
     b4c:	90 93 5d 0a 	sts	0x0A5D, r25	; 0x800a5d <__TEXT_REGION_LENGTH__+0x700a5d>
     b50:	df 91       	pop	r29
}
     b52:	cf 91       	pop	r28
     b54:	1f 91       	pop	r17
     b56:	0f 91       	pop	r16
     b58:	ff 90       	pop	r15
     b5a:	ef 90       	pop	r14
     b5c:	df 90       	pop	r13
     b5e:	08 95       	ret

00000b60 <floatAround>:
     b60:	0f 93       	push	r16

uint8_t floatAround(uint8_t sample, uint8_t bits, uint8_t min, uint8_t max){
     b62:	1f 93       	push	r17
     b64:	cf 93       	push	r28
     b66:	df 93       	push	r29
     b68:	c8 2f       	mov	r28, r24
     b6a:	04 2f       	mov	r16, r20
     b6c:	12 2f       	mov	r17, r18
    bits = mask[(bits-1)&0x07];
     b6e:	e6 2f       	mov	r30, r22
     b70:	f0 e0       	ldi	r31, 0x00	; 0
     b72:	31 97       	sbiw	r30, 0x01	; 1
     b74:	e7 70       	andi	r30, 0x07	; 7
     b76:	ff 27       	eor	r31, r31
     b78:	e9 57       	subi	r30, 0x79	; 121
     b7a:	f7 4c       	sbci	r31, 0xC7	; 199
     b7c:	d0 81       	ld	r29, Z
    sample += lfsr()&bits;
     b7e:	9f df       	rcall	.-194    	; 0xabe <lfsr>
     b80:	8d 23       	and	r24, r29
     b82:	c8 0f       	add	r28, r24
    sample -= lfsr()&bits;
     b84:	9c df       	rcall	.-200    	; 0xabe <lfsr>
     b86:	8d 23       	and	r24, r29
     b88:	c8 1b       	sub	r28, r24
     b8a:	8c 2f       	mov	r24, r28
     b8c:	11 23       	and	r17, r17
    if (max){
     b8e:	41 f0       	breq	.+16     	; 0xba0 <floatAround+0x40>
     b90:	9c 2f       	mov	r25, r28
     b92:	1c 17       	cp	r17, r28
     b94:	08 f4       	brcc	.+2      	; 0xb98 <floatAround+0x38>
     b96:	91 2f       	mov	r25, r17
     b98:	80 2f       	mov	r24, r16
     b9a:	09 17       	cp	r16, r25
     b9c:	08 f4       	brcc	.+2      	; 0xba0 <floatAround+0x40>
     b9e:	89 2f       	mov	r24, r25
     ba0:	df 91       	pop	r29
        if (sample > max) sample = max;
        if (sample < min) sample = min;
    }
    return sample;
}
     ba2:	cf 91       	pop	r28
     ba4:	1f 91       	pop	r17
     ba6:	0f 91       	pop	r16
     ba8:	08 95       	ret

00000baa <SaveGameState>:
     baa:	cf 92       	push	r12

//Save changed data to EEPROM
uint8_t SaveGameState(){
     bac:	df 92       	push	r13
     bae:	ff 92       	push	r15
     bb0:	0f 93       	push	r16
     bb2:	1f 93       	push	r17
     bb4:	cf 93       	push	r28
     bb6:	df 93       	push	r29
     bb8:	cd b7       	in	r28, 0x3d	; 61
     bba:	de b7       	in	r29, 0x3e	; 62
     bbc:	64 97       	sbiw	r28, 0x14	; 20
     bbe:	cd bf       	out	0x3d, r28	; 61
     bc0:	de bf       	out	0x3e, r29	; 62
    uint8_t gameCheck[BOOTCHK];

    //Read all data up to the boot/check result address from EEPROM
    EERead(0, &gameCheck[0], BOOTCHK);
     bc2:	44 e1       	ldi	r20, 0x14	; 20
     bc4:	be 01       	movw	r22, r28
     bc6:	6f 5f       	subi	r22, 0xFF	; 255
     bc8:	7f 4f       	sbci	r23, 0xFF	; 255
     bca:	80 e0       	ldi	r24, 0x00	; 0
     bcc:	c2 de       	rcall	.-636    	; 0x952 <EERead>
     bce:	8f e8       	ldi	r24, 0x8F	; 143
     bd0:	c8 2e       	mov	r12, r24
     bd2:	8a e3       	ldi	r24, 0x3A	; 58
     bd4:	d8 2e       	mov	r13, r24
     bd6:	8e 01       	movw	r16, r28
     bd8:	0f 5f       	subi	r16, 0xFF	; 255
     bda:	1f 4f       	sbci	r17, 0xFF	; 255

    //Check game status bits
    for (uint8_t x=0; x<STATLEN; ++x){
     bdc:	f1 2c       	mov	r15, r1
        if (gameState[x] != gameCheck[x]){
     bde:	f8 01       	movw	r30, r16
     be0:	81 91       	ld	r24, Z+
     be2:	8f 01       	movw	r16, r30
     be4:	f6 01       	movw	r30, r12
     be6:	90 81       	ld	r25, Z
     be8:	98 13       	cpse	r25, r24
     bea:	08 c0       	rjmp	.+16     	; 0xbfc <SaveGameState+0x52>

    //Read all data up to the boot/check result address from EEPROM
    EERead(0, &gameCheck[0], BOOTCHK);

    //Check game status bits
    for (uint8_t x=0; x<STATLEN; ++x){
     bec:	f3 94       	inc	r15
     bee:	ff ef       	ldi	r31, 0xFF	; 255
     bf0:	cf 1a       	sub	r12, r31
     bf2:	df 0a       	sbc	r13, r31
     bf4:	80 e1       	ldi	r24, 0x10	; 16
     bf6:	f8 12       	cpse	r15, r24
     bf8:	f2 cf       	rjmp	.-28     	; 0xbde <SaveGameState+0x34>
     bfa:	08 c0       	rjmp	.+16     	; 0xc0c <SaveGameState+0x62>
        if (gameState[x] != gameCheck[x]){
            if (EEWrite(x, &gameState[x], 1)) return 1;
     bfc:	41 e0       	ldi	r20, 0x01	; 1
     bfe:	b6 01       	movw	r22, r12
     c00:	8f 2d       	mov	r24, r15
     c02:	b7 de       	rcall	.-658    	; 0x972 <EEWrite>
     c04:	88 23       	and	r24, r24
     c06:	91 f3       	breq	.-28     	; 0xbec <SaveGameState+0x42>
     c08:	91 e0       	ldi	r25, 0x01	; 1
     c0a:	36 c0       	rjmp	.+108    	; 0xc78 <SaveGameState+0xce>
        }
    }

    //Check the inventory too
    gameState[INVADDR] = (uint8_t)(inventory[0]>>8);
     c0c:	20 91 96 38 	lds	r18, 0x3896	; 0x803896 <inventory>
     c10:	30 91 97 38 	lds	r19, 0x3897	; 0x803897 <inventory+0x1>
     c14:	30 93 9f 3a 	sts	0x3A9F, r19	; 0x803a9f <gameState+0x10>
    gameState[INVADDR+1] = (uint8_t)(inventory[0]&0xff);
     c18:	20 93 a0 3a 	sts	0x3AA0, r18	; 0x803aa0 <gameState+0x11>
    gameState[INVADDR+2] = (uint8_t)(inventory[1]>>8);
     c1c:	80 91 98 38 	lds	r24, 0x3898	; 0x803898 <inventory+0x2>
     c20:	90 91 99 38 	lds	r25, 0x3899	; 0x803899 <inventory+0x3>
     c24:	90 93 a1 3a 	sts	0x3AA1, r25	; 0x803aa1 <gameState+0x12>
    gameState[INVADDR+3] = (uint8_t)(inventory[1]&0xff);
     c28:	80 93 a2 3a 	sts	0x3AA2, r24	; 0x803aa2 <gameState+0x13>
    if (inventory[0] != (gameCheck[INVADDR]<<8|gameCheck[INVADDR+1])) {
     c2c:	89 89       	ldd	r24, Y+17	; 0x11
     c2e:	9a 89       	ldd	r25, Y+18	; 0x12
     c30:	98 27       	eor	r25, r24
     c32:	89 27       	eor	r24, r25
     c34:	98 27       	eor	r25, r24
     c36:	28 17       	cp	r18, r24
     c38:	39 07       	cpc	r19, r25
     c3a:	69 f4       	brne	.+26     	; 0xc56 <SaveGameState+0xac>
        if (EEWrite(INVADDR, &gameState[INVADDR], 2)) return 1;
    }
    if (inventory[1] != (gameCheck[INVADDR+2]<<8|gameCheck[INVADDR+3])) {
     c3c:	8b 89       	ldd	r24, Y+19	; 0x13
     c3e:	9c 89       	ldd	r25, Y+20	; 0x14
     c40:	98 27       	eor	r25, r24
     c42:	89 27       	eor	r24, r25
     c44:	98 27       	eor	r25, r24
     c46:	20 91 98 38 	lds	r18, 0x3898	; 0x803898 <inventory+0x2>
     c4a:	30 91 99 38 	lds	r19, 0x3899	; 0x803899 <inventory+0x3>
     c4e:	28 17       	cp	r18, r24
     c50:	39 07       	cpc	r19, r25
     c52:	49 f4       	brne	.+18     	; 0xc66 <SaveGameState+0xbc>
     c54:	10 c0       	rjmp	.+32     	; 0xc76 <SaveGameState+0xcc>
    gameState[INVADDR] = (uint8_t)(inventory[0]>>8);
    gameState[INVADDR+1] = (uint8_t)(inventory[0]&0xff);
    gameState[INVADDR+2] = (uint8_t)(inventory[1]>>8);
    gameState[INVADDR+3] = (uint8_t)(inventory[1]&0xff);
    if (inventory[0] != (gameCheck[INVADDR]<<8|gameCheck[INVADDR+1])) {
        if (EEWrite(INVADDR, &gameState[INVADDR], 2)) return 1;
     c56:	42 e0       	ldi	r20, 0x02	; 2
     c58:	6f e9       	ldi	r22, 0x9F	; 159
     c5a:	7a e3       	ldi	r23, 0x3A	; 58
     c5c:	80 e1       	ldi	r24, 0x10	; 16
     c5e:	89 de       	rcall	.-750    	; 0x972 <EEWrite>
     c60:	88 23       	and	r24, r24
     c62:	61 f3       	breq	.-40     	; 0xc3c <SaveGameState+0x92>
     c64:	d1 cf       	rjmp	.-94     	; 0xc08 <SaveGameState+0x5e>
    }
    if (inventory[1] != (gameCheck[INVADDR+2]<<8|gameCheck[INVADDR+3])) {
        if (EEWrite(INVADDR+2, &gameState[INVADDR+2], 2)) return 1;
     c66:	42 e0       	ldi	r20, 0x02	; 2
     c68:	61 ea       	ldi	r22, 0xA1	; 161
     c6a:	7a e3       	ldi	r23, 0x3A	; 58
     c6c:	82 e1       	ldi	r24, 0x12	; 18
     c6e:	81 de       	rcall	.-766    	; 0x972 <EEWrite>
    EERead(0, &gameCheck[0], BOOTCHK);

    //Check game status bits
    for (uint8_t x=0; x<STATLEN; ++x){
        if (gameState[x] != gameCheck[x]){
            if (EEWrite(x, &gameState[x], 1)) return 1;
     c70:	91 e0       	ldi	r25, 0x01	; 1
     c72:	81 11       	cpse	r24, r1
     c74:	01 c0       	rjmp	.+2      	; 0xc78 <SaveGameState+0xce>
     c76:	90 e0       	ldi	r25, 0x00	; 0
    if (inventory[1] != (gameCheck[INVADDR+2]<<8|gameCheck[INVADDR+3])) {
        if (EEWrite(INVADDR+2, &gameState[INVADDR+2], 2)) return 1;
    }

    return 0;
}
     c78:	89 2f       	mov	r24, r25
     c7a:	64 96       	adiw	r28, 0x14	; 20
     c7c:	cd bf       	out	0x3d, r28	; 61
     c7e:	de bf       	out	0x3e, r29	; 62
     c80:	df 91       	pop	r29
     c82:	cf 91       	pop	r28
     c84:	1f 91       	pop	r17
     c86:	0f 91       	pop	r16
     c88:	ff 90       	pop	r15
     c8a:	df 90       	pop	r13
     c8c:	cf 90       	pop	r12
     c8e:	08 95       	ret

00000c90 <ReadStatusBit>:

uint8_t ReadStatusBit(uint8_t number){
    number &= 0x7f;
    if (gameState[number>>3] & (1<<(number&7))) return 1; else return 0;
     c90:	e8 2f       	mov	r30, r24
     c92:	ef 77       	andi	r30, 0x7F	; 127
     c94:	e6 95       	lsr	r30
     c96:	e6 95       	lsr	r30
     c98:	e6 95       	lsr	r30
     c9a:	f0 e0       	ldi	r31, 0x00	; 0
     c9c:	e1 57       	subi	r30, 0x71	; 113
     c9e:	f5 4c       	sbci	r31, 0xC5	; 197
     ca0:	20 81       	ld	r18, Z
     ca2:	30 e0       	ldi	r19, 0x00	; 0
     ca4:	87 70       	andi	r24, 0x07	; 7
     ca6:	a9 01       	movw	r20, r18
     ca8:	02 c0       	rjmp	.+4      	; 0xcae <ReadStatusBit+0x1e>
     caa:	55 95       	asr	r21
     cac:	47 95       	ror	r20
     cae:	8a 95       	dec	r24
     cb0:	e2 f7       	brpl	.-8      	; 0xcaa <ReadStatusBit+0x1a>
     cb2:	ca 01       	movw	r24, r20
}
     cb4:	81 70       	andi	r24, 0x01	; 1
     cb6:	08 95       	ret

00000cb8 <WriteStatusBit>:

void WriteStatusBit(uint8_t number, uint8_t state){
    number &= 0x7f;
     cb8:	e8 2f       	mov	r30, r24
     cba:	ef 77       	andi	r30, 0x7F	; 127
     cbc:	e6 95       	lsr	r30
     cbe:	e6 95       	lsr	r30
     cc0:	e6 95       	lsr	r30
     cc2:	28 2f       	mov	r18, r24
     cc4:	27 70       	andi	r18, 0x07	; 7
    if (state) gameState[number>>3] |= 1<<(number&7);
     cc6:	f0 e0       	ldi	r31, 0x00	; 0
     cc8:	e1 57       	subi	r30, 0x71	; 113
     cca:	f5 4c       	sbci	r31, 0xC5	; 197
     ccc:	81 e0       	ldi	r24, 0x01	; 1
     cce:	90 e0       	ldi	r25, 0x00	; 0
     cd0:	01 c0       	rjmp	.+2      	; 0xcd4 <WriteStatusBit+0x1c>
     cd2:	88 0f       	add	r24, r24
     cd4:	2a 95       	dec	r18
     cd6:	ea f7       	brpl	.-6      	; 0xcd2 <WriteStatusBit+0x1a>
     cd8:	66 23       	and	r22, r22
     cda:	19 f0       	breq	.+6      	; 0xce2 <WriteStatusBit+0x2a>
     cdc:	90 81       	ld	r25, Z
     cde:	89 2b       	or	r24, r25
     ce0:	03 c0       	rjmp	.+6      	; 0xce8 <WriteStatusBit+0x30>
    else gameState[number>>3] &= ~(1<<(number&7));
     ce2:	80 95       	com	r24
     ce4:	90 81       	ld	r25, Z
     ce6:	89 23       	and	r24, r25
     ce8:	80 83       	st	Z, r24
     cea:	08 95       	ret

00000cec <getID>:

uint8_t getID(){
    //Give out a number 0..3, calculated using serial number fields
    uint8_t id = 0;
    uint8_t *serNum;
    serNum = (uint8_t*)&SIGROW_SERNUM0;
     cec:	e3 e0       	ldi	r30, 0x03	; 3
     cee:	f1 e1       	ldi	r31, 0x11	; 17
    else gameState[number>>3] &= ~(1<<(number&7));
}

uint8_t getID(){
    //Give out a number 0..3, calculated using serial number fields
    uint8_t id = 0;
     cf0:	80 e0       	ldi	r24, 0x00	; 0
    uint8_t *serNum;
    serNum = (uint8_t*)&SIGROW_SERNUM0;

    for (uint8_t x=0; x<10; ++x){
        id += *serNum;
     cf2:	91 91       	ld	r25, Z+
     cf4:	89 0f       	add	r24, r25
    //Give out a number 0..3, calculated using serial number fields
    uint8_t id = 0;
    uint8_t *serNum;
    serNum = (uint8_t*)&SIGROW_SERNUM0;

    for (uint8_t x=0; x<10; ++x){
     cf6:	ed 30       	cpi	r30, 0x0D	; 13
     cf8:	91 e1       	ldi	r25, 0x11	; 17
     cfa:	f9 07       	cpc	r31, r25
     cfc:	d1 f7       	brne	.-12     	; 0xcf2 <getID+0x6>
        id += *serNum;
        ++serNum;
    }
    id %= 4;
    whoami = id+1;
     cfe:	83 70       	andi	r24, 0x03	; 3
     d00:	8f 5f       	subi	r24, 0xFF	; 255
     d02:	80 93 95 38 	sts	0x3895, r24	; 0x803895 <whoami>
    return whoami;
}
     d06:	08 95       	ret

00000d08 <Reset>:

void Reset(){
     d08:	ef e8       	ldi	r30, 0x8F	; 143
     d0a:	fa e3       	ldi	r31, 0x3A	; 58
    //# 110   set to 1 by FW if badge UUID mod 4 == 0
    //# 111   set to 1 by FW if badge UUID mod 4 == 1
    //# 112   set to 1 by FW if badge UUID mod 4 == 2
    //# 113   set to 1 by FW if badge UUID mod 4 == 3
    for (uint8_t x=0; x<sizeof(gameState); ++x){
        gameState[x] = 0;
     d0c:	11 92       	st	Z+, r1
    //Reset game progress (all zeroes) and load some bits:
    //# 110   set to 1 by FW if badge UUID mod 4 == 0
    //# 111   set to 1 by FW if badge UUID mod 4 == 1
    //# 112   set to 1 by FW if badge UUID mod 4 == 2
    //# 113   set to 1 by FW if badge UUID mod 4 == 3
    for (uint8_t x=0; x<sizeof(gameState); ++x){
     d0e:	8a e3       	ldi	r24, 0x3A	; 58
     d10:	e3 3a       	cpi	r30, 0xA3	; 163
     d12:	f8 07       	cpc	r31, r24
     d14:	d9 f7       	brne	.-10     	; 0xd0c <Reset+0x4>
        gameState[x] = 0;
    }

    uint8_t id = getID();
     d16:	ea df       	rcall	.-44     	; 0xcec <getID>

    //Write bit in gameState location 110..113
    if (id == 0) WriteStatusBit(110, 1);
     d18:	81 11       	cpse	r24, r1
     d1a:	04 c0       	rjmp	.+8      	; 0xd24 <Reset+0x1c>
    if (gameState[number>>3] & (1<<(number&7))) return 1; else return 0;
}

void WriteStatusBit(uint8_t number, uint8_t state){
    number &= 0x7f;
    if (state) gameState[number>>3] |= 1<<(number&7);
     d1c:	80 91 9c 3a 	lds	r24, 0x3A9C	; 0x803a9c <gameState+0xd>
     d20:	80 64       	ori	r24, 0x40	; 64
     d22:	05 c0       	rjmp	.+10     	; 0xd2e <Reset+0x26>

    uint8_t id = getID();

    //Write bit in gameState location 110..113
    if (id == 0) WriteStatusBit(110, 1);
    else if (id == 1) WriteStatusBit(111, 1);
     d24:	81 30       	cpi	r24, 0x01	; 1
     d26:	31 f4       	brne	.+12     	; 0xd34 <Reset+0x2c>
    if (gameState[number>>3] & (1<<(number&7))) return 1; else return 0;
}

void WriteStatusBit(uint8_t number, uint8_t state){
    number &= 0x7f;
    if (state) gameState[number>>3] |= 1<<(number&7);
     d28:	80 91 9c 3a 	lds	r24, 0x3A9C	; 0x803a9c <gameState+0xd>
     d2c:	80 68       	ori	r24, 0x80	; 128
     d2e:	80 93 9c 3a 	sts	0x3A9C, r24	; 0x803a9c <gameState+0xd>
     d32:	0d c0       	rjmp	.+26     	; 0xd4e <Reset+0x46>
    uint8_t id = getID();

    //Write bit in gameState location 110..113
    if (id == 0) WriteStatusBit(110, 1);
    else if (id == 1) WriteStatusBit(111, 1);
    else if (id == 2) WriteStatusBit(112, 1);
     d34:	82 30       	cpi	r24, 0x02	; 2
     d36:	21 f4       	brne	.+8      	; 0xd40 <Reset+0x38>
    if (gameState[number>>3] & (1<<(number&7))) return 1; else return 0;
}

void WriteStatusBit(uint8_t number, uint8_t state){
    number &= 0x7f;
    if (state) gameState[number>>3] |= 1<<(number&7);
     d38:	80 91 9d 3a 	lds	r24, 0x3A9D	; 0x803a9d <gameState+0xe>
     d3c:	81 60       	ori	r24, 0x01	; 1
     d3e:	05 c0       	rjmp	.+10     	; 0xd4a <Reset+0x42>

    //Write bit in gameState location 110..113
    if (id == 0) WriteStatusBit(110, 1);
    else if (id == 1) WriteStatusBit(111, 1);
    else if (id == 2) WriteStatusBit(112, 1);
    else if (id == 3) WriteStatusBit(113, 1);
     d40:	83 30       	cpi	r24, 0x03	; 3
     d42:	29 f4       	brne	.+10     	; 0xd4e <Reset+0x46>
    if (gameState[number>>3] & (1<<(number&7))) return 1; else return 0;
}

void WriteStatusBit(uint8_t number, uint8_t state){
    number &= 0x7f;
    if (state) gameState[number>>3] |= 1<<(number&7);
     d44:	80 91 9d 3a 	lds	r24, 0x3A9D	; 0x803a9d <gameState+0xe>
     d48:	82 60       	ori	r24, 0x02	; 2
     d4a:	80 93 9d 3a 	sts	0x3A9D, r24	; 0x803a9d <gameState+0xe>
     d4e:	80 91 8f 3a 	lds	r24, 0x3A8F	; 0x803a8f <gameState>
     d52:	81 60       	ori	r24, 0x01	; 1
     d54:	80 93 8f 3a 	sts	0x3A8F, r24	; 0x803a8f <gameState>
     d58:	08 95       	ret

00000d5a <GenerateAudio>:
    WriteStatusBit(0, 1);
}

//void setupSound(uint8_t number){

void GenerateAudio(){
     d5a:	0f 93       	push	r16
     d5c:	1f 93       	push	r17
     d5e:	cf 93       	push	r28
     d60:	df 93       	push	r29
    static uint8_t auBuffer[128] = {0x80, 0};
    //auRepAddr = &auBuffer[0];

    //Audio for text adventure
    if ((effect&0xff00)==0) {
     d62:	80 91 93 38 	lds	r24, 0x3893	; 0x803893 <effect>
     d66:	90 91 94 38 	lds	r25, 0x3894	; 0x803894 <effect+0x1>
     d6a:	88 27       	eor	r24, r24
     d6c:	89 2b       	or	r24, r25
     d6e:	09 f0       	breq	.+2      	; 0xd72 <GenerateAudio+0x18>
     d70:	65 c0       	rjmp	.+202    	; 0xe3c <GenerateAudio+0xe2>

        //Silence
        if ((effect&0xE0)==0){
     d72:	80 91 93 38 	lds	r24, 0x3893	; 0x803893 <effect>
     d76:	90 91 94 38 	lds	r25, 0x3894	; 0x803894 <effect+0x1>
     d7a:	80 7e       	andi	r24, 0xE0	; 224
     d7c:	99 27       	eor	r25, r25
     d7e:	89 2b       	or	r24, r25
     d80:	31 f4       	brne	.+12     	; 0xd8e <GenerateAudio+0x34>
            auRepAddr = &zero;
     d82:	81 e9       	ldi	r24, 0x91	; 145
     d84:	98 e3       	ldi	r25, 0x38	; 56
     d86:	80 93 00 38 	sts	0x3800, r24	; 0x803800 <__data_start>
     d8a:	90 93 01 38 	sts	0x3801, r25	; 0x803801 <__data_start+0x1>
        }

        //Bad (buzzer)
        if ((effect&0xE0)==32){
     d8e:	80 91 93 38 	lds	r24, 0x3893	; 0x803893 <effect>
     d92:	90 91 94 38 	lds	r25, 0x3894	; 0x803894 <effect+0x1>

        }

        //Good (bell)
        if ((effect&0xE0)==64){
     d96:	80 91 93 38 	lds	r24, 0x3893	; 0x803893 <effect>
     d9a:	90 91 94 38 	lds	r25, 0x3894	; 0x803894 <effect+0x1>
            //auBuffer = 
        }

        //Rain storm with whistling wind
        if ((effect&0xE0)==96){
     d9e:	80 91 93 38 	lds	r24, 0x3893	; 0x803893 <effect>
     da2:	90 91 94 38 	lds	r25, 0x3894	; 0x803894 <effect+0x1>
     da6:	80 7e       	andi	r24, 0xE0	; 224
     da8:	99 27       	eor	r25, r25
     daa:	80 36       	cpi	r24, 0x60	; 96
     dac:	91 05       	cpc	r25, r1
     dae:	d1 f5       	brne	.+116    	; 0xe24 <GenerateAudio+0xca>
            auBuffer[6]= 0;        
     db0:	10 92 0b 38 	sts	0x380B, r1	; 0x80380b <auBuffer.3907+0x6>
            auRepAddr = &auBuffer[0];
     db4:	85 e0       	ldi	r24, 0x05	; 5
     db6:	98 e3       	ldi	r25, 0x38	; 56
     db8:	80 93 00 38 	sts	0x3800, r24	; 0x803800 <__data_start>
     dbc:	90 93 01 38 	sts	0x3801, r25	; 0x803801 <__data_start+0x1>
     dc0:	8c 01       	movw	r16, r24

            //Noise is to be generated fast, outside of buttonMark loop
            for (uint8_t x=1; x<6; ++x){
     dc2:	c1 e0       	ldi	r28, 0x01	; 1
                if (x%3) auBuffer[x] = floatAround(0x80, 5, 0x01, 0x00);
     dc4:	d3 e0       	ldi	r29, 0x03	; 3
     dc6:	8c 2f       	mov	r24, r28
     dc8:	6d 2f       	mov	r22, r29
     dca:	0e 94 8a 14 	call	0x2914	; 0x2914 <__udivmodqi4>
     dce:	99 23       	and	r25, r25
     dd0:	39 f0       	breq	.+14     	; 0xde0 <GenerateAudio+0x86>
     dd2:	20 e0       	ldi	r18, 0x00	; 0
     dd4:	41 e0       	ldi	r20, 0x01	; 1
     dd6:	65 e0       	ldi	r22, 0x05	; 5
     dd8:	80 e8       	ldi	r24, 0x80	; 128
     dda:	c2 de       	rcall	.-636    	; 0xb60 <floatAround>
     ddc:	f8 01       	movw	r30, r16
     dde:	81 83       	std	Z+1, r24	; 0x01
        if ((effect&0xE0)==96){
            auBuffer[6]= 0;        
            auRepAddr = &auBuffer[0];

            //Noise is to be generated fast, outside of buttonMark loop
            for (uint8_t x=1; x<6; ++x){
     de0:	cf 5f       	subi	r28, 0xFF	; 255
     de2:	0f 5f       	subi	r16, 0xFF	; 255
     de4:	1f 4f       	sbci	r17, 0xFF	; 255
     de6:	c6 30       	cpi	r28, 0x06	; 6
     de8:	71 f7       	brne	.-36     	; 0xdc6 <GenerateAudio+0x6c>
                if (x%3) auBuffer[x] = floatAround(0x80, 5, 0x01, 0x00);
            }

            if (buttonMark){
     dea:	80 91 9a 38 	lds	r24, 0x389A	; 0x80389a <buttonMark>
     dee:	88 23       	and	r24, r24
     df0:	c9 f0       	breq	.+50     	; 0xe24 <GenerateAudio+0xca>
                //"Floating" speed for howl (and noise, but that's hardly audible)
                floatSpeed(5, 0x0280, 0x0400);
     df2:	40 e0       	ldi	r20, 0x00	; 0
     df4:	54 e0       	ldi	r21, 0x04	; 4
     df6:	60 e8       	ldi	r22, 0x80	; 128
     df8:	72 e0       	ldi	r23, 0x02	; 2
     dfa:	85 e0       	ldi	r24, 0x05	; 5
     dfc:	7f de       	rcall	.-770    	; 0xafc <floatSpeed>
            
                //"Floating" volume and wind howl during 8 bit rainstorm needs some randomness
                auVolume = floatAround(auVolume, 2, 0x10, 0xA0);
     dfe:	80 91 e4 3a 	lds	r24, 0x3AE4	; 0x803ae4 <auVolume>
     e02:	20 ea       	ldi	r18, 0xA0	; 160
     e04:	40 e1       	ldi	r20, 0x10	; 16
     e06:	62 e0       	ldi	r22, 0x02	; 2
     e08:	ab de       	rcall	.-682    	; 0xb60 <floatAround>
     e0a:	80 93 e4 3a 	sts	0x3AE4, r24	; 0x803ae4 <auVolume>
                auBuffer[0] = floatAround(auBuffer[0], 2, 0x70, 0x90);
     e0e:	20 e9       	ldi	r18, 0x90	; 144
     e10:	40 e7       	ldi	r20, 0x70	; 112
     e12:	62 e0       	ldi	r22, 0x02	; 2
     e14:	80 91 05 38 	lds	r24, 0x3805	; 0x803805 <auBuffer.3907>
     e18:	a3 de       	rcall	.-698    	; 0xb60 <floatAround>
     e1a:	80 93 05 38 	sts	0x3805, r24	; 0x803805 <auBuffer.3907>
                auBuffer[3] = 0xFF-auBuffer[0];  //Inverse value of wind[0] produces a whistle
     e1e:	80 95       	com	r24
     e20:	80 93 08 38 	sts	0x3808, r24	; 0x803808 <auBuffer.3907+0x3>
            }
        }

        //Footsteps
        if ((effect&0xE0)==128){
     e24:	80 91 93 38 	lds	r24, 0x3893	; 0x803893 <effect>
     e28:	90 91 94 38 	lds	r25, 0x3894	; 0x803894 <effect+0x1>

        }

        //Knocking
        if ((effect&0xE0)==160){
     e2c:	80 91 93 38 	lds	r24, 0x3893	; 0x803893 <effect>
     e30:	90 91 94 38 	lds	r25, 0x3894	; 0x803894 <effect+0x1>

        }

        //Scream
        if ((effect&0xE0)==192){
     e34:	80 91 93 38 	lds	r24, 0x3893	; 0x803893 <effect>
     e38:	90 91 94 38 	lds	r25, 0x3894	; 0x803894 <effect+0x1>

        //Rain storm with whistling wind
        else {
        }
    }
     e3c:	df 91       	pop	r29
     e3e:	cf 91       	pop	r28
     e40:	1f 91       	pop	r17
     e42:	0f 91       	pop	r16
     e44:	08 95       	ret

00000e46 <BastetDictates>:

// Main game loop
uint8_t BastetDictates(){
  
    return 0;
}
     e46:	80 e0       	ldi	r24, 0x00	; 0
     e48:	08 95       	ret

00000e4a <DecryptData>:

//
void SetResponse(uint8_t number, uint16_t address, uint16_t length, uint8_t type){
    reactStr[0][number]=address;
    reactStr[1][number]=length;
    reactStr[2][number]=type;
     e4a:	f9 01       	movw	r30, r18
     e4c:	9c 01       	movw	r18, r24
     e4e:	2e 1b       	sub	r18, r30
     e50:	3f 0b       	sbc	r19, r31
     e52:	88 e0       	ldi	r24, 0x08	; 8
     e54:	48 9f       	mul	r20, r24
     e56:	a0 01       	movw	r20, r0
     e58:	11 24       	eor	r1, r1
     e5a:	46 53       	subi	r20, 0x36	; 54
     e5c:	56 45       	sbci	r21, 0x56	; 86
     e5e:	66 23       	and	r22, r22
     e60:	69 f0       	breq	.+26     	; 0xe7c <DecryptData+0x32>
     e62:	df 01       	movw	r26, r30
     e64:	a2 0f       	add	r26, r18
     e66:	b3 1f       	adc	r27, r19
     e68:	a7 70       	andi	r26, 0x07	; 7
     e6a:	bb 27       	eor	r27, r27
     e6c:	a4 0f       	add	r26, r20
     e6e:	b5 1f       	adc	r27, r21
     e70:	80 81       	ld	r24, Z
     e72:	9c 91       	ld	r25, X
     e74:	98 27       	eor	r25, r24
     e76:	91 93       	st	Z+, r25
     e78:	61 50       	subi	r22, 0x01	; 1
     e7a:	f1 cf       	rjmp	.-30     	; 0xe5e <DecryptData+0x14>
     e7c:	08 95       	ret

00000e7e <UnflipData>:
     e7e:	26 2f       	mov	r18, r22
     e80:	fb 01       	movw	r30, r22
     e82:	35 e5       	ldi	r19, 0x55	; 85
     e84:	9e 2f       	mov	r25, r30
     e86:	92 1b       	sub	r25, r18
     e88:	98 17       	cp	r25, r24
     e8a:	28 f4       	brcc	.+10     	; 0xe96 <UnflipData+0x18>
     e8c:	90 81       	ld	r25, Z
     e8e:	92 95       	swap	r25
     e90:	93 27       	eor	r25, r19
     e92:	91 93       	st	Z+, r25
     e94:	f7 cf       	rjmp	.-18     	; 0xe84 <UnflipData+0x6>
     e96:	08 95       	ret

00000e98 <ExtEERead>:
     e98:	af 92       	push	r10
     e9a:	bf 92       	push	r11
     e9c:	cf 92       	push	r12
     e9e:	df 92       	push	r13
     ea0:	ef 92       	push	r14
     ea2:	ff 92       	push	r15
     ea4:	0f 93       	push	r16
     ea6:	1f 93       	push	r17
     ea8:	cf 93       	push	r28
     eaa:	df 93       	push	r29
     eac:	00 d0       	rcall	.+0      	; 0xeae <ExtEERead+0x16>
     eae:	cd b7       	in	r28, 0x3d	; 61
     eb0:	de b7       	in	r29, 0x3e	; 62
     eb2:	d6 2e       	mov	r13, r22
     eb4:	c4 2e       	mov	r12, r20
     eb6:	59 01       	movw	r10, r18
     eb8:	7c 01       	movw	r14, r24
     eba:	e8 94       	clt
     ebc:	f7 f8       	bld	r15, 7
     ebe:	f9 82       	std	Y+1, r15	; 0x01
     ec0:	ea 82       	std	Y+2, r14	; 0x02
     ec2:	06 2f       	mov	r16, r22
     ec4:	42 e0       	ldi	r20, 0x02	; 2
     ec6:	be 01       	movw	r22, r28
     ec8:	6f 5f       	subi	r22, 0xFF	; 255
     eca:	7f 4f       	sbci	r23, 0xFF	; 255
     ecc:	80 e5       	ldi	r24, 0x50	; 80
     ece:	f2 d9       	rcall	.-3100   	; 0x2b4 <I2C_read_bytes>
     ed0:	18 2f       	mov	r17, r24
     ed2:	81 11       	cpse	r24, r1
     ed4:	05 c0       	rjmp	.+10     	; 0xee0 <ExtEERead+0x48>
     ed6:	95 01       	movw	r18, r10
     ed8:	4c 2d       	mov	r20, r12
     eda:	6d 2d       	mov	r22, r13
     edc:	c7 01       	movw	r24, r14
     ede:	b5 df       	rcall	.-150    	; 0xe4a <DecryptData>
     ee0:	81 2f       	mov	r24, r17
     ee2:	0f 90       	pop	r0
     ee4:	0f 90       	pop	r0
     ee6:	df 91       	pop	r29
     ee8:	cf 91       	pop	r28
     eea:	1f 91       	pop	r17
     eec:	0f 91       	pop	r16
     eee:	ff 90       	pop	r15
     ef0:	ef 90       	pop	r14
     ef2:	df 90       	pop	r13
     ef4:	cf 90       	pop	r12
     ef6:	bf 90       	pop	r11
     ef8:	af 90       	pop	r10
     efa:	08 95       	ret

00000efc <ClearTxAfter>:
     efc:	8f 5f       	subi	r24, 0xFF	; 255
     efe:	88 30       	cpi	r24, 0x08	; 8
     f00:	30 f4       	brcc	.+12     	; 0xf0e <ClearTxAfter+0x12>
     f02:	e8 2f       	mov	r30, r24
     f04:	f0 e0       	ldi	r31, 0x00	; 0
     f06:	eb 58       	subi	r30, 0x8B	; 139
     f08:	f5 4c       	sbci	r31, 0xC5	; 197
     f0a:	10 82       	st	Z, r1
     f0c:	f7 cf       	rjmp	.-18     	; 0xefc <ClearTxAfter>
     f0e:	08 95       	ret

00000f10 <StartsWith>:
     f10:	ac 01       	movw	r20, r24
     f12:	90 e0       	ldi	r25, 0x00	; 0
     f14:	e9 2f       	mov	r30, r25
     f16:	f0 e0       	ldi	r31, 0x00	; 0
     f18:	da 01       	movw	r26, r20
     f1a:	ae 0f       	add	r26, r30
     f1c:	bf 1f       	adc	r27, r31
     f1e:	3c 91       	ld	r19, X
     f20:	e6 0f       	add	r30, r22
     f22:	f7 1f       	adc	r31, r23
     f24:	31 11       	cpse	r19, r1
     f26:	05 c0       	rjmp	.+10     	; 0xf32 <StartsWith+0x22>
     f28:	81 e0       	ldi	r24, 0x01	; 1
     f2a:	90 81       	ld	r25, Z
     f2c:	99 23       	and	r25, r25
     f2e:	49 f0       	breq	.+18     	; 0xf42 <StartsWith+0x32>
     f30:	07 c0       	rjmp	.+14     	; 0xf40 <StartsWith+0x30>
     f32:	20 81       	ld	r18, Z
     f34:	22 23       	and	r18, r18
     f36:	c1 f3       	breq	.-16     	; 0xf28 <StartsWith+0x18>
     f38:	32 13       	cpse	r19, r18
     f3a:	02 c0       	rjmp	.+4      	; 0xf40 <StartsWith+0x30>
     f3c:	9f 5f       	subi	r25, 0xFF	; 255
     f3e:	ea cf       	rjmp	.-44     	; 0xf14 <StartsWith+0x4>
     f40:	80 e0       	ldi	r24, 0x00	; 0
     f42:	08 95       	ret

00000f44 <PrepareSending>:
     f44:	61 15       	cp	r22, r1
     f46:	71 05       	cpc	r23, r1
     f48:	51 f1       	breq	.+84     	; 0xf9e <PrepareSending+0x5a>
     f4a:	ed e7       	ldi	r30, 0x7D	; 125
     f4c:	fa e3       	ldi	r31, 0x3A	; 58
     f4e:	a5 e7       	ldi	r26, 0x75	; 117
     f50:	ba e3       	ldi	r27, 0x3A	; 58
     f52:	20 e0       	ldi	r18, 0x00	; 0
     f54:	3f ef       	ldi	r19, 0xFF	; 255
     f56:	6f 3f       	cpi	r22, 0xFF	; 255
     f58:	71 05       	cpc	r23, r1
     f5a:	69 f0       	breq	.+26     	; 0xf76 <PrepareSending+0x32>
     f5c:	60 f0       	brcs	.+24     	; 0xf76 <PrepareSending+0x32>
     f5e:	81 93       	st	Z+, r24
     f60:	91 93       	st	Z+, r25
     f62:	3d 93       	st	X+, r19
     f64:	81 50       	subi	r24, 0x01	; 1
     f66:	9f 4f       	sbci	r25, 0xFF	; 255
     f68:	6f 5f       	subi	r22, 0xFF	; 255
     f6a:	71 09       	sbc	r23, r1
     f6c:	2f 5f       	subi	r18, 0xFF	; 255
     f6e:	27 30       	cpi	r18, 0x07	; 7
     f70:	91 f7       	brne	.-28     	; 0xf56 <PrepareSending+0x12>
     f72:	81 e0       	ldi	r24, 0x01	; 1
     f74:	08 95       	ret
     f76:	e2 2f       	mov	r30, r18
     f78:	f0 e0       	ldi	r31, 0x00	; 0
     f7a:	df 01       	movw	r26, r30
     f7c:	aa 0f       	add	r26, r26
     f7e:	bb 1f       	adc	r27, r27
     f80:	a3 58       	subi	r26, 0x83	; 131
     f82:	b5 4c       	sbci	r27, 0xC5	; 197
     f84:	8d 93       	st	X+, r24
     f86:	9c 93       	st	X, r25
     f88:	eb 58       	subi	r30, 0x8B	; 139
     f8a:	f5 4c       	sbci	r31, 0xC5	; 197
     f8c:	cb 01       	movw	r24, r22
     f8e:	6f ef       	ldi	r22, 0xFF	; 255
     f90:	70 e0       	ldi	r23, 0x00	; 0
     f92:	0e 94 96 14 	call	0x292c	; 0x292c <__udivmodhi4>
     f96:	80 83       	st	Z, r24
     f98:	40 93 73 3a 	sts	0x3A73, r20	; 0x803a73 <txTypeNow>
     f9c:	05 c0       	rjmp	.+10     	; 0xfa8 <PrepareSending+0x64>
     f9e:	10 92 7d 3a 	sts	0x3A7D, r1	; 0x803a7d <txAddrList>
     fa2:	10 92 7e 3a 	sts	0x3A7E, r1	; 0x803a7e <txAddrList+0x1>
     fa6:	20 e0       	ldi	r18, 0x00	; 0
     fa8:	82 2f       	mov	r24, r18
     faa:	a8 df       	rcall	.-176    	; 0xefc <ClearTxAfter>
     fac:	10 92 74 3a 	sts	0x3A74, r1	; 0x803a74 <txAddrNow>
     fb0:	80 e0       	ldi	r24, 0x00	; 0
     fb2:	08 95       	ret

00000fb4 <SetStandardResponse>:
}

//
uint8_t SetStandardResponse(uint8_t custStrEnd){
     fb4:	cf 93       	push	r28
     fb6:	df 93       	push	r29
    return 0;
}

//
void SetResponse(uint8_t number, uint16_t address, uint16_t length, uint8_t type){
    reactStr[0][number]=address;
     fb8:	28 2f       	mov	r18, r24
     fba:	30 e0       	ldi	r19, 0x00	; 0
     fbc:	f9 01       	movw	r30, r18
     fbe:	ee 0f       	add	r30, r30
     fc0:	ff 1f       	adc	r31, r31
     fc2:	e8 5b       	subi	r30, 0xB8	; 184
     fc4:	f6 4c       	sbci	r31, 0xC6	; 198
     fc6:	ab e5       	ldi	r26, 0x5B	; 91
     fc8:	ba e7       	ldi	r27, 0x7A	; 122
     fca:	a0 83       	st	Z, r26
     fcc:	b1 83       	std	Z+1, r27	; 0x01
    reactStr[1][number]=length;
     fce:	f9 01       	movw	r30, r18
     fd0:	ee 0f       	add	r30, r30
     fd2:	ff 1f       	adc	r31, r31
     fd4:	e8 57       	subi	r30, 0x78	; 120
     fd6:	f6 4c       	sbci	r31, 0xC6	; 198
     fd8:	62 e0       	ldi	r22, 0x02	; 2
     fda:	70 e0       	ldi	r23, 0x00	; 0
     fdc:	60 83       	st	Z, r22
     fde:	71 83       	std	Z+1, r23	; 0x01
    reactStr[2][number]=type;
     fe0:	22 0f       	add	r18, r18
     fe2:	33 1f       	adc	r19, r19
     fe4:	f9 01       	movw	r30, r18
     fe6:	e8 53       	subi	r30, 0x38	; 56
     fe8:	f6 4c       	sbci	r31, 0xC6	; 198
     fea:	41 e0       	ldi	r20, 0x01	; 1
     fec:	50 e0       	ldi	r21, 0x00	; 0
     fee:	40 83       	st	Z, r20
     ff0:	51 83       	std	Z+1, r21	; 0x01
    return 0;
}

//
void SetResponse(uint8_t number, uint16_t address, uint16_t length, uint8_t type){
    reactStr[0][number]=address;
     ff2:	21 e0       	ldi	r18, 0x01	; 1
     ff4:	28 0f       	add	r18, r24
     ff6:	30 e0       	ldi	r19, 0x00	; 0
     ff8:	f9 01       	movw	r30, r18
     ffa:	ee 0f       	add	r30, r30
     ffc:	ff 1f       	adc	r31, r31
     ffe:	e8 5b       	subi	r30, 0xB8	; 184
    1000:	f6 4c       	sbci	r31, 0xC6	; 198
    1002:	c4 e6       	ldi	r28, 0x64	; 100
    1004:	da e7       	ldi	r29, 0x7A	; 122
    1006:	c0 83       	st	Z, r28
    1008:	d1 83       	std	Z+1, r29	; 0x01
    reactStr[1][number]=length;
    100a:	f9 01       	movw	r30, r18
    100c:	ee 0f       	add	r30, r30
    100e:	ff 1f       	adc	r31, r31
    1010:	e8 57       	subi	r30, 0x78	; 120
    1012:	f6 4c       	sbci	r31, 0xC6	; 198
    1014:	ca e0       	ldi	r28, 0x0A	; 10
    1016:	d0 e0       	ldi	r29, 0x00	; 0
    1018:	c0 83       	st	Z, r28
    101a:	d1 83       	std	Z+1, r29	; 0x01
    reactStr[2][number]=type;
    101c:	22 0f       	add	r18, r18
    101e:	33 1f       	adc	r19, r19
    1020:	f9 01       	movw	r30, r18
    1022:	e8 53       	subi	r30, 0x38	; 56
    1024:	f6 4c       	sbci	r31, 0xC6	; 198
    1026:	40 83       	st	Z, r20
    1028:	51 83       	std	Z+1, r21	; 0x01
uint8_t SetStandardResponse(uint8_t custStrEnd){

    SetResponse(custStrEnd++, A_LF, 2, TEASER);
    SetResponse(custStrEnd++, A_LOCATION, L_LOCATION, TEASER);
    //SetResponse(custStrEnd++, A_SPACE, L_SPACE, TEASER);
    reactStr[0][custStrEnd++] = CURR_LOC;
    102a:	e2 e0       	ldi	r30, 0x02	; 2
    102c:	e8 0f       	add	r30, r24
    102e:	f0 e0       	ldi	r31, 0x00	; 0
    1030:	ee 0f       	add	r30, r30
    1032:	ff 1f       	adc	r31, r31
    1034:	e8 5b       	subi	r30, 0xB8	; 184
    1036:	f6 4c       	sbci	r31, 0xC6	; 198
    1038:	20 ef       	ldi	r18, 0xF0	; 240
    103a:	3f ef       	ldi	r19, 0xFF	; 255
    103c:	20 83       	st	Z, r18
    103e:	31 83       	std	Z+1, r19	; 0x01
    return 0;
}

//
void SetResponse(uint8_t number, uint16_t address, uint16_t length, uint8_t type){
    reactStr[0][number]=address;
    1040:	23 e0       	ldi	r18, 0x03	; 3
    1042:	28 0f       	add	r18, r24
    1044:	30 e0       	ldi	r19, 0x00	; 0
    1046:	f9 01       	movw	r30, r18
    1048:	ee 0f       	add	r30, r30
    104a:	ff 1f       	adc	r31, r31
    104c:	e8 5b       	subi	r30, 0xB8	; 184
    104e:	f6 4c       	sbci	r31, 0xC6	; 198
    1050:	a0 83       	st	Z, r26
    1052:	b1 83       	std	Z+1, r27	; 0x01
    reactStr[1][number]=length;
    1054:	f9 01       	movw	r30, r18
    1056:	ee 0f       	add	r30, r30
    1058:	ff 1f       	adc	r31, r31
    105a:	e8 57       	subi	r30, 0x78	; 120
    105c:	f6 4c       	sbci	r31, 0xC6	; 198
    105e:	60 83       	st	Z, r22
    1060:	71 83       	std	Z+1, r23	; 0x01
    reactStr[2][number]=type;
    1062:	22 0f       	add	r18, r18
    1064:	33 1f       	adc	r19, r19
    1066:	f9 01       	movw	r30, r18
    1068:	e8 53       	subi	r30, 0x38	; 56
    106a:	f6 4c       	sbci	r31, 0xC6	; 198
    106c:	40 83       	st	Z, r20
    106e:	51 83       	std	Z+1, r21	; 0x01
    return 0;
}

//
void SetResponse(uint8_t number, uint16_t address, uint16_t length, uint8_t type){
    reactStr[0][number]=address;
    1070:	24 e0       	ldi	r18, 0x04	; 4
    1072:	28 0f       	add	r18, r24
    1074:	30 e0       	ldi	r19, 0x00	; 0
    1076:	f9 01       	movw	r30, r18
    1078:	ee 0f       	add	r30, r30
    107a:	ff 1f       	adc	r31, r31
    107c:	e8 5b       	subi	r30, 0xB8	; 184
    107e:	f6 4c       	sbci	r31, 0xC6	; 198
    1080:	a7 e5       	ldi	r26, 0x57	; 87
    1082:	ba e7       	ldi	r27, 0x7A	; 122
    1084:	a0 83       	st	Z, r26
    1086:	b1 83       	std	Z+1, r27	; 0x01
    reactStr[1][number]=length;
    1088:	f9 01       	movw	r30, r18
    108a:	ee 0f       	add	r30, r30
    108c:	ff 1f       	adc	r31, r31
    108e:	e8 57       	subi	r30, 0x78	; 120
    1090:	f6 4c       	sbci	r31, 0xC6	; 198
    1092:	60 83       	st	Z, r22
    1094:	71 83       	std	Z+1, r23	; 0x01
    reactStr[2][number]=type;
    1096:	22 0f       	add	r18, r18
    1098:	33 1f       	adc	r19, r19
    109a:	f9 01       	movw	r30, r18
    109c:	e8 53       	subi	r30, 0x38	; 56
    109e:	f6 4c       	sbci	r31, 0xC6	; 198
    10a0:	40 83       	st	Z, r20
    10a2:	51 83       	std	Z+1, r21	; 0x01
    SetResponse(custStrEnd++, A_LF, 2, TEASER);
    SetResponse(custStrEnd++, A_PROMPT, L_PROMPT, TEASER);
    //SetResponse(custStrEnd++, A_SPACE, L_SPACE, TEASER);

    return custStrEnd;
}
    10a4:	8b 5f       	subi	r24, 0xFB	; 251
    10a6:	df 91       	pop	r29
    10a8:	cf 91       	pop	r28
    10aa:	08 95       	ret

000010ac <PopulateObject>:

//Get all the relevant data and string addresses of an object
void PopulateObject(uint16_t offset, object_model_t *object){
    10ac:	af 92       	push	r10
    10ae:	bf 92       	push	r11
    10b0:	cf 92       	push	r12
    10b2:	df 92       	push	r13
    10b4:	ef 92       	push	r14
    10b6:	ff 92       	push	r15
    10b8:	0f 93       	push	r16
    10ba:	1f 93       	push	r17
    10bc:	cf 93       	push	r28
    10be:	df 93       	push	r29
    10c0:	cd b7       	in	r28, 0x3d	; 61
    10c2:	de b7       	in	r29, 0x3e	; 62
    10c4:	2c 97       	sbiw	r28, 0x0c	; 12
    10c6:	cd bf       	out	0x3d, r28	; 61
    10c8:	de bf       	out	0x3e, r29	; 62
    10ca:	7c 01       	movw	r14, r24
    10cc:	8b 01       	movw	r16, r22
    uint16_t parStr;
    offset += L_BOILER;

    //Fill things with fixed distance to offset
    uint8_t data[OFF_STRINGFLDS];
    ExtEERead(offset, OFF_STRINGFLDS, GAME, &data[0]);
    10ce:	9e 01       	movw	r18, r28
    10d0:	2f 5f       	subi	r18, 0xFF	; 255
    10d2:	3f 4f       	sbci	r19, 0xFF	; 255
    10d4:	40 e0       	ldi	r20, 0x00	; 0
    10d6:	6c e0       	ldi	r22, 0x0C	; 12
    10d8:	80 96       	adiw	r24, 0x20	; 32
    10da:	de de       	rcall	.-580    	; 0xe98 <ExtEERead>
    object->addrNextObj = (data[OFF_NEXTOBJ]<<8|data[OFF_NEXTOBJ+1])+L_BOILER;
    10dc:	89 81       	ldd	r24, Y+1	; 0x01
    10de:	9a 81       	ldd	r25, Y+2	; 0x02
    10e0:	98 27       	eor	r25, r24
    10e2:	89 27       	eor	r24, r25
    10e4:	98 27       	eor	r25, r24
    10e6:	80 96       	adiw	r24, 0x20	; 32
    10e8:	f8 01       	movw	r30, r16
    10ea:	80 83       	st	Z, r24
    10ec:	91 83       	std	Z+1, r25	; 0x01
    object->addrNextLvl = (data[OFF_NEXTLVL]<<8|data[OFF_NEXTLVL+1])+L_BOILER;
    10ee:	8b 81       	ldd	r24, Y+3	; 0x03
    10f0:	9c 81       	ldd	r25, Y+4	; 0x04
    10f2:	98 27       	eor	r25, r24
    10f4:	89 27       	eor	r24, r25
    10f6:	98 27       	eor	r25, r24
    10f8:	80 96       	adiw	r24, 0x20	; 32
    10fa:	82 83       	std	Z+2, r24	; 0x02
    10fc:	93 83       	std	Z+3, r25	; 0x03
    10fe:	de 01       	movw	r26, r28
    1100:	15 96       	adiw	r26, 0x05	; 5
    1102:	34 96       	adiw	r30, 0x04	; 4
    1104:	68 01       	movw	r12, r16
    1106:	2c e0       	ldi	r18, 0x0C	; 12
    1108:	c2 0e       	add	r12, r18
    110a:	d1 1c       	adc	r13, r1
    for (uint8_t x=0; x<BYTE_FIELDS_LEN; ++x){
        object->byteField[x]=data[x+OFF_BYTEFLDS];
    110c:	8d 91       	ld	r24, X+
    110e:	81 93       	st	Z+, r24
    //Fill things with fixed distance to offset
    uint8_t data[OFF_STRINGFLDS];
    ExtEERead(offset, OFF_STRINGFLDS, GAME, &data[0]);
    object->addrNextObj = (data[OFF_NEXTOBJ]<<8|data[OFF_NEXTOBJ+1])+L_BOILER;
    object->addrNextLvl = (data[OFF_NEXTLVL]<<8|data[OFF_NEXTLVL+1])+L_BOILER;
    for (uint8_t x=0; x<BYTE_FIELDS_LEN; ++x){
    1110:	ec 15       	cp	r30, r12
    1112:	fd 05       	cpc	r31, r13
    1114:	d9 f7       	brne	.-10     	; 0x110c <PopulateObject+0x60>
        object->byteField[x]=data[x+OFF_BYTEFLDS];
    }

    //Find out where all of the strings begin and how long they are
    offset += OFF_STRINGFLDS;
    1116:	8c e2       	ldi	r24, 0x2C	; 44
    1118:	e8 0e       	add	r14, r24
    111a:	f1 1c       	adc	r15, r1
    111c:	58 01       	movw	r10, r16
    for(uint8_t x=0; x<STRING_FIELDS_LEN; ++x){
    111e:	10 e0       	ldi	r17, 0x00	; 0
        //Determine length
        ExtEERead(offset, 3, GAME, &data[0]);
    1120:	9e 01       	movw	r18, r28
    1122:	2f 5f       	subi	r18, 0xFF	; 255
    1124:	3f 4f       	sbci	r19, 0xFF	; 255
    1126:	40 e0       	ldi	r20, 0x00	; 0
    1128:	63 e0       	ldi	r22, 0x03	; 3
    112a:	c7 01       	movw	r24, r14
    112c:	b5 de       	rcall	.-662    	; 0xe98 <ExtEERead>
    112e:	89 81       	ldd	r24, Y+1	; 0x01
    1130:	9a 81       	ldd	r25, Y+2	; 0x02
    1132:	98 27       	eor	r25, r24
    1134:	89 27       	eor	r24, r25
    1136:	98 27       	eor	r25, r24
        parStr = (data[0]<<8|data[1]);
        if (x >= OPEN_ACL_MSG){
    1138:	14 30       	cpi	r17, 0x04	; 4
    113a:	50 f0       	brcs	.+20     	; 0x1150 <PopulateObject+0xa4>
            object->lenStr[x]= parStr-1;
    113c:	9c 01       	movw	r18, r24
    113e:	21 50       	subi	r18, 0x01	; 1
    1140:	31 09       	sbc	r19, r1
    1142:	f6 01       	movw	r30, r12
    1144:	26 87       	std	Z+14, r18	; 0x0e
    1146:	37 87       	std	Z+15, r19	; 0x0f
            object->effect[x-OPEN_ACL_MSG] = data[2];
    1148:	2b 81       	ldd	r18, Y+3	; 0x03
    114a:	f5 01       	movw	r30, r10
    114c:	24 a3       	std	Z+36, r18	; 0x24
    114e:	03 c0       	rjmp	.+6      	; 0x1156 <PopulateObject+0xaa>
        } else {
            object->lenStr[x]= parStr;
    1150:	f6 01       	movw	r30, r12
    1152:	86 87       	std	Z+14, r24	; 0x0e
    1154:	97 87       	std	Z+15, r25	; 0x0f
        }
        //Determine string start location and add length to offset for next field
        offset += 2;
    1156:	f2 e0       	ldi	r31, 0x02	; 2
    1158:	ef 0e       	add	r14, r31
    115a:	f1 1c       	adc	r15, r1
        object->addrStr[x]=offset;
    115c:	f6 01       	movw	r30, r12
    115e:	e1 92       	st	Z+, r14
    1160:	f1 92       	st	Z+, r15
    1162:	6f 01       	movw	r12, r30
        offset += parStr;
    1164:	e8 0e       	add	r14, r24
    1166:	f9 1e       	adc	r15, r25
        object->byteField[x]=data[x+OFF_BYTEFLDS];
    }

    //Find out where all of the strings begin and how long they are
    offset += OFF_STRINGFLDS;
    for(uint8_t x=0; x<STRING_FIELDS_LEN; ++x){
    1168:	1f 5f       	subi	r17, 0xFF	; 255
    116a:	ff ef       	ldi	r31, 0xFF	; 255
    116c:	af 1a       	sub	r10, r31
    116e:	bf 0a       	sbc	r11, r31
    1170:	17 30       	cpi	r17, 0x07	; 7
    1172:	b1 f6       	brne	.-84     	; 0x1120 <PopulateObject+0x74>
        //Determine string start location and add length to offset for next field
        offset += 2;
        object->addrStr[x]=offset;
        offset += parStr;
    }    
}
    1174:	2c 96       	adiw	r28, 0x0c	; 12
    1176:	cd bf       	out	0x3d, r28	; 61
    1178:	de bf       	out	0x3e, r29	; 62
    117a:	df 91       	pop	r29
    117c:	cf 91       	pop	r28
    117e:	1f 91       	pop	r17
    1180:	0f 91       	pop	r16
    1182:	ff 90       	pop	r15
    1184:	ef 90       	pop	r14
    1186:	df 90       	pop	r13
    1188:	cf 90       	pop	r12
    118a:	bf 90       	pop	r11
    118c:	af 90       	pop	r10
    118e:	08 95       	ret

00001190 <UpdateState>:

//Update game state: num -> vBBBBbbb v=value(0 is set!), BBBB=Byte number, bbb=bit number
void UpdateState(uint8_t num){
    1190:	98 2f       	mov	r25, r24
    uint8_t clearBit = num & 0x80;
    num &= 0x7f;
    1192:	8f 77       	andi	r24, 0x7F	; 127
    if (clearBit) {
    1194:	97 ff       	sbrs	r25, 7
    1196:	02 c0       	rjmp	.+4      	; 0x119c <UpdateState+0xc>
        WriteStatusBit(num, 0);
    1198:	60 e0       	ldi	r22, 0x00	; 0
    119a:	01 c0       	rjmp	.+2      	; 0x119e <UpdateState+0xe>
    } else {
        WriteStatusBit(num, 1);
    119c:	61 e0       	ldi	r22, 0x01	; 1
    119e:	8c cd       	rjmp	.-1256   	; 0xcb8 <WriteStatusBit>

000011a0 <CheckState>:
    }
}

//Checks if state of bit BBBBbbb matches with v (inverted) bit
uint8_t CheckState(uint8_t num){
    11a0:	cf 93       	push	r28
    11a2:	c8 2f       	mov	r28, r24
    uint8_t bitSet = 0;
    if (ReadStatusBit(num & 0x7f)){
    11a4:	8f 77       	andi	r24, 0x7F	; 127
    11a6:	74 dd       	rcall	.-1304   	; 0xc90 <ReadStatusBit>
    11a8:	2c 2f       	mov	r18, r28
    11aa:	22 1f       	adc	r18, r18
    11ac:	22 27       	eor	r18, r18
    11ae:	22 1f       	adc	r18, r18
    11b0:	91 e0       	ldi	r25, 0x01	; 1
    11b2:	81 11       	cpse	r24, r1
    11b4:	01 c0       	rjmp	.+2      	; 0x11b8 <CheckState+0x18>
    11b6:	90 e0       	ldi	r25, 0x00	; 0
    }
    if (((num & 0x80)>0)^(bitSet>0)){
        return 1;
    }
    return 0;
}
    11b8:	82 2f       	mov	r24, r18
    11ba:	89 27       	eor	r24, r25
    11bc:	cf 91       	pop	r28
    11be:	08 95       	ret

000011c0 <CheckLetter>:

//Check if the entered letter corresponds with a name
uint8_t CheckLetter(uint16_t object, uint8_t letter){
    11c0:	cf 92       	push	r12
    11c2:	df 92       	push	r13
    11c4:	ef 92       	push	r14
    11c6:	ff 92       	push	r15
    11c8:	0f 93       	push	r16
    11ca:	1f 93       	push	r17
    11cc:	cf 93       	push	r28
    11ce:	df 93       	push	r29
    11d0:	cd b7       	in	r28, 0x3d	; 61
    11d2:	de b7       	in	r29, 0x3e	; 62
    11d4:	a0 97       	sbiw	r28, 0x20	; 32
    11d6:	cd bf       	out	0x3d, r28	; 61
    11d8:	de bf       	out	0x3e, r29	; 62
    11da:	c6 2e       	mov	r12, r22
    
    uint8_t found = 0;
    uint8_t data[32];

    object += L_BOILER;
    11dc:	7c 01       	movw	r14, r24
    11de:	20 e2       	ldi	r18, 0x20	; 32
    11e0:	e2 0e       	add	r14, r18
    11e2:	f1 1c       	adc	r15, r1
    ExtEERead(object+OFF_STRINGFLDS, 2, GAME, &data[0]);
    11e4:	9e 01       	movw	r18, r28
    11e6:	2f 5f       	subi	r18, 0xFF	; 255
    11e8:	3f 4f       	sbci	r19, 0xFF	; 255
    11ea:	40 e0       	ldi	r20, 0x00	; 0
    11ec:	62 e0       	ldi	r22, 0x02	; 2
    11ee:	8c 96       	adiw	r24, 0x2c	; 44
    11f0:	53 de       	rcall	.-858    	; 0xe98 <ExtEERead>
    uint8_t x = data[1]; //Assuming a name is not longer than 255 characters.
    11f2:	1a 81       	ldd	r17, Y+2	; 0x02
}

//Check if the entered letter corresponds with a name
uint8_t CheckLetter(uint16_t object, uint8_t letter){
    
    uint8_t found = 0;
    11f4:	d1 2c       	mov	r13, r1

    object += L_BOILER;
    ExtEERead(object+OFF_STRINGFLDS, 2, GAME, &data[0]);
    uint8_t x = data[1]; //Assuming a name is not longer than 255 characters.

    while (x){
    11f6:	11 23       	and	r17, r17
    11f8:	51 f1       	breq	.+84     	; 0x124e <CheckLetter+0x8e>
    11fa:	01 2f       	mov	r16, r17
    11fc:	11 32       	cpi	r17, 0x21	; 33
    11fe:	08 f0       	brcs	.+2      	; 0x1202 <CheckLetter+0x42>
    1200:	00 e2       	ldi	r16, 0x20	; 32
        uint8_t max;
        if (x>32) max = 32; else max = x;
        ExtEERead(object+OFF_STRINGFLDS+2, max, GAME, &data[0]);
    1202:	9e 01       	movw	r18, r28
    1204:	2f 5f       	subi	r18, 0xFF	; 255
    1206:	3f 4f       	sbci	r19, 0xFF	; 255
    1208:	40 e0       	ldi	r20, 0x00	; 0
    120a:	60 2f       	mov	r22, r16
    120c:	c7 01       	movw	r24, r14
    120e:	0e 96       	adiw	r24, 0x0e	; 14
    1210:	43 de       	rcall	.-890    	; 0xe98 <ExtEERead>
    1212:	fe 01       	movw	r30, r28
    1214:	31 96       	adiw	r30, 0x01	; 1
        for (uint8_t y=0; y<max; ++y){
    1216:	80 e0       	ldi	r24, 0x00	; 0
            if (found){
    1218:	dd 20       	and	r13, r13
    121a:	61 f0       	breq	.+24     	; 0x1234 <CheckLetter+0x74>
                if ((data[y]|0x20) == letter) return 1; else return 0;
    121c:	e1 e0       	ldi	r30, 0x01	; 1
    121e:	f0 e0       	ldi	r31, 0x00	; 0
    1220:	ec 0f       	add	r30, r28
    1222:	fd 1f       	adc	r31, r29
    1224:	e8 0f       	add	r30, r24
    1226:	f1 1d       	adc	r31, r1
    1228:	90 81       	ld	r25, Z
    122a:	90 62       	ori	r25, 0x20	; 32
    122c:	81 e0       	ldi	r24, 0x01	; 1
    122e:	9c 11       	cpse	r25, r12
    1230:	0e c0       	rjmp	.+28     	; 0x124e <CheckLetter+0x8e>
    1232:	0e c0       	rjmp	.+28     	; 0x1250 <CheckLetter+0x90>
            }
            if (data[y] == '[') found = 1;
    1234:	91 91       	ld	r25, Z+
    1236:	dd 24       	eor	r13, r13
    1238:	d3 94       	inc	r13
    123a:	9b 35       	cpi	r25, 0x5B	; 91
    123c:	09 f0       	breq	.+2      	; 0x1240 <CheckLetter+0x80>
    123e:	d1 2c       	mov	r13, r1

    while (x){
        uint8_t max;
        if (x>32) max = 32; else max = x;
        ExtEERead(object+OFF_STRINGFLDS+2, max, GAME, &data[0]);
        for (uint8_t y=0; y<max; ++y){
    1240:	8f 5f       	subi	r24, 0xFF	; 255
    1242:	80 17       	cp	r24, r16
    1244:	48 f3       	brcs	.-46     	; 0x1218 <CheckLetter+0x58>
            if (found){
                if ((data[y]|0x20) == letter) return 1; else return 0;
            }
            if (data[y] == '[') found = 1;
        }
        object += max;
    1246:	e0 0e       	add	r14, r16
    1248:	f1 1c       	adc	r15, r1
        x -= max;
    124a:	10 1b       	sub	r17, r16
    124c:	d4 cf       	rjmp	.-88     	; 0x11f6 <CheckLetter+0x36>
    }
    return 0;
    124e:	80 e0       	ldi	r24, 0x00	; 0
}
    1250:	a0 96       	adiw	r28, 0x20	; 32
    1252:	cd bf       	out	0x3d, r28	; 61
    1254:	de bf       	out	0x3e, r29	; 62
    1256:	df 91       	pop	r29
    1258:	cf 91       	pop	r28
    125a:	1f 91       	pop	r17
    125c:	0f 91       	pop	r16
    125e:	ff 90       	pop	r15
    1260:	ef 90       	pop	r14
    1262:	df 90       	pop	r13
    1264:	cf 90       	pop	r12
    1266:	08 95       	ret

00001268 <FindChild>:

//Returns the child's address if the child is visible and the search letter matches
uint16_t FindChild(uint16_t parent, uint8_t letter, uint16_t start){
    1268:	af 92       	push	r10
    126a:	bf 92       	push	r11
    126c:	df 92       	push	r13
    126e:	ef 92       	push	r14
    1270:	ff 92       	push	r15
    1272:	0f 93       	push	r16
    1274:	1f 93       	push	r17
    1276:	cf 93       	push	r28
    1278:	df 93       	push	r29
    127a:	00 d0       	rcall	.+0      	; 0x127c <FindChild+0x14>
    127c:	00 d0       	rcall	.+0      	; 0x127e <FindChild+0x16>
    127e:	cd b7       	in	r28, 0x3d	; 61
    1280:	de b7       	in	r29, 0x3e	; 62
    1282:	d6 2e       	mov	r13, r22
    1284:	5a 01       	movw	r10, r20
    
    uint16_t child = parent;
    uint8_t data[4];

    ExtEERead(child+L_BOILER, 4, GAME, &data[0]);
    1286:	9e 01       	movw	r18, r28
    1288:	2f 5f       	subi	r18, 0xFF	; 255
    128a:	3f 4f       	sbci	r19, 0xFF	; 255
    128c:	40 e0       	ldi	r20, 0x00	; 0
    128e:	64 e0       	ldi	r22, 0x04	; 4
    1290:	80 96       	adiw	r24, 0x20	; 32
    1292:	02 de       	rcall	.-1020   	; 0xe98 <ExtEERead>
    1294:	e9 80       	ldd	r14, Y+1	; 0x01
    1296:	fa 80       	ldd	r15, Y+2	; 0x02
    1298:	fe 24       	eor	r15, r14
    129a:	ef 24       	eor	r14, r15
    129c:	fe 24       	eor	r15, r14
    129e:	0b 81       	ldd	r16, Y+3	; 0x03
    12a0:	1c 81       	ldd	r17, Y+4	; 0x04
    12a2:	10 27       	eor	r17, r16
    12a4:	01 27       	eor	r16, r17
    12a6:	10 27       	eor	r17, r16
    parent = (data[0]<<8|data[1]);    //Next object on parent level
    child =  (data[2]<<8|data[3]);    //First object on child level

    //As long as the child is within the parent's range
    while (parent>child){
    12a8:	0e 15       	cp	r16, r14
    12aa:	1f 05       	cpc	r17, r15
    12ac:	30 f5       	brcc	.+76     	; 0x12fa <FindChild+0x92>

        //If child's address is higher than the start address, perform search for letter
        if (child>start){
    12ae:	a0 16       	cp	r10, r16
    12b0:	b1 06       	cpc	r11, r17
    12b2:	58 f0       	brcs	.+22     	; 0x12ca <FindChild+0x62>
                if ((letter == 0)||(CheckLetter(child, letter))) return child;
            }
        }

        //Not visible or name not right
        ExtEERead(child+L_BOILER, 2, GAME, &data[0]);
    12b4:	9e 01       	movw	r18, r28
    12b6:	2f 5f       	subi	r18, 0xFF	; 255
    12b8:	3f 4f       	sbci	r19, 0xFF	; 255
    12ba:	40 e0       	ldi	r20, 0x00	; 0
    12bc:	62 e0       	ldi	r22, 0x02	; 2
    12be:	c8 01       	movw	r24, r16
    12c0:	80 96       	adiw	r24, 0x20	; 32
    12c2:	ea dd       	rcall	.-1068   	; 0xe98 <ExtEERead>
    12c4:	09 81       	ldd	r16, Y+1	; 0x01
    12c6:	1a 81       	ldd	r17, Y+2	; 0x02
    12c8:	ec cf       	rjmp	.-40     	; 0x12a2 <FindChild+0x3a>
    //As long as the child is within the parent's range
    while (parent>child){

        //If child's address is higher than the start address, perform search for letter
        if (child>start){
            ExtEERead(child+OFF_BYTEFLDS+VISIBLE_ACL+L_BOILER, 1, GAME, &data[0]);
    12ca:	9e 01       	movw	r18, r28
    12cc:	2f 5f       	subi	r18, 0xFF	; 255
    12ce:	3f 4f       	sbci	r19, 0xFF	; 255
    12d0:	40 e0       	ldi	r20, 0x00	; 0
    12d2:	61 e0       	ldi	r22, 0x01	; 1
    12d4:	c8 01       	movw	r24, r16
    12d6:	85 96       	adiw	r24, 0x25	; 37
    12d8:	df dd       	rcall	.-1090   	; 0xe98 <ExtEERead>
            if ((data[0] == 0)||(CheckState(data[0]))) {
    12da:	89 81       	ldd	r24, Y+1	; 0x01
    12dc:	81 11       	cpse	r24, r1
    12de:	03 c0       	rjmp	.+6      	; 0x12e6 <FindChild+0x7e>
                if ((letter == 0)||(CheckLetter(child, letter))) return child;
    12e0:	d1 10       	cpse	r13, r1
    12e2:	05 c0       	rjmp	.+10     	; 0x12ee <FindChild+0x86>
    while (parent>child){

        //If child's address is higher than the start address, perform search for letter
        if (child>start){
            ExtEERead(child+OFF_BYTEFLDS+VISIBLE_ACL+L_BOILER, 1, GAME, &data[0]);
            if ((data[0] == 0)||(CheckState(data[0]))) {
    12e4:	0d c0       	rjmp	.+26     	; 0x1300 <FindChild+0x98>
    12e6:	5c df       	rcall	.-328    	; 0x11a0 <CheckState>
    12e8:	81 11       	cpse	r24, r1
    12ea:	fa cf       	rjmp	.-12     	; 0x12e0 <FindChild+0x78>
                if ((letter == 0)||(CheckLetter(child, letter))) return child;
    12ec:	e3 cf       	rjmp	.-58     	; 0x12b4 <FindChild+0x4c>
    12ee:	6d 2d       	mov	r22, r13
    12f0:	c8 01       	movw	r24, r16
    12f2:	66 df       	rcall	.-308    	; 0x11c0 <CheckLetter>
    12f4:	88 23       	and	r24, r24
    12f6:	f1 f2       	breq	.-68     	; 0x12b4 <FindChild+0x4c>
    12f8:	03 c0       	rjmp	.+6      	; 0x1300 <FindChild+0x98>

        //Not visible or name not right
        ExtEERead(child+L_BOILER, 2, GAME, &data[0]);
        child = (data[0]<<8|data[1]);    //Next object on child level
        
    } return 0;
    12fa:	80 e0       	ldi	r24, 0x00	; 0
    12fc:	90 e0       	ldi	r25, 0x00	; 0
    12fe:	01 c0       	rjmp	.+2      	; 0x1302 <FindChild+0x9a>
    1300:	c8 01       	movw	r24, r16
}
    1302:	24 96       	adiw	r28, 0x04	; 4
    1304:	cd bf       	out	0x3d, r28	; 61
    1306:	de bf       	out	0x3e, r29	; 62
    1308:	df 91       	pop	r29
    130a:	cf 91       	pop	r28
    130c:	1f 91       	pop	r17
    130e:	0f 91       	pop	r16
    1310:	ff 90       	pop	r15
    1312:	ef 90       	pop	r14
    1314:	df 90       	pop	r13
    1316:	bf 90       	pop	r11
    1318:	af 90       	pop	r10
    131a:	08 95       	ret

0000131c <InpOkChk>:

//Allow only a(A) to z(Z) and 0 to 9 as input
uint8_t InpOkChk(uint8_t test){
    test |= 0x20;
    131c:	80 62       	ori	r24, 0x20	; 32
    if ((test>='a')&&(test<='z')) return 1;
    131e:	9f e9       	ldi	r25, 0x9F	; 159
    1320:	98 0f       	add	r25, r24
    1322:	9a 31       	cpi	r25, 0x1A	; 26
    1324:	38 f0       	brcs	.+14     	; 0x1334 <InpOkChk+0x18>
    1326:	90 ed       	ldi	r25, 0xD0	; 208
    1328:	98 0f       	add	r25, r24
    132a:	81 e0       	ldi	r24, 0x01	; 1
    132c:	9a 30       	cpi	r25, 0x0A	; 10
    132e:	18 f0       	brcs	.+6      	; 0x1336 <InpOkChk+0x1a>
    1330:	80 e0       	ldi	r24, 0x00	; 0
    1332:	08 95       	ret
    1334:	81 e0       	ldi	r24, 0x01	; 1
    if ((test>='0')&&(test<='9')) return 1;
    return 0;
}
    1336:	08 95       	ret

00001338 <CleanInput>:

//Cleans input of garbage and returns length of cleaned input "o->d2  !\0" becomes "od2\0"
uint8_t CleanInput(uint8_t *data){
    1338:	0f 93       	push	r16
    133a:	1f 93       	push	r17
    133c:	cf 93       	push	r28
    133e:	df 93       	push	r29
    1340:	8c 01       	movw	r16, r24
    uint8_t cnt = 0;
    for (uint8_t x=0; data[x]!=0; ++x){
    1342:	d0 e0       	ldi	r29, 0x00	; 0
    return 0;
}

//Cleans input of garbage and returns length of cleaned input "o->d2  !\0" becomes "od2\0"
uint8_t CleanInput(uint8_t *data){
    uint8_t cnt = 0;
    1344:	c0 e0       	ldi	r28, 0x00	; 0
    for (uint8_t x=0; data[x]!=0; ++x){
    1346:	f8 01       	movw	r30, r16
    1348:	ed 0f       	add	r30, r29
    134a:	f1 1d       	adc	r31, r1
    134c:	20 81       	ld	r18, Z
    134e:	8c 2f       	mov	r24, r28
    1350:	90 e0       	ldi	r25, 0x00	; 0
    1352:	22 23       	and	r18, r18
    1354:	51 f0       	breq	.+20     	; 0x136a <CleanInput+0x32>
        data[cnt] = data[x];
    1356:	d8 01       	movw	r26, r16
    1358:	a8 0f       	add	r26, r24
    135a:	b9 1f       	adc	r27, r25
    135c:	2c 93       	st	X, r18
        if (InpOkChk(data[x])) ++cnt;
    135e:	80 81       	ld	r24, Z
    1360:	dd df       	rcall	.-70     	; 0x131c <InpOkChk>
    1362:	81 11       	cpse	r24, r1
    1364:	cf 5f       	subi	r28, 0xFF	; 255
}

//Cleans input of garbage and returns length of cleaned input "o->d2  !\0" becomes "od2\0"
uint8_t CleanInput(uint8_t *data){
    uint8_t cnt = 0;
    for (uint8_t x=0; data[x]!=0; ++x){
    1366:	df 5f       	subi	r29, 0xFF	; 255
    1368:	ee cf       	rjmp	.-36     	; 0x1346 <CleanInput+0xe>
        data[cnt] = data[x];
        if (InpOkChk(data[x])) ++cnt;
    }
    data[cnt] = 0;
    136a:	f8 01       	movw	r30, r16
    136c:	e8 0f       	add	r30, r24
    136e:	f9 1f       	adc	r31, r25
    1370:	10 82       	st	Z, r1
    return cnt;
}
    1372:	8c 2f       	mov	r24, r28
    1374:	df 91       	pop	r29
    1376:	cf 91       	pop	r28
    1378:	1f 91       	pop	r17
    137a:	0f 91       	pop	r16
    137c:	08 95       	ret

0000137e <CheckSend>:

//Send routine, optimized for low memory usage
uint8_t CheckSend(){
    137e:	cf 93       	push	r28
    static uint8_t txPart;
    uint8_t EEreadLength=0;

    //Check if more string(part)s have to be sent to the serial output if previous send operation is completed
    if ((txAddrNow < TXLISTLEN) && serTxDone){
    1380:	20 91 74 3a 	lds	r18, 0x3A74	; 0x803a74 <txAddrNow>
    1384:	28 30       	cpi	r18, 0x08	; 8
    1386:	08 f0       	brcs	.+2      	; 0x138a <CheckSend+0xc>
    1388:	47 c0       	rjmp	.+142    	; 0x1418 <CheckSend+0x9a>
    138a:	80 91 04 38 	lds	r24, 0x3804	; 0x803804 <serTxDone>
    138e:	88 23       	and	r24, r24
    1390:	09 f4       	brne	.+2      	; 0x1394 <CheckSend+0x16>
    1392:	42 c0       	rjmp	.+132    	; 0x1418 <CheckSend+0x9a>
        if (txStrLen[txAddrNow] == 0){
    1394:	82 2f       	mov	r24, r18
    1396:	90 e0       	ldi	r25, 0x00	; 0
    1398:	fc 01       	movw	r30, r24
    139a:	eb 58       	subi	r30, 0x8B	; 139
    139c:	f5 4c       	sbci	r31, 0xC5	; 197
    139e:	e0 81       	ld	r30, Z
    13a0:	e1 11       	cpse	r30, r1
    13a2:	06 c0       	rjmp	.+12     	; 0x13b0 <CheckSend+0x32>
            txPart = 0;
    13a4:	10 92 35 39 	sts	0x3935, r1	; 0x803935 <txPart.3917>
            txAddrNow = TXLISTLEN;
    13a8:	88 e0       	ldi	r24, 0x08	; 8
    13aa:	80 93 74 3a 	sts	0x3A74, r24	; 0x803a74 <txAddrNow>
    13ae:	2c c0       	rjmp	.+88     	; 0x1408 <CheckSend+0x8a>
        } else if (txPart < txStrLen[txAddrNow]){
    13b0:	50 91 35 39 	lds	r21, 0x3935	; 0x803935 <txPart.3917>
    13b4:	5e 17       	cp	r21, r30
    13b6:	50 f5       	brcc	.+84     	; 0x140c <CheckSend+0x8e>
            EEreadLength = txStrLen[txAddrNow]-txPart;
    13b8:	ce 2f       	mov	r28, r30
    13ba:	c5 1b       	sub	r28, r21
    13bc:	c1 32       	cpi	r28, 0x21	; 33
    13be:	08 f0       	brcs	.+2      	; 0x13c2 <CheckSend+0x44>
    13c0:	c0 e2       	ldi	r28, 0x20	; 32
            if (EEreadLength>=TXLEN) EEreadLength = TXLEN-1;
            ExtEERead(txAddrList[txAddrNow]+txPart, EEreadLength, txTypeNow, &txBuffer[0]);
    13c2:	88 0f       	add	r24, r24
    13c4:	99 1f       	adc	r25, r25
    13c6:	fc 01       	movw	r30, r24
    13c8:	e3 58       	subi	r30, 0x83	; 131
    13ca:	f5 4c       	sbci	r31, 0xC5	; 197
    13cc:	80 81       	ld	r24, Z
    13ce:	91 81       	ldd	r25, Z+1	; 0x01
    13d0:	2a e3       	ldi	r18, 0x3A	; 58
    13d2:	3b e3       	ldi	r19, 0x3B	; 59
    13d4:	40 91 73 3a 	lds	r20, 0x3A73	; 0x803a73 <txTypeNow>
    13d8:	6c 2f       	mov	r22, r28
    13da:	85 0f       	add	r24, r21
    13dc:	91 1d       	adc	r25, r1
    13de:	5c dd       	rcall	.-1352   	; 0xe98 <ExtEERead>
            txPart += EEreadLength;
    13e0:	80 91 35 39 	lds	r24, 0x3935	; 0x803935 <txPart.3917>
    13e4:	8c 0f       	add	r24, r28
    13e6:	80 93 35 39 	sts	0x3935, r24	; 0x803935 <txPart.3917>
            txBuffer[EEreadLength] = 0; //Add string terminator after piece to send to plug memory leak
    13ea:	ec 2f       	mov	r30, r28
    13ec:	f0 e0       	ldi	r31, 0x00	; 0
    13ee:	e6 5c       	subi	r30, 0xC6	; 198
    13f0:	f4 4c       	sbci	r31, 0xC4	; 196
    13f2:	10 82       	st	Z, r1
            if ((txBuffer[0] == 0) && (EEreadLength)) txBuffer[0] = 0xDB; //Block character when data wrong.
    13f4:	80 91 3a 3b 	lds	r24, 0x3B3A	; 0x803b3a <txBuffer>
    13f8:	81 11       	cpse	r24, r1
    13fa:	03 c0       	rjmp	.+6      	; 0x1402 <CheckSend+0x84>
    13fc:	8b ed       	ldi	r24, 0xDB	; 219
    13fe:	80 93 3a 3b 	sts	0x3B3A, r24	; 0x803b3a <txBuffer>
            SerSend(&txBuffer[0]);
    1402:	8a e3       	ldi	r24, 0x3A	; 58
    1404:	9b e3       	ldi	r25, 0x3B	; 59
    1406:	dd da       	rcall	.-2630   	; 0x9c2 <SerSend>
        } else {
            txPart = 0;
            ++txAddrNow;
        }
    } else if (serTxDone) return 0; //All is sent!
    return 1; //Still sending, do not change the data in the tx variables
    1408:	81 e0       	ldi	r24, 0x01	; 1
    140a:	0b c0       	rjmp	.+22     	; 0x1422 <CheckSend+0xa4>
            txPart += EEreadLength;
            txBuffer[EEreadLength] = 0; //Add string terminator after piece to send to plug memory leak
            if ((txBuffer[0] == 0) && (EEreadLength)) txBuffer[0] = 0xDB; //Block character when data wrong.
            SerSend(&txBuffer[0]);
        } else {
            txPart = 0;
    140c:	10 92 35 39 	sts	0x3935, r1	; 0x803935 <txPart.3917>
            ++txAddrNow;
    1410:	2f 5f       	subi	r18, 0xFF	; 255
    1412:	20 93 74 3a 	sts	0x3A74, r18	; 0x803a74 <txAddrNow>
    1416:	f8 cf       	rjmp	.-16     	; 0x1408 <CheckSend+0x8a>
        }
    } else if (serTxDone) return 0; //All is sent!
    1418:	90 91 04 38 	lds	r25, 0x3804	; 0x803804 <serTxDone>
    141c:	81 e0       	ldi	r24, 0x01	; 1
    141e:	91 11       	cpse	r25, r1
    1420:	80 e0       	ldi	r24, 0x00	; 0
    return 1; //Still sending, do not change the data in the tx variables
}
    1422:	cf 91       	pop	r28
    1424:	08 95       	ret

00001426 <CheckResponse>:

//Send another part of the response and play the effect afterwards
uint8_t CheckResponse(){
    1426:	cf 93       	push	r28
    1428:	df 93       	push	r29
    static uint8_t number = 0;
    if (responseList){
    142a:	c0 91 47 39 	lds	r28, 0x3947	; 0x803947 <responseList>
    142e:	cc 23       	and	r28, r28
    1430:	e9 f1       	breq	.+122    	; 0x14ac <CheckResponse+0x86>
        --responseList;
    1432:	c1 50       	subi	r28, 0x01	; 1
    1434:	c0 93 47 39 	sts	0x3947, r28	; 0x803947 <responseList>
        if (reactStr[0][number] == CURR_LOC) {
    1438:	d0 91 34 39 	lds	r29, 0x3934	; 0x803934 <number.3921>
    143c:	2d 2f       	mov	r18, r29
    143e:	30 e0       	ldi	r19, 0x00	; 0
    1440:	f9 01       	movw	r30, r18
    1442:	ee 0f       	add	r30, r30
    1444:	ff 1f       	adc	r31, r31
    1446:	e8 5b       	subi	r30, 0xB8	; 184
    1448:	f6 4c       	sbci	r31, 0xC6	; 198
    144a:	80 81       	ld	r24, Z
    144c:	91 81       	ldd	r25, Z+1	; 0x01
    144e:	80 3f       	cpi	r24, 0xF0	; 240
    1450:	4f ef       	ldi	r20, 0xFF	; 255
    1452:	94 07       	cpc	r25, r20
    1454:	51 f4       	brne	.+20     	; 0x146a <CheckResponse+0x44>
            PrepareSending(currObj.addrStr[NAME], currObj.lenStr[NAME], GAME);
    1456:	60 91 62 3a 	lds	r22, 0x3A62	; 0x803a62 <currObj+0x1a>
    145a:	70 91 63 3a 	lds	r23, 0x3A63	; 0x803a63 <currObj+0x1b>
    145e:	40 e0       	ldi	r20, 0x00	; 0
    1460:	80 91 54 3a 	lds	r24, 0x3A54	; 0x803a54 <currObj+0xc>
    1464:	90 91 55 3a 	lds	r25, 0x3A55	; 0x803a55 <currObj+0xd>
    1468:	0d c0       	rjmp	.+26     	; 0x1484 <CheckResponse+0x5e>
        } else {
            PrepareSending(reactStr[0][number], reactStr[1][number], reactStr[2][number]);
    146a:	d9 01       	movw	r26, r18
    146c:	aa 0f       	add	r26, r26
    146e:	bb 1f       	adc	r27, r27
    1470:	a8 53       	subi	r26, 0x38	; 56
    1472:	b6 4c       	sbci	r27, 0xC6	; 198
    1474:	22 0f       	add	r18, r18
    1476:	33 1f       	adc	r19, r19
    1478:	f9 01       	movw	r30, r18
    147a:	e8 57       	subi	r30, 0x78	; 120
    147c:	f6 4c       	sbci	r31, 0xC6	; 198
    147e:	60 81       	ld	r22, Z
    1480:	71 81       	ldd	r23, Z+1	; 0x01
    1482:	4c 91       	ld	r20, X
    1484:	5f dd       	rcall	.-1346   	; 0xf44 <PrepareSending>
        }
        ++number;
    1486:	df 5f       	subi	r29, 0xFF	; 255
    1488:	d0 93 34 39 	sts	0x3934, r29	; 0x803934 <number.3921>

        if (responseList == 0) {
    148c:	c1 11       	cpse	r28, r1
    148e:	0d c0       	rjmp	.+26     	; 0x14aa <CheckResponse+0x84>
            effect = currObj.byteField[EFFECTS];
    1490:	80 91 4c 3a 	lds	r24, 0x3A4C	; 0x803a4c <currObj+0x4>
    1494:	90 e0       	ldi	r25, 0x00	; 0
    1496:	80 93 93 38 	sts	0x3893, r24	; 0x803893 <effect>
    149a:	90 93 94 38 	sts	0x3894, r25	; 0x803894 <effect+0x1>
            RXCNT = 0;
    149e:	1d ba       	out	0x1d, r1	; 29
            serRxDone = 0;
    14a0:	10 92 9c 38 	sts	0x389C, r1	; 0x80389c <serRxDone>
            number = 0;
    14a4:	10 92 34 39 	sts	0x3934, r1	; 0x803934 <number.3921>
    14a8:	01 c0       	rjmp	.+2      	; 0x14ac <CheckResponse+0x86>
            return 0;
        }
        return 1;
    14aa:	c1 e0       	ldi	r28, 0x01	; 1
    }
    return 0;
}
    14ac:	8c 2f       	mov	r24, r28
    14ae:	df 91       	pop	r29
    14b0:	cf 91       	pop	r28
    14b2:	08 95       	ret

000014b4 <CheckInput>:

//User input check (and validation)
uint8_t CheckInput(uint8_t *data){
    14b4:	ef 92       	push	r14
    14b6:	ff 92       	push	r15
    14b8:	0f 93       	push	r16
    14ba:	1f 93       	push	r17
    14bc:	cf 93       	push	r28
    14be:	df 93       	push	r29
    14c0:	cd b7       	in	r28, 0x3d	; 61
    14c2:	de b7       	in	r29, 0x3e	; 62
    14c4:	2a 97       	sbiw	r28, 0x0a	; 10
    14c6:	cd bf       	out	0x3d, r28	; 61
    14c8:	de bf       	out	0x3e, r29	; 62
    14ca:	8c 01       	movw	r16, r24
    
    //Load game data after reboot
    if (currDepth == 0xff) {
    14cc:	80 91 8f 38 	lds	r24, 0x388F	; 0x80388f <currDepth>
    14d0:	8f 3f       	cpi	r24, 0xFF	; 255
    14d2:	09 f0       	breq	.+2      	; 0x14d6 <CheckInput+0x22>
    14d4:	57 c0       	rjmp	.+174    	; 0x1584 <CheckInput+0xd0>
        //Load things from EEPROM
        EERead(0, &gameState[0], BOOTCHK);   //Load game status bits from EEPROM
    14d6:	44 e1       	ldi	r20, 0x14	; 20
    14d8:	6f e8       	ldi	r22, 0x8F	; 143
    14da:	7a e3       	ldi	r23, 0x3A	; 58
    14dc:	80 e0       	ldi	r24, 0x00	; 0
    14de:	39 da       	rcall	.-2958   	; 0x952 <EERead>
    14e0:	8e e6       	ldi	r24, 0x6E	; 110
    14e2:	f8 2e       	mov	r15, r24

        uint8_t idSet = 0;
    14e4:	e1 2c       	mov	r14, r1
        for (uint8_t x=0; x<4; ++x){
            idSet += ReadStatusBit(110+x);
    14e6:	8f 2d       	mov	r24, r15
    14e8:	d3 db       	rcall	.-2138   	; 0xc90 <ReadStatusBit>
    14ea:	e8 0e       	add	r14, r24
    14ec:	f3 94       	inc	r15
    if (currDepth == 0xff) {
        //Load things from EEPROM
        EERead(0, &gameState[0], BOOTCHK);   //Load game status bits from EEPROM

        uint8_t idSet = 0;
        for (uint8_t x=0; x<4; ++x){
    14ee:	82 e7       	ldi	r24, 0x72	; 114
    14f0:	f8 12       	cpse	r15, r24
    14f2:	f9 cf       	rjmp	.-14     	; 0x14e6 <CheckInput+0x32>
            idSet += ReadStatusBit(110+x);
        }

        //Check if badge is reset(0 = cheated!) or new(3) or error(2)
        if (idSet != 1) {
    14f4:	e1 e0       	ldi	r30, 0x01	; 1
    14f6:	ee 16       	cp	r14, r30
            Reset();
    14f8:	11 f0       	breq	.+4      	; 0x14fe <CheckInput+0x4a>
    14fa:	06 dc       	rcall	.-2036   	; 0xd08 <Reset>
        } else getID();
    14fc:	01 c0       	rjmp	.+2      	; 0x1500 <CheckInput+0x4c>
    14fe:	f6 db       	rcall	.-2068   	; 0xcec <getID>

        inventory[0] = (gameState[INVADDR]<<8|gameState[INVADDR+1]);
    1500:	80 91 9f 3a 	lds	r24, 0x3A9F	; 0x803a9f <gameState+0x10>
    1504:	90 91 a0 3a 	lds	r25, 0x3AA0	; 0x803aa0 <gameState+0x11>
    1508:	98 27       	eor	r25, r24
    150a:	89 27       	eor	r24, r25
    150c:	98 27       	eor	r25, r24
    150e:	80 93 96 38 	sts	0x3896, r24	; 0x803896 <inventory>
    1512:	90 93 97 38 	sts	0x3897, r25	; 0x803897 <inventory+0x1>
        inventory[1] = (gameState[INVADDR+2]<<8|gameState[INVADDR+3]);
    1516:	80 91 a1 3a 	lds	r24, 0x3AA1	; 0x803aa1 <gameState+0x12>
    151a:	90 91 a2 3a 	lds	r25, 0x3AA2	; 0x803aa2 <gameState+0x13>
    151e:	98 27       	eor	r25, r24
    1520:	89 27       	eor	r24, r25
    1522:	98 27       	eor	r25, r24
    1524:	80 93 98 38 	sts	0x3898, r24	; 0x803898 <inventory+0x2>
    1528:	90 93 99 38 	sts	0x3899, r25	; 0x803899 <inventory+0x3>
        SaveGameState();
    152c:	3e db       	rcall	.-2436   	; 0xbaa <SaveGameState>

        //Start at first location
        PopulateObject(route[0], &currObj);
    152e:	68 e4       	ldi	r22, 0x48	; 72
    1530:	7a e3       	ldi	r23, 0x3A	; 58
    1532:	80 91 08 3a 	lds	r24, 0x3A08	; 0x803a08 <route>
    1536:	90 91 09 3a 	lds	r25, 0x3A09	; 0x803a09 <route+0x1>
    153a:	b8 dd       	rcall	.-1168   	; 0x10ac <PopulateObject>
        currDepth = 0;
    153c:	10 92 8f 38 	sts	0x388F, r1	; 0x80388f <currDepth>

        //Play an effect if configured
        if ((effect < 0x0100) && (effect ^ currObj.byteField[EFFECTS])){
    1540:	80 91 93 38 	lds	r24, 0x3893	; 0x803893 <effect>
    1544:	90 91 94 38 	lds	r25, 0x3894	; 0x803894 <effect+0x1>
    1548:	8f 3f       	cpi	r24, 0xFF	; 255
    154a:	91 05       	cpc	r25, r1
    154c:	09 f0       	breq	.+2      	; 0x1550 <CheckInput+0x9c>
    154e:	d0 f4       	brcc	.+52     	; 0x1584 <CheckInput+0xd0>
    1550:	80 91 4c 3a 	lds	r24, 0x3A4C	; 0x803a4c <currObj+0x4>
    1554:	90 e0       	ldi	r25, 0x00	; 0
    1556:	20 91 93 38 	lds	r18, 0x3893	; 0x803893 <effect>
    155a:	30 91 94 38 	lds	r19, 0x3894	; 0x803894 <effect+0x1>
    155e:	82 17       	cp	r24, r18
    1560:	93 07       	cpc	r25, r19
    1562:	81 f0       	breq	.+32     	; 0x1584 <CheckInput+0xd0>
            effect = currObj.byteField[EFFECTS];
    1564:	80 93 93 38 	sts	0x3893, r24	; 0x803893 <effect>
    1568:	90 93 94 38 	sts	0x3894, r25	; 0x803894 <effect+0x1>
            auStart = ((effect&0xE0)>0);
    156c:	80 91 93 38 	lds	r24, 0x3893	; 0x803893 <effect>
    1570:	90 91 94 38 	lds	r25, 0x3894	; 0x803894 <effect+0x1>
    1574:	80 7e       	andi	r24, 0xE0	; 224
    1576:	99 27       	eor	r25, r25
    1578:	21 e0       	ldi	r18, 0x01	; 1
    157a:	89 2b       	or	r24, r25
    157c:	09 f4       	brne	.+2      	; 0x1580 <CheckInput+0xcc>
    157e:	20 e0       	ldi	r18, 0x00	; 0
    1580:	20 93 92 38 	sts	0x3892, r18	; 0x803892 <auStart>
        }
    }

    if (serRxDone){
    1584:	80 91 9c 38 	lds	r24, 0x389C	; 0x80389c <serRxDone>
    1588:	88 23       	and	r24, r24
    158a:	09 f4       	brne	.+2      	; 0x158e <CheckInput+0xda>
    158c:	51 c1       	rjmp	.+674    	; 0x1830 <CheckInput+0x37c>

        //Special input requested from user by game
        if (specialInput[0]){
    158e:	80 91 37 39 	lds	r24, 0x3937	; 0x803937 <specialInput>
    1592:	88 23       	and	r24, r24
    1594:	09 f4       	brne	.+2      	; 0x1598 <CheckInput+0xe4>
    1596:	57 c0       	rjmp	.+174    	; 0x1646 <CheckInput+0x192>
            specialPassed = 0;
    1598:	10 92 36 39 	sts	0x3936, r1	; 0x803936 <specialPassed>
            data[0] = 'a';
    159c:	81 e6       	ldi	r24, 0x61	; 97
    159e:	f8 01       	movw	r30, r16
            
            //Normal code challenge
            if (StartsWith((uint8_t *)&serRx[0], &specialInput[0])) {
    15a0:	80 83       	st	Z, r24
    15a2:	67 e3       	ldi	r22, 0x37	; 55
    15a4:	79 e3       	ldi	r23, 0x39	; 57
    15a6:	83 ea       	ldi	r24, 0xA3	; 163
    15a8:	9a e3       	ldi	r25, 0x3A	; 58
    15aa:	b2 dc       	rcall	.-1692   	; 0xf10 <StartsWith>
    15ac:	f8 2e       	mov	r15, r24
    15ae:	88 23       	and	r24, r24
    15b0:	21 f0       	breq	.+8      	; 0x15ba <CheckInput+0x106>
                specialPassed = 1;
    15b2:	81 e0       	ldi	r24, 0x01	; 1
    15b4:	80 93 36 39 	sts	0x3936, r24	; 0x803936 <specialPassed>
    15b8:	04 c0       	rjmp	.+8      	; 0x15c2 <CheckInput+0x10e>
                //specialInput[0] = 0;
                //data[1] = 0;

            //Special challenge 1
            } else if ((specialInput[0] == '1')&&(specialInput[2] == 0)) {
    15ba:	80 91 37 39 	lds	r24, 0x3937	; 0x803937 <specialInput>
    15be:	81 33       	cpi	r24, 0x31	; 49
    15c0:	11 f0       	breq	.+4      	; 0x15c6 <CheckInput+0x112>
                    if (serTxDone) SerSend(&cheat[0]);
                }
            }
        } 
        //Data received, but not any of the commands above
        return 0;
    15c2:	f1 2c       	mov	r15, r1
                specialPassed = 1;
                //specialInput[0] = 0;
                //data[1] = 0;

            //Special challenge 1
            } else if ((specialInput[0] == '1')&&(specialInput[2] == 0)) {
    15c4:	37 c1       	rjmp	.+622    	; 0x1834 <CheckInput+0x380>
    15c6:	80 91 39 39 	lds	r24, 0x3939	; 0x803939 <specialInput+0x2>
    15ca:	81 11       	cpse	r24, r1
                uint8_t inputLen = CleanInput((uint8_t *)&serRx[0]);
    15cc:	fa cf       	rjmp	.-12     	; 0x15c2 <CheckInput+0x10e>
    15ce:	83 ea       	ldi	r24, 0xA3	; 163
    15d0:	9a e3       	ldi	r25, 0x3A	; 58
    15d2:	b2 de       	rcall	.-668    	; 0x1338 <CleanInput>
                specialPassed = 2;
    15d4:	92 e0       	ldi	r25, 0x02	; 2
    15d6:	90 93 36 39 	sts	0x3936, r25	; 0x803936 <specialPassed>
                data[1] = 0;
    15da:	f8 01       	movw	r30, r16
    15dc:	11 82       	std	Z+1, r1	; 0x01

                if (inputLen >= 2) {
    15de:	82 30       	cpi	r24, 0x02	; 2
    15e0:	80 f3       	brcs	.-32     	; 0x15c2 <CheckInput+0x10e>
                    if ((serRx[0] == '0')||(serRx[0] == '1')||(serRx[0] == '2')||(serRx[0] == '3')) {
    15e2:	80 91 a3 3a 	lds	r24, 0x3AA3	; 0x803aa3 <serRx>
    15e6:	80 33       	cpi	r24, 0x30	; 48
    15e8:	61 f0       	breq	.+24     	; 0x1602 <CheckInput+0x14e>
    15ea:	80 91 a3 3a 	lds	r24, 0x3AA3	; 0x803aa3 <serRx>
    15ee:	81 33       	cpi	r24, 0x31	; 49
    15f0:	41 f0       	breq	.+16     	; 0x1602 <CheckInput+0x14e>
    15f2:	80 91 a3 3a 	lds	r24, 0x3AA3	; 0x803aa3 <serRx>
    15f6:	82 33       	cpi	r24, 0x32	; 50
    15f8:	21 f0       	breq	.+8      	; 0x1602 <CheckInput+0x14e>
    15fa:	80 91 a3 3a 	lds	r24, 0x3AA3	; 0x803aa3 <serRx>
    15fe:	83 33       	cpi	r24, 0x33	; 51
    1600:	01 f7       	brne	.-64     	; 0x15c2 <CheckInput+0x10e>
                        serRx[1] |= 0x20;
    1602:	80 91 a4 3a 	lds	r24, 0x3AA4	; 0x803aa4 <serRx+0x1>
    1606:	80 62       	ori	r24, 0x20	; 32
    1608:	80 93 a4 3a 	sts	0x3AA4, r24	; 0x803aa4 <serRx+0x1>
                        if ((serRx[1] == 'a')||(serRx[1] == 'e')||(serRx[1] == 'f')||(serRx[1] == 'w')) {
    160c:	80 91 a4 3a 	lds	r24, 0x3AA4	; 0x803aa4 <serRx+0x1>
    1610:	81 36       	cpi	r24, 0x61	; 97
    1612:	61 f0       	breq	.+24     	; 0x162c <CheckInput+0x178>
    1614:	80 91 a4 3a 	lds	r24, 0x3AA4	; 0x803aa4 <serRx+0x1>
    1618:	85 36       	cpi	r24, 0x65	; 101
    161a:	41 f0       	breq	.+16     	; 0x162c <CheckInput+0x178>
    161c:	80 91 a4 3a 	lds	r24, 0x3AA4	; 0x803aa4 <serRx+0x1>
    1620:	86 36       	cpi	r24, 0x66	; 102
    1622:	21 f0       	breq	.+8      	; 0x162c <CheckInput+0x178>
    1624:	80 91 a4 3a 	lds	r24, 0x3AA4	; 0x803aa4 <serRx+0x1>
    1628:	87 37       	cpi	r24, 0x77	; 119
    162a:	59 f6       	brne	.-106    	; 0x15c2 <CheckInput+0x10e>
                            data[1] = specialInput[1]+0x11;
    162c:	80 91 38 39 	lds	r24, 0x3938	; 0x803938 <specialInput+0x1>
    1630:	8f 5e       	subi	r24, 0xEF	; 239
    1632:	f8 01       	movw	r30, r16
    1634:	81 83       	std	Z+1, r24	; 0x01
                            data[2] = serRx[0];
    1636:	80 91 a3 3a 	lds	r24, 0x3AA3	; 0x803aa3 <serRx>
    163a:	82 83       	std	Z+2, r24	; 0x02
                            data[3] = serRx[1];
    163c:	80 91 a4 3a 	lds	r24, 0x3AA4	; 0x803aa4 <serRx+0x1>
    1640:	83 83       	std	Z+3, r24	; 0x03
                            data[4] = 0;
    1642:	14 82       	std	Z+4, r1	; 0x04
    1644:	f7 c0       	rjmp	.+494    	; 0x1834 <CheckInput+0x380>
    1646:	d8 01       	movw	r26, r16
    }

    if (serRxDone){

        //Special input requested from user by game
        if (specialInput[0]){
    1648:	80 e0       	ldi	r24, 0x00	; 0
    164a:	90 e0       	ldi	r25, 0x00	; 0
        
        //Normal input
        } else {
            //Read up to the \0 character and convert to lower case.
            for (uint8_t x=0; x<RXLEN; ++x){
                if ((serRx[x]<'A')||(serRx[x]>'Z')) data[x]=serRx[x]; else data[x]=serRx[x]|0x20;
    164c:	fc 01       	movw	r30, r24
    164e:	ed 55       	subi	r30, 0x5D	; 93
    1650:	f5 4c       	sbci	r31, 0xC5	; 197
    1652:	20 81       	ld	r18, Z
    1654:	21 34       	cpi	r18, 0x41	; 65
    1656:	18 f0       	brcs	.+6      	; 0x165e <CheckInput+0x1aa>
    1658:	20 81       	ld	r18, Z
    165a:	2b 35       	cpi	r18, 0x5B	; 91
    165c:	10 f0       	brcs	.+4      	; 0x1662 <CheckInput+0x1ae>
    165e:	20 81       	ld	r18, Z
    1660:	02 c0       	rjmp	.+4      	; 0x1666 <CheckInput+0x1b2>
    1662:	20 81       	ld	r18, Z
    1664:	20 62       	ori	r18, 0x20	; 32
    1666:	2c 93       	st	X, r18
                if (serRx[x] == 0) {
    1668:	20 81       	ld	r18, Z
    166a:	21 11       	cpse	r18, r1
    166c:	05 c0       	rjmp	.+10     	; 0x1678 <CheckInput+0x1c4>
                    data[x] = 0;
    166e:	f8 01       	movw	r30, r16
    1670:	e8 0f       	add	r30, r24
    1672:	f1 1d       	adc	r31, r1
    1674:	10 82       	st	Z, r1
                    break;
    1676:	05 c0       	rjmp	.+10     	; 0x1682 <CheckInput+0x1ce>
    1678:	01 96       	adiw	r24, 0x01	; 1
    167a:	11 96       	adiw	r26, 0x01	; 1
            //}
        
        //Normal input
        } else {
            //Read up to the \0 character and convert to lower case.
            for (uint8_t x=0; x<RXLEN; ++x){
    167c:	81 34       	cpi	r24, 0x41	; 65
    167e:	91 05       	cpc	r25, r1
    1680:	29 f7       	brne	.-54     	; 0x164c <CheckInput+0x198>
                    break;
                }
            }

            //No text
            if (serRx[0] == 0){
    1682:	80 91 a3 3a 	lds	r24, 0x3AA3	; 0x803aa3 <serRx>
                data[0] = 0;
    1686:	f8 01       	movw	r30, r16
                    break;
                }
            }

            //No text
            if (serRx[0] == 0){
    1688:	81 11       	cpse	r24, r1
    168a:	05 c0       	rjmp	.+10     	; 0x1696 <CheckInput+0x1e2>
                data[0] = 0;
    168c:	10 82       	st	Z, r1
                RXCNT = 0;
    168e:	1d ba       	out	0x1d, r1	; 29
                serRxDone = 0;
    1690:	10 92 9c 38 	sts	0x389C, r1	; 0x80389c <serRxDone>
    1694:	cd c0       	rjmp	.+410    	; 0x1830 <CheckInput+0x37c>
                return 1;
            }

            //Help text
            if ((data[0] == '?')||(data[0] == 'h')){
    1696:	80 81       	ld	r24, Z
    1698:	8f 33       	cpi	r24, 0x3F	; 63
    169a:	11 f0       	breq	.+4      	; 0x16a0 <CheckInput+0x1ec>
    169c:	88 36       	cpi	r24, 0x68	; 104
    169e:	49 f4       	brne	.+18     	; 0x16b2 <CheckInput+0x1fe>
    return 0;
}

//
void SetResponse(uint8_t number, uint16_t address, uint16_t length, uint8_t type){
    reactStr[0][number]=address;
    16a0:	83 e9       	ldi	r24, 0x93	; 147
    16a2:	9b e7       	ldi	r25, 0x7B	; 123
    16a4:	80 93 48 39 	sts	0x3948, r24	; 0x803948 <reactStr>
    16a8:	90 93 49 39 	sts	0x3949, r25	; 0x803949 <reactStr+0x1>
    reactStr[1][number]=length;
    16ac:	8d e6       	ldi	r24, 0x6D	; 109
    16ae:	94 e0       	ldi	r25, 0x04	; 4
    16b0:	79 c0       	rjmp	.+242    	; 0x17a4 <CheckInput+0x2f0>
                responseList = SetStandardResponse(1);
                return 1;
            }        
        
            //Alphabet text
            if (data[0] == 'a'){
    16b2:	81 36       	cpi	r24, 0x61	; 97
    16b4:	49 f4       	brne	.+18     	; 0x16c8 <CheckInput+0x214>
    return 0;
}

//
void SetResponse(uint8_t number, uint16_t address, uint16_t length, uint8_t type){
    reactStr[0][number]=address;
    16b6:	8e e6       	ldi	r24, 0x6E	; 110
    16b8:	9a e7       	ldi	r25, 0x7A	; 122
    16ba:	80 93 48 39 	sts	0x3948, r24	; 0x803948 <reactStr>
    16be:	90 93 49 39 	sts	0x3949, r25	; 0x803949 <reactStr+0x1>
    reactStr[1][number]=length;
    16c2:	85 e2       	ldi	r24, 0x25	; 37
    16c4:	91 e0       	ldi	r25, 0x01	; 1
    16c6:	6e c0       	rjmp	.+220    	; 0x17a4 <CheckInput+0x2f0>
                responseList = SetStandardResponse(1);
                return 1;
            }

            //Whoami text
            if (data[0] == 'w'){
    16c8:	87 37       	cpi	r24, 0x77	; 119
    16ca:	09 f0       	breq	.+2      	; 0x16ce <CheckInput+0x21a>
    16cc:	61 c0       	rjmp	.+194    	; 0x1790 <CheckInput+0x2dc>
    return 0;
}

//
void SetResponse(uint8_t number, uint16_t address, uint16_t length, uint8_t type){
    reactStr[0][number]=address;
    16ce:	8b ec       	ldi	r24, 0xCB	; 203
    16d0:	96 e7       	ldi	r25, 0x76	; 118
    16d2:	80 93 48 39 	sts	0x3948, r24	; 0x803948 <reactStr>
    16d6:	90 93 49 39 	sts	0x3949, r25	; 0x803949 <reactStr+0x1>
    reactStr[1][number]=length;
    16da:	82 e1       	ldi	r24, 0x12	; 18
    16dc:	90 e0       	ldi	r25, 0x00	; 0
    16de:	80 93 88 39 	sts	0x3988, r24	; 0x803988 <reactStr+0x40>
    16e2:	90 93 89 39 	sts	0x3989, r25	; 0x803989 <reactStr+0x41>
    reactStr[2][number]=type;
    16e6:	81 e0       	ldi	r24, 0x01	; 1
    16e8:	90 e0       	ldi	r25, 0x00	; 0
    16ea:	80 93 c8 39 	sts	0x39C8, r24	; 0x8039c8 <reactStr+0x80>
    16ee:	90 93 c9 39 	sts	0x39C9, r25	; 0x8039c9 <reactStr+0x81>
            }

            //Whoami text
            if (data[0] == 'w'){
                SetResponse(0, A_HELLO, L_HELLO, TEASER);
                if (whoami == 1) {
    16f2:	20 91 95 38 	lds	r18, 0x3895	; 0x803895 <whoami>
    16f6:	21 30       	cpi	r18, 0x01	; 1
    16f8:	19 f4       	brne	.+6      	; 0x1700 <CheckInput+0x24c>
    return 0;
}

//
void SetResponse(uint8_t number, uint16_t address, uint16_t length, uint8_t type){
    reactStr[0][number]=address;
    16fa:	25 ec       	ldi	r18, 0xC5	; 197
    16fc:	36 e7       	ldi	r19, 0x76	; 118
    16fe:	0f c0       	rjmp	.+30     	; 0x171e <CheckInput+0x26a>
            //Whoami text
            if (data[0] == 'w'){
                SetResponse(0, A_HELLO, L_HELLO, TEASER);
                if (whoami == 1) {
                    SetResponse(1, A_ANUBIS, L_ANUBIS, TEASER);
                } else if (whoami == 2) {
    1700:	22 30       	cpi	r18, 0x02	; 2
    1702:	49 f4       	brne	.+18     	; 0x1716 <CheckInput+0x262>
    return 0;
}

//
void SetResponse(uint8_t number, uint16_t address, uint16_t length, uint8_t type){
    reactStr[0][number]=address;
    1704:	22 ec       	ldi	r18, 0xC2	; 194
    1706:	36 e7       	ldi	r19, 0x76	; 118
    1708:	20 93 4a 39 	sts	0x394A, r18	; 0x80394a <reactStr+0x2>
    170c:	30 93 4b 39 	sts	0x394B, r19	; 0x80394b <reactStr+0x3>
    reactStr[1][number]=length;
    1710:	23 e0       	ldi	r18, 0x03	; 3
    1712:	30 e0       	ldi	r19, 0x00	; 0
    1714:	1e c0       	rjmp	.+60     	; 0x1752 <CheckInput+0x29e>
                SetResponse(0, A_HELLO, L_HELLO, TEASER);
                if (whoami == 1) {
                    SetResponse(1, A_ANUBIS, L_ANUBIS, TEASER);
                } else if (whoami == 2) {
                    SetResponse(1, A_BES, L_BES, TEASER);
                } else if (whoami == 3) {
    1716:	23 30       	cpi	r18, 0x03	; 3
    1718:	49 f4       	brne	.+18     	; 0x172c <CheckInput+0x278>
    return 0;
}

//
void SetResponse(uint8_t number, uint16_t address, uint16_t length, uint8_t type){
    reactStr[0][number]=address;
    171a:	2c eb       	ldi	r18, 0xBC	; 188
    171c:	36 e7       	ldi	r19, 0x76	; 118
    171e:	20 93 4a 39 	sts	0x394A, r18	; 0x80394a <reactStr+0x2>
    1722:	30 93 4b 39 	sts	0x394B, r19	; 0x80394b <reactStr+0x3>
    reactStr[1][number]=length;
    1726:	26 e0       	ldi	r18, 0x06	; 6
    1728:	30 e0       	ldi	r19, 0x00	; 0
    172a:	13 c0       	rjmp	.+38     	; 0x1752 <CheckInput+0x29e>
                    SetResponse(1, A_ANUBIS, L_ANUBIS, TEASER);
                } else if (whoami == 2) {
                    SetResponse(1, A_BES, L_BES, TEASER);
                } else if (whoami == 3) {
                    SetResponse(1, A_KHONSU, L_KHONSU, TEASER);
                } else if (whoami == 4) {
    172c:	24 30       	cpi	r18, 0x04	; 4
    172e:	49 f4       	brne	.+18     	; 0x1742 <CheckInput+0x28e>
    return 0;
}

//
void SetResponse(uint8_t number, uint16_t address, uint16_t length, uint8_t type){
    reactStr[0][number]=address;
    1730:	27 eb       	ldi	r18, 0xB7	; 183
    1732:	36 e7       	ldi	r19, 0x76	; 118
    1734:	20 93 4a 39 	sts	0x394A, r18	; 0x80394a <reactStr+0x2>
    1738:	30 93 4b 39 	sts	0x394B, r19	; 0x80394b <reactStr+0x3>
    reactStr[1][number]=length;
    173c:	25 e0       	ldi	r18, 0x05	; 5
    173e:	30 e0       	ldi	r19, 0x00	; 0
    1740:	08 c0       	rjmp	.+16     	; 0x1752 <CheckInput+0x29e>
    return 0;
}

//
void SetResponse(uint8_t number, uint16_t address, uint16_t length, uint8_t type){
    reactStr[0][number]=address;
    1742:	20 e4       	ldi	r18, 0x40	; 64
    1744:	36 e7       	ldi	r19, 0x76	; 118
    1746:	20 93 4a 39 	sts	0x394A, r18	; 0x80394a <reactStr+0x2>
    174a:	30 93 4b 39 	sts	0x394B, r19	; 0x80394b <reactStr+0x3>
    reactStr[1][number]=length;
    174e:	22 e4       	ldi	r18, 0x42	; 66
    1750:	30 e0       	ldi	r19, 0x00	; 0
    1752:	20 93 8a 39 	sts	0x398A, r18	; 0x80398a <reactStr+0x42>
    1756:	30 93 8b 39 	sts	0x398B, r19	; 0x80398b <reactStr+0x43>
    reactStr[2][number]=type;
    175a:	80 93 ca 39 	sts	0x39CA, r24	; 0x8039ca <reactStr+0x82>
    175e:	90 93 cb 39 	sts	0x39CB, r25	; 0x8039cb <reactStr+0x83>
    return 0;
}

//
void SetResponse(uint8_t number, uint16_t address, uint16_t length, uint8_t type){
    reactStr[0][number]=address;
    1762:	8d e9       	ldi	r24, 0x9D	; 157
    1764:	96 e7       	ldi	r25, 0x76	; 118
    1766:	80 93 4c 39 	sts	0x394C, r24	; 0x80394c <reactStr+0x4>
    176a:	90 93 4d 39 	sts	0x394D, r25	; 0x80394d <reactStr+0x5>
    reactStr[1][number]=length;
    176e:	8a e1       	ldi	r24, 0x1A	; 26
    1770:	90 e0       	ldi	r25, 0x00	; 0
    1772:	80 93 8c 39 	sts	0x398C, r24	; 0x80398c <reactStr+0x44>
    1776:	90 93 8d 39 	sts	0x398D, r25	; 0x80398d <reactStr+0x45>
    reactStr[2][number]=type;
    177a:	81 e0       	ldi	r24, 0x01	; 1
    177c:	90 e0       	ldi	r25, 0x00	; 0
    177e:	80 93 cc 39 	sts	0x39CC, r24	; 0x8039cc <reactStr+0x84>
    1782:	90 93 cd 39 	sts	0x39CD, r25	; 0x8039cd <reactStr+0x85>
                    SetResponse(1, A_THOTH, L_THOTH, TEASER);
                } else {
                    SetResponse(1, A_ERROR, L_ERROR, TEASER);
                }
                SetResponse(2, A_PLEASED, L_PLEASED, TEASER);
                responseList = SetStandardResponse(3);
    1786:	83 e0       	ldi	r24, 0x03	; 3
    1788:	15 dc       	rcall	.-2006   	; 0xfb4 <SetStandardResponse>
    178a:	80 93 47 39 	sts	0x3947, r24	; 0x803947 <responseList>
    178e:	50 c0       	rjmp	.+160    	; 0x1830 <CheckInput+0x37c>
                return 1;
            }

            //Quit text
            if (data[0] == 'q'){
    1790:	81 37       	cpi	r24, 0x71	; 113
    1792:	99 f4       	brne	.+38     	; 0x17ba <CheckInput+0x306>
    return 0;
}

//
void SetResponse(uint8_t number, uint16_t address, uint16_t length, uint8_t type){
    reactStr[0][number]=address;
    1794:	83 e0       	ldi	r24, 0x03	; 3
    1796:	9a e7       	ldi	r25, 0x7A	; 122
    1798:	80 93 48 39 	sts	0x3948, r24	; 0x803948 <reactStr>
    179c:	90 93 49 39 	sts	0x3949, r25	; 0x803949 <reactStr+0x1>
    reactStr[1][number]=length;
    17a0:	84 e5       	ldi	r24, 0x54	; 84
    17a2:	90 e0       	ldi	r25, 0x00	; 0
    17a4:	80 93 88 39 	sts	0x3988, r24	; 0x803988 <reactStr+0x40>
    17a8:	90 93 89 39 	sts	0x3989, r25	; 0x803989 <reactStr+0x41>
    reactStr[2][number]=type;
    17ac:	81 e0       	ldi	r24, 0x01	; 1
    17ae:	90 e0       	ldi	r25, 0x00	; 0
    17b0:	80 93 c8 39 	sts	0x39C8, r24	; 0x8039c8 <reactStr+0x80>
    17b4:	90 93 c9 39 	sts	0x39C9, r25	; 0x8039c9 <reactStr+0x81>
    17b8:	e7 cf       	rjmp	.-50     	; 0x1788 <CheckInput+0x2d4>
                responseList = SetStandardResponse(1);
                return 1;
            }

            //Change status bit
            if (data[0] == '#'){
    17ba:	83 32       	cpi	r24, 0x23	; 35
    17bc:	b9 f4       	brne	.+46     	; 0x17ec <CheckInput+0x338>
    17be:	f8 01       	movw	r30, r16
    17c0:	31 96       	adiw	r30, 0x01	; 1
    17c2:	0c 5f       	subi	r16, 0xFC	; 252
    17c4:	1f 4f       	sbci	r17, 0xFF	; 255
    17c6:	80 e0       	ldi	r24, 0x00	; 0
                uint8_t bitNr = 0;
                for (uint8_t x=1; x<4; ++x) {
                    data[x] -= '0';
    17c8:	90 81       	ld	r25, Z
    17ca:	90 53       	subi	r25, 0x30	; 48
    17cc:	91 93       	st	Z+, r25
                    bitNr *= 10;
    17ce:	88 0f       	add	r24, r24
    17d0:	28 2f       	mov	r18, r24
    17d2:	22 0f       	add	r18, r18
    17d4:	22 0f       	add	r18, r18
                    if (data[x] < 10) {
    17d6:	82 0f       	add	r24, r18
    17d8:	9a 30       	cpi	r25, 0x0A	; 10
                        bitNr += data[x];
    17da:	30 f4       	brcc	.+12     	; 0x17e8 <CheckInput+0x334>
            }

            //Change status bit
            if (data[0] == '#'){
                uint8_t bitNr = 0;
                for (uint8_t x=1; x<4; ++x) {
    17dc:	89 0f       	add	r24, r25
    17de:	e0 17       	cp	r30, r16
                        continue;
                    }
                    bitNr = 0;
                    break;
                }
                if (bitNr) UpdateState(bitNr);
    17e0:	f1 07       	cpc	r31, r17
    17e2:	91 f7       	brne	.-28     	; 0x17c8 <CheckInput+0x314>
    17e4:	81 11       	cpse	r24, r1
                responseList = SetStandardResponse(0);
    17e6:	d4 dc       	rcall	.-1624   	; 0x1190 <UpdateState>
    17e8:	80 e0       	ldi	r24, 0x00	; 0
                return 1;
            }

            //Cheat = reset badge!
            if (StartsWith(&data[0], "iddqd")){
    17ea:	ce cf       	rjmp	.-100    	; 0x1788 <CheckInput+0x2d4>
    17ec:	6a eb       	ldi	r22, 0xBA	; 186
    17ee:	79 ea       	ldi	r23, 0xA9	; 169
    17f0:	c8 01       	movw	r24, r16
    17f2:	8e db       	rcall	.-2276   	; 0xf10 <StartsWith>
    17f4:	88 23       	and	r24, r24
    17f6:	09 f4       	brne	.+2      	; 0x17fa <CheckInput+0x346>
            
                //Reset game data by wiping the UUID bits
                for (uint8_t x=0; x<4; ++x){
                    WriteStatusBit(110+x, 0);
    17f8:	e4 ce       	rjmp	.-568    	; 0x15c2 <CheckInput+0x10e>
    17fa:	1e e6       	ldi	r17, 0x6E	; 110
    17fc:	60 e0       	ldi	r22, 0x00	; 0
    17fe:	81 2f       	mov	r24, r17
    1800:	5b da       	rcall	.-2890   	; 0xcb8 <WriteStatusBit>

            //Cheat = reset badge!
            if (StartsWith(&data[0], "iddqd")){
            
                //Reset game data by wiping the UUID bits
                for (uint8_t x=0; x<4; ++x){
    1802:	1f 5f       	subi	r17, 0xFF	; 255
                    WriteStatusBit(110+x, 0);
                }
                SaveGameState();
    1804:	12 37       	cpi	r17, 0x72	; 114
    1806:	d1 f7       	brne	.-12     	; 0x17fc <CheckInput+0x348>

                uint8_t cheat[] = "Cheater! ";
    1808:	d0 d9       	rcall	.-3168   	; 0xbaa <SaveGameState>
    180a:	8a e0       	ldi	r24, 0x0A	; 10
    180c:	e0 ec       	ldi	r30, 0xC0	; 192
    180e:	f9 ea       	ldi	r31, 0xA9	; 169
    1810:	de 01       	movw	r26, r28
    1812:	11 96       	adiw	r26, 0x01	; 1
    1814:	01 90       	ld	r0, Z+
    1816:	0d 92       	st	X+, r0
                SerSpeed(60);
    1818:	8a 95       	dec	r24
    181a:	e1 f7       	brne	.-8      	; 0x1814 <CheckInput+0x360>
    181c:	8c e3       	ldi	r24, 0x3C	; 60
                while(1){
                    if (serTxDone) SerSend(&cheat[0]);
    181e:	e2 d8       	rcall	.-3644   	; 0x9e4 <SerSpeed>
    1820:	80 91 04 38 	lds	r24, 0x3804	; 0x803804 <serTxDone>
    1824:	88 23       	and	r24, r24
    1826:	e1 f3       	breq	.-8      	; 0x1820 <CheckInput+0x36c>
    1828:	ce 01       	movw	r24, r28
    182a:	01 96       	adiw	r24, 0x01	; 1
    182c:	ca d8       	rcall	.-3692   	; 0x9c2 <SerSend>
    182e:	f8 cf       	rjmp	.-16     	; 0x1820 <CheckInput+0x36c>
        //Data received, but not any of the commands above
        return 0;
    }

    //Serial input not available yet
    return 1;
    1830:	ff 24       	eor	r15, r15
    1832:	f3 94       	inc	r15
}
    1834:	8f 2d       	mov	r24, r15
    1836:	2a 96       	adiw	r28, 0x0a	; 10
    1838:	cd bf       	out	0x3d, r28	; 61
    183a:	de bf       	out	0x3e, r29	; 62
    183c:	df 91       	pop	r29
    183e:	cf 91       	pop	r28
    1840:	1f 91       	pop	r17
    1842:	0f 91       	pop	r16
    1844:	ff 90       	pop	r15
    1846:	ef 90       	pop	r14
    1848:	08 95       	ret

0000184a <ProcessInput>:

//The game logic!
uint8_t ProcessInput(uint8_t *data){
    184a:	4f 92       	push	r4
    184c:	5f 92       	push	r5
    184e:	6f 92       	push	r6
    1850:	7f 92       	push	r7
    1852:	8f 92       	push	r8
    1854:	9f 92       	push	r9
    1856:	af 92       	push	r10
    1858:	bf 92       	push	r11
    185a:	cf 92       	push	r12
    185c:	df 92       	push	r13
    185e:	ef 92       	push	r14
    1860:	ff 92       	push	r15
    1862:	0f 93       	push	r16
    1864:	1f 93       	push	r17
    1866:	cf 93       	push	r28
    1868:	df 93       	push	r29
    186a:	cd b7       	in	r28, 0x3d	; 61
    186c:	de b7       	in	r29, 0x3e	; 62
    186e:	2a 97       	sbiw	r28, 0x0a	; 10
    1870:	cd bf       	out	0x3d, r28	; 61
    1872:	de bf       	out	0x3e, r29	; 62
    1874:	8c 01       	movw	r16, r24
    static object_model_t actObj1, actObj2;
    uint8_t elements = 0;

    CleanInput(&data[0]);
    1876:	60 dd       	rcall	.-1344   	; 0x1338 <CleanInput>
    uint8_t inputLen = CleanInput(&data[0]);
    1878:	c8 01       	movw	r24, r16
    187a:	5e dd       	rcall	.-1348   	; 0x1338 <CleanInput>
    187c:	f8 2e       	mov	r15, r24

    if (inputLen) {
    187e:	88 23       	and	r24, r24
    1880:	09 f4       	brne	.+2      	; 0x1884 <ProcessInput+0x3a>
    1882:	94 c7       	rjmp	.+3880   	; 0x27ac <ProcessInput+0xf62>

        //eXit to previous location
        if (data[0] == 'x'){
    1884:	d8 01       	movw	r26, r16
    1886:	8c 91       	ld	r24, X
    1888:	88 37       	cpi	r24, 0x78	; 120
    188a:	29 f5       	brne	.+74     	; 0x18d6 <ProcessInput+0x8c>

            //Standing in the Lobby?
            if ((route[currDepth] == 0)||(currDepth == 0)){
    188c:	80 91 8f 38 	lds	r24, 0x388F	; 0x80388f <currDepth>
    1890:	e8 2f       	mov	r30, r24
    1892:	f0 e0       	ldi	r31, 0x00	; 0
    1894:	ee 0f       	add	r30, r30
    1896:	ff 1f       	adc	r31, r31
    1898:	e8 5f       	subi	r30, 0xF8	; 248
    189a:	f5 4c       	sbci	r31, 0xC5	; 197
    189c:	20 81       	ld	r18, Z
    189e:	31 81       	ldd	r19, Z+1	; 0x01
    18a0:	23 2b       	or	r18, r19
    18a2:	11 f0       	breq	.+4      	; 0x18a8 <ProcessInput+0x5e>
    18a4:	81 11       	cpse	r24, r1
    18a6:	03 c0       	rjmp	.+6      	; 0x18ae <ProcessInput+0x64>
    return 0;
}

//
void SetResponse(uint8_t number, uint16_t address, uint16_t length, uint8_t type){
    reactStr[0][number]=address;
    18a8:	82 e8       	ldi	r24, 0x82	; 130
    18aa:	96 e7       	ldi	r25, 0x76	; 118
    18ac:	25 c5       	rjmp	.+2634   	; 0x22f8 <ProcessInput+0xaae>
            //Standing in the Lobby?
            if ((route[currDepth] == 0)||(currDepth == 0)){
                SetResponse(elements++, A_NOTPOSSIBLE, L_NOTPOSSIBLE, TEASER);
            
            //Is there a way to go back?
            } else if (CheckState(currObj.byteField[OPEN_ACL])){
    18ae:	80 91 4e 3a 	lds	r24, 0x3A4E	; 0x803a4e <currObj+0x6>
    18b2:	76 dc       	rcall	.-1812   	; 0x11a0 <CheckState>
    18b4:	88 23       	and	r24, r24
    18b6:	31 f0       	breq	.+12     	; 0x18c4 <ProcessInput+0x7a>
                --currDepth;
    18b8:	e0 91 8f 38 	lds	r30, 0x388F	; 0x80388f <currDepth>
    18bc:	e1 50       	subi	r30, 0x01	; 1
    18be:	e0 93 8f 38 	sts	0x388F, r30	; 0x80388f <currDepth>
    18c2:	95 c0       	rjmp	.+298    	; 0x19ee <ProcessInput+0x1a4>
                PopulateObject(route[currDepth], &currObj);
            
            //No way out, print denied message of location
            } else {
                SetResponse(elements++, currObj.addrStr[OPEN_ACL_MSG], currObj.lenStr[OPEN_ACL_MSG], GAME);               
    18c4:	80 91 6a 3a 	lds	r24, 0x3A6A	; 0x803a6a <currObj+0x22>
    18c8:	90 91 6b 3a 	lds	r25, 0x3A6B	; 0x803a6b <currObj+0x23>
    return 0;
}

//
void SetResponse(uint8_t number, uint16_t address, uint16_t length, uint8_t type){
    reactStr[0][number]=address;
    18cc:	20 91 5c 3a 	lds	r18, 0x3A5C	; 0x803a5c <currObj+0x14>
    18d0:	30 91 5d 3a 	lds	r19, 0x3A5D	; 0x803a5d <currObj+0x15>
    18d4:	c5 c5       	rjmp	.+2954   	; 0x2460 <ProcessInput+0xc16>
            } else {
                SetResponse(elements++, currObj.addrStr[OPEN_ACL_MSG], currObj.lenStr[OPEN_ACL_MSG], GAME);               
            }   
        
        //Enter locations or Open objects    
        } else if ((data[0] == 'e')||(data[0] == 'o')) {
    18d6:	85 36       	cpi	r24, 0x65	; 101
    18d8:	19 f0       	breq	.+6      	; 0x18e0 <ProcessInput+0x96>
    18da:	8f 36       	cpi	r24, 0x6F	; 111
    18dc:	09 f0       	breq	.+2      	; 0x18e0 <ProcessInput+0x96>
    18de:	a3 c0       	rjmp	.+326    	; 0x1a26 <ProcessInput+0x1dc>
                
            //Not possible, too many/little characters
            if (inputLen != 2){
    18e0:	b2 e0       	ldi	r27, 0x02	; 2
    18e2:	fb 12       	cpse	r15, r27
    18e4:	e1 cf       	rjmp	.-62     	; 0x18a8 <ProcessInput+0x5e>
                SetResponse(elements++, A_NOTPOSSIBLE, L_NOTPOSSIBLE, TEASER);
            } else {
                uint8_t canDo = 0;
                route[currDepth+1] = FindChild(route[currDepth], data[1], 0);
    18e6:	e0 90 8f 38 	lds	r14, 0x388F	; 0x80388f <currDepth>
    18ea:	f1 2c       	mov	r15, r1
    18ec:	f7 01       	movw	r30, r14
    18ee:	ee 0f       	add	r30, r30
    18f0:	ff 1f       	adc	r31, r31
    18f2:	e8 5f       	subi	r30, 0xF8	; 248
    18f4:	f5 4c       	sbci	r31, 0xC5	; 197
    18f6:	40 e0       	ldi	r20, 0x00	; 0
    18f8:	50 e0       	ldi	r21, 0x00	; 0
    18fa:	d8 01       	movw	r26, r16
    18fc:	11 96       	adiw	r26, 0x01	; 1
    18fe:	6c 91       	ld	r22, X
    1900:	80 81       	ld	r24, Z
    1902:	91 81       	ldd	r25, Z+1	; 0x01
    1904:	b1 dc       	rcall	.-1694   	; 0x1268 <FindChild>
    1906:	f7 01       	movw	r30, r14
    1908:	ee 0f       	add	r30, r30
    190a:	ff 1f       	adc	r31, r31
    190c:	e6 5f       	subi	r30, 0xF6	; 246
    190e:	f5 4c       	sbci	r31, 0xC5	; 197
    1910:	80 83       	st	Z, r24
    1912:	91 83       	std	Z+1, r25	; 0x01
                    
                //Child found?
                if (route[currDepth+1]) {
    1914:	90 91 8f 38 	lds	r25, 0x388F	; 0x80388f <currDepth>
    1918:	29 2f       	mov	r18, r25
    191a:	30 e0       	ldi	r19, 0x00	; 0
    191c:	f9 01       	movw	r30, r18
    191e:	ee 0f       	add	r30, r30
    1920:	ff 1f       	adc	r31, r31
    1922:	e6 5f       	subi	r30, 0xF6	; 246
    1924:	f5 4c       	sbci	r31, 0xC5	; 197
    1926:	40 81       	ld	r20, Z
    1928:	51 81       	ldd	r21, Z+1	; 0x01
    192a:	41 15       	cp	r20, r1
    192c:	51 05       	cpc	r21, r1
    192e:	21 f0       	breq	.+8      	; 0x1938 <ProcessInput+0xee>
                    PopulateObject(route[currDepth+1], &actObj1);
    1930:	69 e0       	ldi	r22, 0x09	; 9
    1932:	79 e3       	ldi	r23, 0x39	; 57
    1934:	ca 01       	movw	r24, r20
    1936:	1c c0       	rjmp	.+56     	; 0x1970 <ProcessInput+0x126>
                    canDo = 1;
                //No child, maybe a step back, letter ok?
                } else if (currDepth) {
    1938:	99 23       	and	r25, r25
    193a:	09 f4       	brne	.+2      	; 0x193e <ProcessInput+0xf4>
    193c:	b7 c6       	rjmp	.+3438   	; 0x26ac <ProcessInput+0xe62>
                    if (CheckLetter(route[currDepth-1], data[1])) {
    193e:	22 0f       	add	r18, r18
    1940:	33 1f       	adc	r19, r19
    1942:	f9 01       	movw	r30, r18
    1944:	ea 5f       	subi	r30, 0xFA	; 250
    1946:	f5 4c       	sbci	r31, 0xC5	; 197
    1948:	d8 01       	movw	r26, r16
    194a:	11 96       	adiw	r26, 0x01	; 1
    194c:	6c 91       	ld	r22, X
    194e:	80 81       	ld	r24, Z
    1950:	91 81       	ldd	r25, Z+1	; 0x01
    1952:	36 dc       	rcall	.-1940   	; 0x11c0 <CheckLetter>
    1954:	88 23       	and	r24, r24
    1956:	09 f4       	brne	.+2      	; 0x195a <ProcessInput+0x110>
    1958:	a9 c6       	rjmp	.+3410   	; 0x26ac <ProcessInput+0xe62>
                        PopulateObject(route[currDepth-1], &actObj1);
    195a:	e0 91 8f 38 	lds	r30, 0x388F	; 0x80388f <currDepth>
    195e:	f0 e0       	ldi	r31, 0x00	; 0
    1960:	ee 0f       	add	r30, r30
    1962:	ff 1f       	adc	r31, r31
    1964:	ea 5f       	subi	r30, 0xFA	; 250
    1966:	f5 4c       	sbci	r31, 0xC5	; 197
    1968:	69 e0       	ldi	r22, 0x09	; 9
    196a:	79 e3       	ldi	r23, 0x39	; 57
    196c:	80 81       	ld	r24, Z
    196e:	91 81       	ldd	r25, Z+1	; 0x01
    1970:	9d db       	rcall	.-2246   	; 0x10ac <PopulateObject>
                    }
                }

                //The candidate is found! Let's check if the action is legit
                if (canDo) {
                    if ((data[0] == 'e') && ((actObj1.byteField[ACTION_MASK]&ENTER)==0)) {
    1972:	d8 01       	movw	r26, r16
    1974:	8c 91       	ld	r24, X
    1976:	85 36       	cpi	r24, 0x65	; 101
    1978:	c9 f4       	brne	.+50     	; 0x19ac <ProcessInput+0x162>
    197a:	80 91 11 39 	lds	r24, 0x3911	; 0x803911 <actObj1.3950+0x8>
    197e:	80 fd       	sbrc	r24, 0
    1980:	1e c0       	rjmp	.+60     	; 0x19be <ProcessInput+0x174>
    return 0;
}

//
void SetResponse(uint8_t number, uint16_t address, uint16_t length, uint8_t type){
    reactStr[0][number]=address;
    1982:	80 ea       	ldi	r24, 0xA0	; 160
    1984:	99 e7       	ldi	r25, 0x79	; 121
    1986:	80 93 48 39 	sts	0x3948, r24	; 0x803948 <reactStr>
    198a:	90 93 49 39 	sts	0x3949, r25	; 0x803949 <reactStr+0x1>
    reactStr[1][number]=length;
    198e:	8e e1       	ldi	r24, 0x1E	; 30
    1990:	90 e0       	ldi	r25, 0x00	; 0
    1992:	80 93 88 39 	sts	0x3988, r24	; 0x803988 <reactStr+0x40>
    1996:	90 93 89 39 	sts	0x3989, r25	; 0x803989 <reactStr+0x41>
    reactStr[2][number]=type;
    199a:	81 e0       	ldi	r24, 0x01	; 1
    199c:	90 e0       	ldi	r25, 0x00	; 0
    199e:	80 93 c8 39 	sts	0x39C8, r24	; 0x8039c8 <reactStr+0x80>
    19a2:	90 93 c9 39 	sts	0x39C9, r25	; 0x8039c9 <reactStr+0x81>
                }

                //The candidate is found! Let's check if the action is legit
                if (canDo) {
                    if ((data[0] == 'e') && ((actObj1.byteField[ACTION_MASK]&ENTER)==0)) {
                        SetResponse(elements++, A_CANTENTER, L_CANTENTER, TEASER);
    19a6:	77 24       	eor	r7, r7
    19a8:	73 94       	inc	r7
    19aa:	6e c6       	rjmp	.+3292   	; 0x2688 <ProcessInput+0xe3e>
                    } else if ((data[0] == 'o') && ((actObj1.byteField[ACTION_MASK]&OPEN)==0)) {
    19ac:	8f 36       	cpi	r24, 0x6F	; 111
    19ae:	39 f4       	brne	.+14     	; 0x19be <ProcessInput+0x174>
    19b0:	80 91 11 39 	lds	r24, 0x3911	; 0x803911 <actObj1.3950+0x8>
    19b4:	81 fd       	sbrc	r24, 1
    return 0;
}

//
void SetResponse(uint8_t number, uint16_t address, uint16_t length, uint8_t type){
    reactStr[0][number]=address;
    19b6:	03 c0       	rjmp	.+6      	; 0x19be <ProcessInput+0x174>
    19b8:	85 e8       	ldi	r24, 0x85	; 133
    19ba:	99 e7       	ldi	r25, 0x79	; 121
                        SetResponse(elements++, A_CANTENTER, L_CANTENTER, TEASER);
                    } else if ((data[0] == 'o') && ((actObj1.byteField[ACTION_MASK]&OPEN)==0)) {
                        SetResponse(elements++, A_CANTOPEN, L_CANTOPEN, TEASER);
                    
                    //Action legit, permission granted?
                    } else if (CheckState(actObj1.byteField[OPEN_ACL])) {
    19bc:	9d c4       	rjmp	.+2362   	; 0x22f8 <ProcessInput+0xaae>
    19be:	80 91 0f 39 	lds	r24, 0x390F	; 0x80390f <actObj1.3950+0x6>
    19c2:	ee db       	rcall	.-2084   	; 0x11a0 <CheckState>
    19c4:	e0 91 8f 38 	lds	r30, 0x388F	; 0x80388f <currDepth>
    19c8:	88 23       	and	r24, r24
    19ca:	e9 f0       	breq	.+58     	; 0x1a06 <ProcessInput+0x1bc>
                            
                        //Yes! Check if we must move forward or backwards.
                        if (route[currDepth+1]) ++currDepth; else --currDepth;
    19cc:	ae 2f       	mov	r26, r30
    19ce:	b0 e0       	ldi	r27, 0x00	; 0
    19d0:	aa 0f       	add	r26, r26
    19d2:	bb 1f       	adc	r27, r27
    19d4:	a6 5f       	subi	r26, 0xF6	; 246
    19d6:	b5 4c       	sbci	r27, 0xC5	; 197
    19d8:	8d 91       	ld	r24, X+
    19da:	9c 91       	ld	r25, X
    19dc:	89 2b       	or	r24, r25
    19de:	11 f0       	breq	.+4      	; 0x19e4 <ProcessInput+0x19a>
    19e0:	ef 5f       	subi	r30, 0xFF	; 255
    19e2:	01 c0       	rjmp	.+2      	; 0x19e6 <ProcessInput+0x19c>
    19e4:	e1 50       	subi	r30, 0x01	; 1
    19e6:	e0 93 8f 38 	sts	0x388F, r30	; 0x80388f <currDepth>
                        PopulateObject(route[currDepth], &currObj);
    19ea:	e0 91 8f 38 	lds	r30, 0x388F	; 0x80388f <currDepth>
    19ee:	f0 e0       	ldi	r31, 0x00	; 0
    19f0:	ee 0f       	add	r30, r30
    19f2:	ff 1f       	adc	r31, r31
    19f4:	e8 5f       	subi	r30, 0xF8	; 248
    19f6:	f5 4c       	sbci	r31, 0xC5	; 197
    19f8:	68 e4       	ldi	r22, 0x48	; 72
    19fa:	7a e3       	ldi	r23, 0x3A	; 58
    19fc:	80 81       	ld	r24, Z
    19fe:	91 81       	ldd	r25, Z+1	; 0x01
    1a00:	55 db       	rcall	.-2390   	; 0x10ac <PopulateObject>
}

//The game logic!
uint8_t ProcessInput(uint8_t *data){
    static object_model_t actObj1, actObj2;
    uint8_t elements = 0;
    1a02:	71 2c       	mov	r7, r1
    1a04:	41 c6       	rjmp	.+3202   	; 0x2688 <ProcessInput+0xe3e>
                        if (route[currDepth+1]) ++currDepth; else --currDepth;
                        PopulateObject(route[currDepth], &currObj);
                                                  
                    //Not granted!
                    } else {
                        route[currDepth+1] = 0;
    1a06:	f0 e0       	ldi	r31, 0x00	; 0
    1a08:	ee 0f       	add	r30, r30
    1a0a:	ff 1f       	adc	r31, r31
    1a0c:	e6 5f       	subi	r30, 0xF6	; 246
    1a0e:	f5 4c       	sbci	r31, 0xC5	; 197
    1a10:	10 82       	st	Z, r1
    1a12:	11 82       	std	Z+1, r1	; 0x01
                        SetResponse(elements++, actObj1.addrStr[OPEN_ACL_MSG], actObj1.lenStr[OPEN_ACL_MSG], GAME);                
    1a14:	80 91 2b 39 	lds	r24, 0x392B	; 0x80392b <actObj1.3950+0x22>
    1a18:	90 91 2c 39 	lds	r25, 0x392C	; 0x80392c <actObj1.3950+0x23>
    return 0;
}

//
void SetResponse(uint8_t number, uint16_t address, uint16_t length, uint8_t type){
    reactStr[0][number]=address;
    1a1c:	20 91 1d 39 	lds	r18, 0x391D	; 0x80391d <actObj1.3950+0x14>
    1a20:	30 91 1e 39 	lds	r19, 0x391E	; 0x80391e <actObj1.3950+0x15>
    1a24:	1d c5       	rjmp	.+2618   	; 0x2460 <ProcessInput+0xc16>
                    SetResponse(elements++, A_DONTSEE, L_DONTSEE, TEASER);                
                }
            }

        //Look around or at objects
        } else if (data[0] == 'l') {
    1a26:	8c 36       	cpi	r24, 0x6C	; 108
    1a28:	09 f0       	breq	.+2      	; 0x1a2c <ProcessInput+0x1e2>
    1a2a:	49 c1       	rjmp	.+658    	; 0x1cbe <ProcessInput+0x474>
    1a2c:	e0 91 8f 38 	lds	r30, 0x388F	; 0x80388f <currDepth>
            if (inputLen == 1) {
    1a30:	b1 e0       	ldi	r27, 0x01	; 1
    1a32:	fb 12       	cpse	r15, r27
    1a34:	f6 c0       	rjmp	.+492    	; 0x1c22 <ProcessInput+0x3d8>

                //Show info about this area first
                SetResponse(elements++, currObj.addrStr[DESC], currObj.lenStr[DESC],GAME);
    1a36:	80 91 64 3a 	lds	r24, 0x3A64	; 0x803a64 <currObj+0x1c>
    1a3a:	90 91 65 3a 	lds	r25, 0x3A65	; 0x803a65 <currObj+0x1d>
    return 0;
}

//
void SetResponse(uint8_t number, uint16_t address, uint16_t length, uint8_t type){
    reactStr[0][number]=address;
    1a3e:	20 91 56 3a 	lds	r18, 0x3A56	; 0x803a56 <currObj+0xe>
    1a42:	30 91 57 3a 	lds	r19, 0x3A57	; 0x803a57 <currObj+0xf>
    1a46:	20 93 48 39 	sts	0x3948, r18	; 0x803948 <reactStr>
    1a4a:	30 93 49 39 	sts	0x3949, r19	; 0x803949 <reactStr+0x1>
    reactStr[1][number]=length;
    1a4e:	80 93 88 39 	sts	0x3988, r24	; 0x803988 <reactStr+0x40>
    1a52:	90 93 89 39 	sts	0x3989, r25	; 0x803989 <reactStr+0x41>
    reactStr[2][number]=type;
    1a56:	10 92 c8 39 	sts	0x39C8, r1	; 0x8039c8 <reactStr+0x80>
    1a5a:	10 92 c9 39 	sts	0x39C9, r1	; 0x8039c9 <reactStr+0x81>
    return 0;
}

//
void SetResponse(uint8_t number, uint16_t address, uint16_t length, uint8_t type){
    reactStr[0][number]=address;
    1a5e:	8b e5       	ldi	r24, 0x5B	; 91
    1a60:	9a e7       	ldi	r25, 0x7A	; 122
    1a62:	80 93 4a 39 	sts	0x394A, r24	; 0x80394a <reactStr+0x2>
    1a66:	90 93 4b 39 	sts	0x394B, r25	; 0x80394b <reactStr+0x3>
    reactStr[1][number]=length;
    1a6a:	82 e0       	ldi	r24, 0x02	; 2
    1a6c:	90 e0       	ldi	r25, 0x00	; 0
    1a6e:	80 93 8a 39 	sts	0x398A, r24	; 0x80398a <reactStr+0x42>
    1a72:	90 93 8b 39 	sts	0x398B, r25	; 0x80398b <reactStr+0x43>
    reactStr[2][number]=type;
    1a76:	81 e0       	ldi	r24, 0x01	; 1
    1a78:	90 e0       	ldi	r25, 0x00	; 0
    1a7a:	80 93 ca 39 	sts	0x39CA, r24	; 0x8039ca <reactStr+0x82>
    1a7e:	90 93 cb 39 	sts	0x39CB, r25	; 0x8039cb <reactStr+0x83>
    return 0;
}

//
void SetResponse(uint8_t number, uint16_t address, uint16_t length, uint8_t type){
    reactStr[0][number]=address;
    1a82:	2e ee       	ldi	r18, 0xEE	; 238
    1a84:	39 e7       	ldi	r19, 0x79	; 121
    1a86:	20 93 4c 39 	sts	0x394C, r18	; 0x80394c <reactStr+0x4>
    1a8a:	30 93 4d 39 	sts	0x394D, r19	; 0x80394d <reactStr+0x5>
    reactStr[1][number]=length;
    1a8e:	25 e1       	ldi	r18, 0x15	; 21
    1a90:	30 e0       	ldi	r19, 0x00	; 0
    1a92:	20 93 8c 39 	sts	0x398C, r18	; 0x80398c <reactStr+0x44>
    1a96:	30 93 8d 39 	sts	0x398D, r19	; 0x80398d <reactStr+0x45>
    reactStr[2][number]=type;
    1a9a:	80 93 cc 39 	sts	0x39CC, r24	; 0x8039cc <reactStr+0x84>
    1a9e:	90 93 cd 39 	sts	0x39CD, r25	; 0x8039cd <reactStr+0x85>
                SetResponse(elements++, A_LF, 2, TEASER);
                SetResponse(elements++, A_LOOK, L_LOOK, TEASER);
                //SetResponse(elements++, A_SPACE, L_SPACE, TEASER);

                //Check the visible children first
                route[currDepth+1] = 0;
    1aa2:	f0 e0       	ldi	r31, 0x00	; 0
    1aa4:	ee 0f       	add	r30, r30
    1aa6:	ff 1f       	adc	r31, r31
    1aa8:	e6 5f       	subi	r30, 0xF6	; 246
    1aaa:	f5 4c       	sbci	r31, 0xC5	; 197
    1aac:	10 82       	st	Z, r1
    1aae:	11 82       	std	Z+1, r1	; 0x01
            if (inputLen == 1) {

                //Show info about this area first
                SetResponse(elements++, currObj.addrStr[DESC], currObj.lenStr[DESC],GAME);
                SetResponse(elements++, A_LF, 2, TEASER);
                SetResponse(elements++, A_LOOK, L_LOOK, TEASER);
    1ab0:	33 e0       	ldi	r19, 0x03	; 3
    1ab2:	63 2e       	mov	r6, r19
    return 0;
}

//
void SetResponse(uint8_t number, uint16_t address, uint16_t length, uint8_t type){
    reactStr[0][number]=address;
    1ab4:	49 e5       	ldi	r20, 0x59	; 89
    1ab6:	c4 2e       	mov	r12, r20
    1ab8:	4a e7       	ldi	r20, 0x7A	; 122
    1aba:	d4 2e       	mov	r13, r20
    reactStr[1][number]=length;
    1abc:	52 e0       	ldi	r21, 0x02	; 2
    1abe:	a5 2e       	mov	r10, r21
    1ac0:	b1 2c       	mov	r11, r1
    reactStr[2][number]=type;
    1ac2:	88 24       	eor	r8, r8
    1ac4:	83 94       	inc	r8
    1ac6:	91 2c       	mov	r9, r1
                //SetResponse(elements++, A_SPACE, L_SPACE, TEASER);

                //Check the visible children first
                route[currDepth+1] = 0;
                do{
                    route[currDepth+1] = FindChild(route[currDepth], 0, route[currDepth+1]);
    1ac8:	80 91 8f 38 	lds	r24, 0x388F	; 0x80388f <currDepth>
    1acc:	90 e0       	ldi	r25, 0x00	; 0
    1ace:	9c 01       	movw	r18, r24
    1ad0:	22 0f       	add	r18, r18
    1ad2:	33 1f       	adc	r19, r19
    1ad4:	f9 01       	movw	r30, r18
    1ad6:	e6 5f       	subi	r30, 0xF6	; 246
    1ad8:	f5 4c       	sbci	r31, 0xC5	; 197
    1ada:	7f 01       	movw	r14, r30
    1adc:	40 81       	ld	r20, Z
    1ade:	51 81       	ldd	r21, Z+1	; 0x01
    1ae0:	f9 01       	movw	r30, r18
    1ae2:	e8 5f       	subi	r30, 0xF8	; 248
    1ae4:	f5 4c       	sbci	r31, 0xC5	; 197
    1ae6:	60 e0       	ldi	r22, 0x00	; 0
    1ae8:	80 81       	ld	r24, Z
    1aea:	91 81       	ldd	r25, Z+1	; 0x01
    1aec:	bd db       	rcall	.-2182   	; 0x1268 <FindChild>
    1aee:	d7 01       	movw	r26, r14
    1af0:	8d 93       	st	X+, r24
    1af2:	9c 93       	st	X, r25
                    if (route[currDepth+1]) {
    1af4:	e0 91 8f 38 	lds	r30, 0x388F	; 0x80388f <currDepth>
    1af8:	f0 e0       	ldi	r31, 0x00	; 0
    1afa:	ee 0f       	add	r30, r30
    1afc:	ff 1f       	adc	r31, r31
    1afe:	e6 5f       	subi	r30, 0xF6	; 246
    1b00:	f5 4c       	sbci	r31, 0xC5	; 197
    1b02:	80 81       	ld	r24, Z
    1b04:	91 81       	ldd	r25, Z+1	; 0x01
    1b06:	00 97       	sbiw	r24, 0x00	; 0
    1b08:	09 f4       	brne	.+2      	; 0x1b0c <ProcessInput+0x2c2>
    1b0a:	4a c0       	rjmp	.+148    	; 0x1ba0 <ProcessInput+0x356>
                        if ((route[currDepth+1] != inventory[0])&&(route[currDepth+1] != inventory[1])) {
    1b0c:	20 91 96 38 	lds	r18, 0x3896	; 0x803896 <inventory>
    1b10:	30 91 97 38 	lds	r19, 0x3897	; 0x803897 <inventory+0x1>
    1b14:	82 17       	cp	r24, r18
    1b16:	93 07       	cpc	r25, r19
    1b18:	09 f4       	brne	.+2      	; 0x1b1c <ProcessInput+0x2d2>
    1b1a:	42 c0       	rjmp	.+132    	; 0x1ba0 <ProcessInput+0x356>
    1b1c:	20 91 98 38 	lds	r18, 0x3898	; 0x803898 <inventory+0x2>
    1b20:	30 91 99 38 	lds	r19, 0x3899	; 0x803899 <inventory+0x3>
    1b24:	82 17       	cp	r24, r18
    1b26:	93 07       	cpc	r25, r19
                            PopulateObject(route[currDepth+1], &actObj1);
    1b28:	d9 f1       	breq	.+118    	; 0x1ba0 <ProcessInput+0x356>
    1b2a:	69 e0       	ldi	r22, 0x09	; 9
    1b2c:	79 e3       	ldi	r23, 0x39	; 57
    1b2e:	be da       	rcall	.-2692   	; 0x10ac <PopulateObject>
                            SetResponse(elements++, actObj1.addrStr[NAME], actObj1.lenStr[NAME],GAME);
    1b30:	80 91 23 39 	lds	r24, 0x3923	; 0x803923 <actObj1.3950+0x1a>
    1b34:	90 91 24 39 	lds	r25, 0x3924	; 0x803924 <actObj1.3950+0x1b>
    return 0;
}

//
void SetResponse(uint8_t number, uint16_t address, uint16_t length, uint8_t type){
    reactStr[0][number]=address;
    1b38:	e6 2d       	mov	r30, r6
    1b3a:	f0 e0       	ldi	r31, 0x00	; 0
    1b3c:	df 01       	movw	r26, r30
    1b3e:	aa 0f       	add	r26, r26
    1b40:	bb 1f       	adc	r27, r27
    1b42:	a8 5b       	subi	r26, 0xB8	; 184
    1b44:	b6 4c       	sbci	r27, 0xC6	; 198
    1b46:	20 91 15 39 	lds	r18, 0x3915	; 0x803915 <actObj1.3950+0xc>
    1b4a:	30 91 16 39 	lds	r19, 0x3916	; 0x803916 <actObj1.3950+0xd>
    1b4e:	2d 93       	st	X+, r18
    1b50:	3c 93       	st	X, r19
    reactStr[1][number]=length;
    1b52:	df 01       	movw	r26, r30
    1b54:	aa 0f       	add	r26, r26
    1b56:	bb 1f       	adc	r27, r27
    1b58:	a8 57       	subi	r26, 0x78	; 120
    1b5a:	b6 4c       	sbci	r27, 0xC6	; 198
    1b5c:	8d 93       	st	X+, r24
    1b5e:	9c 93       	st	X, r25
    reactStr[2][number]=type;
    1b60:	ee 0f       	add	r30, r30
    1b62:	ff 1f       	adc	r31, r31
    1b64:	e8 53       	subi	r30, 0x38	; 56
    1b66:	f6 4c       	sbci	r31, 0xC6	; 198
    1b68:	10 82       	st	Z, r1
    1b6a:	11 82       	std	Z+1, r1	; 0x01
    return 0;
}

//
void SetResponse(uint8_t number, uint16_t address, uint16_t length, uint8_t type){
    reactStr[0][number]=address;
    1b6c:	81 e0       	ldi	r24, 0x01	; 1
    1b6e:	86 0d       	add	r24, r6
    1b70:	90 e0       	ldi	r25, 0x00	; 0
    1b72:	63 94       	inc	r6
    1b74:	63 94       	inc	r6
    1b76:	fc 01       	movw	r30, r24
    1b78:	ee 0f       	add	r30, r30
    1b7a:	ff 1f       	adc	r31, r31
    1b7c:	e8 5b       	subi	r30, 0xB8	; 184
    1b7e:	f6 4c       	sbci	r31, 0xC6	; 198
    1b80:	c0 82       	st	Z, r12
    1b82:	d1 82       	std	Z+1, r13	; 0x01
    reactStr[1][number]=length;
    1b84:	fc 01       	movw	r30, r24
    1b86:	ee 0f       	add	r30, r30
    1b88:	ff 1f       	adc	r31, r31
    1b8a:	e8 57       	subi	r30, 0x78	; 120
    1b8c:	f6 4c       	sbci	r31, 0xC6	; 198
    1b8e:	a0 82       	st	Z, r10
    1b90:	b1 82       	std	Z+1, r11	; 0x01
    reactStr[2][number]=type;
    1b92:	88 0f       	add	r24, r24
    1b94:	99 1f       	adc	r25, r25
    1b96:	fc 01       	movw	r30, r24
    1b98:	e8 53       	subi	r30, 0x38	; 56
    1b9a:	f6 4c       	sbci	r31, 0xC6	; 198
    1b9c:	80 82       	st	Z, r8
    1b9e:	91 82       	std	Z+1, r9	; 0x01
                            SetResponse(elements++, actObj1.addrStr[NAME], actObj1.lenStr[NAME],GAME);
                            SetResponse(elements++, A_COMMA, L_COMMA, TEASER);
                            //SetResponse(elements++, A_SPACE, L_SPACE, TEASER);
                        }
                    }
                }while (route[currDepth+1]);
    1ba0:	20 91 8f 38 	lds	r18, 0x388F	; 0x80388f <currDepth>
    1ba4:	82 2f       	mov	r24, r18
    1ba6:	90 e0       	ldi	r25, 0x00	; 0
    1ba8:	fc 01       	movw	r30, r24
    1baa:	ee 0f       	add	r30, r30
    1bac:	ff 1f       	adc	r31, r31
    1bae:	e6 5f       	subi	r30, 0xF6	; 246
    1bb0:	f5 4c       	sbci	r31, 0xC5	; 197
    1bb2:	40 81       	ld	r20, Z
    1bb4:	51 81       	ldd	r21, Z+1	; 0x01
    1bb6:	45 2b       	or	r20, r21
    1bb8:	09 f0       	breq	.+2      	; 0x1bbc <ProcessInput+0x372>
    1bba:	86 cf       	rjmp	.-244    	; 0x1ac8 <ProcessInput+0x27e>

                //Look back if not on level 0
                if (currDepth) {
    1bbc:	22 23       	and	r18, r18
                    PopulateObject(route[currDepth-1], &actObj1);
    1bbe:	69 f1       	breq	.+90     	; 0x1c1a <ProcessInput+0x3d0>
    1bc0:	88 0f       	add	r24, r24
    1bc2:	99 1f       	adc	r25, r25
    1bc4:	fc 01       	movw	r30, r24
    1bc6:	ea 5f       	subi	r30, 0xFA	; 250
    1bc8:	f5 4c       	sbci	r31, 0xC5	; 197
    1bca:	69 e0       	ldi	r22, 0x09	; 9
    1bcc:	79 e3       	ldi	r23, 0x39	; 57
    1bce:	80 81       	ld	r24, Z
    1bd0:	91 81       	ldd	r25, Z+1	; 0x01
    1bd2:	6c da       	rcall	.-2856   	; 0x10ac <PopulateObject>
                    SetResponse(elements++, actObj1.addrStr[NAME], actObj1.lenStr[NAME],GAME);
    1bd4:	20 91 23 39 	lds	r18, 0x3923	; 0x803923 <actObj1.3950+0x1a>
    1bd8:	30 91 24 39 	lds	r19, 0x3924	; 0x803924 <actObj1.3950+0x1b>
    1bdc:	77 24       	eor	r7, r7
    1bde:	73 94       	inc	r7
    1be0:	76 0c       	add	r7, r6
    return 0;
}

//
void SetResponse(uint8_t number, uint16_t address, uint16_t length, uint8_t type){
    reactStr[0][number]=address;
    1be2:	86 2d       	mov	r24, r6
    1be4:	90 e0       	ldi	r25, 0x00	; 0
    1be6:	fc 01       	movw	r30, r24
    1be8:	ee 0f       	add	r30, r30
    1bea:	ff 1f       	adc	r31, r31
    1bec:	e8 5b       	subi	r30, 0xB8	; 184
    1bee:	f6 4c       	sbci	r31, 0xC6	; 198
    1bf0:	40 91 15 39 	lds	r20, 0x3915	; 0x803915 <actObj1.3950+0xc>
    1bf4:	50 91 16 39 	lds	r21, 0x3916	; 0x803916 <actObj1.3950+0xd>
    1bf8:	40 83       	st	Z, r20
    1bfa:	51 83       	std	Z+1, r21	; 0x01
    reactStr[1][number]=length;
    1bfc:	fc 01       	movw	r30, r24
    1bfe:	ee 0f       	add	r30, r30
    1c00:	ff 1f       	adc	r31, r31
    1c02:	e8 57       	subi	r30, 0x78	; 120
    1c04:	f6 4c       	sbci	r31, 0xC6	; 198
    1c06:	20 83       	st	Z, r18
    1c08:	31 83       	std	Z+1, r19	; 0x01
    reactStr[2][number]=type;
    1c0a:	88 0f       	add	r24, r24
    1c0c:	99 1f       	adc	r25, r25
    1c0e:	fc 01       	movw	r30, r24
    1c10:	e8 53       	subi	r30, 0x38	; 56
    1c12:	f6 4c       	sbci	r31, 0xC6	; 198
    1c14:	10 82       	st	Z, r1
    1c16:	11 82       	std	Z+1, r1	; 0x01
    1c18:	37 c5       	rjmp	.+2670   	; 0x2688 <ProcessInput+0xe3e>

                //Look back if not on level 0
                if (currDepth) {
                    PopulateObject(route[currDepth-1], &actObj1);
                    SetResponse(elements++, actObj1.addrStr[NAME], actObj1.lenStr[NAME],GAME);
                } else elements-=1;
    1c1a:	77 24       	eor	r7, r7
    1c1c:	7a 94       	dec	r7
    1c1e:	76 0c       	add	r7, r6
    1c20:	33 c5       	rjmp	.+2662   	; 0x2688 <ProcessInput+0xe3e>

            } else {
                route[currDepth+1] = FindChild(route[currDepth], data[1], 0);
    1c22:	ee 2e       	mov	r14, r30
    1c24:	f1 2c       	mov	r15, r1
    1c26:	f7 01       	movw	r30, r14
    1c28:	ee 0f       	add	r30, r30
    1c2a:	ff 1f       	adc	r31, r31
    1c2c:	e8 5f       	subi	r30, 0xF8	; 248
    1c2e:	f5 4c       	sbci	r31, 0xC5	; 197
    1c30:	40 e0       	ldi	r20, 0x00	; 0
    1c32:	50 e0       	ldi	r21, 0x00	; 0
    1c34:	d8 01       	movw	r26, r16
    1c36:	11 96       	adiw	r26, 0x01	; 1
    1c38:	6c 91       	ld	r22, X
    1c3a:	80 81       	ld	r24, Z
    1c3c:	91 81       	ldd	r25, Z+1	; 0x01
    1c3e:	14 db       	rcall	.-2520   	; 0x1268 <FindChild>
    1c40:	f7 01       	movw	r30, r14
    1c42:	ee 0f       	add	r30, r30
    1c44:	ff 1f       	adc	r31, r31
    1c46:	e6 5f       	subi	r30, 0xF6	; 246
    1c48:	f5 4c       	sbci	r31, 0xC5	; 197
    1c4a:	80 83       	st	Z, r24
    1c4c:	91 83       	std	Z+1, r25	; 0x01
                if (route[currDepth+1]) {
    1c4e:	90 91 8f 38 	lds	r25, 0x388F	; 0x80388f <currDepth>
    1c52:	29 2f       	mov	r18, r25
    1c54:	30 e0       	ldi	r19, 0x00	; 0
    1c56:	f9 01       	movw	r30, r18
    1c58:	ee 0f       	add	r30, r30
    1c5a:	ff 1f       	adc	r31, r31
    1c5c:	e6 5f       	subi	r30, 0xF6	; 246
    1c5e:	f5 4c       	sbci	r31, 0xC5	; 197
    1c60:	40 81       	ld	r20, Z
    1c62:	51 81       	ldd	r21, Z+1	; 0x01
    1c64:	41 15       	cp	r20, r1
    1c66:	51 05       	cpc	r21, r1
    1c68:	21 f0       	breq	.+8      	; 0x1c72 <ProcessInput+0x428>
                    PopulateObject(route[currDepth+1], &actObj1);
    1c6a:	69 e0       	ldi	r22, 0x09	; 9
    1c6c:	79 e3       	ldi	r23, 0x39	; 57
    1c6e:	ca 01       	movw	r24, r20
    1c70:	1c c0       	rjmp	.+56     	; 0x1caa <ProcessInput+0x460>
                    SetResponse(elements++, actObj1.addrStr[DESC], actObj1.lenStr[DESC],GAME);   
                } else if (currDepth) {
    1c72:	99 23       	and	r25, r25
    1c74:	09 f4       	brne	.+2      	; 0x1c78 <ProcessInput+0x42e>
                    if (CheckLetter(route[currDepth-1], data[1])) {
    1c76:	1a c5       	rjmp	.+2612   	; 0x26ac <ProcessInput+0xe62>
    1c78:	22 0f       	add	r18, r18
    1c7a:	33 1f       	adc	r19, r19
    1c7c:	f9 01       	movw	r30, r18
    1c7e:	ea 5f       	subi	r30, 0xFA	; 250
    1c80:	f5 4c       	sbci	r31, 0xC5	; 197
    1c82:	d8 01       	movw	r26, r16
    1c84:	11 96       	adiw	r26, 0x01	; 1
    1c86:	6c 91       	ld	r22, X
    1c88:	80 81       	ld	r24, Z
    1c8a:	91 81       	ldd	r25, Z+1	; 0x01
    1c8c:	99 da       	rcall	.-2766   	; 0x11c0 <CheckLetter>
    1c8e:	88 23       	and	r24, r24
    1c90:	09 f4       	brne	.+2      	; 0x1c94 <ProcessInput+0x44a>
                        PopulateObject(route[currDepth-1], &actObj1);
    1c92:	b7 ce       	rjmp	.-658    	; 0x1a02 <ProcessInput+0x1b8>
    1c94:	e0 91 8f 38 	lds	r30, 0x388F	; 0x80388f <currDepth>
    1c98:	f0 e0       	ldi	r31, 0x00	; 0
    1c9a:	ee 0f       	add	r30, r30
    1c9c:	ff 1f       	adc	r31, r31
    1c9e:	ea 5f       	subi	r30, 0xFA	; 250
    1ca0:	f5 4c       	sbci	r31, 0xC5	; 197
    1ca2:	69 e0       	ldi	r22, 0x09	; 9
    1ca4:	79 e3       	ldi	r23, 0x39	; 57
    1ca6:	80 81       	ld	r24, Z
    1ca8:	91 81       	ldd	r25, Z+1	; 0x01
    1caa:	00 da       	rcall	.-3072   	; 0x10ac <PopulateObject>
                        SetResponse(elements++, actObj1.addrStr[DESC], actObj1.lenStr[DESC],GAME);
    1cac:	80 91 25 39 	lds	r24, 0x3925	; 0x803925 <actObj1.3950+0x1c>
    1cb0:	90 91 26 39 	lds	r25, 0x3926	; 0x803926 <actObj1.3950+0x1d>
    return 0;
}

//
void SetResponse(uint8_t number, uint16_t address, uint16_t length, uint8_t type){
    reactStr[0][number]=address;
    1cb4:	20 91 17 39 	lds	r18, 0x3917	; 0x803917 <actObj1.3950+0xe>
    1cb8:	30 91 18 39 	lds	r19, 0x3918	; 0x803918 <actObj1.3950+0xf>
    1cbc:	d1 c3       	rjmp	.+1954   	; 0x2460 <ProcessInput+0xc16>
                    SetResponse(elements++, A_DONTSEE, L_DONTSEE, TEASER);
                }
            }
        
        //Pick up an object
        } else if (data[0] == 'p') {
    1cbe:	80 37       	cpi	r24, 0x70	; 112
    1cc0:	09 f0       	breq	.+2      	; 0x1cc4 <ProcessInput+0x47a>
    1cc2:	90 c0       	rjmp	.+288    	; 0x1de4 <ProcessInput+0x59a>
            if (inventory[0]&&inventory[1]) {
    1cc4:	80 91 96 38 	lds	r24, 0x3896	; 0x803896 <inventory>
    1cc8:	90 91 97 38 	lds	r25, 0x3897	; 0x803897 <inventory+0x1>
    1ccc:	89 2b       	or	r24, r25
    1cce:	79 f0       	breq	.+30     	; 0x1cee <ProcessInput+0x4a4>
    1cd0:	80 91 98 38 	lds	r24, 0x3898	; 0x803898 <inventory+0x2>
    1cd4:	90 91 99 38 	lds	r25, 0x3899	; 0x803899 <inventory+0x3>
    1cd8:	89 2b       	or	r24, r25
    1cda:	49 f0       	breq	.+18     	; 0x1cee <ProcessInput+0x4a4>
    return 0;
}

//
void SetResponse(uint8_t number, uint16_t address, uint16_t length, uint8_t type){
    reactStr[0][number]=address;
    1cdc:	85 e4       	ldi	r24, 0x45	; 69
    1cde:	98 e7       	ldi	r25, 0x78	; 120
    1ce0:	80 93 48 39 	sts	0x3948, r24	; 0x803948 <reactStr>
    1ce4:	90 93 49 39 	sts	0x3949, r25	; 0x803949 <reactStr+0x1>
    reactStr[1][number]=length;
    1ce8:	89 e5       	ldi	r24, 0x59	; 89
    1cea:	90 e0       	ldi	r25, 0x00	; 0
    1cec:	52 ce       	rjmp	.-860    	; 0x1992 <ProcessInput+0x148>
        
        //Pick up an object
        } else if (data[0] == 'p') {
            if (inventory[0]&&inventory[1]) {
                SetResponse(elements++, A_CARRYTWO, L_CARRYTWO, TEASER);
            } else if (inputLen != 2) {
    1cee:	b2 e0       	ldi	r27, 0x02	; 2
    1cf0:	fb 12       	cpse	r15, r27
    1cf2:	da cd       	rjmp	.-1100   	; 0x18a8 <ProcessInput+0x5e>
                SetResponse(elements++, A_NOTPOSSIBLE, L_NOTPOSSIBLE, TEASER);
            } else {
                route[currDepth+1] = FindChild(route[currDepth], data[1], route[currDepth+1]);
    1cf4:	80 91 8f 38 	lds	r24, 0x388F	; 0x80388f <currDepth>
    1cf8:	90 e0       	ldi	r25, 0x00	; 0
    1cfa:	9c 01       	movw	r18, r24
    1cfc:	22 0f       	add	r18, r18
    1cfe:	33 1f       	adc	r19, r19
    1d00:	f9 01       	movw	r30, r18
    1d02:	e6 5f       	subi	r30, 0xF6	; 246
    1d04:	f5 4c       	sbci	r31, 0xC5	; 197
    1d06:	7f 01       	movw	r14, r30
    1d08:	40 81       	ld	r20, Z
    1d0a:	51 81       	ldd	r21, Z+1	; 0x01
    1d0c:	f9 01       	movw	r30, r18
    1d0e:	e8 5f       	subi	r30, 0xF8	; 248
    1d10:	f5 4c       	sbci	r31, 0xC5	; 197
    1d12:	d8 01       	movw	r26, r16
    1d14:	11 96       	adiw	r26, 0x01	; 1
    1d16:	6c 91       	ld	r22, X
    1d18:	80 81       	ld	r24, Z
    1d1a:	91 81       	ldd	r25, Z+1	; 0x01
    1d1c:	a5 da       	rcall	.-2742   	; 0x1268 <FindChild>
    1d1e:	f7 01       	movw	r30, r14
    1d20:	80 83       	st	Z, r24
    1d22:	91 83       	std	Z+1, r25	; 0x01
                if (route[currDepth+1]) {
    1d24:	20 91 8f 38 	lds	r18, 0x388F	; 0x80388f <currDepth>
    1d28:	30 e0       	ldi	r19, 0x00	; 0
    1d2a:	2f 5f       	subi	r18, 0xFF	; 255
    1d2c:	3f 4f       	sbci	r19, 0xFF	; 255
    1d2e:	22 0f       	add	r18, r18
    1d30:	33 1f       	adc	r19, r19
    1d32:	f9 01       	movw	r30, r18
    1d34:	e8 5f       	subi	r30, 0xF8	; 248
    1d36:	f5 4c       	sbci	r31, 0xC5	; 197
    1d38:	80 81       	ld	r24, Z
    1d3a:	91 81       	ldd	r25, Z+1	; 0x01
    1d3c:	00 97       	sbiw	r24, 0x00	; 0
    1d3e:	09 f4       	brne	.+2      	; 0x1d42 <ProcessInput+0x4f8>
    1d40:	a5 c3       	rjmp	.+1866   	; 0x248c <ProcessInput+0xc42>
                    if ((route[currDepth+1] == inventory[0])||(route[currDepth+1] == inventory[1])) {
    1d42:	40 91 96 38 	lds	r20, 0x3896	; 0x803896 <inventory>
    1d46:	50 91 97 38 	lds	r21, 0x3897	; 0x803897 <inventory+0x1>
    1d4a:	84 17       	cp	r24, r20
    1d4c:	95 07       	cpc	r25, r21
    1d4e:	39 f0       	breq	.+14     	; 0x1d5e <ProcessInput+0x514>
    1d50:	40 91 98 38 	lds	r20, 0x3898	; 0x803898 <inventory+0x2>
    1d54:	50 91 99 38 	lds	r21, 0x3899	; 0x803899 <inventory+0x3>
    1d58:	84 17       	cp	r24, r20
    1d5a:	95 07       	cpc	r25, r21
    1d5c:	c1 f4       	brne	.+48     	; 0x1d8e <ProcessInput+0x544>
    return 0;
}

//
void SetResponse(uint8_t number, uint16_t address, uint16_t length, uint8_t type){
    reactStr[0][number]=address;
    1d5e:	80 e2       	ldi	r24, 0x20	; 32
    1d60:	98 e7       	ldi	r25, 0x78	; 120
    1d62:	80 93 48 39 	sts	0x3948, r24	; 0x803948 <reactStr>
    1d66:	90 93 49 39 	sts	0x3949, r25	; 0x803949 <reactStr+0x1>
    reactStr[1][number]=length;
    1d6a:	85 e2       	ldi	r24, 0x25	; 37
    1d6c:	90 e0       	ldi	r25, 0x00	; 0
    1d6e:	80 93 88 39 	sts	0x3988, r24	; 0x803988 <reactStr+0x40>
    1d72:	90 93 89 39 	sts	0x3989, r25	; 0x803989 <reactStr+0x41>
    reactStr[2][number]=type;
    1d76:	81 e0       	ldi	r24, 0x01	; 1
    1d78:	90 e0       	ldi	r25, 0x00	; 0
    1d7a:	80 93 c8 39 	sts	0x39C8, r24	; 0x8039c8 <reactStr+0x80>
    1d7e:	90 93 c9 39 	sts	0x39C9, r25	; 0x8039c9 <reactStr+0x81>
            } else {
                route[currDepth+1] = FindChild(route[currDepth], data[1], route[currDepth+1]);
                if (route[currDepth+1]) {
                    if ((route[currDepth+1] == inventory[0])||(route[currDepth+1] == inventory[1])) {
                        SetResponse(elements++, A_ALREADYCARRYING, L_ALREADYCARRYING, TEASER);
                        route[currDepth+1] = 0;
    1d82:	f9 01       	movw	r30, r18
    1d84:	e8 5f       	subi	r30, 0xF8	; 248
    1d86:	f5 4c       	sbci	r31, 0xC5	; 197
    1d88:	10 82       	st	Z, r1
    1d8a:	11 82       	std	Z+1, r1	; 0x01
                    } else {
                        //Put item in the inventory if possible
                        PopulateObject(route[currDepth+1], &actObj1);                      
    1d8c:	0c ce       	rjmp	.-1000   	; 0x19a6 <ProcessInput+0x15c>
    1d8e:	69 e0       	ldi	r22, 0x09	; 9
    1d90:	79 e3       	ldi	r23, 0x39	; 57
    1d92:	8c d9       	rcall	.-3304   	; 0x10ac <PopulateObject>
                        if (actObj1.byteField[ITEM_NR]) {
    1d94:	80 91 14 39 	lds	r24, 0x3914	; 0x803914 <actObj1.3950+0xb>
    1d98:	88 23       	and	r24, r24
    1d9a:	09 f4       	brne	.+2      	; 0x1d9e <ProcessInput+0x554>
    1d9c:	85 cd       	rjmp	.-1270   	; 0x18a8 <ProcessInput+0x5e>
                            if (inventory[0]) {
    1d9e:	80 91 96 38 	lds	r24, 0x3896	; 0x803896 <inventory>
    1da2:	90 91 97 38 	lds	r25, 0x3897	; 0x803897 <inventory+0x1>
    1da6:	e0 91 8f 38 	lds	r30, 0x388F	; 0x80388f <currDepth>
                                inventory[1] = route[currDepth+1];
    1daa:	f0 e0       	ldi	r31, 0x00	; 0
    1dac:	ee 0f       	add	r30, r30
    1dae:	ff 1f       	adc	r31, r31
    1db0:	e6 5f       	subi	r30, 0xF6	; 246
    1db2:	f5 4c       	sbci	r31, 0xC5	; 197
                        route[currDepth+1] = 0;
                    } else {
                        //Put item in the inventory if possible
                        PopulateObject(route[currDepth+1], &actObj1);                      
                        if (actObj1.byteField[ITEM_NR]) {
                            if (inventory[0]) {
    1db4:	89 2b       	or	r24, r25
    1db6:	39 f0       	breq	.+14     	; 0x1dc6 <ProcessInput+0x57c>
                                inventory[1] = route[currDepth+1];
    1db8:	80 81       	ld	r24, Z
    1dba:	91 81       	ldd	r25, Z+1	; 0x01
    1dbc:	80 93 98 38 	sts	0x3898, r24	; 0x803898 <inventory+0x2>
    1dc0:	90 93 99 38 	sts	0x3899, r25	; 0x803899 <inventory+0x3>
    1dc4:	06 c0       	rjmp	.+12     	; 0x1dd2 <ProcessInput+0x588>
                            } else {
                                inventory[0] = route[currDepth+1];
    1dc6:	80 81       	ld	r24, Z
    1dc8:	91 81       	ldd	r25, Z+1	; 0x01
    1dca:	80 93 96 38 	sts	0x3896, r24	; 0x803896 <inventory>
    1dce:	90 93 97 38 	sts	0x3897, r25	; 0x803897 <inventory+0x1>
    return 0;
}

//
void SetResponse(uint8_t number, uint16_t address, uint16_t length, uint8_t type){
    reactStr[0][number]=address;
    1dd2:	8a e0       	ldi	r24, 0x0A	; 10
    1dd4:	98 e7       	ldi	r25, 0x78	; 120
    1dd6:	80 93 48 39 	sts	0x3948, r24	; 0x803948 <reactStr>
    1dda:	90 93 49 39 	sts	0x3949, r25	; 0x803949 <reactStr+0x1>
    reactStr[1][number]=length;
    1dde:	86 e1       	ldi	r24, 0x16	; 22
    1de0:	90 e0       	ldi	r25, 0x00	; 0
    1de2:	50 c2       	rjmp	.+1184   	; 0x2284 <ProcessInput+0xa3a>
                } else SetResponse(elements++, A_NOSUCHOBJECT, L_NOSUCHOBJECT, TEASER);
            }
        } else

        //Drop item if in inventory
        if (data[0] == 'd') {
    1de4:	84 36       	cpi	r24, 0x64	; 100
    1de6:	d9 f4       	brne	.+54     	; 0x1e1e <ProcessInput+0x5d4>
            if ((inventory[0] == 0)&&(inventory[1] == 0)){
    1de8:	80 91 96 38 	lds	r24, 0x3896	; 0x803896 <inventory>
    1dec:	90 91 97 38 	lds	r25, 0x3897	; 0x803897 <inventory+0x1>
    1df0:	00 97       	sbiw	r24, 0x00	; 0
    1df2:	09 f0       	breq	.+2      	; 0x1df6 <ProcessInput+0x5ac>
    1df4:	5e c4       	rjmp	.+2236   	; 0x26b2 <ProcessInput+0xe68>
    1df6:	80 91 98 38 	lds	r24, 0x3898	; 0x803898 <inventory+0x2>
    1dfa:	90 91 99 38 	lds	r25, 0x3899	; 0x803899 <inventory+0x3>
    1dfe:	89 2b       	or	r24, r25
    1e00:	49 f4       	brne	.+18     	; 0x1e14 <ProcessInput+0x5ca>
    return 0;
}

//
void SetResponse(uint8_t number, uint16_t address, uint16_t length, uint8_t type){
    reactStr[0][number]=address;
    1e02:	84 ee       	ldi	r24, 0xE4	; 228
    1e04:	97 e7       	ldi	r25, 0x77	; 119
    1e06:	80 93 48 39 	sts	0x3948, r24	; 0x803948 <reactStr>
    1e0a:	90 93 49 39 	sts	0x3949, r25	; 0x803949 <reactStr+0x1>
    reactStr[1][number]=length;
    1e0e:	86 e2       	ldi	r24, 0x26	; 38
    1e10:	90 e0       	ldi	r25, 0x00	; 0
    1e12:	bf cd       	rjmp	.-1154   	; 0x1992 <ProcessInput+0x148>

        //Drop item if in inventory
        if (data[0] == 'd') {
            if ((inventory[0] == 0)&&(inventory[1] == 0)){
                SetResponse(elements++, A_EMPTYHANDS, L_EMPTYHANDS, TEASER);
            } else if (inputLen != 2) {
    1e14:	f2 e0       	ldi	r31, 0x02	; 2
    1e16:	ff 16       	cp	r15, r31
    1e18:	09 f4       	brne	.+2      	; 0x1e1c <ProcessInput+0x5d2>
    1e1a:	af c4       	rjmp	.+2398   	; 0x277a <ProcessInput+0xf30>
    1e1c:	45 cd       	rjmp	.-1398   	; 0x18a8 <ProcessInput+0x5e>
                    if (x) SetResponse(elements++, A_NOTCARRYING, L_NOTCARRYING, TEASER);
                }
            }

        //Inventory list
        } else if (data[0] == 'i') {
    1e1e:	89 36       	cpi	r24, 0x69	; 105
    1e20:	09 f0       	breq	.+2      	; 0x1e24 <ProcessInput+0x5da>
    1e22:	7a c0       	rjmp	.+244    	; 0x1f18 <ProcessInput+0x6ce>
            if ((inventory[0] == 0)&&(inventory[1] == 0)){
    1e24:	80 91 96 38 	lds	r24, 0x3896	; 0x803896 <inventory>
    1e28:	90 91 97 38 	lds	r25, 0x3897	; 0x803897 <inventory+0x1>
    1e2c:	89 2b       	or	r24, r25
    1e2e:	31 f4       	brne	.+12     	; 0x1e3c <ProcessInput+0x5f2>
    1e30:	80 91 98 38 	lds	r24, 0x3898	; 0x803898 <inventory+0x2>
    1e34:	90 91 99 38 	lds	r25, 0x3899	; 0x803899 <inventory+0x3>
    1e38:	89 2b       	or	r24, r25
    1e3a:	19 f3       	breq	.-58     	; 0x1e02 <ProcessInput+0x5b8>
    return 0;
}

//
void SetResponse(uint8_t number, uint16_t address, uint16_t length, uint8_t type){
    reactStr[0][number]=address;
    1e3c:	8a e0       	ldi	r24, 0x0A	; 10
    1e3e:	98 e7       	ldi	r25, 0x78	; 120
    1e40:	80 93 48 39 	sts	0x3948, r24	; 0x803948 <reactStr>
    1e44:	90 93 49 39 	sts	0x3949, r25	; 0x803949 <reactStr+0x1>
    reactStr[1][number]=length;
    1e48:	86 e1       	ldi	r24, 0x16	; 22
    1e4a:	90 e0       	ldi	r25, 0x00	; 0
    1e4c:	80 93 88 39 	sts	0x3988, r24	; 0x803988 <reactStr+0x40>
    1e50:	90 93 89 39 	sts	0x3989, r25	; 0x803989 <reactStr+0x41>
    reactStr[2][number]=type;
    1e54:	81 e0       	ldi	r24, 0x01	; 1
    1e56:	90 e0       	ldi	r25, 0x00	; 0
    1e58:	80 93 c8 39 	sts	0x39C8, r24	; 0x8039c8 <reactStr+0x80>
    1e5c:	90 93 c9 39 	sts	0x39C9, r25	; 0x8039c9 <reactStr+0x81>
    1e60:	26 e9       	ldi	r18, 0x96	; 150
    1e62:	e2 2e       	mov	r14, r18
    1e64:	28 e3       	ldi	r18, 0x38	; 56
    1e66:	f2 2e       	mov	r15, r18
    1e68:	3a e9       	ldi	r19, 0x9A	; 154
    1e6a:	63 2e       	mov	r6, r19
    1e6c:	38 e3       	ldi	r19, 0x38	; 56
    1e6e:	73 2e       	mov	r7, r19
        //Inventory list
        } else if (data[0] == 'i') {
            if ((inventory[0] == 0)&&(inventory[1] == 0)){
                SetResponse(elements++, A_EMPTYHANDS, L_EMPTYHANDS, TEASER);
            } else {
                SetResponse(elements++, A_NOWCARRING, L_NOWCARRING, TEASER);
    1e70:	55 24       	eor	r5, r5
    1e72:	53 94       	inc	r5
    return 0;
}

//
void SetResponse(uint8_t number, uint16_t address, uint16_t length, uint8_t type){
    reactStr[0][number]=address;
    1e74:	49 e5       	ldi	r20, 0x59	; 89
    1e76:	c4 2e       	mov	r12, r20
    1e78:	4a e7       	ldi	r20, 0x7A	; 122
    reactStr[1][number]=length;
    1e7a:	d4 2e       	mov	r13, r20
    1e7c:	52 e0       	ldi	r21, 0x02	; 2
    1e7e:	a5 2e       	mov	r10, r21
    reactStr[2][number]=type;
    1e80:	b1 2c       	mov	r11, r1
    1e82:	88 24       	eor	r8, r8
    1e84:	83 94       	inc	r8
            } else {
                SetResponse(elements++, A_NOWCARRING, L_NOWCARRING, TEASER);
                //SetResponse(elements++, A_SPACE, L_SPACE, TEASER);
                
                for (uint8_t x=0; x<2; ++x) {
                    if (inventory[x]) {
    1e86:	91 2c       	mov	r9, r1
    1e88:	f7 01       	movw	r30, r14
    1e8a:	81 91       	ld	r24, Z+
    1e8c:	91 91       	ld	r25, Z+
    1e8e:	7f 01       	movw	r14, r30
    1e90:	00 97       	sbiw	r24, 0x00	; 0
                        PopulateObject(inventory[x], &actObj1);
    1e92:	d1 f1       	breq	.+116    	; 0x1f08 <ProcessInput+0x6be>
    1e94:	69 e0       	ldi	r22, 0x09	; 9
    1e96:	79 e3       	ldi	r23, 0x39	; 57
    1e98:	09 d9       	rcall	.-3566   	; 0x10ac <PopulateObject>
                        SetResponse(elements++, actObj1.addrStr[NAME], actObj1.lenStr[NAME], GAME);
    1e9a:	80 91 23 39 	lds	r24, 0x3923	; 0x803923 <actObj1.3950+0x1a>
    1e9e:	90 91 24 39 	lds	r25, 0x3924	; 0x803924 <actObj1.3950+0x1b>
    return 0;
}

//
void SetResponse(uint8_t number, uint16_t address, uint16_t length, uint8_t type){
    reactStr[0][number]=address;
    1ea2:	e5 2d       	mov	r30, r5
    1ea4:	f0 e0       	ldi	r31, 0x00	; 0
    1ea6:	df 01       	movw	r26, r30
    1ea8:	aa 0f       	add	r26, r26
    1eaa:	bb 1f       	adc	r27, r27
    1eac:	a8 5b       	subi	r26, 0xB8	; 184
    1eae:	b6 4c       	sbci	r27, 0xC6	; 198
    1eb0:	20 91 15 39 	lds	r18, 0x3915	; 0x803915 <actObj1.3950+0xc>
    1eb4:	30 91 16 39 	lds	r19, 0x3916	; 0x803916 <actObj1.3950+0xd>
    1eb8:	2d 93       	st	X+, r18
    1eba:	3c 93       	st	X, r19
    reactStr[1][number]=length;
    1ebc:	df 01       	movw	r26, r30
    1ebe:	aa 0f       	add	r26, r26
    1ec0:	bb 1f       	adc	r27, r27
    1ec2:	a8 57       	subi	r26, 0x78	; 120
    1ec4:	b6 4c       	sbci	r27, 0xC6	; 198
    1ec6:	8d 93       	st	X+, r24
    1ec8:	9c 93       	st	X, r25
    reactStr[2][number]=type;
    1eca:	ee 0f       	add	r30, r30
    1ecc:	ff 1f       	adc	r31, r31
    1ece:	e8 53       	subi	r30, 0x38	; 56
    1ed0:	f6 4c       	sbci	r31, 0xC6	; 198
    1ed2:	10 82       	st	Z, r1
    1ed4:	11 82       	std	Z+1, r1	; 0x01
    return 0;
}

//
void SetResponse(uint8_t number, uint16_t address, uint16_t length, uint8_t type){
    reactStr[0][number]=address;
    1ed6:	e1 e0       	ldi	r30, 0x01	; 1
    1ed8:	e5 0d       	add	r30, r5
    1eda:	f0 e0       	ldi	r31, 0x00	; 0
    1edc:	53 94       	inc	r5
    1ede:	53 94       	inc	r5
    1ee0:	df 01       	movw	r26, r30
    1ee2:	aa 0f       	add	r26, r26
    1ee4:	bb 1f       	adc	r27, r27
    1ee6:	a8 5b       	subi	r26, 0xB8	; 184
    1ee8:	b6 4c       	sbci	r27, 0xC6	; 198
    1eea:	cd 92       	st	X+, r12
    1eec:	dc 92       	st	X, r13
    reactStr[1][number]=length;
    1eee:	df 01       	movw	r26, r30
    1ef0:	aa 0f       	add	r26, r26
    1ef2:	bb 1f       	adc	r27, r27
    1ef4:	a8 57       	subi	r26, 0x78	; 120
    1ef6:	b6 4c       	sbci	r27, 0xC6	; 198
    1ef8:	ad 92       	st	X+, r10
    1efa:	bc 92       	st	X, r11
    reactStr[2][number]=type;
    1efc:	ee 0f       	add	r30, r30
    1efe:	ff 1f       	adc	r31, r31
    1f00:	e8 53       	subi	r30, 0x38	; 56
    1f02:	f6 4c       	sbci	r31, 0xC6	; 198
    1f04:	80 82       	st	Z, r8
    1f06:	91 82       	std	Z+1, r9	; 0x01
                SetResponse(elements++, A_EMPTYHANDS, L_EMPTYHANDS, TEASER);
            } else {
                SetResponse(elements++, A_NOWCARRING, L_NOWCARRING, TEASER);
                //SetResponse(elements++, A_SPACE, L_SPACE, TEASER);
                
                for (uint8_t x=0; x<2; ++x) {
    1f08:	6e 14       	cp	r6, r14
    1f0a:	7f 04       	cpc	r7, r15
    1f0c:	09 f0       	breq	.+2      	; 0x1f10 <ProcessInput+0x6c6>
    1f0e:	bc cf       	rjmp	.-136    	; 0x1e88 <ProcessInput+0x63e>
                        SetResponse(elements++, actObj1.addrStr[NAME], actObj1.lenStr[NAME], GAME);
                        SetResponse(elements++, A_COMMA, L_COMMA, TEASER);
                        //SetResponse(elements++, A_SPACE, L_SPACE, TEASER);
                    }
                }
                elements -= 1;
    1f10:	77 24       	eor	r7, r7
    1f12:	7a 94       	dec	r7
    1f14:	75 0c       	add	r7, r5
    1f16:	b8 c3       	rjmp	.+1904   	; 0x2688 <ProcessInput+0xe3e>
            }            
        
        //Talk, use, give, read
        } else if ((data[0] == 't')||(data[0] == 'u')||(data[0] == 'g')||(data[0] == 'r')) {
    1f18:	9c e8       	ldi	r25, 0x8C	; 140
    1f1a:	98 0f       	add	r25, r24
    1f1c:	92 30       	cpi	r25, 0x02	; 2
    1f1e:	28 f0       	brcs	.+10     	; 0x1f2a <ProcessInput+0x6e0>
    1f20:	87 36       	cpi	r24, 0x67	; 103
    1f22:	19 f0       	breq	.+6      	; 0x1f2a <ProcessInput+0x6e0>
    1f24:	82 37       	cpi	r24, 0x72	; 114
    1f26:	09 f0       	breq	.+2      	; 0x1f2a <ProcessInput+0x6e0>
    1f28:	ba c2       	rjmp	.+1396   	; 0x249e <ProcessInput+0xc54>
            if ((inputLen<2)||(inputLen>3)) {
    1f2a:	8e ef       	ldi	r24, 0xFE	; 254
    1f2c:	8f 0d       	add	r24, r15
    1f2e:	82 30       	cpi	r24, 0x02	; 2
    1f30:	08 f0       	brcs	.+2      	; 0x1f34 <ProcessInput+0x6ea>
    1f32:	ba cc       	rjmp	.-1676   	; 0x18a8 <ProcessInput+0x5e>
                SetResponse(elements++, A_NOTPOSSIBLE, L_NOTPOSSIBLE, TEASER);                
            
            //Check for visible person or object first
            } else {
                route[currDepth+1] = FindChild(route[currDepth], data[inputLen-1], 0);
    1f34:	e0 91 8f 38 	lds	r30, 0x388F	; 0x80388f <currDepth>
    1f38:	ce 2e       	mov	r12, r30
    1f3a:	d1 2c       	mov	r13, r1
    1f3c:	d8 01       	movw	r26, r16
    1f3e:	af 0d       	add	r26, r15
    1f40:	b1 1d       	adc	r27, r1
    1f42:	11 97       	sbiw	r26, 0x01	; 1
    1f44:	f6 01       	movw	r30, r12
    1f46:	ee 0f       	add	r30, r30
    1f48:	ff 1f       	adc	r31, r31
    1f4a:	e8 5f       	subi	r30, 0xF8	; 248
    1f4c:	f5 4c       	sbci	r31, 0xC5	; 197
    1f4e:	40 e0       	ldi	r20, 0x00	; 0
    1f50:	50 e0       	ldi	r21, 0x00	; 0
    1f52:	6c 91       	ld	r22, X
    1f54:	80 81       	ld	r24, Z
    1f56:	91 81       	ldd	r25, Z+1	; 0x01
    1f58:	87 d9       	rcall	.-3314   	; 0x1268 <FindChild>
    1f5a:	f6 01       	movw	r30, r12
    1f5c:	ee 0f       	add	r30, r30
    1f5e:	ff 1f       	adc	r31, r31
    1f60:	e6 5f       	subi	r30, 0xF6	; 246
    1f62:	f5 4c       	sbci	r31, 0xC5	; 197
    1f64:	80 83       	st	Z, r24
    1f66:	91 83       	std	Z+1, r25	; 0x01
                if (route[currDepth+1]) {
    1f68:	e0 91 8f 38 	lds	r30, 0x388F	; 0x80388f <currDepth>
    1f6c:	f0 e0       	ldi	r31, 0x00	; 0
    1f6e:	ee 0f       	add	r30, r30
    1f70:	ff 1f       	adc	r31, r31
    1f72:	e6 5f       	subi	r30, 0xF6	; 246
    1f74:	f5 4c       	sbci	r31, 0xC5	; 197
    1f76:	80 81       	ld	r24, Z
    1f78:	91 81       	ldd	r25, Z+1	; 0x01
    1f7a:	00 97       	sbiw	r24, 0x00	; 0
    1f7c:	09 f4       	brne	.+2      	; 0x1f80 <ProcessInput+0x736>
    1f7e:	7d c2       	rjmp	.+1274   	; 0x247a <ProcessInput+0xc30>
                    
                    //Give item to person / use item on object 
                    if ((inputLen == 3)&&((data[0] == 'u')||(data[0] == 'g'))) {
    1f80:	f3 e0       	ldi	r31, 0x03	; 3
    1f82:	ff 12       	cpse	r15, r31
    1f84:	6a c1       	rjmp	.+724    	; 0x225a <ProcessInput+0xa10>
    1f86:	d8 01       	movw	r26, r16
    1f88:	2c 91       	ld	r18, X
    1f8a:	25 37       	cpi	r18, 0x75	; 117
    1f8c:	19 f0       	breq	.+6      	; 0x1f94 <ProcessInput+0x74a>
    1f8e:	27 36       	cpi	r18, 0x67	; 103
    1f90:	09 f0       	breq	.+2      	; 0x1f94 <ProcessInput+0x74a>
    1f92:	63 c1       	rjmp	.+710    	; 0x225a <ProcessInput+0xa10>
    1f94:	61 2c       	mov	r6, r1
    1f96:	71 2c       	mov	r7, r1
    return 0;
}

//
void SetResponse(uint8_t number, uint16_t address, uint16_t length, uint8_t type){
    reactStr[0][number]=address;
    1f98:	54 e6       	ldi	r21, 0x64	; 100
    1f9a:	c5 2e       	mov	r12, r21
    1f9c:	59 e7       	ldi	r21, 0x79	; 121
    1f9e:	d5 2e       	mov	r13, r21
    reactStr[1][number]=length;
    1fa0:	61 e2       	ldi	r22, 0x21	; 33
    1fa2:	a6 2e       	mov	r10, r22
    1fa4:	b1 2c       	mov	r11, r1
    reactStr[2][number]=type;
    1fa6:	88 24       	eor	r8, r8
    1fa8:	83 94       	inc	r8
                if (route[currDepth+1]) {
                    
                    //Give item to person / use item on object 
                    if ((inputLen == 3)&&((data[0] == 'u')||(data[0] == 'g'))) {
                        for (uint8_t x=0; x<2; x++) {
                            if (inventory[x]) { 
    1faa:	91 2c       	mov	r9, r1
    1fac:	e6 2c       	mov	r14, r6
    1fae:	f1 2c       	mov	r15, r1
    1fb0:	c7 01       	movw	r24, r14
    1fb2:	88 0f       	add	r24, r24
    1fb4:	99 1f       	adc	r25, r25
    1fb6:	fc 01       	movw	r30, r24
    1fb8:	ea 56       	subi	r30, 0x6A	; 106
    1fba:	f7 4c       	sbci	r31, 0xC7	; 199
    1fbc:	7f 01       	movw	r14, r30
    1fbe:	80 81       	ld	r24, Z
    1fc0:	91 81       	ldd	r25, Z+1	; 0x01
                                if (CheckLetter(inventory[x], data[1])) {
    1fc2:	00 97       	sbiw	r24, 0x00	; 0
    1fc4:	79 f0       	breq	.+30     	; 0x1fe4 <ProcessInput+0x79a>
    1fc6:	d8 01       	movw	r26, r16
    1fc8:	11 96       	adiw	r26, 0x01	; 1
    1fca:	6c 91       	ld	r22, X
    1fcc:	f9 d8       	rcall	.-3598   	; 0x11c0 <CheckLetter>
    1fce:	88 23       	and	r24, r24
                                    PopulateObject(inventory[x], &actObj2);
    1fd0:	49 f0       	breq	.+18     	; 0x1fe4 <ProcessInput+0x79a>
    1fd2:	6e ed       	ldi	r22, 0xDE	; 222
    1fd4:	78 e3       	ldi	r23, 0x38	; 56
    1fd6:	f7 01       	movw	r30, r14
    1fd8:	80 81       	ld	r24, Z
    1fda:	91 81       	ldd	r25, Z+1	; 0x01
    1fdc:	67 d8       	rcall	.-3890   	; 0x10ac <PopulateObject>
                                    x = 2;
    1fde:	32 e0       	ldi	r19, 0x02	; 2
    1fe0:	63 2e       	mov	r6, r19
    1fe2:	1e c0       	rjmp	.+60     	; 0x2020 <ProcessInput+0x7d6>
                                }
                            }
                            if (x == 1) { 
    1fe4:	f1 e0       	ldi	r31, 0x01	; 1
    1fe6:	6f 12       	cpse	r6, r31
    1fe8:	1a c0       	rjmp	.+52     	; 0x201e <ProcessInput+0x7d4>
    return 0;
}

//
void SetResponse(uint8_t number, uint16_t address, uint16_t length, uint8_t type){
    reactStr[0][number]=address;
    1fea:	e7 2d       	mov	r30, r7
    1fec:	f0 e0       	ldi	r31, 0x00	; 0
    1fee:	df 01       	movw	r26, r30
    1ff0:	aa 0f       	add	r26, r26
    1ff2:	bb 1f       	adc	r27, r27
    1ff4:	a8 5b       	subi	r26, 0xB8	; 184
    1ff6:	b6 4c       	sbci	r27, 0xC6	; 198
    1ff8:	cd 92       	st	X+, r12
    1ffa:	dc 92       	st	X, r13
    reactStr[1][number]=length;
    1ffc:	df 01       	movw	r26, r30
    1ffe:	aa 0f       	add	r26, r26
    2000:	bb 1f       	adc	r27, r27
    2002:	a8 57       	subi	r26, 0x78	; 120
    2004:	b6 4c       	sbci	r27, 0xC6	; 198
    2006:	ad 92       	st	X+, r10
    2008:	bc 92       	st	X, r11
    reactStr[2][number]=type;
    200a:	ee 0f       	add	r30, r30
    200c:	ff 1f       	adc	r31, r31
    200e:	e8 53       	subi	r30, 0x38	; 56
    2010:	f6 4c       	sbci	r31, 0xC6	; 198
    2012:	80 82       	st	Z, r8
    2014:	91 82       	std	Z+1, r9	; 0x01
                                    x = 2;
                                }
                            }
                            if (x == 1) { 
                                SetResponse(elements++, A_NOTCARRYING, L_NOTCARRYING, TEASER);
                                data[0] = 0;
    2016:	d8 01       	movw	r26, r16
    2018:	1c 92       	st	X, r1
                                    PopulateObject(inventory[x], &actObj2);
                                    x = 2;
                                }
                            }
                            if (x == 1) { 
                                SetResponse(elements++, A_NOTCARRYING, L_NOTCARRYING, TEASER);
    201a:	73 94       	inc	r7
    201c:	01 c0       	rjmp	.+2      	; 0x2020 <ProcessInput+0x7d6>
    201e:	61 2c       	mov	r6, r1
                route[currDepth+1] = FindChild(route[currDepth], data[inputLen-1], 0);
                if (route[currDepth+1]) {
                    
                    //Give item to person / use item on object 
                    if ((inputLen == 3)&&((data[0] == 'u')||(data[0] == 'g'))) {
                        for (uint8_t x=0; x<2; x++) {
    2020:	63 94       	inc	r6
    2022:	b1 e0       	ldi	r27, 0x01	; 1
    2024:	6b 16       	cp	r6, r27
    2026:	09 f4       	brne	.+2      	; 0x202a <ProcessInput+0x7e0>
                                data[0] = 0;
                            }
                        }

                        //Both the item and person/object are found, check if action is legit
                        if (data[0]){
    2028:	c1 cf       	rjmp	.-126    	; 0x1fac <ProcessInput+0x762>
    202a:	f8 01       	movw	r30, r16
    202c:	80 81       	ld	r24, Z
    202e:	88 23       	and	r24, r24
    2030:	09 f4       	brne	.+2      	; 0x2034 <ProcessInput+0x7ea>
                            PopulateObject(route[currDepth+1], &actObj1);
    2032:	2a c3       	rjmp	.+1620   	; 0x2688 <ProcessInput+0xe3e>
    2034:	e0 91 8f 38 	lds	r30, 0x388F	; 0x80388f <currDepth>
    2038:	f0 e0       	ldi	r31, 0x00	; 0
    203a:	ee 0f       	add	r30, r30
    203c:	ff 1f       	adc	r31, r31
    203e:	e6 5f       	subi	r30, 0xF6	; 246
    2040:	f5 4c       	sbci	r31, 0xC5	; 197
    2042:	69 e0       	ldi	r22, 0x09	; 9
    2044:	79 e3       	ldi	r23, 0x39	; 57
    2046:	80 81       	ld	r24, Z
    2048:	91 81       	ldd	r25, Z+1	; 0x01
    204a:	30 d8       	rcall	.-4000   	; 0x10ac <PopulateObject>

                            //Special game
                            if (actObj1.lenStr[ACTION_STR1] == 1) {
    204c:	e0 90 27 39 	lds	r14, 0x3927	; 0x803927 <actObj1.3950+0x1e>
    2050:	f0 90 28 39 	lds	r15, 0x3928	; 0x803928 <actObj1.3950+0x1f>
    2054:	f1 e0       	ldi	r31, 0x01	; 1
    2056:	ef 16       	cp	r14, r31
    2058:	f1 04       	cpc	r15, r1
    205a:	09 f0       	breq	.+2      	; 0x205e <ProcessInput+0x814>
    205c:	9b c0       	rjmp	.+310    	; 0x2194 <ProcessInput+0x94a>
                                ExtEERead(actObj1.addrStr[ACTION_STR1], 1, GAME, &data[2]);
    205e:	98 01       	movw	r18, r16
    2060:	2e 5f       	subi	r18, 0xFE	; 254
    2062:	3f 4f       	sbci	r19, 0xFF	; 255
    2064:	40 e0       	ldi	r20, 0x00	; 0
    2066:	61 e0       	ldi	r22, 0x01	; 1
    2068:	80 91 19 39 	lds	r24, 0x3919	; 0x803919 <actObj1.3950+0x10>
    206c:	90 91 1a 39 	lds	r25, 0x391A	; 0x80391a <actObj1.3950+0x11>
    2070:	0e 94 4c 07 	call	0xe98	; 0xe98 <ExtEERead>
                                if (data[2] == '1') {
    2074:	d8 01       	movw	r26, r16
    2076:	12 96       	adiw	r26, 0x02	; 2
    2078:	4c 91       	ld	r20, X
    207a:	21 e0       	ldi	r18, 0x01	; 1
    207c:	27 0d       	add	r18, r7
    207e:	87 2d       	mov	r24, r7
    2080:	90 e0       	ldi	r25, 0x00	; 0
    2082:	41 33       	cpi	r20, 0x31	; 49
    2084:	09 f0       	breq	.+2      	; 0x2088 <ProcessInput+0x83e>
    2086:	6b c0       	rjmp	.+214    	; 0x215e <ProcessInput+0x914>
                                    uint8_t item = actObj2.byteField[ITEM_NR];
    2088:	30 91 e9 38 	lds	r19, 0x38E9	; 0x8038e9 <actObj2.3951+0xb>
                                    if ((item < 31)||(item > 34)) {
    208c:	51 ee       	ldi	r21, 0xE1	; 225
    208e:	53 0f       	add	r21, r19
    return 0;
}

//
void SetResponse(uint8_t number, uint16_t address, uint16_t length, uint8_t type){
    reactStr[0][number]=address;
    2090:	fc 01       	movw	r30, r24
    2092:	ee 0f       	add	r30, r30
    2094:	ff 1f       	adc	r31, r31
    2096:	e8 5b       	subi	r30, 0xB8	; 184
    2098:	f6 4c       	sbci	r31, 0xC6	; 198
                            //Special game
                            if (actObj1.lenStr[ACTION_STR1] == 1) {
                                ExtEERead(actObj1.addrStr[ACTION_STR1], 1, GAME, &data[2]);
                                if (data[2] == '1') {
                                    uint8_t item = actObj2.byteField[ITEM_NR];
                                    if ((item < 31)||(item > 34)) {
    209a:	54 30       	cpi	r21, 0x04	; 4
    209c:	60 f0       	brcs	.+24     	; 0x20b6 <ProcessInput+0x86c>
    return 0;
}

//
void SetResponse(uint8_t number, uint16_t address, uint16_t length, uint8_t type){
    reactStr[0][number]=address;
    209e:	44 e0       	ldi	r20, 0x04	; 4
    20a0:	59 e7       	ldi	r21, 0x79	; 121
    20a2:	40 83       	st	Z, r20
    20a4:	51 83       	std	Z+1, r21	; 0x01
    reactStr[1][number]=length;
    20a6:	fc 01       	movw	r30, r24
    20a8:	ee 0f       	add	r30, r30
    20aa:	ff 1f       	adc	r31, r31
    20ac:	e8 57       	subi	r30, 0x78	; 120
    20ae:	f6 4c       	sbci	r31, 0xC6	; 198
    20b0:	4a e1       	ldi	r20, 0x1A	; 26
    20b2:	50 e0       	ldi	r21, 0x00	; 0
    20b4:	64 c0       	rjmp	.+200    	; 0x217e <ProcessInput+0x934>
    return 0;
}

//
void SetResponse(uint8_t number, uint16_t address, uint16_t length, uint8_t type){
    reactStr[0][number]=address;
    20b6:	6e e8       	ldi	r22, 0x8E	; 142
    20b8:	75 e7       	ldi	r23, 0x75	; 117
    20ba:	60 83       	st	Z, r22
    20bc:	71 83       	std	Z+1, r23	; 0x01
    reactStr[1][number]=length;
    20be:	fc 01       	movw	r30, r24
    20c0:	ee 0f       	add	r30, r30
    20c2:	ff 1f       	adc	r31, r31
    20c4:	e8 57       	subi	r30, 0x78	; 120
    20c6:	f6 4c       	sbci	r31, 0xC6	; 198
    20c8:	62 eb       	ldi	r22, 0xB2	; 178
    20ca:	70 e0       	ldi	r23, 0x00	; 0
    20cc:	60 83       	st	Z, r22
    20ce:	71 83       	std	Z+1, r23	; 0x01
    reactStr[2][number]=type;
    20d0:	88 0f       	add	r24, r24
    20d2:	99 1f       	adc	r25, r25
    20d4:	fc 01       	movw	r30, r24
    20d6:	e8 53       	subi	r30, 0x38	; 56
    20d8:	f6 4c       	sbci	r31, 0xC6	; 198
    20da:	e0 82       	st	Z, r14
    20dc:	f1 82       	std	Z+1, r15	; 0x01
    return 0;
}

//
void SetResponse(uint8_t number, uint16_t address, uint16_t length, uint8_t type){
    reactStr[0][number]=address;
    20de:	82 2f       	mov	r24, r18
    20e0:	90 e0       	ldi	r25, 0x00	; 0
    20e2:	fc 01       	movw	r30, r24
    20e4:	ee 0f       	add	r30, r30
    20e6:	ff 1f       	adc	r31, r31
    20e8:	e8 5b       	subi	r30, 0xB8	; 184
    20ea:	f6 4c       	sbci	r31, 0xC6	; 198
    20ec:	6b e5       	ldi	r22, 0x5B	; 91
    20ee:	7a e7       	ldi	r23, 0x7A	; 122
    20f0:	60 83       	st	Z, r22
    20f2:	71 83       	std	Z+1, r23	; 0x01
    reactStr[1][number]=length;
    20f4:	fc 01       	movw	r30, r24
    20f6:	ee 0f       	add	r30, r30
    20f8:	ff 1f       	adc	r31, r31
    20fa:	e8 57       	subi	r30, 0x78	; 120
    20fc:	f6 4c       	sbci	r31, 0xC6	; 198
    20fe:	62 e0       	ldi	r22, 0x02	; 2
    2100:	70 e0       	ldi	r23, 0x00	; 0
    2102:	60 83       	st	Z, r22
    2104:	71 83       	std	Z+1, r23	; 0x01
    reactStr[2][number]=type;
    2106:	88 0f       	add	r24, r24
    2108:	99 1f       	adc	r25, r25
    210a:	fc 01       	movw	r30, r24
    210c:	e8 53       	subi	r30, 0x38	; 56
    210e:	f6 4c       	sbci	r31, 0xC6	; 198
    2110:	e0 82       	st	Z, r14
    2112:	f1 82       	std	Z+1, r15	; 0x01
    return 0;
}

//
void SetResponse(uint8_t number, uint16_t address, uint16_t length, uint8_t type){
    reactStr[0][number]=address;
    2114:	82 e0       	ldi	r24, 0x02	; 2
    2116:	87 0d       	add	r24, r7
    2118:	90 e0       	ldi	r25, 0x00	; 0
    211a:	b3 e0       	ldi	r27, 0x03	; 3
    211c:	7b 0e       	add	r7, r27
    211e:	fc 01       	movw	r30, r24
    2120:	ee 0f       	add	r30, r30
    2122:	ff 1f       	adc	r31, r31
    2124:	e8 5b       	subi	r30, 0xB8	; 184
    2126:	f6 4c       	sbci	r31, 0xC6	; 198
    2128:	60 eb       	ldi	r22, 0xB0	; 176
    212a:	78 e7       	ldi	r23, 0x78	; 120
    212c:	60 83       	st	Z, r22
    212e:	71 83       	std	Z+1, r23	; 0x01
    reactStr[1][number]=length;
    2130:	fc 01       	movw	r30, r24
    2132:	ee 0f       	add	r30, r30
    2134:	ff 1f       	adc	r31, r31
    2136:	e8 57       	subi	r30, 0x78	; 120
    2138:	f6 4c       	sbci	r31, 0xC6	; 198
    213a:	62 e1       	ldi	r22, 0x12	; 18
    213c:	70 e0       	ldi	r23, 0x00	; 0
    213e:	60 83       	st	Z, r22
    2140:	71 83       	std	Z+1, r23	; 0x01
    reactStr[2][number]=type;
    2142:	88 0f       	add	r24, r24
    2144:	99 1f       	adc	r25, r25
    2146:	fc 01       	movw	r30, r24
    2148:	e8 53       	subi	r30, 0x38	; 56
    214a:	f6 4c       	sbci	r31, 0xC6	; 198
    214c:	e0 82       	st	Z, r14
    214e:	f1 82       	std	Z+1, r15	; 0x01
                                        SetResponse(elements++, A_CANTUSE, L_CANTUSE, TEASER);
                                    } else {
                                        SetResponse(elements++, A_PRIEST, L_PRIEST, TEASER);
                                        SetResponse(elements++, A_LF, 2, TEASER);
                                        SetResponse(elements++, A_RESPONSE, L_RESPONSE, TEASER);
                                        specialInput[0] = '1';
    2150:	40 93 37 39 	sts	0x3937, r20	; 0x803937 <specialInput>
                                        specialInput[1] = item;
    2154:	30 93 38 39 	sts	0x3938, r19	; 0x803938 <specialInput+0x1>
                                        specialInput[2] = 0;
    2158:	10 92 39 39 	sts	0x3939, r1	; 0x803939 <specialInput+0x2>
    215c:	95 c2       	rjmp	.+1322   	; 0x2688 <ProcessInput+0xe3e>
    return 0;
}

//
void SetResponse(uint8_t number, uint16_t address, uint16_t length, uint8_t type){
    reactStr[0][number]=address;
    215e:	fc 01       	movw	r30, r24
    2160:	ee 0f       	add	r30, r30
    2162:	ff 1f       	adc	r31, r31
    2164:	e8 5b       	subi	r30, 0xB8	; 184
    2166:	f6 4c       	sbci	r31, 0xC6	; 198
    2168:	40 e4       	ldi	r20, 0x40	; 64
    216a:	56 e7       	ldi	r21, 0x76	; 118
    216c:	40 83       	st	Z, r20
    216e:	51 83       	std	Z+1, r21	; 0x01
    reactStr[1][number]=length;
    2170:	fc 01       	movw	r30, r24
    2172:	ee 0f       	add	r30, r30
    2174:	ff 1f       	adc	r31, r31
    2176:	e8 57       	subi	r30, 0x78	; 120
    2178:	f6 4c       	sbci	r31, 0xC6	; 198
    217a:	42 e4       	ldi	r20, 0x42	; 66
    217c:	50 e0       	ldi	r21, 0x00	; 0
    217e:	40 83       	st	Z, r20
    2180:	51 83       	std	Z+1, r21	; 0x01
    reactStr[2][number]=type;
    2182:	88 0f       	add	r24, r24
    2184:	99 1f       	adc	r25, r25
    2186:	fc 01       	movw	r30, r24
    2188:	e8 53       	subi	r30, 0x38	; 56
    218a:	f6 4c       	sbci	r31, 0xC6	; 198
    218c:	e0 82       	st	Z, r14
    218e:	f1 82       	std	Z+1, r15	; 0x01
                                        specialInput[0] = '1';
                                        specialInput[1] = item;
                                        specialInput[2] = 0;
                                    }
                                } else {
                                    SetResponse(elements++, A_ERROR, L_ERROR, TEASER);
    2190:	72 2e       	mov	r7, r18
    2192:	7a c2       	rjmp	.+1268   	; 0x2688 <ProcessInput+0xe3e>
                                }

                            //Normal "use ... on ..." or "give ... to ..." action
                            } else if (actObj1.byteField[ACTION_ITEM] == actObj2.byteField[ITEM_NR]) {
    2194:	90 91 12 39 	lds	r25, 0x3912	; 0x803912 <actObj1.3950+0x9>
    2198:	80 91 e9 38 	lds	r24, 0x38E9	; 0x8038e9 <actObj2.3951+0xb>
    219c:	98 13       	cpse	r25, r24
    219e:	24 c0       	rjmp	.+72     	; 0x21e8 <ProcessInput+0x99e>
                                UpdateState(actObj1.byteField[ACTION_STATE]);
    21a0:	80 91 13 39 	lds	r24, 0x3913	; 0x803913 <actObj1.3950+0xa>
    21a4:	0e 94 c8 08 	call	0x1190	; 0x1190 <UpdateState>
                                SetResponse(elements++, actObj1.addrStr[ACTION_MSG], actObj1.lenStr[ACTION_MSG], GAME);
    21a8:	20 91 2f 39 	lds	r18, 0x392F	; 0x80392f <actObj1.3950+0x26>
    21ac:	30 91 30 39 	lds	r19, 0x3930	; 0x803930 <actObj1.3950+0x27>
    return 0;
}

//
void SetResponse(uint8_t number, uint16_t address, uint16_t length, uint8_t type){
    reactStr[0][number]=address;
    21b0:	87 2d       	mov	r24, r7
    21b2:	90 e0       	ldi	r25, 0x00	; 0
    21b4:	fc 01       	movw	r30, r24
    21b6:	ee 0f       	add	r30, r30
    21b8:	ff 1f       	adc	r31, r31
    21ba:	e8 5b       	subi	r30, 0xB8	; 184
    21bc:	f6 4c       	sbci	r31, 0xC6	; 198
    21be:	40 91 21 39 	lds	r20, 0x3921	; 0x803921 <actObj1.3950+0x18>
    21c2:	50 91 22 39 	lds	r21, 0x3922	; 0x803922 <actObj1.3950+0x19>
    21c6:	40 83       	st	Z, r20
    21c8:	51 83       	std	Z+1, r21	; 0x01
    reactStr[1][number]=length;
    21ca:	fc 01       	movw	r30, r24
    21cc:	ee 0f       	add	r30, r30
    21ce:	ff 1f       	adc	r31, r31
    21d0:	e8 57       	subi	r30, 0x78	; 120
    21d2:	f6 4c       	sbci	r31, 0xC6	; 198
    21d4:	20 83       	st	Z, r18
    21d6:	31 83       	std	Z+1, r19	; 0x01
    reactStr[2][number]=type;
    21d8:	88 0f       	add	r24, r24
    21da:	99 1f       	adc	r25, r25
    21dc:	fc 01       	movw	r30, r24
    21de:	e8 53       	subi	r30, 0x38	; 56
    21e0:	f6 4c       	sbci	r31, 0xC6	; 198
    21e2:	10 82       	st	Z, r1
    21e4:	11 82       	std	Z+1, r1	; 0x01
    21e6:	37 c0       	rjmp	.+110    	; 0x2256 <ProcessInput+0xa0c>
                            //Normal "use ... on ..." or "give ... to ..." action
                            } else if (actObj1.byteField[ACTION_ITEM] == actObj2.byteField[ITEM_NR]) {
                                UpdateState(actObj1.byteField[ACTION_STATE]);
                                SetResponse(elements++, actObj1.addrStr[ACTION_MSG], actObj1.lenStr[ACTION_MSG], GAME);
                            } else {
                                if (data[0] == 'u') {
    21e8:	f8 01       	movw	r30, r16
    21ea:	80 81       	ld	r24, Z
    21ec:	85 37       	cpi	r24, 0x75	; 117
    21ee:	99 f4       	brne	.+38     	; 0x2216 <ProcessInput+0x9cc>
    return 0;
}

//
void SetResponse(uint8_t number, uint16_t address, uint16_t length, uint8_t type){
    reactStr[0][number]=address;
    21f0:	87 2d       	mov	r24, r7
    21f2:	90 e0       	ldi	r25, 0x00	; 0
    21f4:	fc 01       	movw	r30, r24
    21f6:	ee 0f       	add	r30, r30
    21f8:	ff 1f       	adc	r31, r31
    21fa:	e8 5b       	subi	r30, 0xB8	; 184
    21fc:	f6 4c       	sbci	r31, 0xC6	; 198
    21fe:	24 e0       	ldi	r18, 0x04	; 4
    2200:	39 e7       	ldi	r19, 0x79	; 121
    2202:	20 83       	st	Z, r18
    2204:	31 83       	std	Z+1, r19	; 0x01
    reactStr[1][number]=length;
    2206:	fc 01       	movw	r30, r24
    2208:	ee 0f       	add	r30, r30
    220a:	ff 1f       	adc	r31, r31
    220c:	e8 57       	subi	r30, 0x78	; 120
    220e:	f6 4c       	sbci	r31, 0xC6	; 198
    2210:	2a e1       	ldi	r18, 0x1A	; 26
    2212:	30 e0       	ldi	r19, 0x00	; 0
    2214:	15 c0       	rjmp	.+42     	; 0x2240 <ProcessInput+0x9f6>
                                UpdateState(actObj1.byteField[ACTION_STATE]);
                                SetResponse(elements++, actObj1.addrStr[ACTION_MSG], actObj1.lenStr[ACTION_MSG], GAME);
                            } else {
                                if (data[0] == 'u') {
                                    SetResponse(elements++, A_CANTUSE, L_CANTUSE, TEASER);
                                } else if (data[0] == 'g') {
    2216:	87 36       	cpi	r24, 0x67	; 103
    2218:	09 f0       	breq	.+2      	; 0x221c <ProcessInput+0x9d2>
    221a:	36 c2       	rjmp	.+1132   	; 0x2688 <ProcessInput+0xe3e>
    return 0;
}

//
void SetResponse(uint8_t number, uint16_t address, uint16_t length, uint8_t type){
    reactStr[0][number]=address;
    221c:	87 2d       	mov	r24, r7
    221e:	90 e0       	ldi	r25, 0x00	; 0
    2220:	fc 01       	movw	r30, r24
    2222:	ee 0f       	add	r30, r30
    2224:	ff 1f       	adc	r31, r31
    2226:	e8 5b       	subi	r30, 0xB8	; 184
    2228:	f6 4c       	sbci	r31, 0xC6	; 198
    222a:	2d ed       	ldi	r18, 0xDD	; 221
    222c:	36 e7       	ldi	r19, 0x76	; 118
    222e:	20 83       	st	Z, r18
    2230:	31 83       	std	Z+1, r19	; 0x01
    reactStr[1][number]=length;
    2232:	fc 01       	movw	r30, r24
    2234:	ee 0f       	add	r30, r30
    2236:	ff 1f       	adc	r31, r31
    2238:	e8 57       	subi	r30, 0x78	; 120
    223a:	f6 4c       	sbci	r31, 0xC6	; 198
    223c:	28 e2       	ldi	r18, 0x28	; 40
    223e:	30 e0       	ldi	r19, 0x00	; 0
    2240:	20 83       	st	Z, r18
    2242:	31 83       	std	Z+1, r19	; 0x01
    reactStr[2][number]=type;
    2244:	88 0f       	add	r24, r24
    2246:	99 1f       	adc	r25, r25
    2248:	fc 01       	movw	r30, r24
    224a:	e8 53       	subi	r30, 0x38	; 56
    224c:	f6 4c       	sbci	r31, 0xC6	; 198
    224e:	81 e0       	ldi	r24, 0x01	; 1
    2250:	90 e0       	ldi	r25, 0x00	; 0
    2252:	80 83       	st	Z, r24
    2254:	91 83       	std	Z+1, r25	; 0x01
                                SetResponse(elements++, actObj1.addrStr[ACTION_MSG], actObj1.lenStr[ACTION_MSG], GAME);
                            } else {
                                if (data[0] == 'u') {
                                    SetResponse(elements++, A_CANTUSE, L_CANTUSE, TEASER);
                                } else if (data[0] == 'g') {
                                    SetResponse(elements++, A_CANTGIVE, L_CANTGIVE, TEASER);                                    
    2256:	73 94       	inc	r7
    2258:	17 c2       	rjmp	.+1070   	; 0x2688 <ProcessInput+0xe3e>
                            }
                        }
                    
                    //Talk to person, read or use object (without item)                          
                    } else {
                        PopulateObject(route[currDepth+1], &actObj1);
    225a:	69 e0       	ldi	r22, 0x09	; 9
    225c:	79 e3       	ldi	r23, 0x39	; 57
    225e:	0e 94 56 08 	call	0x10ac	; 0x10ac <PopulateObject>
                        if ((data[0] == 't')&&((255 - actObj1.byteField[ACTION_MASK]) & TALK)) {
    2262:	d8 01       	movw	r26, r16
    2264:	8c 91       	ld	r24, X
    2266:	84 37       	cpi	r24, 0x74	; 116
    2268:	71 f5       	brne	.+92     	; 0x22c6 <ProcessInput+0xa7c>
    226a:	80 91 11 39 	lds	r24, 0x3911	; 0x803911 <actObj1.3950+0x8>
    226e:	80 95       	com	r24
    2270:	83 ff       	sbrs	r24, 3
    2272:	49 c0       	rjmp	.+146    	; 0x2306 <ProcessInput+0xabc>
    return 0;
}

//
void SetResponse(uint8_t number, uint16_t address, uint16_t length, uint8_t type){
    reactStr[0][number]=address;
    2274:	8e e1       	ldi	r24, 0x1E	; 30
    2276:	99 e7       	ldi	r25, 0x79	; 121
    2278:	80 93 48 39 	sts	0x3948, r24	; 0x803948 <reactStr>
    227c:	90 93 49 39 	sts	0x3949, r25	; 0x803949 <reactStr+0x1>
    reactStr[1][number]=length;
    2280:	8e e1       	ldi	r24, 0x1E	; 30
    2282:	90 e0       	ldi	r25, 0x00	; 0
    2284:	80 93 88 39 	sts	0x3988, r24	; 0x803988 <reactStr+0x40>
    2288:	90 93 89 39 	sts	0x3989, r25	; 0x803989 <reactStr+0x41>
    reactStr[2][number]=type;
    228c:	81 e0       	ldi	r24, 0x01	; 1
    228e:	90 e0       	ldi	r25, 0x00	; 0
    2290:	80 93 c8 39 	sts	0x39C8, r24	; 0x8039c8 <reactStr+0x80>
    2294:	90 93 c9 39 	sts	0x39C9, r25	; 0x8039c9 <reactStr+0x81>
                    //Talk to person, read or use object (without item)                          
                    } else {
                        PopulateObject(route[currDepth+1], &actObj1);
                        if ((data[0] == 't')&&((255 - actObj1.byteField[ACTION_MASK]) & TALK)) {
                            SetResponse(elements++, A_WHYTALK, L_WHYTALK, TEASER);
                            SetResponse(elements++, actObj1.addrStr[NAME], actObj1.lenStr[NAME], GAME);
    2298:	80 91 23 39 	lds	r24, 0x3923	; 0x803923 <actObj1.3950+0x1a>
    229c:	90 91 24 39 	lds	r25, 0x3924	; 0x803924 <actObj1.3950+0x1b>
    return 0;
}

//
void SetResponse(uint8_t number, uint16_t address, uint16_t length, uint8_t type){
    reactStr[0][number]=address;
    22a0:	20 91 15 39 	lds	r18, 0x3915	; 0x803915 <actObj1.3950+0xc>
    22a4:	30 91 16 39 	lds	r19, 0x3916	; 0x803916 <actObj1.3950+0xd>
    22a8:	20 93 4a 39 	sts	0x394A, r18	; 0x80394a <reactStr+0x2>
    22ac:	30 93 4b 39 	sts	0x394B, r19	; 0x80394b <reactStr+0x3>
    reactStr[1][number]=length;
    22b0:	80 93 8a 39 	sts	0x398A, r24	; 0x80398a <reactStr+0x42>
    22b4:	90 93 8b 39 	sts	0x398B, r25	; 0x80398b <reactStr+0x43>
    reactStr[2][number]=type;
    22b8:	10 92 ca 39 	sts	0x39CA, r1	; 0x8039ca <reactStr+0x82>
    22bc:	10 92 cb 39 	sts	0x39CB, r1	; 0x8039cb <reactStr+0x83>
                    //Talk to person, read or use object (without item)                          
                    } else {
                        PopulateObject(route[currDepth+1], &actObj1);
                        if ((data[0] == 't')&&((255 - actObj1.byteField[ACTION_MASK]) & TALK)) {
                            SetResponse(elements++, A_WHYTALK, L_WHYTALK, TEASER);
                            SetResponse(elements++, actObj1.addrStr[NAME], actObj1.lenStr[NAME], GAME);
    22c0:	52 e0       	ldi	r21, 0x02	; 2
    22c2:	75 2e       	mov	r7, r21
    22c4:	e1 c1       	rjmp	.+962    	; 0x2688 <ProcessInput+0xe3e>
                        } else if ((data[0] == 'u')&&((255-actObj1.byteField[ACTION_MASK]) & USE)) {
    22c6:	85 37       	cpi	r24, 0x75	; 117
    22c8:	71 f4       	brne	.+28     	; 0x22e6 <ProcessInput+0xa9c>
    22ca:	80 91 11 39 	lds	r24, 0x3911	; 0x803911 <actObj1.3950+0x8>
    22ce:	80 95       	com	r24
    22d0:	84 ff       	sbrs	r24, 4
    22d2:	19 c0       	rjmp	.+50     	; 0x2306 <ProcessInput+0xabc>
    return 0;
}

//
void SetResponse(uint8_t number, uint16_t address, uint16_t length, uint8_t type){
    reactStr[0][number]=address;
    22d4:	84 e0       	ldi	r24, 0x04	; 4
    22d6:	99 e7       	ldi	r25, 0x79	; 121
    22d8:	80 93 48 39 	sts	0x3948, r24	; 0x803948 <reactStr>
    22dc:	90 93 49 39 	sts	0x3949, r25	; 0x803949 <reactStr+0x1>
    reactStr[1][number]=length;
    22e0:	8a e1       	ldi	r24, 0x1A	; 26
    22e2:	90 e0       	ldi	r25, 0x00	; 0
    22e4:	56 cb       	rjmp	.-2388   	; 0x1992 <ProcessInput+0x148>
                        if ((data[0] == 't')&&((255 - actObj1.byteField[ACTION_MASK]) & TALK)) {
                            SetResponse(elements++, A_WHYTALK, L_WHYTALK, TEASER);
                            SetResponse(elements++, actObj1.addrStr[NAME], actObj1.lenStr[NAME], GAME);
                        } else if ((data[0] == 'u')&&((255-actObj1.byteField[ACTION_MASK]) & USE)) {
                            SetResponse(elements++, A_CANTUSE, L_CANTUSE, TEASER);
                        } else if ((data[0] == 'r')&&((255-actObj1.byteField[ACTION_MASK]) & READ)) {
    22e6:	82 37       	cpi	r24, 0x72	; 114
    22e8:	71 f4       	brne	.+28     	; 0x2306 <ProcessInput+0xabc>
    22ea:	80 91 11 39 	lds	r24, 0x3911	; 0x803911 <actObj1.3950+0x8>
    22ee:	80 95       	com	r24
    22f0:	85 ff       	sbrs	r24, 5
    22f2:	09 c0       	rjmp	.+18     	; 0x2306 <ProcessInput+0xabc>
    return 0;
}

//
void SetResponse(uint8_t number, uint16_t address, uint16_t length, uint8_t type){
    reactStr[0][number]=address;
    22f4:	89 ee       	ldi	r24, 0xE9	; 233
    22f6:	98 e7       	ldi	r25, 0x78	; 120
    22f8:	80 93 48 39 	sts	0x3948, r24	; 0x803948 <reactStr>
    22fc:	90 93 49 39 	sts	0x3949, r25	; 0x803949 <reactStr+0x1>
    reactStr[1][number]=length;
    2300:	8b e1       	ldi	r24, 0x1B	; 27
    2302:	90 e0       	ldi	r25, 0x00	; 0
    2304:	46 cb       	rjmp	.-2420   	; 0x1992 <ProcessInput+0x148>
                        } else if ((data[0] == 'r')&&((255-actObj1.byteField[ACTION_MASK]) & READ)) {
                            SetResponse(elements++, A_CANTREAD, L_CANTREAD, TEASER);
                        } else {

                            //Special game, not enough characters
                            if (actObj1.lenStr[ACTION_STR1] == 1) {
    2306:	e0 90 27 39 	lds	r14, 0x3927	; 0x803927 <actObj1.3950+0x1e>
    230a:	f0 90 28 39 	lds	r15, 0x3928	; 0x803928 <actObj1.3950+0x1f>
    230e:	b1 e0       	ldi	r27, 0x01	; 1
    2310:	eb 16       	cp	r14, r27
    2312:	f1 04       	cpc	r15, r1
    2314:	09 f5       	brne	.+66     	; 0x2358 <ProcessInput+0xb0e>
                                ExtEERead(actObj1.addrStr[ACTION_STR1], 1, GAME, &data[2]);
    2316:	98 01       	movw	r18, r16
    2318:	2e 5f       	subi	r18, 0xFE	; 254
    231a:	3f 4f       	sbci	r19, 0xFF	; 255
    231c:	40 e0       	ldi	r20, 0x00	; 0
    231e:	61 e0       	ldi	r22, 0x01	; 1
    2320:	80 91 19 39 	lds	r24, 0x3919	; 0x803919 <actObj1.3950+0x10>
    2324:	90 91 1a 39 	lds	r25, 0x391A	; 0x80391a <actObj1.3950+0x11>
    2328:	0e 94 4c 07 	call	0xe98	; 0xe98 <ExtEERead>
                                if (data[2] == '1') {
    232c:	f8 01       	movw	r30, r16
    232e:	82 81       	ldd	r24, Z+2	; 0x02
    2330:	81 33       	cpi	r24, 0x31	; 49
    2332:	09 f0       	breq	.+2      	; 0x2336 <ProcessInput+0xaec>
    2334:	66 cb       	rjmp	.-2356   	; 0x1a02 <ProcessInput+0x1b8>
    return 0;
}

//
void SetResponse(uint8_t number, uint16_t address, uint16_t length, uint8_t type){
    reactStr[0][number]=address;
    2336:	83 e6       	ldi	r24, 0x63	; 99
    2338:	95 e7       	ldi	r25, 0x75	; 117
    233a:	80 93 48 39 	sts	0x3948, r24	; 0x803948 <reactStr>
    233e:	90 93 49 39 	sts	0x3949, r25	; 0x803949 <reactStr+0x1>
    reactStr[1][number]=length;
    2342:	8b e2       	ldi	r24, 0x2B	; 43
    2344:	90 e0       	ldi	r25, 0x00	; 0
    2346:	80 93 88 39 	sts	0x3988, r24	; 0x803988 <reactStr+0x40>
    234a:	90 93 89 39 	sts	0x3989, r25	; 0x803989 <reactStr+0x41>
    reactStr[2][number]=type;
    234e:	e0 92 c8 39 	sts	0x39C8, r14	; 0x8039c8 <reactStr+0x80>
    2352:	f0 92 c9 39 	sts	0x39C9, r15	; 0x8039c9 <reactStr+0x81>
    2356:	27 cb       	rjmp	.-2482   	; 0x19a6 <ProcessInput+0x15c>
                                if (data[2] == '1') {
                                    SetResponse(elements++, A_PLEASEOFFER, L_PLEASEOFFER, TEASER);
                                }

                            //General request
                            } else if (actObj1.lenStr[ACTION_STR1]) {
    2358:	e1 14       	cp	r14, r1
    235a:	f1 04       	cpc	r15, r1
    235c:	09 f4       	brne	.+2      	; 0x2360 <ProcessInput+0xb16>
    235e:	59 c0       	rjmp	.+178    	; 0x2412 <ProcessInput+0xbc8>
    return 0;
}

//
void SetResponse(uint8_t number, uint16_t address, uint16_t length, uint8_t type){
    reactStr[0][number]=address;
    2360:	80 91 19 39 	lds	r24, 0x3919	; 0x803919 <actObj1.3950+0x10>
    2364:	90 91 1a 39 	lds	r25, 0x391A	; 0x80391a <actObj1.3950+0x11>
    2368:	80 93 48 39 	sts	0x3948, r24	; 0x803948 <reactStr>
    236c:	90 93 49 39 	sts	0x3949, r25	; 0x803949 <reactStr+0x1>
    reactStr[1][number]=length;
    2370:	e0 92 88 39 	sts	0x3988, r14	; 0x803988 <reactStr+0x40>
    2374:	f0 92 89 39 	sts	0x3989, r15	; 0x803989 <reactStr+0x41>
    reactStr[2][number]=type;
    2378:	10 92 c8 39 	sts	0x39C8, r1	; 0x8039c8 <reactStr+0x80>
    237c:	10 92 c9 39 	sts	0x39C9, r1	; 0x8039c9 <reactStr+0x81>
    return 0;
}

//
void SetResponse(uint8_t number, uint16_t address, uint16_t length, uint8_t type){
    reactStr[0][number]=address;
    2380:	8b e5       	ldi	r24, 0x5B	; 91
    2382:	9a e7       	ldi	r25, 0x7A	; 122
    2384:	80 93 4a 39 	sts	0x394A, r24	; 0x80394a <reactStr+0x2>
    2388:	90 93 4b 39 	sts	0x394B, r25	; 0x80394b <reactStr+0x3>
    reactStr[1][number]=length;
    238c:	82 e0       	ldi	r24, 0x02	; 2
    238e:	90 e0       	ldi	r25, 0x00	; 0
    2390:	80 93 8a 39 	sts	0x398A, r24	; 0x80398a <reactStr+0x42>
    2394:	90 93 8b 39 	sts	0x398B, r25	; 0x80398b <reactStr+0x43>
    reactStr[2][number]=type;
    2398:	81 e0       	ldi	r24, 0x01	; 1
    239a:	90 e0       	ldi	r25, 0x00	; 0
    239c:	80 93 ca 39 	sts	0x39CA, r24	; 0x8039ca <reactStr+0x82>
    23a0:	90 93 cb 39 	sts	0x39CB, r25	; 0x8039cb <reactStr+0x83>
    return 0;
}

//
void SetResponse(uint8_t number, uint16_t address, uint16_t length, uint8_t type){
    reactStr[0][number]=address;
    23a4:	20 eb       	ldi	r18, 0xB0	; 176
    23a6:	38 e7       	ldi	r19, 0x78	; 120
    23a8:	20 93 4c 39 	sts	0x394C, r18	; 0x80394c <reactStr+0x4>
    23ac:	30 93 4d 39 	sts	0x394D, r19	; 0x80394d <reactStr+0x5>
    reactStr[1][number]=length;
    23b0:	22 e1       	ldi	r18, 0x12	; 18
    23b2:	30 e0       	ldi	r19, 0x00	; 0
    23b4:	20 93 8c 39 	sts	0x398C, r18	; 0x80398c <reactStr+0x44>
    23b8:	30 93 8d 39 	sts	0x398D, r19	; 0x80398d <reactStr+0x45>
    reactStr[2][number]=type;
    23bc:	80 93 cc 39 	sts	0x39CC, r24	; 0x8039cc <reactStr+0x84>
    23c0:	90 93 cd 39 	sts	0x39CD, r25	; 0x8039cd <reactStr+0x85>
                            //General request
                            } else if (actObj1.lenStr[ACTION_STR1]) {
                                SetResponse(elements++, actObj1.addrStr[ACTION_STR1], actObj1.lenStr[ACTION_STR1], GAME);
                                SetResponse(elements++, A_LF, 2, TEASER);
                                SetResponse(elements++, A_RESPONSE, L_RESPONSE, TEASER);
                                if (actObj1.lenStr[ACTION_STR2]>(INP_LENGTH-1)) actObj1.lenStr[ACTION_STR2] = (INP_LENGTH-1);
    23c4:	80 91 29 39 	lds	r24, 0x3929	; 0x803929 <actObj1.3950+0x20>
    23c8:	90 91 2a 39 	lds	r25, 0x392A	; 0x80392a <actObj1.3950+0x21>
    23cc:	40 97       	sbiw	r24, 0x10	; 16
    23ce:	30 f0       	brcs	.+12     	; 0x23dc <ProcessInput+0xb92>
    23d0:	8f e0       	ldi	r24, 0x0F	; 15
    23d2:	90 e0       	ldi	r25, 0x00	; 0
    23d4:	80 93 29 39 	sts	0x3929, r24	; 0x803929 <actObj1.3950+0x20>
    23d8:	90 93 2a 39 	sts	0x392A, r25	; 0x80392a <actObj1.3950+0x21>
                                ExtEERead(actObj1.addrStr[ACTION_STR2], actObj1.lenStr[ACTION_STR2], GAME, (uint8_t *)&specialInput[0]);
    23dc:	27 e3       	ldi	r18, 0x37	; 55
    23de:	39 e3       	ldi	r19, 0x39	; 57
    23e0:	40 e0       	ldi	r20, 0x00	; 0
    23e2:	60 91 29 39 	lds	r22, 0x3929	; 0x803929 <actObj1.3950+0x20>
    23e6:	80 91 1b 39 	lds	r24, 0x391B	; 0x80391b <actObj1.3950+0x12>
    23ea:	90 91 1c 39 	lds	r25, 0x391C	; 0x80391c <actObj1.3950+0x13>
    23ee:	0e 94 4c 07 	call	0xe98	; 0xe98 <ExtEERead>
                                UnflipData(actObj1.lenStr[ACTION_STR2], &specialInput[0]);
    23f2:	67 e3       	ldi	r22, 0x37	; 55
    23f4:	79 e3       	ldi	r23, 0x39	; 57
    23f6:	80 91 29 39 	lds	r24, 0x3929	; 0x803929 <actObj1.3950+0x20>
    23fa:	0e 94 3f 07 	call	0xe7e	; 0xe7e <UnflipData>
                                specialInput[actObj1.lenStr[ACTION_STR2]] = 0;
    23fe:	e0 91 29 39 	lds	r30, 0x3929	; 0x803929 <actObj1.3950+0x20>
    2402:	f0 91 2a 39 	lds	r31, 0x392A	; 0x80392a <actObj1.3950+0x21>
    2406:	e9 5c       	subi	r30, 0xC9	; 201
    2408:	f6 4c       	sbci	r31, 0xC6	; 198
    240a:	10 82       	st	Z, r1

                            //General request
                            } else if (actObj1.lenStr[ACTION_STR1]) {
                                SetResponse(elements++, actObj1.addrStr[ACTION_STR1], actObj1.lenStr[ACTION_STR1], GAME);
                                SetResponse(elements++, A_LF, 2, TEASER);
                                SetResponse(elements++, A_RESPONSE, L_RESPONSE, TEASER);
    240c:	43 e0       	ldi	r20, 0x03	; 3
    240e:	74 2e       	mov	r7, r20
    2410:	3b c1       	rjmp	.+630    	; 0x2688 <ProcessInput+0xe3e>
                                if (actObj1.lenStr[ACTION_STR2]>(INP_LENGTH-1)) actObj1.lenStr[ACTION_STR2] = (INP_LENGTH-1);
                                ExtEERead(actObj1.addrStr[ACTION_STR2], actObj1.lenStr[ACTION_STR2], GAME, (uint8_t *)&specialInput[0]);
                                UnflipData(actObj1.lenStr[ACTION_STR2], &specialInput[0]);
                                specialInput[actObj1.lenStr[ACTION_STR2]] = 0;
                                //specialPassed = 0;
                            } else if (CheckState(actObj1.byteField[ACTION_ACL])){
    2412:	80 91 10 39 	lds	r24, 0x3910	; 0x803910 <actObj1.3950+0x7>
    2416:	0e 94 d0 08 	call	0x11a0	; 0x11a0 <CheckState>
    241a:	88 23       	and	r24, r24
    241c:	c9 f0       	breq	.+50     	; 0x2450 <ProcessInput+0xc06>
                                SetResponse(elements++, actObj1.addrStr[ACTION_MSG], actObj1.lenStr[ACTION_MSG], GAME);
    241e:	80 91 2f 39 	lds	r24, 0x392F	; 0x80392f <actObj1.3950+0x26>
    2422:	90 91 30 39 	lds	r25, 0x3930	; 0x803930 <actObj1.3950+0x27>
    return 0;
}

//
void SetResponse(uint8_t number, uint16_t address, uint16_t length, uint8_t type){
    reactStr[0][number]=address;
    2426:	20 91 21 39 	lds	r18, 0x3921	; 0x803921 <actObj1.3950+0x18>
    242a:	30 91 22 39 	lds	r19, 0x3922	; 0x803922 <actObj1.3950+0x19>
    242e:	20 93 48 39 	sts	0x3948, r18	; 0x803948 <reactStr>
    2432:	30 93 49 39 	sts	0x3949, r19	; 0x803949 <reactStr+0x1>
    reactStr[1][number]=length;
    2436:	80 93 88 39 	sts	0x3988, r24	; 0x803988 <reactStr+0x40>
    243a:	90 93 89 39 	sts	0x3989, r25	; 0x803989 <reactStr+0x41>
    reactStr[2][number]=type;
    243e:	10 92 c8 39 	sts	0x39C8, r1	; 0x8039c8 <reactStr+0x80>
    2442:	10 92 c9 39 	sts	0x39C9, r1	; 0x8039c9 <reactStr+0x81>
                                UnflipData(actObj1.lenStr[ACTION_STR2], &specialInput[0]);
                                specialInput[actObj1.lenStr[ACTION_STR2]] = 0;
                                //specialPassed = 0;
                            } else if (CheckState(actObj1.byteField[ACTION_ACL])){
                                SetResponse(elements++, actObj1.addrStr[ACTION_MSG], actObj1.lenStr[ACTION_MSG], GAME);
                                UpdateState(actObj1.byteField[ACTION_STATE]);
    2446:	80 91 13 39 	lds	r24, 0x3913	; 0x803913 <actObj1.3950+0xa>
    244a:	0e 94 c8 08 	call	0x1190	; 0x1190 <UpdateState>
    244e:	ab ca       	rjmp	.-2730   	; 0x19a6 <ProcessInput+0x15c>
                            } else {
                                SetResponse(elements++, actObj1.addrStr[ACTION_ACL_MSG], actObj1.lenStr[ACTION_ACL_MSG], GAME);
    2450:	80 91 2d 39 	lds	r24, 0x392D	; 0x80392d <actObj1.3950+0x24>
    2454:	90 91 2e 39 	lds	r25, 0x392E	; 0x80392e <actObj1.3950+0x25>
    return 0;
}

//
void SetResponse(uint8_t number, uint16_t address, uint16_t length, uint8_t type){
    reactStr[0][number]=address;
    2458:	20 91 1f 39 	lds	r18, 0x391F	; 0x80391f <actObj1.3950+0x16>
    245c:	30 91 20 39 	lds	r19, 0x3920	; 0x803920 <actObj1.3950+0x17>
    2460:	20 93 48 39 	sts	0x3948, r18	; 0x803948 <reactStr>
    2464:	30 93 49 39 	sts	0x3949, r19	; 0x803949 <reactStr+0x1>
    reactStr[1][number]=length;
    2468:	80 93 88 39 	sts	0x3988, r24	; 0x803988 <reactStr+0x40>
    246c:	90 93 89 39 	sts	0x3989, r25	; 0x803989 <reactStr+0x41>
    reactStr[2][number]=type;
    2470:	10 92 c8 39 	sts	0x39C8, r1	; 0x8039c8 <reactStr+0x80>
    2474:	10 92 c9 39 	sts	0x39C9, r1	; 0x8039c9 <reactStr+0x81>
    2478:	96 ca       	rjmp	.-2772   	; 0x19a6 <ProcessInput+0x15c>
                        }
                    }

                //Person or object not found
                } else {
                    if ((data[0] == 't')||(data[0] == 'g')){
    247a:	d8 01       	movw	r26, r16
    247c:	8c 91       	ld	r24, X
    247e:	84 37       	cpi	r24, 0x74	; 116
    2480:	11 f0       	breq	.+4      	; 0x2486 <ProcessInput+0xc3c>
    2482:	87 36       	cpi	r24, 0x67	; 103
    2484:	19 f4       	brne	.+6      	; 0x248c <ProcessInput+0xc42>
    return 0;
}

//
void SetResponse(uint8_t number, uint16_t address, uint16_t length, uint8_t type){
    reactStr[0][number]=address;
    2486:	8c e3       	ldi	r24, 0x3C	; 60
    2488:	99 e7       	ldi	r25, 0x79	; 121
    248a:	02 c0       	rjmp	.+4      	; 0x2490 <ProcessInput+0xc46>
    248c:	80 e5       	ldi	r24, 0x50	; 80
    248e:	99 e7       	ldi	r25, 0x79	; 121
    2490:	80 93 48 39 	sts	0x3948, r24	; 0x803948 <reactStr>
    2494:	90 93 49 39 	sts	0x3949, r25	; 0x803949 <reactStr+0x1>
    reactStr[1][number]=length;
    2498:	84 e1       	ldi	r24, 0x14	; 20
    249a:	90 e0       	ldi	r25, 0x00	; 0
    249c:	7a ca       	rjmp	.-2828   	; 0x1992 <ProcessInput+0x148>
                    }
                }
            }
        
        //Special answer given
        } else if (data[0] == 'a'){
    249e:	81 36       	cpi	r24, 0x61	; 97
    24a0:	09 f0       	breq	.+2      	; 0x24a4 <ProcessInput+0xc5a>
    24a2:	af ca       	rjmp	.-2722   	; 0x1a02 <ProcessInput+0x1b8>
            
            //Priest offerings
            if (specialPassed >= 2) {
    24a4:	80 91 36 39 	lds	r24, 0x3936	; 0x803936 <specialPassed>
    24a8:	82 30       	cpi	r24, 0x02	; 2
    24aa:	08 f4       	brcc	.+2      	; 0x24ae <ProcessInput+0xc64>
    24ac:	ab c0       	rjmp	.+342    	; 0x2604 <ProcessInput+0xdba>
                if (data[1] > 0) {
    24ae:	f8 01       	movw	r30, r16
    24b0:	21 81       	ldd	r18, Z+1	; 0x01
    24b2:	22 23       	and	r18, r18
    24b4:	09 f4       	brne	.+2      	; 0x24b8 <ProcessInput+0xc6e>
    24b6:	9d c0       	rjmp	.+314    	; 0x25f2 <ProcessInput+0xda8>

                    uint8_t  digit[10] = {0, 0, 0, 0, 0, 0, 0, 0, 0, 0};
    24b8:	ae 01       	movw	r20, r28
    24ba:	4f 5f       	subi	r20, 0xFF	; 255
    24bc:	5f 4f       	sbci	r21, 0xFF	; 255
    24be:	7a 01       	movw	r14, r20
    24c0:	8a e0       	ldi	r24, 0x0A	; 10
    24c2:	da 01       	movw	r26, r20
    24c4:	1d 92       	st	X+, r1
    24c6:	8a 95       	dec	r24
    24c8:	e9 f7       	brne	.-6      	; 0x24c4 <ProcessInput+0xc7a>
                        answer = ((offering  & 2) << 19) + ((offering  & 1) << 8) + \
                        ((element   & 2) << 15) + ((element   & 1) << 4) + \
                        ((kneelings & 2) << 11) + ((kneelings & 1))
                        answer = answer << (3-person)
                    */
                    data[1]-='0';
    24ca:	20 53       	subi	r18, 0x30	; 48
    24cc:	21 83       	std	Z+1, r18	; 0x01
                    data[2]-='0';
    24ce:	32 81       	ldd	r19, Z+2	; 0x02
    24d0:	30 53       	subi	r19, 0x30	; 48
    24d2:	32 83       	std	Z+2, r19	; 0x02
                    if (data[3] == 'a') data[3] = 1;
    24d4:	83 81       	ldd	r24, Z+3	; 0x03
    24d6:	81 36       	cpi	r24, 0x61	; 97
    24d8:	11 f4       	brne	.+4      	; 0x24de <ProcessInput+0xc94>
    24da:	81 e0       	ldi	r24, 0x01	; 1
    24dc:	0c c0       	rjmp	.+24     	; 0x24f6 <ProcessInput+0xcac>
                    else if (data[3] == 'e') data[3] = 0;
    24de:	85 36       	cpi	r24, 0x65	; 101
    24e0:	19 f4       	brne	.+6      	; 0x24e8 <ProcessInput+0xc9e>
    24e2:	f8 01       	movw	r30, r16
    24e4:	13 82       	std	Z+3, r1	; 0x03
    24e6:	08 c0       	rjmp	.+16     	; 0x24f8 <ProcessInput+0xcae>
                    else if (data[3] == 'f') data[3] = 3;
    24e8:	86 36       	cpi	r24, 0x66	; 102
    24ea:	19 f4       	brne	.+6      	; 0x24f2 <ProcessInput+0xca8>
    24ec:	83 e0       	ldi	r24, 0x03	; 3
    24ee:	83 83       	std	Z+3, r24	; 0x03
    24f0:	03 c0       	rjmp	.+6      	; 0x24f8 <ProcessInput+0xcae>
                    else data[3] = 2;
    24f2:	82 e0       	ldi	r24, 0x02	; 2
    24f4:	f8 01       	movw	r30, r16
    24f6:	83 83       	std	Z+3, r24	; 0x03

                    if (data[1] & 2) answer += (1UL << 20);
    24f8:	21 fd       	sbrc	r18, 1
    24fa:	04 c0       	rjmp	.+8      	; 0x2504 <ProcessInput+0xcba>
            //Priest offerings
            if (specialPassed >= 2) {
                if (data[1] > 0) {

                    uint8_t  digit[10] = {0, 0, 0, 0, 0, 0, 0, 0, 0, 0};
                    uint32_t answer = 0;
    24fc:	80 e0       	ldi	r24, 0x00	; 0
    24fe:	90 e0       	ldi	r25, 0x00	; 0
    2500:	dc 01       	movw	r26, r24
    2502:	04 c0       	rjmp	.+8      	; 0x250c <ProcessInput+0xcc2>
                    if (data[3] == 'a') data[3] = 1;
                    else if (data[3] == 'e') data[3] = 0;
                    else if (data[3] == 'f') data[3] = 3;
                    else data[3] = 2;

                    if (data[1] & 2) answer += (1UL << 20);
    2504:	80 e0       	ldi	r24, 0x00	; 0
    2506:	90 e0       	ldi	r25, 0x00	; 0
    2508:	a0 e1       	ldi	r26, 0x10	; 16
    250a:	b0 e0       	ldi	r27, 0x00	; 0
                    if (data[1] & 1) answer += (1 << 8);
    250c:	20 ff       	sbrs	r18, 0
    250e:	03 c0       	rjmp	.+6      	; 0x2516 <ProcessInput+0xccc>
    2510:	9f 5f       	subi	r25, 0xFF	; 255
    2512:	af 4f       	sbci	r26, 0xFF	; 255
    2514:	bf 4f       	sbci	r27, 0xFF	; 255
                    if (data[3] & 2) answer += (1UL << 16);
    2516:	f8 01       	movw	r30, r16
    2518:	23 81       	ldd	r18, Z+3	; 0x03
    251a:	21 fd       	sbrc	r18, 1
    251c:	11 96       	adiw	r26, 0x01	; 1
                    if (data[3] & 1) answer += (1 << 4);
    251e:	20 ff       	sbrs	r18, 0
    2520:	03 c0       	rjmp	.+6      	; 0x2528 <ProcessInput+0xcde>
    2522:	40 96       	adiw	r24, 0x10	; 16
    2524:	a1 1d       	adc	r26, r1
    2526:	b1 1d       	adc	r27, r1
                    if (data[2] & 2) answer += (1 << 12);
    2528:	31 ff       	sbrs	r19, 1
    252a:	03 c0       	rjmp	.+6      	; 0x2532 <ProcessInput+0xce8>
    252c:	90 5f       	subi	r25, 0xF0	; 240
    252e:	af 4f       	sbci	r26, 0xFF	; 255
    2530:	bf 4f       	sbci	r27, 0xFF	; 255
                    if (data[2] & 1) answer += 1;
    2532:	30 ff       	sbrs	r19, 0
    2534:	03 c0       	rjmp	.+6      	; 0x253c <ProcessInput+0xcf2>
    2536:	01 96       	adiw	r24, 0x01	; 1
    2538:	a1 1d       	adc	r26, r1
    253a:	b1 1d       	adc	r27, r1
                    answer <<= (3 - whoami);            
    253c:	40 91 95 38 	lds	r20, 0x3895	; 0x803895 <whoami>
    2540:	23 e0       	ldi	r18, 0x03	; 3
    2542:	30 e0       	ldi	r19, 0x00	; 0
    2544:	24 1b       	sub	r18, r20
    2546:	31 09       	sbc	r19, r1
    2548:	bc 01       	movw	r22, r24
    254a:	cd 01       	movw	r24, r26
    254c:	04 c0       	rjmp	.+8      	; 0x2556 <ProcessInput+0xd0c>
    254e:	66 0f       	add	r22, r22
    2550:	77 1f       	adc	r23, r23
    2552:	88 1f       	adc	r24, r24
    2554:	99 1f       	adc	r25, r25
    2556:	2a 95       	dec	r18
    2558:	d2 f7       	brpl	.-12     	; 0x254e <ProcessInput+0xd04>
    return 0;
}

//
void SetResponse(uint8_t number, uint16_t address, uint16_t length, uint8_t type){
    reactStr[0][number]=address;
    255a:	26 e0       	ldi	r18, 0x06	; 6
    255c:	35 e7       	ldi	r19, 0x75	; 117
    255e:	20 93 48 39 	sts	0x3948, r18	; 0x803948 <reactStr>
    2562:	30 93 49 39 	sts	0x3949, r19	; 0x803949 <reactStr+0x1>
    reactStr[1][number]=length;
    2566:	20 e2       	ldi	r18, 0x20	; 32
    2568:	30 e0       	ldi	r19, 0x00	; 0
    256a:	20 93 88 39 	sts	0x3988, r18	; 0x803988 <reactStr+0x40>
    256e:	30 93 89 39 	sts	0x3989, r19	; 0x803989 <reactStr+0x41>
    reactStr[2][number]=type;
    2572:	21 e0       	ldi	r18, 0x01	; 1
    2574:	30 e0       	ldi	r19, 0x00	; 0
    2576:	20 93 c8 39 	sts	0x39C8, r18	; 0x8039c8 <reactStr+0x80>
    257a:	30 93 c9 39 	sts	0x39C9, r19	; 0x8039c9 <reactStr+0x81>
                    answer <<= (3 - whoami);            

                    SetResponse(elements++, A_YOURPART, L_YOURPART, TEASER);
                    
                    //Set up sending out number
                    for (n=9; n>=0; --n) {
    257e:	29 e0       	ldi	r18, 0x09	; 9
                        digit[n] = answer % 10;
    2580:	b2 2e       	mov	r11, r18
    2582:	3a e0       	ldi	r19, 0x0A	; 10
    2584:	43 2e       	mov	r4, r19
    2586:	51 2c       	mov	r5, r1
    2588:	61 2c       	mov	r6, r1
    258a:	71 2c       	mov	r7, r1
    258c:	67 01       	movw	r12, r14
    258e:	cb 0c       	add	r12, r11
    2590:	d1 1c       	adc	r13, r1
    2592:	a3 01       	movw	r20, r6
    2594:	92 01       	movw	r18, r4
    2596:	de d1       	rcall	.+956    	; 0x2954 <__udivmodsi4>
    2598:	d6 01       	movw	r26, r12
    259a:	6c 93       	st	X, r22
                        answer /= 10;
    259c:	b9 01       	movw	r22, r18
    259e:	ca 01       	movw	r24, r20
                        if (answer == 0) break;
    25a0:	61 15       	cp	r22, r1
    25a2:	71 05       	cpc	r23, r1
    25a4:	81 05       	cpc	r24, r1
    25a6:	91 05       	cpc	r25, r1
    25a8:	39 f4       	brne	.+14     	; 0x25b8 <ProcessInput+0xd6e>
    25aa:	e8 e4       	ldi	r30, 0x48	; 72
    25ac:	f9 e3       	ldi	r31, 0x39	; 57
    25ae:	77 24       	eor	r7, r7
    25b0:	73 94       	inc	r7
}

//
void SetResponse(uint8_t number, uint16_t address, uint16_t length, uint8_t type){
    reactStr[0][number]=address;
    reactStr[1][number]=length;
    25b2:	21 e0       	ldi	r18, 0x01	; 1
    25b4:	30 e0       	ldi	r19, 0x00	; 0
    25b6:	02 c0       	rjmp	.+4      	; 0x25bc <ProcessInput+0xd72>
                    answer <<= (3 - whoami);            

                    SetResponse(elements++, A_YOURPART, L_YOURPART, TEASER);
                    
                    //Set up sending out number
                    for (n=9; n>=0; --n) {
    25b8:	ba 94       	dec	r11
                        digit[n] = answer % 10;
                        answer /= 10;
                        if (answer == 0) break;
                    }
    25ba:	e8 cf       	rjmp	.-48     	; 0x258c <ProcessInput+0xd42>
    25bc:	32 96       	adiw	r30, 0x02	; 2
                    for (; n<10; ++n) {
    25be:	b9 e0       	ldi	r27, 0x09	; 9
    25c0:	bb 15       	cp	r27, r11
    25c2:	08 f4       	brcc	.+2      	; 0x25c6 <ProcessInput+0xd7c>
    25c4:	5f c0       	rjmp	.+190    	; 0x2684 <ProcessInput+0xe3a>
                        SetResponse(elements++, A_DIGITS+digit[n], 1, TEASER);
    25c6:	73 94       	inc	r7
    25c8:	d7 01       	movw	r26, r14
    25ca:	ab 0d       	add	r26, r11
    25cc:	b1 1d       	adc	r27, r1
    return 0;
}

//
void SetResponse(uint8_t number, uint16_t address, uint16_t length, uint8_t type){
    reactStr[0][number]=address;
    25ce:	8c 91       	ld	r24, X
    25d0:	90 e0       	ldi	r25, 0x00	; 0
    25d2:	8d 52       	subi	r24, 0x2D	; 45
    25d4:	9b 48       	sbci	r25, 0x8B	; 139
    25d6:	80 83       	st	Z, r24
    25d8:	91 83       	std	Z+1, r25	; 0x01
    reactStr[1][number]=length;
    25da:	df 01       	movw	r26, r30
    25dc:	a0 5c       	subi	r26, 0xC0	; 192
    25de:	bf 4f       	sbci	r27, 0xFF	; 255
    25e0:	2d 93       	st	X+, r18
    25e2:	3c 93       	st	X, r19
    25e4:	11 97       	sbiw	r26, 0x01	; 1
    reactStr[2][number]=type;
    25e6:	a0 5c       	subi	r26, 0xC0	; 192
    25e8:	bf 4f       	sbci	r27, 0xFF	; 255
    25ea:	2d 93       	st	X+, r18
    25ec:	3c 93       	st	X, r19
                    for (n=9; n>=0; --n) {
                        digit[n] = answer % 10;
                        answer /= 10;
                        if (answer == 0) break;
                    }
                    for (; n<10; ++n) {
    25ee:	b3 94       	inc	r11
    25f0:	e5 cf       	rjmp	.-54     	; 0x25bc <ProcessInput+0xd72>
    return 0;
}

//
void SetResponse(uint8_t number, uint16_t address, uint16_t length, uint8_t type){
    reactStr[0][number]=address;
    25f2:	86 e2       	ldi	r24, 0x26	; 38
    25f4:	95 e7       	ldi	r25, 0x75	; 117
    25f6:	80 93 48 39 	sts	0x3948, r24	; 0x803948 <reactStr>
    25fa:	90 93 49 39 	sts	0x3949, r25	; 0x803949 <reactStr+0x1>
    reactStr[1][number]=length;
    25fe:	8d e3       	ldi	r24, 0x3D	; 61
    2600:	90 e0       	ldi	r25, 0x00	; 0
    2602:	34 c0       	rjmp	.+104    	; 0x266c <ProcessInput+0xe22>
    2604:	e0 91 8f 38 	lds	r30, 0x388F	; 0x80388f <currDepth>
                    SetResponse(elements++, A_BADOFFERING, L_BADOFFERING, TEASER);
                }
            
            //Other questions    
            } else if (specialPassed == 1) {
                PopulateObject(route[currDepth+1], &actObj1);
    2608:	f0 e0       	ldi	r31, 0x00	; 0
    260a:	ee 0f       	add	r30, r30
    260c:	ff 1f       	adc	r31, r31
    260e:	e6 5f       	subi	r30, 0xF6	; 246
    2610:	f5 4c       	sbci	r31, 0xC5	; 197
    2612:	69 e0       	ldi	r22, 0x09	; 9
    2614:	79 e3       	ldi	r23, 0x39	; 57
                } else {
                    SetResponse(elements++, A_BADOFFERING, L_BADOFFERING, TEASER);
                }
            
            //Other questions    
            } else if (specialPassed == 1) {
    2616:	81 30       	cpi	r24, 0x01	; 1
    2618:	e9 f4       	brne	.+58     	; 0x2654 <ProcessInput+0xe0a>
                PopulateObject(route[currDepth+1], &actObj1);
    261a:	80 81       	ld	r24, Z
    261c:	91 81       	ldd	r25, Z+1	; 0x01
    261e:	0e 94 56 08 	call	0x10ac	; 0x10ac <PopulateObject>
                SetResponse(elements++, actObj1.addrStr[ACTION_MSG], actObj1.lenStr[ACTION_MSG], GAME);
    2622:	80 91 2f 39 	lds	r24, 0x392F	; 0x80392f <actObj1.3950+0x26>
    2626:	90 91 30 39 	lds	r25, 0x3930	; 0x803930 <actObj1.3950+0x27>
    return 0;
}

//
void SetResponse(uint8_t number, uint16_t address, uint16_t length, uint8_t type){
    reactStr[0][number]=address;
    262a:	20 91 21 39 	lds	r18, 0x3921	; 0x803921 <actObj1.3950+0x18>
    262e:	30 91 22 39 	lds	r19, 0x3922	; 0x803922 <actObj1.3950+0x19>
    2632:	20 93 48 39 	sts	0x3948, r18	; 0x803948 <reactStr>
    2636:	30 93 49 39 	sts	0x3949, r19	; 0x803949 <reactStr+0x1>
    reactStr[1][number]=length;
    263a:	80 93 88 39 	sts	0x3988, r24	; 0x803988 <reactStr+0x40>
    263e:	90 93 89 39 	sts	0x3989, r25	; 0x803989 <reactStr+0x41>
    reactStr[2][number]=type;
    2642:	10 92 c8 39 	sts	0x39C8, r1	; 0x8039c8 <reactStr+0x80>
    2646:	10 92 c9 39 	sts	0x39C9, r1	; 0x8039c9 <reactStr+0x81>
            
            //Other questions    
            } else if (specialPassed == 1) {
                PopulateObject(route[currDepth+1], &actObj1);
                SetResponse(elements++, actObj1.addrStr[ACTION_MSG], actObj1.lenStr[ACTION_MSG], GAME);
                UpdateState(actObj1.byteField[ACTION_STATE]);
    264a:	80 91 13 39 	lds	r24, 0x3913	; 0x803913 <actObj1.3950+0xa>
    264e:	0e 94 c8 08 	call	0x1190	; 0x1190 <UpdateState>
    2652:	16 c0       	rjmp	.+44     	; 0x2680 <ProcessInput+0xe36>
            } else {
                PopulateObject(route[currDepth+1], &actObj1);
    2654:	80 81       	ld	r24, Z
    2656:	91 81       	ldd	r25, Z+1	; 0x01
    2658:	0e 94 56 08 	call	0x10ac	; 0x10ac <PopulateObject>
    return 0;
}

//
void SetResponse(uint8_t number, uint16_t address, uint16_t length, uint8_t type){
    reactStr[0][number]=address;
    265c:	8e e9       	ldi	r24, 0x9E	; 158
    265e:	98 e7       	ldi	r25, 0x78	; 120
    2660:	80 93 48 39 	sts	0x3948, r24	; 0x803948 <reactStr>
    2664:	90 93 49 39 	sts	0x3949, r25	; 0x803949 <reactStr+0x1>
    reactStr[1][number]=length;
    2668:	82 e1       	ldi	r24, 0x12	; 18
    266a:	90 e0       	ldi	r25, 0x00	; 0
    266c:	80 93 88 39 	sts	0x3988, r24	; 0x803988 <reactStr+0x40>
    2670:	90 93 89 39 	sts	0x3989, r25	; 0x803989 <reactStr+0x41>
    reactStr[2][number]=type;
    2674:	81 e0       	ldi	r24, 0x01	; 1
    2676:	90 e0       	ldi	r25, 0x00	; 0
    2678:	80 93 c8 39 	sts	0x39C8, r24	; 0x8039c8 <reactStr+0x80>
    267c:	90 93 c9 39 	sts	0x39C9, r25	; 0x8039c9 <reactStr+0x81>
                PopulateObject(route[currDepth+1], &actObj1);
                SetResponse(elements++, actObj1.addrStr[ACTION_MSG], actObj1.lenStr[ACTION_MSG], GAME);
                UpdateState(actObj1.byteField[ACTION_STATE]);
            } else {
                PopulateObject(route[currDepth+1], &actObj1);
                SetResponse(elements++, A_INCORRECT, L_INCORRECT, TEASER);
    2680:	77 24       	eor	r7, r7
    2682:	73 94       	inc	r7
            }
            specialInput[0] = 0;
    2684:	10 92 37 39 	sts	0x3937, r1	; 0x803937 <specialInput>
            ;//No clue, no valid input...
                
        }
            
        //Input handled
        data[0] = 0;
    2688:	f8 01       	movw	r30, r16
    268a:	10 82       	st	Z, r1
        serRxDone = 0;
    268c:	10 92 9c 38 	sts	0x389C, r1	; 0x80389c <serRxDone>
        RXCNT = 0;
    2690:	1d ba       	out	0x1d, r1	; 29
        if (specialInput[0]) responseList = elements; else responseList = SetStandardResponse(elements);
    2692:	80 91 37 39 	lds	r24, 0x3937	; 0x803937 <specialInput>
    2696:	88 23       	and	r24, r24
    2698:	19 f0       	breq	.+6      	; 0x26a0 <ProcessInput+0xe56>
    269a:	70 92 47 39 	sts	0x3947, r7	; 0x803947 <responseList>
    269e:	86 c0       	rjmp	.+268    	; 0x27ac <ProcessInput+0xf62>
    26a0:	87 2d       	mov	r24, r7
    26a2:	0e 94 da 07 	call	0xfb4	; 0xfb4 <SetStandardResponse>
    26a6:	80 93 47 39 	sts	0x3947, r24	; 0x803947 <responseList>

    }
    
    return 0;
    26aa:	80 c0       	rjmp	.+256    	; 0x27ac <ProcessInput+0xf62>
    return 0;
}

//
void SetResponse(uint8_t number, uint16_t address, uint16_t length, uint8_t type){
    reactStr[0][number]=address;
    26ac:	84 ed       	ldi	r24, 0xD4	; 212
    26ae:	99 e7       	ldi	r25, 0x79	; 121
    26b0:	13 ce       	rjmp	.-986    	; 0x22d8 <ProcessInput+0xa8e>

        //Drop item if in inventory
        if (data[0] == 'd') {
            if ((inventory[0] == 0)&&(inventory[1] == 0)){
                SetResponse(elements++, A_EMPTYHANDS, L_EMPTYHANDS, TEASER);
            } else if (inputLen != 2) {
    26b2:	f2 e0       	ldi	r31, 0x02	; 2
    26b4:	ff 12       	cpse	r15, r31
    26b6:	f8 c8       	rjmp	.-3600   	; 0x18a8 <ProcessInput+0x5e>
                SetResponse(elements++, A_NOTPOSSIBLE, L_NOTPOSSIBLE, TEASER);
            } else {
                for (uint8_t x=0; x<2; ++x) {
                    if (inventory[x]) {
                        if (CheckLetter(inventory[x], data[1])) {
    26b8:	f8 01       	movw	r30, r16
    26ba:	61 81       	ldd	r22, Z+1	; 0x01
    26bc:	0e 94 e0 08 	call	0x11c0	; 0x11c0 <CheckLetter>
    26c0:	88 23       	and	r24, r24
    26c2:	09 f4       	brne	.+2      	; 0x26c6 <ProcessInput+0xe7c>
    26c4:	5a c0       	rjmp	.+180    	; 0x277a <ProcessInput+0xf30>
                SetResponse(elements++, A_EMPTYHANDS, L_EMPTYHANDS, TEASER);
            } else if (inputLen != 2) {
                SetResponse(elements++, A_NOTPOSSIBLE, L_NOTPOSSIBLE, TEASER);
            } else {
                for (uint8_t x=0; x<2; ++x) {
                    if (inventory[x]) {
    26c6:	80 e0       	ldi	r24, 0x00	; 0
    26c8:	90 e0       	ldi	r25, 0x00	; 0
                        if (CheckLetter(inventory[x], data[1])) {
                            PopulateObject(inventory[x], &actObj1);
    26ca:	88 0f       	add	r24, r24
    26cc:	99 1f       	adc	r25, r25
    26ce:	fc 01       	movw	r30, r24
    26d0:	ea 56       	subi	r30, 0x6A	; 106
    26d2:	f7 4c       	sbci	r31, 0xC7	; 199
    26d4:	7f 01       	movw	r14, r30
    26d6:	69 e0       	ldi	r22, 0x09	; 9
    26d8:	79 e3       	ldi	r23, 0x39	; 57
    26da:	80 81       	ld	r24, Z
    26dc:	91 81       	ldd	r25, Z+1	; 0x01
    26de:	0e 94 56 08 	call	0x10ac	; 0x10ac <PopulateObject>
    return 0;
}

//
void SetResponse(uint8_t number, uint16_t address, uint16_t length, uint8_t type){
    reactStr[0][number]=address;
    26e2:	84 ed       	ldi	r24, 0xD4	; 212
    26e4:	97 e7       	ldi	r25, 0x77	; 119
    26e6:	80 93 48 39 	sts	0x3948, r24	; 0x803948 <reactStr>
    26ea:	90 93 49 39 	sts	0x3949, r25	; 0x803949 <reactStr+0x1>
    reactStr[1][number]=length;
    26ee:	80 e1       	ldi	r24, 0x10	; 16
    26f0:	90 e0       	ldi	r25, 0x00	; 0
    26f2:	80 93 88 39 	sts	0x3988, r24	; 0x803988 <reactStr+0x40>
    26f6:	90 93 89 39 	sts	0x3989, r25	; 0x803989 <reactStr+0x41>
    reactStr[2][number]=type;
    26fa:	81 e0       	ldi	r24, 0x01	; 1
    26fc:	90 e0       	ldi	r25, 0x00	; 0
    26fe:	80 93 c8 39 	sts	0x39C8, r24	; 0x8039c8 <reactStr+0x80>
    2702:	90 93 c9 39 	sts	0x39C9, r25	; 0x8039c9 <reactStr+0x81>
                for (uint8_t x=0; x<2; ++x) {
                    if (inventory[x]) {
                        if (CheckLetter(inventory[x], data[1])) {
                            PopulateObject(inventory[x], &actObj1);
                            SetResponse(elements++, A_DROPPING, L_DROPPING, TEASER);
                            SetResponse(elements++, actObj1.addrStr[NAME], actObj1.lenStr[NAME], GAME);
    2706:	20 91 23 39 	lds	r18, 0x3923	; 0x803923 <actObj1.3950+0x1a>
    270a:	30 91 24 39 	lds	r19, 0x3924	; 0x803924 <actObj1.3950+0x1b>
    return 0;
}

//
void SetResponse(uint8_t number, uint16_t address, uint16_t length, uint8_t type){
    reactStr[0][number]=address;
    270e:	40 91 15 39 	lds	r20, 0x3915	; 0x803915 <actObj1.3950+0xc>
    2712:	50 91 16 39 	lds	r21, 0x3916	; 0x803916 <actObj1.3950+0xd>
    2716:	40 93 4a 39 	sts	0x394A, r20	; 0x80394a <reactStr+0x2>
    271a:	50 93 4b 39 	sts	0x394B, r21	; 0x80394b <reactStr+0x3>
    reactStr[1][number]=length;
    271e:	20 93 8a 39 	sts	0x398A, r18	; 0x80398a <reactStr+0x42>
    2722:	30 93 8b 39 	sts	0x398B, r19	; 0x80398b <reactStr+0x43>
    reactStr[2][number]=type;
    2726:	10 92 ca 39 	sts	0x39CA, r1	; 0x8039ca <reactStr+0x82>
    272a:	10 92 cb 39 	sts	0x39CB, r1	; 0x8039cb <reactStr+0x83>
    return 0;
}

//
void SetResponse(uint8_t number, uint16_t address, uint16_t length, uint8_t type){
    reactStr[0][number]=address;
    272e:	2b e5       	ldi	r18, 0x5B	; 91
    2730:	3a e7       	ldi	r19, 0x7A	; 122
    2732:	20 93 4c 39 	sts	0x394C, r18	; 0x80394c <reactStr+0x4>
    2736:	30 93 4d 39 	sts	0x394D, r19	; 0x80394d <reactStr+0x5>
    reactStr[1][number]=length;
    273a:	22 e0       	ldi	r18, 0x02	; 2
    273c:	30 e0       	ldi	r19, 0x00	; 0
    273e:	20 93 8c 39 	sts	0x398C, r18	; 0x80398c <reactStr+0x44>
    2742:	30 93 8d 39 	sts	0x398D, r19	; 0x80398d <reactStr+0x45>
    reactStr[2][number]=type;
    2746:	80 93 cc 39 	sts	0x39CC, r24	; 0x8039cc <reactStr+0x84>
    274a:	90 93 cd 39 	sts	0x39CD, r25	; 0x8039cd <reactStr+0x85>
    return 0;
}

//
void SetResponse(uint8_t number, uint16_t address, uint16_t length, uint8_t type){
    reactStr[0][number]=address;
    274e:	27 e9       	ldi	r18, 0x97	; 151
    2750:	37 e7       	ldi	r19, 0x77	; 119
    2752:	20 93 4e 39 	sts	0x394E, r18	; 0x80394e <reactStr+0x6>
    2756:	30 93 4f 39 	sts	0x394F, r19	; 0x80394f <reactStr+0x7>
    reactStr[1][number]=length;
    275a:	2d e3       	ldi	r18, 0x3D	; 61
    275c:	30 e0       	ldi	r19, 0x00	; 0
    275e:	20 93 8e 39 	sts	0x398E, r18	; 0x80398e <reactStr+0x46>
    2762:	30 93 8f 39 	sts	0x398F, r19	; 0x80398f <reactStr+0x47>
    reactStr[2][number]=type;
    2766:	80 93 ce 39 	sts	0x39CE, r24	; 0x8039ce <reactStr+0x86>
    276a:	90 93 cf 39 	sts	0x39CF, r25	; 0x8039cf <reactStr+0x87>
                            PopulateObject(inventory[x], &actObj1);
                            SetResponse(elements++, A_DROPPING, L_DROPPING, TEASER);
                            SetResponse(elements++, actObj1.addrStr[NAME], actObj1.lenStr[NAME], GAME);
                            SetResponse(elements++, A_LF, 2, TEASER);
                            SetResponse(elements++, A_RETURNING, L_RETURNING, TEASER);
                            inventory[x] = 0;
    276e:	d7 01       	movw	r26, r14
    2770:	1d 92       	st	X+, r1
    2772:	1c 92       	st	X, r1
                        if (CheckLetter(inventory[x], data[1])) {
                            PopulateObject(inventory[x], &actObj1);
                            SetResponse(elements++, A_DROPPING, L_DROPPING, TEASER);
                            SetResponse(elements++, actObj1.addrStr[NAME], actObj1.lenStr[NAME], GAME);
                            SetResponse(elements++, A_LF, 2, TEASER);
                            SetResponse(elements++, A_RETURNING, L_RETURNING, TEASER);
    2774:	e4 e0       	ldi	r30, 0x04	; 4
    2776:	7e 2e       	mov	r7, r30
                            inventory[x] = 0;
                            break;
    2778:	87 cf       	rjmp	.-242    	; 0x2688 <ProcessInput+0xe3e>
                SetResponse(elements++, A_EMPTYHANDS, L_EMPTYHANDS, TEASER);
            } else if (inputLen != 2) {
                SetResponse(elements++, A_NOTPOSSIBLE, L_NOTPOSSIBLE, TEASER);
            } else {
                for (uint8_t x=0; x<2; ++x) {
                    if (inventory[x]) {
    277a:	80 91 98 38 	lds	r24, 0x3898	; 0x803898 <inventory+0x2>
    277e:	90 91 99 38 	lds	r25, 0x3899	; 0x803899 <inventory+0x3>
    2782:	00 97       	sbiw	r24, 0x00	; 0
    2784:	51 f0       	breq	.+20     	; 0x279a <ProcessInput+0xf50>
                        if (CheckLetter(inventory[x], data[1])) {
    2786:	d8 01       	movw	r26, r16
    2788:	11 96       	adiw	r26, 0x01	; 1
    278a:	6c 91       	ld	r22, X
    278c:	0e 94 e0 08 	call	0x11c0	; 0x11c0 <CheckLetter>
    2790:	88 23       	and	r24, r24
    2792:	19 f0       	breq	.+6      	; 0x279a <ProcessInput+0xf50>
                SetResponse(elements++, A_EMPTYHANDS, L_EMPTYHANDS, TEASER);
            } else if (inputLen != 2) {
                SetResponse(elements++, A_NOTPOSSIBLE, L_NOTPOSSIBLE, TEASER);
            } else {
                for (uint8_t x=0; x<2; ++x) {
                    if (inventory[x]) {
    2794:	81 e0       	ldi	r24, 0x01	; 1
    2796:	90 e0       	ldi	r25, 0x00	; 0
    2798:	98 cf       	rjmp	.-208    	; 0x26ca <ProcessInput+0xe80>
    return 0;
}

//
void SetResponse(uint8_t number, uint16_t address, uint16_t length, uint8_t type){
    reactStr[0][number]=address;
    279a:	84 e6       	ldi	r24, 0x64	; 100
    279c:	99 e7       	ldi	r25, 0x79	; 121
    279e:	80 93 48 39 	sts	0x3948, r24	; 0x803948 <reactStr>
    27a2:	90 93 49 39 	sts	0x3949, r25	; 0x803949 <reactStr+0x1>
    reactStr[1][number]=length;
    27a6:	81 e2       	ldi	r24, 0x21	; 33
    27a8:	90 e0       	ldi	r25, 0x00	; 0
    27aa:	f3 c8       	rjmp	.-3610   	; 0x1992 <ProcessInput+0x148>
        if (specialInput[0]) responseList = elements; else responseList = SetStandardResponse(elements);

    }
    
    return 0;
}
    27ac:	80 e0       	ldi	r24, 0x00	; 0
    27ae:	2a 96       	adiw	r28, 0x0a	; 10
    27b0:	cd bf       	out	0x3d, r28	; 61
    27b2:	de bf       	out	0x3e, r29	; 62
    27b4:	df 91       	pop	r29
    27b6:	cf 91       	pop	r28
    27b8:	1f 91       	pop	r17
    27ba:	0f 91       	pop	r16
    27bc:	ff 90       	pop	r15
    27be:	ef 90       	pop	r14
    27c0:	df 90       	pop	r13
    27c2:	cf 90       	pop	r12
    27c4:	bf 90       	pop	r11
    27c6:	af 90       	pop	r10
    27c8:	9f 90       	pop	r9
    27ca:	8f 90       	pop	r8
    27cc:	7f 90       	pop	r7
    27ce:	6f 90       	pop	r6
    27d0:	5f 90       	pop	r5
    27d2:	4f 90       	pop	r4
    27d4:	08 95       	ret

000027d6 <TextAdventure>:


//MAIN GAME STRUCTURE
uint8_t TextAdventure(){
    27d6:	cf 93       	push	r28
    static uint8_t serInput[RXLEN];
    
    //Still sending data to serial?
    if (CheckSend()) return 1;
    27d8:	0e 94 bf 09 	call	0x137e	; 0x137e <CheckSend>
    27dc:	88 23       	and	r24, r24
    27de:	11 f0       	breq	.+4      	; 0x27e4 <TextAdventure+0xe>
    27e0:	c1 e0       	ldi	r28, 0x01	; 1
    27e2:	12 c0       	rjmp	.+36     	; 0x2808 <TextAdventure+0x32>

    //Not sending? Process next response part to send, if any.
    if (CheckResponse()) return 1;        
    27e4:	0e 94 13 0a 	call	0x1426	; 0x1426 <CheckResponse>
    27e8:	81 11       	cpse	r24, r1
    27ea:	fa cf       	rjmp	.-12     	; 0x27e0 <TextAdventure+0xa>

    //No responses to send, check if there is user input.
    if (CheckInput(&serInput[0])) return 2; 
    27ec:	8d e9       	ldi	r24, 0x9D	; 157
    27ee:	98 e3       	ldi	r25, 0x38	; 56
    27f0:	0e 94 5a 0a 	call	0x14b4	; 0x14b4 <CheckInput>
    27f4:	c8 2f       	mov	r28, r24
    27f6:	81 11       	cpse	r24, r1
    27f8:	06 c0       	rjmp	.+12     	; 0x2806 <TextAdventure+0x30>

    //Input found, process and save (changes only)
    ProcessInput(&serInput[0]);
    27fa:	8d e9       	ldi	r24, 0x9D	; 157
    27fc:	98 e3       	ldi	r25, 0x38	; 56
    27fe:	25 d8       	rcall	.-4022   	; 0x184a <ProcessInput>
    SaveGameState();
    2800:	0e 94 d5 05 	call	0xbaa	; 0xbaa <SaveGameState>

    return 0;
    2804:	01 c0       	rjmp	.+2      	; 0x2808 <TextAdventure+0x32>

    //Not sending? Process next response part to send, if any.
    if (CheckResponse()) return 1;        

    //No responses to send, check if there is user input.
    if (CheckInput(&serInput[0])) return 2; 
    2806:	c2 e0       	ldi	r28, 0x02	; 2
    //Input found, process and save (changes only)
    ProcessInput(&serInput[0]);
    SaveGameState();

    return 0;
    2808:	8c 2f       	mov	r24, r28
    280a:	cf 91       	pop	r28
    280c:	08 95       	ret

0000280e <main>:


//This is where it begins, inits first and main program in while(1) loop.
int main(void)
{
    Setup();
    280e:	0e 94 9f 01 	call	0x33e	; 0x33e <Setup>

    //SerSpeed(1);
    //unsigned char strTest[]="\aHckerHotel2020 badge pest!\b\b\b\b\bt\n";
    //SerSend(&strTest[0]);

    SerSpeed(255);
    2812:	8f ef       	ldi	r24, 0xFF	; 255
    2814:	0e 94 f2 04 	call	0x9e4	; 0x9e4 <SerSpeed>
    2818:	ae ea       	ldi	r26, 0xAE	; 174
    281a:	b9 ea       	ldi	r27, 0xA9	; 169
    ////Turn on LEDs on low setting to check for interrupt glitches

    //"Hacker"
    for (uint8_t n=0; n<6; n++){
        iLED[HCKR[R][n]] = 1;
    281c:	81 e0       	ldi	r24, 0x01	; 1
    281e:	ed 91       	ld	r30, X+
    2820:	f0 e0       	ldi	r31, 0x00	; 0
    2822:	e2 5f       	subi	r30, 0xF2	; 242
    2824:	f4 4c       	sbci	r31, 0xC4	; 196
    2826:	80 83       	st	Z, r24
        iLED[HCKR[G][n]] = 1;
    2828:	15 96       	adiw	r26, 0x05	; 5
    282a:	ec 91       	ld	r30, X
    282c:	15 97       	sbiw	r26, 0x05	; 5
    282e:	f0 e0       	ldi	r31, 0x00	; 0
    2830:	e2 5f       	subi	r30, 0xF2	; 242
    2832:	f4 4c       	sbci	r31, 0xC4	; 196
    2834:	80 83       	st	Z, r24

    SerSpeed(255);
    ////Turn on LEDs on low setting to check for interrupt glitches

    //"Hacker"
    for (uint8_t n=0; n<6; n++){
    2836:	29 ea       	ldi	r18, 0xA9	; 169
    2838:	a4 3b       	cpi	r26, 0xB4	; 180
    283a:	b2 07       	cpc	r27, r18
    283c:	81 f7       	brne	.-32     	; 0x281e <main+0x10>
    283e:	e0 ea       	ldi	r30, 0xA0	; 160
    2840:	f9 ea       	ldi	r31, 0xA9	; 169
        iLED[HCKR[G][n]] = 1;
    }

    //"Wings"
    for (uint8_t n=0; n<5; n++){
        iLED[WING[L][n]] = 1;
    2842:	91 e0       	ldi	r25, 0x01	; 1
    2844:	ef 01       	movw	r28, r30
    2846:	a5 81       	ldd	r26, Z+5	; 0x05
    2848:	b0 e0       	ldi	r27, 0x00	; 0
    284a:	a2 5f       	subi	r26, 0xF2	; 242
    284c:	b4 4c       	sbci	r27, 0xC4	; 196
    284e:	81 e0       	ldi	r24, 0x01	; 1
    2850:	9c 93       	st	X, r25
    2852:	31 96       	adiw	r30, 0x01	; 1
        iLED[WING[R][n]] = 1;
    2854:	a8 81       	ld	r26, Y
    2856:	b0 e0       	ldi	r27, 0x00	; 0
    2858:	a2 5f       	subi	r26, 0xF2	; 242
    285a:	b4 4c       	sbci	r27, 0xC4	; 196
    285c:	9c 93       	st	X, r25
        iLED[HCKR[R][n]] = 1;
        iLED[HCKR[G][n]] = 1;
    }

    //"Wings"
    for (uint8_t n=0; n<5; n++){
    285e:	29 ea       	ldi	r18, 0xA9	; 169
    2860:	e5 3a       	cpi	r30, 0xA5	; 165
    2862:	f2 07       	cpc	r31, r18
    2864:	79 f7       	brne	.-34     	; 0x2844 <main+0x36>
        iLED[WING[L][n]] = 1;
        iLED[WING[R][n]] = 1;
    }    

    //"Others"
    iLED[EYE[G][R]] = 1;
    2866:	e0 91 ac a9 	lds	r30, 0xA9AC	; 0x80a9ac <__bss_end+0x6e51>
    286a:	f0 e0       	ldi	r31, 0x00	; 0
    286c:	e2 5f       	subi	r30, 0xF2	; 242
    286e:	f4 4c       	sbci	r31, 0xC4	; 196
    2870:	80 83       	st	Z, r24
    iLED[EYE[G][L]] = 1;
    2872:	e0 91 ad a9 	lds	r30, 0xA9AD	; 0x80a9ad <__bss_end+0x6e52>
    2876:	f0 e0       	ldi	r31, 0x00	; 0
    2878:	e2 5f       	subi	r30, 0xF2	; 242
    287a:	f4 4c       	sbci	r31, 0xC4	; 196
    287c:	80 83       	st	Z, r24
    iLED[EYE[R][R]] = 1;
    287e:	e0 91 aa a9 	lds	r30, 0xA9AA	; 0x80a9aa <__bss_end+0x6e4f>
    2882:	f0 e0       	ldi	r31, 0x00	; 0
    2884:	e2 5f       	subi	r30, 0xF2	; 242
    2886:	f4 4c       	sbci	r31, 0xC4	; 196
    2888:	80 83       	st	Z, r24
    iLED[EYE[R][L]] = 1;
    288a:	e0 91 ab a9 	lds	r30, 0xA9AB	; 0x80a9ab <__bss_end+0x6e50>
    288e:	f0 e0       	ldi	r31, 0x00	; 0
    2890:	e2 5f       	subi	r30, 0xF2	; 242
    2892:	f4 4c       	sbci	r31, 0xC4	; 196
    2894:	80 83       	st	Z, r24
    iLED[GEM[R]] = 1;
    2896:	e0 91 9e a9 	lds	r30, 0xA99E	; 0x80a99e <__bss_end+0x6e43>
    289a:	f0 e0       	ldi	r31, 0x00	; 0
    289c:	e2 5f       	subi	r30, 0xF2	; 242
    289e:	f4 4c       	sbci	r31, 0xC4	; 196
    28a0:	80 83       	st	Z, r24
    iLED[GEM[G]] = 1;
    28a2:	e0 91 9f a9 	lds	r30, 0xA99F	; 0x80a99f <__bss_end+0x6e44>
    28a6:	f0 e0       	ldi	r31, 0x00	; 0
    28a8:	e2 5f       	subi	r30, 0xF2	; 242
    28aa:	f4 4c       	sbci	r31, 0xC4	; 196
    28ac:	80 83       	st	Z, r24
    iLED[RAT] = 1;
    28ae:	e0 91 9d a9 	lds	r30, 0xA99D	; 0x80a99d <__bss_end+0x6e42>
    28b2:	f0 e0       	ldi	r31, 0x00	; 0
    28b4:	e2 5f       	subi	r30, 0xF2	; 242
    28b6:	f4 4c       	sbci	r31, 0xC4	; 196
    28b8:	80 83       	st	Z, r24
    iLED[CAT] = 1;
    28ba:	e0 91 9c a9 	lds	r30, 0xA99C	; 0x80a99c <__bss_end+0x6e41>
    28be:	f0 e0       	ldi	r31, 0x00	; 0
    28c0:	e2 5f       	subi	r30, 0xF2	; 242
    28c2:	f4 4c       	sbci	r31, 0xC4	; 196
    28c4:	80 83       	st	Z, r24
    //uint8_t txBuffer[TXLEN];                    //Buffer for string data

    while (1)
    {
        GenerateAudio();
    28c6:	0e 94 ad 06 	call	0xd5a	; 0xd5a <GenerateAudio>

        if (buttonMark){
    28ca:	80 91 9a 38 	lds	r24, 0x389A	; 0x80389a <buttonMark>
    28ce:	88 23       	and	r24, r24
    28d0:	d1 f3       	breq	.-12     	; 0x28c6 <main+0xb8>
            buttonState = CheckButtons(buttonState);
    28d2:	80 91 8d 3a 	lds	r24, 0x3A8D	; 0x803a8d <buttonState>
    28d6:	0e 94 03 05 	call	0xa06	; 0xa06 <CheckButtons>
    28da:	80 93 8d 3a 	sts	0x3A8D, r24	; 0x803a8d <buttonState>
            buttonMark = 0;
    28de:	10 92 9a 38 	sts	0x389A, r1	; 0x80389a <buttonMark>
                    if (serTxDone){
                        txBuffer[0] = buttonState;
                        SerSend(&txBuffer[0]);
                    }
*/
            TextAdventure();
    28e2:	79 df       	rcall	.-270    	; 0x27d6 <TextAdventure>
          
            //Other games & user interaction checks
            //MagnetMaze();
            BastetDictates();
    28e4:	0e 94 23 07 	call	0xe46	; 0xe46 <BastetDictates>
            //LanyardCode();
            //MakeFriends();
             
            //Check light sensor status (added hysteresis to preserve writing cycles to internal EEPROM)
            if (adcPhot < 10) WriteStatusBit(116, 1);
    28e8:	80 91 eb 3a 	lds	r24, 0x3AEB	; 0x803aeb <adcPhot>
    28ec:	90 91 ec 3a 	lds	r25, 0x3AEC	; 0x803aec <adcPhot+0x1>
    28f0:	0a 97       	sbiw	r24, 0x0a	; 10
    28f2:	20 f4       	brcc	.+8      	; 0x28fc <main+0xee>
    28f4:	61 e0       	ldi	r22, 0x01	; 1
    28f6:	84 e7       	ldi	r24, 0x74	; 116
    28f8:	0e 94 5c 06 	call	0xcb8	; 0xcb8 <WriteStatusBit>
            if (adcPhot > 100) WriteStatusBit(116, 0);
    28fc:	80 91 eb 3a 	lds	r24, 0x3AEB	; 0x803aeb <adcPhot>
    2900:	90 91 ec 3a 	lds	r25, 0x3AEC	; 0x803aec <adcPhot+0x1>
    2904:	85 36       	cpi	r24, 0x65	; 101
    2906:	91 05       	cpc	r25, r1
    2908:	f0 f2       	brcs	.-68     	; 0x28c6 <main+0xb8>
    290a:	60 e0       	ldi	r22, 0x00	; 0
    290c:	84 e7       	ldi	r24, 0x74	; 116
    290e:	0e 94 5c 06 	call	0xcb8	; 0xcb8 <WriteStatusBit>
    2912:	d9 cf       	rjmp	.-78     	; 0x28c6 <main+0xb8>

00002914 <__udivmodqi4>:
    2914:	99 1b       	sub	r25, r25
    2916:	79 e0       	ldi	r23, 0x09	; 9
    2918:	04 c0       	rjmp	.+8      	; 0x2922 <__udivmodqi4_ep>

0000291a <__udivmodqi4_loop>:
    291a:	99 1f       	adc	r25, r25
    291c:	96 17       	cp	r25, r22
    291e:	08 f0       	brcs	.+2      	; 0x2922 <__udivmodqi4_ep>
    2920:	96 1b       	sub	r25, r22

00002922 <__udivmodqi4_ep>:
    2922:	88 1f       	adc	r24, r24
    2924:	7a 95       	dec	r23
    2926:	c9 f7       	brne	.-14     	; 0x291a <__udivmodqi4_loop>
    2928:	80 95       	com	r24
    292a:	08 95       	ret

0000292c <__udivmodhi4>:
    292c:	aa 1b       	sub	r26, r26
    292e:	bb 1b       	sub	r27, r27
    2930:	51 e1       	ldi	r21, 0x11	; 17
    2932:	07 c0       	rjmp	.+14     	; 0x2942 <__udivmodhi4_ep>

00002934 <__udivmodhi4_loop>:
    2934:	aa 1f       	adc	r26, r26
    2936:	bb 1f       	adc	r27, r27
    2938:	a6 17       	cp	r26, r22
    293a:	b7 07       	cpc	r27, r23
    293c:	10 f0       	brcs	.+4      	; 0x2942 <__udivmodhi4_ep>
    293e:	a6 1b       	sub	r26, r22
    2940:	b7 0b       	sbc	r27, r23

00002942 <__udivmodhi4_ep>:
    2942:	88 1f       	adc	r24, r24
    2944:	99 1f       	adc	r25, r25
    2946:	5a 95       	dec	r21
    2948:	a9 f7       	brne	.-22     	; 0x2934 <__udivmodhi4_loop>
    294a:	80 95       	com	r24
    294c:	90 95       	com	r25
    294e:	bc 01       	movw	r22, r24
    2950:	cd 01       	movw	r24, r26
    2952:	08 95       	ret

00002954 <__udivmodsi4>:
    2954:	a1 e2       	ldi	r26, 0x21	; 33
    2956:	1a 2e       	mov	r1, r26
    2958:	aa 1b       	sub	r26, r26
    295a:	bb 1b       	sub	r27, r27
    295c:	fd 01       	movw	r30, r26
    295e:	0d c0       	rjmp	.+26     	; 0x297a <__udivmodsi4_ep>

00002960 <__udivmodsi4_loop>:
    2960:	aa 1f       	adc	r26, r26
    2962:	bb 1f       	adc	r27, r27
    2964:	ee 1f       	adc	r30, r30
    2966:	ff 1f       	adc	r31, r31
    2968:	a2 17       	cp	r26, r18
    296a:	b3 07       	cpc	r27, r19
    296c:	e4 07       	cpc	r30, r20
    296e:	f5 07       	cpc	r31, r21
    2970:	20 f0       	brcs	.+8      	; 0x297a <__udivmodsi4_ep>
    2972:	a2 1b       	sub	r26, r18
    2974:	b3 0b       	sbc	r27, r19
    2976:	e4 0b       	sbc	r30, r20
    2978:	f5 0b       	sbc	r31, r21

0000297a <__udivmodsi4_ep>:
    297a:	66 1f       	adc	r22, r22
    297c:	77 1f       	adc	r23, r23
    297e:	88 1f       	adc	r24, r24
    2980:	99 1f       	adc	r25, r25
    2982:	1a 94       	dec	r1
    2984:	69 f7       	brne	.-38     	; 0x2960 <__udivmodsi4_loop>
    2986:	60 95       	com	r22
    2988:	70 95       	com	r23
    298a:	80 95       	com	r24
    298c:	90 95       	com	r25
    298e:	9b 01       	movw	r18, r22
    2990:	ac 01       	movw	r20, r24
    2992:	bd 01       	movw	r22, r26
    2994:	cf 01       	movw	r24, r30
    2996:	08 95       	ret

00002998 <_exit>:
    2998:	f8 94       	cli

0000299a <__stop_program>:
    299a:	ff cf       	rjmp	.-2      	; 0x299a <__stop_program>
