
ISR_IO.elf:     file format elf32-avr

Sections:
Idx Name          Size      VMA       LMA       File off  Algn
  0 .data         00000030  00803800  000040b6  0000416a  2**0
                  CONTENTS, ALLOC, LOAD, DATA
  1 .text         00003fbc  00000000  00000000  000000b4  2**1
                  CONTENTS, ALLOC, LOAD, READONLY, CODE
  2 .rodata       000000fa  0000bfbc  00003fbc  00004070  2**0
                  CONTENTS, ALLOC, LOAD, READONLY, DATA
  3 .bss          000002ec  00803830  00803830  0000419a  2**0
                  ALLOC
  4 .comment      00000030  00000000  00000000  0000419a  2**0
                  CONTENTS, READONLY
  5 .note.gnu.avr.deviceinfo 00000040  00000000  00000000  000041cc  2**2
                  CONTENTS, READONLY
  6 .debug_aranges 00000330  00000000  00000000  0000420c  2**0
                  CONTENTS, READONLY, DEBUGGING
  7 .debug_info   00006f29  00000000  00000000  0000453c  2**0
                  CONTENTS, READONLY, DEBUGGING
  8 .debug_abbrev 000028ea  00000000  00000000  0000b465  2**0
                  CONTENTS, READONLY, DEBUGGING
  9 .debug_line   00003e12  00000000  00000000  0000dd4f  2**0
                  CONTENTS, READONLY, DEBUGGING
 10 .debug_frame  000009c0  00000000  00000000  00011b64  2**2
                  CONTENTS, READONLY, DEBUGGING
 11 .debug_str    00001a87  00000000  00000000  00012524  2**0
                  CONTENTS, READONLY, DEBUGGING
 12 .debug_loc    000045c3  00000000  00000000  00013fab  2**0
                  CONTENTS, READONLY, DEBUGGING
 13 .debug_ranges 000003b8  00000000  00000000  0001856e  2**0
                  CONTENTS, READONLY, DEBUGGING

Disassembly of section .text:

00000000 <__vectors>:
       0:	3d c0       	rjmp	.+122    	; 0x7c <__ctors_end>
       2:	00 00       	nop
       4:	58 c0       	rjmp	.+176    	; 0xb6 <__bad_interrupt>
       6:	00 00       	nop
       8:	56 c0       	rjmp	.+172    	; 0xb6 <__bad_interrupt>
       a:	00 00       	nop
       c:	54 c0       	rjmp	.+168    	; 0xb6 <__bad_interrupt>
       e:	00 00       	nop
      10:	52 c0       	rjmp	.+164    	; 0xb6 <__bad_interrupt>
      12:	00 00       	nop
      14:	50 c0       	rjmp	.+160    	; 0xb6 <__bad_interrupt>
      16:	00 00       	nop
      18:	d0 c7       	rjmp	.+4000   	; 0xfba <__vector_6>
      1a:	00 00       	nop
      1c:	0c 94 34 08 	jmp	0x1068	; 0x1068 <__vector_7>
      20:	ff c5       	rjmp	.+3070   	; 0xc20 <__vector_8>
      22:	00 00       	nop
      24:	48 c0       	rjmp	.+144    	; 0xb6 <__bad_interrupt>
      26:	00 00       	nop
      28:	46 c0       	rjmp	.+140    	; 0xb6 <__bad_interrupt>
      2a:	00 00       	nop
      2c:	44 c0       	rjmp	.+136    	; 0xb6 <__bad_interrupt>
      2e:	00 00       	nop
      30:	42 c0       	rjmp	.+132    	; 0xb6 <__bad_interrupt>
      32:	00 00       	nop
      34:	46 c6       	rjmp	.+3212   	; 0xcc2 <__vector_13>
      36:	00 00       	nop
      38:	77 c6       	rjmp	.+3310   	; 0xd28 <__vector_14>
      3a:	00 00       	nop
      3c:	3c c0       	rjmp	.+120    	; 0xb6 <__bad_interrupt>
      3e:	00 00       	nop
      40:	3a c0       	rjmp	.+116    	; 0xb6 <__bad_interrupt>
      42:	00 00       	nop
      44:	38 c0       	rjmp	.+112    	; 0xb6 <__bad_interrupt>
      46:	00 00       	nop
      48:	36 c0       	rjmp	.+108    	; 0xb6 <__bad_interrupt>
      4a:	00 00       	nop
      4c:	34 c0       	rjmp	.+104    	; 0xb6 <__bad_interrupt>
      4e:	00 00       	nop
      50:	35 c7       	rjmp	.+3690   	; 0xebc <__vector_20>
      52:	00 00       	nop
      54:	30 c0       	rjmp	.+96     	; 0xb6 <__bad_interrupt>
      56:	00 00       	nop
      58:	68 c7       	rjmp	.+3792   	; 0xf2a <__vector_22>
      5a:	00 00       	nop
      5c:	2c c0       	rjmp	.+88     	; 0xb6 <__bad_interrupt>
      5e:	00 00       	nop
      60:	2a c0       	rjmp	.+84     	; 0xb6 <__bad_interrupt>
      62:	00 00       	nop
      64:	28 c0       	rjmp	.+80     	; 0xb6 <__bad_interrupt>
      66:	00 00       	nop
      68:	26 c0       	rjmp	.+76     	; 0xb6 <__bad_interrupt>
      6a:	00 00       	nop
      6c:	b0 c6       	rjmp	.+3424   	; 0xdce <__vector_27>
      6e:	00 00       	nop
      70:	09 c7       	rjmp	.+3602   	; 0xe84 <__vector_28>
      72:	00 00       	nop
      74:	20 c0       	rjmp	.+64     	; 0xb6 <__bad_interrupt>
      76:	00 00       	nop
      78:	1e c0       	rjmp	.+60     	; 0xb6 <__bad_interrupt>
	...

0000007c <__ctors_end>:
      7c:	11 24       	eor	r1, r1
      7e:	1f be       	out	0x3f, r1	; 63
      80:	cf ef       	ldi	r28, 0xFF	; 255
      82:	cd bf       	out	0x3d, r28	; 61
      84:	df e3       	ldi	r29, 0x3F	; 63
      86:	de bf       	out	0x3e, r29	; 62

00000088 <__do_copy_data>:
      88:	18 e3       	ldi	r17, 0x38	; 56
      8a:	a0 e0       	ldi	r26, 0x00	; 0
      8c:	b8 e3       	ldi	r27, 0x38	; 56
      8e:	e6 eb       	ldi	r30, 0xB6	; 182
      90:	f0 e4       	ldi	r31, 0x40	; 64
      92:	02 c0       	rjmp	.+4      	; 0x98 <__do_copy_data+0x10>
      94:	05 90       	lpm	r0, Z+
      96:	0d 92       	st	X+, r0
      98:	a0 33       	cpi	r26, 0x30	; 48
      9a:	b1 07       	cpc	r27, r17
      9c:	d9 f7       	brne	.-10     	; 0x94 <__do_copy_data+0xc>

0000009e <__do_clear_bss>:
      9e:	2b e3       	ldi	r18, 0x3B	; 59
      a0:	a0 e3       	ldi	r26, 0x30	; 48
      a2:	b8 e3       	ldi	r27, 0x38	; 56
      a4:	01 c0       	rjmp	.+2      	; 0xa8 <.do_clear_bss_start>

000000a6 <.do_clear_bss_loop>:
      a6:	1d 92       	st	X+, r1

000000a8 <.do_clear_bss_start>:
      a8:	ac 31       	cpi	r26, 0x1C	; 28
      aa:	b2 07       	cpc	r27, r18
      ac:	e1 f7       	brne	.-8      	; 0xa6 <.do_clear_bss_loop>
      ae:	0e 94 60 1f 	call	0x3ec0	; 0x3ec0 <main>
      b2:	0c 94 dc 1f 	jmp	0x3fb8	; 0x3fb8 <_exit>

000000b6 <__bad_interrupt>:
      b6:	a4 cf       	rjmp	.-184    	; 0x0 <__vectors>

000000b8 <chkVolt250>:
#include <main_def.h>
#include <resources.h>
#include <I2C.h>

//Returns measured voltage * 4 (2V returns 8) if it is in the expected range (DELTA)
uint8_t chkVolt250(){
      b8:	20 91 34 38 	lds	r18, 0x3834	; 0x803834 <avgVolt.3782>
      bc:	85 e1       	ldi	r24, 0x15	; 21
      be:	90 e0       	ldi	r25, 0x00	; 0
    static uint8_t avgVolt = 0;
        
    for (uint8_t x=25; x<226; x+=25) {
        if ((auIn[0] > (x-DELTA)) && (auIn[0] < (x+DELTA))) {
      c0:	40 91 c4 3a 	lds	r20, 0x3AC4	; 0x803ac4 <auIn>
      c4:	50 e0       	ldi	r21, 0x00	; 0
      c6:	48 17       	cp	r20, r24
      c8:	59 07       	cpc	r21, r25
      ca:	74 f0       	brlt	.+28     	; 0xe8 <chkVolt250+0x30>
      cc:	40 91 c4 3a 	lds	r20, 0x3AC4	; 0x803ac4 <auIn>
      d0:	50 e0       	ldi	r21, 0x00	; 0
      d2:	bc 01       	movw	r22, r24
      d4:	68 5f       	subi	r22, 0xF8	; 248
      d6:	7f 4f       	sbci	r23, 0xFF	; 255
      d8:	64 17       	cp	r22, r20
      da:	75 07       	cpc	r23, r21
      dc:	2c f0       	brlt	.+10     	; 0xe8 <chkVolt250+0x30>
      de:	20 93 34 38 	sts	0x3834, r18	; 0x803834 <avgVolt.3782>
            break;
        }
        ++avgVolt;
    }
    return avgVolt;
      e2:	80 91 34 38 	lds	r24, 0x3834	; 0x803834 <avgVolt.3782>
      e6:	08 95       	ret
        
    for (uint8_t x=25; x<226; x+=25) {
        if ((auIn[0] > (x-DELTA)) && (auIn[0] < (x+DELTA))) {
            break;
        }
        ++avgVolt;
      e8:	2f 5f       	subi	r18, 0xFF	; 255
      ea:	49 96       	adiw	r24, 0x19	; 25

//Returns measured voltage * 4 (2V returns 8) if it is in the expected range (DELTA)
uint8_t chkVolt250(){
    static uint8_t avgVolt = 0;
        
    for (uint8_t x=25; x<226; x+=25) {
      ec:	86 3f       	cpi	r24, 0xF6	; 246
      ee:	91 05       	cpc	r25, r1
      f0:	39 f7       	brne	.-50     	; 0xc0 <chkVolt250+0x8>
      f2:	f5 cf       	rjmp	.-22     	; 0xde <chkVolt250+0x26>

000000f4 <MakeFriends>:
    }
    return avgVolt;
}

// Main game loop
uint8_t MakeFriends(){
      f4:	ef 92       	push	r14
      f6:	ff 92       	push	r15
      f8:	0f 93       	push	r16
      fa:	1f 93       	push	r17
      fc:	cf 93       	push	r28
      fe:	df 93       	push	r29
     100:	c4 e6       	ldi	r28, 0x64	; 100
    static uint8_t chkTmr = 0;
    static uint8_t jackIn = 0;
    static uint8_t candidate = 0;

    //Check if badge has found 3 friends
    uint8_t foundAll = 1;
     102:	d1 e0       	ldi	r29, 0x01	; 1
    for (uint8_t x=0; x<4; x++){
        if (CheckState(100+x) == 0) foundAll = 0;
     104:	8c 2f       	mov	r24, r28
     106:	0e 94 65 0a 	call	0x14ca	; 0x14ca <CheckState>
     10a:	81 11       	cpse	r24, r1
     10c:	01 c0       	rjmp	.+2      	; 0x110 <MakeFriends+0x1c>
     10e:	d0 e0       	ldi	r29, 0x00	; 0
     110:	cf 5f       	subi	r28, 0xFF	; 255
    static uint8_t jackIn = 0;
    static uint8_t candidate = 0;

    //Check if badge has found 3 friends
    uint8_t foundAll = 1;
    for (uint8_t x=0; x<4; x++){
     112:	c8 36       	cpi	r28, 0x68	; 104
     114:	b9 f7       	brne	.-18     	; 0x104 <MakeFriends+0x10>
        if (CheckState(100+x) == 0) foundAll = 0;
    }
    if (foundAll) UpdateState(124);
     116:	dd 23       	and	r29, r29
     118:	19 f0       	breq	.+6      	; 0x120 <MakeFriends+0x2c>
     11a:	8c e7       	ldi	r24, 0x7C	; 124
     11c:	0e 94 5b 0a 	call	0x14b6	; 0x14b6 <UpdateState>


    //Checking for headphones
    if (detHdPh) return 0;
     120:	80 91 c1 3a 	lds	r24, 0x3AC1	; 0x803ac1 <detHdPh>
     124:	81 11       	cpse	r24, r1
     126:	1e c1       	rjmp	.+572    	; 0x364 <MakeFriends+0x270>

    //Audio off, set voltage level (setDAC[0]*10mV)
    if (progress == NO_OTHER) {
     128:	80 91 33 38 	lds	r24, 0x3833	; 0x803833 <progress.3789>
     12c:	81 11       	cpse	r24, r1
     12e:	11 c0       	rjmp	.+34     	; 0x152 <MakeFriends+0x5e>
        setDAC[0] = whoami * 50;
     130:	90 91 3f 38 	lds	r25, 0x383F	; 0x80383f <whoami>
     134:	22 e3       	ldi	r18, 0x32	; 50
     136:	92 9f       	mul	r25, r18
     138:	90 2d       	mov	r25, r0
     13a:	11 24       	eor	r1, r1
     13c:	90 93 00 38 	sts	0x3800, r25	; 0x803800 <__data_start>
        auRepAddr = &setDAC[0];
     140:	20 e0       	ldi	r18, 0x00	; 0
     142:	38 e3       	ldi	r19, 0x38	; 56
     144:	20 93 03 38 	sts	0x3803, r18	; 0x803803 <auRepAddr>
     148:	30 93 04 38 	sts	0x3804, r19	; 0x803804 <auRepAddr+0x1>
        auVolume = 255;
     14c:	9f ef       	ldi	r25, 0xFF	; 255
     14e:	90 93 b8 3a 	sts	0x3AB8, r25	; 0x803ab8 <auVolume>
    }

    //Check for other badges
    if ((auIn[0] < (setDAC[0] - DELTA)) || (auIn[0] > (setDAC[0] + DELTA)) ||((progress > FIRST_CONTACT))) {
     152:	40 91 c4 3a 	lds	r20, 0x3AC4	; 0x803ac4 <auIn>
     156:	20 91 00 38 	lds	r18, 0x3800	; 0x803800 <__data_start>
     15a:	30 e0       	ldi	r19, 0x00	; 0
     15c:	50 e0       	ldi	r21, 0x00	; 0
     15e:	b9 01       	movw	r22, r18
     160:	65 50       	subi	r22, 0x05	; 5
     162:	71 09       	sbc	r23, r1
     164:	46 17       	cp	r20, r22
     166:	57 07       	cpc	r21, r23
     168:	64 f0       	brlt	.+24     	; 0x182 <MakeFriends+0x8e>
     16a:	40 91 c4 3a 	lds	r20, 0x3AC4	; 0x803ac4 <auIn>
     16e:	50 e0       	ldi	r21, 0x00	; 0
     170:	2b 5f       	subi	r18, 0xFB	; 251
     172:	3f 4f       	sbci	r19, 0xFF	; 255
     174:	24 17       	cp	r18, r20
     176:	35 07       	cpc	r19, r21
     178:	24 f0       	brlt	.+8      	; 0x182 <MakeFriends+0x8e>
     17a:	82 30       	cpi	r24, 0x02	; 2
     17c:	08 f0       	brcs	.+2      	; 0x180 <MakeFriends+0x8c>
     17e:	40 c0       	rjmp	.+128    	; 0x200 <MakeFriends+0x10c>
     180:	ef c0       	rjmp	.+478    	; 0x360 <MakeFriends+0x26c>
        if (progress == NO_OTHER) {
     182:	81 11       	cpse	r24, r1
     184:	0a c0       	rjmp	.+20     	; 0x19a <MakeFriends+0xa6>
            ++chkTmr;
     186:	80 91 32 38 	lds	r24, 0x3832	; 0x803832 <chkTmr.3791>
     18a:	8f 5f       	subi	r24, 0xFF	; 255
     18c:	80 93 32 38 	sts	0x3832, r24	; 0x803832 <chkTmr.3791>
            if (chkTmr >= 8) {
     190:	88 30       	cpi	r24, 0x08	; 8
     192:	08 f4       	brcc	.+2      	; 0x196 <MakeFriends+0xa2>
     194:	e7 c0       	rjmp	.+462    	; 0x364 <MakeFriends+0x270>
                progress = FIRST_CONTACT;
     196:	81 e0       	ldi	r24, 0x01	; 1
     198:	81 c0       	rjmp	.+258    	; 0x29c <MakeFriends+0x1a8>
                chkTmr = 0;
            }
        }

        //Candidate found, check ranges
        else if (progress == FIRST_CONTACT) {
     19a:	81 30       	cpi	r24, 0x01	; 1
     19c:	89 f5       	brne	.+98     	; 0x200 <MakeFriends+0x10c>
            jackIn = chkVolt250();
     19e:	8c df       	rcall	.-232    	; 0xb8 <chkVolt250>
     1a0:	80 93 31 38 	sts	0x3831, r24	; 0x803831 <jackIn.3792>
            if (jackIn) {
     1a4:	88 23       	and	r24, r24
     1a6:	49 f1       	breq	.+82     	; 0x1fa <MakeFriends+0x106>
                ++chkTmr;
     1a8:	90 91 32 38 	lds	r25, 0x3832	; 0x803832 <chkTmr.3791>
     1ac:	9f 5f       	subi	r25, 0xFF	; 255
     1ae:	90 93 32 38 	sts	0x3832, r25	; 0x803832 <chkTmr.3791>
                if (chkTmr >= SHORT_WAIT){
     1b2:	98 30       	cpi	r25, 0x08	; 8
     1b4:	08 f4       	brcc	.+2      	; 0x1b8 <MakeFriends+0xc4>
     1b6:	d6 c0       	rjmp	.+428    	; 0x364 <MakeFriends+0x270>
                    if ((whoami == 1)&&((jackIn == 3)||(jackIn == 4)||(jackIn == 5))) {
     1b8:	90 91 3f 38 	lds	r25, 0x383F	; 0x80383f <whoami>
     1bc:	91 30       	cpi	r25, 0x01	; 1
     1be:	29 f4       	brne	.+10     	; 0x1ca <MakeFriends+0xd6>
     1c0:	83 50       	subi	r24, 0x03	; 3
     1c2:	83 30       	cpi	r24, 0x03	; 3
     1c4:	b8 f4       	brcc	.+46     	; 0x1f4 <MakeFriends+0x100>
                        progress = SECOND_LOVE; 
     1c6:	82 e0       	ldi	r24, 0x02	; 2
     1c8:	69 c0       	rjmp	.+210    	; 0x29c <MakeFriends+0x1a8>
                    } else if ((whoami == 2)&&((jackIn == 3)||(jackIn == 5)||(jackIn == 6))) {
     1ca:	92 30       	cpi	r25, 0x02	; 2
     1cc:	31 f4       	brne	.+12     	; 0x1da <MakeFriends+0xe6>
     1ce:	83 30       	cpi	r24, 0x03	; 3
     1d0:	d1 f3       	breq	.-12     	; 0x1c6 <MakeFriends+0xd2>
     1d2:	85 50       	subi	r24, 0x05	; 5
     1d4:	82 30       	cpi	r24, 0x02	; 2
     1d6:	70 f4       	brcc	.+28     	; 0x1f4 <MakeFriends+0x100>
     1d8:	f6 cf       	rjmp	.-20     	; 0x1c6 <MakeFriends+0xd2>
                        progress = SECOND_LOVE;
                    } else  if ((whoami == 3)&&((jackIn == 4)||(jackIn == 5)||(jackIn == 7))) {
     1da:	93 30       	cpi	r25, 0x03	; 3
     1dc:	39 f4       	brne	.+14     	; 0x1ec <MakeFriends+0xf8>
     1de:	9c ef       	ldi	r25, 0xFC	; 252
     1e0:	98 0f       	add	r25, r24
     1e2:	92 30       	cpi	r25, 0x02	; 2
     1e4:	80 f3       	brcs	.-32     	; 0x1c6 <MakeFriends+0xd2>
     1e6:	87 30       	cpi	r24, 0x07	; 7
     1e8:	29 f4       	brne	.+10     	; 0x1f4 <MakeFriends+0x100>
     1ea:	ed cf       	rjmp	.-38     	; 0x1c6 <MakeFriends+0xd2>
                        progress = SECOND_LOVE;
                    } else if ((whoami == 4)&&((jackIn == 5)||(jackIn == 6)||(jackIn == 7))) {
     1ec:	94 30       	cpi	r25, 0x04	; 4
     1ee:	11 f4       	brne	.+4      	; 0x1f4 <MakeFriends+0x100>
     1f0:	85 50       	subi	r24, 0x05	; 5
     1f2:	e7 cf       	rjmp	.-50     	; 0x1c2 <MakeFriends+0xce>
                        progress = SECOND_LOVE;
                    } else progress = NO_OTHER;
     1f4:	10 92 33 38 	sts	0x3833, r1	; 0x803833 <progress.3789>
     1f8:	53 c0       	rjmp	.+166    	; 0x2a0 <MakeFriends+0x1ac>
                    chkTmr = 0;
                }
            } else {
                chkTmr = 0;
     1fa:	10 92 32 38 	sts	0x3832, r1	; 0x803832 <chkTmr.3791>
     1fe:	b0 c0       	rjmp	.+352    	; 0x360 <MakeFriends+0x26c>
                progress = NO_OTHER;
            }
        }

        //Wait for the other badge (and a bit longer)
        else if (progress == SECOND_LOVE){
     200:	82 30       	cpi	r24, 0x02	; 2
     202:	09 f0       	breq	.+2      	; 0x206 <MakeFriends+0x112>
     204:	50 c0       	rjmp	.+160    	; 0x2a6 <MakeFriends+0x1b2>
            ++chkTmr;
     206:	80 91 32 38 	lds	r24, 0x3832	; 0x803832 <chkTmr.3791>
     20a:	8f 5f       	subi	r24, 0xFF	; 255
     20c:	80 93 32 38 	sts	0x3832, r24	; 0x803832 <chkTmr.3791>
     210:	c8 ee       	ldi	r28, 0xE8	; 232
     212:	df eb       	ldi	r29, 0xBF	; 191
     214:	7e 01       	movw	r14, r28
            for (uint8_t x=0; x<5; ++x){
                iLED[WING[L][x]] = (lfsr() > 127)?dimValue:0;
     216:	0d 81       	ldd	r16, Y+5	; 0x05
     218:	10 e0       	ldi	r17, 0x00	; 0
     21a:	0e 94 37 09 	call	0x126e	; 0x126e <lfsr>
     21e:	87 ff       	sbrs	r24, 7
     220:	03 c0       	rjmp	.+6      	; 0x228 <MakeFriends+0x134>
     222:	80 91 0c 38 	lds	r24, 0x380C	; 0x80380c <dimValue>
     226:	01 c0       	rjmp	.+2      	; 0x22a <MakeFriends+0x136>
     228:	80 e0       	ldi	r24, 0x00	; 0
     22a:	f8 01       	movw	r30, r16
     22c:	e4 53       	subi	r30, 0x34	; 52
     22e:	f5 4c       	sbci	r31, 0xC5	; 197
     230:	80 83       	st	Z, r24
     232:	21 96       	adiw	r28, 0x01	; 1
                iLED[WING[R][x]] = (lfsr() > 127)?dimValue:0;
     234:	f7 01       	movw	r30, r14
     236:	00 81       	ld	r16, Z
     238:	10 e0       	ldi	r17, 0x00	; 0
     23a:	0e 94 37 09 	call	0x126e	; 0x126e <lfsr>
     23e:	87 ff       	sbrs	r24, 7
     240:	03 c0       	rjmp	.+6      	; 0x248 <MakeFriends+0x154>
     242:	80 91 0c 38 	lds	r24, 0x380C	; 0x80380c <dimValue>
     246:	01 c0       	rjmp	.+2      	; 0x24a <MakeFriends+0x156>
     248:	80 e0       	ldi	r24, 0x00	; 0
     24a:	f8 01       	movw	r30, r16
     24c:	e4 53       	subi	r30, 0x34	; 52
     24e:	f5 4c       	sbci	r31, 0xC5	; 197
     250:	80 83       	st	Z, r24
        }

        //Wait for the other badge (and a bit longer)
        else if (progress == SECOND_LOVE){
            ++chkTmr;
            for (uint8_t x=0; x<5; ++x){
     252:	ff eb       	ldi	r31, 0xBF	; 191
     254:	cd 3e       	cpi	r28, 0xED	; 237
     256:	df 07       	cpc	r29, r31
     258:	e9 f6       	brne	.-70     	; 0x214 <MakeFriends+0x120>
                iLED[WING[L][x]] = (lfsr() > 127)?dimValue:0;
                iLED[WING[R][x]] = (lfsr() > 127)?dimValue:0;
            }
            if (chkTmr >= SHORT_WAIT) {
     25a:	80 91 32 38 	lds	r24, 0x3832	; 0x803832 <chkTmr.3791>
     25e:	88 30       	cpi	r24, 0x08	; 8
     260:	40 f0       	brcs	.+16     	; 0x272 <MakeFriends+0x17e>
                setDAC[0] = floatAround(0x80, 8, 100, 255); 
     262:	2f ef       	ldi	r18, 0xFF	; 255
     264:	44 e6       	ldi	r20, 0x64	; 100
     266:	68 e0       	ldi	r22, 0x08	; 8
     268:	80 e8       	ldi	r24, 0x80	; 128
     26a:	0e 94 88 09 	call	0x1310	; 0x1310 <floatAround>
     26e:	80 93 00 38 	sts	0x3800, r24	; 0x803800 <__data_start>
            }
            //The badge with the lowest voltage will now go to 2.5V (impedance check, for people tricking the things with a power supply)
            if (chkTmr >= LONG_WAIT){
     272:	80 91 32 38 	lds	r24, 0x3832	; 0x803832 <chkTmr.3791>
     276:	8a 3f       	cpi	r24, 0xFA	; 250
     278:	08 f4       	brcc	.+2      	; 0x27c <MakeFriends+0x188>
     27a:	74 c0       	rjmp	.+232    	; 0x364 <MakeFriends+0x270>
                candidate = jackIn-whoami;
     27c:	90 91 3f 38 	lds	r25, 0x383F	; 0x80383f <whoami>
     280:	80 91 31 38 	lds	r24, 0x3831	; 0x803831 <jackIn.3792>
     284:	89 1b       	sub	r24, r25
     286:	80 93 30 38 	sts	0x3830, r24	; 0x803830 <__data_end>
                if (candidate > whoami) setDAC[0] = 250; else setDAC[0] = 0;
     28a:	98 17       	cp	r25, r24
     28c:	20 f4       	brcc	.+8      	; 0x296 <MakeFriends+0x1a2>
     28e:	8a ef       	ldi	r24, 0xFA	; 250
     290:	80 93 00 38 	sts	0x3800, r24	; 0x803800 <__data_start>
     294:	02 c0       	rjmp	.+4      	; 0x29a <MakeFriends+0x1a6>
     296:	10 92 00 38 	sts	0x3800, r1	; 0x803800 <__data_start>
                progress = THIRD_KISS;
     29a:	83 e0       	ldi	r24, 0x03	; 3
     29c:	80 93 33 38 	sts	0x3833, r24	; 0x803833 <progress.3789>
                chkTmr = 0;
     2a0:	10 92 32 38 	sts	0x3832, r1	; 0x803832 <chkTmr.3791>
     2a4:	5f c0       	rjmp	.+190    	; 0x364 <MakeFriends+0x270>
            }
        } 
        
        //Wait a bit, check Voltage again, if ok show who you connected with and your own number, save, exit
        else if (progress == THIRD_KISS) {
     2a6:	83 30       	cpi	r24, 0x03	; 3
     2a8:	e1 f5       	brne	.+120    	; 0x322 <MakeFriends+0x22e>
            chkTmr++;
     2aa:	80 91 32 38 	lds	r24, 0x3832	; 0x803832 <chkTmr.3791>
     2ae:	8f 5f       	subi	r24, 0xFF	; 255
     2b0:	80 93 32 38 	sts	0x3832, r24	; 0x803832 <chkTmr.3791>
            if (chkTmr >= SHORT_WAIT) {
     2b4:	88 30       	cpi	r24, 0x08	; 8
     2b6:	08 f4       	brcc	.+2      	; 0x2ba <MakeFriends+0x1c6>
                if (chkVolt250() == 5) {
     2b8:	55 c0       	rjmp	.+170    	; 0x364 <MakeFriends+0x270>
     2ba:	fe de       	rcall	.-516    	; 0xb8 <chkVolt250>
     2bc:	85 30       	cpi	r24, 0x05	; 5
     2be:	09 f0       	breq	.+2      	; 0x2c2 <MakeFriends+0x1ce>
     2c0:	99 cf       	rjmp	.-206    	; 0x1f4 <MakeFriends+0x100>
                    UpdateState(99+candidate);
     2c2:	80 91 30 38 	lds	r24, 0x3830	; 0x803830 <__data_end>
     2c6:	8d 59       	subi	r24, 0x9D	; 157
     2c8:	0e 94 5b 0a 	call	0x14b6	; 0x14b6 <UpdateState>
                    UpdateState(99+whoami);
     2cc:	80 91 3f 38 	lds	r24, 0x383F	; 0x80383f <whoami>
     2d0:	8d 59       	subi	r24, 0x9D	; 157
     2d2:	0e 94 5b 0a 	call	0x14b6	; 0x14b6 <UpdateState>
                    for (uint8_t x=0; x<5; ++x){
                        iLED[WING[L][x]] = (x<candidate)?dimValue:0;
     2d6:	20 91 30 38 	lds	r18, 0x3830	; 0x803830 <__data_end>
                        iLED[WING[R][x]] = (x<whoami)?dimValue:00;
     2da:	30 91 3f 38 	lds	r19, 0x383F	; 0x80383f <whoami>
     2de:	a8 ee       	ldi	r26, 0xE8	; 232
     2e0:	bf eb       	ldi	r27, 0xBF	; 191
            chkTmr++;
            if (chkTmr >= SHORT_WAIT) {
                if (chkVolt250() == 5) {
                    UpdateState(99+candidate);
                    UpdateState(99+whoami);
                    for (uint8_t x=0; x<5; ++x){
     2e2:	80 e0       	ldi	r24, 0x00	; 0
     2e4:	ed 01       	movw	r28, r26
                        iLED[WING[L][x]] = (x<candidate)?dimValue:0;
     2e6:	15 96       	adiw	r26, 0x05	; 5
     2e8:	ec 91       	ld	r30, X
     2ea:	15 97       	sbiw	r26, 0x05	; 5
     2ec:	f0 e0       	ldi	r31, 0x00	; 0
     2ee:	82 17       	cp	r24, r18
     2f0:	18 f4       	brcc	.+6      	; 0x2f8 <MakeFriends+0x204>
     2f2:	90 91 0c 38 	lds	r25, 0x380C	; 0x80380c <dimValue>
     2f6:	01 c0       	rjmp	.+2      	; 0x2fa <MakeFriends+0x206>
     2f8:	90 e0       	ldi	r25, 0x00	; 0
     2fa:	e4 53       	subi	r30, 0x34	; 52
     2fc:	f5 4c       	sbci	r31, 0xC5	; 197
     2fe:	90 83       	st	Z, r25
     300:	11 96       	adiw	r26, 0x01	; 1
                        iLED[WING[R][x]] = (x<whoami)?dimValue:00;
     302:	e8 81       	ld	r30, Y
     304:	f0 e0       	ldi	r31, 0x00	; 0
     306:	83 17       	cp	r24, r19
     308:	18 f4       	brcc	.+6      	; 0x310 <MakeFriends+0x21c>
     30a:	90 91 0c 38 	lds	r25, 0x380C	; 0x80380c <dimValue>
     30e:	01 c0       	rjmp	.+2      	; 0x312 <MakeFriends+0x21e>
     310:	90 e0       	ldi	r25, 0x00	; 0
     312:	e4 53       	subi	r30, 0x34	; 52
     314:	f5 4c       	sbci	r31, 0xC5	; 197
     316:	90 83       	st	Z, r25
            chkTmr++;
            if (chkTmr >= SHORT_WAIT) {
                if (chkVolt250() == 5) {
                    UpdateState(99+candidate);
                    UpdateState(99+whoami);
                    for (uint8_t x=0; x<5; ++x){
     318:	8f 5f       	subi	r24, 0xFF	; 255
     31a:	85 30       	cpi	r24, 0x05	; 5
     31c:	19 f7       	brne	.-58     	; 0x2e4 <MakeFriends+0x1f0>
                        iLED[WING[L][x]] = (x<candidate)?dimValue:0;
                        iLED[WING[R][x]] = (x<whoami)?dimValue:00;
                    }   
                    progress = FOURTH_BASE;
     31e:	84 e0       	ldi	r24, 0x04	; 4
     320:	bd cf       	rjmp	.-134    	; 0x29c <MakeFriends+0x1a8>
                } else progress = NO_OTHER;                
                chkTmr = 0;
            }

        //Wait for divorce of force quit
        } else if (progress == FOURTH_BASE) {
     322:	84 30       	cpi	r24, 0x04	; 4
            if (chkVolt250() == 5) {
     324:	f9 f4       	brne	.+62     	; 0x364 <MakeFriends+0x270>
     326:	c8 de       	rcall	.-624    	; 0xb8 <chkVolt250>
     328:	85 30       	cpi	r24, 0x05	; 5
     32a:	e1 f4       	brne	.+56     	; 0x364 <MakeFriends+0x270>
                chkTmr++;
     32c:	80 91 32 38 	lds	r24, 0x3832	; 0x803832 <chkTmr.3791>
     330:	8f 5f       	subi	r24, 0xFF	; 255
     332:	80 93 32 38 	sts	0x3832, r24	; 0x803832 <chkTmr.3791>
                if (chkTmr >= LONG_WAIT) {
     336:	8a 3f       	cpi	r24, 0xFA	; 250
     338:	a8 f0       	brcs	.+42     	; 0x364 <MakeFriends+0x270>
     33a:	e8 ee       	ldi	r30, 0xE8	; 232
     33c:	ff eb       	ldi	r31, 0xBF	; 191
     33e:	8d ee       	ldi	r24, 0xED	; 237
     340:	9f eb       	ldi	r25, 0xBF	; 191
     342:	ef 01       	movw	r28, r30
                    for (uint8_t x=0; x<5; ++x){
                        iLED[WING[L][x]] = 0;
     344:	a5 81       	ldd	r26, Z+5	; 0x05
     346:	b0 e0       	ldi	r27, 0x00	; 0
     348:	a4 53       	subi	r26, 0x34	; 52
     34a:	b5 4c       	sbci	r27, 0xC5	; 197
     34c:	1c 92       	st	X, r1
     34e:	31 96       	adiw	r30, 0x01	; 1
                        iLED[WING[R][x]] = 0;
     350:	a8 81       	ld	r26, Y
     352:	b0 e0       	ldi	r27, 0x00	; 0
     354:	a4 53       	subi	r26, 0x34	; 52
     356:	b5 4c       	sbci	r27, 0xC5	; 197
     358:	1c 92       	st	X, r1
        //Wait for divorce of force quit
        } else if (progress == FOURTH_BASE) {
            if (chkVolt250() == 5) {
                chkTmr++;
                if (chkTmr >= LONG_WAIT) {
                    for (uint8_t x=0; x<5; ++x){
     35a:	8e 17       	cp	r24, r30
     35c:	9f 07       	cpc	r25, r31
     35e:	89 f7       	brne	.-30     	; 0x342 <MakeFriends+0x24e>
                    }                    
                }
            }
        }

    } else progress = NO_OTHER;
     360:	10 92 33 38 	sts	0x3833, r1	; 0x803833 <progress.3789>
      
    return 0;
}
     364:	80 e0       	ldi	r24, 0x00	; 0
     366:	df 91       	pop	r29
     368:	cf 91       	pop	r28
     36a:	1f 91       	pop	r17
     36c:	0f 91       	pop	r16
     36e:	ff 90       	pop	r15
     370:	ef 90       	pop	r14
     372:	08 95       	ret

00000374 <I2C_init>:
// the Atmel device documentation mentions a special command for repeated start TWI_MCMD_REPSTART_gc,
// but this is not used in Atmel's demo code, so we don't use it either

void I2C_rep_start(uint8_t shifted_addr)						    // send repeated start, device_addr + LSB set if READ
{
	TWI0.MADDR = shifted_addr;	
     374:	81 e0       	ldi	r24, 0x01	; 1
     376:	80 93 22 04 	sts	0x0422, r24	; 0x800422 <__TEXT_REGION_LENGTH__+0x700422>
     37a:	e6 e2       	ldi	r30, 0x26	; 38
     37c:	f4 e0       	ldi	r31, 0x04	; 4
     37e:	80 83       	st	Z, r24
     380:	10 92 30 04 	sts	0x0430, r1	; 0x800430 <__TEXT_REGION_LENGTH__+0x700430>
     384:	a1 e2       	ldi	r26, 0x21	; 33
     386:	b4 e0       	ldi	r27, 0x04	; 4
     388:	92 e0       	ldi	r25, 0x02	; 2
     38a:	9c 93       	st	X, r25
     38c:	90 83       	st	Z, r25
     38e:	10 92 31 04 	sts	0x0431, r1	; 0x800431 <__TEXT_REGION_LENGTH__+0x700431>
     392:	e0 e1       	ldi	r30, 0x10	; 16
     394:	f8 e0       	ldi	r31, 0x08	; 8
     396:	97 e0       	ldi	r25, 0x07	; 7
     398:	96 83       	std	Z+6, r25	; 0x06
     39a:	98 e0       	ldi	r25, 0x08	; 8
     39c:	94 83       	std	Z+4, r25	; 0x04
     39e:	83 83       	std	Z+3, r24	; 0x03
     3a0:	8c 93       	st	X, r24
     3a2:	85 81       	ldd	r24, Z+5	; 0x05
     3a4:	81 60       	ori	r24, 0x01	; 1
     3a6:	85 83       	std	Z+5, r24	; 0x05
     3a8:	85 81       	ldd	r24, Z+5	; 0x05
     3aa:	84 6c       	ori	r24, 0xC4	; 196
     3ac:	85 83       	std	Z+5, r24	; 0x05
     3ae:	08 95       	ret

000003b0 <I2C_recover>:
     3b0:	80 91 14 08 	lds	r24, 0x0814	; 0x800814 <__TEXT_REGION_LENGTH__+0x700814>
     3b4:	88 60       	ori	r24, 0x08	; 8
     3b6:	80 93 14 08 	sts	0x0814, r24	; 0x800814 <__TEXT_REGION_LENGTH__+0x700814>
     3ba:	10 92 13 08 	sts	0x0813, r1	; 0x800813 <__TEXT_REGION_LENGTH__+0x700813>
     3be:	82 e0       	ldi	r24, 0x02	; 2
     3c0:	80 93 22 04 	sts	0x0422, r24	; 0x800422 <__TEXT_REGION_LENGTH__+0x700422>
     3c4:	99 e0       	ldi	r25, 0x09	; 9
     3c6:	21 e0       	ldi	r18, 0x01	; 1
     3c8:	81 e0       	ldi	r24, 0x01	; 1
     3ca:	20 93 21 04 	sts	0x0421, r18	; 0x800421 <__TEXT_REGION_LENGTH__+0x700421>
     3ce:	30 e1       	ldi	r19, 0x10	; 16
     3d0:	3a 95       	dec	r19
     3d2:	f1 f7       	brne	.-4      	; 0x3d0 <I2C_recover+0x20>
     3d4:	00 c0       	rjmp	.+0      	; 0x3d6 <I2C_recover+0x26>
     3d6:	20 93 22 04 	sts	0x0422, r18	; 0x800422 <__TEXT_REGION_LENGTH__+0x700422>
     3da:	30 e1       	ldi	r19, 0x10	; 16
     3dc:	3a 95       	dec	r19
     3de:	f1 f7       	brne	.-4      	; 0x3dc <I2C_recover+0x2c>
     3e0:	00 c0       	rjmp	.+0      	; 0x3e2 <I2C_recover+0x32>
     3e2:	91 50       	subi	r25, 0x01	; 1
     3e4:	89 f7       	brne	.-30     	; 0x3c8 <I2C_recover+0x18>
     3e6:	28 e0       	ldi	r18, 0x08	; 8
     3e8:	20 93 14 08 	sts	0x0814, r18	; 0x800814 <__TEXT_REGION_LENGTH__+0x700814>
     3ec:	80 93 13 08 	sts	0x0813, r24	; 0x800813 <__TEXT_REGION_LENGTH__+0x700813>
     3f0:	92 e0       	ldi	r25, 0x02	; 2
     3f2:	90 93 21 04 	sts	0x0421, r25	; 0x800421 <__TEXT_REGION_LENGTH__+0x700421>
     3f6:	90 91 15 08 	lds	r25, 0x0815	; 0x800815 <__TEXT_REGION_LENGTH__+0x700815>
     3fa:	91 60       	ori	r25, 0x01	; 1
     3fc:	90 93 15 08 	sts	0x0815, r25	; 0x800815 <__TEXT_REGION_LENGTH__+0x700815>
     400:	90 91 15 08 	lds	r25, 0x0815	; 0x800815 <__TEXT_REGION_LENGTH__+0x700815>
     404:	94 6c       	ori	r25, 0xC4	; 196
     406:	90 93 15 08 	sts	0x0815, r25	; 0x800815 <__TEXT_REGION_LENGTH__+0x700815>
     40a:	20 93 14 08 	sts	0x0814, r18	; 0x800814 <__TEXT_REGION_LENGTH__+0x700814>
     40e:	80 93 13 08 	sts	0x0813, r24	; 0x800813 <__TEXT_REGION_LENGTH__+0x700813>
     412:	80 93 21 04 	sts	0x0421, r24	; 0x800421 <__TEXT_REGION_LENGTH__+0x700421>
     416:	80 91 15 08 	lds	r24, 0x0815	; 0x800815 <__TEXT_REGION_LENGTH__+0x700815>
     41a:	81 60       	ori	r24, 0x01	; 1
     41c:	80 93 15 08 	sts	0x0815, r24	; 0x800815 <__TEXT_REGION_LENGTH__+0x700815>
     420:	80 91 15 08 	lds	r24, 0x0815	; 0x800815 <__TEXT_REGION_LENGTH__+0x700815>
     424:	84 6c       	ori	r24, 0xC4	; 196
     426:	80 93 15 08 	sts	0x0815, r24	; 0x800815 <__TEXT_REGION_LENGTH__+0x700815>
     42a:	08 95       	ret

0000042c <I2C_start>:
     42c:	28 2f       	mov	r18, r24
     42e:	90 91 15 08 	lds	r25, 0x0815	; 0x800815 <__TEXT_REGION_LENGTH__+0x700815>
     432:	90 6c       	ori	r25, 0xC0	; 192
     434:	90 93 15 08 	sts	0x0815, r25	; 0x800815 <__TEXT_REGION_LENGTH__+0x700815>
     438:	90 91 15 08 	lds	r25, 0x0815	; 0x800815 <__TEXT_REGION_LENGTH__+0x700815>
     43c:	89 2f       	mov	r24, r25
     43e:	84 70       	andi	r24, 0x04	; 4
     440:	92 fd       	sbrc	r25, 2
     442:	03 c0       	rjmp	.+6      	; 0x44a <I2C_start+0x1e>
     444:	20 93 17 08 	sts	0x0817, r18	; 0x800817 <__TEXT_REGION_LENGTH__+0x700817>
     448:	08 95       	ret
     44a:	84 e0       	ldi	r24, 0x04	; 4
     44c:	08 95       	ret

0000044e <I2C_wait_ACK>:
     44e:	8c e0       	ldi	r24, 0x0C	; 12
     450:	80 93 62 3a 	sts	0x3A62, r24	; 0x803a62 <timeout_I2C>
     454:	80 91 15 08 	lds	r24, 0x0815	; 0x800815 <__TEXT_REGION_LENGTH__+0x700815>
     458:	87 fd       	sbrc	r24, 7
     45a:	0a c0       	rjmp	.+20     	; 0x470 <I2C_wait_ACK+0x22>
     45c:	80 91 15 08 	lds	r24, 0x0815	; 0x800815 <__TEXT_REGION_LENGTH__+0x700815>
     460:	86 fd       	sbrc	r24, 6
     462:	06 c0       	rjmp	.+12     	; 0x470 <I2C_wait_ACK+0x22>
     464:	80 91 62 3a 	lds	r24, 0x3A62	; 0x803a62 <timeout_I2C>
     468:	81 11       	cpse	r24, r1
     46a:	f4 cf       	rjmp	.-24     	; 0x454 <I2C_wait_ACK+0x6>
     46c:	8f ef       	ldi	r24, 0xFF	; 255
     46e:	08 95       	ret
     470:	80 91 15 08 	lds	r24, 0x0815	; 0x800815 <__TEXT_REGION_LENGTH__+0x700815>
     474:	80 6c       	ori	r24, 0xC0	; 192
     476:	80 93 15 08 	sts	0x0815, r24	; 0x800815 <__TEXT_REGION_LENGTH__+0x700815>
     47a:	80 91 15 08 	lds	r24, 0x0815	; 0x800815 <__TEXT_REGION_LENGTH__+0x700815>
     47e:	82 fd       	sbrc	r24, 2
     480:	09 c0       	rjmp	.+18     	; 0x494 <I2C_wait_ACK+0x46>
     482:	80 91 15 08 	lds	r24, 0x0815	; 0x800815 <__TEXT_REGION_LENGTH__+0x700815>
     486:	83 fd       	sbrc	r24, 3
     488:	07 c0       	rjmp	.+14     	; 0x498 <I2C_wait_ACK+0x4a>
     48a:	80 91 15 08 	lds	r24, 0x0815	; 0x800815 <__TEXT_REGION_LENGTH__+0x700815>
     48e:	82 95       	swap	r24
     490:	81 70       	andi	r24, 0x01	; 1
     492:	08 95       	ret
     494:	84 e0       	ldi	r24, 0x04	; 4
     496:	08 95       	ret
     498:	82 e0       	ldi	r24, 0x02	; 2
     49a:	08 95       	ret

0000049c <I2C_read>:
}

uint8_t	I2C_read(uint8_t *data, uint8_t ack_flag)					// read data, ack_flag 0: send ACK, 1: send NACK, returns status
{
     49c:	fc 01       	movw	r30, r24
	timeout_I2C = READ_TIMEOUT;										// reset timeout counter, will be decremented by LED matrix interrupt
     49e:	8c e0       	ldi	r24, 0x0C	; 12
     4a0:	80 93 62 3a 	sts	0x3A62, r24	; 0x803a62 <timeout_I2C>
	if ((TWI0.MSTATUS & TWI_BUSSTATE_gm) == TWI_BUSSTATE_OWNER_gc)	// if master controls bus
     4a4:	90 91 15 08 	lds	r25, 0x0815	; 0x800815 <__TEXT_REGION_LENGTH__+0x700815>
     4a8:	89 2f       	mov	r24, r25
     4aa:	83 70       	andi	r24, 0x03	; 3
     4ac:	82 30       	cpi	r24, 0x02	; 2
     4ae:	11 f0       	breq	.+4      	; 0x4b4 <I2C_read+0x18>
		else		TWI0.MCTRLB |= TWI_ACKACT_NACK_gc;				// setup NACK (last byte read)
		*data = TWI0.MDATA;
		if (ack_flag == 0) TWI0.MCTRLB |= TWI_MCMD_RECVTRANS_gc;	// send ACK, more bytes to follow					
		return 0;
	}
	else return 8;													// master does not control bus
     4b0:	88 e0       	ldi	r24, 0x08	; 8
     4b2:	08 95       	ret
uint8_t	I2C_read(uint8_t *data, uint8_t ack_flag)					// read data, ack_flag 0: send ACK, 1: send NACK, returns status
{
	timeout_I2C = READ_TIMEOUT;										// reset timeout counter, will be decremented by LED matrix interrupt
	if ((TWI0.MSTATUS & TWI_BUSSTATE_gm) == TWI_BUSSTATE_OWNER_gc)	// if master controls bus
	{		
		while (!(TWI0.MSTATUS & TWI_RIF_bm))						// wait for RIF set (data byte received)
     4b4:	90 91 15 08 	lds	r25, 0x0815	; 0x800815 <__TEXT_REGION_LENGTH__+0x700815>
     4b8:	97 fd       	sbrc	r25, 7
     4ba:	06 c0       	rjmp	.+12     	; 0x4c8 <I2C_read+0x2c>
		{
			if (!(timeout_I2C)) return 0xff;			            // return timeout error
     4bc:	90 91 62 3a 	lds	r25, 0x3A62	; 0x803a62 <timeout_I2C>
     4c0:	91 11       	cpse	r25, r1
     4c2:	f8 cf       	rjmp	.-16     	; 0x4b4 <I2C_read+0x18>
     4c4:	8f ef       	ldi	r24, 0xFF	; 255
     4c6:	08 95       	ret
		}
		TWI0.MSTATUS |= (TWI_RIF_bm | TWI_WIF_bm);					// clear Read and Write interrupt flags	
     4c8:	90 91 15 08 	lds	r25, 0x0815	; 0x800815 <__TEXT_REGION_LENGTH__+0x700815>
     4cc:	90 6c       	ori	r25, 0xC0	; 192
     4ce:	90 93 15 08 	sts	0x0815, r25	; 0x800815 <__TEXT_REGION_LENGTH__+0x700815>
		if (TWI0.MSTATUS & TWI_BUSERR_bm) return 4;					// Bus Error, abort
     4d2:	90 91 15 08 	lds	r25, 0x0815	; 0x800815 <__TEXT_REGION_LENGTH__+0x700815>
     4d6:	92 fd       	sbrc	r25, 2
     4d8:	1e c0       	rjmp	.+60     	; 0x516 <I2C_read+0x7a>
		if (TWI0.MSTATUS & TWI_ARBLOST_bm) return 2;				// Arbitration Lost, abort
     4da:	90 91 15 08 	lds	r25, 0x0815	; 0x800815 <__TEXT_REGION_LENGTH__+0x700815>
     4de:	93 fd       	sbrc	r25, 3
     4e0:	1d c0       	rjmp	.+58     	; 0x51c <I2C_read+0x80>
		if (TWI0.MSTATUS & TWI_RXACK_bm) return 1;					// Slave replied with NACK, abort				
     4e2:	90 91 15 08 	lds	r25, 0x0815	; 0x800815 <__TEXT_REGION_LENGTH__+0x700815>
     4e6:	89 2f       	mov	r24, r25
     4e8:	80 71       	andi	r24, 0x10	; 16
     4ea:	94 fd       	sbrc	r25, 4
     4ec:	16 c0       	rjmp	.+44     	; 0x51a <I2C_read+0x7e>
		if (ack_flag == 0) TWI0.MCTRLB &= ~(1 << TWI_ACKACT_bp);	// setup ACK
     4ee:	90 91 14 08 	lds	r25, 0x0814	; 0x800814 <__TEXT_REGION_LENGTH__+0x700814>
     4f2:	61 11       	cpse	r22, r1
     4f4:	02 c0       	rjmp	.+4      	; 0x4fa <I2C_read+0x5e>
     4f6:	9b 7f       	andi	r25, 0xFB	; 251
     4f8:	01 c0       	rjmp	.+2      	; 0x4fc <I2C_read+0x60>
		else		TWI0.MCTRLB |= TWI_ACKACT_NACK_gc;				// setup NACK (last byte read)
     4fa:	94 60       	ori	r25, 0x04	; 4
     4fc:	90 93 14 08 	sts	0x0814, r25	; 0x800814 <__TEXT_REGION_LENGTH__+0x700814>
		*data = TWI0.MDATA;
     500:	90 91 18 08 	lds	r25, 0x0818	; 0x800818 <__TEXT_REGION_LENGTH__+0x700818>
     504:	90 83       	st	Z, r25
		if (ack_flag == 0) TWI0.MCTRLB |= TWI_MCMD_RECVTRANS_gc;	// send ACK, more bytes to follow					
     506:	61 11       	cpse	r22, r1
     508:	09 c0       	rjmp	.+18     	; 0x51c <I2C_read+0x80>
     50a:	90 91 14 08 	lds	r25, 0x0814	; 0x800814 <__TEXT_REGION_LENGTH__+0x700814>
     50e:	92 60       	ori	r25, 0x02	; 2
     510:	90 93 14 08 	sts	0x0814, r25	; 0x800814 <__TEXT_REGION_LENGTH__+0x700814>
     514:	08 95       	ret
		while (!(TWI0.MSTATUS & TWI_RIF_bm))						// wait for RIF set (data byte received)
		{
			if (!(timeout_I2C)) return 0xff;			            // return timeout error
		}
		TWI0.MSTATUS |= (TWI_RIF_bm | TWI_WIF_bm);					// clear Read and Write interrupt flags	
		if (TWI0.MSTATUS & TWI_BUSERR_bm) return 4;					// Bus Error, abort
     516:	84 e0       	ldi	r24, 0x04	; 4
     518:	08 95       	ret
		if (TWI0.MSTATUS & TWI_ARBLOST_bm) return 2;				// Arbitration Lost, abort
		if (TWI0.MSTATUS & TWI_RXACK_bm) return 1;					// Slave replied with NACK, abort				
     51a:	81 e0       	ldi	r24, 0x01	; 1
		*data = TWI0.MDATA;
		if (ack_flag == 0) TWI0.MCTRLB |= TWI_MCMD_RECVTRANS_gc;	// send ACK, more bytes to follow					
		return 0;
	}
	else return 8;													// master does not control bus
}
     51c:	08 95       	ret

0000051e <I2C_write>:

uint8_t I2C_write(uint8_t *data)									// write data, return status
{
     51e:	fc 01       	movw	r30, r24
	timeout_I2C = WRITE_TIMEOUT;									// reset timeout counter, will be decremented by LED matrix interrupt
     520:	8c e0       	ldi	r24, 0x0C	; 12
     522:	80 93 62 3a 	sts	0x3A62, r24	; 0x803a62 <timeout_I2C>
	if ((TWI0.MSTATUS & TWI_BUSSTATE_gm) == TWI_BUSSTATE_OWNER_gc)	// if master controls bus
     526:	90 91 15 08 	lds	r25, 0x0815	; 0x800815 <__TEXT_REGION_LENGTH__+0x700815>
     52a:	93 70       	andi	r25, 0x03	; 3
     52c:	92 30       	cpi	r25, 0x02	; 2
     52e:	b1 f4       	brne	.+44     	; 0x55c <I2C_write+0x3e>
	{
		TWI0.MDATA = *data;		
     530:	80 81       	ld	r24, Z
     532:	80 93 18 08 	sts	0x0818, r24	; 0x800818 <__TEXT_REGION_LENGTH__+0x700818>
		while (!(TWI0.MSTATUS & TWI_WIF_bm))						// wait until WIF set, status register contains ACK/NACK bit
     536:	80 91 15 08 	lds	r24, 0x0815	; 0x800815 <__TEXT_REGION_LENGTH__+0x700815>
     53a:	86 fd       	sbrc	r24, 6
     53c:	06 c0       	rjmp	.+12     	; 0x54a <I2C_write+0x2c>
		{
			if (!(timeout_I2C)) return 0xff;			            // return timeout error
     53e:	80 91 62 3a 	lds	r24, 0x3A62	; 0x803a62 <timeout_I2C>
     542:	81 11       	cpse	r24, r1
     544:	f8 cf       	rjmp	.-16     	; 0x536 <I2C_write+0x18>
     546:	8f ef       	ldi	r24, 0xFF	; 255
     548:	08 95       	ret
		}
		if (TWI0.MSTATUS & TWI_BUSERR_bm) return 4;					// Bus Error, abort
     54a:	80 91 15 08 	lds	r24, 0x0815	; 0x800815 <__TEXT_REGION_LENGTH__+0x700815>
     54e:	82 fd       	sbrc	r24, 2
     550:	07 c0       	rjmp	.+14     	; 0x560 <I2C_write+0x42>
		if (TWI0.MSTATUS & TWI_RXACK_bm) return 1;					// Slave replied with NACK, abort
     552:	80 91 15 08 	lds	r24, 0x0815	; 0x800815 <__TEXT_REGION_LENGTH__+0x700815>
	if ((TWI0.MSTATUS & TWI_BUSSTATE_gm) == TWI_BUSSTATE_OWNER_gc)	// if master controls bus
	{
		TWI0.MDATA = *data;		
		while (!(TWI0.MSTATUS & TWI_WIF_bm))						// wait until WIF set, status register contains ACK/NACK bit
		{
			if (!(timeout_I2C)) return 0xff;			            // return timeout error
     556:	82 95       	swap	r24
     558:	81 70       	andi	r24, 0x01	; 1
     55a:	08 95       	ret
		}
		if (TWI0.MSTATUS & TWI_BUSERR_bm) return 4;					// Bus Error, abort
		if (TWI0.MSTATUS & TWI_RXACK_bm) return 1;					// Slave replied with NACK, abort
		return 0;													// no error	
	}
	else return 8;													// master does not control bus
     55c:	88 e0       	ldi	r24, 0x08	; 8
     55e:	08 95       	ret
		TWI0.MDATA = *data;		
		while (!(TWI0.MSTATUS & TWI_WIF_bm))						// wait until WIF set, status register contains ACK/NACK bit
		{
			if (!(timeout_I2C)) return 0xff;			            // return timeout error
		}
		if (TWI0.MSTATUS & TWI_BUSERR_bm) return 4;					// Bus Error, abort
     560:	84 e0       	ldi	r24, 0x04	; 4
		if (TWI0.MSTATUS & TWI_RXACK_bm) return 1;					// Slave replied with NACK, abort
		return 0;													// no error	
	}
	else return 8;													// master does not control bus
}
     562:	08 95       	ret

00000564 <I2C_stop>:

void I2C_stop()
{
	TWI0.MCTRLB |= TWI_MCMD_STOP_gc;
     564:	e0 e1       	ldi	r30, 0x10	; 16
     566:	f8 e0       	ldi	r31, 0x08	; 8
     568:	84 81       	ldd	r24, Z+4	; 0x04
     56a:	83 60       	ori	r24, 0x03	; 3
     56c:	84 83       	std	Z+4, r24	; 0x04
     56e:	08 95       	ret

00000570 <I2C_read_bytes>:
// addr_ptr		address of first array element to transfer
// slave reg	starting slave register
// num_bytes	number of bytes to transfer

uint8_t	I2C_read_bytes(uint8_t slave_addr, uint8_t *reg_ptr, uint8_t reg_len, uint8_t *dat_ptr, uint8_t dat_len)
{
     570:	cf 92       	push	r12
     572:	df 92       	push	r13
     574:	ff 92       	push	r15
     576:	0f 93       	push	r16
     578:	1f 93       	push	r17
     57a:	cf 93       	push	r28
     57c:	df 93       	push	r29
     57e:	6b 01       	movw	r12, r22
     580:	f4 2e       	mov	r15, r20
     582:	e9 01       	movw	r28, r18
	uint8_t status;
	if (dat_len > MAX_LEN) dat_len = MAX_LEN;
	status = I2C_start(slave_addr << 1);							// slave write address, LSB 0
     584:	18 2f       	mov	r17, r24
     586:	11 0f       	add	r17, r17
     588:	81 2f       	mov	r24, r17
     58a:	50 df       	rcall	.-352    	; 0x42c <I2C_start>
	if (status != 0) goto error;
     58c:	81 11       	cpse	r24, r1
	status = I2C_wait_ACK();										// wait for slave ACK
     58e:	2b c0       	rjmp	.+86     	; 0x5e6 <I2C_read_bytes+0x76>
     590:	5e df       	rcall	.-324    	; 0x44e <I2C_wait_ACK>
	if (status == 1) {
     592:	81 30       	cpi	r24, 0x01	; 1
		I2C_stop();													// NACK, abort
     594:	19 f4       	brne	.+6      	; 0x59c <I2C_read_bytes+0x2c>
     596:	e6 df       	rcall	.-52     	; 0x564 <I2C_stop>
		return 1;
     598:	81 e0       	ldi	r24, 0x01	; 1
     59a:	27 c0       	rjmp	.+78     	; 0x5ea <I2C_read_bytes+0x7a>
	}
	if (status != 0) goto error;
     59c:	81 11       	cpse	r24, r1
     59e:	23 c0       	rjmp	.+70     	; 0x5e6 <I2C_read_bytes+0x76>
    while(reg_len > 0){
     5a0:	ff 20       	and	r15, r15
	    status = I2C_write(reg_ptr);    							// send slave start register
     5a2:	49 f0       	breq	.+18     	; 0x5b6 <I2C_read_bytes+0x46>
     5a4:	c6 01       	movw	r24, r12
     5a6:	bb df       	rcall	.-138    	; 0x51e <I2C_write>
	    if (status != 0) goto error;
     5a8:	81 11       	cpse	r24, r1
     5aa:	1d c0       	rjmp	.+58     	; 0x5e6 <I2C_read_bytes+0x76>
        ++reg_ptr;
     5ac:	8f ef       	ldi	r24, 0xFF	; 255
     5ae:	c8 1a       	sub	r12, r24
     5b0:	d8 0a       	sbc	r13, r24
        --reg_len;
     5b2:	fa 94       	dec	r15
     5b4:	f5 cf       	rjmp	.-22     	; 0x5a0 <I2C_read_bytes+0x30>
     5b6:	01 34       	cpi	r16, 0x41	; 65
     5b8:	08 f0       	brcs	.+2      	; 0x5bc <I2C_read_bytes+0x4c>
     5ba:	00 e4       	ldi	r16, 0x40	; 64
    }
	I2C_rep_start((slave_addr << 1) + 1);							// slave read address, LSB 1
     5bc:	1f 5f       	subi	r17, 0xFF	; 255
// the Atmel device documentation mentions a special command for repeated start TWI_MCMD_REPSTART_gc,
// but this is not used in Atmel's demo code, so we don't use it either

void I2C_rep_start(uint8_t shifted_addr)						    // send repeated start, device_addr + LSB set if READ
{
	TWI0.MADDR = shifted_addr;	
     5be:	10 93 17 08 	sts	0x0817, r17	; 0x800817 <__TEXT_REGION_LENGTH__+0x700817>
	    if (status != 0) goto error;
        ++reg_ptr;
        --reg_len;
    }
	I2C_rep_start((slave_addr << 1) + 1);							// slave read address, LSB 1
	while (dat_len > 1) {
     5c2:	02 30       	cpi	r16, 0x02	; 2
		status = I2C_read(dat_ptr, 0);								// first bytes, send ACK
     5c4:	40 f0       	brcs	.+16     	; 0x5d6 <I2C_read_bytes+0x66>
     5c6:	60 e0       	ldi	r22, 0x00	; 0
     5c8:	ce 01       	movw	r24, r28
     5ca:	68 df       	rcall	.-304    	; 0x49c <I2C_read>
		if (status != 0) goto error;
     5cc:	81 11       	cpse	r24, r1
     5ce:	0b c0       	rjmp	.+22     	; 0x5e6 <I2C_read_bytes+0x76>
		++dat_ptr;
		--dat_len;
     5d0:	21 96       	adiw	r28, 0x01	; 1
     5d2:	01 50       	subi	r16, 0x01	; 1
	}
	status = I2C_read(dat_ptr, 1);									// single or last byte, send NACK
     5d4:	f6 cf       	rjmp	.-20     	; 0x5c2 <I2C_read_bytes+0x52>
     5d6:	61 e0       	ldi	r22, 0x01	; 1
     5d8:	ce 01       	movw	r24, r28
	if (status != 0) goto error;
     5da:	60 df       	rcall	.-320    	; 0x49c <I2C_read>
     5dc:	81 11       	cpse	r24, r1
	I2C_stop();
     5de:	03 c0       	rjmp	.+6      	; 0x5e6 <I2C_read_bytes+0x76>
     5e0:	c1 df       	rcall	.-126    	; 0x564 <I2C_stop>
	return 0;
     5e2:	80 e0       	ldi	r24, 0x00	; 0
     5e4:	02 c0       	rjmp	.+4      	; 0x5ea <I2C_read_bytes+0x7a>
	
error:
	I2C_recover();													// clock out possibly stuck slave, reset master
     5e6:	e4 de       	rcall	.-568    	; 0x3b0 <I2C_recover>
     5e8:	8f ef       	ldi	r24, 0xFF	; 255
	return 0xff;													// flag error
     5ea:	df 91       	pop	r29
}
     5ec:	cf 91       	pop	r28
     5ee:	1f 91       	pop	r17
     5f0:	0f 91       	pop	r16
     5f2:	ff 90       	pop	r15
     5f4:	df 90       	pop	r13
     5f6:	cf 90       	pop	r12
     5f8:	08 95       	ret

000005fa <initLanyard>:
uint8_t         lanyardCnt = 0;
uint8_t         lanyardState = TRUE;
uint16_t        lanyardLastActive = 0;

void initLanyard() {
    lanyardPos      = 0;
     5fa:	10 92 38 38 	sts	0x3838, r1	; 0x803838 <lanyardPos>
    lanyardCnt      = 0;
     5fe:	10 92 37 38 	sts	0x3837, r1	; 0x803837 <lanyardCnt>
    lanyardState    = TRUE;
     602:	81 e0       	ldi	r24, 0x01	; 1
     604:	80 93 02 38 	sts	0x3802, r24	; 0x803802 <lanyardState>
    effect = 0;
     608:	10 92 3c 38 	sts	0x383C, r1	; 0x80383c <effect>
     60c:	10 92 3d 38 	sts	0x383D, r1	; 0x80383d <effect+0x1>
     610:	08 95       	ret

00000612 <LanyardCode>:
}

// Main game loop
uint8_t LanyardCode(){
     612:	cf 93       	push	r28
    if (gameNow == LANYARD && idleTimeout(lanyardLastActive,LANYARD_MAX_IDLE)) {
     614:	80 91 3e 38 	lds	r24, 0x383E	; 0x80383e <gameNow>
     618:	83 30       	cpi	r24, 0x03	; 3
     61a:	71 f4       	brne	.+28     	; 0x638 <LanyardCode+0x26>
     61c:	6a e0       	ldi	r22, 0x0A	; 10
     61e:	70 e0       	ldi	r23, 0x00	; 0
     620:	80 91 35 38 	lds	r24, 0x3835	; 0x803835 <lanyardLastActive>
     624:	90 91 36 38 	lds	r25, 0x3836	; 0x803836 <lanyardLastActive+0x1>
     628:	0e 94 7b 0d 	call	0x1af6	; 0x1af6 <idleTimeout>
     62c:	88 23       	and	r24, r24
     62e:	21 f0       	breq	.+8      	; 0x638 <LanyardCode+0x26>
        /* clean up maze game and go back to text game */
        initLanyard();
     630:	e4 df       	rcall	.-56     	; 0x5fa <initLanyard>
        gameNow = TEXT;
     632:	10 92 3e 38 	sts	0x383E, r1	; 0x80383e <gameNow>
        return 0;
     636:	9b c0       	rjmp	.+310    	; 0x76e <LanyardCode+0x15c>
    }

    if (CheckState(LANYARD_COMPLETED))
     638:	8b e7       	ldi	r24, 0x7B	; 123
     63a:	47 d7       	rcall	.+3726   	; 0x14ca <CheckState>
     63c:	81 11       	cpse	r24, r1
     63e:	97 c0       	rjmp	.+302    	; 0x76e <LanyardCode+0x15c>
        return 0;

    if ( gameNow != TEXT && gameNow != LANYARD )
     640:	80 91 3e 38 	lds	r24, 0x383E	; 0x80383e <gameNow>
     644:	88 23       	and	r24, r24
     646:	19 f0       	breq	.+6      	; 0x64e <LanyardCode+0x3c>
     648:	83 30       	cpi	r24, 0x03	; 3
     64a:	09 f0       	breq	.+2      	; 0x64e <LanyardCode+0x3c>
     64c:	90 c0       	rjmp	.+288    	; 0x76e <LanyardCode+0x15c>
        return 0;

    /* activate led for buttonstate */
    iLED[CAT] = (buttonState==0xff ? 0 : dimValue);
     64e:	c0 91 e4 bf 	lds	r28, 0xBFE4	; 0x80bfe4 <__bss_end+0x84c8>
     652:	ec 2f       	mov	r30, r28
     654:	f0 e0       	ldi	r31, 0x00	; 0
     656:	80 91 08 38 	lds	r24, 0x3808	; 0x803808 <buttonState>
     65a:	8f 3f       	cpi	r24, 0xFF	; 255
     65c:	19 f0       	breq	.+6      	; 0x664 <LanyardCode+0x52>
     65e:	90 91 0c 38 	lds	r25, 0x380C	; 0x80380c <dimValue>
     662:	01 c0       	rjmp	.+2      	; 0x666 <LanyardCode+0x54>
     664:	90 e0       	ldi	r25, 0x00	; 0
     666:	e4 53       	subi	r30, 0x34	; 52
     668:	f5 4c       	sbci	r31, 0xC5	; 197
     66a:	90 83       	st	Z, r25

    if (buttonState == 0xff)
     66c:	8f 3f       	cpi	r24, 0xFF	; 255
     66e:	09 f4       	brne	.+2      	; 0x672 <LanyardCode+0x60>
     670:	7e c0       	rjmp	.+252    	; 0x76e <LanyardCode+0x15c>
        return 0;

    if (buttonState == lastButtonState)
     672:	90 91 07 38 	lds	r25, 0x3807	; 0x803807 <lastButtonState>
     676:	89 17       	cp	r24, r25
     678:	09 f4       	brne	.+2      	; 0x67c <LanyardCode+0x6a>
     67a:	79 c0       	rjmp	.+242    	; 0x76e <LanyardCode+0x15c>
        return 0;

    lanyardLastActive = getClock();
     67c:	0e 94 6c 0d 	call	0x1ad8	; 0x1ad8 <getClock>
     680:	80 93 35 38 	sts	0x3835, r24	; 0x803835 <lanyardLastActive>
     684:	90 93 36 38 	sts	0x3836, r25	; 0x803836 <lanyardLastActive+0x1>

    if (lastButtonState == 0xff){
     688:	80 91 07 38 	lds	r24, 0x3807	; 0x803807 <lastButtonState>
     68c:	8f 3f       	cpi	r24, 0xFF	; 255
     68e:	09 f0       	breq	.+2      	; 0x692 <LanyardCode+0x80>
     690:	6e c0       	rjmp	.+220    	; 0x76e <LanyardCode+0x15c>
        effect = 0x13f + (buttonState << 5);
     692:	80 91 08 38 	lds	r24, 0x3808	; 0x803808 <buttonState>
     696:	20 e2       	ldi	r18, 0x20	; 32
     698:	82 9f       	mul	r24, r18
     69a:	c0 01       	movw	r24, r0
     69c:	11 24       	eor	r1, r1
     69e:	81 5c       	subi	r24, 0xC1	; 193
     6a0:	9e 4f       	sbci	r25, 0xFE	; 254
     6a2:	80 93 3c 38 	sts	0x383C, r24	; 0x80383c <effect>
     6a6:	90 93 3d 38 	sts	0x383D, r25	; 0x80383d <effect+0x1>

        if (gameNow != LANYARD)
     6aa:	80 91 3e 38 	lds	r24, 0x383E	; 0x80383e <gameNow>
     6ae:	83 30       	cpi	r24, 0x03	; 3
            initLanyard();
     6b0:	09 f0       	breq	.+2      	; 0x6b4 <LanyardCode+0xa2>
     6b2:	a3 df       	rcall	.-186    	; 0x5fa <initLanyard>
        gameNow = LANYARD;
     6b4:	83 e0       	ldi	r24, 0x03	; 3
     6b6:	80 93 3e 38 	sts	0x383E, r24	; 0x80383e <gameNow>

        if (buttonState == lanyardCode[lanyardPos]) {
     6ba:	80 91 38 38 	lds	r24, 0x3838	; 0x803838 <lanyardPos>
     6be:	e8 2f       	mov	r30, r24
     6c0:	f0 e0       	ldi	r31, 0x00	; 0
     6c2:	e4 53       	subi	r30, 0x34	; 52
     6c4:	f0 44       	sbci	r31, 0x40	; 64
     6c6:	20 81       	ld	r18, Z
     6c8:	90 91 08 38 	lds	r25, 0x3808	; 0x803808 <buttonState>
     6cc:	29 13       	cpse	r18, r25
     6ce:	12 c0       	rjmp	.+36     	; 0x6f4 <LanyardCode+0xe2>
            lanyardState &= TRUE;
     6d0:	90 91 02 38 	lds	r25, 0x3802	; 0x803802 <lanyardState>
     6d4:	91 70       	andi	r25, 0x01	; 1
     6d6:	90 93 02 38 	sts	0x3802, r25	; 0x803802 <lanyardState>
            iLED[EYE[R][L]] = 0;
     6da:	e0 91 f3 bf 	lds	r30, 0xBFF3	; 0x80bff3 <__bss_end+0x84d7>
     6de:	f0 e0       	ldi	r31, 0x00	; 0
     6e0:	e4 53       	subi	r30, 0x34	; 52
     6e2:	f5 4c       	sbci	r31, 0xC5	; 197
     6e4:	10 82       	st	Z, r1
            iLED[EYE[R][R]] = 0;
     6e6:	e0 91 f2 bf 	lds	r30, 0xBFF2	; 0x80bff2 <__bss_end+0x84d6>
     6ea:	f0 e0       	ldi	r31, 0x00	; 0
     6ec:	e4 53       	subi	r30, 0x34	; 52
     6ee:	f5 4c       	sbci	r31, 0xC5	; 197
     6f0:	10 82       	st	Z, r1
     6f2:	09 c0       	rjmp	.+18     	; 0x706 <LanyardCode+0xf4>
        } else {
            lanyardState = FALSE;
     6f4:	10 92 02 38 	sts	0x3802, r1	; 0x803802 <lanyardState>
            if (lanyardPos < 4 ) {
     6f8:	84 30       	cpi	r24, 0x04	; 4
                initLanyard();
     6fa:	28 f4       	brcc	.+10     	; 0x706 <LanyardCode+0xf4>
     6fc:	7e df       	rcall	.-260    	; 0x5fa <initLanyard>
                gameNow         = BASTET;
     6fe:	82 e0       	ldi	r24, 0x02	; 2
     700:	80 93 3e 38 	sts	0x383E, r24	; 0x80383e <gameNow>
                return 0;
     704:	34 c0       	rjmp	.+104    	; 0x76e <LanyardCode+0x15c>
            }
        }
        lanyardPos++;
     706:	8f 5f       	subi	r24, 0xFF	; 255
     708:	80 93 38 38 	sts	0x3838, r24	; 0x803838 <lanyardPos>
        lanyardCnt++;            
     70c:	90 91 37 38 	lds	r25, 0x3837	; 0x803837 <lanyardCnt>
     710:	9f 5f       	subi	r25, 0xFF	; 255
        if (lanyardCnt >= 4) {
     712:	94 30       	cpi	r25, 0x04	; 4
     714:	18 f4       	brcc	.+6      	; 0x71c <LanyardCode+0x10a>
                gameNow         = BASTET;
                return 0;
            }
        }
        lanyardPos++;
        lanyardCnt++;            
     716:	90 93 37 38 	sts	0x3837, r25	; 0x803837 <lanyardCnt>
     71a:	29 c0       	rjmp	.+82     	; 0x76e <LanyardCode+0x15c>
        if (lanyardCnt >= 4) {
            lanyardCnt = 0;
     71c:	10 92 37 38 	sts	0x3837, r1	; 0x803837 <lanyardCnt>
            if (lanyardState == TRUE) {
     720:	90 91 02 38 	lds	r25, 0x3802	; 0x803802 <lanyardState>
     724:	91 30       	cpi	r25, 0x01	; 1
     726:	e1 f4       	brne	.+56     	; 0x760 <LanyardCode+0x14e>
                if ((lanyardPos % 4) == 0) {
     728:	98 2f       	mov	r25, r24
     72a:	93 70       	andi	r25, 0x03	; 3
     72c:	69 f4       	brne	.+26     	; 0x748 <LanyardCode+0x136>
                    iLED[HCKR[G][(lanyardPos>>2)-1]] = dimValue;
     72e:	e8 2f       	mov	r30, r24
     730:	e6 95       	lsr	r30
     732:	e6 95       	lsr	r30
     734:	f0 e0       	ldi	r31, 0x00	; 0
     736:	ea 50       	subi	r30, 0x0A	; 10
     738:	f0 44       	sbci	r31, 0x40	; 64
     73a:	e5 81       	ldd	r30, Z+5	; 0x05
     73c:	f0 e0       	ldi	r31, 0x00	; 0
     73e:	90 91 0c 38 	lds	r25, 0x380C	; 0x80380c <dimValue>
     742:	e4 53       	subi	r30, 0x34	; 52
     744:	f5 4c       	sbci	r31, 0xC5	; 197
                }
                if (lanyardPos == sizeof(lanyardCode)) {
     746:	90 83       	st	Z, r25
     748:	88 31       	cpi	r24, 0x18	; 24
                    UpdateState(LANYARD_COMPLETED);
     74a:	89 f4       	brne	.+34     	; 0x76e <LanyardCode+0x15c>
     74c:	8b e7       	ldi	r24, 0x7B	; 123
     74e:	b3 d6       	rcall	.+3430   	; 0x14b6 <UpdateState>
                    iLED[CAT]       = 0;
     750:	ec 2f       	mov	r30, r28
     752:	f0 e0       	ldi	r31, 0x00	; 0
     754:	e4 53       	subi	r30, 0x34	; 52
     756:	f5 4c       	sbci	r31, 0xC5	; 197
                    effect = 0x42;
     758:	10 82       	st	Z, r1
     75a:	82 e4       	ldi	r24, 0x42	; 66
     75c:	90 e0       	ldi	r25, 0x00	; 0
                    /*TODO state = STATE_MUSIC;*/
                }
            } else {
                initLanyard();
     75e:	03 c0       	rjmp	.+6      	; 0x766 <LanyardCode+0x154>
     760:	4c df       	rcall	.-360    	; 0x5fa <initLanyard>
                effect = 0x21;
     762:	81 e2       	ldi	r24, 0x21	; 33
     764:	90 e0       	ldi	r25, 0x00	; 0
     766:	80 93 3c 38 	sts	0x383C, r24	; 0x80383c <effect>
     76a:	90 93 3d 38 	sts	0x383D, r25	; 0x80383d <effect+0x1>
            }
        }
    }

    return 0;
}
     76e:	80 e0       	ldi	r24, 0x00	; 0
     770:	cf 91       	pop	r28
     772:	08 95       	ret

00000774 <initMaze>:
uint8_t         mazeState = TRUE;
uint8_t         inverted  = FALSE;
uint16_t        mazeLastActive = 0;

void initMaze() {
    mazeHckrPos = 0;
     774:	10 92 4b 38 	sts	0x384B, r1	; 0x80384b <mazeHckrPos>
    mazePos = 0;
     778:	10 92 4c 38 	sts	0x384C, r1	; 0x80384c <mazePos>
    mazeCnt = 0;
     77c:	10 92 4a 38 	sts	0x384A, r1	; 0x80384a <mazeCnt>
    mazeState = TRUE;
     780:	81 e0       	ldi	r24, 0x01	; 1
     782:	80 93 0d 38 	sts	0x380D, r24	; 0x80380d <mazeState>
    inverted  = FALSE;
     786:	10 92 49 38 	sts	0x3849, r1	; 0x803849 <inverted>
    effect = 0;
     78a:	10 92 3c 38 	sts	0x383C, r1	; 0x80383c <effect>
     78e:	10 92 3d 38 	sts	0x383D, r1	; 0x80383d <effect+0x1>
     792:	08 95       	ret

00000794 <showFieldStrength>:
}

void showFieldStrength(int16_t val) {
    int16_t tmp;

    tmp = abs(val);
     794:	97 ff       	sbrs	r25, 7
     796:	03 c0       	rjmp	.+6      	; 0x79e <showFieldStrength+0xa>
     798:	91 95       	neg	r25
     79a:	81 95       	neg	r24
     79c:	91 09       	sbc	r25, r1

    if ( tmp*2 > HALL_LOW )
     79e:	9c 01       	movw	r18, r24
     7a0:	22 0f       	add	r18, r18
     7a2:	33 1f       	adc	r19, r19
     7a4:	29 37       	cpi	r18, 0x79	; 121
     7a6:	31 05       	cpc	r19, r1
     7a8:	1c f0       	brlt	.+6      	; 0x7b0 <showFieldStrength+0x1c>
        gameNow = MAZE;
     7aa:	41 e0       	ldi	r20, 0x01	; 1
     7ac:	40 93 3e 38 	sts	0x383E, r20	; 0x80383e <gameNow>

    if (gameNow == MAZE) {
     7b0:	40 91 3e 38 	lds	r20, 0x383E	; 0x80383e <gameNow>
     7b4:	41 30       	cpi	r20, 0x01	; 1
     7b6:	21 f5       	brne	.+72     	; 0x800 <showFieldStrength+0x6c>
        if ( tmp*2 < HALL_LOW )
     7b8:	28 37       	cpi	r18, 0x78	; 120
     7ba:	31 05       	cpc	r19, r1
     7bc:	1c f4       	brge	.+6      	; 0x7c4 <showFieldStrength+0x30>
            WingBar(0,0);
     7be:	60 e0       	ldi	r22, 0x00	; 0
     7c0:	80 e0       	ldi	r24, 0x00	; 0
     7c2:	1d c0       	rjmp	.+58     	; 0x7fe <showFieldStrength+0x6a>
        else if ( tmp   < HALL_LOW )
     7c4:	88 37       	cpi	r24, 0x78	; 120
     7c6:	91 05       	cpc	r25, r1
     7c8:	1c f4       	brge	.+6      	; 0x7d0 <showFieldStrength+0x3c>
            WingBar(1,1);
     7ca:	61 e0       	ldi	r22, 0x01	; 1
     7cc:	81 e0       	ldi	r24, 0x01	; 1
     7ce:	17 c0       	rjmp	.+46     	; 0x7fe <showFieldStrength+0x6a>
        else if ( tmp*2 < HALL_HIGH )
     7d0:	2c 32       	cpi	r18, 0x2C	; 44
     7d2:	41 e0       	ldi	r20, 0x01	; 1
     7d4:	34 07       	cpc	r19, r20
     7d6:	1c f4       	brge	.+6      	; 0x7de <showFieldStrength+0x4a>
            WingBar(2,2);
     7d8:	62 e0       	ldi	r22, 0x02	; 2
     7da:	82 e0       	ldi	r24, 0x02	; 2
     7dc:	10 c0       	rjmp	.+32     	; 0x7fe <showFieldStrength+0x6a>
        else if ( tmp*3 < HALL_HIGH*2 )
     7de:	28 0f       	add	r18, r24
     7e0:	39 1f       	adc	r19, r25
     7e2:	28 35       	cpi	r18, 0x58	; 88
     7e4:	32 40       	sbci	r19, 0x02	; 2
     7e6:	1c f4       	brge	.+6      	; 0x7ee <showFieldStrength+0x5a>
            WingBar(3,3);
     7e8:	63 e0       	ldi	r22, 0x03	; 3
     7ea:	83 e0       	ldi	r24, 0x03	; 3
     7ec:	08 c0       	rjmp	.+16     	; 0x7fe <showFieldStrength+0x6a>
        else if ( tmp   < HALL_HIGH )
     7ee:	8c 32       	cpi	r24, 0x2C	; 44
     7f0:	91 40       	sbci	r25, 0x01	; 1
     7f2:	1c f4       	brge	.+6      	; 0x7fa <showFieldStrength+0x66>
            WingBar(4,4);
     7f4:	64 e0       	ldi	r22, 0x04	; 4
     7f6:	84 e0       	ldi	r24, 0x04	; 4
     7f8:	02 c0       	rjmp	.+4      	; 0x7fe <showFieldStrength+0x6a>
        else
            WingBar(5,5);
     7fa:	65 e0       	ldi	r22, 0x05	; 5
     7fc:	85 e0       	ldi	r24, 0x05	; 5
     7fe:	3e c7       	rjmp	.+3708   	; 0x167c <WingBar>
     800:	08 95       	ret

00000802 <MagnetMaze>:
    }
}

// Main game loop
uint8_t MagnetMaze(){
     802:	cf 93       	push	r28
     804:	df 93       	push	r29
    if (gameNow == MAZE && idleTimeout(mazeLastActive,MAZE_MAX_IDLE)) {
     806:	80 91 3e 38 	lds	r24, 0x383E	; 0x80383e <gameNow>
     80a:	81 30       	cpi	r24, 0x01	; 1
     80c:	71 f4       	brne	.+28     	; 0x82a <MagnetMaze+0x28>
     80e:	6a e0       	ldi	r22, 0x0A	; 10
     810:	70 e0       	ldi	r23, 0x00	; 0
     812:	80 91 47 38 	lds	r24, 0x3847	; 0x803847 <mazeLastActive>
     816:	90 91 48 38 	lds	r25, 0x3848	; 0x803848 <mazeLastActive+0x1>
     81a:	0e 94 7b 0d 	call	0x1af6	; 0x1af6 <idleTimeout>
     81e:	88 23       	and	r24, r24
     820:	21 f0       	breq	.+8      	; 0x82a <MagnetMaze+0x28>
        /* clean up maze game and go back to text game */
        initMaze();
     822:	a8 df       	rcall	.-176    	; 0x774 <initMaze>
        gameNow = TEXT;
     824:	10 92 3e 38 	sts	0x383E, r1	; 0x80383e <gameNow>
        return 0;
     828:	e5 c0       	rjmp	.+458    	; 0x9f4 <MagnetMaze+0x1f2>
    }
        
    if (CheckState(MAZE_INACTIVE))
     82a:	87 ef       	ldi	r24, 0xF7	; 247
     82c:	4e d6       	rcall	.+3228   	; 0x14ca <CheckState>
     82e:	81 11       	cpse	r24, r1
     830:	e1 c0       	rjmp	.+450    	; 0x9f4 <MagnetMaze+0x1f2>
        return 0;

    if (CheckState(MAZE_COMPLETED))
     832:	8d e7       	ldi	r24, 0x7D	; 125
     834:	4a d6       	rcall	.+3220   	; 0x14ca <CheckState>
     836:	81 11       	cpse	r24, r1
     838:	dd c0       	rjmp	.+442    	; 0x9f4 <MagnetMaze+0x1f2>
     83a:	80 91 3e 38 	lds	r24, 0x383E	; 0x80383e <gameNow>
        return 0;

    if ( (gameNow != TEXT) && (gameNow != MAZE) )
     83e:	82 30       	cpi	r24, 0x02	; 2
     840:	08 f0       	brcs	.+2      	; 0x844 <MagnetMaze+0x42>
     842:	d8 c0       	rjmp	.+432    	; 0x9f4 <MagnetMaze+0x1f2>
     844:	80 91 f5 3a 	lds	r24, 0x3AF5	; 0x803af5 <calHall>
        return 0;

    if (calHall == 0)
     848:	90 91 f6 3a 	lds	r25, 0x3AF6	; 0x803af6 <calHall+0x1>
     84c:	89 2b       	or	r24, r25
     84e:	41 f4       	brne	.+16     	; 0x860 <MagnetMaze+0x5e>
     850:	80 91 bd 3a 	lds	r24, 0x3ABD	; 0x803abd <adcHall>
        calHall = adcHall;
     854:	90 91 be 3a 	lds	r25, 0x3ABE	; 0x803abe <adcHall+0x1>
     858:	80 93 f5 3a 	sts	0x3AF5, r24	; 0x803af5 <calHall>
     85c:	90 93 f6 3a 	sts	0x3AF6, r25	; 0x803af6 <calHall+0x1>
     860:	c0 91 bd 3a 	lds	r28, 0x3ABD	; 0x803abd <adcHall>

    int16_t valHall = adcHall - calHall;
     864:	d0 91 be 3a 	lds	r29, 0x3ABE	; 0x803abe <adcHall+0x1>
     868:	80 91 f5 3a 	lds	r24, 0x3AF5	; 0x803af5 <calHall>
     86c:	90 91 f6 3a 	lds	r25, 0x3AF6	; 0x803af6 <calHall+0x1>
     870:	c8 1b       	sub	r28, r24
     872:	d9 0b       	sbc	r29, r25
    showFieldStrength(valHall);
     874:	ce 01       	movw	r24, r28
     876:	8e df       	rcall	.-228    	; 0x794 <showFieldStrength>
     878:	80 91 4e 38 	lds	r24, 0x384E	; 0x80384e <curHallState>

    switch (curHallState) {
     87c:	81 30       	cpi	r24, 0x01	; 1
     87e:	89 f0       	breq	.+34     	; 0x8a2 <MagnetMaze+0xa0>
     880:	18 f0       	brcs	.+6      	; 0x888 <MagnetMaze+0x86>
     882:	82 30       	cpi	r24, 0x02	; 2
     884:	c1 f0       	breq	.+48     	; 0x8b6 <MagnetMaze+0xb4>
     886:	1f c0       	rjmp	.+62     	; 0x8c6 <MagnetMaze+0xc4>
     888:	c4 3d       	cpi	r28, 0xD4	; 212
        case 0:
            if ( valHall + HALL_HIGH < 0 ) {
     88a:	9e ef       	ldi	r25, 0xFE	; 254
     88c:	d9 07       	cpc	r29, r25
     88e:	14 f4       	brge	.+4      	; 0x894 <MagnetMaze+0x92>
     890:	91 e0       	ldi	r25, 0x01	; 1
                newHallState = 1;
     892:	04 c0       	rjmp	.+8      	; 0x89c <MagnetMaze+0x9a>
     894:	cd 32       	cpi	r28, 0x2D	; 45
            } else if ( valHall - HALL_HIGH > 0 ) {
     896:	d1 40       	sbci	r29, 0x01	; 1
     898:	5c f0       	brlt	.+22     	; 0x8b0 <MagnetMaze+0xae>
     89a:	92 e0       	ldi	r25, 0x02	; 2
                newHallState = 2;
     89c:	90 93 4d 38 	sts	0x384D, r25	; 0x80384d <newHallState>
     8a0:	12 c0       	rjmp	.+36     	; 0x8c6 <MagnetMaze+0xc4>
     8a2:	cd 32       	cpi	r28, 0x2D	; 45
                newHallState = 0;
            }
            break;
        
        case 1:
            if ( valHall - HALL_HIGH > 0 ) {
     8a4:	91 e0       	ldi	r25, 0x01	; 1
     8a6:	d9 07       	cpc	r29, r25
     8a8:	c4 f7       	brge	.-16     	; 0x89a <MagnetMaze+0x98>
     8aa:	c9 38       	cpi	r28, 0x89	; 137
                newHallState = 2;
            } else if ( valHall + HALL_LOW > 0 ) {
     8ac:	df 4f       	sbci	r29, 0xFF	; 255
     8ae:	84 f3       	brlt	.-32     	; 0x890 <MagnetMaze+0x8e>
     8b0:	10 92 4d 38 	sts	0x384D, r1	; 0x80384d <newHallState>
            if ( valHall + HALL_HIGH < 0 ) {
                newHallState = 1;
            } else if ( valHall - HALL_HIGH > 0 ) {
                newHallState = 2;
            } else {
                newHallState = 0;
     8b4:	08 c0       	rjmp	.+16     	; 0x8c6 <MagnetMaze+0xc4>
     8b6:	c4 3d       	cpi	r28, 0xD4	; 212
                newHallState = 1;
            }
            break;
        
        case 2:
            if ( valHall + HALL_HIGH < 0 ) {
     8b8:	9e ef       	ldi	r25, 0xFE	; 254
     8ba:	d9 07       	cpc	r29, r25
     8bc:	4c f3       	brlt	.-46     	; 0x890 <MagnetMaze+0x8e>
     8be:	c8 37       	cpi	r28, 0x78	; 120
                newHallState = 1;
            } else if ( valHall - HALL_LOW < 0 ) {
     8c0:	d1 05       	cpc	r29, r1
     8c2:	b4 f3       	brlt	.-20     	; 0x8b0 <MagnetMaze+0xae>
     8c4:	ea cf       	rjmp	.-44     	; 0x89a <MagnetMaze+0x98>
     8c6:	c0 91 e4 bf 	lds	r28, 0xBFE4	; 0x80bfe4 <__bss_end+0x84c8>
            }
            break;
    }

    /* Indicate that the magnet was read succesfully */
    iLED[CAT] = (newHallState ? dimValue : 0);
     8ca:	ec 2f       	mov	r30, r28
     8cc:	f0 e0       	ldi	r31, 0x00	; 0
     8ce:	90 91 4d 38 	lds	r25, 0x384D	; 0x80384d <newHallState>
     8d2:	99 23       	and	r25, r25
     8d4:	19 f0       	breq	.+6      	; 0x8dc <MagnetMaze+0xda>
     8d6:	20 91 0c 38 	lds	r18, 0x380C	; 0x80380c <dimValue>
     8da:	01 c0       	rjmp	.+2      	; 0x8de <MagnetMaze+0xdc>
     8dc:	20 e0       	ldi	r18, 0x00	; 0
     8de:	e4 53       	subi	r30, 0x34	; 52
     8e0:	f5 4c       	sbci	r31, 0xC5	; 197
     8e2:	20 83       	st	Z, r18
     8e4:	2f e9       	ldi	r18, 0x9F	; 159
    effect = 0x19f;
     8e6:	31 e0       	ldi	r19, 0x01	; 1
     8e8:	20 93 3c 38 	sts	0x383C, r18	; 0x80383c <effect>
     8ec:	30 93 3d 38 	sts	0x383D, r19	; 0x80383d <effect+0x1>
     8f0:	89 17       	cp	r24, r25

    if (newHallState != curHallState) {
     8f2:	09 f4       	brne	.+2      	; 0x8f6 <MagnetMaze+0xf4>
     8f4:	7f c0       	rjmp	.+254    	; 0x9f4 <MagnetMaze+0x1f2>
     8f6:	0e 94 6c 0d 	call	0x1ad8	; 0x1ad8 <getClock>
        /* keep track of time to enable an idle timeout to exit the game */
        mazeLastActive = getClock();
     8fa:	80 93 47 38 	sts	0x3847, r24	; 0x803847 <mazeLastActive>
     8fe:	90 93 48 38 	sts	0x3848, r25	; 0x803848 <mazeLastActive+0x1>
     902:	90 91 4c 38 	lds	r25, 0x384C	; 0x80384c <mazePos>

        /* Make the maze work regardless of badge orientation */
        if ((mazePos == 0) && (newHallState != 0))
     906:	80 91 4d 38 	lds	r24, 0x384D	; 0x80384d <newHallState>
     90a:	91 11       	cpse	r25, r1
     90c:	08 c0       	rjmp	.+16     	; 0x91e <MagnetMaze+0x11c>
     90e:	88 23       	and	r24, r24
     910:	31 f0       	breq	.+12     	; 0x91e <MagnetMaze+0x11c>
     912:	91 e0       	ldi	r25, 0x01	; 1
            inverted = (newHallState != mazeCode[0]) ? TRUE : FALSE;
     914:	81 30       	cpi	r24, 0x01	; 1
     916:	09 f4       	brne	.+2      	; 0x91a <MagnetMaze+0x118>
     918:	90 e0       	ldi	r25, 0x00	; 0
     91a:	90 93 49 38 	sts	0x3849, r25	; 0x803849 <inverted>
     91e:	80 93 4e 38 	sts	0x384E, r24	; 0x80384e <curHallState>

        curHallState = newHallState;
     922:	88 23       	and	r24, r24
        
        if (curHallState != 0) {
     924:	09 f4       	brne	.+2      	; 0x928 <MagnetMaze+0x126>
     926:	66 c0       	rjmp	.+204    	; 0x9f4 <MagnetMaze+0x1f2>
     928:	80 91 3e 38 	lds	r24, 0x383E	; 0x80383e <gameNow>
            if (gameNow == TEXT)
     92c:	81 11       	cpse	r24, r1
     92e:	01 c0       	rjmp	.+2      	; 0x932 <MagnetMaze+0x130>
                initMaze();
     930:	21 df       	rcall	.-446    	; 0x774 <initMaze>
     932:	81 e0       	ldi	r24, 0x01	; 1
            gameNow = MAZE;
     934:	80 93 3e 38 	sts	0x383E, r24	; 0x80383e <gameNow>
     938:	80 91 49 38 	lds	r24, 0x3849	; 0x803849 <inverted>

            if ( (inverted ? curHallState^3 : curHallState) == mazeCode[mazePos]) {
     93c:	20 91 4e 38 	lds	r18, 0x384E	; 0x80384e <curHallState>
     940:	88 23       	and	r24, r24
     942:	11 f0       	breq	.+4      	; 0x948 <MagnetMaze+0x146>
     944:	83 e0       	ldi	r24, 0x03	; 3
     946:	28 27       	eor	r18, r24
     948:	30 e0       	ldi	r19, 0x00	; 0
     94a:	80 91 4c 38 	lds	r24, 0x384C	; 0x80384c <mazePos>
     94e:	e8 2f       	mov	r30, r24
     950:	f0 e0       	ldi	r31, 0x00	; 0
     952:	ee 5c       	subi	r30, 0xCE	; 206
     954:	ff 43       	sbci	r31, 0x3F	; 63
     956:	40 81       	ld	r20, Z
     958:	50 e0       	ldi	r21, 0x00	; 0
     95a:	24 17       	cp	r18, r20
     95c:	35 07       	cpc	r19, r21
     95e:	91 f4       	brne	.+36     	; 0x984 <MagnetMaze+0x182>
     960:	90 91 0d 38 	lds	r25, 0x380D	; 0x80380d <mazeState>
                mazeState &= TRUE;
     964:	91 70       	andi	r25, 0x01	; 1
     966:	90 93 0d 38 	sts	0x380D, r25	; 0x80380d <mazeState>
     96a:	e0 91 f3 bf 	lds	r30, 0xBFF3	; 0x80bff3 <__bss_end+0x84d7>
                iLED[EYE[R][L]] = 0;
     96e:	f0 e0       	ldi	r31, 0x00	; 0
     970:	e4 53       	subi	r30, 0x34	; 52
     972:	f5 4c       	sbci	r31, 0xC5	; 197
     974:	10 82       	st	Z, r1
     976:	e0 91 f2 bf 	lds	r30, 0xBFF2	; 0x80bff2 <__bss_end+0x84d6>
                iLED[EYE[R][R]] = 0;
     97a:	f0 e0       	ldi	r31, 0x00	; 0
     97c:	e4 53       	subi	r30, 0x34	; 52
     97e:	f5 4c       	sbci	r31, 0xC5	; 197
     980:	10 82       	st	Z, r1
     982:	02 c0       	rjmp	.+4      	; 0x988 <MagnetMaze+0x186>
     984:	10 92 0d 38 	sts	0x380D, r1	; 0x80380d <mazeState>
            } else {
                mazeState = FALSE;
     988:	8f 5f       	subi	r24, 0xFF	; 255
            }
            mazePos++;
     98a:	80 93 4c 38 	sts	0x384C, r24	; 0x80384c <mazePos>
     98e:	90 91 4a 38 	lds	r25, 0x384A	; 0x80384a <mazeCnt>
            mazeCnt++;            
     992:	9f 5f       	subi	r25, 0xFF	; 255
     994:	93 30       	cpi	r25, 0x03	; 3
            if (mazeCnt >= 3) {
     996:	18 f4       	brcc	.+6      	; 0x99e <MagnetMaze+0x19c>
     998:	90 93 4a 38 	sts	0x384A, r25	; 0x80384a <mazeCnt>
                iLED[EYE[R][R]] = 0;
            } else {
                mazeState = FALSE;
            }
            mazePos++;
            mazeCnt++;            
     99c:	2b c0       	rjmp	.+86     	; 0x9f4 <MagnetMaze+0x1f2>
     99e:	10 92 4a 38 	sts	0x384A, r1	; 0x80384a <mazeCnt>
            if (mazeCnt >= 3) {
                mazeCnt = 0;
     9a2:	90 91 0d 38 	lds	r25, 0x380D	; 0x80380d <mazeState>
                if (mazeState == TRUE) {
     9a6:	91 30       	cpi	r25, 0x01	; 1
     9a8:	e1 f4       	brne	.+56     	; 0x9e2 <MagnetMaze+0x1e0>
     9aa:	90 91 4b 38 	lds	r25, 0x384B	; 0x80384b <mazeHckrPos>
                    iLED[HCKR[G][mazeHckrPos]] = dimValue;
     9ae:	e9 2f       	mov	r30, r25
     9b0:	f0 e0       	ldi	r31, 0x00	; 0
     9b2:	ea 50       	subi	r30, 0x0A	; 10
     9b4:	f0 44       	sbci	r31, 0x40	; 64
     9b6:	e6 81       	ldd	r30, Z+6	; 0x06
     9b8:	f0 e0       	ldi	r31, 0x00	; 0
     9ba:	20 91 0c 38 	lds	r18, 0x380C	; 0x80380c <dimValue>
     9be:	e4 53       	subi	r30, 0x34	; 52
     9c0:	f5 4c       	sbci	r31, 0xC5	; 197
     9c2:	20 83       	st	Z, r18
     9c4:	9f 5f       	subi	r25, 0xFF	; 255
                    mazeHckrPos++;
     9c6:	90 93 4b 38 	sts	0x384B, r25	; 0x80384b <mazeHckrPos>
                    if (mazePos == sizeof(mazeCode)) {
     9ca:	82 31       	cpi	r24, 0x12	; 18
     9cc:	99 f4       	brne	.+38     	; 0x9f4 <MagnetMaze+0x1f2>
                        UpdateState(MAZE_COMPLETED);
     9ce:	8d e7       	ldi	r24, 0x7D	; 125
     9d0:	72 d5       	rcall	.+2788   	; 0x14b6 <UpdateState>
     9d2:	ec 2f       	mov	r30, r28
                        iLED[CAT]       = 0;
     9d4:	f0 e0       	ldi	r31, 0x00	; 0
     9d6:	e4 53       	subi	r30, 0x34	; 52
     9d8:	f5 4c       	sbci	r31, 0xC5	; 197
     9da:	10 82       	st	Z, r1
                        effect = 0x42;
     9dc:	82 e4       	ldi	r24, 0x42	; 66
     9de:	90 e0       	ldi	r25, 0x00	; 0
     9e0:	05 c0       	rjmp	.+10     	; 0x9ec <MagnetMaze+0x1ea>
                        /*TODO state = STATE_MUSIC;*/
                    }
                } else {
                    initMaze();
     9e2:	c8 de       	rcall	.-624    	; 0x774 <initMaze>
     9e4:	10 92 3e 38 	sts	0x383E, r1	; 0x80383e <gameNow>
                    gameNow   = TEXT;
     9e8:	81 e2       	ldi	r24, 0x21	; 33
                    effect = 0x21;
     9ea:	90 e0       	ldi	r25, 0x00	; 0
     9ec:	80 93 3c 38 	sts	0x383C, r24	; 0x80383c <effect>
     9f0:	90 93 3d 38 	sts	0x383D, r25	; 0x80383d <effect+0x1>
     9f4:	80 e0       	ldi	r24, 0x00	; 0
                }
            }
        }
    }
    return 0;
}
     9f6:	df 91       	pop	r29
     9f8:	cf 91       	pop	r28
     9fa:	08 95       	ret

000009fc <Setup>:
     9fc:	cf 93       	push	r28
volatile uint16_t tmp16bit;    
volatile uint8_t mask[8] = {0x01, 0x03, 0x07, 0x0f, 0x1f, 0x3f, 0x7f, 0xff};
uint8_t HeartCount = 0;
uint8_t LedCount = 0;

void Setup(){
     9fe:	df 93       	push	r29
    cli();
     a00:	f8 94       	cli

    //Set up clock at 10MHz
    CCP = CCP_IOREG_gc;
     a02:	88 ed       	ldi	r24, 0xD8	; 216
     a04:	84 bf       	out	0x34, r24	; 52
    CLKCTRL_MCLKCTRLB = 0x01;
     a06:	c1 e0       	ldi	r28, 0x01	; 1
     a08:	c0 93 61 00 	sts	0x0061, r28	; 0x800061 <__TEXT_REGION_LENGTH__+0x700061>

    //Set I/O direction registers
    PORTA_DIR = 0b01001010;
     a0c:	8a e4       	ldi	r24, 0x4A	; 74
     a0e:	80 93 00 04 	sts	0x0400, r24	; 0x800400 <__TEXT_REGION_LENGTH__+0x700400>
    PORTB_DIR = 0b01111100;
     a12:	8c e7       	ldi	r24, 0x7C	; 124
     a14:	80 93 20 04 	sts	0x0420, r24	; 0x800420 <__TEXT_REGION_LENGTH__+0x700420>
    PORTC_DIR = 0b00111111;
     a18:	9f e3       	ldi	r25, 0x3F	; 63
     a1a:	90 93 40 04 	sts	0x0440, r25	; 0x800440 <__TEXT_REGION_LENGTH__+0x700440>

    //Invert some pins for correcting LED reversal error
    PORTC_PIN3CTRL |= 0x80;
     a1e:	80 91 53 04 	lds	r24, 0x0453	; 0x800453 <__TEXT_REGION_LENGTH__+0x700453>
     a22:	80 68       	ori	r24, 0x80	; 128
     a24:	80 93 53 04 	sts	0x0453, r24	; 0x800453 <__TEXT_REGION_LENGTH__+0x700453>
    PORTC_PIN4CTRL |= 0x80;
     a28:	80 91 54 04 	lds	r24, 0x0454	; 0x800454 <__TEXT_REGION_LENGTH__+0x700454>
     a2c:	80 68       	ori	r24, 0x80	; 128
     a2e:	80 93 54 04 	sts	0x0454, r24	; 0x800454 <__TEXT_REGION_LENGTH__+0x700454>
    PORTC_PIN5CTRL |= 0x80;
     a32:	80 91 55 04 	lds	r24, 0x0455	; 0x800455 <__TEXT_REGION_LENGTH__+0x700455>
     a36:	80 68       	ori	r24, 0x80	; 128
     a38:	80 93 55 04 	sts	0x0455, r24	; 0x800455 <__TEXT_REGION_LENGTH__+0x700455>
    PORTB_PIN3CTRL |= 0x80;
     a3c:	80 91 33 04 	lds	r24, 0x0433	; 0x800433 <__TEXT_REGION_LENGTH__+0x700433>
     a40:	80 68       	ori	r24, 0x80	; 128
     a42:	80 93 33 04 	sts	0x0433, r24	; 0x800433 <__TEXT_REGION_LENGTH__+0x700433>
    PORTB_PIN4CTRL |= 0x80;
     a46:	80 91 34 04 	lds	r24, 0x0434	; 0x800434 <__TEXT_REGION_LENGTH__+0x700434>
     a4a:	80 68       	ori	r24, 0x80	; 128
     a4c:	80 93 34 04 	sts	0x0434, r24	; 0x800434 <__TEXT_REGION_LENGTH__+0x700434>
    PORTB_PIN5CTRL |= 0x80;
     a50:	80 91 35 04 	lds	r24, 0x0435	; 0x800435 <__TEXT_REGION_LENGTH__+0x700435>
     a54:	80 68       	ori	r24, 0x80	; 128
     a56:	80 93 35 04 	sts	0x0435, r24	; 0x800435 <__TEXT_REGION_LENGTH__+0x700435>
    PORTB_PIN2CTRL |= 0x80;
    PORTB_PIN6CTRL |= 0x80;
    */

    //UART (Alternative pins PA1=TxD, PA2=RxD, baudrate 9600, 8n1, RX and Buffer empty interrupts on)
    PORTMUX_CTRLB = 0x01;
     a5a:	c0 93 01 02 	sts	0x0201, r28	; 0x800201 <__TEXT_REGION_LENGTH__+0x700201>
    PORTA_OUTSET = 0x02;
     a5e:	d2 e0       	ldi	r29, 0x02	; 2
     a60:	d0 93 05 04 	sts	0x0405, r29	; 0x800405 <__TEXT_REGION_LENGTH__+0x700405>
    USART0_BAUD = (uint16_t)USART0_BAUD_RATE(115200);
     a64:	2b e5       	ldi	r18, 0x5B	; 91
     a66:	31 e0       	ldi	r19, 0x01	; 1
     a68:	20 93 08 08 	sts	0x0808, r18	; 0x800808 <__TEXT_REGION_LENGTH__+0x700808>
     a6c:	30 93 09 08 	sts	0x0809, r19	; 0x800809 <__TEXT_REGION_LENGTH__+0x700809>
    USART0_CTRLA = 0xA0; //Interrupts on
     a70:	80 ea       	ldi	r24, 0xA0	; 160
     a72:	80 93 05 08 	sts	0x0805, r24	; 0x800805 <__TEXT_REGION_LENGTH__+0x700805>
    USART0_CTRLB = 0xC0; //RX and TX on
     a76:	80 ec       	ldi	r24, 0xC0	; 192
     a78:	80 93 06 08 	sts	0x0806, r24	; 0x800806 <__TEXT_REGION_LENGTH__+0x700806>
    USART0_CTRLC = 0x03; //8 bits data, no parity, 1 stop bit
     a7c:	83 e0       	ldi	r24, 0x03	; 3
     a7e:	80 93 07 08 	sts	0x0807, r24	; 0x800807 <__TEXT_REGION_LENGTH__+0x700807>
     
    //GPIO registers 0..3 can be used for global variables used in ISR routines (ASM capability: IN, OUT, SBI, CBI, SBIS, SBIC)
    L_COL = 0;     //Used in LED array to hold currently driven column value
     a82:	1c ba       	out	0x1c, r1	; 28
    RXCNT = 0;     //Used as UART receive counter
     a84:	1d ba       	out	0x1d, r1	; 29
    AUPOS = 0;     //Used as audio input/output buffer counter
     a86:	1e ba       	out	0x1e, r1	; 30
    GPIOR3 = 0;    //
     a88:	1f ba       	out	0x1f, r1	; 31

    //Init TCA (split mode, f_CLK/16, PWM on 6 alternative pins, underflow int enabled, synced and started)
    TCA0_SPLIT_CTRLD = 1;
     a8a:	c0 93 03 0a 	sts	0x0A03, r28	; 0x800a03 <__TEXT_REGION_LENGTH__+0x700a03>
    TCA0_SPLIT_CTRLA = (0x4)<<1;
     a8e:	88 e0       	ldi	r24, 0x08	; 8
     a90:	80 93 00 0a 	sts	0x0A00, r24	; 0x800a00 <__TEXT_REGION_LENGTH__+0x700a00>
    PORTMUX_CTRLC = 0x3F;
     a94:	90 93 02 02 	sts	0x0202, r25	; 0x800202 <__TEXT_REGION_LENGTH__+0x700202>
    TCA0_SPLIT_CTRLB = 0x77;
     a98:	87 e7       	ldi	r24, 0x77	; 119
     a9a:	80 93 01 0a 	sts	0x0A01, r24	; 0x800a01 <__TEXT_REGION_LENGTH__+0x700a01>
    TCA0_SPLIT_INTCTRL = 0x1;
     a9e:	c0 93 0a 0a 	sts	0x0A0A, r28	; 0x800a0a <__TEXT_REGION_LENGTH__+0x700a0a>
    TCA0_SPLIT_CTRLESET = ((0x2)<<2)|0x3;
     aa2:	8b e0       	ldi	r24, 0x0B	; 11
     aa4:	80 93 05 0a 	sts	0x0A05, r24	; 0x800a05 <__TEXT_REGION_LENGTH__+0x700a05>
    TCA0_SPLIT_CTRLA |= 1;
     aa8:	80 91 00 0a 	lds	r24, 0x0A00	; 0x800a00 <__TEXT_REGION_LENGTH__+0x700a00>
     aac:	81 60       	ori	r24, 0x01	; 1
     aae:	80 93 00 0a 	sts	0x0A00, r24	; 0x800a00 <__TEXT_REGION_LENGTH__+0x700a00>
     
    //Init TCB0 (compare value sets serial Tx pause between characters, uses TCA0 prescaler, enabled, interrupt disabled)
    TCB0_CTRLA = ((0x02)<<1)|0x01;
     ab2:	85 e0       	ldi	r24, 0x05	; 5
     ab4:	80 93 40 0a 	sts	0x0A40, r24	; 0x800a40 <__TEXT_REGION_LENGTH__+0x700a40>
    TCB0_CTRLB = 0;
     ab8:	10 92 41 0a 	sts	0x0A41, r1	; 0x800a41 <__TEXT_REGION_LENGTH__+0x700a41>
    TCB0_CCMP = 0x01FF;
     abc:	8f ef       	ldi	r24, 0xFF	; 255
     abe:	91 e0       	ldi	r25, 0x01	; 1
     ac0:	80 93 4c 0a 	sts	0x0A4C, r24	; 0x800a4c <__TEXT_REGION_LENGTH__+0x700a4c>
     ac4:	90 93 4d 0a 	sts	0x0A4D, r25	; 0x800a4d <__TEXT_REGION_LENGTH__+0x700a4d>
    TCB0_INTCTRL = 0x00;     
     ac8:	10 92 45 0a 	sts	0x0A45, r1	; 0x800a45 <__TEXT_REGION_LENGTH__+0x700a45>
     
    //Init TCB1 (compare value sets audio sample rate (0x038B = 11025sps), enabled, interrupt enabled)
    TCB1_CTRLA = 0x01;
     acc:	c0 93 50 0a 	sts	0x0A50, r28	; 0x800a50 <__TEXT_REGION_LENGTH__+0x700a50>
    TCB1_CTRLB = 0;
     ad0:	10 92 51 0a 	sts	0x0A51, r1	; 0x800a51 <__TEXT_REGION_LENGTH__+0x700a51>
    TCB1_CCMP = 0x038B;
     ad4:	8b e8       	ldi	r24, 0x8B	; 139
     ad6:	93 e0       	ldi	r25, 0x03	; 3
     ad8:	80 93 5c 0a 	sts	0x0A5C, r24	; 0x800a5c <__TEXT_REGION_LENGTH__+0x700a5c>
     adc:	90 93 5d 0a 	sts	0x0A5D, r25	; 0x800a5d <__TEXT_REGION_LENGTH__+0x700a5d>
    TCB1_INTCTRL = 0x01;
     ae0:	c0 93 55 0a 	sts	0x0A55, r28	; 0x800a55 <__TEXT_REGION_LENGTH__+0x700a55>

    //Init I2C (100kHz)
    I2C_init();
     ae4:	47 dc       	rcall	.-1906   	; 0x374 <I2C_init>

    //VREF (DAC, ADC's)
    VREF_CTRLA   = 0x12;    //0x22 for audio in/out (2.5V), 0x12 for temperature in, audio out (1.1V/2.5V)
     ae6:	82 e1       	ldi	r24, 0x12	; 18
     ae8:	80 93 a0 00 	sts	0x00A0, r24	; 0x8000a0 <__TEXT_REGION_LENGTH__+0x7000a0>
    VREF_CTRLC   = 0x20;    //ADC1 reference at 2.5V
     aec:	80 e2       	ldi	r24, 0x20	; 32
     aee:	80 93 a2 00 	sts	0x00A2, r24	; 0x8000a2 <__TEXT_REGION_LENGTH__+0x7000a2>
    VREF_CTRLB   = 0x01;    //DAC0 ref forced enabled
     af2:	c0 93 a1 00 	sts	0x00A1, r28	; 0x8000a1 <__TEXT_REGION_LENGTH__+0x7000a1>

    //Init ADC0 (audio in, also controls DAC output rate, internal temperature?)
    ADC0_CTRLA   = 0x02;    //10 bit resolution, free running
     af6:	d0 93 00 06 	sts	0x0600, r29	; 0x800600 <__TEXT_REGION_LENGTH__+0x700600>
    ADC0_CTRLC   = 0x44;    //Reduced sample capacitor, internal reference, clock/32 => 24038sps
     afa:	84 e4       	ldi	r24, 0x44	; 68
     afc:	80 93 02 06 	sts	0x0602, r24	; 0x800602 <__TEXT_REGION_LENGTH__+0x700602>
    ADC0_MUXPOS  = 0x1E;    //Audio in: AIN7 at (0x07), Temperature: Internal sensor at (0x1E)
     b00:	8e e1       	ldi	r24, 0x1E	; 30
     b02:	80 93 06 06 	sts	0x0606, r24	; 0x800606 <__TEXT_REGION_LENGTH__+0x700606>
    ADC0_INTCTRL = 0x01;    //Result ready interrupt enabled
     b06:	c0 93 0a 06 	sts	0x060A, r28	; 0x80060a <__TEXT_REGION_LENGTH__+0x70060a>
    ADC0_CTRLA  |= 0x01;    //ADC0 enabled
     b0a:	80 91 00 06 	lds	r24, 0x0600	; 0x800600 <__TEXT_REGION_LENGTH__+0x700600>
     b0e:	81 60       	ori	r24, 0x01	; 1
     b10:	80 93 00 06 	sts	0x0600, r24	; 0x800600 <__TEXT_REGION_LENGTH__+0x700600>
    ADC0_COMMAND = 0x01;    //Start first conversion, after that it will run periodically.
     b14:	c0 93 08 06 	sts	0x0608, r28	; 0x800608 <__TEXT_REGION_LENGTH__+0x700608>

    //Init ADC1 (buttons and sensors: CH0=Photo transistor, CH1=Hall, CH4=Buttons)
    ADC1_CTRLA   = 0;
     b18:	10 92 40 06 	sts	0x0640, r1	; 0x800640 <__TEXT_REGION_LENGTH__+0x700640>
    ADC1_CTRLB   = 0x02;    //4 results automatically accumulated
     b1c:	d0 93 41 06 	sts	0x0641, r29	; 0x800641 <__TEXT_REGION_LENGTH__+0x700641>
    ADC1_CTRLC   = 0x52;    //Reduced sample capacitor, VDD as reference, clock/8
     b20:	82 e5       	ldi	r24, 0x52	; 82
     b22:	80 93 42 06 	sts	0x0642, r24	; 0x800642 <__TEXT_REGION_LENGTH__+0x700642>
    ADC1_SAMPCTRL= 0x04;    //Extend sampling time with 4 cycles (6 total)
     b26:	84 e0       	ldi	r24, 0x04	; 4
     b28:	80 93 45 06 	sts	0x0645, r24	; 0x800645 <__TEXT_REGION_LENGTH__+0x700645>
    ADC1_MUXPOS  = 0x04;    //Start with Buttons, for sensors, activate sensor power first.
     b2c:	80 93 46 06 	sts	0x0646, r24	; 0x800646 <__TEXT_REGION_LENGTH__+0x700646>
    ADC1_INTCTRL = 0x01;    //Result ready interrupt enabled
     b30:	c0 93 4a 06 	sts	0x064A, r28	; 0x80064a <__TEXT_REGION_LENGTH__+0x70064a>
    ADC1_CTRLA  |= 0x01;    //ADC0 enabled
     b34:	80 91 40 06 	lds	r24, 0x0640	; 0x800640 <__TEXT_REGION_LENGTH__+0x700640>
     b38:	81 60       	ori	r24, 0x01	; 1
     b3a:	80 93 40 06 	sts	0x0640, r24	; 0x800640 <__TEXT_REGION_LENGTH__+0x700640>
    ADC1_COMMAND = 0x01;    //Start single conversion
     b3e:	c0 93 48 06 	sts	0x0648, r28	; 0x800648 <__TEXT_REGION_LENGTH__+0x700648>

    //Init DAC0
    DAC0_CTRLA = 0x40;     //Enable output buffer (connect to pin)
     b42:	80 e4       	ldi	r24, 0x40	; 64
     b44:	80 93 a0 06 	sts	0x06A0, r24	; 0x8006a0 <__TEXT_REGION_LENGTH__+0x7006a0>
    DAC0_DATA = 0x80;      //Data value at half point (about 1.25V)
     b48:	80 e8       	ldi	r24, 0x80	; 128
     b4a:	80 93 a1 06 	sts	0x06A1, r24	; 0x8006a1 <__TEXT_REGION_LENGTH__+0x7006a1>
    DAC0_CTRLA |= 0x01;    //Enable DAC
     b4e:	80 91 a0 06 	lds	r24, 0x06A0	; 0x8006a0 <__TEXT_REGION_LENGTH__+0x7006a0>
     b52:	81 60       	ori	r24, 0x01	; 1
     b54:	80 93 a0 06 	sts	0x06A0, r24	; 0x8006a0 <__TEXT_REGION_LENGTH__+0x7006a0>
     
    //PIT and RTC interrupts
    while(RTC_STATUS & RTC_CTRLABUSY_bm);
     b58:	80 91 41 01 	lds	r24, 0x0141	; 0x800141 <__TEXT_REGION_LENGTH__+0x700141>
     b5c:	80 fd       	sbrc	r24, 0
     b5e:	fc cf       	rjmp	.-8      	; 0xb58 <Setup+0x15c>
    RTC_CTRLA          = (0x6)<<3;                         //Prescaler: /64
     b60:	80 e3       	ldi	r24, 0x30	; 48
     b62:	80 93 40 01 	sts	0x0140, r24	; 0x800140 <__TEXT_REGION_LENGTH__+0x700140>
    RTC_CLKSEL         = 0;                                //Clock source: internal 32768Hz clock
     b66:	10 92 47 01 	sts	0x0147, r1	; 0x800147 <__TEXT_REGION_LENGTH__+0x700147>
    while(RTC_STATUS & RTC_PERBUSY_bm);
     b6a:	80 91 41 01 	lds	r24, 0x0141	; 0x800141 <__TEXT_REGION_LENGTH__+0x700141>
     b6e:	82 fd       	sbrc	r24, 2
     b70:	fc cf       	rjmp	.-8      	; 0xb6a <Setup+0x16e>
    RTC_PER            = 512*60;                           //60 second period (for clocking how long the device has been running?)
     b72:	80 e0       	ldi	r24, 0x00	; 0
     b74:	98 e7       	ldi	r25, 0x78	; 120
     b76:	80 93 4a 01 	sts	0x014A, r24	; 0x80014a <__TEXT_REGION_LENGTH__+0x70014a>
     b7a:	90 93 4b 01 	sts	0x014B, r25	; 0x80014b <__TEXT_REGION_LENGTH__+0x70014b>
    tmp16bit = (RTC_CNT + BTN_TMR);
     b7e:	80 91 48 01 	lds	r24, 0x0148	; 0x800148 <__TEXT_REGION_LENGTH__+0x700148>
     b82:	90 91 49 01 	lds	r25, 0x0149	; 0x800149 <__TEXT_REGION_LENGTH__+0x700149>
     b86:	82 96       	adiw	r24, 0x22	; 34
     b88:	80 93 f9 3a 	sts	0x3AF9, r24	; 0x803af9 <tmp16bit>
     b8c:	90 93 fa 3a 	sts	0x3AFA, r25	; 0x803afa <tmp16bit+0x1>
    if (tmp16bit > RTC_PER) tmp16bit -= RTC_PER;
     b90:	20 91 4a 01 	lds	r18, 0x014A	; 0x80014a <__TEXT_REGION_LENGTH__+0x70014a>
     b94:	30 91 4b 01 	lds	r19, 0x014B	; 0x80014b <__TEXT_REGION_LENGTH__+0x70014b>
     b98:	80 91 f9 3a 	lds	r24, 0x3AF9	; 0x803af9 <tmp16bit>
     b9c:	90 91 fa 3a 	lds	r25, 0x3AFA	; 0x803afa <tmp16bit+0x1>
     ba0:	28 17       	cp	r18, r24
     ba2:	39 07       	cpc	r19, r25
     ba4:	70 f4       	brcc	.+28     	; 0xbc2 <Setup+0x1c6>
     ba6:	20 91 4a 01 	lds	r18, 0x014A	; 0x80014a <__TEXT_REGION_LENGTH__+0x70014a>
     baa:	30 91 4b 01 	lds	r19, 0x014B	; 0x80014b <__TEXT_REGION_LENGTH__+0x70014b>
     bae:	80 91 f9 3a 	lds	r24, 0x3AF9	; 0x803af9 <tmp16bit>
     bb2:	90 91 fa 3a 	lds	r25, 0x3AFA	; 0x803afa <tmp16bit+0x1>
     bb6:	82 1b       	sub	r24, r18
     bb8:	93 0b       	sbc	r25, r19
     bba:	80 93 f9 3a 	sts	0x3AF9, r24	; 0x803af9 <tmp16bit>
     bbe:	90 93 fa 3a 	sts	0x3AFA, r25	; 0x803afa <tmp16bit+0x1>
    while(RTC_STATUS & RTC_CMPBUSY_bm);
     bc2:	80 91 41 01 	lds	r24, 0x0141	; 0x800141 <__TEXT_REGION_LENGTH__+0x700141>
     bc6:	83 fd       	sbrc	r24, 3
     bc8:	fc cf       	rjmp	.-8      	; 0xbc2 <Setup+0x1c6>
    RTC_CMP            = tmp16bit;                         //Button timing
     bca:	80 91 f9 3a 	lds	r24, 0x3AF9	; 0x803af9 <tmp16bit>
     bce:	90 91 fa 3a 	lds	r25, 0x3AFA	; 0x803afa <tmp16bit+0x1>
     bd2:	80 93 4c 01 	sts	0x014C, r24	; 0x80014c <__TEXT_REGION_LENGTH__+0x70014c>
     bd6:	90 93 4d 01 	sts	0x014D, r25	; 0x80014d <__TEXT_REGION_LENGTH__+0x70014d>
    RTC_INTCTRL        = 0x03;                             //RTC overflow interrupt enabled
     bda:	83 e0       	ldi	r24, 0x03	; 3
     bdc:	80 93 42 01 	sts	0x0142, r24	; 0x800142 <__TEXT_REGION_LENGTH__+0x700142>
    RTC_PITINTCTRL     = 0x01;                             //PIT interrupt enabled
     be0:	81 e0       	ldi	r24, 0x01	; 1
     be2:	80 93 52 01 	sts	0x0152, r24	; 0x800152 <__TEXT_REGION_LENGTH__+0x700152>
    RTC_PITCTRLA       = (0x1)<<3;                         //Interrupt fires after 4 RTC clock cycles Rate=(RTCCLK/(PRESC*PERIOD)) 32768/256=128Hz
     be6:	88 e0       	ldi	r24, 0x08	; 8
     be8:	80 93 50 01 	sts	0x0150, r24	; 0x800150 <__TEXT_REGION_LENGTH__+0x700150>
    while(RTC_STATUS & RTC_CTRLABUSY_bm);      
     bec:	80 91 41 01 	lds	r24, 0x0141	; 0x800141 <__TEXT_REGION_LENGTH__+0x700141>
     bf0:	80 fd       	sbrc	r24, 0
     bf2:	fc cf       	rjmp	.-8      	; 0xbec <Setup+0x1f0>
    RTC_CTRLA          |= 0x01;                            //Enable RTC
     bf4:	80 91 40 01 	lds	r24, 0x0140	; 0x800140 <__TEXT_REGION_LENGTH__+0x700140>
     bf8:	81 60       	ori	r24, 0x01	; 1
     bfa:	80 93 40 01 	sts	0x0140, r24	; 0x800140 <__TEXT_REGION_LENGTH__+0x700140>
    RTC_PITCTRLA       |= 0x01;                            //Enable PIT
     bfe:	80 91 50 01 	lds	r24, 0x0150	; 0x800150 <__TEXT_REGION_LENGTH__+0x700150>
     c02:	81 60       	ori	r24, 0x01	; 1
     c04:	80 93 50 01 	sts	0x0150, r24	; 0x800150 <__TEXT_REGION_LENGTH__+0x700150>
     
    //Other inits
    serRx[0] = 0;           // Empty Rx buffer (first char is enough)
     c08:	10 92 77 3a 	sts	0x3A77, r1	; 0x803a77 <serRx>
    serTxAddr = &serRx[0];  // Point to first address of the Rx buffer
     c0c:	87 e7       	ldi	r24, 0x77	; 119
     c0e:	9a e3       	ldi	r25, 0x3A	; 58
     c10:	80 93 bb 3a 	sts	0x3ABB, r24	; 0x803abb <serTxAddr>
     c14:	90 93 bc 3a 	sts	0x3ABC, r25	; 0x803abc <serTxAddr+0x1>

    sei();
     c18:	78 94       	sei
}
     c1a:	df 91       	pop	r29
     c1c:	cf 91       	pop	r28
     c1e:	08 95       	ret

00000c20 <__vector_8>:

// TCA0 is used for driving the LED matrix at 488Hz (* 5 columns = 2440Hz). The lower 8 bit underflow interrupt is used to load new values and shift between columns.
ISR(TCA0_LUNF_vect){
     c20:	1f 92       	push	r1
     c22:	0f 92       	push	r0
     c24:	0f b6       	in	r0, 0x3f	; 63
     c26:	0f 92       	push	r0
     c28:	11 24       	eor	r1, r1
     c2a:	8f 93       	push	r24
     c2c:	9f 93       	push	r25
     c2e:	af 93       	push	r26
     c30:	bf 93       	push	r27
     c32:	ef 93       	push	r30
     c34:	ff 93       	push	r31
    //Turn off all columns
    PORTC_OUTCLR = 0x07;
     c36:	87 e0       	ldi	r24, 0x07	; 7
     c38:	80 93 46 04 	sts	0x0446, r24	; 0x800446 <__TEXT_REGION_LENGTH__+0x700446>
    PORTB_OUTCLR = 0x44;
     c3c:	84 e4       	ldi	r24, 0x44	; 68
     c3e:	80 93 26 04 	sts	0x0426, r24	; 0x800426 <__TEXT_REGION_LENGTH__+0x700426>
    "ldi r25, 6        \n"
    "ld r24, %a[arr]+  \n"
    "st %a[wo]+, r24   \n"
    "dec r25           \n"
    "brne .-8          \n"
    :: [wo] "e" (&TCA0_SPLIT_LCMP0), [arr] "e" (&iLED[(L_COL<<3)]) : "r25", "r24", "cc", "memory");
     c42:	ec b3       	in	r30, 0x1c	; 28
     c44:	88 e0       	ldi	r24, 0x08	; 8
     c46:	e8 9f       	mul	r30, r24
     c48:	f0 01       	movw	r30, r0
     c4a:	11 24       	eor	r1, r1
     c4c:	e4 53       	subi	r30, 0x34	; 52
     c4e:	f5 4c       	sbci	r31, 0xC5	; 197
    //Turn off all columns
    PORTC_OUTCLR = 0x07;
    PORTB_OUTCLR = 0x44;

    //Write all of the compare registers of TCA0 with PWM values in array (rows)
    asm(
     c50:	a8 e2       	ldi	r26, 0x28	; 40
     c52:	ba e0       	ldi	r27, 0x0A	; 10
     c54:	96 e0       	ldi	r25, 0x06	; 6
     c56:	81 91       	ld	r24, Z+
     c58:	8d 93       	st	X+, r24
     c5a:	9a 95       	dec	r25
     c5c:	e1 f7       	brne	.-8      	; 0xc56 <__vector_8+0x36>
    "st %a[wo]+, r24   \n"
    "dec r25           \n"
    "brne .-8          \n"
    :: [wo] "e" (&TCA0_SPLIT_LCMP0), [arr] "e" (&iLED[(L_COL<<3)]) : "r25", "r24", "cc", "memory");

    TCA0_SPLIT_CTRLESET = ((0x2)<<2)|0x3; //Sync timers: Moved this below the PWM value loading to fix the data shifting in asm above.
     c5e:	8b e0       	ldi	r24, 0x0B	; 11
     c60:	80 93 05 0a 	sts	0x0A05, r24	; 0x800a05 <__TEXT_REGION_LENGTH__+0x700a05>

    //Turn on the right column
    if (L_COL<3) {
     c64:	8c b3       	in	r24, 0x1c	; 28
     c66:	83 30       	cpi	r24, 0x03	; 3
     c68:	58 f4       	brcc	.+22     	; 0xc80 <__vector_8+0x60>
        asm(
     c6a:	8c b3       	in	r24, 0x1c	; 28
     c6c:	91 e0       	ldi	r25, 0x01	; 1
     c6e:	01 c0       	rjmp	.+2      	; 0xc72 <__vector_8+0x52>
     c70:	99 0f       	add	r25, r25
     c72:	8a 95       	dec	r24
     c74:	ea f7       	brpl	.-6      	; 0xc70 <__vector_8+0x50>
     c76:	99 b9       	out	0x09, r25	; 9
     c78:	8c b3       	in	r24, 0x1c	; 28
     c7a:	83 95       	inc	r24
     c7c:	8c bb       	out	0x1c, r24	; 28
     c7e:	0a c0       	rjmp	.+20     	; 0xc94 <__vector_8+0x74>
        "in r24, %[io0]  \n"
        "inc r24         \n"
        "out %[io0], r24 \n"
        :: [io0] "I" (&L_COL), [vpc] "I" (&VPORTC_OUT) : "r24", "r25", "cc");
        } else {
        asm(
     c80:	8c b3       	in	r24, 0x1c	; 28
     c82:	83 30       	cpi	r24, 0x03	; 3
     c84:	21 f4       	brne	.+8      	; 0xc8e <__vector_8+0x6e>
     c86:	2a 9a       	sbi	0x05, 2	; 5
     c88:	83 95       	inc	r24
     c8a:	8c bb       	out	0x1c, r24	; 28
     c8c:	03 c0       	rjmp	.+6      	; 0xc94 <__vector_8+0x74>
     c8e:	2e 9a       	sbi	0x05, 6	; 5
     c90:	88 27       	eor	r24, r24
     c92:	8c bb       	out	0x1c, r24	; 28
        "clr r24         \n"
        "out %[io0], r24 \n"
        :: [io0] "I" (&L_COL), [vpb] "I" (&VPORTB_OUT) : "r24", "cc");
    }
    
    if(timeout_I2C) --timeout_I2C;
     c94:	80 91 62 3a 	lds	r24, 0x3A62	; 0x803a62 <timeout_I2C>
     c98:	88 23       	and	r24, r24
     c9a:	29 f0       	breq	.+10     	; 0xca6 <__vector_8+0x86>
     c9c:	80 91 62 3a 	lds	r24, 0x3A62	; 0x803a62 <timeout_I2C>
     ca0:	81 50       	subi	r24, 0x01	; 1
     ca2:	80 93 62 3a 	sts	0x3A62, r24	; 0x803a62 <timeout_I2C>
    TCA0_SPLIT_INTFLAGS = 0xFF;
     ca6:	8f ef       	ldi	r24, 0xFF	; 255
     ca8:	80 93 0b 0a 	sts	0x0A0B, r24	; 0x800a0b <__TEXT_REGION_LENGTH__+0x700a0b>
}
     cac:	ff 91       	pop	r31
     cae:	ef 91       	pop	r30
     cb0:	bf 91       	pop	r27
     cb2:	af 91       	pop	r26
     cb4:	9f 91       	pop	r25
     cb6:	8f 91       	pop	r24
     cb8:	0f 90       	pop	r0
     cba:	0f be       	out	0x3f, r0	; 63
     cbc:	0f 90       	pop	r0
     cbe:	1f 90       	pop	r1
     cc0:	18 95       	reti

00000cc2 <__vector_13>:

// TCB0 is used for (slowly) sending serial characters. A 0x00 character code is needed to terminate sending or it will leak memory to serial. It's a feature, honest! 
ISR(TCB0_INT_vect){
     cc2:	1f 92       	push	r1
     cc4:	0f 92       	push	r0
     cc6:	0f b6       	in	r0, 0x3f	; 63
     cc8:	0f 92       	push	r0
     cca:	11 24       	eor	r1, r1
     ccc:	8f 93       	push	r24
     cce:	9f 93       	push	r25
     cd0:	ef 93       	push	r30
     cd2:	ff 93       	push	r31
    if (*serTxAddr) {
     cd4:	e0 91 bb 3a 	lds	r30, 0x3ABB	; 0x803abb <serTxAddr>
     cd8:	f0 91 bc 3a 	lds	r31, 0x3ABC	; 0x803abc <serTxAddr+0x1>
     cdc:	80 81       	ld	r24, Z
     cde:	88 23       	and	r24, r24
     ce0:	91 f0       	breq	.+36     	; 0xd06 <__vector_13+0x44>
        USART0_TXDATAL = *serTxAddr;
     ce2:	80 81       	ld	r24, Z
     ce4:	80 93 02 08 	sts	0x0802, r24	; 0x800802 <__TEXT_REGION_LENGTH__+0x700802>
        serTxAddr++;
     ce8:	80 91 bb 3a 	lds	r24, 0x3ABB	; 0x803abb <serTxAddr>
     cec:	90 91 bc 3a 	lds	r25, 0x3ABC	; 0x803abc <serTxAddr+0x1>
     cf0:	01 96       	adiw	r24, 0x01	; 1
     cf2:	80 93 bb 3a 	sts	0x3ABB, r24	; 0x803abb <serTxAddr>
     cf6:	90 93 bc 3a 	sts	0x3ABC, r25	; 0x803abc <serTxAddr+0x1>
        USART0_CTRLA |= USART_DREIE_bm;
     cfa:	80 91 05 08 	lds	r24, 0x0805	; 0x800805 <__TEXT_REGION_LENGTH__+0x700805>
     cfe:	80 62       	ori	r24, 0x20	; 32
     d00:	80 93 05 08 	sts	0x0805, r24	; 0x800805 <__TEXT_REGION_LENGTH__+0x700805>
     d04:	05 c0       	rjmp	.+10     	; 0xd10 <__vector_13+0x4e>
    } else {
        serTxDone = 1;
     d06:	81 e0       	ldi	r24, 0x01	; 1
     d08:	80 93 09 38 	sts	0x3809, r24	; 0x803809 <serTxDone>
        TCB0_INTCTRL = 0x00;
     d0c:	10 92 45 0a 	sts	0x0A45, r1	; 0x800a45 <__TEXT_REGION_LENGTH__+0x700a45>
    }
    TCB0_INTFLAGS = TCB_CAPT_bm;
     d10:	81 e0       	ldi	r24, 0x01	; 1
     d12:	80 93 46 0a 	sts	0x0A46, r24	; 0x800a46 <__TEXT_REGION_LENGTH__+0x700a46>
}
     d16:	ff 91       	pop	r31
     d18:	ef 91       	pop	r30
     d1a:	9f 91       	pop	r25
     d1c:	8f 91       	pop	r24
     d1e:	0f 90       	pop	r0
     d20:	0f be       	out	0x3f, r0	; 63
     d22:	0f 90       	pop	r0
     d24:	1f 90       	pop	r1
     d26:	18 95       	reti

00000d28 <__vector_14>:

// TCB1 is used for audio generation. Keeps playing "data" until 0 is reached. Audio sample data can contain 0x01 to 0xFF, centered around 0x80
ISR(TCB1_INT_vect){
     d28:	1f 92       	push	r1
     d2a:	0f 92       	push	r0
     d2c:	0f b6       	in	r0, 0x3f	; 63
     d2e:	0f 92       	push	r0
     d30:	11 24       	eor	r1, r1
     d32:	2f 93       	push	r18
     d34:	3f 93       	push	r19
     d36:	4f 93       	push	r20
     d38:	8f 93       	push	r24
     d3a:	9f 93       	push	r25
     d3c:	ef 93       	push	r30
     d3e:	ff 93       	push	r31
    int16_t volCtrl;
    if (*auSmpAddr == 0) auSmpAddr = auRepAddr;
     d40:	e0 91 05 38 	lds	r30, 0x3805	; 0x803805 <auSmpAddr>
     d44:	f0 91 06 38 	lds	r31, 0x3806	; 0x803806 <auSmpAddr+0x1>
     d48:	80 81       	ld	r24, Z
     d4a:	81 11       	cpse	r24, r1
     d4c:	08 c0       	rjmp	.+16     	; 0xd5e <__vector_14+0x36>
     d4e:	80 91 03 38 	lds	r24, 0x3803	; 0x803803 <auRepAddr>
     d52:	90 91 04 38 	lds	r25, 0x3804	; 0x803804 <auRepAddr+0x1>
     d56:	80 93 05 38 	sts	0x3805, r24	; 0x803805 <auSmpAddr>
     d5a:	90 93 06 38 	sts	0x3806, r25	; 0x803806 <auSmpAddr+0x1>
    if (*auSmpAddr) {
     d5e:	e0 91 05 38 	lds	r30, 0x3805	; 0x803805 <auSmpAddr>
     d62:	f0 91 06 38 	lds	r31, 0x3806	; 0x803806 <auSmpAddr+0x1>
     d66:	80 81       	ld	r24, Z
     d68:	88 23       	and	r24, r24
     d6a:	e1 f0       	breq	.+56     	; 0xda4 <__vector_14+0x7c>
        volCtrl = ((((int16_t)(*auSmpAddr) - 0x7f) * auVolume) >> 8) + 0x80;
     d6c:	20 81       	ld	r18, Z
     d6e:	40 91 b8 3a 	lds	r20, 0x3AB8	; 0x803ab8 <auVolume>
        DAC0_DATA = (uint8_t)(volCtrl);
     d72:	30 e0       	ldi	r19, 0x00	; 0
     d74:	2f 57       	subi	r18, 0x7F	; 127
     d76:	31 09       	sbc	r19, r1
     d78:	42 9f       	mul	r20, r18
     d7a:	c0 01       	movw	r24, r0
     d7c:	43 9f       	mul	r20, r19
     d7e:	90 0d       	add	r25, r0
     d80:	11 24       	eor	r1, r1
     d82:	89 2f       	mov	r24, r25
     d84:	99 0f       	add	r25, r25
     d86:	99 0b       	sbc	r25, r25
     d88:	80 58       	subi	r24, 0x80	; 128
     d8a:	9f 4f       	sbci	r25, 0xFF	; 255
     d8c:	80 93 a1 06 	sts	0x06A1, r24	; 0x8006a1 <__TEXT_REGION_LENGTH__+0x7006a1>
        ++auSmpAddr;
     d90:	80 91 05 38 	lds	r24, 0x3805	; 0x803805 <auSmpAddr>
     d94:	90 91 06 38 	lds	r25, 0x3806	; 0x803806 <auSmpAddr+0x1>
     d98:	01 96       	adiw	r24, 0x01	; 1
     d9a:	80 93 05 38 	sts	0x3805, r24	; 0x803805 <auSmpAddr>
     d9e:	90 93 06 38 	sts	0x3806, r25	; 0x803806 <auSmpAddr+0x1>
     da2:	06 c0       	rjmp	.+12     	; 0xdb0 <__vector_14+0x88>
    } else {
        DAC0_DATA = 0x80;
     da4:	80 e8       	ldi	r24, 0x80	; 128
     da6:	80 93 a1 06 	sts	0x06A1, r24	; 0x8006a1 <__TEXT_REGION_LENGTH__+0x7006a1>
        auPlayDone = 1;
     daa:	81 e0       	ldi	r24, 0x01	; 1
     dac:	80 93 f4 3a 	sts	0x3AF4, r24	; 0x803af4 <auPlayDone>
    }
    TCB1_INTFLAGS = TCB_CAPT_bm;
     db0:	81 e0       	ldi	r24, 0x01	; 1
     db2:	80 93 56 0a 	sts	0x0A56, r24	; 0x800a56 <__TEXT_REGION_LENGTH__+0x700a56>
}
     db6:	ff 91       	pop	r31
     db8:	ef 91       	pop	r30
     dba:	9f 91       	pop	r25
     dbc:	8f 91       	pop	r24
     dbe:	4f 91       	pop	r20
     dc0:	3f 91       	pop	r19
     dc2:	2f 91       	pop	r18
     dc4:	0f 90       	pop	r0
     dc6:	0f be       	out	0x3f, r0	; 63
     dc8:	0f 90       	pop	r0
     dca:	1f 90       	pop	r1
     dcc:	18 95       	reti

00000dce <__vector_27>:

// Reads up to RXLEN characters until LF is found, LF sets the serRxDone flag and writes 0 instead of LF.
ISR(USART0_RXC_vect){
     dce:	1f 92       	push	r1
     dd0:	0f 92       	push	r0
     dd2:	0f b6       	in	r0, 0x3f	; 63
     dd4:	0f 92       	push	r0
     dd6:	11 24       	eor	r1, r1
     dd8:	8f 93       	push	r24
     dda:	ef 93       	push	r30
     ddc:	ff 93       	push	r31
    if (serRxDone == 0){
     dde:	80 91 46 38 	lds	r24, 0x3846	; 0x803846 <serRxDone>
     de2:	81 11       	cpse	r24, r1
     de4:	44 c0       	rjmp	.+136    	; 0xe6e <__vector_27+0xa0>
        serRx[RXCNT] = USART0.RXDATAL;
     de6:	ed b3       	in	r30, 0x1d	; 29
     de8:	f0 e0       	ldi	r31, 0x00	; 0
     dea:	80 91 00 08 	lds	r24, 0x0800	; 0x800800 <__TEXT_REGION_LENGTH__+0x700800>
     dee:	e9 58       	subi	r30, 0x89	; 137
     df0:	f5 4c       	sbci	r31, 0xC5	; 197
     df2:	80 83       	st	Z, r24
        USART0_TXDATAL = serRx[RXCNT];
     df4:	ed b3       	in	r30, 0x1d	; 29
     df6:	f0 e0       	ldi	r31, 0x00	; 0
     df8:	e9 58       	subi	r30, 0x89	; 137
     dfa:	f5 4c       	sbci	r31, 0xC5	; 197
     dfc:	80 81       	ld	r24, Z
     dfe:	80 93 02 08 	sts	0x0802, r24	; 0x800802 <__TEXT_REGION_LENGTH__+0x700802>
        if ((serRx[RXCNT] == 0x0A)||(serRx[RXCNT] == 0x0D)){
     e02:	ed b3       	in	r30, 0x1d	; 29
     e04:	f0 e0       	ldi	r31, 0x00	; 0
     e06:	e9 58       	subi	r30, 0x89	; 137
     e08:	f5 4c       	sbci	r31, 0xC5	; 197
     e0a:	80 81       	ld	r24, Z
     e0c:	8a 30       	cpi	r24, 0x0A	; 10
     e0e:	39 f0       	breq	.+14     	; 0xe1e <__vector_27+0x50>
     e10:	ed b3       	in	r30, 0x1d	; 29
     e12:	f0 e0       	ldi	r31, 0x00	; 0
     e14:	e9 58       	subi	r30, 0x89	; 137
     e16:	f5 4c       	sbci	r31, 0xC5	; 197
     e18:	80 81       	ld	r24, Z
     e1a:	8d 30       	cpi	r24, 0x0D	; 13
     e1c:	49 f4       	brne	.+18     	; 0xe30 <__vector_27+0x62>
            serRx[RXCNT] = 0;
     e1e:	ed b3       	in	r30, 0x1d	; 29
     e20:	f0 e0       	ldi	r31, 0x00	; 0
     e22:	e9 58       	subi	r30, 0x89	; 137
     e24:	f5 4c       	sbci	r31, 0xC5	; 197
     e26:	10 82       	st	Z, r1
            serRxDone = 1;
     e28:	81 e0       	ldi	r24, 0x01	; 1
     e2a:	80 93 46 38 	sts	0x3846, r24	; 0x803846 <serRxDone>
     e2e:	1f c0       	rjmp	.+62     	; 0xe6e <__vector_27+0xa0>
        } else if (((serRx[RXCNT] == 0x08)||(serRx[RXCNT] == 0x7F))&&(RXCNT > 0)) {
     e30:	ed b3       	in	r30, 0x1d	; 29
     e32:	f0 e0       	ldi	r31, 0x00	; 0
     e34:	e9 58       	subi	r30, 0x89	; 137
     e36:	f5 4c       	sbci	r31, 0xC5	; 197
     e38:	80 81       	ld	r24, Z
     e3a:	88 30       	cpi	r24, 0x08	; 8
     e3c:	39 f0       	breq	.+14     	; 0xe4c <__vector_27+0x7e>
     e3e:	ed b3       	in	r30, 0x1d	; 29
     e40:	f0 e0       	ldi	r31, 0x00	; 0
     e42:	e9 58       	subi	r30, 0x89	; 137
     e44:	f5 4c       	sbci	r31, 0xC5	; 197
     e46:	80 81       	ld	r24, Z
     e48:	8f 37       	cpi	r24, 0x7F	; 127
     e4a:	59 f4       	brne	.+22     	; 0xe62 <__vector_27+0x94>
     e4c:	8d b3       	in	r24, 0x1d	; 29
     e4e:	88 23       	and	r24, r24
     e50:	41 f0       	breq	.+16     	; 0xe62 <__vector_27+0x94>
            serRx[RXCNT] = 0;
     e52:	ed b3       	in	r30, 0x1d	; 29
     e54:	f0 e0       	ldi	r31, 0x00	; 0
     e56:	e9 58       	subi	r30, 0x89	; 137
     e58:	f5 4c       	sbci	r31, 0xC5	; 197
     e5a:	10 82       	st	Z, r1
            --RXCNT;
     e5c:	8d b3       	in	r24, 0x1d	; 29
     e5e:	81 50       	subi	r24, 0x01	; 1
     e60:	05 c0       	rjmp	.+10     	; 0xe6c <__vector_27+0x9e>
        } else if (RXCNT < (RXLEN-1)) ++RXCNT;
     e62:	8d b3       	in	r24, 0x1d	; 29
     e64:	80 34       	cpi	r24, 0x40	; 64
     e66:	18 f4       	brcc	.+6      	; 0xe6e <__vector_27+0xa0>
     e68:	8d b3       	in	r24, 0x1d	; 29
     e6a:	8f 5f       	subi	r24, 0xFF	; 255
     e6c:	8d bb       	out	0x1d, r24	; 29
    }
    USART0_STATUS = USART_RXCIF_bm;
     e6e:	80 e8       	ldi	r24, 0x80	; 128
     e70:	80 93 04 08 	sts	0x0804, r24	; 0x800804 <__TEXT_REGION_LENGTH__+0x700804>
};
     e74:	ff 91       	pop	r31
     e76:	ef 91       	pop	r30
     e78:	8f 91       	pop	r24
     e7a:	0f 90       	pop	r0
     e7c:	0f be       	out	0x3f, r0	; 63
     e7e:	0f 90       	pop	r0
     e80:	1f 90       	pop	r1
     e82:	18 95       	reti

00000e84 <__vector_28>:

// Trigger new data write and turn off DRE interrupt.
ISR(USART0_DRE_vect){
     e84:	1f 92       	push	r1
     e86:	0f 92       	push	r0
     e88:	0f b6       	in	r0, 0x3f	; 63
     e8a:	0f 92       	push	r0
     e8c:	11 24       	eor	r1, r1
     e8e:	8f 93       	push	r24
     e90:	ef 93       	push	r30
     e92:	ff 93       	push	r31
    TCB0_CNT = 0;
     e94:	10 92 4a 0a 	sts	0x0A4A, r1	; 0x800a4a <__TEXT_REGION_LENGTH__+0x700a4a>
     e98:	10 92 4b 0a 	sts	0x0A4B, r1	; 0x800a4b <__TEXT_REGION_LENGTH__+0x700a4b>
    TCB0_INTCTRL = 0x01;
     e9c:	81 e0       	ldi	r24, 0x01	; 1
     e9e:	80 93 45 0a 	sts	0x0A45, r24	; 0x800a45 <__TEXT_REGION_LENGTH__+0x700a45>
    USART0_CTRLA &= ~(USART_DREIE_bm);
     ea2:	e5 e0       	ldi	r30, 0x05	; 5
     ea4:	f8 e0       	ldi	r31, 0x08	; 8
     ea6:	80 81       	ld	r24, Z
     ea8:	8f 7d       	andi	r24, 0xDF	; 223
     eaa:	80 83       	st	Z, r24
};
     eac:	ff 91       	pop	r31
     eae:	ef 91       	pop	r30
     eb0:	8f 91       	pop	r24
     eb2:	0f 90       	pop	r0
     eb4:	0f be       	out	0x3f, r0	; 63
     eb6:	0f 90       	pop	r0
     eb8:	1f 90       	pop	r1
     eba:	18 95       	reti

00000ebc <__vector_20>:

// ADC used for audio input and temperature sensor.
ISR(ADC0_RESRDY_vect){
     ebc:	1f 92       	push	r1
     ebe:	0f 92       	push	r0
     ec0:	0f b6       	in	r0, 0x3f	; 63
     ec2:	0f 92       	push	r0
     ec4:	11 24       	eor	r1, r1
     ec6:	8f 93       	push	r24
     ec8:	9f 93       	push	r25
     eca:	ef 93       	push	r30
     ecc:	ff 93       	push	r31
    //If just switched reference, discard first few samples
    if (adc0Chg == 0){
     ece:	80 91 39 38 	lds	r24, 0x3839	; 0x803839 <adc0Chg>
     ed2:	81 11       	cpse	r24, r1
     ed4:	19 c0       	rjmp	.+50     	; 0xf08 <__vector_20+0x4c>
        AUPOS = (AUPOS+1)&(AULEN-1);
     ed6:	8e b3       	in	r24, 0x1e	; 30
     ed8:	8f 5f       	subi	r24, 0xFF	; 255
     eda:	87 70       	andi	r24, 0x07	; 7
     edc:	8e bb       	out	0x1e, r24	; 30
        if (ADC0_MUXPOS == 0x1E) adcTemp = ADC0_RES; else auIn[AUPOS]=ADC0_RESL;
     ede:	80 91 06 06 	lds	r24, 0x0606	; 0x800606 <__TEXT_REGION_LENGTH__+0x700606>
     ee2:	8e 31       	cpi	r24, 0x1E	; 30
     ee4:	49 f4       	brne	.+18     	; 0xef8 <__vector_20+0x3c>
     ee6:	80 91 10 06 	lds	r24, 0x0610	; 0x800610 <__TEXT_REGION_LENGTH__+0x700610>
     eea:	90 91 11 06 	lds	r25, 0x0611	; 0x800611 <__TEXT_REGION_LENGTH__+0x700611>
     eee:	80 93 f7 3a 	sts	0x3AF7, r24	; 0x803af7 <adcTemp>
     ef2:	90 93 f8 3a 	sts	0x3AF8, r25	; 0x803af8 <adcTemp+0x1>
     ef6:	0d c0       	rjmp	.+26     	; 0xf12 <__vector_20+0x56>
     ef8:	ee b3       	in	r30, 0x1e	; 30
     efa:	f0 e0       	ldi	r31, 0x00	; 0
     efc:	80 91 10 06 	lds	r24, 0x0610	; 0x800610 <__TEXT_REGION_LENGTH__+0x700610>
     f00:	ec 53       	subi	r30, 0x3C	; 60
     f02:	f5 4c       	sbci	r31, 0xC5	; 197
     f04:	80 83       	st	Z, r24
     f06:	05 c0       	rjmp	.+10     	; 0xf12 <__vector_20+0x56>
    } else --adc0Chg;
     f08:	80 91 39 38 	lds	r24, 0x3839	; 0x803839 <adc0Chg>
     f0c:	81 50       	subi	r24, 0x01	; 1
     f0e:	80 93 39 38 	sts	0x3839, r24	; 0x803839 <adc0Chg>
    ADC0_INTFLAGS = ADC_RESRDY_bm;
     f12:	81 e0       	ldi	r24, 0x01	; 1
     f14:	80 93 0b 06 	sts	0x060B, r24	; 0x80060b <__TEXT_REGION_LENGTH__+0x70060b>
}
     f18:	ff 91       	pop	r31
     f1a:	ef 91       	pop	r30
     f1c:	9f 91       	pop	r25
     f1e:	8f 91       	pop	r24
     f20:	0f 90       	pop	r0
     f22:	0f be       	out	0x3f, r0	; 63
     f24:	0f 90       	pop	r0
     f26:	1f 90       	pop	r1
     f28:	18 95       	reti

00000f2a <__vector_22>:

// Reads out sensors at 8Hz and buttons at 42Hz (timed by PIT), power for the sensors is on 1/8th of the time to save power.
ISR(ADC1_RESRDY_vect){
     f2a:	1f 92       	push	r1
     f2c:	0f 92       	push	r0
     f2e:	0f b6       	in	r0, 0x3f	; 63
     f30:	0f 92       	push	r0
     f32:	11 24       	eor	r1, r1
     f34:	8f 93       	push	r24
     f36:	9f 93       	push	r25
    if (ADC1_MUXPOS == 0) {
     f38:	80 91 46 06 	lds	r24, 0x0646	; 0x800646 <__TEXT_REGION_LENGTH__+0x700646>
     f3c:	81 11       	cpse	r24, r1
     f3e:	0a c0       	rjmp	.+20     	; 0xf54 <__vector_22+0x2a>
        adcPhot = ADC1_RES;
     f40:	80 91 50 06 	lds	r24, 0x0650	; 0x800650 <__TEXT_REGION_LENGTH__+0x700650>
     f44:	90 91 51 06 	lds	r25, 0x0651	; 0x800651 <__TEXT_REGION_LENGTH__+0x700651>
     f48:	80 93 bf 3a 	sts	0x3ABF, r24	; 0x803abf <adcPhot>
     f4c:	90 93 c0 3a 	sts	0x3AC0, r25	; 0x803ac0 <adcPhot+0x1>
        ADC1_MUXPOS = 0x01;             //Select Hall sensor
     f50:	81 e0       	ldi	r24, 0x01	; 1
     f52:	10 c0       	rjmp	.+32     	; 0xf74 <__vector_22+0x4a>
    } else if (ADC1_MUXPOS == 1){
     f54:	80 91 46 06 	lds	r24, 0x0646	; 0x800646 <__TEXT_REGION_LENGTH__+0x700646>
     f58:	81 30       	cpi	r24, 0x01	; 1
     f5a:	79 f4       	brne	.+30     	; 0xf7a <__vector_22+0x50>
        PORTA_OUTCLR = 0b00001000;      //Turn off sensor power
     f5c:	88 e0       	ldi	r24, 0x08	; 8
     f5e:	80 93 06 04 	sts	0x0406, r24	; 0x800406 <__TEXT_REGION_LENGTH__+0x700406>
        adcHall = ADC1_RES;
     f62:	80 91 50 06 	lds	r24, 0x0650	; 0x800650 <__TEXT_REGION_LENGTH__+0x700650>
     f66:	90 91 51 06 	lds	r25, 0x0651	; 0x800651 <__TEXT_REGION_LENGTH__+0x700651>
     f6a:	80 93 bd 3a 	sts	0x3ABD, r24	; 0x803abd <adcHall>
     f6e:	90 93 be 3a 	sts	0x3ABE, r25	; 0x803abe <adcHall+0x1>
        ADC1_MUXPOS = 0x04;             //select buttons
     f72:	84 e0       	ldi	r24, 0x04	; 4
     f74:	80 93 46 06 	sts	0x0646, r24	; 0x800646 <__TEXT_REGION_LENGTH__+0x700646>
     f78:	10 c0       	rjmp	.+32     	; 0xf9a <__vector_22+0x70>
    } else {
        adcBtns = ADC1_RES;
     f7a:	80 91 50 06 	lds	r24, 0x0650	; 0x800650 <__TEXT_REGION_LENGTH__+0x700650>
     f7e:	90 91 51 06 	lds	r25, 0x0651	; 0x800651 <__TEXT_REGION_LENGTH__+0x700651>
     f82:	80 93 b9 3a 	sts	0x3AB9, r24	; 0x803ab9 <adcBtns>
     f86:	90 93 ba 3a 	sts	0x3ABA, r25	; 0x803aba <adcBtns+0x1>
        if (A1CNT == 15){
     f8a:	8f b3       	in	r24, 0x1f	; 31
     f8c:	8f 30       	cpi	r24, 0x0F	; 15
     f8e:	29 f4       	brne	.+10     	; 0xf9a <__vector_22+0x70>
            ADC1_MUXPOS = 0x00;         //Select photo transistor
     f90:	10 92 46 06 	sts	0x0646, r1	; 0x800646 <__TEXT_REGION_LENGTH__+0x700646>
            PORTA_OUTSET = 0b00001000;  //Turn on sensor power
     f94:	88 e0       	ldi	r24, 0x08	; 8
     f96:	80 93 05 04 	sts	0x0405, r24	; 0x800405 <__TEXT_REGION_LENGTH__+0x700405>
        }
    }

    A1CNT=(A1CNT+1)%16;        
     f9a:	8f b3       	in	r24, 0x1f	; 31
     f9c:	90 e0       	ldi	r25, 0x00	; 0
     f9e:	01 96       	adiw	r24, 0x01	; 1
     fa0:	8f 70       	andi	r24, 0x0F	; 15
     fa2:	99 27       	eor	r25, r25
     fa4:	8f bb       	out	0x1f, r24	; 31
    ADC1_INTFLAGS = ADC_RESRDY_bm;
     fa6:	81 e0       	ldi	r24, 0x01	; 1
     fa8:	80 93 4b 06 	sts	0x064B, r24	; 0x80064b <__TEXT_REGION_LENGTH__+0x70064b>
}
     fac:	9f 91       	pop	r25
     fae:	8f 91       	pop	r24
     fb0:	0f 90       	pop	r0
     fb2:	0f be       	out	0x3f, r0	; 63
     fb4:	0f 90       	pop	r0
     fb6:	1f 90       	pop	r1
     fb8:	18 95       	reti

00000fba <__vector_6>:

// RTC compare interrupt, triggers at 512/BTN_TMR rate, also RTC overflow interrupt, triggers once a minute
ISR(RTC_CNT_vect) {
     fba:	1f 92       	push	r1
     fbc:	0f 92       	push	r0
     fbe:	0f b6       	in	r0, 0x3f	; 63
     fc0:	0f 92       	push	r0
     fc2:	11 24       	eor	r1, r1
     fc4:	2f 93       	push	r18
     fc6:	3f 93       	push	r19
     fc8:	8f 93       	push	r24
     fca:	9f 93       	push	r25
    if (RTC_INTFLAGS & RTC_CMP_bm){
     fcc:	80 91 43 01 	lds	r24, 0x0143	; 0x800143 <__TEXT_REGION_LENGTH__+0x700143>
     fd0:	81 ff       	sbrs	r24, 1
     fd2:	39 c0       	rjmp	.+114    	; 0x1046 <__vector_6+0x8c>
        if (buttonMark<0xff) buttonMark++;   // For button timing purposes
     fd4:	80 91 44 38 	lds	r24, 0x3844	; 0x803844 <buttonMark>
     fd8:	8f 3f       	cpi	r24, 0xFF	; 255
     fda:	29 f0       	breq	.+10     	; 0xfe6 <__vector_6+0x2c>
     fdc:	80 91 44 38 	lds	r24, 0x3844	; 0x803844 <buttonMark>
     fe0:	8f 5f       	subi	r24, 0xFF	; 255
     fe2:	80 93 44 38 	sts	0x3844, r24	; 0x803844 <buttonMark>
        //tmp16bit = (RTC_CNT + BTN_TMR)%RTC_PER;
        tmp16bit = (RTC_CNT + BTN_TMR);
     fe6:	80 91 48 01 	lds	r24, 0x0148	; 0x800148 <__TEXT_REGION_LENGTH__+0x700148>
     fea:	90 91 49 01 	lds	r25, 0x0149	; 0x800149 <__TEXT_REGION_LENGTH__+0x700149>
     fee:	82 96       	adiw	r24, 0x22	; 34
     ff0:	80 93 f9 3a 	sts	0x3AF9, r24	; 0x803af9 <tmp16bit>
     ff4:	90 93 fa 3a 	sts	0x3AFA, r25	; 0x803afa <tmp16bit+0x1>
        if (tmp16bit > RTC_PER) tmp16bit -= RTC_PER;
     ff8:	20 91 4a 01 	lds	r18, 0x014A	; 0x80014a <__TEXT_REGION_LENGTH__+0x70014a>
     ffc:	30 91 4b 01 	lds	r19, 0x014B	; 0x80014b <__TEXT_REGION_LENGTH__+0x70014b>
    1000:	80 91 f9 3a 	lds	r24, 0x3AF9	; 0x803af9 <tmp16bit>
    1004:	90 91 fa 3a 	lds	r25, 0x3AFA	; 0x803afa <tmp16bit+0x1>
    1008:	28 17       	cp	r18, r24
    100a:	39 07       	cpc	r19, r25
    100c:	70 f4       	brcc	.+28     	; 0x102a <__vector_6+0x70>
    100e:	20 91 4a 01 	lds	r18, 0x014A	; 0x80014a <__TEXT_REGION_LENGTH__+0x70014a>
    1012:	30 91 4b 01 	lds	r19, 0x014B	; 0x80014b <__TEXT_REGION_LENGTH__+0x70014b>
    1016:	80 91 f9 3a 	lds	r24, 0x3AF9	; 0x803af9 <tmp16bit>
    101a:	90 91 fa 3a 	lds	r25, 0x3AFA	; 0x803afa <tmp16bit+0x1>
    101e:	82 1b       	sub	r24, r18
    1020:	93 0b       	sbc	r25, r19
    1022:	80 93 f9 3a 	sts	0x3AF9, r24	; 0x803af9 <tmp16bit>
    1026:	90 93 fa 3a 	sts	0x3AFA, r25	; 0x803afa <tmp16bit+0x1>
        while(RTC_STATUS & RTC_CMPBUSY_bm);
    102a:	80 91 41 01 	lds	r24, 0x0141	; 0x800141 <__TEXT_REGION_LENGTH__+0x700141>
    102e:	83 fd       	sbrc	r24, 3
    1030:	fc cf       	rjmp	.-8      	; 0x102a <__vector_6+0x70>
        RTC_CMP = tmp16bit;                 // Button timing: next interrupt set
    1032:	80 91 f9 3a 	lds	r24, 0x3AF9	; 0x803af9 <tmp16bit>
    1036:	90 91 fa 3a 	lds	r25, 0x3AFA	; 0x803afa <tmp16bit+0x1>
    103a:	80 93 4c 01 	sts	0x014C, r24	; 0x80014c <__TEXT_REGION_LENGTH__+0x70014c>
    103e:	90 93 4d 01 	sts	0x014D, r25	; 0x80014d <__TEXT_REGION_LENGTH__+0x70014d>
        RTC_INTFLAGS = RTC_CMP_bm;		    // clear interrupt flag
    1042:	82 e0       	ldi	r24, 0x02	; 2
    1044:	06 c0       	rjmp	.+12     	; 0x1052 <__vector_6+0x98>
    } else {
        minuteMark++;                       // For very slow timing purposes, overflows to 0
    1046:	80 91 45 38 	lds	r24, 0x3845	; 0x803845 <minuteMark>
    104a:	8f 5f       	subi	r24, 0xFF	; 255
    104c:	80 93 45 38 	sts	0x3845, r24	; 0x803845 <minuteMark>
        RTC_INTFLAGS = RTC_OVF_bm;		    // clear interrupt flag
    1050:	81 e0       	ldi	r24, 0x01	; 1
    1052:	80 93 43 01 	sts	0x0143, r24	; 0x800143 <__TEXT_REGION_LENGTH__+0x700143>
    }
}
    1056:	9f 91       	pop	r25
    1058:	8f 91       	pop	r24
    105a:	3f 91       	pop	r19
    105c:	2f 91       	pop	r18
    105e:	0f 90       	pop	r0
    1060:	0f be       	out	0x3f, r0	; 63
    1062:	0f 90       	pop	r0
    1064:	1f 90       	pop	r1
    1066:	18 95       	reti

00001068 <__vector_7>:

// PIT interrupt (timing of ADC1: sensor values)
ISR(RTC_PIT_vect) {						// PIT interrupt handling code
    1068:	1f 92       	push	r1
    106a:	0f 92       	push	r0
    106c:	0f b6       	in	r0, 0x3f	; 63
    106e:	0f 92       	push	r0
    1070:	11 24       	eor	r1, r1
    1072:	8f 93       	push	r24
    ADC1_COMMAND = 0x01;
    1074:	81 e0       	ldi	r24, 0x01	; 1
    1076:	80 93 48 06 	sts	0x0648, r24	; 0x800648 <__TEXT_REGION_LENGTH__+0x700648>
    RTC_PITINTFLAGS = RTC_PI_bm;		// clear interrupt flag
    107a:	80 93 53 01 	sts	0x0153, r24	; 0x800153 <__TEXT_REGION_LENGTH__+0x700153>
}
    107e:	8f 91       	pop	r24
    1080:	0f 90       	pop	r0
    1082:	0f be       	out	0x3f, r0	; 63
    1084:	0f 90       	pop	r0
    1086:	1f 90       	pop	r1
    1088:	18 95       	reti

0000108a <EERead>:

// Read bytes from EEPROM
void EERead(uint8_t eeAddr, uint8_t *eeValues, uint8_t size)
{
    while(NVMCTRL_STATUS & NVMCTRL_EEBUSY_bm);              // Wait until any write operation has finished
    108a:	90 91 02 10 	lds	r25, 0x1002	; 0x801002 <__TEXT_REGION_LENGTH__+0x701002>
    108e:	91 fd       	sbrc	r25, 1
    1090:	fc cf       	rjmp	.-8      	; 0x108a <EERead>
    1092:	fb 01       	movw	r30, r22
    1094:	48 0f       	add	r20, r24

    while(size){
    1096:	84 17       	cp	r24, r20
    1098:	39 f0       	breq	.+14     	; 0x10a8 <EERead+0x1e>
        *eeValues++ = *(uint8_t *)(EEPROM_START+eeAddr++);  // Read data from buffer
    109a:	a8 2f       	mov	r26, r24
    109c:	b0 e0       	ldi	r27, 0x00	; 0
    109e:	bc 5e       	subi	r27, 0xEC	; 236
    10a0:	9c 91       	ld	r25, X
    10a2:	91 93       	st	Z+, r25
    10a4:	8f 5f       	subi	r24, 0xFF	; 255
    10a6:	f7 cf       	rjmp	.-18     	; 0x1096 <EERead+0xc>
        --size;
    }
}
    10a8:	08 95       	ret

000010aa <EEWrite>:
{
    uint8_t lastByteOfPage;
    while(size){
        lastByteOfPage = 0;
        while(NVMCTRL_STATUS & NVMCTRL_EEBUSY_bm);              // Wait until any write operation has finished
        CCP = CCP_SPM_gc;                                       // Gain access to NVMCTRL_CTRLA
    10aa:	9d e9       	ldi	r25, 0x9D	; 157
        NVMCTRL_CTRLA = NVMCTRL_CMD_PAGEBUFCLR_gc;              // Clear page buffer
    10ac:	24 e0       	ldi	r18, 0x04	; 4
            if ((eeAddr % EEPROM_PAGE_SIZE) == (EEPROM_PAGE_SIZE-1)) lastByteOfPage = 1;
            *(uint8_t *)(EEPROM_START+eeAddr++) = *eeValues++;  // Write data to buffer
            --size;
        }
        CCP = CCP_SPM_gc;
        NVMCTRL_CTRLA = NVMCTRL_CMD_PAGEERASEWRITE_gc;          // Erase old data and write new data to EEPROM
    10ae:	33 e0       	ldi	r19, 0x03	; 3

// Write bytes to the EEPROM, if address exceeds EEPROM space data wraps around
uint8_t EEWrite(uint8_t eeAddr, uint8_t *eeValues, uint8_t size)
{
    uint8_t lastByteOfPage;
    while(size){
    10b0:	44 23       	and	r20, r20
    10b2:	09 f1       	breq	.+66     	; 0x10f6 <EEWrite+0x4c>
        lastByteOfPage = 0;
        while(NVMCTRL_STATUS & NVMCTRL_EEBUSY_bm);              // Wait until any write operation has finished
    10b4:	50 91 02 10 	lds	r21, 0x1002	; 0x801002 <__TEXT_REGION_LENGTH__+0x701002>
    10b8:	51 fd       	sbrc	r21, 1
    10ba:	fc cf       	rjmp	.-8      	; 0x10b4 <EEWrite+0xa>
        CCP = CCP_SPM_gc;                                       // Gain access to NVMCTRL_CTRLA
    10bc:	94 bf       	out	0x34, r25	; 52
        NVMCTRL_CTRLA = NVMCTRL_CMD_PAGEBUFCLR_gc;              // Clear page buffer
    10be:	20 93 00 10 	sts	0x1000, r18	; 0x801000 <__TEXT_REGION_LENGTH__+0x701000>
    10c2:	e8 2f       	mov	r30, r24
        while((size) && (lastByteOfPage == 0)){
            if ((eeAddr % EEPROM_PAGE_SIZE) == (EEPROM_PAGE_SIZE-1)) lastByteOfPage = 1;
    10c4:	58 2f       	mov	r21, r24
    10c6:	5f 71       	andi	r21, 0x1F	; 31
            *(uint8_t *)(EEPROM_START+eeAddr++) = *eeValues++;  // Write data to buffer
    10c8:	8f 5f       	subi	r24, 0xFF	; 255
    10ca:	6f 5f       	subi	r22, 0xFF	; 255
    10cc:	7f 4f       	sbci	r23, 0xFF	; 255
    10ce:	db 01       	movw	r26, r22
    10d0:	11 97       	sbiw	r26, 0x01	; 1
    10d2:	ac 91       	ld	r26, X
    10d4:	f0 e0       	ldi	r31, 0x00	; 0
    10d6:	fc 5e       	subi	r31, 0xEC	; 236
    10d8:	a0 83       	st	Z, r26
            --size;
    10da:	41 50       	subi	r20, 0x01	; 1
    while(size){
        lastByteOfPage = 0;
        while(NVMCTRL_STATUS & NVMCTRL_EEBUSY_bm);              // Wait until any write operation has finished
        CCP = CCP_SPM_gc;                                       // Gain access to NVMCTRL_CTRLA
        NVMCTRL_CTRLA = NVMCTRL_CMD_PAGEBUFCLR_gc;              // Clear page buffer
        while((size) && (lastByteOfPage == 0)){
    10dc:	19 f0       	breq	.+6      	; 0x10e4 <EEWrite+0x3a>
            if ((eeAddr % EEPROM_PAGE_SIZE) == (EEPROM_PAGE_SIZE-1)) lastByteOfPage = 1;
            *(uint8_t *)(EEPROM_START+eeAddr++) = *eeValues++;  // Write data to buffer
    10de:	e8 2f       	mov	r30, r24
    while(size){
        lastByteOfPage = 0;
        while(NVMCTRL_STATUS & NVMCTRL_EEBUSY_bm);              // Wait until any write operation has finished
        CCP = CCP_SPM_gc;                                       // Gain access to NVMCTRL_CTRLA
        NVMCTRL_CTRLA = NVMCTRL_CMD_PAGEBUFCLR_gc;              // Clear page buffer
        while((size) && (lastByteOfPage == 0)){
    10e0:	5f 31       	cpi	r21, 0x1F	; 31
    10e2:	81 f7       	brne	.-32     	; 0x10c4 <EEWrite+0x1a>
            if ((eeAddr % EEPROM_PAGE_SIZE) == (EEPROM_PAGE_SIZE-1)) lastByteOfPage = 1;
            *(uint8_t *)(EEPROM_START+eeAddr++) = *eeValues++;  // Write data to buffer
            --size;
        }
        CCP = CCP_SPM_gc;
    10e4:	94 bf       	out	0x34, r25	; 52
        NVMCTRL_CTRLA = NVMCTRL_CMD_PAGEERASEWRITE_gc;          // Erase old data and write new data to EEPROM
    10e6:	30 93 00 10 	sts	0x1000, r19	; 0x801000 <__TEXT_REGION_LENGTH__+0x701000>
        if (NVMCTRL_STATUS & NVMCTRL_WRERROR_bm) return 1;
    10ea:	50 91 02 10 	lds	r21, 0x1002	; 0x801002 <__TEXT_REGION_LENGTH__+0x701002>
    10ee:	52 ff       	sbrs	r21, 2
    10f0:	df cf       	rjmp	.-66     	; 0x10b0 <EEWrite+0x6>
    10f2:	81 e0       	ldi	r24, 0x01	; 1
    }
    return 0;
}
    10f4:	08 95       	ret
        }
        CCP = CCP_SPM_gc;
        NVMCTRL_CTRLA = NVMCTRL_CMD_PAGEERASEWRITE_gc;          // Erase old data and write new data to EEPROM
        if (NVMCTRL_STATUS & NVMCTRL_WRERROR_bm) return 1;
    }
    return 0;
    10f6:	80 e0       	ldi	r24, 0x00	; 0
    10f8:	08 95       	ret

000010fa <DecryptData>:
}

//Decrypts data read from I2C EEPROM, max 255 bytes at a time
void DecryptData(uint16_t offset, uint8_t length, uint8_t type, uint8_t *data){
    10fa:	f9 01       	movw	r30, r18
    //offset += L_BOILER;
    while(length){
        *data ^= xor_key[type][(uint8_t)(offset%KEY_LENGTH)];
    10fc:	9c 01       	movw	r18, r24
    10fe:	2e 1b       	sub	r18, r30
    1100:	3f 0b       	sbc	r19, r31
    1102:	88 e0       	ldi	r24, 0x08	; 8
    1104:	48 9f       	mul	r20, r24
    1106:	a0 01       	movw	r20, r0
    1108:	11 24       	eor	r1, r1
    110a:	4e 5d       	subi	r20, 0xDE	; 222
    110c:	5f 43       	sbci	r21, 0x3F	; 63
}

//Decrypts data read from I2C EEPROM, max 255 bytes at a time
void DecryptData(uint16_t offset, uint8_t length, uint8_t type, uint8_t *data){
    //offset += L_BOILER;
    while(length){
    110e:	66 23       	and	r22, r22
    1110:	69 f0       	breq	.+26     	; 0x112c <DecryptData+0x32>
        *data ^= xor_key[type][(uint8_t)(offset%KEY_LENGTH)];
    1112:	df 01       	movw	r26, r30
    1114:	a2 0f       	add	r26, r18
    1116:	b3 1f       	adc	r27, r19
    1118:	a7 70       	andi	r26, 0x07	; 7
    111a:	bb 27       	eor	r27, r27
    111c:	a4 0f       	add	r26, r20
    111e:	b5 1f       	adc	r27, r21
    1120:	80 81       	ld	r24, Z
    1122:	9c 91       	ld	r25, X
    1124:	98 27       	eor	r25, r24
    1126:	91 93       	st	Z+, r25
        ++data;
        ++offset;
        --length;
    1128:	61 50       	subi	r22, 0x01	; 1
    112a:	f1 cf       	rjmp	.-30     	; 0x110e <DecryptData+0x14>
    }
}
    112c:	08 95       	ret

0000112e <ExtEERead>:

//Game data: Read a number of bytes and decrypt
uint8_t ExtEERead(uint16_t offset, uint8_t length, uint8_t type, uint8_t *data){
    112e:	af 92       	push	r10
    1130:	bf 92       	push	r11
    1132:	cf 92       	push	r12
    1134:	df 92       	push	r13
    1136:	ef 92       	push	r14
    1138:	ff 92       	push	r15
    113a:	0f 93       	push	r16
    113c:	1f 93       	push	r17
    113e:	cf 93       	push	r28
    1140:	df 93       	push	r29
    1142:	00 d0       	rcall	.+0      	; 0x1144 <ExtEERead+0x16>
    1144:	cd b7       	in	r28, 0x3d	; 61
    1146:	de b7       	in	r29, 0x3e	; 62
    1148:	d6 2e       	mov	r13, r22
    114a:	c4 2e       	mov	r12, r20
    114c:	59 01       	movw	r10, r18
    offset &=EXT_EE_MAX;
    114e:	7c 01       	movw	r14, r24
    1150:	e8 94       	clt
    1152:	f7 f8       	bld	r15, 7
    uint8_t reg[2] = {(uint8_t)(offset>>8), (uint8_t)(offset&0xff)};
    1154:	f9 82       	std	Y+1, r15	; 0x01
    1156:	ea 82       	std	Y+2, r14	; 0x02
    uint8_t error = (I2C_read_bytes(EE_I2C_ADDR, &reg[0], 2, data, length));
    1158:	06 2f       	mov	r16, r22
    115a:	42 e0       	ldi	r20, 0x02	; 2
    115c:	be 01       	movw	r22, r28
    115e:	6f 5f       	subi	r22, 0xFF	; 255
    1160:	7f 4f       	sbci	r23, 0xFF	; 255
    1162:	80 e5       	ldi	r24, 0x50	; 80
    1164:	05 da       	rcall	.-3062   	; 0x570 <I2C_read_bytes>
    1166:	18 2f       	mov	r17, r24
    if (error) return error;
    1168:	81 11       	cpse	r24, r1
    116a:	05 c0       	rjmp	.+10     	; 0x1176 <ExtEERead+0x48>
    DecryptData(offset, length, type, data);
    116c:	95 01       	movw	r18, r10
    116e:	4c 2d       	mov	r20, r12
    1170:	6d 2d       	mov	r22, r13
    1172:	c7 01       	movw	r24, r14
    1174:	c2 df       	rcall	.-124    	; 0x10fa <DecryptData>
    return 0;
}
    1176:	81 2f       	mov	r24, r17
    1178:	0f 90       	pop	r0
    117a:	0f 90       	pop	r0
    117c:	df 91       	pop	r29
    117e:	cf 91       	pop	r28
    1180:	1f 91       	pop	r17
    1182:	0f 91       	pop	r16
    1184:	ff 90       	pop	r15
    1186:	ef 90       	pop	r14
    1188:	df 90       	pop	r13
    118a:	cf 90       	pop	r12
    118c:	bf 90       	pop	r11
    118e:	af 90       	pop	r10
    1190:	08 95       	ret

00001192 <SerSend>:

// Sends a set of characters to the serial port, stops only when character value 0 is reached.
uint8_t SerSend(unsigned char *addr){
    if (serTxDone){
    1192:	20 91 09 38 	lds	r18, 0x3809	; 0x803809 <serTxDone>
    1196:	22 23       	and	r18, r18
    1198:	59 f0       	breq	.+22     	; 0x11b0 <SerSend+0x1e>
        serTxAddr = addr;
    119a:	80 93 bb 3a 	sts	0x3ABB, r24	; 0x803abb <serTxAddr>
    119e:	90 93 bc 3a 	sts	0x3ABC, r25	; 0x803abc <serTxAddr+0x1>
        serTxDone = 0;
    11a2:	10 92 09 38 	sts	0x3809, r1	; 0x803809 <serTxDone>
        TCB0_INTCTRL = 0x01;
    11a6:	81 e0       	ldi	r24, 0x01	; 1
    11a8:	80 93 45 0a 	sts	0x0A45, r24	; 0x800a45 <__TEXT_REGION_LENGTH__+0x700a45>
        return 0;
    11ac:	80 e0       	ldi	r24, 0x00	; 0
    11ae:	08 95       	ret
    } else return 1;    //Error: Still sending data
    11b0:	81 e0       	ldi	r24, 0x01	; 1
};
    11b2:	08 95       	ret

000011b4 <SerSpeed>:

// Set serial character output speed, 255-0 (0.8 to 100ms delay between characters)
void SerSpeed(uint8_t serSpd){
    11b4:	28 2f       	mov	r18, r24
    if (serSpd<1) serSpd = 1;
    11b6:	81 11       	cpse	r24, r1
    11b8:	01 c0       	rjmp	.+2      	; 0x11bc <SerSpeed+0x8>
    11ba:	21 e0       	ldi	r18, 0x01	; 1
    TCB0_CCMP = ((uint16_t)(0xFF-serSpd)<<8) + 0xFF;
    11bc:	8f ef       	ldi	r24, 0xFF	; 255
    11be:	90 e0       	ldi	r25, 0x00	; 0
    11c0:	82 1b       	sub	r24, r18
    11c2:	91 09       	sbc	r25, r1
    11c4:	98 2f       	mov	r25, r24
    11c6:	88 27       	eor	r24, r24
    11c8:	81 50       	subi	r24, 0x01	; 1
    11ca:	9f 4f       	sbci	r25, 0xFF	; 255
    11cc:	80 93 4c 0a 	sts	0x0A4C, r24	; 0x800a4c <__TEXT_REGION_LENGTH__+0x700a4c>
    11d0:	90 93 4d 0a 	sts	0x0A4D, r25	; 0x800a4d <__TEXT_REGION_LENGTH__+0x700a4d>
    11d4:	08 95       	ret

000011d6 <SelectTSens>:
};

// Select temperature sensor
void SelectTSens(){
     VREF_CTRLA   = 0x12;    //0x22 for audio in/out (2.5V), 0x12 for temperature in, audio out (1.1V/2.5V)
    11d6:	82 e1       	ldi	r24, 0x12	; 18
    11d8:	80 93 a0 00 	sts	0x00A0, r24	; 0x8000a0 <__TEXT_REGION_LENGTH__+0x7000a0>
     ADC0_CTRLA   &= ~(ADC_RESSEL_bm);
    11dc:	e0 e0       	ldi	r30, 0x00	; 0
    11de:	f6 e0       	ldi	r31, 0x06	; 6
    11e0:	80 81       	ld	r24, Z
    11e2:	8b 7f       	andi	r24, 0xFB	; 251
    11e4:	80 83       	st	Z, r24
     ADC0_MUXPOS  = 0x1E;    //Audio in: AIN7 at (0x07), Temperature: Internal sensor at (0x1E)
    11e6:	8e e1       	ldi	r24, 0x1E	; 30
    11e8:	80 93 06 06 	sts	0x0606, r24	; 0x800606 <__TEXT_REGION_LENGTH__+0x700606>
     adc0Chg = 3;
    11ec:	83 e0       	ldi	r24, 0x03	; 3
    11ee:	80 93 39 38 	sts	0x3839, r24	; 0x803839 <adc0Chg>
    11f2:	08 95       	ret

000011f4 <SelectAuIn>:
};

// Select "audio" input (0-2.5V)
void SelectAuIn(){
     VREF_CTRLA   = 0x22;    //0x22 for audio in/out (2.5V), 0x12 for temperature in, audio out (1.1V/2.5V)
    11f4:	82 e2       	ldi	r24, 0x22	; 34
    11f6:	80 93 a0 00 	sts	0x00A0, r24	; 0x8000a0 <__TEXT_REGION_LENGTH__+0x7000a0>
     ADC0_CTRLA   |= ADC_RESSEL_bm;
    11fa:	e0 e0       	ldi	r30, 0x00	; 0
    11fc:	f6 e0       	ldi	r31, 0x06	; 6
    11fe:	80 81       	ld	r24, Z
    1200:	84 60       	ori	r24, 0x04	; 4
    1202:	80 83       	st	Z, r24
     ADC0_MUXPOS  = 0x07;    //Audio in: AIN7 at (0x07), Temperature: Internal sensor at (0x1E)
    1204:	87 e0       	ldi	r24, 0x07	; 7
    1206:	80 93 06 06 	sts	0x0606, r24	; 0x800606 <__TEXT_REGION_LENGTH__+0x700606>
     adc0Chg = 3;
    120a:	83 e0       	ldi	r24, 0x03	; 3
    120c:	80 93 39 38 	sts	0x3839, r24	; 0x803839 <adc0Chg>
    1210:	08 95       	ret

00001212 <CheckButtons>:
};

// Returns button combination (4LSB) and number of consecutive times this combination is detected. First read should always be ignored! 
uint8_t CheckButtons(){
    static uint8_t previousValue = 0xFF;
    uint8_t bADC = (uint8_t)(adcBtns>>4);
    1212:	80 91 b9 3a 	lds	r24, 0x3AB9	; 0x803ab9 <adcBtns>
    1216:	90 91 ba 3a 	lds	r25, 0x3ABA	; 0x803aba <adcBtns+0x1>
    uint8_t button = 0xFF;     //FF = released or error

        switch(bADC){
    121a:	24 e0       	ldi	r18, 0x04	; 4
    121c:	96 95       	lsr	r25
    121e:	87 95       	ror	r24
    1220:	2a 95       	dec	r18
    1222:	e1 f7       	brne	.-8      	; 0x121c <CheckButtons+0xa>
    1224:	99 27       	eor	r25, r25
    1226:	80 36       	cpi	r24, 0x60	; 96
    1228:	91 05       	cpc	r25, r1
    122a:	40 f4       	brcc	.+16     	; 0x123c <CheckButtons+0x2a>
    122c:	8f 34       	cpi	r24, 0x4F	; 79
    122e:	91 05       	cpc	r25, r1
    1230:	88 f4       	brcc	.+34     	; 0x1254 <CheckButtons+0x42>
    1232:	c0 97       	sbiw	r24, 0x30	; 48
    1234:	09 97       	sbiw	r24, 0x09	; 9
    1236:	90 f4       	brcc	.+36     	; 0x125c <CheckButtons+0x4a>

            case 48 ... 56:          //52: Bottom left (+/-4)
            button = 2;
    1238:	92 e0       	ldi	r25, 0x02	; 2
    123a:	11 c0       	rjmp	.+34     	; 0x125e <CheckButtons+0x4c>
uint8_t CheckButtons(){
    static uint8_t previousValue = 0xFF;
    uint8_t bADC = (uint8_t)(adcBtns>>4);
    uint8_t button = 0xFF;     //FF = released or error

        switch(bADC){
    123c:	85 37       	cpi	r24, 0x75	; 117
    123e:	91 05       	cpc	r25, r1
    1240:	68 f0       	brcs	.+26     	; 0x125c <CheckButtons+0x4a>
    1242:	8e 38       	cpi	r24, 0x8E	; 142
    1244:	91 05       	cpc	r25, r1
    1246:	40 f0       	brcs	.+16     	; 0x1258 <CheckButtons+0x46>
    1248:	8e 59       	subi	r24, 0x9E	; 158
    124a:	91 09       	sbc	r25, r1
    124c:	81 97       	sbiw	r24, 0x21	; 33
    124e:	30 f4       	brcc	.+12     	; 0x125c <CheckButtons+0x4a>
            case 117 ... 141:        //129: Top right (+/- 12)
            button = 1;
            break;

            case 158 ... 190:        //174: Bottom right (+/- 16)
            button = 0;
    1250:	90 e0       	ldi	r25, 0x00	; 0
            break;
    1252:	05 c0       	rjmp	.+10     	; 0x125e <CheckButtons+0x4c>
            case 48 ... 56:          //52: Bottom left (+/-4)
            button = 2;
            break;

            case 79 ... 95:          //87: Top left (+/-8)
            button = 3;
    1254:	93 e0       	ldi	r25, 0x03	; 3
            break;
    1256:	03 c0       	rjmp	.+6      	; 0x125e <CheckButtons+0x4c>

            case 117 ... 141:        //129: Top right (+/- 12)
            button = 1;
    1258:	91 e0       	ldi	r25, 0x01	; 1
            break;
    125a:	01 c0       	rjmp	.+2      	; 0x125e <CheckButtons+0x4c>

// Returns button combination (4LSB) and number of consecutive times this combination is detected. First read should always be ignored! 
uint8_t CheckButtons(){
    static uint8_t previousValue = 0xFF;
    uint8_t bADC = (uint8_t)(adcBtns>>4);
    uint8_t button = 0xFF;     //FF = released or error
    125c:	9f ef       	ldi	r25, 0xFF	; 255
            case 158 ... 190:        //174: Bottom right (+/- 16)
            button = 0;
            break;
        }

        if (((previousValue+1)== 0) || (button != previousValue)) {
    125e:	80 91 24 38 	lds	r24, 0x3824	; 0x803824 <previousValue.3901>
    1262:	98 17       	cp	r25, r24
    1264:	19 f0       	breq	.+6      	; 0x126c <CheckButtons+0x5a>
            previousValue = button;
    1266:	90 93 24 38 	sts	0x3824, r25	; 0x803824 <previousValue.3901>
            return 0xFF;
    126a:	8f ef       	ldi	r24, 0xFF	; 255
        } else return button;

}
    126c:	08 95       	ret

0000126e <lfsr>:

uint8_t lfsr(){
    static uint16_t state = 0xd401;
    state ^= (state << 13);
    126e:	80 91 22 38 	lds	r24, 0x3822	; 0x803822 <state.3911>
    1272:	90 91 23 38 	lds	r25, 0x3823	; 0x803823 <state.3911+0x1>
    1276:	9c 01       	movw	r18, r24
    1278:	32 2f       	mov	r19, r18
    127a:	22 27       	eor	r18, r18
    127c:	32 95       	swap	r19
    127e:	33 0f       	add	r19, r19
    1280:	30 7e       	andi	r19, 0xE0	; 224
    1282:	82 27       	eor	r24, r18
    1284:	93 27       	eor	r25, r19
    state ^= (state >> 9);
    1286:	9c 01       	movw	r18, r24
    1288:	23 2f       	mov	r18, r19
    128a:	33 27       	eor	r19, r19
    128c:	26 95       	lsr	r18
    128e:	82 27       	eor	r24, r18
    1290:	93 27       	eor	r25, r19
    state ^= (state << 7);
    1292:	9c 01       	movw	r18, r24
    1294:	36 95       	lsr	r19
    1296:	32 2f       	mov	r19, r18
    1298:	22 27       	eor	r18, r18
    129a:	37 95       	ror	r19
    129c:	27 95       	ror	r18
    129e:	82 27       	eor	r24, r18
    12a0:	93 27       	eor	r25, r19
    12a2:	80 93 22 38 	sts	0x3822, r24	; 0x803822 <state.3911>
    12a6:	90 93 23 38 	sts	0x3823, r25	; 0x803823 <state.3911+0x1>
    return (state & 0xff);
}
    12aa:	08 95       	ret

000012ac <floatSpeed>:

void floatSpeed(uint8_t bits, uint16_t min, uint16_t max){
    12ac:	df 92       	push	r13
    12ae:	ef 92       	push	r14
    12b0:	ff 92       	push	r15
    12b2:	0f 93       	push	r16
    12b4:	1f 93       	push	r17
    12b6:	cf 93       	push	r28
    12b8:	df 93       	push	r29
    12ba:	7b 01       	movw	r14, r22
    12bc:	8a 01       	movw	r16, r20
    uint16_t val = TCB1_CCMP;
    12be:	c0 91 5c 0a 	lds	r28, 0x0A5C	; 0x800a5c <__TEXT_REGION_LENGTH__+0x700a5c>
    12c2:	d0 91 5d 0a 	lds	r29, 0x0A5D	; 0x800a5d <__TEXT_REGION_LENGTH__+0x700a5d>
    bits = mask[(bits-1)&0x07];
    12c6:	e8 2f       	mov	r30, r24
    12c8:	f0 e0       	ldi	r31, 0x00	; 0
    12ca:	31 97       	sbiw	r30, 0x01	; 1
    12cc:	e7 70       	andi	r30, 0x07	; 7
    12ce:	ff 27       	eor	r31, r31
    12d0:	eb 5d       	subi	r30, 0xDB	; 219
    12d2:	f7 4c       	sbci	r31, 0xC7	; 199
    12d4:	d0 80       	ld	r13, Z
    val += (lfsr()&bits);
    12d6:	cb df       	rcall	.-106    	; 0x126e <lfsr>
    12d8:	8d 21       	and	r24, r13
    12da:	c8 0f       	add	r28, r24
    12dc:	d1 1d       	adc	r29, r1
    val -= (lfsr()&bits);
    12de:	c7 df       	rcall	.-114    	; 0x126e <lfsr>
    12e0:	8d 21       	and	r24, r13
    12e2:	c8 1b       	sub	r28, r24
    12e4:	d1 09       	sbc	r29, r1
    12e6:	0c 17       	cp	r16, r28
    12e8:	1d 07       	cpc	r17, r29
    12ea:	08 f4       	brcc	.+2      	; 0x12ee <floatSpeed+0x42>
    12ec:	e8 01       	movw	r28, r16
    12ee:	c7 01       	movw	r24, r14
    12f0:	ec 16       	cp	r14, r28
    12f2:	fd 06       	cpc	r15, r29
    12f4:	08 f4       	brcc	.+2      	; 0x12f8 <floatSpeed+0x4c>
    12f6:	ce 01       	movw	r24, r28
    12f8:	80 93 5c 0a 	sts	0x0A5C, r24	; 0x800a5c <__TEXT_REGION_LENGTH__+0x700a5c>
    if (val > max) val = max;    
    if (val < min) val = min;  
    TCB1_CCMP = val;
    12fc:	90 93 5d 0a 	sts	0x0A5D, r25	; 0x800a5d <__TEXT_REGION_LENGTH__+0x700a5d>
    1300:	df 91       	pop	r29
}
    1302:	cf 91       	pop	r28
    1304:	1f 91       	pop	r17
    1306:	0f 91       	pop	r16
    1308:	ff 90       	pop	r15
    130a:	ef 90       	pop	r14
    130c:	df 90       	pop	r13
    130e:	08 95       	ret

00001310 <floatAround>:
    1310:	0f 93       	push	r16

uint8_t floatAround(uint8_t sample, uint8_t bits, uint8_t min, uint8_t max){
    1312:	1f 93       	push	r17
    1314:	cf 93       	push	r28
    1316:	df 93       	push	r29
    1318:	c8 2f       	mov	r28, r24
    131a:	d4 2f       	mov	r29, r20
    131c:	02 2f       	mov	r16, r18
    bits = mask[(bits-1)&0x07];
    131e:	e6 2f       	mov	r30, r22
    1320:	f0 e0       	ldi	r31, 0x00	; 0
    1322:	31 97       	sbiw	r30, 0x01	; 1
    1324:	e7 70       	andi	r30, 0x07	; 7
    1326:	ff 27       	eor	r31, r31
    1328:	eb 5d       	subi	r30, 0xDB	; 219
    132a:	f7 4c       	sbci	r31, 0xC7	; 199
    132c:	10 81       	ld	r17, Z
    sample += lfsr()&bits;
    132e:	9f df       	rcall	.-194    	; 0x126e <lfsr>
    1330:	81 23       	and	r24, r17
    1332:	c8 0f       	add	r28, r24
    sample -= lfsr()&bits;
    1334:	9c df       	rcall	.-200    	; 0x126e <lfsr>
    1336:	81 23       	and	r24, r17
    1338:	c8 1b       	sub	r28, r24
    133a:	8c 2f       	mov	r24, r28
    133c:	00 23       	and	r16, r16
    if (max){
    133e:	41 f0       	breq	.+16     	; 0x1350 <floatAround+0x40>
    1340:	9c 2f       	mov	r25, r28
    1342:	0c 17       	cp	r16, r28
    1344:	08 f4       	brcc	.+2      	; 0x1348 <floatAround+0x38>
    1346:	90 2f       	mov	r25, r16
    1348:	8d 2f       	mov	r24, r29
    134a:	d9 17       	cp	r29, r25
    134c:	08 f4       	brcc	.+2      	; 0x1350 <floatAround+0x40>
    134e:	89 2f       	mov	r24, r25
    1350:	41 e0       	ldi	r20, 0x01	; 1
        if (sample > max) sample = max;
        if (sample < min) sample = min;
    }
    if (min & (sample < min)) sample = min;
    1352:	50 e0       	ldi	r21, 0x00	; 0
    1354:	8d 17       	cp	r24, r29
    1356:	10 f0       	brcs	.+4      	; 0x135c <floatAround+0x4c>
    1358:	40 e0       	ldi	r20, 0x00	; 0
    135a:	50 e0       	ldi	r21, 0x00	; 0
    135c:	2d 2f       	mov	r18, r29
    135e:	30 e0       	ldi	r19, 0x00	; 0
    1360:	24 23       	and	r18, r20
    1362:	35 23       	and	r19, r21
    1364:	23 2b       	or	r18, r19
    1366:	09 f0       	breq	.+2      	; 0x136a <floatAround+0x5a>
    1368:	8d 2f       	mov	r24, r29
    136a:	df 91       	pop	r29

    return sample;
}
    136c:	cf 91       	pop	r28
    136e:	1f 91       	pop	r17
    1370:	0f 91       	pop	r16
    1372:	08 95       	ret

00001374 <SaveGameState>:
    1374:	cf 92       	push	r12
    inventory[0] = (gameState[INVADDR]<<8|gameState[INVADDR+1]);
    inventory[1] = (gameState[INVADDR+2]<<8|gameState[INVADDR+3]);
}

//Save changed data to EEPROM
uint8_t SaveGameState(){
    1376:	df 92       	push	r13
    1378:	ff 92       	push	r15
    137a:	0f 93       	push	r16
    137c:	1f 93       	push	r17
    137e:	cf 93       	push	r28
    1380:	df 93       	push	r29
    1382:	cd b7       	in	r28, 0x3d	; 61
    1384:	de b7       	in	r29, 0x3e	; 62
    1386:	64 97       	sbiw	r28, 0x14	; 20
    1388:	cd bf       	out	0x3d, r28	; 61
    138a:	de bf       	out	0x3e, r29	; 62
    uint8_t gameCheck[BOOTCHK];

    //Read all data up to the boot/check result address from EEPROM
    EERead(0, &gameCheck[0], BOOTCHK);
    138c:	44 e1       	ldi	r20, 0x14	; 20
    138e:	be 01       	movw	r22, r28
    1390:	6f 5f       	subi	r22, 0xFF	; 255
    1392:	7f 4f       	sbci	r23, 0xFF	; 255
    1394:	80 e0       	ldi	r24, 0x00	; 0
    1396:	79 de       	rcall	.-782    	; 0x108a <EERead>
    1398:	83 e6       	ldi	r24, 0x63	; 99
    139a:	c8 2e       	mov	r12, r24
    139c:	8a e3       	ldi	r24, 0x3A	; 58
    139e:	d8 2e       	mov	r13, r24
    13a0:	8e 01       	movw	r16, r28
    13a2:	0f 5f       	subi	r16, 0xFF	; 255
    13a4:	1f 4f       	sbci	r17, 0xFF	; 255

    //Check game status bits
    for (uint8_t x=0; x<STATLEN; ++x){
    13a6:	f1 2c       	mov	r15, r1
        if (gameState[x] != gameCheck[x]){
    13a8:	f8 01       	movw	r30, r16
    13aa:	81 91       	ld	r24, Z+
    13ac:	8f 01       	movw	r16, r30
    13ae:	f6 01       	movw	r30, r12
    13b0:	90 81       	ld	r25, Z
    13b2:	98 13       	cpse	r25, r24
    13b4:	08 c0       	rjmp	.+16     	; 0x13c6 <SaveGameState+0x52>

    //Read all data up to the boot/check result address from EEPROM
    EERead(0, &gameCheck[0], BOOTCHK);

    //Check game status bits
    for (uint8_t x=0; x<STATLEN; ++x){
    13b6:	f3 94       	inc	r15
    13b8:	ff ef       	ldi	r31, 0xFF	; 255
    13ba:	cf 1a       	sub	r12, r31
    13bc:	df 0a       	sbc	r13, r31
    13be:	80 e1       	ldi	r24, 0x10	; 16
    13c0:	f8 12       	cpse	r15, r24
    13c2:	f2 cf       	rjmp	.-28     	; 0x13a8 <SaveGameState+0x34>
    13c4:	08 c0       	rjmp	.+16     	; 0x13d6 <SaveGameState+0x62>
        if (gameState[x] != gameCheck[x]){
            if (EEWrite(x, &gameState[x], 1)) return 1;
    13c6:	41 e0       	ldi	r20, 0x01	; 1
    13c8:	b6 01       	movw	r22, r12
    13ca:	8f 2d       	mov	r24, r15
    13cc:	6e de       	rcall	.-804    	; 0x10aa <EEWrite>
    13ce:	88 23       	and	r24, r24
    13d0:	91 f3       	breq	.-28     	; 0x13b6 <SaveGameState+0x42>
    13d2:	91 e0       	ldi	r25, 0x01	; 1
    13d4:	36 c0       	rjmp	.+108    	; 0x1442 <SaveGameState+0xce>
        }
    }

    //Check the inventory too
    gameState[INVADDR] = (uint8_t)(inventory[0]>>8);
    13d6:	20 91 40 38 	lds	r18, 0x3840	; 0x803840 <inventory>
    13da:	30 91 41 38 	lds	r19, 0x3841	; 0x803841 <inventory+0x1>
    13de:	30 93 73 3a 	sts	0x3A73, r19	; 0x803a73 <gameState+0x10>
    gameState[INVADDR+1] = (uint8_t)(inventory[0]&0xff);
    13e2:	20 93 74 3a 	sts	0x3A74, r18	; 0x803a74 <gameState+0x11>
    gameState[INVADDR+2] = (uint8_t)(inventory[1]>>8);
    13e6:	80 91 42 38 	lds	r24, 0x3842	; 0x803842 <inventory+0x2>
    13ea:	90 91 43 38 	lds	r25, 0x3843	; 0x803843 <inventory+0x3>
    13ee:	90 93 75 3a 	sts	0x3A75, r25	; 0x803a75 <gameState+0x12>
    gameState[INVADDR+3] = (uint8_t)(inventory[1]&0xff);
    13f2:	80 93 76 3a 	sts	0x3A76, r24	; 0x803a76 <gameState+0x13>
    if (inventory[0] != (gameCheck[INVADDR]<<8|gameCheck[INVADDR+1])) {
    13f6:	89 89       	ldd	r24, Y+17	; 0x11
    13f8:	9a 89       	ldd	r25, Y+18	; 0x12
    13fa:	98 27       	eor	r25, r24
    13fc:	89 27       	eor	r24, r25
    13fe:	98 27       	eor	r25, r24
    1400:	28 17       	cp	r18, r24
    1402:	39 07       	cpc	r19, r25
    1404:	69 f4       	brne	.+26     	; 0x1420 <SaveGameState+0xac>
        if (EEWrite(INVADDR, &gameState[INVADDR], 2)) return 1;
    }
    if (inventory[1] != (gameCheck[INVADDR+2]<<8|gameCheck[INVADDR+3])) {
    1406:	8b 89       	ldd	r24, Y+19	; 0x13
    1408:	9c 89       	ldd	r25, Y+20	; 0x14
    140a:	98 27       	eor	r25, r24
    140c:	89 27       	eor	r24, r25
    140e:	98 27       	eor	r25, r24
    1410:	20 91 42 38 	lds	r18, 0x3842	; 0x803842 <inventory+0x2>
    1414:	30 91 43 38 	lds	r19, 0x3843	; 0x803843 <inventory+0x3>
    1418:	28 17       	cp	r18, r24
    141a:	39 07       	cpc	r19, r25
    141c:	49 f4       	brne	.+18     	; 0x1430 <SaveGameState+0xbc>
    141e:	10 c0       	rjmp	.+32     	; 0x1440 <SaveGameState+0xcc>
    gameState[INVADDR] = (uint8_t)(inventory[0]>>8);
    gameState[INVADDR+1] = (uint8_t)(inventory[0]&0xff);
    gameState[INVADDR+2] = (uint8_t)(inventory[1]>>8);
    gameState[INVADDR+3] = (uint8_t)(inventory[1]&0xff);
    if (inventory[0] != (gameCheck[INVADDR]<<8|gameCheck[INVADDR+1])) {
        if (EEWrite(INVADDR, &gameState[INVADDR], 2)) return 1;
    1420:	42 e0       	ldi	r20, 0x02	; 2
    1422:	63 e7       	ldi	r22, 0x73	; 115
    1424:	7a e3       	ldi	r23, 0x3A	; 58
    1426:	80 e1       	ldi	r24, 0x10	; 16
    1428:	40 de       	rcall	.-896    	; 0x10aa <EEWrite>
    142a:	88 23       	and	r24, r24
    142c:	61 f3       	breq	.-40     	; 0x1406 <SaveGameState+0x92>
    142e:	d1 cf       	rjmp	.-94     	; 0x13d2 <SaveGameState+0x5e>
    }
    if (inventory[1] != (gameCheck[INVADDR+2]<<8|gameCheck[INVADDR+3])) {
        if (EEWrite(INVADDR+2, &gameState[INVADDR+2], 2)) return 1;
    1430:	42 e0       	ldi	r20, 0x02	; 2
    1432:	65 e7       	ldi	r22, 0x75	; 117
    1434:	7a e3       	ldi	r23, 0x3A	; 58
    1436:	82 e1       	ldi	r24, 0x12	; 18
    1438:	38 de       	rcall	.-912    	; 0x10aa <EEWrite>
    EERead(0, &gameCheck[0], BOOTCHK);

    //Check game status bits
    for (uint8_t x=0; x<STATLEN; ++x){
        if (gameState[x] != gameCheck[x]){
            if (EEWrite(x, &gameState[x], 1)) return 1;
    143a:	91 e0       	ldi	r25, 0x01	; 1
    143c:	81 11       	cpse	r24, r1
    143e:	01 c0       	rjmp	.+2      	; 0x1442 <SaveGameState+0xce>
    1440:	90 e0       	ldi	r25, 0x00	; 0
    if (inventory[1] != (gameCheck[INVADDR+2]<<8|gameCheck[INVADDR+3])) {
        if (EEWrite(INVADDR+2, &gameState[INVADDR+2], 2)) return 1;
    }

    return 0;
}
    1442:	89 2f       	mov	r24, r25
    1444:	64 96       	adiw	r28, 0x14	; 20
    1446:	cd bf       	out	0x3d, r28	; 61
    1448:	de bf       	out	0x3e, r29	; 62
    144a:	df 91       	pop	r29
    144c:	cf 91       	pop	r28
    144e:	1f 91       	pop	r17
    1450:	0f 91       	pop	r16
    1452:	ff 90       	pop	r15
    1454:	df 90       	pop	r13
    1456:	cf 90       	pop	r12
    1458:	08 95       	ret

0000145a <ReadStatusBit>:

uint8_t ReadStatusBit(uint8_t number){
    number &= 0x7f;
    if (gameState[number>>3] & (1<<(number&7))) return 1; else return 0;
    145a:	e8 2f       	mov	r30, r24
    145c:	ef 77       	andi	r30, 0x7F	; 127
    145e:	e6 95       	lsr	r30
    1460:	e6 95       	lsr	r30
    1462:	e6 95       	lsr	r30
    1464:	f0 e0       	ldi	r31, 0x00	; 0
    1466:	ed 59       	subi	r30, 0x9D	; 157
    1468:	f5 4c       	sbci	r31, 0xC5	; 197
    146a:	20 81       	ld	r18, Z
    146c:	30 e0       	ldi	r19, 0x00	; 0
    146e:	87 70       	andi	r24, 0x07	; 7
    1470:	a9 01       	movw	r20, r18
    1472:	02 c0       	rjmp	.+4      	; 0x1478 <ReadStatusBit+0x1e>
    1474:	55 95       	asr	r21
    1476:	47 95       	ror	r20
    1478:	8a 95       	dec	r24
    147a:	e2 f7       	brpl	.-8      	; 0x1474 <ReadStatusBit+0x1a>
    147c:	ca 01       	movw	r24, r20
}
    147e:	81 70       	andi	r24, 0x01	; 1
    1480:	08 95       	ret

00001482 <WriteStatusBit>:

void WriteStatusBit(uint8_t number, uint8_t state){
    number &= 0x7f;
    1482:	e8 2f       	mov	r30, r24
    1484:	ef 77       	andi	r30, 0x7F	; 127
    1486:	e6 95       	lsr	r30
    1488:	e6 95       	lsr	r30
    148a:	e6 95       	lsr	r30
    148c:	28 2f       	mov	r18, r24
    148e:	27 70       	andi	r18, 0x07	; 7
    if (state) gameState[number>>3] |= 1<<(number&7);
    1490:	f0 e0       	ldi	r31, 0x00	; 0
    1492:	ed 59       	subi	r30, 0x9D	; 157
    1494:	f5 4c       	sbci	r31, 0xC5	; 197
    1496:	81 e0       	ldi	r24, 0x01	; 1
    1498:	90 e0       	ldi	r25, 0x00	; 0
    149a:	01 c0       	rjmp	.+2      	; 0x149e <WriteStatusBit+0x1c>
    149c:	88 0f       	add	r24, r24
    149e:	2a 95       	dec	r18
    14a0:	ea f7       	brpl	.-6      	; 0x149c <WriteStatusBit+0x1a>
    14a2:	66 23       	and	r22, r22
    14a4:	19 f0       	breq	.+6      	; 0x14ac <WriteStatusBit+0x2a>
    14a6:	90 81       	ld	r25, Z
    14a8:	89 2b       	or	r24, r25
    14aa:	03 c0       	rjmp	.+6      	; 0x14b2 <WriteStatusBit+0x30>
    else gameState[number>>3] &= ~(1<<(number&7));
    14ac:	80 95       	com	r24
    14ae:	90 81       	ld	r25, Z
    14b0:	89 23       	and	r24, r25
    14b2:	80 83       	st	Z, r24
    14b4:	08 95       	ret

000014b6 <UpdateState>:
}

//Update game state: num -> vBBBBbbb v=value(0 is set!), BBBB=Byte number, bbb=bit number
void UpdateState(uint8_t num){
    14b6:	98 2f       	mov	r25, r24
    uint8_t clearBit = num & 0x80;
    num &= 0x7f;
    14b8:	8f 77       	andi	r24, 0x7F	; 127
    if (num) {
    14ba:	31 f0       	breq	.+12     	; 0x14c8 <UpdateState+0x12>
        if (clearBit) {
    14bc:	97 ff       	sbrs	r25, 7
    14be:	02 c0       	rjmp	.+4      	; 0x14c4 <UpdateState+0xe>
            WriteStatusBit(num, 0);
    14c0:	60 e0       	ldi	r22, 0x00	; 0
    14c2:	01 c0       	rjmp	.+2      	; 0x14c6 <UpdateState+0x10>
        } else {
            WriteStatusBit(num, 1);
    14c4:	61 e0       	ldi	r22, 0x01	; 1
    14c6:	dd cf       	rjmp	.-70     	; 0x1482 <WriteStatusBit>
    14c8:	08 95       	ret

000014ca <CheckState>:
        }
    }
}

//Checks if state of bit BBBBbbb matches with v (inverted) bit
uint8_t CheckState(uint8_t num){
    14ca:	cf 93       	push	r28
    14cc:	c8 2f       	mov	r28, r24
    uint8_t bitSet = 0;
    if (ReadStatusBit(num & 0x7f)){
    14ce:	8f 77       	andi	r24, 0x7F	; 127
    14d0:	c4 df       	rcall	.-120    	; 0x145a <ReadStatusBit>
    14d2:	2c 2f       	mov	r18, r28
    14d4:	22 1f       	adc	r18, r18
    14d6:	22 27       	eor	r18, r18
    14d8:	22 1f       	adc	r18, r18
    14da:	91 e0       	ldi	r25, 0x01	; 1
    14dc:	81 11       	cpse	r24, r1
    14de:	01 c0       	rjmp	.+2      	; 0x14e2 <CheckState+0x18>
    14e0:	90 e0       	ldi	r25, 0x00	; 0
    }
    if (((num & 0x80)>0)^(bitSet>0)){
        return 1;
    }
    return 0;
}
    14e2:	82 2f       	mov	r24, r18
    14e4:	89 27       	eor	r24, r25
    14e6:	cf 91       	pop	r28
    14e8:	08 95       	ret

000014ea <getID>:

//Give out a number 0..3, calculated using serial number fields
uint8_t getID(){
    uint8_t id = 0;
    uint8_t *serNum;
    serNum = (uint8_t*)&SIGROW_SERNUM0;
    14ea:	e3 e0       	ldi	r30, 0x03	; 3
    14ec:	f1 e1       	ldi	r31, 0x11	; 17
    return 0;
}

//Give out a number 0..3, calculated using serial number fields
uint8_t getID(){
    uint8_t id = 0;
    14ee:	80 e0       	ldi	r24, 0x00	; 0
    uint8_t *serNum;
    serNum = (uint8_t*)&SIGROW_SERNUM0;

    for (uint8_t x=0; x<10; ++x){
        id += *serNum;
    14f0:	91 91       	ld	r25, Z+
    14f2:	89 0f       	add	r24, r25
uint8_t getID(){
    uint8_t id = 0;
    uint8_t *serNum;
    serNum = (uint8_t*)&SIGROW_SERNUM0;

    for (uint8_t x=0; x<10; ++x){
    14f4:	ed 30       	cpi	r30, 0x0D	; 13
    14f6:	91 e1       	ldi	r25, 0x11	; 17
    14f8:	f9 07       	cpc	r31, r25
    14fa:	d1 f7       	brne	.-12     	; 0x14f0 <getID+0x6>
        id += *serNum;
        ++serNum;
    }
    id %= 4;
    whoami = id+1;
    14fc:	83 70       	andi	r24, 0x03	; 3
    14fe:	8f 5f       	subi	r24, 0xFF	; 255
    1500:	80 93 3f 38 	sts	0x383F, r24	; 0x80383f <whoami>
    return whoami;
}
    1504:	08 95       	ret

00001506 <Reset>:

void Reset(){
    1506:	e3 e6       	ldi	r30, 0x63	; 99
    1508:	fa e3       	ldi	r31, 0x3A	; 58
    //# 110   set to 1 by FW if badge UUID mod 4 == 0
    //# 111   set to 1 by FW if badge UUID mod 4 == 1
    //# 112   set to 1 by FW if badge UUID mod 4 == 2
    //# 113   set to 1 by FW if badge UUID mod 4 == 3
    for (uint8_t x=0; x<sizeof(gameState); ++x){
        gameState[x] = 0;
    150a:	11 92       	st	Z+, r1
    //Reset game progress (all zeroes) and load some bits:
    //# 110   set to 1 by FW if badge UUID mod 4 == 0
    //# 111   set to 1 by FW if badge UUID mod 4 == 1
    //# 112   set to 1 by FW if badge UUID mod 4 == 2
    //# 113   set to 1 by FW if badge UUID mod 4 == 3
    for (uint8_t x=0; x<sizeof(gameState); ++x){
    150c:	8a e3       	ldi	r24, 0x3A	; 58
    150e:	e7 37       	cpi	r30, 0x77	; 119
    1510:	f8 07       	cpc	r31, r24
    1512:	d9 f7       	brne	.-10     	; 0x150a <Reset+0x4>
        gameState[x] = 0;
    }

    uint8_t id = getID();
    1514:	ea df       	rcall	.-44     	; 0x14ea <getID>

    //Write bit in gameState location 110..113
    if (id == 0) WriteStatusBit(110, 1);
    1516:	81 11       	cpse	r24, r1
    1518:	04 c0       	rjmp	.+8      	; 0x1522 <Reset+0x1c>
    if (gameState[number>>3] & (1<<(number&7))) return 1; else return 0;
}

void WriteStatusBit(uint8_t number, uint8_t state){
    number &= 0x7f;
    if (state) gameState[number>>3] |= 1<<(number&7);
    151a:	80 91 70 3a 	lds	r24, 0x3A70	; 0x803a70 <gameState+0xd>
    151e:	80 64       	ori	r24, 0x40	; 64
    1520:	05 c0       	rjmp	.+10     	; 0x152c <Reset+0x26>

    uint8_t id = getID();

    //Write bit in gameState location 110..113
    if (id == 0) WriteStatusBit(110, 1);
    else if (id == 1) WriteStatusBit(111, 1);
    1522:	81 30       	cpi	r24, 0x01	; 1
    1524:	31 f4       	brne	.+12     	; 0x1532 <Reset+0x2c>
    if (gameState[number>>3] & (1<<(number&7))) return 1; else return 0;
}

void WriteStatusBit(uint8_t number, uint8_t state){
    number &= 0x7f;
    if (state) gameState[number>>3] |= 1<<(number&7);
    1526:	80 91 70 3a 	lds	r24, 0x3A70	; 0x803a70 <gameState+0xd>
    152a:	80 68       	ori	r24, 0x80	; 128
    152c:	80 93 70 3a 	sts	0x3A70, r24	; 0x803a70 <gameState+0xd>
    1530:	0d c0       	rjmp	.+26     	; 0x154c <Reset+0x46>
    uint8_t id = getID();

    //Write bit in gameState location 110..113
    if (id == 0) WriteStatusBit(110, 1);
    else if (id == 1) WriteStatusBit(111, 1);
    else if (id == 2) WriteStatusBit(112, 1);
    1532:	82 30       	cpi	r24, 0x02	; 2
    1534:	21 f4       	brne	.+8      	; 0x153e <Reset+0x38>
    if (gameState[number>>3] & (1<<(number&7))) return 1; else return 0;
}

void WriteStatusBit(uint8_t number, uint8_t state){
    number &= 0x7f;
    if (state) gameState[number>>3] |= 1<<(number&7);
    1536:	80 91 71 3a 	lds	r24, 0x3A71	; 0x803a71 <gameState+0xe>
    153a:	81 60       	ori	r24, 0x01	; 1
    153c:	05 c0       	rjmp	.+10     	; 0x1548 <Reset+0x42>

    //Write bit in gameState location 110..113
    if (id == 0) WriteStatusBit(110, 1);
    else if (id == 1) WriteStatusBit(111, 1);
    else if (id == 2) WriteStatusBit(112, 1);
    else if (id == 3) WriteStatusBit(113, 1);
    153e:	83 30       	cpi	r24, 0x03	; 3
    1540:	29 f4       	brne	.+10     	; 0x154c <Reset+0x46>
    if (gameState[number>>3] & (1<<(number&7))) return 1; else return 0;
}

void WriteStatusBit(uint8_t number, uint8_t state){
    number &= 0x7f;
    if (state) gameState[number>>3] |= 1<<(number&7);
    1542:	80 91 71 3a 	lds	r24, 0x3A71	; 0x803a71 <gameState+0xe>
    1546:	82 60       	ori	r24, 0x02	; 2
    1548:	80 93 71 3a 	sts	0x3A71, r24	; 0x803a71 <gameState+0xe>
    154c:	80 91 63 3a 	lds	r24, 0x3A63	; 0x803a63 <gameState>
    1550:	81 60       	ori	r24, 0x01	; 1
    1552:	80 93 63 3a 	sts	0x3A63, r24	; 0x803a63 <gameState>
    1556:	08 95       	ret

00001558 <LoadGameState>:

    return sample;
}

//Load game status
void LoadGameState(){
    1558:	cf 93       	push	r28
    155a:	df 93       	push	r29
    EERead(0, &gameState[0], BOOTCHK);   //Load game status bits from EEPROM
    155c:	44 e1       	ldi	r20, 0x14	; 20
    155e:	63 e6       	ldi	r22, 0x63	; 99
    1560:	7a e3       	ldi	r23, 0x3A	; 58
    1562:	80 e0       	ldi	r24, 0x00	; 0
    1564:	92 dd       	rcall	.-1244   	; 0x108a <EERead>
    1566:	ce e6       	ldi	r28, 0x6E	; 110

    uint8_t idSet = 0;
    1568:	d0 e0       	ldi	r29, 0x00	; 0
    for (uint8_t x=0; x<4; ++x){
        idSet += ReadStatusBit(110+x);
    156a:	8c 2f       	mov	r24, r28
    156c:	76 df       	rcall	.-276    	; 0x145a <ReadStatusBit>
    156e:	d8 0f       	add	r29, r24
    1570:	cf 5f       	subi	r28, 0xFF	; 255
//Load game status
void LoadGameState(){
    EERead(0, &gameState[0], BOOTCHK);   //Load game status bits from EEPROM

    uint8_t idSet = 0;
    for (uint8_t x=0; x<4; ++x){
    1572:	c2 37       	cpi	r28, 0x72	; 114
    1574:	d1 f7       	brne	.-12     	; 0x156a <LoadGameState+0x12>
        idSet += ReadStatusBit(110+x);
    }

    //Check if badge is reset(0 = cheated!) or new(3) or error(2)
    if (idSet != 1) {
    1576:	d1 30       	cpi	r29, 0x01	; 1
        Reset();
    1578:	11 f0       	breq	.+4      	; 0x157e <LoadGameState+0x26>
    157a:	c5 df       	rcall	.-118    	; 0x1506 <Reset>
    } else getID();
    157c:	01 c0       	rjmp	.+2      	; 0x1580 <LoadGameState+0x28>
    157e:	b5 df       	rcall	.-150    	; 0x14ea <getID>

    inventory[0] = (gameState[INVADDR]<<8|gameState[INVADDR+1]);
    1580:	80 91 73 3a 	lds	r24, 0x3A73	; 0x803a73 <gameState+0x10>
    1584:	90 91 74 3a 	lds	r25, 0x3A74	; 0x803a74 <gameState+0x11>
    1588:	98 27       	eor	r25, r24
    158a:	89 27       	eor	r24, r25
    158c:	98 27       	eor	r25, r24
    158e:	80 93 40 38 	sts	0x3840, r24	; 0x803840 <inventory>
    1592:	90 93 41 38 	sts	0x3841, r25	; 0x803841 <inventory+0x1>
    inventory[1] = (gameState[INVADDR+2]<<8|gameState[INVADDR+3]);
    1596:	80 91 75 3a 	lds	r24, 0x3A75	; 0x803a75 <gameState+0x12>
    159a:	90 91 76 3a 	lds	r25, 0x3A76	; 0x803a76 <gameState+0x13>
    159e:	98 27       	eor	r25, r24
    15a0:	89 27       	eor	r24, r25
    15a2:	98 27       	eor	r25, r24
    15a4:	80 93 42 38 	sts	0x3842, r24	; 0x803842 <inventory+0x2>
    15a8:	90 93 43 38 	sts	0x3843, r25	; 0x803843 <inventory+0x3>
}
    15ac:	df 91       	pop	r29
    15ae:	cf 91       	pop	r28
    15b0:	08 95       	ret

000015b2 <HotSummer>:
    //Write bit 0, must always be 1!
    WriteStatusBit(0, 1);
}

//Sets specific game bits after the badge is heated for one and two times.
uint8_t HotSummer(){
    15b2:	cf 93       	push	r28
    static uint8_t cooledDown = 0;

    if (CheckState(SUMMERS_COMPLETED)){
    15b4:	86 e7       	ldi	r24, 0x76	; 118
    15b6:	89 df       	rcall	.-238    	; 0x14ca <CheckState>
    15b8:	c8 2f       	mov	r28, r24
    15ba:	88 23       	and	r24, r24
    15bc:	81 f0       	breq	.+32     	; 0x15de <HotSummer+0x2c>
        iLED[SCARAB[G]] = 0;
    15be:	e0 91 e7 bf 	lds	r30, 0xBFE7	; 0x80bfe7 <__bss_end+0x84cb>
    15c2:	f0 e0       	ldi	r31, 0x00	; 0
    15c4:	e4 53       	subi	r30, 0x34	; 52
    15c6:	f5 4c       	sbci	r31, 0xC5	; 197
    15c8:	10 82       	st	Z, r1
        iLED[SCARAB[R]] = dimValue;
    15ca:	e0 91 e6 bf 	lds	r30, 0xBFE6	; 0x80bfe6 <__bss_end+0x84ca>
    15ce:	f0 e0       	ldi	r31, 0x00	; 0
    15d0:	80 91 0c 38 	lds	r24, 0x380C	; 0x80380c <dimValue>
    15d4:	e4 53       	subi	r30, 0x34	; 52
    15d6:	f5 4c       	sbci	r31, 0xC5	; 197
    15d8:	80 83       	st	Z, r24
        return 1;
    15da:	c1 e0       	ldi	r28, 0x01	; 1
    15dc:	4c c0       	rjmp	.+152    	; 0x1676 <HotSummer+0xc4>
    }

    if (CheckState(FIRST_SUMMER)) {
    15de:	85 e7       	ldi	r24, 0x75	; 117
    15e0:	74 df       	rcall	.-280    	; 0x14ca <CheckState>
    15e2:	88 23       	and	r24, r24
    15e4:	59 f1       	breq	.+86     	; 0x163c <HotSummer+0x8a>
        iLED[SCARAB[G]] = dimValue;
    15e6:	e0 91 e7 bf 	lds	r30, 0xBFE7	; 0x80bfe7 <__bss_end+0x84cb>
    15ea:	f0 e0       	ldi	r31, 0x00	; 0
    15ec:	80 91 0c 38 	lds	r24, 0x380C	; 0x80380c <dimValue>
    15f0:	e4 53       	subi	r30, 0x34	; 52
    15f2:	f5 4c       	sbci	r31, 0xC5	; 197
    15f4:	80 83       	st	Z, r24
        if ((cooledDown) && (adcTemp >= (calTemp + 32))) {
    15f6:	80 91 5b 38 	lds	r24, 0x385B	; 0x80385b <cooledDown.3970>
    15fa:	88 23       	and	r24, r24
    15fc:	79 f0       	breq	.+30     	; 0x161c <HotSummer+0x6a>
    15fe:	80 91 c2 3a 	lds	r24, 0x3AC2	; 0x803ac2 <calTemp>
    1602:	90 91 c3 3a 	lds	r25, 0x3AC3	; 0x803ac3 <calTemp+0x1>
    1606:	20 91 f7 3a 	lds	r18, 0x3AF7	; 0x803af7 <adcTemp>
    160a:	30 91 f8 3a 	lds	r19, 0x3AF8	; 0x803af8 <adcTemp+0x1>
    160e:	80 96       	adiw	r24, 0x20	; 32
    1610:	28 17       	cp	r18, r24
    1612:	39 07       	cpc	r19, r25
            UpdateState(SUMMERS_COMPLETED);
    1614:	18 f0       	brcs	.+6      	; 0x161c <HotSummer+0x6a>
    1616:	86 e7       	ldi	r24, 0x76	; 118
    1618:	4e df       	rcall	.-356    	; 0x14b6 <UpdateState>
            return 0;
    161a:	2d c0       	rjmp	.+90     	; 0x1676 <HotSummer+0xc4>
        }
        if (adcTemp <= (calTemp + 8)) cooledDown = 1;
    161c:	80 91 c2 3a 	lds	r24, 0x3AC2	; 0x803ac2 <calTemp>
    1620:	90 91 c3 3a 	lds	r25, 0x3AC3	; 0x803ac3 <calTemp+0x1>
    1624:	20 91 f7 3a 	lds	r18, 0x3AF7	; 0x803af7 <adcTemp>
    1628:	30 91 f8 3a 	lds	r19, 0x3AF8	; 0x803af8 <adcTemp+0x1>
    162c:	08 96       	adiw	r24, 0x08	; 8
    162e:	82 17       	cp	r24, r18
    1630:	93 07       	cpc	r25, r19
    1632:	08 f1       	brcs	.+66     	; 0x1676 <HotSummer+0xc4>
    1634:	81 e0       	ldi	r24, 0x01	; 1
    1636:	80 93 5b 38 	sts	0x385B, r24	; 0x80385b <cooledDown.3970>
    163a:	1d c0       	rjmp	.+58     	; 0x1676 <HotSummer+0xc4>
                   
    } else {
        if (calTemp == 0) calTemp = adcTemp;
    163c:	80 91 c2 3a 	lds	r24, 0x3AC2	; 0x803ac2 <calTemp>
    1640:	90 91 c3 3a 	lds	r25, 0x3AC3	; 0x803ac3 <calTemp+0x1>
    1644:	89 2b       	or	r24, r25
    1646:	41 f4       	brne	.+16     	; 0x1658 <HotSummer+0xa6>
    1648:	80 91 f7 3a 	lds	r24, 0x3AF7	; 0x803af7 <adcTemp>
    164c:	90 91 f8 3a 	lds	r25, 0x3AF8	; 0x803af8 <adcTemp+0x1>
    1650:	80 93 c2 3a 	sts	0x3AC2, r24	; 0x803ac2 <calTemp>
    1654:	90 93 c3 3a 	sts	0x3AC3, r25	; 0x803ac3 <calTemp+0x1>
        if (adcTemp >= (calTemp + 32)) {
    1658:	80 91 c2 3a 	lds	r24, 0x3AC2	; 0x803ac2 <calTemp>
    165c:	90 91 c3 3a 	lds	r25, 0x3AC3	; 0x803ac3 <calTemp+0x1>
    1660:	20 91 f7 3a 	lds	r18, 0x3AF7	; 0x803af7 <adcTemp>
    1664:	30 91 f8 3a 	lds	r19, 0x3AF8	; 0x803af8 <adcTemp+0x1>
    1668:	80 96       	adiw	r24, 0x20	; 32
    166a:	28 17       	cp	r18, r24
    166c:	39 07       	cpc	r19, r25
            UpdateState(FIRST_SUMMER);
    166e:	18 f0       	brcs	.+6      	; 0x1676 <HotSummer+0xc4>
    1670:	85 e7       	ldi	r24, 0x75	; 117
    1672:	21 df       	rcall	.-446    	; 0x14b6 <UpdateState>
        }
    }
    return 0;
    1674:	c0 e0       	ldi	r28, 0x00	; 0
}
    1676:	8c 2f       	mov	r24, r28
    1678:	cf 91       	pop	r28
    167a:	08 95       	ret

0000167c <WingBar>:

void WingBar(int8_t l, int8_t r) {
    167c:	e8 ee       	ldi	r30, 0xE8	; 232
    167e:	ff eb       	ldi	r31, 0xBF	; 191
    for (int8_t i=0; i<5; i++) {
    1680:	90 e0       	ldi	r25, 0x00	; 0
        if (i<l)
            iLED[WING[L][i]] = dimValue;
    1682:	a5 81       	ldd	r26, Z+5	; 0x05
    1684:	b0 e0       	ldi	r27, 0x00	; 0
    return 0;
}

void WingBar(int8_t l, int8_t r) {
    for (int8_t i=0; i<5; i++) {
        if (i<l)
    1686:	98 17       	cp	r25, r24
    1688:	34 f4       	brge	.+12     	; 0x1696 <WingBar+0x1a>
            iLED[WING[L][i]] = dimValue;
    168a:	20 91 0c 38 	lds	r18, 0x380C	; 0x80380c <dimValue>
    168e:	a4 53       	subi	r26, 0x34	; 52
    1690:	b5 4c       	sbci	r27, 0xC5	; 197
    1692:	2c 93       	st	X, r18
    1694:	03 c0       	rjmp	.+6      	; 0x169c <WingBar+0x20>
        else
            iLED[WING[L][i]] = 0;
    1696:	a4 53       	subi	r26, 0x34	; 52
    1698:	b5 4c       	sbci	r27, 0xC5	; 197
    169a:	1c 92       	st	X, r1
        if (i<r)
            iLED[WING[R][i]] = dimValue;
    169c:	a0 81       	ld	r26, Z
    169e:	b0 e0       	ldi	r27, 0x00	; 0
    for (int8_t i=0; i<5; i++) {
        if (i<l)
            iLED[WING[L][i]] = dimValue;
        else
            iLED[WING[L][i]] = 0;
        if (i<r)
    16a0:	96 17       	cp	r25, r22
    16a2:	34 f4       	brge	.+12     	; 0x16b0 <WingBar+0x34>
            iLED[WING[R][i]] = dimValue;
    16a4:	20 91 0c 38 	lds	r18, 0x380C	; 0x80380c <dimValue>
    16a8:	a4 53       	subi	r26, 0x34	; 52
    16aa:	b5 4c       	sbci	r27, 0xC5	; 197
    16ac:	2c 93       	st	X, r18
    16ae:	03 c0       	rjmp	.+6      	; 0x16b6 <WingBar+0x3a>
        else
            iLED[WING[R][i]] = 0;
    16b0:	a4 53       	subi	r26, 0x34	; 52
    16b2:	b5 4c       	sbci	r27, 0xC5	; 197
    16b4:	1c 92       	st	X, r1
    16b6:	9f 5f       	subi	r25, 0xFF	; 255
    16b8:	31 96       	adiw	r30, 0x01	; 1
    }
    return 0;
}

void WingBar(int8_t l, int8_t r) {
    for (int8_t i=0; i<5; i++) {
    16ba:	95 30       	cpi	r25, 0x05	; 5
    16bc:	11 f7       	brne	.-60     	; 0x1682 <WingBar+0x6>
        if (i<r)
            iLED[WING[R][i]] = dimValue;
        else
            iLED[WING[R][i]] = 0;
    }
}
    16be:	08 95       	ret

000016c0 <SetBothEyes>:

void SetBothEyes(uint8_t r, uint8_t g) {
    for (uint8_t i=0; i<2; i++) {
        iLED[EYE[R][i]] = r;
    16c0:	a2 ef       	ldi	r26, 0xF2	; 242
    16c2:	bf eb       	ldi	r27, 0xBF	; 191
    16c4:	ec 91       	ld	r30, X
    16c6:	f0 e0       	ldi	r31, 0x00	; 0
    16c8:	e4 53       	subi	r30, 0x34	; 52
    16ca:	f5 4c       	sbci	r31, 0xC5	; 197
    16cc:	80 83       	st	Z, r24
        iLED[EYE[G][i]] = g;
    16ce:	12 96       	adiw	r26, 0x02	; 2
    16d0:	ec 91       	ld	r30, X
    16d2:	12 97       	sbiw	r26, 0x02	; 2
    16d4:	f0 e0       	ldi	r31, 0x00	; 0
    16d6:	e4 53       	subi	r30, 0x34	; 52
    16d8:	f5 4c       	sbci	r31, 0xC5	; 197
    16da:	60 83       	st	Z, r22
    }
}

void SetBothEyes(uint8_t r, uint8_t g) {
    for (uint8_t i=0; i<2; i++) {
        iLED[EYE[R][i]] = r;
    16dc:	11 96       	adiw	r26, 0x01	; 1
    16de:	ec 91       	ld	r30, X
    16e0:	11 97       	sbiw	r26, 0x01	; 1
    16e2:	f0 e0       	ldi	r31, 0x00	; 0
    16e4:	e4 53       	subi	r30, 0x34	; 52
    16e6:	f5 4c       	sbci	r31, 0xC5	; 197
    16e8:	80 83       	st	Z, r24
        iLED[EYE[G][i]] = g;
    16ea:	13 96       	adiw	r26, 0x03	; 3
    16ec:	ec 91       	ld	r30, X
    16ee:	f0 e0       	ldi	r31, 0x00	; 0
    16f0:	e4 53       	subi	r30, 0x34	; 52
    16f2:	f5 4c       	sbci	r31, 0xC5	; 197
    16f4:	60 83       	st	Z, r22
    16f6:	08 95       	ret

000016f8 <GenerateBlinks>:
    }
}

void GenerateBlinks(){
    16f8:	1f 93       	push	r17
    16fa:	cf 93       	push	r28
    16fc:	df 93       	push	r29
    used by the games, the other LEDs can be used by setting 
    effect (or be set directly)
    */

    //Activate HCKR & BADGER leds based on the state-bits
    if (gameNow == TEXT) {
    16fe:	80 91 3e 38 	lds	r24, 0x383E	; 0x80383e <gameNow>
    1702:	88 23       	and	r24, r24
    1704:	29 f0       	breq	.+10     	; 0x1710 <GenerateBlinks+0x18>
                iLED[HCKR[R][i]] = dimValue;
            }
        }
    }

    if (CheckState(GEM_STATE)) {
    1706:	80 e4       	ldi	r24, 0x40	; 64
    1708:	e0 de       	rcall	.-576    	; 0x14ca <CheckState>
    170a:	81 11       	cpse	r24, r1
    170c:	24 c0       	rjmp	.+72     	; 0x1756 <GenerateBlinks+0x5e>
    170e:	50 c0       	rjmp	.+160    	; 0x17b0 <GenerateBlinks+0xb8>
    1710:	c6 ef       	ldi	r28, 0xF6	; 246
    1712:	df eb       	ldi	r29, 0xBF	; 191
    used by the games, the other LEDs can be used by setting 
    effect (or be set directly)
    */

    //Activate HCKR & BADGER leds based on the state-bits
    if (gameNow == TEXT) {
    1714:	1a e7       	ldi	r17, 0x7A	; 122
        for (uint8_t i=0;i<6;i++) {
            if(CheckState(HACKER_STATES + i)) {
    1716:	81 2f       	mov	r24, r17
    1718:	d8 de       	rcall	.-592    	; 0x14ca <CheckState>
                iLED[HCKR[G][i]] = dimValue;
    171a:	ee 81       	ldd	r30, Y+6	; 0x06
    171c:	f0 e0       	ldi	r31, 0x00	; 0
    */

    //Activate HCKR & BADGER leds based on the state-bits
    if (gameNow == TEXT) {
        for (uint8_t i=0;i<6;i++) {
            if(CheckState(HACKER_STATES + i)) {
    171e:	88 23       	and	r24, r24
    1720:	59 f0       	breq	.+22     	; 0x1738 <GenerateBlinks+0x40>
                iLED[HCKR[G][i]] = dimValue;
    1722:	80 91 0c 38 	lds	r24, 0x380C	; 0x80380c <dimValue>
    1726:	e4 53       	subi	r30, 0x34	; 52
    1728:	f5 4c       	sbci	r31, 0xC5	; 197
    172a:	80 83       	st	Z, r24
                iLED[HCKR[R][i]] = 0;
    172c:	e8 81       	ld	r30, Y
    172e:	f0 e0       	ldi	r31, 0x00	; 0
    1730:	e4 53       	subi	r30, 0x34	; 52
    1732:	f5 4c       	sbci	r31, 0xC5	; 197
    1734:	10 82       	st	Z, r1
    1736:	0a c0       	rjmp	.+20     	; 0x174c <GenerateBlinks+0x54>
            } else {
                iLED[HCKR[G][i]] = 0;
    1738:	e4 53       	subi	r30, 0x34	; 52
    173a:	f5 4c       	sbci	r31, 0xC5	; 197
    173c:	10 82       	st	Z, r1
                iLED[HCKR[R][i]] = dimValue;
    173e:	e8 81       	ld	r30, Y
    1740:	f0 e0       	ldi	r31, 0x00	; 0
    1742:	80 91 0c 38 	lds	r24, 0x380C	; 0x80380c <dimValue>
    1746:	e4 53       	subi	r30, 0x34	; 52
    1748:	f5 4c       	sbci	r31, 0xC5	; 197
    174a:	80 83       	st	Z, r24
    174c:	1f 5f       	subi	r17, 0xFF	; 255
    174e:	21 96       	adiw	r28, 0x01	; 1
    effect (or be set directly)
    */

    //Activate HCKR & BADGER leds based on the state-bits
    if (gameNow == TEXT) {
        for (uint8_t i=0;i<6;i++) {
    1750:	10 38       	cpi	r17, 0x80	; 128
    1752:	09 f7       	brne	.-62     	; 0x1716 <GenerateBlinks+0x1e>
    1754:	d8 cf       	rjmp	.-80     	; 0x1706 <GenerateBlinks+0xe>
            }
        }
    }

    if (CheckState(GEM_STATE)) {
        if ( HeartCount == 1 || HeartCount == 3 || HeartCount == 5 )
    1756:	80 91 5d 38 	lds	r24, 0x385D	; 0x80385d <HeartCount>
    175a:	98 2f       	mov	r25, r24
    175c:	9d 7f       	andi	r25, 0xFD	; 253
    175e:	e0 91 e5 bf 	lds	r30, 0xBFE5	; 0x80bfe5 <__bss_end+0x84c9>
            iLED[BADGER] = dimValue>>1 ;
    1762:	f0 e0       	ldi	r31, 0x00	; 0
            }
        }
    }

    if (CheckState(GEM_STATE)) {
        if ( HeartCount == 1 || HeartCount == 3 || HeartCount == 5 )
    1764:	91 30       	cpi	r25, 0x01	; 1
    1766:	11 f0       	breq	.+4      	; 0x176c <GenerateBlinks+0x74>
    1768:	85 30       	cpi	r24, 0x05	; 5
    176a:	21 f4       	brne	.+8      	; 0x1774 <GenerateBlinks+0x7c>
            iLED[BADGER] = dimValue>>1 ;
    176c:	90 91 0c 38 	lds	r25, 0x380C	; 0x80380c <dimValue>
    1770:	96 95       	lsr	r25
    1772:	06 c0       	rjmp	.+12     	; 0x1780 <GenerateBlinks+0x88>
        else if ( HeartCount == 2 || HeartCount == 4 )
    1774:	82 30       	cpi	r24, 0x02	; 2
    1776:	11 f0       	breq	.+4      	; 0x177c <GenerateBlinks+0x84>
    1778:	84 30       	cpi	r24, 0x04	; 4
    177a:	31 f4       	brne	.+12     	; 0x1788 <GenerateBlinks+0x90>
            iLED[BADGER] = dimValue;
    177c:	90 91 0c 38 	lds	r25, 0x380C	; 0x80380c <dimValue>
    1780:	e4 53       	subi	r30, 0x34	; 52
    1782:	f5 4c       	sbci	r31, 0xC5	; 197
    1784:	90 83       	st	Z, r25
    1786:	0c c0       	rjmp	.+24     	; 0x17a0 <GenerateBlinks+0xa8>
        else if ( HeartCount == 0 || HeartCount == 6 )
    1788:	88 23       	and	r24, r24
    178a:	11 f0       	breq	.+4      	; 0x1790 <GenerateBlinks+0x98>
    178c:	86 30       	cpi	r24, 0x06	; 6
    178e:	29 f4       	brne	.+10     	; 0x179a <GenerateBlinks+0xa2>
            iLED[BADGER] = dimValue>>2;
    1790:	90 91 0c 38 	lds	r25, 0x380C	; 0x80380c <dimValue>
    1794:	96 95       	lsr	r25
    1796:	96 95       	lsr	r25
    1798:	f3 cf       	rjmp	.-26     	; 0x1780 <GenerateBlinks+0x88>
        else
            iLED[BADGER] = 0;
    179a:	e4 53       	subi	r30, 0x34	; 52
    179c:	f5 4c       	sbci	r31, 0xC5	; 197
    179e:	10 82       	st	Z, r1
        if (HeartCount<32)
    17a0:	80 32       	cpi	r24, 0x20	; 32
    17a2:	20 f4       	brcc	.+8      	; 0x17ac <GenerateBlinks+0xb4>
            HeartCount++;
    17a4:	8f 5f       	subi	r24, 0xFF	; 255
    17a6:	80 93 5d 38 	sts	0x385D, r24	; 0x80385d <HeartCount>
    17aa:	02 c0       	rjmp	.+4      	; 0x17b0 <GenerateBlinks+0xb8>
        else
            HeartCount = 0;
    17ac:	10 92 5d 38 	sts	0x385D, r1	; 0x80385d <HeartCount>
    }

    //LEDs effects for all games
    // Keep a counter for dynamic effects
    LedCount++;
    17b0:	90 91 5c 38 	lds	r25, 0x385C	; 0x80385c <LedCount>
    17b4:	9f 5f       	subi	r25, 0xFF	; 255
    17b6:	90 93 5c 38 	sts	0x385C, r25	; 0x80385c <LedCount>

    switch (effect&0x1f) {
    17ba:	20 91 3c 38 	lds	r18, 0x383C	; 0x80383c <effect>
    17be:	30 91 3d 38 	lds	r19, 0x383D	; 0x80383d <effect+0x1>
    17c2:	2f 71       	andi	r18, 0x1F	; 31
    17c4:	33 27       	eor	r19, r19
    17c6:	21 30       	cpi	r18, 0x01	; 1
    17c8:	31 05       	cpc	r19, r1
    17ca:	99 f1       	breq	.+102    	; 0x1832 <GenerateBlinks+0x13a>
    17cc:	20 f0       	brcs	.+8      	; 0x17d6 <GenerateBlinks+0xde>
    17ce:	22 30       	cpi	r18, 0x02	; 2
    17d0:	31 05       	cpc	r19, r1
    17d2:	b1 f1       	breq	.+108    	; 0x1840 <GenerateBlinks+0x148>
    17d4:	46 c0       	rjmp	.+140    	; 0x1862 <GenerateBlinks+0x16a>
        // All LEDs off
        case 0:
            WingBar(0,0);
    17d6:	60 e0       	ldi	r22, 0x00	; 0
    17d8:	80 e0       	ldi	r24, 0x00	; 0
    17da:	50 df       	rcall	.-352    	; 0x167c <WingBar>
            for (uint8_t i=0; i<2; i++) {
                iLED[EYE[R][i]] = 0;
    17dc:	e0 91 f2 bf 	lds	r30, 0xBFF2	; 0x80bff2 <__bss_end+0x84d6>
    17e0:	f0 e0       	ldi	r31, 0x00	; 0
    17e2:	e4 53       	subi	r30, 0x34	; 52
    17e4:	f5 4c       	sbci	r31, 0xC5	; 197
    17e6:	10 82       	st	Z, r1
                iLED[EYE[G][i]] = 0; 
    17e8:	e0 91 f4 bf 	lds	r30, 0xBFF4	; 0x80bff4 <__bss_end+0x84d8>
    17ec:	f0 e0       	ldi	r31, 0x00	; 0
    17ee:	e4 53       	subi	r30, 0x34	; 52
    17f0:	f5 4c       	sbci	r31, 0xC5	; 197
    17f2:	10 82       	st	Z, r1
                iLED[SCARAB[i]] = 0;
    17f4:	e0 91 e6 bf 	lds	r30, 0xBFE6	; 0x80bfe6 <__bss_end+0x84ca>
    17f8:	f0 e0       	ldi	r31, 0x00	; 0
    17fa:	e4 53       	subi	r30, 0x34	; 52
    17fc:	f5 4c       	sbci	r31, 0xC5	; 197
    17fe:	10 82       	st	Z, r1
    switch (effect&0x1f) {
        // All LEDs off
        case 0:
            WingBar(0,0);
            for (uint8_t i=0; i<2; i++) {
                iLED[EYE[R][i]] = 0;
    1800:	e0 91 f3 bf 	lds	r30, 0xBFF3	; 0x80bff3 <__bss_end+0x84d7>
    1804:	f0 e0       	ldi	r31, 0x00	; 0
    1806:	e4 53       	subi	r30, 0x34	; 52
    1808:	f5 4c       	sbci	r31, 0xC5	; 197
    180a:	10 82       	st	Z, r1
                iLED[EYE[G][i]] = 0; 
    180c:	e0 91 f5 bf 	lds	r30, 0xBFF5	; 0x80bff5 <__bss_end+0x84d9>
    1810:	f0 e0       	ldi	r31, 0x00	; 0
    1812:	e4 53       	subi	r30, 0x34	; 52
    1814:	f5 4c       	sbci	r31, 0xC5	; 197
    1816:	10 82       	st	Z, r1
                iLED[SCARAB[i]] = 0;
    1818:	e0 91 e7 bf 	lds	r30, 0xBFE7	; 0x80bfe7 <__bss_end+0x84cb>
    181c:	f0 e0       	ldi	r31, 0x00	; 0
    181e:	e4 53       	subi	r30, 0x34	; 52
    1820:	f5 4c       	sbci	r31, 0xC5	; 197
    1822:	10 82       	st	Z, r1
            }
            iLED[CAT] = 0;
    1824:	e0 91 e4 bf 	lds	r30, 0xBFE4	; 0x80bfe4 <__bss_end+0x84c8>
    1828:	f0 e0       	ldi	r31, 0x00	; 0
    182a:	e4 53       	subi	r30, 0x34	; 52
    182c:	f5 4c       	sbci	r31, 0xC5	; 197
    182e:	10 82       	st	Z, r1
            break;
    1830:	18 c0       	rjmp	.+48     	; 0x1862 <GenerateBlinks+0x16a>

        //'flashing red eyes',       # 1 can be used when a bad answer is given
        case 1:
            SetBothEyes((LedCount & 1 ? dimValue : 0),0);
    1832:	89 2f       	mov	r24, r25
    1834:	81 70       	andi	r24, 0x01	; 1
    1836:	90 fd       	sbrc	r25, 0
    1838:	80 91 0c 38 	lds	r24, 0x380C	; 0x80380c <dimValue>
    183c:	60 e0       	ldi	r22, 0x00	; 0
    183e:	0d c0       	rjmp	.+26     	; 0x185a <GenerateBlinks+0x162>
    1840:	69 2f       	mov	r22, r25
    1842:	70 e0       	ldi	r23, 0x00	; 0
            break;

        //'flashing green eyes',     # 2 can be used when a good answer is given
        case 2:
            SetBothEyes(0, 0x1f + (((LedCount & 0x08) ? ((LedCount&0x07)^0x07) : (LedCount&0x07))<<5));
    1844:	93 ff       	sbrs	r25, 3
    1846:	02 c0       	rjmp	.+4      	; 0x184c <GenerateBlinks+0x154>
    1848:	60 95       	com	r22
    184a:	70 95       	com	r23
    184c:	85 e0       	ldi	r24, 0x05	; 5
    184e:	66 0f       	add	r22, r22
    1850:	77 1f       	adc	r23, r23
    1852:	8a 95       	dec	r24
    1854:	e1 f7       	brne	.-8      	; 0x184e <GenerateBlinks+0x156>
    1856:	61 5e       	subi	r22, 0xE1	; 225
    1858:	80 e0       	ldi	r24, 0x00	; 0
        // No LED action, game will do it's own LED magic
        case 31:
        default:
            break;
    }
}
    185a:	df 91       	pop	r29
    185c:	cf 91       	pop	r28
            SetBothEyes((LedCount & 1 ? dimValue : 0),0);
            break;

        //'flashing green eyes',     # 2 can be used when a good answer is given
        case 2:
            SetBothEyes(0, 0x1f + (((LedCount & 0x08) ? ((LedCount&0x07)^0x07) : (LedCount&0x07))<<5));
    185e:	1f 91       	pop	r17
    1860:	2f cf       	rjmp	.-418    	; 0x16c0 <SetBothEyes>
        // No LED action, game will do it's own LED magic
        case 31:
        default:
            break;
    }
}
    1862:	df 91       	pop	r29
    1864:	cf 91       	pop	r28
    1866:	1f 91       	pop	r17
    1868:	08 95       	ret

0000186a <GenerateAudio>:


uint8_t GenerateAudio(){
    186a:	0f 93       	push	r16
    186c:	1f 93       	push	r17
    186e:	cf 93       	push	r28

    if (auIn[AULEN>>1] < HPLVL) {
    1870:	80 91 c8 3a 	lds	r24, 0x3AC8	; 0x803ac8 <auIn+0x4>
    1874:	89 31       	cpi	r24, 0x19	; 25
    1876:	08 f0       	brcs	.+2      	; 0x187a <GenerateAudio+0x10>
    1878:	27 c1       	rjmp	.+590    	; 0x1ac8 <GenerateAudio+0x25e>

        detHdPh = 1;
    187a:	c1 e0       	ldi	r28, 0x01	; 1
    187c:	c0 93 c1 3a 	sts	0x3AC1, r28	; 0x803ac1 <detHdPh>

        //Audio for text adventure
        if ((effect&0xff00)==0) {
    1880:	80 91 3c 38 	lds	r24, 0x383C	; 0x80383c <effect>
    1884:	90 91 3d 38 	lds	r25, 0x383D	; 0x80383d <effect+0x1>
    1888:	88 27       	eor	r24, r24
    188a:	89 2b       	or	r24, r25
    188c:	09 f0       	breq	.+2      	; 0x1890 <GenerateAudio+0x26>
    188e:	bf c0       	rjmp	.+382    	; 0x1a0e <GenerateAudio+0x1a4>

            //Silence
            if ((effect&0xE0)==0){
    1890:	80 91 3c 38 	lds	r24, 0x383C	; 0x80383c <effect>
    1894:	90 91 3d 38 	lds	r25, 0x383D	; 0x80383d <effect+0x1>
    1898:	80 7e       	andi	r24, 0xE0	; 224
    189a:	99 27       	eor	r25, r25
    189c:	89 2b       	or	r24, r25
    189e:	31 f4       	brne	.+12     	; 0x18ac <GenerateAudio+0x42>
                auRepAddr = &zero;
    18a0:	8a e3       	ldi	r24, 0x3A	; 58
    18a2:	98 e3       	ldi	r25, 0x38	; 56
    18a4:	80 93 03 38 	sts	0x3803, r24	; 0x803803 <auRepAddr>
    18a8:	90 93 04 38 	sts	0x3804, r25	; 0x803804 <auRepAddr+0x1>
            }

            //Bad (buzzer)
            if ((effect&0xE0)==32){
    18ac:	80 91 3c 38 	lds	r24, 0x383C	; 0x80383c <effect>
    18b0:	90 91 3d 38 	lds	r25, 0x383D	; 0x80383d <effect+0x1>
    18b4:	80 7e       	andi	r24, 0xE0	; 224
    18b6:	99 27       	eor	r25, r25
    18b8:	80 97       	sbiw	r24, 0x20	; 32
    18ba:	09 f0       	breq	.+2      	; 0x18be <GenerateAudio+0x54>
    18bc:	59 c0       	rjmp	.+178    	; 0x1970 <GenerateAudio+0x106>
                static uint8_t auBuffer[17] = {1, 255, 128, 128, 192, 255, 64, 255, 192, 128, 64, 1, 192, 1, 64, 128, 0}; 
                static uint8_t loudness, duration, start;
                floatSpeed(1, 0x2000, 0x2200);
    18be:	40 e0       	ldi	r20, 0x00	; 0
    18c0:	52 e2       	ldi	r21, 0x22	; 34
    18c2:	60 e0       	ldi	r22, 0x00	; 0
    18c4:	70 e2       	ldi	r23, 0x20	; 32
    18c6:	81 e0       	ldi	r24, 0x01	; 1
    18c8:	f1 dc       	rcall	.-1566   	; 0x12ac <floatSpeed>
                auBuffer[2] = floatAround(0x80, 5, 0x01, 0x00);
    18ca:	20 e0       	ldi	r18, 0x00	; 0
    18cc:	41 e0       	ldi	r20, 0x01	; 1
    18ce:	65 e0       	ldi	r22, 0x05	; 5
    18d0:	80 e8       	ldi	r24, 0x80	; 128
    18d2:	1e dd       	rcall	.-1476   	; 0x1310 <floatAround>
    18d4:	80 93 13 38 	sts	0x3813, r24	; 0x803813 <auBuffer.4005+0x2>

                if (buttonMark) {
    18d8:	80 91 44 38 	lds	r24, 0x3844	; 0x803844 <buttonMark>
    18dc:	88 23       	and	r24, r24
    18de:	09 f4       	brne	.+2      	; 0x18e2 <GenerateAudio+0x78>
    18e0:	47 c0       	rjmp	.+142    	; 0x1970 <GenerateAudio+0x106>
                    if (start == 0) {
    18e2:	80 91 5a 38 	lds	r24, 0x385A	; 0x80385a <start.4008>
    18e6:	81 11       	cpse	r24, r1
    18e8:	15 c0       	rjmp	.+42     	; 0x1914 <GenerateAudio+0xaa>
                        duration = 4;
    18ea:	84 e0       	ldi	r24, 0x04	; 4
    18ec:	80 93 59 38 	sts	0x3859, r24	; 0x803859 <duration.4007>
                        loudness = 0xff;
    18f0:	8f ef       	ldi	r24, 0xFF	; 255
    18f2:	80 93 58 38 	sts	0x3858, r24	; 0x803858 <loudness.4006>
                        TCB1_CCMP = 0x2000;
    18f6:	80 e0       	ldi	r24, 0x00	; 0
    18f8:	90 e2       	ldi	r25, 0x20	; 32
    18fa:	80 93 5c 0a 	sts	0x0A5C, r24	; 0x800a5c <__TEXT_REGION_LENGTH__+0x700a5c>
    18fe:	90 93 5d 0a 	sts	0x0A5D, r25	; 0x800a5d <__TEXT_REGION_LENGTH__+0x700a5d>
                        auRepAddr = &auBuffer[0];
    1902:	81 e1       	ldi	r24, 0x11	; 17
    1904:	98 e3       	ldi	r25, 0x38	; 56
    1906:	80 93 03 38 	sts	0x3803, r24	; 0x803803 <auRepAddr>
    190a:	90 93 04 38 	sts	0x3804, r25	; 0x803804 <auRepAddr+0x1>
                        start = 1;
    190e:	81 e0       	ldi	r24, 0x01	; 1
    1910:	80 93 5a 38 	sts	0x385A, r24	; 0x80385a <start.4008>
                    }

                    if (loudness) {
    1914:	80 91 58 38 	lds	r24, 0x3858	; 0x803858 <loudness.4006>
    1918:	88 23       	and	r24, r24
    191a:	69 f0       	breq	.+26     	; 0x1936 <GenerateAudio+0xcc>
                        auVolume = loudness;
    191c:	80 93 b8 3a 	sts	0x3AB8, r24	; 0x803ab8 <auVolume>
                        if (duration) duration--; else loudness >>= 1;
    1920:	90 91 59 38 	lds	r25, 0x3859	; 0x803859 <duration.4007>
    1924:	99 23       	and	r25, r25
    1926:	21 f0       	breq	.+8      	; 0x1930 <GenerateAudio+0xc6>
    1928:	91 50       	subi	r25, 0x01	; 1
    192a:	90 93 59 38 	sts	0x3859, r25	; 0x803859 <duration.4007>
    192e:	03 c0       	rjmp	.+6      	; 0x1936 <GenerateAudio+0xcc>
    1930:	86 95       	lsr	r24
    1932:	80 93 58 38 	sts	0x3858, r24	; 0x803858 <loudness.4006>
                    } 

                    if (loudness == 0) {
    1936:	80 91 58 38 	lds	r24, 0x3858	; 0x803858 <loudness.4006>
    193a:	81 11       	cpse	r24, r1
    193c:	19 c0       	rjmp	.+50     	; 0x1970 <GenerateAudio+0x106>
                        effect &= 0x1f;
    193e:	80 91 3c 38 	lds	r24, 0x383C	; 0x80383c <effect>
    1942:	90 91 3d 38 	lds	r25, 0x383D	; 0x80383d <effect+0x1>
    1946:	8f 71       	andi	r24, 0x1F	; 31
    1948:	99 27       	eor	r25, r25
    194a:	80 93 3c 38 	sts	0x383C, r24	; 0x80383c <effect>
    194e:	90 93 3d 38 	sts	0x383D, r25	; 0x80383d <effect+0x1>
                        auRepAddr = &zero;
    1952:	8a e3       	ldi	r24, 0x3A	; 58
    1954:	98 e3       	ldi	r25, 0x38	; 56
    1956:	80 93 03 38 	sts	0x3803, r24	; 0x803803 <auRepAddr>
    195a:	90 93 04 38 	sts	0x3804, r25	; 0x803804 <auRepAddr+0x1>
                        auSmpAddr = &zero;
    195e:	80 93 05 38 	sts	0x3805, r24	; 0x803805 <auSmpAddr>
    1962:	90 93 06 38 	sts	0x3806, r25	; 0x803806 <auSmpAddr+0x1>
                        auVolume = 0xff;
    1966:	8f ef       	ldi	r24, 0xFF	; 255
    1968:	80 93 b8 3a 	sts	0x3AB8, r24	; 0x803ab8 <auVolume>
                        start = 0;
    196c:	10 92 5a 38 	sts	0x385A, r1	; 0x80385a <start.4008>
                    }
                }
            }

            //Good (bell)
            if ((effect&0xE0)==64){
    1970:	80 91 3c 38 	lds	r24, 0x383C	; 0x80383c <effect>
    1974:	90 91 3d 38 	lds	r25, 0x383D	; 0x80383d <effect+0x1>
                //auBuffer = 
            }

            //Rain storm with whistling wind
            if ((effect&0xE0)==96){
    1978:	80 91 3c 38 	lds	r24, 0x383C	; 0x80383c <effect>
    197c:	90 91 3d 38 	lds	r25, 0x383D	; 0x80383d <effect+0x1>
    1980:	80 7e       	andi	r24, 0xE0	; 224
    1982:	99 27       	eor	r25, r25
    1984:	80 36       	cpi	r24, 0x60	; 96
    1986:	91 05       	cpc	r25, r1
    1988:	a9 f5       	brne	.+106    	; 0x19f4 <GenerateAudio+0x18a>
                static uint8_t auBuffer[7];
                auBuffer[6]= 0;        
    198a:	10 92 57 38 	sts	0x3857, r1	; 0x803857 <auBuffer.4009+0x6>
                auRepAddr = &auBuffer[0];
    198e:	81 e5       	ldi	r24, 0x51	; 81
    1990:	98 e3       	ldi	r25, 0x38	; 56
    1992:	80 93 03 38 	sts	0x3803, r24	; 0x803803 <auRepAddr>
    1996:	90 93 04 38 	sts	0x3804, r25	; 0x803804 <auRepAddr+0x1>
    199a:	8c 01       	movw	r16, r24

                //Noise is to be generated fast, outside of buttonMark loop
                for (uint8_t x=1; x<6; ++x){
    199c:	c1 e0       	ldi	r28, 0x01	; 1
                    if ((x>0) && (x!=3)) auBuffer[x] = floatAround(0x80, 5, 0x01, 0x00);
    199e:	c3 30       	cpi	r28, 0x03	; 3
    19a0:	39 f0       	breq	.+14     	; 0x19b0 <GenerateAudio+0x146>
    19a2:	20 e0       	ldi	r18, 0x00	; 0
    19a4:	41 e0       	ldi	r20, 0x01	; 1
    19a6:	65 e0       	ldi	r22, 0x05	; 5
    19a8:	80 e8       	ldi	r24, 0x80	; 128
    19aa:	b2 dc       	rcall	.-1692   	; 0x1310 <floatAround>
    19ac:	f8 01       	movw	r30, r16
    19ae:	81 83       	std	Z+1, r24	; 0x01
                static uint8_t auBuffer[7];
                auBuffer[6]= 0;        
                auRepAddr = &auBuffer[0];

                //Noise is to be generated fast, outside of buttonMark loop
                for (uint8_t x=1; x<6; ++x){
    19b0:	cf 5f       	subi	r28, 0xFF	; 255
    19b2:	0f 5f       	subi	r16, 0xFF	; 255
    19b4:	1f 4f       	sbci	r17, 0xFF	; 255
    19b6:	c6 30       	cpi	r28, 0x06	; 6
    19b8:	91 f7       	brne	.-28     	; 0x199e <GenerateAudio+0x134>
                    if ((x>0) && (x!=3)) auBuffer[x] = floatAround(0x80, 5, 0x01, 0x00);
                }

                if (buttonMark){
    19ba:	80 91 44 38 	lds	r24, 0x3844	; 0x803844 <buttonMark>
    19be:	88 23       	and	r24, r24
    19c0:	c9 f0       	breq	.+50     	; 0x19f4 <GenerateAudio+0x18a>
                    //"Floating" speed for howl (and noise, but that's hardly audible)
                    floatSpeed(5, 0x0280, 0x0400);
    19c2:	40 e0       	ldi	r20, 0x00	; 0
    19c4:	54 e0       	ldi	r21, 0x04	; 4
    19c6:	60 e8       	ldi	r22, 0x80	; 128
    19c8:	72 e0       	ldi	r23, 0x02	; 2
    19ca:	85 e0       	ldi	r24, 0x05	; 5
    19cc:	6f dc       	rcall	.-1826   	; 0x12ac <floatSpeed>
            
                    //"Floating" volume and wind howl during 8 bit rainstorm needs some randomness
                    auVolume = floatAround(auVolume, 2, 0x10, 0xA0);
    19ce:	80 91 b8 3a 	lds	r24, 0x3AB8	; 0x803ab8 <auVolume>
    19d2:	20 ea       	ldi	r18, 0xA0	; 160
    19d4:	40 e1       	ldi	r20, 0x10	; 16
    19d6:	62 e0       	ldi	r22, 0x02	; 2
    19d8:	9b dc       	rcall	.-1738   	; 0x1310 <floatAround>
    19da:	80 93 b8 3a 	sts	0x3AB8, r24	; 0x803ab8 <auVolume>
                    auBuffer[0] = floatAround(auBuffer[0], 2, 0x70, 0x90);
    19de:	20 e9       	ldi	r18, 0x90	; 144
    19e0:	40 e7       	ldi	r20, 0x70	; 112
    19e2:	62 e0       	ldi	r22, 0x02	; 2
    19e4:	80 91 51 38 	lds	r24, 0x3851	; 0x803851 <auBuffer.4009>
    19e8:	93 dc       	rcall	.-1754   	; 0x1310 <floatAround>
    19ea:	80 93 51 38 	sts	0x3851, r24	; 0x803851 <auBuffer.4009>
                    auBuffer[3] = 0xFF-auBuffer[0];  //Inverse value of wind[0] produces a whistle
    19ee:	80 95       	com	r24
    19f0:	80 93 54 38 	sts	0x3854, r24	; 0x803854 <auBuffer.4009+0x3>
                }
            }

            //Footsteps
            if ((effect&0xE0)==128){
    19f4:	80 91 3c 38 	lds	r24, 0x383C	; 0x80383c <effect>
    19f8:	90 91 3d 38 	lds	r25, 0x383D	; 0x80383d <effect+0x1>

            }

            //
            if ((effect&0xE0)==160){
    19fc:	80 91 3c 38 	lds	r24, 0x383C	; 0x80383c <effect>
    1a00:	90 91 3d 38 	lds	r25, 0x383D	; 0x80383d <effect+0x1>

            }

            //
            if ((effect&0xE0)==192){
    1a04:	80 91 3c 38 	lds	r24, 0x383C	; 0x80383c <effect>
    1a08:	90 91 3d 38 	lds	r25, 0x383D	; 0x80383d <effect+0x1>
    1a0c:	5f c0       	rjmp	.+190    	; 0x1acc <GenerateAudio+0x262>
            }

            //
            else {
            }
        } else if ((effect&0xff00)==0x0100) {
    1a0e:	80 91 3c 38 	lds	r24, 0x383C	; 0x80383c <effect>
    1a12:	90 91 3d 38 	lds	r25, 0x383D	; 0x80383d <effect+0x1>
    1a16:	88 27       	eor	r24, r24
    1a18:	81 15       	cp	r24, r1
    1a1a:	91 40       	sbci	r25, 0x01	; 1
    1a1c:	09 f0       	breq	.+2      	; 0x1a20 <GenerateAudio+0x1b6>
    1a1e:	56 c0       	rjmp	.+172    	; 0x1acc <GenerateAudio+0x262>
            if ((effect&0xE0) <= 0x90) {
    1a20:	80 91 3c 38 	lds	r24, 0x383C	; 0x80383c <effect>
    1a24:	90 91 3d 38 	lds	r25, 0x383D	; 0x80383d <effect+0x1>
    1a28:	80 7e       	andi	r24, 0xE0	; 224
    1a2a:	99 27       	eor	r25, r25
    1a2c:	81 39       	cpi	r24, 0x91	; 145
    1a2e:	91 05       	cpc	r25, r1
    1a30:	08 f0       	brcs	.+2      	; 0x1a34 <GenerateAudio+0x1ca>
    1a32:	4c c0       	rjmp	.+152    	; 0x1acc <GenerateAudio+0x262>
                
                static uint8_t auBuffer[3] = {255, 1, 0};
                static uint8_t duration, start;
                uint16_t freq = ((effect&0xE0)+1)<<6;
    1a34:	60 91 3c 38 	lds	r22, 0x383C	; 0x80383c <effect>
    1a38:	70 91 3d 38 	lds	r23, 0x383D	; 0x80383d <effect+0x1>
    1a3c:	60 7e       	andi	r22, 0xE0	; 224
    1a3e:	77 27       	eor	r23, r23
    1a40:	6f 5f       	subi	r22, 0xFF	; 255
    1a42:	7f 4f       	sbci	r23, 0xFF	; 255
    1a44:	86 e0       	ldi	r24, 0x06	; 6
    1a46:	66 0f       	add	r22, r22
    1a48:	77 1f       	adc	r23, r23
    1a4a:	8a 95       	dec	r24
                floatSpeed(1, freq+0x0200, freq+0x0300);
    1a4c:	e1 f7       	brne	.-8      	; 0x1a46 <GenerateAudio+0x1dc>
    1a4e:	ab 01       	movw	r20, r22
    1a50:	5d 5f       	subi	r21, 0xFD	; 253
    1a52:	7e 5f       	subi	r23, 0xFE	; 254
    1a54:	81 e0       	ldi	r24, 0x01	; 1
    1a56:	2a dc       	rcall	.-1964   	; 0x12ac <floatSpeed>
                //auBuffer[] = floatAround(0x80, 5, 0x01, 0x00);

                if (buttonMark) {
    1a58:	80 91 44 38 	lds	r24, 0x3844	; 0x803844 <buttonMark>
    1a5c:	88 23       	and	r24, r24
    1a5e:	b1 f1       	breq	.+108    	; 0x1acc <GenerateAudio+0x262>
                    if (start == 0) {
    1a60:	80 91 50 38 	lds	r24, 0x3850	; 0x803850 <start.4016>
    1a64:	81 11       	cpse	r24, r1
    1a66:	0e c0       	rjmp	.+28     	; 0x1a84 <GenerateAudio+0x21a>
                        duration = 3;
    1a68:	83 e0       	ldi	r24, 0x03	; 3
    1a6a:	80 93 4f 38 	sts	0x384F, r24	; 0x80384f <duration.4015>
                        auRepAddr = &auBuffer[0];
    1a6e:	8e e0       	ldi	r24, 0x0E	; 14
    1a70:	98 e3       	ldi	r25, 0x38	; 56
    1a72:	80 93 03 38 	sts	0x3803, r24	; 0x803803 <auRepAddr>
    1a76:	90 93 04 38 	sts	0x3804, r25	; 0x803804 <auRepAddr+0x1>
                        auVolume = 255;
    1a7a:	8f ef       	ldi	r24, 0xFF	; 255
    1a7c:	80 93 b8 3a 	sts	0x3AB8, r24	; 0x803ab8 <auVolume>
                        start = 1;
    1a80:	c0 93 50 38 	sts	0x3850, r28	; 0x803850 <start.4016>
                    }   if (duration == 0) {
    1a84:	80 91 4f 38 	lds	r24, 0x384F	; 0x80384f <duration.4015>
    1a88:	81 11       	cpse	r24, r1
    1a8a:	1a c0       	rjmp	.+52     	; 0x1ac0 <GenerateAudio+0x256>
                        effect &= 0x1f;
    1a8c:	80 91 3c 38 	lds	r24, 0x383C	; 0x80383c <effect>
    1a90:	90 91 3d 38 	lds	r25, 0x383D	; 0x80383d <effect+0x1>
    1a94:	8f 71       	andi	r24, 0x1F	; 31
    1a96:	99 27       	eor	r25, r25
    1a98:	80 93 3c 38 	sts	0x383C, r24	; 0x80383c <effect>
    1a9c:	90 93 3d 38 	sts	0x383D, r25	; 0x80383d <effect+0x1>
                        auRepAddr = &zero;
    1aa0:	8a e3       	ldi	r24, 0x3A	; 58
    1aa2:	98 e3       	ldi	r25, 0x38	; 56
    1aa4:	80 93 03 38 	sts	0x3803, r24	; 0x803803 <auRepAddr>
    1aa8:	90 93 04 38 	sts	0x3804, r25	; 0x803804 <auRepAddr+0x1>
                        auSmpAddr = &zero;
    1aac:	80 93 05 38 	sts	0x3805, r24	; 0x803805 <auSmpAddr>
    1ab0:	90 93 06 38 	sts	0x3806, r25	; 0x803806 <auSmpAddr+0x1>
                        auVolume = 0xff;
    1ab4:	8f ef       	ldi	r24, 0xFF	; 255
    1ab6:	80 93 b8 3a 	sts	0x3AB8, r24	; 0x803ab8 <auVolume>
                        start = 0;
    1aba:	10 92 50 38 	sts	0x3850, r1	; 0x803850 <start.4016>
    1abe:	06 c0       	rjmp	.+12     	; 0x1acc <GenerateAudio+0x262>
                    } else duration--;
    1ac0:	81 50       	subi	r24, 0x01	; 1
    1ac2:	80 93 4f 38 	sts	0x384F, r24	; 0x80384f <duration.4015>
    1ac6:	02 c0       	rjmp	.+4      	; 0x1acc <GenerateAudio+0x262>
                }
            }
        }
    } else {
        detHdPh = 0;
    1ac8:	10 92 c1 3a 	sts	0x3AC1, r1	; 0x803ac1 <detHdPh>
    }
    return buttonMark;
    1acc:	80 91 44 38 	lds	r24, 0x3844	; 0x803844 <buttonMark>
}
    1ad0:	cf 91       	pop	r28
    1ad2:	1f 91       	pop	r17
    1ad4:	0f 91       	pop	r16
    1ad6:	08 95       	ret

00001ad8 <getClock>:

uint16_t getClock() {
    return 60 * minuteMark + (RTC_CNT>>9);
    1ad8:	20 91 45 38 	lds	r18, 0x3845	; 0x803845 <minuteMark>
    1adc:	80 91 48 01 	lds	r24, 0x0148	; 0x800148 <__TEXT_REGION_LENGTH__+0x700148>
    1ae0:	90 91 49 01 	lds	r25, 0x0149	; 0x800149 <__TEXT_REGION_LENGTH__+0x700149>
    1ae4:	89 2f       	mov	r24, r25
    1ae6:	99 27       	eor	r25, r25
    1ae8:	86 95       	lsr	r24
}
    1aea:	3c e3       	ldi	r19, 0x3C	; 60
    1aec:	23 9f       	mul	r18, r19
    1aee:	80 0d       	add	r24, r0
    1af0:	91 1d       	adc	r25, r1
    1af2:	11 24       	eor	r1, r1
    1af4:	08 95       	ret

00001af6 <idleTimeout>:

uint8_t idleTimeout(uint16_t lastActive, uint16_t maxIdle) {
    1af6:	0f 93       	push	r16
    1af8:	1f 93       	push	r17
    1afa:	cf 93       	push	r28
    1afc:	df 93       	push	r29
    1afe:	8c 01       	movw	r16, r24
    1b00:	eb 01       	movw	r28, r22
    uint16_t curClock;

    curClock = getClock();
    1b02:	ea df       	rcall	.-44     	; 0x1ad8 <getClock>
    1b04:	9c 01       	movw	r18, r24
    if (curClock < lastActive)
    1b06:	80 17       	cp	r24, r16
    1b08:	91 07       	cpc	r25, r17
    1b0a:	08 f4       	brcc	.+2      	; 0x1b0e <idleTimeout+0x18>
        curClock += 256 * 60;
    1b0c:	34 5c       	subi	r19, 0xC4	; 196

    return (curClock > (lastActive + maxIdle));
    1b0e:	c0 0f       	add	r28, r16
    1b10:	d1 1f       	adc	r29, r17
    1b12:	81 e0       	ldi	r24, 0x01	; 1
    1b14:	c2 17       	cp	r28, r18
    1b16:	d3 07       	cpc	r29, r19
    1b18:	08 f0       	brcs	.+2      	; 0x1b1c <idleTimeout+0x26>
    1b1a:	80 e0       	ldi	r24, 0x00	; 0
}
    1b1c:	df 91       	pop	r29
    1b1e:	cf 91       	pop	r28
    1b20:	1f 91       	pop	r17
    1b22:	0f 91       	pop	r16
    1b24:	08 95       	ret

00001b26 <SelfTest>:

uint8_t SelfTest(){
    1b26:	df 92       	push	r13
    1b28:	ef 92       	push	r14
    1b2a:	ff 92       	push	r15
    1b2c:	0f 93       	push	r16
    1b2e:	1f 93       	push	r17
    1b30:	cf 93       	push	r28
    1b32:	df 93       	push	r29
    1b34:	00 d0       	rcall	.+0      	; 0x1b36 <SelfTest+0x10>
    1b36:	00 d0       	rcall	.+0      	; 0x1b38 <SelfTest+0x12>
    1b38:	cd b7       	in	r28, 0x3d	; 61
    1b3a:	de b7       	in	r29, 0x3e	; 62
    uint8_t tstVal[4] = {0x80, 0};
    1b3c:	19 82       	std	Y+1, r1	; 0x01
    1b3e:	1a 82       	std	Y+2, r1	; 0x02
    1b40:	1b 82       	std	Y+3, r1	; 0x03
    1b42:	1c 82       	std	Y+4, r1	; 0x04
    1b44:	80 e8       	ldi	r24, 0x80	; 128
    1b46:	89 83       	std	Y+1, r24	; 0x01
    1b48:	80 e0       	ldi	r24, 0x00	; 0
    1b4a:	90 e0       	ldi	r25, 0x00	; 0
    //All LEDs on 25%
    for (uint8_t x=0; x<40; ++x) {
        iLED[x]=0x40;
    1b4c:	20 e4       	ldi	r18, 0x40	; 64
    1b4e:	fc 01       	movw	r30, r24
    1b50:	e4 53       	subi	r30, 0x34	; 52
    1b52:	f5 4c       	sbci	r31, 0xC5	; 197
    1b54:	20 83       	st	Z, r18
    1b56:	01 96       	adiw	r24, 0x01	; 1
}

uint8_t SelfTest(){
    uint8_t tstVal[4] = {0x80, 0};
    //All LEDs on 25%
    for (uint8_t x=0; x<40; ++x) {
    1b58:	88 32       	cpi	r24, 0x28	; 40
    1b5a:	91 05       	cpc	r25, r1
    1b5c:	c1 f7       	brne	.-16     	; 0x1b4e <SelfTest+0x28>
    1b5e:	a6 ef       	ldi	r26, 0xF6	; 246
    1b60:	bf eb       	ldi	r27, 0xBF	; 191
        iLED[x]=0x40;
    }

    //Red HCKR all on 100%
    for (uint8_t x=0; x<6; ++x) {
        iLED[HCKR[R][x]] = 0xff;
    1b62:	8f ef       	ldi	r24, 0xFF	; 255
    1b64:	ed 91       	ld	r30, X+
    1b66:	f0 e0       	ldi	r31, 0x00	; 0
    1b68:	e4 53       	subi	r30, 0x34	; 52
    1b6a:	f5 4c       	sbci	r31, 0xC5	; 197
    1b6c:	80 83       	st	Z, r24
    for (uint8_t x=0; x<40; ++x) {
        iLED[x]=0x40;
    }

    //Red HCKR all on 100%
    for (uint8_t x=0; x<6; ++x) {
    1b6e:	2f eb       	ldi	r18, 0xBF	; 191
    1b70:	ac 3f       	cpi	r26, 0xFC	; 252
    1b72:	b2 07       	cpc	r27, r18
    1b74:	b9 f7       	brne	.-18     	; 0x1b64 <SelfTest+0x3e>
        iLED[HCKR[R][x]] = 0xff;
    }

    //Audio in/out
    SelectAuIn();
    1b76:	3e db       	rcall	.-2436   	; 0x11f4 <SelectAuIn>
    auRepAddr = &tstVal[0];
    while ((auIn[0] < 0x7A)||(auIn[0] > 0x85)) ;
    1b78:	80 91 c4 3a 	lds	r24, 0x3AC4	; 0x803ac4 <auIn>
    1b7c:	8a 37       	cpi	r24, 0x7A	; 122
    1b7e:	e0 f3       	brcs	.-8      	; 0x1b78 <SelfTest+0x52>
    1b80:	80 91 c4 3a 	lds	r24, 0x3AC4	; 0x803ac4 <auIn>
    1b84:	86 38       	cpi	r24, 0x86	; 134
    1b86:	c0 f7       	brcc	.-16     	; 0x1b78 <SelfTest+0x52>
    iLED[HCKR[R][0]] = 0x00;
    1b88:	e0 91 f6 bf 	lds	r30, 0xBFF6	; 0x80bff6 <__bss_end+0x84da>
    1b8c:	f0 e0       	ldi	r31, 0x00	; 0
    1b8e:	e4 53       	subi	r30, 0x34	; 52
    1b90:	f5 4c       	sbci	r31, 0xC5	; 197
    1b92:	10 82       	st	Z, r1
    iLED[HCKR[G][0]] = 0xff;
    1b94:	e0 91 fc bf 	lds	r30, 0xBFFC	; 0x80bffc <__bss_end+0x84e0>
    1b98:	f0 e0       	ldi	r31, 0x00	; 0
    1b9a:	e4 53       	subi	r30, 0x34	; 52
    1b9c:	f5 4c       	sbci	r31, 0xC5	; 197
    1b9e:	8f ef       	ldi	r24, 0xFF	; 255
    1ba0:	80 83       	st	Z, r24
    auRepAddr = &zero;
    1ba2:	8a e3       	ldi	r24, 0x3A	; 58
    1ba4:	98 e3       	ldi	r25, 0x38	; 56
    1ba6:	80 93 03 38 	sts	0x3803, r24	; 0x803803 <auRepAddr>
    1baa:	90 93 04 38 	sts	0x3804, r25	; 0x803804 <auRepAddr+0x1>

    //Light sensor
    tstVal[0] = adcPhot&0xff;
    1bae:	80 91 bf 3a 	lds	r24, 0x3ABF	; 0x803abf <adcPhot>
    1bb2:	90 91 c0 3a 	lds	r25, 0x3AC0	; 0x803ac0 <adcPhot+0x1>
    while (tstVal[0] == (adcPhot&0xff)) ;
    1bb6:	99 27       	eor	r25, r25
    1bb8:	20 91 bf 3a 	lds	r18, 0x3ABF	; 0x803abf <adcPhot>
    1bbc:	30 91 c0 3a 	lds	r19, 0x3AC0	; 0x803ac0 <adcPhot+0x1>
    1bc0:	33 27       	eor	r19, r19
    1bc2:	28 17       	cp	r18, r24
    1bc4:	39 07       	cpc	r19, r25
    1bc6:	c1 f3       	breq	.-16     	; 0x1bb8 <SelfTest+0x92>
    iLED[HCKR[R][1]] = 0x00;
    1bc8:	e0 91 f7 bf 	lds	r30, 0xBFF7	; 0x80bff7 <__bss_end+0x84db>
    1bcc:	f0 e0       	ldi	r31, 0x00	; 0
    1bce:	e4 53       	subi	r30, 0x34	; 52
    1bd0:	f5 4c       	sbci	r31, 0xC5	; 197
    1bd2:	10 82       	st	Z, r1
    iLED[HCKR[G][1]] = 0xff;
    1bd4:	e0 91 fd bf 	lds	r30, 0xBFFD	; 0x80bffd <__bss_end+0x84e1>
    1bd8:	f0 e0       	ldi	r31, 0x00	; 0
    1bda:	e4 53       	subi	r30, 0x34	; 52
    1bdc:	f5 4c       	sbci	r31, 0xC5	; 197
    1bde:	8f ef       	ldi	r24, 0xFF	; 255
    1be0:	80 83       	st	Z, r24

    //Magnet
    tstVal[0] = adcHall&0xff;
    1be2:	80 91 bd 3a 	lds	r24, 0x3ABD	; 0x803abd <adcHall>
    1be6:	90 91 be 3a 	lds	r25, 0x3ABE	; 0x803abe <adcHall+0x1>
    1bea:	89 83       	std	Y+1, r24	; 0x01
    while (tstVal[0] == (adcHall&0xff)) ;
    1bec:	99 27       	eor	r25, r25
    1bee:	20 91 bd 3a 	lds	r18, 0x3ABD	; 0x803abd <adcHall>
    1bf2:	30 91 be 3a 	lds	r19, 0x3ABE	; 0x803abe <adcHall+0x1>
    1bf6:	33 27       	eor	r19, r19
    1bf8:	28 17       	cp	r18, r24
    1bfa:	39 07       	cpc	r19, r25
    1bfc:	c1 f3       	breq	.-16     	; 0x1bee <SelfTest+0xc8>
    iLED[HCKR[R][2]] = 0x00;
    1bfe:	e0 91 f8 bf 	lds	r30, 0xBFF8	; 0x80bff8 <__bss_end+0x84dc>
    1c02:	f0 e0       	ldi	r31, 0x00	; 0
    1c04:	e4 53       	subi	r30, 0x34	; 52
    1c06:	f5 4c       	sbci	r31, 0xC5	; 197
    1c08:	10 82       	st	Z, r1
    iLED[HCKR[G][2]] = 0xff;
    1c0a:	e0 91 fe bf 	lds	r30, 0xBFFE	; 0x80bffe <__bss_end+0x84e2>
    1c0e:	f0 e0       	ldi	r31, 0x00	; 0
    1c10:	e4 53       	subi	r30, 0x34	; 52
    1c12:	f5 4c       	sbci	r31, 0xC5	; 197
    1c14:	8f ef       	ldi	r24, 0xFF	; 255

    //Temperature
    SelectTSens();
    1c16:	80 83       	st	Z, r24
    1c18:	de da       	rcall	.-2628   	; 0x11d6 <SelectTSens>
    tstVal[0] = adcTemp&0xff;
    1c1a:	80 91 f7 3a 	lds	r24, 0x3AF7	; 0x803af7 <adcTemp>
    1c1e:	90 91 f8 3a 	lds	r25, 0x3AF8	; 0x803af8 <adcTemp+0x1>
    1c22:	89 83       	std	Y+1, r24	; 0x01
    while (tstVal[0] == (adcTemp&0xff)) ;
    1c24:	99 27       	eor	r25, r25
    1c26:	20 91 f7 3a 	lds	r18, 0x3AF7	; 0x803af7 <adcTemp>
    1c2a:	30 91 f8 3a 	lds	r19, 0x3AF8	; 0x803af8 <adcTemp+0x1>
    1c2e:	33 27       	eor	r19, r19
    1c30:	28 17       	cp	r18, r24
    1c32:	39 07       	cpc	r19, r25
    1c34:	c1 f3       	breq	.-16     	; 0x1c26 <SelfTest+0x100>
    iLED[HCKR[R][3]] = 0x00;
    1c36:	e0 91 f9 bf 	lds	r30, 0xBFF9	; 0x80bff9 <__bss_end+0x84dd>
    1c3a:	f0 e0       	ldi	r31, 0x00	; 0
    1c3c:	e4 53       	subi	r30, 0x34	; 52
    1c3e:	f5 4c       	sbci	r31, 0xC5	; 197
    1c40:	10 82       	st	Z, r1
    iLED[HCKR[G][3]] = 0xff;
    1c42:	e0 91 ff bf 	lds	r30, 0xBFFF	; 0x80bfff <__bss_end+0x84e3>
    1c46:	f0 e0       	ldi	r31, 0x00	; 0
    1c48:	e4 53       	subi	r30, 0x34	; 52
    1c4a:	f5 4c       	sbci	r31, 0xC5	; 197
    1c4c:	8f ef       	ldi	r24, 0xFF	; 255
    1c4e:	80 83       	st	Z, r24

    //Buttons (none pressed / shorted)
    while ((adcBtns>>4) < 200) ;
    1c50:	80 91 b9 3a 	lds	r24, 0x3AB9	; 0x803ab9 <adcBtns>
    1c54:	90 91 ba 3a 	lds	r25, 0x3ABA	; 0x803aba <adcBtns+0x1>
    1c58:	80 38       	cpi	r24, 0x80	; 128
    1c5a:	9c 40       	sbci	r25, 0x0C	; 12
    1c5c:	c8 f3       	brcs	.-14     	; 0x1c50 <SelfTest+0x12a>
    iLED[HCKR[R][4]] = 0x00;
    1c5e:	e0 90 fa bf 	lds	r14, 0xBFFA	; 0x80bffa <__bss_end+0x84de>
    1c62:	8e 2d       	mov	r24, r14
    1c64:	90 e0       	ldi	r25, 0x00	; 0
    1c66:	fc 01       	movw	r30, r24
    1c68:	e4 53       	subi	r30, 0x34	; 52
    1c6a:	f5 4c       	sbci	r31, 0xC5	; 197
    1c6c:	7f 01       	movw	r14, r30
    1c6e:	10 82       	st	Z, r1
    iLED[HCKR[G][4]] = 0xff;
    1c70:	00 91 00 c0 	lds	r16, 0xC000	; 0x80c000 <__bss_end+0x84e4>
    1c74:	10 e0       	ldi	r17, 0x00	; 0
    1c76:	04 53       	subi	r16, 0x34	; 52
    1c78:	15 4c       	sbci	r17, 0xC5	; 197
    1c7a:	dd 24       	eor	r13, r13
    1c7c:	da 94       	dec	r13
    1c7e:	f8 01       	movw	r30, r16
    1c80:	d0 82       	st	Z, r13
        0x3CCD              Level 6, open_acl=0
        0x3CCE              Level 6, action_acl=192
        0x3CCF              Level 6, action_mask=20
    */

    ExtEERead(0x3CCC, 4, 0, &tstVal[0]);
    1c82:	9e 01       	movw	r18, r28
    1c84:	2f 5f       	subi	r18, 0xFF	; 255
    1c86:	3f 4f       	sbci	r19, 0xFF	; 255
    1c88:	40 e0       	ldi	r20, 0x00	; 0
    1c8a:	64 e0       	ldi	r22, 0x04	; 4
    1c8c:	8c ec       	ldi	r24, 0xCC	; 204
    1c8e:	9c e3       	ldi	r25, 0x3C	; 60
    1c90:	4e da       	rcall	.-2916   	; 0x112e <ExtEERead>
    if ((tstVal[0] != 63) || (tstVal[1] != 0) || (tstVal[2] != 192) || (tstVal[3] != 20)){
    1c92:	89 81       	ldd	r24, Y+1	; 0x01
    1c94:	8f 33       	cpi	r24, 0x3F	; 63
    1c96:	49 f4       	brne	.+18     	; 0x1caa <SelfTest+0x184>
    1c98:	8a 81       	ldd	r24, Y+2	; 0x02
    1c9a:	81 11       	cpse	r24, r1
    1c9c:	06 c0       	rjmp	.+12     	; 0x1caa <SelfTest+0x184>
    1c9e:	8b 81       	ldd	r24, Y+3	; 0x03
    1ca0:	80 3c       	cpi	r24, 0xC0	; 192
    1ca2:	19 f4       	brne	.+6      	; 0x1caa <SelfTest+0x184>
    1ca4:	8c 81       	ldd	r24, Y+4	; 0x04
    1ca6:	84 31       	cpi	r24, 0x14	; 20
    1ca8:	09 f0       	breq	.+2      	; 0x1cac <SelfTest+0x186>
    1caa:	ff cf       	rjmp	.-2      	; 0x1caa <SelfTest+0x184>
        while(1);
    } else {
        iLED[HCKR[R][4]] = 0x00;
    1cac:	f7 01       	movw	r30, r14
    1cae:	10 82       	st	Z, r1
        iLED[HCKR[G][4]] = 0xff;
    1cb0:	f8 01       	movw	r30, r16
    1cb2:	d0 82       	st	Z, r13
    }

    return 0;
    1cb4:	80 e0       	ldi	r24, 0x00	; 0
    1cb6:	24 96       	adiw	r28, 0x04	; 4
    1cb8:	cd bf       	out	0x3d, r28	; 61
    1cba:	de bf       	out	0x3e, r29	; 62
    1cbc:	df 91       	pop	r29
    1cbe:	cf 91       	pop	r28
    1cc0:	1f 91       	pop	r17
    1cc2:	0f 91       	pop	r16
    1cc4:	ff 90       	pop	r15
    1cc6:	ef 90       	pop	r14
    1cc8:	df 90       	pop	r13
    1cca:	08 95       	ret

00001ccc <simonLed>:

/**
 * Set the wing LED blocks to selected option
 * @param val
 */
void simonLed(uint8_t val) {
    1ccc:	cf 93       	push	r28
    1cce:	df 93       	push	r29
    1cd0:	e8 ee       	ldi	r30, 0xE8	; 232
    1cd2:	ff eb       	ldi	r31, 0xBF	; 191
    1cd4:	ef 01       	movw	r28, r30
    for (uint8_t n = 0; n < 5; n++) {
        iLED[WING[L][n]] = 0;
    1cd6:	a5 81       	ldd	r26, Z+5	; 0x05
    1cd8:	b0 e0       	ldi	r27, 0x00	; 0
    1cda:	a4 53       	subi	r26, 0x34	; 52
    1cdc:	b5 4c       	sbci	r27, 0xC5	; 197
    1cde:	1c 92       	st	X, r1
    1ce0:	31 96       	adiw	r30, 0x01	; 1
        iLED[WING[R][n]] = 0;
    1ce2:	a8 81       	ld	r26, Y
    1ce4:	b0 e0       	ldi	r27, 0x00	; 0
    1ce6:	a4 53       	subi	r26, 0x34	; 52
    1ce8:	b5 4c       	sbci	r27, 0xC5	; 197
    1cea:	1c 92       	st	X, r1
/**
 * Set the wing LED blocks to selected option
 * @param val
 */
void simonLed(uint8_t val) {
    for (uint8_t n = 0; n < 5; n++) {
    1cec:	9f eb       	ldi	r25, 0xBF	; 191
    1cee:	ed 3e       	cpi	r30, 0xED	; 237
    1cf0:	f9 07       	cpc	r31, r25
    1cf2:	81 f7       	brne	.-32     	; 0x1cd4 <simonLed+0x8>
        iLED[WING[L][n]] = 0;
        iLED[WING[R][n]] = 0;
    }
    if (val == 3) {         // II
    1cf4:	83 30       	cpi	r24, 0x03	; 3
    1cf6:	d9 f4       	brne	.+54     	; 0x1d2e <simonLed+0x62>
        iLED[WING[L][0]] = dimValue;
    1cf8:	e0 91 ed bf 	lds	r30, 0xBFED	; 0x80bfed <__bss_end+0x84d1>
    1cfc:	f0 e0       	ldi	r31, 0x00	; 0
    1cfe:	80 91 0c 38 	lds	r24, 0x380C	; 0x80380c <dimValue>
    1d02:	e4 53       	subi	r30, 0x34	; 52
    1d04:	f5 4c       	sbci	r31, 0xC5	; 197
    1d06:	80 83       	st	Z, r24
        iLED[WING[L][1]] = dimValue;
    1d08:	e0 91 ee bf 	lds	r30, 0xBFEE	; 0x80bfee <__bss_end+0x84d2>
    1d0c:	f0 e0       	ldi	r31, 0x00	; 0
    1d0e:	80 91 0c 38 	lds	r24, 0x380C	; 0x80380c <dimValue>
    1d12:	e4 53       	subi	r30, 0x34	; 52
    1d14:	f5 4c       	sbci	r31, 0xC5	; 197
    1d16:	80 83       	st	Z, r24
        iLED[WING[L][2]] = dimValue;
    1d18:	e0 91 ef bf 	lds	r30, 0xBFEF	; 0x80bfef <__bss_end+0x84d3>
    1d1c:	f0 e0       	ldi	r31, 0x00	; 0
    1d1e:	80 91 0c 38 	lds	r24, 0x380C	; 0x80380c <dimValue>
    1d22:	e4 53       	subi	r30, 0x34	; 52
    1d24:	f5 4c       	sbci	r31, 0xC5	; 197
    1d26:	80 83       	st	Z, r24
        effect = 0x013f;
    1d28:	8f e3       	ldi	r24, 0x3F	; 63
    1d2a:	91 e0       	ldi	r25, 0x01	; 1
    1d2c:	46 c0       	rjmp	.+140    	; 0x1dba <simonLed+0xee>
    } else if (val == 1) {  //
    1d2e:	81 30       	cpi	r24, 0x01	; 1
    1d30:	99 f4       	brne	.+38     	; 0x1d58 <simonLed+0x8c>
        iLED[WING[L][3]] = dimValue;
    1d32:	e0 91 f0 bf 	lds	r30, 0xBFF0	; 0x80bff0 <__bss_end+0x84d4>
    1d36:	f0 e0       	ldi	r31, 0x00	; 0
    1d38:	80 91 0c 38 	lds	r24, 0x380C	; 0x80380c <dimValue>
    1d3c:	e4 53       	subi	r30, 0x34	; 52
    1d3e:	f5 4c       	sbci	r31, 0xC5	; 197
    1d40:	80 83       	st	Z, r24
        iLED[WING[L][4]] = dimValue;
    1d42:	e0 91 f1 bf 	lds	r30, 0xBFF1	; 0x80bff1 <__bss_end+0x84d5>
    1d46:	f0 e0       	ldi	r31, 0x00	; 0
    1d48:	80 91 0c 38 	lds	r24, 0x380C	; 0x80380c <dimValue>
    1d4c:	e4 53       	subi	r30, 0x34	; 52
    1d4e:	f5 4c       	sbci	r31, 0xC5	; 197
    1d50:	80 83       	st	Z, r24
        effect = 0x015f;
    1d52:	8f e5       	ldi	r24, 0x5F	; 95
    1d54:	91 e0       	ldi	r25, 0x01	; 1
    1d56:	31 c0       	rjmp	.+98     	; 0x1dba <simonLed+0xee>
    } else if (val == 4) {  // III
    1d58:	84 30       	cpi	r24, 0x04	; 4
    1d5a:	d9 f4       	brne	.+54     	; 0x1d92 <simonLed+0xc6>
        iLED[WING[R][0]] = dimValue;
    1d5c:	e0 91 e8 bf 	lds	r30, 0xBFE8	; 0x80bfe8 <__bss_end+0x84cc>
    1d60:	f0 e0       	ldi	r31, 0x00	; 0
    1d62:	80 91 0c 38 	lds	r24, 0x380C	; 0x80380c <dimValue>
    1d66:	e4 53       	subi	r30, 0x34	; 52
    1d68:	f5 4c       	sbci	r31, 0xC5	; 197
    1d6a:	80 83       	st	Z, r24
        iLED[WING[R][1]] = dimValue;
    1d6c:	e0 91 e9 bf 	lds	r30, 0xBFE9	; 0x80bfe9 <__bss_end+0x84cd>
    1d70:	f0 e0       	ldi	r31, 0x00	; 0
    1d72:	80 91 0c 38 	lds	r24, 0x380C	; 0x80380c <dimValue>
    1d76:	e4 53       	subi	r30, 0x34	; 52
    1d78:	f5 4c       	sbci	r31, 0xC5	; 197
    1d7a:	80 83       	st	Z, r24
        iLED[WING[R][2]] = dimValue;
    1d7c:	e0 91 ea bf 	lds	r30, 0xBFEA	; 0x80bfea <__bss_end+0x84ce>
    1d80:	f0 e0       	ldi	r31, 0x00	; 0
    1d82:	80 91 0c 38 	lds	r24, 0x380C	; 0x80380c <dimValue>
    1d86:	e4 53       	subi	r30, 0x34	; 52
    1d88:	f5 4c       	sbci	r31, 0xC5	; 197
    1d8a:	80 83       	st	Z, r24
        effect = 0x017f;
    1d8c:	8f e7       	ldi	r24, 0x7F	; 127
    1d8e:	91 e0       	ldi	r25, 0x01	; 1
    1d90:	14 c0       	rjmp	.+40     	; 0x1dba <simonLed+0xee>
    } else if (val == 2) {  // I
    1d92:	82 30       	cpi	r24, 0x02	; 2
    1d94:	b1 f4       	brne	.+44     	; 0x1dc2 <simonLed+0xf6>
        iLED[WING[R][3]] = dimValue;
    1d96:	e0 91 eb bf 	lds	r30, 0xBFEB	; 0x80bfeb <__bss_end+0x84cf>
    1d9a:	f0 e0       	ldi	r31, 0x00	; 0
    1d9c:	80 91 0c 38 	lds	r24, 0x380C	; 0x80380c <dimValue>
    1da0:	e4 53       	subi	r30, 0x34	; 52
    1da2:	f5 4c       	sbci	r31, 0xC5	; 197
    1da4:	80 83       	st	Z, r24
        iLED[WING[R][4]] = dimValue;
    1da6:	e0 91 ec bf 	lds	r30, 0xBFEC	; 0x80bfec <__bss_end+0x84d0>
    1daa:	f0 e0       	ldi	r31, 0x00	; 0
    1dac:	80 91 0c 38 	lds	r24, 0x380C	; 0x80380c <dimValue>
    1db0:	e4 53       	subi	r30, 0x34	; 52
    1db2:	f5 4c       	sbci	r31, 0xC5	; 197
    1db4:	80 83       	st	Z, r24
        effect = 0x019f;
    1db6:	8f e9       	ldi	r24, 0x9F	; 159
    1db8:	91 e0       	ldi	r25, 0x01	; 1
    1dba:	80 93 3c 38 	sts	0x383C, r24	; 0x80383c <effect>
    1dbe:	90 93 3d 38 	sts	0x383D, r25	; 0x80383d <effect+0x1>
    }
}
    1dc2:	df 91       	pop	r29
    1dc4:	cf 91       	pop	r28
    1dc6:	08 95       	ret

00001dc8 <BastetDictates>:

/**
 * Main game loop
 * @return 0
 */
uint8_t BastetDictates() {
    1dc8:	cf 93       	push	r28
    1dca:	df 93       	push	r29
    if (CheckState(BASTET_COMPLETED))
    1dcc:	8a e7       	ldi	r24, 0x7A	; 122
    1dce:	7d db       	rcall	.-2310   	; 0x14ca <CheckState>
    1dd0:	81 11       	cpse	r24, r1
    1dd2:	7d c1       	rjmp	.+762    	; 0x20ce <BastetDictates+0x306>
        return 0;

    if ((TEXT != gameNow) && (BASTET != gameNow))
    1dd4:	80 91 3e 38 	lds	r24, 0x383E	; 0x80383e <gameNow>
    1dd8:	8d 7f       	andi	r24, 0xFD	; 253
    1dda:	09 f0       	breq	.+2      	; 0x1dde <BastetDictates+0x16>
    1ddc:	78 c1       	rjmp	.+752    	; 0x20ce <BastetDictates+0x306>
        return 0;

    iLED[CAT] = (buttonState==0xff ? 0 : dimValue);
    1dde:	e0 91 e4 bf 	lds	r30, 0xBFE4	; 0x80bfe4 <__bss_end+0x84c8>
    1de2:	f0 e0       	ldi	r31, 0x00	; 0
    1de4:	80 91 08 38 	lds	r24, 0x3808	; 0x803808 <buttonState>
    1de8:	8f 3f       	cpi	r24, 0xFF	; 255
    1dea:	19 f0       	breq	.+6      	; 0x1df2 <BastetDictates+0x2a>
    1dec:	80 91 0c 38 	lds	r24, 0x380C	; 0x80380c <dimValue>
    1df0:	01 c0       	rjmp	.+2      	; 0x1df4 <BastetDictates+0x2c>
    1df2:	80 e0       	ldi	r24, 0x00	; 0
    1df4:	e4 53       	subi	r30, 0x34	; 52
    1df6:	f5 4c       	sbci	r31, 0xC5	; 197
    1df8:	80 83       	st	Z, r24

    if (BASTET_BOOT == simonGameState) {
    1dfa:	80 91 5e 38 	lds	r24, 0x385E	; 0x80385e <simonGameState>
    1dfe:	81 11       	cpse	r24, r1
    1e00:	20 c0       	rjmp	.+64     	; 0x1e42 <BastetDictates+0x7a>
        simonPos = ((adcPhot+adcTemp)&0x3f);
    1e02:	20 91 bf 3a 	lds	r18, 0x3ABF	; 0x803abf <adcPhot>
    1e06:	30 91 c0 3a 	lds	r19, 0x3AC0	; 0x803ac0 <adcPhot+0x1>
    1e0a:	80 91 f7 3a 	lds	r24, 0x3AF7	; 0x803af7 <adcTemp>
    1e0e:	90 91 f8 3a 	lds	r25, 0x3AF8	; 0x803af8 <adcTemp+0x1>
    1e12:	82 0f       	add	r24, r18
    1e14:	8f 73       	andi	r24, 0x3F	; 63
    1e16:	80 93 63 38 	sts	0x3863, r24	; 0x803863 <simonPos>
        for(uint8_t x=0; x<simonPos; ++x) lfsr();
    1e1a:	c0 e0       	ldi	r28, 0x00	; 0
    1e1c:	80 91 63 38 	lds	r24, 0x3863	; 0x803863 <simonPos>
    1e20:	c8 17       	cp	r28, r24
    1e22:	18 f4       	brcc	.+6      	; 0x1e2a <BastetDictates+0x62>
    1e24:	24 da       	rcall	.-3000   	; 0x126e <lfsr>
    1e26:	cf 5f       	subi	r28, 0xFF	; 255
    1e28:	f9 cf       	rjmp	.-14     	; 0x1e1c <BastetDictates+0x54>
    1e2a:	c4 e6       	ldi	r28, 0x64	; 100

        for (uint8_t i = 0; i < BASTET_LENGTH; i++) {
            simonState[i] = (lfsr() % 4);
    1e2c:	d8 e3       	ldi	r29, 0x38	; 56
    1e2e:	1f da       	rcall	.-3010   	; 0x126e <lfsr>
    1e30:	83 70       	andi	r24, 0x03	; 3
    1e32:	89 93       	st	Y+, r24

    if (BASTET_BOOT == simonGameState) {
        simonPos = ((adcPhot+adcTemp)&0x3f);
        for(uint8_t x=0; x<simonPos; ++x) lfsr();

        for (uint8_t i = 0; i < BASTET_LENGTH; i++) {
    1e34:	88 e3       	ldi	r24, 0x38	; 56
    1e36:	c0 37       	cpi	r28, 0x70	; 112
    1e38:	d8 07       	cpc	r29, r24
    1e3a:	c9 f7       	brne	.-14     	; 0x1e2e <BastetDictates+0x66>
            simonState[i] = (lfsr() % 4);
        }
        simonGameState = BASTET_GAME_START;
    1e3c:	81 e0       	ldi	r24, 0x01	; 1
    1e3e:	80 93 5e 38 	sts	0x385E, r24	; 0x80385e <simonGameState>
    }

    if (BASTET_GAME_START == simonGameState && BASTET == gameNow) {
    1e42:	80 91 5e 38 	lds	r24, 0x385E	; 0x80385e <simonGameState>
    1e46:	81 30       	cpi	r24, 0x01	; 1
    1e48:	71 f4       	brne	.+28     	; 0x1e66 <BastetDictates+0x9e>
    1e4a:	80 91 3e 38 	lds	r24, 0x383E	; 0x80383e <gameNow>
    1e4e:	82 30       	cpi	r24, 0x02	; 2
    1e50:	51 f4       	brne	.+20     	; 0x1e66 <BastetDictates+0x9e>
        simonGameState = BASTET_GAME_INTRO;
    1e52:	80 93 5e 38 	sts	0x385E, r24	; 0x80385e <simonGameState>
        simonPos = 0;
    1e56:	10 92 63 38 	sts	0x3863, r1	; 0x803863 <simonPos>
        simonInputPos = 0;
    1e5a:	10 92 62 38 	sts	0x3862, r1	; 0x803862 <simonInputPos>
        simonTimer = 0;
    1e5e:	10 92 61 38 	sts	0x3861, r1	; 0x803861 <simonTimer>
        simonCounter = 0;
    1e62:	10 92 5f 38 	sts	0x385F, r1	; 0x80385f <simonCounter>
    }

    if (BASTET_GAME_INTRO == simonGameState) {
    1e66:	80 91 5e 38 	lds	r24, 0x385E	; 0x80385e <simonGameState>
    1e6a:	82 30       	cpi	r24, 0x02	; 2
    1e6c:	79 f5       	brne	.+94     	; 0x1ecc <BastetDictates+0x104>
        if (simonTimer > 5) {   // .33 seconds
    1e6e:	80 91 61 38 	lds	r24, 0x3861	; 0x803861 <simonTimer>
    1e72:	86 30       	cpi	r24, 0x06	; 6
    1e74:	38 f0       	brcs	.+14     	; 0x1e84 <BastetDictates+0xbc>
            simonCounter++;
    1e76:	80 91 5f 38 	lds	r24, 0x385F	; 0x80385f <simonCounter>
    1e7a:	8f 5f       	subi	r24, 0xFF	; 255
    1e7c:	80 93 5f 38 	sts	0x385F, r24	; 0x80385f <simonCounter>
            simonTimer = 0;
    1e80:	10 92 61 38 	sts	0x3861, r1	; 0x803861 <simonTimer>
        }
        if (simonCounter > 5) {
    1e84:	e0 91 5f 38 	lds	r30, 0x385F	; 0x80385f <simonCounter>
    1e88:	e6 30       	cpi	r30, 0x06	; 6
    1e8a:	a8 f0       	brcs	.+42     	; 0x1eb6 <BastetDictates+0xee>
            simonGameState = BASTET_GAME_SHOW_PATTERN;
    1e8c:	83 e0       	ldi	r24, 0x03	; 3
    1e8e:	80 93 5e 38 	sts	0x385E, r24	; 0x80385e <simonGameState>
            simonTimer = 0;
    1e92:	10 92 61 38 	sts	0x3861, r1	; 0x803861 <simonTimer>
            simonCounter = 0;
    1e96:	10 92 5f 38 	sts	0x385F, r1	; 0x80385f <simonCounter>
    1e9a:	ac ef       	ldi	r26, 0xFC	; 252
    1e9c:	bf eb       	ldi	r27, 0xBF	; 191
    1e9e:	82 e0       	ldi	r24, 0x02	; 2
    1ea0:	90 ec       	ldi	r25, 0xC0	; 192
            for (uint8_t n=0; n<6; n++){
                iLED[HCKR[G][n]] = 1;
    1ea2:	21 e0       	ldi	r18, 0x01	; 1
    1ea4:	ed 91       	ld	r30, X+
    1ea6:	f0 e0       	ldi	r31, 0x00	; 0
    1ea8:	e4 53       	subi	r30, 0x34	; 52
    1eaa:	f5 4c       	sbci	r31, 0xC5	; 197
    1eac:	20 83       	st	Z, r18
        }
        if (simonCounter > 5) {
            simonGameState = BASTET_GAME_SHOW_PATTERN;
            simonTimer = 0;
            simonCounter = 0;
            for (uint8_t n=0; n<6; n++){
    1eae:	8a 17       	cp	r24, r26
    1eb0:	9b 07       	cpc	r25, r27
    1eb2:	c1 f7       	brne	.-16     	; 0x1ea4 <BastetDictates+0xdc>
    1eb4:	0c c1       	rjmp	.+536    	; 0x20ce <BastetDictates+0x306>
                iLED[HCKR[G][n]] = 1;
            }
            return 0;
        }
        iLED[HCKR[R][simonCounter]] = dimValue;
    1eb6:	f0 e0       	ldi	r31, 0x00	; 0
    1eb8:	ea 50       	subi	r30, 0x0A	; 10
    1eba:	f0 44       	sbci	r31, 0x40	; 64
    1ebc:	e0 81       	ld	r30, Z
    1ebe:	f0 e0       	ldi	r31, 0x00	; 0
    1ec0:	80 91 0c 38 	lds	r24, 0x380C	; 0x80380c <dimValue>
    1ec4:	e4 53       	subi	r30, 0x34	; 52
    1ec6:	f5 4c       	sbci	r31, 0xC5	; 197
    1ec8:	80 83       	st	Z, r24
    1eca:	23 c0       	rjmp	.+70     	; 0x1f12 <BastetDictates+0x14a>
    }

    if (BASTET_GAME_SHOW_PATTERN == simonGameState) {
    1ecc:	83 30       	cpi	r24, 0x03	; 3
    1ece:	09 f5       	brne	.+66     	; 0x1f12 <BastetDictates+0x14a>

        if (simonTimer > 7) {   // .5 second
    1ed0:	80 91 61 38 	lds	r24, 0x3861	; 0x803861 <simonTimer>
    1ed4:	88 30       	cpi	r24, 0x08	; 8
    1ed6:	38 f0       	brcs	.+14     	; 0x1ee6 <BastetDictates+0x11e>
            simonCounter++;
    1ed8:	80 91 5f 38 	lds	r24, 0x385F	; 0x80385f <simonCounter>
    1edc:	8f 5f       	subi	r24, 0xFF	; 255
    1ede:	80 93 5f 38 	sts	0x385F, r24	; 0x80385f <simonCounter>
            simonTimer = 0;
    1ee2:	10 92 61 38 	sts	0x3861, r1	; 0x803861 <simonTimer>
        }
        if (simonCounter > simonPos) {
    1ee6:	e0 91 5f 38 	lds	r30, 0x385F	; 0x80385f <simonCounter>
    1eea:	80 91 63 38 	lds	r24, 0x3863	; 0x803863 <simonPos>
    1eee:	8e 17       	cp	r24, r30
    1ef0:	50 f4       	brcc	.+20     	; 0x1f06 <BastetDictates+0x13e>
            simonInputPos = 0;
    1ef2:	10 92 62 38 	sts	0x3862, r1	; 0x803862 <simonInputPos>
            simonGameState = BASTET_GAME_INPUT;
    1ef6:	85 e0       	ldi	r24, 0x05	; 5
    1ef8:	80 93 5e 38 	sts	0x385E, r24	; 0x80385e <simonGameState>
            simonLed(0);
    1efc:	80 e0       	ldi	r24, 0x00	; 0
    1efe:	e6 de       	rcall	.-564    	; 0x1ccc <simonLed>
            simonTimer = 0;
    1f00:	10 92 61 38 	sts	0x3861, r1	; 0x803861 <simonTimer>
            return 0;
    1f04:	e4 c0       	rjmp	.+456    	; 0x20ce <BastetDictates+0x306>
        }
        simonLed(simonState[simonCounter]+1);
    1f06:	f0 e0       	ldi	r31, 0x00	; 0
    1f08:	ec 59       	subi	r30, 0x9C	; 156
    1f0a:	f7 4c       	sbci	r31, 0xC7	; 199
    1f0c:	80 81       	ld	r24, Z
    1f0e:	8f 5f       	subi	r24, 0xFF	; 255
    1f10:	dd de       	rcall	.-582    	; 0x1ccc <simonLed>
    }

    if (BASTET_GAME_INPUT == simonGameState) {
    1f12:	c0 91 5e 38 	lds	r28, 0x385E	; 0x80385e <simonGameState>
    1f16:	c5 30       	cpi	r28, 0x05	; 5
    1f18:	09 f0       	breq	.+2      	; 0x1f1c <BastetDictates+0x154>
    1f1a:	75 c0       	rjmp	.+234    	; 0x2006 <BastetDictates+0x23e>
        //Button pressed
        if (lastButtonState != buttonState && (buttonState+1) > 0) {
    1f1c:	80 91 08 38 	lds	r24, 0x3808	; 0x803808 <buttonState>
    1f20:	90 91 07 38 	lds	r25, 0x3807	; 0x803807 <lastButtonState>
    1f24:	98 17       	cp	r25, r24
    1f26:	09 f4       	brne	.+2      	; 0x1f2a <BastetDictates+0x162>
    1f28:	6c c0       	rjmp	.+216    	; 0x2002 <BastetDictates+0x23a>
            if (simonWait == 0 && buttonState < 4) {
    1f2a:	90 91 60 38 	lds	r25, 0x3860	; 0x803860 <simonWait>
    1f2e:	91 11       	cpse	r25, r1
    1f30:	7e c0       	rjmp	.+252    	; 0x202e <BastetDictates+0x266>
    1f32:	84 30       	cpi	r24, 0x04	; 4
    1f34:	08 f0       	brcs	.+2      	; 0x1f38 <BastetDictates+0x170>
    1f36:	7b c0       	rjmp	.+246    	; 0x202e <BastetDictates+0x266>
                simonWait = 1;
    1f38:	91 e0       	ldi	r25, 0x01	; 1
    1f3a:	90 93 60 38 	sts	0x3860, r25	; 0x803860 <simonWait>
                simonTimer = 0;
    1f3e:	10 92 61 38 	sts	0x3861, r1	; 0x803861 <simonTimer>
                simonLed(buttonState+1);
    1f42:	8f 5f       	subi	r24, 0xFF	; 255
    1f44:	c3 de       	rcall	.-634    	; 0x1ccc <simonLed>
                simonGameState = BASTET_GAME_WAIT_LEDS;
    1f46:	84 e0       	ldi	r24, 0x04	; 4
    1f48:	80 93 5e 38 	sts	0x385E, r24	; 0x80385e <simonGameState>
                simonNextGameState = BASTET_GAME_INPUT;
    1f4c:	c0 93 2d 38 	sts	0x382D, r28	; 0x80382d <simonNextGameState>

                if (simonState[simonInputPos] == buttonState) {
    1f50:	80 91 62 38 	lds	r24, 0x3862	; 0x803862 <simonInputPos>
    1f54:	e8 2f       	mov	r30, r24
    1f56:	f0 e0       	ldi	r31, 0x00	; 0
    1f58:	ec 59       	subi	r30, 0x9C	; 156
    1f5a:	f7 4c       	sbci	r31, 0xC7	; 199
    1f5c:	20 81       	ld	r18, Z
    1f5e:	90 91 08 38 	lds	r25, 0x3808	; 0x803808 <buttonState>
    1f62:	29 13       	cpse	r18, r25
    1f64:	1d c0       	rjmp	.+58     	; 0x1fa0 <BastetDictates+0x1d8>
                    simonInputPos++;
    1f66:	8f 5f       	subi	r24, 0xFF	; 255
    1f68:	80 93 62 38 	sts	0x3862, r24	; 0x803862 <simonInputPos>
                    if (simonInputPos > simonPos) {
    1f6c:	e0 91 63 38 	lds	r30, 0x3863	; 0x803863 <simonPos>
    1f70:	e8 17       	cp	r30, r24
    1f72:	a8 f5       	brcc	.+106    	; 0x1fde <BastetDictates+0x216>
                        simonPos++;
    1f74:	ef 5f       	subi	r30, 0xFF	; 255
    1f76:	e0 93 63 38 	sts	0x3863, r30	; 0x803863 <simonPos>
                        simonTimer = 0;
    1f7a:	10 92 61 38 	sts	0x3861, r1	; 0x803861 <simonTimer>
                        simonCounter = 0;
    1f7e:	10 92 5f 38 	sts	0x385F, r1	; 0x80385f <simonCounter>
                        if (simonPos > 1) { // BASTET_LENGTH = 12
    1f82:	e1 30       	cpi	r30, 0x01	; 1
    1f84:	59 f0       	breq	.+22     	; 0x1f9c <BastetDictates+0x1d4>
                            iLED[HCKR[G][(simonPos / 2) - 1]] = dimValue;
    1f86:	e6 95       	lsr	r30
    1f88:	f0 e0       	ldi	r31, 0x00	; 0
    1f8a:	ea 50       	subi	r30, 0x0A	; 10
    1f8c:	f0 44       	sbci	r31, 0x40	; 64
    1f8e:	e5 81       	ldd	r30, Z+5	; 0x05
    1f90:	f0 e0       	ldi	r31, 0x00	; 0
    1f92:	80 91 0c 38 	lds	r24, 0x380C	; 0x80380c <dimValue>
    1f96:	e4 53       	subi	r30, 0x34	; 52
    1f98:	f5 4c       	sbci	r31, 0xC5	; 197
    1f9a:	80 83       	st	Z, r24
                        }
                        simonNextGameState = BASTET_GAME_SHOW_PATTERN;
    1f9c:	83 e0       	ldi	r24, 0x03	; 3
    1f9e:	1d c0       	rjmp	.+58     	; 0x1fda <BastetDictates+0x212>
                    }
                } else {
                    effect = 32;
    1fa0:	80 e2       	ldi	r24, 0x20	; 32
    1fa2:	90 e0       	ldi	r25, 0x00	; 0
    1fa4:	80 93 3c 38 	sts	0x383C, r24	; 0x80383c <effect>
    1fa8:	90 93 3d 38 	sts	0x383D, r25	; 0x80383d <effect+0x1>
    1fac:	a6 ef       	ldi	r26, 0xF6	; 246
    1fae:	bf eb       	ldi	r27, 0xBF	; 191
    1fb0:	8c ef       	ldi	r24, 0xFC	; 252
    1fb2:	9f eb       	ldi	r25, 0xBF	; 191
                    for (uint8_t n=0; n<6; n++){
                        iLED[HCKR[R][n]] = dimValue;
    1fb4:	ed 91       	ld	r30, X+
    1fb6:	f0 e0       	ldi	r31, 0x00	; 0
    1fb8:	20 91 0c 38 	lds	r18, 0x380C	; 0x80380c <dimValue>
    1fbc:	e4 53       	subi	r30, 0x34	; 52
    1fbe:	f5 4c       	sbci	r31, 0xC5	; 197
    1fc0:	20 83       	st	Z, r18
                        }
                        simonNextGameState = BASTET_GAME_SHOW_PATTERN;
                    }
                } else {
                    effect = 32;
                    for (uint8_t n=0; n<6; n++){
    1fc2:	8a 17       	cp	r24, r26
    1fc4:	9b 07       	cpc	r25, r27
    1fc6:	b1 f7       	brne	.-20     	; 0x1fb4 <BastetDictates+0x1ec>
                        iLED[HCKR[R][n]] = dimValue;
                    }
                    simonInputPos = 0;
    1fc8:	10 92 62 38 	sts	0x3862, r1	; 0x803862 <simonInputPos>
                    simonPos = 0;
    1fcc:	10 92 63 38 	sts	0x3863, r1	; 0x803863 <simonPos>
                    simonTimer = 0;
    1fd0:	10 92 61 38 	sts	0x3861, r1	; 0x803861 <simonTimer>
                    simonCounter = 0;
    1fd4:	10 92 5f 38 	sts	0x385F, r1	; 0x80385f <simonCounter>
                    simonNextGameState = BASTET_GAME_OUTRO;
    1fd8:	86 e0       	ldi	r24, 0x06	; 6
    1fda:	80 93 2d 38 	sts	0x382D, r24	; 0x80382d <simonNextGameState>
                }

                if (simonInputPos >= BASTET_LENGTH || simonPos >= BASTET_LENGTH) { // beetje dubbel
    1fde:	80 91 62 38 	lds	r24, 0x3862	; 0x803862 <simonInputPos>
    1fe2:	8c 30       	cpi	r24, 0x0C	; 12
    1fe4:	20 f4       	brcc	.+8      	; 0x1fee <BastetDictates+0x226>
    1fe6:	80 91 63 38 	lds	r24, 0x3863	; 0x803863 <simonPos>
    1fea:	8c 30       	cpi	r24, 0x0C	; 12
                    // TODO win animu ?!
//                    effect = 0x0106;    // TODO win sound ?!
                    UpdateState(BASTET_COMPLETED);
    1fec:	60 f0       	brcs	.+24     	; 0x2006 <BastetDictates+0x23e>
    1fee:	8a e7       	ldi	r24, 0x7A	; 122
    1ff0:	62 da       	rcall	.-2876   	; 0x14b6 <UpdateState>
                    simonTimer = 0;
    1ff2:	10 92 61 38 	sts	0x3861, r1	; 0x803861 <simonTimer>
                    simonCounter = 0;
    1ff6:	10 92 5f 38 	sts	0x385F, r1	; 0x80385f <simonCounter>
                    simonNextGameState = BASTET_GAME_OVER;
    1ffa:	87 e0       	ldi	r24, 0x07	; 7
    1ffc:	80 93 2d 38 	sts	0x382D, r24	; 0x80382d <simonNextGameState>
    2000:	02 c0       	rjmp	.+4      	; 0x2006 <BastetDictates+0x23e>
                }
            }
        
        //Button released, next or reset!
        } else {
            simonWait = 0;
    2002:	10 92 60 38 	sts	0x3860, r1	; 0x803860 <simonWait>
        }
    }

    if (BASTET_GAME_WAIT_LEDS == simonGameState) {
    2006:	80 91 5e 38 	lds	r24, 0x385E	; 0x80385e <simonGameState>
    200a:	84 30       	cpi	r24, 0x04	; 4
        if (simonTimer >= 7) {
    200c:	81 f4       	brne	.+32     	; 0x202e <BastetDictates+0x266>
    200e:	80 91 61 38 	lds	r24, 0x3861	; 0x803861 <simonTimer>
    2012:	87 30       	cpi	r24, 0x07	; 7
            // on to next state after .5 second
            simonLed(0);  // LEDs off
    2014:	60 f0       	brcs	.+24     	; 0x202e <BastetDictates+0x266>
    2016:	80 e0       	ldi	r24, 0x00	; 0
    2018:	59 de       	rcall	.-846    	; 0x1ccc <simonLed>
            simonWait = 0;
    201a:	10 92 60 38 	sts	0x3860, r1	; 0x803860 <simonWait>
            simonTimer = 0;
    201e:	10 92 61 38 	sts	0x3861, r1	; 0x803861 <simonTimer>
            simonCounter = 0;
    2022:	10 92 5f 38 	sts	0x385F, r1	; 0x80385f <simonCounter>
            simonGameState = simonNextGameState;
    2026:	80 91 2d 38 	lds	r24, 0x382D	; 0x80382d <simonNextGameState>
    202a:	80 93 5e 38 	sts	0x385E, r24	; 0x80385e <simonGameState>
        }
    }

    if (BASTET_GAME_OUTRO == simonGameState) {
    202e:	80 91 5e 38 	lds	r24, 0x385E	; 0x80385e <simonGameState>
    2032:	86 30       	cpi	r24, 0x06	; 6
    2034:	49 f5       	brne	.+82     	; 0x2088 <BastetDictates+0x2c0>
        if (simonTimer > 5) {   // .33 second
    2036:	80 91 61 38 	lds	r24, 0x3861	; 0x803861 <simonTimer>
    203a:	86 30       	cpi	r24, 0x06	; 6
    203c:	38 f0       	brcs	.+14     	; 0x204c <BastetDictates+0x284>
            simonCounter++;
    203e:	80 91 5f 38 	lds	r24, 0x385F	; 0x80385f <simonCounter>
    2042:	8f 5f       	subi	r24, 0xFF	; 255
    2044:	80 93 5f 38 	sts	0x385F, r24	; 0x80385f <simonCounter>
            simonTimer = 0;
    2048:	10 92 61 38 	sts	0x3861, r1	; 0x803861 <simonTimer>
        }
        if (simonCounter > 5) {
    204c:	80 91 5f 38 	lds	r24, 0x385F	; 0x80385f <simonCounter>
    2050:	86 30       	cpi	r24, 0x06	; 6
    2052:	40 f0       	brcs	.+16     	; 0x2064 <BastetDictates+0x29c>
            simonTimer = 0;
    2054:	10 92 61 38 	sts	0x3861, r1	; 0x803861 <simonTimer>
            simonCounter = 0;
    2058:	10 92 5f 38 	sts	0x385F, r1	; 0x80385f <simonCounter>
            simonGameState = BASTET_GAME_OVER;
    205c:	87 e0       	ldi	r24, 0x07	; 7
    205e:	80 93 5e 38 	sts	0x385E, r24	; 0x80385e <simonGameState>
            return 0;
    2062:	35 c0       	rjmp	.+106    	; 0x20ce <BastetDictates+0x306>
        }
        iLED[HCKR[R][5-simonCounter]] = 1;
    2064:	e5 e0       	ldi	r30, 0x05	; 5
    2066:	f0 e0       	ldi	r31, 0x00	; 0
    2068:	e8 1b       	sub	r30, r24
    206a:	f1 09       	sbc	r31, r1
    206c:	ea 50       	subi	r30, 0x0A	; 10
    206e:	f0 44       	sbci	r31, 0x40	; 64
    2070:	a0 81       	ld	r26, Z
    2072:	b0 e0       	ldi	r27, 0x00	; 0
    2074:	a4 53       	subi	r26, 0x34	; 52
    2076:	b5 4c       	sbci	r27, 0xC5	; 197
    2078:	81 e0       	ldi	r24, 0x01	; 1
    207a:	8c 93       	st	X, r24
        iLED[HCKR[G][5-simonCounter]] = 1;
    207c:	e6 81       	ldd	r30, Z+6	; 0x06
    207e:	f0 e0       	ldi	r31, 0x00	; 0
    2080:	e4 53       	subi	r30, 0x34	; 52
    2082:	f5 4c       	sbci	r31, 0xC5	; 197
    2084:	80 83       	st	Z, r24
    2086:	1e c0       	rjmp	.+60     	; 0x20c4 <BastetDictates+0x2fc>
    }

    if (BASTET_GAME_OVER == simonGameState) {
    2088:	87 30       	cpi	r24, 0x07	; 7
    208a:	e1 f4       	brne	.+56     	; 0x20c4 <BastetDictates+0x2fc>
        simonInputPos = 0;
    208c:	10 92 62 38 	sts	0x3862, r1	; 0x803862 <simonInputPos>
        simonPos = 0;
    2090:	10 92 63 38 	sts	0x3863, r1	; 0x803863 <simonPos>
        simonGameState = BASTET_BOOT; // BASTET_GAME_START for stale "field" s
    2094:	10 92 5e 38 	sts	0x385E, r1	; 0x80385e <simonGameState>
        gameNow = TEXT;
    2098:	10 92 3e 38 	sts	0x383E, r1	; 0x80383e <gameNow>
    209c:	e8 ee       	ldi	r30, 0xE8	; 232
    209e:	ff eb       	ldi	r31, 0xBF	; 191
    20a0:	2d ee       	ldi	r18, 0xED	; 237
    20a2:	3f eb       	ldi	r19, 0xBF	; 191
        for (uint8_t n=0; n<5; n++){
            iLED[WING[L][n]] = 1;
    20a4:	81 e0       	ldi	r24, 0x01	; 1
    20a6:	ef 01       	movw	r28, r30
    20a8:	a5 81       	ldd	r26, Z+5	; 0x05
    20aa:	b0 e0       	ldi	r27, 0x00	; 0
    20ac:	a4 53       	subi	r26, 0x34	; 52
    20ae:	b5 4c       	sbci	r27, 0xC5	; 197
    20b0:	8c 93       	st	X, r24
    20b2:	31 96       	adiw	r30, 0x01	; 1
            iLED[WING[R][n]] = 1;
    20b4:	a8 81       	ld	r26, Y
    20b6:	b0 e0       	ldi	r27, 0x00	; 0
    20b8:	a4 53       	subi	r26, 0x34	; 52
    20ba:	b5 4c       	sbci	r27, 0xC5	; 197
    20bc:	8c 93       	st	X, r24
    if (BASTET_GAME_OVER == simonGameState) {
        simonInputPos = 0;
        simonPos = 0;
        simonGameState = BASTET_BOOT; // BASTET_GAME_START for stale "field" s
        gameNow = TEXT;
        for (uint8_t n=0; n<5; n++){
    20be:	2e 17       	cp	r18, r30
    20c0:	3f 07       	cpc	r19, r31
    20c2:	89 f7       	brne	.-30     	; 0x20a6 <BastetDictates+0x2de>
            iLED[WING[L][n]] = 1;
            iLED[WING[R][n]] = 1;
        }
    }

    ++simonTimer;
    20c4:	80 91 61 38 	lds	r24, 0x3861	; 0x803861 <simonTimer>
    20c8:	8f 5f       	subi	r24, 0xFF	; 255
    20ca:	80 93 61 38 	sts	0x3861, r24	; 0x803861 <simonTimer>
    return 0;
}
    20ce:	80 e0       	ldi	r24, 0x00	; 0
    20d0:	df 91       	pop	r29
    20d2:	cf 91       	pop	r28
    20d4:	08 95       	ret

000020d6 <Cheat>:

//
void SetResponse(uint8_t number, uint16_t address, uint16_t length, uint8_t type){
    reactStr[0][number]=address;
    reactStr[1][number]=length;
    reactStr[2][number]=type;
    20d6:	1f 93       	push	r17
    20d8:	cf 93       	push	r28
    20da:	df 93       	push	r29
    20dc:	cd b7       	in	r28, 0x3d	; 61
    20de:	de b7       	in	r29, 0x3e	; 62
    20e0:	62 97       	sbiw	r28, 0x12	; 18
    20e2:	cd bf       	out	0x3d, r28	; 61
    20e4:	de bf       	out	0x3e, r29	; 62
    20e6:	8a 8b       	std	Y+18, r24	; 0x12
    20e8:	80 e1       	ldi	r24, 0x10	; 16
    20ea:	ec eb       	ldi	r30, 0xBC	; 188
    20ec:	ff eb       	ldi	r31, 0xBF	; 191
    20ee:	de 01       	movw	r26, r28
    20f0:	11 96       	adiw	r26, 0x01	; 1
    20f2:	01 90       	ld	r0, Z+
    20f4:	0d 92       	st	X+, r0
    20f6:	8a 95       	dec	r24
    20f8:	e1 f7       	brne	.-8      	; 0x20f2 <Cheat+0x1c>
    20fa:	fe 01       	movw	r30, r28
    20fc:	31 96       	adiw	r30, 0x01	; 1
    20fe:	90 e0       	ldi	r25, 0x00	; 0
    2100:	8f ef       	ldi	r24, 0xFF	; 255
    2102:	21 91       	ld	r18, Z+
    2104:	31 91       	ld	r19, Z+
    2106:	26 17       	cp	r18, r22
    2108:	37 07       	cpc	r19, r23
    210a:	09 f4       	brne	.+2      	; 0x210e <Cheat+0x38>
    210c:	89 2f       	mov	r24, r25
    210e:	9f 5f       	subi	r25, 0xFF	; 255
    2110:	98 30       	cpi	r25, 0x08	; 8
    2112:	b9 f7       	brne	.-18     	; 0x2102 <Cheat+0x2c>
    2114:	88 30       	cpi	r24, 0x08	; 8
    2116:	10 f0       	brcs	.+4      	; 0x211c <Cheat+0x46>
    2118:	80 e0       	ldi	r24, 0x00	; 0
    211a:	14 c0       	rjmp	.+40     	; 0x2144 <Cheat+0x6e>
    211c:	18 e1       	ldi	r17, 0x18	; 24
    211e:	18 0f       	add	r17, r24
    2120:	41 e0       	ldi	r20, 0x01	; 1
    2122:	be 01       	movw	r22, r28
    2124:	6f 5e       	subi	r22, 0xEF	; 239
    2126:	7f 4f       	sbci	r23, 0xFF	; 255
    2128:	81 2f       	mov	r24, r17
    212a:	0e 94 45 08 	call	0x108a	; 0x108a <EERead>
    212e:	89 89       	ldd	r24, Y+17	; 0x11
    2130:	8f 3f       	cpi	r24, 0xFF	; 255
    2132:	91 f7       	brne	.-28     	; 0x2118 <Cheat+0x42>
    2134:	41 e0       	ldi	r20, 0x01	; 1
    2136:	be 01       	movw	r22, r28
    2138:	6e 5e       	subi	r22, 0xEE	; 238
    213a:	7f 4f       	sbci	r23, 0xFF	; 255
    213c:	81 2f       	mov	r24, r17
    213e:	0e 94 55 08 	call	0x10aa	; 0x10aa <EEWrite>
    2142:	81 e0       	ldi	r24, 0x01	; 1
    2144:	62 96       	adiw	r28, 0x12	; 18
    2146:	cd bf       	out	0x3d, r28	; 61
    2148:	de bf       	out	0x3e, r29	; 62
    214a:	df 91       	pop	r29
    214c:	cf 91       	pop	r28
    214e:	1f 91       	pop	r17
    2150:	08 95       	ret

00002152 <UnflipData>:
    2152:	26 2f       	mov	r18, r22
    2154:	fb 01       	movw	r30, r22
    2156:	35 e5       	ldi	r19, 0x55	; 85
    2158:	9e 2f       	mov	r25, r30
    215a:	92 1b       	sub	r25, r18
    215c:	98 17       	cp	r25, r24
    215e:	28 f4       	brcc	.+10     	; 0x216a <UnflipData+0x18>
    2160:	90 81       	ld	r25, Z
    2162:	92 95       	swap	r25
    2164:	93 27       	eor	r25, r19
    2166:	91 93       	st	Z+, r25
    2168:	f7 cf       	rjmp	.-18     	; 0x2158 <UnflipData+0x6>
    216a:	08 95       	ret

0000216c <ClearTxAfter>:
    216c:	8f 5f       	subi	r24, 0xFF	; 255
    216e:	88 30       	cpi	r24, 0x08	; 8
    2170:	30 f4       	brcc	.+12     	; 0x217e <ClearTxAfter+0x12>
    2172:	e8 2f       	mov	r30, r24
    2174:	f0 e0       	ldi	r31, 0x00	; 0
    2176:	e6 5b       	subi	r30, 0xB6	; 182
    2178:	f5 4c       	sbci	r31, 0xC5	; 197
    217a:	10 82       	st	Z, r1
    217c:	f7 cf       	rjmp	.-18     	; 0x216c <ClearTxAfter>
    217e:	08 95       	ret

00002180 <StartsWith>:
    2180:	ac 01       	movw	r20, r24
    2182:	90 e0       	ldi	r25, 0x00	; 0
    2184:	e9 2f       	mov	r30, r25
    2186:	f0 e0       	ldi	r31, 0x00	; 0
    2188:	da 01       	movw	r26, r20
    218a:	ae 0f       	add	r26, r30
    218c:	bf 1f       	adc	r27, r31
    218e:	3c 91       	ld	r19, X
    2190:	e6 0f       	add	r30, r22
    2192:	f7 1f       	adc	r31, r23
    2194:	31 11       	cpse	r19, r1
    2196:	05 c0       	rjmp	.+10     	; 0x21a2 <StartsWith+0x22>
    2198:	81 e0       	ldi	r24, 0x01	; 1
    219a:	90 81       	ld	r25, Z
    219c:	99 23       	and	r25, r25
    219e:	49 f0       	breq	.+18     	; 0x21b2 <StartsWith+0x32>
    21a0:	07 c0       	rjmp	.+14     	; 0x21b0 <StartsWith+0x30>
    21a2:	20 81       	ld	r18, Z
    21a4:	22 23       	and	r18, r18
    21a6:	c1 f3       	breq	.-16     	; 0x2198 <StartsWith+0x18>
    21a8:	32 13       	cpse	r19, r18
    21aa:	02 c0       	rjmp	.+4      	; 0x21b0 <StartsWith+0x30>
    21ac:	9f 5f       	subi	r25, 0xFF	; 255
    21ae:	ea cf       	rjmp	.-44     	; 0x2184 <StartsWith+0x4>
    21b0:	80 e0       	ldi	r24, 0x00	; 0
    21b2:	08 95       	ret

000021b4 <PrepareSending>:
    21b4:	cf 93       	push	r28
    21b6:	df 93       	push	r29
    21b8:	fc 01       	movw	r30, r24
    21ba:	61 15       	cp	r22, r1
    21bc:	71 05       	cpc	r23, r1
    21be:	59 f1       	breq	.+86     	; 0x2216 <PrepareSending+0x62>
    21c0:	a2 e5       	ldi	r26, 0x52	; 82
    21c2:	ba e3       	ldi	r27, 0x3A	; 58
    21c4:	ca e4       	ldi	r28, 0x4A	; 74
    21c6:	da e3       	ldi	r29, 0x3A	; 58
    21c8:	80 e0       	ldi	r24, 0x00	; 0
    21ca:	9f ef       	ldi	r25, 0xFF	; 255
    21cc:	6f 3f       	cpi	r22, 0xFF	; 255
    21ce:	71 05       	cpc	r23, r1
    21d0:	69 f0       	breq	.+26     	; 0x21ec <PrepareSending+0x38>
    21d2:	60 f0       	brcs	.+24     	; 0x21ec <PrepareSending+0x38>
    21d4:	ed 93       	st	X+, r30
    21d6:	fd 93       	st	X+, r31
    21d8:	99 93       	st	Y+, r25
    21da:	e1 50       	subi	r30, 0x01	; 1
    21dc:	ff 4f       	sbci	r31, 0xFF	; 255
    21de:	6f 5f       	subi	r22, 0xFF	; 255
    21e0:	71 09       	sbc	r23, r1
    21e2:	8f 5f       	subi	r24, 0xFF	; 255
    21e4:	87 30       	cpi	r24, 0x07	; 7
    21e6:	91 f7       	brne	.-28     	; 0x21cc <PrepareSending+0x18>
    21e8:	81 e0       	ldi	r24, 0x01	; 1
    21ea:	1e c0       	rjmp	.+60     	; 0x2228 <PrepareSending+0x74>
    21ec:	28 2f       	mov	r18, r24
    21ee:	30 e0       	ldi	r19, 0x00	; 0
    21f0:	d9 01       	movw	r26, r18
    21f2:	aa 0f       	add	r26, r26
    21f4:	bb 1f       	adc	r27, r27
    21f6:	ae 5a       	subi	r26, 0xAE	; 174
    21f8:	b5 4c       	sbci	r27, 0xC5	; 197
    21fa:	ed 93       	st	X+, r30
    21fc:	fc 93       	st	X, r31
    21fe:	6f 3f       	cpi	r22, 0xFF	; 255
    2200:	71 05       	cpc	r23, r1
    2202:	11 f4       	brne	.+4      	; 0x2208 <PrepareSending+0x54>
    2204:	6e ef       	ldi	r22, 0xFE	; 254
    2206:	70 e0       	ldi	r23, 0x00	; 0
    2208:	f9 01       	movw	r30, r18
    220a:	e6 5b       	subi	r30, 0xB6	; 182
    220c:	f5 4c       	sbci	r31, 0xC5	; 197
    220e:	60 83       	st	Z, r22
    2210:	40 93 48 3a 	sts	0x3A48, r20	; 0x803a48 <txTypeNow>
    2214:	05 c0       	rjmp	.+10     	; 0x2220 <PrepareSending+0x6c>
    2216:	10 92 52 3a 	sts	0x3A52, r1	; 0x803a52 <txAddrList>
    221a:	10 92 53 3a 	sts	0x3A53, r1	; 0x803a53 <txAddrList+0x1>
    221e:	80 e0       	ldi	r24, 0x00	; 0
    2220:	a5 df       	rcall	.-182    	; 0x216c <ClearTxAfter>
    2222:	10 92 49 3a 	sts	0x3A49, r1	; 0x803a49 <txAddrNow>
    2226:	80 e0       	ldi	r24, 0x00	; 0
    2228:	df 91       	pop	r29
    222a:	cf 91       	pop	r28
    222c:	08 95       	ret

0000222e <SetStandardResponse>:
}

//
uint8_t SetStandardResponse(uint8_t custStrEnd){
    222e:	cf 93       	push	r28
    2230:	df 93       	push	r29
    return 0;
}

//
void SetResponse(uint8_t number, uint16_t address, uint16_t length, uint8_t type){
    reactStr[0][number]=address;
    2232:	28 2f       	mov	r18, r24
    2234:	30 e0       	ldi	r19, 0x00	; 0
    2236:	f9 01       	movw	r30, r18
    2238:	ee 0f       	add	r30, r30
    223a:	ff 1f       	adc	r31, r31
    223c:	e3 5e       	subi	r30, 0xE3	; 227
    223e:	f6 4c       	sbci	r31, 0xC6	; 198
    2240:	a9 e5       	ldi	r26, 0x59	; 89
    2242:	ba e7       	ldi	r27, 0x7A	; 122
    2244:	a0 83       	st	Z, r26
    2246:	b1 83       	std	Z+1, r27	; 0x01
    reactStr[1][number]=length;
    2248:	f9 01       	movw	r30, r18
    224a:	ee 0f       	add	r30, r30
    224c:	ff 1f       	adc	r31, r31
    224e:	e3 5a       	subi	r30, 0xA3	; 163
    2250:	f6 4c       	sbci	r31, 0xC6	; 198
    2252:	62 e0       	ldi	r22, 0x02	; 2
    2254:	70 e0       	ldi	r23, 0x00	; 0
    2256:	60 83       	st	Z, r22
    2258:	71 83       	std	Z+1, r23	; 0x01
    reactStr[2][number]=type;
    225a:	22 0f       	add	r18, r18
    225c:	33 1f       	adc	r19, r19
    225e:	f9 01       	movw	r30, r18
    2260:	e3 56       	subi	r30, 0x63	; 99
    2262:	f6 4c       	sbci	r31, 0xC6	; 198
    2264:	41 e0       	ldi	r20, 0x01	; 1
    2266:	50 e0       	ldi	r21, 0x00	; 0
    2268:	40 83       	st	Z, r20
    226a:	51 83       	std	Z+1, r21	; 0x01
    return 0;
}

//
void SetResponse(uint8_t number, uint16_t address, uint16_t length, uint8_t type){
    reactStr[0][number]=address;
    226c:	21 e0       	ldi	r18, 0x01	; 1
    226e:	28 0f       	add	r18, r24
    2270:	30 e0       	ldi	r19, 0x00	; 0
    2272:	f9 01       	movw	r30, r18
    2274:	ee 0f       	add	r30, r30
    2276:	ff 1f       	adc	r31, r31
    2278:	e3 5e       	subi	r30, 0xE3	; 227
    227a:	f6 4c       	sbci	r31, 0xC6	; 198
    227c:	c2 e6       	ldi	r28, 0x62	; 98
    227e:	da e7       	ldi	r29, 0x7A	; 122
    2280:	c0 83       	st	Z, r28
    2282:	d1 83       	std	Z+1, r29	; 0x01
    reactStr[1][number]=length;
    2284:	f9 01       	movw	r30, r18
    2286:	ee 0f       	add	r30, r30
    2288:	ff 1f       	adc	r31, r31
    228a:	e3 5a       	subi	r30, 0xA3	; 163
    228c:	f6 4c       	sbci	r31, 0xC6	; 198
    228e:	cc e0       	ldi	r28, 0x0C	; 12
    2290:	d0 e0       	ldi	r29, 0x00	; 0
    2292:	c0 83       	st	Z, r28
    2294:	d1 83       	std	Z+1, r29	; 0x01
    reactStr[2][number]=type;
    2296:	22 0f       	add	r18, r18
    2298:	33 1f       	adc	r19, r19
    229a:	f9 01       	movw	r30, r18
    229c:	e3 56       	subi	r30, 0x63	; 99
    229e:	f6 4c       	sbci	r31, 0xC6	; 198
    22a0:	40 83       	st	Z, r20
    22a2:	51 83       	std	Z+1, r21	; 0x01
uint8_t SetStandardResponse(uint8_t custStrEnd){

    SetResponse(custStrEnd++, A_LF, 2, TEASER);
    SetResponse(custStrEnd++, A_LOCATION, L_LOCATION, TEASER);
    //SetResponse(custStrEnd++, A_SPACE, L_SPACE, TEASER);
    reactStr[0][custStrEnd++] = CURR_LOC;
    22a4:	e2 e0       	ldi	r30, 0x02	; 2
    22a6:	e8 0f       	add	r30, r24
    22a8:	f0 e0       	ldi	r31, 0x00	; 0
    22aa:	ee 0f       	add	r30, r30
    22ac:	ff 1f       	adc	r31, r31
    22ae:	e3 5e       	subi	r30, 0xE3	; 227
    22b0:	f6 4c       	sbci	r31, 0xC6	; 198
    22b2:	20 ef       	ldi	r18, 0xF0	; 240
    22b4:	3f ef       	ldi	r19, 0xFF	; 255
    22b6:	20 83       	st	Z, r18
    22b8:	31 83       	std	Z+1, r19	; 0x01
    return 0;
}

//
void SetResponse(uint8_t number, uint16_t address, uint16_t length, uint8_t type){
    reactStr[0][number]=address;
    22ba:	23 e0       	ldi	r18, 0x03	; 3
    22bc:	28 0f       	add	r18, r24
    22be:	30 e0       	ldi	r19, 0x00	; 0
    22c0:	f9 01       	movw	r30, r18
    22c2:	ee 0f       	add	r30, r30
    22c4:	ff 1f       	adc	r31, r31
    22c6:	e3 5e       	subi	r30, 0xE3	; 227
    22c8:	f6 4c       	sbci	r31, 0xC6	; 198
    22ca:	a0 83       	st	Z, r26
    22cc:	b1 83       	std	Z+1, r27	; 0x01
    reactStr[1][number]=length;
    22ce:	f9 01       	movw	r30, r18
    22d0:	ee 0f       	add	r30, r30
    22d2:	ff 1f       	adc	r31, r31
    22d4:	e3 5a       	subi	r30, 0xA3	; 163
    22d6:	f6 4c       	sbci	r31, 0xC6	; 198
    22d8:	60 83       	st	Z, r22
    22da:	71 83       	std	Z+1, r23	; 0x01
    reactStr[2][number]=type;
    22dc:	22 0f       	add	r18, r18
    22de:	33 1f       	adc	r19, r19
    22e0:	f9 01       	movw	r30, r18
    22e2:	e3 56       	subi	r30, 0x63	; 99
    22e4:	f6 4c       	sbci	r31, 0xC6	; 198
    22e6:	40 83       	st	Z, r20
    22e8:	51 83       	std	Z+1, r21	; 0x01
    return 0;
}

//
void SetResponse(uint8_t number, uint16_t address, uint16_t length, uint8_t type){
    reactStr[0][number]=address;
    22ea:	24 e0       	ldi	r18, 0x04	; 4
    22ec:	28 0f       	add	r18, r24
    22ee:	30 e0       	ldi	r19, 0x00	; 0
    22f0:	f9 01       	movw	r30, r18
    22f2:	ee 0f       	add	r30, r30
    22f4:	ff 1f       	adc	r31, r31
    22f6:	e3 5e       	subi	r30, 0xE3	; 227
    22f8:	f6 4c       	sbci	r31, 0xC6	; 198
    22fa:	a5 e5       	ldi	r26, 0x55	; 85
    22fc:	ba e7       	ldi	r27, 0x7A	; 122
    22fe:	a0 83       	st	Z, r26
    2300:	b1 83       	std	Z+1, r27	; 0x01
    reactStr[1][number]=length;
    2302:	f9 01       	movw	r30, r18
    2304:	ee 0f       	add	r30, r30
    2306:	ff 1f       	adc	r31, r31
    2308:	e3 5a       	subi	r30, 0xA3	; 163
    230a:	f6 4c       	sbci	r31, 0xC6	; 198
    230c:	60 83       	st	Z, r22
    230e:	71 83       	std	Z+1, r23	; 0x01
    reactStr[2][number]=type;
    2310:	22 0f       	add	r18, r18
    2312:	33 1f       	adc	r19, r19
    2314:	f9 01       	movw	r30, r18
    2316:	e3 56       	subi	r30, 0x63	; 99
    2318:	f6 4c       	sbci	r31, 0xC6	; 198
    231a:	40 83       	st	Z, r20
    231c:	51 83       	std	Z+1, r21	; 0x01
    SetResponse(custStrEnd++, A_LF, 2, TEASER);
    SetResponse(custStrEnd++, A_PROMPT, L_PROMPT, TEASER);
    //SetResponse(custStrEnd++, A_SPACE, L_SPACE, TEASER);

    return custStrEnd;
}
    231e:	8b 5f       	subi	r24, 0xFB	; 251
    2320:	df 91       	pop	r29
    2322:	cf 91       	pop	r28
    2324:	08 95       	ret

00002326 <PopulateObject>:

//Get all the relevant data and string addresses of an object
void PopulateObject(uint16_t offset, object_model_t *object){
    2326:	af 92       	push	r10
    2328:	bf 92       	push	r11
    232a:	df 92       	push	r13
    232c:	ef 92       	push	r14
    232e:	ff 92       	push	r15
    2330:	0f 93       	push	r16
    2332:	1f 93       	push	r17
    2334:	cf 93       	push	r28
    2336:	df 93       	push	r29
    2338:	cd b7       	in	r28, 0x3d	; 61
    233a:	de b7       	in	r29, 0x3e	; 62
    233c:	2c 97       	sbiw	r28, 0x0c	; 12
    233e:	cd bf       	out	0x3d, r28	; 61
    2340:	de bf       	out	0x3e, r29	; 62
    2342:	7c 01       	movw	r14, r24
    2344:	8b 01       	movw	r16, r22
    uint16_t parStr;
    offset += L_BOILER;

    //Fill things with fixed distance to offset
    uint8_t data[OFF_STRINGFLDS];
    ExtEERead(offset, OFF_STRINGFLDS, GAME, &data[0]);
    2346:	9e 01       	movw	r18, r28
    2348:	2f 5f       	subi	r18, 0xFF	; 255
    234a:	3f 4f       	sbci	r19, 0xFF	; 255
    234c:	40 e0       	ldi	r20, 0x00	; 0
    234e:	6c e0       	ldi	r22, 0x0C	; 12
    2350:	80 96       	adiw	r24, 0x20	; 32
    2352:	0e 94 97 08 	call	0x112e	; 0x112e <ExtEERead>
    object->addrNextObj = (data[OFF_NEXTOBJ]<<8|data[OFF_NEXTOBJ+1])+L_BOILER;
    2356:	89 81       	ldd	r24, Y+1	; 0x01
    2358:	9a 81       	ldd	r25, Y+2	; 0x02
    235a:	98 27       	eor	r25, r24
    235c:	89 27       	eor	r24, r25
    235e:	98 27       	eor	r25, r24
    2360:	80 96       	adiw	r24, 0x20	; 32
    2362:	f8 01       	movw	r30, r16
    2364:	80 83       	st	Z, r24
    2366:	91 83       	std	Z+1, r25	; 0x01
    object->addrNextLvl = (data[OFF_NEXTLVL]<<8|data[OFF_NEXTLVL+1])+L_BOILER;
    2368:	8b 81       	ldd	r24, Y+3	; 0x03
    236a:	9c 81       	ldd	r25, Y+4	; 0x04
    236c:	98 27       	eor	r25, r24
    236e:	89 27       	eor	r24, r25
    2370:	98 27       	eor	r25, r24
    2372:	80 96       	adiw	r24, 0x20	; 32
    2374:	82 83       	std	Z+2, r24	; 0x02
    2376:	93 83       	std	Z+3, r25	; 0x03
    2378:	de 01       	movw	r26, r28
    237a:	15 96       	adiw	r26, 0x05	; 5
    237c:	34 96       	adiw	r30, 0x04	; 4
    237e:	c8 01       	movw	r24, r16
    2380:	0c 96       	adiw	r24, 0x0c	; 12
    for (uint8_t x=0; x<BYTE_FIELDS_LEN; ++x){
        object->byteField[x]=data[x+OFF_BYTEFLDS];
    2382:	2d 91       	ld	r18, X+
    2384:	21 93       	st	Z+, r18
    //Fill things with fixed distance to offset
    uint8_t data[OFF_STRINGFLDS];
    ExtEERead(offset, OFF_STRINGFLDS, GAME, &data[0]);
    object->addrNextObj = (data[OFF_NEXTOBJ]<<8|data[OFF_NEXTOBJ+1])+L_BOILER;
    object->addrNextLvl = (data[OFF_NEXTLVL]<<8|data[OFF_NEXTLVL+1])+L_BOILER;
    for (uint8_t x=0; x<BYTE_FIELDS_LEN; ++x){
    2386:	e8 17       	cp	r30, r24
    2388:	f9 07       	cpc	r31, r25
    238a:	d9 f7       	brne	.-10     	; 0x2382 <PopulateObject+0x5c>
        object->byteField[x]=data[x+OFF_BYTEFLDS];
    }

    //Find out where all of the strings begin and how long they are
    offset += OFF_STRINGFLDS;
    238c:	fc e2       	ldi	r31, 0x2C	; 44
    238e:	ef 0e       	add	r14, r31
    2390:	f1 1c       	adc	r15, r1
    2392:	58 01       	movw	r10, r16
    for(uint8_t x=0; x<STRING_FIELDS_LEN; ++x){
    2394:	d1 2c       	mov	r13, r1
        
        //Determine length
        ExtEERead(offset, 3, GAME, &data[0]);
    2396:	9e 01       	movw	r18, r28
    2398:	2f 5f       	subi	r18, 0xFF	; 255
    239a:	3f 4f       	sbci	r19, 0xFF	; 255
    239c:	40 e0       	ldi	r20, 0x00	; 0
    239e:	63 e0       	ldi	r22, 0x03	; 3
    23a0:	c7 01       	movw	r24, r14
    23a2:	0e 94 97 08 	call	0x112e	; 0x112e <ExtEERead>
    23a6:	89 81       	ldd	r24, Y+1	; 0x01
    23a8:	9a 81       	ldd	r25, Y+2	; 0x02
    23aa:	98 27       	eor	r25, r24
    23ac:	89 27       	eor	r24, r25
    23ae:	98 27       	eor	r25, r24
        parStr = (data[0]<<8|data[1]);
        offset += 2;
    23b0:	97 01       	movw	r18, r14
    23b2:	2e 5f       	subi	r18, 0xFE	; 254
    23b4:	3f 4f       	sbci	r19, 0xFF	; 255
        if (x >= OPEN_ACL_MSG){
    23b6:	43 e0       	ldi	r20, 0x03	; 3
    23b8:	4d 15       	cp	r20, r13
    23ba:	80 f4       	brcc	.+32     	; 0x23dc <PopulateObject+0xb6>
            object->lenStr[x]= parStr-1;
    23bc:	ac 01       	movw	r20, r24
    23be:	41 50       	subi	r20, 0x01	; 1
    23c0:	51 09       	sbc	r21, r1
    23c2:	f8 01       	movw	r30, r16
    23c4:	42 8f       	std	Z+26, r20	; 0x1a
    23c6:	53 8f       	std	Z+27, r21	; 0x1b
            object->addrStr[x]=offset+1;
    23c8:	f3 e0       	ldi	r31, 0x03	; 3
    23ca:	ef 0e       	add	r14, r31
    23cc:	f1 1c       	adc	r15, r1
    23ce:	f8 01       	movw	r30, r16
    23d0:	e4 86       	std	Z+12, r14	; 0x0c
    23d2:	f5 86       	std	Z+13, r15	; 0x0d
            object->effect[x-OPEN_ACL_MSG] = data[2];
    23d4:	4b 81       	ldd	r20, Y+3	; 0x03
    23d6:	f5 01       	movw	r30, r10
    23d8:	44 a3       	std	Z+36, r20	; 0x24
    23da:	05 c0       	rjmp	.+10     	; 0x23e6 <PopulateObject+0xc0>
        } else {
            object->lenStr[x]= parStr;
    23dc:	f8 01       	movw	r30, r16
    23de:	82 8f       	std	Z+26, r24	; 0x1a
    23e0:	93 8f       	std	Z+27, r25	; 0x1b
            object->addrStr[x]=offset;
    23e2:	24 87       	std	Z+12, r18	; 0x0c
    23e4:	35 87       	std	Z+13, r19	; 0x0d
        }
        
        //Determine string start location for next field
        offset += parStr;
    23e6:	7c 01       	movw	r14, r24
    23e8:	e2 0e       	add	r14, r18
    23ea:	f3 1e       	adc	r15, r19
        object->byteField[x]=data[x+OFF_BYTEFLDS];
    }

    //Find out where all of the strings begin and how long they are
    offset += OFF_STRINGFLDS;
    for(uint8_t x=0; x<STRING_FIELDS_LEN; ++x){
    23ec:	d3 94       	inc	r13
    23ee:	0e 5f       	subi	r16, 0xFE	; 254
    23f0:	1f 4f       	sbci	r17, 0xFF	; 255
    23f2:	ff ef       	ldi	r31, 0xFF	; 255
    23f4:	af 1a       	sub	r10, r31
    23f6:	bf 0a       	sbc	r11, r31
    23f8:	47 e0       	ldi	r20, 0x07	; 7
    23fa:	d4 12       	cpse	r13, r20
    23fc:	cc cf       	rjmp	.-104    	; 0x2396 <PopulateObject+0x70>
        }
        
        //Determine string start location for next field
        offset += parStr;
    }    
}
    23fe:	2c 96       	adiw	r28, 0x0c	; 12
    2400:	cd bf       	out	0x3d, r28	; 61
    2402:	de bf       	out	0x3e, r29	; 62
    2404:	df 91       	pop	r29
    2406:	cf 91       	pop	r28
    2408:	1f 91       	pop	r17
    240a:	0f 91       	pop	r16
    240c:	ff 90       	pop	r15
    240e:	ef 90       	pop	r14
    2410:	df 90       	pop	r13
    2412:	bf 90       	pop	r11
    2414:	af 90       	pop	r10
    2416:	08 95       	ret

00002418 <CheckLetter>:

//Check if the entered letter corresponds with a name
uint8_t CheckLetter(uint16_t object, uint8_t letter){
    2418:	cf 92       	push	r12
    241a:	df 92       	push	r13
    241c:	ef 92       	push	r14
    241e:	ff 92       	push	r15
    2420:	0f 93       	push	r16
    2422:	1f 93       	push	r17
    2424:	cf 93       	push	r28
    2426:	df 93       	push	r29
    2428:	cd b7       	in	r28, 0x3d	; 61
    242a:	de b7       	in	r29, 0x3e	; 62
    242c:	a0 97       	sbiw	r28, 0x20	; 32
    242e:	cd bf       	out	0x3d, r28	; 61
    2430:	de bf       	out	0x3e, r29	; 62
    2432:	c6 2e       	mov	r12, r22
    
    uint8_t found = 0;
    uint8_t data[32];

    object += L_BOILER;
    2434:	7c 01       	movw	r14, r24
    2436:	20 e2       	ldi	r18, 0x20	; 32
    2438:	e2 0e       	add	r14, r18
    243a:	f1 1c       	adc	r15, r1
    ExtEERead(object+OFF_STRINGFLDS, 2, GAME, &data[0]);
    243c:	9e 01       	movw	r18, r28
    243e:	2f 5f       	subi	r18, 0xFF	; 255
    2440:	3f 4f       	sbci	r19, 0xFF	; 255
    2442:	40 e0       	ldi	r20, 0x00	; 0
    2444:	62 e0       	ldi	r22, 0x02	; 2
    2446:	8c 96       	adiw	r24, 0x2c	; 44
    2448:	0e 94 97 08 	call	0x112e	; 0x112e <ExtEERead>
    uint8_t x = data[1]; //Assuming a name is not longer than 255 characters.
    244c:	1a 81       	ldd	r17, Y+2	; 0x02
}

//Check if the entered letter corresponds with a name
uint8_t CheckLetter(uint16_t object, uint8_t letter){
    
    uint8_t found = 0;
    244e:	d1 2c       	mov	r13, r1

    object += L_BOILER;
    ExtEERead(object+OFF_STRINGFLDS, 2, GAME, &data[0]);
    uint8_t x = data[1]; //Assuming a name is not longer than 255 characters.

    while (x){
    2450:	11 23       	and	r17, r17
    2452:	59 f1       	breq	.+86     	; 0x24aa <CheckLetter+0x92>
    2454:	01 2f       	mov	r16, r17
    2456:	11 32       	cpi	r17, 0x21	; 33
    2458:	08 f0       	brcs	.+2      	; 0x245c <CheckLetter+0x44>
    245a:	00 e2       	ldi	r16, 0x20	; 32
        uint8_t max;
        if (x>32) max = 32; else max = x;
        ExtEERead(object+OFF_STRINGFLDS+2, max, GAME, &data[0]);
    245c:	9e 01       	movw	r18, r28
    245e:	2f 5f       	subi	r18, 0xFF	; 255
    2460:	3f 4f       	sbci	r19, 0xFF	; 255
    2462:	40 e0       	ldi	r20, 0x00	; 0
    2464:	60 2f       	mov	r22, r16
    2466:	c7 01       	movw	r24, r14
    2468:	0e 96       	adiw	r24, 0x0e	; 14
    246a:	0e 94 97 08 	call	0x112e	; 0x112e <ExtEERead>
    246e:	fe 01       	movw	r30, r28
    2470:	31 96       	adiw	r30, 0x01	; 1
        for (uint8_t y=0; y<max; ++y){
    2472:	80 e0       	ldi	r24, 0x00	; 0
            if (found){
    2474:	dd 20       	and	r13, r13
    2476:	61 f0       	breq	.+24     	; 0x2490 <CheckLetter+0x78>
                if ((data[y]|0x20) == letter) return 1; else return 0;
    2478:	e1 e0       	ldi	r30, 0x01	; 1
    247a:	f0 e0       	ldi	r31, 0x00	; 0
    247c:	ec 0f       	add	r30, r28
    247e:	fd 1f       	adc	r31, r29
    2480:	e8 0f       	add	r30, r24
    2482:	f1 1d       	adc	r31, r1
    2484:	90 81       	ld	r25, Z
    2486:	90 62       	ori	r25, 0x20	; 32
    2488:	81 e0       	ldi	r24, 0x01	; 1
    248a:	9c 11       	cpse	r25, r12
    248c:	0e c0       	rjmp	.+28     	; 0x24aa <CheckLetter+0x92>
    248e:	0e c0       	rjmp	.+28     	; 0x24ac <CheckLetter+0x94>
            }
            if (data[y] == '[') found = 1;
    2490:	91 91       	ld	r25, Z+
    2492:	dd 24       	eor	r13, r13
    2494:	d3 94       	inc	r13
    2496:	9b 35       	cpi	r25, 0x5B	; 91
    2498:	09 f0       	breq	.+2      	; 0x249c <CheckLetter+0x84>
    249a:	d1 2c       	mov	r13, r1

    while (x){
        uint8_t max;
        if (x>32) max = 32; else max = x;
        ExtEERead(object+OFF_STRINGFLDS+2, max, GAME, &data[0]);
        for (uint8_t y=0; y<max; ++y){
    249c:	8f 5f       	subi	r24, 0xFF	; 255
    249e:	80 17       	cp	r24, r16
    24a0:	48 f3       	brcs	.-46     	; 0x2474 <CheckLetter+0x5c>
            if (found){
                if ((data[y]|0x20) == letter) return 1; else return 0;
            }
            if (data[y] == '[') found = 1;
        }
        object += max;
    24a2:	e0 0e       	add	r14, r16
    24a4:	f1 1c       	adc	r15, r1
        x -= max;
    24a6:	10 1b       	sub	r17, r16
    24a8:	d3 cf       	rjmp	.-90     	; 0x2450 <CheckLetter+0x38>
    }
    return 0;
    24aa:	80 e0       	ldi	r24, 0x00	; 0
}
    24ac:	a0 96       	adiw	r28, 0x20	; 32
    24ae:	cd bf       	out	0x3d, r28	; 61
    24b0:	de bf       	out	0x3e, r29	; 62
    24b2:	df 91       	pop	r29
    24b4:	cf 91       	pop	r28
    24b6:	1f 91       	pop	r17
    24b8:	0f 91       	pop	r16
    24ba:	ff 90       	pop	r15
    24bc:	ef 90       	pop	r14
    24be:	df 90       	pop	r13
    24c0:	cf 90       	pop	r12
    24c2:	08 95       	ret

000024c4 <FindChild>:

//Returns the child's address if the child is visible and the search letter matches
uint16_t FindChild(uint16_t parent, uint8_t letter, uint16_t start){
    24c4:	af 92       	push	r10
    24c6:	bf 92       	push	r11
    24c8:	df 92       	push	r13
    24ca:	ef 92       	push	r14
    24cc:	ff 92       	push	r15
    24ce:	0f 93       	push	r16
    24d0:	1f 93       	push	r17
    24d2:	cf 93       	push	r28
    24d4:	df 93       	push	r29
    24d6:	00 d0       	rcall	.+0      	; 0x24d8 <FindChild+0x14>
    24d8:	00 d0       	rcall	.+0      	; 0x24da <FindChild+0x16>
    24da:	cd b7       	in	r28, 0x3d	; 61
    24dc:	de b7       	in	r29, 0x3e	; 62
    24de:	d6 2e       	mov	r13, r22
    24e0:	5a 01       	movw	r10, r20
    
    uint16_t child = parent;
    uint8_t data[4];

    ExtEERead(child+L_BOILER, 4, GAME, &data[0]);
    24e2:	9e 01       	movw	r18, r28
    24e4:	2f 5f       	subi	r18, 0xFF	; 255
    24e6:	3f 4f       	sbci	r19, 0xFF	; 255
    24e8:	40 e0       	ldi	r20, 0x00	; 0
    24ea:	64 e0       	ldi	r22, 0x04	; 4
    24ec:	80 96       	adiw	r24, 0x20	; 32
    24ee:	0e 94 97 08 	call	0x112e	; 0x112e <ExtEERead>
    24f2:	e9 80       	ldd	r14, Y+1	; 0x01
    24f4:	fa 80       	ldd	r15, Y+2	; 0x02
    24f6:	fe 24       	eor	r15, r14
    24f8:	ef 24       	eor	r14, r15
    24fa:	fe 24       	eor	r15, r14
    24fc:	0b 81       	ldd	r16, Y+3	; 0x03
    24fe:	1c 81       	ldd	r17, Y+4	; 0x04
    2500:	10 27       	eor	r17, r16
    2502:	01 27       	eor	r16, r17
    2504:	10 27       	eor	r17, r16
    parent = (data[0]<<8|data[1]);    //Next object on parent level
    child =  (data[2]<<8|data[3]);    //First object on child level

    //As long as the child is within the parent's range
    while (parent>child){
    2506:	0e 15       	cp	r16, r14
    2508:	1f 05       	cpc	r17, r15
    250a:	48 f5       	brcc	.+82     	; 0x255e <FindChild+0x9a>

        //If child's address is higher than the start address, perform search for letter
        if (child>start){
    250c:	a0 16       	cp	r10, r16
    250e:	b1 06       	cpc	r11, r17
    2510:	60 f0       	brcs	.+24     	; 0x252a <FindChild+0x66>
                if ((letter == 0)||(CheckLetter(child, letter))) return child;
            }
        }

        //Not visible or name not right
        ExtEERead(child+L_BOILER, 2, GAME, &data[0]);
    2512:	9e 01       	movw	r18, r28
    2514:	2f 5f       	subi	r18, 0xFF	; 255
    2516:	3f 4f       	sbci	r19, 0xFF	; 255
    2518:	40 e0       	ldi	r20, 0x00	; 0
    251a:	62 e0       	ldi	r22, 0x02	; 2
    251c:	c8 01       	movw	r24, r16
    251e:	80 96       	adiw	r24, 0x20	; 32
    2520:	0e 94 97 08 	call	0x112e	; 0x112e <ExtEERead>
    2524:	09 81       	ldd	r16, Y+1	; 0x01
    2526:	1a 81       	ldd	r17, Y+2	; 0x02
    2528:	eb cf       	rjmp	.-42     	; 0x2500 <FindChild+0x3c>
    //As long as the child is within the parent's range
    while (parent>child){

        //If child's address is higher than the start address, perform search for letter
        if (child>start){
            ExtEERead(child+OFF_BYTEFLDS+VISIBLE_ACL+L_BOILER, 1, GAME, &data[0]);
    252a:	9e 01       	movw	r18, r28
    252c:	2f 5f       	subi	r18, 0xFF	; 255
    252e:	3f 4f       	sbci	r19, 0xFF	; 255
    2530:	40 e0       	ldi	r20, 0x00	; 0
    2532:	61 e0       	ldi	r22, 0x01	; 1
    2534:	c8 01       	movw	r24, r16
    2536:	85 96       	adiw	r24, 0x25	; 37
    2538:	0e 94 97 08 	call	0x112e	; 0x112e <ExtEERead>
            if ((data[0] == 0)||(CheckState(data[0]))) {
    253c:	89 81       	ldd	r24, Y+1	; 0x01
    253e:	81 11       	cpse	r24, r1
    2540:	03 c0       	rjmp	.+6      	; 0x2548 <FindChild+0x84>
                if ((letter == 0)||(CheckLetter(child, letter))) return child;
    2542:	d1 10       	cpse	r13, r1
    2544:	06 c0       	rjmp	.+12     	; 0x2552 <FindChild+0x8e>
    2546:	0e c0       	rjmp	.+28     	; 0x2564 <FindChild+0xa0>
    while (parent>child){

        //If child's address is higher than the start address, perform search for letter
        if (child>start){
            ExtEERead(child+OFF_BYTEFLDS+VISIBLE_ACL+L_BOILER, 1, GAME, &data[0]);
            if ((data[0] == 0)||(CheckState(data[0]))) {
    2548:	0e 94 65 0a 	call	0x14ca	; 0x14ca <CheckState>
    254c:	81 11       	cpse	r24, r1
    254e:	f9 cf       	rjmp	.-14     	; 0x2542 <FindChild+0x7e>
    2550:	e0 cf       	rjmp	.-64     	; 0x2512 <FindChild+0x4e>
                if ((letter == 0)||(CheckLetter(child, letter))) return child;
    2552:	6d 2d       	mov	r22, r13
    2554:	c8 01       	movw	r24, r16
    2556:	60 df       	rcall	.-320    	; 0x2418 <CheckLetter>
    2558:	88 23       	and	r24, r24
    255a:	d9 f2       	breq	.-74     	; 0x2512 <FindChild+0x4e>
    255c:	03 c0       	rjmp	.+6      	; 0x2564 <FindChild+0xa0>

        //Not visible or name not right
        ExtEERead(child+L_BOILER, 2, GAME, &data[0]);
        child = (data[0]<<8|data[1]);    //Next object on child level
        
    } return 0;
    255e:	80 e0       	ldi	r24, 0x00	; 0
    2560:	90 e0       	ldi	r25, 0x00	; 0
    2562:	01 c0       	rjmp	.+2      	; 0x2566 <FindChild+0xa2>
    2564:	c8 01       	movw	r24, r16
}
    2566:	24 96       	adiw	r28, 0x04	; 4
    2568:	cd bf       	out	0x3d, r28	; 61
    256a:	de bf       	out	0x3e, r29	; 62
    256c:	df 91       	pop	r29
    256e:	cf 91       	pop	r28
    2570:	1f 91       	pop	r17
    2572:	0f 91       	pop	r16
    2574:	ff 90       	pop	r15
    2576:	ef 90       	pop	r14
    2578:	df 90       	pop	r13
    257a:	bf 90       	pop	r11
    257c:	af 90       	pop	r10
    257e:	08 95       	ret

00002580 <InpOkChk>:

//Allow only a(A) to z(Z) and 0 to 9 as input
uint8_t InpOkChk(uint8_t test){
    test |= 0x20;
    2580:	80 62       	ori	r24, 0x20	; 32
    if ((test>='a')&&(test<='z')) return 1;
    2582:	9f e9       	ldi	r25, 0x9F	; 159
    2584:	98 0f       	add	r25, r24
    2586:	9a 31       	cpi	r25, 0x1A	; 26
    2588:	38 f0       	brcs	.+14     	; 0x2598 <InpOkChk+0x18>
    258a:	90 ed       	ldi	r25, 0xD0	; 208
    258c:	98 0f       	add	r25, r24
    258e:	81 e0       	ldi	r24, 0x01	; 1
    2590:	9a 30       	cpi	r25, 0x0A	; 10
    2592:	18 f0       	brcs	.+6      	; 0x259a <InpOkChk+0x1a>
    2594:	80 e0       	ldi	r24, 0x00	; 0
    2596:	08 95       	ret
    2598:	81 e0       	ldi	r24, 0x01	; 1
    if ((test>='0')&&(test<='9')) return 1;
    return 0;
}
    259a:	08 95       	ret

0000259c <CleanInput>:

//Cleans input of garbage and returns length of cleaned input "o->d2  !\0" becomes "od2\0"
uint8_t CleanInput(uint8_t *data){
    259c:	0f 93       	push	r16
    259e:	1f 93       	push	r17
    25a0:	cf 93       	push	r28
    25a2:	df 93       	push	r29
    25a4:	8c 01       	movw	r16, r24
    uint8_t cnt = 0;
    for (uint8_t x=0; data[x]!=0; ++x){
    25a6:	d0 e0       	ldi	r29, 0x00	; 0
    return 0;
}

//Cleans input of garbage and returns length of cleaned input "o->d2  !\0" becomes "od2\0"
uint8_t CleanInput(uint8_t *data){
    uint8_t cnt = 0;
    25a8:	c0 e0       	ldi	r28, 0x00	; 0
    for (uint8_t x=0; data[x]!=0; ++x){
    25aa:	f8 01       	movw	r30, r16
    25ac:	ed 0f       	add	r30, r29
    25ae:	f1 1d       	adc	r31, r1
    25b0:	20 81       	ld	r18, Z
    25b2:	8c 2f       	mov	r24, r28
    25b4:	90 e0       	ldi	r25, 0x00	; 0
    25b6:	22 23       	and	r18, r18
    25b8:	51 f0       	breq	.+20     	; 0x25ce <CleanInput+0x32>
        data[cnt] = data[x];
    25ba:	d8 01       	movw	r26, r16
    25bc:	a8 0f       	add	r26, r24
    25be:	b9 1f       	adc	r27, r25
    25c0:	2c 93       	st	X, r18
        if (InpOkChk(data[x])) ++cnt;
    25c2:	80 81       	ld	r24, Z
    25c4:	dd df       	rcall	.-70     	; 0x2580 <InpOkChk>
    25c6:	81 11       	cpse	r24, r1
    25c8:	cf 5f       	subi	r28, 0xFF	; 255
}

//Cleans input of garbage and returns length of cleaned input "o->d2  !\0" becomes "od2\0"
uint8_t CleanInput(uint8_t *data){
    uint8_t cnt = 0;
    for (uint8_t x=0; data[x]!=0; ++x){
    25ca:	df 5f       	subi	r29, 0xFF	; 255
    25cc:	ee cf       	rjmp	.-36     	; 0x25aa <CleanInput+0xe>
        data[cnt] = data[x];
        if (InpOkChk(data[x])) ++cnt;
    }
    data[cnt] = 0;
    25ce:	f8 01       	movw	r30, r16
    25d0:	e8 0f       	add	r30, r24
    25d2:	f9 1f       	adc	r31, r25
    25d4:	10 82       	st	Z, r1
    return cnt;
}
    25d6:	8c 2f       	mov	r24, r28
    25d8:	df 91       	pop	r29
    25da:	cf 91       	pop	r28
    25dc:	1f 91       	pop	r17
    25de:	0f 91       	pop	r16
    25e0:	08 95       	ret

000025e2 <CheckSend>:

//Send routine, optimized for low memory usage
uint8_t CheckSend(){
    25e2:	cf 93       	push	r28
    static uint8_t txPart;
    uint8_t EEreadLength=0;

    //Play effects if available and not already playing
    if (effect == 0){
    25e4:	80 91 3c 38 	lds	r24, 0x383C	; 0x80383c <effect>
    25e8:	90 91 3d 38 	lds	r25, 0x383D	; 0x80383d <effect+0x1>
    25ec:	89 2b       	or	r24, r25
    25ee:	99 f4       	brne	.+38     	; 0x2616 <CheckSend+0x34>
        effect = currObj.byteField[EFFECTS];
    25f0:	80 91 21 3a 	lds	r24, 0x3A21	; 0x803a21 <currObj+0x4>
    25f4:	90 e0       	ldi	r25, 0x00	; 0
    25f6:	80 93 3c 38 	sts	0x383C, r24	; 0x80383c <effect>
    25fa:	90 93 3d 38 	sts	0x383D, r25	; 0x80383d <effect+0x1>
        auStart = ((effect&0xE0)>0);
    25fe:	80 91 3c 38 	lds	r24, 0x383C	; 0x80383c <effect>
    2602:	90 91 3d 38 	lds	r25, 0x383D	; 0x80383d <effect+0x1>
    2606:	80 7e       	andi	r24, 0xE0	; 224
    2608:	99 27       	eor	r25, r25
    260a:	21 e0       	ldi	r18, 0x01	; 1
    260c:	89 2b       	or	r24, r25
    260e:	09 f4       	brne	.+2      	; 0x2612 <CheckSend+0x30>
    2610:	20 e0       	ldi	r18, 0x00	; 0
    2612:	20 93 3b 38 	sts	0x383B, r18	; 0x80383b <auStart>
    }

    //Check if more string(part)s have to be sent to the serial output if previous send operation is completed
    if ((txAddrNow < TXLISTLEN) && serTxDone){
    2616:	20 91 49 3a 	lds	r18, 0x3A49	; 0x803a49 <txAddrNow>
    261a:	28 30       	cpi	r18, 0x08	; 8
    261c:	08 f0       	brcs	.+2      	; 0x2620 <CheckSend+0x3e>
    261e:	49 c0       	rjmp	.+146    	; 0x26b2 <CheckSend+0xd0>
    2620:	80 91 09 38 	lds	r24, 0x3809	; 0x803809 <serTxDone>
    2624:	88 23       	and	r24, r24
    2626:	09 f4       	brne	.+2      	; 0x262a <CheckSend+0x48>
    2628:	44 c0       	rjmp	.+136    	; 0x26b2 <CheckSend+0xd0>
        if (txStrLen[txAddrNow] == 0){
    262a:	82 2f       	mov	r24, r18
    262c:	90 e0       	ldi	r25, 0x00	; 0
    262e:	fc 01       	movw	r30, r24
    2630:	e6 5b       	subi	r30, 0xB6	; 182
    2632:	f5 4c       	sbci	r31, 0xC5	; 197
    2634:	e0 81       	ld	r30, Z
    2636:	e1 11       	cpse	r30, r1
    2638:	06 c0       	rjmp	.+12     	; 0x2646 <CheckSend+0x64>
            txPart = 0;
    263a:	10 92 08 39 	sts	0x3908, r1	; 0x803908 <txPart.3937>
            txAddrNow = TXLISTLEN;
    263e:	88 e0       	ldi	r24, 0x08	; 8
    2640:	80 93 49 3a 	sts	0x3A49, r24	; 0x803a49 <txAddrNow>
    2644:	2e c0       	rjmp	.+92     	; 0x26a2 <CheckSend+0xc0>
        } else if (txPart < txStrLen[txAddrNow]){
    2646:	50 91 08 39 	lds	r21, 0x3908	; 0x803908 <txPart.3937>
    264a:	5e 17       	cp	r21, r30
    264c:	60 f5       	brcc	.+88     	; 0x26a6 <CheckSend+0xc4>
            EEreadLength = txStrLen[txAddrNow]-txPart;
    264e:	ce 2f       	mov	r28, r30
    2650:	c5 1b       	sub	r28, r21
    2652:	c1 32       	cpi	r28, 0x21	; 33
    2654:	08 f0       	brcs	.+2      	; 0x2658 <CheckSend+0x76>
    2656:	c0 e2       	ldi	r28, 0x20	; 32
            if (EEreadLength>=TXLEN) EEreadLength = TXLEN-1;
            ExtEERead(txAddrList[txAddrNow]+txPart, EEreadLength, txTypeNow, &txBuffer[0]);
    2658:	88 0f       	add	r24, r24
    265a:	99 1f       	adc	r25, r25
    265c:	fc 01       	movw	r30, r24
    265e:	ee 5a       	subi	r30, 0xAE	; 174
    2660:	f5 4c       	sbci	r31, 0xC5	; 197
    2662:	80 81       	ld	r24, Z
    2664:	91 81       	ldd	r25, Z+1	; 0x01
    2666:	2b ef       	ldi	r18, 0xFB	; 251
    2668:	3a e3       	ldi	r19, 0x3A	; 58
    266a:	40 91 48 3a 	lds	r20, 0x3A48	; 0x803a48 <txTypeNow>
    266e:	6c 2f       	mov	r22, r28
    2670:	85 0f       	add	r24, r21
    2672:	91 1d       	adc	r25, r1
    2674:	0e 94 97 08 	call	0x112e	; 0x112e <ExtEERead>
            txPart += EEreadLength;
    2678:	80 91 08 39 	lds	r24, 0x3908	; 0x803908 <txPart.3937>
    267c:	8c 0f       	add	r24, r28
    267e:	80 93 08 39 	sts	0x3908, r24	; 0x803908 <txPart.3937>
            txBuffer[EEreadLength] = 0; //Add string terminator after piece to send to plug memory leak
    2682:	ec 2f       	mov	r30, r28
    2684:	f0 e0       	ldi	r31, 0x00	; 0
    2686:	e5 50       	subi	r30, 0x05	; 5
    2688:	f5 4c       	sbci	r31, 0xC5	; 197
    268a:	10 82       	st	Z, r1
            if ((txBuffer[0] == 0) && (EEreadLength)) txBuffer[0] = 0xDB; //Block character when data wrong.
    268c:	80 91 fb 3a 	lds	r24, 0x3AFB	; 0x803afb <txBuffer>
    2690:	81 11       	cpse	r24, r1
    2692:	03 c0       	rjmp	.+6      	; 0x269a <CheckSend+0xb8>
    2694:	8b ed       	ldi	r24, 0xDB	; 219
    2696:	80 93 fb 3a 	sts	0x3AFB, r24	; 0x803afb <txBuffer>
            SerSend(&txBuffer[0]);
    269a:	8b ef       	ldi	r24, 0xFB	; 251
    269c:	9a e3       	ldi	r25, 0x3A	; 58
    269e:	0e 94 c9 08 	call	0x1192	; 0x1192 <SerSend>
        } else {
            txPart = 0;
            ++txAddrNow;
        }
    } else if (serTxDone) return 0; //All is sent!
    return 1; //Still sending, do not change the data in the tx variables
    26a2:	81 e0       	ldi	r24, 0x01	; 1
    26a4:	0b c0       	rjmp	.+22     	; 0x26bc <CheckSend+0xda>
            txPart += EEreadLength;
            txBuffer[EEreadLength] = 0; //Add string terminator after piece to send to plug memory leak
            if ((txBuffer[0] == 0) && (EEreadLength)) txBuffer[0] = 0xDB; //Block character when data wrong.
            SerSend(&txBuffer[0]);
        } else {
            txPart = 0;
    26a6:	10 92 08 39 	sts	0x3908, r1	; 0x803908 <txPart.3937>
            ++txAddrNow;
    26aa:	2f 5f       	subi	r18, 0xFF	; 255
    26ac:	20 93 49 3a 	sts	0x3A49, r18	; 0x803a49 <txAddrNow>
    26b0:	f8 cf       	rjmp	.-16     	; 0x26a2 <CheckSend+0xc0>
        }
    } else if (serTxDone) return 0; //All is sent!
    26b2:	90 91 09 38 	lds	r25, 0x3809	; 0x803809 <serTxDone>
    26b6:	81 e0       	ldi	r24, 0x01	; 1
    26b8:	91 11       	cpse	r25, r1
    26ba:	80 e0       	ldi	r24, 0x00	; 0
    return 1; //Still sending, do not change the data in the tx variables
}
    26bc:	cf 91       	pop	r28
    26be:	08 95       	ret

000026c0 <CheckResponse>:

//Send another part of the response and play the effect afterwards
uint8_t CheckResponse(){
    26c0:	cf 93       	push	r28
    26c2:	df 93       	push	r29
    static uint8_t number = 0;
    if (responseList){
    26c4:	c0 91 1c 39 	lds	r28, 0x391C	; 0x80391c <responseList>
    26c8:	cc 23       	and	r28, r28
    26ca:	e9 f1       	breq	.+122    	; 0x2746 <CheckResponse+0x86>
        --responseList;
    26cc:	c1 50       	subi	r28, 0x01	; 1
    26ce:	c0 93 1c 39 	sts	0x391C, r28	; 0x80391c <responseList>
        if (reactStr[0][number] == CURR_LOC) {
    26d2:	d0 91 07 39 	lds	r29, 0x3907	; 0x803907 <number.3941>
    26d6:	2d 2f       	mov	r18, r29
    26d8:	30 e0       	ldi	r19, 0x00	; 0
    26da:	f9 01       	movw	r30, r18
    26dc:	ee 0f       	add	r30, r30
    26de:	ff 1f       	adc	r31, r31
    26e0:	e3 5e       	subi	r30, 0xE3	; 227
    26e2:	f6 4c       	sbci	r31, 0xC6	; 198
    26e4:	80 81       	ld	r24, Z
    26e6:	91 81       	ldd	r25, Z+1	; 0x01
    26e8:	80 3f       	cpi	r24, 0xF0	; 240
    26ea:	4f ef       	ldi	r20, 0xFF	; 255
    26ec:	94 07       	cpc	r25, r20
    26ee:	51 f4       	brne	.+20     	; 0x2704 <CheckResponse+0x44>
            PrepareSending(currObj.addrStr[NAME], currObj.lenStr[NAME], GAME);
    26f0:	60 91 37 3a 	lds	r22, 0x3A37	; 0x803a37 <currObj+0x1a>
    26f4:	70 91 38 3a 	lds	r23, 0x3A38	; 0x803a38 <currObj+0x1b>
    26f8:	40 e0       	ldi	r20, 0x00	; 0
    26fa:	80 91 29 3a 	lds	r24, 0x3A29	; 0x803a29 <currObj+0xc>
    26fe:	90 91 2a 3a 	lds	r25, 0x3A2A	; 0x803a2a <currObj+0xd>
    2702:	0d c0       	rjmp	.+26     	; 0x271e <CheckResponse+0x5e>
        } else {
            PrepareSending(reactStr[0][number], reactStr[1][number], reactStr[2][number]);
    2704:	d9 01       	movw	r26, r18
    2706:	aa 0f       	add	r26, r26
    2708:	bb 1f       	adc	r27, r27
    270a:	a3 56       	subi	r26, 0x63	; 99
    270c:	b6 4c       	sbci	r27, 0xC6	; 198
    270e:	22 0f       	add	r18, r18
    2710:	33 1f       	adc	r19, r19
    2712:	f9 01       	movw	r30, r18
    2714:	e3 5a       	subi	r30, 0xA3	; 163
    2716:	f6 4c       	sbci	r31, 0xC6	; 198
    2718:	60 81       	ld	r22, Z
    271a:	71 81       	ldd	r23, Z+1	; 0x01
    271c:	4c 91       	ld	r20, X
    271e:	4a dd       	rcall	.-1388   	; 0x21b4 <PrepareSending>
        }
        ++number;
    2720:	df 5f       	subi	r29, 0xFF	; 255
    2722:	d0 93 07 39 	sts	0x3907, r29	; 0x803907 <number.3941>

        if (responseList == 0) {
    2726:	c1 11       	cpse	r28, r1
    2728:	0d c0       	rjmp	.+26     	; 0x2744 <CheckResponse+0x84>
            effect = currObj.byteField[EFFECTS];
    272a:	80 91 21 3a 	lds	r24, 0x3A21	; 0x803a21 <currObj+0x4>
    272e:	90 e0       	ldi	r25, 0x00	; 0
    2730:	80 93 3c 38 	sts	0x383C, r24	; 0x80383c <effect>
    2734:	90 93 3d 38 	sts	0x383D, r25	; 0x80383d <effect+0x1>
            RXCNT = 0;
    2738:	1d ba       	out	0x1d, r1	; 29
            serRxDone = 0;
    273a:	10 92 46 38 	sts	0x3846, r1	; 0x803846 <serRxDone>
            number = 0;
    273e:	10 92 07 39 	sts	0x3907, r1	; 0x803907 <number.3941>
    2742:	01 c0       	rjmp	.+2      	; 0x2746 <CheckResponse+0x86>
            return 0;
        }
        return 1;
    2744:	c1 e0       	ldi	r28, 0x01	; 1
    }
    return 0;
}
    2746:	8c 2f       	mov	r24, r28
    2748:	df 91       	pop	r29
    274a:	cf 91       	pop	r28
    274c:	08 95       	ret

0000274e <CheckInput>:

//User input check (and validation)
uint8_t CheckInput(uint8_t *data){
    274e:	3f 92       	push	r3
    2750:	4f 92       	push	r4
    2752:	5f 92       	push	r5
    2754:	6f 92       	push	r6
    2756:	7f 92       	push	r7
    2758:	8f 92       	push	r8
    275a:	9f 92       	push	r9
    275c:	af 92       	push	r10
    275e:	bf 92       	push	r11
    2760:	cf 92       	push	r12
    2762:	df 92       	push	r13
    2764:	ef 92       	push	r14
    2766:	ff 92       	push	r15
    2768:	0f 93       	push	r16
    276a:	1f 93       	push	r17
    276c:	cf 93       	push	r28
    276e:	df 93       	push	r29
    2770:	cd b7       	in	r28, 0x3d	; 61
    2772:	de b7       	in	r29, 0x3e	; 62
    2774:	a1 97       	sbiw	r28, 0x21	; 33
    2776:	cd bf       	out	0x3d, r28	; 61
    2778:	de bf       	out	0x3e, r29	; 62
    277a:	8c 01       	movw	r16, r24
    
    //Load game data after reboot
    if (currDepth == 0xff) {
    277c:	80 91 2e 38 	lds	r24, 0x382E	; 0x80382e <currDepth>
    2780:	8f 3f       	cpi	r24, 0xFF	; 255
    2782:	49 f4       	brne	.+18     	; 0x2796 <CheckInput+0x48>
        //Start at first location
        PopulateObject(route[0], &currObj);
    2784:	6d e1       	ldi	r22, 0x1D	; 29
    2786:	7a e3       	ldi	r23, 0x3A	; 58
    2788:	80 91 dd 39 	lds	r24, 0x39DD	; 0x8039dd <route>
    278c:	90 91 de 39 	lds	r25, 0x39DE	; 0x8039de <route+0x1>
    2790:	ca dd       	rcall	.-1132   	; 0x2326 <PopulateObject>
        currDepth = 0;
    2792:	10 92 2e 38 	sts	0x382E, r1	; 0x80382e <currDepth>
    }

    if (serRxDone){
    2796:	80 91 46 38 	lds	r24, 0x3846	; 0x803846 <serRxDone>
    279a:	88 23       	and	r24, r24
    279c:	09 f4       	brne	.+2      	; 0x27a0 <CheckInput+0x52>
    279e:	60 c2       	rjmp	.+1216   	; 0x2c60 <CheckInput+0x512>

        //Special input requested from user by game
        if (specialInput[0]){
    27a0:	80 91 0c 39 	lds	r24, 0x390C	; 0x80390c <specialInput>
    27a4:	88 23       	and	r24, r24
    27a6:	09 f4       	brne	.+2      	; 0x27aa <CheckInput+0x5c>
    27a8:	57 c0       	rjmp	.+174    	; 0x2858 <CheckInput+0x10a>
            specialPassed = 0;
    27aa:	10 92 0b 39 	sts	0x390B, r1	; 0x80390b <specialPassed>
            data[0] = 'a';
    27ae:	81 e6       	ldi	r24, 0x61	; 97
    27b0:	f8 01       	movw	r30, r16
    27b2:	80 83       	st	Z, r24
            
            //Normal code challenge
            if (StartsWith((uint8_t *)&serRx[0], &specialInput[0])) {
    27b4:	6c e0       	ldi	r22, 0x0C	; 12
    27b6:	79 e3       	ldi	r23, 0x39	; 57
    27b8:	87 e7       	ldi	r24, 0x77	; 119
    27ba:	9a e3       	ldi	r25, 0x3A	; 58
    27bc:	e1 dc       	rcall	.-1598   	; 0x2180 <StartsWith>
    27be:	f8 2e       	mov	r15, r24
    27c0:	88 23       	and	r24, r24
    27c2:	21 f0       	breq	.+8      	; 0x27cc <CheckInput+0x7e>
                specialPassed = 1;
    27c4:	81 e0       	ldi	r24, 0x01	; 1
    27c6:	80 93 0b 39 	sts	0x390B, r24	; 0x80390b <specialPassed>
    27ca:	04 c0       	rjmp	.+8      	; 0x27d4 <CheckInput+0x86>
                //specialInput[0] = 0;
                //data[1] = 0;

            //Special challenge 1
            } else if ((specialInput[0] == '1')&&(specialInput[2] == 0)) {
    27cc:	80 91 0c 39 	lds	r24, 0x390C	; 0x80390c <specialInput>
    27d0:	81 33       	cpi	r24, 0x31	; 49
    27d2:	11 f0       	breq	.+4      	; 0x27d8 <CheckInput+0x8a>
                responseList = 32;
                return 1;
            }
        } 
        //Data received, but not any of the commands above
        return 0;
    27d4:	f1 2c       	mov	r15, r1
    27d6:	46 c2       	rjmp	.+1164   	; 0x2c64 <CheckInput+0x516>
                specialPassed = 1;
                //specialInput[0] = 0;
                //data[1] = 0;

            //Special challenge 1
            } else if ((specialInput[0] == '1')&&(specialInput[2] == 0)) {
    27d8:	80 91 0e 39 	lds	r24, 0x390E	; 0x80390e <specialInput+0x2>
    27dc:	81 11       	cpse	r24, r1
    27de:	fa cf       	rjmp	.-12     	; 0x27d4 <CheckInput+0x86>
                uint8_t inputLen = CleanInput((uint8_t *)&serRx[0]);
    27e0:	87 e7       	ldi	r24, 0x77	; 119
    27e2:	9a e3       	ldi	r25, 0x3A	; 58
    27e4:	db de       	rcall	.-586    	; 0x259c <CleanInput>
                specialPassed = 2;
    27e6:	92 e0       	ldi	r25, 0x02	; 2
    27e8:	90 93 0b 39 	sts	0x390B, r25	; 0x80390b <specialPassed>
                data[1] = 0;
    27ec:	f8 01       	movw	r30, r16
    27ee:	11 82       	std	Z+1, r1	; 0x01

                if (inputLen >= 2) {
    27f0:	82 30       	cpi	r24, 0x02	; 2
    27f2:	80 f3       	brcs	.-32     	; 0x27d4 <CheckInput+0x86>
                    if ((serRx[0] == '1')||(serRx[0] == '2')||(serRx[0] == '3')||(serRx[0] == '4')) {
    27f4:	80 91 77 3a 	lds	r24, 0x3A77	; 0x803a77 <serRx>
    27f8:	81 33       	cpi	r24, 0x31	; 49
    27fa:	61 f0       	breq	.+24     	; 0x2814 <CheckInput+0xc6>
    27fc:	80 91 77 3a 	lds	r24, 0x3A77	; 0x803a77 <serRx>
    2800:	82 33       	cpi	r24, 0x32	; 50
    2802:	41 f0       	breq	.+16     	; 0x2814 <CheckInput+0xc6>
    2804:	80 91 77 3a 	lds	r24, 0x3A77	; 0x803a77 <serRx>
    2808:	83 33       	cpi	r24, 0x33	; 51
    280a:	21 f0       	breq	.+8      	; 0x2814 <CheckInput+0xc6>
    280c:	80 91 77 3a 	lds	r24, 0x3A77	; 0x803a77 <serRx>
    2810:	84 33       	cpi	r24, 0x34	; 52
    2812:	01 f7       	brne	.-64     	; 0x27d4 <CheckInput+0x86>
                        serRx[1] |= 0x20;
    2814:	80 91 78 3a 	lds	r24, 0x3A78	; 0x803a78 <serRx+0x1>
    2818:	80 62       	ori	r24, 0x20	; 32
    281a:	80 93 78 3a 	sts	0x3A78, r24	; 0x803a78 <serRx+0x1>
                        if ((serRx[1] == 'a')||(serRx[1] == 'e')||(serRx[1] == 'f')||(serRx[1] == 'w')) {
    281e:	80 91 78 3a 	lds	r24, 0x3A78	; 0x803a78 <serRx+0x1>
    2822:	81 36       	cpi	r24, 0x61	; 97
    2824:	61 f0       	breq	.+24     	; 0x283e <CheckInput+0xf0>
    2826:	80 91 78 3a 	lds	r24, 0x3A78	; 0x803a78 <serRx+0x1>
    282a:	85 36       	cpi	r24, 0x65	; 101
    282c:	41 f0       	breq	.+16     	; 0x283e <CheckInput+0xf0>
    282e:	80 91 78 3a 	lds	r24, 0x3A78	; 0x803a78 <serRx+0x1>
    2832:	86 36       	cpi	r24, 0x66	; 102
    2834:	21 f0       	breq	.+8      	; 0x283e <CheckInput+0xf0>
    2836:	80 91 78 3a 	lds	r24, 0x3A78	; 0x803a78 <serRx+0x1>
    283a:	87 37       	cpi	r24, 0x77	; 119
    283c:	59 f6       	brne	.-106    	; 0x27d4 <CheckInput+0x86>
                            data[1] = specialInput[1]+0x11;
    283e:	80 91 0d 39 	lds	r24, 0x390D	; 0x80390d <specialInput+0x1>
    2842:	8f 5e       	subi	r24, 0xEF	; 239
    2844:	f8 01       	movw	r30, r16
    2846:	81 83       	std	Z+1, r24	; 0x01
                            data[2] = serRx[0];
    2848:	80 91 77 3a 	lds	r24, 0x3A77	; 0x803a77 <serRx>
    284c:	82 83       	std	Z+2, r24	; 0x02
                            data[3] = serRx[1];
    284e:	80 91 78 3a 	lds	r24, 0x3A78	; 0x803a78 <serRx+0x1>
    2852:	83 83       	std	Z+3, r24	; 0x03
                            data[4] = 0;
    2854:	14 82       	std	Z+4, r1	; 0x04
    2856:	06 c2       	rjmp	.+1036   	; 0x2c64 <CheckInput+0x516>
        
        //Normal input
        } else {

            //Change status bit
            if ((serRx[0] == '#')&&(RXCNT == 6)){
    2858:	80 91 77 3a 	lds	r24, 0x3A77	; 0x803a77 <serRx>
    285c:	83 32       	cpi	r24, 0x23	; 35
    285e:	89 f5       	brne	.+98     	; 0x28c2 <CheckInput+0x174>
    2860:	8d b3       	in	r24, 0x1d	; 29
    2862:	86 30       	cpi	r24, 0x06	; 6
    2864:	71 f5       	brne	.+92     	; 0x28c2 <CheckInput+0x174>
    2866:	81 e0       	ldi	r24, 0x01	; 1
    2868:	90 e0       	ldi	r25, 0x00	; 0
    286a:	10 e0       	ldi	r17, 0x00	; 0
                uint8_t bitNr = 0;

                for (uint8_t x=1; x<4; ++x) {
                    serRx[x] -= '0';
    286c:	fc 01       	movw	r30, r24
    286e:	e9 58       	subi	r30, 0x89	; 137
    2870:	f5 4c       	sbci	r31, 0xC5	; 197
    2872:	20 81       	ld	r18, Z
    2874:	20 53       	subi	r18, 0x30	; 48
    2876:	20 83       	st	Z, r18
                    bitNr *= 10;
    2878:	11 0f       	add	r17, r17
    287a:	21 2f       	mov	r18, r17
    287c:	22 0f       	add	r18, r18
    287e:	22 0f       	add	r18, r18
    2880:	12 0f       	add	r17, r18
                    if (serRx[1] > 2) break;
    2882:	20 91 78 3a 	lds	r18, 0x3A78	; 0x803a78 <serRx+0x1>
    2886:	23 30       	cpi	r18, 0x03	; 3
    2888:	48 f4       	brcc	.+18     	; 0x289c <CheckInput+0x14e>
                    if (serRx[x] < 10) {
    288a:	20 81       	ld	r18, Z
    288c:	2a 30       	cpi	r18, 0x0A	; 10
    288e:	b8 f4       	brcc	.+46     	; 0x28be <CheckInput+0x170>
                        bitNr += serRx[x];
    2890:	20 81       	ld	r18, Z
    2892:	12 0f       	add	r17, r18
    2894:	01 96       	adiw	r24, 0x01	; 1

            //Change status bit
            if ((serRx[0] == '#')&&(RXCNT == 6)){
                uint8_t bitNr = 0;

                for (uint8_t x=1; x<4; ++x) {
    2896:	84 30       	cpi	r24, 0x04	; 4
    2898:	91 05       	cpc	r25, r1
    289a:	41 f7       	brne	.-48     	; 0x286c <CheckInput+0x11e>
                        continue;
                    }
                    bitNr = 0;
                    break;
                }
                if ((bitNr)&&(bitNr!=128)) {
    289c:	81 2f       	mov	r24, r17
    289e:	8f 77       	andi	r24, 0x7F	; 127
    28a0:	71 f0       	breq	.+28     	; 0x28be <CheckInput+0x170>
                    if (Cheat(0xff-bitNr, serRx[4]<<8|serRx[5])) UpdateState(bitNr);
    28a2:	80 91 7b 3a 	lds	r24, 0x3A7B	; 0x803a7b <serRx+0x4>
    28a6:	60 91 7c 3a 	lds	r22, 0x3A7C	; 0x803a7c <serRx+0x5>
    28aa:	70 e0       	ldi	r23, 0x00	; 0
    28ac:	78 2b       	or	r23, r24
    28ae:	81 2f       	mov	r24, r17
    28b0:	80 95       	com	r24
    28b2:	11 dc       	rcall	.-2014   	; 0x20d6 <Cheat>
    28b4:	88 23       	and	r24, r24
    28b6:	19 f0       	breq	.+6      	; 0x28be <CheckInput+0x170>
    28b8:	81 2f       	mov	r24, r17
    28ba:	0e 94 5b 0a 	call	0x14b6	; 0x14b6 <UpdateState>
                }
                responseList = SetStandardResponse(0);
    28be:	80 e0       	ldi	r24, 0x00	; 0
    28c0:	50 c0       	rjmp	.+160    	; 0x2962 <CheckInput+0x214>
    28c2:	d8 01       	movw	r26, r16
    28c4:	80 e0       	ldi	r24, 0x00	; 0
    28c6:	90 e0       	ldi	r25, 0x00	; 0
                return 1;            
            }
            
            //Read up to the \0 character and convert to lower case.
            for (uint8_t x=0; x<RXLEN; ++x){
                if ((serRx[x]<'A')||(serRx[x]>'Z')) data[x]=serRx[x]; else data[x]=serRx[x]|0x20;
    28c8:	fc 01       	movw	r30, r24
    28ca:	e9 58       	subi	r30, 0x89	; 137
    28cc:	f5 4c       	sbci	r31, 0xC5	; 197
    28ce:	20 81       	ld	r18, Z
    28d0:	21 34       	cpi	r18, 0x41	; 65
    28d2:	18 f0       	brcs	.+6      	; 0x28da <CheckInput+0x18c>
    28d4:	20 81       	ld	r18, Z
    28d6:	2b 35       	cpi	r18, 0x5B	; 91
    28d8:	10 f0       	brcs	.+4      	; 0x28de <CheckInput+0x190>
    28da:	20 81       	ld	r18, Z
    28dc:	02 c0       	rjmp	.+4      	; 0x28e2 <CheckInput+0x194>
    28de:	20 81       	ld	r18, Z
    28e0:	20 62       	ori	r18, 0x20	; 32
    28e2:	2c 93       	st	X, r18
                if (serRx[x] == 0) {
    28e4:	20 81       	ld	r18, Z
    28e6:	21 11       	cpse	r18, r1
    28e8:	05 c0       	rjmp	.+10     	; 0x28f4 <CheckInput+0x1a6>
                    data[x] = 0;
    28ea:	f8 01       	movw	r30, r16
    28ec:	e8 0f       	add	r30, r24
    28ee:	f1 1d       	adc	r31, r1
    28f0:	10 82       	st	Z, r1
                    break;
    28f2:	05 c0       	rjmp	.+10     	; 0x28fe <CheckInput+0x1b0>
    28f4:	01 96       	adiw	r24, 0x01	; 1
    28f6:	11 96       	adiw	r26, 0x01	; 1
                responseList = SetStandardResponse(0);
                return 1;            
            }
            
            //Read up to the \0 character and convert to lower case.
            for (uint8_t x=0; x<RXLEN; ++x){
    28f8:	81 34       	cpi	r24, 0x41	; 65
    28fa:	91 05       	cpc	r25, r1
    28fc:	29 f7       	brne	.-54     	; 0x28c8 <CheckInput+0x17a>
                    break;
                }
            }

            //No text
            if (serRx[0] == 0){
    28fe:	80 91 77 3a 	lds	r24, 0x3A77	; 0x803a77 <serRx>
                data[0] = 0;
    2902:	f8 01       	movw	r30, r16
                    break;
                }
            }

            //No text
            if (serRx[0] == 0){
    2904:	81 11       	cpse	r24, r1
    2906:	05 c0       	rjmp	.+10     	; 0x2912 <CheckInput+0x1c4>
                data[0] = 0;
    2908:	10 82       	st	Z, r1
                RXCNT = 0;
    290a:	1d ba       	out	0x1d, r1	; 29
                serRxDone = 0;
    290c:	10 92 46 38 	sts	0x3846, r1	; 0x803846 <serRxDone>
    2910:	a7 c1       	rjmp	.+846    	; 0x2c60 <CheckInput+0x512>
                return 1;
            }

            //Help text
            if ((data[0] == '?')||(data[0] == 'h')){
    2912:	80 81       	ld	r24, Z
    2914:	8f 33       	cpi	r24, 0x3F	; 63
    2916:	11 f0       	breq	.+4      	; 0x291c <CheckInput+0x1ce>
    2918:	88 36       	cpi	r24, 0x68	; 104
    291a:	39 f5       	brne	.+78     	; 0x296a <CheckInput+0x21c>
    return 0;
}

//
void SetResponse(uint8_t number, uint16_t address, uint16_t length, uint8_t type){
    reactStr[0][number]=address;
    291c:	89 e5       	ldi	r24, 0x59	; 89
    291e:	9a e7       	ldi	r25, 0x7A	; 122
    2920:	80 93 1d 39 	sts	0x391D, r24	; 0x80391d <reactStr>
    2924:	90 93 1e 39 	sts	0x391E, r25	; 0x80391e <reactStr+0x1>
    reactStr[1][number]=length;
    2928:	84 e0       	ldi	r24, 0x04	; 4
    292a:	90 e0       	ldi	r25, 0x00	; 0
    292c:	80 93 5d 39 	sts	0x395D, r24	; 0x80395d <reactStr+0x40>
    2930:	90 93 5e 39 	sts	0x395E, r25	; 0x80395e <reactStr+0x41>
    reactStr[2][number]=type;
    2934:	81 e0       	ldi	r24, 0x01	; 1
    2936:	90 e0       	ldi	r25, 0x00	; 0
    2938:	80 93 9d 39 	sts	0x399D, r24	; 0x80399d <reactStr+0x80>
    293c:	90 93 9e 39 	sts	0x399E, r25	; 0x80399e <reactStr+0x81>
    return 0;
}

//
void SetResponse(uint8_t number, uint16_t address, uint16_t length, uint8_t type){
    reactStr[0][number]=address;
    2940:	23 e9       	ldi	r18, 0x93	; 147
    2942:	3b e7       	ldi	r19, 0x7B	; 123
    2944:	20 93 1f 39 	sts	0x391F, r18	; 0x80391f <reactStr+0x2>
    2948:	30 93 20 39 	sts	0x3920, r19	; 0x803920 <reactStr+0x3>
    reactStr[1][number]=length;
    294c:	2d e6       	ldi	r18, 0x6D	; 109
    294e:	34 e0       	ldi	r19, 0x04	; 4
    2950:	20 93 5f 39 	sts	0x395F, r18	; 0x80395f <reactStr+0x42>
    2954:	30 93 60 39 	sts	0x3960, r19	; 0x803960 <reactStr+0x43>
    reactStr[2][number]=type;
    2958:	80 93 9f 39 	sts	0x399F, r24	; 0x80399f <reactStr+0x82>
    295c:	90 93 a0 39 	sts	0x39A0, r25	; 0x8039a0 <reactStr+0x83>

            //Help text
            if ((data[0] == '?')||(data[0] == 'h')){
                SetResponse(0, A_LF, 4, TEASER);
                SetResponse(1, A_HELP, L_HELP, TEASER);
                responseList = SetStandardResponse(2);
    2960:	82 e0       	ldi	r24, 0x02	; 2
    2962:	65 dc       	rcall	.-1846   	; 0x222e <SetStandardResponse>
    2964:	80 93 1c 39 	sts	0x391C, r24	; 0x80391c <responseList>
    2968:	7b c1       	rjmp	.+758    	; 0x2c60 <CheckInput+0x512>
                return 1;
            }        
        
            //Alphabet text
            if (data[0] == 'a'){
    296a:	81 36       	cpi	r24, 0x61	; 97
    296c:	d9 f4       	brne	.+54     	; 0x29a4 <CheckInput+0x256>
    return 0;
}

//
void SetResponse(uint8_t number, uint16_t address, uint16_t length, uint8_t type){
    reactStr[0][number]=address;
    296e:	89 e5       	ldi	r24, 0x59	; 89
    2970:	9a e7       	ldi	r25, 0x7A	; 122
    2972:	80 93 1d 39 	sts	0x391D, r24	; 0x80391d <reactStr>
    2976:	90 93 1e 39 	sts	0x391E, r25	; 0x80391e <reactStr+0x1>
    reactStr[1][number]=length;
    297a:	84 e0       	ldi	r24, 0x04	; 4
    297c:	90 e0       	ldi	r25, 0x00	; 0
    297e:	80 93 5d 39 	sts	0x395D, r24	; 0x80395d <reactStr+0x40>
    2982:	90 93 5e 39 	sts	0x395E, r25	; 0x80395e <reactStr+0x41>
    reactStr[2][number]=type;
    2986:	81 e0       	ldi	r24, 0x01	; 1
    2988:	90 e0       	ldi	r25, 0x00	; 0
    298a:	80 93 9d 39 	sts	0x399D, r24	; 0x80399d <reactStr+0x80>
    298e:	90 93 9e 39 	sts	0x399E, r25	; 0x80399e <reactStr+0x81>
    return 0;
}

//
void SetResponse(uint8_t number, uint16_t address, uint16_t length, uint8_t type){
    reactStr[0][number]=address;
    2992:	2e e6       	ldi	r18, 0x6E	; 110
    2994:	3a e7       	ldi	r19, 0x7A	; 122
    2996:	20 93 1f 39 	sts	0x391F, r18	; 0x80391f <reactStr+0x2>
    299a:	30 93 20 39 	sts	0x3920, r19	; 0x803920 <reactStr+0x3>
    reactStr[1][number]=length;
    299e:	25 e2       	ldi	r18, 0x25	; 37
    29a0:	31 e0       	ldi	r19, 0x01	; 1
    29a2:	d6 cf       	rjmp	.-84     	; 0x2950 <CheckInput+0x202>
                responseList = SetStandardResponse(2);
                return 1;
            }

            //Whoami text
            if (data[0] == 'w'){
    29a4:	87 37       	cpi	r24, 0x77	; 119
    29a6:	09 f0       	breq	.+2      	; 0x29aa <CheckInput+0x25c>
    29a8:	6e c0       	rjmp	.+220    	; 0x2a86 <CheckInput+0x338>
    return 0;
}

//
void SetResponse(uint8_t number, uint16_t address, uint16_t length, uint8_t type){
    reactStr[0][number]=address;
    29aa:	89 e5       	ldi	r24, 0x59	; 89
    29ac:	9a e7       	ldi	r25, 0x7A	; 122
    29ae:	80 93 1d 39 	sts	0x391D, r24	; 0x80391d <reactStr>
    29b2:	90 93 1e 39 	sts	0x391E, r25	; 0x80391e <reactStr+0x1>
    reactStr[1][number]=length;
    29b6:	84 e0       	ldi	r24, 0x04	; 4
    29b8:	90 e0       	ldi	r25, 0x00	; 0
    29ba:	80 93 5d 39 	sts	0x395D, r24	; 0x80395d <reactStr+0x40>
    29be:	90 93 5e 39 	sts	0x395E, r25	; 0x80395e <reactStr+0x41>
    reactStr[2][number]=type;
    29c2:	21 e0       	ldi	r18, 0x01	; 1
    29c4:	30 e0       	ldi	r19, 0x00	; 0
    29c6:	20 93 9d 39 	sts	0x399D, r18	; 0x80399d <reactStr+0x80>
    29ca:	30 93 9e 39 	sts	0x399E, r19	; 0x80399e <reactStr+0x81>
    return 0;
}

//
void SetResponse(uint8_t number, uint16_t address, uint16_t length, uint8_t type){
    reactStr[0][number]=address;
    29ce:	8d e8       	ldi	r24, 0x8D	; 141
    29d0:	96 e7       	ldi	r25, 0x76	; 118
    29d2:	80 93 1f 39 	sts	0x391F, r24	; 0x80391f <reactStr+0x2>
    29d6:	90 93 20 39 	sts	0x3920, r25	; 0x803920 <reactStr+0x3>
    reactStr[1][number]=length;
    29da:	82 e1       	ldi	r24, 0x12	; 18
    29dc:	90 e0       	ldi	r25, 0x00	; 0
    29de:	80 93 5f 39 	sts	0x395F, r24	; 0x80395f <reactStr+0x42>
    29e2:	90 93 60 39 	sts	0x3960, r25	; 0x803960 <reactStr+0x43>
    reactStr[2][number]=type;
    29e6:	20 93 9f 39 	sts	0x399F, r18	; 0x80399f <reactStr+0x82>
    29ea:	30 93 a0 39 	sts	0x39A0, r19	; 0x8039a0 <reactStr+0x83>

            //Whoami text
            if (data[0] == 'w'){
                SetResponse(0, A_LF, 4, TEASER);
                SetResponse(1, A_HELLO, L_HELLO, TEASER);
                if (whoami == 1) {
    29ee:	80 91 3f 38 	lds	r24, 0x383F	; 0x80383f <whoami>
    29f2:	81 30       	cpi	r24, 0x01	; 1
    29f4:	19 f4       	brne	.+6      	; 0x29fc <CheckInput+0x2ae>
    return 0;
}

//
void SetResponse(uint8_t number, uint16_t address, uint16_t length, uint8_t type){
    reactStr[0][number]=address;
    29f6:	87 e8       	ldi	r24, 0x87	; 135
    29f8:	96 e7       	ldi	r25, 0x76	; 118
    29fa:	0f c0       	rjmp	.+30     	; 0x2a1a <CheckInput+0x2cc>
            if (data[0] == 'w'){
                SetResponse(0, A_LF, 4, TEASER);
                SetResponse(1, A_HELLO, L_HELLO, TEASER);
                if (whoami == 1) {
                    SetResponse(2, A_ANUBIS, L_ANUBIS, TEASER);
                } else if (whoami == 2) {
    29fc:	82 30       	cpi	r24, 0x02	; 2
    29fe:	49 f4       	brne	.+18     	; 0x2a12 <CheckInput+0x2c4>
    return 0;
}

//
void SetResponse(uint8_t number, uint16_t address, uint16_t length, uint8_t type){
    reactStr[0][number]=address;
    2a00:	84 e8       	ldi	r24, 0x84	; 132
    2a02:	96 e7       	ldi	r25, 0x76	; 118
    2a04:	80 93 21 39 	sts	0x3921, r24	; 0x803921 <reactStr+0x4>
    2a08:	90 93 22 39 	sts	0x3922, r25	; 0x803922 <reactStr+0x5>
    reactStr[1][number]=length;
    2a0c:	83 e0       	ldi	r24, 0x03	; 3
    2a0e:	90 e0       	ldi	r25, 0x00	; 0
    2a10:	1e c0       	rjmp	.+60     	; 0x2a4e <CheckInput+0x300>
                SetResponse(1, A_HELLO, L_HELLO, TEASER);
                if (whoami == 1) {
                    SetResponse(2, A_ANUBIS, L_ANUBIS, TEASER);
                } else if (whoami == 2) {
                    SetResponse(2, A_BES, L_BES, TEASER);
                } else if (whoami == 3) {
    2a12:	83 30       	cpi	r24, 0x03	; 3
    2a14:	49 f4       	brne	.+18     	; 0x2a28 <CheckInput+0x2da>
    return 0;
}

//
void SetResponse(uint8_t number, uint16_t address, uint16_t length, uint8_t type){
    reactStr[0][number]=address;
    2a16:	8e e7       	ldi	r24, 0x7E	; 126
    2a18:	96 e7       	ldi	r25, 0x76	; 118
    2a1a:	80 93 21 39 	sts	0x3921, r24	; 0x803921 <reactStr+0x4>
    2a1e:	90 93 22 39 	sts	0x3922, r25	; 0x803922 <reactStr+0x5>
    reactStr[1][number]=length;
    2a22:	86 e0       	ldi	r24, 0x06	; 6
    2a24:	90 e0       	ldi	r25, 0x00	; 0
    2a26:	13 c0       	rjmp	.+38     	; 0x2a4e <CheckInput+0x300>
                    SetResponse(2, A_ANUBIS, L_ANUBIS, TEASER);
                } else if (whoami == 2) {
                    SetResponse(2, A_BES, L_BES, TEASER);
                } else if (whoami == 3) {
                    SetResponse(2, A_KHONSU, L_KHONSU, TEASER);
                } else if (whoami == 4) {
    2a28:	84 30       	cpi	r24, 0x04	; 4
    2a2a:	49 f4       	brne	.+18     	; 0x2a3e <CheckInput+0x2f0>
    return 0;
}

//
void SetResponse(uint8_t number, uint16_t address, uint16_t length, uint8_t type){
    reactStr[0][number]=address;
    2a2c:	89 e7       	ldi	r24, 0x79	; 121
    2a2e:	96 e7       	ldi	r25, 0x76	; 118
    2a30:	80 93 21 39 	sts	0x3921, r24	; 0x803921 <reactStr+0x4>
    2a34:	90 93 22 39 	sts	0x3922, r25	; 0x803922 <reactStr+0x5>
    reactStr[1][number]=length;
    2a38:	85 e0       	ldi	r24, 0x05	; 5
    2a3a:	90 e0       	ldi	r25, 0x00	; 0
    2a3c:	08 c0       	rjmp	.+16     	; 0x2a4e <CheckInput+0x300>
    return 0;
}

//
void SetResponse(uint8_t number, uint16_t address, uint16_t length, uint8_t type){
    reactStr[0][number]=address;
    2a3e:	82 e0       	ldi	r24, 0x02	; 2
    2a40:	96 e7       	ldi	r25, 0x76	; 118
    2a42:	80 93 21 39 	sts	0x3921, r24	; 0x803921 <reactStr+0x4>
    2a46:	90 93 22 39 	sts	0x3922, r25	; 0x803922 <reactStr+0x5>
    reactStr[1][number]=length;
    2a4a:	82 e4       	ldi	r24, 0x42	; 66
    2a4c:	90 e0       	ldi	r25, 0x00	; 0
    2a4e:	80 93 61 39 	sts	0x3961, r24	; 0x803961 <reactStr+0x44>
    2a52:	90 93 62 39 	sts	0x3962, r25	; 0x803962 <reactStr+0x45>
    reactStr[2][number]=type;
    2a56:	20 93 a1 39 	sts	0x39A1, r18	; 0x8039a1 <reactStr+0x84>
    2a5a:	30 93 a2 39 	sts	0x39A2, r19	; 0x8039a2 <reactStr+0x85>
    return 0;
}

//
void SetResponse(uint8_t number, uint16_t address, uint16_t length, uint8_t type){
    reactStr[0][number]=address;
    2a5e:	8f e5       	ldi	r24, 0x5F	; 95
    2a60:	96 e7       	ldi	r25, 0x76	; 118
    2a62:	80 93 23 39 	sts	0x3923, r24	; 0x803923 <reactStr+0x6>
    2a66:	90 93 24 39 	sts	0x3924, r25	; 0x803924 <reactStr+0x7>
    reactStr[1][number]=length;
    2a6a:	8a e1       	ldi	r24, 0x1A	; 26
    2a6c:	90 e0       	ldi	r25, 0x00	; 0
    2a6e:	80 93 63 39 	sts	0x3963, r24	; 0x803963 <reactStr+0x46>
    2a72:	90 93 64 39 	sts	0x3964, r25	; 0x803964 <reactStr+0x47>
    reactStr[2][number]=type;
    2a76:	81 e0       	ldi	r24, 0x01	; 1
    2a78:	90 e0       	ldi	r25, 0x00	; 0
    2a7a:	80 93 a3 39 	sts	0x39A3, r24	; 0x8039a3 <reactStr+0x86>
    2a7e:	90 93 a4 39 	sts	0x39A4, r25	; 0x8039a4 <reactStr+0x87>
                    SetResponse(2, A_THOTH, L_THOTH, TEASER);
                } else {
                    SetResponse(2, A_ERROR, L_ERROR, TEASER);
                }
                SetResponse(3, A_PLEASED, L_PLEASED, TEASER);
                responseList = SetStandardResponse(4);
    2a82:	84 e0       	ldi	r24, 0x04	; 4
    2a84:	6e cf       	rjmp	.-292    	; 0x2962 <CheckInput+0x214>
                return 1;
            }

            //Quit text
            if (data[0] == 'q'){
    2a86:	81 37       	cpi	r24, 0x71	; 113
    2a88:	d9 f4       	brne	.+54     	; 0x2ac0 <CheckInput+0x372>
    return 0;
}

//
void SetResponse(uint8_t number, uint16_t address, uint16_t length, uint8_t type){
    reactStr[0][number]=address;
    2a8a:	89 e5       	ldi	r24, 0x59	; 89
    2a8c:	9a e7       	ldi	r25, 0x7A	; 122
    2a8e:	80 93 1d 39 	sts	0x391D, r24	; 0x80391d <reactStr>
    2a92:	90 93 1e 39 	sts	0x391E, r25	; 0x80391e <reactStr+0x1>
    reactStr[1][number]=length;
    2a96:	84 e0       	ldi	r24, 0x04	; 4
    2a98:	90 e0       	ldi	r25, 0x00	; 0
    2a9a:	80 93 5d 39 	sts	0x395D, r24	; 0x80395d <reactStr+0x40>
    2a9e:	90 93 5e 39 	sts	0x395E, r25	; 0x80395e <reactStr+0x41>
    reactStr[2][number]=type;
    2aa2:	81 e0       	ldi	r24, 0x01	; 1
    2aa4:	90 e0       	ldi	r25, 0x00	; 0
    2aa6:	80 93 9d 39 	sts	0x399D, r24	; 0x80399d <reactStr+0x80>
    2aaa:	90 93 9e 39 	sts	0x399E, r25	; 0x80399e <reactStr+0x81>
    return 0;
}

//
void SetResponse(uint8_t number, uint16_t address, uint16_t length, uint8_t type){
    reactStr[0][number]=address;
    2aae:	20 e0       	ldi	r18, 0x00	; 0
    2ab0:	3a e7       	ldi	r19, 0x7A	; 122
    2ab2:	20 93 1f 39 	sts	0x391F, r18	; 0x80391f <reactStr+0x2>
    2ab6:	30 93 20 39 	sts	0x3920, r19	; 0x803920 <reactStr+0x3>
    reactStr[1][number]=length;
    2aba:	25 e5       	ldi	r18, 0x55	; 85
    2abc:	30 e0       	ldi	r19, 0x00	; 0
                responseList = SetStandardResponse(2);
                return 1;
            }

            //Fake cheat = reset badge!
            if (StartsWith(&data[0], "iddqd")){
    2abe:	48 cf       	rjmp	.-368    	; 0x2950 <CheckInput+0x202>
    2ac0:	64 e4       	ldi	r22, 0x44	; 68
    2ac2:	70 ec       	ldi	r23, 0xC0	; 192
    2ac4:	c8 01       	movw	r24, r16
    2ac6:	5c db       	rcall	.-2376   	; 0x2180 <StartsWith>
    2ac8:	88 23       	and	r24, r24
    2aca:	f9 f0       	breq	.+62     	; 0x2b0a <CheckInput+0x3bc>
    2acc:	1e e6       	ldi	r17, 0x6E	; 110
            
                //Reset game data by wiping the UUID bits
                for (uint8_t x=0; x<4; ++x){
                    WriteStatusBit(110+x, 0);
    2ace:	60 e0       	ldi	r22, 0x00	; 0
    2ad0:	81 2f       	mov	r24, r17
    2ad2:	0e 94 41 0a 	call	0x1482	; 0x1482 <WriteStatusBit>
    2ad6:	1f 5f       	subi	r17, 0xFF	; 255

            //Fake cheat = reset badge!
            if (StartsWith(&data[0], "iddqd")){
            
                //Reset game data by wiping the UUID bits
                for (uint8_t x=0; x<4; ++x){
    2ad8:	12 37       	cpi	r17, 0x72	; 114
    2ada:	c9 f7       	brne	.-14     	; 0x2ace <CheckInput+0x380>
                    WriteStatusBit(110+x, 0);
                }
                SaveGameState();
    2adc:	0e 94 ba 09 	call	0x1374	; 0x1374 <SaveGameState>

                uint8_t cheat[] = "Cheater! Contact badge team... ";
    2ae0:	80 e2       	ldi	r24, 0x20	; 32
    2ae2:	e7 e8       	ldi	r30, 0x87	; 135
    2ae4:	f0 ec       	ldi	r31, 0xC0	; 192
    2ae6:	de 01       	movw	r26, r28
    2ae8:	11 96       	adiw	r26, 0x01	; 1
    2aea:	01 90       	ld	r0, Z+
    2aec:	0d 92       	st	X+, r0
    2aee:	8a 95       	dec	r24
    2af0:	e1 f7       	brne	.-8      	; 0x2aea <CheckInput+0x39c>
                SerSpeed(60);
    2af2:	8c e3       	ldi	r24, 0x3C	; 60
    2af4:	0e 94 da 08 	call	0x11b4	; 0x11b4 <SerSpeed>
                while(1){
                    if (serTxDone) SerSend(&cheat[0]);
    2af8:	80 91 09 38 	lds	r24, 0x3809	; 0x803809 <serTxDone>
    2afc:	88 23       	and	r24, r24
    2afe:	e1 f3       	breq	.-8      	; 0x2af8 <CheckInput+0x3aa>
    2b00:	ce 01       	movw	r24, r28
    2b02:	01 96       	adiw	r24, 0x01	; 1
    2b04:	0e 94 c9 08 	call	0x1192	; 0x1192 <SerSend>
                }
            }
            
            //Cheat reset (Quote from: Donald E. Westlake)
            if (StartsWith(&data[0], "the trouble with real life is, there's no reset button")){
    2b08:	f7 cf       	rjmp	.-18     	; 0x2af8 <CheckInput+0x3aa>
    2b0a:	6a e4       	ldi	r22, 0x4A	; 74
    2b0c:	70 ec       	ldi	r23, 0xC0	; 192
    2b0e:	c8 01       	movw	r24, r16
    2b10:	37 db       	rcall	.-2450   	; 0x2180 <StartsWith>
    2b12:	88 23       	and	r24, r24
    2b14:	61 f1       	breq	.+88     	; 0x2b6e <CheckInput+0x420>
                
                //Reset cheat data by resetting the EEPROM bytes
                uint8_t empty=0xff;
    2b16:	8f ef       	ldi	r24, 0xFF	; 255
    2b18:	89 a3       	std	Y+33, r24	; 0x21
    2b1a:	18 e1       	ldi	r17, 0x18	; 24
                for (uint8_t x=0; x<MAX_CHEATS; ++x){
                    EEWrite(CHEATS+x, &empty, 1);
    2b1c:	41 e0       	ldi	r20, 0x01	; 1
    2b1e:	be 01       	movw	r22, r28
    2b20:	6f 5d       	subi	r22, 0xDF	; 223
    2b22:	7f 4f       	sbci	r23, 0xFF	; 255
    2b24:	81 2f       	mov	r24, r17
    2b26:	0e 94 55 08 	call	0x10aa	; 0x10aa <EEWrite>
    2b2a:	1f 5f       	subi	r17, 0xFF	; 255
            //Cheat reset (Quote from: Donald E. Westlake)
            if (StartsWith(&data[0], "the trouble with real life is, there's no reset button")){
                
                //Reset cheat data by resetting the EEPROM bytes
                uint8_t empty=0xff;
                for (uint8_t x=0; x<MAX_CHEATS; ++x){
    2b2c:	10 32       	cpi	r17, 0x20	; 32
    2b2e:	b1 f7       	brne	.-20     	; 0x2b1c <CheckInput+0x3ce>
    2b30:	1e e6       	ldi	r17, 0x6E	; 110
                    EEWrite(CHEATS+x, &empty, 1);
                }
                //Reset game data by wiping the UUID bits
                for (uint8_t x=0; x<4; ++x){
                    WriteStatusBit(110+x, 0);
    2b32:	60 e0       	ldi	r22, 0x00	; 0
    2b34:	81 2f       	mov	r24, r17
    2b36:	0e 94 41 0a 	call	0x1482	; 0x1482 <WriteStatusBit>
    2b3a:	1f 5f       	subi	r17, 0xFF	; 255
                uint8_t empty=0xff;
                for (uint8_t x=0; x<MAX_CHEATS; ++x){
                    EEWrite(CHEATS+x, &empty, 1);
                }
                //Reset game data by wiping the UUID bits
                for (uint8_t x=0; x<4; ++x){
    2b3c:	12 37       	cpi	r17, 0x72	; 114
    2b3e:	c9 f7       	brne	.-14     	; 0x2b32 <CheckInput+0x3e4>
                    WriteStatusBit(110+x, 0);
                }
                
                SaveGameState();
    2b40:	0e 94 ba 09 	call	0x1374	; 0x1374 <SaveGameState>

                uint8_t cheat[] = "Reset please! ";
    2b44:	8f e0       	ldi	r24, 0x0F	; 15
    2b46:	e7 ea       	ldi	r30, 0xA7	; 167
    2b48:	f0 ec       	ldi	r31, 0xC0	; 192
    2b4a:	de 01       	movw	r26, r28
    2b4c:	11 96       	adiw	r26, 0x01	; 1
    2b4e:	01 90       	ld	r0, Z+
    2b50:	0d 92       	st	X+, r0
    2b52:	8a 95       	dec	r24
    2b54:	e1 f7       	brne	.-8      	; 0x2b4e <CheckInput+0x400>
                SerSpeed(60);
    2b56:	8c e3       	ldi	r24, 0x3C	; 60
    2b58:	0e 94 da 08 	call	0x11b4	; 0x11b4 <SerSpeed>
                while(1){
                    if (serTxDone) SerSend(&cheat[0]);
    2b5c:	80 91 09 38 	lds	r24, 0x3809	; 0x803809 <serTxDone>
    2b60:	88 23       	and	r24, r24
    2b62:	e1 f3       	breq	.-8      	; 0x2b5c <CheckInput+0x40e>
    2b64:	ce 01       	movw	r24, r28
    2b66:	01 96       	adiw	r24, 0x01	; 1
    2b68:	0e 94 c9 08 	call	0x1192	; 0x1192 <SerSend>
                }
            }

            //Show used cheat codes
            if (StartsWith(&data[0], "cheat")){
    2b6c:	f7 cf       	rjmp	.-18     	; 0x2b5c <CheckInput+0x40e>
    2b6e:	61 e8       	ldi	r22, 0x81	; 129
    2b70:	70 ec       	ldi	r23, 0xC0	; 192
    2b72:	c8 01       	movw	r24, r16
    2b74:	05 db       	rcall	.-2550   	; 0x2180 <StartsWith>
    2b76:	88 23       	and	r24, r24
    2b78:	09 f4       	brne	.+2      	; 0x2b7c <CheckInput+0x42e>
    2b7a:	2c ce       	rjmp	.-936    	; 0x27d4 <CheckInput+0x86>
    2b7c:	8d e1       	ldi	r24, 0x1D	; 29
    2b7e:	c8 2e       	mov	r12, r24
    2b80:	89 e3       	ldi	r24, 0x39	; 57
    2b82:	d8 2e       	mov	r13, r24
    2b84:	9d e5       	ldi	r25, 0x5D	; 93
    2b86:	e9 2e       	mov	r14, r25
    2b88:	99 e3       	ldi	r25, 0x39	; 57
    2b8a:	f9 2e       	mov	r15, r25
    2b8c:	0d e9       	ldi	r16, 0x9D	; 157
    2b8e:	19 e3       	ldi	r17, 0x39	; 57
    2b90:	28 e1       	ldi	r18, 0x18	; 24
    2b92:	32 2e       	mov	r3, r18
    return 0;
}

//
void SetResponse(uint8_t number, uint16_t address, uint16_t length, uint8_t type){
    reactStr[0][number]=address;
    2b94:	3d e9       	ldi	r19, 0x9D	; 157
    2b96:	63 2e       	mov	r6, r19
    2b98:	34 e7       	ldi	r19, 0x74	; 116
    2b9a:	73 2e       	mov	r7, r19
    reactStr[1][number]=length;
    2b9c:	42 e0       	ldi	r20, 0x02	; 2
    2b9e:	84 2e       	mov	r8, r20
    2ba0:	91 2c       	mov	r9, r1
    reactStr[2][number]=type;
    2ba2:	aa 24       	eor	r10, r10
    2ba4:	a3 94       	inc	r10
    2ba6:	b1 2c       	mov	r11, r1
    return 0;
}

//
void SetResponse(uint8_t number, uint16_t address, uint16_t length, uint8_t type){
    reactStr[0][number]=address;
    2ba8:	67 e5       	ldi	r22, 0x57	; 87
    2baa:	46 2e       	mov	r4, r22
    2bac:	6a e7       	ldi	r22, 0x7A	; 122
    2bae:	56 2e       	mov	r5, r22
            if (StartsWith(&data[0], "cheat")){
                uint8_t bit;
                for (uint8_t x=0; x<MAX_CHEATS; ++x){
                    
                    //Set up sending out number
                    EERead(CHEATS+x, &bit, 1);
    2bb0:	41 e0       	ldi	r20, 0x01	; 1
    2bb2:	be 01       	movw	r22, r28
    2bb4:	6f 5f       	subi	r22, 0xFF	; 255
    2bb6:	7f 4f       	sbci	r23, 0xFF	; 255
    2bb8:	83 2d       	mov	r24, r3
    2bba:	0e 94 45 08 	call	0x108a	; 0x108a <EERead>
                    bit = 0xff-bit;
    2bbe:	89 81       	ldd	r24, Y+1	; 0x01
    2bc0:	80 95       	com	r24
    2bc2:	89 83       	std	Y+1, r24	; 0x01
    return 0;
}

//
void SetResponse(uint8_t number, uint16_t address, uint16_t length, uint8_t type){
    reactStr[0][number]=address;
    2bc4:	f6 01       	movw	r30, r12
    2bc6:	60 82       	st	Z, r6
    2bc8:	71 82       	std	Z+1, r7	; 0x01
    reactStr[1][number]=length;
    2bca:	f7 01       	movw	r30, r14
    2bcc:	80 82       	st	Z, r8
    2bce:	91 82       	std	Z+1, r9	; 0x01
    reactStr[2][number]=type;
    2bd0:	f8 01       	movw	r30, r16
    2bd2:	a0 82       	st	Z, r10
    2bd4:	b1 82       	std	Z+1, r11	; 0x01
    return 0;
}

//
void SetResponse(uint8_t number, uint16_t address, uint16_t length, uint8_t type){
    reactStr[0][number]=address;
    2bd6:	28 2f       	mov	r18, r24
    2bd8:	22 95       	swap	r18
    2bda:	2f 70       	andi	r18, 0x0F	; 15
    2bdc:	30 e0       	ldi	r19, 0x00	; 0
    2bde:	23 57       	subi	r18, 0x73	; 115
    2be0:	3b 48       	sbci	r19, 0x8B	; 139
    2be2:	f6 01       	movw	r30, r12
    2be4:	22 83       	std	Z+2, r18	; 0x02
    2be6:	33 83       	std	Z+3, r19	; 0x03
    reactStr[1][number]=length;
    2be8:	f7 01       	movw	r30, r14
    2bea:	a2 82       	std	Z+2, r10	; 0x02
    2bec:	b3 82       	std	Z+3, r11	; 0x03
    reactStr[2][number]=type;
    2bee:	f8 01       	movw	r30, r16
    2bf0:	a2 82       	std	Z+2, r10	; 0x02
    2bf2:	b3 82       	std	Z+3, r11	; 0x03
    return 0;
}

//
void SetResponse(uint8_t number, uint16_t address, uint16_t length, uint8_t type){
    reactStr[0][number]=address;
    2bf4:	8f 70       	andi	r24, 0x0F	; 15
    2bf6:	90 e0       	ldi	r25, 0x00	; 0
    2bf8:	83 57       	subi	r24, 0x73	; 115
    2bfa:	9b 48       	sbci	r25, 0x8B	; 139
    2bfc:	f6 01       	movw	r30, r12
    2bfe:	84 83       	std	Z+4, r24	; 0x04
    2c00:	95 83       	std	Z+5, r25	; 0x05
    reactStr[1][number]=length;
    2c02:	f7 01       	movw	r30, r14
    2c04:	a4 82       	std	Z+4, r10	; 0x04
    2c06:	b5 82       	std	Z+5, r11	; 0x05
    reactStr[2][number]=type;
    2c08:	f8 01       	movw	r30, r16
    2c0a:	a4 82       	std	Z+4, r10	; 0x04
    2c0c:	b5 82       	std	Z+5, r11	; 0x05
    return 0;
}

//
void SetResponse(uint8_t number, uint16_t address, uint16_t length, uint8_t type){
    reactStr[0][number]=address;
    2c0e:	f6 01       	movw	r30, r12
    2c10:	46 82       	std	Z+6, r4	; 0x06
    2c12:	57 82       	std	Z+7, r5	; 0x07
    reactStr[1][number]=length;
    2c14:	f7 01       	movw	r30, r14
    2c16:	86 82       	std	Z+6, r8	; 0x06
    2c18:	97 82       	std	Z+7, r9	; 0x07
    reactStr[2][number]=type;
    2c1a:	f8 01       	movw	r30, r16
    2c1c:	a6 82       	std	Z+6, r10	; 0x06
    2c1e:	b7 82       	std	Z+7, r11	; 0x07
    2c20:	33 94       	inc	r3
    2c22:	f8 e0       	ldi	r31, 0x08	; 8
    2c24:	cf 0e       	add	r12, r31
    2c26:	d1 1c       	adc	r13, r1
    2c28:	88 e0       	ldi	r24, 0x08	; 8
    2c2a:	e8 0e       	add	r14, r24
    2c2c:	f1 1c       	adc	r15, r1
    2c2e:	08 5f       	subi	r16, 0xF8	; 248
    2c30:	1f 4f       	sbci	r17, 0xFF	; 255
            }

            //Show used cheat codes
            if (StartsWith(&data[0], "cheat")){
                uint8_t bit;
                for (uint8_t x=0; x<MAX_CHEATS; ++x){
    2c32:	e0 e2       	ldi	r30, 0x20	; 32
    2c34:	3e 12       	cpse	r3, r30
    2c36:	bc cf       	rjmp	.-136    	; 0x2bb0 <CheckInput+0x462>
    return 0;
}

//
void SetResponse(uint8_t number, uint16_t address, uint16_t length, uint8_t type){
    reactStr[0][number]=address;
    2c38:	89 e5       	ldi	r24, 0x59	; 89
    2c3a:	9a e7       	ldi	r25, 0x7A	; 122
    2c3c:	80 93 5b 39 	sts	0x395B, r24	; 0x80395b <reactStr+0x3e>
    2c40:	90 93 5c 39 	sts	0x395C, r25	; 0x80395c <reactStr+0x3f>
    reactStr[1][number]=length;
    2c44:	84 e0       	ldi	r24, 0x04	; 4
    2c46:	90 e0       	ldi	r25, 0x00	; 0
    2c48:	80 93 9b 39 	sts	0x399B, r24	; 0x80399b <reactStr+0x7e>
    2c4c:	90 93 9c 39 	sts	0x399C, r25	; 0x80399c <reactStr+0x7f>
    reactStr[2][number]=type;
    2c50:	81 e0       	ldi	r24, 0x01	; 1
    2c52:	90 e0       	ldi	r25, 0x00	; 0
    2c54:	80 93 db 39 	sts	0x39DB, r24	; 0x8039db <reactStr+0xbe>
    2c58:	90 93 dc 39 	sts	0x39DC, r25	; 0x8039dc <reactStr+0xbf>
                    SetResponse(x*4+1, A_DIGITS+(bit>>4), 1, TEASER);               
                    SetResponse(x*4+2, A_DIGITS+(bit%16), 1, TEASER);
                    SetResponse(x*4+3, A_COMMA, L_COMMA, TEASER);
                }
                SetResponse((4*MAX_CHEATS)-1, A_LF, 4, TEASER);
                responseList = 32;
    2c5c:	30 92 1c 39 	sts	0x391C, r3	; 0x80391c <responseList>
        //Data received, but not any of the commands above
        return 0;
    }

    //Serial input not available yet
    return 1;
    2c60:	ff 24       	eor	r15, r15
    2c62:	f3 94       	inc	r15
}
    2c64:	8f 2d       	mov	r24, r15
    2c66:	a1 96       	adiw	r28, 0x21	; 33
    2c68:	cd bf       	out	0x3d, r28	; 61
    2c6a:	de bf       	out	0x3e, r29	; 62
    2c6c:	df 91       	pop	r29
    2c6e:	cf 91       	pop	r28
    2c70:	1f 91       	pop	r17
    2c72:	0f 91       	pop	r16
    2c74:	ff 90       	pop	r15
    2c76:	ef 90       	pop	r14
    2c78:	df 90       	pop	r13
    2c7a:	cf 90       	pop	r12
    2c7c:	bf 90       	pop	r11
    2c7e:	af 90       	pop	r10
    2c80:	9f 90       	pop	r9
    2c82:	8f 90       	pop	r8
    2c84:	7f 90       	pop	r7
    2c86:	6f 90       	pop	r6
    2c88:	5f 90       	pop	r5
    2c8a:	4f 90       	pop	r4
    2c8c:	3f 90       	pop	r3
    2c8e:	08 95       	ret

00002c90 <ProcessInput>:

//The game logic!
uint8_t ProcessInput(uint8_t *data){
    2c90:	5f 92       	push	r5
    2c92:	6f 92       	push	r6
    2c94:	7f 92       	push	r7
    2c96:	8f 92       	push	r8
    2c98:	9f 92       	push	r9
    2c9a:	af 92       	push	r10
    2c9c:	bf 92       	push	r11
    2c9e:	cf 92       	push	r12
    2ca0:	df 92       	push	r13
    2ca2:	ef 92       	push	r14
    2ca4:	ff 92       	push	r15
    2ca6:	0f 93       	push	r16
    2ca8:	1f 93       	push	r17
    2caa:	cf 93       	push	r28
    2cac:	df 93       	push	r29
    2cae:	cd b7       	in	r28, 0x3d	; 61
    2cb0:	de b7       	in	r29, 0x3e	; 62
    2cb2:	28 97       	sbiw	r28, 0x08	; 8
    2cb4:	cd bf       	out	0x3d, r28	; 61
    2cb6:	de bf       	out	0x3e, r29	; 62
    2cb8:	8c 01       	movw	r16, r24
    static object_model_t actObj1, actObj2;
    uint8_t elements = 1;

    CleanInput(&data[0]);
    2cba:	70 dc       	rcall	.-1824   	; 0x259c <CleanInput>
    uint8_t inputLen = CleanInput(&data[0]);
    2cbc:	c8 01       	movw	r24, r16
    2cbe:	6e dc       	rcall	.-1828   	; 0x259c <CleanInput>
    2cc0:	f8 2e       	mov	r15, r24

    if (inputLen) {
    2cc2:	88 23       	and	r24, r24
    2cc4:	11 f4       	brne	.+4      	; 0x2cca <ProcessInput+0x3a>
    2cc6:	0c 94 65 1e 	jmp	0x3cca	; 0x3cca <ProcessInput+0x103a>

        //eXit to previous location
        if (data[0] == 'x'){
    2cca:	d8 01       	movw	r26, r16
    2ccc:	8c 91       	ld	r24, X
    2cce:	88 37       	cpi	r24, 0x78	; 120
    2cd0:	09 f0       	breq	.+2      	; 0x2cd4 <ProcessInput+0x44>
    2cd2:	45 c0       	rjmp	.+138    	; 0x2d5e <ProcessInput+0xce>

            //Standing in the Lobby?
            if ((route[currDepth] == 0)||(currDepth == 0)){
    2cd4:	80 91 2e 38 	lds	r24, 0x382E	; 0x80382e <currDepth>
    2cd8:	e8 2f       	mov	r30, r24
    2cda:	f0 e0       	ldi	r31, 0x00	; 0
    2cdc:	ee 0f       	add	r30, r30
    2cde:	ff 1f       	adc	r31, r31
    2ce0:	e3 52       	subi	r30, 0x23	; 35
    2ce2:	f6 4c       	sbci	r31, 0xC6	; 198
    2ce4:	20 81       	ld	r18, Z
    2ce6:	31 81       	ldd	r19, Z+1	; 0x01
    2ce8:	23 2b       	or	r18, r19
    2cea:	11 f0       	breq	.+4      	; 0x2cf0 <ProcessInput+0x60>
    2cec:	81 11       	cpse	r24, r1
    2cee:	03 c0       	rjmp	.+6      	; 0x2cf6 <ProcessInput+0x66>
    return 0;
}

//
void SetResponse(uint8_t number, uint16_t address, uint16_t length, uint8_t type){
    reactStr[0][number]=address;
    2cf0:	84 e4       	ldi	r24, 0x44	; 68
    2cf2:	96 e7       	ldi	r25, 0x76	; 118
    2cf4:	a5 c5       	rjmp	.+2890   	; 0x3840 <ProcessInput+0xbb0>
            //Standing in the Lobby?
            if ((route[currDepth] == 0)||(currDepth == 0)){
                SetResponse(elements++, A_NOTPOSSIBLE, L_NOTPOSSIBLE, TEASER);
            
            //Is there a way to go back?
            } else if (CheckState(currObj.byteField[OPEN_ACL])){
    2cf6:	80 91 23 3a 	lds	r24, 0x3A23	; 0x803a23 <currObj+0x6>
    2cfa:	0e 94 65 0a 	call	0x14ca	; 0x14ca <CheckState>
    2cfe:	88 23       	and	r24, r24
    2d00:	b9 f0       	breq	.+46     	; 0x2d30 <ProcessInput+0xa0>
                --currDepth;
    2d02:	e0 91 2e 38 	lds	r30, 0x382E	; 0x80382e <currDepth>
    2d06:	e1 50       	subi	r30, 0x01	; 1
    2d08:	e0 93 2e 38 	sts	0x382E, r30	; 0x80382e <currDepth>
                PopulateObject(route[currDepth], &currObj);
    2d0c:	f0 e0       	ldi	r31, 0x00	; 0
    2d0e:	ee 0f       	add	r30, r30
    2d10:	ff 1f       	adc	r31, r31
    2d12:	e3 52       	subi	r30, 0x23	; 35
    2d14:	f6 4c       	sbci	r31, 0xC6	; 198
    2d16:	6d e1       	ldi	r22, 0x1D	; 29
    2d18:	7a e3       	ldi	r23, 0x3A	; 58
    2d1a:	80 81       	ld	r24, Z
    2d1c:	91 81       	ldd	r25, Z+1	; 0x01
    2d1e:	03 db       	rcall	.-2554   	; 0x2326 <PopulateObject>
                effect = currObj.byteField[EFFECTS];
    2d20:	80 91 21 3a 	lds	r24, 0x3A21	; 0x803a21 <currObj+0x4>
    2d24:	90 e0       	ldi	r25, 0x00	; 0
    2d26:	80 93 3c 38 	sts	0x383C, r24	; 0x80383c <effect>
    2d2a:	90 93 3d 38 	sts	0x383D, r25	; 0x80383d <effect+0x1>
    2d2e:	31 c2       	rjmp	.+1122   	; 0x3192 <ProcessInput+0x502>
            
            //No way out, print denied message of location
            } else {
                SetResponse(elements++, currObj.addrStr[OPEN_ACL_MSG], currObj.lenStr[OPEN_ACL_MSG], GAME);
    2d30:	80 91 3f 3a 	lds	r24, 0x3A3F	; 0x803a3f <currObj+0x22>
    2d34:	90 91 40 3a 	lds	r25, 0x3A40	; 0x803a40 <currObj+0x23>
    return 0;
}

//
void SetResponse(uint8_t number, uint16_t address, uint16_t length, uint8_t type){
    reactStr[0][number]=address;
    2d38:	20 91 31 3a 	lds	r18, 0x3A31	; 0x803a31 <currObj+0x14>
    2d3c:	30 91 32 3a 	lds	r19, 0x3A32	; 0x803a32 <currObj+0x15>
    2d40:	20 93 1f 39 	sts	0x391F, r18	; 0x80391f <reactStr+0x2>
    2d44:	30 93 20 39 	sts	0x3920, r19	; 0x803920 <reactStr+0x3>
    reactStr[1][number]=length;
    2d48:	80 93 5f 39 	sts	0x395F, r24	; 0x80395f <reactStr+0x42>
    2d4c:	90 93 60 39 	sts	0x3960, r25	; 0x803960 <reactStr+0x43>
    reactStr[2][number]=type;
    2d50:	10 92 9f 39 	sts	0x399F, r1	; 0x80399f <reactStr+0x82>
    2d54:	10 92 a0 39 	sts	0x39A0, r1	; 0x8039a0 <reactStr+0x83>
                effect = currObj.byteField[EFFECTS];
            
            //No way out, print denied message of location
            } else {
                SetResponse(elements++, currObj.addrStr[OPEN_ACL_MSG], currObj.lenStr[OPEN_ACL_MSG], GAME);
                effect = currObj.effect[0];               
    2d58:	80 91 45 3a 	lds	r24, 0x3A45	; 0x803a45 <currObj+0x28>
    2d5c:	3e c6       	rjmp	.+3196   	; 0x39da <ProcessInput+0xd4a>
            }   
        
        //Enter locations or Open objects    
        } else if ((data[0] == 'e')||(data[0] == 'o')) {
    2d5e:	85 36       	cpi	r24, 0x65	; 101
    2d60:	19 f0       	breq	.+6      	; 0x2d68 <ProcessInput+0xd8>
    2d62:	8f 36       	cpi	r24, 0x6F	; 111
    2d64:	09 f0       	breq	.+2      	; 0x2d68 <ProcessInput+0xd8>
    2d66:	df c0       	rjmp	.+446    	; 0x2f26 <ProcessInput+0x296>
                
            //Not possible, too many/little characters
            if (inputLen != 2){
    2d68:	b2 e0       	ldi	r27, 0x02	; 2
    2d6a:	fb 12       	cpse	r15, r27
    2d6c:	c1 cf       	rjmp	.-126    	; 0x2cf0 <ProcessInput+0x60>
                SetResponse(elements++, A_NOTPOSSIBLE, L_NOTPOSSIBLE, TEASER);
            } else {
                uint8_t canDo = 0;
                route[currDepth+1] = FindChild(route[currDepth], data[1], 0);
    2d6e:	e0 90 2e 38 	lds	r14, 0x382E	; 0x80382e <currDepth>
    2d72:	f1 2c       	mov	r15, r1
    2d74:	f7 01       	movw	r30, r14
    2d76:	ee 0f       	add	r30, r30
    2d78:	ff 1f       	adc	r31, r31
    2d7a:	e3 52       	subi	r30, 0x23	; 35
    2d7c:	f6 4c       	sbci	r31, 0xC6	; 198
    2d7e:	40 e0       	ldi	r20, 0x00	; 0
    2d80:	50 e0       	ldi	r21, 0x00	; 0
    2d82:	d8 01       	movw	r26, r16
    2d84:	11 96       	adiw	r26, 0x01	; 1
    2d86:	6c 91       	ld	r22, X
    2d88:	80 81       	ld	r24, Z
    2d8a:	91 81       	ldd	r25, Z+1	; 0x01
    2d8c:	9b db       	rcall	.-2250   	; 0x24c4 <FindChild>
    2d8e:	f7 01       	movw	r30, r14
    2d90:	ee 0f       	add	r30, r30
    2d92:	ff 1f       	adc	r31, r31
    2d94:	e1 52       	subi	r30, 0x21	; 33
    2d96:	f6 4c       	sbci	r31, 0xC6	; 198
    2d98:	80 83       	st	Z, r24
    2d9a:	91 83       	std	Z+1, r25	; 0x01
                    
                //Child found?
                if (route[currDepth+1]) {
    2d9c:	90 91 2e 38 	lds	r25, 0x382E	; 0x80382e <currDepth>
    2da0:	29 2f       	mov	r18, r25
    2da2:	30 e0       	ldi	r19, 0x00	; 0
    2da4:	f9 01       	movw	r30, r18
    2da6:	ee 0f       	add	r30, r30
    2da8:	ff 1f       	adc	r31, r31
    2daa:	e1 52       	subi	r30, 0x21	; 33
    2dac:	f6 4c       	sbci	r31, 0xC6	; 198
    2dae:	40 81       	ld	r20, Z
    2db0:	51 81       	ldd	r21, Z+1	; 0x01
    2db2:	41 15       	cp	r20, r1
    2db4:	51 05       	cpc	r21, r1
    2db6:	21 f0       	breq	.+8      	; 0x2dc0 <ProcessInput+0x130>
                    PopulateObject(route[currDepth+1], &actObj1);
    2db8:	6c ed       	ldi	r22, 0xDC	; 220
    2dba:	78 e3       	ldi	r23, 0x38	; 56
    2dbc:	ca 01       	movw	r24, r20
    2dbe:	1c c0       	rjmp	.+56     	; 0x2df8 <ProcessInput+0x168>
                    canDo = 1;
                //No child, maybe a step back, letter ok?
                } else if (currDepth) {
    2dc0:	99 23       	and	r25, r25
    2dc2:	09 f4       	brne	.+2      	; 0x2dc6 <ProcessInput+0x136>
    2dc4:	99 c7       	rjmp	.+3890   	; 0x3cf8 <ProcessInput+0x1068>
                    if (CheckLetter(route[currDepth-1], data[1])) {
    2dc6:	22 0f       	add	r18, r18
    2dc8:	33 1f       	adc	r19, r19
    2dca:	f9 01       	movw	r30, r18
    2dcc:	e5 52       	subi	r30, 0x25	; 37
    2dce:	f6 4c       	sbci	r31, 0xC6	; 198
    2dd0:	d8 01       	movw	r26, r16
    2dd2:	11 96       	adiw	r26, 0x01	; 1
    2dd4:	6c 91       	ld	r22, X
    2dd6:	80 81       	ld	r24, Z
    2dd8:	91 81       	ldd	r25, Z+1	; 0x01
    2dda:	1e db       	rcall	.-2500   	; 0x2418 <CheckLetter>
    2ddc:	88 23       	and	r24, r24
    2dde:	09 f4       	brne	.+2      	; 0x2de2 <ProcessInput+0x152>
    2de0:	8b c7       	rjmp	.+3862   	; 0x3cf8 <ProcessInput+0x1068>
                        PopulateObject(route[currDepth-1], &actObj1);
    2de2:	e0 91 2e 38 	lds	r30, 0x382E	; 0x80382e <currDepth>
    2de6:	f0 e0       	ldi	r31, 0x00	; 0
    2de8:	ee 0f       	add	r30, r30
    2dea:	ff 1f       	adc	r31, r31
    2dec:	e5 52       	subi	r30, 0x25	; 37
    2dee:	f6 4c       	sbci	r31, 0xC6	; 198
    2df0:	6c ed       	ldi	r22, 0xDC	; 220
    2df2:	78 e3       	ldi	r23, 0x38	; 56
    2df4:	80 81       	ld	r24, Z
    2df6:	91 81       	ldd	r25, Z+1	; 0x01
    2df8:	96 da       	rcall	.-2772   	; 0x2326 <PopulateObject>
                    }
                }

                //The candidate is found! Let's check if the action is legit
                if (canDo) {
                    if ((data[0] == 'e') && ((actObj1.byteField[ACTION_MASK]&ENTER)==0)) {
    2dfa:	f8 01       	movw	r30, r16
    2dfc:	80 81       	ld	r24, Z
    2dfe:	85 36       	cpi	r24, 0x65	; 101
    2e00:	c9 f4       	brne	.+50     	; 0x2e34 <ProcessInput+0x1a4>
    2e02:	80 91 e4 38 	lds	r24, 0x38E4	; 0x8038e4 <actObj1.3981+0x8>
    2e06:	80 fd       	sbrc	r24, 0
    2e08:	1e c0       	rjmp	.+60     	; 0x2e46 <ProcessInput+0x1b6>
    return 0;
}

//
void SetResponse(uint8_t number, uint16_t address, uint16_t length, uint8_t type){
    reactStr[0][number]=address;
    2e0a:	8d e9       	ldi	r24, 0x9D	; 157
    2e0c:	99 e7       	ldi	r25, 0x79	; 121
    2e0e:	80 93 1f 39 	sts	0x391F, r24	; 0x80391f <reactStr+0x2>
    2e12:	90 93 20 39 	sts	0x3920, r25	; 0x803920 <reactStr+0x3>
    reactStr[1][number]=length;
    2e16:	8e e1       	ldi	r24, 0x1E	; 30
    2e18:	90 e0       	ldi	r25, 0x00	; 0
    2e1a:	80 93 5f 39 	sts	0x395F, r24	; 0x80395f <reactStr+0x42>
    2e1e:	90 93 60 39 	sts	0x3960, r25	; 0x803960 <reactStr+0x43>
    reactStr[2][number]=type;
    2e22:	81 e0       	ldi	r24, 0x01	; 1
    2e24:	90 e0       	ldi	r25, 0x00	; 0
    2e26:	80 93 9f 39 	sts	0x399F, r24	; 0x80399f <reactStr+0x82>
    2e2a:	90 93 a0 39 	sts	0x39A0, r25	; 0x8039a0 <reactStr+0x83>
                }

                //The candidate is found! Let's check if the action is legit
                if (canDo) {
                    if ((data[0] == 'e') && ((actObj1.byteField[ACTION_MASK]&ENTER)==0)) {
                        SetResponse(elements++, A_CANTENTER, L_CANTENTER, TEASER);
    2e2e:	72 e0       	ldi	r23, 0x02	; 2
    2e30:	77 2e       	mov	r7, r23
    2e32:	30 c7       	rjmp	.+3680   	; 0x3c94 <ProcessInput+0x1004>
                    } else if ((data[0] == 'o') && ((actObj1.byteField[ACTION_MASK]&OPEN)==0)) {
    2e34:	8f 36       	cpi	r24, 0x6F	; 111
    2e36:	39 f4       	brne	.+14     	; 0x2e46 <ProcessInput+0x1b6>
    2e38:	80 91 e4 38 	lds	r24, 0x38E4	; 0x8038e4 <actObj1.3981+0x8>
    2e3c:	81 fd       	sbrc	r24, 1
    2e3e:	03 c0       	rjmp	.+6      	; 0x2e46 <ProcessInput+0x1b6>
    return 0;
}

//
void SetResponse(uint8_t number, uint16_t address, uint16_t length, uint8_t type){
    reactStr[0][number]=address;
    2e40:	82 e8       	ldi	r24, 0x82	; 130
    2e42:	99 e7       	ldi	r25, 0x79	; 121
    2e44:	fd c4       	rjmp	.+2554   	; 0x3840 <ProcessInput+0xbb0>
                        SetResponse(elements++, A_CANTENTER, L_CANTENTER, TEASER);
                    } else if ((data[0] == 'o') && ((actObj1.byteField[ACTION_MASK]&OPEN)==0)) {
                        SetResponse(elements++, A_CANTOPEN, L_CANTOPEN, TEASER);
                    
                    //Action legit, permission granted?
                    } else if (CheckState(actObj1.byteField[OPEN_ACL])) {
    2e46:	80 91 e2 38 	lds	r24, 0x38E2	; 0x8038e2 <actObj1.3981+0x6>
    2e4a:	0e 94 65 0a 	call	0x14ca	; 0x14ca <CheckState>
    2e4e:	e0 91 2e 38 	lds	r30, 0x382E	; 0x80382e <currDepth>
    2e52:	88 23       	and	r24, r24
    2e54:	09 f4       	brne	.+2      	; 0x2e58 <ProcessInput+0x1c8>
    2e56:	49 c0       	rjmp	.+146    	; 0x2eea <ProcessInput+0x25a>
                            
                        //Yes! Check if we must move forward or backwards.
                        if (route[currDepth+1]) ++currDepth; else --currDepth;
    2e58:	ae 2f       	mov	r26, r30
    2e5a:	b0 e0       	ldi	r27, 0x00	; 0
    2e5c:	aa 0f       	add	r26, r26
    2e5e:	bb 1f       	adc	r27, r27
    2e60:	a1 52       	subi	r26, 0x21	; 33
    2e62:	b6 4c       	sbci	r27, 0xC6	; 198
    2e64:	8d 91       	ld	r24, X+
    2e66:	9c 91       	ld	r25, X
    2e68:	89 2b       	or	r24, r25
    2e6a:	11 f0       	breq	.+4      	; 0x2e70 <ProcessInput+0x1e0>
    2e6c:	ef 5f       	subi	r30, 0xFF	; 255
    2e6e:	01 c0       	rjmp	.+2      	; 0x2e72 <ProcessInput+0x1e2>
    2e70:	e1 50       	subi	r30, 0x01	; 1
    2e72:	e0 93 2e 38 	sts	0x382E, r30	; 0x80382e <currDepth>
                        PopulateObject(route[currDepth], &currObj);
    2e76:	e0 91 2e 38 	lds	r30, 0x382E	; 0x80382e <currDepth>
    2e7a:	f0 e0       	ldi	r31, 0x00	; 0
    2e7c:	ee 0f       	add	r30, r30
    2e7e:	ff 1f       	adc	r31, r31
    2e80:	e3 52       	subi	r30, 0x23	; 35
    2e82:	f6 4c       	sbci	r31, 0xC6	; 198
    2e84:	6d e1       	ldi	r22, 0x1D	; 29
    2e86:	7a e3       	ldi	r23, 0x3A	; 58
    2e88:	80 81       	ld	r24, Z
    2e8a:	91 81       	ldd	r25, Z+1	; 0x01
    2e8c:	4c da       	rcall	.-2920   	; 0x2326 <PopulateObject>
                        SetResponse(elements++, currObj.addrStr[DESC], currObj.lenStr[DESC],GAME);
    2e8e:	80 91 39 3a 	lds	r24, 0x3A39	; 0x803a39 <currObj+0x1c>
    2e92:	90 91 3a 3a 	lds	r25, 0x3A3A	; 0x803a3a <currObj+0x1d>
    return 0;
}

//
void SetResponse(uint8_t number, uint16_t address, uint16_t length, uint8_t type){
    reactStr[0][number]=address;
    2e96:	20 91 2b 3a 	lds	r18, 0x3A2B	; 0x803a2b <currObj+0xe>
    2e9a:	30 91 2c 3a 	lds	r19, 0x3A2C	; 0x803a2c <currObj+0xf>
    2e9e:	20 93 1f 39 	sts	0x391F, r18	; 0x80391f <reactStr+0x2>
    2ea2:	30 93 20 39 	sts	0x3920, r19	; 0x803920 <reactStr+0x3>
    reactStr[1][number]=length;
    2ea6:	80 93 5f 39 	sts	0x395F, r24	; 0x80395f <reactStr+0x42>
    2eaa:	90 93 60 39 	sts	0x3960, r25	; 0x803960 <reactStr+0x43>
    reactStr[2][number]=type;
    2eae:	10 92 9f 39 	sts	0x399F, r1	; 0x80399f <reactStr+0x82>
    2eb2:	10 92 a0 39 	sts	0x39A0, r1	; 0x8039a0 <reactStr+0x83>
    return 0;
}

//
void SetResponse(uint8_t number, uint16_t address, uint16_t length, uint8_t type){
    reactStr[0][number]=address;
    2eb6:	89 e5       	ldi	r24, 0x59	; 89
    2eb8:	9a e7       	ldi	r25, 0x7A	; 122
    2eba:	80 93 21 39 	sts	0x3921, r24	; 0x803921 <reactStr+0x4>
    2ebe:	90 93 22 39 	sts	0x3922, r25	; 0x803922 <reactStr+0x5>
    reactStr[1][number]=length;
    2ec2:	82 e0       	ldi	r24, 0x02	; 2
    2ec4:	90 e0       	ldi	r25, 0x00	; 0
    2ec6:	80 93 61 39 	sts	0x3961, r24	; 0x803961 <reactStr+0x44>
    2eca:	90 93 62 39 	sts	0x3962, r25	; 0x803962 <reactStr+0x45>
    reactStr[2][number]=type;
    2ece:	81 e0       	ldi	r24, 0x01	; 1
    2ed0:	90 e0       	ldi	r25, 0x00	; 0
    2ed2:	80 93 a1 39 	sts	0x39A1, r24	; 0x8039a1 <reactStr+0x84>
    2ed6:	90 93 a2 39 	sts	0x39A2, r25	; 0x8039a2 <reactStr+0x85>
                        //Yes! Check if we must move forward or backwards.
                        if (route[currDepth+1]) ++currDepth; else --currDepth;
                        PopulateObject(route[currDepth], &currObj);
                        SetResponse(elements++, currObj.addrStr[DESC], currObj.lenStr[DESC],GAME);
                        SetResponse(elements++, A_LF, 2, TEASER);
                        effect = currObj.byteField[EFFECTS];
    2eda:	80 91 21 3a 	lds	r24, 0x3A21	; 0x803a21 <currObj+0x4>
    2ede:	90 e0       	ldi	r25, 0x00	; 0
    2ee0:	80 93 3c 38 	sts	0x383C, r24	; 0x80383c <effect>
    2ee4:	90 93 3d 38 	sts	0x383D, r25	; 0x80383d <effect+0x1>
    2ee8:	91 c4       	rjmp	.+2338   	; 0x380c <ProcessInput+0xb7c>
                                                  
                    //Not granted!
                    } else {
                        route[currDepth+1] = 0;
    2eea:	f0 e0       	ldi	r31, 0x00	; 0
    2eec:	ee 0f       	add	r30, r30
    2eee:	ff 1f       	adc	r31, r31
    2ef0:	e1 52       	subi	r30, 0x21	; 33
    2ef2:	f6 4c       	sbci	r31, 0xC6	; 198
    2ef4:	10 82       	st	Z, r1
    2ef6:	11 82       	std	Z+1, r1	; 0x01
                        SetResponse(elements++, actObj1.addrStr[OPEN_ACL_MSG], actObj1.lenStr[OPEN_ACL_MSG], GAME);
    2ef8:	80 91 fe 38 	lds	r24, 0x38FE	; 0x8038fe <actObj1.3981+0x22>
    2efc:	90 91 ff 38 	lds	r25, 0x38FF	; 0x8038ff <actObj1.3981+0x23>
    return 0;
}

//
void SetResponse(uint8_t number, uint16_t address, uint16_t length, uint8_t type){
    reactStr[0][number]=address;
    2f00:	20 91 f0 38 	lds	r18, 0x38F0	; 0x8038f0 <actObj1.3981+0x14>
    2f04:	30 91 f1 38 	lds	r19, 0x38F1	; 0x8038f1 <actObj1.3981+0x15>
    2f08:	20 93 1f 39 	sts	0x391F, r18	; 0x80391f <reactStr+0x2>
    2f0c:	30 93 20 39 	sts	0x3920, r19	; 0x803920 <reactStr+0x3>
    reactStr[1][number]=length;
    2f10:	80 93 5f 39 	sts	0x395F, r24	; 0x80395f <reactStr+0x42>
    2f14:	90 93 60 39 	sts	0x3960, r25	; 0x803960 <reactStr+0x43>
    reactStr[2][number]=type;
    2f18:	10 92 9f 39 	sts	0x399F, r1	; 0x80399f <reactStr+0x82>
    2f1c:	10 92 a0 39 	sts	0x39A0, r1	; 0x8039a0 <reactStr+0x83>
                                                  
                    //Not granted!
                    } else {
                        route[currDepth+1] = 0;
                        SetResponse(elements++, actObj1.addrStr[OPEN_ACL_MSG], actObj1.lenStr[OPEN_ACL_MSG], GAME);
                        effect = actObj1.effect[0];              
    2f20:	80 91 04 39 	lds	r24, 0x3904	; 0x803904 <actObj1.3981+0x28>
    2f24:	5a c5       	rjmp	.+2740   	; 0x39da <ProcessInput+0xd4a>
                    SetResponse(elements++, A_DONTSEE, L_DONTSEE, TEASER);                
                }
            }

        //Look around or at objects
        } else if (data[0] == 'l') {
    2f26:	8c 36       	cpi	r24, 0x6C	; 108
    2f28:	09 f0       	breq	.+2      	; 0x2f2c <ProcessInput+0x29c>
    2f2a:	57 c1       	rjmp	.+686    	; 0x31da <ProcessInput+0x54a>
    2f2c:	e0 91 2e 38 	lds	r30, 0x382E	; 0x80382e <currDepth>
            if (inputLen == 1) {
    2f30:	b1 e0       	ldi	r27, 0x01	; 1
    2f32:	fb 12       	cpse	r15, r27
    2f34:	f6 c0       	rjmp	.+492    	; 0x3122 <ProcessInput+0x492>

                //Show info about this area first
                SetResponse(elements++, currObj.addrStr[DESC], currObj.lenStr[DESC],GAME);
    2f36:	80 91 39 3a 	lds	r24, 0x3A39	; 0x803a39 <currObj+0x1c>
    2f3a:	90 91 3a 3a 	lds	r25, 0x3A3A	; 0x803a3a <currObj+0x1d>
    return 0;
}

//
void SetResponse(uint8_t number, uint16_t address, uint16_t length, uint8_t type){
    reactStr[0][number]=address;
    2f3e:	20 91 2b 3a 	lds	r18, 0x3A2B	; 0x803a2b <currObj+0xe>
    2f42:	30 91 2c 3a 	lds	r19, 0x3A2C	; 0x803a2c <currObj+0xf>
    2f46:	20 93 1f 39 	sts	0x391F, r18	; 0x80391f <reactStr+0x2>
    2f4a:	30 93 20 39 	sts	0x3920, r19	; 0x803920 <reactStr+0x3>
    reactStr[1][number]=length;
    2f4e:	80 93 5f 39 	sts	0x395F, r24	; 0x80395f <reactStr+0x42>
    2f52:	90 93 60 39 	sts	0x3960, r25	; 0x803960 <reactStr+0x43>
    reactStr[2][number]=type;
    2f56:	10 92 9f 39 	sts	0x399F, r1	; 0x80399f <reactStr+0x82>
    2f5a:	10 92 a0 39 	sts	0x39A0, r1	; 0x8039a0 <reactStr+0x83>
    return 0;
}

//
void SetResponse(uint8_t number, uint16_t address, uint16_t length, uint8_t type){
    reactStr[0][number]=address;
    2f5e:	89 e5       	ldi	r24, 0x59	; 89
    2f60:	9a e7       	ldi	r25, 0x7A	; 122
    2f62:	80 93 21 39 	sts	0x3921, r24	; 0x803921 <reactStr+0x4>
    2f66:	90 93 22 39 	sts	0x3922, r25	; 0x803922 <reactStr+0x5>
    reactStr[1][number]=length;
    2f6a:	82 e0       	ldi	r24, 0x02	; 2
    2f6c:	90 e0       	ldi	r25, 0x00	; 0
    2f6e:	80 93 61 39 	sts	0x3961, r24	; 0x803961 <reactStr+0x44>
    2f72:	90 93 62 39 	sts	0x3962, r25	; 0x803962 <reactStr+0x45>
    reactStr[2][number]=type;
    2f76:	81 e0       	ldi	r24, 0x01	; 1
    2f78:	90 e0       	ldi	r25, 0x00	; 0
    2f7a:	80 93 a1 39 	sts	0x39A1, r24	; 0x8039a1 <reactStr+0x84>
    2f7e:	90 93 a2 39 	sts	0x39A2, r25	; 0x8039a2 <reactStr+0x85>
    return 0;
}

//
void SetResponse(uint8_t number, uint16_t address, uint16_t length, uint8_t type){
    reactStr[0][number]=address;
    2f82:	2b ee       	ldi	r18, 0xEB	; 235
    2f84:	39 e7       	ldi	r19, 0x79	; 121
    2f86:	20 93 23 39 	sts	0x3923, r18	; 0x803923 <reactStr+0x6>
    2f8a:	30 93 24 39 	sts	0x3924, r19	; 0x803924 <reactStr+0x7>
    reactStr[1][number]=length;
    2f8e:	25 e1       	ldi	r18, 0x15	; 21
    2f90:	30 e0       	ldi	r19, 0x00	; 0
    2f92:	20 93 63 39 	sts	0x3963, r18	; 0x803963 <reactStr+0x46>
    2f96:	30 93 64 39 	sts	0x3964, r19	; 0x803964 <reactStr+0x47>
    reactStr[2][number]=type;
    2f9a:	80 93 a3 39 	sts	0x39A3, r24	; 0x8039a3 <reactStr+0x86>
    2f9e:	90 93 a4 39 	sts	0x39A4, r25	; 0x8039a4 <reactStr+0x87>
                SetResponse(elements++, currObj.addrStr[DESC], currObj.lenStr[DESC],GAME);
                SetResponse(elements++, A_LF, 2, TEASER);
                SetResponse(elements++, A_LOOK, L_LOOK, TEASER);

                //Check the visible children first
                route[currDepth+1] = 0;
    2fa2:	f0 e0       	ldi	r31, 0x00	; 0
    2fa4:	ee 0f       	add	r30, r30
    2fa6:	ff 1f       	adc	r31, r31
    2fa8:	e1 52       	subi	r30, 0x21	; 33
    2faa:	f6 4c       	sbci	r31, 0xC6	; 198
    2fac:	10 82       	st	Z, r1
    2fae:	11 82       	std	Z+1, r1	; 0x01
            if (inputLen == 1) {

                //Show info about this area first
                SetResponse(elements++, currObj.addrStr[DESC], currObj.lenStr[DESC],GAME);
                SetResponse(elements++, A_LF, 2, TEASER);
                SetResponse(elements++, A_LOOK, L_LOOK, TEASER);
    2fb0:	84 e0       	ldi	r24, 0x04	; 4
    2fb2:	68 2e       	mov	r6, r24
    return 0;
}

//
void SetResponse(uint8_t number, uint16_t address, uint16_t length, uint8_t type){
    reactStr[0][number]=address;
    2fb4:	97 e5       	ldi	r25, 0x57	; 87
    2fb6:	c9 2e       	mov	r12, r25
    2fb8:	9a e7       	ldi	r25, 0x7A	; 122
    2fba:	d9 2e       	mov	r13, r25
    reactStr[1][number]=length;
    2fbc:	22 e0       	ldi	r18, 0x02	; 2
    2fbe:	a2 2e       	mov	r10, r18
    2fc0:	b1 2c       	mov	r11, r1
    reactStr[2][number]=type;
    2fc2:	88 24       	eor	r8, r8
    2fc4:	83 94       	inc	r8
    2fc6:	91 2c       	mov	r9, r1
                SetResponse(elements++, A_LOOK, L_LOOK, TEASER);

                //Check the visible children first
                route[currDepth+1] = 0;
                do{
                    route[currDepth+1] = FindChild(route[currDepth], 0, route[currDepth+1]);
    2fc8:	80 91 2e 38 	lds	r24, 0x382E	; 0x80382e <currDepth>
    2fcc:	90 e0       	ldi	r25, 0x00	; 0
    2fce:	9c 01       	movw	r18, r24
    2fd0:	22 0f       	add	r18, r18
    2fd2:	33 1f       	adc	r19, r19
    2fd4:	f9 01       	movw	r30, r18
    2fd6:	e1 52       	subi	r30, 0x21	; 33
    2fd8:	f6 4c       	sbci	r31, 0xC6	; 198
    2fda:	7f 01       	movw	r14, r30
    2fdc:	40 81       	ld	r20, Z
    2fde:	51 81       	ldd	r21, Z+1	; 0x01
    2fe0:	f9 01       	movw	r30, r18
    2fe2:	e3 52       	subi	r30, 0x23	; 35
    2fe4:	f6 4c       	sbci	r31, 0xC6	; 198
    2fe6:	60 e0       	ldi	r22, 0x00	; 0
    2fe8:	80 81       	ld	r24, Z
    2fea:	91 81       	ldd	r25, Z+1	; 0x01
    2fec:	6b da       	rcall	.-2858   	; 0x24c4 <FindChild>
    2fee:	d7 01       	movw	r26, r14
    2ff0:	8d 93       	st	X+, r24
    2ff2:	9c 93       	st	X, r25
                    if (route[currDepth+1]) {
    2ff4:	e0 91 2e 38 	lds	r30, 0x382E	; 0x80382e <currDepth>
    2ff8:	f0 e0       	ldi	r31, 0x00	; 0
    2ffa:	ee 0f       	add	r30, r30
    2ffc:	ff 1f       	adc	r31, r31
    2ffe:	e1 52       	subi	r30, 0x21	; 33
    3000:	f6 4c       	sbci	r31, 0xC6	; 198
    3002:	80 81       	ld	r24, Z
    3004:	91 81       	ldd	r25, Z+1	; 0x01
    3006:	00 97       	sbiw	r24, 0x00	; 0
    3008:	09 f4       	brne	.+2      	; 0x300c <ProcessInput+0x37c>
    300a:	4a c0       	rjmp	.+148    	; 0x30a0 <ProcessInput+0x410>
                        if ((route[currDepth+1] != inventory[0])&&(route[currDepth+1] != inventory[1])) {
    300c:	20 91 40 38 	lds	r18, 0x3840	; 0x803840 <inventory>
    3010:	30 91 41 38 	lds	r19, 0x3841	; 0x803841 <inventory+0x1>
    3014:	82 17       	cp	r24, r18
    3016:	93 07       	cpc	r25, r19
    3018:	09 f4       	brne	.+2      	; 0x301c <ProcessInput+0x38c>
    301a:	42 c0       	rjmp	.+132    	; 0x30a0 <ProcessInput+0x410>
    301c:	20 91 42 38 	lds	r18, 0x3842	; 0x803842 <inventory+0x2>
    3020:	30 91 43 38 	lds	r19, 0x3843	; 0x803843 <inventory+0x3>
    3024:	82 17       	cp	r24, r18
    3026:	93 07       	cpc	r25, r19
                            PopulateObject(route[currDepth+1], &actObj1);
    3028:	d9 f1       	breq	.+118    	; 0x30a0 <ProcessInput+0x410>
    302a:	6c ed       	ldi	r22, 0xDC	; 220
    302c:	78 e3       	ldi	r23, 0x38	; 56
    302e:	7b d9       	rcall	.-3338   	; 0x2326 <PopulateObject>
                            SetResponse(elements++, actObj1.addrStr[NAME], actObj1.lenStr[NAME],GAME);
    3030:	80 91 f6 38 	lds	r24, 0x38F6	; 0x8038f6 <actObj1.3981+0x1a>
    3034:	90 91 f7 38 	lds	r25, 0x38F7	; 0x8038f7 <actObj1.3981+0x1b>
    return 0;
}

//
void SetResponse(uint8_t number, uint16_t address, uint16_t length, uint8_t type){
    reactStr[0][number]=address;
    3038:	e6 2d       	mov	r30, r6
    303a:	f0 e0       	ldi	r31, 0x00	; 0
    303c:	df 01       	movw	r26, r30
    303e:	aa 0f       	add	r26, r26
    3040:	bb 1f       	adc	r27, r27
    3042:	a3 5e       	subi	r26, 0xE3	; 227
    3044:	b6 4c       	sbci	r27, 0xC6	; 198
    3046:	20 91 e8 38 	lds	r18, 0x38E8	; 0x8038e8 <actObj1.3981+0xc>
    304a:	30 91 e9 38 	lds	r19, 0x38E9	; 0x8038e9 <actObj1.3981+0xd>
    304e:	2d 93       	st	X+, r18
    3050:	3c 93       	st	X, r19
    reactStr[1][number]=length;
    3052:	df 01       	movw	r26, r30
    3054:	aa 0f       	add	r26, r26
    3056:	bb 1f       	adc	r27, r27
    3058:	a3 5a       	subi	r26, 0xA3	; 163
    305a:	b6 4c       	sbci	r27, 0xC6	; 198
    305c:	8d 93       	st	X+, r24
    305e:	9c 93       	st	X, r25
    reactStr[2][number]=type;
    3060:	ee 0f       	add	r30, r30
    3062:	ff 1f       	adc	r31, r31
    3064:	e3 56       	subi	r30, 0x63	; 99
    3066:	f6 4c       	sbci	r31, 0xC6	; 198
    3068:	10 82       	st	Z, r1
    306a:	11 82       	std	Z+1, r1	; 0x01
    return 0;
}

//
void SetResponse(uint8_t number, uint16_t address, uint16_t length, uint8_t type){
    reactStr[0][number]=address;
    306c:	81 e0       	ldi	r24, 0x01	; 1
    306e:	86 0d       	add	r24, r6
    3070:	90 e0       	ldi	r25, 0x00	; 0
    3072:	63 94       	inc	r6
    3074:	63 94       	inc	r6
    3076:	fc 01       	movw	r30, r24
    3078:	ee 0f       	add	r30, r30
    307a:	ff 1f       	adc	r31, r31
    307c:	e3 5e       	subi	r30, 0xE3	; 227
    307e:	f6 4c       	sbci	r31, 0xC6	; 198
    3080:	c0 82       	st	Z, r12
    3082:	d1 82       	std	Z+1, r13	; 0x01
    reactStr[1][number]=length;
    3084:	fc 01       	movw	r30, r24
    3086:	ee 0f       	add	r30, r30
    3088:	ff 1f       	adc	r31, r31
    308a:	e3 5a       	subi	r30, 0xA3	; 163
    308c:	f6 4c       	sbci	r31, 0xC6	; 198
    308e:	a0 82       	st	Z, r10
    3090:	b1 82       	std	Z+1, r11	; 0x01
    reactStr[2][number]=type;
    3092:	88 0f       	add	r24, r24
    3094:	99 1f       	adc	r25, r25
    3096:	fc 01       	movw	r30, r24
    3098:	e3 56       	subi	r30, 0x63	; 99
    309a:	f6 4c       	sbci	r31, 0xC6	; 198
    309c:	80 82       	st	Z, r8
    309e:	91 82       	std	Z+1, r9	; 0x01
                            PopulateObject(route[currDepth+1], &actObj1);
                            SetResponse(elements++, actObj1.addrStr[NAME], actObj1.lenStr[NAME],GAME);
                            SetResponse(elements++, A_COMMA, L_COMMA, TEASER);
                        }
                    }
                }while (route[currDepth+1]);
    30a0:	20 91 2e 38 	lds	r18, 0x382E	; 0x80382e <currDepth>
    30a4:	82 2f       	mov	r24, r18
    30a6:	90 e0       	ldi	r25, 0x00	; 0
    30a8:	fc 01       	movw	r30, r24
    30aa:	ee 0f       	add	r30, r30
    30ac:	ff 1f       	adc	r31, r31
    30ae:	e1 52       	subi	r30, 0x21	; 33
    30b0:	f6 4c       	sbci	r31, 0xC6	; 198
    30b2:	40 81       	ld	r20, Z
    30b4:	51 81       	ldd	r21, Z+1	; 0x01
    30b6:	45 2b       	or	r20, r21
    30b8:	09 f0       	breq	.+2      	; 0x30bc <ProcessInput+0x42c>
    30ba:	86 cf       	rjmp	.-244    	; 0x2fc8 <ProcessInput+0x338>

                //Look back if not on level 0
                if (currDepth) {
    30bc:	22 23       	and	r18, r18
    30be:	69 f1       	breq	.+90     	; 0x311a <ProcessInput+0x48a>
                    PopulateObject(route[currDepth-1], &actObj1);
    30c0:	88 0f       	add	r24, r24
    30c2:	99 1f       	adc	r25, r25
    30c4:	fc 01       	movw	r30, r24
    30c6:	e5 52       	subi	r30, 0x25	; 37
    30c8:	f6 4c       	sbci	r31, 0xC6	; 198
    30ca:	6c ed       	ldi	r22, 0xDC	; 220
    30cc:	78 e3       	ldi	r23, 0x38	; 56
    30ce:	80 81       	ld	r24, Z
    30d0:	91 81       	ldd	r25, Z+1	; 0x01
    30d2:	29 d9       	rcall	.-3502   	; 0x2326 <PopulateObject>
                    SetResponse(elements++, actObj1.addrStr[NAME], actObj1.lenStr[NAME],GAME);
    30d4:	20 91 f6 38 	lds	r18, 0x38F6	; 0x8038f6 <actObj1.3981+0x1a>
    30d8:	30 91 f7 38 	lds	r19, 0x38F7	; 0x8038f7 <actObj1.3981+0x1b>
    30dc:	77 24       	eor	r7, r7
    30de:	73 94       	inc	r7
    30e0:	76 0c       	add	r7, r6
    return 0;
}

//
void SetResponse(uint8_t number, uint16_t address, uint16_t length, uint8_t type){
    reactStr[0][number]=address;
    30e2:	86 2d       	mov	r24, r6
    30e4:	90 e0       	ldi	r25, 0x00	; 0
    30e6:	fc 01       	movw	r30, r24
    30e8:	ee 0f       	add	r30, r30
    30ea:	ff 1f       	adc	r31, r31
    30ec:	e3 5e       	subi	r30, 0xE3	; 227
    30ee:	f6 4c       	sbci	r31, 0xC6	; 198
    30f0:	40 91 e8 38 	lds	r20, 0x38E8	; 0x8038e8 <actObj1.3981+0xc>
    30f4:	50 91 e9 38 	lds	r21, 0x38E9	; 0x8038e9 <actObj1.3981+0xd>
    30f8:	40 83       	st	Z, r20
    30fa:	51 83       	std	Z+1, r21	; 0x01
    reactStr[1][number]=length;
    30fc:	fc 01       	movw	r30, r24
    30fe:	ee 0f       	add	r30, r30
    3100:	ff 1f       	adc	r31, r31
    3102:	e3 5a       	subi	r30, 0xA3	; 163
    3104:	f6 4c       	sbci	r31, 0xC6	; 198
    3106:	20 83       	st	Z, r18
    3108:	31 83       	std	Z+1, r19	; 0x01
    reactStr[2][number]=type;
    310a:	88 0f       	add	r24, r24
    310c:	99 1f       	adc	r25, r25
    310e:	fc 01       	movw	r30, r24
    3110:	e3 56       	subi	r30, 0x63	; 99
    3112:	f6 4c       	sbci	r31, 0xC6	; 198
    3114:	10 82       	st	Z, r1
    3116:	11 82       	std	Z+1, r1	; 0x01
    3118:	bd c5       	rjmp	.+2938   	; 0x3c94 <ProcessInput+0x1004>

                //Look back if not on level 0
                if (currDepth) {
                    PopulateObject(route[currDepth-1], &actObj1);
                    SetResponse(elements++, actObj1.addrStr[NAME], actObj1.lenStr[NAME],GAME);
                } else elements-=1;
    311a:	77 24       	eor	r7, r7
    311c:	7a 94       	dec	r7
    311e:	76 0c       	add	r7, r6
    3120:	b9 c5       	rjmp	.+2930   	; 0x3c94 <ProcessInput+0x1004>

            } else {
                route[currDepth+1] = FindChild(route[currDepth], data[1], 0);
    3122:	ee 2e       	mov	r14, r30
    3124:	f1 2c       	mov	r15, r1
    3126:	f7 01       	movw	r30, r14
    3128:	ee 0f       	add	r30, r30
    312a:	ff 1f       	adc	r31, r31
    312c:	e3 52       	subi	r30, 0x23	; 35
    312e:	f6 4c       	sbci	r31, 0xC6	; 198
    3130:	40 e0       	ldi	r20, 0x00	; 0
    3132:	50 e0       	ldi	r21, 0x00	; 0
    3134:	d8 01       	movw	r26, r16
    3136:	11 96       	adiw	r26, 0x01	; 1
    3138:	6c 91       	ld	r22, X
    313a:	80 81       	ld	r24, Z
    313c:	91 81       	ldd	r25, Z+1	; 0x01
    313e:	c2 d9       	rcall	.-3196   	; 0x24c4 <FindChild>
    3140:	f7 01       	movw	r30, r14
    3142:	ee 0f       	add	r30, r30
    3144:	ff 1f       	adc	r31, r31
    3146:	e1 52       	subi	r30, 0x21	; 33
    3148:	f6 4c       	sbci	r31, 0xC6	; 198
    314a:	80 83       	st	Z, r24
    314c:	91 83       	std	Z+1, r25	; 0x01
                if (route[currDepth+1]) {
    314e:	90 91 2e 38 	lds	r25, 0x382E	; 0x80382e <currDepth>
    3152:	29 2f       	mov	r18, r25
    3154:	30 e0       	ldi	r19, 0x00	; 0
    3156:	f9 01       	movw	r30, r18
    3158:	ee 0f       	add	r30, r30
    315a:	ff 1f       	adc	r31, r31
    315c:	e1 52       	subi	r30, 0x21	; 33
    315e:	f6 4c       	sbci	r31, 0xC6	; 198
    3160:	40 81       	ld	r20, Z
    3162:	51 81       	ldd	r21, Z+1	; 0x01
    3164:	41 15       	cp	r20, r1
    3166:	51 05       	cpc	r21, r1
    3168:	21 f0       	breq	.+8      	; 0x3172 <ProcessInput+0x4e2>
                    PopulateObject(route[currDepth+1], &actObj1);
    316a:	6c ed       	ldi	r22, 0xDC	; 220
    316c:	78 e3       	ldi	r23, 0x38	; 56
    316e:	ca 01       	movw	r24, r20
    3170:	1e c0       	rjmp	.+60     	; 0x31ae <ProcessInput+0x51e>
//TODO: CHECKSTATE -> A_CANTLOOK item
                    SetResponse(elements++, actObj1.addrStr[DESC], actObj1.lenStr[DESC],GAME);   
                } else if (currDepth) {
    3172:	99 23       	and	r25, r25
    3174:	09 f4       	brne	.+2      	; 0x3178 <ProcessInput+0x4e8>
                    if (CheckLetter(route[currDepth-1], data[1])) {
    3176:	c0 c5       	rjmp	.+2944   	; 0x3cf8 <ProcessInput+0x1068>
    3178:	22 0f       	add	r18, r18
    317a:	33 1f       	adc	r19, r19
    317c:	f9 01       	movw	r30, r18
    317e:	e5 52       	subi	r30, 0x25	; 37
    3180:	f6 4c       	sbci	r31, 0xC6	; 198
    3182:	d8 01       	movw	r26, r16
    3184:	11 96       	adiw	r26, 0x01	; 1
    3186:	6c 91       	ld	r22, X
    3188:	80 81       	ld	r24, Z
    318a:	91 81       	ldd	r25, Z+1	; 0x01
    318c:	45 d9       	rcall	.-3446   	; 0x2418 <CheckLetter>
    318e:	81 11       	cpse	r24, r1
    3190:	03 c0       	rjmp	.+6      	; 0x3198 <ProcessInput+0x508>
}

//The game logic!
uint8_t ProcessInput(uint8_t *data){
    static object_model_t actObj1, actObj2;
    uint8_t elements = 1;
    3192:	77 24       	eor	r7, r7
    3194:	73 94       	inc	r7
                    PopulateObject(route[currDepth+1], &actObj1);
//TODO: CHECKSTATE -> A_CANTLOOK item
                    SetResponse(elements++, actObj1.addrStr[DESC], actObj1.lenStr[DESC],GAME);   
                } else if (currDepth) {
                    if (CheckLetter(route[currDepth-1], data[1])) {
                        PopulateObject(route[currDepth-1], &actObj1);
    3196:	7e c5       	rjmp	.+2812   	; 0x3c94 <ProcessInput+0x1004>
    3198:	e0 91 2e 38 	lds	r30, 0x382E	; 0x80382e <currDepth>
    319c:	f0 e0       	ldi	r31, 0x00	; 0
    319e:	ee 0f       	add	r30, r30
    31a0:	ff 1f       	adc	r31, r31
    31a2:	e5 52       	subi	r30, 0x25	; 37
    31a4:	f6 4c       	sbci	r31, 0xC6	; 198
    31a6:	6c ed       	ldi	r22, 0xDC	; 220
    31a8:	78 e3       	ldi	r23, 0x38	; 56
    31aa:	80 81       	ld	r24, Z
    31ac:	91 81       	ldd	r25, Z+1	; 0x01
    31ae:	bb d8       	rcall	.-3722   	; 0x2326 <PopulateObject>
                        SetResponse(elements++, actObj1.addrStr[DESC], actObj1.lenStr[DESC],GAME);
    31b0:	80 91 f8 38 	lds	r24, 0x38F8	; 0x8038f8 <actObj1.3981+0x1c>
    31b4:	90 91 f9 38 	lds	r25, 0x38F9	; 0x8038f9 <actObj1.3981+0x1d>
    return 0;
}

//
void SetResponse(uint8_t number, uint16_t address, uint16_t length, uint8_t type){
    reactStr[0][number]=address;
    31b8:	20 91 ea 38 	lds	r18, 0x38EA	; 0x8038ea <actObj1.3981+0xe>
    31bc:	30 91 eb 38 	lds	r19, 0x38EB	; 0x8038eb <actObj1.3981+0xf>
    31c0:	20 93 1f 39 	sts	0x391F, r18	; 0x80391f <reactStr+0x2>
    31c4:	30 93 20 39 	sts	0x3920, r19	; 0x803920 <reactStr+0x3>
    reactStr[1][number]=length;
    31c8:	80 93 5f 39 	sts	0x395F, r24	; 0x80395f <reactStr+0x42>
    31cc:	90 93 60 39 	sts	0x3960, r25	; 0x803960 <reactStr+0x43>
    reactStr[2][number]=type;
    31d0:	10 92 9f 39 	sts	0x399F, r1	; 0x80399f <reactStr+0x82>
    31d4:	10 92 a0 39 	sts	0x39A0, r1	; 0x8039a0 <reactStr+0x83>
    31d8:	2a ce       	rjmp	.-940    	; 0x2e2e <ProcessInput+0x19e>
                    SetResponse(elements++, A_DONTSEE, L_DONTSEE, TEASER);
                }
            }
        
        //Pick up an object
        } else if (data[0] == 'p') {
    31da:	80 37       	cpi	r24, 0x70	; 112
    31dc:	09 f0       	breq	.+2      	; 0x31e0 <ProcessInput+0x550>
    31de:	9a c0       	rjmp	.+308    	; 0x3314 <ProcessInput+0x684>
            if (inventory[0]&&inventory[1]) {
    31e0:	80 91 40 38 	lds	r24, 0x3840	; 0x803840 <inventory>
    31e4:	90 91 41 38 	lds	r25, 0x3841	; 0x803841 <inventory+0x1>
    31e8:	89 2b       	or	r24, r25
    31ea:	79 f0       	breq	.+30     	; 0x320a <ProcessInput+0x57a>
    31ec:	80 91 42 38 	lds	r24, 0x3842	; 0x803842 <inventory+0x2>
    31f0:	90 91 43 38 	lds	r25, 0x3843	; 0x803843 <inventory+0x3>
    31f4:	89 2b       	or	r24, r25
    31f6:	49 f0       	breq	.+18     	; 0x320a <ProcessInput+0x57a>
    return 0;
}

//
void SetResponse(uint8_t number, uint16_t address, uint16_t length, uint8_t type){
    reactStr[0][number]=address;
    31f8:	87 e0       	ldi	r24, 0x07	; 7
    31fa:	98 e7       	ldi	r25, 0x78	; 120
    31fc:	80 93 1f 39 	sts	0x391F, r24	; 0x80391f <reactStr+0x2>
    3200:	90 93 20 39 	sts	0x3920, r25	; 0x803920 <reactStr+0x3>
    reactStr[1][number]=length;
    3204:	89 e5       	ldi	r24, 0x59	; 89
    3206:	90 e0       	ldi	r25, 0x00	; 0
    3208:	08 ce       	rjmp	.-1008   	; 0x2e1a <ProcessInput+0x18a>
        
        //Pick up an object
        } else if (data[0] == 'p') {
            if (inventory[0]&&inventory[1]) {
                SetResponse(elements++, A_CARRYTWO, L_CARRYTWO, TEASER);
            } else if (inputLen != 2) {
    320a:	b2 e0       	ldi	r27, 0x02	; 2
    320c:	fb 12       	cpse	r15, r27
    320e:	70 cd       	rjmp	.-1312   	; 0x2cf0 <ProcessInput+0x60>
                SetResponse(elements++, A_NOTPOSSIBLE, L_NOTPOSSIBLE, TEASER);
            } else {
                route[currDepth+1] = FindChild(route[currDepth], data[1], 0);
    3210:	e0 90 2e 38 	lds	r14, 0x382E	; 0x80382e <currDepth>
    3214:	f1 2c       	mov	r15, r1
    3216:	f7 01       	movw	r30, r14
    3218:	ee 0f       	add	r30, r30
    321a:	ff 1f       	adc	r31, r31
    321c:	e3 52       	subi	r30, 0x23	; 35
    321e:	f6 4c       	sbci	r31, 0xC6	; 198
    3220:	40 e0       	ldi	r20, 0x00	; 0
    3222:	50 e0       	ldi	r21, 0x00	; 0
    3224:	d8 01       	movw	r26, r16
    3226:	11 96       	adiw	r26, 0x01	; 1
    3228:	6c 91       	ld	r22, X
    322a:	80 81       	ld	r24, Z
    322c:	91 81       	ldd	r25, Z+1	; 0x01
    322e:	4a d9       	rcall	.-3436   	; 0x24c4 <FindChild>
    3230:	f7 01       	movw	r30, r14
    3232:	ee 0f       	add	r30, r30
    3234:	ff 1f       	adc	r31, r31
    3236:	e1 52       	subi	r30, 0x21	; 33
    3238:	f6 4c       	sbci	r31, 0xC6	; 198
    323a:	80 83       	st	Z, r24
    323c:	91 83       	std	Z+1, r25	; 0x01
                if (route[currDepth+1]) {
    323e:	20 91 2e 38 	lds	r18, 0x382E	; 0x80382e <currDepth>
    3242:	30 e0       	ldi	r19, 0x00	; 0
    3244:	2f 5f       	subi	r18, 0xFF	; 255
    3246:	3f 4f       	sbci	r19, 0xFF	; 255
    3248:	22 0f       	add	r18, r18
    324a:	33 1f       	adc	r19, r19
    324c:	f9 01       	movw	r30, r18
    324e:	e3 52       	subi	r30, 0x23	; 35
    3250:	f6 4c       	sbci	r31, 0xC6	; 198
    3252:	80 81       	ld	r24, Z
    3254:	91 81       	ldd	r25, Z+1	; 0x01
    3256:	00 97       	sbiw	r24, 0x00	; 0
    3258:	09 f4       	brne	.+2      	; 0x325c <ProcessInput+0x5cc>
    325a:	ce c3       	rjmp	.+1948   	; 0x39f8 <ProcessInput+0xd68>
                    if ((route[currDepth+1] == inventory[0])||(route[currDepth+1] == inventory[1])) {
    325c:	40 91 40 38 	lds	r20, 0x3840	; 0x803840 <inventory>
    3260:	50 91 41 38 	lds	r21, 0x3841	; 0x803841 <inventory+0x1>
    3264:	84 17       	cp	r24, r20
    3266:	95 07       	cpc	r25, r21
    3268:	39 f0       	breq	.+14     	; 0x3278 <ProcessInput+0x5e8>
    326a:	40 91 42 38 	lds	r20, 0x3842	; 0x803842 <inventory+0x2>
    326e:	50 91 43 38 	lds	r21, 0x3843	; 0x803843 <inventory+0x3>
    3272:	84 17       	cp	r24, r20
    3274:	95 07       	cpc	r25, r21
    3276:	c1 f4       	brne	.+48     	; 0x32a8 <ProcessInput+0x618>
    return 0;
}

//
void SetResponse(uint8_t number, uint16_t address, uint16_t length, uint8_t type){
    reactStr[0][number]=address;
    3278:	82 ee       	ldi	r24, 0xE2	; 226
    327a:	97 e7       	ldi	r25, 0x77	; 119
    327c:	80 93 1f 39 	sts	0x391F, r24	; 0x80391f <reactStr+0x2>
    3280:	90 93 20 39 	sts	0x3920, r25	; 0x803920 <reactStr+0x3>
    reactStr[1][number]=length;
    3284:	85 e2       	ldi	r24, 0x25	; 37
    3286:	90 e0       	ldi	r25, 0x00	; 0
    3288:	80 93 5f 39 	sts	0x395F, r24	; 0x80395f <reactStr+0x42>
    328c:	90 93 60 39 	sts	0x3960, r25	; 0x803960 <reactStr+0x43>
    reactStr[2][number]=type;
    3290:	81 e0       	ldi	r24, 0x01	; 1
    3292:	90 e0       	ldi	r25, 0x00	; 0
    3294:	80 93 9f 39 	sts	0x399F, r24	; 0x80399f <reactStr+0x82>
    3298:	90 93 a0 39 	sts	0x39A0, r25	; 0x8039a0 <reactStr+0x83>
            } else {
                route[currDepth+1] = FindChild(route[currDepth], data[1], 0);
                if (route[currDepth+1]) {
                    if ((route[currDepth+1] == inventory[0])||(route[currDepth+1] == inventory[1])) {
                        SetResponse(elements++, A_ALREADYCARRYING, L_ALREADYCARRYING, TEASER);
                        route[currDepth+1] = 0;
    329c:	f9 01       	movw	r30, r18
    329e:	e3 52       	subi	r30, 0x23	; 35
    32a0:	f6 4c       	sbci	r31, 0xC6	; 198
    32a2:	10 82       	st	Z, r1
    32a4:	11 82       	std	Z+1, r1	; 0x01
                    } else {
                        //Put item in the inventory if possible
                        PopulateObject(route[currDepth+1], &actObj1);  
    32a6:	c3 cd       	rjmp	.-1146   	; 0x2e2e <ProcessInput+0x19e>
    32a8:	6c ed       	ldi	r22, 0xDC	; 220
    32aa:	78 e3       	ldi	r23, 0x38	; 56
    32ac:	3c d8       	rcall	.-3976   	; 0x2326 <PopulateObject>
                        if (CheckState(actObj1.byteField[ACTION_ACL])) {
    32ae:	80 91 e3 38 	lds	r24, 0x38E3	; 0x8038e3 <actObj1.3981+0x7>
    32b2:	0e 94 65 0a 	call	0x14ca	; 0x14ca <CheckState>
    32b6:	88 23       	and	r24, r24
    32b8:	09 f4       	brne	.+2      	; 0x32bc <ProcessInput+0x62c>
    32ba:	79 c3       	rjmp	.+1778   	; 0x39ae <ProcessInput+0xd1e>
                            if (actObj1.byteField[ITEM_NR]) {
    32bc:	80 91 e7 38 	lds	r24, 0x38E7	; 0x8038e7 <actObj1.3981+0xb>
    32c0:	88 23       	and	r24, r24
    32c2:	09 f4       	brne	.+2      	; 0x32c6 <ProcessInput+0x636>
    32c4:	15 cd       	rjmp	.-1494   	; 0x2cf0 <ProcessInput+0x60>
                                if (inventory[0]) {
    32c6:	80 91 40 38 	lds	r24, 0x3840	; 0x803840 <inventory>
    32ca:	90 91 41 38 	lds	r25, 0x3841	; 0x803841 <inventory+0x1>
    32ce:	e0 91 2e 38 	lds	r30, 0x382E	; 0x80382e <currDepth>
                                    inventory[1] = route[currDepth+1];
    32d2:	f0 e0       	ldi	r31, 0x00	; 0
    32d4:	ee 0f       	add	r30, r30
    32d6:	ff 1f       	adc	r31, r31
    32d8:	e1 52       	subi	r30, 0x21	; 33
    32da:	f6 4c       	sbci	r31, 0xC6	; 198
                    } else {
                        //Put item in the inventory if possible
                        PopulateObject(route[currDepth+1], &actObj1);  
                        if (CheckState(actObj1.byteField[ACTION_ACL])) {
                            if (actObj1.byteField[ITEM_NR]) {
                                if (inventory[0]) {
    32dc:	89 2b       	or	r24, r25
    32de:	39 f0       	breq	.+14     	; 0x32ee <ProcessInput+0x65e>
                                    inventory[1] = route[currDepth+1];
    32e0:	80 81       	ld	r24, Z
    32e2:	91 81       	ldd	r25, Z+1	; 0x01
    32e4:	80 93 42 38 	sts	0x3842, r24	; 0x803842 <inventory+0x2>
    32e8:	90 93 43 38 	sts	0x3843, r25	; 0x803843 <inventory+0x3>
    32ec:	06 c0       	rjmp	.+12     	; 0x32fa <ProcessInput+0x66a>
                                } else {
                                    inventory[0] = route[currDepth+1];
    32ee:	80 81       	ld	r24, Z
    32f0:	91 81       	ldd	r25, Z+1	; 0x01
    32f2:	80 93 40 38 	sts	0x3840, r24	; 0x803840 <inventory>
    32f6:	90 93 41 38 	sts	0x3841, r25	; 0x803841 <inventory+0x1>
                                }
                                UpdateState(actObj1.byteField[ACTION_STATE]);
    32fa:	80 91 e6 38 	lds	r24, 0x38E6	; 0x8038e6 <actObj1.3981+0xa>
    32fe:	0e 94 5b 0a 	call	0x14b6	; 0x14b6 <UpdateState>
    return 0;
}

//
void SetResponse(uint8_t number, uint16_t address, uint16_t length, uint8_t type){
    reactStr[0][number]=address;
    3302:	8c ec       	ldi	r24, 0xCC	; 204
    3304:	97 e7       	ldi	r25, 0x77	; 119
    3306:	80 93 1f 39 	sts	0x391F, r24	; 0x80391f <reactStr+0x2>
    330a:	90 93 20 39 	sts	0x3920, r25	; 0x803920 <reactStr+0x3>
    reactStr[1][number]=length;
    330e:	86 e1       	ldi	r24, 0x16	; 22
    3310:	90 e0       	ldi	r25, 0x00	; 0
    3312:	5e c2       	rjmp	.+1212   	; 0x37d0 <ProcessInput+0xb40>
                } else SetResponse(elements++, A_NOSUCHOBJECT, L_NOSUCHOBJECT, TEASER);
            }
        } else

        //Drop item if in inventory
        if (data[0] == 'd') {
    3314:	84 36       	cpi	r24, 0x64	; 100
    3316:	d9 f4       	brne	.+54     	; 0x334e <ProcessInput+0x6be>
            if ((inventory[0] == 0)&&(inventory[1] == 0)){
    3318:	80 91 40 38 	lds	r24, 0x3840	; 0x803840 <inventory>
    331c:	90 91 41 38 	lds	r25, 0x3841	; 0x803841 <inventory+0x1>
    3320:	00 97       	sbiw	r24, 0x00	; 0
    3322:	09 f0       	breq	.+2      	; 0x3326 <ProcessInput+0x696>
    3324:	ec c4       	rjmp	.+2520   	; 0x3cfe <ProcessInput+0x106e>
    3326:	80 91 42 38 	lds	r24, 0x3842	; 0x803842 <inventory+0x2>
    332a:	90 91 43 38 	lds	r25, 0x3843	; 0x803843 <inventory+0x3>
    332e:	89 2b       	or	r24, r25
    3330:	49 f4       	brne	.+18     	; 0x3344 <ProcessInput+0x6b4>
    return 0;
}

//
void SetResponse(uint8_t number, uint16_t address, uint16_t length, uint8_t type){
    reactStr[0][number]=address;
    3332:	86 ea       	ldi	r24, 0xA6	; 166
    3334:	97 e7       	ldi	r25, 0x77	; 119
    3336:	80 93 1f 39 	sts	0x391F, r24	; 0x80391f <reactStr+0x2>
    333a:	90 93 20 39 	sts	0x3920, r25	; 0x803920 <reactStr+0x3>
    reactStr[1][number]=length;
    333e:	86 e2       	ldi	r24, 0x26	; 38
    3340:	90 e0       	ldi	r25, 0x00	; 0
    3342:	6b cd       	rjmp	.-1322   	; 0x2e1a <ProcessInput+0x18a>

        //Drop item if in inventory
        if (data[0] == 'd') {
            if ((inventory[0] == 0)&&(inventory[1] == 0)){
                SetResponse(elements++, A_EMPTYHANDS, L_EMPTYHANDS, TEASER);
            } else if (inputLen != 2) {
    3344:	b2 e0       	ldi	r27, 0x02	; 2
    3346:	fb 16       	cp	r15, r27
    3348:	09 f4       	brne	.+2      	; 0x334c <ProcessInput+0x6bc>
    334a:	40 c5       	rjmp	.+2688   	; 0x3dcc <ProcessInput+0x113c>
    334c:	d1 cc       	rjmp	.-1630   	; 0x2cf0 <ProcessInput+0x60>
                    if (x) SetResponse(elements++, A_NOTCARRYING, L_NOTCARRYING, TEASER);
                }
            }

        //Inventory list
        } else if (data[0] == 'i') {
    334e:	89 36       	cpi	r24, 0x69	; 105
    3350:	09 f0       	breq	.+2      	; 0x3354 <ProcessInput+0x6c4>
    3352:	7b c0       	rjmp	.+246    	; 0x344a <ProcessInput+0x7ba>
            if ((inventory[0] == 0)&&(inventory[1] == 0)){
    3354:	80 91 40 38 	lds	r24, 0x3840	; 0x803840 <inventory>
    3358:	90 91 41 38 	lds	r25, 0x3841	; 0x803841 <inventory+0x1>
    335c:	89 2b       	or	r24, r25
    335e:	31 f4       	brne	.+12     	; 0x336c <ProcessInput+0x6dc>
    3360:	80 91 42 38 	lds	r24, 0x3842	; 0x803842 <inventory+0x2>
    3364:	90 91 43 38 	lds	r25, 0x3843	; 0x803843 <inventory+0x3>
    3368:	89 2b       	or	r24, r25
    336a:	19 f3       	breq	.-58     	; 0x3332 <ProcessInput+0x6a2>
    return 0;
}

//
void SetResponse(uint8_t number, uint16_t address, uint16_t length, uint8_t type){
    reactStr[0][number]=address;
    336c:	8c ec       	ldi	r24, 0xCC	; 204
    336e:	97 e7       	ldi	r25, 0x77	; 119
    3370:	80 93 1f 39 	sts	0x391F, r24	; 0x80391f <reactStr+0x2>
    3374:	90 93 20 39 	sts	0x3920, r25	; 0x803920 <reactStr+0x3>
    reactStr[1][number]=length;
    3378:	86 e1       	ldi	r24, 0x16	; 22
    337a:	90 e0       	ldi	r25, 0x00	; 0
    337c:	80 93 5f 39 	sts	0x395F, r24	; 0x80395f <reactStr+0x42>
    3380:	90 93 60 39 	sts	0x3960, r25	; 0x803960 <reactStr+0x43>
    reactStr[2][number]=type;
    3384:	81 e0       	ldi	r24, 0x01	; 1
    3386:	90 e0       	ldi	r25, 0x00	; 0
    3388:	80 93 9f 39 	sts	0x399F, r24	; 0x80399f <reactStr+0x82>
    338c:	90 93 a0 39 	sts	0x39A0, r25	; 0x8039a0 <reactStr+0x83>
    3390:	20 e4       	ldi	r18, 0x40	; 64
    3392:	e2 2e       	mov	r14, r18
    3394:	28 e3       	ldi	r18, 0x38	; 56
    3396:	f2 2e       	mov	r15, r18
    3398:	34 e4       	ldi	r19, 0x44	; 68
    339a:	63 2e       	mov	r6, r19
    339c:	38 e3       	ldi	r19, 0x38	; 56
    339e:	73 2e       	mov	r7, r19
        //Inventory list
        } else if (data[0] == 'i') {
            if ((inventory[0] == 0)&&(inventory[1] == 0)){
                SetResponse(elements++, A_EMPTYHANDS, L_EMPTYHANDS, TEASER);
            } else {
                SetResponse(elements++, A_NOWCARRING, L_NOWCARRING, TEASER);
    33a0:	42 e0       	ldi	r20, 0x02	; 2
    33a2:	54 2e       	mov	r5, r20
    return 0;
}

//
void SetResponse(uint8_t number, uint16_t address, uint16_t length, uint8_t type){
    reactStr[0][number]=address;
    33a4:	57 e5       	ldi	r21, 0x57	; 87
    33a6:	c5 2e       	mov	r12, r21
    33a8:	5a e7       	ldi	r21, 0x7A	; 122
    33aa:	d5 2e       	mov	r13, r21
    reactStr[1][number]=length;
    33ac:	62 e0       	ldi	r22, 0x02	; 2
    33ae:	a6 2e       	mov	r10, r22
    33b0:	b1 2c       	mov	r11, r1
    reactStr[2][number]=type;
    33b2:	88 24       	eor	r8, r8
    33b4:	83 94       	inc	r8
    33b6:	91 2c       	mov	r9, r1
            } else {
                SetResponse(elements++, A_NOWCARRING, L_NOWCARRING, TEASER);
                //SetResponse(elements++, A_SPACE, L_SPACE, TEASER);
                
                for (uint8_t x=0; x<2; ++x) {
                    if (inventory[x]) {
    33b8:	d7 01       	movw	r26, r14
    33ba:	8d 91       	ld	r24, X+
    33bc:	9d 91       	ld	r25, X+
    33be:	7d 01       	movw	r14, r26
    33c0:	00 97       	sbiw	r24, 0x00	; 0
    33c2:	d9 f1       	breq	.+118    	; 0x343a <ProcessInput+0x7aa>
                        PopulateObject(inventory[x], &actObj1);
    33c4:	6c ed       	ldi	r22, 0xDC	; 220
    33c6:	78 e3       	ldi	r23, 0x38	; 56
    33c8:	0e 94 93 11 	call	0x2326	; 0x2326 <PopulateObject>
                        SetResponse(elements++, actObj1.addrStr[NAME], actObj1.lenStr[NAME], GAME);
    33cc:	80 91 f6 38 	lds	r24, 0x38F6	; 0x8038f6 <actObj1.3981+0x1a>
    33d0:	90 91 f7 38 	lds	r25, 0x38F7	; 0x8038f7 <actObj1.3981+0x1b>
    return 0;
}

//
void SetResponse(uint8_t number, uint16_t address, uint16_t length, uint8_t type){
    reactStr[0][number]=address;
    33d4:	e5 2d       	mov	r30, r5
    33d6:	f0 e0       	ldi	r31, 0x00	; 0
    33d8:	df 01       	movw	r26, r30
    33da:	aa 0f       	add	r26, r26
    33dc:	bb 1f       	adc	r27, r27
    33de:	a3 5e       	subi	r26, 0xE3	; 227
    33e0:	b6 4c       	sbci	r27, 0xC6	; 198
    33e2:	20 91 e8 38 	lds	r18, 0x38E8	; 0x8038e8 <actObj1.3981+0xc>
    33e6:	30 91 e9 38 	lds	r19, 0x38E9	; 0x8038e9 <actObj1.3981+0xd>
    33ea:	2d 93       	st	X+, r18
    33ec:	3c 93       	st	X, r19
    reactStr[1][number]=length;
    33ee:	df 01       	movw	r26, r30
    33f0:	aa 0f       	add	r26, r26
    33f2:	bb 1f       	adc	r27, r27
    33f4:	a3 5a       	subi	r26, 0xA3	; 163
    33f6:	b6 4c       	sbci	r27, 0xC6	; 198
    33f8:	8d 93       	st	X+, r24
    33fa:	9c 93       	st	X, r25
    reactStr[2][number]=type;
    33fc:	ee 0f       	add	r30, r30
    33fe:	ff 1f       	adc	r31, r31
    3400:	e3 56       	subi	r30, 0x63	; 99
    3402:	f6 4c       	sbci	r31, 0xC6	; 198
    3404:	10 82       	st	Z, r1
    3406:	11 82       	std	Z+1, r1	; 0x01
    return 0;
}

//
void SetResponse(uint8_t number, uint16_t address, uint16_t length, uint8_t type){
    reactStr[0][number]=address;
    3408:	e1 e0       	ldi	r30, 0x01	; 1
    340a:	e5 0d       	add	r30, r5
    340c:	f0 e0       	ldi	r31, 0x00	; 0
    340e:	53 94       	inc	r5
    3410:	53 94       	inc	r5
    3412:	df 01       	movw	r26, r30
    3414:	aa 0f       	add	r26, r26
    3416:	bb 1f       	adc	r27, r27
    3418:	a3 5e       	subi	r26, 0xE3	; 227
    341a:	b6 4c       	sbci	r27, 0xC6	; 198
    341c:	cd 92       	st	X+, r12
    341e:	dc 92       	st	X, r13
    reactStr[1][number]=length;
    3420:	df 01       	movw	r26, r30
    3422:	aa 0f       	add	r26, r26
    3424:	bb 1f       	adc	r27, r27
    3426:	a3 5a       	subi	r26, 0xA3	; 163
    3428:	b6 4c       	sbci	r27, 0xC6	; 198
    342a:	ad 92       	st	X+, r10
    342c:	bc 92       	st	X, r11
    reactStr[2][number]=type;
    342e:	ee 0f       	add	r30, r30
    3430:	ff 1f       	adc	r31, r31
    3432:	e3 56       	subi	r30, 0x63	; 99
    3434:	f6 4c       	sbci	r31, 0xC6	; 198
    3436:	80 82       	st	Z, r8
    3438:	91 82       	std	Z+1, r9	; 0x01
                SetResponse(elements++, A_EMPTYHANDS, L_EMPTYHANDS, TEASER);
            } else {
                SetResponse(elements++, A_NOWCARRING, L_NOWCARRING, TEASER);
                //SetResponse(elements++, A_SPACE, L_SPACE, TEASER);
                
                for (uint8_t x=0; x<2; ++x) {
    343a:	6e 14       	cp	r6, r14
    343c:	7f 04       	cpc	r7, r15
    343e:	09 f0       	breq	.+2      	; 0x3442 <ProcessInput+0x7b2>
    3440:	bb cf       	rjmp	.-138    	; 0x33b8 <ProcessInput+0x728>
                        SetResponse(elements++, actObj1.addrStr[NAME], actObj1.lenStr[NAME], GAME);
                        SetResponse(elements++, A_COMMA, L_COMMA, TEASER);
                        //SetResponse(elements++, A_SPACE, L_SPACE, TEASER);
                    }
                }
                elements -= 1;
    3442:	77 24       	eor	r7, r7
    3444:	7a 94       	dec	r7
    3446:	75 0c       	add	r7, r5
    3448:	25 c4       	rjmp	.+2122   	; 0x3c94 <ProcessInput+0x1004>
            }            
        
        //Talk, use, give, read
        } else if ((data[0] == 't')||(data[0] == 'u')||(data[0] == 'g')||(data[0] == 'r')) {
    344a:	9c e8       	ldi	r25, 0x8C	; 140
    344c:	98 0f       	add	r25, r24
    344e:	92 30       	cpi	r25, 0x02	; 2
    3450:	28 f0       	brcs	.+10     	; 0x345c <ProcessInput+0x7cc>
    3452:	87 36       	cpi	r24, 0x67	; 103
    3454:	19 f0       	breq	.+6      	; 0x345c <ProcessInput+0x7cc>
    3456:	82 37       	cpi	r24, 0x72	; 114
    3458:	09 f0       	breq	.+2      	; 0x345c <ProcessInput+0x7cc>
    345a:	d7 c2       	rjmp	.+1454   	; 0x3a0a <ProcessInput+0xd7a>
            if ((inputLen<2)||(inputLen>3)) {
    345c:	8e ef       	ldi	r24, 0xFE	; 254
    345e:	8f 0d       	add	r24, r15
    3460:	82 30       	cpi	r24, 0x02	; 2
    3462:	08 f0       	brcs	.+2      	; 0x3466 <ProcessInput+0x7d6>
    3464:	45 cc       	rjmp	.-1910   	; 0x2cf0 <ProcessInput+0x60>
                SetResponse(elements++, A_NOTPOSSIBLE, L_NOTPOSSIBLE, TEASER);                
            
            //Check for visible person or object first
            } else {
                route[currDepth+1] = FindChild(route[currDepth], data[inputLen-1], 0);
    3466:	e0 91 2e 38 	lds	r30, 0x382E	; 0x80382e <currDepth>
    346a:	ce 2e       	mov	r12, r30
    346c:	d1 2c       	mov	r13, r1
    346e:	d8 01       	movw	r26, r16
    3470:	af 0d       	add	r26, r15
    3472:	b1 1d       	adc	r27, r1
    3474:	11 97       	sbiw	r26, 0x01	; 1
    3476:	f6 01       	movw	r30, r12
    3478:	ee 0f       	add	r30, r30
    347a:	ff 1f       	adc	r31, r31
    347c:	e3 52       	subi	r30, 0x23	; 35
    347e:	f6 4c       	sbci	r31, 0xC6	; 198
    3480:	40 e0       	ldi	r20, 0x00	; 0
    3482:	50 e0       	ldi	r21, 0x00	; 0
    3484:	6c 91       	ld	r22, X
    3486:	80 81       	ld	r24, Z
    3488:	91 81       	ldd	r25, Z+1	; 0x01
    348a:	1c d8       	rcall	.-4040   	; 0x24c4 <FindChild>
    348c:	f6 01       	movw	r30, r12
    348e:	ee 0f       	add	r30, r30
    3490:	ff 1f       	adc	r31, r31
    3492:	e1 52       	subi	r30, 0x21	; 33
    3494:	f6 4c       	sbci	r31, 0xC6	; 198
    3496:	80 83       	st	Z, r24
    3498:	91 83       	std	Z+1, r25	; 0x01
                if (route[currDepth+1]) {
    349a:	e0 91 2e 38 	lds	r30, 0x382E	; 0x80382e <currDepth>
    349e:	f0 e0       	ldi	r31, 0x00	; 0
    34a0:	ee 0f       	add	r30, r30
    34a2:	ff 1f       	adc	r31, r31
    34a4:	e1 52       	subi	r30, 0x21	; 33
    34a6:	f6 4c       	sbci	r31, 0xC6	; 198
    34a8:	80 81       	ld	r24, Z
    34aa:	91 81       	ldd	r25, Z+1	; 0x01
    34ac:	00 97       	sbiw	r24, 0x00	; 0
    34ae:	09 f4       	brne	.+2      	; 0x34b2 <ProcessInput+0x822>
    34b0:	9a c2       	rjmp	.+1332   	; 0x39e6 <ProcessInput+0xd56>
                    
                    //Give item to person / use item on object 
                    if ((inputLen == 3)&&((data[0] == 'u')||(data[0] == 'g'))) {
    34b2:	b3 e0       	ldi	r27, 0x03	; 3
    34b4:	fb 12       	cpse	r15, r27
    34b6:	78 c1       	rjmp	.+752    	; 0x37a8 <ProcessInput+0xb18>
    34b8:	f8 01       	movw	r30, r16
    34ba:	20 81       	ld	r18, Z
    34bc:	25 37       	cpi	r18, 0x75	; 117
    34be:	19 f0       	breq	.+6      	; 0x34c6 <ProcessInput+0x836>
    34c0:	27 36       	cpi	r18, 0x67	; 103
    34c2:	09 f0       	breq	.+2      	; 0x34c6 <ProcessInput+0x836>
    34c4:	71 c1       	rjmp	.+738    	; 0x37a8 <ProcessInput+0xb18>
    34c6:	61 2c       	mov	r6, r1
    34c8:	77 24       	eor	r7, r7
    34ca:	73 94       	inc	r7
    return 0;
}

//
void SetResponse(uint8_t number, uint16_t address, uint16_t length, uint8_t type){
    reactStr[0][number]=address;
    34cc:	51 e6       	ldi	r21, 0x61	; 97
    34ce:	c5 2e       	mov	r12, r21
    34d0:	59 e7       	ldi	r21, 0x79	; 121
    34d2:	d5 2e       	mov	r13, r21
    reactStr[1][number]=length;
    34d4:	61 e2       	ldi	r22, 0x21	; 33
    34d6:	a6 2e       	mov	r10, r22
    34d8:	b1 2c       	mov	r11, r1
    reactStr[2][number]=type;
    34da:	88 24       	eor	r8, r8
    34dc:	83 94       	inc	r8
    34de:	91 2c       	mov	r9, r1
                if (route[currDepth+1]) {
                    
                    //Give item to person / use item on object 
                    if ((inputLen == 3)&&((data[0] == 'u')||(data[0] == 'g'))) {
                        for (uint8_t x=0; x<2; x++) {
                            if (inventory[x]) { 
    34e0:	e6 2c       	mov	r14, r6
    34e2:	f1 2c       	mov	r15, r1
    34e4:	c7 01       	movw	r24, r14
    34e6:	88 0f       	add	r24, r24
    34e8:	99 1f       	adc	r25, r25
    34ea:	9c 01       	movw	r18, r24
    34ec:	20 5c       	subi	r18, 0xC0	; 192
    34ee:	37 4c       	sbci	r19, 0xC7	; 199
    34f0:	79 01       	movw	r14, r18
    34f2:	d9 01       	movw	r26, r18
    34f4:	8d 91       	ld	r24, X+
    34f6:	9c 91       	ld	r25, X
    34f8:	00 97       	sbiw	r24, 0x00	; 0
    34fa:	81 f0       	breq	.+32     	; 0x351c <ProcessInput+0x88c>
                                if (CheckLetter(inventory[x], data[1])) {
    34fc:	f8 01       	movw	r30, r16
    34fe:	61 81       	ldd	r22, Z+1	; 0x01
    3500:	0e 94 0c 12 	call	0x2418	; 0x2418 <CheckLetter>
    3504:	88 23       	and	r24, r24
    3506:	51 f0       	breq	.+20     	; 0x351c <ProcessInput+0x88c>
                                    PopulateObject(inventory[x], &actObj2);
    3508:	61 eb       	ldi	r22, 0xB1	; 177
    350a:	78 e3       	ldi	r23, 0x38	; 56
    350c:	d7 01       	movw	r26, r14
    350e:	8d 91       	ld	r24, X+
    3510:	9c 91       	ld	r25, X
    3512:	0e 94 93 11 	call	0x2326	; 0x2326 <PopulateObject>
                                    x = 2;
    3516:	32 e0       	ldi	r19, 0x02	; 2
    3518:	63 2e       	mov	r6, r19
    351a:	1e c0       	rjmp	.+60     	; 0x3558 <ProcessInput+0x8c8>
                                }
                            }
                            if (x == 1) { 
    351c:	b1 e0       	ldi	r27, 0x01	; 1
    351e:	6b 12       	cpse	r6, r27
    3520:	1a c0       	rjmp	.+52     	; 0x3556 <ProcessInput+0x8c6>
    return 0;
}

//
void SetResponse(uint8_t number, uint16_t address, uint16_t length, uint8_t type){
    reactStr[0][number]=address;
    3522:	e7 2d       	mov	r30, r7
    3524:	f0 e0       	ldi	r31, 0x00	; 0
    3526:	df 01       	movw	r26, r30
    3528:	aa 0f       	add	r26, r26
    352a:	bb 1f       	adc	r27, r27
    352c:	a3 5e       	subi	r26, 0xE3	; 227
    352e:	b6 4c       	sbci	r27, 0xC6	; 198
    3530:	cd 92       	st	X+, r12
    3532:	dc 92       	st	X, r13
    reactStr[1][number]=length;
    3534:	df 01       	movw	r26, r30
    3536:	aa 0f       	add	r26, r26
    3538:	bb 1f       	adc	r27, r27
    353a:	a3 5a       	subi	r26, 0xA3	; 163
    353c:	b6 4c       	sbci	r27, 0xC6	; 198
    353e:	ad 92       	st	X+, r10
    3540:	bc 92       	st	X, r11
    reactStr[2][number]=type;
    3542:	ee 0f       	add	r30, r30
    3544:	ff 1f       	adc	r31, r31
    3546:	e3 56       	subi	r30, 0x63	; 99
    3548:	f6 4c       	sbci	r31, 0xC6	; 198
    354a:	80 82       	st	Z, r8
    354c:	91 82       	std	Z+1, r9	; 0x01
                                    x = 2;
                                }
                            }
                            if (x == 1) { 
                                SetResponse(elements++, A_NOTCARRYING, L_NOTCARRYING, TEASER);
                                data[0] = 0;
    354e:	f8 01       	movw	r30, r16
    3550:	10 82       	st	Z, r1
                                    PopulateObject(inventory[x], &actObj2);
                                    x = 2;
                                }
                            }
                            if (x == 1) { 
                                SetResponse(elements++, A_NOTCARRYING, L_NOTCARRYING, TEASER);
    3552:	73 94       	inc	r7
    3554:	01 c0       	rjmp	.+2      	; 0x3558 <ProcessInput+0x8c8>
    3556:	61 2c       	mov	r6, r1
                route[currDepth+1] = FindChild(route[currDepth], data[inputLen-1], 0);
                if (route[currDepth+1]) {
                    
                    //Give item to person / use item on object 
                    if ((inputLen == 3)&&((data[0] == 'u')||(data[0] == 'g'))) {
                        for (uint8_t x=0; x<2; x++) {
    3558:	63 94       	inc	r6
    355a:	f1 e0       	ldi	r31, 0x01	; 1
    355c:	6f 16       	cp	r6, r31
    355e:	09 f4       	brne	.+2      	; 0x3562 <ProcessInput+0x8d2>
    3560:	bf cf       	rjmp	.-130    	; 0x34e0 <ProcessInput+0x850>
                                data[0] = 0;
                            }
                        }

                        //Both the item and person/object are found, check if action is legit
                        if (data[0]){
    3562:	d8 01       	movw	r26, r16
    3564:	8c 91       	ld	r24, X
    3566:	88 23       	and	r24, r24
    3568:	09 f4       	brne	.+2      	; 0x356c <ProcessInput+0x8dc>
    356a:	94 c3       	rjmp	.+1832   	; 0x3c94 <ProcessInput+0x1004>
                            PopulateObject(route[currDepth+1], &actObj1);
    356c:	e0 91 2e 38 	lds	r30, 0x382E	; 0x80382e <currDepth>
    3570:	f0 e0       	ldi	r31, 0x00	; 0
    3572:	ee 0f       	add	r30, r30
    3574:	ff 1f       	adc	r31, r31
    3576:	e1 52       	subi	r30, 0x21	; 33
    3578:	f6 4c       	sbci	r31, 0xC6	; 198
    357a:	6c ed       	ldi	r22, 0xDC	; 220
    357c:	78 e3       	ldi	r23, 0x38	; 56
    357e:	80 81       	ld	r24, Z
    3580:	91 81       	ldd	r25, Z+1	; 0x01
    3582:	0e 94 93 11 	call	0x2326	; 0x2326 <PopulateObject>

                            //Special game
                            if (actObj1.lenStr[ACTION_STR1] == 1) {
    3586:	e0 90 fa 38 	lds	r14, 0x38FA	; 0x8038fa <actObj1.3981+0x1e>
    358a:	f0 90 fb 38 	lds	r15, 0x38FB	; 0x8038fb <actObj1.3981+0x1f>
    358e:	b1 e0       	ldi	r27, 0x01	; 1
    3590:	eb 16       	cp	r14, r27
    3592:	f1 04       	cpc	r15, r1
    3594:	09 f0       	breq	.+2      	; 0x3598 <ProcessInput+0x908>
    3596:	9a c0       	rjmp	.+308    	; 0x36cc <ProcessInput+0xa3c>
                                ExtEERead(actObj1.addrStr[ACTION_STR1], 1, GAME, &data[2]);
    3598:	98 01       	movw	r18, r16
    359a:	2e 5f       	subi	r18, 0xFE	; 254
    359c:	3f 4f       	sbci	r19, 0xFF	; 255
    359e:	40 e0       	ldi	r20, 0x00	; 0
    35a0:	61 e0       	ldi	r22, 0x01	; 1
    35a2:	80 91 ec 38 	lds	r24, 0x38EC	; 0x8038ec <actObj1.3981+0x10>
    35a6:	90 91 ed 38 	lds	r25, 0x38ED	; 0x8038ed <actObj1.3981+0x11>
    35aa:	0e 94 97 08 	call	0x112e	; 0x112e <ExtEERead>
                                if (data[2] == '1') {
    35ae:	f8 01       	movw	r30, r16
    35b0:	42 81       	ldd	r20, Z+2	; 0x02
    35b2:	21 e0       	ldi	r18, 0x01	; 1
    35b4:	27 0d       	add	r18, r7
    35b6:	87 2d       	mov	r24, r7
    35b8:	90 e0       	ldi	r25, 0x00	; 0
    35ba:	41 33       	cpi	r20, 0x31	; 49
    35bc:	09 f0       	breq	.+2      	; 0x35c0 <ProcessInput+0x930>
    35be:	6b c0       	rjmp	.+214    	; 0x3696 <ProcessInput+0xa06>
                                    uint8_t item = actObj2.byteField[ITEM_NR];
    35c0:	30 91 bc 38 	lds	r19, 0x38BC	; 0x8038bc <actObj2.3982+0xb>
                                    if ((item < 31)||(item > 34)) {
    35c4:	51 ee       	ldi	r21, 0xE1	; 225
    35c6:	53 0f       	add	r21, r19
    return 0;
}

//
void SetResponse(uint8_t number, uint16_t address, uint16_t length, uint8_t type){
    reactStr[0][number]=address;
    35c8:	fc 01       	movw	r30, r24
    35ca:	ee 0f       	add	r30, r30
    35cc:	ff 1f       	adc	r31, r31
    35ce:	e3 5e       	subi	r30, 0xE3	; 227
    35d0:	f6 4c       	sbci	r31, 0xC6	; 198
                            //Special game
                            if (actObj1.lenStr[ACTION_STR1] == 1) {
                                ExtEERead(actObj1.addrStr[ACTION_STR1], 1, GAME, &data[2]);
                                if (data[2] == '1') {
                                    uint8_t item = actObj2.byteField[ITEM_NR];
                                    if ((item < 31)||(item > 34)) {
    35d2:	54 30       	cpi	r21, 0x04	; 4
    35d4:	60 f0       	brcs	.+24     	; 0x35ee <ProcessInput+0x95e>
    return 0;
}

//
void SetResponse(uint8_t number, uint16_t address, uint16_t length, uint8_t type){
    reactStr[0][number]=address;
    35d6:	41 e0       	ldi	r20, 0x01	; 1
    35d8:	59 e7       	ldi	r21, 0x79	; 121
    35da:	40 83       	st	Z, r20
    35dc:	51 83       	std	Z+1, r21	; 0x01
    reactStr[1][number]=length;
    35de:	fc 01       	movw	r30, r24
    35e0:	ee 0f       	add	r30, r30
    35e2:	ff 1f       	adc	r31, r31
    35e4:	e3 5a       	subi	r30, 0xA3	; 163
    35e6:	f6 4c       	sbci	r31, 0xC6	; 198
    35e8:	4a e1       	ldi	r20, 0x1A	; 26
    35ea:	50 e0       	ldi	r21, 0x00	; 0
    35ec:	64 c0       	rjmp	.+200    	; 0x36b6 <ProcessInput+0xa26>
    return 0;
}

//
void SetResponse(uint8_t number, uint16_t address, uint16_t length, uint8_t type){
    reactStr[0][number]=address;
    35ee:	60 e5       	ldi	r22, 0x50	; 80
    35f0:	75 e7       	ldi	r23, 0x75	; 117
    35f2:	60 83       	st	Z, r22
    35f4:	71 83       	std	Z+1, r23	; 0x01
    reactStr[1][number]=length;
    35f6:	fc 01       	movw	r30, r24
    35f8:	ee 0f       	add	r30, r30
    35fa:	ff 1f       	adc	r31, r31
    35fc:	e3 5a       	subi	r30, 0xA3	; 163
    35fe:	f6 4c       	sbci	r31, 0xC6	; 198
    3600:	62 eb       	ldi	r22, 0xB2	; 178
    3602:	70 e0       	ldi	r23, 0x00	; 0
    3604:	60 83       	st	Z, r22
    3606:	71 83       	std	Z+1, r23	; 0x01
    reactStr[2][number]=type;
    3608:	88 0f       	add	r24, r24
    360a:	99 1f       	adc	r25, r25
    360c:	fc 01       	movw	r30, r24
    360e:	e3 56       	subi	r30, 0x63	; 99
    3610:	f6 4c       	sbci	r31, 0xC6	; 198
    3612:	e0 82       	st	Z, r14
    3614:	f1 82       	std	Z+1, r15	; 0x01
    return 0;
}

//
void SetResponse(uint8_t number, uint16_t address, uint16_t length, uint8_t type){
    reactStr[0][number]=address;
    3616:	82 2f       	mov	r24, r18
    3618:	90 e0       	ldi	r25, 0x00	; 0
    361a:	fc 01       	movw	r30, r24
    361c:	ee 0f       	add	r30, r30
    361e:	ff 1f       	adc	r31, r31
    3620:	e3 5e       	subi	r30, 0xE3	; 227
    3622:	f6 4c       	sbci	r31, 0xC6	; 198
    3624:	69 e5       	ldi	r22, 0x59	; 89
    3626:	7a e7       	ldi	r23, 0x7A	; 122
    3628:	60 83       	st	Z, r22
    362a:	71 83       	std	Z+1, r23	; 0x01
    reactStr[1][number]=length;
    362c:	fc 01       	movw	r30, r24
    362e:	ee 0f       	add	r30, r30
    3630:	ff 1f       	adc	r31, r31
    3632:	e3 5a       	subi	r30, 0xA3	; 163
    3634:	f6 4c       	sbci	r31, 0xC6	; 198
    3636:	62 e0       	ldi	r22, 0x02	; 2
    3638:	70 e0       	ldi	r23, 0x00	; 0
    363a:	60 83       	st	Z, r22
    363c:	71 83       	std	Z+1, r23	; 0x01
    reactStr[2][number]=type;
    363e:	88 0f       	add	r24, r24
    3640:	99 1f       	adc	r25, r25
    3642:	fc 01       	movw	r30, r24
    3644:	e3 56       	subi	r30, 0x63	; 99
    3646:	f6 4c       	sbci	r31, 0xC6	; 198
    3648:	e0 82       	st	Z, r14
    364a:	f1 82       	std	Z+1, r15	; 0x01
    return 0;
}

//
void SetResponse(uint8_t number, uint16_t address, uint16_t length, uint8_t type){
    reactStr[0][number]=address;
    364c:	82 e0       	ldi	r24, 0x02	; 2
    364e:	87 0d       	add	r24, r7
    3650:	90 e0       	ldi	r25, 0x00	; 0
    3652:	f3 e0       	ldi	r31, 0x03	; 3
    3654:	7f 0e       	add	r7, r31
    3656:	fc 01       	movw	r30, r24
    3658:	ee 0f       	add	r30, r30
    365a:	ff 1f       	adc	r31, r31
    365c:	e3 5e       	subi	r30, 0xE3	; 227
    365e:	f6 4c       	sbci	r31, 0xC6	; 198
    3660:	6d ea       	ldi	r22, 0xAD	; 173
    3662:	78 e7       	ldi	r23, 0x78	; 120
    3664:	60 83       	st	Z, r22
    3666:	71 83       	std	Z+1, r23	; 0x01
    reactStr[1][number]=length;
    3668:	fc 01       	movw	r30, r24
    366a:	ee 0f       	add	r30, r30
    366c:	ff 1f       	adc	r31, r31
    366e:	e3 5a       	subi	r30, 0xA3	; 163
    3670:	f6 4c       	sbci	r31, 0xC6	; 198
    3672:	62 e1       	ldi	r22, 0x12	; 18
    3674:	70 e0       	ldi	r23, 0x00	; 0
    3676:	60 83       	st	Z, r22
    3678:	71 83       	std	Z+1, r23	; 0x01
    reactStr[2][number]=type;
    367a:	88 0f       	add	r24, r24
    367c:	99 1f       	adc	r25, r25
    367e:	fc 01       	movw	r30, r24
    3680:	e3 56       	subi	r30, 0x63	; 99
    3682:	f6 4c       	sbci	r31, 0xC6	; 198
    3684:	e0 82       	st	Z, r14
    3686:	f1 82       	std	Z+1, r15	; 0x01
                                        SetResponse(elements++, A_CANTUSE, L_CANTUSE, TEASER);
                                    } else {
                                        SetResponse(elements++, A_PRIEST, L_PRIEST, TEASER);
                                        SetResponse(elements++, A_LF, 2, TEASER);
                                        SetResponse(elements++, A_RESPONSE, L_RESPONSE, TEASER);
                                        specialInput[0] = '1';
    3688:	40 93 0c 39 	sts	0x390C, r20	; 0x80390c <specialInput>
                                        specialInput[1] = item;
    368c:	30 93 0d 39 	sts	0x390D, r19	; 0x80390d <specialInput+0x1>
                                        specialInput[2] = 0;
    3690:	10 92 0e 39 	sts	0x390E, r1	; 0x80390e <specialInput+0x2>
    3694:	ff c2       	rjmp	.+1534   	; 0x3c94 <ProcessInput+0x1004>
    return 0;
}

//
void SetResponse(uint8_t number, uint16_t address, uint16_t length, uint8_t type){
    reactStr[0][number]=address;
    3696:	fc 01       	movw	r30, r24
    3698:	ee 0f       	add	r30, r30
    369a:	ff 1f       	adc	r31, r31
    369c:	e3 5e       	subi	r30, 0xE3	; 227
    369e:	f6 4c       	sbci	r31, 0xC6	; 198
    36a0:	42 e0       	ldi	r20, 0x02	; 2
    36a2:	56 e7       	ldi	r21, 0x76	; 118
    36a4:	40 83       	st	Z, r20
    36a6:	51 83       	std	Z+1, r21	; 0x01
    reactStr[1][number]=length;
    36a8:	fc 01       	movw	r30, r24
    36aa:	ee 0f       	add	r30, r30
    36ac:	ff 1f       	adc	r31, r31
    36ae:	e3 5a       	subi	r30, 0xA3	; 163
    36b0:	f6 4c       	sbci	r31, 0xC6	; 198
    36b2:	42 e4       	ldi	r20, 0x42	; 66
    36b4:	50 e0       	ldi	r21, 0x00	; 0
    36b6:	40 83       	st	Z, r20
    36b8:	51 83       	std	Z+1, r21	; 0x01
    reactStr[2][number]=type;
    36ba:	88 0f       	add	r24, r24
    36bc:	99 1f       	adc	r25, r25
    36be:	fc 01       	movw	r30, r24
    36c0:	e3 56       	subi	r30, 0x63	; 99
    36c2:	f6 4c       	sbci	r31, 0xC6	; 198
    36c4:	e0 82       	st	Z, r14
    36c6:	f1 82       	std	Z+1, r15	; 0x01
                                        specialInput[2] = 0;
                                    }

                                //There should not be another special
                                } else {
                                    SetResponse(elements++, A_ERROR, L_ERROR, TEASER);
    36c8:	72 2e       	mov	r7, r18
    36ca:	e4 c2       	rjmp	.+1480   	; 0x3c94 <ProcessInput+0x1004>
                                }

                            //Normal "use ... on ..." or "give ... to ..." action
                            } else if (actObj1.byteField[ACTION_ITEM] == actObj2.byteField[ITEM_NR]) {
    36cc:	90 91 e5 38 	lds	r25, 0x38E5	; 0x8038e5 <actObj1.3981+0x9>
    36d0:	80 91 bc 38 	lds	r24, 0x38BC	; 0x8038bc <actObj2.3982+0xb>
    36d4:	98 13       	cpse	r25, r24
    36d6:	2f c0       	rjmp	.+94     	; 0x3736 <ProcessInput+0xaa6>
                                SetResponse(elements++, actObj1.addrStr[ACTION_MSG], actObj1.lenStr[ACTION_MSG], GAME);
    36d8:	20 91 02 39 	lds	r18, 0x3902	; 0x803902 <actObj1.3981+0x26>
    36dc:	30 91 03 39 	lds	r19, 0x3903	; 0x803903 <actObj1.3981+0x27>
    36e0:	ff 24       	eor	r15, r15
    36e2:	f3 94       	inc	r15
    36e4:	f7 0c       	add	r15, r7
    return 0;
}

//
void SetResponse(uint8_t number, uint16_t address, uint16_t length, uint8_t type){
    reactStr[0][number]=address;
    36e6:	87 2d       	mov	r24, r7
    36e8:	90 e0       	ldi	r25, 0x00	; 0
    36ea:	fc 01       	movw	r30, r24
    36ec:	ee 0f       	add	r30, r30
    36ee:	ff 1f       	adc	r31, r31
    36f0:	e3 5e       	subi	r30, 0xE3	; 227
    36f2:	f6 4c       	sbci	r31, 0xC6	; 198
    36f4:	40 91 f4 38 	lds	r20, 0x38F4	; 0x8038f4 <actObj1.3981+0x18>
    36f8:	50 91 f5 38 	lds	r21, 0x38F5	; 0x8038f5 <actObj1.3981+0x19>
    36fc:	40 83       	st	Z, r20
    36fe:	51 83       	std	Z+1, r21	; 0x01
    reactStr[1][number]=length;
    3700:	fc 01       	movw	r30, r24
    3702:	ee 0f       	add	r30, r30
    3704:	ff 1f       	adc	r31, r31
    3706:	e3 5a       	subi	r30, 0xA3	; 163
    3708:	f6 4c       	sbci	r31, 0xC6	; 198
    370a:	20 83       	st	Z, r18
    370c:	31 83       	std	Z+1, r19	; 0x01
    reactStr[2][number]=type;
    370e:	88 0f       	add	r24, r24
    3710:	99 1f       	adc	r25, r25
    3712:	fc 01       	movw	r30, r24
    3714:	e3 56       	subi	r30, 0x63	; 99
    3716:	f6 4c       	sbci	r31, 0xC6	; 198
    3718:	10 82       	st	Z, r1
    371a:	11 82       	std	Z+1, r1	; 0x01
                                }

                            //Normal "use ... on ..." or "give ... to ..." action
                            } else if (actObj1.byteField[ACTION_ITEM] == actObj2.byteField[ITEM_NR]) {
                                SetResponse(elements++, actObj1.addrStr[ACTION_MSG], actObj1.lenStr[ACTION_MSG], GAME);
                                effect = actObj1.effect[2];
    371c:	80 91 06 39 	lds	r24, 0x3906	; 0x803906 <actObj1.3981+0x2a>
    3720:	90 e0       	ldi	r25, 0x00	; 0
    3722:	80 93 3c 38 	sts	0x383C, r24	; 0x80383c <effect>
    3726:	90 93 3d 38 	sts	0x383D, r25	; 0x80383d <effect+0x1>
                                UpdateState(actObj1.byteField[ACTION_STATE]);
    372a:	80 91 e6 38 	lds	r24, 0x38E6	; 0x8038e6 <actObj1.3981+0xa>
    372e:	0e 94 5b 0a 	call	0x14b6	; 0x14b6 <UpdateState>
                                    SetResponse(elements++, A_ERROR, L_ERROR, TEASER);
                                }

                            //Normal "use ... on ..." or "give ... to ..." action
                            } else if (actObj1.byteField[ACTION_ITEM] == actObj2.byteField[ITEM_NR]) {
                                SetResponse(elements++, actObj1.addrStr[ACTION_MSG], actObj1.lenStr[ACTION_MSG], GAME);
    3732:	7f 2c       	mov	r7, r15
    3734:	af c2       	rjmp	.+1374   	; 0x3c94 <ProcessInput+0x1004>
                                effect = actObj1.effect[2];
                                UpdateState(actObj1.byteField[ACTION_STATE]);
                                
                            } else {
                                if (data[0] == 'u') {
    3736:	d8 01       	movw	r26, r16
    3738:	8c 91       	ld	r24, X
    373a:	85 37       	cpi	r24, 0x75	; 117
    373c:	99 f4       	brne	.+38     	; 0x3764 <ProcessInput+0xad4>
    return 0;
}

//
void SetResponse(uint8_t number, uint16_t address, uint16_t length, uint8_t type){
    reactStr[0][number]=address;
    373e:	87 2d       	mov	r24, r7
    3740:	90 e0       	ldi	r25, 0x00	; 0
    3742:	fc 01       	movw	r30, r24
    3744:	ee 0f       	add	r30, r30
    3746:	ff 1f       	adc	r31, r31
    3748:	e3 5e       	subi	r30, 0xE3	; 227
    374a:	f6 4c       	sbci	r31, 0xC6	; 198
    374c:	21 e0       	ldi	r18, 0x01	; 1
    374e:	39 e7       	ldi	r19, 0x79	; 121
    3750:	20 83       	st	Z, r18
    3752:	31 83       	std	Z+1, r19	; 0x01
    reactStr[1][number]=length;
    3754:	fc 01       	movw	r30, r24
    3756:	ee 0f       	add	r30, r30
    3758:	ff 1f       	adc	r31, r31
    375a:	e3 5a       	subi	r30, 0xA3	; 163
    375c:	f6 4c       	sbci	r31, 0xC6	; 198
    375e:	2a e1       	ldi	r18, 0x1A	; 26
    3760:	30 e0       	ldi	r19, 0x00	; 0
    3762:	15 c0       	rjmp	.+42     	; 0x378e <ProcessInput+0xafe>
                                UpdateState(actObj1.byteField[ACTION_STATE]);
                                
                            } else {
                                if (data[0] == 'u') {
                                    SetResponse(elements++, A_CANTUSE, L_CANTUSE, TEASER);
                                } else if (data[0] == 'g') {
    3764:	87 36       	cpi	r24, 0x67	; 103
    3766:	09 f0       	breq	.+2      	; 0x376a <ProcessInput+0xada>
    3768:	95 c2       	rjmp	.+1322   	; 0x3c94 <ProcessInput+0x1004>
    return 0;
}

//
void SetResponse(uint8_t number, uint16_t address, uint16_t length, uint8_t type){
    reactStr[0][number]=address;
    376a:	87 2d       	mov	r24, r7
    376c:	90 e0       	ldi	r25, 0x00	; 0
    376e:	fc 01       	movw	r30, r24
    3770:	ee 0f       	add	r30, r30
    3772:	ff 1f       	adc	r31, r31
    3774:	e3 5e       	subi	r30, 0xE3	; 227
    3776:	f6 4c       	sbci	r31, 0xC6	; 198
    3778:	2f e9       	ldi	r18, 0x9F	; 159
    377a:	36 e7       	ldi	r19, 0x76	; 118
    377c:	20 83       	st	Z, r18
    377e:	31 83       	std	Z+1, r19	; 0x01
    reactStr[1][number]=length;
    3780:	fc 01       	movw	r30, r24
    3782:	ee 0f       	add	r30, r30
    3784:	ff 1f       	adc	r31, r31
    3786:	e3 5a       	subi	r30, 0xA3	; 163
    3788:	f6 4c       	sbci	r31, 0xC6	; 198
    378a:	28 e2       	ldi	r18, 0x28	; 40
    378c:	30 e0       	ldi	r19, 0x00	; 0
    378e:	20 83       	st	Z, r18
    3790:	31 83       	std	Z+1, r19	; 0x01
    reactStr[2][number]=type;
    3792:	88 0f       	add	r24, r24
    3794:	99 1f       	adc	r25, r25
    3796:	fc 01       	movw	r30, r24
    3798:	e3 56       	subi	r30, 0x63	; 99
    379a:	f6 4c       	sbci	r31, 0xC6	; 198
    379c:	81 e0       	ldi	r24, 0x01	; 1
    379e:	90 e0       	ldi	r25, 0x00	; 0
    37a0:	80 83       	st	Z, r24
    37a2:	91 83       	std	Z+1, r25	; 0x01
                                
                            } else {
                                if (data[0] == 'u') {
                                    SetResponse(elements++, A_CANTUSE, L_CANTUSE, TEASER);
                                } else if (data[0] == 'g') {
                                    SetResponse(elements++, A_CANTGIVE, L_CANTGIVE, TEASER);                                    
    37a4:	73 94       	inc	r7
    37a6:	76 c2       	rjmp	.+1260   	; 0x3c94 <ProcessInput+0x1004>
                            }
                        }
                    
                    //Talk to person, read or use object (without item)                          
                    } else {
                        PopulateObject(route[currDepth+1], &actObj1);
    37a8:	6c ed       	ldi	r22, 0xDC	; 220
    37aa:	78 e3       	ldi	r23, 0x38	; 56
    37ac:	0e 94 93 11 	call	0x2326	; 0x2326 <PopulateObject>
                        if ((data[0] == 't')&&((actObj1.byteField[ACTION_MASK]&TALK) == 0)) {
    37b0:	f8 01       	movw	r30, r16
    37b2:	80 81       	ld	r24, Z
    37b4:	84 37       	cpi	r24, 0x74	; 116
    37b6:	69 f5       	brne	.+90     	; 0x3812 <ProcessInput+0xb82>
    37b8:	80 91 e4 38 	lds	r24, 0x38E4	; 0x8038e4 <actObj1.3981+0x8>
    37bc:	83 fd       	sbrc	r24, 3
    37be:	4a c0       	rjmp	.+148    	; 0x3854 <ProcessInput+0xbc4>
    return 0;
}

//
void SetResponse(uint8_t number, uint16_t address, uint16_t length, uint8_t type){
    reactStr[0][number]=address;
    37c0:	8b e1       	ldi	r24, 0x1B	; 27
    37c2:	99 e7       	ldi	r25, 0x79	; 121
    37c4:	80 93 1f 39 	sts	0x391F, r24	; 0x80391f <reactStr+0x2>
    37c8:	90 93 20 39 	sts	0x3920, r25	; 0x803920 <reactStr+0x3>
    reactStr[1][number]=length;
    37cc:	8e e1       	ldi	r24, 0x1E	; 30
    37ce:	90 e0       	ldi	r25, 0x00	; 0
    37d0:	80 93 5f 39 	sts	0x395F, r24	; 0x80395f <reactStr+0x42>
    37d4:	90 93 60 39 	sts	0x3960, r25	; 0x803960 <reactStr+0x43>
    reactStr[2][number]=type;
    37d8:	81 e0       	ldi	r24, 0x01	; 1
    37da:	90 e0       	ldi	r25, 0x00	; 0
    37dc:	80 93 9f 39 	sts	0x399F, r24	; 0x80399f <reactStr+0x82>
    37e0:	90 93 a0 39 	sts	0x39A0, r25	; 0x8039a0 <reactStr+0x83>
                    //Talk to person, read or use object (without item)                          
                    } else {
                        PopulateObject(route[currDepth+1], &actObj1);
                        if ((data[0] == 't')&&((actObj1.byteField[ACTION_MASK]&TALK) == 0)) {
                            SetResponse(elements++, A_WHYTALK, L_WHYTALK, TEASER);
                            SetResponse(elements++, actObj1.addrStr[NAME], actObj1.lenStr[NAME], GAME);
    37e4:	80 91 f6 38 	lds	r24, 0x38F6	; 0x8038f6 <actObj1.3981+0x1a>
    37e8:	90 91 f7 38 	lds	r25, 0x38F7	; 0x8038f7 <actObj1.3981+0x1b>
    return 0;
}

//
void SetResponse(uint8_t number, uint16_t address, uint16_t length, uint8_t type){
    reactStr[0][number]=address;
    37ec:	20 91 e8 38 	lds	r18, 0x38E8	; 0x8038e8 <actObj1.3981+0xc>
    37f0:	30 91 e9 38 	lds	r19, 0x38E9	; 0x8038e9 <actObj1.3981+0xd>
    37f4:	20 93 21 39 	sts	0x3921, r18	; 0x803921 <reactStr+0x4>
    37f8:	30 93 22 39 	sts	0x3922, r19	; 0x803922 <reactStr+0x5>
    reactStr[1][number]=length;
    37fc:	80 93 61 39 	sts	0x3961, r24	; 0x803961 <reactStr+0x44>
    3800:	90 93 62 39 	sts	0x3962, r25	; 0x803962 <reactStr+0x45>
    reactStr[2][number]=type;
    3804:	10 92 a1 39 	sts	0x39A1, r1	; 0x8039a1 <reactStr+0x84>
    3808:	10 92 a2 39 	sts	0x39A2, r1	; 0x8039a2 <reactStr+0x85>
                    //Talk to person, read or use object (without item)                          
                    } else {
                        PopulateObject(route[currDepth+1], &actObj1);
                        if ((data[0] == 't')&&((actObj1.byteField[ACTION_MASK]&TALK) == 0)) {
                            SetResponse(elements++, A_WHYTALK, L_WHYTALK, TEASER);
                            SetResponse(elements++, actObj1.addrStr[NAME], actObj1.lenStr[NAME], GAME);
    380c:	e3 e0       	ldi	r30, 0x03	; 3
    380e:	7e 2e       	mov	r7, r30
    3810:	41 c2       	rjmp	.+1154   	; 0x3c94 <ProcessInput+0x1004>
                        } else if ((data[0] == 'u')&&((actObj1.byteField[ACTION_MASK]&USE) == 0)) {
    3812:	85 37       	cpi	r24, 0x75	; 117
    3814:	69 f4       	brne	.+26     	; 0x3830 <ProcessInput+0xba0>
    3816:	80 91 e4 38 	lds	r24, 0x38E4	; 0x8038e4 <actObj1.3981+0x8>
    381a:	84 fd       	sbrc	r24, 4
    381c:	1b c0       	rjmp	.+54     	; 0x3854 <ProcessInput+0xbc4>
    return 0;
}

//
void SetResponse(uint8_t number, uint16_t address, uint16_t length, uint8_t type){
    reactStr[0][number]=address;
    381e:	81 e0       	ldi	r24, 0x01	; 1
    3820:	99 e7       	ldi	r25, 0x79	; 121
    3822:	80 93 1f 39 	sts	0x391F, r24	; 0x80391f <reactStr+0x2>
    3826:	90 93 20 39 	sts	0x3920, r25	; 0x803920 <reactStr+0x3>
    reactStr[1][number]=length;
    382a:	8a e1       	ldi	r24, 0x1A	; 26
    382c:	90 e0       	ldi	r25, 0x00	; 0
    382e:	f5 ca       	rjmp	.-2582   	; 0x2e1a <ProcessInput+0x18a>
                        if ((data[0] == 't')&&((actObj1.byteField[ACTION_MASK]&TALK) == 0)) {
                            SetResponse(elements++, A_WHYTALK, L_WHYTALK, TEASER);
                            SetResponse(elements++, actObj1.addrStr[NAME], actObj1.lenStr[NAME], GAME);
                        } else if ((data[0] == 'u')&&((actObj1.byteField[ACTION_MASK]&USE) == 0)) {
                            SetResponse(elements++, A_CANTUSE, L_CANTUSE, TEASER);
                        } else if ((data[0] == 'r')&&((actObj1.byteField[ACTION_MASK]&READ) == 0)) {
    3830:	82 37       	cpi	r24, 0x72	; 114
    3832:	69 f4       	brne	.+26     	; 0x384e <ProcessInput+0xbbe>
    3834:	80 91 e4 38 	lds	r24, 0x38E4	; 0x8038e4 <actObj1.3981+0x8>
    3838:	85 fd       	sbrc	r24, 5
    383a:	0c c0       	rjmp	.+24     	; 0x3854 <ProcessInput+0xbc4>
    return 0;
}

//
void SetResponse(uint8_t number, uint16_t address, uint16_t length, uint8_t type){
    reactStr[0][number]=address;
    383c:	86 ee       	ldi	r24, 0xE6	; 230
    383e:	98 e7       	ldi	r25, 0x78	; 120
    3840:	80 93 1f 39 	sts	0x391F, r24	; 0x80391f <reactStr+0x2>
    3844:	90 93 20 39 	sts	0x3920, r25	; 0x803920 <reactStr+0x3>
    reactStr[1][number]=length;
    3848:	8b e1       	ldi	r24, 0x1B	; 27
    384a:	90 e0       	ldi	r25, 0x00	; 0
    384c:	e6 ca       	rjmp	.-2612   	; 0x2e1a <ProcessInput+0x18a>
                            SetResponse(elements++, actObj1.addrStr[NAME], actObj1.lenStr[NAME], GAME);
                        } else if ((data[0] == 'u')&&((actObj1.byteField[ACTION_MASK]&USE) == 0)) {
                            SetResponse(elements++, A_CANTUSE, L_CANTUSE, TEASER);
                        } else if ((data[0] == 'r')&&((actObj1.byteField[ACTION_MASK]&READ) == 0)) {
                            SetResponse(elements++, A_CANTREAD, L_CANTREAD, TEASER);
                        } else if (data[0] == 'g'){ 
    384e:	87 36       	cpi	r24, 0x67	; 103
    3850:	09 f4       	brne	.+2      	; 0x3854 <ProcessInput+0xbc4>
    3852:	4e ca       	rjmp	.-2916   	; 0x2cf0 <ProcessInput+0x60>
                            SetResponse(elements++, A_NOTPOSSIBLE, L_NOTPOSSIBLE, TEASER);  
                        } else {

                            //Special game, not enough characters
                            if (actObj1.lenStr[ACTION_STR1] == 1) {
    3854:	e0 90 fa 38 	lds	r14, 0x38FA	; 0x8038fa <actObj1.3981+0x1e>
    3858:	f0 90 fb 38 	lds	r15, 0x38FB	; 0x8038fb <actObj1.3981+0x1f>
    385c:	f1 e0       	ldi	r31, 0x01	; 1
    385e:	ef 16       	cp	r14, r31
    3860:	f1 04       	cpc	r15, r1
    3862:	11 f5       	brne	.+68     	; 0x38a8 <ProcessInput+0xc18>
                                ExtEERead(actObj1.addrStr[ACTION_STR1], 1, GAME, &data[2]);
    3864:	98 01       	movw	r18, r16
    3866:	2e 5f       	subi	r18, 0xFE	; 254
    3868:	3f 4f       	sbci	r19, 0xFF	; 255
    386a:	40 e0       	ldi	r20, 0x00	; 0
    386c:	61 e0       	ldi	r22, 0x01	; 1
    386e:	80 91 ec 38 	lds	r24, 0x38EC	; 0x8038ec <actObj1.3981+0x10>
    3872:	90 91 ed 38 	lds	r25, 0x38ED	; 0x8038ed <actObj1.3981+0x11>
    3876:	0e 94 97 08 	call	0x112e	; 0x112e <ExtEERead>
                                if (data[2] == '1') {
    387a:	d8 01       	movw	r26, r16
    387c:	12 96       	adiw	r26, 0x02	; 2
    387e:	8c 91       	ld	r24, X
    3880:	81 33       	cpi	r24, 0x31	; 49
    3882:	09 f0       	breq	.+2      	; 0x3886 <ProcessInput+0xbf6>
    3884:	86 cc       	rjmp	.-1780   	; 0x3192 <ProcessInput+0x502>
    return 0;
}

//
void SetResponse(uint8_t number, uint16_t address, uint16_t length, uint8_t type){
    reactStr[0][number]=address;
    3886:	85 e2       	ldi	r24, 0x25	; 37
    3888:	95 e7       	ldi	r25, 0x75	; 117
    388a:	80 93 1f 39 	sts	0x391F, r24	; 0x80391f <reactStr+0x2>
    388e:	90 93 20 39 	sts	0x3920, r25	; 0x803920 <reactStr+0x3>
    reactStr[1][number]=length;
    3892:	8b e2       	ldi	r24, 0x2B	; 43
    3894:	90 e0       	ldi	r25, 0x00	; 0
    3896:	80 93 5f 39 	sts	0x395F, r24	; 0x80395f <reactStr+0x42>
    389a:	90 93 60 39 	sts	0x3960, r25	; 0x803960 <reactStr+0x43>
    reactStr[2][number]=type;
    389e:	e0 92 9f 39 	sts	0x399F, r14	; 0x80399f <reactStr+0x82>
    38a2:	f0 92 a0 39 	sts	0x39A0, r15	; 0x8039a0 <reactStr+0x83>
    38a6:	c3 ca       	rjmp	.-2682   	; 0x2e2e <ProcessInput+0x19e>
                                if (data[2] == '1') {
                                    SetResponse(elements++, A_PLEASEOFFER, L_PLEASEOFFER, TEASER);
                                }

                            //General request
                            } else if (actObj1.lenStr[ACTION_STR1]) {
    38a8:	e1 14       	cp	r14, r1
    38aa:	f1 04       	cpc	r15, r1
    38ac:	09 f4       	brne	.+2      	; 0x38b0 <ProcessInput+0xc20>
    38ae:	59 c0       	rjmp	.+178    	; 0x3962 <ProcessInput+0xcd2>
    return 0;
}

//
void SetResponse(uint8_t number, uint16_t address, uint16_t length, uint8_t type){
    reactStr[0][number]=address;
    38b0:	80 91 ec 38 	lds	r24, 0x38EC	; 0x8038ec <actObj1.3981+0x10>
    38b4:	90 91 ed 38 	lds	r25, 0x38ED	; 0x8038ed <actObj1.3981+0x11>
    38b8:	80 93 1f 39 	sts	0x391F, r24	; 0x80391f <reactStr+0x2>
    38bc:	90 93 20 39 	sts	0x3920, r25	; 0x803920 <reactStr+0x3>
    reactStr[1][number]=length;
    38c0:	e0 92 5f 39 	sts	0x395F, r14	; 0x80395f <reactStr+0x42>
    38c4:	f0 92 60 39 	sts	0x3960, r15	; 0x803960 <reactStr+0x43>
    reactStr[2][number]=type;
    38c8:	10 92 9f 39 	sts	0x399F, r1	; 0x80399f <reactStr+0x82>
    38cc:	10 92 a0 39 	sts	0x39A0, r1	; 0x8039a0 <reactStr+0x83>
    return 0;
}

//
void SetResponse(uint8_t number, uint16_t address, uint16_t length, uint8_t type){
    reactStr[0][number]=address;
    38d0:	89 e5       	ldi	r24, 0x59	; 89
    38d2:	9a e7       	ldi	r25, 0x7A	; 122
    38d4:	80 93 21 39 	sts	0x3921, r24	; 0x803921 <reactStr+0x4>
    38d8:	90 93 22 39 	sts	0x3922, r25	; 0x803922 <reactStr+0x5>
    reactStr[1][number]=length;
    38dc:	82 e0       	ldi	r24, 0x02	; 2
    38de:	90 e0       	ldi	r25, 0x00	; 0
    38e0:	80 93 61 39 	sts	0x3961, r24	; 0x803961 <reactStr+0x44>
    38e4:	90 93 62 39 	sts	0x3962, r25	; 0x803962 <reactStr+0x45>
    reactStr[2][number]=type;
    38e8:	81 e0       	ldi	r24, 0x01	; 1
    38ea:	90 e0       	ldi	r25, 0x00	; 0
    38ec:	80 93 a1 39 	sts	0x39A1, r24	; 0x8039a1 <reactStr+0x84>
    38f0:	90 93 a2 39 	sts	0x39A2, r25	; 0x8039a2 <reactStr+0x85>
    return 0;
}

//
void SetResponse(uint8_t number, uint16_t address, uint16_t length, uint8_t type){
    reactStr[0][number]=address;
    38f4:	2d ea       	ldi	r18, 0xAD	; 173
    38f6:	38 e7       	ldi	r19, 0x78	; 120
    38f8:	20 93 23 39 	sts	0x3923, r18	; 0x803923 <reactStr+0x6>
    38fc:	30 93 24 39 	sts	0x3924, r19	; 0x803924 <reactStr+0x7>
    reactStr[1][number]=length;
    3900:	22 e1       	ldi	r18, 0x12	; 18
    3902:	30 e0       	ldi	r19, 0x00	; 0
    3904:	20 93 63 39 	sts	0x3963, r18	; 0x803963 <reactStr+0x46>
    3908:	30 93 64 39 	sts	0x3964, r19	; 0x803964 <reactStr+0x47>
    reactStr[2][number]=type;
    390c:	80 93 a3 39 	sts	0x39A3, r24	; 0x8039a3 <reactStr+0x86>
    3910:	90 93 a4 39 	sts	0x39A4, r25	; 0x8039a4 <reactStr+0x87>
                            //General request
                            } else if (actObj1.lenStr[ACTION_STR1]) {
                                SetResponse(elements++, actObj1.addrStr[ACTION_STR1], actObj1.lenStr[ACTION_STR1], GAME);
                                SetResponse(elements++, A_LF, 2, TEASER);
                                SetResponse(elements++, A_RESPONSE, L_RESPONSE, TEASER);
                                if (actObj1.lenStr[ACTION_STR2]>(INP_LENGTH-1)) actObj1.lenStr[ACTION_STR2] = (INP_LENGTH-1);
    3914:	80 91 fc 38 	lds	r24, 0x38FC	; 0x8038fc <actObj1.3981+0x20>
    3918:	90 91 fd 38 	lds	r25, 0x38FD	; 0x8038fd <actObj1.3981+0x21>
    391c:	40 97       	sbiw	r24, 0x10	; 16
    391e:	30 f0       	brcs	.+12     	; 0x392c <ProcessInput+0xc9c>
    3920:	8f e0       	ldi	r24, 0x0F	; 15
    3922:	90 e0       	ldi	r25, 0x00	; 0
    3924:	80 93 fc 38 	sts	0x38FC, r24	; 0x8038fc <actObj1.3981+0x20>
    3928:	90 93 fd 38 	sts	0x38FD, r25	; 0x8038fd <actObj1.3981+0x21>
                                ExtEERead(actObj1.addrStr[ACTION_STR2], actObj1.lenStr[ACTION_STR2], GAME, (uint8_t *)&specialInput[0]);
    392c:	2c e0       	ldi	r18, 0x0C	; 12
    392e:	39 e3       	ldi	r19, 0x39	; 57
    3930:	40 e0       	ldi	r20, 0x00	; 0
    3932:	60 91 fc 38 	lds	r22, 0x38FC	; 0x8038fc <actObj1.3981+0x20>
    3936:	80 91 ee 38 	lds	r24, 0x38EE	; 0x8038ee <actObj1.3981+0x12>
    393a:	90 91 ef 38 	lds	r25, 0x38EF	; 0x8038ef <actObj1.3981+0x13>
    393e:	0e 94 97 08 	call	0x112e	; 0x112e <ExtEERead>
                                UnflipData(actObj1.lenStr[ACTION_STR2], (uint8_t *)&specialInput[0]);
    3942:	6c e0       	ldi	r22, 0x0C	; 12
    3944:	79 e3       	ldi	r23, 0x39	; 57
    3946:	80 91 fc 38 	lds	r24, 0x38FC	; 0x8038fc <actObj1.3981+0x20>
    394a:	0e 94 a9 10 	call	0x2152	; 0x2152 <UnflipData>
                                specialInput[actObj1.lenStr[ACTION_STR2]] = 0;
    394e:	e0 91 fc 38 	lds	r30, 0x38FC	; 0x8038fc <actObj1.3981+0x20>
    3952:	f0 91 fd 38 	lds	r31, 0x38FD	; 0x8038fd <actObj1.3981+0x21>
    3956:	e4 5f       	subi	r30, 0xF4	; 244
    3958:	f6 4c       	sbci	r31, 0xC6	; 198
    395a:	10 82       	st	Z, r1

                            //General request
                            } else if (actObj1.lenStr[ACTION_STR1]) {
                                SetResponse(elements++, actObj1.addrStr[ACTION_STR1], actObj1.lenStr[ACTION_STR1], GAME);
                                SetResponse(elements++, A_LF, 2, TEASER);
                                SetResponse(elements++, A_RESPONSE, L_RESPONSE, TEASER);
    395c:	74 e0       	ldi	r23, 0x04	; 4
    395e:	77 2e       	mov	r7, r23
    3960:	99 c1       	rjmp	.+818    	; 0x3c94 <ProcessInput+0x1004>
                                ExtEERead(actObj1.addrStr[ACTION_STR2], actObj1.lenStr[ACTION_STR2], GAME, (uint8_t *)&specialInput[0]);
                                UnflipData(actObj1.lenStr[ACTION_STR2], (uint8_t *)&specialInput[0]);
                                specialInput[actObj1.lenStr[ACTION_STR2]] = 0;
                            
                            //Normal action    
                            } else if (CheckState(actObj1.byteField[ACTION_ACL])){
    3962:	80 91 e3 38 	lds	r24, 0x38E3	; 0x8038e3 <actObj1.3981+0x7>
    3966:	0e 94 65 0a 	call	0x14ca	; 0x14ca <CheckState>
    396a:	88 23       	and	r24, r24
    396c:	01 f1       	breq	.+64     	; 0x39ae <ProcessInput+0xd1e>
                                SetResponse(elements++, actObj1.addrStr[ACTION_MSG], actObj1.lenStr[ACTION_MSG], GAME);
    396e:	80 91 02 39 	lds	r24, 0x3902	; 0x803902 <actObj1.3981+0x26>
    3972:	90 91 03 39 	lds	r25, 0x3903	; 0x803903 <actObj1.3981+0x27>
    return 0;
}

//
void SetResponse(uint8_t number, uint16_t address, uint16_t length, uint8_t type){
    reactStr[0][number]=address;
    3976:	20 91 f4 38 	lds	r18, 0x38F4	; 0x8038f4 <actObj1.3981+0x18>
    397a:	30 91 f5 38 	lds	r19, 0x38F5	; 0x8038f5 <actObj1.3981+0x19>
    397e:	20 93 1f 39 	sts	0x391F, r18	; 0x80391f <reactStr+0x2>
    3982:	30 93 20 39 	sts	0x3920, r19	; 0x803920 <reactStr+0x3>
    reactStr[1][number]=length;
    3986:	80 93 5f 39 	sts	0x395F, r24	; 0x80395f <reactStr+0x42>
    398a:	90 93 60 39 	sts	0x3960, r25	; 0x803960 <reactStr+0x43>
    reactStr[2][number]=type;
    398e:	10 92 9f 39 	sts	0x399F, r1	; 0x80399f <reactStr+0x82>
    3992:	10 92 a0 39 	sts	0x39A0, r1	; 0x8039a0 <reactStr+0x83>
                                specialInput[actObj1.lenStr[ACTION_STR2]] = 0;
                            
                            //Normal action    
                            } else if (CheckState(actObj1.byteField[ACTION_ACL])){
                                SetResponse(elements++, actObj1.addrStr[ACTION_MSG], actObj1.lenStr[ACTION_MSG], GAME);
                                effect = actObj1.effect[2];
    3996:	80 91 06 39 	lds	r24, 0x3906	; 0x803906 <actObj1.3981+0x2a>
    399a:	90 e0       	ldi	r25, 0x00	; 0
    399c:	80 93 3c 38 	sts	0x383C, r24	; 0x80383c <effect>
    39a0:	90 93 3d 38 	sts	0x383D, r25	; 0x80383d <effect+0x1>
                                UpdateState(actObj1.byteField[ACTION_STATE]);
    39a4:	80 91 e6 38 	lds	r24, 0x38E6	; 0x8038e6 <actObj1.3981+0xa>
    39a8:	0e 94 5b 0a 	call	0x14b6	; 0x14b6 <UpdateState>
    39ac:	40 ca       	rjmp	.-2944   	; 0x2e2e <ProcessInput+0x19e>
                            } else {
                                SetResponse(elements++, actObj1.addrStr[ACTION_ACL_MSG], actObj1.lenStr[ACTION_ACL_MSG], GAME);
    39ae:	80 91 00 39 	lds	r24, 0x3900	; 0x803900 <actObj1.3981+0x24>
    39b2:	90 91 01 39 	lds	r25, 0x3901	; 0x803901 <actObj1.3981+0x25>
    return 0;
}

//
void SetResponse(uint8_t number, uint16_t address, uint16_t length, uint8_t type){
    reactStr[0][number]=address;
    39b6:	20 91 f2 38 	lds	r18, 0x38F2	; 0x8038f2 <actObj1.3981+0x16>
    39ba:	30 91 f3 38 	lds	r19, 0x38F3	; 0x8038f3 <actObj1.3981+0x17>
    39be:	20 93 1f 39 	sts	0x391F, r18	; 0x80391f <reactStr+0x2>
    39c2:	30 93 20 39 	sts	0x3920, r19	; 0x803920 <reactStr+0x3>
    reactStr[1][number]=length;
    39c6:	80 93 5f 39 	sts	0x395F, r24	; 0x80395f <reactStr+0x42>
    39ca:	90 93 60 39 	sts	0x3960, r25	; 0x803960 <reactStr+0x43>
    reactStr[2][number]=type;
    39ce:	10 92 9f 39 	sts	0x399F, r1	; 0x80399f <reactStr+0x82>
    39d2:	10 92 a0 39 	sts	0x39A0, r1	; 0x8039a0 <reactStr+0x83>
                                SetResponse(elements++, actObj1.addrStr[ACTION_MSG], actObj1.lenStr[ACTION_MSG], GAME);
                                effect = actObj1.effect[2];
                                UpdateState(actObj1.byteField[ACTION_STATE]);
                            } else {
                                SetResponse(elements++, actObj1.addrStr[ACTION_ACL_MSG], actObj1.lenStr[ACTION_ACL_MSG], GAME);
                                effect = actObj1.effect[1];
    39d6:	80 91 05 39 	lds	r24, 0x3905	; 0x803905 <actObj1.3981+0x29>
    39da:	90 e0       	ldi	r25, 0x00	; 0
    39dc:	80 93 3c 38 	sts	0x383C, r24	; 0x80383c <effect>
    39e0:	90 93 3d 38 	sts	0x383D, r25	; 0x80383d <effect+0x1>
    39e4:	24 ca       	rjmp	.-3000   	; 0x2e2e <ProcessInput+0x19e>
                        }
                    }

                //Person or object not found
                } else {
                    if ((data[0] == 't')||(data[0] == 'g')){
    39e6:	f8 01       	movw	r30, r16
    39e8:	80 81       	ld	r24, Z
    39ea:	84 37       	cpi	r24, 0x74	; 116
    39ec:	11 f0       	breq	.+4      	; 0x39f2 <ProcessInput+0xd62>
    39ee:	87 36       	cpi	r24, 0x67	; 103
    39f0:	19 f4       	brne	.+6      	; 0x39f8 <ProcessInput+0xd68>
    return 0;
}

//
void SetResponse(uint8_t number, uint16_t address, uint16_t length, uint8_t type){
    reactStr[0][number]=address;
    39f2:	89 e3       	ldi	r24, 0x39	; 57
    39f4:	99 e7       	ldi	r25, 0x79	; 121
    39f6:	02 c0       	rjmp	.+4      	; 0x39fc <ProcessInput+0xd6c>
    39f8:	8d e4       	ldi	r24, 0x4D	; 77
    39fa:	99 e7       	ldi	r25, 0x79	; 121
    39fc:	80 93 1f 39 	sts	0x391F, r24	; 0x80391f <reactStr+0x2>
    3a00:	90 93 20 39 	sts	0x3920, r25	; 0x803920 <reactStr+0x3>
    reactStr[1][number]=length;
    3a04:	84 e1       	ldi	r24, 0x14	; 20
    3a06:	90 e0       	ldi	r25, 0x00	; 0
    3a08:	08 ca       	rjmp	.-3056   	; 0x2e1a <ProcessInput+0x18a>
                    }
                }
            }
        
        //Special answer given
        } else if (data[0] == 'a'){
    3a0a:	81 36       	cpi	r24, 0x61	; 97
    3a0c:	09 f0       	breq	.+2      	; 0x3a10 <ProcessInput+0xd80>
    3a0e:	c1 cb       	rjmp	.-2174   	; 0x3192 <ProcessInput+0x502>
            
            //Priest offerings
            if (specialPassed >= 2) {
    3a10:	80 91 0b 39 	lds	r24, 0x390B	; 0x80390b <specialPassed>
    3a14:	82 30       	cpi	r24, 0x02	; 2
    3a16:	08 f4       	brcc	.+2      	; 0x3a1a <ProcessInput+0xd8a>
    3a18:	cb c0       	rjmp	.+406    	; 0x3bb0 <ProcessInput+0xf20>
                if (data[1] > 0) {
    3a1a:	d8 01       	movw	r26, r16
    3a1c:	11 96       	adiw	r26, 0x01	; 1
    3a1e:	2c 91       	ld	r18, X
    3a20:	22 23       	and	r18, r18
    3a22:	09 f4       	brne	.+2      	; 0x3a26 <ProcessInput+0xd96>
    3a24:	b2 c0       	rjmp	.+356    	; 0x3b8a <ProcessInput+0xefa>

                    //uint8_t  digit[10] = {0, 0, 0, 0, 0, 0, 0, 0, 0, 0};
                    uint8_t  digit[8] = {0, 0, 0, 0, 0, 0, 0, 0};
    3a26:	fe 01       	movw	r30, r28
    3a28:	31 96       	adiw	r30, 0x01	; 1
    3a2a:	7f 01       	movw	r14, r30
    3a2c:	88 e0       	ldi	r24, 0x08	; 8
    3a2e:	df 01       	movw	r26, r30
    3a30:	1d 92       	st	X+, r1
    3a32:	8a 95       	dec	r24
    3a34:	e9 f7       	brne	.-6      	; 0x3a30 <ProcessInput+0xda0>
                        answer = ((offering  & 2) << 19) + ((offering  & 1) << 8) + \
                        ((element   & 2) << 15) + ((element   & 1) << 4) + \
                        ((kneelings & 2) << 11) + ((kneelings & 1))
                        answer = answer << (3-person)
                    */
                    data[1]-='0'; // item 31 needs to become something that results in 0 when doing %4
    3a36:	20 53       	subi	r18, 0x30	; 48
    3a38:	f8 01       	movw	r30, r16
    3a3a:	21 83       	std	Z+1, r18	; 0x01
                    data[2]-='1';
    3a3c:	32 81       	ldd	r19, Z+2	; 0x02
    3a3e:	31 53       	subi	r19, 0x31	; 49
    3a40:	32 83       	std	Z+2, r19	; 0x02
                    if (data[3] == 'a') data[3] = 1;
    3a42:	83 81       	ldd	r24, Z+3	; 0x03
    3a44:	81 36       	cpi	r24, 0x61	; 97
    3a46:	11 f4       	brne	.+4      	; 0x3a4c <ProcessInput+0xdbc>
    3a48:	81 e0       	ldi	r24, 0x01	; 1
    3a4a:	08 c0       	rjmp	.+16     	; 0x3a5c <ProcessInput+0xdcc>
                    else if (data[3] == 'e') data[3] = 0;
    3a4c:	85 36       	cpi	r24, 0x65	; 101
    3a4e:	11 f4       	brne	.+4      	; 0x3a54 <ProcessInput+0xdc4>
    3a50:	13 82       	std	Z+3, r1	; 0x03
    3a52:	08 c0       	rjmp	.+16     	; 0x3a64 <ProcessInput+0xdd4>
                    else if (data[3] == 'f') data[3] = 3;
    3a54:	86 36       	cpi	r24, 0x66	; 102
    3a56:	21 f4       	brne	.+8      	; 0x3a60 <ProcessInput+0xdd0>
    3a58:	83 e0       	ldi	r24, 0x03	; 3
    3a5a:	f8 01       	movw	r30, r16
    3a5c:	83 83       	std	Z+3, r24	; 0x03
    3a5e:	02 c0       	rjmp	.+4      	; 0x3a64 <ProcessInput+0xdd4>
                    else data[3] = 2;
    3a60:	82 e0       	ldi	r24, 0x02	; 2
    3a62:	83 83       	std	Z+3, r24	; 0x03

                    if (data[1] & 2) answer += (1UL << 20);
    3a64:	21 fd       	sbrc	r18, 1
    3a66:	04 c0       	rjmp	.+8      	; 0x3a70 <ProcessInput+0xde0>
            if (specialPassed >= 2) {
                if (data[1] > 0) {

                    //uint8_t  digit[10] = {0, 0, 0, 0, 0, 0, 0, 0, 0, 0};
                    uint8_t  digit[8] = {0, 0, 0, 0, 0, 0, 0, 0};
                    uint32_t answer = 0;
    3a68:	80 e0       	ldi	r24, 0x00	; 0
    3a6a:	90 e0       	ldi	r25, 0x00	; 0
    3a6c:	dc 01       	movw	r26, r24
    3a6e:	04 c0       	rjmp	.+8      	; 0x3a78 <ProcessInput+0xde8>
                    if (data[3] == 'a') data[3] = 1;
                    else if (data[3] == 'e') data[3] = 0;
                    else if (data[3] == 'f') data[3] = 3;
                    else data[3] = 2;

                    if (data[1] & 2) answer += (1UL << 20);
    3a70:	80 e0       	ldi	r24, 0x00	; 0
    3a72:	90 e0       	ldi	r25, 0x00	; 0
    3a74:	a0 e1       	ldi	r26, 0x10	; 16
    3a76:	b0 e0       	ldi	r27, 0x00	; 0
                    if (data[1] & 1) answer += (1 << 8);
    3a78:	20 ff       	sbrs	r18, 0
    3a7a:	03 c0       	rjmp	.+6      	; 0x3a82 <ProcessInput+0xdf2>
    3a7c:	9f 5f       	subi	r25, 0xFF	; 255
    3a7e:	af 4f       	sbci	r26, 0xFF	; 255
    3a80:	bf 4f       	sbci	r27, 0xFF	; 255
                    if (data[3] & 2) answer += (1UL << 16);
    3a82:	f8 01       	movw	r30, r16
    3a84:	23 81       	ldd	r18, Z+3	; 0x03
    3a86:	21 fd       	sbrc	r18, 1
    3a88:	11 96       	adiw	r26, 0x01	; 1
                    if (data[3] & 1) answer += (1 << 4);
    3a8a:	20 ff       	sbrs	r18, 0
    3a8c:	03 c0       	rjmp	.+6      	; 0x3a94 <ProcessInput+0xe04>
    3a8e:	40 96       	adiw	r24, 0x10	; 16
    3a90:	a1 1d       	adc	r26, r1
    3a92:	b1 1d       	adc	r27, r1
                    if (data[2] & 2) answer += (1 << 12);
    3a94:	31 ff       	sbrs	r19, 1
    3a96:	03 c0       	rjmp	.+6      	; 0x3a9e <ProcessInput+0xe0e>
    3a98:	90 5f       	subi	r25, 0xF0	; 240
    3a9a:	af 4f       	sbci	r26, 0xFF	; 255
    3a9c:	bf 4f       	sbci	r27, 0xFF	; 255
                    if (data[2] & 1) answer += 1;
    3a9e:	30 ff       	sbrs	r19, 0
    3aa0:	03 c0       	rjmp	.+6      	; 0x3aa8 <ProcessInput+0xe18>
    3aa2:	01 96       	adiw	r24, 0x01	; 1
    3aa4:	a1 1d       	adc	r26, r1
    3aa6:	b1 1d       	adc	r27, r1
                    answer <<= (4 - whoami);            
    3aa8:	40 91 3f 38 	lds	r20, 0x383F	; 0x80383f <whoami>
    3aac:	24 e0       	ldi	r18, 0x04	; 4
    3aae:	30 e0       	ldi	r19, 0x00	; 0
    3ab0:	24 1b       	sub	r18, r20
    3ab2:	31 09       	sbc	r19, r1
    3ab4:	04 c0       	rjmp	.+8      	; 0x3abe <ProcessInput+0xe2e>
    3ab6:	88 0f       	add	r24, r24
    3ab8:	99 1f       	adc	r25, r25
    3aba:	aa 1f       	adc	r26, r26
    3abc:	bb 1f       	adc	r27, r27
    3abe:	2a 95       	dec	r18
    3ac0:	d2 f7       	brpl	.-12     	; 0x3ab6 <ProcessInput+0xe26>
    return 0;
}

//
void SetResponse(uint8_t number, uint16_t address, uint16_t length, uint8_t type){
    reactStr[0][number]=address;
    3ac2:	28 ec       	ldi	r18, 0xC8	; 200
    3ac4:	34 e7       	ldi	r19, 0x74	; 116
    3ac6:	20 93 1f 39 	sts	0x391F, r18	; 0x80391f <reactStr+0x2>
    3aca:	30 93 20 39 	sts	0x3920, r19	; 0x803920 <reactStr+0x3>
    reactStr[1][number]=length;
    3ace:	20 e2       	ldi	r18, 0x20	; 32
    3ad0:	30 e0       	ldi	r19, 0x00	; 0
    3ad2:	20 93 5f 39 	sts	0x395F, r18	; 0x80395f <reactStr+0x42>
    3ad6:	30 93 60 39 	sts	0x3960, r19	; 0x803960 <reactStr+0x43>
    reactStr[2][number]=type;
    3ada:	21 e0       	ldi	r18, 0x01	; 1
    3adc:	30 e0       	ldi	r19, 0x00	; 0
    3ade:	20 93 9f 39 	sts	0x399F, r18	; 0x80399f <reactStr+0x82>
    3ae2:	30 93 a0 39 	sts	0x39A0, r19	; 0x8039a0 <reactStr+0x83>
    return 0;
}

//
void SetResponse(uint8_t number, uint16_t address, uint16_t length, uint8_t type){
    reactStr[0][number]=address;
    3ae6:	4d e9       	ldi	r20, 0x9D	; 157
    3ae8:	54 e7       	ldi	r21, 0x74	; 116
    3aea:	40 93 21 39 	sts	0x3921, r20	; 0x803921 <reactStr+0x4>
    3aee:	50 93 22 39 	sts	0x3922, r21	; 0x803922 <reactStr+0x5>
    reactStr[1][number]=length;
    3af2:	42 e0       	ldi	r20, 0x02	; 2
    3af4:	50 e0       	ldi	r21, 0x00	; 0
    3af6:	40 93 61 39 	sts	0x3961, r20	; 0x803961 <reactStr+0x44>
    3afa:	50 93 62 39 	sts	0x3962, r21	; 0x803962 <reactStr+0x45>
    reactStr[2][number]=type;
    3afe:	20 93 a1 39 	sts	0x39A1, r18	; 0x8039a1 <reactStr+0x84>
    3b02:	30 93 a2 39 	sts	0x39A2, r19	; 0x8039a2 <reactStr+0x85>

                    SetResponse(elements++, A_YOURPART, L_YOURPART, TEASER);
                    SetResponse(elements++, A_HEXPREFIX, L_HEXPREFIX, TEASER);
                    
                    //Set up sending out number
                    for (n=7; n>=0; --n) {
    3b06:	67 e0       	ldi	r22, 0x07	; 7
    3b08:	d6 2e       	mov	r13, r22
                        digit[n] = answer % 16;
    3b0a:	f7 01       	movw	r30, r14
    3b0c:	ed 0d       	add	r30, r13
    3b0e:	f1 1d       	adc	r31, r1
    3b10:	28 2f       	mov	r18, r24
    3b12:	2f 70       	andi	r18, 0x0F	; 15
    3b14:	20 83       	st	Z, r18
                        answer /= 16;
    3b16:	54 e0       	ldi	r21, 0x04	; 4
    3b18:	b6 95       	lsr	r27
    3b1a:	a7 95       	ror	r26
    3b1c:	97 95       	ror	r25
    3b1e:	87 95       	ror	r24
    3b20:	5a 95       	dec	r21
    3b22:	d1 f7       	brne	.-12     	; 0x3b18 <ProcessInput+0xe88>
                        if (answer == 0) break;
    3b24:	00 97       	sbiw	r24, 0x00	; 0
    3b26:	a1 05       	cpc	r26, r1
    3b28:	b1 05       	cpc	r27, r1
    3b2a:	51 f4       	brne	.+20     	; 0x3b40 <ProcessInput+0xeb0>
    3b2c:	2d e1       	ldi	r18, 0x1D	; 29
    3b2e:	a2 2e       	mov	r10, r18
    3b30:	29 e3       	ldi	r18, 0x39	; 57
    3b32:	b2 2e       	mov	r11, r18
    3b34:	33 e0       	ldi	r19, 0x03	; 3
    3b36:	73 2e       	mov	r7, r19
}

//
void SetResponse(uint8_t number, uint16_t address, uint16_t length, uint8_t type){
    reactStr[0][number]=address;
    reactStr[1][number]=length;
    3b38:	88 24       	eor	r8, r8
    3b3a:	83 94       	inc	r8
    3b3c:	91 2c       	mov	r9, r1
    3b3e:	02 c0       	rjmp	.+4      	; 0x3b44 <ProcessInput+0xeb4>

                    SetResponse(elements++, A_YOURPART, L_YOURPART, TEASER);
                    SetResponse(elements++, A_HEXPREFIX, L_HEXPREFIX, TEASER);
                    
                    //Set up sending out number
                    for (n=7; n>=0; --n) {
    3b40:	da 94       	dec	r13
                        digit[n] = answer % 16;
                        answer /= 16;
                        if (answer == 0) break;
                    }
    3b42:	e3 cf       	rjmp	.-58     	; 0x3b0a <ProcessInput+0xe7a>
    3b44:	b2 e0       	ldi	r27, 0x02	; 2
    3b46:	ab 0e       	add	r10, r27
    3b48:	b1 1c       	adc	r11, r1

                    for (; n<8; ++n) {
    3b4a:	e7 e0       	ldi	r30, 0x07	; 7
    3b4c:	ed 15       	cp	r30, r13
    3b4e:	08 f4       	brcc	.+2      	; 0x3b52 <ProcessInput+0xec2>
    3b50:	9f c0       	rjmp	.+318    	; 0x3c90 <ProcessInput+0x1000>
                        SetResponse(elements++, A_DIGITS+digit[n], 1, TEASER);
    3b52:	73 94       	inc	r7
    3b54:	f7 01       	movw	r30, r14
    3b56:	ed 0d       	add	r30, r13
    3b58:	f1 1d       	adc	r31, r1
    return 0;
}

//
void SetResponse(uint8_t number, uint16_t address, uint16_t length, uint8_t type){
    reactStr[0][number]=address;
    3b5a:	80 81       	ld	r24, Z
    3b5c:	90 e0       	ldi	r25, 0x00	; 0
    3b5e:	83 57       	subi	r24, 0x73	; 115
    3b60:	9b 48       	sbci	r25, 0x8B	; 139
    3b62:	d5 01       	movw	r26, r10
    3b64:	14 96       	adiw	r26, 0x04	; 4
    3b66:	8d 93       	st	X+, r24
    3b68:	9c 93       	st	X, r25
    3b6a:	15 97       	sbiw	r26, 0x05	; 5
    reactStr[1][number]=length;
    3b6c:	f5 01       	movw	r30, r10
    3b6e:	ec 5b       	subi	r30, 0xBC	; 188
    3b70:	ff 4f       	sbci	r31, 0xFF	; 255
    3b72:	80 82       	st	Z, r8
    3b74:	91 82       	std	Z+1, r9	; 0x01
    reactStr[2][number]=type;
    3b76:	e0 5c       	subi	r30, 0xC0	; 192
    3b78:	ff 4f       	sbci	r31, 0xFF	; 255
    3b7a:	80 82       	st	Z, r8
    3b7c:	91 82       	std	Z+1, r9	; 0x01
                        if (answer == 0) break;
                    }

                    for (; n<8; ++n) {
                        SetResponse(elements++, A_DIGITS+digit[n], 1, TEASER);
                        UpdateState(actObj1.byteField[ACTION_STATE]);
    3b7e:	80 91 e6 38 	lds	r24, 0x38E6	; 0x8038e6 <actObj1.3981+0xa>
    3b82:	0e 94 5b 0a 	call	0x14b6	; 0x14b6 <UpdateState>
                        digit[n] = answer % 16;
                        answer /= 16;
                        if (answer == 0) break;
                    }

                    for (; n<8; ++n) {
    3b86:	d3 94       	inc	r13
    3b88:	dd cf       	rjmp	.-70     	; 0x3b44 <ProcessInput+0xeb4>
    return 0;
}

//
void SetResponse(uint8_t number, uint16_t address, uint16_t length, uint8_t type){
    reactStr[0][number]=address;
    3b8a:	88 ee       	ldi	r24, 0xE8	; 232
    3b8c:	94 e7       	ldi	r25, 0x74	; 116
    3b8e:	80 93 1f 39 	sts	0x391F, r24	; 0x80391f <reactStr+0x2>
    3b92:	90 93 20 39 	sts	0x3920, r25	; 0x803920 <reactStr+0x3>
    reactStr[1][number]=length;
    3b96:	8d e3       	ldi	r24, 0x3D	; 61
    3b98:	90 e0       	ldi	r25, 0x00	; 0
    3b9a:	80 93 5f 39 	sts	0x395F, r24	; 0x80395f <reactStr+0x42>
    3b9e:	90 93 60 39 	sts	0x3960, r25	; 0x803960 <reactStr+0x43>
    reactStr[2][number]=type;
    3ba2:	81 e0       	ldi	r24, 0x01	; 1
    3ba4:	90 e0       	ldi	r25, 0x00	; 0
    3ba6:	80 93 9f 39 	sts	0x399F, r24	; 0x80399f <reactStr+0x82>
    3baa:	90 93 a0 39 	sts	0x39A0, r25	; 0x8039a0 <reactStr+0x83>
    3bae:	6e c0       	rjmp	.+220    	; 0x3c8c <ProcessInput+0xffc>
    3bb0:	e0 91 2e 38 	lds	r30, 0x382E	; 0x80382e <currDepth>
                    SetResponse(elements++, A_BADOFFERING, L_BADOFFERING, TEASER);
                }
            
            //Other questions    
            } else if (specialPassed == 1) {
                PopulateObject(route[currDepth+1], &actObj1);
    3bb4:	f0 e0       	ldi	r31, 0x00	; 0
    3bb6:	ee 0f       	add	r30, r30
    3bb8:	ff 1f       	adc	r31, r31
    3bba:	e1 52       	subi	r30, 0x21	; 33
    3bbc:	f6 4c       	sbci	r31, 0xC6	; 198
    3bbe:	6c ed       	ldi	r22, 0xDC	; 220
    3bc0:	78 e3       	ldi	r23, 0x38	; 56
                } else {
                    SetResponse(elements++, A_BADOFFERING, L_BADOFFERING, TEASER);
                }
            
            //Other questions    
            } else if (specialPassed == 1) {
    3bc2:	81 30       	cpi	r24, 0x01	; 1
    3bc4:	09 f0       	breq	.+2      	; 0x3bc8 <ProcessInput+0xf38>
    3bc6:	46 c0       	rjmp	.+140    	; 0x3c54 <ProcessInput+0xfc4>
                PopulateObject(route[currDepth+1], &actObj1);
    3bc8:	80 81       	ld	r24, Z
    3bca:	91 81       	ldd	r25, Z+1	; 0x01
    3bcc:	0e 94 93 11 	call	0x2326	; 0x2326 <PopulateObject>
                if (CheckState(actObj1.byteField[ACTION_ACL])){
    3bd0:	80 91 e3 38 	lds	r24, 0x38E3	; 0x8038e3 <actObj1.3981+0x7>
    3bd4:	0e 94 65 0a 	call	0x14ca	; 0x14ca <CheckState>
    3bd8:	88 23       	and	r24, r24
    3bda:	01 f1       	breq	.+64     	; 0x3c1c <ProcessInput+0xf8c>
                    SetResponse(elements++, actObj1.addrStr[ACTION_MSG], actObj1.lenStr[ACTION_MSG], GAME);
    3bdc:	80 91 02 39 	lds	r24, 0x3902	; 0x803902 <actObj1.3981+0x26>
    3be0:	90 91 03 39 	lds	r25, 0x3903	; 0x803903 <actObj1.3981+0x27>
    return 0;
}

//
void SetResponse(uint8_t number, uint16_t address, uint16_t length, uint8_t type){
    reactStr[0][number]=address;
    3be4:	20 91 f4 38 	lds	r18, 0x38F4	; 0x8038f4 <actObj1.3981+0x18>
    3be8:	30 91 f5 38 	lds	r19, 0x38F5	; 0x8038f5 <actObj1.3981+0x19>
    3bec:	20 93 1f 39 	sts	0x391F, r18	; 0x80391f <reactStr+0x2>
    3bf0:	30 93 20 39 	sts	0x3920, r19	; 0x803920 <reactStr+0x3>
    reactStr[1][number]=length;
    3bf4:	80 93 5f 39 	sts	0x395F, r24	; 0x80395f <reactStr+0x42>
    3bf8:	90 93 60 39 	sts	0x3960, r25	; 0x803960 <reactStr+0x43>
    reactStr[2][number]=type;
    3bfc:	10 92 9f 39 	sts	0x399F, r1	; 0x80399f <reactStr+0x82>
    3c00:	10 92 a0 39 	sts	0x39A0, r1	; 0x8039a0 <reactStr+0x83>
            //Other questions    
            } else if (specialPassed == 1) {
                PopulateObject(route[currDepth+1], &actObj1);
                if (CheckState(actObj1.byteField[ACTION_ACL])){
                    SetResponse(elements++, actObj1.addrStr[ACTION_MSG], actObj1.lenStr[ACTION_MSG], GAME);
                    effect = actObj1.effect[2];
    3c04:	80 91 06 39 	lds	r24, 0x3906	; 0x803906 <actObj1.3981+0x2a>
    3c08:	90 e0       	ldi	r25, 0x00	; 0
    3c0a:	80 93 3c 38 	sts	0x383C, r24	; 0x80383c <effect>
    3c0e:	90 93 3d 38 	sts	0x383D, r25	; 0x80383d <effect+0x1>
                    UpdateState(actObj1.byteField[ACTION_STATE]);
    3c12:	80 91 e6 38 	lds	r24, 0x38E6	; 0x8038e6 <actObj1.3981+0xa>
    3c16:	0e 94 5b 0a 	call	0x14b6	; 0x14b6 <UpdateState>
    3c1a:	38 c0       	rjmp	.+112    	; 0x3c8c <ProcessInput+0xffc>
                } else {
                    SetResponse(elements++, actObj1.addrStr[ACTION_ACL_MSG], actObj1.lenStr[ACTION_ACL_MSG], GAME);
    3c1c:	80 91 00 39 	lds	r24, 0x3900	; 0x803900 <actObj1.3981+0x24>
    3c20:	90 91 01 39 	lds	r25, 0x3901	; 0x803901 <actObj1.3981+0x25>
    return 0;
}

//
void SetResponse(uint8_t number, uint16_t address, uint16_t length, uint8_t type){
    reactStr[0][number]=address;
    3c24:	20 91 f2 38 	lds	r18, 0x38F2	; 0x8038f2 <actObj1.3981+0x16>
    3c28:	30 91 f3 38 	lds	r19, 0x38F3	; 0x8038f3 <actObj1.3981+0x17>
    3c2c:	20 93 1f 39 	sts	0x391F, r18	; 0x80391f <reactStr+0x2>
    3c30:	30 93 20 39 	sts	0x3920, r19	; 0x803920 <reactStr+0x3>
    reactStr[1][number]=length;
    3c34:	80 93 5f 39 	sts	0x395F, r24	; 0x80395f <reactStr+0x42>
    3c38:	90 93 60 39 	sts	0x3960, r25	; 0x803960 <reactStr+0x43>
    reactStr[2][number]=type;
    3c3c:	10 92 9f 39 	sts	0x399F, r1	; 0x80399f <reactStr+0x82>
    3c40:	10 92 a0 39 	sts	0x39A0, r1	; 0x8039a0 <reactStr+0x83>
                    SetResponse(elements++, actObj1.addrStr[ACTION_MSG], actObj1.lenStr[ACTION_MSG], GAME);
                    effect = actObj1.effect[2];
                    UpdateState(actObj1.byteField[ACTION_STATE]);
                } else {
                    SetResponse(elements++, actObj1.addrStr[ACTION_ACL_MSG], actObj1.lenStr[ACTION_ACL_MSG], GAME);
                    effect = actObj1.effect[1];
    3c44:	80 91 05 39 	lds	r24, 0x3905	; 0x803905 <actObj1.3981+0x29>
    3c48:	90 e0       	ldi	r25, 0x00	; 0
    3c4a:	80 93 3c 38 	sts	0x383C, r24	; 0x80383c <effect>
    3c4e:	90 93 3d 38 	sts	0x383D, r25	; 0x80383d <effect+0x1>
    3c52:	1c c0       	rjmp	.+56     	; 0x3c8c <ProcessInput+0xffc>
                }

            } else {
                PopulateObject(route[currDepth+1], &actObj1);
    3c54:	80 81       	ld	r24, Z
    3c56:	91 81       	ldd	r25, Z+1	; 0x01
    3c58:	0e 94 93 11 	call	0x2326	; 0x2326 <PopulateObject>
    return 0;
}

//
void SetResponse(uint8_t number, uint16_t address, uint16_t length, uint8_t type){
    reactStr[0][number]=address;
    3c5c:	80 e6       	ldi	r24, 0x60	; 96
    3c5e:	98 e7       	ldi	r25, 0x78	; 120
    3c60:	80 93 1f 39 	sts	0x391F, r24	; 0x80391f <reactStr+0x2>
    3c64:	90 93 20 39 	sts	0x3920, r25	; 0x803920 <reactStr+0x3>
    reactStr[1][number]=length;
    3c68:	8d e4       	ldi	r24, 0x4D	; 77
    3c6a:	90 e0       	ldi	r25, 0x00	; 0
    3c6c:	80 93 5f 39 	sts	0x395F, r24	; 0x80395f <reactStr+0x42>
    3c70:	90 93 60 39 	sts	0x3960, r25	; 0x803960 <reactStr+0x43>
    reactStr[2][number]=type;
    3c74:	81 e0       	ldi	r24, 0x01	; 1
    3c76:	90 e0       	ldi	r25, 0x00	; 0
    3c78:	80 93 9f 39 	sts	0x399F, r24	; 0x80399f <reactStr+0x82>
    3c7c:	90 93 a0 39 	sts	0x39A0, r25	; 0x8039a0 <reactStr+0x83>
                }

            } else {
                PopulateObject(route[currDepth+1], &actObj1);
                SetResponse(elements++, A_INCORRECT, L_INCORRECT, TEASER);
                PunishmentTime = getClock();
    3c80:	0e 94 6c 0d 	call	0x1ad8	; 0x1ad8 <getClock>
    3c84:	80 93 09 39 	sts	0x3909, r24	; 0x803909 <PunishmentTime>
    3c88:	90 93 0a 39 	sts	0x390A, r25	; 0x80390a <PunishmentTime+0x1>
                    effect = actObj1.effect[1];
                }

            } else {
                PopulateObject(route[currDepth+1], &actObj1);
                SetResponse(elements++, A_INCORRECT, L_INCORRECT, TEASER);
    3c8c:	82 e0       	ldi	r24, 0x02	; 2
    3c8e:	78 2e       	mov	r7, r24
                PunishmentTime = getClock();
            }
            specialInput[0] = 0;
    3c90:	10 92 0c 39 	sts	0x390C, r1	; 0x80390c <specialInput>
    return 0;
}

//
void SetResponse(uint8_t number, uint16_t address, uint16_t length, uint8_t type){
    reactStr[0][number]=address;
    3c94:	89 e5       	ldi	r24, 0x59	; 89
    3c96:	9a e7       	ldi	r25, 0x7A	; 122
    3c98:	80 93 1d 39 	sts	0x391D, r24	; 0x80391d <reactStr>
    3c9c:	90 93 1e 39 	sts	0x391E, r25	; 0x80391e <reactStr+0x1>
    reactStr[1][number]=length;
    3ca0:	82 e0       	ldi	r24, 0x02	; 2
    3ca2:	90 e0       	ldi	r25, 0x00	; 0
    3ca4:	80 93 5d 39 	sts	0x395D, r24	; 0x80395d <reactStr+0x40>
    3ca8:	90 93 5e 39 	sts	0x395E, r25	; 0x80395e <reactStr+0x41>
    reactStr[2][number]=type;
    3cac:	81 e0       	ldi	r24, 0x01	; 1
    3cae:	90 e0       	ldi	r25, 0x00	; 0
    3cb0:	80 93 9d 39 	sts	0x399D, r24	; 0x80399d <reactStr+0x80>
    3cb4:	90 93 9e 39 	sts	0x399E, r25	; 0x80399e <reactStr+0x81>
               
        }
            
        //Input handled
        SetResponse(0, A_LF, 2, TEASER);
        if (specialInput[0]) responseList = elements; else responseList = SetStandardResponse(elements);
    3cb8:	80 91 0c 39 	lds	r24, 0x390C	; 0x80390c <specialInput>
    3cbc:	88 23       	and	r24, r24
    3cbe:	19 f0       	breq	.+6      	; 0x3cc6 <ProcessInput+0x1036>
    3cc0:	70 92 1c 39 	sts	0x391C, r7	; 0x80391c <responseList>
    3cc4:	9b c0       	rjmp	.+310    	; 0x3dfc <ProcessInput+0x116c>
    3cc6:	87 2d       	mov	r24, r7
    3cc8:	12 c0       	rjmp	.+36     	; 0x3cee <ProcessInput+0x105e>
    return 0;
}

//
void SetResponse(uint8_t number, uint16_t address, uint16_t length, uint8_t type){
    reactStr[0][number]=address;
    3cca:	89 e5       	ldi	r24, 0x59	; 89
    3ccc:	9a e7       	ldi	r25, 0x7A	; 122
    3cce:	80 93 1d 39 	sts	0x391D, r24	; 0x80391d <reactStr>
    3cd2:	90 93 1e 39 	sts	0x391E, r25	; 0x80391e <reactStr+0x1>
    reactStr[1][number]=length;
    3cd6:	82 e0       	ldi	r24, 0x02	; 2
    3cd8:	90 e0       	ldi	r25, 0x00	; 0
    3cda:	80 93 5d 39 	sts	0x395D, r24	; 0x80395d <reactStr+0x40>
    3cde:	90 93 5e 39 	sts	0x395E, r25	; 0x80395e <reactStr+0x41>
    reactStr[2][number]=type;
    3ce2:	81 e0       	ldi	r24, 0x01	; 1
    3ce4:	90 e0       	ldi	r25, 0x00	; 0
    3ce6:	80 93 9d 39 	sts	0x399D, r24	; 0x80399d <reactStr+0x80>
    3cea:	90 93 9e 39 	sts	0x399E, r25	; 0x80399e <reactStr+0x81>
        SetResponse(0, A_LF, 2, TEASER);
        if (specialInput[0]) responseList = elements; else responseList = SetStandardResponse(elements);

    } else {
        SetResponse(0, A_LF, 2, TEASER);
        responseList = SetStandardResponse(1);
    3cee:	0e 94 17 11 	call	0x222e	; 0x222e <SetStandardResponse>
    3cf2:	80 93 1c 39 	sts	0x391C, r24	; 0x80391c <responseList>
    3cf6:	82 c0       	rjmp	.+260    	; 0x3dfc <ProcessInput+0x116c>
    return 0;
}

//
void SetResponse(uint8_t number, uint16_t address, uint16_t length, uint8_t type){
    reactStr[0][number]=address;
    3cf8:	81 ed       	ldi	r24, 0xD1	; 209
    3cfa:	99 e7       	ldi	r25, 0x79	; 121
    3cfc:	92 cd       	rjmp	.-1244   	; 0x3822 <ProcessInput+0xb92>

        //Drop item if in inventory
        if (data[0] == 'd') {
            if ((inventory[0] == 0)&&(inventory[1] == 0)){
                SetResponse(elements++, A_EMPTYHANDS, L_EMPTYHANDS, TEASER);
            } else if (inputLen != 2) {
    3cfe:	b2 e0       	ldi	r27, 0x02	; 2
    3d00:	fb 12       	cpse	r15, r27
    3d02:	0c 94 78 16 	jmp	0x2cf0	; 0x2cf0 <ProcessInput+0x60>
                SetResponse(elements++, A_NOTPOSSIBLE, L_NOTPOSSIBLE, TEASER);
            } else {
                for (uint8_t x=0; x<2; ++x) {
                    if (inventory[x]) {
                        if (CheckLetter(inventory[x], data[1])) {
    3d06:	d8 01       	movw	r26, r16
    3d08:	11 96       	adiw	r26, 0x01	; 1
    3d0a:	6c 91       	ld	r22, X
    3d0c:	0e 94 0c 12 	call	0x2418	; 0x2418 <CheckLetter>
    3d10:	88 23       	and	r24, r24
    3d12:	09 f4       	brne	.+2      	; 0x3d16 <ProcessInput+0x1086>
    3d14:	5b c0       	rjmp	.+182    	; 0x3dcc <ProcessInput+0x113c>
                SetResponse(elements++, A_EMPTYHANDS, L_EMPTYHANDS, TEASER);
            } else if (inputLen != 2) {
                SetResponse(elements++, A_NOTPOSSIBLE, L_NOTPOSSIBLE, TEASER);
            } else {
                for (uint8_t x=0; x<2; ++x) {
                    if (inventory[x]) {
    3d16:	80 e0       	ldi	r24, 0x00	; 0
    3d18:	90 e0       	ldi	r25, 0x00	; 0
                        if (CheckLetter(inventory[x], data[1])) {
                            PopulateObject(inventory[x], &actObj1);
    3d1a:	88 0f       	add	r24, r24
    3d1c:	99 1f       	adc	r25, r25
    3d1e:	9c 01       	movw	r18, r24
    3d20:	20 5c       	subi	r18, 0xC0	; 192
    3d22:	37 4c       	sbci	r19, 0xC7	; 199
    3d24:	79 01       	movw	r14, r18
    3d26:	6c ed       	ldi	r22, 0xDC	; 220
    3d28:	78 e3       	ldi	r23, 0x38	; 56
    3d2a:	d9 01       	movw	r26, r18
    3d2c:	8d 91       	ld	r24, X+
    3d2e:	9c 91       	ld	r25, X
    3d30:	0e 94 93 11 	call	0x2326	; 0x2326 <PopulateObject>
    return 0;
}

//
void SetResponse(uint8_t number, uint16_t address, uint16_t length, uint8_t type){
    reactStr[0][number]=address;
    3d34:	86 e9       	ldi	r24, 0x96	; 150
    3d36:	97 e7       	ldi	r25, 0x77	; 119
    3d38:	80 93 1f 39 	sts	0x391F, r24	; 0x80391f <reactStr+0x2>
    3d3c:	90 93 20 39 	sts	0x3920, r25	; 0x803920 <reactStr+0x3>
    reactStr[1][number]=length;
    3d40:	80 e1       	ldi	r24, 0x10	; 16
    3d42:	90 e0       	ldi	r25, 0x00	; 0
    3d44:	80 93 5f 39 	sts	0x395F, r24	; 0x80395f <reactStr+0x42>
    3d48:	90 93 60 39 	sts	0x3960, r25	; 0x803960 <reactStr+0x43>
    reactStr[2][number]=type;
    3d4c:	81 e0       	ldi	r24, 0x01	; 1
    3d4e:	90 e0       	ldi	r25, 0x00	; 0
    3d50:	80 93 9f 39 	sts	0x399F, r24	; 0x80399f <reactStr+0x82>
    3d54:	90 93 a0 39 	sts	0x39A0, r25	; 0x8039a0 <reactStr+0x83>
                for (uint8_t x=0; x<2; ++x) {
                    if (inventory[x]) {
                        if (CheckLetter(inventory[x], data[1])) {
                            PopulateObject(inventory[x], &actObj1);
                            SetResponse(elements++, A_DROPPING, L_DROPPING, TEASER);
                            SetResponse(elements++, actObj1.addrStr[NAME], actObj1.lenStr[NAME], GAME);
    3d58:	20 91 f6 38 	lds	r18, 0x38F6	; 0x8038f6 <actObj1.3981+0x1a>
    3d5c:	30 91 f7 38 	lds	r19, 0x38F7	; 0x8038f7 <actObj1.3981+0x1b>
    return 0;
}

//
void SetResponse(uint8_t number, uint16_t address, uint16_t length, uint8_t type){
    reactStr[0][number]=address;
    3d60:	40 91 e8 38 	lds	r20, 0x38E8	; 0x8038e8 <actObj1.3981+0xc>
    3d64:	50 91 e9 38 	lds	r21, 0x38E9	; 0x8038e9 <actObj1.3981+0xd>
    3d68:	40 93 21 39 	sts	0x3921, r20	; 0x803921 <reactStr+0x4>
    3d6c:	50 93 22 39 	sts	0x3922, r21	; 0x803922 <reactStr+0x5>
    reactStr[1][number]=length;
    3d70:	20 93 61 39 	sts	0x3961, r18	; 0x803961 <reactStr+0x44>
    3d74:	30 93 62 39 	sts	0x3962, r19	; 0x803962 <reactStr+0x45>
    reactStr[2][number]=type;
    3d78:	10 92 a1 39 	sts	0x39A1, r1	; 0x8039a1 <reactStr+0x84>
    3d7c:	10 92 a2 39 	sts	0x39A2, r1	; 0x8039a2 <reactStr+0x85>
    return 0;
}

//
void SetResponse(uint8_t number, uint16_t address, uint16_t length, uint8_t type){
    reactStr[0][number]=address;
    3d80:	29 e5       	ldi	r18, 0x59	; 89
    3d82:	3a e7       	ldi	r19, 0x7A	; 122
    3d84:	20 93 23 39 	sts	0x3923, r18	; 0x803923 <reactStr+0x6>
    3d88:	30 93 24 39 	sts	0x3924, r19	; 0x803924 <reactStr+0x7>
    reactStr[1][number]=length;
    3d8c:	22 e0       	ldi	r18, 0x02	; 2
    3d8e:	30 e0       	ldi	r19, 0x00	; 0
    3d90:	20 93 63 39 	sts	0x3963, r18	; 0x803963 <reactStr+0x46>
    3d94:	30 93 64 39 	sts	0x3964, r19	; 0x803964 <reactStr+0x47>
    reactStr[2][number]=type;
    3d98:	80 93 a3 39 	sts	0x39A3, r24	; 0x8039a3 <reactStr+0x86>
    3d9c:	90 93 a4 39 	sts	0x39A4, r25	; 0x8039a4 <reactStr+0x87>
    return 0;
}

//
void SetResponse(uint8_t number, uint16_t address, uint16_t length, uint8_t type){
    reactStr[0][number]=address;
    3da0:	29 e5       	ldi	r18, 0x59	; 89
    3da2:	37 e7       	ldi	r19, 0x77	; 119
    3da4:	20 93 25 39 	sts	0x3925, r18	; 0x803925 <reactStr+0x8>
    3da8:	30 93 26 39 	sts	0x3926, r19	; 0x803926 <reactStr+0x9>
    reactStr[1][number]=length;
    3dac:	2d e3       	ldi	r18, 0x3D	; 61
    3dae:	30 e0       	ldi	r19, 0x00	; 0
    3db0:	20 93 65 39 	sts	0x3965, r18	; 0x803965 <reactStr+0x48>
    3db4:	30 93 66 39 	sts	0x3966, r19	; 0x803966 <reactStr+0x49>
    reactStr[2][number]=type;
    3db8:	80 93 a5 39 	sts	0x39A5, r24	; 0x8039a5 <reactStr+0x88>
    3dbc:	90 93 a6 39 	sts	0x39A6, r25	; 0x8039a6 <reactStr+0x89>
                            PopulateObject(inventory[x], &actObj1);
                            SetResponse(elements++, A_DROPPING, L_DROPPING, TEASER);
                            SetResponse(elements++, actObj1.addrStr[NAME], actObj1.lenStr[NAME], GAME);
                            SetResponse(elements++, A_LF, 2, TEASER);
                            SetResponse(elements++, A_RETURNING, L_RETURNING, TEASER);
                            inventory[x] = 0;
    3dc0:	f7 01       	movw	r30, r14
    3dc2:	10 82       	st	Z, r1
    3dc4:	11 82       	std	Z+1, r1	; 0x01
                        if (CheckLetter(inventory[x], data[1])) {
                            PopulateObject(inventory[x], &actObj1);
                            SetResponse(elements++, A_DROPPING, L_DROPPING, TEASER);
                            SetResponse(elements++, actObj1.addrStr[NAME], actObj1.lenStr[NAME], GAME);
                            SetResponse(elements++, A_LF, 2, TEASER);
                            SetResponse(elements++, A_RETURNING, L_RETURNING, TEASER);
    3dc6:	f5 e0       	ldi	r31, 0x05	; 5
    3dc8:	7f 2e       	mov	r7, r31
                            inventory[x] = 0;
                            break;
    3dca:	64 cf       	rjmp	.-312    	; 0x3c94 <ProcessInput+0x1004>
                SetResponse(elements++, A_EMPTYHANDS, L_EMPTYHANDS, TEASER);
            } else if (inputLen != 2) {
                SetResponse(elements++, A_NOTPOSSIBLE, L_NOTPOSSIBLE, TEASER);
            } else {
                for (uint8_t x=0; x<2; ++x) {
                    if (inventory[x]) {
    3dcc:	80 91 42 38 	lds	r24, 0x3842	; 0x803842 <inventory+0x2>
    3dd0:	90 91 43 38 	lds	r25, 0x3843	; 0x803843 <inventory+0x3>
    3dd4:	00 97       	sbiw	r24, 0x00	; 0
    3dd6:	49 f0       	breq	.+18     	; 0x3dea <ProcessInput+0x115a>
                        if (CheckLetter(inventory[x], data[1])) {
    3dd8:	f8 01       	movw	r30, r16
    3dda:	61 81       	ldd	r22, Z+1	; 0x01
    3ddc:	0e 94 0c 12 	call	0x2418	; 0x2418 <CheckLetter>
    3de0:	88 23       	and	r24, r24
    3de2:	19 f0       	breq	.+6      	; 0x3dea <ProcessInput+0x115a>
                SetResponse(elements++, A_EMPTYHANDS, L_EMPTYHANDS, TEASER);
            } else if (inputLen != 2) {
                SetResponse(elements++, A_NOTPOSSIBLE, L_NOTPOSSIBLE, TEASER);
            } else {
                for (uint8_t x=0; x<2; ++x) {
                    if (inventory[x]) {
    3de4:	81 e0       	ldi	r24, 0x01	; 1
    3de6:	90 e0       	ldi	r25, 0x00	; 0
    3de8:	98 cf       	rjmp	.-208    	; 0x3d1a <ProcessInput+0x108a>
    return 0;
}

//
void SetResponse(uint8_t number, uint16_t address, uint16_t length, uint8_t type){
    reactStr[0][number]=address;
    3dea:	81 e6       	ldi	r24, 0x61	; 97
    3dec:	99 e7       	ldi	r25, 0x79	; 121
    3dee:	80 93 1f 39 	sts	0x391F, r24	; 0x80391f <reactStr+0x2>
    3df2:	90 93 20 39 	sts	0x3920, r25	; 0x803920 <reactStr+0x3>
    reactStr[1][number]=length;
    3df6:	81 e2       	ldi	r24, 0x21	; 33
    3df8:	90 e0       	ldi	r25, 0x00	; 0
    3dfa:	0f c8       	rjmp	.-4066   	; 0x2e1a <ProcessInput+0x18a>
    } else {
        SetResponse(0, A_LF, 2, TEASER);
        responseList = SetStandardResponse(1);
    }

    data[0] = 0;
    3dfc:	d8 01       	movw	r26, r16
    3dfe:	1c 92       	st	X, r1
    serRxDone = 0;
    3e00:	10 92 46 38 	sts	0x3846, r1	; 0x803846 <serRxDone>
    RXCNT = 0;    
    3e04:	1d ba       	out	0x1d, r1	; 29
    return 0;
}
    3e06:	80 e0       	ldi	r24, 0x00	; 0
    3e08:	28 96       	adiw	r28, 0x08	; 8
    3e0a:	cd bf       	out	0x3d, r28	; 61
    3e0c:	de bf       	out	0x3e, r29	; 62
    3e0e:	df 91       	pop	r29
    3e10:	cf 91       	pop	r28
    3e12:	1f 91       	pop	r17
    3e14:	0f 91       	pop	r16
    3e16:	ff 90       	pop	r15
    3e18:	ef 90       	pop	r14
    3e1a:	df 90       	pop	r13
    3e1c:	cf 90       	pop	r12
    3e1e:	bf 90       	pop	r11
    3e20:	af 90       	pop	r10
    3e22:	9f 90       	pop	r9
    3e24:	8f 90       	pop	r8
    3e26:	7f 90       	pop	r7
    3e28:	6f 90       	pop	r6
    3e2a:	5f 90       	pop	r5
    3e2c:	08 95       	ret

00003e2e <TextAdventure>:


//MAIN GAME STRUCTURE
uint8_t TextAdventure(){
    3e2e:	cf 93       	push	r28
    static uint8_t serInput[RXLEN];
    uint16_t PunishmentCount;
    
    /* Count down PunishmentTime on WING LEDs */
    if (PunishmentTime != 0) {
    3e30:	80 91 09 39 	lds	r24, 0x3909	; 0x803909 <PunishmentTime>
    3e34:	90 91 0a 39 	lds	r25, 0x390A	; 0x80390a <PunishmentTime+0x1>
    3e38:	89 2b       	or	r24, r25
    3e3a:	09 f1       	breq	.+66     	; 0x3e7e <TextAdventure+0x50>
        PunishmentCount = getClock();
    3e3c:	0e 94 6c 0d 	call	0x1ad8	; 0x1ad8 <getClock>
        if (PunishmentCount < PunishmentTime)
    3e40:	20 91 09 39 	lds	r18, 0x3909	; 0x803909 <PunishmentTime>
    3e44:	30 91 0a 39 	lds	r19, 0x390A	; 0x80390a <PunishmentTime+0x1>
    3e48:	82 17       	cp	r24, r18
    3e4a:	93 07       	cpc	r25, r19
    3e4c:	08 f4       	brcc	.+2      	; 0x3e50 <TextAdventure+0x22>
            PunishmentCount += 256 * 60;
    3e4e:	94 5c       	subi	r25, 0xC4	; 196
        PunishmentCount -= PunishmentTime;
    3e50:	ac 01       	movw	r20, r24
    3e52:	42 1b       	sub	r20, r18
    3e54:	53 0b       	sbc	r21, r19
    3e56:	9a 01       	movw	r18, r20
        if (PunishmentCount > 10) {
    3e58:	4b 30       	cpi	r20, 0x0B	; 11
    3e5a:	51 05       	cpc	r21, r1
    3e5c:	30 f0       	brcs	.+12     	; 0x3e6a <TextAdventure+0x3c>
            PunishmentTime = 0;
    3e5e:	10 92 09 39 	sts	0x3909, r1	; 0x803909 <PunishmentTime>
    3e62:	10 92 0a 39 	sts	0x390A, r1	; 0x80390a <PunishmentTime+0x1>
            PunishmentCount = 10;
    3e66:	2a e0       	ldi	r18, 0x0A	; 10
    3e68:	30 e0       	ldi	r19, 0x00	; 0
        }
        if (gameNow == TEXT ) {
    3e6a:	80 91 3e 38 	lds	r24, 0x383E	; 0x80383e <gameNow>
    3e6e:	81 11       	cpse	r24, r1
    3e70:	06 c0       	rjmp	.+12     	; 0x3e7e <TextAdventure+0x50>
            WingBar(10-PunishmentCount,5-PunishmentCount);
    3e72:	65 e0       	ldi	r22, 0x05	; 5
    3e74:	62 1b       	sub	r22, r18
    3e76:	8a e0       	ldi	r24, 0x0A	; 10
    3e78:	82 1b       	sub	r24, r18
    3e7a:	0e 94 3e 0b 	call	0x167c	; 0x167c <WingBar>
        }
    }

    //Still sending data to serial?
    if (CheckSend()) return 1;
    3e7e:	0e 94 f1 12 	call	0x25e2	; 0x25e2 <CheckSend>
    3e82:	88 23       	and	r24, r24
    3e84:	11 f0       	breq	.+4      	; 0x3e8a <TextAdventure+0x5c>
    3e86:	c1 e0       	ldi	r28, 0x01	; 1
    3e88:	18 c0       	rjmp	.+48     	; 0x3eba <TextAdventure+0x8c>

    //Not sending? Process next response part to send, if any.
    if (CheckResponse()) return 1;        
    3e8a:	0e 94 60 13 	call	0x26c0	; 0x26c0 <CheckResponse>
    3e8e:	c8 2f       	mov	r28, r24
    3e90:	81 11       	cpse	r24, r1
    3e92:	f9 cf       	rjmp	.-14     	; 0x3e86 <TextAdventure+0x58>

    if (PunishmentTime == 0) {
    3e94:	80 91 09 39 	lds	r24, 0x3909	; 0x803909 <PunishmentTime>
    3e98:	90 91 0a 39 	lds	r25, 0x390A	; 0x80390a <PunishmentTime+0x1>
    3e9c:	89 2b       	or	r24, r25
    3e9e:	69 f4       	brne	.+26     	; 0x3eba <TextAdventure+0x8c>
        //No responses to send, check if there is user input.
        if (CheckInput(&serInput[0])) return 2; 
    3ea0:	80 e7       	ldi	r24, 0x70	; 112
    3ea2:	98 e3       	ldi	r25, 0x38	; 56
    3ea4:	0e 94 a7 13 	call	0x274e	; 0x274e <CheckInput>
    3ea8:	c8 2f       	mov	r28, r24
    3eaa:	81 11       	cpse	r24, r1
    3eac:	05 c0       	rjmp	.+10     	; 0x3eb8 <TextAdventure+0x8a>

        //Input found, process and save (changes only)
        ProcessInput(&serInput[0]);
    3eae:	80 e7       	ldi	r24, 0x70	; 112
    3eb0:	98 e3       	ldi	r25, 0x38	; 56
    3eb2:	0e 94 48 16 	call	0x2c90	; 0x2c90 <ProcessInput>
    3eb6:	01 c0       	rjmp	.+2      	; 0x3eba <TextAdventure+0x8c>
    //Not sending? Process next response part to send, if any.
    if (CheckResponse()) return 1;        

    if (PunishmentTime == 0) {
        //No responses to send, check if there is user input.
        if (CheckInput(&serInput[0])) return 2; 
    3eb8:	c2 e0       	ldi	r28, 0x02	; 2
        //Input found, process and save (changes only)
        ProcessInput(&serInput[0]);
    }

    return 0;
}
    3eba:	8c 2f       	mov	r24, r28
    3ebc:	cf 91       	pop	r28
    3ebe:	08 95       	ret

00003ec0 <main>:


//This is where it begins, inits first and main program in while(1) loop.
int main(void)
{
    Setup();
    3ec0:	0e 94 fe 04 	call	0x9fc	; 0x9fc <Setup>
    LoadGameState();
    3ec4:	0e 94 ac 0a 	call	0x1558	; 0x1558 <LoadGameState>
    SelfTest();
    3ec8:	0e 94 93 0d 	call	0x1b26	; 0x1b26 <SelfTest>
            if (adcPhot < 10) WriteStatusBit(116, 1);
            if (adcPhot > 100) WriteStatusBit(116, 0);

            dimValueSum -= (dimValueSum>>8);
            dimValueSum += 256;
            dimValueSum -= QSINE[31-(adcPhot>>7)];
    3ecc:	cf e1       	ldi	r28, 0x1F	; 31
    3ece:	d0 e0       	ldi	r29, 0x00	; 0
    Setup();
    LoadGameState();
    SelfTest();

    while (TRUE) {
        if (GenerateAudio()) {
    3ed0:	0e 94 35 0c 	call	0x186a	; 0x186a <GenerateAudio>
    3ed4:	88 23       	and	r24, r24
    3ed6:	e1 f3       	breq	.-8      	; 0x3ed0 <main+0x10>
            lastButtonState = buttonState;
    3ed8:	80 91 08 38 	lds	r24, 0x3808	; 0x803808 <buttonState>
    3edc:	80 93 07 38 	sts	0x3807, r24	; 0x803807 <lastButtonState>
            buttonState = CheckButtons();
    3ee0:	0e 94 09 09 	call	0x1212	; 0x1212 <CheckButtons>
    3ee4:	80 93 08 38 	sts	0x3808, r24	; 0x803808 <buttonState>
            buttonMark = 0;
    3ee8:	10 92 44 38 	sts	0x3844, r1	; 0x803844 <buttonMark>

            if (VREF_CTRLA == 0x12) SelectAuIn(); else SelectTSens();
    3eec:	80 91 a0 00 	lds	r24, 0x00A0	; 0x8000a0 <__TEXT_REGION_LENGTH__+0x7000a0>
    3ef0:	82 31       	cpi	r24, 0x12	; 18
    3ef2:	19 f4       	brne	.+6      	; 0x3efa <main+0x3a>
    3ef4:	0e 94 fa 08 	call	0x11f4	; 0x11f4 <SelectAuIn>
    3ef8:	02 c0       	rjmp	.+4      	; 0x3efe <main+0x3e>
    3efa:	0e 94 eb 08 	call	0x11d6	; 0x11d6 <SelectTSens>

            GenerateBlinks();
    3efe:	0e 94 7c 0b 	call	0x16f8	; 0x16f8 <GenerateBlinks>

            //Main game, to complete: Finish sub-game MagnetMaze and MakeFriends too.
            TextAdventure();
    3f02:	95 df       	rcall	.-214    	; 0x3e2e <TextAdventure>

            //Other games & user interaction checks
            MagnetMaze();
    3f04:	0e 94 01 04 	call	0x802	; 0x802 <MagnetMaze>
            LanyardCode();
    3f08:	0e 94 09 03 	call	0x612	; 0x612 <LanyardCode>
            BastetDictates();
    3f0c:	0e 94 e4 0e 	call	0x1dc8	; 0x1dc8 <BastetDictates>
            MakeFriends();
    3f10:	0e 94 7a 00 	call	0xf4	; 0xf4 <MakeFriends>

            //Save progress
            SaveGameState();
    3f14:	0e 94 ba 09 	call	0x1374	; 0x1374 <SaveGameState>

            //Check light sensor status (added hysteresis to preserve writing cycles to internal EEPROM)
            if (adcPhot < 10) WriteStatusBit(116, 1);
    3f18:	80 91 bf 3a 	lds	r24, 0x3ABF	; 0x803abf <adcPhot>
    3f1c:	90 91 c0 3a 	lds	r25, 0x3AC0	; 0x803ac0 <adcPhot+0x1>
    3f20:	0a 97       	sbiw	r24, 0x0a	; 10
    3f22:	20 f4       	brcc	.+8      	; 0x3f2c <main+0x6c>
    3f24:	61 e0       	ldi	r22, 0x01	; 1
    3f26:	84 e7       	ldi	r24, 0x74	; 116
    3f28:	0e 94 41 0a 	call	0x1482	; 0x1482 <WriteStatusBit>
            if (adcPhot > 100) WriteStatusBit(116, 0);
    3f2c:	80 91 bf 3a 	lds	r24, 0x3ABF	; 0x803abf <adcPhot>
    3f30:	90 91 c0 3a 	lds	r25, 0x3AC0	; 0x803ac0 <adcPhot+0x1>
    3f34:	85 36       	cpi	r24, 0x65	; 101
    3f36:	91 05       	cpc	r25, r1
    3f38:	20 f0       	brcs	.+8      	; 0x3f42 <main+0x82>
    3f3a:	60 e0       	ldi	r22, 0x00	; 0
    3f3c:	84 e7       	ldi	r24, 0x74	; 116
    3f3e:	0e 94 41 0a 	call	0x1482	; 0x1482 <WriteStatusBit>

            dimValueSum -= (dimValueSum>>8);
    3f42:	20 91 0a 38 	lds	r18, 0x380A	; 0x80380a <dimValueSum>
    3f46:	30 91 0b 38 	lds	r19, 0x380B	; 0x80380b <dimValueSum+0x1>
    3f4a:	80 91 0a 38 	lds	r24, 0x380A	; 0x80380a <dimValueSum>
    3f4e:	90 91 0b 38 	lds	r25, 0x380B	; 0x80380b <dimValueSum+0x1>
    3f52:	23 2f       	mov	r18, r19
    3f54:	33 27       	eor	r19, r19
    3f56:	82 1b       	sub	r24, r18
    3f58:	93 0b       	sbc	r25, r19
    3f5a:	80 93 0a 38 	sts	0x380A, r24	; 0x80380a <dimValueSum>
    3f5e:	90 93 0b 38 	sts	0x380B, r25	; 0x80380b <dimValueSum+0x1>
            dimValueSum += 256;
    3f62:	80 91 0a 38 	lds	r24, 0x380A	; 0x80380a <dimValueSum>
    3f66:	90 91 0b 38 	lds	r25, 0x380B	; 0x80380b <dimValueSum+0x1>
    3f6a:	93 95       	inc	r25
    3f6c:	80 93 0a 38 	sts	0x380A, r24	; 0x80380a <dimValueSum>
    3f70:	90 93 0b 38 	sts	0x380B, r25	; 0x80380b <dimValueSum+0x1>
            dimValueSum -= QSINE[31-(adcPhot>>7)];
    3f74:	20 91 bf 3a 	lds	r18, 0x3ABF	; 0x803abf <adcPhot>
    3f78:	30 91 c0 3a 	lds	r19, 0x3AC0	; 0x803ac0 <adcPhot+0x1>
    3f7c:	80 91 0a 38 	lds	r24, 0x380A	; 0x80380a <dimValueSum>
    3f80:	90 91 0b 38 	lds	r25, 0x380B	; 0x80380b <dimValueSum+0x1>
    3f84:	22 0f       	add	r18, r18
    3f86:	23 2f       	mov	r18, r19
    3f88:	22 1f       	adc	r18, r18
    3f8a:	33 0b       	sbc	r19, r19
    3f8c:	31 95       	neg	r19
    3f8e:	fe 01       	movw	r30, r28
    3f90:	e2 1b       	sub	r30, r18
    3f92:	f3 0b       	sbc	r31, r19
    3f94:	ee 5f       	subi	r30, 0xFE	; 254
    3f96:	ff 43       	sbci	r31, 0x3F	; 63
    3f98:	20 81       	ld	r18, Z
    3f9a:	82 1b       	sub	r24, r18
    3f9c:	91 09       	sbc	r25, r1
    3f9e:	80 93 0a 38 	sts	0x380A, r24	; 0x80380a <dimValueSum>
    3fa2:	90 93 0b 38 	sts	0x380B, r25	; 0x80380b <dimValueSum+0x1>
            dimValue     = dimValueSum>>8;
    3fa6:	80 91 0a 38 	lds	r24, 0x380A	; 0x80380a <dimValueSum>
    3faa:	90 91 0b 38 	lds	r25, 0x380B	; 0x80380b <dimValueSum+0x1>
    3fae:	90 93 0c 38 	sts	0x380C, r25	; 0x80380c <dimValue>

            //Check temperature
            HotSummer();
    3fb2:	0e 94 d9 0a 	call	0x15b2	; 0x15b2 <HotSummer>
    3fb6:	8c cf       	rjmp	.-232    	; 0x3ed0 <main+0x10>

00003fb8 <_exit>:
    3fb8:	f8 94       	cli

00003fba <__stop_program>:
    3fba:	ff cf       	rjmp	.-2      	; 0x3fba <__stop_program>
