
ISR_IO.elf:     file format elf32-avr

Sections:
Idx Name          Size      VMA       LMA       File off  Algn
  0 .data         00000032  00803800  00003fca  0000407e  2**0
                  CONTENTS, ALLOC, LOAD, DATA
  1 .text         00003f0e  00000000  00000000  000000b4  2**1
                  CONTENTS, ALLOC, LOAD, READONLY, CODE
  2 .rodata       000000bc  0000bf0e  00003f0e  00003fc2  2**0
                  CONTENTS, ALLOC, LOAD, READONLY, DATA
  3 .bss          000002e2  00803832  00803832  000040b0  2**0
                  ALLOC
  4 .comment      00000030  00000000  00000000  000040b0  2**0
                  CONTENTS, READONLY
  5 .note.gnu.avr.deviceinfo 00000040  00000000  00000000  000040e0  2**2
                  CONTENTS, READONLY
  6 .debug_aranges 00000338  00000000  00000000  00004120  2**0
                  CONTENTS, READONLY, DEBUGGING
  7 .debug_info   00006c3d  00000000  00000000  00004458  2**0
                  CONTENTS, READONLY, DEBUGGING
  8 .debug_abbrev 000028a2  00000000  00000000  0000b095  2**0
                  CONTENTS, READONLY, DEBUGGING
  9 .debug_line   00003d97  00000000  00000000  0000d937  2**0
                  CONTENTS, READONLY, DEBUGGING
 10 .debug_frame  000009f8  00000000  00000000  000116d0  2**2
                  CONTENTS, READONLY, DEBUGGING
 11 .debug_str    00001a89  00000000  00000000  000120c8  2**0
                  CONTENTS, READONLY, DEBUGGING
 12 .debug_loc    00004178  00000000  00000000  00013b51  2**0
                  CONTENTS, READONLY, DEBUGGING
 13 .debug_ranges 000003a8  00000000  00000000  00017cc9  2**0
                  CONTENTS, READONLY, DEBUGGING

Disassembly of section .text:

00000000 <__vectors>:
       0:	46 c0       	rjmp	.+140    	; 0x8e <__ctors_end>
       2:	00 00       	nop
       4:	61 c0       	rjmp	.+194    	; 0xc8 <__bad_interrupt>
       6:	00 00       	nop
       8:	5f c0       	rjmp	.+190    	; 0xc8 <__bad_interrupt>
       a:	00 00       	nop
       c:	5d c0       	rjmp	.+186    	; 0xc8 <__bad_interrupt>
       e:	00 00       	nop
      10:	5b c0       	rjmp	.+182    	; 0xc8 <__bad_interrupt>
      12:	00 00       	nop
      14:	59 c0       	rjmp	.+178    	; 0xc8 <__bad_interrupt>
      16:	00 00       	nop
      18:	8c c7       	rjmp	.+3864   	; 0xf32 <__vector_6>
      1a:	00 00       	nop
      1c:	e1 c7       	rjmp	.+4034   	; 0xfe0 <__vector_7>
      1e:	00 00       	nop
      20:	c9 c5       	rjmp	.+2962   	; 0xbb4 <__vector_8>
      22:	00 00       	nop
      24:	51 c0       	rjmp	.+162    	; 0xc8 <__bad_interrupt>
      26:	00 00       	nop
      28:	4f c0       	rjmp	.+158    	; 0xc8 <__bad_interrupt>
      2a:	00 00       	nop
      2c:	4d c0       	rjmp	.+154    	; 0xc8 <__bad_interrupt>
      2e:	00 00       	nop
      30:	4b c0       	rjmp	.+150    	; 0xc8 <__bad_interrupt>
      32:	00 00       	nop
      34:	10 c6       	rjmp	.+3104   	; 0xc56 <__vector_13>
      36:	00 00       	nop
      38:	41 c6       	rjmp	.+3202   	; 0xcbc <__vector_14>
      3a:	00 00       	nop
      3c:	45 c0       	rjmp	.+138    	; 0xc8 <__bad_interrupt>
      3e:	00 00       	nop
      40:	43 c0       	rjmp	.+134    	; 0xc8 <__bad_interrupt>
      42:	00 00       	nop
      44:	41 c0       	rjmp	.+130    	; 0xc8 <__bad_interrupt>
      46:	00 00       	nop
      48:	3f c0       	rjmp	.+126    	; 0xc8 <__bad_interrupt>
      4a:	00 00       	nop
      4c:	3d c0       	rjmp	.+122    	; 0xc8 <__bad_interrupt>
      4e:	00 00       	nop
      50:	fc c6       	rjmp	.+3576   	; 0xe4a <__vector_20>
      52:	00 00       	nop
      54:	39 c0       	rjmp	.+114    	; 0xc8 <__bad_interrupt>
      56:	00 00       	nop
      58:	24 c7       	rjmp	.+3656   	; 0xea2 <__vector_22>
      5a:	00 00       	nop
      5c:	35 c0       	rjmp	.+106    	; 0xc8 <__bad_interrupt>
      5e:	00 00       	nop
      60:	33 c0       	rjmp	.+102    	; 0xc8 <__bad_interrupt>
      62:	00 00       	nop
      64:	31 c0       	rjmp	.+98     	; 0xc8 <__bad_interrupt>
      66:	00 00       	nop
      68:	2f c0       	rjmp	.+94     	; 0xc8 <__bad_interrupt>
      6a:	00 00       	nop
      6c:	77 c6       	rjmp	.+3310   	; 0xd5c <__vector_27>
      6e:	00 00       	nop
      70:	d0 c6       	rjmp	.+3488   	; 0xe12 <__vector_28>
      72:	00 00       	nop
      74:	29 c0       	rjmp	.+82     	; 0xc8 <__bad_interrupt>
      76:	00 00       	nop
      78:	27 c0       	rjmp	.+78     	; 0xc8 <__bad_interrupt>
      7a:	00 00       	nop
      7c:	b6 0b       	sbc	r27, r22
      7e:	e4 0b       	sbc	r30, r20
      80:	eb 0b       	sbc	r30, r27
      82:	b4 0c       	add	r11, r4
      84:	b4 0c       	add	r11, r4
      86:	01 0c       	add	r0, r1
      88:	15 0c       	add	r1, r5
      8a:	53 0c       	add	r5, r3
      8c:	7a 0c       	add	r7, r10

0000008e <__ctors_end>:
      8e:	11 24       	eor	r1, r1
      90:	1f be       	out	0x3f, r1	; 63
      92:	cf ef       	ldi	r28, 0xFF	; 255
      94:	cd bf       	out	0x3d, r28	; 61
      96:	df e3       	ldi	r29, 0x3F	; 63
      98:	de bf       	out	0x3e, r29	; 62

0000009a <__do_copy_data>:
      9a:	18 e3       	ldi	r17, 0x38	; 56
      9c:	a0 e0       	ldi	r26, 0x00	; 0
      9e:	b8 e3       	ldi	r27, 0x38	; 56
      a0:	ea ec       	ldi	r30, 0xCA	; 202
      a2:	ff e3       	ldi	r31, 0x3F	; 63
      a4:	02 c0       	rjmp	.+4      	; 0xaa <__do_copy_data+0x10>
      a6:	05 90       	lpm	r0, Z+
      a8:	0d 92       	st	X+, r0
      aa:	a2 33       	cpi	r26, 0x32	; 50
      ac:	b1 07       	cpc	r27, r17
      ae:	d9 f7       	brne	.-10     	; 0xa6 <__do_copy_data+0xc>

000000b0 <__do_clear_bss>:
      b0:	2b e3       	ldi	r18, 0x3B	; 59
      b2:	a2 e3       	ldi	r26, 0x32	; 50
      b4:	b8 e3       	ldi	r27, 0x38	; 56
      b6:	01 c0       	rjmp	.+2      	; 0xba <.do_clear_bss_start>

000000b8 <.do_clear_bss_loop>:
      b8:	1d 92       	st	X+, r1

000000ba <.do_clear_bss_start>:
      ba:	a4 31       	cpi	r26, 0x14	; 20
      bc:	b2 07       	cpc	r27, r18
      be:	e1 f7       	brne	.-8      	; 0xb8 <.do_clear_bss_loop>
      c0:	0e 94 f8 1e 	call	0x3df0	; 0x3df0 <main>
      c4:	0c 94 85 1f 	jmp	0x3f0a	; 0x3f0a <_exit>

000000c8 <__bad_interrupt>:
      c8:	9b cf       	rjmp	.-202    	; 0x0 <__vectors>

000000ca <chkVolt250>:
#include <main_def.h>
#include <resources.h>
#include <I2C.h>

//Returns measured voltage * 4 (2V returns 8) if it is in the expected range (DELTA)
uint8_t chkVolt250(){
      ca:	28 ed       	ldi	r18, 0xD8	; 216
      cc:	30 e0       	ldi	r19, 0x00	; 0
    uint8_t avgVolt = 9;
      ce:	89 e0       	ldi	r24, 0x09	; 9
        
    for (uint8_t x=225; x>24; x-=25) {
        if ((auIn > (x-DELTA)) && (auIn < (x+DELTA))) {
      d0:	40 91 c4 3a 	lds	r20, 0x3AC4	; 0x803ac4 <auIn>
      d4:	50 e0       	ldi	r21, 0x00	; 0
      d6:	42 17       	cp	r20, r18
      d8:	53 07       	cpc	r21, r19
      da:	4c f0       	brlt	.+18     	; 0xee <chkVolt250+0x24>
      dc:	40 91 c4 3a 	lds	r20, 0x3AC4	; 0x803ac4 <auIn>
      e0:	50 e0       	ldi	r21, 0x00	; 0
      e2:	b9 01       	movw	r22, r18
      e4:	6e 5e       	subi	r22, 0xEE	; 238
      e6:	7f 4f       	sbci	r23, 0xFF	; 255
      e8:	64 17       	cp	r22, r20
      ea:	75 07       	cpc	r23, r21
      ec:	2c f4       	brge	.+10     	; 0xf8 <chkVolt250+0x2e>
            break;
        }
        --avgVolt;
      ee:	81 50       	subi	r24, 0x01	; 1
      f0:	29 51       	subi	r18, 0x19	; 25
      f2:	31 09       	sbc	r19, r1

//Returns measured voltage * 4 (2V returns 8) if it is in the expected range (DELTA)
uint8_t chkVolt250(){
    uint8_t avgVolt = 9;
        
    for (uint8_t x=225; x>24; x-=25) {
      f4:	81 11       	cpse	r24, r1
      f6:	ec cf       	rjmp	.-40     	; 0xd0 <chkVolt250+0x6>
            break;
        }
        --avgVolt;
    }
    return avgVolt;
}
      f8:	08 95       	ret

000000fa <MakeFriends>:

// Main game loop
uint8_t MakeFriends(){
      fa:	cf 93       	push	r28
      fc:	df 93       	push	r29
    static uint8_t setDAC[2] = {255, 0};
    static uint8_t chkTmr = 0;
    static uint8_t jackIn = 0;
    static uint8_t candidate = 0;

    ++chkTmr;
      fe:	80 91 35 38 	lds	r24, 0x3835	; 0x803835 <chkTmr.3790>
     102:	8f 5f       	subi	r24, 0xFF	; 255
     104:	80 93 35 38 	sts	0x3835, r24	; 0x803835 <chkTmr.3790>
     108:	c4 e6       	ldi	r28, 0x64	; 100

    //Check if badge has found 3 friends
    uint8_t foundAll = 1;
     10a:	d1 e0       	ldi	r29, 0x01	; 1
    for (uint8_t x=0; x<4; ++x){
        if (CheckState(100+x) == 0) foundAll = 0;
     10c:	8c 2f       	mov	r24, r28
     10e:	0e 94 1e 0a 	call	0x143c	; 0x143c <CheckState>
     112:	81 11       	cpse	r24, r1
     114:	01 c0       	rjmp	.+2      	; 0x118 <MakeFriends+0x1e>
     116:	d0 e0       	ldi	r29, 0x00	; 0
     118:	cf 5f       	subi	r28, 0xFF	; 255

    ++chkTmr;

    //Check if badge has found 3 friends
    uint8_t foundAll = 1;
    for (uint8_t x=0; x<4; ++x){
     11a:	c8 36       	cpi	r28, 0x68	; 104
     11c:	b9 f7       	brne	.-18     	; 0x10c <MakeFriends+0x12>
        if (CheckState(100+x) == 0) foundAll = 0;
    }
    if (foundAll) UpdateState(124);
     11e:	dd 23       	and	r29, r29
     120:	19 f0       	breq	.+6      	; 0x128 <MakeFriends+0x2e>
     122:	8c e7       	ldi	r24, 0x7C	; 124
     124:	0e 94 fd 09 	call	0x13fa	; 0x13fa <UpdateState>

    //Set game state, must be able to hijack from other games.
    if (progress > FIRST_CONTACT) { 
     128:	80 91 34 38 	lds	r24, 0x3834	; 0x803834 <progress.3788>
     12c:	82 30       	cpi	r24, 0x02	; 2
     12e:	20 f0       	brcs	.+8      	; 0x138 <MakeFriends+0x3e>
        gameNow = FRIENDS; 
     130:	94 e0       	ldi	r25, 0x04	; 4
     132:	90 93 3e 38 	sts	0x383E, r25	; 0x80383e <gameNow>
     136:	0d c0       	rjmp	.+26     	; 0x152 <MakeFriends+0x58>
    }
    
    //Clear game state if not communicating properly or headphones detected
    if (((progress == NO_OTHER) || detHdPh) && (gameNow == FRIENDS)) {
     138:	81 11       	cpse	r24, r1
     13a:	0b c0       	rjmp	.+22     	; 0x152 <MakeFriends+0x58>
     13c:	90 91 3e 38 	lds	r25, 0x383E	; 0x80383e <gameNow>
     140:	94 30       	cpi	r25, 0x04	; 4
     142:	61 f4       	brne	.+24     	; 0x15c <MakeFriends+0x62>
        gameNow = TEXT; 
     144:	10 92 3e 38 	sts	0x383E, r1	; 0x80383e <gameNow>
        effect = 0;
     148:	10 92 3c 38 	sts	0x383C, r1	; 0x80383c <effect>
     14c:	10 92 3d 38 	sts	0x383D, r1	; 0x80383d <effect+0x1>
     150:	05 c0       	rjmp	.+10     	; 0x15c <MakeFriends+0x62>
    if (progress > FIRST_CONTACT) { 
        gameNow = FRIENDS; 
    }
    
    //Clear game state if not communicating properly or headphones detected
    if (((progress == NO_OTHER) || detHdPh) && (gameNow == FRIENDS)) {
     152:	90 91 c1 3a 	lds	r25, 0x3AC1	; 0x803ac1 <detHdPh>
     156:	91 11       	cpse	r25, r1
     158:	f1 cf       	rjmp	.-30     	; 0x13c <MakeFriends+0x42>
     15a:	18 c0       	rjmp	.+48     	; 0x18c <MakeFriends+0x92>
        gameNow = TEXT; 
        effect = 0;
    }

    //Audio off, set voltage level (setDAC[0]*10mV)
    if ((progress == NO_OTHER) && (detHdPh == 0)) {
     15c:	81 11       	cpse	r24, r1
     15e:	16 c0       	rjmp	.+44     	; 0x18c <MakeFriends+0x92>
     160:	90 91 c1 3a 	lds	r25, 0x3AC1	; 0x803ac1 <detHdPh>
     164:	91 11       	cpse	r25, r1
     166:	12 c0       	rjmp	.+36     	; 0x18c <MakeFriends+0x92>
        setDAC[0] = whoami * 51;
     168:	80 91 3f 38 	lds	r24, 0x383F	; 0x80383f <whoami>
     16c:	93 e3       	ldi	r25, 0x33	; 51
     16e:	89 9f       	mul	r24, r25
     170:	80 2d       	mov	r24, r0
     172:	11 24       	eor	r1, r1
     174:	80 93 00 38 	sts	0x3800, r24	; 0x803800 <__data_start>
        auRepAddr = &setDAC[0];
     178:	80 e0       	ldi	r24, 0x00	; 0
     17a:	98 e3       	ldi	r25, 0x38	; 56
     17c:	80 93 03 38 	sts	0x3803, r24	; 0x803803 <auRepAddr>
     180:	90 93 04 38 	sts	0x3804, r25	; 0x803804 <auRepAddr+0x1>
        auVolume = 255;
     184:	8f ef       	ldi	r24, 0xFF	; 255
     186:	80 93 b8 3a 	sts	0x3AB8, r24	; 0x803ab8 <auVolume>
     18a:	09 c0       	rjmp	.+18     	; 0x19e <MakeFriends+0xa4>
    } else {
        if (progress & NEXT){
     18c:	98 2f       	mov	r25, r24
     18e:	90 7f       	andi	r25, 0xF0	; 240
     190:	31 f0       	breq	.+12     	; 0x19e <MakeFriends+0xa4>
            progress++;
            progress&=0x0f;
     192:	8f 5f       	subi	r24, 0xFF	; 255
     194:	8f 70       	andi	r24, 0x0F	; 15
     196:	80 93 34 38 	sts	0x3834, r24	; 0x803834 <progress.3788>
            chkTmr = 0;
     19a:	10 92 35 38 	sts	0x3835, r1	; 0x803835 <chkTmr.3790>
        }
    }

    //Check for other badges ()
    if ((auIn < (setDAC[0] - DELTA)) || (auIn > (setDAC[0] + DELTA)) || (progress > FIRST_CONTACT)) {
     19e:	40 91 c4 3a 	lds	r20, 0x3AC4	; 0x803ac4 <auIn>
     1a2:	20 91 00 38 	lds	r18, 0x3800	; 0x803800 <__data_start>
     1a6:	30 e0       	ldi	r19, 0x00	; 0
     1a8:	50 e0       	ldi	r21, 0x00	; 0
     1aa:	b9 01       	movw	r22, r18
     1ac:	6a 50       	subi	r22, 0x0A	; 10
     1ae:	71 09       	sbc	r23, r1
     1b0:	80 91 34 38 	lds	r24, 0x3834	; 0x803834 <progress.3788>
     1b4:	46 17       	cp	r20, r22
     1b6:	57 07       	cpc	r21, r23
     1b8:	5c f0       	brlt	.+22     	; 0x1d0 <MakeFriends+0xd6>
     1ba:	40 91 c4 3a 	lds	r20, 0x3AC4	; 0x803ac4 <auIn>
     1be:	50 e0       	ldi	r21, 0x00	; 0
     1c0:	26 5f       	subi	r18, 0xF6	; 246
     1c2:	3f 4f       	sbci	r19, 0xFF	; 255
     1c4:	24 17       	cp	r18, r20
     1c6:	35 07       	cpc	r19, r21
     1c8:	1c f0       	brlt	.+6      	; 0x1d0 <MakeFriends+0xd6>
     1ca:	82 30       	cpi	r24, 0x02	; 2
     1cc:	08 f4       	brcc	.+2      	; 0x1d0 <MakeFriends+0xd6>
     1ce:	43 c0       	rjmp	.+134    	; 0x256 <MakeFriends+0x15c>
        if ((progress == NO_OTHER) && (detHdPh == 0)) {
     1d0:	81 11       	cpse	r24, r1
     1d2:	0b c0       	rjmp	.+22     	; 0x1ea <MakeFriends+0xf0>
     1d4:	80 91 c1 3a 	lds	r24, 0x3AC1	; 0x803ac1 <detHdPh>
     1d8:	81 11       	cpse	r24, r1
     1da:	96 c0       	rjmp	.+300    	; 0x308 <MakeFriends+0x20e>
            if (chkTmr >= 8) {
     1dc:	80 91 35 38 	lds	r24, 0x3835	; 0x803835 <chkTmr.3790>
     1e0:	88 30       	cpi	r24, 0x08	; 8
     1e2:	08 f4       	brcc	.+2      	; 0x1e6 <MakeFriends+0xec>
     1e4:	91 c0       	rjmp	.+290    	; 0x308 <MakeFriends+0x20e>
                progress |= NEXT;
     1e6:	80 ef       	ldi	r24, 0xF0	; 240
     1e8:	64 c0       	rjmp	.+200    	; 0x2b2 <MakeFriends+0x1b8>
            }
        }

        //Candidate found, check ranges
        else if (progress == FIRST_CONTACT) {
     1ea:	81 30       	cpi	r24, 0x01	; 1
     1ec:	41 f5       	brne	.+80     	; 0x23e <MakeFriends+0x144>
            jackIn = chkVolt250();
     1ee:	6d df       	rcall	.-294    	; 0xca <chkVolt250>
     1f0:	80 93 33 38 	sts	0x3833, r24	; 0x803833 <jackIn.3791>
            if (jackIn) {
     1f4:	88 23       	and	r24, r24
     1f6:	79 f1       	breq	.+94     	; 0x256 <MakeFriends+0x15c>
                if (chkTmr >= SHORT_WAIT){
     1f8:	90 91 35 38 	lds	r25, 0x3835	; 0x803835 <chkTmr.3790>
     1fc:	98 30       	cpi	r25, 0x08	; 8
     1fe:	08 f4       	brcc	.+2      	; 0x202 <MakeFriends+0x108>
     200:	83 c0       	rjmp	.+262    	; 0x308 <MakeFriends+0x20e>
                    if (   ((whoami == 1)&&((jackIn >= 3)&&(jackIn <= 5))) 
     202:	90 91 3f 38 	lds	r25, 0x383F	; 0x80383f <whoami>
     206:	91 30       	cpi	r25, 0x01	; 1
     208:	11 f4       	brne	.+4      	; 0x20e <MakeFriends+0x114>
     20a:	83 50       	subi	r24, 0x03	; 3
     20c:	14 c0       	rjmp	.+40     	; 0x236 <MakeFriends+0x13c>
                    || ((whoami == 2)&&((jackIn == 3)||(jackIn == 5)||(jackIn == 6)))  
     20e:	92 30       	cpi	r25, 0x02	; 2
     210:	31 f4       	brne	.+12     	; 0x21e <MakeFriends+0x124>
     212:	83 30       	cpi	r24, 0x03	; 3
     214:	91 f0       	breq	.+36     	; 0x23a <MakeFriends+0x140>
     216:	85 50       	subi	r24, 0x05	; 5
     218:	82 30       	cpi	r24, 0x02	; 2
     21a:	e8 f4       	brcc	.+58     	; 0x256 <MakeFriends+0x15c>
     21c:	0e c0       	rjmp	.+28     	; 0x23a <MakeFriends+0x140>
                    || ((whoami == 3)&&((jackIn == 4)||(jackIn == 5)||(jackIn == 7))) 
     21e:	93 30       	cpi	r25, 0x03	; 3
     220:	39 f4       	brne	.+14     	; 0x230 <MakeFriends+0x136>
     222:	9c ef       	ldi	r25, 0xFC	; 252
     224:	98 0f       	add	r25, r24
     226:	92 30       	cpi	r25, 0x02	; 2
     228:	40 f0       	brcs	.+16     	; 0x23a <MakeFriends+0x140>
     22a:	87 30       	cpi	r24, 0x07	; 7
     22c:	a1 f4       	brne	.+40     	; 0x256 <MakeFriends+0x15c>
     22e:	05 c0       	rjmp	.+10     	; 0x23a <MakeFriends+0x140>
                    || ((whoami == 4)&&((jackIn >= 5)&&(jackIn <= 7)))   ) {
     230:	94 30       	cpi	r25, 0x04	; 4
     232:	89 f4       	brne	.+34     	; 0x256 <MakeFriends+0x15c>
     234:	85 50       	subi	r24, 0x05	; 5
     236:	83 30       	cpi	r24, 0x03	; 3
     238:	70 f4       	brcc	.+28     	; 0x256 <MakeFriends+0x15c>
                        progress |= NEXT;
     23a:	81 ef       	ldi	r24, 0xF1	; 241
     23c:	3a c0       	rjmp	.+116    	; 0x2b2 <MakeFriends+0x1b8>
                progress = NO_OTHER;
            }
        }

        //Wait for the other badge (and a bit longer for effect)
        else if (progress == SECOND_LOVE){
     23e:	82 30       	cpi	r24, 0x02	; 2
     240:	69 f0       	breq	.+26     	; 0x25c <MakeFriends+0x162>
                progress |= NEXT;
            }
        } 
        
        //Wait a bit, check Voltage again, if ok show who you connected with and your own number, save, exit
        else if (progress == THIRD_KISS) {
     242:	83 30       	cpi	r24, 0x03	; 3
     244:	c9 f1       	breq	.+114    	; 0x2b8 <MakeFriends+0x1be>
                    progress |= NEXT;
                } else progress = NO_OTHER;                
            }

        //Wait for quit
        } else if (progress == FOURTH_BASE) {
     246:	84 30       	cpi	r24, 0x04	; 4
     248:	09 f0       	breq	.+2      	; 0x24c <MakeFriends+0x152>
     24a:	5e c0       	rjmp	.+188    	; 0x308 <MakeFriends+0x20e>
            if (chkTmr >= (SHORT_WAIT<<3)) {
     24c:	80 91 35 38 	lds	r24, 0x3835	; 0x803835 <chkTmr.3790>
     250:	80 34       	cpi	r24, 0x40	; 64
     252:	08 f4       	brcc	.+2      	; 0x256 <MakeFriends+0x15c>
     254:	59 c0       	rjmp	.+178    	; 0x308 <MakeFriends+0x20e>
                    if (   ((whoami == 1)&&((jackIn >= 3)&&(jackIn <= 5))) 
                    || ((whoami == 2)&&((jackIn == 3)||(jackIn == 5)||(jackIn == 6)))  
                    || ((whoami == 3)&&((jackIn == 4)||(jackIn == 5)||(jackIn == 7))) 
                    || ((whoami == 4)&&((jackIn >= 5)&&(jackIn <= 7)))   ) {
                        progress |= NEXT;
                    } else progress = NO_OTHER;
     256:	10 92 34 38 	sts	0x3834, r1	; 0x803834 <progress.3788>
     25a:	56 c0       	rjmp	.+172    	; 0x308 <MakeFriends+0x20e>
        }

        //Wait for the other badge (and a bit longer for effect)
        else if (progress == SECOND_LOVE){
            
            effect = 7;
     25c:	87 e0       	ldi	r24, 0x07	; 7
     25e:	90 e0       	ldi	r25, 0x00	; 0
     260:	80 93 3c 38 	sts	0x383C, r24	; 0x80383c <effect>
     264:	90 93 3d 38 	sts	0x383D, r25	; 0x80383d <effect+0x1>
            if (chkTmr >= SHORT_WAIT) {
     268:	80 91 35 38 	lds	r24, 0x3835	; 0x803835 <chkTmr.3790>
     26c:	88 30       	cpi	r24, 0x08	; 8
     26e:	40 f0       	brcs	.+16     	; 0x280 <MakeFriends+0x186>
                setDAC[0] = floatAround(0x80, 8, 100, 255); 
     270:	2f ef       	ldi	r18, 0xFF	; 255
     272:	44 e6       	ldi	r20, 0x64	; 100
     274:	68 e0       	ldi	r22, 0x08	; 8
     276:	80 e8       	ldi	r24, 0x80	; 128
     278:	0e 94 44 09 	call	0x1288	; 0x1288 <floatAround>
     27c:	80 93 00 38 	sts	0x3800, r24	; 0x803800 <__data_start>
            }

            //The badge with the lowest voltage will now go to 2.5V (impedance check, for people tricking the things with a power supply)
            if (chkTmr >= LONG_WAIT){
     280:	80 91 35 38 	lds	r24, 0x3835	; 0x803835 <chkTmr.3790>
     284:	8a 3f       	cpi	r24, 0xFA	; 250
     286:	08 f4       	brcc	.+2      	; 0x28a <MakeFriends+0x190>
     288:	3f c0       	rjmp	.+126    	; 0x308 <MakeFriends+0x20e>
                candidate = jackIn-whoami;
     28a:	80 91 3f 38 	lds	r24, 0x383F	; 0x80383f <whoami>
     28e:	90 91 33 38 	lds	r25, 0x3833	; 0x803833 <jackIn.3791>
     292:	98 1b       	sub	r25, r24
     294:	90 93 32 38 	sts	0x3832, r25	; 0x803832 <__data_end>
                if (candidate > whoami) {
     298:	89 17       	cp	r24, r25
     29a:	10 f4       	brcc	.+4      	; 0x2a0 <MakeFriends+0x1a6>
                    setDAC[0] = 249;
     29c:	89 ef       	ldi	r24, 0xF9	; 249
     29e:	04 c0       	rjmp	.+8      	; 0x2a8 <MakeFriends+0x1ae>
                } else {
                    setDAC[0] = whoami * 51;
     2a0:	93 e3       	ldi	r25, 0x33	; 51
     2a2:	89 9f       	mul	r24, r25
     2a4:	80 2d       	mov	r24, r0
     2a6:	11 24       	eor	r1, r1
     2a8:	80 93 00 38 	sts	0x3800, r24	; 0x803800 <__data_start>
                }
                progress |= NEXT;
     2ac:	80 91 34 38 	lds	r24, 0x3834	; 0x803834 <progress.3788>
     2b0:	80 6f       	ori	r24, 0xF0	; 240
     2b2:	80 93 34 38 	sts	0x3834, r24	; 0x803834 <progress.3788>
     2b6:	28 c0       	rjmp	.+80     	; 0x308 <MakeFriends+0x20e>
            }
        } 
        
        //Wait a bit, check Voltage again, if ok show who you connected with and your own number, save, exit
        else if (progress == THIRD_KISS) {
            if (chkTmr >= SHORT_WAIT) {
     2b8:	80 91 35 38 	lds	r24, 0x3835	; 0x803835 <chkTmr.3790>
     2bc:	88 30       	cpi	r24, 0x08	; 8
                jackIn = chkVolt250();
     2be:	20 f1       	brcs	.+72     	; 0x308 <MakeFriends+0x20e>
     2c0:	04 df       	rcall	.-504    	; 0xca <chkVolt250>
     2c2:	80 93 33 38 	sts	0x3833, r24	; 0x803833 <jackIn.3791>
                if (jackIn == (((candidate > whoami)?candidate:whoami) + 5)) {
     2c6:	90 91 32 38 	lds	r25, 0x3832	; 0x803832 <__data_end>
     2ca:	48 2f       	mov	r20, r24
     2cc:	50 e0       	ldi	r21, 0x00	; 0
     2ce:	20 91 3f 38 	lds	r18, 0x383F	; 0x80383f <whoami>
     2d2:	29 17       	cp	r18, r25
     2d4:	08 f4       	brcc	.+2      	; 0x2d8 <MakeFriends+0x1de>
     2d6:	29 2f       	mov	r18, r25
     2d8:	30 e0       	ldi	r19, 0x00	; 0
     2da:	2b 5f       	subi	r18, 0xFB	; 251
     2dc:	3f 4f       	sbci	r19, 0xFF	; 255
     2de:	42 17       	cp	r20, r18
     2e0:	53 07       	cpc	r21, r19
     2e2:	09 f0       	breq	.+2      	; 0x2e6 <MakeFriends+0x1ec>
     2e4:	b8 cf       	rjmp	.-144    	; 0x256 <MakeFriends+0x15c>
                    UpdateState(99+candidate);
     2e6:	83 e6       	ldi	r24, 0x63	; 99
     2e8:	89 0f       	add	r24, r25
     2ea:	0e 94 fd 09 	call	0x13fa	; 0x13fa <UpdateState>
                 
                    effect = 31;
     2ee:	8f e1       	ldi	r24, 0x1F	; 31
     2f0:	90 e0       	ldi	r25, 0x00	; 0
     2f2:	80 93 3c 38 	sts	0x383C, r24	; 0x80383c <effect>
     2f6:	90 93 3d 38 	sts	0x383D, r25	; 0x80383d <effect+0x1>
                    WingBar(candidate, whoami);
     2fa:	60 91 3f 38 	lds	r22, 0x383F	; 0x80383f <whoami>
     2fe:	80 91 32 38 	lds	r24, 0x3832	; 0x803832 <__data_end>
     302:	0e 94 ed 0a 	call	0x15da	; 0x15da <WingBar>
     306:	d2 cf       	rjmp	.-92     	; 0x2ac <MakeFriends+0x1b2>
    } else {
        progress = NO_OTHER;
    }
      
    return 0;
}
     308:	80 e0       	ldi	r24, 0x00	; 0
     30a:	df 91       	pop	r29
     30c:	cf 91       	pop	r28
     30e:	08 95       	ret

00000310 <I2C_init>:
// the Atmel device documentation mentions a special command for repeated start TWI_MCMD_REPSTART_gc,
// but this is not used in Atmel's demo code, so we don't use it either

void I2C_rep_start(uint8_t shifted_addr)						    // send repeated start, device_addr + LSB set if READ
{
	TWI0.MADDR = shifted_addr;	
     310:	81 e0       	ldi	r24, 0x01	; 1
     312:	80 93 22 04 	sts	0x0422, r24	; 0x800422 <__TEXT_REGION_LENGTH__+0x700422>
     316:	e6 e2       	ldi	r30, 0x26	; 38
     318:	f4 e0       	ldi	r31, 0x04	; 4
     31a:	80 83       	st	Z, r24
     31c:	10 92 30 04 	sts	0x0430, r1	; 0x800430 <__TEXT_REGION_LENGTH__+0x700430>
     320:	a1 e2       	ldi	r26, 0x21	; 33
     322:	b4 e0       	ldi	r27, 0x04	; 4
     324:	92 e0       	ldi	r25, 0x02	; 2
     326:	9c 93       	st	X, r25
     328:	90 83       	st	Z, r25
     32a:	10 92 31 04 	sts	0x0431, r1	; 0x800431 <__TEXT_REGION_LENGTH__+0x700431>
     32e:	e0 e1       	ldi	r30, 0x10	; 16
     330:	f8 e0       	ldi	r31, 0x08	; 8
     332:	97 e0       	ldi	r25, 0x07	; 7
     334:	96 83       	std	Z+6, r25	; 0x06
     336:	98 e0       	ldi	r25, 0x08	; 8
     338:	94 83       	std	Z+4, r25	; 0x04
     33a:	83 83       	std	Z+3, r24	; 0x03
     33c:	8c 93       	st	X, r24
     33e:	85 81       	ldd	r24, Z+5	; 0x05
     340:	81 60       	ori	r24, 0x01	; 1
     342:	85 83       	std	Z+5, r24	; 0x05
     344:	85 81       	ldd	r24, Z+5	; 0x05
     346:	84 6c       	ori	r24, 0xC4	; 196
     348:	85 83       	std	Z+5, r24	; 0x05
     34a:	08 95       	ret

0000034c <I2C_recover>:
     34c:	80 91 14 08 	lds	r24, 0x0814	; 0x800814 <__TEXT_REGION_LENGTH__+0x700814>
     350:	88 60       	ori	r24, 0x08	; 8
     352:	80 93 14 08 	sts	0x0814, r24	; 0x800814 <__TEXT_REGION_LENGTH__+0x700814>
     356:	10 92 13 08 	sts	0x0813, r1	; 0x800813 <__TEXT_REGION_LENGTH__+0x700813>
     35a:	82 e0       	ldi	r24, 0x02	; 2
     35c:	80 93 22 04 	sts	0x0422, r24	; 0x800422 <__TEXT_REGION_LENGTH__+0x700422>
     360:	99 e0       	ldi	r25, 0x09	; 9
     362:	21 e0       	ldi	r18, 0x01	; 1
     364:	81 e0       	ldi	r24, 0x01	; 1
     366:	20 93 21 04 	sts	0x0421, r18	; 0x800421 <__TEXT_REGION_LENGTH__+0x700421>
     36a:	30 e1       	ldi	r19, 0x10	; 16
     36c:	3a 95       	dec	r19
     36e:	f1 f7       	brne	.-4      	; 0x36c <I2C_recover+0x20>
     370:	00 c0       	rjmp	.+0      	; 0x372 <I2C_recover+0x26>
     372:	20 93 22 04 	sts	0x0422, r18	; 0x800422 <__TEXT_REGION_LENGTH__+0x700422>
     376:	30 e1       	ldi	r19, 0x10	; 16
     378:	3a 95       	dec	r19
     37a:	f1 f7       	brne	.-4      	; 0x378 <I2C_recover+0x2c>
     37c:	00 c0       	rjmp	.+0      	; 0x37e <I2C_recover+0x32>
     37e:	91 50       	subi	r25, 0x01	; 1
     380:	89 f7       	brne	.-30     	; 0x364 <I2C_recover+0x18>
     382:	28 e0       	ldi	r18, 0x08	; 8
     384:	20 93 14 08 	sts	0x0814, r18	; 0x800814 <__TEXT_REGION_LENGTH__+0x700814>
     388:	80 93 13 08 	sts	0x0813, r24	; 0x800813 <__TEXT_REGION_LENGTH__+0x700813>
     38c:	92 e0       	ldi	r25, 0x02	; 2
     38e:	90 93 21 04 	sts	0x0421, r25	; 0x800421 <__TEXT_REGION_LENGTH__+0x700421>
     392:	90 91 15 08 	lds	r25, 0x0815	; 0x800815 <__TEXT_REGION_LENGTH__+0x700815>
     396:	91 60       	ori	r25, 0x01	; 1
     398:	90 93 15 08 	sts	0x0815, r25	; 0x800815 <__TEXT_REGION_LENGTH__+0x700815>
     39c:	90 91 15 08 	lds	r25, 0x0815	; 0x800815 <__TEXT_REGION_LENGTH__+0x700815>
     3a0:	94 6c       	ori	r25, 0xC4	; 196
     3a2:	90 93 15 08 	sts	0x0815, r25	; 0x800815 <__TEXT_REGION_LENGTH__+0x700815>
     3a6:	20 93 14 08 	sts	0x0814, r18	; 0x800814 <__TEXT_REGION_LENGTH__+0x700814>
     3aa:	80 93 13 08 	sts	0x0813, r24	; 0x800813 <__TEXT_REGION_LENGTH__+0x700813>
     3ae:	80 93 21 04 	sts	0x0421, r24	; 0x800421 <__TEXT_REGION_LENGTH__+0x700421>
     3b2:	80 91 15 08 	lds	r24, 0x0815	; 0x800815 <__TEXT_REGION_LENGTH__+0x700815>
     3b6:	81 60       	ori	r24, 0x01	; 1
     3b8:	80 93 15 08 	sts	0x0815, r24	; 0x800815 <__TEXT_REGION_LENGTH__+0x700815>
     3bc:	80 91 15 08 	lds	r24, 0x0815	; 0x800815 <__TEXT_REGION_LENGTH__+0x700815>
     3c0:	84 6c       	ori	r24, 0xC4	; 196
     3c2:	80 93 15 08 	sts	0x0815, r24	; 0x800815 <__TEXT_REGION_LENGTH__+0x700815>
     3c6:	08 95       	ret

000003c8 <I2C_start>:
     3c8:	28 2f       	mov	r18, r24
     3ca:	90 91 15 08 	lds	r25, 0x0815	; 0x800815 <__TEXT_REGION_LENGTH__+0x700815>
     3ce:	90 6c       	ori	r25, 0xC0	; 192
     3d0:	90 93 15 08 	sts	0x0815, r25	; 0x800815 <__TEXT_REGION_LENGTH__+0x700815>
     3d4:	90 91 15 08 	lds	r25, 0x0815	; 0x800815 <__TEXT_REGION_LENGTH__+0x700815>
     3d8:	89 2f       	mov	r24, r25
     3da:	84 70       	andi	r24, 0x04	; 4
     3dc:	92 fd       	sbrc	r25, 2
     3de:	03 c0       	rjmp	.+6      	; 0x3e6 <I2C_start+0x1e>
     3e0:	20 93 17 08 	sts	0x0817, r18	; 0x800817 <__TEXT_REGION_LENGTH__+0x700817>
     3e4:	08 95       	ret
     3e6:	84 e0       	ldi	r24, 0x04	; 4
     3e8:	08 95       	ret

000003ea <I2C_wait_ACK>:
     3ea:	8c e0       	ldi	r24, 0x0C	; 12
     3ec:	80 93 62 3a 	sts	0x3A62, r24	; 0x803a62 <timeout_I2C>
     3f0:	80 91 15 08 	lds	r24, 0x0815	; 0x800815 <__TEXT_REGION_LENGTH__+0x700815>
     3f4:	87 fd       	sbrc	r24, 7
     3f6:	0a c0       	rjmp	.+20     	; 0x40c <__LOCK_REGION_LENGTH__+0xc>
     3f8:	80 91 15 08 	lds	r24, 0x0815	; 0x800815 <__TEXT_REGION_LENGTH__+0x700815>
     3fc:	86 fd       	sbrc	r24, 6
     3fe:	06 c0       	rjmp	.+12     	; 0x40c <__LOCK_REGION_LENGTH__+0xc>
     400:	80 91 62 3a 	lds	r24, 0x3A62	; 0x803a62 <timeout_I2C>
     404:	81 11       	cpse	r24, r1
     406:	f4 cf       	rjmp	.-24     	; 0x3f0 <I2C_wait_ACK+0x6>
     408:	8f ef       	ldi	r24, 0xFF	; 255
     40a:	08 95       	ret
     40c:	80 91 15 08 	lds	r24, 0x0815	; 0x800815 <__TEXT_REGION_LENGTH__+0x700815>
     410:	80 6c       	ori	r24, 0xC0	; 192
     412:	80 93 15 08 	sts	0x0815, r24	; 0x800815 <__TEXT_REGION_LENGTH__+0x700815>
     416:	80 91 15 08 	lds	r24, 0x0815	; 0x800815 <__TEXT_REGION_LENGTH__+0x700815>
     41a:	82 fd       	sbrc	r24, 2
     41c:	09 c0       	rjmp	.+18     	; 0x430 <__LOCK_REGION_LENGTH__+0x30>
     41e:	80 91 15 08 	lds	r24, 0x0815	; 0x800815 <__TEXT_REGION_LENGTH__+0x700815>
     422:	83 fd       	sbrc	r24, 3
     424:	07 c0       	rjmp	.+14     	; 0x434 <__LOCK_REGION_LENGTH__+0x34>
     426:	80 91 15 08 	lds	r24, 0x0815	; 0x800815 <__TEXT_REGION_LENGTH__+0x700815>
     42a:	82 95       	swap	r24
     42c:	81 70       	andi	r24, 0x01	; 1
     42e:	08 95       	ret
     430:	84 e0       	ldi	r24, 0x04	; 4
     432:	08 95       	ret
     434:	82 e0       	ldi	r24, 0x02	; 2
     436:	08 95       	ret

00000438 <I2C_read>:
}

uint8_t	I2C_read(uint8_t *data, uint8_t ack_flag)					// read data, ack_flag 0: send ACK, 1: send NACK, returns status
{
     438:	fc 01       	movw	r30, r24
	timeout_I2C = READ_TIMEOUT;										// reset timeout counter, will be decremented by LED matrix interrupt
     43a:	8c e0       	ldi	r24, 0x0C	; 12
     43c:	80 93 62 3a 	sts	0x3A62, r24	; 0x803a62 <timeout_I2C>
	if ((TWI0.MSTATUS & TWI_BUSSTATE_gm) == TWI_BUSSTATE_OWNER_gc)	// if master controls bus
     440:	90 91 15 08 	lds	r25, 0x0815	; 0x800815 <__TEXT_REGION_LENGTH__+0x700815>
     444:	89 2f       	mov	r24, r25
     446:	83 70       	andi	r24, 0x03	; 3
     448:	82 30       	cpi	r24, 0x02	; 2
     44a:	11 f0       	breq	.+4      	; 0x450 <I2C_read+0x18>
		else		TWI0.MCTRLB |= TWI_ACKACT_NACK_gc;				// setup NACK (last byte read)
		*data = TWI0.MDATA;
		if (ack_flag == 0) TWI0.MCTRLB |= TWI_MCMD_RECVTRANS_gc;	// send ACK, more bytes to follow					
		return 0;
	}
	else return 8;													// master does not control bus
     44c:	88 e0       	ldi	r24, 0x08	; 8
     44e:	08 95       	ret
uint8_t	I2C_read(uint8_t *data, uint8_t ack_flag)					// read data, ack_flag 0: send ACK, 1: send NACK, returns status
{
	timeout_I2C = READ_TIMEOUT;										// reset timeout counter, will be decremented by LED matrix interrupt
	if ((TWI0.MSTATUS & TWI_BUSSTATE_gm) == TWI_BUSSTATE_OWNER_gc)	// if master controls bus
	{		
		while (!(TWI0.MSTATUS & TWI_RIF_bm))						// wait for RIF set (data byte received)
     450:	90 91 15 08 	lds	r25, 0x0815	; 0x800815 <__TEXT_REGION_LENGTH__+0x700815>
     454:	97 fd       	sbrc	r25, 7
     456:	06 c0       	rjmp	.+12     	; 0x464 <I2C_read+0x2c>
		{
			if (!(timeout_I2C)) return 0xff;			            // return timeout error
     458:	90 91 62 3a 	lds	r25, 0x3A62	; 0x803a62 <timeout_I2C>
     45c:	91 11       	cpse	r25, r1
     45e:	f8 cf       	rjmp	.-16     	; 0x450 <I2C_read+0x18>
     460:	8f ef       	ldi	r24, 0xFF	; 255
     462:	08 95       	ret
		}
		TWI0.MSTATUS |= (TWI_RIF_bm | TWI_WIF_bm);					// clear Read and Write interrupt flags	
     464:	90 91 15 08 	lds	r25, 0x0815	; 0x800815 <__TEXT_REGION_LENGTH__+0x700815>
     468:	90 6c       	ori	r25, 0xC0	; 192
     46a:	90 93 15 08 	sts	0x0815, r25	; 0x800815 <__TEXT_REGION_LENGTH__+0x700815>
		if (TWI0.MSTATUS & TWI_BUSERR_bm) return 4;					// Bus Error, abort
     46e:	90 91 15 08 	lds	r25, 0x0815	; 0x800815 <__TEXT_REGION_LENGTH__+0x700815>
     472:	92 fd       	sbrc	r25, 2
     474:	1e c0       	rjmp	.+60     	; 0x4b2 <I2C_read+0x7a>
		if (TWI0.MSTATUS & TWI_ARBLOST_bm) return 2;				// Arbitration Lost, abort
     476:	90 91 15 08 	lds	r25, 0x0815	; 0x800815 <__TEXT_REGION_LENGTH__+0x700815>
     47a:	93 fd       	sbrc	r25, 3
     47c:	1d c0       	rjmp	.+58     	; 0x4b8 <I2C_read+0x80>
		if (TWI0.MSTATUS & TWI_RXACK_bm) return 1;					// Slave replied with NACK, abort				
     47e:	90 91 15 08 	lds	r25, 0x0815	; 0x800815 <__TEXT_REGION_LENGTH__+0x700815>
     482:	89 2f       	mov	r24, r25
     484:	80 71       	andi	r24, 0x10	; 16
     486:	94 fd       	sbrc	r25, 4
     488:	16 c0       	rjmp	.+44     	; 0x4b6 <I2C_read+0x7e>
		if (ack_flag == 0) TWI0.MCTRLB &= ~(1 << TWI_ACKACT_bp);	// setup ACK
     48a:	90 91 14 08 	lds	r25, 0x0814	; 0x800814 <__TEXT_REGION_LENGTH__+0x700814>
     48e:	61 11       	cpse	r22, r1
     490:	02 c0       	rjmp	.+4      	; 0x496 <I2C_read+0x5e>
     492:	9b 7f       	andi	r25, 0xFB	; 251
     494:	01 c0       	rjmp	.+2      	; 0x498 <I2C_read+0x60>
		else		TWI0.MCTRLB |= TWI_ACKACT_NACK_gc;				// setup NACK (last byte read)
     496:	94 60       	ori	r25, 0x04	; 4
     498:	90 93 14 08 	sts	0x0814, r25	; 0x800814 <__TEXT_REGION_LENGTH__+0x700814>
		*data = TWI0.MDATA;
     49c:	90 91 18 08 	lds	r25, 0x0818	; 0x800818 <__TEXT_REGION_LENGTH__+0x700818>
     4a0:	90 83       	st	Z, r25
		if (ack_flag == 0) TWI0.MCTRLB |= TWI_MCMD_RECVTRANS_gc;	// send ACK, more bytes to follow					
     4a2:	61 11       	cpse	r22, r1
     4a4:	09 c0       	rjmp	.+18     	; 0x4b8 <I2C_read+0x80>
     4a6:	90 91 14 08 	lds	r25, 0x0814	; 0x800814 <__TEXT_REGION_LENGTH__+0x700814>
     4aa:	92 60       	ori	r25, 0x02	; 2
     4ac:	90 93 14 08 	sts	0x0814, r25	; 0x800814 <__TEXT_REGION_LENGTH__+0x700814>
     4b0:	08 95       	ret
		while (!(TWI0.MSTATUS & TWI_RIF_bm))						// wait for RIF set (data byte received)
		{
			if (!(timeout_I2C)) return 0xff;			            // return timeout error
		}
		TWI0.MSTATUS |= (TWI_RIF_bm | TWI_WIF_bm);					// clear Read and Write interrupt flags	
		if (TWI0.MSTATUS & TWI_BUSERR_bm) return 4;					// Bus Error, abort
     4b2:	84 e0       	ldi	r24, 0x04	; 4
     4b4:	08 95       	ret
		if (TWI0.MSTATUS & TWI_ARBLOST_bm) return 2;				// Arbitration Lost, abort
		if (TWI0.MSTATUS & TWI_RXACK_bm) return 1;					// Slave replied with NACK, abort				
     4b6:	81 e0       	ldi	r24, 0x01	; 1
		*data = TWI0.MDATA;
		if (ack_flag == 0) TWI0.MCTRLB |= TWI_MCMD_RECVTRANS_gc;	// send ACK, more bytes to follow					
		return 0;
	}
	else return 8;													// master does not control bus
}
     4b8:	08 95       	ret

000004ba <I2C_write>:

uint8_t I2C_write(uint8_t *data)									// write data, return status
{
     4ba:	fc 01       	movw	r30, r24
	timeout_I2C = WRITE_TIMEOUT;									// reset timeout counter, will be decremented by LED matrix interrupt
     4bc:	8c e0       	ldi	r24, 0x0C	; 12
     4be:	80 93 62 3a 	sts	0x3A62, r24	; 0x803a62 <timeout_I2C>
	if ((TWI0.MSTATUS & TWI_BUSSTATE_gm) == TWI_BUSSTATE_OWNER_gc)	// if master controls bus
     4c2:	90 91 15 08 	lds	r25, 0x0815	; 0x800815 <__TEXT_REGION_LENGTH__+0x700815>
     4c6:	93 70       	andi	r25, 0x03	; 3
     4c8:	92 30       	cpi	r25, 0x02	; 2
     4ca:	b1 f4       	brne	.+44     	; 0x4f8 <I2C_write+0x3e>
	{
		TWI0.MDATA = *data;		
     4cc:	80 81       	ld	r24, Z
     4ce:	80 93 18 08 	sts	0x0818, r24	; 0x800818 <__TEXT_REGION_LENGTH__+0x700818>
		while (!(TWI0.MSTATUS & TWI_WIF_bm))						// wait until WIF set, status register contains ACK/NACK bit
     4d2:	80 91 15 08 	lds	r24, 0x0815	; 0x800815 <__TEXT_REGION_LENGTH__+0x700815>
     4d6:	86 fd       	sbrc	r24, 6
     4d8:	06 c0       	rjmp	.+12     	; 0x4e6 <I2C_write+0x2c>
		{
			if (!(timeout_I2C)) return 0xff;			            // return timeout error
     4da:	80 91 62 3a 	lds	r24, 0x3A62	; 0x803a62 <timeout_I2C>
     4de:	81 11       	cpse	r24, r1
     4e0:	f8 cf       	rjmp	.-16     	; 0x4d2 <I2C_write+0x18>
     4e2:	8f ef       	ldi	r24, 0xFF	; 255
     4e4:	08 95       	ret
		}
		if (TWI0.MSTATUS & TWI_BUSERR_bm) return 4;					// Bus Error, abort
     4e6:	80 91 15 08 	lds	r24, 0x0815	; 0x800815 <__TEXT_REGION_LENGTH__+0x700815>
     4ea:	82 fd       	sbrc	r24, 2
     4ec:	07 c0       	rjmp	.+14     	; 0x4fc <I2C_write+0x42>
		if (TWI0.MSTATUS & TWI_RXACK_bm) return 1;					// Slave replied with NACK, abort
     4ee:	80 91 15 08 	lds	r24, 0x0815	; 0x800815 <__TEXT_REGION_LENGTH__+0x700815>
	if ((TWI0.MSTATUS & TWI_BUSSTATE_gm) == TWI_BUSSTATE_OWNER_gc)	// if master controls bus
	{
		TWI0.MDATA = *data;		
		while (!(TWI0.MSTATUS & TWI_WIF_bm))						// wait until WIF set, status register contains ACK/NACK bit
		{
			if (!(timeout_I2C)) return 0xff;			            // return timeout error
     4f2:	82 95       	swap	r24
     4f4:	81 70       	andi	r24, 0x01	; 1
     4f6:	08 95       	ret
		}
		if (TWI0.MSTATUS & TWI_BUSERR_bm) return 4;					// Bus Error, abort
		if (TWI0.MSTATUS & TWI_RXACK_bm) return 1;					// Slave replied with NACK, abort
		return 0;													// no error	
	}
	else return 8;													// master does not control bus
     4f8:	88 e0       	ldi	r24, 0x08	; 8
     4fa:	08 95       	ret
		TWI0.MDATA = *data;		
		while (!(TWI0.MSTATUS & TWI_WIF_bm))						// wait until WIF set, status register contains ACK/NACK bit
		{
			if (!(timeout_I2C)) return 0xff;			            // return timeout error
		}
		if (TWI0.MSTATUS & TWI_BUSERR_bm) return 4;					// Bus Error, abort
     4fc:	84 e0       	ldi	r24, 0x04	; 4
		if (TWI0.MSTATUS & TWI_RXACK_bm) return 1;					// Slave replied with NACK, abort
		return 0;													// no error	
	}
	else return 8;													// master does not control bus
}
     4fe:	08 95       	ret

00000500 <I2C_stop>:

void I2C_stop()
{
	TWI0.MCTRLB |= TWI_MCMD_STOP_gc;
     500:	e0 e1       	ldi	r30, 0x10	; 16
     502:	f8 e0       	ldi	r31, 0x08	; 8
     504:	84 81       	ldd	r24, Z+4	; 0x04
     506:	83 60       	ori	r24, 0x03	; 3
     508:	84 83       	std	Z+4, r24	; 0x04
     50a:	08 95       	ret

0000050c <I2C_read_bytes>:
// addr_ptr		address of first array element to transfer
// slave reg	starting slave register
// num_bytes	number of bytes to transfer

uint8_t	I2C_read_bytes(uint8_t slave_addr, uint8_t *reg_ptr, uint8_t reg_len, uint8_t *dat_ptr, uint8_t dat_len)
{
     50c:	cf 92       	push	r12
     50e:	df 92       	push	r13
     510:	ff 92       	push	r15
     512:	0f 93       	push	r16
     514:	1f 93       	push	r17
     516:	cf 93       	push	r28
     518:	df 93       	push	r29
     51a:	6b 01       	movw	r12, r22
     51c:	f4 2e       	mov	r15, r20
     51e:	e9 01       	movw	r28, r18
	uint8_t status;
	if (dat_len > MAX_LEN) dat_len = MAX_LEN;
	status = I2C_start(slave_addr << 1);							// slave write address, LSB 0
     520:	18 2f       	mov	r17, r24
     522:	11 0f       	add	r17, r17
     524:	81 2f       	mov	r24, r17
     526:	50 df       	rcall	.-352    	; 0x3c8 <I2C_start>
	if (status != 0) goto error;
     528:	81 11       	cpse	r24, r1
	status = I2C_wait_ACK();										// wait for slave ACK
     52a:	2b c0       	rjmp	.+86     	; 0x582 <I2C_read_bytes+0x76>
     52c:	5e df       	rcall	.-324    	; 0x3ea <I2C_wait_ACK>
	if (status == 1) {
     52e:	81 30       	cpi	r24, 0x01	; 1
		I2C_stop();													// NACK, abort
     530:	19 f4       	brne	.+6      	; 0x538 <I2C_read_bytes+0x2c>
     532:	e6 df       	rcall	.-52     	; 0x500 <I2C_stop>
		return 1;
     534:	81 e0       	ldi	r24, 0x01	; 1
     536:	27 c0       	rjmp	.+78     	; 0x586 <I2C_read_bytes+0x7a>
	}
	if (status != 0) goto error;
     538:	81 11       	cpse	r24, r1
     53a:	23 c0       	rjmp	.+70     	; 0x582 <I2C_read_bytes+0x76>
    while(reg_len > 0){
     53c:	ff 20       	and	r15, r15
	    status = I2C_write(reg_ptr);    							// send slave start register
     53e:	49 f0       	breq	.+18     	; 0x552 <I2C_read_bytes+0x46>
     540:	c6 01       	movw	r24, r12
     542:	bb df       	rcall	.-138    	; 0x4ba <I2C_write>
	    if (status != 0) goto error;
     544:	81 11       	cpse	r24, r1
     546:	1d c0       	rjmp	.+58     	; 0x582 <I2C_read_bytes+0x76>
        ++reg_ptr;
     548:	8f ef       	ldi	r24, 0xFF	; 255
     54a:	c8 1a       	sub	r12, r24
     54c:	d8 0a       	sbc	r13, r24
        --reg_len;
     54e:	fa 94       	dec	r15
     550:	f5 cf       	rjmp	.-22     	; 0x53c <I2C_read_bytes+0x30>
     552:	01 34       	cpi	r16, 0x41	; 65
     554:	08 f0       	brcs	.+2      	; 0x558 <I2C_read_bytes+0x4c>
     556:	00 e4       	ldi	r16, 0x40	; 64
    }
	I2C_rep_start((slave_addr << 1) + 1);							// slave read address, LSB 1
     558:	1f 5f       	subi	r17, 0xFF	; 255
// the Atmel device documentation mentions a special command for repeated start TWI_MCMD_REPSTART_gc,
// but this is not used in Atmel's demo code, so we don't use it either

void I2C_rep_start(uint8_t shifted_addr)						    // send repeated start, device_addr + LSB set if READ
{
	TWI0.MADDR = shifted_addr;	
     55a:	10 93 17 08 	sts	0x0817, r17	; 0x800817 <__TEXT_REGION_LENGTH__+0x700817>
	    if (status != 0) goto error;
        ++reg_ptr;
        --reg_len;
    }
	I2C_rep_start((slave_addr << 1) + 1);							// slave read address, LSB 1
	while (dat_len > 1) {
     55e:	02 30       	cpi	r16, 0x02	; 2
		status = I2C_read(dat_ptr, 0);								// first bytes, send ACK
     560:	40 f0       	brcs	.+16     	; 0x572 <I2C_read_bytes+0x66>
     562:	60 e0       	ldi	r22, 0x00	; 0
     564:	ce 01       	movw	r24, r28
     566:	68 df       	rcall	.-304    	; 0x438 <I2C_read>
		if (status != 0) goto error;
     568:	81 11       	cpse	r24, r1
     56a:	0b c0       	rjmp	.+22     	; 0x582 <I2C_read_bytes+0x76>
		++dat_ptr;
		--dat_len;
     56c:	21 96       	adiw	r28, 0x01	; 1
     56e:	01 50       	subi	r16, 0x01	; 1
	}
	status = I2C_read(dat_ptr, 1);									// single or last byte, send NACK
     570:	f6 cf       	rjmp	.-20     	; 0x55e <I2C_read_bytes+0x52>
     572:	61 e0       	ldi	r22, 0x01	; 1
     574:	ce 01       	movw	r24, r28
	if (status != 0) goto error;
     576:	60 df       	rcall	.-320    	; 0x438 <I2C_read>
     578:	81 11       	cpse	r24, r1
	I2C_stop();
     57a:	03 c0       	rjmp	.+6      	; 0x582 <I2C_read_bytes+0x76>
     57c:	c1 df       	rcall	.-126    	; 0x500 <I2C_stop>
	return 0;
     57e:	80 e0       	ldi	r24, 0x00	; 0
     580:	02 c0       	rjmp	.+4      	; 0x586 <I2C_read_bytes+0x7a>
	
error:
	I2C_recover();													// clock out possibly stuck slave, reset master
     582:	e4 de       	rcall	.-568    	; 0x34c <I2C_recover>
     584:	8f ef       	ldi	r24, 0xFF	; 255
	return 0xff;													// flag error
     586:	df 91       	pop	r29
}
     588:	cf 91       	pop	r28
     58a:	1f 91       	pop	r17
     58c:	0f 91       	pop	r16
     58e:	ff 90       	pop	r15
     590:	df 90       	pop	r13
     592:	cf 90       	pop	r12
     594:	08 95       	ret

00000596 <initLanyard>:
uint8_t         lanyardCnt = 0;
uint8_t         lanyardState = TRUE;
uint16_t        lanyardLastActive = 0;

void initLanyard() {
    lanyardPos      = 0;
     596:	10 92 39 38 	sts	0x3839, r1	; 0x803839 <lanyardPos>
    lanyardCnt      = 0;
     59a:	10 92 38 38 	sts	0x3838, r1	; 0x803838 <lanyardCnt>
    lanyardState    = TRUE;
     59e:	81 e0       	ldi	r24, 0x01	; 1
     5a0:	80 93 02 38 	sts	0x3802, r24	; 0x803802 <lanyardState>
    ClearHackerLeds();
     5a4:	0c 94 2b 0b 	jmp	0x1656	; 0x1656 <ClearHackerLeds>

000005a8 <LanyardCode>:
}

// Main game loop
uint8_t LanyardCode(){
     5a8:	cf 93       	push	r28
    if (gameNow == LANYARD && idleTimeout(lanyardLastActive,LANYARD_MAX_IDLE)) {
     5aa:	80 91 3e 38 	lds	r24, 0x383E	; 0x80383e <gameNow>
     5ae:	83 30       	cpi	r24, 0x03	; 3
     5b0:	91 f4       	brne	.+36     	; 0x5d6 <LanyardCode+0x2e>
     5b2:	6a e0       	ldi	r22, 0x0A	; 10
     5b4:	70 e0       	ldi	r23, 0x00	; 0
     5b6:	80 91 36 38 	lds	r24, 0x3836	; 0x803836 <lanyardLastActive>
     5ba:	90 91 37 38 	lds	r25, 0x3837	; 0x803837 <lanyardLastActive+0x1>
     5be:	0e 94 3b 0e 	call	0x1c76	; 0x1c76 <idleTimeout>
     5c2:	88 23       	and	r24, r24
     5c4:	41 f0       	breq	.+16     	; 0x5d6 <LanyardCode+0x2e>
        /* clean up maze game and go back to text game */
        initLanyard();
     5c6:	e7 df       	rcall	.-50     	; 0x596 <initLanyard>
        gameNow = TEXT;
     5c8:	10 92 3e 38 	sts	0x383E, r1	; 0x80383e <gameNow>
        effect = 0;
     5cc:	10 92 3c 38 	sts	0x383C, r1	; 0x80383c <effect>
     5d0:	10 92 3d 38 	sts	0x383D, r1	; 0x80383d <effect+0x1>
        return 0;
     5d4:	9b c0       	rjmp	.+310    	; 0x70c <LanyardCode+0x164>
    }

    if (CheckState(LANYARD_COMPLETED))
     5d6:	8b e7       	ldi	r24, 0x7B	; 123
     5d8:	31 d7       	rcall	.+3682   	; 0x143c <CheckState>
     5da:	81 11       	cpse	r24, r1
     5dc:	97 c0       	rjmp	.+302    	; 0x70c <LanyardCode+0x164>
        return 0;

    if ( gameNow != TEXT && gameNow != LANYARD )
     5de:	80 91 3e 38 	lds	r24, 0x383E	; 0x80383e <gameNow>
     5e2:	88 23       	and	r24, r24
     5e4:	19 f0       	breq	.+6      	; 0x5ec <LanyardCode+0x44>
     5e6:	83 30       	cpi	r24, 0x03	; 3
     5e8:	09 f0       	breq	.+2      	; 0x5ec <LanyardCode+0x44>
     5ea:	90 c0       	rjmp	.+288    	; 0x70c <LanyardCode+0x164>
        return 0;

    /* activate led for buttonstate */
    iLED[CAT] = (buttonState==0xff ? 0 : dimValue);
     5ec:	c0 91 36 bf 	lds	r28, 0xBF36	; 0x80bf36 <__bss_end+0x8422>
     5f0:	ec 2f       	mov	r30, r28
     5f2:	f0 e0       	ldi	r31, 0x00	; 0
     5f4:	80 91 08 38 	lds	r24, 0x3808	; 0x803808 <buttonState>
     5f8:	8f 3f       	cpi	r24, 0xFF	; 255
     5fa:	19 f0       	breq	.+6      	; 0x602 <LanyardCode+0x5a>
     5fc:	90 91 0c 38 	lds	r25, 0x380C	; 0x80380c <dimValue>
     600:	01 c0       	rjmp	.+2      	; 0x604 <LanyardCode+0x5c>
     602:	90 e0       	ldi	r25, 0x00	; 0
     604:	eb 53       	subi	r30, 0x3B	; 59
     606:	f5 4c       	sbci	r31, 0xC5	; 197
     608:	90 83       	st	Z, r25

    if (buttonState == 0xff)
     60a:	8f 3f       	cpi	r24, 0xFF	; 255
     60c:	09 f4       	brne	.+2      	; 0x610 <LanyardCode+0x68>
     60e:	7e c0       	rjmp	.+252    	; 0x70c <LanyardCode+0x164>
        return 0;

    if (buttonState == lastButtonState)
     610:	90 91 07 38 	lds	r25, 0x3807	; 0x803807 <lastButtonState>
     614:	89 17       	cp	r24, r25
     616:	09 f4       	brne	.+2      	; 0x61a <LanyardCode+0x72>
     618:	79 c0       	rjmp	.+242    	; 0x70c <LanyardCode+0x164>
        return 0;

    lanyardLastActive = getClock();
     61a:	0e 94 2c 0e 	call	0x1c58	; 0x1c58 <getClock>
     61e:	80 93 36 38 	sts	0x3836, r24	; 0x803836 <lanyardLastActive>
     622:	90 93 37 38 	sts	0x3837, r25	; 0x803837 <lanyardLastActive+0x1>

    if (lastButtonState == 0xff){
     626:	80 91 07 38 	lds	r24, 0x3807	; 0x803807 <lastButtonState>
     62a:	8f 3f       	cpi	r24, 0xFF	; 255
     62c:	09 f0       	breq	.+2      	; 0x630 <LanyardCode+0x88>
     62e:	6e c0       	rjmp	.+220    	; 0x70c <LanyardCode+0x164>
        effect = 0x13f + (buttonState << 5);
     630:	80 91 08 38 	lds	r24, 0x3808	; 0x803808 <buttonState>
     634:	20 e2       	ldi	r18, 0x20	; 32
     636:	82 9f       	mul	r24, r18
     638:	c0 01       	movw	r24, r0
     63a:	11 24       	eor	r1, r1
     63c:	81 5c       	subi	r24, 0xC1	; 193
     63e:	9e 4f       	sbci	r25, 0xFE	; 254
     640:	80 93 3c 38 	sts	0x383C, r24	; 0x80383c <effect>
     644:	90 93 3d 38 	sts	0x383D, r25	; 0x80383d <effect+0x1>

        if (gameNow != LANYARD)
     648:	80 91 3e 38 	lds	r24, 0x383E	; 0x80383e <gameNow>
     64c:	83 30       	cpi	r24, 0x03	; 3
            initLanyard();
     64e:	09 f0       	breq	.+2      	; 0x652 <LanyardCode+0xaa>
     650:	a2 df       	rcall	.-188    	; 0x596 <initLanyard>
        gameNow = LANYARD;
     652:	83 e0       	ldi	r24, 0x03	; 3
     654:	80 93 3e 38 	sts	0x383E, r24	; 0x80383e <gameNow>

        if (buttonState == lanyardCode[lanyardPos]) {
     658:	80 91 39 38 	lds	r24, 0x3839	; 0x803839 <lanyardPos>
     65c:	e8 2f       	mov	r30, r24
     65e:	f0 e0       	ldi	r31, 0x00	; 0
     660:	e2 5e       	subi	r30, 0xE2	; 226
     662:	f0 44       	sbci	r31, 0x40	; 64
     664:	20 81       	ld	r18, Z
     666:	90 91 08 38 	lds	r25, 0x3808	; 0x803808 <buttonState>
     66a:	29 13       	cpse	r18, r25
     66c:	12 c0       	rjmp	.+36     	; 0x692 <LanyardCode+0xea>
            lanyardState &= TRUE;
     66e:	90 91 02 38 	lds	r25, 0x3802	; 0x803802 <lanyardState>
     672:	91 70       	andi	r25, 0x01	; 1
     674:	90 93 02 38 	sts	0x3802, r25	; 0x803802 <lanyardState>
            iLED[EYE[R][L]] = 0;
     678:	e0 91 45 bf 	lds	r30, 0xBF45	; 0x80bf45 <__bss_end+0x8431>
     67c:	f0 e0       	ldi	r31, 0x00	; 0
     67e:	eb 53       	subi	r30, 0x3B	; 59
     680:	f5 4c       	sbci	r31, 0xC5	; 197
     682:	10 82       	st	Z, r1
            iLED[EYE[R][R]] = 0;
     684:	e0 91 44 bf 	lds	r30, 0xBF44	; 0x80bf44 <__bss_end+0x8430>
     688:	f0 e0       	ldi	r31, 0x00	; 0
     68a:	eb 53       	subi	r30, 0x3B	; 59
     68c:	f5 4c       	sbci	r31, 0xC5	; 197
     68e:	10 82       	st	Z, r1
     690:	09 c0       	rjmp	.+18     	; 0x6a4 <LanyardCode+0xfc>
        } else {
            lanyardState = FALSE;
     692:	10 92 02 38 	sts	0x3802, r1	; 0x803802 <lanyardState>
            if (lanyardPos < 4 ) {
     696:	84 30       	cpi	r24, 0x04	; 4
                initLanyard();
     698:	28 f4       	brcc	.+10     	; 0x6a4 <LanyardCode+0xfc>
     69a:	7d df       	rcall	.-262    	; 0x596 <initLanyard>
                gameNow         = BASTET;
     69c:	82 e0       	ldi	r24, 0x02	; 2
     69e:	80 93 3e 38 	sts	0x383E, r24	; 0x80383e <gameNow>
                return 0;
     6a2:	34 c0       	rjmp	.+104    	; 0x70c <LanyardCode+0x164>
            }
        }
        lanyardPos++;
     6a4:	8f 5f       	subi	r24, 0xFF	; 255
     6a6:	80 93 39 38 	sts	0x3839, r24	; 0x803839 <lanyardPos>
        lanyardCnt++;            
     6aa:	90 91 38 38 	lds	r25, 0x3838	; 0x803838 <lanyardCnt>
     6ae:	9f 5f       	subi	r25, 0xFF	; 255
        if (lanyardCnt >= 4) {
     6b0:	94 30       	cpi	r25, 0x04	; 4
     6b2:	18 f4       	brcc	.+6      	; 0x6ba <LanyardCode+0x112>
                gameNow         = BASTET;
                return 0;
            }
        }
        lanyardPos++;
        lanyardCnt++;            
     6b4:	90 93 38 38 	sts	0x3838, r25	; 0x803838 <lanyardCnt>
     6b8:	29 c0       	rjmp	.+82     	; 0x70c <LanyardCode+0x164>
        if (lanyardCnt >= 4) {
            lanyardCnt = 0;
     6ba:	10 92 38 38 	sts	0x3838, r1	; 0x803838 <lanyardCnt>
            if (lanyardState == TRUE) {
     6be:	90 91 02 38 	lds	r25, 0x3802	; 0x803802 <lanyardState>
     6c2:	91 30       	cpi	r25, 0x01	; 1
     6c4:	e1 f4       	brne	.+56     	; 0x6fe <LanyardCode+0x156>
                if ((lanyardPos % 4) == 0) {
     6c6:	98 2f       	mov	r25, r24
     6c8:	93 70       	andi	r25, 0x03	; 3
     6ca:	69 f4       	brne	.+26     	; 0x6e6 <LanyardCode+0x13e>
                    iLED[HCKR[G][(lanyardPos>>2)-1]] = dimValue;
     6cc:	e8 2f       	mov	r30, r24
     6ce:	e6 95       	lsr	r30
     6d0:	e6 95       	lsr	r30
     6d2:	f0 e0       	ldi	r31, 0x00	; 0
     6d4:	e8 5b       	subi	r30, 0xB8	; 184
     6d6:	f0 44       	sbci	r31, 0x40	; 64
     6d8:	e5 81       	ldd	r30, Z+5	; 0x05
     6da:	f0 e0       	ldi	r31, 0x00	; 0
     6dc:	90 91 0c 38 	lds	r25, 0x380C	; 0x80380c <dimValue>
     6e0:	eb 53       	subi	r30, 0x3B	; 59
     6e2:	f5 4c       	sbci	r31, 0xC5	; 197
                }
                if (lanyardPos == sizeof(lanyardCode)) {
     6e4:	90 83       	st	Z, r25
     6e6:	88 31       	cpi	r24, 0x18	; 24
                    UpdateState(LANYARD_COMPLETED);
     6e8:	89 f4       	brne	.+34     	; 0x70c <LanyardCode+0x164>
     6ea:	8b e7       	ldi	r24, 0x7B	; 123
     6ec:	86 d6       	rcall	.+3340   	; 0x13fa <UpdateState>
                    iLED[CAT]       = 0;
     6ee:	ec 2f       	mov	r30, r28
     6f0:	f0 e0       	ldi	r31, 0x00	; 0
     6f2:	eb 53       	subi	r30, 0x3B	; 59
     6f4:	f5 4c       	sbci	r31, 0xC5	; 197
                    effect = 0x42;
     6f6:	10 82       	st	Z, r1
     6f8:	82 e4       	ldi	r24, 0x42	; 66
     6fa:	90 e0       	ldi	r25, 0x00	; 0
                    /*TODO state = STATE_MUSIC;*/
                }
            } else {
                initLanyard();
     6fc:	03 c0       	rjmp	.+6      	; 0x704 <LanyardCode+0x15c>
     6fe:	4b df       	rcall	.-362    	; 0x596 <initLanyard>
                effect = 0x21;
     700:	81 e2       	ldi	r24, 0x21	; 33
     702:	90 e0       	ldi	r25, 0x00	; 0
     704:	80 93 3c 38 	sts	0x383C, r24	; 0x80383c <effect>
     708:	90 93 3d 38 	sts	0x383D, r25	; 0x80383d <effect+0x1>
            }
        }
    }

    return 0;
}
     70c:	80 e0       	ldi	r24, 0x00	; 0
     70e:	cf 91       	pop	r28
     710:	08 95       	ret

00000712 <initMaze>:
uint8_t         mazeState = TRUE;
uint8_t         inverted  = FALSE;
uint16_t        mazeLastActive = 0;

void initMaze() {
    mazeHckrPos = 0;
     712:	10 92 4b 38 	sts	0x384B, r1	; 0x80384b <mazeHckrPos>
    mazePos = 0;
     716:	10 92 4c 38 	sts	0x384C, r1	; 0x80384c <mazePos>
    mazeCnt = 0;
     71a:	10 92 4a 38 	sts	0x384A, r1	; 0x80384a <mazeCnt>
    mazeState = TRUE;
     71e:	81 e0       	ldi	r24, 0x01	; 1
     720:	80 93 0d 38 	sts	0x380D, r24	; 0x80380d <mazeState>
    inverted  = FALSE;
     724:	10 92 49 38 	sts	0x3849, r1	; 0x803849 <inverted>
    ClearHackerLeds();
     728:	96 c7       	rjmp	.+3884   	; 0x1656 <ClearHackerLeds>

0000072a <showFieldStrength>:
}

void showFieldStrength(int16_t val) {
    int16_t tmp;

    tmp = abs(val);
     72a:	97 ff       	sbrs	r25, 7
     72c:	03 c0       	rjmp	.+6      	; 0x734 <showFieldStrength+0xa>
     72e:	91 95       	neg	r25
     730:	81 95       	neg	r24
     732:	91 09       	sbc	r25, r1

    if ( tmp*2 > HALL_LOW )
     734:	9c 01       	movw	r18, r24
     736:	22 0f       	add	r18, r18
     738:	33 1f       	adc	r19, r19
     73a:	29 37       	cpi	r18, 0x79	; 121
     73c:	31 05       	cpc	r19, r1
     73e:	1c f0       	brlt	.+6      	; 0x746 <showFieldStrength+0x1c>
        gameNow = MAZE;
     740:	41 e0       	ldi	r20, 0x01	; 1
     742:	40 93 3e 38 	sts	0x383E, r20	; 0x80383e <gameNow>

    if (gameNow == MAZE) {
     746:	40 91 3e 38 	lds	r20, 0x383E	; 0x80383e <gameNow>
     74a:	41 30       	cpi	r20, 0x01	; 1
     74c:	21 f5       	brne	.+72     	; 0x796 <showFieldStrength+0x6c>
        if ( tmp*2 < HALL_LOW )
     74e:	28 37       	cpi	r18, 0x78	; 120
     750:	31 05       	cpc	r19, r1
     752:	1c f4       	brge	.+6      	; 0x75a <showFieldStrength+0x30>
            WingBar(0,0);
     754:	60 e0       	ldi	r22, 0x00	; 0
     756:	80 e0       	ldi	r24, 0x00	; 0
     758:	1d c0       	rjmp	.+58     	; 0x794 <showFieldStrength+0x6a>
        else if ( tmp   < HALL_LOW )
     75a:	88 37       	cpi	r24, 0x78	; 120
     75c:	91 05       	cpc	r25, r1
     75e:	1c f4       	brge	.+6      	; 0x766 <showFieldStrength+0x3c>
            WingBar(1,1);
     760:	61 e0       	ldi	r22, 0x01	; 1
     762:	81 e0       	ldi	r24, 0x01	; 1
     764:	17 c0       	rjmp	.+46     	; 0x794 <showFieldStrength+0x6a>
        else if ( tmp*2 < HALL_HIGH )
     766:	2c 32       	cpi	r18, 0x2C	; 44
     768:	41 e0       	ldi	r20, 0x01	; 1
     76a:	34 07       	cpc	r19, r20
     76c:	1c f4       	brge	.+6      	; 0x774 <showFieldStrength+0x4a>
            WingBar(2,2);
     76e:	62 e0       	ldi	r22, 0x02	; 2
     770:	82 e0       	ldi	r24, 0x02	; 2
     772:	10 c0       	rjmp	.+32     	; 0x794 <showFieldStrength+0x6a>
        else if ( tmp*3 < HALL_HIGH*2 )
     774:	28 0f       	add	r18, r24
     776:	39 1f       	adc	r19, r25
     778:	28 35       	cpi	r18, 0x58	; 88
     77a:	32 40       	sbci	r19, 0x02	; 2
     77c:	1c f4       	brge	.+6      	; 0x784 <showFieldStrength+0x5a>
            WingBar(3,3);
     77e:	63 e0       	ldi	r22, 0x03	; 3
     780:	83 e0       	ldi	r24, 0x03	; 3
     782:	08 c0       	rjmp	.+16     	; 0x794 <showFieldStrength+0x6a>
        else if ( tmp   < HALL_HIGH )
     784:	8c 32       	cpi	r24, 0x2C	; 44
     786:	91 40       	sbci	r25, 0x01	; 1
     788:	1c f4       	brge	.+6      	; 0x790 <showFieldStrength+0x66>
            WingBar(4,4);
     78a:	64 e0       	ldi	r22, 0x04	; 4
     78c:	84 e0       	ldi	r24, 0x04	; 4
     78e:	02 c0       	rjmp	.+4      	; 0x794 <showFieldStrength+0x6a>
        else
            WingBar(5,5);
     790:	65 e0       	ldi	r22, 0x05	; 5
     792:	85 e0       	ldi	r24, 0x05	; 5
     794:	22 c7       	rjmp	.+3652   	; 0x15da <WingBar>
     796:	08 95       	ret

00000798 <MagnetMaze>:
    }
}

// Main game loop
uint8_t MagnetMaze(){
     798:	cf 93       	push	r28
     79a:	df 93       	push	r29
    if (gameNow == MAZE && idleTimeout(mazeLastActive,MAZE_MAX_IDLE)) {
     79c:	80 91 3e 38 	lds	r24, 0x383E	; 0x80383e <gameNow>
     7a0:	81 30       	cpi	r24, 0x01	; 1
     7a2:	71 f4       	brne	.+28     	; 0x7c0 <MagnetMaze+0x28>
     7a4:	6a e0       	ldi	r22, 0x0A	; 10
     7a6:	70 e0       	ldi	r23, 0x00	; 0
     7a8:	80 91 47 38 	lds	r24, 0x3847	; 0x803847 <mazeLastActive>
     7ac:	90 91 48 38 	lds	r25, 0x3848	; 0x803848 <mazeLastActive+0x1>
     7b0:	0e 94 3b 0e 	call	0x1c76	; 0x1c76 <idleTimeout>
     7b4:	88 23       	and	r24, r24
     7b6:	21 f0       	breq	.+8      	; 0x7c0 <MagnetMaze+0x28>
        /* clean up maze game and go back to text game */
        initMaze();
     7b8:	ac df       	rcall	.-168    	; 0x712 <initMaze>
        gameNow = TEXT;
     7ba:	10 92 3e 38 	sts	0x383E, r1	; 0x80383e <gameNow>
        return 0;
     7be:	e5 c0       	rjmp	.+458    	; 0x98a <MagnetMaze+0x1f2>
    }
        
    if (CheckState(MAZE_INACTIVE))
     7c0:	87 ef       	ldi	r24, 0xF7	; 247
     7c2:	3c d6       	rcall	.+3192   	; 0x143c <CheckState>
     7c4:	81 11       	cpse	r24, r1
     7c6:	e1 c0       	rjmp	.+450    	; 0x98a <MagnetMaze+0x1f2>
        return 0;

    if (CheckState(MAZE_COMPLETED))
     7c8:	8d e7       	ldi	r24, 0x7D	; 125
     7ca:	38 d6       	rcall	.+3184   	; 0x143c <CheckState>
     7cc:	81 11       	cpse	r24, r1
     7ce:	dd c0       	rjmp	.+442    	; 0x98a <MagnetMaze+0x1f2>
     7d0:	80 91 3e 38 	lds	r24, 0x383E	; 0x80383e <gameNow>
        return 0;

    if ( (gameNow != TEXT) && (gameNow != MAZE) )
     7d4:	82 30       	cpi	r24, 0x02	; 2
     7d6:	08 f0       	brcs	.+2      	; 0x7da <MagnetMaze+0x42>
     7d8:	d8 c0       	rjmp	.+432    	; 0x98a <MagnetMaze+0x1f2>
     7da:	80 91 ed 3a 	lds	r24, 0x3AED	; 0x803aed <calHall>
        return 0;

    if (calHall == 0)
     7de:	90 91 ee 3a 	lds	r25, 0x3AEE	; 0x803aee <calHall+0x1>
     7e2:	89 2b       	or	r24, r25
     7e4:	41 f4       	brne	.+16     	; 0x7f6 <MagnetMaze+0x5e>
     7e6:	80 91 bd 3a 	lds	r24, 0x3ABD	; 0x803abd <adcHall>
        calHall = adcHall;
     7ea:	90 91 be 3a 	lds	r25, 0x3ABE	; 0x803abe <adcHall+0x1>
     7ee:	80 93 ed 3a 	sts	0x3AED, r24	; 0x803aed <calHall>
     7f2:	90 93 ee 3a 	sts	0x3AEE, r25	; 0x803aee <calHall+0x1>
     7f6:	c0 91 bd 3a 	lds	r28, 0x3ABD	; 0x803abd <adcHall>

    int16_t valHall = adcHall - calHall;
     7fa:	d0 91 be 3a 	lds	r29, 0x3ABE	; 0x803abe <adcHall+0x1>
     7fe:	80 91 ed 3a 	lds	r24, 0x3AED	; 0x803aed <calHall>
     802:	90 91 ee 3a 	lds	r25, 0x3AEE	; 0x803aee <calHall+0x1>
     806:	c8 1b       	sub	r28, r24
     808:	d9 0b       	sbc	r29, r25
    showFieldStrength(valHall);
     80a:	ce 01       	movw	r24, r28
     80c:	8e df       	rcall	.-228    	; 0x72a <showFieldStrength>
     80e:	80 91 4e 38 	lds	r24, 0x384E	; 0x80384e <curHallState>

    switch (curHallState) {
     812:	81 30       	cpi	r24, 0x01	; 1
     814:	89 f0       	breq	.+34     	; 0x838 <MagnetMaze+0xa0>
     816:	18 f0       	brcs	.+6      	; 0x81e <MagnetMaze+0x86>
     818:	82 30       	cpi	r24, 0x02	; 2
     81a:	c1 f0       	breq	.+48     	; 0x84c <MagnetMaze+0xb4>
     81c:	1f c0       	rjmp	.+62     	; 0x85c <MagnetMaze+0xc4>
     81e:	c4 3d       	cpi	r28, 0xD4	; 212
        case 0:
            if ( valHall + HALL_HIGH < 0 ) {
     820:	9e ef       	ldi	r25, 0xFE	; 254
     822:	d9 07       	cpc	r29, r25
     824:	14 f4       	brge	.+4      	; 0x82a <MagnetMaze+0x92>
     826:	91 e0       	ldi	r25, 0x01	; 1
                newHallState = 1;
     828:	04 c0       	rjmp	.+8      	; 0x832 <MagnetMaze+0x9a>
     82a:	cd 32       	cpi	r28, 0x2D	; 45
            } else if ( valHall - HALL_HIGH > 0 ) {
     82c:	d1 40       	sbci	r29, 0x01	; 1
     82e:	5c f0       	brlt	.+22     	; 0x846 <MagnetMaze+0xae>
     830:	92 e0       	ldi	r25, 0x02	; 2
                newHallState = 2;
     832:	90 93 4d 38 	sts	0x384D, r25	; 0x80384d <newHallState>
     836:	12 c0       	rjmp	.+36     	; 0x85c <MagnetMaze+0xc4>
     838:	cd 32       	cpi	r28, 0x2D	; 45
                newHallState = 0;
            }
            break;
        
        case 1:
            if ( valHall - HALL_HIGH > 0 ) {
     83a:	91 e0       	ldi	r25, 0x01	; 1
     83c:	d9 07       	cpc	r29, r25
     83e:	c4 f7       	brge	.-16     	; 0x830 <MagnetMaze+0x98>
     840:	c9 38       	cpi	r28, 0x89	; 137
                newHallState = 2;
            } else if ( valHall + HALL_LOW > 0 ) {
     842:	df 4f       	sbci	r29, 0xFF	; 255
     844:	84 f3       	brlt	.-32     	; 0x826 <MagnetMaze+0x8e>
     846:	10 92 4d 38 	sts	0x384D, r1	; 0x80384d <newHallState>
            if ( valHall + HALL_HIGH < 0 ) {
                newHallState = 1;
            } else if ( valHall - HALL_HIGH > 0 ) {
                newHallState = 2;
            } else {
                newHallState = 0;
     84a:	08 c0       	rjmp	.+16     	; 0x85c <MagnetMaze+0xc4>
     84c:	c4 3d       	cpi	r28, 0xD4	; 212
                newHallState = 1;
            }
            break;
        
        case 2:
            if ( valHall + HALL_HIGH < 0 ) {
     84e:	9e ef       	ldi	r25, 0xFE	; 254
     850:	d9 07       	cpc	r29, r25
     852:	4c f3       	brlt	.-46     	; 0x826 <MagnetMaze+0x8e>
     854:	c8 37       	cpi	r28, 0x78	; 120
                newHallState = 1;
            } else if ( valHall - HALL_LOW < 0 ) {
     856:	d1 05       	cpc	r29, r1
     858:	b4 f3       	brlt	.-20     	; 0x846 <MagnetMaze+0xae>
     85a:	ea cf       	rjmp	.-44     	; 0x830 <MagnetMaze+0x98>
     85c:	c0 91 36 bf 	lds	r28, 0xBF36	; 0x80bf36 <__bss_end+0x8422>
            }
            break;
    }

    /* Indicate that the magnet was read succesfully */
    iLED[CAT] = (newHallState ? dimValue : 0);
     860:	ec 2f       	mov	r30, r28
     862:	f0 e0       	ldi	r31, 0x00	; 0
     864:	90 91 4d 38 	lds	r25, 0x384D	; 0x80384d <newHallState>
     868:	99 23       	and	r25, r25
     86a:	19 f0       	breq	.+6      	; 0x872 <MagnetMaze+0xda>
     86c:	20 91 0c 38 	lds	r18, 0x380C	; 0x80380c <dimValue>
     870:	01 c0       	rjmp	.+2      	; 0x874 <MagnetMaze+0xdc>
     872:	20 e0       	ldi	r18, 0x00	; 0
     874:	eb 53       	subi	r30, 0x3B	; 59
     876:	f5 4c       	sbci	r31, 0xC5	; 197
     878:	20 83       	st	Z, r18
     87a:	2f e9       	ldi	r18, 0x9F	; 159
    effect = 0x19f;
     87c:	31 e0       	ldi	r19, 0x01	; 1
     87e:	20 93 3c 38 	sts	0x383C, r18	; 0x80383c <effect>
     882:	30 93 3d 38 	sts	0x383D, r19	; 0x80383d <effect+0x1>
     886:	89 17       	cp	r24, r25

    if (newHallState != curHallState) {
     888:	09 f4       	brne	.+2      	; 0x88c <MagnetMaze+0xf4>
     88a:	7f c0       	rjmp	.+254    	; 0x98a <MagnetMaze+0x1f2>
     88c:	0e 94 2c 0e 	call	0x1c58	; 0x1c58 <getClock>
        /* keep track of time to enable an idle timeout to exit the game */
        mazeLastActive = getClock();
     890:	80 93 47 38 	sts	0x3847, r24	; 0x803847 <mazeLastActive>
     894:	90 93 48 38 	sts	0x3848, r25	; 0x803848 <mazeLastActive+0x1>
     898:	90 91 4c 38 	lds	r25, 0x384C	; 0x80384c <mazePos>

        /* Make the maze work regardless of badge orientation */
        if ((mazePos == 0) && (newHallState != 0))
     89c:	80 91 4d 38 	lds	r24, 0x384D	; 0x80384d <newHallState>
     8a0:	91 11       	cpse	r25, r1
     8a2:	08 c0       	rjmp	.+16     	; 0x8b4 <MagnetMaze+0x11c>
     8a4:	88 23       	and	r24, r24
     8a6:	31 f0       	breq	.+12     	; 0x8b4 <MagnetMaze+0x11c>
     8a8:	91 e0       	ldi	r25, 0x01	; 1
            inverted = (newHallState != mazeCode[0]) ? TRUE : FALSE;
     8aa:	81 30       	cpi	r24, 0x01	; 1
     8ac:	09 f4       	brne	.+2      	; 0x8b0 <MagnetMaze+0x118>
     8ae:	90 e0       	ldi	r25, 0x00	; 0
     8b0:	90 93 49 38 	sts	0x3849, r25	; 0x803849 <inverted>
     8b4:	80 93 4e 38 	sts	0x384E, r24	; 0x80384e <curHallState>

        curHallState = newHallState;
     8b8:	88 23       	and	r24, r24
        
        if (curHallState != 0) {
     8ba:	09 f4       	brne	.+2      	; 0x8be <MagnetMaze+0x126>
     8bc:	66 c0       	rjmp	.+204    	; 0x98a <MagnetMaze+0x1f2>
     8be:	80 91 3e 38 	lds	r24, 0x383E	; 0x80383e <gameNow>
            if (gameNow == TEXT)
     8c2:	81 11       	cpse	r24, r1
     8c4:	01 c0       	rjmp	.+2      	; 0x8c8 <MagnetMaze+0x130>
                initMaze();
     8c6:	25 df       	rcall	.-438    	; 0x712 <initMaze>
     8c8:	81 e0       	ldi	r24, 0x01	; 1
            gameNow = MAZE;
     8ca:	80 93 3e 38 	sts	0x383E, r24	; 0x80383e <gameNow>
     8ce:	80 91 49 38 	lds	r24, 0x3849	; 0x803849 <inverted>

            if ( (inverted ? curHallState^3 : curHallState) == mazeCode[mazePos]) {
     8d2:	20 91 4e 38 	lds	r18, 0x384E	; 0x80384e <curHallState>
     8d6:	88 23       	and	r24, r24
     8d8:	11 f0       	breq	.+4      	; 0x8de <MagnetMaze+0x146>
     8da:	83 e0       	ldi	r24, 0x03	; 3
     8dc:	28 27       	eor	r18, r24
     8de:	30 e0       	ldi	r19, 0x00	; 0
     8e0:	80 91 4c 38 	lds	r24, 0x384C	; 0x80384c <mazePos>
     8e4:	e8 2f       	mov	r30, r24
     8e6:	f0 e0       	ldi	r31, 0x00	; 0
     8e8:	ec 57       	subi	r30, 0x7C	; 124
     8ea:	f0 44       	sbci	r31, 0x40	; 64
     8ec:	40 81       	ld	r20, Z
     8ee:	50 e0       	ldi	r21, 0x00	; 0
     8f0:	24 17       	cp	r18, r20
     8f2:	35 07       	cpc	r19, r21
     8f4:	91 f4       	brne	.+36     	; 0x91a <MagnetMaze+0x182>
     8f6:	90 91 0d 38 	lds	r25, 0x380D	; 0x80380d <mazeState>
                mazeState &= TRUE;
     8fa:	91 70       	andi	r25, 0x01	; 1
     8fc:	90 93 0d 38 	sts	0x380D, r25	; 0x80380d <mazeState>
     900:	e0 91 45 bf 	lds	r30, 0xBF45	; 0x80bf45 <__bss_end+0x8431>
                iLED[EYE[R][L]] = 0;
     904:	f0 e0       	ldi	r31, 0x00	; 0
     906:	eb 53       	subi	r30, 0x3B	; 59
     908:	f5 4c       	sbci	r31, 0xC5	; 197
     90a:	10 82       	st	Z, r1
     90c:	e0 91 44 bf 	lds	r30, 0xBF44	; 0x80bf44 <__bss_end+0x8430>
                iLED[EYE[R][R]] = 0;
     910:	f0 e0       	ldi	r31, 0x00	; 0
     912:	eb 53       	subi	r30, 0x3B	; 59
     914:	f5 4c       	sbci	r31, 0xC5	; 197
     916:	10 82       	st	Z, r1
     918:	02 c0       	rjmp	.+4      	; 0x91e <MagnetMaze+0x186>
     91a:	10 92 0d 38 	sts	0x380D, r1	; 0x80380d <mazeState>
            } else {
                mazeState = FALSE;
     91e:	8f 5f       	subi	r24, 0xFF	; 255
            }
            mazePos++;
     920:	80 93 4c 38 	sts	0x384C, r24	; 0x80384c <mazePos>
     924:	90 91 4a 38 	lds	r25, 0x384A	; 0x80384a <mazeCnt>
            mazeCnt++;            
     928:	9f 5f       	subi	r25, 0xFF	; 255
     92a:	93 30       	cpi	r25, 0x03	; 3
            if (mazeCnt >= 3) {
     92c:	18 f4       	brcc	.+6      	; 0x934 <MagnetMaze+0x19c>
     92e:	90 93 4a 38 	sts	0x384A, r25	; 0x80384a <mazeCnt>
                iLED[EYE[R][R]] = 0;
            } else {
                mazeState = FALSE;
            }
            mazePos++;
            mazeCnt++;            
     932:	2b c0       	rjmp	.+86     	; 0x98a <MagnetMaze+0x1f2>
     934:	10 92 4a 38 	sts	0x384A, r1	; 0x80384a <mazeCnt>
            if (mazeCnt >= 3) {
                mazeCnt = 0;
     938:	90 91 0d 38 	lds	r25, 0x380D	; 0x80380d <mazeState>
                if (mazeState == TRUE) {
     93c:	91 30       	cpi	r25, 0x01	; 1
     93e:	e1 f4       	brne	.+56     	; 0x978 <MagnetMaze+0x1e0>
     940:	90 91 4b 38 	lds	r25, 0x384B	; 0x80384b <mazeHckrPos>
                    iLED[HCKR[G][mazeHckrPos]] = dimValue;
     944:	e9 2f       	mov	r30, r25
     946:	f0 e0       	ldi	r31, 0x00	; 0
     948:	e8 5b       	subi	r30, 0xB8	; 184
     94a:	f0 44       	sbci	r31, 0x40	; 64
     94c:	e6 81       	ldd	r30, Z+6	; 0x06
     94e:	f0 e0       	ldi	r31, 0x00	; 0
     950:	20 91 0c 38 	lds	r18, 0x380C	; 0x80380c <dimValue>
     954:	eb 53       	subi	r30, 0x3B	; 59
     956:	f5 4c       	sbci	r31, 0xC5	; 197
     958:	20 83       	st	Z, r18
     95a:	9f 5f       	subi	r25, 0xFF	; 255
                    mazeHckrPos++;
     95c:	90 93 4b 38 	sts	0x384B, r25	; 0x80384b <mazeHckrPos>
                    if (mazePos == sizeof(mazeCode)) {
     960:	82 31       	cpi	r24, 0x12	; 18
     962:	99 f4       	brne	.+38     	; 0x98a <MagnetMaze+0x1f2>
                        UpdateState(MAZE_COMPLETED);
     964:	8d e7       	ldi	r24, 0x7D	; 125
     966:	49 d5       	rcall	.+2706   	; 0x13fa <UpdateState>
     968:	ec 2f       	mov	r30, r28
                        iLED[CAT]       = 0;
     96a:	f0 e0       	ldi	r31, 0x00	; 0
     96c:	eb 53       	subi	r30, 0x3B	; 59
     96e:	f5 4c       	sbci	r31, 0xC5	; 197
     970:	10 82       	st	Z, r1
                        effect = 0x42;
     972:	82 e4       	ldi	r24, 0x42	; 66
     974:	90 e0       	ldi	r25, 0x00	; 0
     976:	05 c0       	rjmp	.+10     	; 0x982 <MagnetMaze+0x1ea>
                        /*TODO state = STATE_MUSIC;*/
                    }
                } else {
                    initMaze();
     978:	cc de       	rcall	.-616    	; 0x712 <initMaze>
     97a:	10 92 3e 38 	sts	0x383E, r1	; 0x80383e <gameNow>
                    gameNow   = TEXT;
     97e:	81 e2       	ldi	r24, 0x21	; 33
                    effect = 0x21;
     980:	90 e0       	ldi	r25, 0x00	; 0
     982:	80 93 3c 38 	sts	0x383C, r24	; 0x80383c <effect>
     986:	90 93 3d 38 	sts	0x383D, r25	; 0x80383d <effect+0x1>
     98a:	80 e0       	ldi	r24, 0x00	; 0
                }
            }
        }
    }
    return 0;
}
     98c:	df 91       	pop	r29
     98e:	cf 91       	pop	r28
     990:	08 95       	ret

00000992 <Setup>:
     992:	cf 93       	push	r28
volatile uint16_t tmp16bit;    
volatile uint8_t mask[8] = {0x01, 0x03, 0x07, 0x0f, 0x1f, 0x3f, 0x7f, 0xff};
uint8_t HeartCount = 0;
uint8_t LedCount = 0;

void Setup(){
     994:	df 93       	push	r29
    cli();
     996:	f8 94       	cli

    //Set up clock at 10MHz
    CCP = CCP_IOREG_gc;
     998:	88 ed       	ldi	r24, 0xD8	; 216
     99a:	84 bf       	out	0x34, r24	; 52
    CLKCTRL_MCLKCTRLB = 0x01;
     99c:	c1 e0       	ldi	r28, 0x01	; 1
     99e:	c0 93 61 00 	sts	0x0061, r28	; 0x800061 <__TEXT_REGION_LENGTH__+0x700061>

    //Set I/O direction registers
    PORTA_DIR = 0b01001010;
     9a2:	8a e4       	ldi	r24, 0x4A	; 74
     9a4:	80 93 00 04 	sts	0x0400, r24	; 0x800400 <__TEXT_REGION_LENGTH__+0x700400>
    PORTB_DIR = 0b01111100;
     9a8:	8c e7       	ldi	r24, 0x7C	; 124
     9aa:	80 93 20 04 	sts	0x0420, r24	; 0x800420 <__TEXT_REGION_LENGTH__+0x700420>
    PORTC_DIR = 0b00111111;
     9ae:	9f e3       	ldi	r25, 0x3F	; 63
     9b0:	90 93 40 04 	sts	0x0440, r25	; 0x800440 <__TEXT_REGION_LENGTH__+0x700440>

    //Invert some pins for correcting LED reversal error
    PORTC_PIN3CTRL |= 0x80;
     9b4:	80 91 53 04 	lds	r24, 0x0453	; 0x800453 <__TEXT_REGION_LENGTH__+0x700453>
     9b8:	80 68       	ori	r24, 0x80	; 128
     9ba:	80 93 53 04 	sts	0x0453, r24	; 0x800453 <__TEXT_REGION_LENGTH__+0x700453>
    PORTC_PIN4CTRL |= 0x80;
     9be:	80 91 54 04 	lds	r24, 0x0454	; 0x800454 <__TEXT_REGION_LENGTH__+0x700454>
     9c2:	80 68       	ori	r24, 0x80	; 128
     9c4:	80 93 54 04 	sts	0x0454, r24	; 0x800454 <__TEXT_REGION_LENGTH__+0x700454>
    PORTC_PIN5CTRL |= 0x80;
     9c8:	80 91 55 04 	lds	r24, 0x0455	; 0x800455 <__TEXT_REGION_LENGTH__+0x700455>
     9cc:	80 68       	ori	r24, 0x80	; 128
     9ce:	80 93 55 04 	sts	0x0455, r24	; 0x800455 <__TEXT_REGION_LENGTH__+0x700455>
    PORTB_PIN3CTRL |= 0x80;
     9d2:	80 91 33 04 	lds	r24, 0x0433	; 0x800433 <__TEXT_REGION_LENGTH__+0x700433>
     9d6:	80 68       	ori	r24, 0x80	; 128
     9d8:	80 93 33 04 	sts	0x0433, r24	; 0x800433 <__TEXT_REGION_LENGTH__+0x700433>
    PORTB_PIN4CTRL |= 0x80;
     9dc:	80 91 34 04 	lds	r24, 0x0434	; 0x800434 <__TEXT_REGION_LENGTH__+0x700434>
     9e0:	80 68       	ori	r24, 0x80	; 128
     9e2:	80 93 34 04 	sts	0x0434, r24	; 0x800434 <__TEXT_REGION_LENGTH__+0x700434>
    PORTB_PIN5CTRL |= 0x80;
     9e6:	80 91 35 04 	lds	r24, 0x0435	; 0x800435 <__TEXT_REGION_LENGTH__+0x700435>
     9ea:	80 68       	ori	r24, 0x80	; 128
     9ec:	80 93 35 04 	sts	0x0435, r24	; 0x800435 <__TEXT_REGION_LENGTH__+0x700435>
    PORTB_PIN2CTRL |= 0x80;
    PORTB_PIN6CTRL |= 0x80;
    */

    //UART (Alternative pins PA1=TxD, PA2=RxD, baudrate 9600, 8n1, RX and Buffer empty interrupts on)
    PORTMUX_CTRLB = 0x01;
     9f0:	c0 93 01 02 	sts	0x0201, r28	; 0x800201 <__TEXT_REGION_LENGTH__+0x700201>
    PORTA_OUTSET = 0x02;
     9f4:	d2 e0       	ldi	r29, 0x02	; 2
     9f6:	d0 93 05 04 	sts	0x0405, r29	; 0x800405 <__TEXT_REGION_LENGTH__+0x700405>
    USART0_BAUD = (uint16_t)USART0_BAUD_RATE(115200);
     9fa:	2b e5       	ldi	r18, 0x5B	; 91
     9fc:	31 e0       	ldi	r19, 0x01	; 1
     9fe:	20 93 08 08 	sts	0x0808, r18	; 0x800808 <__TEXT_REGION_LENGTH__+0x700808>
     a02:	30 93 09 08 	sts	0x0809, r19	; 0x800809 <__TEXT_REGION_LENGTH__+0x700809>
    USART0_CTRLA = 0xA0; //Interrupts on
     a06:	80 ea       	ldi	r24, 0xA0	; 160
     a08:	80 93 05 08 	sts	0x0805, r24	; 0x800805 <__TEXT_REGION_LENGTH__+0x700805>
    USART0_CTRLB = 0xC0; //RX and TX on
     a0c:	80 ec       	ldi	r24, 0xC0	; 192
     a0e:	80 93 06 08 	sts	0x0806, r24	; 0x800806 <__TEXT_REGION_LENGTH__+0x700806>
    USART0_CTRLC = 0x03; //8 bits data, no parity, 1 stop bit
     a12:	83 e0       	ldi	r24, 0x03	; 3
     a14:	80 93 07 08 	sts	0x0807, r24	; 0x800807 <__TEXT_REGION_LENGTH__+0x700807>
     
    //GPIO registers 0..3 can be used for global variables used in ISR routines (ASM capability: IN, OUT, SBI, CBI, SBIS, SBIC)
    L_COL = 0;     //Used in LED array to hold currently driven column value
     a18:	1c ba       	out	0x1c, r1	; 28
    RXCNT = 0;     //Used as UART receive counter
     a1a:	1d ba       	out	0x1d, r1	; 29
    GPIOR3 = 0;    //
     a1c:	1f ba       	out	0x1f, r1	; 31

    //Init TCA (split mode, f_CLK/16, PWM on 6 alternative pins, underflow int enabled, synced and started)
    TCA0_SPLIT_CTRLD = 1;
     a1e:	c0 93 03 0a 	sts	0x0A03, r28	; 0x800a03 <__TEXT_REGION_LENGTH__+0x700a03>
    TCA0_SPLIT_CTRLA = (0x4)<<1;
     a22:	88 e0       	ldi	r24, 0x08	; 8
     a24:	80 93 00 0a 	sts	0x0A00, r24	; 0x800a00 <__TEXT_REGION_LENGTH__+0x700a00>
    PORTMUX_CTRLC = 0x3F;
     a28:	90 93 02 02 	sts	0x0202, r25	; 0x800202 <__TEXT_REGION_LENGTH__+0x700202>
    TCA0_SPLIT_CTRLB = 0x77;
     a2c:	87 e7       	ldi	r24, 0x77	; 119
     a2e:	80 93 01 0a 	sts	0x0A01, r24	; 0x800a01 <__TEXT_REGION_LENGTH__+0x700a01>
    TCA0_SPLIT_INTCTRL = 0x1;
     a32:	c0 93 0a 0a 	sts	0x0A0A, r28	; 0x800a0a <__TEXT_REGION_LENGTH__+0x700a0a>
    TCA0_SPLIT_CTRLESET = ((0x2)<<2)|0x3;
     a36:	8b e0       	ldi	r24, 0x0B	; 11
     a38:	80 93 05 0a 	sts	0x0A05, r24	; 0x800a05 <__TEXT_REGION_LENGTH__+0x700a05>
    TCA0_SPLIT_CTRLA |= 1;
     a3c:	80 91 00 0a 	lds	r24, 0x0A00	; 0x800a00 <__TEXT_REGION_LENGTH__+0x700a00>
     a40:	81 60       	ori	r24, 0x01	; 1
     a42:	80 93 00 0a 	sts	0x0A00, r24	; 0x800a00 <__TEXT_REGION_LENGTH__+0x700a00>
     
    //Init TCB0 (compare value sets serial Tx pause between characters, uses TCA0 prescaler, enabled, interrupt disabled)
    TCB0_CTRLA = ((0x02)<<1)|0x01;
     a46:	85 e0       	ldi	r24, 0x05	; 5
     a48:	80 93 40 0a 	sts	0x0A40, r24	; 0x800a40 <__TEXT_REGION_LENGTH__+0x700a40>
    TCB0_CTRLB = 0;
     a4c:	10 92 41 0a 	sts	0x0A41, r1	; 0x800a41 <__TEXT_REGION_LENGTH__+0x700a41>
    TCB0_CCMP = 0x01FF;
     a50:	8f ef       	ldi	r24, 0xFF	; 255
     a52:	91 e0       	ldi	r25, 0x01	; 1
     a54:	80 93 4c 0a 	sts	0x0A4C, r24	; 0x800a4c <__TEXT_REGION_LENGTH__+0x700a4c>
     a58:	90 93 4d 0a 	sts	0x0A4D, r25	; 0x800a4d <__TEXT_REGION_LENGTH__+0x700a4d>
    TCB0_INTCTRL = 0x00;     
     a5c:	10 92 45 0a 	sts	0x0A45, r1	; 0x800a45 <__TEXT_REGION_LENGTH__+0x700a45>
     
    //Init TCB1 (compare value sets audio sample rate (0x038B = 11025sps), enabled, interrupt enabled)
    TCB1_CTRLA = 0x01;
     a60:	c0 93 50 0a 	sts	0x0A50, r28	; 0x800a50 <__TEXT_REGION_LENGTH__+0x700a50>
    TCB1_CTRLB = 0;
     a64:	10 92 51 0a 	sts	0x0A51, r1	; 0x800a51 <__TEXT_REGION_LENGTH__+0x700a51>
    TCB1_CCMP = 0x038B;
     a68:	8b e8       	ldi	r24, 0x8B	; 139
     a6a:	93 e0       	ldi	r25, 0x03	; 3
     a6c:	80 93 5c 0a 	sts	0x0A5C, r24	; 0x800a5c <__TEXT_REGION_LENGTH__+0x700a5c>
     a70:	90 93 5d 0a 	sts	0x0A5D, r25	; 0x800a5d <__TEXT_REGION_LENGTH__+0x700a5d>
    TCB1_INTCTRL = 0x01;
     a74:	c0 93 55 0a 	sts	0x0A55, r28	; 0x800a55 <__TEXT_REGION_LENGTH__+0x700a55>

    //Init I2C (100kHz)
    I2C_init();
     a78:	4b dc       	rcall	.-1898   	; 0x310 <I2C_init>

    //VREF (DAC, ADC's)
    VREF_CTRLA   = 0x12;    //0x22 for audio in/out (2.5V), 0x12 for temperature in, audio out (1.1V/2.5V)
     a7a:	82 e1       	ldi	r24, 0x12	; 18
     a7c:	80 93 a0 00 	sts	0x00A0, r24	; 0x8000a0 <__TEXT_REGION_LENGTH__+0x7000a0>
    VREF_CTRLC   = 0x20;    //ADC1 reference at 2.5V
     a80:	80 e2       	ldi	r24, 0x20	; 32
     a82:	80 93 a2 00 	sts	0x00A2, r24	; 0x8000a2 <__TEXT_REGION_LENGTH__+0x7000a2>
    VREF_CTRLB   = 0x01;    //DAC0 ref forced enabled
     a86:	c0 93 a1 00 	sts	0x00A1, r28	; 0x8000a1 <__TEXT_REGION_LENGTH__+0x7000a1>

    //Init ADC0 (audio in, also controls DAC output rate, internal temperature?)
    ADC0_CTRLA   = 0x02;    //10 bit resolution, free running
     a8a:	d0 93 00 06 	sts	0x0600, r29	; 0x800600 <__TEXT_REGION_LENGTH__+0x700600>
    ADC0_CTRLC   = 0x44;    //Reduced sample capacitor, internal reference, clock/32 => 24038sps
     a8e:	84 e4       	ldi	r24, 0x44	; 68
     a90:	80 93 02 06 	sts	0x0602, r24	; 0x800602 <__TEXT_REGION_LENGTH__+0x700602>
    ADC0_MUXPOS  = 0x1E;    //Audio in: AIN7 at (0x07), Temperature: Internal sensor at (0x1E)
     a94:	8e e1       	ldi	r24, 0x1E	; 30
     a96:	80 93 06 06 	sts	0x0606, r24	; 0x800606 <__TEXT_REGION_LENGTH__+0x700606>
    ADC0_INTCTRL = 0x01;    //Result ready interrupt enabled
     a9a:	c0 93 0a 06 	sts	0x060A, r28	; 0x80060a <__TEXT_REGION_LENGTH__+0x70060a>
    ADC0_CTRLA  |= 0x01;    //ADC0 enabled
     a9e:	80 91 00 06 	lds	r24, 0x0600	; 0x800600 <__TEXT_REGION_LENGTH__+0x700600>
     aa2:	81 60       	ori	r24, 0x01	; 1
     aa4:	80 93 00 06 	sts	0x0600, r24	; 0x800600 <__TEXT_REGION_LENGTH__+0x700600>
    ADC0_COMMAND = 0x01;    //Start first conversion, after that it will run periodically.
     aa8:	c0 93 08 06 	sts	0x0608, r28	; 0x800608 <__TEXT_REGION_LENGTH__+0x700608>

    //Init ADC1 (buttons and sensors: CH0=Photo transistor, CH1=Hall, CH4=Buttons)
    ADC1_CTRLA   = 0;
     aac:	10 92 40 06 	sts	0x0640, r1	; 0x800640 <__TEXT_REGION_LENGTH__+0x700640>
    ADC1_CTRLB   = 0x02;    //4 results automatically accumulated
     ab0:	d0 93 41 06 	sts	0x0641, r29	; 0x800641 <__TEXT_REGION_LENGTH__+0x700641>
    ADC1_CTRLC   = 0x52;    //Reduced sample capacitor, VDD as reference, clock/8
     ab4:	82 e5       	ldi	r24, 0x52	; 82
     ab6:	80 93 42 06 	sts	0x0642, r24	; 0x800642 <__TEXT_REGION_LENGTH__+0x700642>
    ADC1_SAMPCTRL= 0x04;    //Extend sampling time with 4 cycles (6 total)
     aba:	84 e0       	ldi	r24, 0x04	; 4
     abc:	80 93 45 06 	sts	0x0645, r24	; 0x800645 <__TEXT_REGION_LENGTH__+0x700645>
    ADC1_MUXPOS  = 0x04;    //Start with Buttons, for sensors, activate sensor power first.
     ac0:	80 93 46 06 	sts	0x0646, r24	; 0x800646 <__TEXT_REGION_LENGTH__+0x700646>
    ADC1_INTCTRL = 0x01;    //Result ready interrupt enabled
     ac4:	c0 93 4a 06 	sts	0x064A, r28	; 0x80064a <__TEXT_REGION_LENGTH__+0x70064a>
    ADC1_CTRLA  |= 0x01;    //ADC0 enabled
     ac8:	80 91 40 06 	lds	r24, 0x0640	; 0x800640 <__TEXT_REGION_LENGTH__+0x700640>
     acc:	81 60       	ori	r24, 0x01	; 1
     ace:	80 93 40 06 	sts	0x0640, r24	; 0x800640 <__TEXT_REGION_LENGTH__+0x700640>
    ADC1_COMMAND = 0x01;    //Start single conversion
     ad2:	c0 93 48 06 	sts	0x0648, r28	; 0x800648 <__TEXT_REGION_LENGTH__+0x700648>

    //Init DAC0
    DAC0_CTRLA = 0x40;     //Enable output buffer (connect to pin)
     ad6:	80 e4       	ldi	r24, 0x40	; 64
     ad8:	80 93 a0 06 	sts	0x06A0, r24	; 0x8006a0 <__TEXT_REGION_LENGTH__+0x7006a0>
    DAC0_DATA = 0x80;      //Data value at half point (about 1.25V)
     adc:	80 e8       	ldi	r24, 0x80	; 128
     ade:	80 93 a1 06 	sts	0x06A1, r24	; 0x8006a1 <__TEXT_REGION_LENGTH__+0x7006a1>
    DAC0_CTRLA |= 0x01;    //Enable DAC
     ae2:	80 91 a0 06 	lds	r24, 0x06A0	; 0x8006a0 <__TEXT_REGION_LENGTH__+0x7006a0>
     ae6:	81 60       	ori	r24, 0x01	; 1
     ae8:	80 93 a0 06 	sts	0x06A0, r24	; 0x8006a0 <__TEXT_REGION_LENGTH__+0x7006a0>
     
    //PIT and RTC interrupts
    while(RTC_STATUS & RTC_CTRLABUSY_bm);
     aec:	80 91 41 01 	lds	r24, 0x0141	; 0x800141 <__TEXT_REGION_LENGTH__+0x700141>
     af0:	80 fd       	sbrc	r24, 0
     af2:	fc cf       	rjmp	.-8      	; 0xaec <Setup+0x15a>
    RTC_CTRLA          = (0x6)<<3;                         //Prescaler: /64
     af4:	80 e3       	ldi	r24, 0x30	; 48
     af6:	80 93 40 01 	sts	0x0140, r24	; 0x800140 <__TEXT_REGION_LENGTH__+0x700140>
    RTC_CLKSEL         = 0;                                //Clock source: internal 32768Hz clock
     afa:	10 92 47 01 	sts	0x0147, r1	; 0x800147 <__TEXT_REGION_LENGTH__+0x700147>
    while(RTC_STATUS & RTC_PERBUSY_bm);
     afe:	80 91 41 01 	lds	r24, 0x0141	; 0x800141 <__TEXT_REGION_LENGTH__+0x700141>
     b02:	82 fd       	sbrc	r24, 2
     b04:	fc cf       	rjmp	.-8      	; 0xafe <Setup+0x16c>
    RTC_PER            = 512*60;                           //60 second period (for clocking how long the device has been running?)
     b06:	80 e0       	ldi	r24, 0x00	; 0
     b08:	98 e7       	ldi	r25, 0x78	; 120
     b0a:	80 93 4a 01 	sts	0x014A, r24	; 0x80014a <__TEXT_REGION_LENGTH__+0x70014a>
     b0e:	90 93 4b 01 	sts	0x014B, r25	; 0x80014b <__TEXT_REGION_LENGTH__+0x70014b>
    tmp16bit = (RTC_CNT + BTN_TMR);
     b12:	80 91 48 01 	lds	r24, 0x0148	; 0x800148 <__TEXT_REGION_LENGTH__+0x700148>
     b16:	90 91 49 01 	lds	r25, 0x0149	; 0x800149 <__TEXT_REGION_LENGTH__+0x700149>
     b1a:	82 96       	adiw	r24, 0x22	; 34
     b1c:	80 93 f1 3a 	sts	0x3AF1, r24	; 0x803af1 <tmp16bit>
     b20:	90 93 f2 3a 	sts	0x3AF2, r25	; 0x803af2 <tmp16bit+0x1>
    if (tmp16bit > RTC_PER) tmp16bit -= RTC_PER;
     b24:	20 91 4a 01 	lds	r18, 0x014A	; 0x80014a <__TEXT_REGION_LENGTH__+0x70014a>
     b28:	30 91 4b 01 	lds	r19, 0x014B	; 0x80014b <__TEXT_REGION_LENGTH__+0x70014b>
     b2c:	80 91 f1 3a 	lds	r24, 0x3AF1	; 0x803af1 <tmp16bit>
     b30:	90 91 f2 3a 	lds	r25, 0x3AF2	; 0x803af2 <tmp16bit+0x1>
     b34:	28 17       	cp	r18, r24
     b36:	39 07       	cpc	r19, r25
     b38:	70 f4       	brcc	.+28     	; 0xb56 <Setup+0x1c4>
     b3a:	20 91 4a 01 	lds	r18, 0x014A	; 0x80014a <__TEXT_REGION_LENGTH__+0x70014a>
     b3e:	30 91 4b 01 	lds	r19, 0x014B	; 0x80014b <__TEXT_REGION_LENGTH__+0x70014b>
     b42:	80 91 f1 3a 	lds	r24, 0x3AF1	; 0x803af1 <tmp16bit>
     b46:	90 91 f2 3a 	lds	r25, 0x3AF2	; 0x803af2 <tmp16bit+0x1>
     b4a:	82 1b       	sub	r24, r18
     b4c:	93 0b       	sbc	r25, r19
     b4e:	80 93 f1 3a 	sts	0x3AF1, r24	; 0x803af1 <tmp16bit>
     b52:	90 93 f2 3a 	sts	0x3AF2, r25	; 0x803af2 <tmp16bit+0x1>
    while(RTC_STATUS & RTC_CMPBUSY_bm);
     b56:	80 91 41 01 	lds	r24, 0x0141	; 0x800141 <__TEXT_REGION_LENGTH__+0x700141>
     b5a:	83 fd       	sbrc	r24, 3
     b5c:	fc cf       	rjmp	.-8      	; 0xb56 <Setup+0x1c4>
    RTC_CMP            = tmp16bit;                         //Button timing
     b5e:	80 91 f1 3a 	lds	r24, 0x3AF1	; 0x803af1 <tmp16bit>
     b62:	90 91 f2 3a 	lds	r25, 0x3AF2	; 0x803af2 <tmp16bit+0x1>
     b66:	80 93 4c 01 	sts	0x014C, r24	; 0x80014c <__TEXT_REGION_LENGTH__+0x70014c>
     b6a:	90 93 4d 01 	sts	0x014D, r25	; 0x80014d <__TEXT_REGION_LENGTH__+0x70014d>
    RTC_INTCTRL        = 0x03;                             //RTC overflow interrupt enabled
     b6e:	83 e0       	ldi	r24, 0x03	; 3
     b70:	80 93 42 01 	sts	0x0142, r24	; 0x800142 <__TEXT_REGION_LENGTH__+0x700142>
    RTC_PITINTCTRL     = 0x01;                             //PIT interrupt enabled
     b74:	81 e0       	ldi	r24, 0x01	; 1
     b76:	80 93 52 01 	sts	0x0152, r24	; 0x800152 <__TEXT_REGION_LENGTH__+0x700152>
    RTC_PITCTRLA       = (0x1)<<3;                         //Interrupt fires after 4 RTC clock cycles Rate=(RTCCLK/(PRESC*PERIOD)) 32768/256=128Hz
     b7a:	88 e0       	ldi	r24, 0x08	; 8
     b7c:	80 93 50 01 	sts	0x0150, r24	; 0x800150 <__TEXT_REGION_LENGTH__+0x700150>
    while(RTC_STATUS & RTC_CTRLABUSY_bm);      
     b80:	80 91 41 01 	lds	r24, 0x0141	; 0x800141 <__TEXT_REGION_LENGTH__+0x700141>
     b84:	80 fd       	sbrc	r24, 0
     b86:	fc cf       	rjmp	.-8      	; 0xb80 <Setup+0x1ee>
    RTC_CTRLA          |= 0x01;                            //Enable RTC
     b88:	80 91 40 01 	lds	r24, 0x0140	; 0x800140 <__TEXT_REGION_LENGTH__+0x700140>
     b8c:	81 60       	ori	r24, 0x01	; 1
     b8e:	80 93 40 01 	sts	0x0140, r24	; 0x800140 <__TEXT_REGION_LENGTH__+0x700140>
    RTC_PITCTRLA       |= 0x01;                            //Enable PIT
     b92:	80 91 50 01 	lds	r24, 0x0150	; 0x800150 <__TEXT_REGION_LENGTH__+0x700150>
     b96:	81 60       	ori	r24, 0x01	; 1
     b98:	80 93 50 01 	sts	0x0150, r24	; 0x800150 <__TEXT_REGION_LENGTH__+0x700150>
     
    //Other inits
    serRx[0] = 0;           // Empty Rx buffer (first char is enough)
     b9c:	10 92 77 3a 	sts	0x3A77, r1	; 0x803a77 <serRx>
    serTxAddr = &serRx[0];  // Point to first address of the Rx buffer
     ba0:	87 e7       	ldi	r24, 0x77	; 119
     ba2:	9a e3       	ldi	r25, 0x3A	; 58
     ba4:	80 93 bb 3a 	sts	0x3ABB, r24	; 0x803abb <serTxAddr>
     ba8:	90 93 bc 3a 	sts	0x3ABC, r25	; 0x803abc <serTxAddr+0x1>

    sei();
     bac:	78 94       	sei
}
     bae:	df 91       	pop	r29
     bb0:	cf 91       	pop	r28
     bb2:	08 95       	ret

00000bb4 <__vector_8>:

// TCA0 is used for driving the LED matrix at 488Hz (* 5 columns = 2440Hz). The lower 8 bit underflow interrupt is used to load new values and shift between columns.
ISR(TCA0_LUNF_vect){
     bb4:	1f 92       	push	r1
     bb6:	0f 92       	push	r0
     bb8:	0f b6       	in	r0, 0x3f	; 63
     bba:	0f 92       	push	r0
     bbc:	11 24       	eor	r1, r1
     bbe:	8f 93       	push	r24
     bc0:	9f 93       	push	r25
     bc2:	af 93       	push	r26
     bc4:	bf 93       	push	r27
     bc6:	ef 93       	push	r30
     bc8:	ff 93       	push	r31
    //Turn off all columns
    PORTC_OUTCLR = 0x07;
     bca:	87 e0       	ldi	r24, 0x07	; 7
     bcc:	80 93 46 04 	sts	0x0446, r24	; 0x800446 <__TEXT_REGION_LENGTH__+0x700446>
    PORTB_OUTCLR = 0x44;
     bd0:	84 e4       	ldi	r24, 0x44	; 68
     bd2:	80 93 26 04 	sts	0x0426, r24	; 0x800426 <__TEXT_REGION_LENGTH__+0x700426>
    "ldi r25, 6        \n"
    "ld r24, %a[arr]+  \n"
    "st %a[wo]+, r24   \n"
    "dec r25           \n"
    "brne .-8          \n"
    :: [wo] "e" (&TCA0_SPLIT_LCMP0), [arr] "e" (&iLED[(L_COL<<3)]) : "r25", "r24", "cc", "memory");
     bd6:	ec b3       	in	r30, 0x1c	; 28
     bd8:	88 e0       	ldi	r24, 0x08	; 8
     bda:	e8 9f       	mul	r30, r24
     bdc:	f0 01       	movw	r30, r0
     bde:	11 24       	eor	r1, r1
     be0:	eb 53       	subi	r30, 0x3B	; 59
     be2:	f5 4c       	sbci	r31, 0xC5	; 197
    //Turn off all columns
    PORTC_OUTCLR = 0x07;
    PORTB_OUTCLR = 0x44;

    //Write all of the compare registers of TCA0 with PWM values in array (rows)
    asm(
     be4:	a8 e2       	ldi	r26, 0x28	; 40
     be6:	ba e0       	ldi	r27, 0x0A	; 10
     be8:	96 e0       	ldi	r25, 0x06	; 6
     bea:	81 91       	ld	r24, Z+
     bec:	8d 93       	st	X+, r24
     bee:	9a 95       	dec	r25
     bf0:	e1 f7       	brne	.-8      	; 0xbea <__vector_8+0x36>
    "st %a[wo]+, r24   \n"
    "dec r25           \n"
    "brne .-8          \n"
    :: [wo] "e" (&TCA0_SPLIT_LCMP0), [arr] "e" (&iLED[(L_COL<<3)]) : "r25", "r24", "cc", "memory");

    TCA0_SPLIT_CTRLESET = ((0x2)<<2)|0x3; //Sync timers: Moved this below the PWM value loading to fix the data shifting in asm above.
     bf2:	8b e0       	ldi	r24, 0x0B	; 11
     bf4:	80 93 05 0a 	sts	0x0A05, r24	; 0x800a05 <__TEXT_REGION_LENGTH__+0x700a05>

    //Turn on the right column
    if (L_COL<3) {
     bf8:	8c b3       	in	r24, 0x1c	; 28
     bfa:	83 30       	cpi	r24, 0x03	; 3
     bfc:	58 f4       	brcc	.+22     	; 0xc14 <__vector_8+0x60>
        asm(
     bfe:	8c b3       	in	r24, 0x1c	; 28
     c00:	91 e0       	ldi	r25, 0x01	; 1
     c02:	01 c0       	rjmp	.+2      	; 0xc06 <__vector_8+0x52>
     c04:	99 0f       	add	r25, r25
     c06:	8a 95       	dec	r24
     c08:	ea f7       	brpl	.-6      	; 0xc04 <__vector_8+0x50>
     c0a:	99 b9       	out	0x09, r25	; 9
     c0c:	8c b3       	in	r24, 0x1c	; 28
     c0e:	83 95       	inc	r24
     c10:	8c bb       	out	0x1c, r24	; 28
     c12:	0a c0       	rjmp	.+20     	; 0xc28 <__vector_8+0x74>
        "in r24, %[io0]  \n"
        "inc r24         \n"
        "out %[io0], r24 \n"
        :: [io0] "I" (&L_COL), [vpc] "I" (&VPORTC_OUT) : "r24", "r25", "cc");
        } else {
        asm(
     c14:	8c b3       	in	r24, 0x1c	; 28
     c16:	83 30       	cpi	r24, 0x03	; 3
     c18:	21 f4       	brne	.+8      	; 0xc22 <__vector_8+0x6e>
     c1a:	2a 9a       	sbi	0x05, 2	; 5
     c1c:	83 95       	inc	r24
     c1e:	8c bb       	out	0x1c, r24	; 28
     c20:	03 c0       	rjmp	.+6      	; 0xc28 <__vector_8+0x74>
     c22:	2e 9a       	sbi	0x05, 6	; 5
     c24:	88 27       	eor	r24, r24
     c26:	8c bb       	out	0x1c, r24	; 28
        "clr r24         \n"
        "out %[io0], r24 \n"
        :: [io0] "I" (&L_COL), [vpb] "I" (&VPORTB_OUT) : "r24", "cc");
    }
    
    if(timeout_I2C) --timeout_I2C;
     c28:	80 91 62 3a 	lds	r24, 0x3A62	; 0x803a62 <timeout_I2C>
     c2c:	88 23       	and	r24, r24
     c2e:	29 f0       	breq	.+10     	; 0xc3a <__vector_8+0x86>
     c30:	80 91 62 3a 	lds	r24, 0x3A62	; 0x803a62 <timeout_I2C>
     c34:	81 50       	subi	r24, 0x01	; 1
     c36:	80 93 62 3a 	sts	0x3A62, r24	; 0x803a62 <timeout_I2C>
    TCA0_SPLIT_INTFLAGS = 0xFF;
     c3a:	8f ef       	ldi	r24, 0xFF	; 255
     c3c:	80 93 0b 0a 	sts	0x0A0B, r24	; 0x800a0b <__TEXT_REGION_LENGTH__+0x700a0b>
}
     c40:	ff 91       	pop	r31
     c42:	ef 91       	pop	r30
     c44:	bf 91       	pop	r27
     c46:	af 91       	pop	r26
     c48:	9f 91       	pop	r25
     c4a:	8f 91       	pop	r24
     c4c:	0f 90       	pop	r0
     c4e:	0f be       	out	0x3f, r0	; 63
     c50:	0f 90       	pop	r0
     c52:	1f 90       	pop	r1
     c54:	18 95       	reti

00000c56 <__vector_13>:

// TCB0 is used for (slowly) sending serial characters. A 0x00 character code is needed to terminate sending or it will leak memory to serial. It's a feature, honest! 
ISR(TCB0_INT_vect){
     c56:	1f 92       	push	r1
     c58:	0f 92       	push	r0
     c5a:	0f b6       	in	r0, 0x3f	; 63
     c5c:	0f 92       	push	r0
     c5e:	11 24       	eor	r1, r1
     c60:	8f 93       	push	r24
     c62:	9f 93       	push	r25
     c64:	ef 93       	push	r30
     c66:	ff 93       	push	r31
    if (*serTxAddr) {
     c68:	e0 91 bb 3a 	lds	r30, 0x3ABB	; 0x803abb <serTxAddr>
     c6c:	f0 91 bc 3a 	lds	r31, 0x3ABC	; 0x803abc <serTxAddr+0x1>
     c70:	80 81       	ld	r24, Z
     c72:	88 23       	and	r24, r24
     c74:	91 f0       	breq	.+36     	; 0xc9a <__vector_13+0x44>
        USART0_TXDATAL = *serTxAddr;
     c76:	80 81       	ld	r24, Z
     c78:	80 93 02 08 	sts	0x0802, r24	; 0x800802 <__TEXT_REGION_LENGTH__+0x700802>
        serTxAddr++;
     c7c:	80 91 bb 3a 	lds	r24, 0x3ABB	; 0x803abb <serTxAddr>
     c80:	90 91 bc 3a 	lds	r25, 0x3ABC	; 0x803abc <serTxAddr+0x1>
     c84:	01 96       	adiw	r24, 0x01	; 1
     c86:	80 93 bb 3a 	sts	0x3ABB, r24	; 0x803abb <serTxAddr>
     c8a:	90 93 bc 3a 	sts	0x3ABC, r25	; 0x803abc <serTxAddr+0x1>
        USART0_CTRLA |= USART_DREIE_bm;
     c8e:	80 91 05 08 	lds	r24, 0x0805	; 0x800805 <__TEXT_REGION_LENGTH__+0x700805>
     c92:	80 62       	ori	r24, 0x20	; 32
     c94:	80 93 05 08 	sts	0x0805, r24	; 0x800805 <__TEXT_REGION_LENGTH__+0x700805>
     c98:	05 c0       	rjmp	.+10     	; 0xca4 <__vector_13+0x4e>
    } else {
        serTxDone = 1;
     c9a:	81 e0       	ldi	r24, 0x01	; 1
     c9c:	80 93 09 38 	sts	0x3809, r24	; 0x803809 <serTxDone>
        TCB0_INTCTRL = 0x00;
     ca0:	10 92 45 0a 	sts	0x0A45, r1	; 0x800a45 <__TEXT_REGION_LENGTH__+0x700a45>
    }
    TCB0_INTFLAGS = TCB_CAPT_bm;
     ca4:	81 e0       	ldi	r24, 0x01	; 1
     ca6:	80 93 46 0a 	sts	0x0A46, r24	; 0x800a46 <__TEXT_REGION_LENGTH__+0x700a46>
}
     caa:	ff 91       	pop	r31
     cac:	ef 91       	pop	r30
     cae:	9f 91       	pop	r25
     cb0:	8f 91       	pop	r24
     cb2:	0f 90       	pop	r0
     cb4:	0f be       	out	0x3f, r0	; 63
     cb6:	0f 90       	pop	r0
     cb8:	1f 90       	pop	r1
     cba:	18 95       	reti

00000cbc <__vector_14>:

// TCB1 is used for audio generation. Keeps playing "data" until 0 is reached. Audio sample data can contain 0x01 to 0xFF, centered around 0x80
ISR(TCB1_INT_vect){
     cbc:	1f 92       	push	r1
     cbe:	0f 92       	push	r0
     cc0:	0f b6       	in	r0, 0x3f	; 63
     cc2:	0f 92       	push	r0
     cc4:	11 24       	eor	r1, r1
     cc6:	2f 93       	push	r18
     cc8:	3f 93       	push	r19
     cca:	4f 93       	push	r20
     ccc:	8f 93       	push	r24
     cce:	9f 93       	push	r25
     cd0:	ef 93       	push	r30
     cd2:	ff 93       	push	r31
    int16_t volCtrl;
    if (*auSmpAddr == 0) auSmpAddr = auRepAddr;
     cd4:	e0 91 05 38 	lds	r30, 0x3805	; 0x803805 <auSmpAddr>
     cd8:	f0 91 06 38 	lds	r31, 0x3806	; 0x803806 <auSmpAddr+0x1>
     cdc:	80 81       	ld	r24, Z
     cde:	81 11       	cpse	r24, r1
     ce0:	08 c0       	rjmp	.+16     	; 0xcf2 <__vector_14+0x36>
     ce2:	80 91 03 38 	lds	r24, 0x3803	; 0x803803 <auRepAddr>
     ce6:	90 91 04 38 	lds	r25, 0x3804	; 0x803804 <auRepAddr+0x1>
     cea:	80 93 05 38 	sts	0x3805, r24	; 0x803805 <auSmpAddr>
     cee:	90 93 06 38 	sts	0x3806, r25	; 0x803806 <auSmpAddr+0x1>
    if (*auSmpAddr) {
     cf2:	e0 91 05 38 	lds	r30, 0x3805	; 0x803805 <auSmpAddr>
     cf6:	f0 91 06 38 	lds	r31, 0x3806	; 0x803806 <auSmpAddr+0x1>
     cfa:	80 81       	ld	r24, Z
     cfc:	88 23       	and	r24, r24
     cfe:	e1 f0       	breq	.+56     	; 0xd38 <__vector_14+0x7c>
        volCtrl = ((((int16_t)(*auSmpAddr) - 0x7f) * auVolume) >> 8) + 0x80;
     d00:	20 81       	ld	r18, Z
     d02:	40 91 b8 3a 	lds	r20, 0x3AB8	; 0x803ab8 <auVolume>
        DAC0_DATA = (uint8_t)(volCtrl);
     d06:	30 e0       	ldi	r19, 0x00	; 0
     d08:	2f 57       	subi	r18, 0x7F	; 127
     d0a:	31 09       	sbc	r19, r1
     d0c:	42 9f       	mul	r20, r18
     d0e:	c0 01       	movw	r24, r0
     d10:	43 9f       	mul	r20, r19
     d12:	90 0d       	add	r25, r0
     d14:	11 24       	eor	r1, r1
     d16:	89 2f       	mov	r24, r25
     d18:	99 0f       	add	r25, r25
     d1a:	99 0b       	sbc	r25, r25
     d1c:	80 58       	subi	r24, 0x80	; 128
     d1e:	9f 4f       	sbci	r25, 0xFF	; 255
     d20:	80 93 a1 06 	sts	0x06A1, r24	; 0x8006a1 <__TEXT_REGION_LENGTH__+0x7006a1>
        ++auSmpAddr;
     d24:	80 91 05 38 	lds	r24, 0x3805	; 0x803805 <auSmpAddr>
     d28:	90 91 06 38 	lds	r25, 0x3806	; 0x803806 <auSmpAddr+0x1>
     d2c:	01 96       	adiw	r24, 0x01	; 1
     d2e:	80 93 05 38 	sts	0x3805, r24	; 0x803805 <auSmpAddr>
     d32:	90 93 06 38 	sts	0x3806, r25	; 0x803806 <auSmpAddr+0x1>
     d36:	03 c0       	rjmp	.+6      	; 0xd3e <__vector_14+0x82>
    } else {
        DAC0_DATA = 0x80;
     d38:	80 e8       	ldi	r24, 0x80	; 128
     d3a:	80 93 a1 06 	sts	0x06A1, r24	; 0x8006a1 <__TEXT_REGION_LENGTH__+0x7006a1>
    }
    TCB1_INTFLAGS = TCB_CAPT_bm;
     d3e:	81 e0       	ldi	r24, 0x01	; 1
     d40:	80 93 56 0a 	sts	0x0A56, r24	; 0x800a56 <__TEXT_REGION_LENGTH__+0x700a56>
}
     d44:	ff 91       	pop	r31
     d46:	ef 91       	pop	r30
     d48:	9f 91       	pop	r25
     d4a:	8f 91       	pop	r24
     d4c:	4f 91       	pop	r20
     d4e:	3f 91       	pop	r19
     d50:	2f 91       	pop	r18
     d52:	0f 90       	pop	r0
     d54:	0f be       	out	0x3f, r0	; 63
     d56:	0f 90       	pop	r0
     d58:	1f 90       	pop	r1
     d5a:	18 95       	reti

00000d5c <__vector_27>:

// Reads up to RXLEN characters until LF is found, LF sets the serRxDone flag and writes 0 instead of LF.
ISR(USART0_RXC_vect){
     d5c:	1f 92       	push	r1
     d5e:	0f 92       	push	r0
     d60:	0f b6       	in	r0, 0x3f	; 63
     d62:	0f 92       	push	r0
     d64:	11 24       	eor	r1, r1
     d66:	8f 93       	push	r24
     d68:	ef 93       	push	r30
     d6a:	ff 93       	push	r31
    if (serRxDone == 0){
     d6c:	80 91 46 38 	lds	r24, 0x3846	; 0x803846 <serRxDone>
     d70:	81 11       	cpse	r24, r1
     d72:	44 c0       	rjmp	.+136    	; 0xdfc <__vector_27+0xa0>
        serRx[RXCNT] = USART0.RXDATAL;
     d74:	ed b3       	in	r30, 0x1d	; 29
     d76:	f0 e0       	ldi	r31, 0x00	; 0
     d78:	80 91 00 08 	lds	r24, 0x0800	; 0x800800 <__TEXT_REGION_LENGTH__+0x700800>
     d7c:	e9 58       	subi	r30, 0x89	; 137
     d7e:	f5 4c       	sbci	r31, 0xC5	; 197
     d80:	80 83       	st	Z, r24
        USART0_TXDATAL = serRx[RXCNT];
     d82:	ed b3       	in	r30, 0x1d	; 29
     d84:	f0 e0       	ldi	r31, 0x00	; 0
     d86:	e9 58       	subi	r30, 0x89	; 137
     d88:	f5 4c       	sbci	r31, 0xC5	; 197
     d8a:	80 81       	ld	r24, Z
     d8c:	80 93 02 08 	sts	0x0802, r24	; 0x800802 <__TEXT_REGION_LENGTH__+0x700802>
        if ((serRx[RXCNT] == 0x0A)||(serRx[RXCNT] == 0x0D)){
     d90:	ed b3       	in	r30, 0x1d	; 29
     d92:	f0 e0       	ldi	r31, 0x00	; 0
     d94:	e9 58       	subi	r30, 0x89	; 137
     d96:	f5 4c       	sbci	r31, 0xC5	; 197
     d98:	80 81       	ld	r24, Z
     d9a:	8a 30       	cpi	r24, 0x0A	; 10
     d9c:	39 f0       	breq	.+14     	; 0xdac <__vector_27+0x50>
     d9e:	ed b3       	in	r30, 0x1d	; 29
     da0:	f0 e0       	ldi	r31, 0x00	; 0
     da2:	e9 58       	subi	r30, 0x89	; 137
     da4:	f5 4c       	sbci	r31, 0xC5	; 197
     da6:	80 81       	ld	r24, Z
     da8:	8d 30       	cpi	r24, 0x0D	; 13
     daa:	49 f4       	brne	.+18     	; 0xdbe <__vector_27+0x62>
            serRx[RXCNT] = 0;
     dac:	ed b3       	in	r30, 0x1d	; 29
     dae:	f0 e0       	ldi	r31, 0x00	; 0
     db0:	e9 58       	subi	r30, 0x89	; 137
     db2:	f5 4c       	sbci	r31, 0xC5	; 197
     db4:	10 82       	st	Z, r1
            serRxDone = 1;
     db6:	81 e0       	ldi	r24, 0x01	; 1
     db8:	80 93 46 38 	sts	0x3846, r24	; 0x803846 <serRxDone>
     dbc:	1f c0       	rjmp	.+62     	; 0xdfc <__vector_27+0xa0>
        } else if (((serRx[RXCNT] == 0x08)||(serRx[RXCNT] == 0x7F))&&(RXCNT > 0)) {
     dbe:	ed b3       	in	r30, 0x1d	; 29
     dc0:	f0 e0       	ldi	r31, 0x00	; 0
     dc2:	e9 58       	subi	r30, 0x89	; 137
     dc4:	f5 4c       	sbci	r31, 0xC5	; 197
     dc6:	80 81       	ld	r24, Z
     dc8:	88 30       	cpi	r24, 0x08	; 8
     dca:	39 f0       	breq	.+14     	; 0xdda <__vector_27+0x7e>
     dcc:	ed b3       	in	r30, 0x1d	; 29
     dce:	f0 e0       	ldi	r31, 0x00	; 0
     dd0:	e9 58       	subi	r30, 0x89	; 137
     dd2:	f5 4c       	sbci	r31, 0xC5	; 197
     dd4:	80 81       	ld	r24, Z
     dd6:	8f 37       	cpi	r24, 0x7F	; 127
     dd8:	59 f4       	brne	.+22     	; 0xdf0 <__vector_27+0x94>
     dda:	8d b3       	in	r24, 0x1d	; 29
     ddc:	88 23       	and	r24, r24
     dde:	41 f0       	breq	.+16     	; 0xdf0 <__vector_27+0x94>
            serRx[RXCNT] = 0;
     de0:	ed b3       	in	r30, 0x1d	; 29
     de2:	f0 e0       	ldi	r31, 0x00	; 0
     de4:	e9 58       	subi	r30, 0x89	; 137
     de6:	f5 4c       	sbci	r31, 0xC5	; 197
     de8:	10 82       	st	Z, r1
            --RXCNT;
     dea:	8d b3       	in	r24, 0x1d	; 29
     dec:	81 50       	subi	r24, 0x01	; 1
     dee:	05 c0       	rjmp	.+10     	; 0xdfa <__vector_27+0x9e>
        } else if (RXCNT < (RXLEN-1)) ++RXCNT;
     df0:	8d b3       	in	r24, 0x1d	; 29
     df2:	80 34       	cpi	r24, 0x40	; 64
     df4:	18 f4       	brcc	.+6      	; 0xdfc <__vector_27+0xa0>
     df6:	8d b3       	in	r24, 0x1d	; 29
     df8:	8f 5f       	subi	r24, 0xFF	; 255
     dfa:	8d bb       	out	0x1d, r24	; 29
    }
    USART0_STATUS = USART_RXCIF_bm;
     dfc:	80 e8       	ldi	r24, 0x80	; 128
     dfe:	80 93 04 08 	sts	0x0804, r24	; 0x800804 <__TEXT_REGION_LENGTH__+0x700804>
};
     e02:	ff 91       	pop	r31
     e04:	ef 91       	pop	r30
     e06:	8f 91       	pop	r24
     e08:	0f 90       	pop	r0
     e0a:	0f be       	out	0x3f, r0	; 63
     e0c:	0f 90       	pop	r0
     e0e:	1f 90       	pop	r1
     e10:	18 95       	reti

00000e12 <__vector_28>:

// Trigger new data write and turn off DRE interrupt.
ISR(USART0_DRE_vect){
     e12:	1f 92       	push	r1
     e14:	0f 92       	push	r0
     e16:	0f b6       	in	r0, 0x3f	; 63
     e18:	0f 92       	push	r0
     e1a:	11 24       	eor	r1, r1
     e1c:	8f 93       	push	r24
     e1e:	ef 93       	push	r30
     e20:	ff 93       	push	r31
    TCB0_CNT = 0;
     e22:	10 92 4a 0a 	sts	0x0A4A, r1	; 0x800a4a <__TEXT_REGION_LENGTH__+0x700a4a>
     e26:	10 92 4b 0a 	sts	0x0A4B, r1	; 0x800a4b <__TEXT_REGION_LENGTH__+0x700a4b>
    TCB0_INTCTRL = 0x01;
     e2a:	81 e0       	ldi	r24, 0x01	; 1
     e2c:	80 93 45 0a 	sts	0x0A45, r24	; 0x800a45 <__TEXT_REGION_LENGTH__+0x700a45>
    USART0_CTRLA &= ~(USART_DREIE_bm);
     e30:	e5 e0       	ldi	r30, 0x05	; 5
     e32:	f8 e0       	ldi	r31, 0x08	; 8
     e34:	80 81       	ld	r24, Z
     e36:	8f 7d       	andi	r24, 0xDF	; 223
     e38:	80 83       	st	Z, r24
};
     e3a:	ff 91       	pop	r31
     e3c:	ef 91       	pop	r30
     e3e:	8f 91       	pop	r24
     e40:	0f 90       	pop	r0
     e42:	0f be       	out	0x3f, r0	; 63
     e44:	0f 90       	pop	r0
     e46:	1f 90       	pop	r1
     e48:	18 95       	reti

00000e4a <__vector_20>:

// ADC used for audio input and temperature sensor.
ISR(ADC0_RESRDY_vect){
     e4a:	1f 92       	push	r1
     e4c:	0f 92       	push	r0
     e4e:	0f b6       	in	r0, 0x3f	; 63
     e50:	0f 92       	push	r0
     e52:	11 24       	eor	r1, r1
     e54:	8f 93       	push	r24
     e56:	9f 93       	push	r25
    //If just switched reference, discard first few samples
    if (adc0Chg == 0){
     e58:	80 91 3a 38 	lds	r24, 0x383A	; 0x80383a <adc0Chg>
     e5c:	81 11       	cpse	r24, r1
     e5e:	12 c0       	rjmp	.+36     	; 0xe84 <__vector_20+0x3a>
        if (ADC0_MUXPOS == 0x1E) adcTemp = ADC0_RES; else auIn=ADC0_RESL;
     e60:	80 91 06 06 	lds	r24, 0x0606	; 0x800606 <__TEXT_REGION_LENGTH__+0x700606>
     e64:	8e 31       	cpi	r24, 0x1E	; 30
     e66:	49 f4       	brne	.+18     	; 0xe7a <__vector_20+0x30>
     e68:	80 91 10 06 	lds	r24, 0x0610	; 0x800610 <__TEXT_REGION_LENGTH__+0x700610>
     e6c:	90 91 11 06 	lds	r25, 0x0611	; 0x800611 <__TEXT_REGION_LENGTH__+0x700611>
     e70:	80 93 ef 3a 	sts	0x3AEF, r24	; 0x803aef <adcTemp>
     e74:	90 93 f0 3a 	sts	0x3AF0, r25	; 0x803af0 <adcTemp+0x1>
     e78:	0a c0       	rjmp	.+20     	; 0xe8e <__vector_20+0x44>
     e7a:	80 91 10 06 	lds	r24, 0x0610	; 0x800610 <__TEXT_REGION_LENGTH__+0x700610>
     e7e:	80 93 c4 3a 	sts	0x3AC4, r24	; 0x803ac4 <auIn>
     e82:	05 c0       	rjmp	.+10     	; 0xe8e <__vector_20+0x44>
    } else --adc0Chg;
     e84:	80 91 3a 38 	lds	r24, 0x383A	; 0x80383a <adc0Chg>
     e88:	81 50       	subi	r24, 0x01	; 1
     e8a:	80 93 3a 38 	sts	0x383A, r24	; 0x80383a <adc0Chg>
    ADC0_INTFLAGS = ADC_RESRDY_bm;
     e8e:	81 e0       	ldi	r24, 0x01	; 1
     e90:	80 93 0b 06 	sts	0x060B, r24	; 0x80060b <__TEXT_REGION_LENGTH__+0x70060b>
}
     e94:	9f 91       	pop	r25
     e96:	8f 91       	pop	r24
     e98:	0f 90       	pop	r0
     e9a:	0f be       	out	0x3f, r0	; 63
     e9c:	0f 90       	pop	r0
     e9e:	1f 90       	pop	r1
     ea0:	18 95       	reti

00000ea2 <__vector_22>:

// Reads out sensors at 8Hz and buttons at 42Hz (timed by PIT), power for the sensors is on 1/8th of the time to save power.
ISR(ADC1_RESRDY_vect){
     ea2:	1f 92       	push	r1
     ea4:	0f 92       	push	r0
     ea6:	0f b6       	in	r0, 0x3f	; 63
     ea8:	0f 92       	push	r0
     eaa:	11 24       	eor	r1, r1
     eac:	8f 93       	push	r24
     eae:	9f 93       	push	r25
    if (ADC1_MUXPOS == 0) {
     eb0:	80 91 46 06 	lds	r24, 0x0646	; 0x800646 <__TEXT_REGION_LENGTH__+0x700646>
     eb4:	81 11       	cpse	r24, r1
     eb6:	0a c0       	rjmp	.+20     	; 0xecc <__vector_22+0x2a>
        adcPhot = ADC1_RES;
     eb8:	80 91 50 06 	lds	r24, 0x0650	; 0x800650 <__TEXT_REGION_LENGTH__+0x700650>
     ebc:	90 91 51 06 	lds	r25, 0x0651	; 0x800651 <__TEXT_REGION_LENGTH__+0x700651>
     ec0:	80 93 bf 3a 	sts	0x3ABF, r24	; 0x803abf <adcPhot>
     ec4:	90 93 c0 3a 	sts	0x3AC0, r25	; 0x803ac0 <adcPhot+0x1>
        ADC1_MUXPOS = 0x01;             //Select Hall sensor
     ec8:	81 e0       	ldi	r24, 0x01	; 1
     eca:	10 c0       	rjmp	.+32     	; 0xeec <__vector_22+0x4a>
    } else if (ADC1_MUXPOS == 1){
     ecc:	80 91 46 06 	lds	r24, 0x0646	; 0x800646 <__TEXT_REGION_LENGTH__+0x700646>
     ed0:	81 30       	cpi	r24, 0x01	; 1
     ed2:	79 f4       	brne	.+30     	; 0xef2 <__vector_22+0x50>
        PORTA_OUTCLR = 0b00001000;      //Turn off sensor power
     ed4:	88 e0       	ldi	r24, 0x08	; 8
     ed6:	80 93 06 04 	sts	0x0406, r24	; 0x800406 <__TEXT_REGION_LENGTH__+0x700406>
        adcHall = ADC1_RES;
     eda:	80 91 50 06 	lds	r24, 0x0650	; 0x800650 <__TEXT_REGION_LENGTH__+0x700650>
     ede:	90 91 51 06 	lds	r25, 0x0651	; 0x800651 <__TEXT_REGION_LENGTH__+0x700651>
     ee2:	80 93 bd 3a 	sts	0x3ABD, r24	; 0x803abd <adcHall>
     ee6:	90 93 be 3a 	sts	0x3ABE, r25	; 0x803abe <adcHall+0x1>
        ADC1_MUXPOS = 0x04;             //select buttons
     eea:	84 e0       	ldi	r24, 0x04	; 4
     eec:	80 93 46 06 	sts	0x0646, r24	; 0x800646 <__TEXT_REGION_LENGTH__+0x700646>
     ef0:	10 c0       	rjmp	.+32     	; 0xf12 <__vector_22+0x70>
    } else {
        adcBtns = ADC1_RES;
     ef2:	80 91 50 06 	lds	r24, 0x0650	; 0x800650 <__TEXT_REGION_LENGTH__+0x700650>
     ef6:	90 91 51 06 	lds	r25, 0x0651	; 0x800651 <__TEXT_REGION_LENGTH__+0x700651>
     efa:	80 93 b9 3a 	sts	0x3AB9, r24	; 0x803ab9 <adcBtns>
     efe:	90 93 ba 3a 	sts	0x3ABA, r25	; 0x803aba <adcBtns+0x1>
        if (A1CNT == 15){
     f02:	8f b3       	in	r24, 0x1f	; 31
     f04:	8f 30       	cpi	r24, 0x0F	; 15
     f06:	29 f4       	brne	.+10     	; 0xf12 <__vector_22+0x70>
            ADC1_MUXPOS = 0x00;         //Select photo transistor
     f08:	10 92 46 06 	sts	0x0646, r1	; 0x800646 <__TEXT_REGION_LENGTH__+0x700646>
            PORTA_OUTSET = 0b00001000;  //Turn on sensor power
     f0c:	88 e0       	ldi	r24, 0x08	; 8
     f0e:	80 93 05 04 	sts	0x0405, r24	; 0x800405 <__TEXT_REGION_LENGTH__+0x700405>
        }
    }

    A1CNT=(A1CNT+1)%16;        
     f12:	8f b3       	in	r24, 0x1f	; 31
     f14:	90 e0       	ldi	r25, 0x00	; 0
     f16:	01 96       	adiw	r24, 0x01	; 1
     f18:	8f 70       	andi	r24, 0x0F	; 15
     f1a:	99 27       	eor	r25, r25
     f1c:	8f bb       	out	0x1f, r24	; 31
    ADC1_INTFLAGS = ADC_RESRDY_bm;
     f1e:	81 e0       	ldi	r24, 0x01	; 1
     f20:	80 93 4b 06 	sts	0x064B, r24	; 0x80064b <__TEXT_REGION_LENGTH__+0x70064b>
}
     f24:	9f 91       	pop	r25
     f26:	8f 91       	pop	r24
     f28:	0f 90       	pop	r0
     f2a:	0f be       	out	0x3f, r0	; 63
     f2c:	0f 90       	pop	r0
     f2e:	1f 90       	pop	r1
     f30:	18 95       	reti

00000f32 <__vector_6>:

// RTC compare interrupt, triggers at 512/BTN_TMR rate, also RTC overflow interrupt, triggers once a minute
ISR(RTC_CNT_vect) {
     f32:	1f 92       	push	r1
     f34:	0f 92       	push	r0
     f36:	0f b6       	in	r0, 0x3f	; 63
     f38:	0f 92       	push	r0
     f3a:	11 24       	eor	r1, r1
     f3c:	2f 93       	push	r18
     f3e:	3f 93       	push	r19
     f40:	8f 93       	push	r24
     f42:	9f 93       	push	r25
    if (RTC_INTFLAGS & RTC_CMP_bm){
     f44:	80 91 43 01 	lds	r24, 0x0143	; 0x800143 <__TEXT_REGION_LENGTH__+0x700143>
     f48:	81 ff       	sbrs	r24, 1
     f4a:	39 c0       	rjmp	.+114    	; 0xfbe <__vector_6+0x8c>
        if (buttonMark<0xff) buttonMark++;   // For button timing purposes
     f4c:	80 91 44 38 	lds	r24, 0x3844	; 0x803844 <buttonMark>
     f50:	8f 3f       	cpi	r24, 0xFF	; 255
     f52:	29 f0       	breq	.+10     	; 0xf5e <__vector_6+0x2c>
     f54:	80 91 44 38 	lds	r24, 0x3844	; 0x803844 <buttonMark>
     f58:	8f 5f       	subi	r24, 0xFF	; 255
     f5a:	80 93 44 38 	sts	0x3844, r24	; 0x803844 <buttonMark>
        //tmp16bit = (RTC_CNT + BTN_TMR)%RTC_PER;
        tmp16bit = (RTC_CNT + BTN_TMR);
     f5e:	80 91 48 01 	lds	r24, 0x0148	; 0x800148 <__TEXT_REGION_LENGTH__+0x700148>
     f62:	90 91 49 01 	lds	r25, 0x0149	; 0x800149 <__TEXT_REGION_LENGTH__+0x700149>
     f66:	82 96       	adiw	r24, 0x22	; 34
     f68:	80 93 f1 3a 	sts	0x3AF1, r24	; 0x803af1 <tmp16bit>
     f6c:	90 93 f2 3a 	sts	0x3AF2, r25	; 0x803af2 <tmp16bit+0x1>
        if (tmp16bit > RTC_PER) tmp16bit -= RTC_PER;
     f70:	20 91 4a 01 	lds	r18, 0x014A	; 0x80014a <__TEXT_REGION_LENGTH__+0x70014a>
     f74:	30 91 4b 01 	lds	r19, 0x014B	; 0x80014b <__TEXT_REGION_LENGTH__+0x70014b>
     f78:	80 91 f1 3a 	lds	r24, 0x3AF1	; 0x803af1 <tmp16bit>
     f7c:	90 91 f2 3a 	lds	r25, 0x3AF2	; 0x803af2 <tmp16bit+0x1>
     f80:	28 17       	cp	r18, r24
     f82:	39 07       	cpc	r19, r25
     f84:	70 f4       	brcc	.+28     	; 0xfa2 <__vector_6+0x70>
     f86:	20 91 4a 01 	lds	r18, 0x014A	; 0x80014a <__TEXT_REGION_LENGTH__+0x70014a>
     f8a:	30 91 4b 01 	lds	r19, 0x014B	; 0x80014b <__TEXT_REGION_LENGTH__+0x70014b>
     f8e:	80 91 f1 3a 	lds	r24, 0x3AF1	; 0x803af1 <tmp16bit>
     f92:	90 91 f2 3a 	lds	r25, 0x3AF2	; 0x803af2 <tmp16bit+0x1>
     f96:	82 1b       	sub	r24, r18
     f98:	93 0b       	sbc	r25, r19
     f9a:	80 93 f1 3a 	sts	0x3AF1, r24	; 0x803af1 <tmp16bit>
     f9e:	90 93 f2 3a 	sts	0x3AF2, r25	; 0x803af2 <tmp16bit+0x1>
        while(RTC_STATUS & RTC_CMPBUSY_bm);
     fa2:	80 91 41 01 	lds	r24, 0x0141	; 0x800141 <__TEXT_REGION_LENGTH__+0x700141>
     fa6:	83 fd       	sbrc	r24, 3
     fa8:	fc cf       	rjmp	.-8      	; 0xfa2 <__vector_6+0x70>
        RTC_CMP = tmp16bit;                 // Button timing: next interrupt set
     faa:	80 91 f1 3a 	lds	r24, 0x3AF1	; 0x803af1 <tmp16bit>
     fae:	90 91 f2 3a 	lds	r25, 0x3AF2	; 0x803af2 <tmp16bit+0x1>
     fb2:	80 93 4c 01 	sts	0x014C, r24	; 0x80014c <__TEXT_REGION_LENGTH__+0x70014c>
     fb6:	90 93 4d 01 	sts	0x014D, r25	; 0x80014d <__TEXT_REGION_LENGTH__+0x70014d>
        RTC_INTFLAGS = RTC_CMP_bm;		    // clear interrupt flag
     fba:	82 e0       	ldi	r24, 0x02	; 2
     fbc:	06 c0       	rjmp	.+12     	; 0xfca <__vector_6+0x98>
    } else {
        minuteMark++;                       // For very slow timing purposes, overflows to 0
     fbe:	80 91 45 38 	lds	r24, 0x3845	; 0x803845 <minuteMark>
     fc2:	8f 5f       	subi	r24, 0xFF	; 255
     fc4:	80 93 45 38 	sts	0x3845, r24	; 0x803845 <minuteMark>
        RTC_INTFLAGS = RTC_OVF_bm;		    // clear interrupt flag
     fc8:	81 e0       	ldi	r24, 0x01	; 1
     fca:	80 93 43 01 	sts	0x0143, r24	; 0x800143 <__TEXT_REGION_LENGTH__+0x700143>
    }
}
     fce:	9f 91       	pop	r25
     fd0:	8f 91       	pop	r24
     fd2:	3f 91       	pop	r19
     fd4:	2f 91       	pop	r18
     fd6:	0f 90       	pop	r0
     fd8:	0f be       	out	0x3f, r0	; 63
     fda:	0f 90       	pop	r0
     fdc:	1f 90       	pop	r1
     fde:	18 95       	reti

00000fe0 <__vector_7>:

// PIT interrupt (timing of ADC1: sensor values)
ISR(RTC_PIT_vect) {						// PIT interrupt handling code
     fe0:	1f 92       	push	r1
     fe2:	0f 92       	push	r0
     fe4:	0f b6       	in	r0, 0x3f	; 63
     fe6:	0f 92       	push	r0
     fe8:	11 24       	eor	r1, r1
     fea:	8f 93       	push	r24
    ADC1_COMMAND = 0x01;
     fec:	81 e0       	ldi	r24, 0x01	; 1
     fee:	80 93 48 06 	sts	0x0648, r24	; 0x800648 <__TEXT_REGION_LENGTH__+0x700648>
    RTC_PITINTFLAGS = RTC_PI_bm;		// clear interrupt flag
     ff2:	80 93 53 01 	sts	0x0153, r24	; 0x800153 <__TEXT_REGION_LENGTH__+0x700153>
}
     ff6:	8f 91       	pop	r24
     ff8:	0f 90       	pop	r0
     ffa:	0f be       	out	0x3f, r0	; 63
     ffc:	0f 90       	pop	r0
     ffe:	1f 90       	pop	r1
    1000:	18 95       	reti

00001002 <EERead>:

// Read bytes from EEPROM
void EERead(uint8_t eeAddr, uint8_t *eeValues, uint8_t size)
{
    while(NVMCTRL_STATUS & NVMCTRL_EEBUSY_bm);              // Wait until any write operation has finished
    1002:	90 91 02 10 	lds	r25, 0x1002	; 0x801002 <__TEXT_REGION_LENGTH__+0x701002>
    1006:	91 fd       	sbrc	r25, 1
    1008:	fc cf       	rjmp	.-8      	; 0x1002 <EERead>
    100a:	fb 01       	movw	r30, r22
    100c:	48 0f       	add	r20, r24

    while(size){
    100e:	84 17       	cp	r24, r20
    1010:	39 f0       	breq	.+14     	; 0x1020 <EERead+0x1e>
        *eeValues++ = *(uint8_t *)(EEPROM_START+eeAddr++);  // Read data from buffer
    1012:	a8 2f       	mov	r26, r24
    1014:	b0 e0       	ldi	r27, 0x00	; 0
    1016:	bc 5e       	subi	r27, 0xEC	; 236
    1018:	9c 91       	ld	r25, X
    101a:	91 93       	st	Z+, r25
    101c:	8f 5f       	subi	r24, 0xFF	; 255
    101e:	f7 cf       	rjmp	.-18     	; 0x100e <EERead+0xc>
        --size;
    }
}
    1020:	08 95       	ret

00001022 <EEWrite>:
{
    uint8_t lastByteOfPage;
    while(size){
        lastByteOfPage = 0;
        while(NVMCTRL_STATUS & NVMCTRL_EEBUSY_bm);              // Wait until any write operation has finished
        CCP = CCP_SPM_gc;                                       // Gain access to NVMCTRL_CTRLA
    1022:	9d e9       	ldi	r25, 0x9D	; 157
        NVMCTRL_CTRLA = NVMCTRL_CMD_PAGEBUFCLR_gc;              // Clear page buffer
    1024:	24 e0       	ldi	r18, 0x04	; 4
            if ((eeAddr % EEPROM_PAGE_SIZE) == (EEPROM_PAGE_SIZE-1)) lastByteOfPage = 1;
            *(uint8_t *)(EEPROM_START+eeAddr++) = *eeValues++;  // Write data to buffer
            --size;
        }
        CCP = CCP_SPM_gc;
        NVMCTRL_CTRLA = NVMCTRL_CMD_PAGEERASEWRITE_gc;          // Erase old data and write new data to EEPROM
    1026:	33 e0       	ldi	r19, 0x03	; 3

// Write bytes to the EEPROM, if address exceeds EEPROM space data wraps around
uint8_t EEWrite(uint8_t eeAddr, uint8_t *eeValues, uint8_t size)
{
    uint8_t lastByteOfPage;
    while(size){
    1028:	44 23       	and	r20, r20
    102a:	09 f1       	breq	.+66     	; 0x106e <EEWrite+0x4c>
        lastByteOfPage = 0;
        while(NVMCTRL_STATUS & NVMCTRL_EEBUSY_bm);              // Wait until any write operation has finished
    102c:	50 91 02 10 	lds	r21, 0x1002	; 0x801002 <__TEXT_REGION_LENGTH__+0x701002>
    1030:	51 fd       	sbrc	r21, 1
    1032:	fc cf       	rjmp	.-8      	; 0x102c <EEWrite+0xa>
        CCP = CCP_SPM_gc;                                       // Gain access to NVMCTRL_CTRLA
    1034:	94 bf       	out	0x34, r25	; 52
        NVMCTRL_CTRLA = NVMCTRL_CMD_PAGEBUFCLR_gc;              // Clear page buffer
    1036:	20 93 00 10 	sts	0x1000, r18	; 0x801000 <__TEXT_REGION_LENGTH__+0x701000>
    103a:	e8 2f       	mov	r30, r24
        while((size) && (lastByteOfPage == 0)){
            if ((eeAddr % EEPROM_PAGE_SIZE) == (EEPROM_PAGE_SIZE-1)) lastByteOfPage = 1;
    103c:	58 2f       	mov	r21, r24
    103e:	5f 71       	andi	r21, 0x1F	; 31
            *(uint8_t *)(EEPROM_START+eeAddr++) = *eeValues++;  // Write data to buffer
    1040:	8f 5f       	subi	r24, 0xFF	; 255
    1042:	6f 5f       	subi	r22, 0xFF	; 255
    1044:	7f 4f       	sbci	r23, 0xFF	; 255
    1046:	db 01       	movw	r26, r22
    1048:	11 97       	sbiw	r26, 0x01	; 1
    104a:	ac 91       	ld	r26, X
    104c:	f0 e0       	ldi	r31, 0x00	; 0
    104e:	fc 5e       	subi	r31, 0xEC	; 236
    1050:	a0 83       	st	Z, r26
            --size;
    1052:	41 50       	subi	r20, 0x01	; 1
    while(size){
        lastByteOfPage = 0;
        while(NVMCTRL_STATUS & NVMCTRL_EEBUSY_bm);              // Wait until any write operation has finished
        CCP = CCP_SPM_gc;                                       // Gain access to NVMCTRL_CTRLA
        NVMCTRL_CTRLA = NVMCTRL_CMD_PAGEBUFCLR_gc;              // Clear page buffer
        while((size) && (lastByteOfPage == 0)){
    1054:	19 f0       	breq	.+6      	; 0x105c <EEWrite+0x3a>
            if ((eeAddr % EEPROM_PAGE_SIZE) == (EEPROM_PAGE_SIZE-1)) lastByteOfPage = 1;
            *(uint8_t *)(EEPROM_START+eeAddr++) = *eeValues++;  // Write data to buffer
    1056:	e8 2f       	mov	r30, r24
    while(size){
        lastByteOfPage = 0;
        while(NVMCTRL_STATUS & NVMCTRL_EEBUSY_bm);              // Wait until any write operation has finished
        CCP = CCP_SPM_gc;                                       // Gain access to NVMCTRL_CTRLA
        NVMCTRL_CTRLA = NVMCTRL_CMD_PAGEBUFCLR_gc;              // Clear page buffer
        while((size) && (lastByteOfPage == 0)){
    1058:	5f 31       	cpi	r21, 0x1F	; 31
    105a:	81 f7       	brne	.-32     	; 0x103c <EEWrite+0x1a>
            if ((eeAddr % EEPROM_PAGE_SIZE) == (EEPROM_PAGE_SIZE-1)) lastByteOfPage = 1;
            *(uint8_t *)(EEPROM_START+eeAddr++) = *eeValues++;  // Write data to buffer
            --size;
        }
        CCP = CCP_SPM_gc;
    105c:	94 bf       	out	0x34, r25	; 52
        NVMCTRL_CTRLA = NVMCTRL_CMD_PAGEERASEWRITE_gc;          // Erase old data and write new data to EEPROM
    105e:	30 93 00 10 	sts	0x1000, r19	; 0x801000 <__TEXT_REGION_LENGTH__+0x701000>
        if (NVMCTRL_STATUS & NVMCTRL_WRERROR_bm) return 1;
    1062:	50 91 02 10 	lds	r21, 0x1002	; 0x801002 <__TEXT_REGION_LENGTH__+0x701002>
    1066:	52 ff       	sbrs	r21, 2
    1068:	df cf       	rjmp	.-66     	; 0x1028 <EEWrite+0x6>
    106a:	81 e0       	ldi	r24, 0x01	; 1
    }
    return 0;
}
    106c:	08 95       	ret
        }
        CCP = CCP_SPM_gc;
        NVMCTRL_CTRLA = NVMCTRL_CMD_PAGEERASEWRITE_gc;          // Erase old data and write new data to EEPROM
        if (NVMCTRL_STATUS & NVMCTRL_WRERROR_bm) return 1;
    }
    return 0;
    106e:	80 e0       	ldi	r24, 0x00	; 0
    1070:	08 95       	ret

00001072 <DecryptData>:
}

//Decrypts data read from I2C EEPROM, max 255 bytes at a time
void DecryptData(uint16_t offset, uint8_t length, uint8_t type, uint8_t *data){
    1072:	f9 01       	movw	r30, r18
    //offset += L_BOILER;
    while(length){
        *data ^= xor_key[type][(uint8_t)(offset%KEY_LENGTH)];
    1074:	9c 01       	movw	r18, r24
    1076:	2e 1b       	sub	r18, r30
    1078:	3f 0b       	sbc	r19, r31
    107a:	88 e0       	ldi	r24, 0x08	; 8
    107c:	48 9f       	mul	r20, r24
    107e:	a0 01       	movw	r20, r0
    1080:	11 24       	eor	r1, r1
    1082:	4c 58       	subi	r20, 0x8C	; 140
    1084:	50 44       	sbci	r21, 0x40	; 64
}

//Decrypts data read from I2C EEPROM, max 255 bytes at a time
void DecryptData(uint16_t offset, uint8_t length, uint8_t type, uint8_t *data){
    //offset += L_BOILER;
    while(length){
    1086:	66 23       	and	r22, r22
    1088:	69 f0       	breq	.+26     	; 0x10a4 <DecryptData+0x32>
        *data ^= xor_key[type][(uint8_t)(offset%KEY_LENGTH)];
    108a:	df 01       	movw	r26, r30
    108c:	a2 0f       	add	r26, r18
    108e:	b3 1f       	adc	r27, r19
    1090:	a7 70       	andi	r26, 0x07	; 7
    1092:	bb 27       	eor	r27, r27
    1094:	a4 0f       	add	r26, r20
    1096:	b5 1f       	adc	r27, r21
    1098:	80 81       	ld	r24, Z
    109a:	9c 91       	ld	r25, X
    109c:	98 27       	eor	r25, r24
    109e:	91 93       	st	Z+, r25
        ++data;
        ++offset;
        --length;
    10a0:	61 50       	subi	r22, 0x01	; 1
    10a2:	f1 cf       	rjmp	.-30     	; 0x1086 <DecryptData+0x14>
    }
}
    10a4:	08 95       	ret

000010a6 <ExtEERead>:

//Game data: Read a number of bytes and decrypt
uint8_t ExtEERead(uint16_t offset, uint8_t length, uint8_t type, uint8_t *data){
    10a6:	af 92       	push	r10
    10a8:	bf 92       	push	r11
    10aa:	cf 92       	push	r12
    10ac:	df 92       	push	r13
    10ae:	ef 92       	push	r14
    10b0:	ff 92       	push	r15
    10b2:	0f 93       	push	r16
    10b4:	1f 93       	push	r17
    10b6:	cf 93       	push	r28
    10b8:	df 93       	push	r29
    10ba:	00 d0       	rcall	.+0      	; 0x10bc <ExtEERead+0x16>
    10bc:	cd b7       	in	r28, 0x3d	; 61
    10be:	de b7       	in	r29, 0x3e	; 62
    10c0:	d6 2e       	mov	r13, r22
    10c2:	c4 2e       	mov	r12, r20
    10c4:	59 01       	movw	r10, r18
    offset &=EXT_EE_MAX;
    10c6:	7c 01       	movw	r14, r24
    10c8:	e8 94       	clt
    10ca:	f7 f8       	bld	r15, 7
    uint8_t reg[2] = {(uint8_t)(offset>>8), (uint8_t)(offset&0xff)};
    10cc:	f9 82       	std	Y+1, r15	; 0x01
    10ce:	ea 82       	std	Y+2, r14	; 0x02
    uint8_t error = (I2C_read_bytes(EE_I2C_ADDR, &reg[0], 2, data, length));
    10d0:	06 2f       	mov	r16, r22
    10d2:	42 e0       	ldi	r20, 0x02	; 2
    10d4:	be 01       	movw	r22, r28
    10d6:	6f 5f       	subi	r22, 0xFF	; 255
    10d8:	7f 4f       	sbci	r23, 0xFF	; 255
    10da:	80 e5       	ldi	r24, 0x50	; 80
    10dc:	17 da       	rcall	.-3026   	; 0x50c <I2C_read_bytes>
    10de:	18 2f       	mov	r17, r24
    if (error) return error;
    10e0:	81 11       	cpse	r24, r1
    10e2:	05 c0       	rjmp	.+10     	; 0x10ee <ExtEERead+0x48>
    DecryptData(offset, length, type, data);
    10e4:	95 01       	movw	r18, r10
    10e6:	4c 2d       	mov	r20, r12
    10e8:	6d 2d       	mov	r22, r13
    10ea:	c7 01       	movw	r24, r14
    10ec:	c2 df       	rcall	.-124    	; 0x1072 <DecryptData>
    return 0;
}
    10ee:	81 2f       	mov	r24, r17
    10f0:	0f 90       	pop	r0
    10f2:	0f 90       	pop	r0
    10f4:	df 91       	pop	r29
    10f6:	cf 91       	pop	r28
    10f8:	1f 91       	pop	r17
    10fa:	0f 91       	pop	r16
    10fc:	ff 90       	pop	r15
    10fe:	ef 90       	pop	r14
    1100:	df 90       	pop	r13
    1102:	cf 90       	pop	r12
    1104:	bf 90       	pop	r11
    1106:	af 90       	pop	r10
    1108:	08 95       	ret

0000110a <SerSend>:

// Sends a set of characters to the serial port, stops only when character value 0 is reached.
uint8_t SerSend(unsigned char *addr){
    if (serTxDone){
    110a:	20 91 09 38 	lds	r18, 0x3809	; 0x803809 <serTxDone>
    110e:	22 23       	and	r18, r18
    1110:	59 f0       	breq	.+22     	; 0x1128 <SerSend+0x1e>
        serTxAddr = addr;
    1112:	80 93 bb 3a 	sts	0x3ABB, r24	; 0x803abb <serTxAddr>
    1116:	90 93 bc 3a 	sts	0x3ABC, r25	; 0x803abc <serTxAddr+0x1>
        serTxDone = 0;
    111a:	10 92 09 38 	sts	0x3809, r1	; 0x803809 <serTxDone>
        TCB0_INTCTRL = 0x01;
    111e:	81 e0       	ldi	r24, 0x01	; 1
    1120:	80 93 45 0a 	sts	0x0A45, r24	; 0x800a45 <__TEXT_REGION_LENGTH__+0x700a45>
        return 0;
    1124:	80 e0       	ldi	r24, 0x00	; 0
    1126:	08 95       	ret
    } else return 1;    //Error: Still sending data
    1128:	81 e0       	ldi	r24, 0x01	; 1
};
    112a:	08 95       	ret

0000112c <SerSpeed>:

// Set serial character output speed, 255-0 (0.8 to 100ms delay between characters)
void SerSpeed(uint8_t serSpd){
    112c:	28 2f       	mov	r18, r24
    if (serSpd<1) serSpd = 1;
    112e:	81 11       	cpse	r24, r1
    1130:	01 c0       	rjmp	.+2      	; 0x1134 <SerSpeed+0x8>
    1132:	21 e0       	ldi	r18, 0x01	; 1
    TCB0_CCMP = ((uint16_t)(0xFF-serSpd)<<8) + 0xFF;
    1134:	8f ef       	ldi	r24, 0xFF	; 255
    1136:	90 e0       	ldi	r25, 0x00	; 0
    1138:	82 1b       	sub	r24, r18
    113a:	91 09       	sbc	r25, r1
    113c:	98 2f       	mov	r25, r24
    113e:	88 27       	eor	r24, r24
    1140:	81 50       	subi	r24, 0x01	; 1
    1142:	9f 4f       	sbci	r25, 0xFF	; 255
    1144:	80 93 4c 0a 	sts	0x0A4C, r24	; 0x800a4c <__TEXT_REGION_LENGTH__+0x700a4c>
    1148:	90 93 4d 0a 	sts	0x0A4D, r25	; 0x800a4d <__TEXT_REGION_LENGTH__+0x700a4d>
    114c:	08 95       	ret

0000114e <SelectTSens>:
};

// Select temperature sensor
void SelectTSens(){
     VREF_CTRLA   = 0x12;    //0x22 for audio in/out (2.5V), 0x12 for temperature in, audio out (1.1V/2.5V)
    114e:	82 e1       	ldi	r24, 0x12	; 18
    1150:	80 93 a0 00 	sts	0x00A0, r24	; 0x8000a0 <__TEXT_REGION_LENGTH__+0x7000a0>
     ADC0_CTRLA   &= ~(ADC_RESSEL_bm);
    1154:	e0 e0       	ldi	r30, 0x00	; 0
    1156:	f6 e0       	ldi	r31, 0x06	; 6
    1158:	80 81       	ld	r24, Z
    115a:	8b 7f       	andi	r24, 0xFB	; 251
    115c:	80 83       	st	Z, r24
     ADC0_MUXPOS  = 0x1E;    //Audio in: AIN7 at (0x07), Temperature: Internal sensor at (0x1E)
    115e:	8e e1       	ldi	r24, 0x1E	; 30
    1160:	80 93 06 06 	sts	0x0606, r24	; 0x800606 <__TEXT_REGION_LENGTH__+0x700606>
     adc0Chg = 3;
    1164:	83 e0       	ldi	r24, 0x03	; 3
    1166:	80 93 3a 38 	sts	0x383A, r24	; 0x80383a <adc0Chg>
    116a:	08 95       	ret

0000116c <SelectAuIn>:
};

// Select "audio" input (0-2.5V)
void SelectAuIn(){
     VREF_CTRLA   = 0x22;    //0x22 for audio in/out (2.5V), 0x12 for temperature in, audio out (1.1V/2.5V)
    116c:	82 e2       	ldi	r24, 0x22	; 34
    116e:	80 93 a0 00 	sts	0x00A0, r24	; 0x8000a0 <__TEXT_REGION_LENGTH__+0x7000a0>
     ADC0_CTRLA   |= ADC_RESSEL_bm;
    1172:	e0 e0       	ldi	r30, 0x00	; 0
    1174:	f6 e0       	ldi	r31, 0x06	; 6
    1176:	80 81       	ld	r24, Z
    1178:	84 60       	ori	r24, 0x04	; 4
    117a:	80 83       	st	Z, r24
     ADC0_MUXPOS  = 0x07;    //Audio in: AIN7 at (0x07), Temperature: Internal sensor at (0x1E)
    117c:	87 e0       	ldi	r24, 0x07	; 7
    117e:	80 93 06 06 	sts	0x0606, r24	; 0x800606 <__TEXT_REGION_LENGTH__+0x700606>
     adc0Chg = 3;
    1182:	83 e0       	ldi	r24, 0x03	; 3
    1184:	80 93 3a 38 	sts	0x383A, r24	; 0x80383a <adc0Chg>
    1188:	08 95       	ret

0000118a <CheckButtons>:
};

// Returns button combination (4LSB) and number of consecutive times this combination is detected. First read should always be ignored! 
uint8_t CheckButtons(){
    static uint8_t previousValue = 0xFF;
    uint8_t bADC = (uint8_t)(adcBtns>>4);
    118a:	80 91 b9 3a 	lds	r24, 0x3AB9	; 0x803ab9 <adcBtns>
    118e:	90 91 ba 3a 	lds	r25, 0x3ABA	; 0x803aba <adcBtns+0x1>
    uint8_t button = 0xFF;     //FF = released or error

        switch(bADC){
    1192:	24 e0       	ldi	r18, 0x04	; 4
    1194:	96 95       	lsr	r25
    1196:	87 95       	ror	r24
    1198:	2a 95       	dec	r18
    119a:	e1 f7       	brne	.-8      	; 0x1194 <CheckButtons+0xa>
    119c:	99 27       	eor	r25, r25
    119e:	80 36       	cpi	r24, 0x60	; 96
    11a0:	91 05       	cpc	r25, r1
    11a2:	40 f4       	brcc	.+16     	; 0x11b4 <CheckButtons+0x2a>
    11a4:	8f 34       	cpi	r24, 0x4F	; 79
    11a6:	91 05       	cpc	r25, r1
    11a8:	88 f4       	brcc	.+34     	; 0x11cc <CheckButtons+0x42>
    11aa:	c0 97       	sbiw	r24, 0x30	; 48
    11ac:	09 97       	sbiw	r24, 0x09	; 9
    11ae:	90 f4       	brcc	.+36     	; 0x11d4 <CheckButtons+0x4a>

            case 48 ... 56:          //52: Bottom left (+/-4)
            button = 2;
    11b0:	92 e0       	ldi	r25, 0x02	; 2
    11b2:	11 c0       	rjmp	.+34     	; 0x11d6 <CheckButtons+0x4c>
uint8_t CheckButtons(){
    static uint8_t previousValue = 0xFF;
    uint8_t bADC = (uint8_t)(adcBtns>>4);
    uint8_t button = 0xFF;     //FF = released or error

        switch(bADC){
    11b4:	85 37       	cpi	r24, 0x75	; 117
    11b6:	91 05       	cpc	r25, r1
    11b8:	68 f0       	brcs	.+26     	; 0x11d4 <CheckButtons+0x4a>
    11ba:	8e 38       	cpi	r24, 0x8E	; 142
    11bc:	91 05       	cpc	r25, r1
    11be:	40 f0       	brcs	.+16     	; 0x11d0 <CheckButtons+0x46>
    11c0:	8e 59       	subi	r24, 0x9E	; 158
    11c2:	91 09       	sbc	r25, r1
    11c4:	81 97       	sbiw	r24, 0x21	; 33
    11c6:	30 f4       	brcc	.+12     	; 0x11d4 <CheckButtons+0x4a>
            case 117 ... 141:        //129: Top right (+/- 12)
            button = 1;
            break;

            case 158 ... 190:        //174: Bottom right (+/- 16)
            button = 0;
    11c8:	90 e0       	ldi	r25, 0x00	; 0
            break;
    11ca:	05 c0       	rjmp	.+10     	; 0x11d6 <CheckButtons+0x4c>
            case 48 ... 56:          //52: Bottom left (+/-4)
            button = 2;
            break;

            case 79 ... 95:          //87: Top left (+/-8)
            button = 3;
    11cc:	93 e0       	ldi	r25, 0x03	; 3
            break;
    11ce:	03 c0       	rjmp	.+6      	; 0x11d6 <CheckButtons+0x4c>

            case 117 ... 141:        //129: Top right (+/- 12)
            button = 1;
    11d0:	91 e0       	ldi	r25, 0x01	; 1
            break;
    11d2:	01 c0       	rjmp	.+2      	; 0x11d6 <CheckButtons+0x4c>

// Returns button combination (4LSB) and number of consecutive times this combination is detected. First read should always be ignored! 
uint8_t CheckButtons(){
    static uint8_t previousValue = 0xFF;
    uint8_t bADC = (uint8_t)(adcBtns>>4);
    uint8_t button = 0xFF;     //FF = released or error
    11d4:	9f ef       	ldi	r25, 0xFF	; 255
            case 158 ... 190:        //174: Bottom right (+/- 16)
            button = 0;
            break;
        }

        if (((previousValue+1)== 0) || (button != previousValue)) {
    11d6:	80 91 27 38 	lds	r24, 0x3827	; 0x803827 <previousValue.3900>
    11da:	98 17       	cp	r25, r24
    11dc:	19 f0       	breq	.+6      	; 0x11e4 <CheckButtons+0x5a>
            previousValue = button;
    11de:	90 93 27 38 	sts	0x3827, r25	; 0x803827 <previousValue.3900>
            return 0xFF;
    11e2:	8f ef       	ldi	r24, 0xFF	; 255
        } else return button;

}
    11e4:	08 95       	ret

000011e6 <lfsr>:

uint8_t lfsr(){
    static uint16_t state = 0xd401;
    state ^= (state << 13);
    11e6:	80 91 25 38 	lds	r24, 0x3825	; 0x803825 <state.3910>
    11ea:	90 91 26 38 	lds	r25, 0x3826	; 0x803826 <state.3910+0x1>
    11ee:	9c 01       	movw	r18, r24
    11f0:	32 2f       	mov	r19, r18
    11f2:	22 27       	eor	r18, r18
    11f4:	32 95       	swap	r19
    11f6:	33 0f       	add	r19, r19
    11f8:	30 7e       	andi	r19, 0xE0	; 224
    11fa:	82 27       	eor	r24, r18
    11fc:	93 27       	eor	r25, r19
    state ^= (state >> 9);
    11fe:	9c 01       	movw	r18, r24
    1200:	23 2f       	mov	r18, r19
    1202:	33 27       	eor	r19, r19
    1204:	26 95       	lsr	r18
    1206:	82 27       	eor	r24, r18
    1208:	93 27       	eor	r25, r19
    state ^= (state << 7);
    120a:	9c 01       	movw	r18, r24
    120c:	36 95       	lsr	r19
    120e:	32 2f       	mov	r19, r18
    1210:	22 27       	eor	r18, r18
    1212:	37 95       	ror	r19
    1214:	27 95       	ror	r18
    1216:	82 27       	eor	r24, r18
    1218:	93 27       	eor	r25, r19
    121a:	80 93 25 38 	sts	0x3825, r24	; 0x803825 <state.3910>
    121e:	90 93 26 38 	sts	0x3826, r25	; 0x803826 <state.3910+0x1>
    return (state & 0xff);
}
    1222:	08 95       	ret

00001224 <floatSpeed>:

void floatSpeed(uint8_t bits, uint16_t min, uint16_t max){
    1224:	df 92       	push	r13
    1226:	ef 92       	push	r14
    1228:	ff 92       	push	r15
    122a:	0f 93       	push	r16
    122c:	1f 93       	push	r17
    122e:	cf 93       	push	r28
    1230:	df 93       	push	r29
    1232:	7b 01       	movw	r14, r22
    1234:	8a 01       	movw	r16, r20
    uint16_t val = TCB1_CCMP;
    1236:	c0 91 5c 0a 	lds	r28, 0x0A5C	; 0x800a5c <__TEXT_REGION_LENGTH__+0x700a5c>
    123a:	d0 91 5d 0a 	lds	r29, 0x0A5D	; 0x800a5d <__TEXT_REGION_LENGTH__+0x700a5d>
    bits = mask[(bits-1)&0x07];
    123e:	e8 2f       	mov	r30, r24
    1240:	f0 e0       	ldi	r31, 0x00	; 0
    1242:	31 97       	sbiw	r30, 0x01	; 1
    1244:	e7 70       	andi	r30, 0x07	; 7
    1246:	ff 27       	eor	r31, r31
    1248:	e8 5d       	subi	r30, 0xD8	; 216
    124a:	f7 4c       	sbci	r31, 0xC7	; 199
    124c:	d0 80       	ld	r13, Z
    val += (lfsr()&bits);
    124e:	cb df       	rcall	.-106    	; 0x11e6 <lfsr>
    1250:	8d 21       	and	r24, r13
    1252:	c8 0f       	add	r28, r24
    1254:	d1 1d       	adc	r29, r1
    val -= (lfsr()&bits);
    1256:	c7 df       	rcall	.-114    	; 0x11e6 <lfsr>
    1258:	8d 21       	and	r24, r13
    125a:	c8 1b       	sub	r28, r24
    125c:	d1 09       	sbc	r29, r1
    125e:	0c 17       	cp	r16, r28
    1260:	1d 07       	cpc	r17, r29
    1262:	08 f4       	brcc	.+2      	; 0x1266 <floatSpeed+0x42>
    1264:	e8 01       	movw	r28, r16
    1266:	c7 01       	movw	r24, r14
    1268:	ec 16       	cp	r14, r28
    126a:	fd 06       	cpc	r15, r29
    126c:	08 f4       	brcc	.+2      	; 0x1270 <floatSpeed+0x4c>
    126e:	ce 01       	movw	r24, r28
    1270:	80 93 5c 0a 	sts	0x0A5C, r24	; 0x800a5c <__TEXT_REGION_LENGTH__+0x700a5c>
    if (val > max) val = max;    
    if (val < min) val = min;  
    TCB1_CCMP = val;
    1274:	90 93 5d 0a 	sts	0x0A5D, r25	; 0x800a5d <__TEXT_REGION_LENGTH__+0x700a5d>
    1278:	df 91       	pop	r29
}
    127a:	cf 91       	pop	r28
    127c:	1f 91       	pop	r17
    127e:	0f 91       	pop	r16
    1280:	ff 90       	pop	r15
    1282:	ef 90       	pop	r14
    1284:	df 90       	pop	r13
    1286:	08 95       	ret

00001288 <floatAround>:
    1288:	0f 93       	push	r16

uint8_t floatAround(uint8_t sample, uint8_t bits, uint8_t min, uint8_t max){
    128a:	1f 93       	push	r17
    128c:	cf 93       	push	r28
    128e:	df 93       	push	r29
    1290:	c8 2f       	mov	r28, r24
    1292:	d4 2f       	mov	r29, r20
    1294:	02 2f       	mov	r16, r18
    bits = mask[(bits-1)&0x07];
    1296:	e6 2f       	mov	r30, r22
    1298:	f0 e0       	ldi	r31, 0x00	; 0
    129a:	31 97       	sbiw	r30, 0x01	; 1
    129c:	e7 70       	andi	r30, 0x07	; 7
    129e:	ff 27       	eor	r31, r31
    12a0:	e8 5d       	subi	r30, 0xD8	; 216
    12a2:	f7 4c       	sbci	r31, 0xC7	; 199
    12a4:	10 81       	ld	r17, Z
    sample += lfsr()&bits;
    12a6:	9f df       	rcall	.-194    	; 0x11e6 <lfsr>
    12a8:	81 23       	and	r24, r17
    12aa:	c8 0f       	add	r28, r24
    sample -= lfsr()&bits;
    12ac:	9c df       	rcall	.-200    	; 0x11e6 <lfsr>
    12ae:	81 23       	and	r24, r17
    12b0:	c8 1b       	sub	r28, r24
    12b2:	8c 2f       	mov	r24, r28
    12b4:	00 23       	and	r16, r16
    if (max){
    12b6:	41 f0       	breq	.+16     	; 0x12c8 <floatAround+0x40>
    12b8:	9c 2f       	mov	r25, r28
    12ba:	0c 17       	cp	r16, r28
    12bc:	08 f4       	brcc	.+2      	; 0x12c0 <floatAround+0x38>
    12be:	90 2f       	mov	r25, r16
    12c0:	8d 2f       	mov	r24, r29
    12c2:	d9 17       	cp	r29, r25
    12c4:	08 f4       	brcc	.+2      	; 0x12c8 <floatAround+0x40>
    12c6:	89 2f       	mov	r24, r25
    12c8:	41 e0       	ldi	r20, 0x01	; 1
        if (sample > max) sample = max;
        if (sample < min) sample = min;
    }
    if (min & (sample < min)) sample = min;
    12ca:	50 e0       	ldi	r21, 0x00	; 0
    12cc:	8d 17       	cp	r24, r29
    12ce:	10 f0       	brcs	.+4      	; 0x12d4 <floatAround+0x4c>
    12d0:	40 e0       	ldi	r20, 0x00	; 0
    12d2:	50 e0       	ldi	r21, 0x00	; 0
    12d4:	2d 2f       	mov	r18, r29
    12d6:	30 e0       	ldi	r19, 0x00	; 0
    12d8:	24 23       	and	r18, r20
    12da:	35 23       	and	r19, r21
    12dc:	23 2b       	or	r18, r19
    12de:	09 f0       	breq	.+2      	; 0x12e2 <floatAround+0x5a>
    12e0:	8d 2f       	mov	r24, r29
    12e2:	df 91       	pop	r29

    return sample;
}
    12e4:	cf 91       	pop	r28
    12e6:	1f 91       	pop	r17
    12e8:	0f 91       	pop	r16
    12ea:	08 95       	ret

000012ec <SaveGameState>:
    12ec:	cf 92       	push	r12
    inventory[0] = (gameState[INVADDR]<<8|gameState[INVADDR+1]);
    inventory[1] = (gameState[INVADDR+2]<<8|gameState[INVADDR+3]);
}

//Save changed data to EEPROM
uint8_t SaveGameState(){
    12ee:	df 92       	push	r13
    12f0:	ff 92       	push	r15
    12f2:	0f 93       	push	r16
    12f4:	1f 93       	push	r17
    12f6:	cf 93       	push	r28
    12f8:	df 93       	push	r29
    12fa:	cd b7       	in	r28, 0x3d	; 61
    12fc:	de b7       	in	r29, 0x3e	; 62
    12fe:	64 97       	sbiw	r28, 0x14	; 20
    1300:	cd bf       	out	0x3d, r28	; 61
    1302:	de bf       	out	0x3e, r29	; 62
    uint8_t gameCheck[BOOTCHK];

    //Read all data up to the boot/check result address from EEPROM
    EERead(0, &gameCheck[0], BOOTCHK);
    1304:	44 e1       	ldi	r20, 0x14	; 20
    1306:	be 01       	movw	r22, r28
    1308:	6f 5f       	subi	r22, 0xFF	; 255
    130a:	7f 4f       	sbci	r23, 0xFF	; 255
    130c:	80 e0       	ldi	r24, 0x00	; 0
    130e:	79 de       	rcall	.-782    	; 0x1002 <EERead>
    1310:	83 e6       	ldi	r24, 0x63	; 99
    1312:	c8 2e       	mov	r12, r24
    1314:	8a e3       	ldi	r24, 0x3A	; 58
    1316:	d8 2e       	mov	r13, r24
    1318:	8e 01       	movw	r16, r28
    131a:	0f 5f       	subi	r16, 0xFF	; 255
    131c:	1f 4f       	sbci	r17, 0xFF	; 255

    //Check game status bits
    for (uint8_t x=0; x<STATLEN; ++x){
    131e:	f1 2c       	mov	r15, r1
        if (gameState[x] != gameCheck[x]){
    1320:	f8 01       	movw	r30, r16
    1322:	81 91       	ld	r24, Z+
    1324:	8f 01       	movw	r16, r30
    1326:	f6 01       	movw	r30, r12
    1328:	90 81       	ld	r25, Z
    132a:	98 13       	cpse	r25, r24
    132c:	08 c0       	rjmp	.+16     	; 0x133e <SaveGameState+0x52>

    //Read all data up to the boot/check result address from EEPROM
    EERead(0, &gameCheck[0], BOOTCHK);

    //Check game status bits
    for (uint8_t x=0; x<STATLEN; ++x){
    132e:	f3 94       	inc	r15
    1330:	ff ef       	ldi	r31, 0xFF	; 255
    1332:	cf 1a       	sub	r12, r31
    1334:	df 0a       	sbc	r13, r31
    1336:	80 e1       	ldi	r24, 0x10	; 16
    1338:	f8 12       	cpse	r15, r24
    133a:	f2 cf       	rjmp	.-28     	; 0x1320 <SaveGameState+0x34>
    133c:	08 c0       	rjmp	.+16     	; 0x134e <SaveGameState+0x62>
        if (gameState[x] != gameCheck[x]){
            if (EEWrite(x, &gameState[x], 1)) return 1;
    133e:	41 e0       	ldi	r20, 0x01	; 1
    1340:	b6 01       	movw	r22, r12
    1342:	8f 2d       	mov	r24, r15
    1344:	6e de       	rcall	.-804    	; 0x1022 <EEWrite>
    1346:	88 23       	and	r24, r24
    1348:	91 f3       	breq	.-28     	; 0x132e <SaveGameState+0x42>
    134a:	91 e0       	ldi	r25, 0x01	; 1
    134c:	36 c0       	rjmp	.+108    	; 0x13ba <SaveGameState+0xce>
        }
    }

    //Check the inventory too
    gameState[INVADDR] = (uint8_t)(inventory[0]>>8);
    134e:	20 91 40 38 	lds	r18, 0x3840	; 0x803840 <inventory>
    1352:	30 91 41 38 	lds	r19, 0x3841	; 0x803841 <inventory+0x1>
    1356:	30 93 73 3a 	sts	0x3A73, r19	; 0x803a73 <gameState+0x10>
    gameState[INVADDR+1] = (uint8_t)(inventory[0]&0xff);
    135a:	20 93 74 3a 	sts	0x3A74, r18	; 0x803a74 <gameState+0x11>
    gameState[INVADDR+2] = (uint8_t)(inventory[1]>>8);
    135e:	80 91 42 38 	lds	r24, 0x3842	; 0x803842 <inventory+0x2>
    1362:	90 91 43 38 	lds	r25, 0x3843	; 0x803843 <inventory+0x3>
    1366:	90 93 75 3a 	sts	0x3A75, r25	; 0x803a75 <gameState+0x12>
    gameState[INVADDR+3] = (uint8_t)(inventory[1]&0xff);
    136a:	80 93 76 3a 	sts	0x3A76, r24	; 0x803a76 <gameState+0x13>
    if (inventory[0] != (gameCheck[INVADDR]<<8|gameCheck[INVADDR+1])) {
    136e:	89 89       	ldd	r24, Y+17	; 0x11
    1370:	9a 89       	ldd	r25, Y+18	; 0x12
    1372:	98 27       	eor	r25, r24
    1374:	89 27       	eor	r24, r25
    1376:	98 27       	eor	r25, r24
    1378:	28 17       	cp	r18, r24
    137a:	39 07       	cpc	r19, r25
    137c:	69 f4       	brne	.+26     	; 0x1398 <SaveGameState+0xac>
        if (EEWrite(INVADDR, &gameState[INVADDR], 2)) return 1;
    }
    if (inventory[1] != (gameCheck[INVADDR+2]<<8|gameCheck[INVADDR+3])) {
    137e:	8b 89       	ldd	r24, Y+19	; 0x13
    1380:	9c 89       	ldd	r25, Y+20	; 0x14
    1382:	98 27       	eor	r25, r24
    1384:	89 27       	eor	r24, r25
    1386:	98 27       	eor	r25, r24
    1388:	20 91 42 38 	lds	r18, 0x3842	; 0x803842 <inventory+0x2>
    138c:	30 91 43 38 	lds	r19, 0x3843	; 0x803843 <inventory+0x3>
    1390:	28 17       	cp	r18, r24
    1392:	39 07       	cpc	r19, r25
    1394:	49 f4       	brne	.+18     	; 0x13a8 <SaveGameState+0xbc>
    1396:	10 c0       	rjmp	.+32     	; 0x13b8 <SaveGameState+0xcc>
    gameState[INVADDR] = (uint8_t)(inventory[0]>>8);
    gameState[INVADDR+1] = (uint8_t)(inventory[0]&0xff);
    gameState[INVADDR+2] = (uint8_t)(inventory[1]>>8);
    gameState[INVADDR+3] = (uint8_t)(inventory[1]&0xff);
    if (inventory[0] != (gameCheck[INVADDR]<<8|gameCheck[INVADDR+1])) {
        if (EEWrite(INVADDR, &gameState[INVADDR], 2)) return 1;
    1398:	42 e0       	ldi	r20, 0x02	; 2
    139a:	63 e7       	ldi	r22, 0x73	; 115
    139c:	7a e3       	ldi	r23, 0x3A	; 58
    139e:	80 e1       	ldi	r24, 0x10	; 16
    13a0:	40 de       	rcall	.-896    	; 0x1022 <EEWrite>
    13a2:	88 23       	and	r24, r24
    13a4:	61 f3       	breq	.-40     	; 0x137e <SaveGameState+0x92>
    13a6:	d1 cf       	rjmp	.-94     	; 0x134a <SaveGameState+0x5e>
    }
    if (inventory[1] != (gameCheck[INVADDR+2]<<8|gameCheck[INVADDR+3])) {
        if (EEWrite(INVADDR+2, &gameState[INVADDR+2], 2)) return 1;
    13a8:	42 e0       	ldi	r20, 0x02	; 2
    13aa:	65 e7       	ldi	r22, 0x75	; 117
    13ac:	7a e3       	ldi	r23, 0x3A	; 58
    13ae:	82 e1       	ldi	r24, 0x12	; 18
    13b0:	38 de       	rcall	.-912    	; 0x1022 <EEWrite>
    EERead(0, &gameCheck[0], BOOTCHK);

    //Check game status bits
    for (uint8_t x=0; x<STATLEN; ++x){
        if (gameState[x] != gameCheck[x]){
            if (EEWrite(x, &gameState[x], 1)) return 1;
    13b2:	91 e0       	ldi	r25, 0x01	; 1
    13b4:	81 11       	cpse	r24, r1
    13b6:	01 c0       	rjmp	.+2      	; 0x13ba <SaveGameState+0xce>
    13b8:	90 e0       	ldi	r25, 0x00	; 0
    if (inventory[1] != (gameCheck[INVADDR+2]<<8|gameCheck[INVADDR+3])) {
        if (EEWrite(INVADDR+2, &gameState[INVADDR+2], 2)) return 1;
    }

    return 0;
}
    13ba:	89 2f       	mov	r24, r25
    13bc:	64 96       	adiw	r28, 0x14	; 20
    13be:	cd bf       	out	0x3d, r28	; 61
    13c0:	de bf       	out	0x3e, r29	; 62
    13c2:	df 91       	pop	r29
    13c4:	cf 91       	pop	r28
    13c6:	1f 91       	pop	r17
    13c8:	0f 91       	pop	r16
    13ca:	ff 90       	pop	r15
    13cc:	df 90       	pop	r13
    13ce:	cf 90       	pop	r12
    13d0:	08 95       	ret

000013d2 <ReadStatusBit>:

uint8_t ReadStatusBit(uint8_t number){
    number &= 0x7f;
    if (gameState[number>>3] & (1<<(number&7))) return 1; else return 0;
    13d2:	e8 2f       	mov	r30, r24
    13d4:	ef 77       	andi	r30, 0x7F	; 127
    13d6:	e6 95       	lsr	r30
    13d8:	e6 95       	lsr	r30
    13da:	e6 95       	lsr	r30
    13dc:	f0 e0       	ldi	r31, 0x00	; 0
    13de:	ed 59       	subi	r30, 0x9D	; 157
    13e0:	f5 4c       	sbci	r31, 0xC5	; 197
    13e2:	20 81       	ld	r18, Z
    13e4:	30 e0       	ldi	r19, 0x00	; 0
    13e6:	87 70       	andi	r24, 0x07	; 7
    13e8:	a9 01       	movw	r20, r18
    13ea:	02 c0       	rjmp	.+4      	; 0x13f0 <ReadStatusBit+0x1e>
    13ec:	55 95       	asr	r21
    13ee:	47 95       	ror	r20
    13f0:	8a 95       	dec	r24
    13f2:	e2 f7       	brpl	.-8      	; 0x13ec <ReadStatusBit+0x1a>
    13f4:	ca 01       	movw	r24, r20
}
    13f6:	81 70       	andi	r24, 0x01	; 1
    13f8:	08 95       	ret

000013fa <UpdateState>:

//Update game state: num -> vBBBBbbb v=value(0 is set!), BBBB=Byte number, bbb=bit number
void UpdateState(uint8_t num){
    uint8_t clearBit = num & 0x80;
    num &= 0x7f;
    13fa:	e8 2f       	mov	r30, r24
    13fc:	ef 77       	andi	r30, 0x7F	; 127
    
    if (num) {
    13fe:	e9 f0       	breq	.+58     	; 0x143a <UpdateState+0x40>
    1400:	e6 95       	lsr	r30
    1402:	e6 95       	lsr	r30
    1404:	e6 95       	lsr	r30
    1406:	28 2f       	mov	r18, r24
    1408:	27 70       	andi	r18, 0x07	; 7
        if (clearBit) {
            gameState[num>>3] &= ~(1<<(num&7));
    140a:	f0 e0       	ldi	r31, 0x00	; 0
    140c:	ed 59       	subi	r30, 0x9D	; 157
    140e:	f5 4c       	sbci	r31, 0xC5	; 197
void UpdateState(uint8_t num){
    uint8_t clearBit = num & 0x80;
    num &= 0x7f;
    
    if (num) {
        if (clearBit) {
    1410:	87 ff       	sbrs	r24, 7
    1412:	0a c0       	rjmp	.+20     	; 0x1428 <UpdateState+0x2e>
            gameState[num>>3] &= ~(1<<(num&7));
    1414:	81 e0       	ldi	r24, 0x01	; 1
    1416:	90 e0       	ldi	r25, 0x00	; 0
    1418:	01 c0       	rjmp	.+2      	; 0x141c <UpdateState+0x22>
    141a:	88 0f       	add	r24, r24
    141c:	2a 95       	dec	r18
    141e:	ea f7       	brpl	.-6      	; 0x141a <UpdateState+0x20>
    1420:	80 95       	com	r24
    1422:	90 81       	ld	r25, Z
    1424:	89 23       	and	r24, r25
    1426:	08 c0       	rjmp	.+16     	; 0x1438 <UpdateState+0x3e>
        } else {
            gameState[num>>3] |= 1<<(num&7);
    1428:	81 e0       	ldi	r24, 0x01	; 1
    142a:	90 e0       	ldi	r25, 0x00	; 0
    142c:	01 c0       	rjmp	.+2      	; 0x1430 <UpdateState+0x36>
    142e:	88 0f       	add	r24, r24
    1430:	2a 95       	dec	r18
    1432:	ea f7       	brpl	.-6      	; 0x142e <UpdateState+0x34>
    1434:	90 81       	ld	r25, Z
    1436:	89 2b       	or	r24, r25
    1438:	80 83       	st	Z, r24
    143a:	08 95       	ret

0000143c <CheckState>:
        }
    }
}

//Checks if state of bit BBBBbbb matches with v (inverted) bit
uint8_t CheckState(uint8_t num){
    143c:	cf 93       	push	r28
    143e:	c8 2f       	mov	r28, r24
    uint8_t bitSet = 0;
    if (ReadStatusBit(num & 0x7f)){
    1440:	8f 77       	andi	r24, 0x7F	; 127
    1442:	c7 df       	rcall	.-114    	; 0x13d2 <ReadStatusBit>
    1444:	2c 2f       	mov	r18, r28
    1446:	22 1f       	adc	r18, r18
    1448:	22 27       	eor	r18, r18
    144a:	22 1f       	adc	r18, r18
    144c:	91 e0       	ldi	r25, 0x01	; 1
    144e:	81 11       	cpse	r24, r1
    1450:	01 c0       	rjmp	.+2      	; 0x1454 <CheckState+0x18>
    1452:	90 e0       	ldi	r25, 0x00	; 0
    }
    if (((num & 0x80)>0)^(bitSet>0)){
        return 1;
    }
    return 0;
}
    1454:	82 2f       	mov	r24, r18
    1456:	89 27       	eor	r24, r25
    1458:	cf 91       	pop	r28
    145a:	08 95       	ret

0000145c <getID>:

//Give out a number 0..3, calculated using serial number fields
uint8_t getID(){
    uint8_t id = 0;
    uint8_t *serNum;
    serNum = (uint8_t*)&SIGROW_SERNUM0;
    145c:	e3 e0       	ldi	r30, 0x03	; 3
    145e:	f1 e1       	ldi	r31, 0x11	; 17
    return 0;
}

//Give out a number 0..3, calculated using serial number fields
uint8_t getID(){
    uint8_t id = 0;
    1460:	80 e0       	ldi	r24, 0x00	; 0
    uint8_t *serNum;
    serNum = (uint8_t*)&SIGROW_SERNUM0;

    for (uint8_t x=0; x<10; ++x){
        id += *serNum;
    1462:	91 91       	ld	r25, Z+
    1464:	89 0f       	add	r24, r25
uint8_t getID(){
    uint8_t id = 0;
    uint8_t *serNum;
    serNum = (uint8_t*)&SIGROW_SERNUM0;

    for (uint8_t x=0; x<10; ++x){
    1466:	ed 30       	cpi	r30, 0x0D	; 13
    1468:	91 e1       	ldi	r25, 0x11	; 17
    146a:	f9 07       	cpc	r31, r25
    146c:	d1 f7       	brne	.-12     	; 0x1462 <getID+0x6>
        id += *serNum;
        ++serNum;
    }
    id %= 4;
    146e:	83 70       	andi	r24, 0x03	; 3
    whoami = id+1;
    1470:	91 e0       	ldi	r25, 0x01	; 1
    1472:	98 0f       	add	r25, r24
    1474:	90 93 3f 38 	sts	0x383F, r25	; 0x80383f <whoami>
    return id;
}
    1478:	08 95       	ret

0000147a <Reset>:

void Reset(){
    147a:	cf 93       	push	r28
    147c:	e3 e6       	ldi	r30, 0x63	; 99
    147e:	fa e3       	ldi	r31, 0x3A	; 58
    //# 110   set to 1 by FW if badge UUID mod 4 == 0
    //# 111   set to 1 by FW if badge UUID mod 4 == 1
    //# 112   set to 1 by FW if badge UUID mod 4 == 2
    //# 113   set to 1 by FW if badge UUID mod 4 == 3
    for (uint8_t x=0; x<sizeof(gameState); ++x){
        gameState[x] = 0;
    1480:	11 92       	st	Z+, r1
    //Reset game progress (all zeros) and load some bits:
    //# 110   set to 1 by FW if badge UUID mod 4 == 0
    //# 111   set to 1 by FW if badge UUID mod 4 == 1
    //# 112   set to 1 by FW if badge UUID mod 4 == 2
    //# 113   set to 1 by FW if badge UUID mod 4 == 3
    for (uint8_t x=0; x<sizeof(gameState); ++x){
    1482:	8a e3       	ldi	r24, 0x3A	; 58
    1484:	e7 37       	cpi	r30, 0x77	; 119
    1486:	f8 07       	cpc	r31, r24
    1488:	d9 f7       	brne	.-10     	; 0x1480 <Reset+0x6>
        gameState[x] = 0;
    }

    uint8_t id = getID();
    148a:	e8 df       	rcall	.-48     	; 0x145c <getID>
    148c:	c8 2f       	mov	r28, r24

    //Write bit in gameState location 110..113
    if (id == 0) UpdateState(110);
    148e:	81 11       	cpse	r24, r1
    1490:	02 c0       	rjmp	.+4      	; 0x1496 <Reset+0x1c>
    1492:	8e e6       	ldi	r24, 0x6E	; 110
    1494:	0b c0       	rjmp	.+22     	; 0x14ac <Reset+0x32>
    else if (id == 1) UpdateState(111);
    1496:	81 30       	cpi	r24, 0x01	; 1
    1498:	11 f4       	brne	.+4      	; 0x149e <Reset+0x24>
    149a:	8f e6       	ldi	r24, 0x6F	; 111
    149c:	07 c0       	rjmp	.+14     	; 0x14ac <Reset+0x32>
    else if (id == 2) UpdateState(112);
    149e:	82 30       	cpi	r24, 0x02	; 2
    14a0:	11 f4       	brne	.+4      	; 0x14a6 <Reset+0x2c>
    14a2:	80 e7       	ldi	r24, 0x70	; 112
    14a4:	03 c0       	rjmp	.+6      	; 0x14ac <Reset+0x32>
    else if (id == 3) UpdateState(113);
    14a6:	83 30       	cpi	r24, 0x03	; 3
    14a8:	11 f4       	brne	.+4      	; 0x14ae <Reset+0x34>
    14aa:	81 e7       	ldi	r24, 0x71	; 113
    14ac:	a6 df       	rcall	.-180    	; 0x13fa <UpdateState>
    UpdateState(100+id);
    14ae:	84 e6       	ldi	r24, 0x64	; 100

    //Write bit 0, must always be 1!

}
    14b0:	8c 0f       	add	r24, r28
    //Write bit in gameState location 110..113
    if (id == 0) UpdateState(110);
    else if (id == 1) UpdateState(111);
    else if (id == 2) UpdateState(112);
    else if (id == 3) UpdateState(113);
    UpdateState(100+id);
    14b2:	cf 91       	pop	r28
    14b4:	a2 cf       	rjmp	.-188    	; 0x13fa <UpdateState>

000014b6 <LoadGameState>:

    return sample;
}

//Load game status
void LoadGameState(){
    14b6:	cf 93       	push	r28
    14b8:	df 93       	push	r29
    EERead(0, &gameState[0], BOOTCHK);   //Load game status bits from EEPROM
    14ba:	44 e1       	ldi	r20, 0x14	; 20
    14bc:	63 e6       	ldi	r22, 0x63	; 99
    14be:	7a e3       	ldi	r23, 0x3A	; 58
    14c0:	80 e0       	ldi	r24, 0x00	; 0
    14c2:	9f dd       	rcall	.-1218   	; 0x1002 <EERead>
    14c4:	ce e6       	ldi	r28, 0x6E	; 110

    uint8_t idSet = 0;
    14c6:	d0 e0       	ldi	r29, 0x00	; 0
    for (uint8_t x=0; x<4; ++x){
        idSet += ReadStatusBit(110+x);
    14c8:	8c 2f       	mov	r24, r28
    14ca:	83 df       	rcall	.-250    	; 0x13d2 <ReadStatusBit>
    14cc:	d8 0f       	add	r29, r24
    14ce:	cf 5f       	subi	r28, 0xFF	; 255
//Load game status
void LoadGameState(){
    EERead(0, &gameState[0], BOOTCHK);   //Load game status bits from EEPROM

    uint8_t idSet = 0;
    for (uint8_t x=0; x<4; ++x){
    14d0:	c2 37       	cpi	r28, 0x72	; 114
    14d2:	d1 f7       	brne	.-12     	; 0x14c8 <LoadGameState+0x12>
        idSet += ReadStatusBit(110+x);
    }

    //Check if badge is reset(0 = cheated!) or new(3) or error(2)
    if (idSet != 1) {
    14d4:	d1 30       	cpi	r29, 0x01	; 1
        Reset();
    14d6:	11 f0       	breq	.+4      	; 0x14dc <LoadGameState+0x26>
    14d8:	d0 df       	rcall	.-96     	; 0x147a <Reset>
    } else getID();
    14da:	01 c0       	rjmp	.+2      	; 0x14de <LoadGameState+0x28>
    14dc:	bf df       	rcall	.-130    	; 0x145c <getID>

    inventory[0] = (gameState[INVADDR]<<8|gameState[INVADDR+1]);
    14de:	80 91 73 3a 	lds	r24, 0x3A73	; 0x803a73 <gameState+0x10>
    14e2:	90 91 74 3a 	lds	r25, 0x3A74	; 0x803a74 <gameState+0x11>
    14e6:	98 27       	eor	r25, r24
    14e8:	89 27       	eor	r24, r25
    14ea:	98 27       	eor	r25, r24
    14ec:	80 93 40 38 	sts	0x3840, r24	; 0x803840 <inventory>
    14f0:	90 93 41 38 	sts	0x3841, r25	; 0x803841 <inventory+0x1>
    inventory[1] = (gameState[INVADDR+2]<<8|gameState[INVADDR+3]);
    14f4:	80 91 75 3a 	lds	r24, 0x3A75	; 0x803a75 <gameState+0x12>
    14f8:	90 91 76 3a 	lds	r25, 0x3A76	; 0x803a76 <gameState+0x13>
    14fc:	98 27       	eor	r25, r24
    14fe:	89 27       	eor	r24, r25
    1500:	98 27       	eor	r25, r24
    1502:	80 93 42 38 	sts	0x3842, r24	; 0x803842 <inventory+0x2>
    1506:	90 93 43 38 	sts	0x3843, r25	; 0x803843 <inventory+0x3>
}
    150a:	df 91       	pop	r29
    150c:	cf 91       	pop	r28
    150e:	08 95       	ret

00001510 <HotSummer>:
    //Write bit 0, must always be 1!

}

//Sets specific game bits after the badge is heated for one and two times.
uint8_t HotSummer(){
    1510:	cf 93       	push	r28
    static uint8_t cooledDown = 0;

    if (CheckState(SUMMERS_COMPLETED)){
    1512:	86 e7       	ldi	r24, 0x76	; 118
    1514:	93 df       	rcall	.-218    	; 0x143c <CheckState>
    1516:	c8 2f       	mov	r28, r24
    1518:	88 23       	and	r24, r24
    151a:	81 f0       	breq	.+32     	; 0x153c <HotSummer+0x2c>
        iLED[SCARAB[R]] = 0;
    151c:	e0 91 38 bf 	lds	r30, 0xBF38	; 0x80bf38 <__bss_end+0x8424>
    1520:	f0 e0       	ldi	r31, 0x00	; 0
    1522:	eb 53       	subi	r30, 0x3B	; 59
    1524:	f5 4c       	sbci	r31, 0xC5	; 197
    1526:	10 82       	st	Z, r1
        iLED[SCARAB[G]] = dimValue;
    1528:	e0 91 39 bf 	lds	r30, 0xBF39	; 0x80bf39 <__bss_end+0x8425>
    152c:	f0 e0       	ldi	r31, 0x00	; 0
    152e:	80 91 0c 38 	lds	r24, 0x380C	; 0x80380c <dimValue>
    1532:	eb 53       	subi	r30, 0x3B	; 59
    1534:	f5 4c       	sbci	r31, 0xC5	; 197
    1536:	80 83       	st	Z, r24
        return 1;
    1538:	c1 e0       	ldi	r28, 0x01	; 1
    153a:	4c c0       	rjmp	.+152    	; 0x15d4 <HotSummer+0xc4>
    }

    if (CheckState(FIRST_SUMMER)) {
    153c:	85 e7       	ldi	r24, 0x75	; 117
    153e:	7e df       	rcall	.-260    	; 0x143c <CheckState>
    1540:	88 23       	and	r24, r24
    1542:	59 f1       	breq	.+86     	; 0x159a <HotSummer+0x8a>
        iLED[SCARAB[R]] = dimValue;
    1544:	e0 91 38 bf 	lds	r30, 0xBF38	; 0x80bf38 <__bss_end+0x8424>
    1548:	f0 e0       	ldi	r31, 0x00	; 0
    154a:	80 91 0c 38 	lds	r24, 0x380C	; 0x80380c <dimValue>
    154e:	eb 53       	subi	r30, 0x3B	; 59
    1550:	f5 4c       	sbci	r31, 0xC5	; 197
    1552:	80 83       	st	Z, r24
        if ((cooledDown) && (adcTemp >= (calTemp + 32))) {
    1554:	80 91 5b 38 	lds	r24, 0x385B	; 0x80385b <cooledDown.3965>
    1558:	88 23       	and	r24, r24
    155a:	79 f0       	breq	.+30     	; 0x157a <HotSummer+0x6a>
    155c:	80 91 c2 3a 	lds	r24, 0x3AC2	; 0x803ac2 <calTemp>
    1560:	90 91 c3 3a 	lds	r25, 0x3AC3	; 0x803ac3 <calTemp+0x1>
    1564:	20 91 ef 3a 	lds	r18, 0x3AEF	; 0x803aef <adcTemp>
    1568:	30 91 f0 3a 	lds	r19, 0x3AF0	; 0x803af0 <adcTemp+0x1>
    156c:	80 96       	adiw	r24, 0x20	; 32
    156e:	28 17       	cp	r18, r24
    1570:	39 07       	cpc	r19, r25
            UpdateState(SUMMERS_COMPLETED);
    1572:	18 f0       	brcs	.+6      	; 0x157a <HotSummer+0x6a>
    1574:	86 e7       	ldi	r24, 0x76	; 118
    1576:	41 df       	rcall	.-382    	; 0x13fa <UpdateState>
            return 0;
    1578:	2d c0       	rjmp	.+90     	; 0x15d4 <HotSummer+0xc4>
        }
        if (adcTemp <= (calTemp + 8)) cooledDown = 1;
    157a:	80 91 c2 3a 	lds	r24, 0x3AC2	; 0x803ac2 <calTemp>
    157e:	90 91 c3 3a 	lds	r25, 0x3AC3	; 0x803ac3 <calTemp+0x1>
    1582:	20 91 ef 3a 	lds	r18, 0x3AEF	; 0x803aef <adcTemp>
    1586:	30 91 f0 3a 	lds	r19, 0x3AF0	; 0x803af0 <adcTemp+0x1>
    158a:	08 96       	adiw	r24, 0x08	; 8
    158c:	82 17       	cp	r24, r18
    158e:	93 07       	cpc	r25, r19
    1590:	08 f1       	brcs	.+66     	; 0x15d4 <HotSummer+0xc4>
    1592:	81 e0       	ldi	r24, 0x01	; 1
    1594:	80 93 5b 38 	sts	0x385B, r24	; 0x80385b <cooledDown.3965>
    1598:	1d c0       	rjmp	.+58     	; 0x15d4 <HotSummer+0xc4>
                   
    } else {
        if (calTemp == 0) calTemp = adcTemp;
    159a:	80 91 c2 3a 	lds	r24, 0x3AC2	; 0x803ac2 <calTemp>
    159e:	90 91 c3 3a 	lds	r25, 0x3AC3	; 0x803ac3 <calTemp+0x1>
    15a2:	89 2b       	or	r24, r25
    15a4:	41 f4       	brne	.+16     	; 0x15b6 <HotSummer+0xa6>
    15a6:	80 91 ef 3a 	lds	r24, 0x3AEF	; 0x803aef <adcTemp>
    15aa:	90 91 f0 3a 	lds	r25, 0x3AF0	; 0x803af0 <adcTemp+0x1>
    15ae:	80 93 c2 3a 	sts	0x3AC2, r24	; 0x803ac2 <calTemp>
    15b2:	90 93 c3 3a 	sts	0x3AC3, r25	; 0x803ac3 <calTemp+0x1>
        if (adcTemp >= (calTemp + 32)) {
    15b6:	80 91 c2 3a 	lds	r24, 0x3AC2	; 0x803ac2 <calTemp>
    15ba:	90 91 c3 3a 	lds	r25, 0x3AC3	; 0x803ac3 <calTemp+0x1>
    15be:	20 91 ef 3a 	lds	r18, 0x3AEF	; 0x803aef <adcTemp>
    15c2:	30 91 f0 3a 	lds	r19, 0x3AF0	; 0x803af0 <adcTemp+0x1>
    15c6:	80 96       	adiw	r24, 0x20	; 32
    15c8:	28 17       	cp	r18, r24
    15ca:	39 07       	cpc	r19, r25
            UpdateState(FIRST_SUMMER);
    15cc:	18 f0       	brcs	.+6      	; 0x15d4 <HotSummer+0xc4>
    15ce:	85 e7       	ldi	r24, 0x75	; 117
    15d0:	14 df       	rcall	.-472    	; 0x13fa <UpdateState>
        }
    }
    return 0;
    15d2:	c0 e0       	ldi	r28, 0x00	; 0
}
    15d4:	8c 2f       	mov	r24, r28
    15d6:	cf 91       	pop	r28
    15d8:	08 95       	ret

000015da <WingBar>:

void WingBar(int8_t l, int8_t r) {
    15da:	ea e3       	ldi	r30, 0x3A	; 58
    15dc:	ff eb       	ldi	r31, 0xBF	; 191
    for (int8_t i=0; i<5; i++) {
    15de:	90 e0       	ldi	r25, 0x00	; 0
        if (i<l)
            iLED[WING[L][i]] = dimValue;
    15e0:	a5 81       	ldd	r26, Z+5	; 0x05
    15e2:	b0 e0       	ldi	r27, 0x00	; 0
    return 0;
}

void WingBar(int8_t l, int8_t r) {
    for (int8_t i=0; i<5; i++) {
        if (i<l)
    15e4:	98 17       	cp	r25, r24
    15e6:	34 f4       	brge	.+12     	; 0x15f4 <WingBar+0x1a>
            iLED[WING[L][i]] = dimValue;
    15e8:	20 91 0c 38 	lds	r18, 0x380C	; 0x80380c <dimValue>
    15ec:	ab 53       	subi	r26, 0x3B	; 59
    15ee:	b5 4c       	sbci	r27, 0xC5	; 197
    15f0:	2c 93       	st	X, r18
    15f2:	03 c0       	rjmp	.+6      	; 0x15fa <WingBar+0x20>
        else
            iLED[WING[L][i]] = 0;
    15f4:	ab 53       	subi	r26, 0x3B	; 59
    15f6:	b5 4c       	sbci	r27, 0xC5	; 197
    15f8:	1c 92       	st	X, r1
        if (i<r)
            iLED[WING[R][i]] = dimValue;
    15fa:	a0 81       	ld	r26, Z
    15fc:	b0 e0       	ldi	r27, 0x00	; 0
    for (int8_t i=0; i<5; i++) {
        if (i<l)
            iLED[WING[L][i]] = dimValue;
        else
            iLED[WING[L][i]] = 0;
        if (i<r)
    15fe:	96 17       	cp	r25, r22
    1600:	34 f4       	brge	.+12     	; 0x160e <WingBar+0x34>
            iLED[WING[R][i]] = dimValue;
    1602:	20 91 0c 38 	lds	r18, 0x380C	; 0x80380c <dimValue>
    1606:	ab 53       	subi	r26, 0x3B	; 59
    1608:	b5 4c       	sbci	r27, 0xC5	; 197
    160a:	2c 93       	st	X, r18
    160c:	03 c0       	rjmp	.+6      	; 0x1614 <WingBar+0x3a>
        else
            iLED[WING[R][i]] = 0;
    160e:	ab 53       	subi	r26, 0x3B	; 59
    1610:	b5 4c       	sbci	r27, 0xC5	; 197
    1612:	1c 92       	st	X, r1
    1614:	9f 5f       	subi	r25, 0xFF	; 255
    1616:	31 96       	adiw	r30, 0x01	; 1
    }
    return 0;
}

void WingBar(int8_t l, int8_t r) {
    for (int8_t i=0; i<5; i++) {
    1618:	95 30       	cpi	r25, 0x05	; 5
    161a:	11 f7       	brne	.-60     	; 0x15e0 <WingBar+0x6>
        if (i<r)
            iLED[WING[R][i]] = dimValue;
        else
            iLED[WING[R][i]] = 0;
    }
}
    161c:	08 95       	ret

0000161e <SetBothEyes>:

void SetBothEyes(uint8_t r, uint8_t g) {
    for (uint8_t i=0; i<2; i++) {
        iLED[EYE[R][i]] = r;
    161e:	a4 e4       	ldi	r26, 0x44	; 68
    1620:	bf eb       	ldi	r27, 0xBF	; 191
    1622:	ec 91       	ld	r30, X
    1624:	f0 e0       	ldi	r31, 0x00	; 0
    1626:	eb 53       	subi	r30, 0x3B	; 59
    1628:	f5 4c       	sbci	r31, 0xC5	; 197
    162a:	80 83       	st	Z, r24
        iLED[EYE[G][i]] = g;
    162c:	12 96       	adiw	r26, 0x02	; 2
    162e:	ec 91       	ld	r30, X
    1630:	12 97       	sbiw	r26, 0x02	; 2
    1632:	f0 e0       	ldi	r31, 0x00	; 0
    1634:	eb 53       	subi	r30, 0x3B	; 59
    1636:	f5 4c       	sbci	r31, 0xC5	; 197
    1638:	60 83       	st	Z, r22
    }
}

void SetBothEyes(uint8_t r, uint8_t g) {
    for (uint8_t i=0; i<2; i++) {
        iLED[EYE[R][i]] = r;
    163a:	11 96       	adiw	r26, 0x01	; 1
    163c:	ec 91       	ld	r30, X
    163e:	11 97       	sbiw	r26, 0x01	; 1
    1640:	f0 e0       	ldi	r31, 0x00	; 0
    1642:	eb 53       	subi	r30, 0x3B	; 59
    1644:	f5 4c       	sbci	r31, 0xC5	; 197
    1646:	80 83       	st	Z, r24
        iLED[EYE[G][i]] = g;
    1648:	13 96       	adiw	r26, 0x03	; 3
    164a:	ec 91       	ld	r30, X
    164c:	f0 e0       	ldi	r31, 0x00	; 0
    164e:	eb 53       	subi	r30, 0x3B	; 59
    1650:	f5 4c       	sbci	r31, 0xC5	; 197
    1652:	60 83       	st	Z, r22
    1654:	08 95       	ret

00001656 <ClearHackerLeds>:
    }
}

void ClearHackerLeds() {
    1656:	cf 93       	push	r28
    1658:	df 93       	push	r29
    165a:	e8 e4       	ldi	r30, 0x48	; 72
    165c:	ff eb       	ldi	r31, 0xBF	; 191
    165e:	ef 01       	movw	r28, r30
    for (uint8_t i=0;i<6;i++) {
        iLED[HCKR[G][i]] = 0;
    1660:	a6 81       	ldd	r26, Z+6	; 0x06
    1662:	b0 e0       	ldi	r27, 0x00	; 0
    1664:	ab 53       	subi	r26, 0x3B	; 59
    1666:	b5 4c       	sbci	r27, 0xC5	; 197
    1668:	1c 92       	st	X, r1
    166a:	31 96       	adiw	r30, 0x01	; 1
        iLED[HCKR[R][i]] = 0;
    166c:	a8 81       	ld	r26, Y
    166e:	b0 e0       	ldi	r27, 0x00	; 0
    1670:	ab 53       	subi	r26, 0x3B	; 59
    1672:	b5 4c       	sbci	r27, 0xC5	; 197
    1674:	1c 92       	st	X, r1
        iLED[EYE[G][i]] = g;
    }
}

void ClearHackerLeds() {
    for (uint8_t i=0;i<6;i++) {
    1676:	8f eb       	ldi	r24, 0xBF	; 191
    1678:	ee 34       	cpi	r30, 0x4E	; 78
    167a:	f8 07       	cpc	r31, r24
    167c:	81 f7       	brne	.-32     	; 0x165e <ClearHackerLeds+0x8>
        iLED[HCKR[G][i]] = 0;
        iLED[HCKR[R][i]] = 0;
    }
}
    167e:	df 91       	pop	r29
    1680:	cf 91       	pop	r28
    1682:	08 95       	ret

00001684 <GenerateBlinks>:


void GenerateBlinks(){
    1684:	cf 92       	push	r12
    1686:	df 92       	push	r13
    1688:	ef 92       	push	r14
    168a:	ff 92       	push	r15
    168c:	0f 93       	push	r16
    168e:	1f 93       	push	r17
    1690:	cf 93       	push	r28
    1692:	df 93       	push	r29
    used by the games, the other LEDs can be used by setting 
    effect (or be set directly)
    */

    //Activate HCKR & BADGER leds based on the state-bits
    if (gameNow == TEXT) {
    1694:	80 91 3e 38 	lds	r24, 0x383E	; 0x80383e <gameNow>
    1698:	88 23       	and	r24, r24
    169a:	29 f0       	breq	.+10     	; 0x16a6 <GenerateBlinks+0x22>
                iLED[HCKR[R][i]] = dimValue;
            }
        }
    }

    if (CheckState(GEM_STATE)) {
    169c:	80 e4       	ldi	r24, 0x40	; 64
    169e:	ce de       	rcall	.-612    	; 0x143c <CheckState>
    16a0:	81 11       	cpse	r24, r1
    16a2:	24 c0       	rjmp	.+72     	; 0x16ec <GenerateBlinks+0x68>
    16a4:	50 c0       	rjmp	.+160    	; 0x1746 <GenerateBlinks+0xc2>
    16a6:	c8 e4       	ldi	r28, 0x48	; 72
    16a8:	df eb       	ldi	r29, 0xBF	; 191
    used by the games, the other LEDs can be used by setting 
    effect (or be set directly)
    */

    //Activate HCKR & BADGER leds based on the state-bits
    if (gameNow == TEXT) {
    16aa:	1a e7       	ldi	r17, 0x7A	; 122
        for (uint8_t i=0;i<6;i++) {
            if(CheckState(HACKER_STATES + i)) {
    16ac:	81 2f       	mov	r24, r17
    16ae:	c6 de       	rcall	.-628    	; 0x143c <CheckState>
                iLED[HCKR[G][i]] = dimValue;
    16b0:	ee 81       	ldd	r30, Y+6	; 0x06
    16b2:	f0 e0       	ldi	r31, 0x00	; 0
    */

    //Activate HCKR & BADGER leds based on the state-bits
    if (gameNow == TEXT) {
        for (uint8_t i=0;i<6;i++) {
            if(CheckState(HACKER_STATES + i)) {
    16b4:	88 23       	and	r24, r24
    16b6:	59 f0       	breq	.+22     	; 0x16ce <GenerateBlinks+0x4a>
                iLED[HCKR[G][i]] = dimValue;
    16b8:	80 91 0c 38 	lds	r24, 0x380C	; 0x80380c <dimValue>
    16bc:	eb 53       	subi	r30, 0x3B	; 59
    16be:	f5 4c       	sbci	r31, 0xC5	; 197
    16c0:	80 83       	st	Z, r24
                iLED[HCKR[R][i]] = 0;
    16c2:	e8 81       	ld	r30, Y
    16c4:	f0 e0       	ldi	r31, 0x00	; 0
    16c6:	eb 53       	subi	r30, 0x3B	; 59
    16c8:	f5 4c       	sbci	r31, 0xC5	; 197
    16ca:	10 82       	st	Z, r1
    16cc:	0a c0       	rjmp	.+20     	; 0x16e2 <GenerateBlinks+0x5e>
            } else {
                iLED[HCKR[G][i]] = 0;
    16ce:	eb 53       	subi	r30, 0x3B	; 59
    16d0:	f5 4c       	sbci	r31, 0xC5	; 197
    16d2:	10 82       	st	Z, r1
                iLED[HCKR[R][i]] = dimValue;
    16d4:	e8 81       	ld	r30, Y
    16d6:	f0 e0       	ldi	r31, 0x00	; 0
    16d8:	80 91 0c 38 	lds	r24, 0x380C	; 0x80380c <dimValue>
    16dc:	eb 53       	subi	r30, 0x3B	; 59
    16de:	f5 4c       	sbci	r31, 0xC5	; 197
    16e0:	80 83       	st	Z, r24
    16e2:	1f 5f       	subi	r17, 0xFF	; 255
    16e4:	21 96       	adiw	r28, 0x01	; 1
    effect (or be set directly)
    */

    //Activate HCKR & BADGER leds based on the state-bits
    if (gameNow == TEXT) {
        for (uint8_t i=0;i<6;i++) {
    16e6:	10 38       	cpi	r17, 0x80	; 128
    16e8:	09 f7       	brne	.-62     	; 0x16ac <GenerateBlinks+0x28>
    16ea:	d8 cf       	rjmp	.-80     	; 0x169c <GenerateBlinks+0x18>
            }
        }
    }

    if (CheckState(GEM_STATE)) {
        if ( HeartCount == 1 || HeartCount == 3 || HeartCount == 5 )
    16ec:	80 91 5d 38 	lds	r24, 0x385D	; 0x80385d <HeartCount>
    16f0:	98 2f       	mov	r25, r24
    16f2:	9d 7f       	andi	r25, 0xFD	; 253
    16f4:	e0 91 37 bf 	lds	r30, 0xBF37	; 0x80bf37 <__bss_end+0x8423>
            iLED[BADGER] = dimValue>>1 ;
    16f8:	f0 e0       	ldi	r31, 0x00	; 0
            }
        }
    }

    if (CheckState(GEM_STATE)) {
        if ( HeartCount == 1 || HeartCount == 3 || HeartCount == 5 )
    16fa:	91 30       	cpi	r25, 0x01	; 1
    16fc:	11 f0       	breq	.+4      	; 0x1702 <GenerateBlinks+0x7e>
    16fe:	85 30       	cpi	r24, 0x05	; 5
    1700:	21 f4       	brne	.+8      	; 0x170a <GenerateBlinks+0x86>
            iLED[BADGER] = dimValue>>1 ;
    1702:	90 91 0c 38 	lds	r25, 0x380C	; 0x80380c <dimValue>
    1706:	96 95       	lsr	r25
    1708:	06 c0       	rjmp	.+12     	; 0x1716 <GenerateBlinks+0x92>
        else if ( HeartCount == 2 || HeartCount == 4 )
    170a:	82 30       	cpi	r24, 0x02	; 2
    170c:	11 f0       	breq	.+4      	; 0x1712 <GenerateBlinks+0x8e>
    170e:	84 30       	cpi	r24, 0x04	; 4
    1710:	31 f4       	brne	.+12     	; 0x171e <GenerateBlinks+0x9a>
            iLED[BADGER] = dimValue;
    1712:	90 91 0c 38 	lds	r25, 0x380C	; 0x80380c <dimValue>
    1716:	eb 53       	subi	r30, 0x3B	; 59
    1718:	f5 4c       	sbci	r31, 0xC5	; 197
    171a:	90 83       	st	Z, r25
    171c:	0c c0       	rjmp	.+24     	; 0x1736 <GenerateBlinks+0xb2>
        else if ( HeartCount == 0 || HeartCount == 6 )
    171e:	88 23       	and	r24, r24
    1720:	11 f0       	breq	.+4      	; 0x1726 <GenerateBlinks+0xa2>
    1722:	86 30       	cpi	r24, 0x06	; 6
    1724:	29 f4       	brne	.+10     	; 0x1730 <GenerateBlinks+0xac>
            iLED[BADGER] = dimValue>>2;
    1726:	90 91 0c 38 	lds	r25, 0x380C	; 0x80380c <dimValue>
    172a:	96 95       	lsr	r25
    172c:	96 95       	lsr	r25
    172e:	f3 cf       	rjmp	.-26     	; 0x1716 <GenerateBlinks+0x92>
        else
            iLED[BADGER] = 0;
    1730:	eb 53       	subi	r30, 0x3B	; 59
    1732:	f5 4c       	sbci	r31, 0xC5	; 197
    1734:	10 82       	st	Z, r1
        if (HeartCount<32)
    1736:	80 32       	cpi	r24, 0x20	; 32
    1738:	20 f4       	brcc	.+8      	; 0x1742 <GenerateBlinks+0xbe>
            HeartCount++;
    173a:	8f 5f       	subi	r24, 0xFF	; 255
    173c:	80 93 5d 38 	sts	0x385D, r24	; 0x80385d <HeartCount>
    1740:	02 c0       	rjmp	.+4      	; 0x1746 <GenerateBlinks+0xc2>
        else
            HeartCount = 0;
    1742:	10 92 5d 38 	sts	0x385D, r1	; 0x80385d <HeartCount>
    }

    //LEDs effects for all games
    // Keep a counter for dynamic effects
    LedCount++;
    1746:	90 91 5c 38 	lds	r25, 0x385C	; 0x80385c <LedCount>
    174a:	9f 5f       	subi	r25, 0xFF	; 255
    174c:	90 93 5c 38 	sts	0x385C, r25	; 0x80385c <LedCount>

    switch (effect&0x1f) {
    1750:	e0 91 3c 38 	lds	r30, 0x383C	; 0x80383c <effect>
    1754:	f0 91 3d 38 	lds	r31, 0x383D	; 0x80383d <effect+0x1>
    1758:	ef 71       	andi	r30, 0x1F	; 31
    175a:	ff 27       	eor	r31, r31
    175c:	e9 30       	cpi	r30, 0x09	; 9
    175e:	f1 05       	cpc	r31, r1
    1760:	08 f0       	brcs	.+2      	; 0x1764 <GenerateBlinks+0xe0>
    1762:	02 c1       	rjmp	.+516    	; 0x1968 <GenerateBlinks+0x2e4>
    1764:	e2 5c       	subi	r30, 0xC2	; 194
    1766:	ff 4f       	sbci	r31, 0xFF	; 255
    1768:	0c 94 7f 1f 	jmp	0x3efe	; 0x3efe <__tablejump2__>
        // All LEDs off
        case 0:
            WingBar(0,0);
    176c:	60 e0       	ldi	r22, 0x00	; 0
    176e:	80 e0       	ldi	r24, 0x00	; 0
    1770:	34 df       	rcall	.-408    	; 0x15da <WingBar>
            for (uint8_t i=0; i<2; i++) {
                iLED[EYE[R][i]] = 0;
    1772:	e0 91 44 bf 	lds	r30, 0xBF44	; 0x80bf44 <__bss_end+0x8430>
    1776:	f0 e0       	ldi	r31, 0x00	; 0
    1778:	eb 53       	subi	r30, 0x3B	; 59
    177a:	f5 4c       	sbci	r31, 0xC5	; 197
    177c:	10 82       	st	Z, r1
                iLED[EYE[G][i]] = 0; 
    177e:	e0 91 46 bf 	lds	r30, 0xBF46	; 0x80bf46 <__bss_end+0x8432>
    1782:	f0 e0       	ldi	r31, 0x00	; 0
    1784:	eb 53       	subi	r30, 0x3B	; 59
    1786:	f5 4c       	sbci	r31, 0xC5	; 197
    1788:	10 82       	st	Z, r1
                iLED[SCARAB[i]] = 0;
    178a:	e0 91 38 bf 	lds	r30, 0xBF38	; 0x80bf38 <__bss_end+0x8424>
    178e:	f0 e0       	ldi	r31, 0x00	; 0
    1790:	eb 53       	subi	r30, 0x3B	; 59
    1792:	f5 4c       	sbci	r31, 0xC5	; 197
    1794:	10 82       	st	Z, r1
    switch (effect&0x1f) {
        // All LEDs off
        case 0:
            WingBar(0,0);
            for (uint8_t i=0; i<2; i++) {
                iLED[EYE[R][i]] = 0;
    1796:	e0 91 45 bf 	lds	r30, 0xBF45	; 0x80bf45 <__bss_end+0x8431>
    179a:	f0 e0       	ldi	r31, 0x00	; 0
    179c:	eb 53       	subi	r30, 0x3B	; 59
    179e:	f5 4c       	sbci	r31, 0xC5	; 197
    17a0:	10 82       	st	Z, r1
                iLED[EYE[G][i]] = 0; 
    17a2:	e0 91 47 bf 	lds	r30, 0xBF47	; 0x80bf47 <__bss_end+0x8433>
    17a6:	f0 e0       	ldi	r31, 0x00	; 0
    17a8:	eb 53       	subi	r30, 0x3B	; 59
    17aa:	f5 4c       	sbci	r31, 0xC5	; 197
    17ac:	10 82       	st	Z, r1
                iLED[SCARAB[i]] = 0;
    17ae:	e0 91 39 bf 	lds	r30, 0xBF39	; 0x80bf39 <__bss_end+0x8425>
    17b2:	f0 e0       	ldi	r31, 0x00	; 0
    17b4:	eb 53       	subi	r30, 0x3B	; 59
    17b6:	f5 4c       	sbci	r31, 0xC5	; 197
    17b8:	10 82       	st	Z, r1
            }
            iLED[CAT] = 0;
    17ba:	e0 91 36 bf 	lds	r30, 0xBF36	; 0x80bf36 <__bss_end+0x8422>
    17be:	f0 e0       	ldi	r31, 0x00	; 0
    17c0:	eb 53       	subi	r30, 0x3B	; 59
    17c2:	f5 4c       	sbci	r31, 0xC5	; 197
    17c4:	10 82       	st	Z, r1
            break;
    17c6:	d0 c0       	rjmp	.+416    	; 0x1968 <GenerateBlinks+0x2e4>

        //'flashing red eyes',       # 1 can be used when a bad answer is given
        case 1:
            SetBothEyes((LedCount & 1 ? dimValue : 0),0);
    17c8:	89 2f       	mov	r24, r25
    17ca:	81 70       	andi	r24, 0x01	; 1
    17cc:	90 fd       	sbrc	r25, 0
    17ce:	80 91 0c 38 	lds	r24, 0x380C	; 0x80380c <dimValue>
    17d2:	60 e0       	ldi	r22, 0x00	; 0
    17d4:	0d c0       	rjmp	.+26     	; 0x17f0 <GenerateBlinks+0x16c>
    17d6:	69 2f       	mov	r22, r25
    17d8:	70 e0       	ldi	r23, 0x00	; 0
            break;

        //'flashing green eyes',     # 2 can be used when a good answer is given
        case 2:
            SetBothEyes(0, 0x1f + (((LedCount & 0x08) ? ((LedCount&0x07)^0x07) : (LedCount&0x07))<<5));
    17da:	93 ff       	sbrs	r25, 3
    17dc:	02 c0       	rjmp	.+4      	; 0x17e2 <GenerateBlinks+0x15e>
    17de:	60 95       	com	r22
    17e0:	70 95       	com	r23
    17e2:	95 e0       	ldi	r25, 0x05	; 5
    17e4:	66 0f       	add	r22, r22
    17e6:	77 1f       	adc	r23, r23
    17e8:	9a 95       	dec	r25
    17ea:	e1 f7       	brne	.-8      	; 0x17e4 <GenerateBlinks+0x160>
    17ec:	61 5e       	subi	r22, 0xE1	; 225
    17ee:	80 e0       	ldi	r24, 0x00	; 0
        // No LED action, game will do it's own LED magic
        case 31:
        default:
            break;
    }
}
    17f0:	df 91       	pop	r29
    17f2:	cf 91       	pop	r28
    17f4:	1f 91       	pop	r17
    17f6:	0f 91       	pop	r16
    17f8:	ff 90       	pop	r15
    17fa:	ef 90       	pop	r14
    17fc:	df 90       	pop	r13
            SetBothEyes((LedCount & 1 ? dimValue : 0),0);
            break;

        //'flashing green eyes',     # 2 can be used when a good answer is given
        case 2:
            SetBothEyes(0, 0x1f + (((LedCount & 0x08) ? ((LedCount&0x07)^0x07) : (LedCount&0x07))<<5));
    17fe:	cf 90       	pop	r12
    1800:	0e cf       	rjmp	.-484    	; 0x161e <SetBothEyes>
            break;

        //'flash both wings'
        case 5:
            if ((LedCount & 3) == 0) {
    1802:	89 2f       	mov	r24, r25
    1804:	83 70       	andi	r24, 0x03	; 3
    1806:	09 f0       	breq	.+2      	; 0x180a <GenerateBlinks+0x186>
    1808:	af c0       	rjmp	.+350    	; 0x1968 <GenerateBlinks+0x2e4>
                if (LedCount & 4)
    180a:	92 ff       	sbrs	r25, 2
    180c:	03 c0       	rjmp	.+6      	; 0x1814 <GenerateBlinks+0x190>
                    WingBar(5,5);
    180e:	65 e0       	ldi	r22, 0x05	; 5
    1810:	85 e0       	ldi	r24, 0x05	; 5
    1812:	02 c0       	rjmp	.+4      	; 0x1818 <GenerateBlinks+0x194>
                else
                    WingBar(0,0);
    1814:	60 e0       	ldi	r22, 0x00	; 0
    1816:	80 e0       	ldi	r24, 0x00	; 0
        // No LED action, game will do it's own LED magic
        case 31:
        default:
            break;
    }
}
    1818:	df 91       	pop	r29
    181a:	cf 91       	pop	r28
    181c:	1f 91       	pop	r17
    181e:	0f 91       	pop	r16
    1820:	ff 90       	pop	r15
    1822:	ef 90       	pop	r14
    1824:	df 90       	pop	r13
        case 5:
            if ((LedCount & 3) == 0) {
                if (LedCount & 4)
                    WingBar(5,5);
                else
                    WingBar(0,0);
    1826:	cf 90       	pop	r12
    1828:	d8 ce       	rjmp	.-592    	; 0x15da <WingBar>
            }
            break;

        //'circle the wing leds'
        case 6:
            if (LedCount > 4) LedCount = 0;
    182a:	95 30       	cpi	r25, 0x05	; 5
    182c:	10 f0       	brcs	.+4      	; 0x1832 <GenerateBlinks+0x1ae>
    182e:	10 92 5c 38 	sts	0x385C, r1	; 0x80385c <LedCount>
            iLED[WING[L][LedCount]] = 0;
    1832:	40 91 5c 38 	lds	r20, 0x385C	; 0x80385c <LedCount>
    1836:	24 2f       	mov	r18, r20
    1838:	30 e0       	ldi	r19, 0x00	; 0
    183a:	f9 01       	movw	r30, r18
    183c:	e6 5c       	subi	r30, 0xC6	; 198
    183e:	f0 44       	sbci	r31, 0x40	; 64
    1840:	e5 81       	ldd	r30, Z+5	; 0x05
    1842:	f0 e0       	ldi	r31, 0x00	; 0
    1844:	eb 53       	subi	r30, 0x3B	; 59
    1846:	f5 4c       	sbci	r31, 0xC5	; 197
    1848:	10 82       	st	Z, r1
            iLED[WING[L][LedCount == 4 ? 0 : LedCount+1]] = dimValue;
    184a:	44 30       	cpi	r20, 0x04	; 4
    184c:	19 f0       	breq	.+6      	; 0x1854 <GenerateBlinks+0x1d0>
    184e:	c9 01       	movw	r24, r18
    1850:	01 96       	adiw	r24, 0x01	; 1
    1852:	02 c0       	rjmp	.+4      	; 0x1858 <GenerateBlinks+0x1d4>
    1854:	80 e0       	ldi	r24, 0x00	; 0
    1856:	90 e0       	ldi	r25, 0x00	; 0
    1858:	fc 01       	movw	r30, r24
    185a:	e6 5c       	subi	r30, 0xC6	; 198
    185c:	f0 44       	sbci	r31, 0x40	; 64
    185e:	e5 81       	ldd	r30, Z+5	; 0x05
    1860:	f0 e0       	ldi	r31, 0x00	; 0
    1862:	80 91 0c 38 	lds	r24, 0x380C	; 0x80380c <dimValue>
    1866:	eb 53       	subi	r30, 0x3B	; 59
    1868:	f5 4c       	sbci	r31, 0xC5	; 197
    186a:	80 83       	st	Z, r24
            iLED[WING[L][4-LedCount]] = 0;
    186c:	ee e3       	ldi	r30, 0x3E	; 62
    186e:	ff eb       	ldi	r31, 0xBF	; 191
    1870:	e2 1b       	sub	r30, r18
    1872:	f3 0b       	sbc	r31, r19
    1874:	e5 81       	ldd	r30, Z+5	; 0x05
    1876:	f0 e0       	ldi	r31, 0x00	; 0
    1878:	eb 53       	subi	r30, 0x3B	; 59
    187a:	f5 4c       	sbci	r31, 0xC5	; 197
    187c:	10 82       	st	Z, r1
            iLED[WING[L][LedCount == 4 ? 4 : 3-LedCount]] = dimValue;
    187e:	44 30       	cpi	r20, 0x04	; 4
    1880:	29 f0       	breq	.+10     	; 0x188c <GenerateBlinks+0x208>
    1882:	83 e0       	ldi	r24, 0x03	; 3
    1884:	90 e0       	ldi	r25, 0x00	; 0
    1886:	82 1b       	sub	r24, r18
    1888:	93 0b       	sbc	r25, r19
    188a:	02 c0       	rjmp	.+4      	; 0x1890 <GenerateBlinks+0x20c>
    188c:	84 e0       	ldi	r24, 0x04	; 4
    188e:	90 e0       	ldi	r25, 0x00	; 0
    1890:	fc 01       	movw	r30, r24
    1892:	e6 5c       	subi	r30, 0xC6	; 198
    1894:	f0 44       	sbci	r31, 0x40	; 64
    1896:	e5 81       	ldd	r30, Z+5	; 0x05
    1898:	f0 e0       	ldi	r31, 0x00	; 0
    189a:	80 91 0c 38 	lds	r24, 0x380C	; 0x80380c <dimValue>
    189e:	eb 53       	subi	r30, 0x3B	; 59
    18a0:	f5 4c       	sbci	r31, 0xC5	; 197
    18a2:	80 83       	st	Z, r24
            break;
    18a4:	61 c0       	rjmp	.+194    	; 0x1968 <GenerateBlinks+0x2e4>
    18a6:	ca e3       	ldi	r28, 0x3A	; 58
    18a8:	df eb       	ldi	r29, 0xBF	; 191
    18aa:	8f e3       	ldi	r24, 0x3F	; 63
    18ac:	e8 2e       	mov	r14, r24
    18ae:	8f eb       	ldi	r24, 0xBF	; 191
    18b0:	f8 2e       	mov	r15, r24

        //'random wing leds'
        case 7:
            for (uint8_t x=0; x<5; ++x){
                iLED[WING[L][x]] = (lfsr() > 127)?dimValue:0;
    18b2:	6e 01       	movw	r12, r28
    18b4:	0d 81       	ldd	r16, Y+5	; 0x05
    18b6:	10 e0       	ldi	r17, 0x00	; 0
    18b8:	96 dc       	rcall	.-1748   	; 0x11e6 <lfsr>
    18ba:	87 ff       	sbrs	r24, 7
    18bc:	03 c0       	rjmp	.+6      	; 0x18c4 <GenerateBlinks+0x240>
    18be:	80 91 0c 38 	lds	r24, 0x380C	; 0x80380c <dimValue>
    18c2:	01 c0       	rjmp	.+2      	; 0x18c6 <GenerateBlinks+0x242>
    18c4:	80 e0       	ldi	r24, 0x00	; 0
    18c6:	f8 01       	movw	r30, r16
    18c8:	eb 53       	subi	r30, 0x3B	; 59
    18ca:	f5 4c       	sbci	r31, 0xC5	; 197
    18cc:	80 83       	st	Z, r24
                iLED[WING[R][x]] = (lfsr() > 127)?dimValue:0;
    18ce:	21 96       	adiw	r28, 0x01	; 1
    18d0:	f6 01       	movw	r30, r12
    18d2:	00 81       	ld	r16, Z
    18d4:	10 e0       	ldi	r17, 0x00	; 0
    18d6:	87 dc       	rcall	.-1778   	; 0x11e6 <lfsr>
    18d8:	87 ff       	sbrs	r24, 7
    18da:	03 c0       	rjmp	.+6      	; 0x18e2 <GenerateBlinks+0x25e>
    18dc:	80 91 0c 38 	lds	r24, 0x380C	; 0x80380c <dimValue>
    18e0:	01 c0       	rjmp	.+2      	; 0x18e4 <GenerateBlinks+0x260>
    18e2:	80 e0       	ldi	r24, 0x00	; 0
    18e4:	f8 01       	movw	r30, r16
    18e6:	eb 53       	subi	r30, 0x3B	; 59
    18e8:	f5 4c       	sbci	r31, 0xC5	; 197
    18ea:	80 83       	st	Z, r24
            iLED[WING[L][LedCount == 4 ? 4 : 3-LedCount]] = dimValue;
            break;

        //'random wing leds'
        case 7:
            for (uint8_t x=0; x<5; ++x){
    18ec:	ec 16       	cp	r14, r28
    18ee:	fd 06       	cpc	r15, r29
    18f0:	01 f7       	brne	.-64     	; 0x18b2 <GenerateBlinks+0x22e>
    18f2:	3a c0       	rjmp	.+116    	; 0x1968 <GenerateBlinks+0x2e4>
            }
            break;

        //'falling rain'
        case 8:
            if ((LedCount & 1) == 0) {
    18f4:	90 fd       	sbrc	r25, 0
    18f6:	38 c0       	rjmp	.+112    	; 0x1968 <GenerateBlinks+0x2e4>
    18f8:	ea e3       	ldi	r30, 0x3A	; 58
    18fa:	ff eb       	ldi	r31, 0xBF	; 191
    18fc:	8e e3       	ldi	r24, 0x3E	; 62
    18fe:	9f eb       	ldi	r25, 0xBF	; 191
    1900:	9f 01       	movw	r18, r30
                for (uint8_t x=0; x<4; ++x){
                    iLED[WING[L][x]] = iLED[WING[L][x+1]];
    1902:	a5 81       	ldd	r26, Z+5	; 0x05
    1904:	b0 e0       	ldi	r27, 0x00	; 0
    1906:	c6 81       	ldd	r28, Z+6	; 0x06
    1908:	d0 e0       	ldi	r29, 0x00	; 0
    190a:	cb 53       	subi	r28, 0x3B	; 59
    190c:	d5 4c       	sbci	r29, 0xC5	; 197
    190e:	48 81       	ld	r20, Y
    1910:	ab 53       	subi	r26, 0x3B	; 59
    1912:	b5 4c       	sbci	r27, 0xC5	; 197
    1914:	4c 93       	st	X, r20
    1916:	31 96       	adiw	r30, 0x01	; 1
                    iLED[WING[R][x]] = iLED[WING[R][x+1]];
    1918:	e9 01       	movw	r28, r18
    191a:	a8 81       	ld	r26, Y
    191c:	b0 e0       	ldi	r27, 0x00	; 0
    191e:	c0 81       	ld	r28, Z
    1920:	d0 e0       	ldi	r29, 0x00	; 0
    1922:	cb 53       	subi	r28, 0x3B	; 59
    1924:	d5 4c       	sbci	r29, 0xC5	; 197
    1926:	28 81       	ld	r18, Y
    1928:	ab 53       	subi	r26, 0x3B	; 59
    192a:	b5 4c       	sbci	r27, 0xC5	; 197
            break;

        //'falling rain'
        case 8:
            if ((LedCount & 1) == 0) {
                for (uint8_t x=0; x<4; ++x){
    192c:	2c 93       	st	X, r18
    192e:	8e 17       	cp	r24, r30
    1930:	9f 07       	cpc	r25, r31
                    iLED[WING[L][x]] = iLED[WING[L][x+1]];
                    iLED[WING[R][x]] = iLED[WING[R][x+1]];
                }
                iLED[WING[L][4]] = (lfsr() > 224)?dimValue:0;
    1932:	31 f7       	brne	.-52     	; 0x1900 <GenerateBlinks+0x27c>
    1934:	c0 91 43 bf 	lds	r28, 0xBF43	; 0x80bf43 <__bss_end+0x842f>
    1938:	d0 e0       	ldi	r29, 0x00	; 0
    193a:	55 dc       	rcall	.-1878   	; 0x11e6 <lfsr>
    193c:	81 3e       	cpi	r24, 0xE1	; 225
    193e:	18 f0       	brcs	.+6      	; 0x1946 <GenerateBlinks+0x2c2>
    1940:	80 91 0c 38 	lds	r24, 0x380C	; 0x80380c <dimValue>
    1944:	01 c0       	rjmp	.+2      	; 0x1948 <GenerateBlinks+0x2c4>
    1946:	80 e0       	ldi	r24, 0x00	; 0
    1948:	cb 53       	subi	r28, 0x3B	; 59
    194a:	d5 4c       	sbci	r29, 0xC5	; 197
                iLED[WING[R][4]] = (lfsr() > 224)?dimValue:0;
    194c:	88 83       	st	Y, r24
    194e:	c0 91 3e bf 	lds	r28, 0xBF3E	; 0x80bf3e <__bss_end+0x842a>
    1952:	d0 e0       	ldi	r29, 0x00	; 0
    1954:	48 dc       	rcall	.-1904   	; 0x11e6 <lfsr>
    1956:	81 3e       	cpi	r24, 0xE1	; 225
    1958:	18 f0       	brcs	.+6      	; 0x1960 <GenerateBlinks+0x2dc>
    195a:	80 91 0c 38 	lds	r24, 0x380C	; 0x80380c <dimValue>
    195e:	01 c0       	rjmp	.+2      	; 0x1962 <GenerateBlinks+0x2de>
    1960:	80 e0       	ldi	r24, 0x00	; 0
    1962:	cb 53       	subi	r28, 0x3B	; 59
    1964:	d5 4c       	sbci	r29, 0xC5	; 197
    1966:	88 83       	st	Y, r24
        // No LED action, game will do it's own LED magic
        case 31:
        default:
            break;
    }
}
    1968:	df 91       	pop	r29
    196a:	cf 91       	pop	r28
    196c:	1f 91       	pop	r17
    196e:	0f 91       	pop	r16
    1970:	ff 90       	pop	r15
    1972:	ef 90       	pop	r14
    1974:	df 90       	pop	r13
    1976:	cf 90       	pop	r12
    1978:	08 95       	ret

0000197a <GenerateAudio>:


uint8_t GenerateAudio(){
    197a:	0f 93       	push	r16
    197c:	1f 93       	push	r17
    197e:	cf 93       	push	r28

    if (auIn < HPLVL) {
    1980:	80 91 c4 3a 	lds	r24, 0x3AC4	; 0x803ac4 <auIn>
    1984:	89 31       	cpi	r24, 0x19	; 25
    1986:	08 f0       	brcs	.+2      	; 0x198a <GenerateAudio+0x10>
    1988:	5f c1       	rjmp	.+702    	; 0x1c48 <GenerateAudio+0x2ce>

        detHdPh = 1;
    198a:	c1 e0       	ldi	r28, 0x01	; 1
    198c:	c0 93 c1 3a 	sts	0x3AC1, r28	; 0x803ac1 <detHdPh>

        //Audio for text adventure
        if ((effect&0xff00)==0) {
    1990:	80 91 3c 38 	lds	r24, 0x383C	; 0x80383c <effect>
    1994:	90 91 3d 38 	lds	r25, 0x383D	; 0x80383d <effect+0x1>
    1998:	88 27       	eor	r24, r24
    199a:	89 2b       	or	r24, r25
    199c:	09 f0       	breq	.+2      	; 0x19a0 <GenerateAudio+0x26>
    199e:	fe c0       	rjmp	.+508    	; 0x1b9c <GenerateAudio+0x222>

            //Silence
            if ((effect&0xE0)==0){
    19a0:	80 91 3c 38 	lds	r24, 0x383C	; 0x80383c <effect>
    19a4:	90 91 3d 38 	lds	r25, 0x383D	; 0x80383d <effect+0x1>
    19a8:	80 7e       	andi	r24, 0xE0	; 224
    19aa:	99 27       	eor	r25, r25
    19ac:	89 2b       	or	r24, r25
    19ae:	31 f4       	brne	.+12     	; 0x19bc <GenerateAudio+0x42>
                auRepAddr = &zero;
    19b0:	8b e3       	ldi	r24, 0x3B	; 59
    19b2:	98 e3       	ldi	r25, 0x38	; 56
    19b4:	80 93 03 38 	sts	0x3803, r24	; 0x803803 <auRepAddr>
    19b8:	90 93 04 38 	sts	0x3804, r25	; 0x803804 <auRepAddr+0x1>
            }

            //Bad (buzzer)
            if ((effect&0xE0)==32){
    19bc:	80 91 3c 38 	lds	r24, 0x383C	; 0x80383c <effect>
    19c0:	90 91 3d 38 	lds	r25, 0x383D	; 0x80383d <effect+0x1>
    19c4:	80 7e       	andi	r24, 0xE0	; 224
    19c6:	99 27       	eor	r25, r25
    19c8:	80 97       	sbiw	r24, 0x20	; 32
    19ca:	09 f0       	breq	.+2      	; 0x19ce <GenerateAudio+0x54>
    19cc:	51 c0       	rjmp	.+162    	; 0x1a70 <GenerateAudio+0xf6>
                static uint8_t auBuffer[17] = {1, 255, 128, 128, 192, 255, 64, 255, 192, 128, 64, 1, 192, 1, 64, 128, 0}; 
                static uint8_t loudness, duration, start;
                floatSpeed(1, 0x2000, 0x2200);
    19ce:	40 e0       	ldi	r20, 0x00	; 0
    19d0:	52 e2       	ldi	r21, 0x22	; 34
    19d2:	60 e0       	ldi	r22, 0x00	; 0
    19d4:	70 e2       	ldi	r23, 0x20	; 32
    19d6:	81 e0       	ldi	r24, 0x01	; 1
    19d8:	25 dc       	rcall	.-1974   	; 0x1224 <floatSpeed>
                auBuffer[2] = floatAround(0x80, 5, 0x01, 0x00);
    19da:	20 e0       	ldi	r18, 0x00	; 0
    19dc:	41 e0       	ldi	r20, 0x01	; 1
    19de:	65 e0       	ldi	r22, 0x05	; 5
    19e0:	80 e8       	ldi	r24, 0x80	; 128
    19e2:	52 dc       	rcall	.-1884   	; 0x1288 <floatAround>
    19e4:	80 93 16 38 	sts	0x3816, r24	; 0x803816 <auBuffer.4018+0x2>
                        auVolume = 0xff;
                        start = 0;
                    }
                }*/

                auRepAddr = &auBuffer[0];
    19e8:	84 e1       	ldi	r24, 0x14	; 20
    19ea:	98 e3       	ldi	r25, 0x38	; 56
    19ec:	80 93 03 38 	sts	0x3803, r24	; 0x803803 <auRepAddr>
    19f0:	90 93 04 38 	sts	0x3804, r25	; 0x803804 <auRepAddr+0x1>
                if (buttonMark){
    19f4:	80 91 44 38 	lds	r24, 0x3844	; 0x803844 <buttonMark>
    19f8:	88 23       	and	r24, r24
    19fa:	d1 f1       	breq	.+116    	; 0x1a70 <GenerateAudio+0xf6>
                    if (start == 0) {
    19fc:	80 91 5a 38 	lds	r24, 0x385A	; 0x80385a <start.4021>
    1a00:	81 11       	cpse	r24, r1
    1a02:	0f c0       	rjmp	.+30     	; 0x1a22 <GenerateAudio+0xa8>
                        duration = 4;
    1a04:	84 e0       	ldi	r24, 0x04	; 4
    1a06:	80 93 59 38 	sts	0x3859, r24	; 0x803859 <duration.4020>
                        auVolume = 255;
    1a0a:	8f ef       	ldi	r24, 0xFF	; 255
    1a0c:	80 93 b8 3a 	sts	0x3AB8, r24	; 0x803ab8 <auVolume>
                        TCB1_CCMP = 0x2000;
    1a10:	80 e0       	ldi	r24, 0x00	; 0
    1a12:	90 e2       	ldi	r25, 0x20	; 32
    1a14:	80 93 5c 0a 	sts	0x0A5C, r24	; 0x800a5c <__TEXT_REGION_LENGTH__+0x700a5c>
    1a18:	90 93 5d 0a 	sts	0x0A5D, r25	; 0x800a5d <__TEXT_REGION_LENGTH__+0x700a5d>
                        start = 1;
    1a1c:	81 e0       	ldi	r24, 0x01	; 1
    1a1e:	80 93 5a 38 	sts	0x385A, r24	; 0x80385a <start.4021>
                    }
                    
                    TCB1_CCMP -= (0x080<<(effect>64)?2:0);
    1a22:	80 91 3c 38 	lds	r24, 0x383C	; 0x80383c <effect>
    1a26:	90 91 3d 38 	lds	r25, 0x383D	; 0x80383d <effect+0x1>
    1a2a:	80 91 5c 0a 	lds	r24, 0x0A5C	; 0x800a5c <__TEXT_REGION_LENGTH__+0x700a5c>
    1a2e:	90 91 5d 0a 	lds	r25, 0x0A5D	; 0x800a5d <__TEXT_REGION_LENGTH__+0x700a5d>
    1a32:	02 97       	sbiw	r24, 0x02	; 2
    1a34:	80 93 5c 0a 	sts	0x0A5C, r24	; 0x800a5c <__TEXT_REGION_LENGTH__+0x700a5c>
    1a38:	90 93 5d 0a 	sts	0x0A5D, r25	; 0x800a5d <__TEXT_REGION_LENGTH__+0x700a5d>
                    if ((auVolume)&&(duration == 0)) auVolume -=32; else
    1a3c:	80 91 b8 3a 	lds	r24, 0x3AB8	; 0x803ab8 <auVolume>
    1a40:	88 23       	and	r24, r24
    1a42:	51 f0       	breq	.+20     	; 0x1a58 <GenerateAudio+0xde>
    1a44:	80 91 59 38 	lds	r24, 0x3859	; 0x803859 <duration.4020>
    1a48:	81 11       	cpse	r24, r1
    1a4a:	06 c0       	rjmp	.+12     	; 0x1a58 <GenerateAudio+0xde>
    1a4c:	80 91 b8 3a 	lds	r24, 0x3AB8	; 0x803ab8 <auVolume>
    1a50:	80 52       	subi	r24, 0x20	; 32
    1a52:	80 93 b8 3a 	sts	0x3AB8, r24	; 0x803ab8 <auVolume>
    1a56:	0c c0       	rjmp	.+24     	; 0x1a70 <GenerateAudio+0xf6>
                    {
                        start = 0;
    1a58:	10 92 5a 38 	sts	0x385A, r1	; 0x80385a <start.4021>
                        auRepAddr = &zero;
    1a5c:	8b e3       	ldi	r24, 0x3B	; 59
    1a5e:	98 e3       	ldi	r25, 0x38	; 56
    1a60:	80 93 03 38 	sts	0x3803, r24	; 0x803803 <auRepAddr>
    1a64:	90 93 04 38 	sts	0x3804, r25	; 0x803804 <auRepAddr+0x1>
                        effect = 0;
    1a68:	10 92 3c 38 	sts	0x383C, r1	; 0x80383c <effect>
    1a6c:	10 92 3d 38 	sts	0x383D, r1	; 0x80383d <effect+0x1>
                    //F
                }
            }

            //Good (bell)
            if (((effect&0xE0)==64)||((effect&0xE0)==160)){
    1a70:	80 91 3c 38 	lds	r24, 0x383C	; 0x80383c <effect>
    1a74:	90 91 3d 38 	lds	r25, 0x383D	; 0x80383d <effect+0x1>
    1a78:	80 7e       	andi	r24, 0xE0	; 224
    1a7a:	99 27       	eor	r25, r25
    1a7c:	80 34       	cpi	r24, 0x40	; 64
    1a7e:	91 05       	cpc	r25, r1
    1a80:	49 f0       	breq	.+18     	; 0x1a94 <GenerateAudio+0x11a>
    1a82:	80 91 3c 38 	lds	r24, 0x383C	; 0x80383c <effect>
    1a86:	90 91 3d 38 	lds	r25, 0x383D	; 0x80383d <effect+0x1>
    1a8a:	80 7e       	andi	r24, 0xE0	; 224
    1a8c:	99 27       	eor	r25, r25
    1a8e:	80 3a       	cpi	r24, 0xA0	; 160
    1a90:	91 05       	cpc	r25, r1
    1a92:	e9 f5       	brne	.+122    	; 0x1b0e <GenerateAudio+0x194>
                static uint8_t start, auBuffer[3] = {255, 1, 0};
                
                auRepAddr = &auBuffer[0];
    1a94:	81 e1       	ldi	r24, 0x11	; 17
    1a96:	98 e3       	ldi	r25, 0x38	; 56
    1a98:	80 93 03 38 	sts	0x3803, r24	; 0x803803 <auRepAddr>
    1a9c:	90 93 04 38 	sts	0x3804, r25	; 0x803804 <auRepAddr+0x1>
                if (buttonMark){
    1aa0:	80 91 44 38 	lds	r24, 0x3844	; 0x803844 <buttonMark>
    1aa4:	88 23       	and	r24, r24
    1aa6:	99 f1       	breq	.+102    	; 0x1b0e <GenerateAudio+0x194>
                    if (start == 0) {
    1aa8:	80 91 58 38 	lds	r24, 0x3858	; 0x803858 <start.4022>
    1aac:	81 11       	cpse	r24, r1
    1aae:	0c c0       	rjmp	.+24     	; 0x1ac8 <GenerateAudio+0x14e>
                        auVolume = 255;
    1ab0:	8f ef       	ldi	r24, 0xFF	; 255
    1ab2:	80 93 b8 3a 	sts	0x3AB8, r24	; 0x803ab8 <auVolume>
                        TCB1_CCMP = 0x0a00;
    1ab6:	80 e0       	ldi	r24, 0x00	; 0
    1ab8:	9a e0       	ldi	r25, 0x0A	; 10
    1aba:	80 93 5c 0a 	sts	0x0A5C, r24	; 0x800a5c <__TEXT_REGION_LENGTH__+0x700a5c>
    1abe:	90 93 5d 0a 	sts	0x0A5D, r25	; 0x800a5d <__TEXT_REGION_LENGTH__+0x700a5d>
                        start = 1;
    1ac2:	81 e0       	ldi	r24, 0x01	; 1
    1ac4:	80 93 58 38 	sts	0x3858, r24	; 0x803858 <start.4022>
                    }
                     
                    TCB1_CCMP -= (0x080<<(effect>64)?2:0);                    
    1ac8:	80 91 3c 38 	lds	r24, 0x383C	; 0x80383c <effect>
    1acc:	90 91 3d 38 	lds	r25, 0x383D	; 0x80383d <effect+0x1>
    1ad0:	80 91 5c 0a 	lds	r24, 0x0A5C	; 0x800a5c <__TEXT_REGION_LENGTH__+0x700a5c>
    1ad4:	90 91 5d 0a 	lds	r25, 0x0A5D	; 0x800a5d <__TEXT_REGION_LENGTH__+0x700a5d>
    1ad8:	02 97       	sbiw	r24, 0x02	; 2
    1ada:	80 93 5c 0a 	sts	0x0A5C, r24	; 0x800a5c <__TEXT_REGION_LENGTH__+0x700a5c>
    1ade:	90 93 5d 0a 	sts	0x0A5D, r25	; 0x800a5d <__TEXT_REGION_LENGTH__+0x700a5d>
                    if (auVolume > 32) auVolume -=32; else 
    1ae2:	80 91 b8 3a 	lds	r24, 0x3AB8	; 0x803ab8 <auVolume>
    1ae6:	81 32       	cpi	r24, 0x21	; 33
    1ae8:	30 f0       	brcs	.+12     	; 0x1af6 <GenerateAudio+0x17c>
    1aea:	80 91 b8 3a 	lds	r24, 0x3AB8	; 0x803ab8 <auVolume>
    1aee:	80 52       	subi	r24, 0x20	; 32
    1af0:	80 93 b8 3a 	sts	0x3AB8, r24	; 0x803ab8 <auVolume>
    1af4:	0c c0       	rjmp	.+24     	; 0x1b0e <GenerateAudio+0x194>
                    {
                        start = 0;
    1af6:	10 92 58 38 	sts	0x3858, r1	; 0x803858 <start.4022>
                        auRepAddr = &zero;
    1afa:	8b e3       	ldi	r24, 0x3B	; 59
    1afc:	98 e3       	ldi	r25, 0x38	; 56
    1afe:	80 93 03 38 	sts	0x3803, r24	; 0x803803 <auRepAddr>
    1b02:	90 93 04 38 	sts	0x3804, r25	; 0x803804 <auRepAddr+0x1>
                        effect = 0;
    1b06:	10 92 3c 38 	sts	0x383C, r1	; 0x80383c <effect>
    1b0a:	10 92 3d 38 	sts	0x383D, r1	; 0x80383d <effect+0x1>
                    }
                }
            }

            //Rain storm with whistling wind
            if ((effect&0xE0)==96){
    1b0e:	80 91 3c 38 	lds	r24, 0x383C	; 0x80383c <effect>
    1b12:	90 91 3d 38 	lds	r25, 0x383D	; 0x80383d <effect+0x1>
    1b16:	80 7e       	andi	r24, 0xE0	; 224
    1b18:	99 27       	eor	r25, r25
    1b1a:	80 36       	cpi	r24, 0x60	; 96
    1b1c:	91 05       	cpc	r25, r1
    1b1e:	a9 f5       	brne	.+106    	; 0x1b8a <GenerateAudio+0x210>
                static uint8_t auBuffer[7];
                auBuffer[6]= 0;        
    1b20:	10 92 57 38 	sts	0x3857, r1	; 0x803857 <auBuffer.4024+0x6>
                auRepAddr = &auBuffer[0];
    1b24:	81 e5       	ldi	r24, 0x51	; 81
    1b26:	98 e3       	ldi	r25, 0x38	; 56
    1b28:	80 93 03 38 	sts	0x3803, r24	; 0x803803 <auRepAddr>
    1b2c:	90 93 04 38 	sts	0x3804, r25	; 0x803804 <auRepAddr+0x1>
    1b30:	8c 01       	movw	r16, r24

                //Noise is to be generated fast, outside of buttonMark loop
                for (uint8_t x=1; x<6; ++x){
    1b32:	c1 e0       	ldi	r28, 0x01	; 1
                    if ((x>0) && (x!=3)) auBuffer[x] = floatAround(0x80, 5, 0x01, 0x00);
    1b34:	c3 30       	cpi	r28, 0x03	; 3
    1b36:	39 f0       	breq	.+14     	; 0x1b46 <GenerateAudio+0x1cc>
    1b38:	20 e0       	ldi	r18, 0x00	; 0
    1b3a:	41 e0       	ldi	r20, 0x01	; 1
    1b3c:	65 e0       	ldi	r22, 0x05	; 5
    1b3e:	80 e8       	ldi	r24, 0x80	; 128
    1b40:	a3 db       	rcall	.-2234   	; 0x1288 <floatAround>
    1b42:	f8 01       	movw	r30, r16
    1b44:	81 83       	std	Z+1, r24	; 0x01
                static uint8_t auBuffer[7];
                auBuffer[6]= 0;        
                auRepAddr = &auBuffer[0];

                //Noise is to be generated fast, outside of buttonMark loop
                for (uint8_t x=1; x<6; ++x){
    1b46:	cf 5f       	subi	r28, 0xFF	; 255
    1b48:	0f 5f       	subi	r16, 0xFF	; 255
    1b4a:	1f 4f       	sbci	r17, 0xFF	; 255
    1b4c:	c6 30       	cpi	r28, 0x06	; 6
    1b4e:	91 f7       	brne	.-28     	; 0x1b34 <GenerateAudio+0x1ba>
                    if ((x>0) && (x!=3)) auBuffer[x] = floatAround(0x80, 5, 0x01, 0x00);
                }

                if (buttonMark){
    1b50:	80 91 44 38 	lds	r24, 0x3844	; 0x803844 <buttonMark>
    1b54:	88 23       	and	r24, r24
    1b56:	c9 f0       	breq	.+50     	; 0x1b8a <GenerateAudio+0x210>
                    //"Floating" speed for howl (and noise, but that's hardly audible)
                    floatSpeed(5, 0x0280, 0x0400);
    1b58:	40 e0       	ldi	r20, 0x00	; 0
    1b5a:	54 e0       	ldi	r21, 0x04	; 4
    1b5c:	60 e8       	ldi	r22, 0x80	; 128
    1b5e:	72 e0       	ldi	r23, 0x02	; 2
    1b60:	85 e0       	ldi	r24, 0x05	; 5
    1b62:	60 db       	rcall	.-2368   	; 0x1224 <floatSpeed>
            
                    //"Floating" volume and wind howl during 8 bit rainstorm needs some randomness
                    auVolume = floatAround(auVolume, 2, 0x10, 0xA0);
    1b64:	80 91 b8 3a 	lds	r24, 0x3AB8	; 0x803ab8 <auVolume>
    1b68:	20 ea       	ldi	r18, 0xA0	; 160
    1b6a:	40 e1       	ldi	r20, 0x10	; 16
    1b6c:	62 e0       	ldi	r22, 0x02	; 2
    1b6e:	8c db       	rcall	.-2280   	; 0x1288 <floatAround>
    1b70:	80 93 b8 3a 	sts	0x3AB8, r24	; 0x803ab8 <auVolume>
                    auBuffer[0] = floatAround(auBuffer[0], 2, 0x70, 0x90);
    1b74:	20 e9       	ldi	r18, 0x90	; 144
    1b76:	40 e7       	ldi	r20, 0x70	; 112
    1b78:	62 e0       	ldi	r22, 0x02	; 2
    1b7a:	80 91 51 38 	lds	r24, 0x3851	; 0x803851 <auBuffer.4024>
    1b7e:	84 db       	rcall	.-2296   	; 0x1288 <floatAround>
    1b80:	80 93 51 38 	sts	0x3851, r24	; 0x803851 <auBuffer.4024>
                    auBuffer[3] = 0xFF-auBuffer[0];  //Inverse value of wind[0] produces a whistle
    1b84:	80 95       	com	r24
    1b86:	80 93 54 38 	sts	0x3854, r24	; 0x803854 <auBuffer.4024+0x3>
                }
            }

            //Footsteps
            if ((effect&0xE0)==128){
    1b8a:	80 91 3c 38 	lds	r24, 0x383C	; 0x80383c <effect>
    1b8e:	90 91 3d 38 	lds	r25, 0x383D	; 0x80383d <effect+0x1>
                    if (auVolume) --auVolume;
                }
            }*/

            //
            if ((effect&0xE0)==192){
    1b92:	80 91 3c 38 	lds	r24, 0x383C	; 0x80383c <effect>
    1b96:	90 91 3d 38 	lds	r25, 0x383D	; 0x80383d <effect+0x1>
    1b9a:	58 c0       	rjmp	.+176    	; 0x1c4c <GenerateAudio+0x2d2>
            }

            //
            else {
            }
        } else if ((effect&0xff00)==0x0100) {
    1b9c:	80 91 3c 38 	lds	r24, 0x383C	; 0x80383c <effect>
    1ba0:	90 91 3d 38 	lds	r25, 0x383D	; 0x80383d <effect+0x1>
    1ba4:	88 27       	eor	r24, r24
    1ba6:	81 15       	cp	r24, r1
    1ba8:	91 40       	sbci	r25, 0x01	; 1
    1baa:	09 f0       	breq	.+2      	; 0x1bae <GenerateAudio+0x234>
    1bac:	4f c0       	rjmp	.+158    	; 0x1c4c <GenerateAudio+0x2d2>
            if ((effect&0xE0) <= 0x90) {
    1bae:	80 91 3c 38 	lds	r24, 0x383C	; 0x80383c <effect>
    1bb2:	90 91 3d 38 	lds	r25, 0x383D	; 0x80383d <effect+0x1>
    1bb6:	80 7e       	andi	r24, 0xE0	; 224
    1bb8:	99 27       	eor	r25, r25
    1bba:	81 39       	cpi	r24, 0x91	; 145
    1bbc:	91 05       	cpc	r25, r1
    1bbe:	08 f0       	brcs	.+2      	; 0x1bc2 <GenerateAudio+0x248>
    1bc0:	45 c0       	rjmp	.+138    	; 0x1c4c <GenerateAudio+0x2d2>
                
                static uint8_t auBuffer[3] = {255, 1, 0};
                static uint8_t duration, start;
                uint16_t freq = ((effect&0xE0)+1)<<6;
    1bc2:	60 91 3c 38 	lds	r22, 0x383C	; 0x80383c <effect>
    1bc6:	70 91 3d 38 	lds	r23, 0x383D	; 0x80383d <effect+0x1>
    1bca:	60 7e       	andi	r22, 0xE0	; 224
    1bcc:	77 27       	eor	r23, r23
    1bce:	6f 5f       	subi	r22, 0xFF	; 255
    1bd0:	7f 4f       	sbci	r23, 0xFF	; 255
    1bd2:	86 e0       	ldi	r24, 0x06	; 6
    1bd4:	66 0f       	add	r22, r22
    1bd6:	77 1f       	adc	r23, r23
    1bd8:	8a 95       	dec	r24
                floatSpeed(1, freq+0x0200, freq+0x0300);
    1bda:	e1 f7       	brne	.-8      	; 0x1bd4 <GenerateAudio+0x25a>
    1bdc:	ab 01       	movw	r20, r22
    1bde:	5d 5f       	subi	r21, 0xFD	; 253
    1be0:	7e 5f       	subi	r23, 0xFE	; 254
    1be2:	81 e0       	ldi	r24, 0x01	; 1
    1be4:	1f db       	rcall	.-2498   	; 0x1224 <floatSpeed>
                //auBuffer[] = floatAround(0x80, 5, 0x01, 0x00);

                if (buttonMark) {
    1be6:	80 91 44 38 	lds	r24, 0x3844	; 0x803844 <buttonMark>
    1bea:	88 23       	and	r24, r24
    1bec:	79 f1       	breq	.+94     	; 0x1c4c <GenerateAudio+0x2d2>
                    if (start == 0) {
    1bee:	80 91 50 38 	lds	r24, 0x3850	; 0x803850 <start.4031>
    1bf2:	81 11       	cpse	r24, r1
    1bf4:	0e c0       	rjmp	.+28     	; 0x1c12 <GenerateAudio+0x298>
                        duration = 3;
    1bf6:	83 e0       	ldi	r24, 0x03	; 3
    1bf8:	80 93 4f 38 	sts	0x384F, r24	; 0x80384f <duration.4030>
                        auRepAddr = &auBuffer[0];
    1bfc:	8e e0       	ldi	r24, 0x0E	; 14
    1bfe:	98 e3       	ldi	r25, 0x38	; 56
    1c00:	80 93 03 38 	sts	0x3803, r24	; 0x803803 <auRepAddr>
    1c04:	90 93 04 38 	sts	0x3804, r25	; 0x803804 <auRepAddr+0x1>
                        auVolume = 255;
    1c08:	8f ef       	ldi	r24, 0xFF	; 255
    1c0a:	80 93 b8 3a 	sts	0x3AB8, r24	; 0x803ab8 <auVolume>
                        start = 1;
    1c0e:	c0 93 50 38 	sts	0x3850, r28	; 0x803850 <start.4031>
                    }   if (duration == 0) {
    1c12:	80 91 4f 38 	lds	r24, 0x384F	; 0x80384f <duration.4030>
    1c16:	81 11       	cpse	r24, r1
    1c18:	13 c0       	rjmp	.+38     	; 0x1c40 <GenerateAudio+0x2c6>
                        effect &= 0x1f;
    1c1a:	80 91 3c 38 	lds	r24, 0x383C	; 0x80383c <effect>
    1c1e:	90 91 3d 38 	lds	r25, 0x383D	; 0x80383d <effect+0x1>
    1c22:	8f 71       	andi	r24, 0x1F	; 31
    1c24:	99 27       	eor	r25, r25
    1c26:	80 93 3c 38 	sts	0x383C, r24	; 0x80383c <effect>
    1c2a:	90 93 3d 38 	sts	0x383D, r25	; 0x80383d <effect+0x1>
                        auRepAddr = &zero;
    1c2e:	8b e3       	ldi	r24, 0x3B	; 59
    1c30:	98 e3       	ldi	r25, 0x38	; 56
    1c32:	80 93 03 38 	sts	0x3803, r24	; 0x803803 <auRepAddr>
    1c36:	90 93 04 38 	sts	0x3804, r25	; 0x803804 <auRepAddr+0x1>
                        //auSmpAddr = &zero;
                        //auVolume = 0xff;
                        start = 0;
    1c3a:	10 92 50 38 	sts	0x3850, r1	; 0x803850 <start.4031>
    1c3e:	06 c0       	rjmp	.+12     	; 0x1c4c <GenerateAudio+0x2d2>
                    } else duration--;
    1c40:	81 50       	subi	r24, 0x01	; 1
    1c42:	80 93 4f 38 	sts	0x384F, r24	; 0x80384f <duration.4030>
    1c46:	02 c0       	rjmp	.+4      	; 0x1c4c <GenerateAudio+0x2d2>
                }
            }
        }
    } else {
        detHdPh = 0;
    1c48:	10 92 c1 3a 	sts	0x3AC1, r1	; 0x803ac1 <detHdPh>
    }
    return buttonMark;
    1c4c:	80 91 44 38 	lds	r24, 0x3844	; 0x803844 <buttonMark>
}
    1c50:	cf 91       	pop	r28
    1c52:	1f 91       	pop	r17
    1c54:	0f 91       	pop	r16
    1c56:	08 95       	ret

00001c58 <getClock>:

uint16_t getClock() {
    return 60 * minuteMark + (RTC_CNT>>9);
    1c58:	20 91 45 38 	lds	r18, 0x3845	; 0x803845 <minuteMark>
    1c5c:	80 91 48 01 	lds	r24, 0x0148	; 0x800148 <__TEXT_REGION_LENGTH__+0x700148>
    1c60:	90 91 49 01 	lds	r25, 0x0149	; 0x800149 <__TEXT_REGION_LENGTH__+0x700149>
    1c64:	89 2f       	mov	r24, r25
    1c66:	99 27       	eor	r25, r25
    1c68:	86 95       	lsr	r24
}
    1c6a:	3c e3       	ldi	r19, 0x3C	; 60
    1c6c:	23 9f       	mul	r18, r19
    1c6e:	80 0d       	add	r24, r0
    1c70:	91 1d       	adc	r25, r1
    1c72:	11 24       	eor	r1, r1
    1c74:	08 95       	ret

00001c76 <idleTimeout>:

uint8_t idleTimeout(uint16_t lastActive, uint16_t maxIdle) {
    1c76:	0f 93       	push	r16
    1c78:	1f 93       	push	r17
    1c7a:	cf 93       	push	r28
    1c7c:	df 93       	push	r29
    1c7e:	8c 01       	movw	r16, r24
    1c80:	eb 01       	movw	r28, r22
    uint16_t curClock;

    curClock = getClock();
    1c82:	ea df       	rcall	.-44     	; 0x1c58 <getClock>
    1c84:	9c 01       	movw	r18, r24
    if (curClock < lastActive)
    1c86:	80 17       	cp	r24, r16
    1c88:	91 07       	cpc	r25, r17
    1c8a:	08 f4       	brcc	.+2      	; 0x1c8e <idleTimeout+0x18>
        curClock += 256 * 60;
    1c8c:	34 5c       	subi	r19, 0xC4	; 196

    return (curClock > (lastActive + maxIdle));
    1c8e:	c0 0f       	add	r28, r16
    1c90:	d1 1f       	adc	r29, r17
    1c92:	81 e0       	ldi	r24, 0x01	; 1
    1c94:	c2 17       	cp	r28, r18
    1c96:	d3 07       	cpc	r29, r19
    1c98:	08 f0       	brcs	.+2      	; 0x1c9c <idleTimeout+0x26>
    1c9a:	80 e0       	ldi	r24, 0x00	; 0
}
    1c9c:	df 91       	pop	r29
    1c9e:	cf 91       	pop	r28
    1ca0:	1f 91       	pop	r17
    1ca2:	0f 91       	pop	r16
    1ca4:	08 95       	ret

00001ca6 <SelfTest>:

uint8_t SelfTest(){
    1ca6:	1f 93       	push	r17
    1ca8:	cf 93       	push	r28
    1caa:	df 93       	push	r29
    1cac:	00 d0       	rcall	.+0      	; 0x1cae <SelfTest+0x8>
    1cae:	00 d0       	rcall	.+0      	; 0x1cb0 <SelfTest+0xa>
    1cb0:	cd b7       	in	r28, 0x3d	; 61
    1cb2:	de b7       	in	r29, 0x3e	; 62
    uint8_t tstVal[4] = {0x01, 0};
    1cb4:	19 82       	std	Y+1, r1	; 0x01
    1cb6:	1a 82       	std	Y+2, r1	; 0x02
    1cb8:	1b 82       	std	Y+3, r1	; 0x03
    1cba:	1c 82       	std	Y+4, r1	; 0x04
    1cbc:	a8 e4       	ldi	r26, 0x48	; 72
    1cbe:	bf eb       	ldi	r27, 0xBF	; 191

    //Red HCKR all on 100%
    for (uint8_t x=0; x<6; ++x) {
        iLED[HCKR[R][x]] = 0xff;
    1cc0:	8f ef       	ldi	r24, 0xFF	; 255
    1cc2:	ed 91       	ld	r30, X+
    1cc4:	f0 e0       	ldi	r31, 0x00	; 0
    1cc6:	eb 53       	subi	r30, 0x3B	; 59
    1cc8:	f5 4c       	sbci	r31, 0xC5	; 197
    1cca:	80 83       	st	Z, r24

uint8_t SelfTest(){
    uint8_t tstVal[4] = {0x01, 0};

    //Red HCKR all on 100%
    for (uint8_t x=0; x<6; ++x) {
    1ccc:	2f eb       	ldi	r18, 0xBF	; 191
    1cce:	ae 34       	cpi	r26, 0x4E	; 78
    1cd0:	b2 07       	cpc	r27, r18
    1cd2:	b9 f7       	brne	.-18     	; 0x1cc2 <SelfTest+0x1c>
    iLED[HCKR[R][0]] = 0x00;
    iLED[HCKR[G][0]] = 0xff;
    auRepAddr = &zero;*/

    //Light sensor
    tstVal[0] = adcPhot&0xff;
    1cd4:	80 91 bf 3a 	lds	r24, 0x3ABF	; 0x803abf <adcPhot>
    1cd8:	90 91 c0 3a 	lds	r25, 0x3AC0	; 0x803ac0 <adcPhot+0x1>
    while (tstVal[0] == (adcPhot&0xff)) ;
    1cdc:	99 27       	eor	r25, r25
    1cde:	20 91 bf 3a 	lds	r18, 0x3ABF	; 0x803abf <adcPhot>
    1ce2:	30 91 c0 3a 	lds	r19, 0x3AC0	; 0x803ac0 <adcPhot+0x1>
    1ce6:	33 27       	eor	r19, r19
    1ce8:	28 17       	cp	r18, r24
    1cea:	39 07       	cpc	r19, r25
    1cec:	c1 f3       	breq	.-16     	; 0x1cde <SelfTest+0x38>
    iLED[HCKR[R][1]] = 0x00;
    1cee:	e0 91 49 bf 	lds	r30, 0xBF49	; 0x80bf49 <__bss_end+0x8435>
    1cf2:	f0 e0       	ldi	r31, 0x00	; 0
    1cf4:	eb 53       	subi	r30, 0x3B	; 59
    1cf6:	f5 4c       	sbci	r31, 0xC5	; 197
    1cf8:	10 82       	st	Z, r1
    //iLED[HCKR[G][1]] = 0xff;

    //Magnet
    tstVal[0] = adcHall&0xff;
    1cfa:	80 91 bd 3a 	lds	r24, 0x3ABD	; 0x803abd <adcHall>
    1cfe:	90 91 be 3a 	lds	r25, 0x3ABE	; 0x803abe <adcHall+0x1>
    1d02:	89 83       	std	Y+1, r24	; 0x01
    while (tstVal[0] == (adcHall&0xff)) ;
    1d04:	99 27       	eor	r25, r25
    1d06:	20 91 bd 3a 	lds	r18, 0x3ABD	; 0x803abd <adcHall>
    1d0a:	30 91 be 3a 	lds	r19, 0x3ABE	; 0x803abe <adcHall+0x1>
    1d0e:	33 27       	eor	r19, r19
    1d10:	28 17       	cp	r18, r24
    1d12:	39 07       	cpc	r19, r25
    1d14:	c1 f3       	breq	.-16     	; 0x1d06 <SelfTest+0x60>
    iLED[HCKR[R][2]] = 0x00;
    1d16:	e0 91 4a bf 	lds	r30, 0xBF4A	; 0x80bf4a <__bss_end+0x8436>
    1d1a:	f0 e0       	ldi	r31, 0x00	; 0
    1d1c:	eb 53       	subi	r30, 0x3B	; 59
    1d1e:	f5 4c       	sbci	r31, 0xC5	; 197
    1d20:	10 82       	st	Z, r1
    while (tstVal[0] == (adcTemp&0xff)) ;
    iLED[HCKR[R][3]] = 0x00;*/
    //iLED[HCKR[G][3]] = 0xff;

    //Buttons (none pressed / shorted)
    while ((adcBtns>>4) < 200) ;
    1d22:	80 91 b9 3a 	lds	r24, 0x3AB9	; 0x803ab9 <adcBtns>
    1d26:	90 91 ba 3a 	lds	r25, 0x3ABA	; 0x803aba <adcBtns+0x1>
    1d2a:	80 38       	cpi	r24, 0x80	; 128
    1d2c:	9c 40       	sbci	r25, 0x0C	; 12
    1d2e:	c8 f3       	brcs	.-14     	; 0x1d22 <SelfTest+0x7c>
    iLED[HCKR[R][4]] = 0x00;
    1d30:	e0 91 4c bf 	lds	r30, 0xBF4C	; 0x80bf4c <__bss_end+0x8438>
    1d34:	f0 e0       	ldi	r31, 0x00	; 0
    1d36:	eb 53       	subi	r30, 0x3B	; 59
    1d38:	f5 4c       	sbci	r31, 0xC5	; 197
    1d3a:	10 82       	st	Z, r1
        0x3CCD              Level 6, open_acl=0
        0x3CCE              Level 6, action_acl=192
        0x3CCF              Level 6, action_mask=20
    */
    
    ExtEERead(0x3CCC, 4, 0, (uint8_t *)&tstVal[0]);
    1d3c:	9e 01       	movw	r18, r28
    1d3e:	2f 5f       	subi	r18, 0xFF	; 255
    1d40:	3f 4f       	sbci	r19, 0xFF	; 255
    1d42:	40 e0       	ldi	r20, 0x00	; 0
    1d44:	64 e0       	ldi	r22, 0x04	; 4
    1d46:	8c ec       	ldi	r24, 0xCC	; 204
    1d48:	9c e3       	ldi	r25, 0x3C	; 60
    1d4a:	ad d9       	rcall	.-3238   	; 0x10a6 <ExtEERead>
    if ((tstVal[0] != 63) || (tstVal[1] != 0) || (tstVal[2] != 192) || (tstVal[3] != 20)){
    1d4c:	89 81       	ldd	r24, Y+1	; 0x01
    1d4e:	8f 33       	cpi	r24, 0x3F	; 63
    1d50:	49 f4       	brne	.+18     	; 0x1d64 <SelfTest+0xbe>
    1d52:	8a 81       	ldd	r24, Y+2	; 0x02
    1d54:	81 11       	cpse	r24, r1
    1d56:	06 c0       	rjmp	.+12     	; 0x1d64 <SelfTest+0xbe>
    1d58:	8b 81       	ldd	r24, Y+3	; 0x03
    1d5a:	80 3c       	cpi	r24, 0xC0	; 192
    1d5c:	19 f4       	brne	.+6      	; 0x1d64 <SelfTest+0xbe>
    1d5e:	8c 81       	ldd	r24, Y+4	; 0x04
    1d60:	84 31       	cpi	r24, 0x14	; 20
    1d62:	09 f0       	breq	.+2      	; 0x1d66 <SelfTest+0xc0>
    1d64:	ff cf       	rjmp	.-2      	; 0x1d64 <SelfTest+0xbe>
    1d66:	80 e0       	ldi	r24, 0x00	; 0
    1d68:	90 e0       	ldi	r25, 0x00	; 0
        while(1);
    }
        //All LEDs off
    for (uint8_t x=0; x<40; ++x) {
        iLED[x]=0;
    1d6a:	fc 01       	movw	r30, r24
    1d6c:	eb 53       	subi	r30, 0x3B	; 59
    1d6e:	f5 4c       	sbci	r31, 0xC5	; 197
    1d70:	10 82       	st	Z, r1
    1d72:	01 96       	adiw	r24, 0x01	; 1
    ExtEERead(0x3CCC, 4, 0, (uint8_t *)&tstVal[0]);
    if ((tstVal[0] != 63) || (tstVal[1] != 0) || (tstVal[2] != 192) || (tstVal[3] != 20)){
        while(1);
    }
        //All LEDs off
    for (uint8_t x=0; x<40; ++x) {
    1d74:	88 32       	cpi	r24, 0x28	; 40
    1d76:	91 05       	cpc	r25, r1
    1d78:	c1 f7       	brne	.-16     	; 0x1d6a <SelfTest+0xc4>
    1d7a:	10 e0       	ldi	r17, 0x00	; 0
        iLED[x]=0;
    }

    for(uint8_t x=0; x<(adcPhot&0x3f); ++x) lfsr();
    1d7c:	80 91 bf 3a 	lds	r24, 0x3ABF	; 0x803abf <adcPhot>
    1d80:	90 91 c0 3a 	lds	r25, 0x3AC0	; 0x803ac0 <adcPhot+0x1>
    1d84:	21 2f       	mov	r18, r17
    1d86:	30 e0       	ldi	r19, 0x00	; 0
    1d88:	8f 73       	andi	r24, 0x3F	; 63
    1d8a:	99 27       	eor	r25, r25
    1d8c:	28 17       	cp	r18, r24
    1d8e:	39 07       	cpc	r19, r25
    1d90:	18 f4       	brcc	.+6      	; 0x1d98 <SelfTest+0xf2>
    1d92:	29 da       	rcall	.-2990   	; 0x11e6 <lfsr>
    1d94:	1f 5f       	subi	r17, 0xFF	; 255
    1d96:	f2 cf       	rjmp	.-28     	; 0x1d7c <SelfTest+0xd6>

    return 0;
}
    1d98:	80 e0       	ldi	r24, 0x00	; 0
    1d9a:	24 96       	adiw	r28, 0x04	; 4
    1d9c:	cd bf       	out	0x3d, r28	; 61
    1d9e:	de bf       	out	0x3e, r29	; 62
    1da0:	df 91       	pop	r29
    1da2:	cf 91       	pop	r28
    1da4:	1f 91       	pop	r17
    1da6:	08 95       	ret

00001da8 <simonLed>:

/**
 * Set the wing LED blocks to selected option
 * @param val
 */
void simonLed(uint8_t val) {
    1da8:	cf 93       	push	r28
    1daa:	df 93       	push	r29
    1dac:	ea e3       	ldi	r30, 0x3A	; 58
    1dae:	ff eb       	ldi	r31, 0xBF	; 191
    1db0:	ef 01       	movw	r28, r30
    for (uint8_t n = 0; n < 5; n++) {
        iLED[WING[L][n]] = 0;
    1db2:	a5 81       	ldd	r26, Z+5	; 0x05
    1db4:	b0 e0       	ldi	r27, 0x00	; 0
    1db6:	ab 53       	subi	r26, 0x3B	; 59
    1db8:	b5 4c       	sbci	r27, 0xC5	; 197
    1dba:	1c 92       	st	X, r1
    1dbc:	31 96       	adiw	r30, 0x01	; 1
        iLED[WING[R][n]] = 0;
    1dbe:	a8 81       	ld	r26, Y
    1dc0:	b0 e0       	ldi	r27, 0x00	; 0
    1dc2:	ab 53       	subi	r26, 0x3B	; 59
    1dc4:	b5 4c       	sbci	r27, 0xC5	; 197
    1dc6:	1c 92       	st	X, r1
/**
 * Set the wing LED blocks to selected option
 * @param val
 */
void simonLed(uint8_t val) {
    for (uint8_t n = 0; n < 5; n++) {
    1dc8:	9f eb       	ldi	r25, 0xBF	; 191
    1dca:	ef 33       	cpi	r30, 0x3F	; 63
    1dcc:	f9 07       	cpc	r31, r25
    1dce:	81 f7       	brne	.-32     	; 0x1db0 <simonLed+0x8>
        iLED[WING[L][n]] = 0;
        iLED[WING[R][n]] = 0;
    }
    if (val == 3) {         // II
    1dd0:	83 30       	cpi	r24, 0x03	; 3
    1dd2:	d9 f4       	brne	.+54     	; 0x1e0a <simonLed+0x62>
        iLED[WING[L][0]] = dimValue;
    1dd4:	e0 91 3f bf 	lds	r30, 0xBF3F	; 0x80bf3f <__bss_end+0x842b>
    1dd8:	f0 e0       	ldi	r31, 0x00	; 0
    1dda:	80 91 0c 38 	lds	r24, 0x380C	; 0x80380c <dimValue>
    1dde:	eb 53       	subi	r30, 0x3B	; 59
    1de0:	f5 4c       	sbci	r31, 0xC5	; 197
    1de2:	80 83       	st	Z, r24
        iLED[WING[L][1]] = dimValue;
    1de4:	e0 91 40 bf 	lds	r30, 0xBF40	; 0x80bf40 <__bss_end+0x842c>
    1de8:	f0 e0       	ldi	r31, 0x00	; 0
    1dea:	80 91 0c 38 	lds	r24, 0x380C	; 0x80380c <dimValue>
    1dee:	eb 53       	subi	r30, 0x3B	; 59
    1df0:	f5 4c       	sbci	r31, 0xC5	; 197
    1df2:	80 83       	st	Z, r24
        iLED[WING[L][2]] = dimValue;
    1df4:	e0 91 41 bf 	lds	r30, 0xBF41	; 0x80bf41 <__bss_end+0x842d>
    1df8:	f0 e0       	ldi	r31, 0x00	; 0
    1dfa:	80 91 0c 38 	lds	r24, 0x380C	; 0x80380c <dimValue>
    1dfe:	eb 53       	subi	r30, 0x3B	; 59
    1e00:	f5 4c       	sbci	r31, 0xC5	; 197
    1e02:	80 83       	st	Z, r24
        effect = 0x013f;
    1e04:	8f e3       	ldi	r24, 0x3F	; 63
    1e06:	91 e0       	ldi	r25, 0x01	; 1
    1e08:	46 c0       	rjmp	.+140    	; 0x1e96 <simonLed+0xee>
    } else if (val == 1) {  //
    1e0a:	81 30       	cpi	r24, 0x01	; 1
    1e0c:	99 f4       	brne	.+38     	; 0x1e34 <simonLed+0x8c>
        iLED[WING[L][3]] = dimValue;
    1e0e:	e0 91 42 bf 	lds	r30, 0xBF42	; 0x80bf42 <__bss_end+0x842e>
    1e12:	f0 e0       	ldi	r31, 0x00	; 0
    1e14:	80 91 0c 38 	lds	r24, 0x380C	; 0x80380c <dimValue>
    1e18:	eb 53       	subi	r30, 0x3B	; 59
    1e1a:	f5 4c       	sbci	r31, 0xC5	; 197
    1e1c:	80 83       	st	Z, r24
        iLED[WING[L][4]] = dimValue;
    1e1e:	e0 91 43 bf 	lds	r30, 0xBF43	; 0x80bf43 <__bss_end+0x842f>
    1e22:	f0 e0       	ldi	r31, 0x00	; 0
    1e24:	80 91 0c 38 	lds	r24, 0x380C	; 0x80380c <dimValue>
    1e28:	eb 53       	subi	r30, 0x3B	; 59
    1e2a:	f5 4c       	sbci	r31, 0xC5	; 197
    1e2c:	80 83       	st	Z, r24
        effect = 0x015f;
    1e2e:	8f e5       	ldi	r24, 0x5F	; 95
    1e30:	91 e0       	ldi	r25, 0x01	; 1
    1e32:	31 c0       	rjmp	.+98     	; 0x1e96 <simonLed+0xee>
    } else if (val == 4) {  // III
    1e34:	84 30       	cpi	r24, 0x04	; 4
    1e36:	d9 f4       	brne	.+54     	; 0x1e6e <simonLed+0xc6>
        iLED[WING[R][0]] = dimValue;
    1e38:	e0 91 3a bf 	lds	r30, 0xBF3A	; 0x80bf3a <__bss_end+0x8426>
    1e3c:	f0 e0       	ldi	r31, 0x00	; 0
    1e3e:	80 91 0c 38 	lds	r24, 0x380C	; 0x80380c <dimValue>
    1e42:	eb 53       	subi	r30, 0x3B	; 59
    1e44:	f5 4c       	sbci	r31, 0xC5	; 197
    1e46:	80 83       	st	Z, r24
        iLED[WING[R][1]] = dimValue;
    1e48:	e0 91 3b bf 	lds	r30, 0xBF3B	; 0x80bf3b <__bss_end+0x8427>
    1e4c:	f0 e0       	ldi	r31, 0x00	; 0
    1e4e:	80 91 0c 38 	lds	r24, 0x380C	; 0x80380c <dimValue>
    1e52:	eb 53       	subi	r30, 0x3B	; 59
    1e54:	f5 4c       	sbci	r31, 0xC5	; 197
    1e56:	80 83       	st	Z, r24
        iLED[WING[R][2]] = dimValue;
    1e58:	e0 91 3c bf 	lds	r30, 0xBF3C	; 0x80bf3c <__bss_end+0x8428>
    1e5c:	f0 e0       	ldi	r31, 0x00	; 0
    1e5e:	80 91 0c 38 	lds	r24, 0x380C	; 0x80380c <dimValue>
    1e62:	eb 53       	subi	r30, 0x3B	; 59
    1e64:	f5 4c       	sbci	r31, 0xC5	; 197
    1e66:	80 83       	st	Z, r24
        effect = 0x017f;
    1e68:	8f e7       	ldi	r24, 0x7F	; 127
    1e6a:	91 e0       	ldi	r25, 0x01	; 1
    1e6c:	14 c0       	rjmp	.+40     	; 0x1e96 <simonLed+0xee>
    } else if (val == 2) {  // I
    1e6e:	82 30       	cpi	r24, 0x02	; 2
    1e70:	b1 f4       	brne	.+44     	; 0x1e9e <simonLed+0xf6>
        iLED[WING[R][3]] = dimValue;
    1e72:	e0 91 3d bf 	lds	r30, 0xBF3D	; 0x80bf3d <__bss_end+0x8429>
    1e76:	f0 e0       	ldi	r31, 0x00	; 0
    1e78:	80 91 0c 38 	lds	r24, 0x380C	; 0x80380c <dimValue>
    1e7c:	eb 53       	subi	r30, 0x3B	; 59
    1e7e:	f5 4c       	sbci	r31, 0xC5	; 197
    1e80:	80 83       	st	Z, r24
        iLED[WING[R][4]] = dimValue;
    1e82:	e0 91 3e bf 	lds	r30, 0xBF3E	; 0x80bf3e <__bss_end+0x842a>
    1e86:	f0 e0       	ldi	r31, 0x00	; 0
    1e88:	80 91 0c 38 	lds	r24, 0x380C	; 0x80380c <dimValue>
    1e8c:	eb 53       	subi	r30, 0x3B	; 59
    1e8e:	f5 4c       	sbci	r31, 0xC5	; 197
    1e90:	80 83       	st	Z, r24
        effect = 0x019f;
    1e92:	8f e9       	ldi	r24, 0x9F	; 159
    1e94:	91 e0       	ldi	r25, 0x01	; 1
    1e96:	80 93 3c 38 	sts	0x383C, r24	; 0x80383c <effect>
    1e9a:	90 93 3d 38 	sts	0x383D, r25	; 0x80383d <effect+0x1>
    }
}
    1e9e:	df 91       	pop	r29
    1ea0:	cf 91       	pop	r28
    1ea2:	08 95       	ret

00001ea4 <BastetDictates>:

/**
 * Main game loop
 * @return 0
 */
uint8_t BastetDictates() {
    1ea4:	cf 93       	push	r28
    1ea6:	df 93       	push	r29
    if ((TEXT != gameNow) && (BASTET != gameNow))
    1ea8:	80 91 3e 38 	lds	r24, 0x383E	; 0x80383e <gameNow>
    1eac:	8d 7f       	andi	r24, 0xFD	; 253
    1eae:	09 f0       	breq	.+2      	; 0x1eb2 <BastetDictates+0xe>
    1eb0:	73 c1       	rjmp	.+742    	; 0x2198 <BastetDictates+0x2f4>
        return 0;

    if (CheckState(BASTET_COMPLETED)) {
    1eb2:	8a e7       	ldi	r24, 0x7A	; 122
    1eb4:	c3 da       	rcall	.-2682   	; 0x143c <CheckState>
    1eb6:	88 23       	and	r24, r24
    1eb8:	41 f0       	breq	.+16     	; 0x1eca <BastetDictates+0x26>
        if (BASTET == gameNow) {
    1eba:	80 91 3e 38 	lds	r24, 0x383E	; 0x80383e <gameNow>
    1ebe:	82 30       	cpi	r24, 0x02	; 2
    1ec0:	09 f0       	breq	.+2      	; 0x1ec4 <BastetDictates+0x20>
    1ec2:	6a c1       	rjmp	.+724    	; 0x2198 <BastetDictates+0x2f4>
            gameNow = TEXT;
    1ec4:	10 92 3e 38 	sts	0x383E, r1	; 0x80383e <gameNow>
    1ec8:	67 c1       	rjmp	.+718    	; 0x2198 <BastetDictates+0x2f4>
        }
        return 0;
    }

    if (CheckState(LANYARD_COMPLETED))
    1eca:	8b e7       	ldi	r24, 0x7B	; 123
    1ecc:	b7 da       	rcall	.-2706   	; 0x143c <CheckState>
    1ece:	90 91 08 38 	lds	r25, 0x3808	; 0x803808 <buttonState>
    1ed2:	88 23       	and	r24, r24
    1ed4:	29 f0       	breq	.+10     	; 0x1ee0 <BastetDictates+0x3c>
        if (buttonState!=0xff)
    1ed6:	9f 3f       	cpi	r25, 0xFF	; 255
    1ed8:	19 f0       	breq	.+6      	; 0x1ee0 <BastetDictates+0x3c>
            gameNow = BASTET;
    1eda:	82 e0       	ldi	r24, 0x02	; 2
    1edc:	80 93 3e 38 	sts	0x383E, r24	; 0x80383e <gameNow>

    iLED[CAT] = (buttonState==0xff ? 0 : dimValue);
    1ee0:	e0 91 36 bf 	lds	r30, 0xBF36	; 0x80bf36 <__bss_end+0x8422>
    1ee4:	f0 e0       	ldi	r31, 0x00	; 0
    1ee6:	9f 3f       	cpi	r25, 0xFF	; 255
    1ee8:	19 f0       	breq	.+6      	; 0x1ef0 <BastetDictates+0x4c>
    1eea:	80 91 0c 38 	lds	r24, 0x380C	; 0x80380c <dimValue>
    1eee:	01 c0       	rjmp	.+2      	; 0x1ef2 <BastetDictates+0x4e>
    1ef0:	80 e0       	ldi	r24, 0x00	; 0
    1ef2:	eb 53       	subi	r30, 0x3B	; 59
    1ef4:	f5 4c       	sbci	r31, 0xC5	; 197
    1ef6:	80 83       	st	Z, r24

    if (BASTET_BOOT == simonGameState) {
    1ef8:	80 91 5e 38 	lds	r24, 0x385E	; 0x80385e <simonGameState>
    1efc:	81 11       	cpse	r24, r1
    1efe:	0c c0       	rjmp	.+24     	; 0x1f18 <BastetDictates+0x74>
    1f00:	c4 e6       	ldi	r28, 0x64	; 100
        for (uint8_t i = 0; i < BASTET_LENGTH; i++) {
            simonState[i] = (lfsr() % 4);
    1f02:	d8 e3       	ldi	r29, 0x38	; 56
    1f04:	70 d9       	rcall	.-3360   	; 0x11e6 <lfsr>
    1f06:	83 70       	andi	r24, 0x03	; 3
    1f08:	89 93       	st	Y+, r24
            gameNow = BASTET;

    iLED[CAT] = (buttonState==0xff ? 0 : dimValue);

    if (BASTET_BOOT == simonGameState) {
        for (uint8_t i = 0; i < BASTET_LENGTH; i++) {
    1f0a:	88 e3       	ldi	r24, 0x38	; 56
    1f0c:	c0 37       	cpi	r28, 0x70	; 112
    1f0e:	d8 07       	cpc	r29, r24
    1f10:	c9 f7       	brne	.-14     	; 0x1f04 <BastetDictates+0x60>
            simonState[i] = (lfsr() % 4);
        }
        simonGameState = BASTET_GAME_START;
    1f12:	81 e0       	ldi	r24, 0x01	; 1
    1f14:	80 93 5e 38 	sts	0x385E, r24	; 0x80385e <simonGameState>
    }

    if (BASTET_GAME_START == simonGameState && BASTET == gameNow) {
    1f18:	80 91 5e 38 	lds	r24, 0x385E	; 0x80385e <simonGameState>
    1f1c:	81 30       	cpi	r24, 0x01	; 1
    1f1e:	71 f4       	brne	.+28     	; 0x1f3c <BastetDictates+0x98>
    1f20:	80 91 3e 38 	lds	r24, 0x383E	; 0x80383e <gameNow>
    1f24:	82 30       	cpi	r24, 0x02	; 2
    1f26:	51 f4       	brne	.+20     	; 0x1f3c <BastetDictates+0x98>
        simonGameState = BASTET_GAME_INTRO;
    1f28:	80 93 5e 38 	sts	0x385E, r24	; 0x80385e <simonGameState>
        simonPos = 0;
    1f2c:	10 92 63 38 	sts	0x3863, r1	; 0x803863 <simonPos>
        simonInputPos = 0;
    1f30:	10 92 62 38 	sts	0x3862, r1	; 0x803862 <simonInputPos>
        simonTimer = 0;
    1f34:	10 92 61 38 	sts	0x3861, r1	; 0x803861 <simonTimer>
        simonCounter = 0;
    1f38:	10 92 5f 38 	sts	0x385F, r1	; 0x80385f <simonCounter>
    }

    if (BASTET_GAME_INTRO == simonGameState) {
    1f3c:	80 91 5e 38 	lds	r24, 0x385E	; 0x80385e <simonGameState>
    1f40:	82 30       	cpi	r24, 0x02	; 2
    1f42:	19 f5       	brne	.+70     	; 0x1f8a <BastetDictates+0xe6>
        if (simonTimer > 5) {   // .33 seconds
    1f44:	80 91 61 38 	lds	r24, 0x3861	; 0x803861 <simonTimer>
    1f48:	86 30       	cpi	r24, 0x06	; 6
    1f4a:	38 f0       	brcs	.+14     	; 0x1f5a <BastetDictates+0xb6>
            simonCounter++;
    1f4c:	80 91 5f 38 	lds	r24, 0x385F	; 0x80385f <simonCounter>
    1f50:	8f 5f       	subi	r24, 0xFF	; 255
    1f52:	80 93 5f 38 	sts	0x385F, r24	; 0x80385f <simonCounter>
            simonTimer = 0;
    1f56:	10 92 61 38 	sts	0x3861, r1	; 0x803861 <simonTimer>
        }
        if (simonCounter > 5) {
    1f5a:	e0 91 5f 38 	lds	r30, 0x385F	; 0x80385f <simonCounter>
    1f5e:	e6 30       	cpi	r30, 0x06	; 6
    1f60:	48 f0       	brcs	.+18     	; 0x1f74 <BastetDictates+0xd0>
            simonGameState = BASTET_GAME_SHOW_PATTERN;
    1f62:	83 e0       	ldi	r24, 0x03	; 3
    1f64:	80 93 5e 38 	sts	0x385E, r24	; 0x80385e <simonGameState>
            simonTimer = 0;
    1f68:	10 92 61 38 	sts	0x3861, r1	; 0x803861 <simonTimer>
            simonCounter = 0;
    1f6c:	10 92 5f 38 	sts	0x385F, r1	; 0x80385f <simonCounter>
            ClearHackerLeds();
    1f70:	72 db       	rcall	.-2332   	; 0x1656 <ClearHackerLeds>
            return 0;
    1f72:	12 c1       	rjmp	.+548    	; 0x2198 <BastetDictates+0x2f4>
        }
        iLED[HCKR[R][simonCounter]] = dimValue;
    1f74:	f0 e0       	ldi	r31, 0x00	; 0
    1f76:	e8 5b       	subi	r30, 0xB8	; 184
    1f78:	f0 44       	sbci	r31, 0x40	; 64
    1f7a:	e0 81       	ld	r30, Z
    1f7c:	f0 e0       	ldi	r31, 0x00	; 0
    1f7e:	80 91 0c 38 	lds	r24, 0x380C	; 0x80380c <dimValue>
    1f82:	eb 53       	subi	r30, 0x3B	; 59
    1f84:	f5 4c       	sbci	r31, 0xC5	; 197
    1f86:	80 83       	st	Z, r24
    1f88:	2b c0       	rjmp	.+86     	; 0x1fe0 <BastetDictates+0x13c>
    }

    if (BASTET_GAME_SHOW_PATTERN == simonGameState) {
    1f8a:	83 30       	cpi	r24, 0x03	; 3
    1f8c:	49 f5       	brne	.+82     	; 0x1fe0 <BastetDictates+0x13c>
        if (simonTimer > 7) {   // .5 second
    1f8e:	80 91 61 38 	lds	r24, 0x3861	; 0x803861 <simonTimer>
    1f92:	88 30       	cpi	r24, 0x08	; 8
    1f94:	38 f0       	brcs	.+14     	; 0x1fa4 <BastetDictates+0x100>
            simonCounter++;
    1f96:	80 91 5f 38 	lds	r24, 0x385F	; 0x80385f <simonCounter>
    1f9a:	8f 5f       	subi	r24, 0xFF	; 255
    1f9c:	80 93 5f 38 	sts	0x385F, r24	; 0x80385f <simonCounter>
            simonTimer = 0;
    1fa0:	10 92 61 38 	sts	0x3861, r1	; 0x803861 <simonTimer>
        }
        if (simonCounter > simonPos) {
    1fa4:	e0 91 5f 38 	lds	r30, 0x385F	; 0x80385f <simonCounter>
    1fa8:	80 91 63 38 	lds	r24, 0x3863	; 0x803863 <simonPos>
    1fac:	8e 17       	cp	r24, r30
    1fae:	40 f4       	brcc	.+16     	; 0x1fc0 <BastetDictates+0x11c>
            simonInputPos = 0;
    1fb0:	10 92 62 38 	sts	0x3862, r1	; 0x803862 <simonInputPos>
            simonGameState = BASTET_GAME_INPUT;
    1fb4:	85 e0       	ldi	r24, 0x05	; 5
    1fb6:	80 93 5e 38 	sts	0x385E, r24	; 0x80385e <simonGameState>
            simonLed(0);
    1fba:	80 e0       	ldi	r24, 0x00	; 0
    1fbc:	f5 de       	rcall	.-534    	; 0x1da8 <simonLed>
    1fbe:	98 c0       	rjmp	.+304    	; 0x20f0 <BastetDictates+0x24c>
            simonTimer = 0;
            return 0;
        }
        if (simonTimer < 3) {
    1fc0:	80 91 61 38 	lds	r24, 0x3861	; 0x803861 <simonTimer>
    1fc4:	83 30       	cpi	r24, 0x03	; 3
    1fc6:	30 f4       	brcc	.+12     	; 0x1fd4 <BastetDictates+0x130>
            simonLed(simonState[simonCounter] + 1);
    1fc8:	f0 e0       	ldi	r31, 0x00	; 0
    1fca:	ec 59       	subi	r30, 0x9C	; 156
    1fcc:	f7 4c       	sbci	r31, 0xC7	; 199
    1fce:	80 81       	ld	r24, Z
    1fd0:	8f 5f       	subi	r24, 0xFF	; 255
    1fd2:	ea de       	rcall	.-556    	; 0x1da8 <simonLed>
        }
        if (simonTimer > 6) {
    1fd4:	80 91 61 38 	lds	r24, 0x3861	; 0x803861 <simonTimer>
    1fd8:	87 30       	cpi	r24, 0x07	; 7
    1fda:	10 f0       	brcs	.+4      	; 0x1fe0 <BastetDictates+0x13c>
            simonLed(0);
    1fdc:	80 e0       	ldi	r24, 0x00	; 0
    1fde:	e4 de       	rcall	.-568    	; 0x1da8 <simonLed>
    1fe0:	c0 91 5e 38 	lds	r28, 0x385E	; 0x80385e <simonGameState>
        }
    }

    if (BASTET_GAME_INPUT == simonGameState) {
    1fe4:	c5 30       	cpi	r28, 0x05	; 5
    1fe6:	09 f0       	breq	.+2      	; 0x1fea <BastetDictates+0x146>
    1fe8:	86 c0       	rjmp	.+268    	; 0x20f6 <BastetDictates+0x252>
    1fea:	80 91 08 38 	lds	r24, 0x3808	; 0x803808 <buttonState>
        //Button pressed
        if (lastButtonState != buttonState && (buttonState+1) > 0) {
    1fee:	90 91 07 38 	lds	r25, 0x3807	; 0x803807 <lastButtonState>
    1ff2:	98 17       	cp	r25, r24
    1ff4:	09 f4       	brne	.+2      	; 0x1ff8 <BastetDictates+0x154>
    1ff6:	71 c0       	rjmp	.+226    	; 0x20da <BastetDictates+0x236>
    1ff8:	90 91 60 38 	lds	r25, 0x3860	; 0x803860 <simonWait>
            if (simonWait == 0 && buttonState < 4) {
    1ffc:	91 11       	cpse	r25, r1
    1ffe:	6f c0       	rjmp	.+222    	; 0x20de <BastetDictates+0x23a>
    2000:	84 30       	cpi	r24, 0x04	; 4
    2002:	08 f0       	brcs	.+2      	; 0x2006 <BastetDictates+0x162>
    2004:	6c c0       	rjmp	.+216    	; 0x20de <BastetDictates+0x23a>
                simonWait = 1;
    2006:	91 e0       	ldi	r25, 0x01	; 1
    2008:	90 93 60 38 	sts	0x3860, r25	; 0x803860 <simonWait>
                simonTimer = 0;
    200c:	10 92 61 38 	sts	0x3861, r1	; 0x803861 <simonTimer>
                simonLed(buttonState+1);
    2010:	8f 5f       	subi	r24, 0xFF	; 255
    2012:	ca de       	rcall	.-620    	; 0x1da8 <simonLed>
    2014:	84 e0       	ldi	r24, 0x04	; 4
                simonGameState = BASTET_GAME_WAIT_LEDS;
    2016:	80 93 5e 38 	sts	0x385E, r24	; 0x80385e <simonGameState>
    201a:	c0 93 30 38 	sts	0x3830, r28	; 0x803830 <simonNextGameState>
                simonNextGameState = BASTET_GAME_INPUT;
    201e:	80 91 62 38 	lds	r24, 0x3862	; 0x803862 <simonInputPos>

                if (simonState[simonInputPos] == buttonState) {
    2022:	e8 2f       	mov	r30, r24
    2024:	f0 e0       	ldi	r31, 0x00	; 0
    2026:	ec 59       	subi	r30, 0x9C	; 156
    2028:	f7 4c       	sbci	r31, 0xC7	; 199
    202a:	20 81       	ld	r18, Z
    202c:	90 91 08 38 	lds	r25, 0x3808	; 0x803808 <buttonState>
    2030:	29 13       	cpse	r18, r25
    2032:	1d c0       	rjmp	.+58     	; 0x206e <BastetDictates+0x1ca>
    2034:	8f 5f       	subi	r24, 0xFF	; 255
                    simonInputPos++;
    2036:	80 93 62 38 	sts	0x3862, r24	; 0x803862 <simonInputPos>
    203a:	e0 91 63 38 	lds	r30, 0x3863	; 0x803863 <simonPos>
                    if (simonInputPos > simonPos) {
    203e:	e8 17       	cp	r30, r24
    2040:	a0 f5       	brcc	.+104    	; 0x20aa <BastetDictates+0x206>
    2042:	ef 5f       	subi	r30, 0xFF	; 255
                        simonPos++;
    2044:	e0 93 63 38 	sts	0x3863, r30	; 0x803863 <simonPos>
    2048:	10 92 61 38 	sts	0x3861, r1	; 0x803861 <simonTimer>
                        simonTimer = 0;
    204c:	10 92 5f 38 	sts	0x385F, r1	; 0x80385f <simonCounter>
                        simonCounter = 0;
    2050:	e1 30       	cpi	r30, 0x01	; 1
                        if (simonPos > 1) { // BASTET_LENGTH = 12
    2052:	59 f0       	breq	.+22     	; 0x206a <BastetDictates+0x1c6>
    2054:	e6 95       	lsr	r30
                            iLED[HCKR[G][(simonPos / 2) - 1]] = dimValue;
    2056:	f0 e0       	ldi	r31, 0x00	; 0
    2058:	e8 5b       	subi	r30, 0xB8	; 184
    205a:	f0 44       	sbci	r31, 0x40	; 64
    205c:	e5 81       	ldd	r30, Z+5	; 0x05
    205e:	f0 e0       	ldi	r31, 0x00	; 0
    2060:	80 91 0c 38 	lds	r24, 0x380C	; 0x80380c <dimValue>
    2064:	eb 53       	subi	r30, 0x3B	; 59
    2066:	f5 4c       	sbci	r31, 0xC5	; 197
    2068:	80 83       	st	Z, r24
    206a:	83 e0       	ldi	r24, 0x03	; 3
                        }
                        simonNextGameState = BASTET_GAME_SHOW_PATTERN;
    206c:	1c c0       	rjmp	.+56     	; 0x20a6 <BastetDictates+0x202>
    206e:	80 e2       	ldi	r24, 0x20	; 32
                    }
                } else {
                    effect = 32;
    2070:	90 e0       	ldi	r25, 0x00	; 0
    2072:	80 93 3c 38 	sts	0x383C, r24	; 0x80383c <effect>
    2076:	90 93 3d 38 	sts	0x383D, r25	; 0x80383d <effect+0x1>
    207a:	a8 e4       	ldi	r26, 0x48	; 72
    207c:	bf eb       	ldi	r27, 0xBF	; 191
    207e:	ed 91       	ld	r30, X+
                    for (uint8_t n=0; n<6; n++){
                        iLED[HCKR[R][n]] = dimValue;
    2080:	f0 e0       	ldi	r31, 0x00	; 0
    2082:	80 91 0c 38 	lds	r24, 0x380C	; 0x80380c <dimValue>
    2086:	eb 53       	subi	r30, 0x3B	; 59
    2088:	f5 4c       	sbci	r31, 0xC5	; 197
    208a:	80 83       	st	Z, r24
    208c:	8f eb       	ldi	r24, 0xBF	; 191
                        }
                        simonNextGameState = BASTET_GAME_SHOW_PATTERN;
                    }
                } else {
                    effect = 32;
                    for (uint8_t n=0; n<6; n++){
    208e:	ae 34       	cpi	r26, 0x4E	; 78
    2090:	b8 07       	cpc	r27, r24
    2092:	a9 f7       	brne	.-22     	; 0x207e <BastetDictates+0x1da>
    2094:	10 92 62 38 	sts	0x3862, r1	; 0x803862 <simonInputPos>
                        iLED[HCKR[R][n]] = dimValue;
                    }
                    simonInputPos = 0;
    2098:	10 92 63 38 	sts	0x3863, r1	; 0x803863 <simonPos>
                    simonPos = 0;
    209c:	10 92 61 38 	sts	0x3861, r1	; 0x803861 <simonTimer>
                    simonTimer = 0;
    20a0:	10 92 5f 38 	sts	0x385F, r1	; 0x80385f <simonCounter>
                    simonCounter = 0;
    20a4:	86 e0       	ldi	r24, 0x06	; 6
                    simonNextGameState = BASTET_GAME_OUTRO;
    20a6:	80 93 30 38 	sts	0x3830, r24	; 0x803830 <simonNextGameState>
    20aa:	80 91 62 38 	lds	r24, 0x3862	; 0x803862 <simonInputPos>
                }

                if (simonInputPos >= BASTET_LENGTH || simonPos >= BASTET_LENGTH) { // beetje dubbel
    20ae:	8c 30       	cpi	r24, 0x0C	; 12
    20b0:	20 f4       	brcc	.+8      	; 0x20ba <BastetDictates+0x216>
    20b2:	80 91 63 38 	lds	r24, 0x3863	; 0x803863 <simonPos>
    20b6:	8c 30       	cpi	r24, 0x0C	; 12
    20b8:	90 f0       	brcs	.+36     	; 0x20de <BastetDictates+0x23a>
                    effect = 64|2;
    20ba:	82 e4       	ldi	r24, 0x42	; 66
    20bc:	90 e0       	ldi	r25, 0x00	; 0
    20be:	80 93 3c 38 	sts	0x383C, r24	; 0x80383c <effect>
    20c2:	90 93 3d 38 	sts	0x383D, r25	; 0x80383d <effect+0x1>
                    UpdateState(BASTET_COMPLETED);
    20c6:	8a e7       	ldi	r24, 0x7A	; 122
    20c8:	98 d9       	rcall	.-3280   	; 0x13fa <UpdateState>
    20ca:	10 92 61 38 	sts	0x3861, r1	; 0x803861 <simonTimer>
                    simonTimer = 0;
    20ce:	10 92 5f 38 	sts	0x385F, r1	; 0x80385f <simonCounter>
                    simonCounter = 0;
    20d2:	87 e0       	ldi	r24, 0x07	; 7
                    simonNextGameState = BASTET_GAME_OVER;
    20d4:	80 93 30 38 	sts	0x3830, r24	; 0x803830 <simonNextGameState>
    20d8:	02 c0       	rjmp	.+4      	; 0x20de <BastetDictates+0x23a>
    20da:	10 92 60 38 	sts	0x3860, r1	; 0x803860 <simonWait>
                }
            }
        
        //Button released, next or reset!
        } else {
            simonWait = 0;
    20de:	80 91 61 38 	lds	r24, 0x3861	; 0x803861 <simonTimer>
        }

        if (simonTimer == 200) {    // did you forget about Bastet?
    20e2:	88 3c       	cpi	r24, 0xC8	; 200
    20e4:	41 f4       	brne	.+16     	; 0x20f6 <BastetDictates+0x252>
    20e6:	83 e0       	ldi	r24, 0x03	; 3
            simonGameState = BASTET_GAME_SHOW_PATTERN;
    20e8:	80 93 5e 38 	sts	0x385E, r24	; 0x80385e <simonGameState>
    20ec:	10 92 5f 38 	sts	0x385F, r1	; 0x80385f <simonCounter>
            simonCounter = 0;
    20f0:	10 92 61 38 	sts	0x3861, r1	; 0x803861 <simonTimer>
            simonTimer = 0;
    20f4:	51 c0       	rjmp	.+162    	; 0x2198 <BastetDictates+0x2f4>
            return 0;
    20f6:	80 91 5e 38 	lds	r24, 0x385E	; 0x80385e <simonGameState>
        }
    }

    if (BASTET_GAME_WAIT_LEDS == simonGameState) {
    20fa:	84 30       	cpi	r24, 0x04	; 4
    20fc:	81 f4       	brne	.+32     	; 0x211e <BastetDictates+0x27a>
        if (simonTimer >= 7) {
    20fe:	80 91 61 38 	lds	r24, 0x3861	; 0x803861 <simonTimer>
    2102:	87 30       	cpi	r24, 0x07	; 7
    2104:	60 f0       	brcs	.+24     	; 0x211e <BastetDictates+0x27a>
            // on to next state after .5 second
            simonLed(0);  // LEDs off
    2106:	80 e0       	ldi	r24, 0x00	; 0
    2108:	4f de       	rcall	.-866    	; 0x1da8 <simonLed>
    210a:	10 92 60 38 	sts	0x3860, r1	; 0x803860 <simonWait>
            simonWait = 0;
    210e:	10 92 61 38 	sts	0x3861, r1	; 0x803861 <simonTimer>
            simonTimer = 0;
    2112:	10 92 5f 38 	sts	0x385F, r1	; 0x80385f <simonCounter>
            simonCounter = 0;
    2116:	80 91 30 38 	lds	r24, 0x3830	; 0x803830 <simonNextGameState>
            simonGameState = simonNextGameState;
    211a:	80 93 5e 38 	sts	0x385E, r24	; 0x80385e <simonGameState>
    211e:	80 91 5e 38 	lds	r24, 0x385E	; 0x80385e <simonGameState>
        }
    }

    if (BASTET_GAME_OUTRO == simonGameState) {
    2122:	86 30       	cpi	r24, 0x06	; 6
    2124:	41 f5       	brne	.+80     	; 0x2176 <BastetDictates+0x2d2>
    2126:	80 91 61 38 	lds	r24, 0x3861	; 0x803861 <simonTimer>
        if (simonTimer > 3) {
    212a:	84 30       	cpi	r24, 0x04	; 4
    212c:	38 f0       	brcs	.+14     	; 0x213c <BastetDictates+0x298>
    212e:	80 91 5f 38 	lds	r24, 0x385F	; 0x80385f <simonCounter>
            simonCounter++;
    2132:	8f 5f       	subi	r24, 0xFF	; 255
    2134:	80 93 5f 38 	sts	0x385F, r24	; 0x80385f <simonCounter>
    2138:	10 92 61 38 	sts	0x3861, r1	; 0x803861 <simonTimer>
            simonTimer = 0;
    213c:	80 91 5f 38 	lds	r24, 0x385F	; 0x80385f <simonCounter>
        }
        if (simonCounter > 5) {
    2140:	86 30       	cpi	r24, 0x06	; 6
    2142:	40 f0       	brcs	.+16     	; 0x2154 <BastetDictates+0x2b0>
    2144:	10 92 61 38 	sts	0x3861, r1	; 0x803861 <simonTimer>
            simonTimer = 0;
    2148:	10 92 5f 38 	sts	0x385F, r1	; 0x80385f <simonCounter>
            simonCounter = 0;
    214c:	87 e0       	ldi	r24, 0x07	; 7
            simonGameState = BASTET_GAME_OVER;
    214e:	80 93 5e 38 	sts	0x385E, r24	; 0x80385e <simonGameState>
    2152:	22 c0       	rjmp	.+68     	; 0x2198 <BastetDictates+0x2f4>
            return 0;
    2154:	e5 e0       	ldi	r30, 0x05	; 5
        }
        iLED[HCKR[R][5-simonCounter]] = 0;
    2156:	f0 e0       	ldi	r31, 0x00	; 0
    2158:	e8 1b       	sub	r30, r24
    215a:	f1 09       	sbc	r31, r1
    215c:	e8 5b       	subi	r30, 0xB8	; 184
    215e:	f0 44       	sbci	r31, 0x40	; 64
    2160:	a0 81       	ld	r26, Z
    2162:	b0 e0       	ldi	r27, 0x00	; 0
    2164:	ab 53       	subi	r26, 0x3B	; 59
    2166:	b5 4c       	sbci	r27, 0xC5	; 197
    2168:	1c 92       	st	X, r1
    216a:	e6 81       	ldd	r30, Z+6	; 0x06
        iLED[HCKR[G][5-simonCounter]] = 0;
    216c:	f0 e0       	ldi	r31, 0x00	; 0
    216e:	eb 53       	subi	r30, 0x3B	; 59
    2170:	f5 4c       	sbci	r31, 0xC5	; 197
    2172:	10 82       	st	Z, r1
    2174:	0c c0       	rjmp	.+24     	; 0x218e <BastetDictates+0x2ea>
    2176:	87 30       	cpi	r24, 0x07	; 7
    }

    if (BASTET_GAME_OVER == simonGameState) {
    2178:	51 f4       	brne	.+20     	; 0x218e <BastetDictates+0x2ea>
        simonInputPos = 0;
    217a:	10 92 62 38 	sts	0x3862, r1	; 0x803862 <simonInputPos>
        simonPos = 0;
    217e:	10 92 63 38 	sts	0x3863, r1	; 0x803863 <simonPos>
        simonGameState = BASTET_BOOT; // BASTET_GAME_START for stale "field" s
    2182:	10 92 5e 38 	sts	0x385E, r1	; 0x80385e <simonGameState>
        gameNow = TEXT;
    2186:	10 92 3e 38 	sts	0x383E, r1	; 0x80383e <gameNow>
        simonLed(0);
    218a:	80 e0       	ldi	r24, 0x00	; 0
    218c:	0d de       	rcall	.-998    	; 0x1da8 <simonLed>
    218e:	80 91 61 38 	lds	r24, 0x3861	; 0x803861 <simonTimer>
    }

    ++simonTimer;
    2192:	8f 5f       	subi	r24, 0xFF	; 255
    2194:	80 93 61 38 	sts	0x3861, r24	; 0x803861 <simonTimer>
    2198:	80 e0       	ldi	r24, 0x00	; 0
    return 0;
}
    219a:	df 91       	pop	r29
    219c:	cf 91       	pop	r28
    219e:	08 95       	ret

000021a0 <Cheat>:
    21a0:	1f 93       	push	r17

//
void SetResponse(uint8_t number, uint16_t address, uint16_t length, uint8_t type){
    reactStr[0][number]=address;
    reactStr[1][number]=length;
    reactStr[2][number]=type;
    21a2:	cf 93       	push	r28
    21a4:	df 93       	push	r29
    21a6:	cd b7       	in	r28, 0x3d	; 61
    21a8:	de b7       	in	r29, 0x3e	; 62
    21aa:	62 97       	sbiw	r28, 0x12	; 18
    21ac:	cd bf       	out	0x3d, r28	; 61
    21ae:	de bf       	out	0x3e, r29	; 62
    21b0:	8a 8b       	std	Y+18, r24	; 0x12
    21b2:	80 e1       	ldi	r24, 0x10	; 16
    21b4:	ee e0       	ldi	r30, 0x0E	; 14
    21b6:	ff eb       	ldi	r31, 0xBF	; 191
    21b8:	de 01       	movw	r26, r28
    21ba:	11 96       	adiw	r26, 0x01	; 1
    21bc:	01 90       	ld	r0, Z+
    21be:	0d 92       	st	X+, r0
    21c0:	8a 95       	dec	r24
    21c2:	e1 f7       	brne	.-8      	; 0x21bc <Cheat+0x1c>
    21c4:	fe 01       	movw	r30, r28
    21c6:	31 96       	adiw	r30, 0x01	; 1
    21c8:	90 e0       	ldi	r25, 0x00	; 0
    21ca:	8f ef       	ldi	r24, 0xFF	; 255
    21cc:	21 91       	ld	r18, Z+
    21ce:	31 91       	ld	r19, Z+
    21d0:	26 17       	cp	r18, r22
    21d2:	37 07       	cpc	r19, r23
    21d4:	09 f4       	brne	.+2      	; 0x21d8 <Cheat+0x38>
    21d6:	89 2f       	mov	r24, r25
    21d8:	9f 5f       	subi	r25, 0xFF	; 255
    21da:	98 30       	cpi	r25, 0x08	; 8
    21dc:	b9 f7       	brne	.-18     	; 0x21cc <Cheat+0x2c>
    21de:	88 30       	cpi	r24, 0x08	; 8
    21e0:	10 f0       	brcs	.+4      	; 0x21e6 <Cheat+0x46>
    21e2:	80 e0       	ldi	r24, 0x00	; 0
    21e4:	14 c0       	rjmp	.+40     	; 0x220e <Cheat+0x6e>
    21e6:	18 e1       	ldi	r17, 0x18	; 24
    21e8:	18 0f       	add	r17, r24
    21ea:	41 e0       	ldi	r20, 0x01	; 1
    21ec:	be 01       	movw	r22, r28
    21ee:	6f 5e       	subi	r22, 0xEF	; 239
    21f0:	7f 4f       	sbci	r23, 0xFF	; 255
    21f2:	81 2f       	mov	r24, r17
    21f4:	0e 94 01 08 	call	0x1002	; 0x1002 <EERead>
    21f8:	89 89       	ldd	r24, Y+17	; 0x11
    21fa:	8f 3f       	cpi	r24, 0xFF	; 255
    21fc:	91 f7       	brne	.-28     	; 0x21e2 <Cheat+0x42>
    21fe:	41 e0       	ldi	r20, 0x01	; 1
    2200:	be 01       	movw	r22, r28
    2202:	6e 5e       	subi	r22, 0xEE	; 238
    2204:	7f 4f       	sbci	r23, 0xFF	; 255
    2206:	81 2f       	mov	r24, r17
    2208:	0e 94 11 08 	call	0x1022	; 0x1022 <EEWrite>
    220c:	81 e0       	ldi	r24, 0x01	; 1
    220e:	62 96       	adiw	r28, 0x12	; 18
    2210:	cd bf       	out	0x3d, r28	; 61
    2212:	de bf       	out	0x3e, r29	; 62
    2214:	df 91       	pop	r29
    2216:	cf 91       	pop	r28
    2218:	1f 91       	pop	r17
    221a:	08 95       	ret

0000221c <UnflipData>:
    221c:	26 2f       	mov	r18, r22
    221e:	fb 01       	movw	r30, r22
    2220:	35 e5       	ldi	r19, 0x55	; 85
    2222:	9e 2f       	mov	r25, r30
    2224:	92 1b       	sub	r25, r18
    2226:	98 17       	cp	r25, r24
    2228:	28 f4       	brcc	.+10     	; 0x2234 <UnflipData+0x18>
    222a:	90 81       	ld	r25, Z
    222c:	92 95       	swap	r25
    222e:	93 27       	eor	r25, r19
    2230:	91 93       	st	Z+, r25
    2232:	f7 cf       	rjmp	.-18     	; 0x2222 <UnflipData+0x6>
    2234:	08 95       	ret

00002236 <ClearTxAfter>:
    2236:	8f 5f       	subi	r24, 0xFF	; 255
    2238:	88 30       	cpi	r24, 0x08	; 8
    223a:	30 f4       	brcc	.+12     	; 0x2248 <ClearTxAfter+0x12>
    223c:	e8 2f       	mov	r30, r24
    223e:	f0 e0       	ldi	r31, 0x00	; 0
    2240:	e6 5b       	subi	r30, 0xB6	; 182
    2242:	f5 4c       	sbci	r31, 0xC5	; 197
    2244:	10 82       	st	Z, r1
    2246:	f7 cf       	rjmp	.-18     	; 0x2236 <ClearTxAfter>
    2248:	08 95       	ret

0000224a <StartsWith>:
    224a:	ac 01       	movw	r20, r24
    224c:	90 e0       	ldi	r25, 0x00	; 0
    224e:	e9 2f       	mov	r30, r25
    2250:	f0 e0       	ldi	r31, 0x00	; 0
    2252:	da 01       	movw	r26, r20
    2254:	ae 0f       	add	r26, r30
    2256:	bf 1f       	adc	r27, r31
    2258:	3c 91       	ld	r19, X
    225a:	e6 0f       	add	r30, r22
    225c:	f7 1f       	adc	r31, r23
    225e:	31 11       	cpse	r19, r1
    2260:	05 c0       	rjmp	.+10     	; 0x226c <StartsWith+0x22>
    2262:	81 e0       	ldi	r24, 0x01	; 1
    2264:	90 81       	ld	r25, Z
    2266:	99 23       	and	r25, r25
    2268:	49 f0       	breq	.+18     	; 0x227c <StartsWith+0x32>
    226a:	07 c0       	rjmp	.+14     	; 0x227a <StartsWith+0x30>
    226c:	20 81       	ld	r18, Z
    226e:	22 23       	and	r18, r18
    2270:	c1 f3       	breq	.-16     	; 0x2262 <StartsWith+0x18>
    2272:	32 13       	cpse	r19, r18
    2274:	02 c0       	rjmp	.+4      	; 0x227a <StartsWith+0x30>
    2276:	9f 5f       	subi	r25, 0xFF	; 255
    2278:	ea cf       	rjmp	.-44     	; 0x224e <StartsWith+0x4>
    227a:	80 e0       	ldi	r24, 0x00	; 0
    227c:	08 95       	ret

0000227e <PrepareSending>:
    227e:	cf 93       	push	r28
    2280:	df 93       	push	r29
    2282:	fc 01       	movw	r30, r24
    2284:	61 15       	cp	r22, r1
    2286:	71 05       	cpc	r23, r1
    2288:	59 f1       	breq	.+86     	; 0x22e0 <PrepareSending+0x62>
    228a:	a2 e5       	ldi	r26, 0x52	; 82
    228c:	ba e3       	ldi	r27, 0x3A	; 58
    228e:	ca e4       	ldi	r28, 0x4A	; 74
    2290:	da e3       	ldi	r29, 0x3A	; 58
    2292:	80 e0       	ldi	r24, 0x00	; 0
    2294:	9f ef       	ldi	r25, 0xFF	; 255
    2296:	6f 3f       	cpi	r22, 0xFF	; 255
    2298:	71 05       	cpc	r23, r1
    229a:	69 f0       	breq	.+26     	; 0x22b6 <PrepareSending+0x38>
    229c:	60 f0       	brcs	.+24     	; 0x22b6 <PrepareSending+0x38>
    229e:	ed 93       	st	X+, r30
    22a0:	fd 93       	st	X+, r31
    22a2:	99 93       	st	Y+, r25
    22a4:	e1 50       	subi	r30, 0x01	; 1
    22a6:	ff 4f       	sbci	r31, 0xFF	; 255
    22a8:	6f 5f       	subi	r22, 0xFF	; 255
    22aa:	71 09       	sbc	r23, r1
    22ac:	8f 5f       	subi	r24, 0xFF	; 255
    22ae:	87 30       	cpi	r24, 0x07	; 7
    22b0:	91 f7       	brne	.-28     	; 0x2296 <PrepareSending+0x18>
    22b2:	81 e0       	ldi	r24, 0x01	; 1
    22b4:	1e c0       	rjmp	.+60     	; 0x22f2 <PrepareSending+0x74>
    22b6:	28 2f       	mov	r18, r24
    22b8:	30 e0       	ldi	r19, 0x00	; 0
    22ba:	d9 01       	movw	r26, r18
    22bc:	aa 0f       	add	r26, r26
    22be:	bb 1f       	adc	r27, r27
    22c0:	ae 5a       	subi	r26, 0xAE	; 174
    22c2:	b5 4c       	sbci	r27, 0xC5	; 197
    22c4:	ed 93       	st	X+, r30
    22c6:	fc 93       	st	X, r31
    22c8:	6f 3f       	cpi	r22, 0xFF	; 255
    22ca:	71 05       	cpc	r23, r1
    22cc:	11 f4       	brne	.+4      	; 0x22d2 <PrepareSending+0x54>
    22ce:	6e ef       	ldi	r22, 0xFE	; 254
    22d0:	70 e0       	ldi	r23, 0x00	; 0
    22d2:	f9 01       	movw	r30, r18
    22d4:	e6 5b       	subi	r30, 0xB6	; 182
    22d6:	f5 4c       	sbci	r31, 0xC5	; 197
    22d8:	60 83       	st	Z, r22
    22da:	40 93 48 3a 	sts	0x3A48, r20	; 0x803a48 <txTypeNow>
    22de:	05 c0       	rjmp	.+10     	; 0x22ea <PrepareSending+0x6c>
    22e0:	10 92 52 3a 	sts	0x3A52, r1	; 0x803a52 <txAddrList>
    22e4:	10 92 53 3a 	sts	0x3A53, r1	; 0x803a53 <txAddrList+0x1>
    22e8:	80 e0       	ldi	r24, 0x00	; 0
    22ea:	a5 df       	rcall	.-182    	; 0x2236 <ClearTxAfter>
    22ec:	10 92 49 3a 	sts	0x3A49, r1	; 0x803a49 <txAddrNow>
    22f0:	80 e0       	ldi	r24, 0x00	; 0
    22f2:	df 91       	pop	r29
    22f4:	cf 91       	pop	r28
    22f6:	08 95       	ret

000022f8 <SetStandardResponse>:
}

//
uint8_t SetStandardResponse(uint8_t custStrEnd){
    22f8:	cf 93       	push	r28
    22fa:	df 93       	push	r29
    return 0;
}

//
void SetResponse(uint8_t number, uint16_t address, uint16_t length, uint8_t type){
    reactStr[0][number]=address;
    22fc:	28 2f       	mov	r18, r24
    22fe:	30 e0       	ldi	r19, 0x00	; 0
    2300:	f9 01       	movw	r30, r18
    2302:	ee 0f       	add	r30, r30
    2304:	ff 1f       	adc	r31, r31
    2306:	e3 5e       	subi	r30, 0xE3	; 227
    2308:	f6 4c       	sbci	r31, 0xC6	; 198
    230a:	a9 e5       	ldi	r26, 0x59	; 89
    230c:	ba e7       	ldi	r27, 0x7A	; 122
    230e:	a0 83       	st	Z, r26
    2310:	b1 83       	std	Z+1, r27	; 0x01
    reactStr[1][number]=length;
    2312:	f9 01       	movw	r30, r18
    2314:	ee 0f       	add	r30, r30
    2316:	ff 1f       	adc	r31, r31
    2318:	e3 5a       	subi	r30, 0xA3	; 163
    231a:	f6 4c       	sbci	r31, 0xC6	; 198
    231c:	62 e0       	ldi	r22, 0x02	; 2
    231e:	70 e0       	ldi	r23, 0x00	; 0
    2320:	60 83       	st	Z, r22
    2322:	71 83       	std	Z+1, r23	; 0x01
    reactStr[2][number]=type;
    2324:	22 0f       	add	r18, r18
    2326:	33 1f       	adc	r19, r19
    2328:	f9 01       	movw	r30, r18
    232a:	e3 56       	subi	r30, 0x63	; 99
    232c:	f6 4c       	sbci	r31, 0xC6	; 198
    232e:	41 e0       	ldi	r20, 0x01	; 1
    2330:	50 e0       	ldi	r21, 0x00	; 0
    2332:	40 83       	st	Z, r20
    2334:	51 83       	std	Z+1, r21	; 0x01
    return 0;
}

//
void SetResponse(uint8_t number, uint16_t address, uint16_t length, uint8_t type){
    reactStr[0][number]=address;
    2336:	21 e0       	ldi	r18, 0x01	; 1
    2338:	28 0f       	add	r18, r24
    233a:	30 e0       	ldi	r19, 0x00	; 0
    233c:	f9 01       	movw	r30, r18
    233e:	ee 0f       	add	r30, r30
    2340:	ff 1f       	adc	r31, r31
    2342:	e3 5e       	subi	r30, 0xE3	; 227
    2344:	f6 4c       	sbci	r31, 0xC6	; 198
    2346:	c2 e6       	ldi	r28, 0x62	; 98
    2348:	da e7       	ldi	r29, 0x7A	; 122
    234a:	c0 83       	st	Z, r28
    234c:	d1 83       	std	Z+1, r29	; 0x01
    reactStr[1][number]=length;
    234e:	f9 01       	movw	r30, r18
    2350:	ee 0f       	add	r30, r30
    2352:	ff 1f       	adc	r31, r31
    2354:	e3 5a       	subi	r30, 0xA3	; 163
    2356:	f6 4c       	sbci	r31, 0xC6	; 198
    2358:	cc e0       	ldi	r28, 0x0C	; 12
    235a:	d0 e0       	ldi	r29, 0x00	; 0
    235c:	c0 83       	st	Z, r28
    235e:	d1 83       	std	Z+1, r29	; 0x01
    reactStr[2][number]=type;
    2360:	22 0f       	add	r18, r18
    2362:	33 1f       	adc	r19, r19
    2364:	f9 01       	movw	r30, r18
    2366:	e3 56       	subi	r30, 0x63	; 99
    2368:	f6 4c       	sbci	r31, 0xC6	; 198
    236a:	40 83       	st	Z, r20
    236c:	51 83       	std	Z+1, r21	; 0x01
//
uint8_t SetStandardResponse(uint8_t custStrEnd){

    SetResponse(custStrEnd++, A_LF, 2, TEASER);
    SetResponse(custStrEnd++, A_LOCATION, L_LOCATION, TEASER);
    reactStr[0][custStrEnd++] = CURR_LOC;
    236e:	e2 e0       	ldi	r30, 0x02	; 2
    2370:	e8 0f       	add	r30, r24
    2372:	f0 e0       	ldi	r31, 0x00	; 0
    2374:	ee 0f       	add	r30, r30
    2376:	ff 1f       	adc	r31, r31
    2378:	e3 5e       	subi	r30, 0xE3	; 227
    237a:	f6 4c       	sbci	r31, 0xC6	; 198
    237c:	20 ef       	ldi	r18, 0xF0	; 240
    237e:	3f ef       	ldi	r19, 0xFF	; 255
    2380:	20 83       	st	Z, r18
    2382:	31 83       	std	Z+1, r19	; 0x01
    return 0;
}

//
void SetResponse(uint8_t number, uint16_t address, uint16_t length, uint8_t type){
    reactStr[0][number]=address;
    2384:	23 e0       	ldi	r18, 0x03	; 3
    2386:	28 0f       	add	r18, r24
    2388:	30 e0       	ldi	r19, 0x00	; 0
    238a:	f9 01       	movw	r30, r18
    238c:	ee 0f       	add	r30, r30
    238e:	ff 1f       	adc	r31, r31
    2390:	e3 5e       	subi	r30, 0xE3	; 227
    2392:	f6 4c       	sbci	r31, 0xC6	; 198
    2394:	a0 83       	st	Z, r26
    2396:	b1 83       	std	Z+1, r27	; 0x01
    reactStr[1][number]=length;
    2398:	f9 01       	movw	r30, r18
    239a:	ee 0f       	add	r30, r30
    239c:	ff 1f       	adc	r31, r31
    239e:	e3 5a       	subi	r30, 0xA3	; 163
    23a0:	f6 4c       	sbci	r31, 0xC6	; 198
    23a2:	60 83       	st	Z, r22
    23a4:	71 83       	std	Z+1, r23	; 0x01
    reactStr[2][number]=type;
    23a6:	22 0f       	add	r18, r18
    23a8:	33 1f       	adc	r19, r19
    23aa:	f9 01       	movw	r30, r18
    23ac:	e3 56       	subi	r30, 0x63	; 99
    23ae:	f6 4c       	sbci	r31, 0xC6	; 198
    23b0:	40 83       	st	Z, r20
    23b2:	51 83       	std	Z+1, r21	; 0x01
    return 0;
}

//
void SetResponse(uint8_t number, uint16_t address, uint16_t length, uint8_t type){
    reactStr[0][number]=address;
    23b4:	24 e0       	ldi	r18, 0x04	; 4
    23b6:	28 0f       	add	r18, r24
    23b8:	30 e0       	ldi	r19, 0x00	; 0
    23ba:	f9 01       	movw	r30, r18
    23bc:	ee 0f       	add	r30, r30
    23be:	ff 1f       	adc	r31, r31
    23c0:	e3 5e       	subi	r30, 0xE3	; 227
    23c2:	f6 4c       	sbci	r31, 0xC6	; 198
    23c4:	a5 e5       	ldi	r26, 0x55	; 85
    23c6:	ba e7       	ldi	r27, 0x7A	; 122
    23c8:	a0 83       	st	Z, r26
    23ca:	b1 83       	std	Z+1, r27	; 0x01
    reactStr[1][number]=length;
    23cc:	f9 01       	movw	r30, r18
    23ce:	ee 0f       	add	r30, r30
    23d0:	ff 1f       	adc	r31, r31
    23d2:	e3 5a       	subi	r30, 0xA3	; 163
    23d4:	f6 4c       	sbci	r31, 0xC6	; 198
    23d6:	60 83       	st	Z, r22
    23d8:	71 83       	std	Z+1, r23	; 0x01
    reactStr[2][number]=type;
    23da:	22 0f       	add	r18, r18
    23dc:	33 1f       	adc	r19, r19
    23de:	f9 01       	movw	r30, r18
    23e0:	e3 56       	subi	r30, 0x63	; 99
    23e2:	f6 4c       	sbci	r31, 0xC6	; 198
    23e4:	40 83       	st	Z, r20
    23e6:	51 83       	std	Z+1, r21	; 0x01
    reactStr[0][custStrEnd++] = CURR_LOC;
    SetResponse(custStrEnd++, A_LF, 2, TEASER);
    SetResponse(custStrEnd++, A_PROMPT, L_PROMPT, TEASER);

    return custStrEnd;
}
    23e8:	8b 5f       	subi	r24, 0xFB	; 251
    23ea:	df 91       	pop	r29
    23ec:	cf 91       	pop	r28
    23ee:	08 95       	ret

000023f0 <PopulateObject>:

//Get all the relevant data and string addresses of an object
void PopulateObject(uint16_t offset, object_model_t *object){
    23f0:	af 92       	push	r10
    23f2:	bf 92       	push	r11
    23f4:	df 92       	push	r13
    23f6:	ef 92       	push	r14
    23f8:	ff 92       	push	r15
    23fa:	0f 93       	push	r16
    23fc:	1f 93       	push	r17
    23fe:	cf 93       	push	r28
    2400:	df 93       	push	r29
    2402:	cd b7       	in	r28, 0x3d	; 61
    2404:	de b7       	in	r29, 0x3e	; 62
    2406:	2c 97       	sbiw	r28, 0x0c	; 12
    2408:	cd bf       	out	0x3d, r28	; 61
    240a:	de bf       	out	0x3e, r29	; 62
    240c:	7c 01       	movw	r14, r24
    240e:	8b 01       	movw	r16, r22
    uint16_t parStr;
    offset += L_BOILER;

    //Fill things with fixed distance to offset
    uint8_t data[OFF_STRINGFLDS];
    ExtEERead(offset, OFF_STRINGFLDS, GAME, &data[0]);
    2410:	9e 01       	movw	r18, r28
    2412:	2f 5f       	subi	r18, 0xFF	; 255
    2414:	3f 4f       	sbci	r19, 0xFF	; 255
    2416:	40 e0       	ldi	r20, 0x00	; 0
    2418:	6c e0       	ldi	r22, 0x0C	; 12
    241a:	80 96       	adiw	r24, 0x20	; 32
    241c:	0e 94 53 08 	call	0x10a6	; 0x10a6 <ExtEERead>
    object->addrNextObj = (data[OFF_NEXTOBJ]<<8|data[OFF_NEXTOBJ+1])+L_BOILER;
    2420:	89 81       	ldd	r24, Y+1	; 0x01
    2422:	9a 81       	ldd	r25, Y+2	; 0x02
    2424:	98 27       	eor	r25, r24
    2426:	89 27       	eor	r24, r25
    2428:	98 27       	eor	r25, r24
    242a:	80 96       	adiw	r24, 0x20	; 32
    242c:	f8 01       	movw	r30, r16
    242e:	80 83       	st	Z, r24
    2430:	91 83       	std	Z+1, r25	; 0x01
    object->addrNextLvl = (data[OFF_NEXTLVL]<<8|data[OFF_NEXTLVL+1])+L_BOILER;
    2432:	8b 81       	ldd	r24, Y+3	; 0x03
    2434:	9c 81       	ldd	r25, Y+4	; 0x04
    2436:	98 27       	eor	r25, r24
    2438:	89 27       	eor	r24, r25
    243a:	98 27       	eor	r25, r24
    243c:	80 96       	adiw	r24, 0x20	; 32
    243e:	82 83       	std	Z+2, r24	; 0x02
    2440:	93 83       	std	Z+3, r25	; 0x03
    2442:	de 01       	movw	r26, r28
    2444:	15 96       	adiw	r26, 0x05	; 5
    2446:	34 96       	adiw	r30, 0x04	; 4
    2448:	c8 01       	movw	r24, r16
    244a:	0c 96       	adiw	r24, 0x0c	; 12
    for (uint8_t x=0; x<BYTE_FIELDS_LEN; ++x){
        object->byteField[x]=data[x+OFF_BYTEFLDS];
    244c:	2d 91       	ld	r18, X+
    244e:	21 93       	st	Z+, r18
    //Fill things with fixed distance to offset
    uint8_t data[OFF_STRINGFLDS];
    ExtEERead(offset, OFF_STRINGFLDS, GAME, &data[0]);
    object->addrNextObj = (data[OFF_NEXTOBJ]<<8|data[OFF_NEXTOBJ+1])+L_BOILER;
    object->addrNextLvl = (data[OFF_NEXTLVL]<<8|data[OFF_NEXTLVL+1])+L_BOILER;
    for (uint8_t x=0; x<BYTE_FIELDS_LEN; ++x){
    2450:	e8 17       	cp	r30, r24
    2452:	f9 07       	cpc	r31, r25
    2454:	d9 f7       	brne	.-10     	; 0x244c <PopulateObject+0x5c>
        object->byteField[x]=data[x+OFF_BYTEFLDS];
    }

    //Find out where all of the strings begin and how long they are
    offset += OFF_STRINGFLDS;
    2456:	fc e2       	ldi	r31, 0x2C	; 44
    2458:	ef 0e       	add	r14, r31
    245a:	f1 1c       	adc	r15, r1
    245c:	58 01       	movw	r10, r16
    for(uint8_t x=0; x<STRING_FIELDS_LEN; ++x){
    245e:	d1 2c       	mov	r13, r1
        
        //Determine length
        ExtEERead(offset, 3, GAME, &data[0]);
    2460:	9e 01       	movw	r18, r28
    2462:	2f 5f       	subi	r18, 0xFF	; 255
    2464:	3f 4f       	sbci	r19, 0xFF	; 255
    2466:	40 e0       	ldi	r20, 0x00	; 0
    2468:	63 e0       	ldi	r22, 0x03	; 3
    246a:	c7 01       	movw	r24, r14
    246c:	0e 94 53 08 	call	0x10a6	; 0x10a6 <ExtEERead>
    2470:	89 81       	ldd	r24, Y+1	; 0x01
    2472:	9a 81       	ldd	r25, Y+2	; 0x02
    2474:	98 27       	eor	r25, r24
    2476:	89 27       	eor	r24, r25
    2478:	98 27       	eor	r25, r24
        parStr = (data[0]<<8|data[1]);
        offset += 2;
    247a:	97 01       	movw	r18, r14
    247c:	2e 5f       	subi	r18, 0xFE	; 254
    247e:	3f 4f       	sbci	r19, 0xFF	; 255
        if (x >= OPEN_ACL_MSG){
    2480:	43 e0       	ldi	r20, 0x03	; 3
    2482:	4d 15       	cp	r20, r13
    2484:	80 f4       	brcc	.+32     	; 0x24a6 <PopulateObject+0xb6>
            object->lenStr[x]= parStr-1;
    2486:	ac 01       	movw	r20, r24
    2488:	41 50       	subi	r20, 0x01	; 1
    248a:	51 09       	sbc	r21, r1
    248c:	f8 01       	movw	r30, r16
    248e:	42 8f       	std	Z+26, r20	; 0x1a
    2490:	53 8f       	std	Z+27, r21	; 0x1b
            object->addrStr[x]=offset+1;
    2492:	f3 e0       	ldi	r31, 0x03	; 3
    2494:	ef 0e       	add	r14, r31
    2496:	f1 1c       	adc	r15, r1
    2498:	f8 01       	movw	r30, r16
    249a:	e4 86       	std	Z+12, r14	; 0x0c
    249c:	f5 86       	std	Z+13, r15	; 0x0d
            object->effect[x-OPEN_ACL_MSG] = data[2];
    249e:	4b 81       	ldd	r20, Y+3	; 0x03
    24a0:	f5 01       	movw	r30, r10
    24a2:	44 a3       	std	Z+36, r20	; 0x24
    24a4:	05 c0       	rjmp	.+10     	; 0x24b0 <PopulateObject+0xc0>
        } else {
            object->lenStr[x]= parStr;
    24a6:	f8 01       	movw	r30, r16
    24a8:	82 8f       	std	Z+26, r24	; 0x1a
    24aa:	93 8f       	std	Z+27, r25	; 0x1b
            object->addrStr[x]=offset;
    24ac:	24 87       	std	Z+12, r18	; 0x0c
    24ae:	35 87       	std	Z+13, r19	; 0x0d
        }
        
        //Determine string start location for next field
        offset += parStr;
    24b0:	7c 01       	movw	r14, r24
    24b2:	e2 0e       	add	r14, r18
    24b4:	f3 1e       	adc	r15, r19
        object->byteField[x]=data[x+OFF_BYTEFLDS];
    }

    //Find out where all of the strings begin and how long they are
    offset += OFF_STRINGFLDS;
    for(uint8_t x=0; x<STRING_FIELDS_LEN; ++x){
    24b6:	d3 94       	inc	r13
    24b8:	0e 5f       	subi	r16, 0xFE	; 254
    24ba:	1f 4f       	sbci	r17, 0xFF	; 255
    24bc:	ff ef       	ldi	r31, 0xFF	; 255
    24be:	af 1a       	sub	r10, r31
    24c0:	bf 0a       	sbc	r11, r31
    24c2:	47 e0       	ldi	r20, 0x07	; 7
    24c4:	d4 12       	cpse	r13, r20
    24c6:	cc cf       	rjmp	.-104    	; 0x2460 <PopulateObject+0x70>
        }
        
        //Determine string start location for next field
        offset += parStr;
    }    
}
    24c8:	2c 96       	adiw	r28, 0x0c	; 12
    24ca:	cd bf       	out	0x3d, r28	; 61
    24cc:	de bf       	out	0x3e, r29	; 62
    24ce:	df 91       	pop	r29
    24d0:	cf 91       	pop	r28
    24d2:	1f 91       	pop	r17
    24d4:	0f 91       	pop	r16
    24d6:	ff 90       	pop	r15
    24d8:	ef 90       	pop	r14
    24da:	df 90       	pop	r13
    24dc:	bf 90       	pop	r11
    24de:	af 90       	pop	r10
    24e0:	08 95       	ret

000024e2 <CheckLetter>:

//Check if the entered letter corresponds with a name
uint8_t CheckLetter(uint16_t object, uint8_t letter){
    24e2:	cf 92       	push	r12
    24e4:	df 92       	push	r13
    24e6:	ef 92       	push	r14
    24e8:	ff 92       	push	r15
    24ea:	0f 93       	push	r16
    24ec:	1f 93       	push	r17
    24ee:	cf 93       	push	r28
    24f0:	df 93       	push	r29
    24f2:	cd b7       	in	r28, 0x3d	; 61
    24f4:	de b7       	in	r29, 0x3e	; 62
    24f6:	a0 97       	sbiw	r28, 0x20	; 32
    24f8:	cd bf       	out	0x3d, r28	; 61
    24fa:	de bf       	out	0x3e, r29	; 62
    24fc:	c6 2e       	mov	r12, r22
    
    uint8_t found = 0;
    uint8_t data[32];

    object += L_BOILER;
    24fe:	7c 01       	movw	r14, r24
    2500:	20 e2       	ldi	r18, 0x20	; 32
    2502:	e2 0e       	add	r14, r18
    2504:	f1 1c       	adc	r15, r1
    ExtEERead(object+OFF_STRINGFLDS, 2, GAME, &data[0]);
    2506:	9e 01       	movw	r18, r28
    2508:	2f 5f       	subi	r18, 0xFF	; 255
    250a:	3f 4f       	sbci	r19, 0xFF	; 255
    250c:	40 e0       	ldi	r20, 0x00	; 0
    250e:	62 e0       	ldi	r22, 0x02	; 2
    2510:	8c 96       	adiw	r24, 0x2c	; 44
    2512:	0e 94 53 08 	call	0x10a6	; 0x10a6 <ExtEERead>
    uint8_t x = data[1]; //Assuming a name is not longer than 255 characters.
    2516:	1a 81       	ldd	r17, Y+2	; 0x02
}

//Check if the entered letter corresponds with a name
uint8_t CheckLetter(uint16_t object, uint8_t letter){
    
    uint8_t found = 0;
    2518:	d1 2c       	mov	r13, r1

    object += L_BOILER;
    ExtEERead(object+OFF_STRINGFLDS, 2, GAME, &data[0]);
    uint8_t x = data[1]; //Assuming a name is not longer than 255 characters.

    while (x){
    251a:	11 23       	and	r17, r17
    251c:	59 f1       	breq	.+86     	; 0x2574 <CheckLetter+0x92>
    251e:	01 2f       	mov	r16, r17
    2520:	11 32       	cpi	r17, 0x21	; 33
    2522:	08 f0       	brcs	.+2      	; 0x2526 <CheckLetter+0x44>
    2524:	00 e2       	ldi	r16, 0x20	; 32
        uint8_t max;
        if (x>32) max = 32; else max = x;
        ExtEERead(object+OFF_STRINGFLDS+2, max, GAME, &data[0]);
    2526:	9e 01       	movw	r18, r28
    2528:	2f 5f       	subi	r18, 0xFF	; 255
    252a:	3f 4f       	sbci	r19, 0xFF	; 255
    252c:	40 e0       	ldi	r20, 0x00	; 0
    252e:	60 2f       	mov	r22, r16
    2530:	c7 01       	movw	r24, r14
    2532:	0e 96       	adiw	r24, 0x0e	; 14
    2534:	0e 94 53 08 	call	0x10a6	; 0x10a6 <ExtEERead>
    2538:	fe 01       	movw	r30, r28
    253a:	31 96       	adiw	r30, 0x01	; 1
        for (uint8_t y=0; y<max; ++y){
    253c:	80 e0       	ldi	r24, 0x00	; 0
            if (found){
    253e:	dd 20       	and	r13, r13
    2540:	61 f0       	breq	.+24     	; 0x255a <CheckLetter+0x78>
                if ((data[y]|0x20) == letter) return 1; else return 0;
    2542:	e1 e0       	ldi	r30, 0x01	; 1
    2544:	f0 e0       	ldi	r31, 0x00	; 0
    2546:	ec 0f       	add	r30, r28
    2548:	fd 1f       	adc	r31, r29
    254a:	e8 0f       	add	r30, r24
    254c:	f1 1d       	adc	r31, r1
    254e:	90 81       	ld	r25, Z
    2550:	90 62       	ori	r25, 0x20	; 32
    2552:	81 e0       	ldi	r24, 0x01	; 1
    2554:	9c 11       	cpse	r25, r12
    2556:	0e c0       	rjmp	.+28     	; 0x2574 <CheckLetter+0x92>
    2558:	0e c0       	rjmp	.+28     	; 0x2576 <CheckLetter+0x94>
            }
            if (data[y] == '[') found = 1;
    255a:	91 91       	ld	r25, Z+
    255c:	dd 24       	eor	r13, r13
    255e:	d3 94       	inc	r13
    2560:	9b 35       	cpi	r25, 0x5B	; 91
    2562:	09 f0       	breq	.+2      	; 0x2566 <CheckLetter+0x84>
    2564:	d1 2c       	mov	r13, r1

    while (x){
        uint8_t max;
        if (x>32) max = 32; else max = x;
        ExtEERead(object+OFF_STRINGFLDS+2, max, GAME, &data[0]);
        for (uint8_t y=0; y<max; ++y){
    2566:	8f 5f       	subi	r24, 0xFF	; 255
    2568:	80 17       	cp	r24, r16
    256a:	48 f3       	brcs	.-46     	; 0x253e <CheckLetter+0x5c>
            if (found){
                if ((data[y]|0x20) == letter) return 1; else return 0;
            }
            if (data[y] == '[') found = 1;
        }
        object += max;
    256c:	e0 0e       	add	r14, r16
    256e:	f1 1c       	adc	r15, r1
        x -= max;
    2570:	10 1b       	sub	r17, r16
    2572:	d3 cf       	rjmp	.-90     	; 0x251a <CheckLetter+0x38>
    }
    return 0;
    2574:	80 e0       	ldi	r24, 0x00	; 0
}
    2576:	a0 96       	adiw	r28, 0x20	; 32
    2578:	cd bf       	out	0x3d, r28	; 61
    257a:	de bf       	out	0x3e, r29	; 62
    257c:	df 91       	pop	r29
    257e:	cf 91       	pop	r28
    2580:	1f 91       	pop	r17
    2582:	0f 91       	pop	r16
    2584:	ff 90       	pop	r15
    2586:	ef 90       	pop	r14
    2588:	df 90       	pop	r13
    258a:	cf 90       	pop	r12
    258c:	08 95       	ret

0000258e <FindChild>:

//Returns the child's address if the child is visible and the search letter matches
uint16_t FindChild(uint16_t parent, uint8_t letter, uint16_t start){
    258e:	af 92       	push	r10
    2590:	bf 92       	push	r11
    2592:	df 92       	push	r13
    2594:	ef 92       	push	r14
    2596:	ff 92       	push	r15
    2598:	0f 93       	push	r16
    259a:	1f 93       	push	r17
    259c:	cf 93       	push	r28
    259e:	df 93       	push	r29
    25a0:	00 d0       	rcall	.+0      	; 0x25a2 <FindChild+0x14>
    25a2:	00 d0       	rcall	.+0      	; 0x25a4 <FindChild+0x16>
    25a4:	cd b7       	in	r28, 0x3d	; 61
    25a6:	de b7       	in	r29, 0x3e	; 62
    25a8:	d6 2e       	mov	r13, r22
    25aa:	5a 01       	movw	r10, r20
    
    uint16_t child = parent;
    uint8_t data[4];

    ExtEERead(child+L_BOILER, 4, GAME, &data[0]);
    25ac:	9e 01       	movw	r18, r28
    25ae:	2f 5f       	subi	r18, 0xFF	; 255
    25b0:	3f 4f       	sbci	r19, 0xFF	; 255
    25b2:	40 e0       	ldi	r20, 0x00	; 0
    25b4:	64 e0       	ldi	r22, 0x04	; 4
    25b6:	80 96       	adiw	r24, 0x20	; 32
    25b8:	0e 94 53 08 	call	0x10a6	; 0x10a6 <ExtEERead>
    25bc:	e9 80       	ldd	r14, Y+1	; 0x01
    25be:	fa 80       	ldd	r15, Y+2	; 0x02
    25c0:	fe 24       	eor	r15, r14
    25c2:	ef 24       	eor	r14, r15
    25c4:	fe 24       	eor	r15, r14
    25c6:	0b 81       	ldd	r16, Y+3	; 0x03
    25c8:	1c 81       	ldd	r17, Y+4	; 0x04
    25ca:	10 27       	eor	r17, r16
    25cc:	01 27       	eor	r16, r17
    25ce:	10 27       	eor	r17, r16
    parent = (data[0]<<8|data[1]);    //Next object on parent level
    child =  (data[2]<<8|data[3]);    //First object on child level

    //As long as the child is within the parent's range
    while (parent>child){
    25d0:	0e 15       	cp	r16, r14
    25d2:	1f 05       	cpc	r17, r15
    25d4:	48 f5       	brcc	.+82     	; 0x2628 <FindChild+0x9a>

        //If child's address is higher than the start address, perform search for letter
        if (child>start){
    25d6:	a0 16       	cp	r10, r16
    25d8:	b1 06       	cpc	r11, r17
    25da:	60 f0       	brcs	.+24     	; 0x25f4 <FindChild+0x66>
                if ((letter == 0)||(CheckLetter(child, letter))) return child;
            }
        }

        //Not visible or name not right
        ExtEERead(child+L_BOILER, 2, GAME, &data[0]);
    25dc:	9e 01       	movw	r18, r28
    25de:	2f 5f       	subi	r18, 0xFF	; 255
    25e0:	3f 4f       	sbci	r19, 0xFF	; 255
    25e2:	40 e0       	ldi	r20, 0x00	; 0
    25e4:	62 e0       	ldi	r22, 0x02	; 2
    25e6:	c8 01       	movw	r24, r16
    25e8:	80 96       	adiw	r24, 0x20	; 32
    25ea:	0e 94 53 08 	call	0x10a6	; 0x10a6 <ExtEERead>
    25ee:	09 81       	ldd	r16, Y+1	; 0x01
    25f0:	1a 81       	ldd	r17, Y+2	; 0x02
    25f2:	eb cf       	rjmp	.-42     	; 0x25ca <FindChild+0x3c>
    //As long as the child is within the parent's range
    while (parent>child){

        //If child's address is higher than the start address, perform search for letter
        if (child>start){
            ExtEERead(child+OFF_BYTEFLDS+VISIBLE_ACL+L_BOILER, 1, GAME, &data[0]);
    25f4:	9e 01       	movw	r18, r28
    25f6:	2f 5f       	subi	r18, 0xFF	; 255
    25f8:	3f 4f       	sbci	r19, 0xFF	; 255
    25fa:	40 e0       	ldi	r20, 0x00	; 0
    25fc:	61 e0       	ldi	r22, 0x01	; 1
    25fe:	c8 01       	movw	r24, r16
    2600:	85 96       	adiw	r24, 0x25	; 37
    2602:	0e 94 53 08 	call	0x10a6	; 0x10a6 <ExtEERead>
            if ((data[0] == 0)||(CheckState(data[0]))) {
    2606:	89 81       	ldd	r24, Y+1	; 0x01
    2608:	81 11       	cpse	r24, r1
    260a:	03 c0       	rjmp	.+6      	; 0x2612 <FindChild+0x84>
                if ((letter == 0)||(CheckLetter(child, letter))) return child;
    260c:	d1 10       	cpse	r13, r1
    260e:	06 c0       	rjmp	.+12     	; 0x261c <FindChild+0x8e>
    2610:	0e c0       	rjmp	.+28     	; 0x262e <FindChild+0xa0>
    while (parent>child){

        //If child's address is higher than the start address, perform search for letter
        if (child>start){
            ExtEERead(child+OFF_BYTEFLDS+VISIBLE_ACL+L_BOILER, 1, GAME, &data[0]);
            if ((data[0] == 0)||(CheckState(data[0]))) {
    2612:	0e 94 1e 0a 	call	0x143c	; 0x143c <CheckState>
    2616:	81 11       	cpse	r24, r1
    2618:	f9 cf       	rjmp	.-14     	; 0x260c <FindChild+0x7e>
    261a:	e0 cf       	rjmp	.-64     	; 0x25dc <FindChild+0x4e>
                if ((letter == 0)||(CheckLetter(child, letter))) return child;
    261c:	6d 2d       	mov	r22, r13
    261e:	c8 01       	movw	r24, r16
    2620:	60 df       	rcall	.-320    	; 0x24e2 <CheckLetter>
    2622:	88 23       	and	r24, r24
    2624:	d9 f2       	breq	.-74     	; 0x25dc <FindChild+0x4e>
    2626:	03 c0       	rjmp	.+6      	; 0x262e <FindChild+0xa0>

        //Not visible or name not right
        ExtEERead(child+L_BOILER, 2, GAME, &data[0]);
        child = (data[0]<<8|data[1]);    //Next object on child level
        
    } return 0;
    2628:	80 e0       	ldi	r24, 0x00	; 0
    262a:	90 e0       	ldi	r25, 0x00	; 0
    262c:	01 c0       	rjmp	.+2      	; 0x2630 <FindChild+0xa2>
    262e:	c8 01       	movw	r24, r16
}
    2630:	24 96       	adiw	r28, 0x04	; 4
    2632:	cd bf       	out	0x3d, r28	; 61
    2634:	de bf       	out	0x3e, r29	; 62
    2636:	df 91       	pop	r29
    2638:	cf 91       	pop	r28
    263a:	1f 91       	pop	r17
    263c:	0f 91       	pop	r16
    263e:	ff 90       	pop	r15
    2640:	ef 90       	pop	r14
    2642:	df 90       	pop	r13
    2644:	bf 90       	pop	r11
    2646:	af 90       	pop	r10
    2648:	08 95       	ret

0000264a <InpOkChk>:

//Allow only a(A) to z(Z) and 0 to 9 as input
uint8_t InpOkChk(uint8_t test){
    test |= 0x20;
    264a:	80 62       	ori	r24, 0x20	; 32
    if ((test>='a')&&(test<='z')) return 1;
    264c:	9f e9       	ldi	r25, 0x9F	; 159
    264e:	98 0f       	add	r25, r24
    2650:	9a 31       	cpi	r25, 0x1A	; 26
    2652:	38 f0       	brcs	.+14     	; 0x2662 <InpOkChk+0x18>
    2654:	90 ed       	ldi	r25, 0xD0	; 208
    2656:	98 0f       	add	r25, r24
    2658:	81 e0       	ldi	r24, 0x01	; 1
    265a:	9a 30       	cpi	r25, 0x0A	; 10
    265c:	18 f0       	brcs	.+6      	; 0x2664 <InpOkChk+0x1a>
    265e:	80 e0       	ldi	r24, 0x00	; 0
    2660:	08 95       	ret
    2662:	81 e0       	ldi	r24, 0x01	; 1
    if ((test>='0')&&(test<='9')) return 1;
    return 0;
}
    2664:	08 95       	ret

00002666 <CleanInput>:

//Cleans input of garbage and returns length of cleaned input "o->d2  !\0" becomes "od2\0"
uint8_t CleanInput(uint8_t *data){
    2666:	0f 93       	push	r16
    2668:	1f 93       	push	r17
    266a:	cf 93       	push	r28
    266c:	df 93       	push	r29
    266e:	8c 01       	movw	r16, r24
    uint8_t cnt = 0;
    for (uint8_t x=0; data[x]!=0; ++x){
    2670:	d0 e0       	ldi	r29, 0x00	; 0
    return 0;
}

//Cleans input of garbage and returns length of cleaned input "o->d2  !\0" becomes "od2\0"
uint8_t CleanInput(uint8_t *data){
    uint8_t cnt = 0;
    2672:	c0 e0       	ldi	r28, 0x00	; 0
    for (uint8_t x=0; data[x]!=0; ++x){
    2674:	f8 01       	movw	r30, r16
    2676:	ed 0f       	add	r30, r29
    2678:	f1 1d       	adc	r31, r1
    267a:	20 81       	ld	r18, Z
    267c:	8c 2f       	mov	r24, r28
    267e:	90 e0       	ldi	r25, 0x00	; 0
    2680:	22 23       	and	r18, r18
    2682:	51 f0       	breq	.+20     	; 0x2698 <CleanInput+0x32>
        data[cnt] = data[x];
    2684:	d8 01       	movw	r26, r16
    2686:	a8 0f       	add	r26, r24
    2688:	b9 1f       	adc	r27, r25
    268a:	2c 93       	st	X, r18
        if (InpOkChk(data[x])) ++cnt;
    268c:	80 81       	ld	r24, Z
    268e:	dd df       	rcall	.-70     	; 0x264a <InpOkChk>
    2690:	81 11       	cpse	r24, r1
    2692:	cf 5f       	subi	r28, 0xFF	; 255
}

//Cleans input of garbage and returns length of cleaned input "o->d2  !\0" becomes "od2\0"
uint8_t CleanInput(uint8_t *data){
    uint8_t cnt = 0;
    for (uint8_t x=0; data[x]!=0; ++x){
    2694:	df 5f       	subi	r29, 0xFF	; 255
    2696:	ee cf       	rjmp	.-36     	; 0x2674 <CleanInput+0xe>
        data[cnt] = data[x];
        if (InpOkChk(data[x])) ++cnt;
    }
    data[cnt] = 0;
    2698:	f8 01       	movw	r30, r16
    269a:	e8 0f       	add	r30, r24
    269c:	f9 1f       	adc	r31, r25
    269e:	10 82       	st	Z, r1
    return cnt;
}
    26a0:	8c 2f       	mov	r24, r28
    26a2:	df 91       	pop	r29
    26a4:	cf 91       	pop	r28
    26a6:	1f 91       	pop	r17
    26a8:	0f 91       	pop	r16
    26aa:	08 95       	ret

000026ac <CheckSend>:

//Send routine, optimized for low memory usage
uint8_t CheckSend(){
    26ac:	cf 93       	push	r28
    /*if (effect == 0){
        effect = currObj.byteField[EFFECTS];
    }*/

    //Check if more string(part)s have to be sent to the serial output if previous send operation is completed
    if ((txAddrNow < TXLISTLEN) && serTxDone){
    26ae:	20 91 49 3a 	lds	r18, 0x3A49	; 0x803a49 <txAddrNow>
    26b2:	28 30       	cpi	r18, 0x08	; 8
    26b4:	08 f0       	brcs	.+2      	; 0x26b8 <CheckSend+0xc>
    26b6:	49 c0       	rjmp	.+146    	; 0x274a <CheckSend+0x9e>
    26b8:	80 91 09 38 	lds	r24, 0x3809	; 0x803809 <serTxDone>
    26bc:	88 23       	and	r24, r24
    26be:	09 f4       	brne	.+2      	; 0x26c2 <CheckSend+0x16>
    26c0:	44 c0       	rjmp	.+136    	; 0x274a <CheckSend+0x9e>
        if (txStrLen[txAddrNow] == 0){
    26c2:	82 2f       	mov	r24, r18
    26c4:	90 e0       	ldi	r25, 0x00	; 0
    26c6:	fc 01       	movw	r30, r24
    26c8:	e6 5b       	subi	r30, 0xB6	; 182
    26ca:	f5 4c       	sbci	r31, 0xC5	; 197
    26cc:	e0 81       	ld	r30, Z
    26ce:	e1 11       	cpse	r30, r1
    26d0:	06 c0       	rjmp	.+12     	; 0x26de <CheckSend+0x32>
            txPart = 0;
    26d2:	10 92 08 39 	sts	0x3908, r1	; 0x803908 <txPart.3937>
            txAddrNow = TXLISTLEN;
    26d6:	88 e0       	ldi	r24, 0x08	; 8
    26d8:	80 93 49 3a 	sts	0x3A49, r24	; 0x803a49 <txAddrNow>
    26dc:	2e c0       	rjmp	.+92     	; 0x273a <CheckSend+0x8e>
        } else if (txPart < txStrLen[txAddrNow]){
    26de:	50 91 08 39 	lds	r21, 0x3908	; 0x803908 <txPart.3937>
    26e2:	5e 17       	cp	r21, r30
    26e4:	60 f5       	brcc	.+88     	; 0x273e <CheckSend+0x92>
            EEreadLength = txStrLen[txAddrNow]-txPart;
    26e6:	ce 2f       	mov	r28, r30
    26e8:	c5 1b       	sub	r28, r21
    26ea:	c1 32       	cpi	r28, 0x21	; 33
    26ec:	08 f0       	brcs	.+2      	; 0x26f0 <CheckSend+0x44>
    26ee:	c0 e2       	ldi	r28, 0x20	; 32
            if (EEreadLength>=TXLEN) EEreadLength = TXLEN-1;
            ExtEERead(txAddrList[txAddrNow]+txPart, EEreadLength, txTypeNow, &txBuffer[0]);
    26f0:	88 0f       	add	r24, r24
    26f2:	99 1f       	adc	r25, r25
    26f4:	fc 01       	movw	r30, r24
    26f6:	ee 5a       	subi	r30, 0xAE	; 174
    26f8:	f5 4c       	sbci	r31, 0xC5	; 197
    26fa:	80 81       	ld	r24, Z
    26fc:	91 81       	ldd	r25, Z+1	; 0x01
    26fe:	23 ef       	ldi	r18, 0xF3	; 243
    2700:	3a e3       	ldi	r19, 0x3A	; 58
    2702:	40 91 48 3a 	lds	r20, 0x3A48	; 0x803a48 <txTypeNow>
    2706:	6c 2f       	mov	r22, r28
    2708:	85 0f       	add	r24, r21
    270a:	91 1d       	adc	r25, r1
    270c:	0e 94 53 08 	call	0x10a6	; 0x10a6 <ExtEERead>
            txPart += EEreadLength;
    2710:	80 91 08 39 	lds	r24, 0x3908	; 0x803908 <txPart.3937>
    2714:	8c 0f       	add	r24, r28
    2716:	80 93 08 39 	sts	0x3908, r24	; 0x803908 <txPart.3937>
            txBuffer[EEreadLength] = 0; //Add string terminator after piece to send to plug memory leak
    271a:	ec 2f       	mov	r30, r28
    271c:	f0 e0       	ldi	r31, 0x00	; 0
    271e:	ed 50       	subi	r30, 0x0D	; 13
    2720:	f5 4c       	sbci	r31, 0xC5	; 197
    2722:	10 82       	st	Z, r1
            if ((txBuffer[0] == 0) && (EEreadLength)) txBuffer[0] = 0xDB; //Block character when data wrong.
    2724:	80 91 f3 3a 	lds	r24, 0x3AF3	; 0x803af3 <txBuffer>
    2728:	81 11       	cpse	r24, r1
    272a:	03 c0       	rjmp	.+6      	; 0x2732 <CheckSend+0x86>
    272c:	8b ed       	ldi	r24, 0xDB	; 219
    272e:	80 93 f3 3a 	sts	0x3AF3, r24	; 0x803af3 <txBuffer>
            SerSend(&txBuffer[0]);
    2732:	83 ef       	ldi	r24, 0xF3	; 243
    2734:	9a e3       	ldi	r25, 0x3A	; 58
    2736:	0e 94 85 08 	call	0x110a	; 0x110a <SerSend>
        } else {
            txPart = 0;
            ++txAddrNow;
        }
    } else if (serTxDone) return 0; //All is sent!
    return 1; //Still sending, do not change the data in the tx variables
    273a:	81 e0       	ldi	r24, 0x01	; 1
    273c:	0b c0       	rjmp	.+22     	; 0x2754 <CheckSend+0xa8>
            txPart += EEreadLength;
            txBuffer[EEreadLength] = 0; //Add string terminator after piece to send to plug memory leak
            if ((txBuffer[0] == 0) && (EEreadLength)) txBuffer[0] = 0xDB; //Block character when data wrong.
            SerSend(&txBuffer[0]);
        } else {
            txPart = 0;
    273e:	10 92 08 39 	sts	0x3908, r1	; 0x803908 <txPart.3937>
            ++txAddrNow;
    2742:	2f 5f       	subi	r18, 0xFF	; 255
    2744:	20 93 49 3a 	sts	0x3A49, r18	; 0x803a49 <txAddrNow>
    2748:	f8 cf       	rjmp	.-16     	; 0x273a <CheckSend+0x8e>
        }
    } else if (serTxDone) return 0; //All is sent!
    274a:	90 91 09 38 	lds	r25, 0x3809	; 0x803809 <serTxDone>
    274e:	81 e0       	ldi	r24, 0x01	; 1
    2750:	91 11       	cpse	r25, r1
    2752:	80 e0       	ldi	r24, 0x00	; 0
    return 1; //Still sending, do not change the data in the tx variables
}
    2754:	cf 91       	pop	r28
    2756:	08 95       	ret

00002758 <CheckResponse>:

//Send another part of the response and play the effect afterwards
uint8_t CheckResponse(){
    2758:	cf 93       	push	r28
    275a:	df 93       	push	r29
    static uint8_t number = 0;
    if (responseList){
    275c:	c0 91 1c 39 	lds	r28, 0x391C	; 0x80391c <responseList>
    2760:	cc 23       	and	r28, r28
    2762:	b1 f1       	breq	.+108    	; 0x27d0 <CheckResponse+0x78>
        --responseList;
    2764:	c1 50       	subi	r28, 0x01	; 1
    2766:	c0 93 1c 39 	sts	0x391C, r28	; 0x80391c <responseList>
        if (reactStr[0][number] == CURR_LOC) {
    276a:	d0 91 07 39 	lds	r29, 0x3907	; 0x803907 <number.3941>
    276e:	2d 2f       	mov	r18, r29
    2770:	30 e0       	ldi	r19, 0x00	; 0
    2772:	f9 01       	movw	r30, r18
    2774:	ee 0f       	add	r30, r30
    2776:	ff 1f       	adc	r31, r31
    2778:	e3 5e       	subi	r30, 0xE3	; 227
    277a:	f6 4c       	sbci	r31, 0xC6	; 198
    277c:	80 81       	ld	r24, Z
    277e:	91 81       	ldd	r25, Z+1	; 0x01
    2780:	80 3f       	cpi	r24, 0xF0	; 240
    2782:	4f ef       	ldi	r20, 0xFF	; 255
    2784:	94 07       	cpc	r25, r20
    2786:	51 f4       	brne	.+20     	; 0x279c <CheckResponse+0x44>
            PrepareSending(currObj.addrStr[NAME], currObj.lenStr[NAME], GAME);
    2788:	60 91 37 3a 	lds	r22, 0x3A37	; 0x803a37 <currObj+0x1a>
    278c:	70 91 38 3a 	lds	r23, 0x3A38	; 0x803a38 <currObj+0x1b>
    2790:	40 e0       	ldi	r20, 0x00	; 0
    2792:	80 91 29 3a 	lds	r24, 0x3A29	; 0x803a29 <currObj+0xc>
    2796:	90 91 2a 3a 	lds	r25, 0x3A2A	; 0x803a2a <currObj+0xd>
    279a:	0d c0       	rjmp	.+26     	; 0x27b6 <CheckResponse+0x5e>
        } else {
            PrepareSending(reactStr[0][number], reactStr[1][number], reactStr[2][number]);
    279c:	d9 01       	movw	r26, r18
    279e:	aa 0f       	add	r26, r26
    27a0:	bb 1f       	adc	r27, r27
    27a2:	a3 56       	subi	r26, 0x63	; 99
    27a4:	b6 4c       	sbci	r27, 0xC6	; 198
    27a6:	22 0f       	add	r18, r18
    27a8:	33 1f       	adc	r19, r19
    27aa:	f9 01       	movw	r30, r18
    27ac:	e3 5a       	subi	r30, 0xA3	; 163
    27ae:	f6 4c       	sbci	r31, 0xC6	; 198
    27b0:	60 81       	ld	r22, Z
    27b2:	71 81       	ldd	r23, Z+1	; 0x01
    27b4:	4c 91       	ld	r20, X
    27b6:	63 dd       	rcall	.-1338   	; 0x227e <PrepareSending>
        }
        number++;
    27b8:	df 5f       	subi	r29, 0xFF	; 255
    27ba:	d0 93 07 39 	sts	0x3907, r29	; 0x803907 <number.3941>

        if (responseList == 0) {
    27be:	c1 11       	cpse	r28, r1
    27c0:	06 c0       	rjmp	.+12     	; 0x27ce <CheckResponse+0x76>
            //effect = currObj.byteField[EFFECTS];
            RXCNT = 0;
    27c2:	1d ba       	out	0x1d, r1	; 29
            serRxDone = 0;
    27c4:	10 92 46 38 	sts	0x3846, r1	; 0x803846 <serRxDone>
            number = 0;
    27c8:	10 92 07 39 	sts	0x3907, r1	; 0x803907 <number.3941>
    27cc:	01 c0       	rjmp	.+2      	; 0x27d0 <CheckResponse+0x78>
            return 0;
        }
        return 1;
    27ce:	c1 e0       	ldi	r28, 0x01	; 1
    }
    return 0;
}
    27d0:	8c 2f       	mov	r24, r28
    27d2:	df 91       	pop	r29
    27d4:	cf 91       	pop	r28
    27d6:	08 95       	ret

000027d8 <CheckInput>:

//User input check (and validation)
uint8_t CheckInput(uint8_t *data){
    27d8:	5f 92       	push	r5
    27da:	6f 92       	push	r6
    27dc:	7f 92       	push	r7
    27de:	8f 92       	push	r8
    27e0:	9f 92       	push	r9
    27e2:	af 92       	push	r10
    27e4:	bf 92       	push	r11
    27e6:	cf 92       	push	r12
    27e8:	df 92       	push	r13
    27ea:	ef 92       	push	r14
    27ec:	ff 92       	push	r15
    27ee:	0f 93       	push	r16
    27f0:	1f 93       	push	r17
    27f2:	cf 93       	push	r28
    27f4:	df 93       	push	r29
    27f6:	cd b7       	in	r28, 0x3d	; 61
    27f8:	de b7       	in	r29, 0x3e	; 62
    27fa:	2a 97       	sbiw	r28, 0x0a	; 10
    27fc:	cd bf       	out	0x3d, r28	; 61
    27fe:	de bf       	out	0x3e, r29	; 62
    2800:	8c 01       	movw	r16, r24
    
    //Load game data after reboot
    if (currDepth == 0xff) {
    2802:	80 91 31 38 	lds	r24, 0x3831	; 0x803831 <currDepth>
    2806:	8f 3f       	cpi	r24, 0xFF	; 255
    2808:	49 f4       	brne	.+18     	; 0x281c <CheckInput+0x44>
        //Start at first location
        PopulateObject(route[0], &currObj);
    280a:	6d e1       	ldi	r22, 0x1D	; 29
    280c:	7a e3       	ldi	r23, 0x3A	; 58
    280e:	80 91 dd 39 	lds	r24, 0x39DD	; 0x8039dd <route>
    2812:	90 91 de 39 	lds	r25, 0x39DE	; 0x8039de <route+0x1>
    2816:	ec dd       	rcall	.-1064   	; 0x23f0 <PopulateObject>
        currDepth = 0;
    2818:	10 92 31 38 	sts	0x3831, r1	; 0x803831 <currDepth>
    }

    if (serRxDone){
    281c:	80 91 46 38 	lds	r24, 0x3846	; 0x803846 <serRxDone>
    2820:	88 23       	and	r24, r24
    2822:	09 f4       	brne	.+2      	; 0x2826 <CheckInput+0x4e>
    2824:	d4 c1       	rjmp	.+936    	; 0x2bce <CheckInput+0x3f6>

        //Special input requested from user by game
        if (specialInput[0]){
    2826:	80 91 0c 39 	lds	r24, 0x390C	; 0x80390c <specialInput>
    282a:	88 23       	and	r24, r24
    282c:	09 f4       	brne	.+2      	; 0x2830 <CheckInput+0x58>
    282e:	4f c0       	rjmp	.+158    	; 0x28ce <CheckInput+0xf6>
            specialPassed = 0;
    2830:	10 92 0b 39 	sts	0x390B, r1	; 0x80390b <specialPassed>
            data[0] = 'a';
    2834:	81 e6       	ldi	r24, 0x61	; 97
    2836:	f8 01       	movw	r30, r16
    2838:	80 83       	st	Z, r24
            
            //Normal code challenge
            if (StartsWith((uint8_t *)&serRx[0], &specialInput[0])) {
    283a:	6c e0       	ldi	r22, 0x0C	; 12
    283c:	79 e3       	ldi	r23, 0x39	; 57
    283e:	87 e7       	ldi	r24, 0x77	; 119
    2840:	9a e3       	ldi	r25, 0x3A	; 58
    2842:	03 dd       	rcall	.-1530   	; 0x224a <StartsWith>
    2844:	f8 2e       	mov	r15, r24
    2846:	88 23       	and	r24, r24
    2848:	21 f0       	breq	.+8      	; 0x2852 <CheckInput+0x7a>
                specialPassed = 1;
    284a:	81 e0       	ldi	r24, 0x01	; 1
    284c:	80 93 0b 39 	sts	0x390B, r24	; 0x80390b <specialPassed>
    2850:	04 c0       	rjmp	.+8      	; 0x285a <CheckInput+0x82>

            //Special challenge 1
            } else if ((specialInput[0] == '1')&&(specialInput[2] == 0)) {
    2852:	80 91 0c 39 	lds	r24, 0x390C	; 0x80390c <specialInput>
    2856:	81 33       	cpi	r24, 0x31	; 49
    2858:	11 f0       	breq	.+4      	; 0x285e <CheckInput+0x86>
                responseList = SetStandardResponse((3*MAX_CHEATS));
                return 1;
            }
        } 
        //Data received, but not any of the commands above
        return 0;
    285a:	f1 2c       	mov	r15, r1
    285c:	ba c1       	rjmp	.+884    	; 0x2bd2 <CheckInput+0x3fa>
            //Normal code challenge
            if (StartsWith((uint8_t *)&serRx[0], &specialInput[0])) {
                specialPassed = 1;

            //Special challenge 1
            } else if ((specialInput[0] == '1')&&(specialInput[2] == 0)) {
    285e:	80 91 0e 39 	lds	r24, 0x390E	; 0x80390e <specialInput+0x2>
    2862:	81 11       	cpse	r24, r1
    2864:	fa cf       	rjmp	.-12     	; 0x285a <CheckInput+0x82>
                uint8_t inputLen = CleanInput((uint8_t *)&serRx[0]);
    2866:	87 e7       	ldi	r24, 0x77	; 119
    2868:	9a e3       	ldi	r25, 0x3A	; 58
    286a:	fd de       	rcall	.-518    	; 0x2666 <CleanInput>
                specialPassed = 2;
    286c:	92 e0       	ldi	r25, 0x02	; 2
    286e:	90 93 0b 39 	sts	0x390B, r25	; 0x80390b <specialPassed>
                data[1] = 0;
    2872:	f8 01       	movw	r30, r16
    2874:	11 82       	std	Z+1, r1	; 0x01

                if (inputLen >= 2) {
    2876:	82 30       	cpi	r24, 0x02	; 2
    2878:	80 f3       	brcs	.-32     	; 0x285a <CheckInput+0x82>
                    if ((serRx[0] >= '1') && (serRx[0] <= '4')) {
    287a:	80 91 77 3a 	lds	r24, 0x3A77	; 0x803a77 <serRx>
    287e:	81 33       	cpi	r24, 0x31	; 49
    2880:	60 f3       	brcs	.-40     	; 0x285a <CheckInput+0x82>
    2882:	80 91 77 3a 	lds	r24, 0x3A77	; 0x803a77 <serRx>
    2886:	85 33       	cpi	r24, 0x35	; 53
    2888:	40 f7       	brcc	.-48     	; 0x285a <CheckInput+0x82>
                        serRx[1] |= 0x20;
    288a:	80 91 78 3a 	lds	r24, 0x3A78	; 0x803a78 <serRx+0x1>
    288e:	80 62       	ori	r24, 0x20	; 32
    2890:	80 93 78 3a 	sts	0x3A78, r24	; 0x803a78 <serRx+0x1>
                        if ((serRx[1] == 'a')||(serRx[1] == 'e')||(serRx[1] == 'f')||(serRx[1] == 'w')) {
    2894:	80 91 78 3a 	lds	r24, 0x3A78	; 0x803a78 <serRx+0x1>
    2898:	81 36       	cpi	r24, 0x61	; 97
    289a:	61 f0       	breq	.+24     	; 0x28b4 <CheckInput+0xdc>
    289c:	80 91 78 3a 	lds	r24, 0x3A78	; 0x803a78 <serRx+0x1>
    28a0:	85 36       	cpi	r24, 0x65	; 101
    28a2:	41 f0       	breq	.+16     	; 0x28b4 <CheckInput+0xdc>
    28a4:	80 91 78 3a 	lds	r24, 0x3A78	; 0x803a78 <serRx+0x1>
    28a8:	86 36       	cpi	r24, 0x66	; 102
    28aa:	21 f0       	breq	.+8      	; 0x28b4 <CheckInput+0xdc>
    28ac:	80 91 78 3a 	lds	r24, 0x3A78	; 0x803a78 <serRx+0x1>
    28b0:	87 37       	cpi	r24, 0x77	; 119
    28b2:	99 f6       	brne	.-90     	; 0x285a <CheckInput+0x82>
                            data[1] = specialInput[1]+0x11;
    28b4:	80 91 0d 39 	lds	r24, 0x390D	; 0x80390d <specialInput+0x1>
    28b8:	8f 5e       	subi	r24, 0xEF	; 239
    28ba:	f8 01       	movw	r30, r16
    28bc:	81 83       	std	Z+1, r24	; 0x01
                            data[2] = serRx[0];
    28be:	80 91 77 3a 	lds	r24, 0x3A77	; 0x803a77 <serRx>
    28c2:	82 83       	std	Z+2, r24	; 0x02
                            data[3] = serRx[1];
    28c4:	80 91 78 3a 	lds	r24, 0x3A78	; 0x803a78 <serRx+0x1>
    28c8:	83 83       	std	Z+3, r24	; 0x03
                            data[4] = 0;
    28ca:	14 82       	std	Z+4, r1	; 0x04
    28cc:	82 c1       	rjmp	.+772    	; 0x2bd2 <CheckInput+0x3fa>
        } else {
      
            //SetResponse(0, A_LF, 4, TEASER);

            //Change status bit
            if ((serRx[0] == '#')&&(RXCNT == 6)){
    28ce:	80 91 77 3a 	lds	r24, 0x3A77	; 0x803a77 <serRx>
    28d2:	83 32       	cpi	r24, 0x23	; 35
    28d4:	89 f5       	brne	.+98     	; 0x2938 <CheckInput+0x160>
    28d6:	8d b3       	in	r24, 0x1d	; 29
    28d8:	86 30       	cpi	r24, 0x06	; 6
    28da:	71 f5       	brne	.+92     	; 0x2938 <CheckInput+0x160>
    28dc:	81 e0       	ldi	r24, 0x01	; 1
    28de:	90 e0       	ldi	r25, 0x00	; 0
    28e0:	10 e0       	ldi	r17, 0x00	; 0
                uint8_t bitNr = 0;

                for (uint8_t x=1; x<4; ++x) {
                    serRx[x] -= '0';
    28e2:	fc 01       	movw	r30, r24
    28e4:	e9 58       	subi	r30, 0x89	; 137
    28e6:	f5 4c       	sbci	r31, 0xC5	; 197
    28e8:	20 81       	ld	r18, Z
    28ea:	20 53       	subi	r18, 0x30	; 48
    28ec:	20 83       	st	Z, r18
                    bitNr *= 10;
    28ee:	11 0f       	add	r17, r17
    28f0:	21 2f       	mov	r18, r17
    28f2:	22 0f       	add	r18, r18
    28f4:	22 0f       	add	r18, r18
    28f6:	12 0f       	add	r17, r18
                    if (serRx[1] > 2) break;
    28f8:	20 91 78 3a 	lds	r18, 0x3A78	; 0x803a78 <serRx+0x1>
    28fc:	23 30       	cpi	r18, 0x03	; 3
    28fe:	48 f4       	brcc	.+18     	; 0x2912 <CheckInput+0x13a>
                    if (serRx[x] < 10) {
    2900:	20 81       	ld	r18, Z
    2902:	2a 30       	cpi	r18, 0x0A	; 10
    2904:	b8 f4       	brcc	.+46     	; 0x2934 <CheckInput+0x15c>
                        bitNr += serRx[x];
    2906:	20 81       	ld	r18, Z
    2908:	12 0f       	add	r17, r18
    290a:	01 96       	adiw	r24, 0x01	; 1

            //Change status bit
            if ((serRx[0] == '#')&&(RXCNT == 6)){
                uint8_t bitNr = 0;

                for (uint8_t x=1; x<4; ++x) {
    290c:	84 30       	cpi	r24, 0x04	; 4
    290e:	91 05       	cpc	r25, r1
    2910:	41 f7       	brne	.-48     	; 0x28e2 <CheckInput+0x10a>
                        continue;
                    }
                    bitNr = 0;
                    break;
                }
                if ((bitNr)&&(bitNr!=128)) {
    2912:	81 2f       	mov	r24, r17
    2914:	8f 77       	andi	r24, 0x7F	; 127
    2916:	71 f0       	breq	.+28     	; 0x2934 <CheckInput+0x15c>
                    if (Cheat(0xff-bitNr, serRx[4]<<8|serRx[5])) UpdateState(bitNr);
    2918:	80 91 7b 3a 	lds	r24, 0x3A7B	; 0x803a7b <serRx+0x4>
    291c:	60 91 7c 3a 	lds	r22, 0x3A7C	; 0x803a7c <serRx+0x5>
    2920:	70 e0       	ldi	r23, 0x00	; 0
    2922:	78 2b       	or	r23, r24
    2924:	81 2f       	mov	r24, r17
    2926:	80 95       	com	r24
    2928:	3b dc       	rcall	.-1930   	; 0x21a0 <Cheat>
    292a:	88 23       	and	r24, r24
    292c:	19 f0       	breq	.+6      	; 0x2934 <CheckInput+0x15c>
    292e:	81 2f       	mov	r24, r17
    2930:	0e 94 fd 09 	call	0x13fa	; 0x13fa <UpdateState>
                }
                
                responseList = SetStandardResponse(1);
    2934:	81 e0       	ldi	r24, 0x01	; 1
    2936:	48 c1       	rjmp	.+656    	; 0x2bc8 <CheckInput+0x3f0>
    2938:	d8 01       	movw	r26, r16
    293a:	80 e0       	ldi	r24, 0x00	; 0
    293c:	90 e0       	ldi	r25, 0x00	; 0
                return 1;            
            }
            
            //Read up to the \0 character and convert to lower case.
            for (uint8_t x=0; x<RXLEN; ++x){
                if ((serRx[x]<'A')||(serRx[x]>'Z')) data[x]=serRx[x]; else data[x]=serRx[x]|0x20;
    293e:	fc 01       	movw	r30, r24
    2940:	e9 58       	subi	r30, 0x89	; 137
    2942:	f5 4c       	sbci	r31, 0xC5	; 197
    2944:	20 81       	ld	r18, Z
    2946:	21 34       	cpi	r18, 0x41	; 65
    2948:	18 f0       	brcs	.+6      	; 0x2950 <CheckInput+0x178>
    294a:	20 81       	ld	r18, Z
    294c:	2b 35       	cpi	r18, 0x5B	; 91
    294e:	10 f0       	brcs	.+4      	; 0x2954 <CheckInput+0x17c>
    2950:	20 81       	ld	r18, Z
    2952:	02 c0       	rjmp	.+4      	; 0x2958 <CheckInput+0x180>
    2954:	20 81       	ld	r18, Z
    2956:	20 62       	ori	r18, 0x20	; 32
    2958:	2c 93       	st	X, r18
                if (serRx[x] == 0) {
    295a:	20 81       	ld	r18, Z
    295c:	21 11       	cpse	r18, r1
    295e:	05 c0       	rjmp	.+10     	; 0x296a <CheckInput+0x192>
                    data[x] = 0;
    2960:	f8 01       	movw	r30, r16
    2962:	e8 0f       	add	r30, r24
    2964:	f1 1d       	adc	r31, r1
    2966:	10 82       	st	Z, r1
                    break;
    2968:	05 c0       	rjmp	.+10     	; 0x2974 <CheckInput+0x19c>
    296a:	01 96       	adiw	r24, 0x01	; 1
    296c:	11 96       	adiw	r26, 0x01	; 1
                
                return 1;            
            }
            
            //Read up to the \0 character and convert to lower case.
            for (uint8_t x=0; x<RXLEN; ++x){
    296e:	81 34       	cpi	r24, 0x41	; 65
    2970:	91 05       	cpc	r25, r1
    2972:	29 f7       	brne	.-54     	; 0x293e <CheckInput+0x166>
                    break;
                }
            }

            //No text
            if (serRx[0] == 0){
    2974:	80 91 77 3a 	lds	r24, 0x3A77	; 0x803a77 <serRx>
                data[0] = 0;
    2978:	f8 01       	movw	r30, r16
                    break;
                }
            }

            //No text
            if (serRx[0] == 0){
    297a:	81 11       	cpse	r24, r1
    297c:	05 c0       	rjmp	.+10     	; 0x2988 <CheckInput+0x1b0>
                data[0] = 0;
    297e:	10 82       	st	Z, r1
                RXCNT = 0;
    2980:	1d ba       	out	0x1d, r1	; 29
                serRxDone = 0;
    2982:	10 92 46 38 	sts	0x3846, r1	; 0x803846 <serRxDone>
    2986:	23 c1       	rjmp	.+582    	; 0x2bce <CheckInput+0x3f6>
                return 1;
            }

            //Help text
            if ((data[0] == '?')||(data[0] == 'h')){
    2988:	80 81       	ld	r24, Z
    298a:	8f 33       	cpi	r24, 0x3F	; 63
    298c:	11 f0       	breq	.+4      	; 0x2992 <CheckInput+0x1ba>
    298e:	88 36       	cpi	r24, 0x68	; 104
    2990:	49 f4       	brne	.+18     	; 0x29a4 <CheckInput+0x1cc>
    return 0;
}

//
void SetResponse(uint8_t number, uint16_t address, uint16_t length, uint8_t type){
    reactStr[0][number]=address;
    2992:	83 e9       	ldi	r24, 0x93	; 147
    2994:	9b e7       	ldi	r25, 0x7B	; 123
    2996:	80 93 1f 39 	sts	0x391F, r24	; 0x80391f <reactStr+0x2>
    299a:	90 93 20 39 	sts	0x3920, r25	; 0x803920 <reactStr+0x3>
    reactStr[1][number]=length;
    299e:	8d e6       	ldi	r24, 0x6D	; 109
    29a0:	94 e0       	ldi	r25, 0x04	; 4
    29a2:	0a c0       	rjmp	.+20     	; 0x29b8 <CheckInput+0x1e0>
                responseList = SetStandardResponse(2);
                return 1;
            }        
        
            //Alphabet text
            if (data[0] == 'a'){
    29a4:	81 36       	cpi	r24, 0x61	; 97
    29a6:	a1 f4       	brne	.+40     	; 0x29d0 <CheckInput+0x1f8>
    return 0;
}

//
void SetResponse(uint8_t number, uint16_t address, uint16_t length, uint8_t type){
    reactStr[0][number]=address;
    29a8:	8e e6       	ldi	r24, 0x6E	; 110
    29aa:	9a e7       	ldi	r25, 0x7A	; 122
    29ac:	80 93 1f 39 	sts	0x391F, r24	; 0x80391f <reactStr+0x2>
    29b0:	90 93 20 39 	sts	0x3920, r25	; 0x803920 <reactStr+0x3>
    reactStr[1][number]=length;
    29b4:	85 e2       	ldi	r24, 0x25	; 37
    29b6:	91 e0       	ldi	r25, 0x01	; 1
    29b8:	80 93 5f 39 	sts	0x395F, r24	; 0x80395f <reactStr+0x42>
    29bc:	90 93 60 39 	sts	0x3960, r25	; 0x803960 <reactStr+0x43>
    reactStr[2][number]=type;
    29c0:	81 e0       	ldi	r24, 0x01	; 1
    29c2:	90 e0       	ldi	r25, 0x00	; 0
    29c4:	80 93 9f 39 	sts	0x399F, r24	; 0x80399f <reactStr+0x82>
    29c8:	90 93 a0 39 	sts	0x39A0, r25	; 0x8039a0 <reactStr+0x83>
            }        
        
            //Alphabet text
            if (data[0] == 'a'){
                SetResponse(1, A_ALPHABET, L_ALPHABET, TEASER);
                responseList = SetStandardResponse(2);
    29cc:	82 e0       	ldi	r24, 0x02	; 2
    29ce:	fc c0       	rjmp	.+504    	; 0x2bc8 <CheckInput+0x3f0>
                return 1;
            }

            //Whoami text
            if (data[0] == 'w'){
    29d0:	87 37       	cpi	r24, 0x77	; 119
    29d2:	09 f0       	breq	.+2      	; 0x29d6 <CheckInput+0x1fe>
    29d4:	41 c0       	rjmp	.+130    	; 0x2a58 <CheckInput+0x280>
    return 0;
}

//
void SetResponse(uint8_t number, uint16_t address, uint16_t length, uint8_t type){
    reactStr[0][number]=address;
    29d6:	8d e8       	ldi	r24, 0x8D	; 141
    29d8:	96 e7       	ldi	r25, 0x76	; 118
    29da:	80 93 1f 39 	sts	0x391F, r24	; 0x80391f <reactStr+0x2>
    29de:	90 93 20 39 	sts	0x3920, r25	; 0x803920 <reactStr+0x3>
    reactStr[1][number]=length;
    29e2:	82 e1       	ldi	r24, 0x12	; 18
    29e4:	90 e0       	ldi	r25, 0x00	; 0
    29e6:	80 93 5f 39 	sts	0x395F, r24	; 0x80395f <reactStr+0x42>
    29ea:	90 93 60 39 	sts	0x3960, r25	; 0x803960 <reactStr+0x43>
    reactStr[2][number]=type;
    29ee:	21 e0       	ldi	r18, 0x01	; 1
    29f0:	30 e0       	ldi	r19, 0x00	; 0
    29f2:	20 93 9f 39 	sts	0x399F, r18	; 0x80399f <reactStr+0x82>
    29f6:	30 93 a0 39 	sts	0x39A0, r19	; 0x8039a0 <reactStr+0x83>
            }

            //Whoami text
            if (data[0] == 'w'){
                SetResponse(1, A_HELLO, L_HELLO, TEASER);
                SetResponse(2, names[0][whoami-1], names[1][whoami-1], TEASER);
    29fa:	80 91 3f 38 	lds	r24, 0x383F	; 0x80383f <whoami>
    29fe:	90 e0       	ldi	r25, 0x00	; 0
    2a00:	fc 01       	movw	r30, r24
    2a02:	ee 0f       	add	r30, r30
    2a04:	ff 1f       	adc	r31, r31
    2a06:	e0 54       	subi	r30, 0x40	; 64
    2a08:	f0 44       	sbci	r31, 0x40	; 64
    2a0a:	40 81       	ld	r20, Z
    2a0c:	51 81       	ldd	r21, Z+1	; 0x01
    2a0e:	88 0f       	add	r24, r24
    2a10:	99 1f       	adc	r25, r25
    2a12:	fc 01       	movw	r30, r24
    2a14:	e8 54       	subi	r30, 0x48	; 72
    2a16:	f0 44       	sbci	r31, 0x40	; 64
    return 0;
}

//
void SetResponse(uint8_t number, uint16_t address, uint16_t length, uint8_t type){
    reactStr[0][number]=address;
    2a18:	80 81       	ld	r24, Z
    2a1a:	91 81       	ldd	r25, Z+1	; 0x01
    2a1c:	80 93 21 39 	sts	0x3921, r24	; 0x803921 <reactStr+0x4>
    2a20:	90 93 22 39 	sts	0x3922, r25	; 0x803922 <reactStr+0x5>
    reactStr[1][number]=length;
    2a24:	40 93 61 39 	sts	0x3961, r20	; 0x803961 <reactStr+0x44>
    2a28:	50 93 62 39 	sts	0x3962, r21	; 0x803962 <reactStr+0x45>
    reactStr[2][number]=type;
    2a2c:	20 93 a1 39 	sts	0x39A1, r18	; 0x8039a1 <reactStr+0x84>
    2a30:	30 93 a2 39 	sts	0x39A2, r19	; 0x8039a2 <reactStr+0x85>
    return 0;
}

//
void SetResponse(uint8_t number, uint16_t address, uint16_t length, uint8_t type){
    reactStr[0][number]=address;
    2a34:	8f e5       	ldi	r24, 0x5F	; 95
    2a36:	96 e7       	ldi	r25, 0x76	; 118
    2a38:	80 93 23 39 	sts	0x3923, r24	; 0x803923 <reactStr+0x6>
    2a3c:	90 93 24 39 	sts	0x3924, r25	; 0x803924 <reactStr+0x7>
    reactStr[1][number]=length;
    2a40:	8a e1       	ldi	r24, 0x1A	; 26
    2a42:	90 e0       	ldi	r25, 0x00	; 0
    2a44:	80 93 63 39 	sts	0x3963, r24	; 0x803963 <reactStr+0x46>
    2a48:	90 93 64 39 	sts	0x3964, r25	; 0x803964 <reactStr+0x47>
    reactStr[2][number]=type;
    2a4c:	20 93 a3 39 	sts	0x39A3, r18	; 0x8039a3 <reactStr+0x86>
    2a50:	30 93 a4 39 	sts	0x39A4, r19	; 0x8039a4 <reactStr+0x87>
                } else {
                    SetResponse(2, A_ERROR, L_ERROR, TEASER);
                }*/

                SetResponse(3, A_PLEASED, L_PLEASED, TEASER);
                responseList = SetStandardResponse(4);
    2a54:	84 e0       	ldi	r24, 0x04	; 4
                responseList = SetStandardResponse(2);
                return 1;
            }*/

            //Fake cheat = reset badge!
            if (StartsWith(&data[0], "iddqd")){
    2a56:	b8 c0       	rjmp	.+368    	; 0x2bc8 <CheckInput+0x3f0>
    2a58:	66 e9       	ldi	r22, 0x96	; 150
    2a5a:	7f eb       	ldi	r23, 0xBF	; 191
    2a5c:	c8 01       	movw	r24, r16
    2a5e:	f5 db       	rcall	.-2070   	; 0x224a <StartsWith>
    2a60:	88 23       	and	r24, r24
    2a62:	19 f1       	breq	.+70     	; 0x2aaa <CheckInput+0x2d2>
            
                //Reset game data by wiping the UUID bits
                for (uint8_t x=0; x<4; ++x){
                    UpdateState(128+110+x);
    2a64:	8e ee       	ldi	r24, 0xEE	; 238
    2a66:	0e 94 fd 09 	call	0x13fa	; 0x13fa <UpdateState>
    2a6a:	8f ee       	ldi	r24, 0xEF	; 239
    2a6c:	0e 94 fd 09 	call	0x13fa	; 0x13fa <UpdateState>
    2a70:	80 ef       	ldi	r24, 0xF0	; 240
    2a72:	0e 94 fd 09 	call	0x13fa	; 0x13fa <UpdateState>
    2a76:	81 ef       	ldi	r24, 0xF1	; 241
    2a78:	0e 94 fd 09 	call	0x13fa	; 0x13fa <UpdateState>
                }
                SaveGameState();
    2a7c:	0e 94 76 09 	call	0x12ec	; 0x12ec <SaveGameState>

                uint8_t cheat[] = "Gotcha! ";
    2a80:	89 e0       	ldi	r24, 0x09	; 9
    2a82:	e9 ea       	ldi	r30, 0xA9	; 169
    2a84:	ff eb       	ldi	r31, 0xBF	; 191
    2a86:	de 01       	movw	r26, r28
    2a88:	11 96       	adiw	r26, 0x01	; 1
    2a8a:	01 90       	ld	r0, Z+
    2a8c:	0d 92       	st	X+, r0
    2a8e:	8a 95       	dec	r24
    2a90:	e1 f7       	brne	.-8      	; 0x2a8a <CheckInput+0x2b2>
                SerSpeed(60);
    2a92:	8c e3       	ldi	r24, 0x3C	; 60
    2a94:	0e 94 96 08 	call	0x112c	; 0x112c <SerSpeed>
                while(1){
                    if (serTxDone) SerSend(&cheat[0]);
    2a98:	80 91 09 38 	lds	r24, 0x3809	; 0x803809 <serTxDone>
    2a9c:	88 23       	and	r24, r24
    2a9e:	e1 f3       	breq	.-8      	; 0x2a98 <CheckInput+0x2c0>
    2aa0:	ce 01       	movw	r24, r28
    2aa2:	01 96       	adiw	r24, 0x01	; 1
    2aa4:	0e 94 85 08 	call	0x110a	; 0x110a <SerSend>
                }
            }
            
            //Cheat reset
            if (StartsWith(&data[0], "ikillu")){
    2aa8:	f7 cf       	rjmp	.-18     	; 0x2a98 <CheckInput+0x2c0>
    2aaa:	6c e9       	ldi	r22, 0x9C	; 156
    2aac:	7f eb       	ldi	r23, 0xBF	; 191
    2aae:	c8 01       	movw	r24, r16
    2ab0:	cc db       	rcall	.-2152   	; 0x224a <StartsWith>
    2ab2:	88 23       	and	r24, r24
    2ab4:	81 f1       	breq	.+96     	; 0x2b16 <CheckInput+0x33e>
                
                //Reset cheat data by resetting the EEPROM bytes
                uint8_t empty=0xff;
    2ab6:	8f ef       	ldi	r24, 0xFF	; 255
    2ab8:	8a 87       	std	Y+10, r24	; 0x0a
    2aba:	18 e1       	ldi	r17, 0x18	; 24
                for (uint8_t x=0; x<MAX_CHEATS; ++x){
                    EEWrite(CHEATS+x, &empty, 1);
    2abc:	41 e0       	ldi	r20, 0x01	; 1
    2abe:	be 01       	movw	r22, r28
    2ac0:	66 5f       	subi	r22, 0xF6	; 246
    2ac2:	7f 4f       	sbci	r23, 0xFF	; 255
    2ac4:	81 2f       	mov	r24, r17
    2ac6:	0e 94 11 08 	call	0x1022	; 0x1022 <EEWrite>
    2aca:	1f 5f       	subi	r17, 0xFF	; 255
            //Cheat reset
            if (StartsWith(&data[0], "ikillu")){
                
                //Reset cheat data by resetting the EEPROM bytes
                uint8_t empty=0xff;
                for (uint8_t x=0; x<MAX_CHEATS; ++x){
    2acc:	10 32       	cpi	r17, 0x20	; 32
    2ace:	b1 f7       	brne	.-20     	; 0x2abc <CheckInput+0x2e4>
                    EEWrite(CHEATS+x, &empty, 1);
                }
                //Reset game data by wiping the UUID bits
                for (uint8_t x=0; x<4; ++x){
                    UpdateState(128+110+x);
    2ad0:	8e ee       	ldi	r24, 0xEE	; 238
    2ad2:	0e 94 fd 09 	call	0x13fa	; 0x13fa <UpdateState>
    2ad6:	8f ee       	ldi	r24, 0xEF	; 239
    2ad8:	0e 94 fd 09 	call	0x13fa	; 0x13fa <UpdateState>
    2adc:	80 ef       	ldi	r24, 0xF0	; 240
    2ade:	0e 94 fd 09 	call	0x13fa	; 0x13fa <UpdateState>
    2ae2:	81 ef       	ldi	r24, 0xF1	; 241
    2ae4:	0e 94 fd 09 	call	0x13fa	; 0x13fa <UpdateState>
                }
                
                SaveGameState();
    2ae8:	0e 94 76 09 	call	0x12ec	; 0x12ec <SaveGameState>

                uint8_t cheat[] = "Reset! ";
    2aec:	88 e0       	ldi	r24, 0x08	; 8
    2aee:	e2 eb       	ldi	r30, 0xB2	; 178
    2af0:	ff eb       	ldi	r31, 0xBF	; 191
    2af2:	de 01       	movw	r26, r28
    2af4:	11 96       	adiw	r26, 0x01	; 1
    2af6:	01 90       	ld	r0, Z+
    2af8:	0d 92       	st	X+, r0
    2afa:	8a 95       	dec	r24
    2afc:	e1 f7       	brne	.-8      	; 0x2af6 <CheckInput+0x31e>
                SerSpeed(60);
    2afe:	8c e3       	ldi	r24, 0x3C	; 60
    2b00:	0e 94 96 08 	call	0x112c	; 0x112c <SerSpeed>
                while(1){
                    if (serTxDone) SerSend(&cheat[0]);
    2b04:	80 91 09 38 	lds	r24, 0x3809	; 0x803809 <serTxDone>
    2b08:	88 23       	and	r24, r24
    2b0a:	e1 f3       	breq	.-8      	; 0x2b04 <CheckInput+0x32c>
    2b0c:	ce 01       	movw	r24, r28
    2b0e:	01 96       	adiw	r24, 0x01	; 1
    2b10:	0e 94 85 08 	call	0x110a	; 0x110a <SerSend>
                }
            }

            //Show used cheat codes
            if (StartsWith(&data[0], "cheat")){
    2b14:	f7 cf       	rjmp	.-18     	; 0x2b04 <CheckInput+0x32c>
    2b16:	63 ea       	ldi	r22, 0xA3	; 163
    2b18:	7f eb       	ldi	r23, 0xBF	; 191
    2b1a:	c8 01       	movw	r24, r16
    2b1c:	96 db       	rcall	.-2260   	; 0x224a <StartsWith>
    2b1e:	88 23       	and	r24, r24
    2b20:	09 f4       	brne	.+2      	; 0x2b24 <CheckInput+0x34c>
    2b22:	9b ce       	rjmp	.-714    	; 0x285a <CheckInput+0x82>
    2b24:	8d e1       	ldi	r24, 0x1D	; 29
    2b26:	c8 2e       	mov	r12, r24
    2b28:	89 e3       	ldi	r24, 0x39	; 57
    2b2a:	d8 2e       	mov	r13, r24
    2b2c:	9d e5       	ldi	r25, 0x5D	; 93
    2b2e:	e9 2e       	mov	r14, r25
    2b30:	99 e3       	ldi	r25, 0x39	; 57
    2b32:	f9 2e       	mov	r15, r25
    2b34:	0d e9       	ldi	r16, 0x9D	; 157
    2b36:	19 e3       	ldi	r17, 0x39	; 57
    2b38:	28 e1       	ldi	r18, 0x18	; 24
    2b3a:	52 2e       	mov	r5, r18
}

//
void SetResponse(uint8_t number, uint16_t address, uint16_t length, uint8_t type){
    reactStr[0][number]=address;
    reactStr[1][number]=length;
    2b3c:	aa 24       	eor	r10, r10
    2b3e:	a3 94       	inc	r10
    2b40:	b1 2c       	mov	r11, r1
    return 0;
}

//
void SetResponse(uint8_t number, uint16_t address, uint16_t length, uint8_t type){
    reactStr[0][number]=address;
    2b42:	47 e5       	ldi	r20, 0x57	; 87
    2b44:	84 2e       	mov	r8, r20
    2b46:	4a e7       	ldi	r20, 0x7A	; 122
    2b48:	94 2e       	mov	r9, r20
    reactStr[1][number]=length;
    2b4a:	52 e0       	ldi	r21, 0x02	; 2
    2b4c:	65 2e       	mov	r6, r21
    2b4e:	71 2c       	mov	r7, r1
            if (StartsWith(&data[0], "cheat")){
                uint8_t bit;
                for (uint8_t x=0; x<MAX_CHEATS; ++x){
                    
                    //Set up sending out number
                    EERead(CHEATS+x, &bit, 1);
    2b50:	41 e0       	ldi	r20, 0x01	; 1
    2b52:	be 01       	movw	r22, r28
    2b54:	6f 5f       	subi	r22, 0xFF	; 255
    2b56:	7f 4f       	sbci	r23, 0xFF	; 255
    2b58:	85 2d       	mov	r24, r5
    2b5a:	0e 94 01 08 	call	0x1002	; 0x1002 <EERead>
                    bit = 0xff-bit;
    2b5e:	89 81       	ldd	r24, Y+1	; 0x01
    2b60:	80 95       	com	r24
    2b62:	89 83       	std	Y+1, r24	; 0x01
    return 0;
}

//
void SetResponse(uint8_t number, uint16_t address, uint16_t length, uint8_t type){
    reactStr[0][number]=address;
    2b64:	28 2f       	mov	r18, r24
    2b66:	22 95       	swap	r18
    2b68:	2f 70       	andi	r18, 0x0F	; 15
    2b6a:	30 e0       	ldi	r19, 0x00	; 0
    2b6c:	23 57       	subi	r18, 0x73	; 115
    2b6e:	3b 48       	sbci	r19, 0x8B	; 139
    2b70:	f6 01       	movw	r30, r12
    2b72:	20 83       	st	Z, r18
    2b74:	31 83       	std	Z+1, r19	; 0x01
    reactStr[1][number]=length;
    2b76:	f7 01       	movw	r30, r14
    2b78:	a0 82       	st	Z, r10
    2b7a:	b1 82       	std	Z+1, r11	; 0x01
    reactStr[2][number]=type;
    2b7c:	f8 01       	movw	r30, r16
    2b7e:	a0 82       	st	Z, r10
    2b80:	b1 82       	std	Z+1, r11	; 0x01
    return 0;
}

//
void SetResponse(uint8_t number, uint16_t address, uint16_t length, uint8_t type){
    reactStr[0][number]=address;
    2b82:	8f 70       	andi	r24, 0x0F	; 15
    2b84:	90 e0       	ldi	r25, 0x00	; 0
    2b86:	83 57       	subi	r24, 0x73	; 115
    2b88:	9b 48       	sbci	r25, 0x8B	; 139
    2b8a:	f6 01       	movw	r30, r12
    2b8c:	82 83       	std	Z+2, r24	; 0x02
    2b8e:	93 83       	std	Z+3, r25	; 0x03
    reactStr[1][number]=length;
    2b90:	f7 01       	movw	r30, r14
    2b92:	a2 82       	std	Z+2, r10	; 0x02
    2b94:	b3 82       	std	Z+3, r11	; 0x03
    reactStr[2][number]=type;
    2b96:	f8 01       	movw	r30, r16
    2b98:	a2 82       	std	Z+2, r10	; 0x02
    2b9a:	b3 82       	std	Z+3, r11	; 0x03
    return 0;
}

//
void SetResponse(uint8_t number, uint16_t address, uint16_t length, uint8_t type){
    reactStr[0][number]=address;
    2b9c:	f6 01       	movw	r30, r12
    2b9e:	84 82       	std	Z+4, r8	; 0x04
    2ba0:	95 82       	std	Z+5, r9	; 0x05
    reactStr[1][number]=length;
    2ba2:	f7 01       	movw	r30, r14
    2ba4:	64 82       	std	Z+4, r6	; 0x04
    2ba6:	75 82       	std	Z+5, r7	; 0x05
    reactStr[2][number]=type;
    2ba8:	f8 01       	movw	r30, r16
    2baa:	a4 82       	std	Z+4, r10	; 0x04
    2bac:	b5 82       	std	Z+5, r11	; 0x05
    2bae:	53 94       	inc	r5
    2bb0:	f6 e0       	ldi	r31, 0x06	; 6
    2bb2:	cf 0e       	add	r12, r31
    2bb4:	d1 1c       	adc	r13, r1
    2bb6:	86 e0       	ldi	r24, 0x06	; 6
    2bb8:	e8 0e       	add	r14, r24
    2bba:	f1 1c       	adc	r15, r1
    2bbc:	0a 5f       	subi	r16, 0xFA	; 250
            }

            //Show used cheat codes
            if (StartsWith(&data[0], "cheat")){
                uint8_t bit;
                for (uint8_t x=0; x<MAX_CHEATS; ++x){
    2bbe:	1f 4f       	sbci	r17, 0xFF	; 255
    2bc0:	e0 e2       	ldi	r30, 0x20	; 32
    2bc2:	5e 12       	cpse	r5, r30
                    //SetResponse(x*4, A_HEXPREFIX, L_HEXPREFIX, TEASER);
                    SetResponse(x*3, A_DIGITS+(bit>>4), 1, TEASER);               
                    SetResponse(x*3+1, A_DIGITS+(bit%16), 1, TEASER);
                    SetResponse(x*3+2, A_COMMA, L_COMMA, TEASER);
                }
                responseList = SetStandardResponse((3*MAX_CHEATS));
    2bc4:	c5 cf       	rjmp	.-118    	; 0x2b50 <CheckInput+0x378>
    2bc6:	88 e1       	ldi	r24, 0x18	; 24
    2bc8:	97 db       	rcall	.-2258   	; 0x22f8 <SetStandardResponse>
    2bca:	80 93 1c 39 	sts	0x391C, r24	; 0x80391c <responseList>
        //Data received, but not any of the commands above
        return 0;
    }

    //Serial input not available yet
    return 1;
    2bce:	ff 24       	eor	r15, r15
    2bd0:	f3 94       	inc	r15
}
    2bd2:	8f 2d       	mov	r24, r15
    2bd4:	2a 96       	adiw	r28, 0x0a	; 10
    2bd6:	cd bf       	out	0x3d, r28	; 61
    2bd8:	de bf       	out	0x3e, r29	; 62
    2bda:	df 91       	pop	r29
    2bdc:	cf 91       	pop	r28
    2bde:	1f 91       	pop	r17
    2be0:	0f 91       	pop	r16
    2be2:	ff 90       	pop	r15
    2be4:	ef 90       	pop	r14
    2be6:	df 90       	pop	r13
    2be8:	cf 90       	pop	r12
    2bea:	bf 90       	pop	r11
    2bec:	af 90       	pop	r10
    2bee:	9f 90       	pop	r9
    2bf0:	8f 90       	pop	r8
    2bf2:	7f 90       	pop	r7
    2bf4:	6f 90       	pop	r6
    2bf6:	5f 90       	pop	r5
    2bf8:	08 95       	ret

00002bfa <ShowInventory>:

uint8_t ShowInventory(uint8_t elements){
    2bfa:	9f 92       	push	r9
    2bfc:	af 92       	push	r10
    2bfe:	bf 92       	push	r11
    2c00:	cf 92       	push	r12
    2c02:	df 92       	push	r13
    2c04:	ef 92       	push	r14
    2c06:	ff 92       	push	r15
    2c08:	0f 93       	push	r16
    2c0a:	1f 93       	push	r17
    2c0c:	cf 93       	push	r28
    2c0e:	df 93       	push	r29
    2c10:	cd b7       	in	r28, 0x3d	; 61
    2c12:	de b7       	in	r29, 0x3e	; 62
    2c14:	ab 97       	sbiw	r28, 0x2b	; 43
    2c16:	cd bf       	out	0x3d, r28	; 61
    2c18:	de bf       	out	0x3e, r29	; 62
    object_model_t actObj1;

    SetResponse(elements++, A_NOWCARRING, L_NOWCARRING, TEASER);
    2c1a:	99 24       	eor	r9, r9
    2c1c:	93 94       	inc	r9
    2c1e:	98 0e       	add	r9, r24
    return 0;
}

//
void SetResponse(uint8_t number, uint16_t address, uint16_t length, uint8_t type){
    reactStr[0][number]=address;
    2c20:	90 e0       	ldi	r25, 0x00	; 0
    2c22:	fc 01       	movw	r30, r24
    2c24:	ee 0f       	add	r30, r30
    2c26:	ff 1f       	adc	r31, r31
    2c28:	e3 5e       	subi	r30, 0xE3	; 227
    2c2a:	f6 4c       	sbci	r31, 0xC6	; 198
    2c2c:	2c ec       	ldi	r18, 0xCC	; 204
    2c2e:	37 e7       	ldi	r19, 0x77	; 119
    2c30:	20 83       	st	Z, r18
    2c32:	31 83       	std	Z+1, r19	; 0x01
    reactStr[1][number]=length;
    2c34:	fc 01       	movw	r30, r24
    2c36:	ee 0f       	add	r30, r30
    2c38:	ff 1f       	adc	r31, r31
    2c3a:	e3 5a       	subi	r30, 0xA3	; 163
    2c3c:	f6 4c       	sbci	r31, 0xC6	; 198
    2c3e:	26 e1       	ldi	r18, 0x16	; 22
    2c40:	30 e0       	ldi	r19, 0x00	; 0
    2c42:	20 83       	st	Z, r18
    2c44:	31 83       	std	Z+1, r19	; 0x01
    reactStr[2][number]=type;
    2c46:	88 0f       	add	r24, r24
    2c48:	99 1f       	adc	r25, r25
    2c4a:	fc 01       	movw	r30, r24
    2c4c:	e3 56       	subi	r30, 0x63	; 99
    2c4e:	f6 4c       	sbci	r31, 0xC6	; 198
    2c50:	81 e0       	ldi	r24, 0x01	; 1
    2c52:	90 e0       	ldi	r25, 0x00	; 0
    2c54:	80 83       	st	Z, r24
    2c56:	91 83       	std	Z+1, r25	; 0x01
    2c58:	00 e4       	ldi	r16, 0x40	; 64
    2c5a:	18 e3       	ldi	r17, 0x38	; 56
    return 0;
}

//
void SetResponse(uint8_t number, uint16_t address, uint16_t length, uint8_t type){
    reactStr[0][number]=address;
    2c5c:	37 e5       	ldi	r19, 0x57	; 87
    2c5e:	e3 2e       	mov	r14, r19
    2c60:	3a e7       	ldi	r19, 0x7A	; 122
    2c62:	f3 2e       	mov	r15, r19
    reactStr[1][number]=length;
    2c64:	42 e0       	ldi	r20, 0x02	; 2
    2c66:	c4 2e       	mov	r12, r20
    2c68:	d1 2c       	mov	r13, r1
    reactStr[2][number]=type;
    2c6a:	aa 24       	eor	r10, r10
    2c6c:	a3 94       	inc	r10
    2c6e:	b1 2c       	mov	r11, r1
    object_model_t actObj1;

    SetResponse(elements++, A_NOWCARRING, L_NOWCARRING, TEASER);

    for (uint8_t x=0; x<2; ++x) {
        if (inventory[x]) {
    2c70:	f8 01       	movw	r30, r16
    2c72:	81 91       	ld	r24, Z+
    2c74:	91 91       	ld	r25, Z+
    2c76:	8f 01       	movw	r16, r30
    2c78:	00 97       	sbiw	r24, 0x00	; 0
    2c7a:	c9 f1       	breq	.+114    	; 0x2cee <ShowInventory+0xf4>
            PopulateObject(inventory[x], &actObj1);
    2c7c:	be 01       	movw	r22, r28
    2c7e:	6f 5f       	subi	r22, 0xFF	; 255
    2c80:	7f 4f       	sbci	r23, 0xFF	; 255
    2c82:	b6 db       	rcall	.-2196   	; 0x23f0 <PopulateObject>
            SetResponse(elements++, actObj1.addrStr[NAME], actObj1.lenStr[NAME], GAME);
    2c84:	2b 8d       	ldd	r18, Y+27	; 0x1b
    2c86:	3c 8d       	ldd	r19, Y+28	; 0x1c
    return 0;
}

//
void SetResponse(uint8_t number, uint16_t address, uint16_t length, uint8_t type){
    reactStr[0][number]=address;
    2c88:	89 2d       	mov	r24, r9
    2c8a:	90 e0       	ldi	r25, 0x00	; 0
    2c8c:	fc 01       	movw	r30, r24
    2c8e:	ee 0f       	add	r30, r30
    2c90:	ff 1f       	adc	r31, r31
    2c92:	e3 5e       	subi	r30, 0xE3	; 227
    2c94:	f6 4c       	sbci	r31, 0xC6	; 198
    2c96:	4d 85       	ldd	r20, Y+13	; 0x0d
    2c98:	5e 85       	ldd	r21, Y+14	; 0x0e
    2c9a:	40 83       	st	Z, r20
    2c9c:	51 83       	std	Z+1, r21	; 0x01
    reactStr[1][number]=length;
    2c9e:	fc 01       	movw	r30, r24
    2ca0:	ee 0f       	add	r30, r30
    2ca2:	ff 1f       	adc	r31, r31
    2ca4:	e3 5a       	subi	r30, 0xA3	; 163
    2ca6:	f6 4c       	sbci	r31, 0xC6	; 198
    2ca8:	20 83       	st	Z, r18
    2caa:	31 83       	std	Z+1, r19	; 0x01
    reactStr[2][number]=type;
    2cac:	88 0f       	add	r24, r24
    2cae:	99 1f       	adc	r25, r25
    2cb0:	fc 01       	movw	r30, r24
    2cb2:	e3 56       	subi	r30, 0x63	; 99
    2cb4:	f6 4c       	sbci	r31, 0xC6	; 198
    2cb6:	10 82       	st	Z, r1
    2cb8:	11 82       	std	Z+1, r1	; 0x01
    return 0;
}

//
void SetResponse(uint8_t number, uint16_t address, uint16_t length, uint8_t type){
    reactStr[0][number]=address;
    2cba:	81 e0       	ldi	r24, 0x01	; 1
    2cbc:	89 0d       	add	r24, r9
    2cbe:	90 e0       	ldi	r25, 0x00	; 0
    2cc0:	93 94       	inc	r9
    2cc2:	93 94       	inc	r9
    2cc4:	fc 01       	movw	r30, r24
    2cc6:	ee 0f       	add	r30, r30
    2cc8:	ff 1f       	adc	r31, r31
    2cca:	e3 5e       	subi	r30, 0xE3	; 227
    2ccc:	f6 4c       	sbci	r31, 0xC6	; 198
    2cce:	e0 82       	st	Z, r14
    2cd0:	f1 82       	std	Z+1, r15	; 0x01
    reactStr[1][number]=length;
    2cd2:	fc 01       	movw	r30, r24
    2cd4:	ee 0f       	add	r30, r30
    2cd6:	ff 1f       	adc	r31, r31
    2cd8:	e3 5a       	subi	r30, 0xA3	; 163
    2cda:	f6 4c       	sbci	r31, 0xC6	; 198
    2cdc:	c0 82       	st	Z, r12
    2cde:	d1 82       	std	Z+1, r13	; 0x01
    reactStr[2][number]=type;
    2ce0:	88 0f       	add	r24, r24
    2ce2:	99 1f       	adc	r25, r25
    2ce4:	fc 01       	movw	r30, r24
    2ce6:	e3 56       	subi	r30, 0x63	; 99
    2ce8:	f6 4c       	sbci	r31, 0xC6	; 198
    2cea:	a0 82       	st	Z, r10
    2cec:	b1 82       	std	Z+1, r11	; 0x01
uint8_t ShowInventory(uint8_t elements){
    object_model_t actObj1;

    SetResponse(elements++, A_NOWCARRING, L_NOWCARRING, TEASER);

    for (uint8_t x=0; x<2; ++x) {
    2cee:	f8 e3       	ldi	r31, 0x38	; 56
    2cf0:	04 34       	cpi	r16, 0x44	; 68
    2cf2:	1f 07       	cpc	r17, r31
    2cf4:	09 f0       	breq	.+2      	; 0x2cf8 <ShowInventory+0xfe>
    2cf6:	bc cf       	rjmp	.-136    	; 0x2c70 <ShowInventory+0x76>
        }
    }
    elements -= 1;
            
    return elements;
}
    2cf8:	8f ef       	ldi	r24, 0xFF	; 255
    2cfa:	89 0d       	add	r24, r9
    2cfc:	ab 96       	adiw	r28, 0x2b	; 43
    2cfe:	cd bf       	out	0x3d, r28	; 61
    2d00:	de bf       	out	0x3e, r29	; 62
    2d02:	df 91       	pop	r29
    2d04:	cf 91       	pop	r28
    2d06:	1f 91       	pop	r17
    2d08:	0f 91       	pop	r16
    2d0a:	ff 90       	pop	r15
    2d0c:	ef 90       	pop	r14
    2d0e:	df 90       	pop	r13
    2d10:	cf 90       	pop	r12
    2d12:	bf 90       	pop	r11
    2d14:	af 90       	pop	r10
    2d16:	9f 90       	pop	r9
    2d18:	08 95       	ret

00002d1a <ProcessInput>:

//The game logic!
uint8_t ProcessInput(uint8_t *data){
    2d1a:	6f 92       	push	r6
    2d1c:	7f 92       	push	r7
    2d1e:	8f 92       	push	r8
    2d20:	9f 92       	push	r9
    2d22:	af 92       	push	r10
    2d24:	bf 92       	push	r11
    2d26:	cf 92       	push	r12
    2d28:	df 92       	push	r13
    2d2a:	ef 92       	push	r14
    2d2c:	ff 92       	push	r15
    2d2e:	0f 93       	push	r16
    2d30:	1f 93       	push	r17
    2d32:	cf 93       	push	r28
    2d34:	df 93       	push	r29
    2d36:	cd b7       	in	r28, 0x3d	; 61
    2d38:	de b7       	in	r29, 0x3e	; 62
    2d3a:	28 97       	sbiw	r28, 0x08	; 8
    2d3c:	cd bf       	out	0x3d, r28	; 61
    2d3e:	de bf       	out	0x3e, r29	; 62
    2d40:	3c 01       	movw	r6, r24
    static object_model_t actObj1, actObj2;
    uint8_t elements = 1;

    CleanInput(&data[0]);
    2d42:	91 dc       	rcall	.-1758   	; 0x2666 <CleanInput>
    uint8_t inputLen = CleanInput(&data[0]);
    2d44:	c3 01       	movw	r24, r6
    2d46:	8f dc       	rcall	.-1762   	; 0x2666 <CleanInput>
    2d48:	f8 2e       	mov	r15, r24
    return 0;
}

//
void SetResponse(uint8_t number, uint16_t address, uint16_t length, uint8_t type){
    reactStr[0][number]=address;
    2d4a:	29 e5       	ldi	r18, 0x59	; 89
    2d4c:	3a e7       	ldi	r19, 0x7A	; 122
    2d4e:	20 93 1d 39 	sts	0x391D, r18	; 0x80391d <reactStr>
    2d52:	30 93 1e 39 	sts	0x391E, r19	; 0x80391e <reactStr+0x1>
    reactStr[1][number]=length;
    2d56:	84 e0       	ldi	r24, 0x04	; 4
    2d58:	90 e0       	ldi	r25, 0x00	; 0
    2d5a:	80 93 5d 39 	sts	0x395D, r24	; 0x80395d <reactStr+0x40>
    2d5e:	90 93 5e 39 	sts	0x395E, r25	; 0x80395e <reactStr+0x41>
    reactStr[2][number]=type;
    2d62:	01 e0       	ldi	r16, 0x01	; 1
    2d64:	10 e0       	ldi	r17, 0x00	; 0
    2d66:	00 93 9d 39 	sts	0x399D, r16	; 0x80399d <reactStr+0x80>
    2d6a:	10 93 9e 39 	sts	0x399E, r17	; 0x80399e <reactStr+0x81>

    CleanInput(&data[0]);
    uint8_t inputLen = CleanInput(&data[0]);
    SetResponse(0, A_LF, 4, TEASER);

    if (inputLen) {
    2d6e:	ff 20       	and	r15, r15
    2d70:	09 f4       	brne	.+2      	; 0x2d74 <ProcessInput+0x5a>
    2d72:	54 c7       	rjmp	.+3752   	; 0x3c1c <ProcessInput+0xf02>

        //eXit to previous location
        if (data[0] == 'x'){
    2d74:	d3 01       	movw	r26, r6
    2d76:	8c 91       	ld	r24, X
    2d78:	88 37       	cpi	r24, 0x78	; 120
    2d7a:	09 f0       	breq	.+2      	; 0x2d7e <ProcessInput+0x64>
    2d7c:	45 c0       	rjmp	.+138    	; 0x2e08 <ProcessInput+0xee>

            //Standing in the Lobby?
            if ((route[currDepth] == 0)||(currDepth == 0)){
    2d7e:	80 91 31 38 	lds	r24, 0x3831	; 0x803831 <currDepth>
    2d82:	e8 2f       	mov	r30, r24
    2d84:	f0 e0       	ldi	r31, 0x00	; 0
    2d86:	ee 0f       	add	r30, r30
    2d88:	ff 1f       	adc	r31, r31
    2d8a:	e3 52       	subi	r30, 0x23	; 35
    2d8c:	f6 4c       	sbci	r31, 0xC6	; 198
    2d8e:	20 81       	ld	r18, Z
    2d90:	31 81       	ldd	r19, Z+1	; 0x01
    2d92:	23 2b       	or	r18, r19
    2d94:	11 f0       	breq	.+4      	; 0x2d9a <ProcessInput+0x80>
    2d96:	81 11       	cpse	r24, r1
    2d98:	03 c0       	rjmp	.+6      	; 0x2da0 <ProcessInput+0x86>
    return 0;
}

//
void SetResponse(uint8_t number, uint16_t address, uint16_t length, uint8_t type){
    reactStr[0][number]=address;
    2d9a:	84 e4       	ldi	r24, 0x44	; 68
    2d9c:	96 e7       	ldi	r25, 0x76	; 118
    2d9e:	13 c5       	rjmp	.+2598   	; 0x37c6 <ProcessInput+0xaac>
            //Standing in the Lobby?
            if ((route[currDepth] == 0)||(currDepth == 0)){
                SetResponse(elements++, A_NOTPOSSIBLE, L_NOTPOSSIBLE, TEASER);
            
            //Is there a way to go back?
            } else if (CheckState(currObj.byteField[OPEN_ACL])){
    2da0:	80 91 23 3a 	lds	r24, 0x3A23	; 0x803a23 <currObj+0x6>
    2da4:	0e 94 1e 0a 	call	0x143c	; 0x143c <CheckState>
    2da8:	88 23       	and	r24, r24
    2daa:	b9 f0       	breq	.+46     	; 0x2dda <ProcessInput+0xc0>
                --currDepth;
    2dac:	e0 91 31 38 	lds	r30, 0x3831	; 0x803831 <currDepth>
    2db0:	e1 50       	subi	r30, 0x01	; 1
    2db2:	e0 93 31 38 	sts	0x3831, r30	; 0x803831 <currDepth>
                PopulateObject(route[currDepth], &currObj);
    2db6:	f0 e0       	ldi	r31, 0x00	; 0
    2db8:	ee 0f       	add	r30, r30
    2dba:	ff 1f       	adc	r31, r31
    2dbc:	e3 52       	subi	r30, 0x23	; 35
    2dbe:	f6 4c       	sbci	r31, 0xC6	; 198
    2dc0:	6d e1       	ldi	r22, 0x1D	; 29
    2dc2:	7a e3       	ldi	r23, 0x3A	; 58
    2dc4:	80 81       	ld	r24, Z
    2dc6:	91 81       	ldd	r25, Z+1	; 0x01
    2dc8:	13 db       	rcall	.-2522   	; 0x23f0 <PopulateObject>
                effect = currObj.byteField[EFFECTS];
    2dca:	80 91 21 3a 	lds	r24, 0x3A21	; 0x803a21 <currObj+0x4>
    2dce:	90 e0       	ldi	r25, 0x00	; 0
    2dd0:	80 93 3c 38 	sts	0x383C, r24	; 0x80383c <effect>
    2dd4:	90 93 3d 38 	sts	0x383D, r25	; 0x80383d <effect+0x1>
    2dd8:	2a c2       	rjmp	.+1108   	; 0x322e <ProcessInput+0x514>
            
            //No way out, print denied message of location
            } else {
                SetResponse(elements++, currObj.addrStr[OPEN_ACL_MSG], currObj.lenStr[OPEN_ACL_MSG], GAME);
    2dda:	80 91 3f 3a 	lds	r24, 0x3A3F	; 0x803a3f <currObj+0x22>
    2dde:	90 91 40 3a 	lds	r25, 0x3A40	; 0x803a40 <currObj+0x23>
    return 0;
}

//
void SetResponse(uint8_t number, uint16_t address, uint16_t length, uint8_t type){
    reactStr[0][number]=address;
    2de2:	20 91 31 3a 	lds	r18, 0x3A31	; 0x803a31 <currObj+0x14>
    2de6:	30 91 32 3a 	lds	r19, 0x3A32	; 0x803a32 <currObj+0x15>
    2dea:	20 93 1f 39 	sts	0x391F, r18	; 0x80391f <reactStr+0x2>
    2dee:	30 93 20 39 	sts	0x3920, r19	; 0x803920 <reactStr+0x3>
    reactStr[1][number]=length;
    2df2:	80 93 5f 39 	sts	0x395F, r24	; 0x80395f <reactStr+0x42>
    2df6:	90 93 60 39 	sts	0x3960, r25	; 0x803960 <reactStr+0x43>
    reactStr[2][number]=type;
    2dfa:	10 92 9f 39 	sts	0x399F, r1	; 0x80399f <reactStr+0x82>
    2dfe:	10 92 a0 39 	sts	0x39A0, r1	; 0x8039a0 <reactStr+0x83>
                effect = currObj.byteField[EFFECTS];
            
            //No way out, print denied message of location
            } else {
                SetResponse(elements++, currObj.addrStr[OPEN_ACL_MSG], currObj.lenStr[OPEN_ACL_MSG], GAME);
                effect = currObj.effect[0];               
    2e02:	80 91 45 3a 	lds	r24, 0x3A45	; 0x803a45 <currObj+0x28>
    2e06:	a9 c5       	rjmp	.+2898   	; 0x395a <ProcessInput+0xc40>
            }   
        
        //Enter locations or Open objects    
        } else if ((data[0] == 'e')||(data[0] == 'o')) {
    2e08:	85 36       	cpi	r24, 0x65	; 101
    2e0a:	19 f0       	breq	.+6      	; 0x2e12 <ProcessInput+0xf8>
    2e0c:	8f 36       	cpi	r24, 0x6F	; 111
    2e0e:	09 f0       	breq	.+2      	; 0x2e12 <ProcessInput+0xf8>
    2e10:	de c0       	rjmp	.+444    	; 0x2fce <ProcessInput+0x2b4>
                
            //Not possible, too many/little characters
            if (inputLen != 2){
    2e12:	b2 e0       	ldi	r27, 0x02	; 2
    2e14:	fb 12       	cpse	r15, r27
    2e16:	c1 cf       	rjmp	.-126    	; 0x2d9a <ProcessInput+0x80>
                SetResponse(elements++, A_NOTPOSSIBLE, L_NOTPOSSIBLE, TEASER);
            } else {
                uint8_t canDo = 0;
                route[currDepth+1] = FindChild(route[currDepth], data[1], 0);
    2e18:	00 91 31 38 	lds	r16, 0x3831	; 0x803831 <currDepth>
    2e1c:	10 e0       	ldi	r17, 0x00	; 0
    2e1e:	f8 01       	movw	r30, r16
    2e20:	ee 0f       	add	r30, r30
    2e22:	ff 1f       	adc	r31, r31
    2e24:	e3 52       	subi	r30, 0x23	; 35
    2e26:	f6 4c       	sbci	r31, 0xC6	; 198
    2e28:	40 e0       	ldi	r20, 0x00	; 0
    2e2a:	50 e0       	ldi	r21, 0x00	; 0
    2e2c:	d3 01       	movw	r26, r6
    2e2e:	11 96       	adiw	r26, 0x01	; 1
    2e30:	6c 91       	ld	r22, X
    2e32:	80 81       	ld	r24, Z
    2e34:	91 81       	ldd	r25, Z+1	; 0x01
    2e36:	ab db       	rcall	.-2218   	; 0x258e <FindChild>
    2e38:	00 0f       	add	r16, r16
    2e3a:	11 1f       	adc	r17, r17
    2e3c:	f8 01       	movw	r30, r16
    2e3e:	e1 52       	subi	r30, 0x21	; 33
    2e40:	f6 4c       	sbci	r31, 0xC6	; 198
    2e42:	80 83       	st	Z, r24
    2e44:	91 83       	std	Z+1, r25	; 0x01
                    
                //Child found?
                if (route[currDepth+1]) {
    2e46:	90 91 31 38 	lds	r25, 0x3831	; 0x803831 <currDepth>
    2e4a:	29 2f       	mov	r18, r25
    2e4c:	30 e0       	ldi	r19, 0x00	; 0
    2e4e:	f9 01       	movw	r30, r18
    2e50:	ee 0f       	add	r30, r30
    2e52:	ff 1f       	adc	r31, r31
    2e54:	e1 52       	subi	r30, 0x21	; 33
    2e56:	f6 4c       	sbci	r31, 0xC6	; 198
    2e58:	40 81       	ld	r20, Z
    2e5a:	51 81       	ldd	r21, Z+1	; 0x01
    2e5c:	41 15       	cp	r20, r1
    2e5e:	51 05       	cpc	r21, r1
    2e60:	21 f0       	breq	.+8      	; 0x2e6a <ProcessInput+0x150>
                    PopulateObject(route[currDepth+1], &actObj1);
    2e62:	6c ed       	ldi	r22, 0xDC	; 220
    2e64:	78 e3       	ldi	r23, 0x38	; 56
    2e66:	ca 01       	movw	r24, r20
    2e68:	1c c0       	rjmp	.+56     	; 0x2ea2 <ProcessInput+0x188>
                    canDo = 1;
                //No child, maybe a step back, letter ok?
                } else if (currDepth) {
    2e6a:	99 23       	and	r25, r25
    2e6c:	09 f4       	brne	.+2      	; 0x2e70 <ProcessInput+0x156>
    2e6e:	dc c6       	rjmp	.+3512   	; 0x3c28 <ProcessInput+0xf0e>
                    if (CheckLetter(route[currDepth-1], data[1])) {
    2e70:	22 0f       	add	r18, r18
    2e72:	33 1f       	adc	r19, r19
    2e74:	f9 01       	movw	r30, r18
    2e76:	e5 52       	subi	r30, 0x25	; 37
    2e78:	f6 4c       	sbci	r31, 0xC6	; 198
    2e7a:	d3 01       	movw	r26, r6
    2e7c:	11 96       	adiw	r26, 0x01	; 1
    2e7e:	6c 91       	ld	r22, X
    2e80:	80 81       	ld	r24, Z
    2e82:	91 81       	ldd	r25, Z+1	; 0x01
    2e84:	2e db       	rcall	.-2468   	; 0x24e2 <CheckLetter>
    2e86:	88 23       	and	r24, r24
    2e88:	09 f4       	brne	.+2      	; 0x2e8c <ProcessInput+0x172>
    2e8a:	ce c6       	rjmp	.+3484   	; 0x3c28 <ProcessInput+0xf0e>
                        PopulateObject(route[currDepth-1], &actObj1);
    2e8c:	e0 91 31 38 	lds	r30, 0x3831	; 0x803831 <currDepth>
    2e90:	f0 e0       	ldi	r31, 0x00	; 0
    2e92:	ee 0f       	add	r30, r30
    2e94:	ff 1f       	adc	r31, r31
    2e96:	e5 52       	subi	r30, 0x25	; 37
    2e98:	f6 4c       	sbci	r31, 0xC6	; 198
    2e9a:	6c ed       	ldi	r22, 0xDC	; 220
    2e9c:	78 e3       	ldi	r23, 0x38	; 56
    2e9e:	80 81       	ld	r24, Z
    2ea0:	91 81       	ldd	r25, Z+1	; 0x01
    2ea2:	a6 da       	rcall	.-2740   	; 0x23f0 <PopulateObject>
                    }
                }

                //The candidate is found! Let's check if the action is legit
                if (canDo) {
                    if ((data[0] == 'e') && ((actObj1.byteField[ACTION_MASK]&ENTER)==0)) {
    2ea4:	d3 01       	movw	r26, r6
    2ea6:	8c 91       	ld	r24, X
    2ea8:	85 36       	cpi	r24, 0x65	; 101
    2eaa:	c1 f4       	brne	.+48     	; 0x2edc <ProcessInput+0x1c2>
    2eac:	80 91 e4 38 	lds	r24, 0x38E4	; 0x8038e4 <actObj1.3989+0x8>
    2eb0:	80 fd       	sbrc	r24, 0
    2eb2:	1d c0       	rjmp	.+58     	; 0x2eee <ProcessInput+0x1d4>
    return 0;
}

//
void SetResponse(uint8_t number, uint16_t address, uint16_t length, uint8_t type){
    reactStr[0][number]=address;
    2eb4:	8d e9       	ldi	r24, 0x9D	; 157
    2eb6:	99 e7       	ldi	r25, 0x79	; 121
    2eb8:	80 93 1f 39 	sts	0x391F, r24	; 0x80391f <reactStr+0x2>
    2ebc:	90 93 20 39 	sts	0x3920, r25	; 0x803920 <reactStr+0x3>
    reactStr[1][number]=length;
    2ec0:	8e e1       	ldi	r24, 0x1E	; 30
    2ec2:	90 e0       	ldi	r25, 0x00	; 0
    2ec4:	80 93 5f 39 	sts	0x395F, r24	; 0x80395f <reactStr+0x42>
    2ec8:	90 93 60 39 	sts	0x3960, r25	; 0x803960 <reactStr+0x43>
    reactStr[2][number]=type;
    2ecc:	81 e0       	ldi	r24, 0x01	; 1
    2ece:	90 e0       	ldi	r25, 0x00	; 0
    2ed0:	80 93 9f 39 	sts	0x399F, r24	; 0x80399f <reactStr+0x82>
    2ed4:	90 93 a0 39 	sts	0x39A0, r25	; 0x8039a0 <reactStr+0x83>
                }

                //The candidate is found! Let's check if the action is legit
                if (canDo) {
                    if ((data[0] == 'e') && ((actObj1.byteField[ACTION_MASK]&ENTER)==0)) {
                        SetResponse(elements++, A_CANTENTER, L_CANTENTER, TEASER);
    2ed8:	12 e0       	ldi	r17, 0x02	; 2
    2eda:	97 c6       	rjmp	.+3374   	; 0x3c0a <ProcessInput+0xef0>
                    } else if ((data[0] == 'o') && ((actObj1.byteField[ACTION_MASK]&OPEN)==0)) {
    2edc:	8f 36       	cpi	r24, 0x6F	; 111
    2ede:	39 f4       	brne	.+14     	; 0x2eee <ProcessInput+0x1d4>
    2ee0:	80 91 e4 38 	lds	r24, 0x38E4	; 0x8038e4 <actObj1.3989+0x8>
    2ee4:	81 fd       	sbrc	r24, 1
    2ee6:	03 c0       	rjmp	.+6      	; 0x2eee <ProcessInput+0x1d4>
    return 0;
}

//
void SetResponse(uint8_t number, uint16_t address, uint16_t length, uint8_t type){
    reactStr[0][number]=address;
    2ee8:	82 e8       	ldi	r24, 0x82	; 130
    2eea:	99 e7       	ldi	r25, 0x79	; 121
    2eec:	6c c4       	rjmp	.+2264   	; 0x37c6 <ProcessInput+0xaac>
                        SetResponse(elements++, A_CANTENTER, L_CANTENTER, TEASER);
                    } else if ((data[0] == 'o') && ((actObj1.byteField[ACTION_MASK]&OPEN)==0)) {
                        SetResponse(elements++, A_CANTOPEN, L_CANTOPEN, TEASER);
                    
                    //Action legit, permission granted?
                    } else if (CheckState(actObj1.byteField[OPEN_ACL])) {
    2eee:	80 91 e2 38 	lds	r24, 0x38E2	; 0x8038e2 <actObj1.3989+0x6>
    2ef2:	0e 94 1e 0a 	call	0x143c	; 0x143c <CheckState>
    2ef6:	e0 91 31 38 	lds	r30, 0x3831	; 0x803831 <currDepth>
    2efa:	88 23       	and	r24, r24
    2efc:	09 f4       	brne	.+2      	; 0x2f00 <ProcessInput+0x1e6>
    2efe:	49 c0       	rjmp	.+146    	; 0x2f92 <ProcessInput+0x278>
                            
                        //Yes! Check if we must move forward or backwards.
                        if (route[currDepth+1]) ++currDepth; else --currDepth;
    2f00:	ae 2f       	mov	r26, r30
    2f02:	b0 e0       	ldi	r27, 0x00	; 0
    2f04:	aa 0f       	add	r26, r26
    2f06:	bb 1f       	adc	r27, r27
    2f08:	a1 52       	subi	r26, 0x21	; 33
    2f0a:	b6 4c       	sbci	r27, 0xC6	; 198
    2f0c:	8d 91       	ld	r24, X+
    2f0e:	9c 91       	ld	r25, X
    2f10:	89 2b       	or	r24, r25
    2f12:	11 f0       	breq	.+4      	; 0x2f18 <ProcessInput+0x1fe>
    2f14:	ef 5f       	subi	r30, 0xFF	; 255
    2f16:	01 c0       	rjmp	.+2      	; 0x2f1a <ProcessInput+0x200>
    2f18:	e1 50       	subi	r30, 0x01	; 1
    2f1a:	e0 93 31 38 	sts	0x3831, r30	; 0x803831 <currDepth>
                        PopulateObject(route[currDepth], &currObj);
    2f1e:	e0 91 31 38 	lds	r30, 0x3831	; 0x803831 <currDepth>
    2f22:	f0 e0       	ldi	r31, 0x00	; 0
    2f24:	ee 0f       	add	r30, r30
    2f26:	ff 1f       	adc	r31, r31
    2f28:	e3 52       	subi	r30, 0x23	; 35
    2f2a:	f6 4c       	sbci	r31, 0xC6	; 198
    2f2c:	6d e1       	ldi	r22, 0x1D	; 29
    2f2e:	7a e3       	ldi	r23, 0x3A	; 58
    2f30:	80 81       	ld	r24, Z
    2f32:	91 81       	ldd	r25, Z+1	; 0x01
    2f34:	5d da       	rcall	.-2886   	; 0x23f0 <PopulateObject>
                        SetResponse(elements++, currObj.addrStr[DESC], currObj.lenStr[DESC],GAME);
    2f36:	80 91 39 3a 	lds	r24, 0x3A39	; 0x803a39 <currObj+0x1c>
    2f3a:	90 91 3a 3a 	lds	r25, 0x3A3A	; 0x803a3a <currObj+0x1d>
    return 0;
}

//
void SetResponse(uint8_t number, uint16_t address, uint16_t length, uint8_t type){
    reactStr[0][number]=address;
    2f3e:	20 91 2b 3a 	lds	r18, 0x3A2B	; 0x803a2b <currObj+0xe>
    2f42:	30 91 2c 3a 	lds	r19, 0x3A2C	; 0x803a2c <currObj+0xf>
    2f46:	20 93 1f 39 	sts	0x391F, r18	; 0x80391f <reactStr+0x2>
    2f4a:	30 93 20 39 	sts	0x3920, r19	; 0x803920 <reactStr+0x3>
    reactStr[1][number]=length;
    2f4e:	80 93 5f 39 	sts	0x395F, r24	; 0x80395f <reactStr+0x42>
    2f52:	90 93 60 39 	sts	0x3960, r25	; 0x803960 <reactStr+0x43>
    reactStr[2][number]=type;
    2f56:	10 92 9f 39 	sts	0x399F, r1	; 0x80399f <reactStr+0x82>
    2f5a:	10 92 a0 39 	sts	0x39A0, r1	; 0x8039a0 <reactStr+0x83>
    return 0;
}

//
void SetResponse(uint8_t number, uint16_t address, uint16_t length, uint8_t type){
    reactStr[0][number]=address;
    2f5e:	89 e5       	ldi	r24, 0x59	; 89
    2f60:	9a e7       	ldi	r25, 0x7A	; 122
    2f62:	80 93 21 39 	sts	0x3921, r24	; 0x803921 <reactStr+0x4>
    2f66:	90 93 22 39 	sts	0x3922, r25	; 0x803922 <reactStr+0x5>
    reactStr[1][number]=length;
    2f6a:	82 e0       	ldi	r24, 0x02	; 2
    2f6c:	90 e0       	ldi	r25, 0x00	; 0
    2f6e:	80 93 61 39 	sts	0x3961, r24	; 0x803961 <reactStr+0x44>
    2f72:	90 93 62 39 	sts	0x3962, r25	; 0x803962 <reactStr+0x45>
    reactStr[2][number]=type;
    2f76:	81 e0       	ldi	r24, 0x01	; 1
    2f78:	90 e0       	ldi	r25, 0x00	; 0
    2f7a:	80 93 a1 39 	sts	0x39A1, r24	; 0x8039a1 <reactStr+0x84>
    2f7e:	90 93 a2 39 	sts	0x39A2, r25	; 0x8039a2 <reactStr+0x85>
                        //Yes! Check if we must move forward or backwards.
                        if (route[currDepth+1]) ++currDepth; else --currDepth;
                        PopulateObject(route[currDepth], &currObj);
                        SetResponse(elements++, currObj.addrStr[DESC], currObj.lenStr[DESC],GAME);
                        SetResponse(elements++, A_LF, 2, TEASER);
                        effect = currObj.byteField[EFFECTS];
    2f82:	80 91 21 3a 	lds	r24, 0x3A21	; 0x803a21 <currObj+0x4>
    2f86:	90 e0       	ldi	r25, 0x00	; 0
    2f88:	80 93 3c 38 	sts	0x383C, r24	; 0x80383c <effect>
    2f8c:	90 93 3d 38 	sts	0x383D, r25	; 0x80383d <effect+0x1>
    2f90:	07 c4       	rjmp	.+2062   	; 0x37a0 <ProcessInput+0xa86>
                                                  
                    //Not granted!
                    } else {
                        route[currDepth+1] = 0;
    2f92:	f0 e0       	ldi	r31, 0x00	; 0
    2f94:	ee 0f       	add	r30, r30
    2f96:	ff 1f       	adc	r31, r31
    2f98:	e1 52       	subi	r30, 0x21	; 33
    2f9a:	f6 4c       	sbci	r31, 0xC6	; 198
    2f9c:	10 82       	st	Z, r1
    2f9e:	11 82       	std	Z+1, r1	; 0x01
                        SetResponse(elements++, actObj1.addrStr[OPEN_ACL_MSG], actObj1.lenStr[OPEN_ACL_MSG], GAME);
    2fa0:	80 91 fe 38 	lds	r24, 0x38FE	; 0x8038fe <actObj1.3989+0x22>
    2fa4:	90 91 ff 38 	lds	r25, 0x38FF	; 0x8038ff <actObj1.3989+0x23>
    return 0;
}

//
void SetResponse(uint8_t number, uint16_t address, uint16_t length, uint8_t type){
    reactStr[0][number]=address;
    2fa8:	20 91 f0 38 	lds	r18, 0x38F0	; 0x8038f0 <actObj1.3989+0x14>
    2fac:	30 91 f1 38 	lds	r19, 0x38F1	; 0x8038f1 <actObj1.3989+0x15>
    2fb0:	20 93 1f 39 	sts	0x391F, r18	; 0x80391f <reactStr+0x2>
    2fb4:	30 93 20 39 	sts	0x3920, r19	; 0x803920 <reactStr+0x3>
    reactStr[1][number]=length;
    2fb8:	80 93 5f 39 	sts	0x395F, r24	; 0x80395f <reactStr+0x42>
    2fbc:	90 93 60 39 	sts	0x3960, r25	; 0x803960 <reactStr+0x43>
    reactStr[2][number]=type;
    2fc0:	10 92 9f 39 	sts	0x399F, r1	; 0x80399f <reactStr+0x82>
    2fc4:	10 92 a0 39 	sts	0x39A0, r1	; 0x8039a0 <reactStr+0x83>
                                                  
                    //Not granted!
                    } else {
                        route[currDepth+1] = 0;
                        SetResponse(elements++, actObj1.addrStr[OPEN_ACL_MSG], actObj1.lenStr[OPEN_ACL_MSG], GAME);
                        effect = actObj1.effect[0];              
    2fc8:	80 91 04 39 	lds	r24, 0x3904	; 0x803904 <actObj1.3989+0x28>
    2fcc:	c6 c4       	rjmp	.+2444   	; 0x395a <ProcessInput+0xc40>
                    SetResponse(elements++, A_DONTSEE, L_DONTSEE, TEASER);                
                }
            }

        //Look around or at objects
        } else if (data[0] == 'l') {
    2fce:	8c 36       	cpi	r24, 0x6C	; 108
    2fd0:	09 f0       	breq	.+2      	; 0x2fd4 <ProcessInput+0x2ba>
    2fd2:	59 c1       	rjmp	.+690    	; 0x3286 <ProcessInput+0x56c>
    2fd4:	e0 91 31 38 	lds	r30, 0x3831	; 0x803831 <currDepth>
            if (inputLen == 1) {
    2fd8:	b1 e0       	ldi	r27, 0x01	; 1
    2fda:	fb 12       	cpse	r15, r27
    2fdc:	f1 c0       	rjmp	.+482    	; 0x31c0 <ProcessInput+0x4a6>

                //Show info about this area first
                SetResponse(elements++, currObj.addrStr[DESC], currObj.lenStr[DESC],GAME);
    2fde:	80 91 39 3a 	lds	r24, 0x3A39	; 0x803a39 <currObj+0x1c>
    2fe2:	90 91 3a 3a 	lds	r25, 0x3A3A	; 0x803a3a <currObj+0x1d>
    return 0;
}

//
void SetResponse(uint8_t number, uint16_t address, uint16_t length, uint8_t type){
    reactStr[0][number]=address;
    2fe6:	40 91 2b 3a 	lds	r20, 0x3A2B	; 0x803a2b <currObj+0xe>
    2fea:	50 91 2c 3a 	lds	r21, 0x3A2C	; 0x803a2c <currObj+0xf>
    2fee:	40 93 1f 39 	sts	0x391F, r20	; 0x80391f <reactStr+0x2>
    2ff2:	50 93 20 39 	sts	0x3920, r21	; 0x803920 <reactStr+0x3>
    reactStr[1][number]=length;
    2ff6:	80 93 5f 39 	sts	0x395F, r24	; 0x80395f <reactStr+0x42>
    2ffa:	90 93 60 39 	sts	0x3960, r25	; 0x803960 <reactStr+0x43>
    reactStr[2][number]=type;
    2ffe:	10 92 9f 39 	sts	0x399F, r1	; 0x80399f <reactStr+0x82>
    3002:	10 92 a0 39 	sts	0x39A0, r1	; 0x8039a0 <reactStr+0x83>
    return 0;
}

//
void SetResponse(uint8_t number, uint16_t address, uint16_t length, uint8_t type){
    reactStr[0][number]=address;
    3006:	20 93 21 39 	sts	0x3921, r18	; 0x803921 <reactStr+0x4>
    300a:	30 93 22 39 	sts	0x3922, r19	; 0x803922 <reactStr+0x5>
    reactStr[1][number]=length;
    300e:	82 e0       	ldi	r24, 0x02	; 2
    3010:	90 e0       	ldi	r25, 0x00	; 0
    3012:	80 93 61 39 	sts	0x3961, r24	; 0x803961 <reactStr+0x44>
    3016:	90 93 62 39 	sts	0x3962, r25	; 0x803962 <reactStr+0x45>
    reactStr[2][number]=type;
    301a:	00 93 a1 39 	sts	0x39A1, r16	; 0x8039a1 <reactStr+0x84>
    301e:	10 93 a2 39 	sts	0x39A2, r17	; 0x8039a2 <reactStr+0x85>
    return 0;
}

//
void SetResponse(uint8_t number, uint16_t address, uint16_t length, uint8_t type){
    reactStr[0][number]=address;
    3022:	8b ee       	ldi	r24, 0xEB	; 235
    3024:	99 e7       	ldi	r25, 0x79	; 121
    3026:	80 93 23 39 	sts	0x3923, r24	; 0x803923 <reactStr+0x6>
    302a:	90 93 24 39 	sts	0x3924, r25	; 0x803924 <reactStr+0x7>
    reactStr[1][number]=length;
    302e:	85 e1       	ldi	r24, 0x15	; 21
    3030:	90 e0       	ldi	r25, 0x00	; 0
    3032:	80 93 63 39 	sts	0x3963, r24	; 0x803963 <reactStr+0x46>
    3036:	90 93 64 39 	sts	0x3964, r25	; 0x803964 <reactStr+0x47>
    reactStr[2][number]=type;
    303a:	00 93 a3 39 	sts	0x39A3, r16	; 0x8039a3 <reactStr+0x86>
    303e:	10 93 a4 39 	sts	0x39A4, r17	; 0x8039a4 <reactStr+0x87>
                SetResponse(elements++, currObj.addrStr[DESC], currObj.lenStr[DESC],GAME);
                SetResponse(elements++, A_LF, 2, TEASER);
                SetResponse(elements++, A_LOOK, L_LOOK, TEASER);

                //Check the visible children first
                route[currDepth+1] = 0;
    3042:	f0 e0       	ldi	r31, 0x00	; 0
    3044:	ee 0f       	add	r30, r30
    3046:	ff 1f       	adc	r31, r31
    3048:	e1 52       	subi	r30, 0x21	; 33
    304a:	f6 4c       	sbci	r31, 0xC6	; 198
    304c:	10 82       	st	Z, r1
    304e:	11 82       	std	Z+1, r1	; 0x01
            if (inputLen == 1) {

                //Show info about this area first
                SetResponse(elements++, currObj.addrStr[DESC], currObj.lenStr[DESC],GAME);
                SetResponse(elements++, A_LF, 2, TEASER);
                SetResponse(elements++, A_LOOK, L_LOOK, TEASER);
    3050:	b4 e0       	ldi	r27, 0x04	; 4
    3052:	9b 2e       	mov	r9, r27
    return 0;
}

//
void SetResponse(uint8_t number, uint16_t address, uint16_t length, uint8_t type){
    reactStr[0][number]=address;
    3054:	17 e5       	ldi	r17, 0x57	; 87
    3056:	e1 2e       	mov	r14, r17
    3058:	1a e7       	ldi	r17, 0x7A	; 122
    305a:	f1 2e       	mov	r15, r17
    reactStr[1][number]=length;
    305c:	02 e0       	ldi	r16, 0x02	; 2
    305e:	c0 2e       	mov	r12, r16
    3060:	d1 2c       	mov	r13, r1
    reactStr[2][number]=type;
    3062:	aa 24       	eor	r10, r10
    3064:	a3 94       	inc	r10
    3066:	b1 2c       	mov	r11, r1
                SetResponse(elements++, A_LOOK, L_LOOK, TEASER);

                //Check the visible children first
                route[currDepth+1] = 0;
                do{
                    route[currDepth+1] = FindChild(route[currDepth], 0, route[currDepth+1]);
    3068:	80 91 31 38 	lds	r24, 0x3831	; 0x803831 <currDepth>
    306c:	90 e0       	ldi	r25, 0x00	; 0
    306e:	8c 01       	movw	r16, r24
    3070:	00 0f       	add	r16, r16
    3072:	11 1f       	adc	r17, r17
    3074:	01 52       	subi	r16, 0x21	; 33
    3076:	16 4c       	sbci	r17, 0xC6	; 198
    3078:	f8 01       	movw	r30, r16
    307a:	40 81       	ld	r20, Z
    307c:	51 81       	ldd	r21, Z+1	; 0x01
    307e:	88 0f       	add	r24, r24
    3080:	99 1f       	adc	r25, r25
    3082:	fc 01       	movw	r30, r24
    3084:	e3 52       	subi	r30, 0x23	; 35
    3086:	f6 4c       	sbci	r31, 0xC6	; 198
    3088:	60 e0       	ldi	r22, 0x00	; 0
    308a:	80 81       	ld	r24, Z
    308c:	91 81       	ldd	r25, Z+1	; 0x01
    308e:	7f da       	rcall	.-2818   	; 0x258e <FindChild>
    3090:	d8 01       	movw	r26, r16
    3092:	8d 93       	st	X+, r24
    3094:	9c 93       	st	X, r25
                    if (route[currDepth+1]) {
    3096:	e0 91 31 38 	lds	r30, 0x3831	; 0x803831 <currDepth>
    309a:	f0 e0       	ldi	r31, 0x00	; 0
    309c:	ee 0f       	add	r30, r30
    309e:	ff 1f       	adc	r31, r31
    30a0:	e1 52       	subi	r30, 0x21	; 33
    30a2:	f6 4c       	sbci	r31, 0xC6	; 198
    30a4:	80 81       	ld	r24, Z
    30a6:	91 81       	ldd	r25, Z+1	; 0x01
    30a8:	00 97       	sbiw	r24, 0x00	; 0
    30aa:	09 f4       	brne	.+2      	; 0x30ae <ProcessInput+0x394>
    30ac:	4a c0       	rjmp	.+148    	; 0x3142 <ProcessInput+0x428>
                        if ((route[currDepth+1] != inventory[0])&&(route[currDepth+1] != inventory[1])) {
    30ae:	20 91 40 38 	lds	r18, 0x3840	; 0x803840 <inventory>
    30b2:	30 91 41 38 	lds	r19, 0x3841	; 0x803841 <inventory+0x1>
    30b6:	82 17       	cp	r24, r18
    30b8:	93 07       	cpc	r25, r19
    30ba:	09 f4       	brne	.+2      	; 0x30be <ProcessInput+0x3a4>
    30bc:	42 c0       	rjmp	.+132    	; 0x3142 <ProcessInput+0x428>
    30be:	20 91 42 38 	lds	r18, 0x3842	; 0x803842 <inventory+0x2>
    30c2:	30 91 43 38 	lds	r19, 0x3843	; 0x803843 <inventory+0x3>
    30c6:	82 17       	cp	r24, r18
    30c8:	93 07       	cpc	r25, r19
                            PopulateObject(route[currDepth+1], &actObj1);
    30ca:	d9 f1       	breq	.+118    	; 0x3142 <ProcessInput+0x428>
    30cc:	6c ed       	ldi	r22, 0xDC	; 220
    30ce:	78 e3       	ldi	r23, 0x38	; 56
    30d0:	8f d9       	rcall	.-3298   	; 0x23f0 <PopulateObject>
                            SetResponse(elements++, actObj1.addrStr[NAME], actObj1.lenStr[NAME],GAME);
    30d2:	80 91 f6 38 	lds	r24, 0x38F6	; 0x8038f6 <actObj1.3989+0x1a>
    30d6:	90 91 f7 38 	lds	r25, 0x38F7	; 0x8038f7 <actObj1.3989+0x1b>
    return 0;
}

//
void SetResponse(uint8_t number, uint16_t address, uint16_t length, uint8_t type){
    reactStr[0][number]=address;
    30da:	e9 2d       	mov	r30, r9
    30dc:	f0 e0       	ldi	r31, 0x00	; 0
    30de:	df 01       	movw	r26, r30
    30e0:	aa 0f       	add	r26, r26
    30e2:	bb 1f       	adc	r27, r27
    30e4:	a3 5e       	subi	r26, 0xE3	; 227
    30e6:	b6 4c       	sbci	r27, 0xC6	; 198
    30e8:	20 91 e8 38 	lds	r18, 0x38E8	; 0x8038e8 <actObj1.3989+0xc>
    30ec:	30 91 e9 38 	lds	r19, 0x38E9	; 0x8038e9 <actObj1.3989+0xd>
    30f0:	2d 93       	st	X+, r18
    30f2:	3c 93       	st	X, r19
    reactStr[1][number]=length;
    30f4:	df 01       	movw	r26, r30
    30f6:	aa 0f       	add	r26, r26
    30f8:	bb 1f       	adc	r27, r27
    30fa:	a3 5a       	subi	r26, 0xA3	; 163
    30fc:	b6 4c       	sbci	r27, 0xC6	; 198
    30fe:	8d 93       	st	X+, r24
    3100:	9c 93       	st	X, r25
    reactStr[2][number]=type;
    3102:	ee 0f       	add	r30, r30
    3104:	ff 1f       	adc	r31, r31
    3106:	e3 56       	subi	r30, 0x63	; 99
    3108:	f6 4c       	sbci	r31, 0xC6	; 198
    310a:	10 82       	st	Z, r1
    310c:	11 82       	std	Z+1, r1	; 0x01
    return 0;
}

//
void SetResponse(uint8_t number, uint16_t address, uint16_t length, uint8_t type){
    reactStr[0][number]=address;
    310e:	81 e0       	ldi	r24, 0x01	; 1
    3110:	89 0d       	add	r24, r9
    3112:	90 e0       	ldi	r25, 0x00	; 0
    3114:	93 94       	inc	r9
    3116:	93 94       	inc	r9
    3118:	fc 01       	movw	r30, r24
    311a:	ee 0f       	add	r30, r30
    311c:	ff 1f       	adc	r31, r31
    311e:	e3 5e       	subi	r30, 0xE3	; 227
    3120:	f6 4c       	sbci	r31, 0xC6	; 198
    3122:	e0 82       	st	Z, r14
    3124:	f1 82       	std	Z+1, r15	; 0x01
    reactStr[1][number]=length;
    3126:	fc 01       	movw	r30, r24
    3128:	ee 0f       	add	r30, r30
    312a:	ff 1f       	adc	r31, r31
    312c:	e3 5a       	subi	r30, 0xA3	; 163
    312e:	f6 4c       	sbci	r31, 0xC6	; 198
    3130:	c0 82       	st	Z, r12
    3132:	d1 82       	std	Z+1, r13	; 0x01
    reactStr[2][number]=type;
    3134:	88 0f       	add	r24, r24
    3136:	99 1f       	adc	r25, r25
    3138:	fc 01       	movw	r30, r24
    313a:	e3 56       	subi	r30, 0x63	; 99
    313c:	f6 4c       	sbci	r31, 0xC6	; 198
    313e:	a0 82       	st	Z, r10
    3140:	b1 82       	std	Z+1, r11	; 0x01
                            PopulateObject(route[currDepth+1], &actObj1);
                            SetResponse(elements++, actObj1.addrStr[NAME], actObj1.lenStr[NAME],GAME);
                            SetResponse(elements++, A_COMMA, L_COMMA, TEASER);
                        }
                    }
                }while (route[currDepth+1]);
    3142:	20 91 31 38 	lds	r18, 0x3831	; 0x803831 <currDepth>
    3146:	82 2f       	mov	r24, r18
    3148:	90 e0       	ldi	r25, 0x00	; 0
    314a:	fc 01       	movw	r30, r24
    314c:	ee 0f       	add	r30, r30
    314e:	ff 1f       	adc	r31, r31
    3150:	e1 52       	subi	r30, 0x21	; 33
    3152:	f6 4c       	sbci	r31, 0xC6	; 198
    3154:	40 81       	ld	r20, Z
    3156:	51 81       	ldd	r21, Z+1	; 0x01
    3158:	45 2b       	or	r20, r21
    315a:	09 f0       	breq	.+2      	; 0x315e <ProcessInput+0x444>
    315c:	85 cf       	rjmp	.-246    	; 0x3068 <ProcessInput+0x34e>

                //Look back if not on level 0
                if (currDepth) {
    315e:	22 23       	and	r18, r18
    3160:	61 f1       	breq	.+88     	; 0x31ba <ProcessInput+0x4a0>
                    PopulateObject(route[currDepth-1], &actObj1);
    3162:	88 0f       	add	r24, r24
    3164:	99 1f       	adc	r25, r25
    3166:	fc 01       	movw	r30, r24
    3168:	e5 52       	subi	r30, 0x25	; 37
    316a:	f6 4c       	sbci	r31, 0xC6	; 198
    316c:	6c ed       	ldi	r22, 0xDC	; 220
    316e:	78 e3       	ldi	r23, 0x38	; 56
    3170:	80 81       	ld	r24, Z
    3172:	91 81       	ldd	r25, Z+1	; 0x01
    3174:	3d d9       	rcall	.-3462   	; 0x23f0 <PopulateObject>
                    SetResponse(elements++, actObj1.addrStr[NAME], actObj1.lenStr[NAME],GAME);
    3176:	20 91 f6 38 	lds	r18, 0x38F6	; 0x8038f6 <actObj1.3989+0x1a>
    317a:	30 91 f7 38 	lds	r19, 0x38F7	; 0x8038f7 <actObj1.3989+0x1b>
    317e:	11 e0       	ldi	r17, 0x01	; 1
    3180:	19 0d       	add	r17, r9
    return 0;
}

//
void SetResponse(uint8_t number, uint16_t address, uint16_t length, uint8_t type){
    reactStr[0][number]=address;
    3182:	89 2d       	mov	r24, r9
    3184:	90 e0       	ldi	r25, 0x00	; 0
    3186:	fc 01       	movw	r30, r24
    3188:	ee 0f       	add	r30, r30
    318a:	ff 1f       	adc	r31, r31
    318c:	e3 5e       	subi	r30, 0xE3	; 227
    318e:	f6 4c       	sbci	r31, 0xC6	; 198
    3190:	40 91 e8 38 	lds	r20, 0x38E8	; 0x8038e8 <actObj1.3989+0xc>
    3194:	50 91 e9 38 	lds	r21, 0x38E9	; 0x8038e9 <actObj1.3989+0xd>
    3198:	40 83       	st	Z, r20
    319a:	51 83       	std	Z+1, r21	; 0x01
    reactStr[1][number]=length;
    319c:	fc 01       	movw	r30, r24
    319e:	ee 0f       	add	r30, r30
    31a0:	ff 1f       	adc	r31, r31
    31a2:	e3 5a       	subi	r30, 0xA3	; 163
    31a4:	f6 4c       	sbci	r31, 0xC6	; 198
    31a6:	20 83       	st	Z, r18
    31a8:	31 83       	std	Z+1, r19	; 0x01
    reactStr[2][number]=type;
    31aa:	88 0f       	add	r24, r24
    31ac:	99 1f       	adc	r25, r25
    31ae:	fc 01       	movw	r30, r24
    31b0:	e3 56       	subi	r30, 0x63	; 99
    31b2:	f6 4c       	sbci	r31, 0xC6	; 198
    31b4:	10 82       	st	Z, r1
    31b6:	11 82       	std	Z+1, r1	; 0x01
    31b8:	28 c5       	rjmp	.+2640   	; 0x3c0a <ProcessInput+0xef0>

                //Look back if not on level 0
                if (currDepth) {
                    PopulateObject(route[currDepth-1], &actObj1);
                    SetResponse(elements++, actObj1.addrStr[NAME], actObj1.lenStr[NAME],GAME);
                } else elements-=1;
    31ba:	1f ef       	ldi	r17, 0xFF	; 255
    31bc:	19 0d       	add	r17, r9
    31be:	25 c5       	rjmp	.+2634   	; 0x3c0a <ProcessInput+0xef0>

            } else {
                route[currDepth+1] = FindChild(route[currDepth], data[1], 0);
    31c0:	ee 2e       	mov	r14, r30
    31c2:	f1 2c       	mov	r15, r1
    31c4:	f7 01       	movw	r30, r14
    31c6:	ee 0f       	add	r30, r30
    31c8:	ff 1f       	adc	r31, r31
    31ca:	e3 52       	subi	r30, 0x23	; 35
    31cc:	f6 4c       	sbci	r31, 0xC6	; 198
    31ce:	40 e0       	ldi	r20, 0x00	; 0
    31d0:	50 e0       	ldi	r21, 0x00	; 0
    31d2:	d3 01       	movw	r26, r6
    31d4:	11 96       	adiw	r26, 0x01	; 1
    31d6:	6c 91       	ld	r22, X
    31d8:	80 81       	ld	r24, Z
    31da:	91 81       	ldd	r25, Z+1	; 0x01
    31dc:	d8 d9       	rcall	.-3152   	; 0x258e <FindChild>
    31de:	f7 01       	movw	r30, r14
    31e0:	ee 0f       	add	r30, r30
    31e2:	ff 1f       	adc	r31, r31
    31e4:	e1 52       	subi	r30, 0x21	; 33
    31e6:	f6 4c       	sbci	r31, 0xC6	; 198
    31e8:	80 83       	st	Z, r24
    31ea:	91 83       	std	Z+1, r25	; 0x01
                if (route[currDepth+1]) {
    31ec:	90 91 31 38 	lds	r25, 0x3831	; 0x803831 <currDepth>
    31f0:	29 2f       	mov	r18, r25
    31f2:	30 e0       	ldi	r19, 0x00	; 0
    31f4:	f9 01       	movw	r30, r18
    31f6:	ee 0f       	add	r30, r30
    31f8:	ff 1f       	adc	r31, r31
    31fa:	e1 52       	subi	r30, 0x21	; 33
    31fc:	f6 4c       	sbci	r31, 0xC6	; 198
    31fe:	40 81       	ld	r20, Z
    3200:	51 81       	ldd	r21, Z+1	; 0x01
    3202:	41 15       	cp	r20, r1
    3204:	51 05       	cpc	r21, r1
    3206:	21 f0       	breq	.+8      	; 0x3210 <ProcessInput+0x4f6>
                    PopulateObject(route[currDepth+1], &actObj1);
    3208:	6c ed       	ldi	r22, 0xDC	; 220
    320a:	78 e3       	ldi	r23, 0x38	; 56
    320c:	ca 01       	movw	r24, r20
    320e:	1c c0       	rjmp	.+56     	; 0x3248 <ProcessInput+0x52e>
                    SetResponse(elements++, actObj1.addrStr[DESC], actObj1.lenStr[DESC],GAME);   
                } else if (currDepth) {
    3210:	99 23       	and	r25, r25
                    if (CheckLetter(route[currDepth-1], data[1])) {
    3212:	81 f1       	breq	.+96     	; 0x3274 <ProcessInput+0x55a>
    3214:	22 0f       	add	r18, r18
    3216:	33 1f       	adc	r19, r19
    3218:	f9 01       	movw	r30, r18
    321a:	e5 52       	subi	r30, 0x25	; 37
    321c:	f6 4c       	sbci	r31, 0xC6	; 198
    321e:	d3 01       	movw	r26, r6
    3220:	11 96       	adiw	r26, 0x01	; 1
    3222:	6c 91       	ld	r22, X
    3224:	80 81       	ld	r24, Z
    3226:	91 81       	ldd	r25, Z+1	; 0x01
    3228:	5c d9       	rcall	.-3400   	; 0x24e2 <CheckLetter>
    322a:	81 11       	cpse	r24, r1
    322c:	02 c0       	rjmp	.+4      	; 0x3232 <ProcessInput+0x518>
}

//The game logic!
uint8_t ProcessInput(uint8_t *data){
    static object_model_t actObj1, actObj2;
    uint8_t elements = 1;
    322e:	11 e0       	ldi	r17, 0x01	; 1
                if (route[currDepth+1]) {
                    PopulateObject(route[currDepth+1], &actObj1);
                    SetResponse(elements++, actObj1.addrStr[DESC], actObj1.lenStr[DESC],GAME);   
                } else if (currDepth) {
                    if (CheckLetter(route[currDepth-1], data[1])) {
                        PopulateObject(route[currDepth-1], &actObj1);
    3230:	ec c4       	rjmp	.+2520   	; 0x3c0a <ProcessInput+0xef0>
    3232:	e0 91 31 38 	lds	r30, 0x3831	; 0x803831 <currDepth>
    3236:	f0 e0       	ldi	r31, 0x00	; 0
    3238:	ee 0f       	add	r30, r30
    323a:	ff 1f       	adc	r31, r31
    323c:	e5 52       	subi	r30, 0x25	; 37
    323e:	f6 4c       	sbci	r31, 0xC6	; 198
    3240:	6c ed       	ldi	r22, 0xDC	; 220
    3242:	78 e3       	ldi	r23, 0x38	; 56
    3244:	80 81       	ld	r24, Z
    3246:	91 81       	ldd	r25, Z+1	; 0x01
    3248:	d3 d8       	rcall	.-3674   	; 0x23f0 <PopulateObject>
                        SetResponse(elements++, actObj1.addrStr[DESC], actObj1.lenStr[DESC],GAME);
    324a:	80 91 f8 38 	lds	r24, 0x38F8	; 0x8038f8 <actObj1.3989+0x1c>
    324e:	90 91 f9 38 	lds	r25, 0x38F9	; 0x8038f9 <actObj1.3989+0x1d>
    return 0;
}

//
void SetResponse(uint8_t number, uint16_t address, uint16_t length, uint8_t type){
    reactStr[0][number]=address;
    3252:	20 91 ea 38 	lds	r18, 0x38EA	; 0x8038ea <actObj1.3989+0xe>
    3256:	30 91 eb 38 	lds	r19, 0x38EB	; 0x8038eb <actObj1.3989+0xf>
    325a:	20 93 1f 39 	sts	0x391F, r18	; 0x80391f <reactStr+0x2>
    325e:	30 93 20 39 	sts	0x3920, r19	; 0x803920 <reactStr+0x3>
    reactStr[1][number]=length;
    3262:	80 93 5f 39 	sts	0x395F, r24	; 0x80395f <reactStr+0x42>
    3266:	90 93 60 39 	sts	0x3960, r25	; 0x803960 <reactStr+0x43>
    reactStr[2][number]=type;
    326a:	10 92 9f 39 	sts	0x399F, r1	; 0x80399f <reactStr+0x82>
    326e:	10 92 a0 39 	sts	0x39A0, r1	; 0x8039a0 <reactStr+0x83>
    3272:	32 ce       	rjmp	.-924    	; 0x2ed8 <ProcessInput+0x1be>
    return 0;
}

//
void SetResponse(uint8_t number, uint16_t address, uint16_t length, uint8_t type){
    reactStr[0][number]=address;
    3274:	81 ed       	ldi	r24, 0xD1	; 209
    3276:	99 e7       	ldi	r25, 0x79	; 121
    3278:	80 93 1f 39 	sts	0x391F, r24	; 0x80391f <reactStr+0x2>
    327c:	90 93 20 39 	sts	0x3920, r25	; 0x803920 <reactStr+0x3>
    reactStr[1][number]=length;
    3280:	8a e1       	ldi	r24, 0x1A	; 26
    3282:	90 e0       	ldi	r25, 0x00	; 0
    3284:	c9 c2       	rjmp	.+1426   	; 0x3818 <ProcessInput+0xafe>
                    SetResponse(elements++, A_DONTSEE, L_DONTSEE, TEASER);
                }
            }
        
        //Pick up an object
        } else if (data[0] == 'p') {
    3286:	80 37       	cpi	r24, 0x70	; 112
    3288:	09 f0       	breq	.+2      	; 0x328c <ProcessInput+0x572>
    328a:	92 c0       	rjmp	.+292    	; 0x33b0 <ProcessInput+0x696>
            if (inventory[0]&&inventory[1]) {
    328c:	80 91 40 38 	lds	r24, 0x3840	; 0x803840 <inventory>
    3290:	90 91 41 38 	lds	r25, 0x3841	; 0x803841 <inventory+0x1>
    3294:	89 2b       	or	r24, r25
    3296:	79 f0       	breq	.+30     	; 0x32b6 <ProcessInput+0x59c>
    3298:	80 91 42 38 	lds	r24, 0x3842	; 0x803842 <inventory+0x2>
    329c:	90 91 43 38 	lds	r25, 0x3843	; 0x803843 <inventory+0x3>
    32a0:	89 2b       	or	r24, r25
    32a2:	49 f0       	breq	.+18     	; 0x32b6 <ProcessInput+0x59c>
    return 0;
}

//
void SetResponse(uint8_t number, uint16_t address, uint16_t length, uint8_t type){
    reactStr[0][number]=address;
    32a4:	87 e0       	ldi	r24, 0x07	; 7
    32a6:	98 e7       	ldi	r25, 0x78	; 120
    32a8:	80 93 1f 39 	sts	0x391F, r24	; 0x80391f <reactStr+0x2>
    32ac:	90 93 20 39 	sts	0x3920, r25	; 0x803920 <reactStr+0x3>
    reactStr[1][number]=length;
    32b0:	89 e5       	ldi	r24, 0x59	; 89
    32b2:	90 e0       	ldi	r25, 0x00	; 0
    32b4:	b1 c2       	rjmp	.+1378   	; 0x3818 <ProcessInput+0xafe>
        
        //Pick up an object
        } else if (data[0] == 'p') {
            if (inventory[0]&&inventory[1]) {
                SetResponse(elements++, A_CARRYTWO, L_CARRYTWO, TEASER);
            } else if (inputLen != 2) {
    32b6:	b2 e0       	ldi	r27, 0x02	; 2
    32b8:	fb 12       	cpse	r15, r27
    32ba:	6f cd       	rjmp	.-1314   	; 0x2d9a <ProcessInput+0x80>
                SetResponse(elements++, A_NOTPOSSIBLE, L_NOTPOSSIBLE, TEASER);
            } else {
                route[currDepth+1] = FindChild(route[currDepth], data[1], 0);
    32bc:	00 91 31 38 	lds	r16, 0x3831	; 0x803831 <currDepth>
    32c0:	10 e0       	ldi	r17, 0x00	; 0
    32c2:	f8 01       	movw	r30, r16
    32c4:	ee 0f       	add	r30, r30
    32c6:	ff 1f       	adc	r31, r31
    32c8:	e3 52       	subi	r30, 0x23	; 35
    32ca:	f6 4c       	sbci	r31, 0xC6	; 198
    32cc:	40 e0       	ldi	r20, 0x00	; 0
    32ce:	50 e0       	ldi	r21, 0x00	; 0
    32d0:	d3 01       	movw	r26, r6
    32d2:	11 96       	adiw	r26, 0x01	; 1
    32d4:	6c 91       	ld	r22, X
    32d6:	80 81       	ld	r24, Z
    32d8:	91 81       	ldd	r25, Z+1	; 0x01
    32da:	59 d9       	rcall	.-3406   	; 0x258e <FindChild>
    32dc:	00 0f       	add	r16, r16
    32de:	11 1f       	adc	r17, r17
    32e0:	f8 01       	movw	r30, r16
    32e2:	e1 52       	subi	r30, 0x21	; 33
    32e4:	f6 4c       	sbci	r31, 0xC6	; 198
    32e6:	80 83       	st	Z, r24
    32e8:	91 83       	std	Z+1, r25	; 0x01
                if (route[currDepth+1]) {
    32ea:	20 91 31 38 	lds	r18, 0x3831	; 0x803831 <currDepth>
    32ee:	30 e0       	ldi	r19, 0x00	; 0
    32f0:	2f 5f       	subi	r18, 0xFF	; 255
    32f2:	3f 4f       	sbci	r19, 0xFF	; 255
    32f4:	22 0f       	add	r18, r18
    32f6:	33 1f       	adc	r19, r19
    32f8:	f9 01       	movw	r30, r18
    32fa:	e3 52       	subi	r30, 0x23	; 35
    32fc:	f6 4c       	sbci	r31, 0xC6	; 198
    32fe:	80 81       	ld	r24, Z
    3300:	91 81       	ldd	r25, Z+1	; 0x01
    3302:	00 97       	sbiw	r24, 0x00	; 0
    3304:	09 f4       	brne	.+2      	; 0x3308 <ProcessInput+0x5ee>
    3306:	38 c3       	rjmp	.+1648   	; 0x3978 <ProcessInput+0xc5e>
                    if ((route[currDepth+1] == inventory[0])||(route[currDepth+1] == inventory[1])) {
    3308:	40 91 40 38 	lds	r20, 0x3840	; 0x803840 <inventory>
    330c:	50 91 41 38 	lds	r21, 0x3841	; 0x803841 <inventory+0x1>
    3310:	84 17       	cp	r24, r20
    3312:	95 07       	cpc	r25, r21
    3314:	39 f0       	breq	.+14     	; 0x3324 <ProcessInput+0x60a>
    3316:	40 91 42 38 	lds	r20, 0x3842	; 0x803842 <inventory+0x2>
    331a:	50 91 43 38 	lds	r21, 0x3843	; 0x803843 <inventory+0x3>
    331e:	84 17       	cp	r24, r20
    3320:	95 07       	cpc	r25, r21
    3322:	c1 f4       	brne	.+48     	; 0x3354 <ProcessInput+0x63a>
    return 0;
}

//
void SetResponse(uint8_t number, uint16_t address, uint16_t length, uint8_t type){
    reactStr[0][number]=address;
    3324:	82 ee       	ldi	r24, 0xE2	; 226
    3326:	97 e7       	ldi	r25, 0x77	; 119
    3328:	80 93 1f 39 	sts	0x391F, r24	; 0x80391f <reactStr+0x2>
    332c:	90 93 20 39 	sts	0x3920, r25	; 0x803920 <reactStr+0x3>
    reactStr[1][number]=length;
    3330:	85 e2       	ldi	r24, 0x25	; 37
    3332:	90 e0       	ldi	r25, 0x00	; 0
    3334:	80 93 5f 39 	sts	0x395F, r24	; 0x80395f <reactStr+0x42>
    3338:	90 93 60 39 	sts	0x3960, r25	; 0x803960 <reactStr+0x43>
    reactStr[2][number]=type;
    333c:	81 e0       	ldi	r24, 0x01	; 1
    333e:	90 e0       	ldi	r25, 0x00	; 0
    3340:	80 93 9f 39 	sts	0x399F, r24	; 0x80399f <reactStr+0x82>
    3344:	90 93 a0 39 	sts	0x39A0, r25	; 0x8039a0 <reactStr+0x83>
            } else {
                route[currDepth+1] = FindChild(route[currDepth], data[1], 0);
                if (route[currDepth+1]) {
                    if ((route[currDepth+1] == inventory[0])||(route[currDepth+1] == inventory[1])) {
                        SetResponse(elements++, A_ALREADYCARRYING, L_ALREADYCARRYING, TEASER);
                        route[currDepth+1] = 0;
    3348:	f9 01       	movw	r30, r18
    334a:	e3 52       	subi	r30, 0x23	; 35
    334c:	f6 4c       	sbci	r31, 0xC6	; 198
    334e:	10 82       	st	Z, r1
    3350:	11 82       	std	Z+1, r1	; 0x01
                    } else {
                        //Put item in the inventory if possible
                        PopulateObject(route[currDepth+1], &actObj1);  
    3352:	c2 cd       	rjmp	.-1148   	; 0x2ed8 <ProcessInput+0x1be>
    3354:	6c ed       	ldi	r22, 0xDC	; 220
    3356:	78 e3       	ldi	r23, 0x38	; 56
    3358:	4b d8       	rcall	.-3946   	; 0x23f0 <PopulateObject>
                        if (CheckState(actObj1.byteField[ACTION_ACL])) {
    335a:	80 91 e3 38 	lds	r24, 0x38E3	; 0x8038e3 <actObj1.3989+0x7>
    335e:	0e 94 1e 0a 	call	0x143c	; 0x143c <CheckState>
    3362:	88 23       	and	r24, r24
    3364:	09 f4       	brne	.+2      	; 0x3368 <ProcessInput+0x64e>
    3366:	e3 c2       	rjmp	.+1478   	; 0x392e <ProcessInput+0xc14>
                            if (actObj1.byteField[ITEM_NR]) {
    3368:	80 91 e7 38 	lds	r24, 0x38E7	; 0x8038e7 <actObj1.3989+0xb>
    336c:	88 23       	and	r24, r24
    336e:	09 f4       	brne	.+2      	; 0x3372 <ProcessInput+0x658>
    3370:	14 cd       	rjmp	.-1496   	; 0x2d9a <ProcessInput+0x80>
                                if (inventory[0]) {
    3372:	80 91 40 38 	lds	r24, 0x3840	; 0x803840 <inventory>
    3376:	90 91 41 38 	lds	r25, 0x3841	; 0x803841 <inventory+0x1>
    337a:	e0 91 31 38 	lds	r30, 0x3831	; 0x803831 <currDepth>
                                    inventory[1] = route[currDepth+1];
    337e:	f0 e0       	ldi	r31, 0x00	; 0
    3380:	ee 0f       	add	r30, r30
    3382:	ff 1f       	adc	r31, r31
    3384:	e1 52       	subi	r30, 0x21	; 33
    3386:	f6 4c       	sbci	r31, 0xC6	; 198
                    } else {
                        //Put item in the inventory if possible
                        PopulateObject(route[currDepth+1], &actObj1);  
                        if (CheckState(actObj1.byteField[ACTION_ACL])) {
                            if (actObj1.byteField[ITEM_NR]) {
                                if (inventory[0]) {
    3388:	89 2b       	or	r24, r25
    338a:	39 f0       	breq	.+14     	; 0x339a <ProcessInput+0x680>
                                    inventory[1] = route[currDepth+1];
    338c:	80 81       	ld	r24, Z
    338e:	91 81       	ldd	r25, Z+1	; 0x01
    3390:	80 93 42 38 	sts	0x3842, r24	; 0x803842 <inventory+0x2>
    3394:	90 93 43 38 	sts	0x3843, r25	; 0x803843 <inventory+0x3>
    3398:	06 c0       	rjmp	.+12     	; 0x33a6 <ProcessInput+0x68c>
                                } else {
                                    inventory[0] = route[currDepth+1];
    339a:	80 81       	ld	r24, Z
    339c:	91 81       	ldd	r25, Z+1	; 0x01
    339e:	80 93 40 38 	sts	0x3840, r24	; 0x803840 <inventory>
    33a2:	90 93 41 38 	sts	0x3841, r25	; 0x803841 <inventory+0x1>
                                }
                                UpdateState(actObj1.byteField[ACTION_STATE]);
    33a6:	80 91 e6 38 	lds	r24, 0x38E6	; 0x8038e6 <actObj1.3989+0xa>
    33aa:	0e 94 fd 09 	call	0x13fa	; 0x13fa <UpdateState>
    33ae:	2b c0       	rjmp	.+86     	; 0x3406 <ProcessInput+0x6ec>
                } else SetResponse(elements++, A_NOSUCHOBJECT, L_NOSUCHOBJECT, TEASER);
            }
        } else

        //Drop item if in inventory
        if (data[0] == 'd') {
    33b0:	84 36       	cpi	r24, 0x64	; 100
    33b2:	d9 f4       	brne	.+54     	; 0x33ea <ProcessInput+0x6d0>
            if ((inventory[0] == 0)&&(inventory[1] == 0)){
    33b4:	80 91 40 38 	lds	r24, 0x3840	; 0x803840 <inventory>
    33b8:	90 91 41 38 	lds	r25, 0x3841	; 0x803841 <inventory+0x1>
    33bc:	00 97       	sbiw	r24, 0x00	; 0
    33be:	09 f0       	breq	.+2      	; 0x33c2 <ProcessInput+0x6a8>
    33c0:	3c c4       	rjmp	.+2168   	; 0x3c3a <ProcessInput+0xf20>
    33c2:	80 91 42 38 	lds	r24, 0x3842	; 0x803842 <inventory+0x2>
    33c6:	90 91 43 38 	lds	r25, 0x3843	; 0x803843 <inventory+0x3>
    33ca:	89 2b       	or	r24, r25
    33cc:	49 f4       	brne	.+18     	; 0x33e0 <ProcessInput+0x6c6>
    return 0;
}

//
void SetResponse(uint8_t number, uint16_t address, uint16_t length, uint8_t type){
    reactStr[0][number]=address;
    33ce:	86 ea       	ldi	r24, 0xA6	; 166
    33d0:	97 e7       	ldi	r25, 0x77	; 119
    33d2:	80 93 1f 39 	sts	0x391F, r24	; 0x80391f <reactStr+0x2>
    33d6:	90 93 20 39 	sts	0x3920, r25	; 0x803920 <reactStr+0x3>
    reactStr[1][number]=length;
    33da:	86 e2       	ldi	r24, 0x26	; 38
    33dc:	90 e0       	ldi	r25, 0x00	; 0
    33de:	72 cd       	rjmp	.-1308   	; 0x2ec4 <ProcessInput+0x1aa>

        //Drop item if in inventory
        if (data[0] == 'd') {
            if ((inventory[0] == 0)&&(inventory[1] == 0)){
                SetResponse(elements++, A_EMPTYHANDS, L_EMPTYHANDS, TEASER);
            } else if (inputLen != 2) {
    33e0:	b2 e0       	ldi	r27, 0x02	; 2
    33e2:	fb 16       	cp	r15, r27
    33e4:	09 f4       	brne	.+2      	; 0x33e8 <ProcessInput+0x6ce>
    33e6:	8b c4       	rjmp	.+2326   	; 0x3cfe <ProcessInput+0xfe4>
    33e8:	d8 cc       	rjmp	.-1616   	; 0x2d9a <ProcessInput+0x80>
                }
            }
        } 

        //Inventory list
        else if (data[0] == 'i') {
    33ea:	89 36       	cpi	r24, 0x69	; 105
            if ((inventory[0] == 0)&&(inventory[1] == 0)){
    33ec:	81 f4       	brne	.+32     	; 0x340e <ProcessInput+0x6f4>
    33ee:	80 91 40 38 	lds	r24, 0x3840	; 0x803840 <inventory>
    33f2:	90 91 41 38 	lds	r25, 0x3841	; 0x803841 <inventory+0x1>
    33f6:	89 2b       	or	r24, r25
    33f8:	31 f4       	brne	.+12     	; 0x3406 <ProcessInput+0x6ec>
    33fa:	80 91 42 38 	lds	r24, 0x3842	; 0x803842 <inventory+0x2>
    33fe:	90 91 43 38 	lds	r25, 0x3843	; 0x803843 <inventory+0x3>
    3402:	89 2b       	or	r24, r25
                SetResponse(elements++, A_EMPTYHANDS, L_EMPTYHANDS, TEASER);
                } else {
                    elements = ShowInventory(elements);
    3404:	21 f3       	breq	.-56     	; 0x33ce <ProcessInput+0x6b4>
    3406:	81 e0       	ldi	r24, 0x01	; 1
    3408:	f8 db       	rcall	.-2064   	; 0x2bfa <ShowInventory>
    340a:	18 2f       	mov	r17, r24
    340c:	fe c3       	rjmp	.+2044   	; 0x3c0a <ProcessInput+0xef0>
                }        
        
        //Talk, use, give, read
        } else if ((data[0] == 't')||(data[0] == 'u')||(data[0] == 'g')||(data[0] == 'r')) {
    340e:	9c e8       	ldi	r25, 0x8C	; 140
    3410:	98 0f       	add	r25, r24
    3412:	92 30       	cpi	r25, 0x02	; 2
    3414:	28 f0       	brcs	.+10     	; 0x3420 <ProcessInput+0x706>
    3416:	87 36       	cpi	r24, 0x67	; 103
    3418:	19 f0       	breq	.+6      	; 0x3420 <ProcessInput+0x706>
    341a:	82 37       	cpi	r24, 0x72	; 114
    341c:	09 f0       	breq	.+2      	; 0x3420 <ProcessInput+0x706>
    341e:	b5 c2       	rjmp	.+1386   	; 0x398a <ProcessInput+0xc70>
            if ((inputLen<2)||(inputLen>3)) {
    3420:	8e ef       	ldi	r24, 0xFE	; 254
    3422:	8f 0d       	add	r24, r15
    3424:	82 30       	cpi	r24, 0x02	; 2
    3426:	08 f0       	brcs	.+2      	; 0x342a <ProcessInput+0x710>
    3428:	b8 cc       	rjmp	.-1680   	; 0x2d9a <ProcessInput+0x80>
                SetResponse(elements++, A_NOTPOSSIBLE, L_NOTPOSSIBLE, TEASER);                
            
            //Check for visible person or object first
            } else {
                route[currDepth+1] = FindChild(route[currDepth], data[inputLen-1], 0);
    342a:	e0 91 31 38 	lds	r30, 0x3831	; 0x803831 <currDepth>
    342e:	0e 2f       	mov	r16, r30
    3430:	10 e0       	ldi	r17, 0x00	; 0
    3432:	d3 01       	movw	r26, r6
    3434:	af 0d       	add	r26, r15
    3436:	b1 1d       	adc	r27, r1
    3438:	11 97       	sbiw	r26, 0x01	; 1
    343a:	f8 01       	movw	r30, r16
    343c:	ee 0f       	add	r30, r30
    343e:	ff 1f       	adc	r31, r31
    3440:	e3 52       	subi	r30, 0x23	; 35
    3442:	f6 4c       	sbci	r31, 0xC6	; 198
    3444:	40 e0       	ldi	r20, 0x00	; 0
    3446:	50 e0       	ldi	r21, 0x00	; 0
    3448:	6c 91       	ld	r22, X
    344a:	80 81       	ld	r24, Z
    344c:	91 81       	ldd	r25, Z+1	; 0x01
    344e:	9f d8       	rcall	.-3778   	; 0x258e <FindChild>
    3450:	f8 01       	movw	r30, r16
    3452:	ee 0f       	add	r30, r30
    3454:	ff 1f       	adc	r31, r31
    3456:	e1 52       	subi	r30, 0x21	; 33
    3458:	f6 4c       	sbci	r31, 0xC6	; 198
    345a:	80 83       	st	Z, r24
    345c:	91 83       	std	Z+1, r25	; 0x01
                if (route[currDepth+1]) {
    345e:	e0 91 31 38 	lds	r30, 0x3831	; 0x803831 <currDepth>
    3462:	f0 e0       	ldi	r31, 0x00	; 0
    3464:	ee 0f       	add	r30, r30
    3466:	ff 1f       	adc	r31, r31
    3468:	e1 52       	subi	r30, 0x21	; 33
    346a:	f6 4c       	sbci	r31, 0xC6	; 198
    346c:	80 81       	ld	r24, Z
    346e:	91 81       	ldd	r25, Z+1	; 0x01
    3470:	00 97       	sbiw	r24, 0x00	; 0
    3472:	09 f4       	brne	.+2      	; 0x3476 <ProcessInput+0x75c>
    3474:	78 c2       	rjmp	.+1264   	; 0x3966 <ProcessInput+0xc4c>
                    
                    //Give item to person / use item on object 
                    if ((inputLen == 3)&&((data[0] == 'u')||(data[0] == 'g'))) {
    3476:	f3 e0       	ldi	r31, 0x03	; 3
    3478:	ff 12       	cpse	r15, r31
    347a:	60 c1       	rjmp	.+704    	; 0x373c <ProcessInput+0xa22>
    347c:	d3 01       	movw	r26, r6
    347e:	2c 91       	ld	r18, X
    3480:	25 37       	cpi	r18, 0x75	; 117
    3482:	19 f0       	breq	.+6      	; 0x348a <ProcessInput+0x770>
    3484:	27 36       	cpi	r18, 0x67	; 103
    3486:	09 f0       	breq	.+2      	; 0x348a <ProcessInput+0x770>
    3488:	59 c1       	rjmp	.+690    	; 0x373c <ProcessInput+0xa22>
    348a:	00 e0       	ldi	r16, 0x00	; 0
    348c:	11 e0       	ldi	r17, 0x01	; 1
    return 0;
}

//
void SetResponse(uint8_t number, uint16_t address, uint16_t length, uint8_t type){
    reactStr[0][number]=address;
    348e:	41 e6       	ldi	r20, 0x61	; 97
    3490:	c4 2e       	mov	r12, r20
    3492:	49 e7       	ldi	r20, 0x79	; 121
    3494:	d4 2e       	mov	r13, r20
    reactStr[1][number]=length;
    3496:	51 e2       	ldi	r21, 0x21	; 33
    3498:	a5 2e       	mov	r10, r21
    349a:	b1 2c       	mov	r11, r1
    reactStr[2][number]=type;
    349c:	88 24       	eor	r8, r8
    349e:	83 94       	inc	r8
                if (route[currDepth+1]) {
                    
                    //Give item to person / use item on object 
                    if ((inputLen == 3)&&((data[0] == 'u')||(data[0] == 'g'))) {
                        for (uint8_t x=0; x<2; x++) {
                            if (inventory[x]) { 
    34a0:	91 2c       	mov	r9, r1
    34a2:	e0 2e       	mov	r14, r16
    34a4:	f1 2c       	mov	r15, r1
    34a6:	c7 01       	movw	r24, r14
    34a8:	88 0f       	add	r24, r24
    34aa:	99 1f       	adc	r25, r25
    34ac:	fc 01       	movw	r30, r24
    34ae:	e0 5c       	subi	r30, 0xC0	; 192
    34b0:	f7 4c       	sbci	r31, 0xC7	; 199
    34b2:	7f 01       	movw	r14, r30
    34b4:	80 81       	ld	r24, Z
    34b6:	91 81       	ldd	r25, Z+1	; 0x01
    34b8:	00 97       	sbiw	r24, 0x00	; 0
                                if (CheckLetter(inventory[x], data[1])) {
    34ba:	79 f0       	breq	.+30     	; 0x34da <ProcessInput+0x7c0>
    34bc:	d3 01       	movw	r26, r6
    34be:	11 96       	adiw	r26, 0x01	; 1
    34c0:	6c 91       	ld	r22, X
    34c2:	0f d8       	rcall	.-4066   	; 0x24e2 <CheckLetter>
    34c4:	88 23       	and	r24, r24
    34c6:	49 f0       	breq	.+18     	; 0x34da <ProcessInput+0x7c0>
                                    PopulateObject(inventory[x], &actObj2);
    34c8:	61 eb       	ldi	r22, 0xB1	; 177
    34ca:	78 e3       	ldi	r23, 0x38	; 56
    34cc:	f7 01       	movw	r30, r14
    34ce:	80 81       	ld	r24, Z
    34d0:	91 81       	ldd	r25, Z+1	; 0x01
    34d2:	0e 94 f8 11 	call	0x23f0	; 0x23f0 <PopulateObject>
                                    x = 2;
    34d6:	02 e0       	ldi	r16, 0x02	; 2
    34d8:	1d c0       	rjmp	.+58     	; 0x3514 <ProcessInput+0x7fa>
                                }
                            }
                            if (x == 1) { 
    34da:	01 30       	cpi	r16, 0x01	; 1
    34dc:	d1 f4       	brne	.+52     	; 0x3512 <ProcessInput+0x7f8>
    return 0;
}

//
void SetResponse(uint8_t number, uint16_t address, uint16_t length, uint8_t type){
    reactStr[0][number]=address;
    34de:	e1 2f       	mov	r30, r17
    34e0:	f0 e0       	ldi	r31, 0x00	; 0
    34e2:	df 01       	movw	r26, r30
    34e4:	aa 0f       	add	r26, r26
    34e6:	bb 1f       	adc	r27, r27
    34e8:	a3 5e       	subi	r26, 0xE3	; 227
    34ea:	b6 4c       	sbci	r27, 0xC6	; 198
    34ec:	cd 92       	st	X+, r12
    34ee:	dc 92       	st	X, r13
    reactStr[1][number]=length;
    34f0:	df 01       	movw	r26, r30
    34f2:	aa 0f       	add	r26, r26
    34f4:	bb 1f       	adc	r27, r27
    34f6:	a3 5a       	subi	r26, 0xA3	; 163
    34f8:	b6 4c       	sbci	r27, 0xC6	; 198
    34fa:	ad 92       	st	X+, r10
    34fc:	bc 92       	st	X, r11
    reactStr[2][number]=type;
    34fe:	ee 0f       	add	r30, r30
    3500:	ff 1f       	adc	r31, r31
    3502:	e3 56       	subi	r30, 0x63	; 99
    3504:	f6 4c       	sbci	r31, 0xC6	; 198
    3506:	80 82       	st	Z, r8
    3508:	91 82       	std	Z+1, r9	; 0x01
                                    x = 2;
                                }
                            }
                            if (x == 1) { 
                                SetResponse(elements++, A_NOTCARRYING, L_NOTCARRYING, TEASER);
                                data[0] = 0;
    350a:	d3 01       	movw	r26, r6
    350c:	1c 92       	st	X, r1
                                    PopulateObject(inventory[x], &actObj2);
                                    x = 2;
                                }
                            }
                            if (x == 1) { 
                                SetResponse(elements++, A_NOTCARRYING, L_NOTCARRYING, TEASER);
    350e:	1f 5f       	subi	r17, 0xFF	; 255
    3510:	01 c0       	rjmp	.+2      	; 0x3514 <ProcessInput+0x7fa>
    3512:	00 e0       	ldi	r16, 0x00	; 0
                route[currDepth+1] = FindChild(route[currDepth], data[inputLen-1], 0);
                if (route[currDepth+1]) {
                    
                    //Give item to person / use item on object 
                    if ((inputLen == 3)&&((data[0] == 'u')||(data[0] == 'g'))) {
                        for (uint8_t x=0; x<2; x++) {
    3514:	0f 5f       	subi	r16, 0xFF	; 255
    3516:	01 30       	cpi	r16, 0x01	; 1
    3518:	21 f2       	breq	.-120    	; 0x34a2 <ProcessInput+0x788>
                                data[0] = 0;
                            }
                        }

                        //Both the item and person/object are found, check if action is legit
                        if (data[0]){
    351a:	f3 01       	movw	r30, r6
    351c:	80 81       	ld	r24, Z
    351e:	88 23       	and	r24, r24
    3520:	09 f4       	brne	.+2      	; 0x3524 <ProcessInput+0x80a>
    3522:	73 c3       	rjmp	.+1766   	; 0x3c0a <ProcessInput+0xef0>
                            PopulateObject(route[currDepth+1], &actObj1);
    3524:	e0 91 31 38 	lds	r30, 0x3831	; 0x803831 <currDepth>
    3528:	f0 e0       	ldi	r31, 0x00	; 0
    352a:	ee 0f       	add	r30, r30
    352c:	ff 1f       	adc	r31, r31
    352e:	e1 52       	subi	r30, 0x21	; 33
    3530:	f6 4c       	sbci	r31, 0xC6	; 198
    3532:	6c ed       	ldi	r22, 0xDC	; 220
    3534:	78 e3       	ldi	r23, 0x38	; 56
    3536:	80 81       	ld	r24, Z
    3538:	91 81       	ldd	r25, Z+1	; 0x01
    353a:	0e 94 f8 11 	call	0x23f0	; 0x23f0 <PopulateObject>

                            //Special game
                            if (actObj1.lenStr[ACTION_STR1] == 1) {
    353e:	e0 90 fa 38 	lds	r14, 0x38FA	; 0x8038fa <actObj1.3989+0x1e>
    3542:	f0 90 fb 38 	lds	r15, 0x38FB	; 0x8038fb <actObj1.3989+0x1f>
    3546:	f1 e0       	ldi	r31, 0x01	; 1
    3548:	ef 16       	cp	r14, r31
    354a:	f1 04       	cpc	r15, r1
    354c:	09 f0       	breq	.+2      	; 0x3550 <ProcessInput+0x836>
    354e:	89 c0       	rjmp	.+274    	; 0x3662 <ProcessInput+0x948>
                                ExtEERead(actObj1.addrStr[ACTION_STR1], 1, GAME, &data[2]);
    3550:	93 01       	movw	r18, r6
    3552:	2e 5f       	subi	r18, 0xFE	; 254
    3554:	3f 4f       	sbci	r19, 0xFF	; 255
    3556:	40 e0       	ldi	r20, 0x00	; 0
    3558:	61 e0       	ldi	r22, 0x01	; 1
    355a:	80 91 ec 38 	lds	r24, 0x38EC	; 0x8038ec <actObj1.3989+0x10>
    355e:	90 91 ed 38 	lds	r25, 0x38ED	; 0x8038ed <actObj1.3989+0x11>
    3562:	0e 94 53 08 	call	0x10a6	; 0x10a6 <ExtEERead>
                                if (data[2] == '1') {
    3566:	d3 01       	movw	r26, r6
    3568:	12 96       	adiw	r26, 0x02	; 2
    356a:	3c 91       	ld	r19, X
    356c:	31 33       	cpi	r19, 0x31	; 49
    356e:	09 f0       	breq	.+2      	; 0x3572 <ProcessInput+0x858>
    3570:	4c c3       	rjmp	.+1688   	; 0x3c0a <ProcessInput+0xef0>
                                    uint8_t item = actObj2.byteField[ITEM_NR];
    3572:	20 91 bc 38 	lds	r18, 0x38BC	; 0x8038bc <actObj2.3990+0xb>
                                    if ((item < 31)||(item > 34)) {
    3576:	51 ee       	ldi	r21, 0xE1	; 225
    3578:	52 0f       	add	r21, r18
    357a:	41 e0       	ldi	r20, 0x01	; 1
    357c:	41 0f       	add	r20, r17
    357e:	81 2f       	mov	r24, r17
    3580:	90 e0       	ldi	r25, 0x00	; 0
    return 0;
}

//
void SetResponse(uint8_t number, uint16_t address, uint16_t length, uint8_t type){
    reactStr[0][number]=address;
    3582:	fc 01       	movw	r30, r24
    3584:	ee 0f       	add	r30, r30
    3586:	ff 1f       	adc	r31, r31
    3588:	e3 5e       	subi	r30, 0xE3	; 227
    358a:	f6 4c       	sbci	r31, 0xC6	; 198
                            //Special game
                            if (actObj1.lenStr[ACTION_STR1] == 1) {
                                ExtEERead(actObj1.addrStr[ACTION_STR1], 1, GAME, &data[2]);
                                if (data[2] == '1') {
                                    uint8_t item = actObj2.byteField[ITEM_NR];
                                    if ((item < 31)||(item > 34)) {
    358c:	54 30       	cpi	r21, 0x04	; 4
    358e:	b0 f0       	brcs	.+44     	; 0x35bc <ProcessInput+0x8a2>
    return 0;
}

//
void SetResponse(uint8_t number, uint16_t address, uint16_t length, uint8_t type){
    reactStr[0][number]=address;
    3590:	21 e0       	ldi	r18, 0x01	; 1
    3592:	39 e7       	ldi	r19, 0x79	; 121
    3594:	20 83       	st	Z, r18
    3596:	31 83       	std	Z+1, r19	; 0x01
    reactStr[1][number]=length;
    3598:	fc 01       	movw	r30, r24
    359a:	ee 0f       	add	r30, r30
    359c:	ff 1f       	adc	r31, r31
    359e:	e3 5a       	subi	r30, 0xA3	; 163
    35a0:	f6 4c       	sbci	r31, 0xC6	; 198
    35a2:	2a e1       	ldi	r18, 0x1A	; 26
    35a4:	30 e0       	ldi	r19, 0x00	; 0
    35a6:	20 83       	st	Z, r18
    35a8:	31 83       	std	Z+1, r19	; 0x01
    reactStr[2][number]=type;
    35aa:	88 0f       	add	r24, r24
    35ac:	99 1f       	adc	r25, r25
    35ae:	fc 01       	movw	r30, r24
    35b0:	e3 56       	subi	r30, 0x63	; 99
    35b2:	f6 4c       	sbci	r31, 0xC6	; 198
    35b4:	e0 82       	st	Z, r14
    35b6:	f1 82       	std	Z+1, r15	; 0x01
                            if (actObj1.lenStr[ACTION_STR1] == 1) {
                                ExtEERead(actObj1.addrStr[ACTION_STR1], 1, GAME, &data[2]);
                                if (data[2] == '1') {
                                    uint8_t item = actObj2.byteField[ITEM_NR];
                                    if ((item < 31)||(item > 34)) {
                                        SetResponse(elements++, A_CANTUSE, L_CANTUSE, TEASER);
    35b8:	14 2f       	mov	r17, r20
    35ba:	27 c3       	rjmp	.+1614   	; 0x3c0a <ProcessInput+0xef0>
    return 0;
}

//
void SetResponse(uint8_t number, uint16_t address, uint16_t length, uint8_t type){
    reactStr[0][number]=address;
    35bc:	60 e5       	ldi	r22, 0x50	; 80
    35be:	75 e7       	ldi	r23, 0x75	; 117
    35c0:	60 83       	st	Z, r22
    35c2:	71 83       	std	Z+1, r23	; 0x01
    reactStr[1][number]=length;
    35c4:	fc 01       	movw	r30, r24
    35c6:	ee 0f       	add	r30, r30
    35c8:	ff 1f       	adc	r31, r31
    35ca:	e3 5a       	subi	r30, 0xA3	; 163
    35cc:	f6 4c       	sbci	r31, 0xC6	; 198
    35ce:	62 eb       	ldi	r22, 0xB2	; 178
    35d0:	70 e0       	ldi	r23, 0x00	; 0
    35d2:	60 83       	st	Z, r22
    35d4:	71 83       	std	Z+1, r23	; 0x01
    reactStr[2][number]=type;
    35d6:	88 0f       	add	r24, r24
    35d8:	99 1f       	adc	r25, r25
    35da:	fc 01       	movw	r30, r24
    35dc:	e3 56       	subi	r30, 0x63	; 99
    35de:	f6 4c       	sbci	r31, 0xC6	; 198
    35e0:	e0 82       	st	Z, r14
    35e2:	f1 82       	std	Z+1, r15	; 0x01
    return 0;
}

//
void SetResponse(uint8_t number, uint16_t address, uint16_t length, uint8_t type){
    reactStr[0][number]=address;
    35e4:	84 2f       	mov	r24, r20
    35e6:	90 e0       	ldi	r25, 0x00	; 0
    35e8:	fc 01       	movw	r30, r24
    35ea:	ee 0f       	add	r30, r30
    35ec:	ff 1f       	adc	r31, r31
    35ee:	e3 5e       	subi	r30, 0xE3	; 227
    35f0:	f6 4c       	sbci	r31, 0xC6	; 198
    35f2:	49 e5       	ldi	r20, 0x59	; 89
    35f4:	5a e7       	ldi	r21, 0x7A	; 122
    35f6:	40 83       	st	Z, r20
    35f8:	51 83       	std	Z+1, r21	; 0x01
    reactStr[1][number]=length;
    35fa:	fc 01       	movw	r30, r24
    35fc:	ee 0f       	add	r30, r30
    35fe:	ff 1f       	adc	r31, r31
    3600:	e3 5a       	subi	r30, 0xA3	; 163
    3602:	f6 4c       	sbci	r31, 0xC6	; 198
    3604:	42 e0       	ldi	r20, 0x02	; 2
    3606:	50 e0       	ldi	r21, 0x00	; 0
    3608:	40 83       	st	Z, r20
    360a:	51 83       	std	Z+1, r21	; 0x01
    reactStr[2][number]=type;
    360c:	88 0f       	add	r24, r24
    360e:	99 1f       	adc	r25, r25
    3610:	fc 01       	movw	r30, r24
    3612:	e3 56       	subi	r30, 0x63	; 99
    3614:	f6 4c       	sbci	r31, 0xC6	; 198
    3616:	e0 82       	st	Z, r14
    3618:	f1 82       	std	Z+1, r15	; 0x01
    return 0;
}

//
void SetResponse(uint8_t number, uint16_t address, uint16_t length, uint8_t type){
    reactStr[0][number]=address;
    361a:	82 e0       	ldi	r24, 0x02	; 2
    361c:	81 0f       	add	r24, r17
    361e:	90 e0       	ldi	r25, 0x00	; 0
    3620:	1d 5f       	subi	r17, 0xFD	; 253
    3622:	fc 01       	movw	r30, r24
    3624:	ee 0f       	add	r30, r30
    3626:	ff 1f       	adc	r31, r31
    3628:	e3 5e       	subi	r30, 0xE3	; 227
    362a:	f6 4c       	sbci	r31, 0xC6	; 198
    362c:	4d ea       	ldi	r20, 0xAD	; 173
    362e:	58 e7       	ldi	r21, 0x78	; 120
    3630:	40 83       	st	Z, r20
    3632:	51 83       	std	Z+1, r21	; 0x01
    reactStr[1][number]=length;
    3634:	fc 01       	movw	r30, r24
    3636:	ee 0f       	add	r30, r30
    3638:	ff 1f       	adc	r31, r31
    363a:	e3 5a       	subi	r30, 0xA3	; 163
    363c:	f6 4c       	sbci	r31, 0xC6	; 198
    363e:	42 e1       	ldi	r20, 0x12	; 18
    3640:	50 e0       	ldi	r21, 0x00	; 0
    3642:	40 83       	st	Z, r20
    3644:	51 83       	std	Z+1, r21	; 0x01
    reactStr[2][number]=type;
    3646:	88 0f       	add	r24, r24
    3648:	99 1f       	adc	r25, r25
    364a:	fc 01       	movw	r30, r24
    364c:	e3 56       	subi	r30, 0x63	; 99
    364e:	f6 4c       	sbci	r31, 0xC6	; 198
    3650:	e0 82       	st	Z, r14
    3652:	f1 82       	std	Z+1, r15	; 0x01
                                        SetResponse(elements++, A_CANTUSE, L_CANTUSE, TEASER);
                                    } else {
                                        SetResponse(elements++, A_PRIEST, L_PRIEST, TEASER);
                                        SetResponse(elements++, A_LF, 2, TEASER);
                                        SetResponse(elements++, A_RESPONSE, L_RESPONSE, TEASER);
                                        specialInput[0] = '1';
    3654:	30 93 0c 39 	sts	0x390C, r19	; 0x80390c <specialInput>
                                        specialInput[1] = item;
    3658:	20 93 0d 39 	sts	0x390D, r18	; 0x80390d <specialInput+0x1>
                                        specialInput[2] = 0;
    365c:	10 92 0e 39 	sts	0x390E, r1	; 0x80390e <specialInput+0x2>
    3660:	d4 c2       	rjmp	.+1448   	; 0x3c0a <ProcessInput+0xef0>
                                    }
                                }

                            //Normal "use ... on ..." or "give ... to ..." action
                            } else if (actObj1.byteField[ACTION_ITEM] == actObj2.byteField[ITEM_NR]) {
    3662:	90 91 e5 38 	lds	r25, 0x38E5	; 0x8038e5 <actObj1.3989+0x9>
    3666:	80 91 bc 38 	lds	r24, 0x38BC	; 0x8038bc <actObj2.3990+0xb>
    366a:	98 13       	cpse	r25, r24
    366c:	2e c0       	rjmp	.+92     	; 0x36ca <ProcessInput+0x9b0>
                                SetResponse(elements++, actObj1.addrStr[ACTION_MSG], actObj1.lenStr[ACTION_MSG], GAME);
    366e:	20 91 02 39 	lds	r18, 0x3902	; 0x803902 <actObj1.3989+0x26>
    3672:	30 91 03 39 	lds	r19, 0x3903	; 0x803903 <actObj1.3989+0x27>
    3676:	01 e0       	ldi	r16, 0x01	; 1
    3678:	01 0f       	add	r16, r17
    return 0;
}

//
void SetResponse(uint8_t number, uint16_t address, uint16_t length, uint8_t type){
    reactStr[0][number]=address;
    367a:	81 2f       	mov	r24, r17
    367c:	90 e0       	ldi	r25, 0x00	; 0
    367e:	fc 01       	movw	r30, r24
    3680:	ee 0f       	add	r30, r30
    3682:	ff 1f       	adc	r31, r31
    3684:	e3 5e       	subi	r30, 0xE3	; 227
    3686:	f6 4c       	sbci	r31, 0xC6	; 198
    3688:	40 91 f4 38 	lds	r20, 0x38F4	; 0x8038f4 <actObj1.3989+0x18>
    368c:	50 91 f5 38 	lds	r21, 0x38F5	; 0x8038f5 <actObj1.3989+0x19>
    3690:	40 83       	st	Z, r20
    3692:	51 83       	std	Z+1, r21	; 0x01
    reactStr[1][number]=length;
    3694:	fc 01       	movw	r30, r24
    3696:	ee 0f       	add	r30, r30
    3698:	ff 1f       	adc	r31, r31
    369a:	e3 5a       	subi	r30, 0xA3	; 163
    369c:	f6 4c       	sbci	r31, 0xC6	; 198
    369e:	20 83       	st	Z, r18
    36a0:	31 83       	std	Z+1, r19	; 0x01
    reactStr[2][number]=type;
    36a2:	88 0f       	add	r24, r24
    36a4:	99 1f       	adc	r25, r25
    36a6:	fc 01       	movw	r30, r24
    36a8:	e3 56       	subi	r30, 0x63	; 99
    36aa:	f6 4c       	sbci	r31, 0xC6	; 198
    36ac:	10 82       	st	Z, r1
    36ae:	11 82       	std	Z+1, r1	; 0x01
                                }

                            //Normal "use ... on ..." or "give ... to ..." action
                            } else if (actObj1.byteField[ACTION_ITEM] == actObj2.byteField[ITEM_NR]) {
                                SetResponse(elements++, actObj1.addrStr[ACTION_MSG], actObj1.lenStr[ACTION_MSG], GAME);
                                effect = actObj1.effect[2];
    36b0:	80 91 06 39 	lds	r24, 0x3906	; 0x803906 <actObj1.3989+0x2a>
    36b4:	90 e0       	ldi	r25, 0x00	; 0
    36b6:	80 93 3c 38 	sts	0x383C, r24	; 0x80383c <effect>
    36ba:	90 93 3d 38 	sts	0x383D, r25	; 0x80383d <effect+0x1>
                                UpdateState(actObj1.byteField[ACTION_STATE]);
    36be:	80 91 e6 38 	lds	r24, 0x38E6	; 0x8038e6 <actObj1.3989+0xa>
    36c2:	0e 94 fd 09 	call	0x13fa	; 0x13fa <UpdateState>
                                    }
                                }

                            //Normal "use ... on ..." or "give ... to ..." action
                            } else if (actObj1.byteField[ACTION_ITEM] == actObj2.byteField[ITEM_NR]) {
                                SetResponse(elements++, actObj1.addrStr[ACTION_MSG], actObj1.lenStr[ACTION_MSG], GAME);
    36c6:	10 2f       	mov	r17, r16
    36c8:	a0 c2       	rjmp	.+1344   	; 0x3c0a <ProcessInput+0xef0>
                                effect = actObj1.effect[2];
                                UpdateState(actObj1.byteField[ACTION_STATE]);
                                
                            } else {
                                if (data[0] == 'u') {
    36ca:	f3 01       	movw	r30, r6
    36cc:	80 81       	ld	r24, Z
    36ce:	85 37       	cpi	r24, 0x75	; 117
    36d0:	99 f4       	brne	.+38     	; 0x36f8 <ProcessInput+0x9de>
    return 0;
}

//
void SetResponse(uint8_t number, uint16_t address, uint16_t length, uint8_t type){
    reactStr[0][number]=address;
    36d2:	81 2f       	mov	r24, r17
    36d4:	90 e0       	ldi	r25, 0x00	; 0
    36d6:	fc 01       	movw	r30, r24
    36d8:	ee 0f       	add	r30, r30
    36da:	ff 1f       	adc	r31, r31
    36dc:	e3 5e       	subi	r30, 0xE3	; 227
    36de:	f6 4c       	sbci	r31, 0xC6	; 198
    36e0:	21 e0       	ldi	r18, 0x01	; 1
    36e2:	39 e7       	ldi	r19, 0x79	; 121
    36e4:	20 83       	st	Z, r18
    36e6:	31 83       	std	Z+1, r19	; 0x01
    reactStr[1][number]=length;
    36e8:	fc 01       	movw	r30, r24
    36ea:	ee 0f       	add	r30, r30
    36ec:	ff 1f       	adc	r31, r31
    36ee:	e3 5a       	subi	r30, 0xA3	; 163
    36f0:	f6 4c       	sbci	r31, 0xC6	; 198
    36f2:	2a e1       	ldi	r18, 0x1A	; 26
    36f4:	30 e0       	ldi	r19, 0x00	; 0
    36f6:	15 c0       	rjmp	.+42     	; 0x3722 <ProcessInput+0xa08>
                                UpdateState(actObj1.byteField[ACTION_STATE]);
                                
                            } else {
                                if (data[0] == 'u') {
                                    SetResponse(elements++, A_CANTUSE, L_CANTUSE, TEASER);
                                } else if (data[0] == 'g') {
    36f8:	87 36       	cpi	r24, 0x67	; 103
    36fa:	09 f0       	breq	.+2      	; 0x36fe <ProcessInput+0x9e4>
    36fc:	86 c2       	rjmp	.+1292   	; 0x3c0a <ProcessInput+0xef0>
    return 0;
}

//
void SetResponse(uint8_t number, uint16_t address, uint16_t length, uint8_t type){
    reactStr[0][number]=address;
    36fe:	81 2f       	mov	r24, r17
    3700:	90 e0       	ldi	r25, 0x00	; 0
    3702:	fc 01       	movw	r30, r24
    3704:	ee 0f       	add	r30, r30
    3706:	ff 1f       	adc	r31, r31
    3708:	e3 5e       	subi	r30, 0xE3	; 227
    370a:	f6 4c       	sbci	r31, 0xC6	; 198
    370c:	2f e9       	ldi	r18, 0x9F	; 159
    370e:	36 e7       	ldi	r19, 0x76	; 118
    3710:	20 83       	st	Z, r18
    3712:	31 83       	std	Z+1, r19	; 0x01
    reactStr[1][number]=length;
    3714:	fc 01       	movw	r30, r24
    3716:	ee 0f       	add	r30, r30
    3718:	ff 1f       	adc	r31, r31
    371a:	e3 5a       	subi	r30, 0xA3	; 163
    371c:	f6 4c       	sbci	r31, 0xC6	; 198
    371e:	28 e2       	ldi	r18, 0x28	; 40
    3720:	30 e0       	ldi	r19, 0x00	; 0
    3722:	20 83       	st	Z, r18
    3724:	31 83       	std	Z+1, r19	; 0x01
    reactStr[2][number]=type;
    3726:	88 0f       	add	r24, r24
    3728:	99 1f       	adc	r25, r25
    372a:	fc 01       	movw	r30, r24
    372c:	e3 56       	subi	r30, 0x63	; 99
    372e:	f6 4c       	sbci	r31, 0xC6	; 198
    3730:	81 e0       	ldi	r24, 0x01	; 1
    3732:	90 e0       	ldi	r25, 0x00	; 0
    3734:	80 83       	st	Z, r24
    3736:	91 83       	std	Z+1, r25	; 0x01
                                
                            } else {
                                if (data[0] == 'u') {
                                    SetResponse(elements++, A_CANTUSE, L_CANTUSE, TEASER);
                                } else if (data[0] == 'g') {
                                    SetResponse(elements++, A_CANTGIVE, L_CANTGIVE, TEASER);                                    
    3738:	1f 5f       	subi	r17, 0xFF	; 255
    373a:	67 c2       	rjmp	.+1230   	; 0x3c0a <ProcessInput+0xef0>
                            }
                        }
                    
                    //Talk to person, read or use object (without item)                          
                    } else {
                        PopulateObject(route[currDepth+1], &actObj1);
    373c:	6c ed       	ldi	r22, 0xDC	; 220
    373e:	78 e3       	ldi	r23, 0x38	; 56
    3740:	0e 94 f8 11 	call	0x23f0	; 0x23f0 <PopulateObject>
                        if ((data[0] == 't')&&((actObj1.byteField[ACTION_MASK]&TALK) == 0)) {
    3744:	d3 01       	movw	r26, r6
    3746:	8c 91       	ld	r24, X
    3748:	84 37       	cpi	r24, 0x74	; 116
    374a:	61 f5       	brne	.+88     	; 0x37a4 <ProcessInput+0xa8a>
    374c:	80 91 e4 38 	lds	r24, 0x38E4	; 0x8038e4 <actObj1.3989+0x8>
    3750:	83 fd       	sbrc	r24, 3
    3752:	43 c0       	rjmp	.+134    	; 0x37da <ProcessInput+0xac0>
    return 0;
}

//
void SetResponse(uint8_t number, uint16_t address, uint16_t length, uint8_t type){
    reactStr[0][number]=address;
    3754:	8b e1       	ldi	r24, 0x1B	; 27
    3756:	99 e7       	ldi	r25, 0x79	; 121
    3758:	80 93 1f 39 	sts	0x391F, r24	; 0x80391f <reactStr+0x2>
    375c:	90 93 20 39 	sts	0x3920, r25	; 0x803920 <reactStr+0x3>
    reactStr[1][number]=length;
    3760:	8e e1       	ldi	r24, 0x1E	; 30
    3762:	90 e0       	ldi	r25, 0x00	; 0
    3764:	80 93 5f 39 	sts	0x395F, r24	; 0x80395f <reactStr+0x42>
    3768:	90 93 60 39 	sts	0x3960, r25	; 0x803960 <reactStr+0x43>
    reactStr[2][number]=type;
    376c:	81 e0       	ldi	r24, 0x01	; 1
    376e:	90 e0       	ldi	r25, 0x00	; 0
    3770:	80 93 9f 39 	sts	0x399F, r24	; 0x80399f <reactStr+0x82>
    3774:	90 93 a0 39 	sts	0x39A0, r25	; 0x8039a0 <reactStr+0x83>
                    //Talk to person, read or use object (without item)                          
                    } else {
                        PopulateObject(route[currDepth+1], &actObj1);
                        if ((data[0] == 't')&&((actObj1.byteField[ACTION_MASK]&TALK) == 0)) {
                            SetResponse(elements++, A_WHYTALK, L_WHYTALK, TEASER);
                            SetResponse(elements++, actObj1.addrStr[NAME], actObj1.lenStr[NAME], GAME);
    3778:	80 91 f6 38 	lds	r24, 0x38F6	; 0x8038f6 <actObj1.3989+0x1a>
    377c:	90 91 f7 38 	lds	r25, 0x38F7	; 0x8038f7 <actObj1.3989+0x1b>
    return 0;
}

//
void SetResponse(uint8_t number, uint16_t address, uint16_t length, uint8_t type){
    reactStr[0][number]=address;
    3780:	20 91 e8 38 	lds	r18, 0x38E8	; 0x8038e8 <actObj1.3989+0xc>
    3784:	30 91 e9 38 	lds	r19, 0x38E9	; 0x8038e9 <actObj1.3989+0xd>
    3788:	20 93 21 39 	sts	0x3921, r18	; 0x803921 <reactStr+0x4>
    378c:	30 93 22 39 	sts	0x3922, r19	; 0x803922 <reactStr+0x5>
    reactStr[1][number]=length;
    3790:	80 93 61 39 	sts	0x3961, r24	; 0x803961 <reactStr+0x44>
    3794:	90 93 62 39 	sts	0x3962, r25	; 0x803962 <reactStr+0x45>
    reactStr[2][number]=type;
    3798:	10 92 a1 39 	sts	0x39A1, r1	; 0x8039a1 <reactStr+0x84>
    379c:	10 92 a2 39 	sts	0x39A2, r1	; 0x8039a2 <reactStr+0x85>
                    //Talk to person, read or use object (without item)                          
                    } else {
                        PopulateObject(route[currDepth+1], &actObj1);
                        if ((data[0] == 't')&&((actObj1.byteField[ACTION_MASK]&TALK) == 0)) {
                            SetResponse(elements++, A_WHYTALK, L_WHYTALK, TEASER);
                            SetResponse(elements++, actObj1.addrStr[NAME], actObj1.lenStr[NAME], GAME);
    37a0:	13 e0       	ldi	r17, 0x03	; 3
    37a2:	33 c2       	rjmp	.+1126   	; 0x3c0a <ProcessInput+0xef0>
                        } else if ((data[0] == 'u')&&((actObj1.byteField[ACTION_MASK]&USE) == 0)) {
    37a4:	85 37       	cpi	r24, 0x75	; 117
    37a6:	39 f4       	brne	.+14     	; 0x37b6 <ProcessInput+0xa9c>
    37a8:	80 91 e4 38 	lds	r24, 0x38E4	; 0x8038e4 <actObj1.3989+0x8>
    37ac:	84 fd       	sbrc	r24, 4
    37ae:	15 c0       	rjmp	.+42     	; 0x37da <ProcessInput+0xac0>
    return 0;
}

//
void SetResponse(uint8_t number, uint16_t address, uint16_t length, uint8_t type){
    reactStr[0][number]=address;
    37b0:	81 e0       	ldi	r24, 0x01	; 1
    37b2:	99 e7       	ldi	r25, 0x79	; 121
    37b4:	3b c2       	rjmp	.+1142   	; 0x3c2c <ProcessInput+0xf12>
                        if ((data[0] == 't')&&((actObj1.byteField[ACTION_MASK]&TALK) == 0)) {
                            SetResponse(elements++, A_WHYTALK, L_WHYTALK, TEASER);
                            SetResponse(elements++, actObj1.addrStr[NAME], actObj1.lenStr[NAME], GAME);
                        } else if ((data[0] == 'u')&&((actObj1.byteField[ACTION_MASK]&USE) == 0)) {
                            SetResponse(elements++, A_CANTUSE, L_CANTUSE, TEASER);
                        } else if ((data[0] == 'r')&&((actObj1.byteField[ACTION_MASK]&READ) == 0)) {
    37b6:	82 37       	cpi	r24, 0x72	; 114
    37b8:	69 f4       	brne	.+26     	; 0x37d4 <ProcessInput+0xaba>
    37ba:	80 91 e4 38 	lds	r24, 0x38E4	; 0x8038e4 <actObj1.3989+0x8>
    37be:	85 fd       	sbrc	r24, 5
    37c0:	0c c0       	rjmp	.+24     	; 0x37da <ProcessInput+0xac0>
    return 0;
}

//
void SetResponse(uint8_t number, uint16_t address, uint16_t length, uint8_t type){
    reactStr[0][number]=address;
    37c2:	86 ee       	ldi	r24, 0xE6	; 230
    37c4:	98 e7       	ldi	r25, 0x78	; 120
    37c6:	80 93 1f 39 	sts	0x391F, r24	; 0x80391f <reactStr+0x2>
    37ca:	90 93 20 39 	sts	0x3920, r25	; 0x803920 <reactStr+0x3>
    reactStr[1][number]=length;
    37ce:	8b e1       	ldi	r24, 0x1B	; 27
    37d0:	90 e0       	ldi	r25, 0x00	; 0
    37d2:	78 cb       	rjmp	.-2320   	; 0x2ec4 <ProcessInput+0x1aa>
                            SetResponse(elements++, actObj1.addrStr[NAME], actObj1.lenStr[NAME], GAME);
                        } else if ((data[0] == 'u')&&((actObj1.byteField[ACTION_MASK]&USE) == 0)) {
                            SetResponse(elements++, A_CANTUSE, L_CANTUSE, TEASER);
                        } else if ((data[0] == 'r')&&((actObj1.byteField[ACTION_MASK]&READ) == 0)) {
                            SetResponse(elements++, A_CANTREAD, L_CANTREAD, TEASER);
                        } else if (data[0] == 'g'){ 
    37d4:	87 36       	cpi	r24, 0x67	; 103
    37d6:	09 f4       	brne	.+2      	; 0x37da <ProcessInput+0xac0>
    37d8:	e0 ca       	rjmp	.-2624   	; 0x2d9a <ProcessInput+0x80>
                            SetResponse(elements++, A_NOTPOSSIBLE, L_NOTPOSSIBLE, TEASER);  
                        } else {

                            //Special game, not enough characters
                            if (actObj1.lenStr[ACTION_STR1] == 1) {
    37da:	00 91 fa 38 	lds	r16, 0x38FA	; 0x8038fa <actObj1.3989+0x1e>
    37de:	10 91 fb 38 	lds	r17, 0x38FB	; 0x8038fb <actObj1.3989+0x1f>
    37e2:	01 30       	cpi	r16, 0x01	; 1
    37e4:	11 05       	cpc	r17, r1
    37e6:	09 f5       	brne	.+66     	; 0x382a <ProcessInput+0xb10>
                                ExtEERead(actObj1.addrStr[ACTION_STR1], 1, GAME, &data[2]);
    37e8:	93 01       	movw	r18, r6
    37ea:	2e 5f       	subi	r18, 0xFE	; 254
    37ec:	3f 4f       	sbci	r19, 0xFF	; 255
    37ee:	40 e0       	ldi	r20, 0x00	; 0
    37f0:	61 e0       	ldi	r22, 0x01	; 1
    37f2:	80 91 ec 38 	lds	r24, 0x38EC	; 0x8038ec <actObj1.3989+0x10>
    37f6:	90 91 ed 38 	lds	r25, 0x38ED	; 0x8038ed <actObj1.3989+0x11>
    37fa:	0e 94 53 08 	call	0x10a6	; 0x10a6 <ExtEERead>
                                if (data[2] == '1') {
    37fe:	f3 01       	movw	r30, r6
    3800:	82 81       	ldd	r24, Z+2	; 0x02
    3802:	81 33       	cpi	r24, 0x31	; 49
    3804:	09 f0       	breq	.+2      	; 0x3808 <ProcessInput+0xaee>
    3806:	13 cd       	rjmp	.-1498   	; 0x322e <ProcessInput+0x514>
    return 0;
}

//
void SetResponse(uint8_t number, uint16_t address, uint16_t length, uint8_t type){
    reactStr[0][number]=address;
    3808:	85 e2       	ldi	r24, 0x25	; 37
    380a:	95 e7       	ldi	r25, 0x75	; 117
    380c:	80 93 1f 39 	sts	0x391F, r24	; 0x80391f <reactStr+0x2>
    3810:	90 93 20 39 	sts	0x3920, r25	; 0x803920 <reactStr+0x3>
    reactStr[1][number]=length;
    3814:	8b e2       	ldi	r24, 0x2B	; 43
    3816:	90 e0       	ldi	r25, 0x00	; 0
    3818:	80 93 5f 39 	sts	0x395F, r24	; 0x80395f <reactStr+0x42>
    381c:	90 93 60 39 	sts	0x3960, r25	; 0x803960 <reactStr+0x43>
    reactStr[2][number]=type;
    3820:	00 93 9f 39 	sts	0x399F, r16	; 0x80399f <reactStr+0x82>
    3824:	10 93 a0 39 	sts	0x39A0, r17	; 0x8039a0 <reactStr+0x83>
    3828:	57 cb       	rjmp	.-2386   	; 0x2ed8 <ProcessInput+0x1be>
                                if (data[2] == '1') {
                                    SetResponse(elements++, A_PLEASEOFFER, L_PLEASEOFFER, TEASER);
                                }

                            //General request
                            } else if (actObj1.lenStr[ACTION_STR1]) {
    382a:	01 15       	cp	r16, r1
    382c:	11 05       	cpc	r17, r1
    382e:	09 f4       	brne	.+2      	; 0x3832 <ProcessInput+0xb18>
    3830:	58 c0       	rjmp	.+176    	; 0x38e2 <ProcessInput+0xbc8>
    return 0;
}

//
void SetResponse(uint8_t number, uint16_t address, uint16_t length, uint8_t type){
    reactStr[0][number]=address;
    3832:	80 91 ec 38 	lds	r24, 0x38EC	; 0x8038ec <actObj1.3989+0x10>
    3836:	90 91 ed 38 	lds	r25, 0x38ED	; 0x8038ed <actObj1.3989+0x11>
    383a:	80 93 1f 39 	sts	0x391F, r24	; 0x80391f <reactStr+0x2>
    383e:	90 93 20 39 	sts	0x3920, r25	; 0x803920 <reactStr+0x3>
    reactStr[1][number]=length;
    3842:	00 93 5f 39 	sts	0x395F, r16	; 0x80395f <reactStr+0x42>
    3846:	10 93 60 39 	sts	0x3960, r17	; 0x803960 <reactStr+0x43>
    reactStr[2][number]=type;
    384a:	10 92 9f 39 	sts	0x399F, r1	; 0x80399f <reactStr+0x82>
    384e:	10 92 a0 39 	sts	0x39A0, r1	; 0x8039a0 <reactStr+0x83>
    return 0;
}

//
void SetResponse(uint8_t number, uint16_t address, uint16_t length, uint8_t type){
    reactStr[0][number]=address;
    3852:	89 e5       	ldi	r24, 0x59	; 89
    3854:	9a e7       	ldi	r25, 0x7A	; 122
    3856:	80 93 21 39 	sts	0x3921, r24	; 0x803921 <reactStr+0x4>
    385a:	90 93 22 39 	sts	0x3922, r25	; 0x803922 <reactStr+0x5>
    reactStr[1][number]=length;
    385e:	82 e0       	ldi	r24, 0x02	; 2
    3860:	90 e0       	ldi	r25, 0x00	; 0
    3862:	80 93 61 39 	sts	0x3961, r24	; 0x803961 <reactStr+0x44>
    3866:	90 93 62 39 	sts	0x3962, r25	; 0x803962 <reactStr+0x45>
    reactStr[2][number]=type;
    386a:	81 e0       	ldi	r24, 0x01	; 1
    386c:	90 e0       	ldi	r25, 0x00	; 0
    386e:	80 93 a1 39 	sts	0x39A1, r24	; 0x8039a1 <reactStr+0x84>
    3872:	90 93 a2 39 	sts	0x39A2, r25	; 0x8039a2 <reactStr+0x85>
    return 0;
}

//
void SetResponse(uint8_t number, uint16_t address, uint16_t length, uint8_t type){
    reactStr[0][number]=address;
    3876:	2d ea       	ldi	r18, 0xAD	; 173
    3878:	38 e7       	ldi	r19, 0x78	; 120
    387a:	20 93 23 39 	sts	0x3923, r18	; 0x803923 <reactStr+0x6>
    387e:	30 93 24 39 	sts	0x3924, r19	; 0x803924 <reactStr+0x7>
    reactStr[1][number]=length;
    3882:	22 e1       	ldi	r18, 0x12	; 18
    3884:	30 e0       	ldi	r19, 0x00	; 0
    3886:	20 93 63 39 	sts	0x3963, r18	; 0x803963 <reactStr+0x46>
    388a:	30 93 64 39 	sts	0x3964, r19	; 0x803964 <reactStr+0x47>
    reactStr[2][number]=type;
    388e:	80 93 a3 39 	sts	0x39A3, r24	; 0x8039a3 <reactStr+0x86>
    3892:	90 93 a4 39 	sts	0x39A4, r25	; 0x8039a4 <reactStr+0x87>
                            //General request
                            } else if (actObj1.lenStr[ACTION_STR1]) {
                                SetResponse(elements++, actObj1.addrStr[ACTION_STR1], actObj1.lenStr[ACTION_STR1], GAME);
                                SetResponse(elements++, A_LF, 2, TEASER);
                                SetResponse(elements++, A_RESPONSE, L_RESPONSE, TEASER);
                                if (actObj1.lenStr[ACTION_STR2]>(INP_LENGTH-1)) actObj1.lenStr[ACTION_STR2] = (INP_LENGTH-1);
    3896:	80 91 fc 38 	lds	r24, 0x38FC	; 0x8038fc <actObj1.3989+0x20>
    389a:	90 91 fd 38 	lds	r25, 0x38FD	; 0x8038fd <actObj1.3989+0x21>
    389e:	40 97       	sbiw	r24, 0x10	; 16
    38a0:	30 f0       	brcs	.+12     	; 0x38ae <ProcessInput+0xb94>
    38a2:	8f e0       	ldi	r24, 0x0F	; 15
    38a4:	90 e0       	ldi	r25, 0x00	; 0
    38a6:	80 93 fc 38 	sts	0x38FC, r24	; 0x8038fc <actObj1.3989+0x20>
    38aa:	90 93 fd 38 	sts	0x38FD, r25	; 0x8038fd <actObj1.3989+0x21>
                                ExtEERead(actObj1.addrStr[ACTION_STR2], actObj1.lenStr[ACTION_STR2], GAME, (uint8_t *)&specialInput[0]);
    38ae:	2c e0       	ldi	r18, 0x0C	; 12
    38b0:	39 e3       	ldi	r19, 0x39	; 57
    38b2:	40 e0       	ldi	r20, 0x00	; 0
    38b4:	60 91 fc 38 	lds	r22, 0x38FC	; 0x8038fc <actObj1.3989+0x20>
    38b8:	80 91 ee 38 	lds	r24, 0x38EE	; 0x8038ee <actObj1.3989+0x12>
    38bc:	90 91 ef 38 	lds	r25, 0x38EF	; 0x8038ef <actObj1.3989+0x13>
    38c0:	0e 94 53 08 	call	0x10a6	; 0x10a6 <ExtEERead>
                                UnflipData(actObj1.lenStr[ACTION_STR2], (uint8_t *)&specialInput[0]);
    38c4:	6c e0       	ldi	r22, 0x0C	; 12
    38c6:	79 e3       	ldi	r23, 0x39	; 57
    38c8:	80 91 fc 38 	lds	r24, 0x38FC	; 0x8038fc <actObj1.3989+0x20>
    38cc:	0e 94 0e 11 	call	0x221c	; 0x221c <UnflipData>
                                specialInput[actObj1.lenStr[ACTION_STR2]] = 0;
    38d0:	e0 91 fc 38 	lds	r30, 0x38FC	; 0x8038fc <actObj1.3989+0x20>
    38d4:	f0 91 fd 38 	lds	r31, 0x38FD	; 0x8038fd <actObj1.3989+0x21>
    38d8:	e4 5f       	subi	r30, 0xF4	; 244
    38da:	f6 4c       	sbci	r31, 0xC6	; 198
    38dc:	10 82       	st	Z, r1

                            //General request
                            } else if (actObj1.lenStr[ACTION_STR1]) {
                                SetResponse(elements++, actObj1.addrStr[ACTION_STR1], actObj1.lenStr[ACTION_STR1], GAME);
                                SetResponse(elements++, A_LF, 2, TEASER);
                                SetResponse(elements++, A_RESPONSE, L_RESPONSE, TEASER);
    38de:	14 e0       	ldi	r17, 0x04	; 4
    38e0:	94 c1       	rjmp	.+808    	; 0x3c0a <ProcessInput+0xef0>
                                ExtEERead(actObj1.addrStr[ACTION_STR2], actObj1.lenStr[ACTION_STR2], GAME, (uint8_t *)&specialInput[0]);
                                UnflipData(actObj1.lenStr[ACTION_STR2], (uint8_t *)&specialInput[0]);
                                specialInput[actObj1.lenStr[ACTION_STR2]] = 0;
                            
                            //Normal action    
                            } else if (CheckState(actObj1.byteField[ACTION_ACL])){
    38e2:	80 91 e3 38 	lds	r24, 0x38E3	; 0x8038e3 <actObj1.3989+0x7>
    38e6:	0e 94 1e 0a 	call	0x143c	; 0x143c <CheckState>
    38ea:	88 23       	and	r24, r24
    38ec:	01 f1       	breq	.+64     	; 0x392e <ProcessInput+0xc14>
                                SetResponse(elements++, actObj1.addrStr[ACTION_MSG], actObj1.lenStr[ACTION_MSG], GAME);
    38ee:	80 91 02 39 	lds	r24, 0x3902	; 0x803902 <actObj1.3989+0x26>
    38f2:	90 91 03 39 	lds	r25, 0x3903	; 0x803903 <actObj1.3989+0x27>
    return 0;
}

//
void SetResponse(uint8_t number, uint16_t address, uint16_t length, uint8_t type){
    reactStr[0][number]=address;
    38f6:	20 91 f4 38 	lds	r18, 0x38F4	; 0x8038f4 <actObj1.3989+0x18>
    38fa:	30 91 f5 38 	lds	r19, 0x38F5	; 0x8038f5 <actObj1.3989+0x19>
    38fe:	20 93 1f 39 	sts	0x391F, r18	; 0x80391f <reactStr+0x2>
    3902:	30 93 20 39 	sts	0x3920, r19	; 0x803920 <reactStr+0x3>
    reactStr[1][number]=length;
    3906:	80 93 5f 39 	sts	0x395F, r24	; 0x80395f <reactStr+0x42>
    390a:	90 93 60 39 	sts	0x3960, r25	; 0x803960 <reactStr+0x43>
    reactStr[2][number]=type;
    390e:	10 92 9f 39 	sts	0x399F, r1	; 0x80399f <reactStr+0x82>
    3912:	10 92 a0 39 	sts	0x39A0, r1	; 0x8039a0 <reactStr+0x83>
                                specialInput[actObj1.lenStr[ACTION_STR2]] = 0;
                            
                            //Normal action    
                            } else if (CheckState(actObj1.byteField[ACTION_ACL])){
                                SetResponse(elements++, actObj1.addrStr[ACTION_MSG], actObj1.lenStr[ACTION_MSG], GAME);
                                effect = actObj1.effect[2];
    3916:	80 91 06 39 	lds	r24, 0x3906	; 0x803906 <actObj1.3989+0x2a>
    391a:	90 e0       	ldi	r25, 0x00	; 0
    391c:	80 93 3c 38 	sts	0x383C, r24	; 0x80383c <effect>
    3920:	90 93 3d 38 	sts	0x383D, r25	; 0x80383d <effect+0x1>
                                UpdateState(actObj1.byteField[ACTION_STATE]);
    3924:	80 91 e6 38 	lds	r24, 0x38E6	; 0x8038e6 <actObj1.3989+0xa>
    3928:	0e 94 fd 09 	call	0x13fa	; 0x13fa <UpdateState>
    392c:	d5 ca       	rjmp	.-2646   	; 0x2ed8 <ProcessInput+0x1be>
                            } else {
                                SetResponse(elements++, actObj1.addrStr[ACTION_ACL_MSG], actObj1.lenStr[ACTION_ACL_MSG], GAME);
    392e:	80 91 00 39 	lds	r24, 0x3900	; 0x803900 <actObj1.3989+0x24>
    3932:	90 91 01 39 	lds	r25, 0x3901	; 0x803901 <actObj1.3989+0x25>
    return 0;
}

//
void SetResponse(uint8_t number, uint16_t address, uint16_t length, uint8_t type){
    reactStr[0][number]=address;
    3936:	20 91 f2 38 	lds	r18, 0x38F2	; 0x8038f2 <actObj1.3989+0x16>
    393a:	30 91 f3 38 	lds	r19, 0x38F3	; 0x8038f3 <actObj1.3989+0x17>
    393e:	20 93 1f 39 	sts	0x391F, r18	; 0x80391f <reactStr+0x2>
    3942:	30 93 20 39 	sts	0x3920, r19	; 0x803920 <reactStr+0x3>
    reactStr[1][number]=length;
    3946:	80 93 5f 39 	sts	0x395F, r24	; 0x80395f <reactStr+0x42>
    394a:	90 93 60 39 	sts	0x3960, r25	; 0x803960 <reactStr+0x43>
    reactStr[2][number]=type;
    394e:	10 92 9f 39 	sts	0x399F, r1	; 0x80399f <reactStr+0x82>
    3952:	10 92 a0 39 	sts	0x39A0, r1	; 0x8039a0 <reactStr+0x83>
                                SetResponse(elements++, actObj1.addrStr[ACTION_MSG], actObj1.lenStr[ACTION_MSG], GAME);
                                effect = actObj1.effect[2];
                                UpdateState(actObj1.byteField[ACTION_STATE]);
                            } else {
                                SetResponse(elements++, actObj1.addrStr[ACTION_ACL_MSG], actObj1.lenStr[ACTION_ACL_MSG], GAME);
                                effect = actObj1.effect[1];
    3956:	80 91 05 39 	lds	r24, 0x3905	; 0x803905 <actObj1.3989+0x29>
    395a:	90 e0       	ldi	r25, 0x00	; 0
    395c:	80 93 3c 38 	sts	0x383C, r24	; 0x80383c <effect>
    3960:	90 93 3d 38 	sts	0x383D, r25	; 0x80383d <effect+0x1>
    3964:	b9 ca       	rjmp	.-2702   	; 0x2ed8 <ProcessInput+0x1be>
                        }
                    }

                //Person or object not found
                } else {
                    if ((data[0] == 't')||(data[0] == 'g')){
    3966:	d3 01       	movw	r26, r6
    3968:	8c 91       	ld	r24, X
    396a:	84 37       	cpi	r24, 0x74	; 116
    396c:	11 f0       	breq	.+4      	; 0x3972 <ProcessInput+0xc58>
    396e:	87 36       	cpi	r24, 0x67	; 103
    3970:	19 f4       	brne	.+6      	; 0x3978 <ProcessInput+0xc5e>
    return 0;
}

//
void SetResponse(uint8_t number, uint16_t address, uint16_t length, uint8_t type){
    reactStr[0][number]=address;
    3972:	89 e3       	ldi	r24, 0x39	; 57
    3974:	99 e7       	ldi	r25, 0x79	; 121
    3976:	02 c0       	rjmp	.+4      	; 0x397c <ProcessInput+0xc62>
    3978:	8d e4       	ldi	r24, 0x4D	; 77
    397a:	99 e7       	ldi	r25, 0x79	; 121
    397c:	80 93 1f 39 	sts	0x391F, r24	; 0x80391f <reactStr+0x2>
    3980:	90 93 20 39 	sts	0x3920, r25	; 0x803920 <reactStr+0x3>
    reactStr[1][number]=length;
    3984:	84 e1       	ldi	r24, 0x14	; 20
    3986:	90 e0       	ldi	r25, 0x00	; 0
    3988:	9d ca       	rjmp	.-2758   	; 0x2ec4 <ProcessInput+0x1aa>
                    }
                }
            }
        
        //Special answer given
        } else if (data[0] == 'a'){
    398a:	81 36       	cpi	r24, 0x61	; 97
    398c:	09 f0       	breq	.+2      	; 0x3990 <ProcessInput+0xc76>
    398e:	4f cc       	rjmp	.-1890   	; 0x322e <ProcessInput+0x514>
            
            //Priest offerings
            if (specialPassed >= 2) {
    3990:	80 91 0b 39 	lds	r24, 0x390B	; 0x80390b <specialPassed>
    3994:	82 30       	cpi	r24, 0x02	; 2
    3996:	08 f4       	brcc	.+2      	; 0x399a <ProcessInput+0xc80>
    3998:	c7 c0       	rjmp	.+398    	; 0x3b28 <ProcessInput+0xe0e>
                if (data[1] > 0) {
    399a:	f3 01       	movw	r30, r6
    399c:	21 81       	ldd	r18, Z+1	; 0x01
    399e:	22 23       	and	r18, r18
    39a0:	09 f4       	brne	.+2      	; 0x39a4 <ProcessInput+0xc8a>
    39a2:	af c0       	rjmp	.+350    	; 0x3b02 <ProcessInput+0xde8>

                    //uint8_t  digit[10] = {0, 0, 0, 0, 0, 0, 0, 0, 0, 0};
                    uint8_t  digit[8] = {0, 0, 0, 0, 0, 0, 0, 0};
    39a4:	ce 01       	movw	r24, r28
    39a6:	01 96       	adiw	r24, 0x01	; 1
    39a8:	7c 01       	movw	r14, r24
    39aa:	88 e0       	ldi	r24, 0x08	; 8
    39ac:	d7 01       	movw	r26, r14
    39ae:	1d 92       	st	X+, r1
    39b0:	8a 95       	dec	r24
    39b2:	e9 f7       	brne	.-6      	; 0x39ae <ProcessInput+0xc94>
                        answer = ((offering  & 2) << 19) + ((offering  & 1) << 8) + \
                        ((element   & 2) << 15) + ((element   & 1) << 4) + \
                        ((kneelings & 2) << 11) + ((kneelings & 1))
                        answer = answer << (3-person)
                    */
                    data[1]-='0'; // item 31 needs to become something that results in 0 when doing %4
    39b4:	20 53       	subi	r18, 0x30	; 48
    39b6:	21 83       	std	Z+1, r18	; 0x01
                    data[2]-='1';
    39b8:	32 81       	ldd	r19, Z+2	; 0x02
    39ba:	31 53       	subi	r19, 0x31	; 49
    39bc:	32 83       	std	Z+2, r19	; 0x02
                    if (data[3] == 'a') data[3] = 1;
    39be:	83 81       	ldd	r24, Z+3	; 0x03
    39c0:	81 36       	cpi	r24, 0x61	; 97
    39c2:	11 f4       	brne	.+4      	; 0x39c8 <ProcessInput+0xcae>
    39c4:	81 e0       	ldi	r24, 0x01	; 1
    39c6:	0c c0       	rjmp	.+24     	; 0x39e0 <ProcessInput+0xcc6>
                    else if (data[3] == 'e') data[3] = 0;
    39c8:	85 36       	cpi	r24, 0x65	; 101
    39ca:	19 f4       	brne	.+6      	; 0x39d2 <ProcessInput+0xcb8>
    39cc:	f3 01       	movw	r30, r6
    39ce:	13 82       	std	Z+3, r1	; 0x03
    39d0:	08 c0       	rjmp	.+16     	; 0x39e2 <ProcessInput+0xcc8>
                    else if (data[3] == 'f') data[3] = 3;
    39d2:	86 36       	cpi	r24, 0x66	; 102
    39d4:	19 f4       	brne	.+6      	; 0x39dc <ProcessInput+0xcc2>
    39d6:	83 e0       	ldi	r24, 0x03	; 3
    39d8:	83 83       	std	Z+3, r24	; 0x03
    39da:	03 c0       	rjmp	.+6      	; 0x39e2 <ProcessInput+0xcc8>
                    else data[3] = 2;
    39dc:	82 e0       	ldi	r24, 0x02	; 2
    39de:	f3 01       	movw	r30, r6
    39e0:	83 83       	std	Z+3, r24	; 0x03

                    if (data[1] & 2) answer += (1UL << 20);
    39e2:	21 fd       	sbrc	r18, 1
    39e4:	04 c0       	rjmp	.+8      	; 0x39ee <ProcessInput+0xcd4>
            if (specialPassed >= 2) {
                if (data[1] > 0) {

                    //uint8_t  digit[10] = {0, 0, 0, 0, 0, 0, 0, 0, 0, 0};
                    uint8_t  digit[8] = {0, 0, 0, 0, 0, 0, 0, 0};
                    uint32_t answer = 0;
    39e6:	80 e0       	ldi	r24, 0x00	; 0
    39e8:	90 e0       	ldi	r25, 0x00	; 0
    39ea:	dc 01       	movw	r26, r24
    39ec:	04 c0       	rjmp	.+8      	; 0x39f6 <ProcessInput+0xcdc>
                    if (data[3] == 'a') data[3] = 1;
                    else if (data[3] == 'e') data[3] = 0;
                    else if (data[3] == 'f') data[3] = 3;
                    else data[3] = 2;

                    if (data[1] & 2) answer += (1UL << 20);
    39ee:	80 e0       	ldi	r24, 0x00	; 0
    39f0:	90 e0       	ldi	r25, 0x00	; 0
    39f2:	a0 e1       	ldi	r26, 0x10	; 16
    39f4:	b0 e0       	ldi	r27, 0x00	; 0
                    if (data[1] & 1) answer += (1 << 8);
    39f6:	20 ff       	sbrs	r18, 0
    39f8:	03 c0       	rjmp	.+6      	; 0x3a00 <ProcessInput+0xce6>
    39fa:	9f 5f       	subi	r25, 0xFF	; 255
    39fc:	af 4f       	sbci	r26, 0xFF	; 255
    39fe:	bf 4f       	sbci	r27, 0xFF	; 255
                    if (data[3] & 2) answer += (1UL << 16);
    3a00:	f3 01       	movw	r30, r6
    3a02:	23 81       	ldd	r18, Z+3	; 0x03
    3a04:	21 fd       	sbrc	r18, 1
    3a06:	11 96       	adiw	r26, 0x01	; 1
                    if (data[3] & 1) answer += (1 << 4);
    3a08:	20 ff       	sbrs	r18, 0
    3a0a:	03 c0       	rjmp	.+6      	; 0x3a12 <ProcessInput+0xcf8>
    3a0c:	40 96       	adiw	r24, 0x10	; 16
    3a0e:	a1 1d       	adc	r26, r1
    3a10:	b1 1d       	adc	r27, r1
                    if (data[2] & 2) answer += (1 << 12);
    3a12:	31 ff       	sbrs	r19, 1
    3a14:	03 c0       	rjmp	.+6      	; 0x3a1c <ProcessInput+0xd02>
    3a16:	90 5f       	subi	r25, 0xF0	; 240
    3a18:	af 4f       	sbci	r26, 0xFF	; 255
    3a1a:	bf 4f       	sbci	r27, 0xFF	; 255
                    if (data[2] & 1) answer += 1;
    3a1c:	30 ff       	sbrs	r19, 0
    3a1e:	03 c0       	rjmp	.+6      	; 0x3a26 <ProcessInput+0xd0c>
    3a20:	01 96       	adiw	r24, 0x01	; 1
    3a22:	a1 1d       	adc	r26, r1
    3a24:	b1 1d       	adc	r27, r1
                    answer <<= (4 - whoami);            
    3a26:	40 91 3f 38 	lds	r20, 0x383F	; 0x80383f <whoami>
    3a2a:	24 e0       	ldi	r18, 0x04	; 4
    3a2c:	30 e0       	ldi	r19, 0x00	; 0
    3a2e:	24 1b       	sub	r18, r20
    3a30:	31 09       	sbc	r19, r1
    3a32:	04 c0       	rjmp	.+8      	; 0x3a3c <ProcessInput+0xd22>
    3a34:	88 0f       	add	r24, r24
    3a36:	99 1f       	adc	r25, r25
    3a38:	aa 1f       	adc	r26, r26
    3a3a:	bb 1f       	adc	r27, r27
    3a3c:	2a 95       	dec	r18
    3a3e:	d2 f7       	brpl	.-12     	; 0x3a34 <ProcessInput+0xd1a>
    return 0;
}

//
void SetResponse(uint8_t number, uint16_t address, uint16_t length, uint8_t type){
    reactStr[0][number]=address;
    3a40:	28 ec       	ldi	r18, 0xC8	; 200
    3a42:	34 e7       	ldi	r19, 0x74	; 116
    3a44:	20 93 1f 39 	sts	0x391F, r18	; 0x80391f <reactStr+0x2>
    3a48:	30 93 20 39 	sts	0x3920, r19	; 0x803920 <reactStr+0x3>
    reactStr[1][number]=length;
    3a4c:	20 e2       	ldi	r18, 0x20	; 32
    3a4e:	30 e0       	ldi	r19, 0x00	; 0
    3a50:	20 93 5f 39 	sts	0x395F, r18	; 0x80395f <reactStr+0x42>
    3a54:	30 93 60 39 	sts	0x3960, r19	; 0x803960 <reactStr+0x43>
    reactStr[2][number]=type;
    3a58:	21 e0       	ldi	r18, 0x01	; 1
    3a5a:	30 e0       	ldi	r19, 0x00	; 0
    3a5c:	20 93 9f 39 	sts	0x399F, r18	; 0x80399f <reactStr+0x82>
    3a60:	30 93 a0 39 	sts	0x39A0, r19	; 0x8039a0 <reactStr+0x83>
    return 0;
}

//
void SetResponse(uint8_t number, uint16_t address, uint16_t length, uint8_t type){
    reactStr[0][number]=address;
    3a64:	4d e9       	ldi	r20, 0x9D	; 157
    3a66:	54 e7       	ldi	r21, 0x74	; 116
    3a68:	40 93 21 39 	sts	0x3921, r20	; 0x803921 <reactStr+0x4>
    3a6c:	50 93 22 39 	sts	0x3922, r21	; 0x803922 <reactStr+0x5>
    reactStr[1][number]=length;
    3a70:	42 e0       	ldi	r20, 0x02	; 2
    3a72:	50 e0       	ldi	r21, 0x00	; 0
    3a74:	40 93 61 39 	sts	0x3961, r20	; 0x803961 <reactStr+0x44>
    3a78:	50 93 62 39 	sts	0x3962, r21	; 0x803962 <reactStr+0x45>
    reactStr[2][number]=type;
    3a7c:	20 93 a1 39 	sts	0x39A1, r18	; 0x8039a1 <reactStr+0x84>
    3a80:	30 93 a2 39 	sts	0x39A2, r19	; 0x8039a2 <reactStr+0x85>

                    SetResponse(elements++, A_YOURPART, L_YOURPART, TEASER);
                    SetResponse(elements++, A_HEXPREFIX, L_HEXPREFIX, TEASER);
                    
                    //Set up sending out number
                    for (n=7; n>=0; --n) {
    3a84:	07 e0       	ldi	r16, 0x07	; 7
                        digit[n] = answer % 16;
    3a86:	f7 01       	movw	r30, r14
    3a88:	e0 0f       	add	r30, r16
    3a8a:	f1 1d       	adc	r31, r1
    3a8c:	28 2f       	mov	r18, r24
    3a8e:	2f 70       	andi	r18, 0x0F	; 15
    3a90:	20 83       	st	Z, r18
                        answer /= 16;
    3a92:	44 e0       	ldi	r20, 0x04	; 4
    3a94:	b6 95       	lsr	r27
    3a96:	a7 95       	ror	r26
    3a98:	97 95       	ror	r25
    3a9a:	87 95       	ror	r24
    3a9c:	4a 95       	dec	r20
    3a9e:	d1 f7       	brne	.-12     	; 0x3a94 <ProcessInput+0xd7a>
                        if (answer == 0) break;
    3aa0:	00 97       	sbiw	r24, 0x00	; 0
    3aa2:	a1 05       	cpc	r26, r1
    3aa4:	b1 05       	cpc	r27, r1
    3aa6:	49 f4       	brne	.+18     	; 0x3aba <ProcessInput+0xda0>
    3aa8:	2d e1       	ldi	r18, 0x1D	; 29
    3aaa:	c2 2e       	mov	r12, r18
    3aac:	29 e3       	ldi	r18, 0x39	; 57
    3aae:	d2 2e       	mov	r13, r18
    3ab0:	13 e0       	ldi	r17, 0x03	; 3
}

//
void SetResponse(uint8_t number, uint16_t address, uint16_t length, uint8_t type){
    reactStr[0][number]=address;
    reactStr[1][number]=length;
    3ab2:	aa 24       	eor	r10, r10
    3ab4:	a3 94       	inc	r10
    3ab6:	b1 2c       	mov	r11, r1
    3ab8:	02 c0       	rjmp	.+4      	; 0x3abe <ProcessInput+0xda4>

                    SetResponse(elements++, A_YOURPART, L_YOURPART, TEASER);
                    SetResponse(elements++, A_HEXPREFIX, L_HEXPREFIX, TEASER);
                    
                    //Set up sending out number
                    for (n=7; n>=0; --n) {
    3aba:	01 50       	subi	r16, 0x01	; 1
                        digit[n] = answer % 16;
                        answer /= 16;
                        if (answer == 0) break;
                    }
    3abc:	e4 cf       	rjmp	.-56     	; 0x3a86 <ProcessInput+0xd6c>
    3abe:	b2 e0       	ldi	r27, 0x02	; 2
    3ac0:	cb 0e       	add	r12, r27
    3ac2:	d1 1c       	adc	r13, r1

                    for (; n<8; ++n) {
    3ac4:	08 30       	cpi	r16, 0x08	; 8
    3ac6:	08 f0       	brcs	.+2      	; 0x3aca <ProcessInput+0xdb0>
    3ac8:	9e c0       	rjmp	.+316    	; 0x3c06 <ProcessInput+0xeec>
                        SetResponse(elements++, A_DIGITS+digit[n], 1, TEASER);
    3aca:	1f 5f       	subi	r17, 0xFF	; 255
    3acc:	f7 01       	movw	r30, r14
    3ace:	e0 0f       	add	r30, r16
    3ad0:	f1 1d       	adc	r31, r1
    return 0;
}

//
void SetResponse(uint8_t number, uint16_t address, uint16_t length, uint8_t type){
    reactStr[0][number]=address;
    3ad2:	80 81       	ld	r24, Z
    3ad4:	90 e0       	ldi	r25, 0x00	; 0
    3ad6:	83 57       	subi	r24, 0x73	; 115
    3ad8:	9b 48       	sbci	r25, 0x8B	; 139
    3ada:	d6 01       	movw	r26, r12
    3adc:	14 96       	adiw	r26, 0x04	; 4
    3ade:	8d 93       	st	X+, r24
    3ae0:	9c 93       	st	X, r25
    3ae2:	15 97       	sbiw	r26, 0x05	; 5
    reactStr[1][number]=length;
    3ae4:	f6 01       	movw	r30, r12
    3ae6:	ec 5b       	subi	r30, 0xBC	; 188
    3ae8:	ff 4f       	sbci	r31, 0xFF	; 255
    3aea:	a0 82       	st	Z, r10
    3aec:	b1 82       	std	Z+1, r11	; 0x01
    reactStr[2][number]=type;
    3aee:	e0 5c       	subi	r30, 0xC0	; 192
    3af0:	ff 4f       	sbci	r31, 0xFF	; 255
    3af2:	a0 82       	st	Z, r10
    3af4:	b1 82       	std	Z+1, r11	; 0x01
                        if (answer == 0) break;
                    }

                    for (; n<8; ++n) {
                        SetResponse(elements++, A_DIGITS+digit[n], 1, TEASER);
                        UpdateState(actObj1.byteField[ACTION_STATE]);
    3af6:	80 91 e6 38 	lds	r24, 0x38E6	; 0x8038e6 <actObj1.3989+0xa>
    3afa:	0e 94 fd 09 	call	0x13fa	; 0x13fa <UpdateState>
                        digit[n] = answer % 16;
                        answer /= 16;
                        if (answer == 0) break;
                    }

                    for (; n<8; ++n) {
    3afe:	0f 5f       	subi	r16, 0xFF	; 255
    3b00:	de cf       	rjmp	.-68     	; 0x3abe <ProcessInput+0xda4>
    return 0;
}

//
void SetResponse(uint8_t number, uint16_t address, uint16_t length, uint8_t type){
    reactStr[0][number]=address;
    3b02:	88 ee       	ldi	r24, 0xE8	; 232
    3b04:	94 e7       	ldi	r25, 0x74	; 116
    3b06:	80 93 1f 39 	sts	0x391F, r24	; 0x80391f <reactStr+0x2>
    3b0a:	90 93 20 39 	sts	0x3920, r25	; 0x803920 <reactStr+0x3>
    reactStr[1][number]=length;
    3b0e:	8d e3       	ldi	r24, 0x3D	; 61
    3b10:	90 e0       	ldi	r25, 0x00	; 0
    3b12:	80 93 5f 39 	sts	0x395F, r24	; 0x80395f <reactStr+0x42>
    3b16:	90 93 60 39 	sts	0x3960, r25	; 0x803960 <reactStr+0x43>
    reactStr[2][number]=type;
    3b1a:	81 e0       	ldi	r24, 0x01	; 1
    3b1c:	90 e0       	ldi	r25, 0x00	; 0
    3b1e:	80 93 9f 39 	sts	0x399F, r24	; 0x80399f <reactStr+0x82>
    3b22:	90 93 a0 39 	sts	0x39A0, r25	; 0x8039a0 <reactStr+0x83>
    3b26:	6e c0       	rjmp	.+220    	; 0x3c04 <ProcessInput+0xeea>
    3b28:	e0 91 31 38 	lds	r30, 0x3831	; 0x803831 <currDepth>
                    SetResponse(elements++, A_BADOFFERING, L_BADOFFERING, TEASER);
                }
            
            //Other questions    
            } else if (specialPassed == 1) {
                PopulateObject(route[currDepth+1], &actObj1);
    3b2c:	f0 e0       	ldi	r31, 0x00	; 0
    3b2e:	ee 0f       	add	r30, r30
    3b30:	ff 1f       	adc	r31, r31
    3b32:	e1 52       	subi	r30, 0x21	; 33
    3b34:	f6 4c       	sbci	r31, 0xC6	; 198
    3b36:	6c ed       	ldi	r22, 0xDC	; 220
    3b38:	78 e3       	ldi	r23, 0x38	; 56
                } else {
                    SetResponse(elements++, A_BADOFFERING, L_BADOFFERING, TEASER);
                }
            
            //Other questions    
            } else if (specialPassed == 1) {
    3b3a:	81 30       	cpi	r24, 0x01	; 1
    3b3c:	09 f0       	breq	.+2      	; 0x3b40 <ProcessInput+0xe26>
    3b3e:	46 c0       	rjmp	.+140    	; 0x3bcc <ProcessInput+0xeb2>
                PopulateObject(route[currDepth+1], &actObj1);
    3b40:	80 81       	ld	r24, Z
    3b42:	91 81       	ldd	r25, Z+1	; 0x01
    3b44:	0e 94 f8 11 	call	0x23f0	; 0x23f0 <PopulateObject>
                if (CheckState(actObj1.byteField[ACTION_ACL])){
    3b48:	80 91 e3 38 	lds	r24, 0x38E3	; 0x8038e3 <actObj1.3989+0x7>
    3b4c:	0e 94 1e 0a 	call	0x143c	; 0x143c <CheckState>
    3b50:	88 23       	and	r24, r24
    3b52:	01 f1       	breq	.+64     	; 0x3b94 <ProcessInput+0xe7a>
                    SetResponse(elements++, actObj1.addrStr[ACTION_MSG], actObj1.lenStr[ACTION_MSG], GAME);
    3b54:	80 91 02 39 	lds	r24, 0x3902	; 0x803902 <actObj1.3989+0x26>
    3b58:	90 91 03 39 	lds	r25, 0x3903	; 0x803903 <actObj1.3989+0x27>
    return 0;
}

//
void SetResponse(uint8_t number, uint16_t address, uint16_t length, uint8_t type){
    reactStr[0][number]=address;
    3b5c:	20 91 f4 38 	lds	r18, 0x38F4	; 0x8038f4 <actObj1.3989+0x18>
    3b60:	30 91 f5 38 	lds	r19, 0x38F5	; 0x8038f5 <actObj1.3989+0x19>
    3b64:	20 93 1f 39 	sts	0x391F, r18	; 0x80391f <reactStr+0x2>
    3b68:	30 93 20 39 	sts	0x3920, r19	; 0x803920 <reactStr+0x3>
    reactStr[1][number]=length;
    3b6c:	80 93 5f 39 	sts	0x395F, r24	; 0x80395f <reactStr+0x42>
    3b70:	90 93 60 39 	sts	0x3960, r25	; 0x803960 <reactStr+0x43>
    reactStr[2][number]=type;
    3b74:	10 92 9f 39 	sts	0x399F, r1	; 0x80399f <reactStr+0x82>
    3b78:	10 92 a0 39 	sts	0x39A0, r1	; 0x8039a0 <reactStr+0x83>
            //Other questions    
            } else if (specialPassed == 1) {
                PopulateObject(route[currDepth+1], &actObj1);
                if (CheckState(actObj1.byteField[ACTION_ACL])){
                    SetResponse(elements++, actObj1.addrStr[ACTION_MSG], actObj1.lenStr[ACTION_MSG], GAME);
                    effect = actObj1.effect[2];
    3b7c:	80 91 06 39 	lds	r24, 0x3906	; 0x803906 <actObj1.3989+0x2a>
    3b80:	90 e0       	ldi	r25, 0x00	; 0
    3b82:	80 93 3c 38 	sts	0x383C, r24	; 0x80383c <effect>
    3b86:	90 93 3d 38 	sts	0x383D, r25	; 0x80383d <effect+0x1>
                    UpdateState(actObj1.byteField[ACTION_STATE]);
    3b8a:	80 91 e6 38 	lds	r24, 0x38E6	; 0x8038e6 <actObj1.3989+0xa>
    3b8e:	0e 94 fd 09 	call	0x13fa	; 0x13fa <UpdateState>
    3b92:	38 c0       	rjmp	.+112    	; 0x3c04 <ProcessInput+0xeea>
                } else {
                    SetResponse(elements++, actObj1.addrStr[ACTION_ACL_MSG], actObj1.lenStr[ACTION_ACL_MSG], GAME);
    3b94:	80 91 00 39 	lds	r24, 0x3900	; 0x803900 <actObj1.3989+0x24>
    3b98:	90 91 01 39 	lds	r25, 0x3901	; 0x803901 <actObj1.3989+0x25>
    return 0;
}

//
void SetResponse(uint8_t number, uint16_t address, uint16_t length, uint8_t type){
    reactStr[0][number]=address;
    3b9c:	20 91 f2 38 	lds	r18, 0x38F2	; 0x8038f2 <actObj1.3989+0x16>
    3ba0:	30 91 f3 38 	lds	r19, 0x38F3	; 0x8038f3 <actObj1.3989+0x17>
    3ba4:	20 93 1f 39 	sts	0x391F, r18	; 0x80391f <reactStr+0x2>
    3ba8:	30 93 20 39 	sts	0x3920, r19	; 0x803920 <reactStr+0x3>
    reactStr[1][number]=length;
    3bac:	80 93 5f 39 	sts	0x395F, r24	; 0x80395f <reactStr+0x42>
    3bb0:	90 93 60 39 	sts	0x3960, r25	; 0x803960 <reactStr+0x43>
    reactStr[2][number]=type;
    3bb4:	10 92 9f 39 	sts	0x399F, r1	; 0x80399f <reactStr+0x82>
    3bb8:	10 92 a0 39 	sts	0x39A0, r1	; 0x8039a0 <reactStr+0x83>
                    SetResponse(elements++, actObj1.addrStr[ACTION_MSG], actObj1.lenStr[ACTION_MSG], GAME);
                    effect = actObj1.effect[2];
                    UpdateState(actObj1.byteField[ACTION_STATE]);
                } else {
                    SetResponse(elements++, actObj1.addrStr[ACTION_ACL_MSG], actObj1.lenStr[ACTION_ACL_MSG], GAME);
                    effect = actObj1.effect[1];
    3bbc:	80 91 05 39 	lds	r24, 0x3905	; 0x803905 <actObj1.3989+0x29>
    3bc0:	90 e0       	ldi	r25, 0x00	; 0
    3bc2:	80 93 3c 38 	sts	0x383C, r24	; 0x80383c <effect>
    3bc6:	90 93 3d 38 	sts	0x383D, r25	; 0x80383d <effect+0x1>
    3bca:	1c c0       	rjmp	.+56     	; 0x3c04 <ProcessInput+0xeea>
                }

            } else {
                PopulateObject(route[currDepth+1], &actObj1);
    3bcc:	80 81       	ld	r24, Z
    3bce:	91 81       	ldd	r25, Z+1	; 0x01
    3bd0:	0e 94 f8 11 	call	0x23f0	; 0x23f0 <PopulateObject>
    return 0;
}

//
void SetResponse(uint8_t number, uint16_t address, uint16_t length, uint8_t type){
    reactStr[0][number]=address;
    3bd4:	80 e6       	ldi	r24, 0x60	; 96
    3bd6:	98 e7       	ldi	r25, 0x78	; 120
    3bd8:	80 93 1f 39 	sts	0x391F, r24	; 0x80391f <reactStr+0x2>
    3bdc:	90 93 20 39 	sts	0x3920, r25	; 0x803920 <reactStr+0x3>
    reactStr[1][number]=length;
    3be0:	8d e4       	ldi	r24, 0x4D	; 77
    3be2:	90 e0       	ldi	r25, 0x00	; 0
    3be4:	80 93 5f 39 	sts	0x395F, r24	; 0x80395f <reactStr+0x42>
    3be8:	90 93 60 39 	sts	0x3960, r25	; 0x803960 <reactStr+0x43>
    reactStr[2][number]=type;
    3bec:	81 e0       	ldi	r24, 0x01	; 1
    3bee:	90 e0       	ldi	r25, 0x00	; 0
    3bf0:	80 93 9f 39 	sts	0x399F, r24	; 0x80399f <reactStr+0x82>
    3bf4:	90 93 a0 39 	sts	0x39A0, r25	; 0x8039a0 <reactStr+0x83>
                }

            } else {
                PopulateObject(route[currDepth+1], &actObj1);
                SetResponse(elements++, A_INCORRECT, L_INCORRECT, TEASER);
                PunishmentTime = getClock();
    3bf8:	0e 94 2c 0e 	call	0x1c58	; 0x1c58 <getClock>
    3bfc:	80 93 09 39 	sts	0x3909, r24	; 0x803909 <PunishmentTime>
    3c00:	90 93 0a 39 	sts	0x390A, r25	; 0x80390a <PunishmentTime+0x1>
                    effect = actObj1.effect[1];
                }

            } else {
                PopulateObject(route[currDepth+1], &actObj1);
                SetResponse(elements++, A_INCORRECT, L_INCORRECT, TEASER);
    3c04:	12 e0       	ldi	r17, 0x02	; 2
                PunishmentTime = getClock();
            }
            specialInput[0] = 0;
    3c06:	10 92 0c 39 	sts	0x390C, r1	; 0x80390c <specialInput>

        }
                    
        //Input handled
        if (specialInput[0]) responseList = elements; else responseList = SetStandardResponse(elements);
    3c0a:	80 91 0c 39 	lds	r24, 0x390C	; 0x80390c <specialInput>
    3c0e:	88 23       	and	r24, r24
    3c10:	19 f0       	breq	.+6      	; 0x3c18 <ProcessInput+0xefe>
    3c12:	10 93 1c 39 	sts	0x391C, r17	; 0x80391c <responseList>
    3c16:	8b c0       	rjmp	.+278    	; 0x3d2e <ProcessInput+0x1014>
    3c18:	81 2f       	mov	r24, r17
    3c1a:	01 c0       	rjmp	.+2      	; 0x3c1e <ProcessInput+0xf04>

    } else {

        responseList = SetStandardResponse(1);
    3c1c:	81 e0       	ldi	r24, 0x01	; 1
    3c1e:	0e 94 7c 11 	call	0x22f8	; 0x22f8 <SetStandardResponse>
    3c22:	80 93 1c 39 	sts	0x391C, r24	; 0x80391c <responseList>
    3c26:	83 c0       	rjmp	.+262    	; 0x3d2e <ProcessInput+0x1014>
    return 0;
}

//
void SetResponse(uint8_t number, uint16_t address, uint16_t length, uint8_t type){
    reactStr[0][number]=address;
    3c28:	81 ed       	ldi	r24, 0xD1	; 209
    3c2a:	99 e7       	ldi	r25, 0x79	; 121
    3c2c:	80 93 1f 39 	sts	0x391F, r24	; 0x80391f <reactStr+0x2>
    3c30:	90 93 20 39 	sts	0x3920, r25	; 0x803920 <reactStr+0x3>
    reactStr[1][number]=length;
    3c34:	8a e1       	ldi	r24, 0x1A	; 26
    3c36:	90 e0       	ldi	r25, 0x00	; 0
    3c38:	45 c9       	rjmp	.-3446   	; 0x2ec4 <ProcessInput+0x1aa>

        //Drop item if in inventory
        if (data[0] == 'd') {
            if ((inventory[0] == 0)&&(inventory[1] == 0)){
                SetResponse(elements++, A_EMPTYHANDS, L_EMPTYHANDS, TEASER);
            } else if (inputLen != 2) {
    3c3a:	f2 e0       	ldi	r31, 0x02	; 2
    3c3c:	ff 12       	cpse	r15, r31
    3c3e:	ad c8       	rjmp	.-3750   	; 0x2d9a <ProcessInput+0x80>
                SetResponse(elements++, A_NOTPOSSIBLE, L_NOTPOSSIBLE, TEASER);
            } else {
                for (uint8_t x=0; x<2; ++x) {
                    if (inventory[x]) {
                        if (CheckLetter(inventory[x], data[1])) {
    3c40:	f3 01       	movw	r30, r6
    3c42:	61 81       	ldd	r22, Z+1	; 0x01
    3c44:	0e 94 71 12 	call	0x24e2	; 0x24e2 <CheckLetter>
    3c48:	88 23       	and	r24, r24
    3c4a:	09 f4       	brne	.+2      	; 0x3c4e <ProcessInput+0xf34>
    3c4c:	58 c0       	rjmp	.+176    	; 0x3cfe <ProcessInput+0xfe4>
                SetResponse(elements++, A_EMPTYHANDS, L_EMPTYHANDS, TEASER);
            } else if (inputLen != 2) {
                SetResponse(elements++, A_NOTPOSSIBLE, L_NOTPOSSIBLE, TEASER);
            } else {
                for (uint8_t x=0; x<2; ++x) {
                    if (inventory[x]) {
    3c4e:	00 e0       	ldi	r16, 0x00	; 0
    3c50:	10 e0       	ldi	r17, 0x00	; 0
                        if (CheckLetter(inventory[x], data[1])) {
                            PopulateObject(inventory[x], &actObj1);
    3c52:	00 0f       	add	r16, r16
    3c54:	11 1f       	adc	r17, r17
    3c56:	00 5c       	subi	r16, 0xC0	; 192
    3c58:	17 4c       	sbci	r17, 0xC7	; 199
    3c5a:	6c ed       	ldi	r22, 0xDC	; 220
    3c5c:	78 e3       	ldi	r23, 0x38	; 56
    3c5e:	d8 01       	movw	r26, r16
    3c60:	8d 91       	ld	r24, X+
    3c62:	9c 91       	ld	r25, X
    3c64:	0e 94 f8 11 	call	0x23f0	; 0x23f0 <PopulateObject>
    return 0;
}

//
void SetResponse(uint8_t number, uint16_t address, uint16_t length, uint8_t type){
    reactStr[0][number]=address;
    3c68:	86 e9       	ldi	r24, 0x96	; 150
    3c6a:	97 e7       	ldi	r25, 0x77	; 119
    3c6c:	80 93 1f 39 	sts	0x391F, r24	; 0x80391f <reactStr+0x2>
    3c70:	90 93 20 39 	sts	0x3920, r25	; 0x803920 <reactStr+0x3>
    reactStr[1][number]=length;
    3c74:	80 e1       	ldi	r24, 0x10	; 16
    3c76:	90 e0       	ldi	r25, 0x00	; 0
    3c78:	80 93 5f 39 	sts	0x395F, r24	; 0x80395f <reactStr+0x42>
    3c7c:	90 93 60 39 	sts	0x3960, r25	; 0x803960 <reactStr+0x43>
    reactStr[2][number]=type;
    3c80:	81 e0       	ldi	r24, 0x01	; 1
    3c82:	90 e0       	ldi	r25, 0x00	; 0
    3c84:	80 93 9f 39 	sts	0x399F, r24	; 0x80399f <reactStr+0x82>
    3c88:	90 93 a0 39 	sts	0x39A0, r25	; 0x8039a0 <reactStr+0x83>
                for (uint8_t x=0; x<2; ++x) {
                    if (inventory[x]) {
                        if (CheckLetter(inventory[x], data[1])) {
                            PopulateObject(inventory[x], &actObj1);
                            SetResponse(elements++, A_DROPPING, L_DROPPING, TEASER);
                            SetResponse(elements++, actObj1.addrStr[NAME], actObj1.lenStr[NAME], GAME);
    3c8c:	20 91 f6 38 	lds	r18, 0x38F6	; 0x8038f6 <actObj1.3989+0x1a>
    3c90:	30 91 f7 38 	lds	r19, 0x38F7	; 0x8038f7 <actObj1.3989+0x1b>
    return 0;
}

//
void SetResponse(uint8_t number, uint16_t address, uint16_t length, uint8_t type){
    reactStr[0][number]=address;
    3c94:	40 91 e8 38 	lds	r20, 0x38E8	; 0x8038e8 <actObj1.3989+0xc>
    3c98:	50 91 e9 38 	lds	r21, 0x38E9	; 0x8038e9 <actObj1.3989+0xd>
    3c9c:	40 93 21 39 	sts	0x3921, r20	; 0x803921 <reactStr+0x4>
    3ca0:	50 93 22 39 	sts	0x3922, r21	; 0x803922 <reactStr+0x5>
    reactStr[1][number]=length;
    3ca4:	20 93 61 39 	sts	0x3961, r18	; 0x803961 <reactStr+0x44>
    3ca8:	30 93 62 39 	sts	0x3962, r19	; 0x803962 <reactStr+0x45>
    reactStr[2][number]=type;
    3cac:	10 92 a1 39 	sts	0x39A1, r1	; 0x8039a1 <reactStr+0x84>
    3cb0:	10 92 a2 39 	sts	0x39A2, r1	; 0x8039a2 <reactStr+0x85>
    return 0;
}

//
void SetResponse(uint8_t number, uint16_t address, uint16_t length, uint8_t type){
    reactStr[0][number]=address;
    3cb4:	29 e5       	ldi	r18, 0x59	; 89
    3cb6:	3a e7       	ldi	r19, 0x7A	; 122
    3cb8:	20 93 23 39 	sts	0x3923, r18	; 0x803923 <reactStr+0x6>
    3cbc:	30 93 24 39 	sts	0x3924, r19	; 0x803924 <reactStr+0x7>
    reactStr[1][number]=length;
    3cc0:	22 e0       	ldi	r18, 0x02	; 2
    3cc2:	30 e0       	ldi	r19, 0x00	; 0
    3cc4:	20 93 63 39 	sts	0x3963, r18	; 0x803963 <reactStr+0x46>
    3cc8:	30 93 64 39 	sts	0x3964, r19	; 0x803964 <reactStr+0x47>
    reactStr[2][number]=type;
    3ccc:	80 93 a3 39 	sts	0x39A3, r24	; 0x8039a3 <reactStr+0x86>
    3cd0:	90 93 a4 39 	sts	0x39A4, r25	; 0x8039a4 <reactStr+0x87>
    return 0;
}

//
void SetResponse(uint8_t number, uint16_t address, uint16_t length, uint8_t type){
    reactStr[0][number]=address;
    3cd4:	29 e5       	ldi	r18, 0x59	; 89
    3cd6:	37 e7       	ldi	r19, 0x77	; 119
    3cd8:	20 93 25 39 	sts	0x3925, r18	; 0x803925 <reactStr+0x8>
    3cdc:	30 93 26 39 	sts	0x3926, r19	; 0x803926 <reactStr+0x9>
    reactStr[1][number]=length;
    3ce0:	2d e3       	ldi	r18, 0x3D	; 61
    3ce2:	30 e0       	ldi	r19, 0x00	; 0
    3ce4:	20 93 65 39 	sts	0x3965, r18	; 0x803965 <reactStr+0x48>
    3ce8:	30 93 66 39 	sts	0x3966, r19	; 0x803966 <reactStr+0x49>
    reactStr[2][number]=type;
    3cec:	80 93 a5 39 	sts	0x39A5, r24	; 0x8039a5 <reactStr+0x88>
    3cf0:	90 93 a6 39 	sts	0x39A6, r25	; 0x8039a6 <reactStr+0x89>
                            PopulateObject(inventory[x], &actObj1);
                            SetResponse(elements++, A_DROPPING, L_DROPPING, TEASER);
                            SetResponse(elements++, actObj1.addrStr[NAME], actObj1.lenStr[NAME], GAME);
                            SetResponse(elements++, A_LF, 2, TEASER);
                            SetResponse(elements++, A_RETURNING, L_RETURNING, TEASER);
                            inventory[x] = 0;
    3cf4:	f8 01       	movw	r30, r16
    3cf6:	10 82       	st	Z, r1
    3cf8:	11 82       	std	Z+1, r1	; 0x01
                        if (CheckLetter(inventory[x], data[1])) {
                            PopulateObject(inventory[x], &actObj1);
                            SetResponse(elements++, A_DROPPING, L_DROPPING, TEASER);
                            SetResponse(elements++, actObj1.addrStr[NAME], actObj1.lenStr[NAME], GAME);
                            SetResponse(elements++, A_LF, 2, TEASER);
                            SetResponse(elements++, A_RETURNING, L_RETURNING, TEASER);
    3cfa:	15 e0       	ldi	r17, 0x05	; 5
                            inventory[x] = 0;
                            break;
    3cfc:	86 cf       	rjmp	.-244    	; 0x3c0a <ProcessInput+0xef0>
                SetResponse(elements++, A_EMPTYHANDS, L_EMPTYHANDS, TEASER);
            } else if (inputLen != 2) {
                SetResponse(elements++, A_NOTPOSSIBLE, L_NOTPOSSIBLE, TEASER);
            } else {
                for (uint8_t x=0; x<2; ++x) {
                    if (inventory[x]) {
    3cfe:	80 91 42 38 	lds	r24, 0x3842	; 0x803842 <inventory+0x2>
    3d02:	90 91 43 38 	lds	r25, 0x3843	; 0x803843 <inventory+0x3>
    3d06:	00 97       	sbiw	r24, 0x00	; 0
    3d08:	49 f0       	breq	.+18     	; 0x3d1c <ProcessInput+0x1002>
                        if (CheckLetter(inventory[x], data[1])) {
    3d0a:	f3 01       	movw	r30, r6
    3d0c:	61 81       	ldd	r22, Z+1	; 0x01
    3d0e:	0e 94 71 12 	call	0x24e2	; 0x24e2 <CheckLetter>
    3d12:	88 23       	and	r24, r24
    3d14:	19 f0       	breq	.+6      	; 0x3d1c <ProcessInput+0x1002>
                SetResponse(elements++, A_EMPTYHANDS, L_EMPTYHANDS, TEASER);
            } else if (inputLen != 2) {
                SetResponse(elements++, A_NOTPOSSIBLE, L_NOTPOSSIBLE, TEASER);
            } else {
                for (uint8_t x=0; x<2; ++x) {
                    if (inventory[x]) {
    3d16:	01 e0       	ldi	r16, 0x01	; 1
    3d18:	10 e0       	ldi	r17, 0x00	; 0
    3d1a:	9b cf       	rjmp	.-202    	; 0x3c52 <ProcessInput+0xf38>
    return 0;
}

//
void SetResponse(uint8_t number, uint16_t address, uint16_t length, uint8_t type){
    reactStr[0][number]=address;
    3d1c:	81 e6       	ldi	r24, 0x61	; 97
    3d1e:	99 e7       	ldi	r25, 0x79	; 121
    3d20:	80 93 1f 39 	sts	0x391F, r24	; 0x80391f <reactStr+0x2>
    3d24:	90 93 20 39 	sts	0x3920, r25	; 0x803920 <reactStr+0x3>
    reactStr[1][number]=length;
    3d28:	81 e2       	ldi	r24, 0x21	; 33
    3d2a:	90 e0       	ldi	r25, 0x00	; 0
    3d2c:	cb c8       	rjmp	.-3690   	; 0x2ec4 <ProcessInput+0x1aa>
    } else {

        responseList = SetStandardResponse(1);
    }

    data[0] = 0;
    3d2e:	f3 01       	movw	r30, r6
    3d30:	10 82       	st	Z, r1
    serRxDone = 0;
    3d32:	10 92 46 38 	sts	0x3846, r1	; 0x803846 <serRxDone>
    RXCNT = 0;    
    3d36:	1d ba       	out	0x1d, r1	; 29
    return 0;
}
    3d38:	80 e0       	ldi	r24, 0x00	; 0
    3d3a:	28 96       	adiw	r28, 0x08	; 8
    3d3c:	cd bf       	out	0x3d, r28	; 61
    3d3e:	de bf       	out	0x3e, r29	; 62
    3d40:	df 91       	pop	r29
    3d42:	cf 91       	pop	r28
    3d44:	1f 91       	pop	r17
    3d46:	0f 91       	pop	r16
    3d48:	ff 90       	pop	r15
    3d4a:	ef 90       	pop	r14
    3d4c:	df 90       	pop	r13
    3d4e:	cf 90       	pop	r12
    3d50:	bf 90       	pop	r11
    3d52:	af 90       	pop	r10
    3d54:	9f 90       	pop	r9
    3d56:	8f 90       	pop	r8
    3d58:	7f 90       	pop	r7
    3d5a:	6f 90       	pop	r6
    3d5c:	08 95       	ret

00003d5e <TextAdventure>:


//MAIN GAME STRUCTURE
uint8_t TextAdventure(){
    3d5e:	cf 93       	push	r28
    static uint8_t serInput[RXLEN];
    uint16_t PunishmentCount;
    
    /* Count down PunishmentTime on WING LEDs */
    if (PunishmentTime != 0) {
    3d60:	80 91 09 39 	lds	r24, 0x3909	; 0x803909 <PunishmentTime>
    3d64:	90 91 0a 39 	lds	r25, 0x390A	; 0x80390a <PunishmentTime+0x1>
    3d68:	89 2b       	or	r24, r25
    3d6a:	09 f1       	breq	.+66     	; 0x3dae <TextAdventure+0x50>
        PunishmentCount = getClock();
    3d6c:	0e 94 2c 0e 	call	0x1c58	; 0x1c58 <getClock>
        if (PunishmentCount < PunishmentTime)
    3d70:	20 91 09 39 	lds	r18, 0x3909	; 0x803909 <PunishmentTime>
    3d74:	30 91 0a 39 	lds	r19, 0x390A	; 0x80390a <PunishmentTime+0x1>
    3d78:	82 17       	cp	r24, r18
    3d7a:	93 07       	cpc	r25, r19
    3d7c:	08 f4       	brcc	.+2      	; 0x3d80 <TextAdventure+0x22>
            PunishmentCount += 256 * 60;
    3d7e:	94 5c       	subi	r25, 0xC4	; 196
        PunishmentCount -= PunishmentTime;
    3d80:	ac 01       	movw	r20, r24
    3d82:	42 1b       	sub	r20, r18
    3d84:	53 0b       	sbc	r21, r19
    3d86:	9a 01       	movw	r18, r20
        if (PunishmentCount > 10) {
    3d88:	4b 30       	cpi	r20, 0x0B	; 11
    3d8a:	51 05       	cpc	r21, r1
    3d8c:	30 f0       	brcs	.+12     	; 0x3d9a <TextAdventure+0x3c>
            PunishmentTime = 0;
    3d8e:	10 92 09 39 	sts	0x3909, r1	; 0x803909 <PunishmentTime>
    3d92:	10 92 0a 39 	sts	0x390A, r1	; 0x80390a <PunishmentTime+0x1>
            PunishmentCount = 10;
    3d96:	2a e0       	ldi	r18, 0x0A	; 10
    3d98:	30 e0       	ldi	r19, 0x00	; 0
        }
        if (gameNow == TEXT ) {
    3d9a:	80 91 3e 38 	lds	r24, 0x383E	; 0x80383e <gameNow>
    3d9e:	81 11       	cpse	r24, r1
    3da0:	06 c0       	rjmp	.+12     	; 0x3dae <TextAdventure+0x50>
            WingBar(10-PunishmentCount,5-PunishmentCount);
    3da2:	65 e0       	ldi	r22, 0x05	; 5
    3da4:	62 1b       	sub	r22, r18
    3da6:	8a e0       	ldi	r24, 0x0A	; 10
    3da8:	82 1b       	sub	r24, r18
    3daa:	0e 94 ed 0a 	call	0x15da	; 0x15da <WingBar>
        }
    }

    //Still sending data to serial?
    if (CheckSend()) return 1;
    3dae:	0e 94 56 13 	call	0x26ac	; 0x26ac <CheckSend>
    3db2:	88 23       	and	r24, r24
    3db4:	11 f0       	breq	.+4      	; 0x3dba <TextAdventure+0x5c>
    3db6:	c1 e0       	ldi	r28, 0x01	; 1
    3db8:	18 c0       	rjmp	.+48     	; 0x3dea <TextAdventure+0x8c>

    //Not sending? Process next response part to send, if any.
    if (CheckResponse()) return 1;        
    3dba:	0e 94 ac 13 	call	0x2758	; 0x2758 <CheckResponse>
    3dbe:	c8 2f       	mov	r28, r24
    3dc0:	81 11       	cpse	r24, r1
    3dc2:	f9 cf       	rjmp	.-14     	; 0x3db6 <TextAdventure+0x58>

    if (PunishmentTime == 0) {
    3dc4:	80 91 09 39 	lds	r24, 0x3909	; 0x803909 <PunishmentTime>
    3dc8:	90 91 0a 39 	lds	r25, 0x390A	; 0x80390a <PunishmentTime+0x1>
    3dcc:	89 2b       	or	r24, r25
    3dce:	69 f4       	brne	.+26     	; 0x3dea <TextAdventure+0x8c>
        //No responses to send, check if there is user input.
        if (CheckInput(&serInput[0])) return 2; 
    3dd0:	80 e7       	ldi	r24, 0x70	; 112
    3dd2:	98 e3       	ldi	r25, 0x38	; 56
    3dd4:	0e 94 ec 13 	call	0x27d8	; 0x27d8 <CheckInput>
    3dd8:	c8 2f       	mov	r28, r24
    3dda:	81 11       	cpse	r24, r1
    3ddc:	05 c0       	rjmp	.+10     	; 0x3de8 <TextAdventure+0x8a>

        //Input found, process and save (changes only)
        ProcessInput(&serInput[0]);
    3dde:	80 e7       	ldi	r24, 0x70	; 112
    3de0:	98 e3       	ldi	r25, 0x38	; 56
    3de2:	0e 94 8d 16 	call	0x2d1a	; 0x2d1a <ProcessInput>
    3de6:	01 c0       	rjmp	.+2      	; 0x3dea <TextAdventure+0x8c>
    //Not sending? Process next response part to send, if any.
    if (CheckResponse()) return 1;        

    if (PunishmentTime == 0) {
        //No responses to send, check if there is user input.
        if (CheckInput(&serInput[0])) return 2; 
    3de8:	c2 e0       	ldi	r28, 0x02	; 2
        //Input found, process and save (changes only)
        ProcessInput(&serInput[0]);
    }

    return 0;
}
    3dea:	8c 2f       	mov	r24, r28
    3dec:	cf 91       	pop	r28
    3dee:	08 95       	ret

00003df0 <main>:


//This is where it begins, inits first and main program in while(1) loop.
int main(void)
{
    Setup();
    3df0:	0e 94 c9 04 	call	0x992	; 0x992 <Setup>
    LoadGameState();
    3df4:	0e 94 5b 0a 	call	0x14b6	; 0x14b6 <LoadGameState>
    gameState[0]|=1;
    3df8:	80 91 63 3a 	lds	r24, 0x3A63	; 0x803a63 <gameState>
    3dfc:	81 60       	ori	r24, 0x01	; 1
    3dfe:	80 93 63 3a 	sts	0x3A63, r24	; 0x803a63 <gameState>
    SelfTest();
    3e02:	0e 94 53 0e 	call	0x1ca6	; 0x1ca6 <SelfTest>
            if (adcPhot < 10) UpdateState(116);
            if (adcPhot > 100) UpdateState(128+116);

            dimValueSum -= (dimValueSum>>6);
            dimValueSum += 256;
            dimValueSum -= QSINE[31-(adcPhot>>7)];
    3e06:	cf e1       	ldi	r28, 0x1F	; 31
    3e08:	d0 e0       	ldi	r29, 0x00	; 0
    LoadGameState();
    gameState[0]|=1;
    SelfTest();

    while (TRUE) {
        if (GenerateAudio()) {
    3e0a:	0e 94 bd 0c 	call	0x197a	; 0x197a <GenerateAudio>
    3e0e:	88 23       	and	r24, r24
    3e10:	e1 f3       	breq	.-8      	; 0x3e0a <main+0x1a>
            lastButtonState = buttonState;
    3e12:	80 91 08 38 	lds	r24, 0x3808	; 0x803808 <buttonState>
    3e16:	80 93 07 38 	sts	0x3807, r24	; 0x803807 <lastButtonState>
            buttonState = CheckButtons();
    3e1a:	0e 94 c5 08 	call	0x118a	; 0x118a <CheckButtons>
    3e1e:	80 93 08 38 	sts	0x3808, r24	; 0x803808 <buttonState>
            buttonMark = 0;
    3e22:	10 92 44 38 	sts	0x3844, r1	; 0x803844 <buttonMark>

            if (VREF_CTRLA == 0x12) SelectAuIn(); else SelectTSens();
    3e26:	80 91 a0 00 	lds	r24, 0x00A0	; 0x8000a0 <__TEXT_REGION_LENGTH__+0x7000a0>
    3e2a:	82 31       	cpi	r24, 0x12	; 18
    3e2c:	19 f4       	brne	.+6      	; 0x3e34 <main+0x44>
    3e2e:	0e 94 b6 08 	call	0x116c	; 0x116c <SelectAuIn>
    3e32:	02 c0       	rjmp	.+4      	; 0x3e38 <main+0x48>
    3e34:	0e 94 a7 08 	call	0x114e	; 0x114e <SelectTSens>

            GenerateBlinks();
    3e38:	0e 94 42 0b 	call	0x1684	; 0x1684 <GenerateBlinks>

            //Main game, to complete: Finish sub-game MagnetMaze and MakeFriends too.
            TextAdventure();
    3e3c:	90 df       	rcall	.-224    	; 0x3d5e <TextAdventure>

            //Other games & user interaction checks
            MagnetMaze();
    3e3e:	0e 94 cc 03 	call	0x798	; 0x798 <MagnetMaze>
            LanyardCode();
    3e42:	0e 94 d4 02 	call	0x5a8	; 0x5a8 <LanyardCode>
            BastetDictates();
    3e46:	0e 94 52 0f 	call	0x1ea4	; 0x1ea4 <BastetDictates>
            MakeFriends();
    3e4a:	0e 94 7d 00 	call	0xfa	; 0xfa <MakeFriends>

            //Save progress
            SaveGameState();
    3e4e:	0e 94 76 09 	call	0x12ec	; 0x12ec <SaveGameState>

            //Check light sensor status (added hysteresis to preserve writing cycles to internal EEPROM)
            if (adcPhot < 10) UpdateState(116);
    3e52:	80 91 bf 3a 	lds	r24, 0x3ABF	; 0x803abf <adcPhot>
    3e56:	90 91 c0 3a 	lds	r25, 0x3AC0	; 0x803ac0 <adcPhot+0x1>
    3e5a:	0a 97       	sbiw	r24, 0x0a	; 10
    3e5c:	18 f4       	brcc	.+6      	; 0x3e64 <main+0x74>
    3e5e:	84 e7       	ldi	r24, 0x74	; 116
    3e60:	0e 94 fd 09 	call	0x13fa	; 0x13fa <UpdateState>
            if (adcPhot > 100) UpdateState(128+116);
    3e64:	80 91 bf 3a 	lds	r24, 0x3ABF	; 0x803abf <adcPhot>
    3e68:	90 91 c0 3a 	lds	r25, 0x3AC0	; 0x803ac0 <adcPhot+0x1>
    3e6c:	85 36       	cpi	r24, 0x65	; 101
    3e6e:	91 05       	cpc	r25, r1
    3e70:	18 f0       	brcs	.+6      	; 0x3e78 <main+0x88>
    3e72:	84 ef       	ldi	r24, 0xF4	; 244
    3e74:	0e 94 fd 09 	call	0x13fa	; 0x13fa <UpdateState>

            dimValueSum -= (dimValueSum>>6);
    3e78:	20 91 0a 38 	lds	r18, 0x380A	; 0x80380a <dimValueSum>
    3e7c:	30 91 0b 38 	lds	r19, 0x380B	; 0x80380b <dimValueSum+0x1>
    3e80:	80 91 0a 38 	lds	r24, 0x380A	; 0x80380a <dimValueSum>
    3e84:	90 91 0b 38 	lds	r25, 0x380B	; 0x80380b <dimValueSum+0x1>
    3e88:	46 e0       	ldi	r20, 0x06	; 6
    3e8a:	36 95       	lsr	r19
    3e8c:	27 95       	ror	r18
    3e8e:	4a 95       	dec	r20
    3e90:	e1 f7       	brne	.-8      	; 0x3e8a <main+0x9a>
    3e92:	82 1b       	sub	r24, r18
    3e94:	93 0b       	sbc	r25, r19
    3e96:	80 93 0a 38 	sts	0x380A, r24	; 0x80380a <dimValueSum>
    3e9a:	90 93 0b 38 	sts	0x380B, r25	; 0x80380b <dimValueSum+0x1>
            dimValueSum += 256;
    3e9e:	80 91 0a 38 	lds	r24, 0x380A	; 0x80380a <dimValueSum>
    3ea2:	90 91 0b 38 	lds	r25, 0x380B	; 0x80380b <dimValueSum+0x1>
    3ea6:	93 95       	inc	r25
    3ea8:	80 93 0a 38 	sts	0x380A, r24	; 0x80380a <dimValueSum>
    3eac:	90 93 0b 38 	sts	0x380B, r25	; 0x80380b <dimValueSum+0x1>
            dimValueSum -= QSINE[31-(adcPhot>>7)];
    3eb0:	20 91 bf 3a 	lds	r18, 0x3ABF	; 0x803abf <adcPhot>
    3eb4:	30 91 c0 3a 	lds	r19, 0x3AC0	; 0x803ac0 <adcPhot+0x1>
    3eb8:	80 91 0a 38 	lds	r24, 0x380A	; 0x80380a <dimValueSum>
    3ebc:	90 91 0b 38 	lds	r25, 0x380B	; 0x80380b <dimValueSum+0x1>
    3ec0:	22 0f       	add	r18, r18
    3ec2:	23 2f       	mov	r18, r19
    3ec4:	22 1f       	adc	r18, r18
    3ec6:	33 0b       	sbc	r19, r19
    3ec8:	31 95       	neg	r19
    3eca:	fe 01       	movw	r30, r28
    3ecc:	e2 1b       	sub	r30, r18
    3ece:	f3 0b       	sbc	r31, r19
    3ed0:	ec 5a       	subi	r30, 0xAC	; 172
    3ed2:	f0 44       	sbci	r31, 0x40	; 64
    3ed4:	20 81       	ld	r18, Z
    3ed6:	82 1b       	sub	r24, r18
    3ed8:	91 09       	sbc	r25, r1
    3eda:	80 93 0a 38 	sts	0x380A, r24	; 0x80380a <dimValueSum>
    3ede:	90 93 0b 38 	sts	0x380B, r25	; 0x80380b <dimValueSum+0x1>
            dimValue     = dimValueSum>>6;
    3ee2:	80 91 0a 38 	lds	r24, 0x380A	; 0x80380a <dimValueSum>
    3ee6:	90 91 0b 38 	lds	r25, 0x380B	; 0x80380b <dimValueSum+0x1>
    3eea:	66 e0       	ldi	r22, 0x06	; 6
    3eec:	96 95       	lsr	r25
    3eee:	87 95       	ror	r24
    3ef0:	6a 95       	dec	r22
    3ef2:	e1 f7       	brne	.-8      	; 0x3eec <main+0xfc>
    3ef4:	80 93 0c 38 	sts	0x380C, r24	; 0x80380c <dimValue>

            //Check temperature
            HotSummer();
    3ef8:	0e 94 88 0a 	call	0x1510	; 0x1510 <HotSummer>
    3efc:	86 cf       	rjmp	.-244    	; 0x3e0a <main+0x1a>

00003efe <__tablejump2__>:
    3efe:	ee 0f       	add	r30, r30
    3f00:	ff 1f       	adc	r31, r31
    3f02:	05 90       	lpm	r0, Z+
    3f04:	f4 91       	lpm	r31, Z
    3f06:	e0 2d       	mov	r30, r0
    3f08:	09 94       	ijmp

00003f0a <_exit>:
    3f0a:	f8 94       	cli

00003f0c <__stop_program>:
    3f0c:	ff cf       	rjmp	.-2      	; 0x3f0c <__stop_program>
