
ISR_IO.elf:     file format elf32-avr

Sections:
Idx Name          Size      VMA       LMA       File off  Algn
  0 .data         00000036  00803800  00003f3e  00003ff2  2**0
                  CONTENTS, ALLOC, LOAD, DATA
  1 .text         00003e82  00000000  00000000  000000b4  2**1
                  CONTENTS, ALLOC, LOAD, READONLY, CODE
  2 .rodata       000000bc  0000be82  00003e82  00003f36  2**0
                  CONTENTS, ALLOC, LOAD, READONLY, DATA
  3 .bss          000002e2  00803836  00803836  00004028  2**0
                  ALLOC
  4 .comment      00000030  00000000  00000000  00004028  2**0
                  CONTENTS, READONLY
  5 .note.gnu.avr.deviceinfo 00000040  00000000  00000000  00004058  2**2
                  CONTENTS, READONLY
  6 .debug_aranges 00000338  00000000  00000000  00004098  2**0
                  CONTENTS, READONLY, DEBUGGING
  7 .debug_info   00006c9b  00000000  00000000  000043d0  2**0
                  CONTENTS, READONLY, DEBUGGING
  8 .debug_abbrev 00002853  00000000  00000000  0000b06b  2**0
                  CONTENTS, READONLY, DEBUGGING
  9 .debug_line   00003db1  00000000  00000000  0000d8be  2**0
                  CONTENTS, READONLY, DEBUGGING
 10 .debug_frame  0000090c  00000000  00000000  00011670  2**2
                  CONTENTS, READONLY, DEBUGGING
 11 .debug_str    00001a97  00000000  00000000  00011f7c  2**0
                  CONTENTS, READONLY, DEBUGGING
 12 .debug_loc    00003c35  00000000  00000000  00013a13  2**0
                  CONTENTS, READONLY, DEBUGGING
 13 .debug_ranges 000003a8  00000000  00000000  00017648  2**0
                  CONTENTS, READONLY, DEBUGGING

Disassembly of section .text:

00000000 <__vectors>:
       0:	46 c0       	rjmp	.+140    	; 0x8e <__ctors_end>
       2:	00 00       	nop
       4:	61 c0       	rjmp	.+194    	; 0xc8 <__bad_interrupt>
       6:	00 00       	nop
       8:	5f c0       	rjmp	.+190    	; 0xc8 <__bad_interrupt>
       a:	00 00       	nop
       c:	5d c0       	rjmp	.+186    	; 0xc8 <__bad_interrupt>
       e:	00 00       	nop
      10:	5b c0       	rjmp	.+182    	; 0xc8 <__bad_interrupt>
      12:	00 00       	nop
      14:	59 c0       	rjmp	.+178    	; 0xc8 <__bad_interrupt>
      16:	00 00       	nop
      18:	92 c7       	rjmp	.+3876   	; 0xf3e <__vector_6>
      1a:	00 00       	nop
      1c:	e4 c7       	rjmp	.+4040   	; 0xfe6 <__vector_7>
      1e:	00 00       	nop
      20:	cc c5       	rjmp	.+2968   	; 0xbba <__vector_8>
      22:	00 00       	nop
      24:	51 c0       	rjmp	.+162    	; 0xc8 <__bad_interrupt>
      26:	00 00       	nop
      28:	4f c0       	rjmp	.+158    	; 0xc8 <__bad_interrupt>
      2a:	00 00       	nop
      2c:	4d c0       	rjmp	.+154    	; 0xc8 <__bad_interrupt>
      2e:	00 00       	nop
      30:	4b c0       	rjmp	.+150    	; 0xc8 <__bad_interrupt>
      32:	00 00       	nop
      34:	13 c6       	rjmp	.+3110   	; 0xc5c <__vector_13>
      36:	00 00       	nop
      38:	44 c6       	rjmp	.+3208   	; 0xcc2 <__vector_14>
      3a:	00 00       	nop
      3c:	45 c0       	rjmp	.+138    	; 0xc8 <__bad_interrupt>
      3e:	00 00       	nop
      40:	43 c0       	rjmp	.+134    	; 0xc8 <__bad_interrupt>
      42:	00 00       	nop
      44:	41 c0       	rjmp	.+130    	; 0xc8 <__bad_interrupt>
      46:	00 00       	nop
      48:	3f c0       	rjmp	.+126    	; 0xc8 <__bad_interrupt>
      4a:	00 00       	nop
      4c:	3d c0       	rjmp	.+122    	; 0xc8 <__bad_interrupt>
      4e:	00 00       	nop
      50:	02 c7       	rjmp	.+3588   	; 0xe56 <__vector_20>
      52:	00 00       	nop
      54:	39 c0       	rjmp	.+114    	; 0xc8 <__bad_interrupt>
      56:	00 00       	nop
      58:	2a c7       	rjmp	.+3668   	; 0xeae <__vector_22>
      5a:	00 00       	nop
      5c:	35 c0       	rjmp	.+106    	; 0xc8 <__bad_interrupt>
      5e:	00 00       	nop
      60:	33 c0       	rjmp	.+102    	; 0xc8 <__bad_interrupt>
      62:	00 00       	nop
      64:	31 c0       	rjmp	.+98     	; 0xc8 <__bad_interrupt>
      66:	00 00       	nop
      68:	2f c0       	rjmp	.+94     	; 0xc8 <__bad_interrupt>
      6a:	00 00       	nop
      6c:	7d c6       	rjmp	.+3322   	; 0xd68 <__vector_27>
      6e:	00 00       	nop
      70:	d6 c6       	rjmp	.+3500   	; 0xe1e <__vector_28>
      72:	00 00       	nop
      74:	29 c0       	rjmp	.+82     	; 0xc8 <__bad_interrupt>
      76:	00 00       	nop
      78:	27 c0       	rjmp	.+78     	; 0xc8 <__bad_interrupt>
      7a:	00 00       	nop
      7c:	a4 0b       	sbc	r26, r20
      7e:	d2 0b       	sbc	r29, r18
      80:	d9 0b       	sbc	r29, r25
      82:	94 0c       	add	r9, r4
      84:	94 0c       	add	r9, r4
      86:	e8 0b       	sbc	r30, r24
      88:	f5 0b       	sbc	r31, r21
      8a:	33 0c       	add	r3, r3
      8c:	5a 0c       	add	r5, r10

0000008e <__ctors_end>:
      8e:	11 24       	eor	r1, r1
      90:	1f be       	out	0x3f, r1	; 63
      92:	cf ef       	ldi	r28, 0xFF	; 255
      94:	cd bf       	out	0x3d, r28	; 61
      96:	df e3       	ldi	r29, 0x3F	; 63
      98:	de bf       	out	0x3e, r29	; 62

0000009a <__do_copy_data>:
      9a:	18 e3       	ldi	r17, 0x38	; 56
      9c:	a0 e0       	ldi	r26, 0x00	; 0
      9e:	b8 e3       	ldi	r27, 0x38	; 56
      a0:	ee e3       	ldi	r30, 0x3E	; 62
      a2:	ff e3       	ldi	r31, 0x3F	; 63
      a4:	02 c0       	rjmp	.+4      	; 0xaa <__do_copy_data+0x10>
      a6:	05 90       	lpm	r0, Z+
      a8:	0d 92       	st	X+, r0
      aa:	a6 33       	cpi	r26, 0x36	; 54
      ac:	b1 07       	cpc	r27, r17
      ae:	d9 f7       	brne	.-10     	; 0xa6 <__do_copy_data+0xc>

000000b0 <__do_clear_bss>:
      b0:	2b e3       	ldi	r18, 0x3B	; 59
      b2:	a6 e3       	ldi	r26, 0x36	; 54
      b4:	b8 e3       	ldi	r27, 0x38	; 56
      b6:	01 c0       	rjmp	.+2      	; 0xba <.do_clear_bss_start>

000000b8 <.do_clear_bss_loop>:
      b8:	1d 92       	st	X+, r1

000000ba <.do_clear_bss_start>:
      ba:	a8 31       	cpi	r26, 0x18	; 24
      bc:	b2 07       	cpc	r27, r18
      be:	e1 f7       	brne	.-8      	; 0xb8 <.do_clear_bss_loop>
      c0:	0e 94 7e 1e 	call	0x3cfc	; 0x3cfc <main>
      c4:	0c 94 3f 1f 	jmp	0x3e7e	; 0x3e7e <_exit>

000000c8 <__bad_interrupt>:
      c8:	9b cf       	rjmp	.-202    	; 0x0 <__vectors>

000000ca <chkVolt250>:
#include <main_def.h>
#include <resources.h>
#include <I2C.h>

//Returns measured voltage * 4 (2V returns 8) if it is in the expected range (DELTA)
uint8_t chkVolt250(){
      ca:	28 ed       	ldi	r18, 0xD8	; 216
      cc:	30 e0       	ldi	r19, 0x00	; 0
    uint8_t avgVolt = 9;
      ce:	89 e0       	ldi	r24, 0x09	; 9
        
    for (uint8_t x=225; x>24; x-=25) {
        if ((auIn > (x-DELTA)) && (auIn < (x+DELTA))) {
      d0:	40 91 c8 3a 	lds	r20, 0x3AC8	; 0x803ac8 <auIn>
      d4:	50 e0       	ldi	r21, 0x00	; 0
      d6:	42 17       	cp	r20, r18
      d8:	53 07       	cpc	r21, r19
      da:	4c f0       	brlt	.+18     	; 0xee <chkVolt250+0x24>
      dc:	40 91 c8 3a 	lds	r20, 0x3AC8	; 0x803ac8 <auIn>
      e0:	50 e0       	ldi	r21, 0x00	; 0
      e2:	b9 01       	movw	r22, r18
      e4:	6e 5e       	subi	r22, 0xEE	; 238
      e6:	7f 4f       	sbci	r23, 0xFF	; 255
      e8:	64 17       	cp	r22, r20
      ea:	75 07       	cpc	r23, r21
      ec:	2c f4       	brge	.+10     	; 0xf8 <chkVolt250+0x2e>
            break;
        }
        --avgVolt;
      ee:	81 50       	subi	r24, 0x01	; 1
      f0:	29 51       	subi	r18, 0x19	; 25
      f2:	31 09       	sbc	r19, r1

//Returns measured voltage * 4 (2V returns 8) if it is in the expected range (DELTA)
uint8_t chkVolt250(){
    uint8_t avgVolt = 9;
        
    for (uint8_t x=225; x>24; x-=25) {
      f4:	81 11       	cpse	r24, r1
      f6:	ec cf       	rjmp	.-40     	; 0xd0 <chkVolt250+0x6>
            break;
        }
        --avgVolt;
    }
    return avgVolt;
}
      f8:	08 95       	ret

000000fa <MakeFriends>:

// Main game loop
uint8_t MakeFriends(){
      fa:	cf 93       	push	r28
      fc:	df 93       	push	r29
    static uint8_t setDAC[2] = {255, 0};
    static uint8_t chkTmr = 0;
    static uint8_t jackIn = 0;
    static uint8_t candidate = 0;

    ++chkTmr;
      fe:	80 91 39 38 	lds	r24, 0x3839	; 0x803839 <chkTmr.3790>
     102:	8f 5f       	subi	r24, 0xFF	; 255
     104:	80 93 39 38 	sts	0x3839, r24	; 0x803839 <chkTmr.3790>
     108:	c4 e6       	ldi	r28, 0x64	; 100

    //Check if badge has found 3 friends
    uint8_t foundAll = 1;
     10a:	d1 e0       	ldi	r29, 0x01	; 1
    for (uint8_t x=0; x<4; ++x){
        if (CheckState(100+x) == 0) foundAll = 0;
     10c:	8c 2f       	mov	r24, r28
     10e:	0e 94 0d 0a 	call	0x141a	; 0x141a <CheckState>
     112:	81 11       	cpse	r24, r1
     114:	01 c0       	rjmp	.+2      	; 0x118 <MakeFriends+0x1e>
     116:	d0 e0       	ldi	r29, 0x00	; 0
     118:	cf 5f       	subi	r28, 0xFF	; 255

    ++chkTmr;

    //Check if badge has found 3 friends
    uint8_t foundAll = 1;
    for (uint8_t x=0; x<4; ++x){
     11a:	c8 36       	cpi	r28, 0x68	; 104
     11c:	b9 f7       	brne	.-18     	; 0x10c <MakeFriends+0x12>
        if (CheckState(100+x) == 0) foundAll = 0;
    }
    if (foundAll) UpdateState(124);
     11e:	dd 23       	and	r29, r29
     120:	19 f0       	breq	.+6      	; 0x128 <MakeFriends+0x2e>
     122:	8c e7       	ldi	r24, 0x7C	; 124
     124:	0e 94 ec 09 	call	0x13d8	; 0x13d8 <UpdateState>

    //Set game state, must be able to hijack from other games.
    if (progress > FIRST_CONTACT) { 
     128:	80 91 38 38 	lds	r24, 0x3838	; 0x803838 <progress.3788>
     12c:	82 30       	cpi	r24, 0x02	; 2
     12e:	20 f0       	brcs	.+8      	; 0x138 <MakeFriends+0x3e>
        gameNow = FRIENDS; 
     130:	94 e0       	ldi	r25, 0x04	; 4
     132:	90 93 42 38 	sts	0x3842, r25	; 0x803842 <gameNow>
     136:	0d c0       	rjmp	.+26     	; 0x152 <MakeFriends+0x58>
    }
    
    //Clear game state if not communicating properly or headphones detected
    if (((progress == NO_OTHER) || detHdPh) && (gameNow == FRIENDS)) {
     138:	81 11       	cpse	r24, r1
     13a:	0b c0       	rjmp	.+22     	; 0x152 <MakeFriends+0x58>
     13c:	90 91 42 38 	lds	r25, 0x3842	; 0x803842 <gameNow>
     140:	94 30       	cpi	r25, 0x04	; 4
     142:	61 f4       	brne	.+24     	; 0x15c <MakeFriends+0x62>
        gameNow = TEXT; 
     144:	10 92 42 38 	sts	0x3842, r1	; 0x803842 <gameNow>
        effect = 0;
     148:	10 92 40 38 	sts	0x3840, r1	; 0x803840 <effect>
     14c:	10 92 41 38 	sts	0x3841, r1	; 0x803841 <effect+0x1>
     150:	05 c0       	rjmp	.+10     	; 0x15c <MakeFriends+0x62>
    if (progress > FIRST_CONTACT) { 
        gameNow = FRIENDS; 
    }
    
    //Clear game state if not communicating properly or headphones detected
    if (((progress == NO_OTHER) || detHdPh) && (gameNow == FRIENDS)) {
     152:	90 91 c5 3a 	lds	r25, 0x3AC5	; 0x803ac5 <detHdPh>
     156:	91 11       	cpse	r25, r1
     158:	f1 cf       	rjmp	.-30     	; 0x13c <MakeFriends+0x42>
     15a:	18 c0       	rjmp	.+48     	; 0x18c <MakeFriends+0x92>
        gameNow = TEXT; 
        effect = 0;
    }

    //Audio off, set voltage level (setDAC[0]*10mV)
    if ((progress == NO_OTHER) && (detHdPh == 0)) {
     15c:	81 11       	cpse	r24, r1
     15e:	16 c0       	rjmp	.+44     	; 0x18c <MakeFriends+0x92>
     160:	90 91 c5 3a 	lds	r25, 0x3AC5	; 0x803ac5 <detHdPh>
     164:	91 11       	cpse	r25, r1
     166:	12 c0       	rjmp	.+36     	; 0x18c <MakeFriends+0x92>
        setDAC[0] = whoami * 51;
     168:	80 91 43 38 	lds	r24, 0x3843	; 0x803843 <whoami>
     16c:	93 e3       	ldi	r25, 0x33	; 51
     16e:	89 9f       	mul	r24, r25
     170:	80 2d       	mov	r24, r0
     172:	11 24       	eor	r1, r1
     174:	80 93 00 38 	sts	0x3800, r24	; 0x803800 <__data_start>
        auRepAddr = &setDAC[0];
     178:	80 e0       	ldi	r24, 0x00	; 0
     17a:	98 e3       	ldi	r25, 0x38	; 56
     17c:	80 93 03 38 	sts	0x3803, r24	; 0x803803 <auRepAddr>
     180:	90 93 04 38 	sts	0x3804, r25	; 0x803804 <auRepAddr+0x1>
        auVolume = 255;
     184:	8f ef       	ldi	r24, 0xFF	; 255
     186:	80 93 bc 3a 	sts	0x3ABC, r24	; 0x803abc <auVolume>
     18a:	09 c0       	rjmp	.+18     	; 0x19e <MakeFriends+0xa4>
    } else {
        if (progress & NEXT){
     18c:	98 2f       	mov	r25, r24
     18e:	90 7f       	andi	r25, 0xF0	; 240
     190:	31 f0       	breq	.+12     	; 0x19e <MakeFriends+0xa4>
            progress++;
            progress&=0x0f;
     192:	8f 5f       	subi	r24, 0xFF	; 255
     194:	8f 70       	andi	r24, 0x0F	; 15
     196:	80 93 38 38 	sts	0x3838, r24	; 0x803838 <progress.3788>
            chkTmr = 0;
     19a:	10 92 39 38 	sts	0x3839, r1	; 0x803839 <chkTmr.3790>
        }
    }

    //Check for other badges ()
    if ((auIn < (setDAC[0] - DELTA)) || (auIn > (setDAC[0] + DELTA)) || (progress > FIRST_CONTACT)) {
     19e:	40 91 c8 3a 	lds	r20, 0x3AC8	; 0x803ac8 <auIn>
     1a2:	20 91 00 38 	lds	r18, 0x3800	; 0x803800 <__data_start>
     1a6:	30 e0       	ldi	r19, 0x00	; 0
     1a8:	50 e0       	ldi	r21, 0x00	; 0
     1aa:	b9 01       	movw	r22, r18
     1ac:	6a 50       	subi	r22, 0x0A	; 10
     1ae:	71 09       	sbc	r23, r1
     1b0:	80 91 38 38 	lds	r24, 0x3838	; 0x803838 <progress.3788>
     1b4:	46 17       	cp	r20, r22
     1b6:	57 07       	cpc	r21, r23
     1b8:	5c f0       	brlt	.+22     	; 0x1d0 <MakeFriends+0xd6>
     1ba:	40 91 c8 3a 	lds	r20, 0x3AC8	; 0x803ac8 <auIn>
     1be:	50 e0       	ldi	r21, 0x00	; 0
     1c0:	26 5f       	subi	r18, 0xF6	; 246
     1c2:	3f 4f       	sbci	r19, 0xFF	; 255
     1c4:	24 17       	cp	r18, r20
     1c6:	35 07       	cpc	r19, r21
     1c8:	1c f0       	brlt	.+6      	; 0x1d0 <MakeFriends+0xd6>
     1ca:	82 30       	cpi	r24, 0x02	; 2
     1cc:	08 f4       	brcc	.+2      	; 0x1d0 <MakeFriends+0xd6>
     1ce:	43 c0       	rjmp	.+134    	; 0x256 <MakeFriends+0x15c>
        if ((progress == NO_OTHER) && (detHdPh == 0)) {
     1d0:	81 11       	cpse	r24, r1
     1d2:	0b c0       	rjmp	.+22     	; 0x1ea <MakeFriends+0xf0>
     1d4:	80 91 c5 3a 	lds	r24, 0x3AC5	; 0x803ac5 <detHdPh>
     1d8:	81 11       	cpse	r24, r1
     1da:	95 c0       	rjmp	.+298    	; 0x306 <MakeFriends+0x20c>
            if (chkTmr >= 8) {
     1dc:	80 91 39 38 	lds	r24, 0x3839	; 0x803839 <chkTmr.3790>
     1e0:	88 30       	cpi	r24, 0x08	; 8
     1e2:	08 f4       	brcc	.+2      	; 0x1e6 <MakeFriends+0xec>
     1e4:	90 c0       	rjmp	.+288    	; 0x306 <MakeFriends+0x20c>
                progress |= NEXT;
     1e6:	80 ef       	ldi	r24, 0xF0	; 240
     1e8:	63 c0       	rjmp	.+198    	; 0x2b0 <MakeFriends+0x1b6>
            }
        }

        //Candidate found, check ranges
        else if (progress == FIRST_CONTACT) {
     1ea:	81 30       	cpi	r24, 0x01	; 1
     1ec:	41 f5       	brne	.+80     	; 0x23e <MakeFriends+0x144>
            jackIn = chkVolt250();
     1ee:	6d df       	rcall	.-294    	; 0xca <chkVolt250>
     1f0:	80 93 37 38 	sts	0x3837, r24	; 0x803837 <jackIn.3791>
            if (jackIn) {
     1f4:	88 23       	and	r24, r24
     1f6:	79 f1       	breq	.+94     	; 0x256 <MakeFriends+0x15c>
                if (chkTmr >= SHORT_WAIT){
     1f8:	90 91 39 38 	lds	r25, 0x3839	; 0x803839 <chkTmr.3790>
     1fc:	98 30       	cpi	r25, 0x08	; 8
     1fe:	08 f4       	brcc	.+2      	; 0x202 <MakeFriends+0x108>
     200:	82 c0       	rjmp	.+260    	; 0x306 <MakeFriends+0x20c>
                    if (   ((whoami == 1)&&((jackIn >= 3)&&(jackIn <= 5))) 
     202:	90 91 43 38 	lds	r25, 0x3843	; 0x803843 <whoami>
     206:	91 30       	cpi	r25, 0x01	; 1
     208:	11 f4       	brne	.+4      	; 0x20e <MakeFriends+0x114>
     20a:	83 50       	subi	r24, 0x03	; 3
     20c:	14 c0       	rjmp	.+40     	; 0x236 <MakeFriends+0x13c>
                    || ((whoami == 2)&&((jackIn == 3)||(jackIn == 5)||(jackIn == 6)))  
     20e:	92 30       	cpi	r25, 0x02	; 2
     210:	31 f4       	brne	.+12     	; 0x21e <MakeFriends+0x124>
     212:	83 30       	cpi	r24, 0x03	; 3
     214:	91 f0       	breq	.+36     	; 0x23a <MakeFriends+0x140>
     216:	85 50       	subi	r24, 0x05	; 5
     218:	82 30       	cpi	r24, 0x02	; 2
     21a:	e8 f4       	brcc	.+58     	; 0x256 <MakeFriends+0x15c>
     21c:	0e c0       	rjmp	.+28     	; 0x23a <MakeFriends+0x140>
                    || ((whoami == 3)&&((jackIn == 4)||(jackIn == 5)||(jackIn == 7))) 
     21e:	93 30       	cpi	r25, 0x03	; 3
     220:	39 f4       	brne	.+14     	; 0x230 <MakeFriends+0x136>
     222:	9c ef       	ldi	r25, 0xFC	; 252
     224:	98 0f       	add	r25, r24
     226:	92 30       	cpi	r25, 0x02	; 2
     228:	40 f0       	brcs	.+16     	; 0x23a <MakeFriends+0x140>
     22a:	87 30       	cpi	r24, 0x07	; 7
     22c:	a1 f4       	brne	.+40     	; 0x256 <MakeFriends+0x15c>
     22e:	05 c0       	rjmp	.+10     	; 0x23a <MakeFriends+0x140>
                    || ((whoami == 4)&&((jackIn >= 5)&&(jackIn <= 7)))   ) {
     230:	94 30       	cpi	r25, 0x04	; 4
     232:	89 f4       	brne	.+34     	; 0x256 <MakeFriends+0x15c>
     234:	85 50       	subi	r24, 0x05	; 5
     236:	83 30       	cpi	r24, 0x03	; 3
     238:	70 f4       	brcc	.+28     	; 0x256 <MakeFriends+0x15c>
                        progress |= NEXT;
     23a:	81 ef       	ldi	r24, 0xF1	; 241
     23c:	39 c0       	rjmp	.+114    	; 0x2b0 <MakeFriends+0x1b6>
                progress = NO_OTHER;
            }
        }

        //Wait for the other badge (and a bit longer for effect)
        else if (progress == SECOND_LOVE){
     23e:	82 30       	cpi	r24, 0x02	; 2
     240:	69 f0       	breq	.+26     	; 0x25c <MakeFriends+0x162>
                progress |= NEXT;
            }
        } 
        
        //Wait a bit, check Voltage again, if ok show who you connected with and your own number, save, exit
        else if (progress == THIRD_KISS) {
     242:	83 30       	cpi	r24, 0x03	; 3
     244:	c1 f1       	breq	.+112    	; 0x2b6 <MakeFriends+0x1bc>
                    progress |= NEXT;
                } else progress = NO_OTHER;                
            }

        //Wait for quit
        } else if (progress == FOURTH_BASE) {
     246:	84 30       	cpi	r24, 0x04	; 4
     248:	09 f0       	breq	.+2      	; 0x24c <MakeFriends+0x152>
     24a:	5d c0       	rjmp	.+186    	; 0x306 <MakeFriends+0x20c>
            if (chkTmr >= (SHORT_WAIT<<3)) {
     24c:	80 91 39 38 	lds	r24, 0x3839	; 0x803839 <chkTmr.3790>
     250:	80 34       	cpi	r24, 0x40	; 64
     252:	08 f4       	brcc	.+2      	; 0x256 <MakeFriends+0x15c>
     254:	58 c0       	rjmp	.+176    	; 0x306 <MakeFriends+0x20c>
                    if (   ((whoami == 1)&&((jackIn >= 3)&&(jackIn <= 5))) 
                    || ((whoami == 2)&&((jackIn == 3)||(jackIn == 5)||(jackIn == 6)))  
                    || ((whoami == 3)&&((jackIn == 4)||(jackIn == 5)||(jackIn == 7))) 
                    || ((whoami == 4)&&((jackIn >= 5)&&(jackIn <= 7)))   ) {
                        progress |= NEXT;
                    } else progress = NO_OTHER;
     256:	10 92 38 38 	sts	0x3838, r1	; 0x803838 <progress.3788>
     25a:	55 c0       	rjmp	.+170    	; 0x306 <MakeFriends+0x20c>
        }

        //Wait for the other badge (and a bit longer for effect)
        else if (progress == SECOND_LOVE){
            
            effect = 7;
     25c:	87 e0       	ldi	r24, 0x07	; 7
     25e:	90 e0       	ldi	r25, 0x00	; 0
     260:	80 93 40 38 	sts	0x3840, r24	; 0x803840 <effect>
     264:	90 93 41 38 	sts	0x3841, r25	; 0x803841 <effect+0x1>
            if (chkTmr >= SHORT_WAIT) {
     268:	80 91 39 38 	lds	r24, 0x3839	; 0x803839 <chkTmr.3790>
     26c:	88 30       	cpi	r24, 0x08	; 8
     26e:	38 f0       	brcs	.+14     	; 0x27e <MakeFriends+0x184>
                setDAC[0] = floatAround(0x80, 8, 100, 255); 
     270:	2f ef       	ldi	r18, 0xFF	; 255
     272:	44 e6       	ldi	r20, 0x64	; 100
     274:	68 e0       	ldi	r22, 0x08	; 8
     276:	80 e8       	ldi	r24, 0x80	; 128
     278:	f6 d7       	rcall	.+4076   	; 0x1266 <floatAround>
     27a:	80 93 00 38 	sts	0x3800, r24	; 0x803800 <__data_start>
            }

            //The badge with the lowest voltage will now go to 2.5V (impedance check, for people tricking the things with a power supply)
            if (chkTmr >= LONG_WAIT){
     27e:	80 91 39 38 	lds	r24, 0x3839	; 0x803839 <chkTmr.3790>
     282:	8a 3f       	cpi	r24, 0xFA	; 250
     284:	08 f4       	brcc	.+2      	; 0x288 <MakeFriends+0x18e>
     286:	3f c0       	rjmp	.+126    	; 0x306 <MakeFriends+0x20c>
                candidate = jackIn-whoami;
     288:	80 91 43 38 	lds	r24, 0x3843	; 0x803843 <whoami>
     28c:	90 91 37 38 	lds	r25, 0x3837	; 0x803837 <jackIn.3791>
     290:	98 1b       	sub	r25, r24
     292:	90 93 36 38 	sts	0x3836, r25	; 0x803836 <__data_end>
                if (candidate > whoami) {
     296:	89 17       	cp	r24, r25
     298:	10 f4       	brcc	.+4      	; 0x29e <MakeFriends+0x1a4>
                    setDAC[0] = 249;
     29a:	89 ef       	ldi	r24, 0xF9	; 249
     29c:	04 c0       	rjmp	.+8      	; 0x2a6 <MakeFriends+0x1ac>
                } else {
                    setDAC[0] = whoami * 51;
     29e:	93 e3       	ldi	r25, 0x33	; 51
     2a0:	89 9f       	mul	r24, r25
     2a2:	80 2d       	mov	r24, r0
     2a4:	11 24       	eor	r1, r1
     2a6:	80 93 00 38 	sts	0x3800, r24	; 0x803800 <__data_start>
                }
                progress |= NEXT;
     2aa:	80 91 38 38 	lds	r24, 0x3838	; 0x803838 <progress.3788>
     2ae:	80 6f       	ori	r24, 0xF0	; 240
     2b0:	80 93 38 38 	sts	0x3838, r24	; 0x803838 <progress.3788>
     2b4:	28 c0       	rjmp	.+80     	; 0x306 <MakeFriends+0x20c>
            }
        } 
        
        //Wait a bit, check Voltage again, if ok show who you connected with and your own number, save, exit
        else if (progress == THIRD_KISS) {
            if (chkTmr >= SHORT_WAIT) {
     2b6:	80 91 39 38 	lds	r24, 0x3839	; 0x803839 <chkTmr.3790>
     2ba:	88 30       	cpi	r24, 0x08	; 8
                jackIn = chkVolt250();
     2bc:	20 f1       	brcs	.+72     	; 0x306 <MakeFriends+0x20c>
     2be:	05 df       	rcall	.-502    	; 0xca <chkVolt250>
     2c0:	80 93 37 38 	sts	0x3837, r24	; 0x803837 <jackIn.3791>
                if (jackIn == (((candidate > whoami)?candidate:whoami) + 5)) {
     2c4:	90 91 36 38 	lds	r25, 0x3836	; 0x803836 <__data_end>
     2c8:	48 2f       	mov	r20, r24
     2ca:	50 e0       	ldi	r21, 0x00	; 0
     2cc:	20 91 43 38 	lds	r18, 0x3843	; 0x803843 <whoami>
     2d0:	29 17       	cp	r18, r25
     2d2:	08 f4       	brcc	.+2      	; 0x2d6 <MakeFriends+0x1dc>
     2d4:	29 2f       	mov	r18, r25
     2d6:	30 e0       	ldi	r19, 0x00	; 0
     2d8:	2b 5f       	subi	r18, 0xFB	; 251
     2da:	3f 4f       	sbci	r19, 0xFF	; 255
     2dc:	42 17       	cp	r20, r18
     2de:	53 07       	cpc	r21, r19
     2e0:	09 f0       	breq	.+2      	; 0x2e4 <MakeFriends+0x1ea>
     2e2:	b9 cf       	rjmp	.-142    	; 0x256 <MakeFriends+0x15c>
                    UpdateState(99+candidate);
     2e4:	83 e6       	ldi	r24, 0x63	; 99
     2e6:	89 0f       	add	r24, r25
     2e8:	0e 94 ec 09 	call	0x13d8	; 0x13d8 <UpdateState>
                 
                    effect = 31;
     2ec:	8f e1       	ldi	r24, 0x1F	; 31
     2ee:	90 e0       	ldi	r25, 0x00	; 0
     2f0:	80 93 40 38 	sts	0x3840, r24	; 0x803840 <effect>
     2f4:	90 93 41 38 	sts	0x3841, r25	; 0x803841 <effect+0x1>
                    WingBar(candidate, whoami);
     2f8:	60 91 43 38 	lds	r22, 0x3843	; 0x803843 <whoami>
     2fc:	80 91 36 38 	lds	r24, 0x3836	; 0x803836 <__data_end>
     300:	0e 94 dd 0a 	call	0x15ba	; 0x15ba <WingBar>
     304:	d2 cf       	rjmp	.-92     	; 0x2aa <MakeFriends+0x1b0>
    } else {
        progress = NO_OTHER;
    }
      
    return 0;
}
     306:	80 e0       	ldi	r24, 0x00	; 0
     308:	df 91       	pop	r29
     30a:	cf 91       	pop	r28
     30c:	08 95       	ret

0000030e <I2C_init>:
// the Atmel device documentation mentions a special command for repeated start TWI_MCMD_REPSTART_gc,
// but this is not used in Atmel's demo code, so we don't use it either

void I2C_rep_start(uint8_t shifted_addr)						    // send repeated start, device_addr + LSB set if READ
{
	TWI0.MADDR = shifted_addr;	
     30e:	81 e0       	ldi	r24, 0x01	; 1
     310:	80 93 22 04 	sts	0x0422, r24	; 0x800422 <__TEXT_REGION_LENGTH__+0x700422>
     314:	e6 e2       	ldi	r30, 0x26	; 38
     316:	f4 e0       	ldi	r31, 0x04	; 4
     318:	80 83       	st	Z, r24
     31a:	10 92 30 04 	sts	0x0430, r1	; 0x800430 <__TEXT_REGION_LENGTH__+0x700430>
     31e:	a1 e2       	ldi	r26, 0x21	; 33
     320:	b4 e0       	ldi	r27, 0x04	; 4
     322:	92 e0       	ldi	r25, 0x02	; 2
     324:	9c 93       	st	X, r25
     326:	90 83       	st	Z, r25
     328:	10 92 31 04 	sts	0x0431, r1	; 0x800431 <__TEXT_REGION_LENGTH__+0x700431>
     32c:	e0 e1       	ldi	r30, 0x10	; 16
     32e:	f8 e0       	ldi	r31, 0x08	; 8
     330:	97 e0       	ldi	r25, 0x07	; 7
     332:	96 83       	std	Z+6, r25	; 0x06
     334:	98 e0       	ldi	r25, 0x08	; 8
     336:	94 83       	std	Z+4, r25	; 0x04
     338:	83 83       	std	Z+3, r24	; 0x03
     33a:	8c 93       	st	X, r24
     33c:	85 81       	ldd	r24, Z+5	; 0x05
     33e:	81 60       	ori	r24, 0x01	; 1
     340:	85 83       	std	Z+5, r24	; 0x05
     342:	85 81       	ldd	r24, Z+5	; 0x05
     344:	84 6c       	ori	r24, 0xC4	; 196
     346:	85 83       	std	Z+5, r24	; 0x05
     348:	08 95       	ret

0000034a <I2C_recover>:
     34a:	80 91 14 08 	lds	r24, 0x0814	; 0x800814 <__TEXT_REGION_LENGTH__+0x700814>
     34e:	88 60       	ori	r24, 0x08	; 8
     350:	80 93 14 08 	sts	0x0814, r24	; 0x800814 <__TEXT_REGION_LENGTH__+0x700814>
     354:	10 92 13 08 	sts	0x0813, r1	; 0x800813 <__TEXT_REGION_LENGTH__+0x700813>
     358:	82 e0       	ldi	r24, 0x02	; 2
     35a:	80 93 22 04 	sts	0x0422, r24	; 0x800422 <__TEXT_REGION_LENGTH__+0x700422>
     35e:	99 e0       	ldi	r25, 0x09	; 9
     360:	21 e0       	ldi	r18, 0x01	; 1
     362:	81 e0       	ldi	r24, 0x01	; 1
     364:	20 93 21 04 	sts	0x0421, r18	; 0x800421 <__TEXT_REGION_LENGTH__+0x700421>
     368:	30 e1       	ldi	r19, 0x10	; 16
     36a:	3a 95       	dec	r19
     36c:	f1 f7       	brne	.-4      	; 0x36a <I2C_recover+0x20>
     36e:	00 c0       	rjmp	.+0      	; 0x370 <I2C_recover+0x26>
     370:	20 93 22 04 	sts	0x0422, r18	; 0x800422 <__TEXT_REGION_LENGTH__+0x700422>
     374:	30 e1       	ldi	r19, 0x10	; 16
     376:	3a 95       	dec	r19
     378:	f1 f7       	brne	.-4      	; 0x376 <I2C_recover+0x2c>
     37a:	00 c0       	rjmp	.+0      	; 0x37c <I2C_recover+0x32>
     37c:	91 50       	subi	r25, 0x01	; 1
     37e:	89 f7       	brne	.-30     	; 0x362 <I2C_recover+0x18>
     380:	28 e0       	ldi	r18, 0x08	; 8
     382:	20 93 14 08 	sts	0x0814, r18	; 0x800814 <__TEXT_REGION_LENGTH__+0x700814>
     386:	80 93 13 08 	sts	0x0813, r24	; 0x800813 <__TEXT_REGION_LENGTH__+0x700813>
     38a:	92 e0       	ldi	r25, 0x02	; 2
     38c:	90 93 21 04 	sts	0x0421, r25	; 0x800421 <__TEXT_REGION_LENGTH__+0x700421>
     390:	90 91 15 08 	lds	r25, 0x0815	; 0x800815 <__TEXT_REGION_LENGTH__+0x700815>
     394:	91 60       	ori	r25, 0x01	; 1
     396:	90 93 15 08 	sts	0x0815, r25	; 0x800815 <__TEXT_REGION_LENGTH__+0x700815>
     39a:	90 91 15 08 	lds	r25, 0x0815	; 0x800815 <__TEXT_REGION_LENGTH__+0x700815>
     39e:	94 6c       	ori	r25, 0xC4	; 196
     3a0:	90 93 15 08 	sts	0x0815, r25	; 0x800815 <__TEXT_REGION_LENGTH__+0x700815>
     3a4:	20 93 14 08 	sts	0x0814, r18	; 0x800814 <__TEXT_REGION_LENGTH__+0x700814>
     3a8:	80 93 13 08 	sts	0x0813, r24	; 0x800813 <__TEXT_REGION_LENGTH__+0x700813>
     3ac:	80 93 21 04 	sts	0x0421, r24	; 0x800421 <__TEXT_REGION_LENGTH__+0x700421>
     3b0:	80 91 15 08 	lds	r24, 0x0815	; 0x800815 <__TEXT_REGION_LENGTH__+0x700815>
     3b4:	81 60       	ori	r24, 0x01	; 1
     3b6:	80 93 15 08 	sts	0x0815, r24	; 0x800815 <__TEXT_REGION_LENGTH__+0x700815>
     3ba:	80 91 15 08 	lds	r24, 0x0815	; 0x800815 <__TEXT_REGION_LENGTH__+0x700815>
     3be:	84 6c       	ori	r24, 0xC4	; 196
     3c0:	80 93 15 08 	sts	0x0815, r24	; 0x800815 <__TEXT_REGION_LENGTH__+0x700815>
     3c4:	08 95       	ret

000003c6 <I2C_start>:
     3c6:	28 2f       	mov	r18, r24
     3c8:	90 91 15 08 	lds	r25, 0x0815	; 0x800815 <__TEXT_REGION_LENGTH__+0x700815>
     3cc:	90 6c       	ori	r25, 0xC0	; 192
     3ce:	90 93 15 08 	sts	0x0815, r25	; 0x800815 <__TEXT_REGION_LENGTH__+0x700815>
     3d2:	90 91 15 08 	lds	r25, 0x0815	; 0x800815 <__TEXT_REGION_LENGTH__+0x700815>
     3d6:	89 2f       	mov	r24, r25
     3d8:	84 70       	andi	r24, 0x04	; 4
     3da:	92 fd       	sbrc	r25, 2
     3dc:	03 c0       	rjmp	.+6      	; 0x3e4 <I2C_start+0x1e>
     3de:	20 93 17 08 	sts	0x0817, r18	; 0x800817 <__TEXT_REGION_LENGTH__+0x700817>
     3e2:	08 95       	ret
     3e4:	84 e0       	ldi	r24, 0x04	; 4
     3e6:	08 95       	ret

000003e8 <I2C_wait_ACK>:
     3e8:	8c e0       	ldi	r24, 0x0C	; 12
     3ea:	80 93 66 3a 	sts	0x3A66, r24	; 0x803a66 <timeout_I2C>
     3ee:	80 91 15 08 	lds	r24, 0x0815	; 0x800815 <__TEXT_REGION_LENGTH__+0x700815>
     3f2:	87 fd       	sbrc	r24, 7
     3f4:	0a c0       	rjmp	.+20     	; 0x40a <__LOCK_REGION_LENGTH__+0xa>
     3f6:	80 91 15 08 	lds	r24, 0x0815	; 0x800815 <__TEXT_REGION_LENGTH__+0x700815>
     3fa:	86 fd       	sbrc	r24, 6
     3fc:	06 c0       	rjmp	.+12     	; 0x40a <__LOCK_REGION_LENGTH__+0xa>
     3fe:	80 91 66 3a 	lds	r24, 0x3A66	; 0x803a66 <timeout_I2C>
     402:	81 11       	cpse	r24, r1
     404:	f4 cf       	rjmp	.-24     	; 0x3ee <I2C_wait_ACK+0x6>
     406:	8f ef       	ldi	r24, 0xFF	; 255
     408:	08 95       	ret
     40a:	80 91 15 08 	lds	r24, 0x0815	; 0x800815 <__TEXT_REGION_LENGTH__+0x700815>
     40e:	80 6c       	ori	r24, 0xC0	; 192
     410:	80 93 15 08 	sts	0x0815, r24	; 0x800815 <__TEXT_REGION_LENGTH__+0x700815>
     414:	80 91 15 08 	lds	r24, 0x0815	; 0x800815 <__TEXT_REGION_LENGTH__+0x700815>
     418:	82 fd       	sbrc	r24, 2
     41a:	09 c0       	rjmp	.+18     	; 0x42e <__LOCK_REGION_LENGTH__+0x2e>
     41c:	80 91 15 08 	lds	r24, 0x0815	; 0x800815 <__TEXT_REGION_LENGTH__+0x700815>
     420:	83 fd       	sbrc	r24, 3
     422:	07 c0       	rjmp	.+14     	; 0x432 <__LOCK_REGION_LENGTH__+0x32>
     424:	80 91 15 08 	lds	r24, 0x0815	; 0x800815 <__TEXT_REGION_LENGTH__+0x700815>
     428:	82 95       	swap	r24
     42a:	81 70       	andi	r24, 0x01	; 1
     42c:	08 95       	ret
     42e:	84 e0       	ldi	r24, 0x04	; 4
     430:	08 95       	ret
     432:	82 e0       	ldi	r24, 0x02	; 2
     434:	08 95       	ret

00000436 <I2C_read>:
}

uint8_t	I2C_read(uint8_t *data, uint8_t ack_flag)					// read data, ack_flag 0: send ACK, 1: send NACK, returns status
{
     436:	fc 01       	movw	r30, r24
	timeout_I2C = READ_TIMEOUT;										// reset timeout counter, will be decremented by LED matrix interrupt
     438:	8c e0       	ldi	r24, 0x0C	; 12
     43a:	80 93 66 3a 	sts	0x3A66, r24	; 0x803a66 <timeout_I2C>
	if ((TWI0.MSTATUS & TWI_BUSSTATE_gm) == TWI_BUSSTATE_OWNER_gc)	// if master controls bus
     43e:	90 91 15 08 	lds	r25, 0x0815	; 0x800815 <__TEXT_REGION_LENGTH__+0x700815>
     442:	89 2f       	mov	r24, r25
     444:	83 70       	andi	r24, 0x03	; 3
     446:	82 30       	cpi	r24, 0x02	; 2
     448:	11 f0       	breq	.+4      	; 0x44e <I2C_read+0x18>
		else		TWI0.MCTRLB |= TWI_ACKACT_NACK_gc;				// setup NACK (last byte read)
		*data = TWI0.MDATA;
		if (ack_flag == 0) TWI0.MCTRLB |= TWI_MCMD_RECVTRANS_gc;	// send ACK, more bytes to follow					
		return 0;
	}
	else return 8;													// master does not control bus
     44a:	88 e0       	ldi	r24, 0x08	; 8
     44c:	08 95       	ret
uint8_t	I2C_read(uint8_t *data, uint8_t ack_flag)					// read data, ack_flag 0: send ACK, 1: send NACK, returns status
{
	timeout_I2C = READ_TIMEOUT;										// reset timeout counter, will be decremented by LED matrix interrupt
	if ((TWI0.MSTATUS & TWI_BUSSTATE_gm) == TWI_BUSSTATE_OWNER_gc)	// if master controls bus
	{		
		while (!(TWI0.MSTATUS & TWI_RIF_bm))						// wait for RIF set (data byte received)
     44e:	90 91 15 08 	lds	r25, 0x0815	; 0x800815 <__TEXT_REGION_LENGTH__+0x700815>
     452:	97 fd       	sbrc	r25, 7
     454:	06 c0       	rjmp	.+12     	; 0x462 <I2C_read+0x2c>
		{
			if (!(timeout_I2C)) return 0xff;			            // return timeout error
     456:	90 91 66 3a 	lds	r25, 0x3A66	; 0x803a66 <timeout_I2C>
     45a:	91 11       	cpse	r25, r1
     45c:	f8 cf       	rjmp	.-16     	; 0x44e <I2C_read+0x18>
     45e:	8f ef       	ldi	r24, 0xFF	; 255
     460:	08 95       	ret
		}
		TWI0.MSTATUS |= (TWI_RIF_bm | TWI_WIF_bm);					// clear Read and Write interrupt flags	
     462:	90 91 15 08 	lds	r25, 0x0815	; 0x800815 <__TEXT_REGION_LENGTH__+0x700815>
     466:	90 6c       	ori	r25, 0xC0	; 192
     468:	90 93 15 08 	sts	0x0815, r25	; 0x800815 <__TEXT_REGION_LENGTH__+0x700815>
		if (TWI0.MSTATUS & TWI_BUSERR_bm) return 4;					// Bus Error, abort
     46c:	90 91 15 08 	lds	r25, 0x0815	; 0x800815 <__TEXT_REGION_LENGTH__+0x700815>
     470:	92 fd       	sbrc	r25, 2
     472:	1e c0       	rjmp	.+60     	; 0x4b0 <I2C_read+0x7a>
		if (TWI0.MSTATUS & TWI_ARBLOST_bm) return 2;				// Arbitration Lost, abort
     474:	90 91 15 08 	lds	r25, 0x0815	; 0x800815 <__TEXT_REGION_LENGTH__+0x700815>
     478:	93 fd       	sbrc	r25, 3
     47a:	1d c0       	rjmp	.+58     	; 0x4b6 <I2C_read+0x80>
		if (TWI0.MSTATUS & TWI_RXACK_bm) return 1;					// Slave replied with NACK, abort				
     47c:	90 91 15 08 	lds	r25, 0x0815	; 0x800815 <__TEXT_REGION_LENGTH__+0x700815>
     480:	89 2f       	mov	r24, r25
     482:	80 71       	andi	r24, 0x10	; 16
     484:	94 fd       	sbrc	r25, 4
     486:	16 c0       	rjmp	.+44     	; 0x4b4 <I2C_read+0x7e>
		if (ack_flag == 0) TWI0.MCTRLB &= ~(1 << TWI_ACKACT_bp);	// setup ACK
     488:	90 91 14 08 	lds	r25, 0x0814	; 0x800814 <__TEXT_REGION_LENGTH__+0x700814>
     48c:	61 11       	cpse	r22, r1
     48e:	02 c0       	rjmp	.+4      	; 0x494 <I2C_read+0x5e>
     490:	9b 7f       	andi	r25, 0xFB	; 251
     492:	01 c0       	rjmp	.+2      	; 0x496 <I2C_read+0x60>
		else		TWI0.MCTRLB |= TWI_ACKACT_NACK_gc;				// setup NACK (last byte read)
     494:	94 60       	ori	r25, 0x04	; 4
     496:	90 93 14 08 	sts	0x0814, r25	; 0x800814 <__TEXT_REGION_LENGTH__+0x700814>
		*data = TWI0.MDATA;
     49a:	90 91 18 08 	lds	r25, 0x0818	; 0x800818 <__TEXT_REGION_LENGTH__+0x700818>
     49e:	90 83       	st	Z, r25
		if (ack_flag == 0) TWI0.MCTRLB |= TWI_MCMD_RECVTRANS_gc;	// send ACK, more bytes to follow					
     4a0:	61 11       	cpse	r22, r1
     4a2:	09 c0       	rjmp	.+18     	; 0x4b6 <I2C_read+0x80>
     4a4:	90 91 14 08 	lds	r25, 0x0814	; 0x800814 <__TEXT_REGION_LENGTH__+0x700814>
     4a8:	92 60       	ori	r25, 0x02	; 2
     4aa:	90 93 14 08 	sts	0x0814, r25	; 0x800814 <__TEXT_REGION_LENGTH__+0x700814>
     4ae:	08 95       	ret
		while (!(TWI0.MSTATUS & TWI_RIF_bm))						// wait for RIF set (data byte received)
		{
			if (!(timeout_I2C)) return 0xff;			            // return timeout error
		}
		TWI0.MSTATUS |= (TWI_RIF_bm | TWI_WIF_bm);					// clear Read and Write interrupt flags	
		if (TWI0.MSTATUS & TWI_BUSERR_bm) return 4;					// Bus Error, abort
     4b0:	84 e0       	ldi	r24, 0x04	; 4
     4b2:	08 95       	ret
		if (TWI0.MSTATUS & TWI_ARBLOST_bm) return 2;				// Arbitration Lost, abort
		if (TWI0.MSTATUS & TWI_RXACK_bm) return 1;					// Slave replied with NACK, abort				
     4b4:	81 e0       	ldi	r24, 0x01	; 1
		*data = TWI0.MDATA;
		if (ack_flag == 0) TWI0.MCTRLB |= TWI_MCMD_RECVTRANS_gc;	// send ACK, more bytes to follow					
		return 0;
	}
	else return 8;													// master does not control bus
}
     4b6:	08 95       	ret

000004b8 <I2C_write>:

uint8_t I2C_write(uint8_t *data)									// write data, return status
{
     4b8:	fc 01       	movw	r30, r24
	timeout_I2C = WRITE_TIMEOUT;									// reset timeout counter, will be decremented by LED matrix interrupt
     4ba:	8c e0       	ldi	r24, 0x0C	; 12
     4bc:	80 93 66 3a 	sts	0x3A66, r24	; 0x803a66 <timeout_I2C>
	if ((TWI0.MSTATUS & TWI_BUSSTATE_gm) == TWI_BUSSTATE_OWNER_gc)	// if master controls bus
     4c0:	90 91 15 08 	lds	r25, 0x0815	; 0x800815 <__TEXT_REGION_LENGTH__+0x700815>
     4c4:	93 70       	andi	r25, 0x03	; 3
     4c6:	92 30       	cpi	r25, 0x02	; 2
     4c8:	b1 f4       	brne	.+44     	; 0x4f6 <I2C_write+0x3e>
	{
		TWI0.MDATA = *data;		
     4ca:	80 81       	ld	r24, Z
     4cc:	80 93 18 08 	sts	0x0818, r24	; 0x800818 <__TEXT_REGION_LENGTH__+0x700818>
		while (!(TWI0.MSTATUS & TWI_WIF_bm))						// wait until WIF set, status register contains ACK/NACK bit
     4d0:	80 91 15 08 	lds	r24, 0x0815	; 0x800815 <__TEXT_REGION_LENGTH__+0x700815>
     4d4:	86 fd       	sbrc	r24, 6
     4d6:	06 c0       	rjmp	.+12     	; 0x4e4 <I2C_write+0x2c>
		{
			if (!(timeout_I2C)) return 0xff;			            // return timeout error
     4d8:	80 91 66 3a 	lds	r24, 0x3A66	; 0x803a66 <timeout_I2C>
     4dc:	81 11       	cpse	r24, r1
     4de:	f8 cf       	rjmp	.-16     	; 0x4d0 <I2C_write+0x18>
     4e0:	8f ef       	ldi	r24, 0xFF	; 255
     4e2:	08 95       	ret
		}
		if (TWI0.MSTATUS & TWI_BUSERR_bm) return 4;					// Bus Error, abort
     4e4:	80 91 15 08 	lds	r24, 0x0815	; 0x800815 <__TEXT_REGION_LENGTH__+0x700815>
     4e8:	82 fd       	sbrc	r24, 2
     4ea:	07 c0       	rjmp	.+14     	; 0x4fa <I2C_write+0x42>
		if (TWI0.MSTATUS & TWI_RXACK_bm) return 1;					// Slave replied with NACK, abort
     4ec:	80 91 15 08 	lds	r24, 0x0815	; 0x800815 <__TEXT_REGION_LENGTH__+0x700815>
	if ((TWI0.MSTATUS & TWI_BUSSTATE_gm) == TWI_BUSSTATE_OWNER_gc)	// if master controls bus
	{
		TWI0.MDATA = *data;		
		while (!(TWI0.MSTATUS & TWI_WIF_bm))						// wait until WIF set, status register contains ACK/NACK bit
		{
			if (!(timeout_I2C)) return 0xff;			            // return timeout error
     4f0:	82 95       	swap	r24
     4f2:	81 70       	andi	r24, 0x01	; 1
     4f4:	08 95       	ret
		}
		if (TWI0.MSTATUS & TWI_BUSERR_bm) return 4;					// Bus Error, abort
		if (TWI0.MSTATUS & TWI_RXACK_bm) return 1;					// Slave replied with NACK, abort
		return 0;													// no error	
	}
	else return 8;													// master does not control bus
     4f6:	88 e0       	ldi	r24, 0x08	; 8
     4f8:	08 95       	ret
		TWI0.MDATA = *data;		
		while (!(TWI0.MSTATUS & TWI_WIF_bm))						// wait until WIF set, status register contains ACK/NACK bit
		{
			if (!(timeout_I2C)) return 0xff;			            // return timeout error
		}
		if (TWI0.MSTATUS & TWI_BUSERR_bm) return 4;					// Bus Error, abort
     4fa:	84 e0       	ldi	r24, 0x04	; 4
		if (TWI0.MSTATUS & TWI_RXACK_bm) return 1;					// Slave replied with NACK, abort
		return 0;													// no error	
	}
	else return 8;													// master does not control bus
}
     4fc:	08 95       	ret

000004fe <I2C_stop>:

void I2C_stop()
{
	TWI0.MCTRLB |= TWI_MCMD_STOP_gc;
     4fe:	e0 e1       	ldi	r30, 0x10	; 16
     500:	f8 e0       	ldi	r31, 0x08	; 8
     502:	84 81       	ldd	r24, Z+4	; 0x04
     504:	83 60       	ori	r24, 0x03	; 3
     506:	84 83       	std	Z+4, r24	; 0x04
     508:	08 95       	ret

0000050a <I2C_read_bytes>:
// addr_ptr		address of first array element to transfer
// slave reg	starting slave register
// num_bytes	number of bytes to transfer

uint8_t	I2C_read_bytes(uint8_t slave_addr, uint8_t *reg_ptr, uint8_t reg_len, uint8_t *dat_ptr, uint8_t dat_len)
{
     50a:	cf 92       	push	r12
     50c:	df 92       	push	r13
     50e:	ff 92       	push	r15
     510:	0f 93       	push	r16
     512:	1f 93       	push	r17
     514:	cf 93       	push	r28
     516:	df 93       	push	r29
     518:	6b 01       	movw	r12, r22
     51a:	f4 2e       	mov	r15, r20
     51c:	e9 01       	movw	r28, r18
	uint8_t status;
	if (dat_len > MAX_LEN) dat_len = MAX_LEN;
	status = I2C_start(slave_addr << 1);							// slave write address, LSB 0
     51e:	18 2f       	mov	r17, r24
     520:	11 0f       	add	r17, r17
     522:	81 2f       	mov	r24, r17
     524:	50 df       	rcall	.-352    	; 0x3c6 <I2C_start>
	if (status != 0) goto error;
     526:	81 11       	cpse	r24, r1
	status = I2C_wait_ACK();										// wait for slave ACK
     528:	2b c0       	rjmp	.+86     	; 0x580 <I2C_read_bytes+0x76>
     52a:	5e df       	rcall	.-324    	; 0x3e8 <I2C_wait_ACK>
	if (status == 1) {
     52c:	81 30       	cpi	r24, 0x01	; 1
		I2C_stop();													// NACK, abort
     52e:	19 f4       	brne	.+6      	; 0x536 <I2C_read_bytes+0x2c>
     530:	e6 df       	rcall	.-52     	; 0x4fe <I2C_stop>
		return 1;
     532:	81 e0       	ldi	r24, 0x01	; 1
     534:	27 c0       	rjmp	.+78     	; 0x584 <I2C_read_bytes+0x7a>
	}
	if (status != 0) goto error;
     536:	81 11       	cpse	r24, r1
     538:	23 c0       	rjmp	.+70     	; 0x580 <I2C_read_bytes+0x76>
    while(reg_len > 0){
     53a:	ff 20       	and	r15, r15
	    status = I2C_write(reg_ptr);    							// send slave start register
     53c:	49 f0       	breq	.+18     	; 0x550 <I2C_read_bytes+0x46>
     53e:	c6 01       	movw	r24, r12
     540:	bb df       	rcall	.-138    	; 0x4b8 <I2C_write>
	    if (status != 0) goto error;
     542:	81 11       	cpse	r24, r1
     544:	1d c0       	rjmp	.+58     	; 0x580 <I2C_read_bytes+0x76>
        ++reg_ptr;
     546:	8f ef       	ldi	r24, 0xFF	; 255
     548:	c8 1a       	sub	r12, r24
     54a:	d8 0a       	sbc	r13, r24
        --reg_len;
     54c:	fa 94       	dec	r15
     54e:	f5 cf       	rjmp	.-22     	; 0x53a <I2C_read_bytes+0x30>
     550:	01 34       	cpi	r16, 0x41	; 65
     552:	08 f0       	brcs	.+2      	; 0x556 <I2C_read_bytes+0x4c>
     554:	00 e4       	ldi	r16, 0x40	; 64
    }
	I2C_rep_start((slave_addr << 1) + 1);							// slave read address, LSB 1
     556:	1f 5f       	subi	r17, 0xFF	; 255
// the Atmel device documentation mentions a special command for repeated start TWI_MCMD_REPSTART_gc,
// but this is not used in Atmel's demo code, so we don't use it either

void I2C_rep_start(uint8_t shifted_addr)						    // send repeated start, device_addr + LSB set if READ
{
	TWI0.MADDR = shifted_addr;	
     558:	10 93 17 08 	sts	0x0817, r17	; 0x800817 <__TEXT_REGION_LENGTH__+0x700817>
	    if (status != 0) goto error;
        ++reg_ptr;
        --reg_len;
    }
	I2C_rep_start((slave_addr << 1) + 1);							// slave read address, LSB 1
	while (dat_len > 1) {
     55c:	02 30       	cpi	r16, 0x02	; 2
		status = I2C_read(dat_ptr, 0);								// first bytes, send ACK
     55e:	40 f0       	brcs	.+16     	; 0x570 <I2C_read_bytes+0x66>
     560:	60 e0       	ldi	r22, 0x00	; 0
     562:	ce 01       	movw	r24, r28
     564:	68 df       	rcall	.-304    	; 0x436 <I2C_read>
		if (status != 0) goto error;
     566:	81 11       	cpse	r24, r1
     568:	0b c0       	rjmp	.+22     	; 0x580 <I2C_read_bytes+0x76>
		++dat_ptr;
		--dat_len;
     56a:	21 96       	adiw	r28, 0x01	; 1
     56c:	01 50       	subi	r16, 0x01	; 1
	}
	status = I2C_read(dat_ptr, 1);									// single or last byte, send NACK
     56e:	f6 cf       	rjmp	.-20     	; 0x55c <I2C_read_bytes+0x52>
     570:	61 e0       	ldi	r22, 0x01	; 1
     572:	ce 01       	movw	r24, r28
	if (status != 0) goto error;
     574:	60 df       	rcall	.-320    	; 0x436 <I2C_read>
     576:	81 11       	cpse	r24, r1
	I2C_stop();
     578:	03 c0       	rjmp	.+6      	; 0x580 <I2C_read_bytes+0x76>
     57a:	c1 df       	rcall	.-126    	; 0x4fe <I2C_stop>
	return 0;
     57c:	80 e0       	ldi	r24, 0x00	; 0
     57e:	02 c0       	rjmp	.+4      	; 0x584 <I2C_read_bytes+0x7a>
	
error:
	I2C_recover();													// clock out possibly stuck slave, reset master
     580:	e4 de       	rcall	.-568    	; 0x34a <I2C_recover>
     582:	8f ef       	ldi	r24, 0xFF	; 255
	return 0xff;													// flag error
     584:	df 91       	pop	r29
}
     586:	cf 91       	pop	r28
     588:	1f 91       	pop	r17
     58a:	0f 91       	pop	r16
     58c:	ff 90       	pop	r15
     58e:	df 90       	pop	r13
     590:	cf 90       	pop	r12
     592:	08 95       	ret

00000594 <initLanyard>:
uint8_t         lanyardCnt = 0;
uint8_t         lanyardState = TRUE;
uint16_t        lanyardLastActive = 0;

void initLanyard() {
    lanyardPos      = 0;
     594:	10 92 3d 38 	sts	0x383D, r1	; 0x80383d <lanyardPos>
    lanyardCnt      = 0;
     598:	10 92 3c 38 	sts	0x383C, r1	; 0x80383c <lanyardCnt>
    lanyardState    = TRUE;
     59c:	81 e0       	ldi	r24, 0x01	; 1
     59e:	80 93 02 38 	sts	0x3802, r24	; 0x803802 <lanyardState>
    ClearHackerLeds();
     5a2:	0c 94 1b 0b 	jmp	0x1636	; 0x1636 <ClearHackerLeds>
     5a6:	08 95       	ret

000005a8 <LanyardCode>:
}

// Main game loop
uint8_t LanyardCode(){
     5a8:	cf 93       	push	r28
    if (gameNow == LANYARD && idleTimeout(lanyardLastActive,LANYARD_MAX_IDLE)) {
     5aa:	80 91 42 38 	lds	r24, 0x3842	; 0x803842 <gameNow>
     5ae:	83 30       	cpi	r24, 0x03	; 3
     5b0:	81 f4       	brne	.+32     	; 0x5d2 <LanyardCode+0x2a>
     5b2:	6a e0       	ldi	r22, 0x0A	; 10
     5b4:	70 e0       	ldi	r23, 0x00	; 0
     5b6:	80 91 3a 38 	lds	r24, 0x383A	; 0x80383a <lanyardLastActive>
     5ba:	90 91 3b 38 	lds	r25, 0x383B	; 0x80383b <lanyardLastActive+0x1>
     5be:	0e 94 39 0e 	call	0x1c72	; 0x1c72 <idleTimeout>
     5c2:	88 23       	and	r24, r24
     5c4:	31 f0       	breq	.+12     	; 0x5d2 <LanyardCode+0x2a>
        /* clean up maze game and go back to text game */
        initLanyard();
     5c6:	e6 df       	rcall	.-52     	; 0x594 <initLanyard>
        gameNow = TEXT;
     5c8:	10 92 42 38 	sts	0x3842, r1	; 0x803842 <gameNow>
        ClearHackerLeds();
     5cc:	0e 94 1b 0b 	call	0x1636	; 0x1636 <ClearHackerLeds>
        return 0;
     5d0:	9b c0       	rjmp	.+310    	; 0x708 <LanyardCode+0x160>
    }

    if (CheckState(LANYARD_COMPLETED))
     5d2:	8b e7       	ldi	r24, 0x7B	; 123
     5d4:	22 d7       	rcall	.+3652   	; 0x141a <CheckState>
     5d6:	81 11       	cpse	r24, r1
     5d8:	97 c0       	rjmp	.+302    	; 0x708 <LanyardCode+0x160>
        return 0;

    if ( gameNow != TEXT && gameNow != LANYARD )
     5da:	80 91 42 38 	lds	r24, 0x3842	; 0x803842 <gameNow>
     5de:	88 23       	and	r24, r24
     5e0:	19 f0       	breq	.+6      	; 0x5e8 <LanyardCode+0x40>
     5e2:	83 30       	cpi	r24, 0x03	; 3
     5e4:	09 f0       	breq	.+2      	; 0x5e8 <LanyardCode+0x40>
     5e6:	90 c0       	rjmp	.+288    	; 0x708 <LanyardCode+0x160>
        return 0;

    /* activate led for buttonstate */
    iLED[CAT] = (buttonState==0xff ? 0 : dimValue);
     5e8:	c0 91 aa be 	lds	r28, 0xBEAA	; 0x80beaa <__bss_end+0x8392>
     5ec:	ec 2f       	mov	r30, r28
     5ee:	f0 e0       	ldi	r31, 0x00	; 0
     5f0:	80 91 08 38 	lds	r24, 0x3808	; 0x803808 <buttonState>
     5f4:	8f 3f       	cpi	r24, 0xFF	; 255
     5f6:	19 f0       	breq	.+6      	; 0x5fe <LanyardCode+0x56>
     5f8:	90 91 0c 38 	lds	r25, 0x380C	; 0x80380c <dimValue>
     5fc:	01 c0       	rjmp	.+2      	; 0x600 <LanyardCode+0x58>
     5fe:	90 e0       	ldi	r25, 0x00	; 0
     600:	e7 53       	subi	r30, 0x37	; 55
     602:	f5 4c       	sbci	r31, 0xC5	; 197
     604:	90 83       	st	Z, r25

    if (buttonState == 0xff)
     606:	8f 3f       	cpi	r24, 0xFF	; 255
     608:	09 f4       	brne	.+2      	; 0x60c <LanyardCode+0x64>
     60a:	7e c0       	rjmp	.+252    	; 0x708 <LanyardCode+0x160>
        return 0;

    if (buttonState == lastButtonState)
     60c:	90 91 07 38 	lds	r25, 0x3807	; 0x803807 <lastButtonState>
     610:	89 17       	cp	r24, r25
     612:	09 f4       	brne	.+2      	; 0x616 <LanyardCode+0x6e>
     614:	79 c0       	rjmp	.+242    	; 0x708 <LanyardCode+0x160>
        return 0;

    lanyardLastActive = getClock();
     616:	0e 94 2a 0e 	call	0x1c54	; 0x1c54 <getClock>
     61a:	80 93 3a 38 	sts	0x383A, r24	; 0x80383a <lanyardLastActive>
     61e:	90 93 3b 38 	sts	0x383B, r25	; 0x80383b <lanyardLastActive+0x1>

    if (lastButtonState == 0xff){
     622:	80 91 07 38 	lds	r24, 0x3807	; 0x803807 <lastButtonState>
     626:	8f 3f       	cpi	r24, 0xFF	; 255
     628:	09 f0       	breq	.+2      	; 0x62c <LanyardCode+0x84>
     62a:	6e c0       	rjmp	.+220    	; 0x708 <LanyardCode+0x160>
        effect = 0x13f + (buttonState << 5);
     62c:	80 91 08 38 	lds	r24, 0x3808	; 0x803808 <buttonState>
     630:	20 e2       	ldi	r18, 0x20	; 32
     632:	82 9f       	mul	r24, r18
     634:	c0 01       	movw	r24, r0
     636:	11 24       	eor	r1, r1
     638:	81 5c       	subi	r24, 0xC1	; 193
     63a:	9e 4f       	sbci	r25, 0xFE	; 254
     63c:	80 93 40 38 	sts	0x3840, r24	; 0x803840 <effect>
     640:	90 93 41 38 	sts	0x3841, r25	; 0x803841 <effect+0x1>

        if (gameNow != LANYARD)
     644:	80 91 42 38 	lds	r24, 0x3842	; 0x803842 <gameNow>
     648:	83 30       	cpi	r24, 0x03	; 3
            initLanyard();
     64a:	09 f0       	breq	.+2      	; 0x64e <LanyardCode+0xa6>
     64c:	a3 df       	rcall	.-186    	; 0x594 <initLanyard>
        gameNow = LANYARD;
     64e:	83 e0       	ldi	r24, 0x03	; 3
     650:	80 93 42 38 	sts	0x3842, r24	; 0x803842 <gameNow>

        if (buttonState == lanyardCode[lanyardPos]) {
     654:	80 91 3d 38 	lds	r24, 0x383D	; 0x80383d <lanyardPos>
     658:	e8 2f       	mov	r30, r24
     65a:	f0 e0       	ldi	r31, 0x00	; 0
     65c:	ee 56       	subi	r30, 0x6E	; 110
     65e:	f1 44       	sbci	r31, 0x41	; 65
     660:	20 81       	ld	r18, Z
     662:	90 91 08 38 	lds	r25, 0x3808	; 0x803808 <buttonState>
     666:	29 13       	cpse	r18, r25
     668:	12 c0       	rjmp	.+36     	; 0x68e <LanyardCode+0xe6>
            lanyardState &= TRUE;
     66a:	90 91 02 38 	lds	r25, 0x3802	; 0x803802 <lanyardState>
     66e:	91 70       	andi	r25, 0x01	; 1
     670:	90 93 02 38 	sts	0x3802, r25	; 0x803802 <lanyardState>
            iLED[EYE[R][L]] = 0;
     674:	e0 91 b9 be 	lds	r30, 0xBEB9	; 0x80beb9 <__bss_end+0x83a1>
     678:	f0 e0       	ldi	r31, 0x00	; 0
     67a:	e7 53       	subi	r30, 0x37	; 55
     67c:	f5 4c       	sbci	r31, 0xC5	; 197
     67e:	10 82       	st	Z, r1
            iLED[EYE[R][R]] = 0;
     680:	e0 91 b8 be 	lds	r30, 0xBEB8	; 0x80beb8 <__bss_end+0x83a0>
     684:	f0 e0       	ldi	r31, 0x00	; 0
     686:	e7 53       	subi	r30, 0x37	; 55
     688:	f5 4c       	sbci	r31, 0xC5	; 197
     68a:	10 82       	st	Z, r1
     68c:	09 c0       	rjmp	.+18     	; 0x6a0 <LanyardCode+0xf8>
        } else {
            lanyardState = FALSE;
     68e:	10 92 02 38 	sts	0x3802, r1	; 0x803802 <lanyardState>
            if (lanyardPos < 4 ) {
     692:	84 30       	cpi	r24, 0x04	; 4
                initLanyard();
     694:	28 f4       	brcc	.+10     	; 0x6a0 <LanyardCode+0xf8>
     696:	7e df       	rcall	.-260    	; 0x594 <initLanyard>
                gameNow         = BASTET;
     698:	82 e0       	ldi	r24, 0x02	; 2
     69a:	80 93 42 38 	sts	0x3842, r24	; 0x803842 <gameNow>
                return 0;
     69e:	34 c0       	rjmp	.+104    	; 0x708 <LanyardCode+0x160>
            }
        }
        lanyardPos++;
     6a0:	8f 5f       	subi	r24, 0xFF	; 255
     6a2:	80 93 3d 38 	sts	0x383D, r24	; 0x80383d <lanyardPos>
        lanyardCnt++;            
     6a6:	90 91 3c 38 	lds	r25, 0x383C	; 0x80383c <lanyardCnt>
     6aa:	9f 5f       	subi	r25, 0xFF	; 255
        if (lanyardCnt >= 4) {
     6ac:	94 30       	cpi	r25, 0x04	; 4
     6ae:	18 f4       	brcc	.+6      	; 0x6b6 <LanyardCode+0x10e>
                gameNow         = BASTET;
                return 0;
            }
        }
        lanyardPos++;
        lanyardCnt++;            
     6b0:	90 93 3c 38 	sts	0x383C, r25	; 0x80383c <lanyardCnt>
     6b4:	29 c0       	rjmp	.+82     	; 0x708 <LanyardCode+0x160>
        if (lanyardCnt >= 4) {
            lanyardCnt = 0;
     6b6:	10 92 3c 38 	sts	0x383C, r1	; 0x80383c <lanyardCnt>
            if (lanyardState == TRUE) {
     6ba:	90 91 02 38 	lds	r25, 0x3802	; 0x803802 <lanyardState>
     6be:	91 30       	cpi	r25, 0x01	; 1
     6c0:	e1 f4       	brne	.+56     	; 0x6fa <LanyardCode+0x152>
                if ((lanyardPos % 4) == 0) {
     6c2:	98 2f       	mov	r25, r24
     6c4:	93 70       	andi	r25, 0x03	; 3
     6c6:	69 f4       	brne	.+26     	; 0x6e2 <LanyardCode+0x13a>
                    iLED[HCKR[G][(lanyardPos>>2)-1]] = dimValue;
     6c8:	e8 2f       	mov	r30, r24
     6ca:	e6 95       	lsr	r30
     6cc:	e6 95       	lsr	r30
     6ce:	f0 e0       	ldi	r31, 0x00	; 0
     6d0:	e4 54       	subi	r30, 0x44	; 68
     6d2:	f1 44       	sbci	r31, 0x41	; 65
     6d4:	e5 81       	ldd	r30, Z+5	; 0x05
     6d6:	f0 e0       	ldi	r31, 0x00	; 0
     6d8:	90 91 0c 38 	lds	r25, 0x380C	; 0x80380c <dimValue>
     6dc:	e7 53       	subi	r30, 0x37	; 55
     6de:	f5 4c       	sbci	r31, 0xC5	; 197
                }
                if (lanyardPos == LANYARD_LEN) {
     6e0:	90 83       	st	Z, r25
     6e2:	88 31       	cpi	r24, 0x18	; 24
                    UpdateState(LANYARD_COMPLETED);
     6e4:	89 f4       	brne	.+34     	; 0x708 <LanyardCode+0x160>
     6e6:	8b e7       	ldi	r24, 0x7B	; 123
     6e8:	77 d6       	rcall	.+3310   	; 0x13d8 <UpdateState>
                    iLED[CAT]       = 0;
     6ea:	ec 2f       	mov	r30, r28
     6ec:	f0 e0       	ldi	r31, 0x00	; 0
     6ee:	e7 53       	subi	r30, 0x37	; 55
     6f0:	f5 4c       	sbci	r31, 0xC5	; 197
                    effect = 0x42;
     6f2:	10 82       	st	Z, r1
     6f4:	82 e4       	ldi	r24, 0x42	; 66
     6f6:	90 e0       	ldi	r25, 0x00	; 0
                    /*TODO state = STATE_MUSIC;*/
                }
            } else {
                initLanyard();
     6f8:	03 c0       	rjmp	.+6      	; 0x700 <LanyardCode+0x158>
     6fa:	4c df       	rcall	.-360    	; 0x594 <initLanyard>
                effect = 0x21;
     6fc:	81 e2       	ldi	r24, 0x21	; 33
     6fe:	90 e0       	ldi	r25, 0x00	; 0
     700:	80 93 40 38 	sts	0x3840, r24	; 0x803840 <effect>
     704:	90 93 41 38 	sts	0x3841, r25	; 0x803841 <effect+0x1>
            }
        }
    }

    return 0;
}
     708:	80 e0       	ldi	r24, 0x00	; 0
     70a:	cf 91       	pop	r28
     70c:	08 95       	ret

0000070e <initMaze>:
uint8_t         mazeState = TRUE;
uint8_t         inverted  = FALSE;
uint16_t        mazeLastActive = 0;

void initMaze() {
    mazeHckrPos = 0;
     70e:	10 92 4f 38 	sts	0x384F, r1	; 0x80384f <mazeHckrPos>
    mazePos = 0;
     712:	10 92 50 38 	sts	0x3850, r1	; 0x803850 <mazePos>
    mazeCnt = 0;
     716:	10 92 4e 38 	sts	0x384E, r1	; 0x80384e <mazeCnt>
    mazeState = TRUE;
     71a:	81 e0       	ldi	r24, 0x01	; 1
     71c:	80 93 0d 38 	sts	0x380D, r24	; 0x80380d <mazeState>
    inverted  = FALSE;
     720:	10 92 4d 38 	sts	0x384D, r1	; 0x80384d <inverted>
    ClearHackerLeds();
     724:	88 c7       	rjmp	.+3856   	; 0x1636 <ClearHackerLeds>
     726:	08 95       	ret

00000728 <showFieldStrength>:
}

void showFieldStrength(int16_t val) {
     728:	cf 93       	push	r28
     72a:	df 93       	push	r29
     72c:	ec 01       	movw	r28, r24
    int16_t field;
 
    field = abs(val);
     72e:	97 ff       	sbrs	r25, 7
     730:	03 c0       	rjmp	.+6      	; 0x738 <showFieldStrength+0x10>
     732:	d1 95       	neg	r29
     734:	c1 95       	neg	r28
     736:	d1 09       	sbc	r29, r1
 
    if ( field > HALL_FIELD_0 ) {
     738:	cd 33       	cpi	r28, 0x3D	; 61
     73a:	d1 05       	cpc	r29, r1
     73c:	44 f0       	brlt	.+16     	; 0x74e <showFieldStrength+0x26>
        if (gameNow == TEXT) {
     73e:	80 91 42 38 	lds	r24, 0x3842	; 0x803842 <gameNow>
     742:	81 11       	cpse	r24, r1
     744:	04 c0       	rjmp	.+8      	; 0x74e <showFieldStrength+0x26>
            initMaze();
     746:	e3 df       	rcall	.-58     	; 0x70e <initMaze>
            gameNow = MAZE;
     748:	81 e0       	ldi	r24, 0x01	; 1
     74a:	80 93 42 38 	sts	0x3842, r24	; 0x803842 <gameNow>
        }
    }

    if (gameNow == MAZE) {
     74e:	80 91 42 38 	lds	r24, 0x3842	; 0x803842 <gameNow>
     752:	81 30       	cpi	r24, 0x01	; 1
     754:	09 f5       	brne	.+66     	; 0x798 <showFieldStrength+0x70>
        if ( field < HALL_FIELD_0 )
     756:	cc 33       	cpi	r28, 0x3C	; 60
     758:	d1 05       	cpc	r29, r1
     75a:	1c f4       	brge	.+6      	; 0x762 <showFieldStrength+0x3a>
            WingBar(0,0);
     75c:	60 e0       	ldi	r22, 0x00	; 0
     75e:	80 e0       	ldi	r24, 0x00	; 0
     760:	1a c0       	rjmp	.+52     	; 0x796 <showFieldStrength+0x6e>
        else if ( field < HALL_FIELD_1 )
     762:	c8 37       	cpi	r28, 0x78	; 120
     764:	d1 05       	cpc	r29, r1
     766:	1c f4       	brge	.+6      	; 0x76e <showFieldStrength+0x46>
            WingBar(1,1);
     768:	61 e0       	ldi	r22, 0x01	; 1
     76a:	81 e0       	ldi	r24, 0x01	; 1
     76c:	14 c0       	rjmp	.+40     	; 0x796 <showFieldStrength+0x6e>
        else if ( field < HALL_FIELD_2 )
     76e:	c6 39       	cpi	r28, 0x96	; 150
     770:	d1 05       	cpc	r29, r1
     772:	1c f4       	brge	.+6      	; 0x77a <showFieldStrength+0x52>
            WingBar(2,2);
     774:	62 e0       	ldi	r22, 0x02	; 2
     776:	82 e0       	ldi	r24, 0x02	; 2
     778:	0e c0       	rjmp	.+28     	; 0x796 <showFieldStrength+0x6e>
        else if ( field < HALL_FIELD_3 )
     77a:	c8 3c       	cpi	r28, 0xC8	; 200
     77c:	d1 05       	cpc	r29, r1
     77e:	1c f4       	brge	.+6      	; 0x786 <showFieldStrength+0x5e>
            WingBar(3,3);
     780:	63 e0       	ldi	r22, 0x03	; 3
     782:	83 e0       	ldi	r24, 0x03	; 3
     784:	08 c0       	rjmp	.+16     	; 0x796 <showFieldStrength+0x6e>
        else if ( field < HALL_FIELD_4 )
     786:	cc 32       	cpi	r28, 0x2C	; 44
     788:	d1 40       	sbci	r29, 0x01	; 1
     78a:	1c f4       	brge	.+6      	; 0x792 <showFieldStrength+0x6a>
            WingBar(4,4);
     78c:	64 e0       	ldi	r22, 0x04	; 4
     78e:	84 e0       	ldi	r24, 0x04	; 4
     790:	02 c0       	rjmp	.+4      	; 0x796 <showFieldStrength+0x6e>
        else
            WingBar(5,5);
     792:	65 e0       	ldi	r22, 0x05	; 5
     794:	85 e0       	ldi	r24, 0x05	; 5
     796:	11 d7       	rcall	.+3618   	; 0x15ba <WingBar>
    }
}
     798:	df 91       	pop	r29
     79a:	cf 91       	pop	r28
     79c:	08 95       	ret

0000079e <MagnetMaze>:

// Main game loop
uint8_t MagnetMaze(){
     79e:	cf 93       	push	r28
     7a0:	df 93       	push	r29
    if (gameNow == MAZE && idleTimeout(mazeLastActive,MAZE_MAX_IDLE)) {
     7a2:	80 91 42 38 	lds	r24, 0x3842	; 0x803842 <gameNow>
     7a6:	81 30       	cpi	r24, 0x01	; 1
     7a8:	71 f4       	brne	.+28     	; 0x7c6 <MagnetMaze+0x28>
     7aa:	6a e0       	ldi	r22, 0x0A	; 10
     7ac:	70 e0       	ldi	r23, 0x00	; 0
     7ae:	80 91 4b 38 	lds	r24, 0x384B	; 0x80384b <mazeLastActive>
     7b2:	90 91 4c 38 	lds	r25, 0x384C	; 0x80384c <mazeLastActive+0x1>
     7b6:	0e 94 39 0e 	call	0x1c72	; 0x1c72 <idleTimeout>
     7ba:	88 23       	and	r24, r24
     7bc:	21 f0       	breq	.+8      	; 0x7c6 <MagnetMaze+0x28>
        /* clean up maze game and go back to text game */
        initMaze();
     7be:	a7 df       	rcall	.-178    	; 0x70e <initMaze>
        gameNow = TEXT;
     7c0:	10 92 42 38 	sts	0x3842, r1	; 0x803842 <gameNow>
        return 0;
     7c4:	e5 c0       	rjmp	.+458    	; 0x990 <MagnetMaze+0x1f2>
    }
        
    if (CheckState(MAZE_INACTIVE))
     7c6:	87 ef       	ldi	r24, 0xF7	; 247
     7c8:	28 d6       	rcall	.+3152   	; 0x141a <CheckState>
     7ca:	81 11       	cpse	r24, r1
     7cc:	e1 c0       	rjmp	.+450    	; 0x990 <MagnetMaze+0x1f2>
        return 0;

    if (CheckState(MAZE_COMPLETED))
     7ce:	8d e7       	ldi	r24, 0x7D	; 125
     7d0:	24 d6       	rcall	.+3144   	; 0x141a <CheckState>
     7d2:	81 11       	cpse	r24, r1
     7d4:	dd c0       	rjmp	.+442    	; 0x990 <MagnetMaze+0x1f2>
     7d6:	80 91 42 38 	lds	r24, 0x3842	; 0x803842 <gameNow>
        return 0;

    if ( (gameNow != TEXT) && (gameNow != MAZE) )
     7da:	82 30       	cpi	r24, 0x02	; 2
     7dc:	08 f0       	brcs	.+2      	; 0x7e0 <MagnetMaze+0x42>
     7de:	d8 c0       	rjmp	.+432    	; 0x990 <MagnetMaze+0x1f2>
     7e0:	80 91 f1 3a 	lds	r24, 0x3AF1	; 0x803af1 <calHall>
        return 0;

    if (calHall == 0)
     7e4:	90 91 f2 3a 	lds	r25, 0x3AF2	; 0x803af2 <calHall+0x1>
     7e8:	89 2b       	or	r24, r25
     7ea:	41 f4       	brne	.+16     	; 0x7fc <MagnetMaze+0x5e>
     7ec:	80 91 c1 3a 	lds	r24, 0x3AC1	; 0x803ac1 <adcHall>
        calHall = adcHall;
     7f0:	90 91 c2 3a 	lds	r25, 0x3AC2	; 0x803ac2 <adcHall+0x1>
     7f4:	80 93 f1 3a 	sts	0x3AF1, r24	; 0x803af1 <calHall>
     7f8:	90 93 f2 3a 	sts	0x3AF2, r25	; 0x803af2 <calHall+0x1>
     7fc:	c0 91 c1 3a 	lds	r28, 0x3AC1	; 0x803ac1 <adcHall>

    int16_t valHall = adcHall - calHall;
     800:	d0 91 c2 3a 	lds	r29, 0x3AC2	; 0x803ac2 <adcHall+0x1>
     804:	80 91 f1 3a 	lds	r24, 0x3AF1	; 0x803af1 <calHall>
     808:	90 91 f2 3a 	lds	r25, 0x3AF2	; 0x803af2 <calHall+0x1>
     80c:	c8 1b       	sub	r28, r24
     80e:	d9 0b       	sbc	r29, r25
    showFieldStrength(valHall);
     810:	ce 01       	movw	r24, r28
     812:	8a df       	rcall	.-236    	; 0x728 <showFieldStrength>
     814:	80 91 52 38 	lds	r24, 0x3852	; 0x803852 <curHallState>

    switch (curHallState) {
     818:	81 30       	cpi	r24, 0x01	; 1
     81a:	89 f0       	breq	.+34     	; 0x83e <MagnetMaze+0xa0>
     81c:	18 f0       	brcs	.+6      	; 0x824 <MagnetMaze+0x86>
     81e:	82 30       	cpi	r24, 0x02	; 2
     820:	c1 f0       	breq	.+48     	; 0x852 <MagnetMaze+0xb4>
     822:	1f c0       	rjmp	.+62     	; 0x862 <MagnetMaze+0xc4>
     824:	c4 3d       	cpi	r28, 0xD4	; 212
        case 0:
            if ( valHall + HALL_HIGH < 0 ) {
     826:	9e ef       	ldi	r25, 0xFE	; 254
     828:	d9 07       	cpc	r29, r25
     82a:	14 f4       	brge	.+4      	; 0x830 <MagnetMaze+0x92>
     82c:	91 e0       	ldi	r25, 0x01	; 1
                newHallState = 1;
     82e:	04 c0       	rjmp	.+8      	; 0x838 <MagnetMaze+0x9a>
     830:	cd 32       	cpi	r28, 0x2D	; 45
            } else if ( valHall - HALL_HIGH > 0 ) {
     832:	d1 40       	sbci	r29, 0x01	; 1
     834:	5c f0       	brlt	.+22     	; 0x84c <MagnetMaze+0xae>
     836:	92 e0       	ldi	r25, 0x02	; 2
                newHallState = 2;
     838:	90 93 51 38 	sts	0x3851, r25	; 0x803851 <newHallState>
     83c:	12 c0       	rjmp	.+36     	; 0x862 <MagnetMaze+0xc4>
     83e:	cd 32       	cpi	r28, 0x2D	; 45
                newHallState = 0;
            }
            break;
        
        case 1:
            if ( valHall - HALL_HIGH > 0 ) {
     840:	91 e0       	ldi	r25, 0x01	; 1
     842:	d9 07       	cpc	r29, r25
     844:	c4 f7       	brge	.-16     	; 0x836 <MagnetMaze+0x98>
     846:	c9 38       	cpi	r28, 0x89	; 137
                newHallState = 2;
            } else if ( valHall + HALL_LOW > 0 ) {
     848:	df 4f       	sbci	r29, 0xFF	; 255
     84a:	84 f3       	brlt	.-32     	; 0x82c <MagnetMaze+0x8e>
     84c:	10 92 51 38 	sts	0x3851, r1	; 0x803851 <newHallState>
            if ( valHall + HALL_HIGH < 0 ) {
                newHallState = 1;
            } else if ( valHall - HALL_HIGH > 0 ) {
                newHallState = 2;
            } else {
                newHallState = 0;
     850:	08 c0       	rjmp	.+16     	; 0x862 <MagnetMaze+0xc4>
     852:	c4 3d       	cpi	r28, 0xD4	; 212
                newHallState = 1;
            }
            break;
        
        case 2:
            if ( valHall + HALL_HIGH < 0 ) {
     854:	9e ef       	ldi	r25, 0xFE	; 254
     856:	d9 07       	cpc	r29, r25
     858:	4c f3       	brlt	.-46     	; 0x82c <MagnetMaze+0x8e>
     85a:	c8 37       	cpi	r28, 0x78	; 120
                newHallState = 1;
            } else if ( valHall - HALL_LOW < 0 ) {
     85c:	d1 05       	cpc	r29, r1
     85e:	b4 f3       	brlt	.-20     	; 0x84c <MagnetMaze+0xae>
     860:	ea cf       	rjmp	.-44     	; 0x836 <MagnetMaze+0x98>
     862:	c0 91 aa be 	lds	r28, 0xBEAA	; 0x80beaa <__bss_end+0x8392>
            }
            break;
    }

    /* Indicate that the magnet was read succesfully */
    iLED[CAT] = (newHallState ? dimValue : 0);
     866:	ec 2f       	mov	r30, r28
     868:	f0 e0       	ldi	r31, 0x00	; 0
     86a:	90 91 51 38 	lds	r25, 0x3851	; 0x803851 <newHallState>
     86e:	99 23       	and	r25, r25
     870:	19 f0       	breq	.+6      	; 0x878 <MagnetMaze+0xda>
     872:	20 91 0c 38 	lds	r18, 0x380C	; 0x80380c <dimValue>
     876:	01 c0       	rjmp	.+2      	; 0x87a <MagnetMaze+0xdc>
     878:	20 e0       	ldi	r18, 0x00	; 0
     87a:	e7 53       	subi	r30, 0x37	; 55
     87c:	f5 4c       	sbci	r31, 0xC5	; 197
     87e:	20 83       	st	Z, r18
     880:	2f e9       	ldi	r18, 0x9F	; 159
    effect = 0x19f;
     882:	31 e0       	ldi	r19, 0x01	; 1
     884:	20 93 40 38 	sts	0x3840, r18	; 0x803840 <effect>
     888:	30 93 41 38 	sts	0x3841, r19	; 0x803841 <effect+0x1>
     88c:	89 17       	cp	r24, r25

    if (newHallState != curHallState) {
     88e:	09 f4       	brne	.+2      	; 0x892 <MagnetMaze+0xf4>
     890:	7f c0       	rjmp	.+254    	; 0x990 <MagnetMaze+0x1f2>
     892:	0e 94 2a 0e 	call	0x1c54	; 0x1c54 <getClock>
        /* keep track of time to enable an idle timeout to exit the game */
        mazeLastActive = getClock();
     896:	80 93 4b 38 	sts	0x384B, r24	; 0x80384b <mazeLastActive>
     89a:	90 93 4c 38 	sts	0x384C, r25	; 0x80384c <mazeLastActive+0x1>
     89e:	90 91 50 38 	lds	r25, 0x3850	; 0x803850 <mazePos>

        /* Make the maze work regardless of badge orientation */
        if ((mazePos == 0) && (newHallState != 0))
     8a2:	80 91 51 38 	lds	r24, 0x3851	; 0x803851 <newHallState>
     8a6:	91 11       	cpse	r25, r1
     8a8:	08 c0       	rjmp	.+16     	; 0x8ba <MagnetMaze+0x11c>
     8aa:	88 23       	and	r24, r24
     8ac:	31 f0       	breq	.+12     	; 0x8ba <MagnetMaze+0x11c>
     8ae:	91 e0       	ldi	r25, 0x01	; 1
            inverted = (newHallState != mazeCode[0]) ? TRUE : FALSE;
     8b0:	81 30       	cpi	r24, 0x01	; 1
     8b2:	09 f4       	brne	.+2      	; 0x8b6 <MagnetMaze+0x118>
     8b4:	90 e0       	ldi	r25, 0x00	; 0
     8b6:	90 93 4d 38 	sts	0x384D, r25	; 0x80384d <inverted>
     8ba:	80 93 52 38 	sts	0x3852, r24	; 0x803852 <curHallState>

        curHallState = newHallState;
     8be:	88 23       	and	r24, r24
        
        if (curHallState != 0) {
     8c0:	09 f4       	brne	.+2      	; 0x8c4 <MagnetMaze+0x126>
     8c2:	66 c0       	rjmp	.+204    	; 0x990 <MagnetMaze+0x1f2>
     8c4:	80 91 42 38 	lds	r24, 0x3842	; 0x803842 <gameNow>
            if (gameNow == TEXT)
     8c8:	81 11       	cpse	r24, r1
     8ca:	01 c0       	rjmp	.+2      	; 0x8ce <MagnetMaze+0x130>
                initMaze();
     8cc:	20 df       	rcall	.-448    	; 0x70e <initMaze>
     8ce:	81 e0       	ldi	r24, 0x01	; 1
            gameNow = MAZE;
     8d0:	80 93 42 38 	sts	0x3842, r24	; 0x803842 <gameNow>
     8d4:	80 91 4d 38 	lds	r24, 0x384D	; 0x80384d <inverted>

            if ( (inverted ? curHallState^3 : curHallState) == mazeCode[mazePos]) {
     8d8:	20 91 52 38 	lds	r18, 0x3852	; 0x803852 <curHallState>
     8dc:	88 23       	and	r24, r24
     8de:	11 f0       	breq	.+4      	; 0x8e4 <MagnetMaze+0x146>
     8e0:	83 e0       	ldi	r24, 0x03	; 3
     8e2:	28 27       	eor	r18, r24
     8e4:	30 e0       	ldi	r19, 0x00	; 0
     8e6:	80 91 50 38 	lds	r24, 0x3850	; 0x803850 <mazePos>
     8ea:	e8 2f       	mov	r30, r24
     8ec:	f0 e0       	ldi	r31, 0x00	; 0
     8ee:	e8 50       	subi	r30, 0x08	; 8
     8f0:	f1 44       	sbci	r31, 0x41	; 65
     8f2:	40 81       	ld	r20, Z
     8f4:	50 e0       	ldi	r21, 0x00	; 0
     8f6:	24 17       	cp	r18, r20
     8f8:	35 07       	cpc	r19, r21
     8fa:	91 f4       	brne	.+36     	; 0x920 <MagnetMaze+0x182>
     8fc:	90 91 0d 38 	lds	r25, 0x380D	; 0x80380d <mazeState>
                mazeState &= TRUE;
     900:	91 70       	andi	r25, 0x01	; 1
     902:	90 93 0d 38 	sts	0x380D, r25	; 0x80380d <mazeState>
     906:	e0 91 b9 be 	lds	r30, 0xBEB9	; 0x80beb9 <__bss_end+0x83a1>
                iLED[EYE[R][L]] = 0;
     90a:	f0 e0       	ldi	r31, 0x00	; 0
     90c:	e7 53       	subi	r30, 0x37	; 55
     90e:	f5 4c       	sbci	r31, 0xC5	; 197
     910:	10 82       	st	Z, r1
     912:	e0 91 b8 be 	lds	r30, 0xBEB8	; 0x80beb8 <__bss_end+0x83a0>
                iLED[EYE[R][R]] = 0;
     916:	f0 e0       	ldi	r31, 0x00	; 0
     918:	e7 53       	subi	r30, 0x37	; 55
     91a:	f5 4c       	sbci	r31, 0xC5	; 197
     91c:	10 82       	st	Z, r1
     91e:	02 c0       	rjmp	.+4      	; 0x924 <MagnetMaze+0x186>
     920:	10 92 0d 38 	sts	0x380D, r1	; 0x80380d <mazeState>
            } else {
                mazeState = FALSE;
     924:	8f 5f       	subi	r24, 0xFF	; 255
            }
            mazePos++;
     926:	80 93 50 38 	sts	0x3850, r24	; 0x803850 <mazePos>
     92a:	90 91 4e 38 	lds	r25, 0x384E	; 0x80384e <mazeCnt>
            mazeCnt++;            
     92e:	9f 5f       	subi	r25, 0xFF	; 255
     930:	93 30       	cpi	r25, 0x03	; 3
            if (mazeCnt >= 3) {
     932:	18 f4       	brcc	.+6      	; 0x93a <MagnetMaze+0x19c>
     934:	90 93 4e 38 	sts	0x384E, r25	; 0x80384e <mazeCnt>
                iLED[EYE[R][R]] = 0;
            } else {
                mazeState = FALSE;
            }
            mazePos++;
            mazeCnt++;            
     938:	2b c0       	rjmp	.+86     	; 0x990 <MagnetMaze+0x1f2>
     93a:	10 92 4e 38 	sts	0x384E, r1	; 0x80384e <mazeCnt>
            if (mazeCnt >= 3) {
                mazeCnt = 0;
     93e:	90 91 0d 38 	lds	r25, 0x380D	; 0x80380d <mazeState>
                if (mazeState == TRUE) {
     942:	91 30       	cpi	r25, 0x01	; 1
     944:	e1 f4       	brne	.+56     	; 0x97e <MagnetMaze+0x1e0>
     946:	90 91 4f 38 	lds	r25, 0x384F	; 0x80384f <mazeHckrPos>
                    iLED[HCKR[G][mazeHckrPos]] = dimValue;
     94a:	e9 2f       	mov	r30, r25
     94c:	f0 e0       	ldi	r31, 0x00	; 0
     94e:	e4 54       	subi	r30, 0x44	; 68
     950:	f1 44       	sbci	r31, 0x41	; 65
     952:	e6 81       	ldd	r30, Z+6	; 0x06
     954:	f0 e0       	ldi	r31, 0x00	; 0
     956:	20 91 0c 38 	lds	r18, 0x380C	; 0x80380c <dimValue>
     95a:	e7 53       	subi	r30, 0x37	; 55
     95c:	f5 4c       	sbci	r31, 0xC5	; 197
     95e:	20 83       	st	Z, r18
     960:	9f 5f       	subi	r25, 0xFF	; 255
                    mazeHckrPos++;
     962:	90 93 4f 38 	sts	0x384F, r25	; 0x80384f <mazeHckrPos>
                    if (mazePos == sizeof(mazeCode)) {
     966:	82 31       	cpi	r24, 0x12	; 18
     968:	99 f4       	brne	.+38     	; 0x990 <MagnetMaze+0x1f2>
                        UpdateState(MAZE_COMPLETED);
     96a:	8d e7       	ldi	r24, 0x7D	; 125
     96c:	35 d5       	rcall	.+2666   	; 0x13d8 <UpdateState>
     96e:	ec 2f       	mov	r30, r28
                        iLED[CAT]       = 0;
     970:	f0 e0       	ldi	r31, 0x00	; 0
     972:	e7 53       	subi	r30, 0x37	; 55
     974:	f5 4c       	sbci	r31, 0xC5	; 197
     976:	10 82       	st	Z, r1
                        effect = 0x42;
     978:	82 e4       	ldi	r24, 0x42	; 66
     97a:	90 e0       	ldi	r25, 0x00	; 0
     97c:	05 c0       	rjmp	.+10     	; 0x988 <MagnetMaze+0x1ea>
                        /*TODO state = STATE_MUSIC;*/
                    }
                } else {
                    initMaze();
     97e:	c7 de       	rcall	.-626    	; 0x70e <initMaze>
     980:	10 92 42 38 	sts	0x3842, r1	; 0x803842 <gameNow>
                    gameNow   = TEXT;
     984:	81 e2       	ldi	r24, 0x21	; 33
                    effect = 0x21;
     986:	90 e0       	ldi	r25, 0x00	; 0
     988:	80 93 40 38 	sts	0x3840, r24	; 0x803840 <effect>
     98c:	90 93 41 38 	sts	0x3841, r25	; 0x803841 <effect+0x1>
     990:	80 e0       	ldi	r24, 0x00	; 0
                }
            }
        }
    }
    return 0;
}
     992:	df 91       	pop	r29
     994:	cf 91       	pop	r28
     996:	08 95       	ret

00000998 <Setup>:
     998:	cf 93       	push	r28
volatile uint16_t tmp16bit;    
volatile uint8_t mask[8] = {0x01, 0x03, 0x07, 0x0f, 0x1f, 0x3f, 0x7f, 0xff};
uint8_t HeartCount = 0;
uint8_t LedCount = 0;

void Setup(){
     99a:	df 93       	push	r29
    cli();
     99c:	f8 94       	cli

    //Set up clock at 10MHz
    CCP = CCP_IOREG_gc;
     99e:	88 ed       	ldi	r24, 0xD8	; 216
     9a0:	84 bf       	out	0x34, r24	; 52
    CLKCTRL_MCLKCTRLB = 0x01;
     9a2:	c1 e0       	ldi	r28, 0x01	; 1
     9a4:	c0 93 61 00 	sts	0x0061, r28	; 0x800061 <__TEXT_REGION_LENGTH__+0x700061>

    //Set I/O direction registers
    PORTA_DIR = 0b01001010;
     9a8:	8a e4       	ldi	r24, 0x4A	; 74
     9aa:	80 93 00 04 	sts	0x0400, r24	; 0x800400 <__TEXT_REGION_LENGTH__+0x700400>
    PORTB_DIR = 0b01111100;
     9ae:	8c e7       	ldi	r24, 0x7C	; 124
     9b0:	80 93 20 04 	sts	0x0420, r24	; 0x800420 <__TEXT_REGION_LENGTH__+0x700420>
    PORTC_DIR = 0b00111111;
     9b4:	9f e3       	ldi	r25, 0x3F	; 63
     9b6:	90 93 40 04 	sts	0x0440, r25	; 0x800440 <__TEXT_REGION_LENGTH__+0x700440>

    //Invert some pins for correcting LED reversal error
#ifndef PURIST_BADGE
    PORTC_PIN3CTRL |= 0x80;
     9ba:	80 91 53 04 	lds	r24, 0x0453	; 0x800453 <__TEXT_REGION_LENGTH__+0x700453>
     9be:	80 68       	ori	r24, 0x80	; 128
     9c0:	80 93 53 04 	sts	0x0453, r24	; 0x800453 <__TEXT_REGION_LENGTH__+0x700453>
    PORTC_PIN4CTRL |= 0x80;
     9c4:	80 91 54 04 	lds	r24, 0x0454	; 0x800454 <__TEXT_REGION_LENGTH__+0x700454>
     9c8:	80 68       	ori	r24, 0x80	; 128
     9ca:	80 93 54 04 	sts	0x0454, r24	; 0x800454 <__TEXT_REGION_LENGTH__+0x700454>
    PORTC_PIN5CTRL |= 0x80;
     9ce:	80 91 55 04 	lds	r24, 0x0455	; 0x800455 <__TEXT_REGION_LENGTH__+0x700455>
     9d2:	80 68       	ori	r24, 0x80	; 128
     9d4:	80 93 55 04 	sts	0x0455, r24	; 0x800455 <__TEXT_REGION_LENGTH__+0x700455>
    PORTB_PIN3CTRL |= 0x80;
     9d8:	80 91 33 04 	lds	r24, 0x0433	; 0x800433 <__TEXT_REGION_LENGTH__+0x700433>
     9dc:	80 68       	ori	r24, 0x80	; 128
     9de:	80 93 33 04 	sts	0x0433, r24	; 0x800433 <__TEXT_REGION_LENGTH__+0x700433>
    PORTB_PIN4CTRL |= 0x80;
     9e2:	80 91 34 04 	lds	r24, 0x0434	; 0x800434 <__TEXT_REGION_LENGTH__+0x700434>
     9e6:	80 68       	ori	r24, 0x80	; 128
     9e8:	80 93 34 04 	sts	0x0434, r24	; 0x800434 <__TEXT_REGION_LENGTH__+0x700434>
    PORTB_PIN5CTRL |= 0x80;
     9ec:	80 91 35 04 	lds	r24, 0x0435	; 0x800435 <__TEXT_REGION_LENGTH__+0x700435>
     9f0:	80 68       	ori	r24, 0x80	; 128
     9f2:	80 93 35 04 	sts	0x0435, r24	; 0x800435 <__TEXT_REGION_LENGTH__+0x700435>
    PORTB_PIN2CTRL |= 0x80;
    PORTB_PIN6CTRL |= 0x80;
    */

    //UART (Alternative pins PA1=TxD, PA2=RxD, baudrate 9600, 8n1, RX and Buffer empty interrupts on)
    PORTMUX_CTRLB = 0x01;
     9f6:	c0 93 01 02 	sts	0x0201, r28	; 0x800201 <__TEXT_REGION_LENGTH__+0x700201>
    PORTA_OUTSET = 0x02;
     9fa:	d2 e0       	ldi	r29, 0x02	; 2
     9fc:	d0 93 05 04 	sts	0x0405, r29	; 0x800405 <__TEXT_REGION_LENGTH__+0x700405>
    USART0_BAUD = (uint16_t)USART0_BAUD_RATE(115200);
     a00:	2b e5       	ldi	r18, 0x5B	; 91
     a02:	31 e0       	ldi	r19, 0x01	; 1
     a04:	20 93 08 08 	sts	0x0808, r18	; 0x800808 <__TEXT_REGION_LENGTH__+0x700808>
     a08:	30 93 09 08 	sts	0x0809, r19	; 0x800809 <__TEXT_REGION_LENGTH__+0x700809>
    USART0_CTRLA = 0xA0; //Interrupts on
     a0c:	80 ea       	ldi	r24, 0xA0	; 160
     a0e:	80 93 05 08 	sts	0x0805, r24	; 0x800805 <__TEXT_REGION_LENGTH__+0x700805>
    USART0_CTRLB = 0xC0; //RX and TX on
     a12:	80 ec       	ldi	r24, 0xC0	; 192
     a14:	80 93 06 08 	sts	0x0806, r24	; 0x800806 <__TEXT_REGION_LENGTH__+0x700806>
    USART0_CTRLC = 0x03; //8 bits data, no parity, 1 stop bit
     a18:	83 e0       	ldi	r24, 0x03	; 3
     a1a:	80 93 07 08 	sts	0x0807, r24	; 0x800807 <__TEXT_REGION_LENGTH__+0x700807>
     
    //GPIO registers 0..3 can be used for global variables used in ISR routines (ASM capability: IN, OUT, SBI, CBI, SBIS, SBIC)
    L_COL = 0;     //Used in LED array to hold currently driven column value
     a1e:	1c ba       	out	0x1c, r1	; 28
    RXCNT = 0;     //Used as UART receive counter
     a20:	1d ba       	out	0x1d, r1	; 29
    GPIOR3 = 0;    //
     a22:	1f ba       	out	0x1f, r1	; 31

    //Init TCA (split mode, f_CLK/16, PWM on 6 alternative pins, underflow int enabled, synced and started)
    TCA0_SPLIT_CTRLD = 1;
     a24:	c0 93 03 0a 	sts	0x0A03, r28	; 0x800a03 <__TEXT_REGION_LENGTH__+0x700a03>
    TCA0_SPLIT_CTRLA = (0x4)<<1;
     a28:	88 e0       	ldi	r24, 0x08	; 8
     a2a:	80 93 00 0a 	sts	0x0A00, r24	; 0x800a00 <__TEXT_REGION_LENGTH__+0x700a00>
    PORTMUX_CTRLC = 0x3F;
     a2e:	90 93 02 02 	sts	0x0202, r25	; 0x800202 <__TEXT_REGION_LENGTH__+0x700202>
    TCA0_SPLIT_CTRLB = 0x77;
     a32:	87 e7       	ldi	r24, 0x77	; 119
     a34:	80 93 01 0a 	sts	0x0A01, r24	; 0x800a01 <__TEXT_REGION_LENGTH__+0x700a01>
    TCA0_SPLIT_INTCTRL = 0x1;
     a38:	c0 93 0a 0a 	sts	0x0A0A, r28	; 0x800a0a <__TEXT_REGION_LENGTH__+0x700a0a>
    TCA0_SPLIT_CTRLESET = ((0x2)<<2)|0x3;
     a3c:	8b e0       	ldi	r24, 0x0B	; 11
     a3e:	80 93 05 0a 	sts	0x0A05, r24	; 0x800a05 <__TEXT_REGION_LENGTH__+0x700a05>
    TCA0_SPLIT_CTRLA |= 1;
     a42:	80 91 00 0a 	lds	r24, 0x0A00	; 0x800a00 <__TEXT_REGION_LENGTH__+0x700a00>
     a46:	81 60       	ori	r24, 0x01	; 1
     a48:	80 93 00 0a 	sts	0x0A00, r24	; 0x800a00 <__TEXT_REGION_LENGTH__+0x700a00>
     
    //Init TCB0 (compare value sets serial Tx pause between characters, uses TCA0 prescaler, enabled, interrupt disabled)
    TCB0_CTRLA = ((0x02)<<1)|0x01;
     a4c:	85 e0       	ldi	r24, 0x05	; 5
     a4e:	80 93 40 0a 	sts	0x0A40, r24	; 0x800a40 <__TEXT_REGION_LENGTH__+0x700a40>
    TCB0_CTRLB = 0;
     a52:	10 92 41 0a 	sts	0x0A41, r1	; 0x800a41 <__TEXT_REGION_LENGTH__+0x700a41>
    TCB0_CCMP = 0x01FF;
     a56:	8f ef       	ldi	r24, 0xFF	; 255
     a58:	91 e0       	ldi	r25, 0x01	; 1
     a5a:	80 93 4c 0a 	sts	0x0A4C, r24	; 0x800a4c <__TEXT_REGION_LENGTH__+0x700a4c>
     a5e:	90 93 4d 0a 	sts	0x0A4D, r25	; 0x800a4d <__TEXT_REGION_LENGTH__+0x700a4d>
    TCB0_INTCTRL = 0x00;     
     a62:	10 92 45 0a 	sts	0x0A45, r1	; 0x800a45 <__TEXT_REGION_LENGTH__+0x700a45>
     
    //Init TCB1 (compare value sets audio sample rate (0x038B = 11025sps), enabled, interrupt enabled)
    TCB1_CTRLA = 0x01;
     a66:	c0 93 50 0a 	sts	0x0A50, r28	; 0x800a50 <__TEXT_REGION_LENGTH__+0x700a50>
    TCB1_CTRLB = 0;
     a6a:	10 92 51 0a 	sts	0x0A51, r1	; 0x800a51 <__TEXT_REGION_LENGTH__+0x700a51>
    TCB1_CCMP = 0x038B;
     a6e:	8b e8       	ldi	r24, 0x8B	; 139
     a70:	93 e0       	ldi	r25, 0x03	; 3
     a72:	80 93 5c 0a 	sts	0x0A5C, r24	; 0x800a5c <__TEXT_REGION_LENGTH__+0x700a5c>
     a76:	90 93 5d 0a 	sts	0x0A5D, r25	; 0x800a5d <__TEXT_REGION_LENGTH__+0x700a5d>
    TCB1_INTCTRL = 0x01;
     a7a:	c0 93 55 0a 	sts	0x0A55, r28	; 0x800a55 <__TEXT_REGION_LENGTH__+0x700a55>

    //Init I2C (100kHz)
    I2C_init();
     a7e:	47 dc       	rcall	.-1906   	; 0x30e <I2C_init>

    //VREF (DAC, ADC's)
    VREF_CTRLA   = 0x12;    //0x22 for audio in/out (2.5V), 0x12 for temperature in, audio out (1.1V/2.5V)
     a80:	82 e1       	ldi	r24, 0x12	; 18
     a82:	80 93 a0 00 	sts	0x00A0, r24	; 0x8000a0 <__TEXT_REGION_LENGTH__+0x7000a0>
    VREF_CTRLC   = 0x20;    //ADC1 reference at 2.5V
     a86:	80 e2       	ldi	r24, 0x20	; 32
     a88:	80 93 a2 00 	sts	0x00A2, r24	; 0x8000a2 <__TEXT_REGION_LENGTH__+0x7000a2>
    VREF_CTRLB   = 0x01;    //DAC0 ref forced enabled
     a8c:	c0 93 a1 00 	sts	0x00A1, r28	; 0x8000a1 <__TEXT_REGION_LENGTH__+0x7000a1>

    //Init ADC0 (audio in, also controls DAC output rate, internal temperature?)
    ADC0_CTRLA   = 0x02;    //10 bit resolution, free running
     a90:	d0 93 00 06 	sts	0x0600, r29	; 0x800600 <__TEXT_REGION_LENGTH__+0x700600>
    ADC0_CTRLC   = 0x44;    //Reduced sample capacitor, internal reference, clock/32 => 24038sps
     a94:	84 e4       	ldi	r24, 0x44	; 68
     a96:	80 93 02 06 	sts	0x0602, r24	; 0x800602 <__TEXT_REGION_LENGTH__+0x700602>
    ADC0_MUXPOS  = 0x1E;    //Audio in: AIN7 at (0x07), Temperature: Internal sensor at (0x1E)
     a9a:	8e e1       	ldi	r24, 0x1E	; 30
     a9c:	80 93 06 06 	sts	0x0606, r24	; 0x800606 <__TEXT_REGION_LENGTH__+0x700606>
    ADC0_INTCTRL = 0x01;    //Result ready interrupt enabled
     aa0:	c0 93 0a 06 	sts	0x060A, r28	; 0x80060a <__TEXT_REGION_LENGTH__+0x70060a>
    ADC0_CTRLA  |= 0x01;    //ADC0 enabled
     aa4:	80 91 00 06 	lds	r24, 0x0600	; 0x800600 <__TEXT_REGION_LENGTH__+0x700600>
     aa8:	81 60       	ori	r24, 0x01	; 1
     aaa:	80 93 00 06 	sts	0x0600, r24	; 0x800600 <__TEXT_REGION_LENGTH__+0x700600>
    ADC0_COMMAND = 0x01;    //Start first conversion, after that it will run periodically.
     aae:	c0 93 08 06 	sts	0x0608, r28	; 0x800608 <__TEXT_REGION_LENGTH__+0x700608>

    //Init ADC1 (buttons and sensors: CH0=Photo transistor, CH1=Hall, CH4=Buttons)
    ADC1_CTRLA   = 0;
     ab2:	10 92 40 06 	sts	0x0640, r1	; 0x800640 <__TEXT_REGION_LENGTH__+0x700640>
    ADC1_CTRLB   = 0x02;    //4 results automatically accumulated
     ab6:	d0 93 41 06 	sts	0x0641, r29	; 0x800641 <__TEXT_REGION_LENGTH__+0x700641>
    ADC1_CTRLC   = 0x52;    //Reduced sample capacitor, VDD as reference, clock/8
     aba:	82 e5       	ldi	r24, 0x52	; 82
     abc:	80 93 42 06 	sts	0x0642, r24	; 0x800642 <__TEXT_REGION_LENGTH__+0x700642>
    ADC1_SAMPCTRL= 0x04;    //Extend sampling time with 4 cycles (6 total)
     ac0:	84 e0       	ldi	r24, 0x04	; 4
     ac2:	80 93 45 06 	sts	0x0645, r24	; 0x800645 <__TEXT_REGION_LENGTH__+0x700645>
    ADC1_MUXPOS  = 0x04;    //Start with Buttons, for sensors, activate sensor power first.
     ac6:	80 93 46 06 	sts	0x0646, r24	; 0x800646 <__TEXT_REGION_LENGTH__+0x700646>
    ADC1_INTCTRL = 0x01;    //Result ready interrupt enabled
     aca:	c0 93 4a 06 	sts	0x064A, r28	; 0x80064a <__TEXT_REGION_LENGTH__+0x70064a>
    ADC1_CTRLA  |= 0x01;    //ADC0 enabled
     ace:	80 91 40 06 	lds	r24, 0x0640	; 0x800640 <__TEXT_REGION_LENGTH__+0x700640>
     ad2:	81 60       	ori	r24, 0x01	; 1
     ad4:	80 93 40 06 	sts	0x0640, r24	; 0x800640 <__TEXT_REGION_LENGTH__+0x700640>
    ADC1_COMMAND = 0x01;    //Start single conversion
     ad8:	c0 93 48 06 	sts	0x0648, r28	; 0x800648 <__TEXT_REGION_LENGTH__+0x700648>

    //Init DAC0
    DAC0_CTRLA = 0x40;     //Enable output buffer (connect to pin)
     adc:	80 e4       	ldi	r24, 0x40	; 64
     ade:	80 93 a0 06 	sts	0x06A0, r24	; 0x8006a0 <__TEXT_REGION_LENGTH__+0x7006a0>
    DAC0_DATA = 0x80;      //Data value at half point (about 1.25V)
     ae2:	80 e8       	ldi	r24, 0x80	; 128
     ae4:	80 93 a1 06 	sts	0x06A1, r24	; 0x8006a1 <__TEXT_REGION_LENGTH__+0x7006a1>
    DAC0_CTRLA |= 0x01;    //Enable DAC
     ae8:	80 91 a0 06 	lds	r24, 0x06A0	; 0x8006a0 <__TEXT_REGION_LENGTH__+0x7006a0>
     aec:	81 60       	ori	r24, 0x01	; 1
     aee:	80 93 a0 06 	sts	0x06A0, r24	; 0x8006a0 <__TEXT_REGION_LENGTH__+0x7006a0>
     
    //PIT and RTC interrupts
    while(RTC_STATUS & RTC_CTRLABUSY_bm);
     af2:	80 91 41 01 	lds	r24, 0x0141	; 0x800141 <__TEXT_REGION_LENGTH__+0x700141>
     af6:	80 fd       	sbrc	r24, 0
     af8:	fc cf       	rjmp	.-8      	; 0xaf2 <Setup+0x15a>
    RTC_CTRLA          = (0x6)<<3;                         //Prescaler: /64
     afa:	80 e3       	ldi	r24, 0x30	; 48
     afc:	80 93 40 01 	sts	0x0140, r24	; 0x800140 <__TEXT_REGION_LENGTH__+0x700140>
    RTC_CLKSEL         = 0;                                //Clock source: internal 32768Hz clock
     b00:	10 92 47 01 	sts	0x0147, r1	; 0x800147 <__TEXT_REGION_LENGTH__+0x700147>
    while(RTC_STATUS & RTC_PERBUSY_bm);
     b04:	80 91 41 01 	lds	r24, 0x0141	; 0x800141 <__TEXT_REGION_LENGTH__+0x700141>
     b08:	82 fd       	sbrc	r24, 2
     b0a:	fc cf       	rjmp	.-8      	; 0xb04 <Setup+0x16c>
    RTC_PER            = 512*60;                           //60 second period (for clocking how long the device has been running?)
     b0c:	80 e0       	ldi	r24, 0x00	; 0
     b0e:	98 e7       	ldi	r25, 0x78	; 120
     b10:	80 93 4a 01 	sts	0x014A, r24	; 0x80014a <__TEXT_REGION_LENGTH__+0x70014a>
     b14:	90 93 4b 01 	sts	0x014B, r25	; 0x80014b <__TEXT_REGION_LENGTH__+0x70014b>
    tmp16bit = (RTC_CNT + BTN_TMR);
     b18:	80 91 48 01 	lds	r24, 0x0148	; 0x800148 <__TEXT_REGION_LENGTH__+0x700148>
     b1c:	90 91 49 01 	lds	r25, 0x0149	; 0x800149 <__TEXT_REGION_LENGTH__+0x700149>
     b20:	82 96       	adiw	r24, 0x22	; 34
     b22:	80 93 f5 3a 	sts	0x3AF5, r24	; 0x803af5 <tmp16bit>
     b26:	90 93 f6 3a 	sts	0x3AF6, r25	; 0x803af6 <tmp16bit+0x1>
    if (tmp16bit > RTC_PER) tmp16bit -= RTC_PER;
     b2a:	20 91 4a 01 	lds	r18, 0x014A	; 0x80014a <__TEXT_REGION_LENGTH__+0x70014a>
     b2e:	30 91 4b 01 	lds	r19, 0x014B	; 0x80014b <__TEXT_REGION_LENGTH__+0x70014b>
     b32:	80 91 f5 3a 	lds	r24, 0x3AF5	; 0x803af5 <tmp16bit>
     b36:	90 91 f6 3a 	lds	r25, 0x3AF6	; 0x803af6 <tmp16bit+0x1>
     b3a:	28 17       	cp	r18, r24
     b3c:	39 07       	cpc	r19, r25
     b3e:	70 f4       	brcc	.+28     	; 0xb5c <Setup+0x1c4>
     b40:	20 91 4a 01 	lds	r18, 0x014A	; 0x80014a <__TEXT_REGION_LENGTH__+0x70014a>
     b44:	30 91 4b 01 	lds	r19, 0x014B	; 0x80014b <__TEXT_REGION_LENGTH__+0x70014b>
     b48:	80 91 f5 3a 	lds	r24, 0x3AF5	; 0x803af5 <tmp16bit>
     b4c:	90 91 f6 3a 	lds	r25, 0x3AF6	; 0x803af6 <tmp16bit+0x1>
     b50:	82 1b       	sub	r24, r18
     b52:	93 0b       	sbc	r25, r19
     b54:	80 93 f5 3a 	sts	0x3AF5, r24	; 0x803af5 <tmp16bit>
     b58:	90 93 f6 3a 	sts	0x3AF6, r25	; 0x803af6 <tmp16bit+0x1>
    while(RTC_STATUS & RTC_CMPBUSY_bm);
     b5c:	80 91 41 01 	lds	r24, 0x0141	; 0x800141 <__TEXT_REGION_LENGTH__+0x700141>
     b60:	83 fd       	sbrc	r24, 3
     b62:	fc cf       	rjmp	.-8      	; 0xb5c <Setup+0x1c4>
    RTC_CMP            = tmp16bit;                         //Button timing
     b64:	80 91 f5 3a 	lds	r24, 0x3AF5	; 0x803af5 <tmp16bit>
     b68:	90 91 f6 3a 	lds	r25, 0x3AF6	; 0x803af6 <tmp16bit+0x1>
     b6c:	80 93 4c 01 	sts	0x014C, r24	; 0x80014c <__TEXT_REGION_LENGTH__+0x70014c>
     b70:	90 93 4d 01 	sts	0x014D, r25	; 0x80014d <__TEXT_REGION_LENGTH__+0x70014d>
    RTC_INTCTRL        = 0x03;                             //RTC overflow interrupt enabled
     b74:	83 e0       	ldi	r24, 0x03	; 3
     b76:	80 93 42 01 	sts	0x0142, r24	; 0x800142 <__TEXT_REGION_LENGTH__+0x700142>
    RTC_PITINTCTRL     = 0x01;                             //PIT interrupt enabled
     b7a:	81 e0       	ldi	r24, 0x01	; 1
     b7c:	80 93 52 01 	sts	0x0152, r24	; 0x800152 <__TEXT_REGION_LENGTH__+0x700152>
    RTC_PITCTRLA       = (0x1)<<3;                         //Interrupt fires after 4 RTC clock cycles Rate=(RTCCLK/(PRESC*PERIOD)) 32768/256=128Hz
     b80:	88 e0       	ldi	r24, 0x08	; 8
     b82:	80 93 50 01 	sts	0x0150, r24	; 0x800150 <__TEXT_REGION_LENGTH__+0x700150>
    while(RTC_STATUS & RTC_CTRLABUSY_bm);      
     b86:	80 91 41 01 	lds	r24, 0x0141	; 0x800141 <__TEXT_REGION_LENGTH__+0x700141>
     b8a:	80 fd       	sbrc	r24, 0
     b8c:	fc cf       	rjmp	.-8      	; 0xb86 <Setup+0x1ee>
    RTC_CTRLA          |= 0x01;                            //Enable RTC
     b8e:	80 91 40 01 	lds	r24, 0x0140	; 0x800140 <__TEXT_REGION_LENGTH__+0x700140>
     b92:	81 60       	ori	r24, 0x01	; 1
     b94:	80 93 40 01 	sts	0x0140, r24	; 0x800140 <__TEXT_REGION_LENGTH__+0x700140>
    RTC_PITCTRLA       |= 0x01;                            //Enable PIT
     b98:	80 91 50 01 	lds	r24, 0x0150	; 0x800150 <__TEXT_REGION_LENGTH__+0x700150>
     b9c:	81 60       	ori	r24, 0x01	; 1
     b9e:	80 93 50 01 	sts	0x0150, r24	; 0x800150 <__TEXT_REGION_LENGTH__+0x700150>
     
    //Other inits
    serRx[0] = 0;           // Empty Rx buffer (first char is enough)
     ba2:	10 92 7b 3a 	sts	0x3A7B, r1	; 0x803a7b <serRx>
    serTxAddr = &serRx[0];  // Point to first address of the Rx buffer
     ba6:	8b e7       	ldi	r24, 0x7B	; 123
     ba8:	9a e3       	ldi	r25, 0x3A	; 58
     baa:	80 93 bf 3a 	sts	0x3ABF, r24	; 0x803abf <serTxAddr>
     bae:	90 93 c0 3a 	sts	0x3AC0, r25	; 0x803ac0 <serTxAddr+0x1>

    sei();
     bb2:	78 94       	sei
}
     bb4:	df 91       	pop	r29
     bb6:	cf 91       	pop	r28
     bb8:	08 95       	ret

00000bba <__vector_8>:

// TCA0 is used for driving the LED matrix at 488Hz (* 5 columns = 2440Hz). The lower 8 bit underflow interrupt is used to load new values and shift between columns.
ISR(TCA0_LUNF_vect){
     bba:	1f 92       	push	r1
     bbc:	0f 92       	push	r0
     bbe:	0f b6       	in	r0, 0x3f	; 63
     bc0:	0f 92       	push	r0
     bc2:	11 24       	eor	r1, r1
     bc4:	8f 93       	push	r24
     bc6:	9f 93       	push	r25
     bc8:	af 93       	push	r26
     bca:	bf 93       	push	r27
     bcc:	ef 93       	push	r30
     bce:	ff 93       	push	r31
    //Turn off all columns
    PORTC_OUTCLR = 0x07;
     bd0:	87 e0       	ldi	r24, 0x07	; 7
     bd2:	80 93 46 04 	sts	0x0446, r24	; 0x800446 <__TEXT_REGION_LENGTH__+0x700446>
    PORTB_OUTCLR = 0x44;
     bd6:	84 e4       	ldi	r24, 0x44	; 68
     bd8:	80 93 26 04 	sts	0x0426, r24	; 0x800426 <__TEXT_REGION_LENGTH__+0x700426>
    "ldi r25, 6        \n"
    "ld r24, %a[arr]+  \n"
    "st %a[wo]+, r24   \n"
    "dec r25           \n"
    "brne .-8          \n"
    :: [wo] "e" (&TCA0_SPLIT_LCMP0), [arr] "e" (&iLED[(L_COL<<3)]) : "r25", "r24", "cc", "memory");
     bdc:	ec b3       	in	r30, 0x1c	; 28
     bde:	88 e0       	ldi	r24, 0x08	; 8
     be0:	e8 9f       	mul	r30, r24
     be2:	f0 01       	movw	r30, r0
     be4:	11 24       	eor	r1, r1
     be6:	e7 53       	subi	r30, 0x37	; 55
     be8:	f5 4c       	sbci	r31, 0xC5	; 197
    //Turn off all columns
    PORTC_OUTCLR = 0x07;
    PORTB_OUTCLR = 0x44;

    //Write all of the compare registers of TCA0 with PWM values in array (rows)
    asm(
     bea:	a8 e2       	ldi	r26, 0x28	; 40
     bec:	ba e0       	ldi	r27, 0x0A	; 10
     bee:	96 e0       	ldi	r25, 0x06	; 6
     bf0:	81 91       	ld	r24, Z+
     bf2:	8d 93       	st	X+, r24
     bf4:	9a 95       	dec	r25
     bf6:	e1 f7       	brne	.-8      	; 0xbf0 <__vector_8+0x36>
    "st %a[wo]+, r24   \n"
    "dec r25           \n"
    "brne .-8          \n"
    :: [wo] "e" (&TCA0_SPLIT_LCMP0), [arr] "e" (&iLED[(L_COL<<3)]) : "r25", "r24", "cc", "memory");

    TCA0_SPLIT_CTRLESET = ((0x2)<<2)|0x3; //Sync timers: Moved this below the PWM value loading to fix the data shifting in asm above.
     bf8:	8b e0       	ldi	r24, 0x0B	; 11
     bfa:	80 93 05 0a 	sts	0x0A05, r24	; 0x800a05 <__TEXT_REGION_LENGTH__+0x700a05>

    //Turn on the right column
    if (L_COL<3) {
     bfe:	8c b3       	in	r24, 0x1c	; 28
     c00:	83 30       	cpi	r24, 0x03	; 3
     c02:	58 f4       	brcc	.+22     	; 0xc1a <__vector_8+0x60>
        asm(
     c04:	8c b3       	in	r24, 0x1c	; 28
     c06:	91 e0       	ldi	r25, 0x01	; 1
     c08:	01 c0       	rjmp	.+2      	; 0xc0c <__vector_8+0x52>
     c0a:	99 0f       	add	r25, r25
     c0c:	8a 95       	dec	r24
     c0e:	ea f7       	brpl	.-6      	; 0xc0a <__vector_8+0x50>
     c10:	99 b9       	out	0x09, r25	; 9
     c12:	8c b3       	in	r24, 0x1c	; 28
     c14:	83 95       	inc	r24
     c16:	8c bb       	out	0x1c, r24	; 28
     c18:	0a c0       	rjmp	.+20     	; 0xc2e <__vector_8+0x74>
        "in r24, %[io0]  \n"
        "inc r24         \n"
        "out %[io0], r24 \n"
        :: [io0] "I" (&L_COL), [vpc] "I" (&VPORTC_OUT) : "r24", "r25", "cc");
        } else {
        asm(
     c1a:	8c b3       	in	r24, 0x1c	; 28
     c1c:	83 30       	cpi	r24, 0x03	; 3
     c1e:	21 f4       	brne	.+8      	; 0xc28 <__vector_8+0x6e>
     c20:	2a 9a       	sbi	0x05, 2	; 5
     c22:	83 95       	inc	r24
     c24:	8c bb       	out	0x1c, r24	; 28
     c26:	03 c0       	rjmp	.+6      	; 0xc2e <__vector_8+0x74>
     c28:	2e 9a       	sbi	0x05, 6	; 5
     c2a:	88 27       	eor	r24, r24
     c2c:	8c bb       	out	0x1c, r24	; 28
        "clr r24         \n"
        "out %[io0], r24 \n"
        :: [io0] "I" (&L_COL), [vpb] "I" (&VPORTB_OUT) : "r24", "cc");
    }
    
    if(timeout_I2C) --timeout_I2C;
     c2e:	80 91 66 3a 	lds	r24, 0x3A66	; 0x803a66 <timeout_I2C>
     c32:	88 23       	and	r24, r24
     c34:	29 f0       	breq	.+10     	; 0xc40 <__vector_8+0x86>
     c36:	80 91 66 3a 	lds	r24, 0x3A66	; 0x803a66 <timeout_I2C>
     c3a:	81 50       	subi	r24, 0x01	; 1
     c3c:	80 93 66 3a 	sts	0x3A66, r24	; 0x803a66 <timeout_I2C>
    TCA0_SPLIT_INTFLAGS = 0xFF;
     c40:	8f ef       	ldi	r24, 0xFF	; 255
     c42:	80 93 0b 0a 	sts	0x0A0B, r24	; 0x800a0b <__TEXT_REGION_LENGTH__+0x700a0b>
}
     c46:	ff 91       	pop	r31
     c48:	ef 91       	pop	r30
     c4a:	bf 91       	pop	r27
     c4c:	af 91       	pop	r26
     c4e:	9f 91       	pop	r25
     c50:	8f 91       	pop	r24
     c52:	0f 90       	pop	r0
     c54:	0f be       	out	0x3f, r0	; 63
     c56:	0f 90       	pop	r0
     c58:	1f 90       	pop	r1
     c5a:	18 95       	reti

00000c5c <__vector_13>:

// TCB0 is used for (slowly) sending serial characters. A 0x00 character code is needed to terminate sending or it will leak memory to serial. It's a feature, honest! 
ISR(TCB0_INT_vect){
     c5c:	1f 92       	push	r1
     c5e:	0f 92       	push	r0
     c60:	0f b6       	in	r0, 0x3f	; 63
     c62:	0f 92       	push	r0
     c64:	11 24       	eor	r1, r1
     c66:	8f 93       	push	r24
     c68:	9f 93       	push	r25
     c6a:	ef 93       	push	r30
     c6c:	ff 93       	push	r31
    if (*serTxAddr) {
     c6e:	e0 91 bf 3a 	lds	r30, 0x3ABF	; 0x803abf <serTxAddr>
     c72:	f0 91 c0 3a 	lds	r31, 0x3AC0	; 0x803ac0 <serTxAddr+0x1>
     c76:	80 81       	ld	r24, Z
     c78:	88 23       	and	r24, r24
     c7a:	91 f0       	breq	.+36     	; 0xca0 <__vector_13+0x44>
        USART0_TXDATAL = *serTxAddr;
     c7c:	80 81       	ld	r24, Z
     c7e:	80 93 02 08 	sts	0x0802, r24	; 0x800802 <__TEXT_REGION_LENGTH__+0x700802>
        ++serTxAddr;
     c82:	80 91 bf 3a 	lds	r24, 0x3ABF	; 0x803abf <serTxAddr>
     c86:	90 91 c0 3a 	lds	r25, 0x3AC0	; 0x803ac0 <serTxAddr+0x1>
     c8a:	01 96       	adiw	r24, 0x01	; 1
     c8c:	80 93 bf 3a 	sts	0x3ABF, r24	; 0x803abf <serTxAddr>
     c90:	90 93 c0 3a 	sts	0x3AC0, r25	; 0x803ac0 <serTxAddr+0x1>
        USART0_CTRLA |= USART_DREIE_bm;
     c94:	80 91 05 08 	lds	r24, 0x0805	; 0x800805 <__TEXT_REGION_LENGTH__+0x700805>
     c98:	80 62       	ori	r24, 0x20	; 32
     c9a:	80 93 05 08 	sts	0x0805, r24	; 0x800805 <__TEXT_REGION_LENGTH__+0x700805>
     c9e:	05 c0       	rjmp	.+10     	; 0xcaa <__vector_13+0x4e>
    } else {
        serTxDone = 1;
     ca0:	81 e0       	ldi	r24, 0x01	; 1
     ca2:	80 93 09 38 	sts	0x3809, r24	; 0x803809 <serTxDone>
        TCB0_INTCTRL = 0x00;
     ca6:	10 92 45 0a 	sts	0x0A45, r1	; 0x800a45 <__TEXT_REGION_LENGTH__+0x700a45>
    }
    TCB0_INTFLAGS = TCB_CAPT_bm;
     caa:	81 e0       	ldi	r24, 0x01	; 1
     cac:	80 93 46 0a 	sts	0x0A46, r24	; 0x800a46 <__TEXT_REGION_LENGTH__+0x700a46>
}
     cb0:	ff 91       	pop	r31
     cb2:	ef 91       	pop	r30
     cb4:	9f 91       	pop	r25
     cb6:	8f 91       	pop	r24
     cb8:	0f 90       	pop	r0
     cba:	0f be       	out	0x3f, r0	; 63
     cbc:	0f 90       	pop	r0
     cbe:	1f 90       	pop	r1
     cc0:	18 95       	reti

00000cc2 <__vector_14>:

// TCB1 is used for audio generation. Keeps playing "data" until 0 is reached. Audio sample data can contain 0x01 to 0xFF, centered around 0x80
ISR(TCB1_INT_vect){
     cc2:	1f 92       	push	r1
     cc4:	0f 92       	push	r0
     cc6:	0f b6       	in	r0, 0x3f	; 63
     cc8:	0f 92       	push	r0
     cca:	11 24       	eor	r1, r1
     ccc:	2f 93       	push	r18
     cce:	3f 93       	push	r19
     cd0:	4f 93       	push	r20
     cd2:	8f 93       	push	r24
     cd4:	9f 93       	push	r25
     cd6:	ef 93       	push	r30
     cd8:	ff 93       	push	r31
    int16_t volCtrl;
    if (*auSmpAddr == 0) auSmpAddr = auRepAddr;
     cda:	e0 91 05 38 	lds	r30, 0x3805	; 0x803805 <auSmpAddr>
     cde:	f0 91 06 38 	lds	r31, 0x3806	; 0x803806 <auSmpAddr+0x1>
     ce2:	80 81       	ld	r24, Z
     ce4:	81 11       	cpse	r24, r1
     ce6:	08 c0       	rjmp	.+16     	; 0xcf8 <__vector_14+0x36>
     ce8:	80 91 03 38 	lds	r24, 0x3803	; 0x803803 <auRepAddr>
     cec:	90 91 04 38 	lds	r25, 0x3804	; 0x803804 <auRepAddr+0x1>
     cf0:	80 93 05 38 	sts	0x3805, r24	; 0x803805 <auSmpAddr>
     cf4:	90 93 06 38 	sts	0x3806, r25	; 0x803806 <auSmpAddr+0x1>
    if (*auSmpAddr) {
     cf8:	e0 91 05 38 	lds	r30, 0x3805	; 0x803805 <auSmpAddr>
     cfc:	f0 91 06 38 	lds	r31, 0x3806	; 0x803806 <auSmpAddr+0x1>
     d00:	80 81       	ld	r24, Z
     d02:	88 23       	and	r24, r24
     d04:	e1 f0       	breq	.+56     	; 0xd3e <__vector_14+0x7c>
        volCtrl = ((((int16_t)(*auSmpAddr) - 0x7f) * auVolume) >> 8) + 0x80;
     d06:	20 81       	ld	r18, Z
     d08:	40 91 bc 3a 	lds	r20, 0x3ABC	; 0x803abc <auVolume>
        DAC0_DATA = (uint8_t)(volCtrl);
     d0c:	30 e0       	ldi	r19, 0x00	; 0
     d0e:	2f 57       	subi	r18, 0x7F	; 127
     d10:	31 09       	sbc	r19, r1
     d12:	42 9f       	mul	r20, r18
     d14:	c0 01       	movw	r24, r0
     d16:	43 9f       	mul	r20, r19
     d18:	90 0d       	add	r25, r0
     d1a:	11 24       	eor	r1, r1
     d1c:	89 2f       	mov	r24, r25
     d1e:	99 0f       	add	r25, r25
     d20:	99 0b       	sbc	r25, r25
     d22:	80 58       	subi	r24, 0x80	; 128
     d24:	9f 4f       	sbci	r25, 0xFF	; 255
     d26:	80 93 a1 06 	sts	0x06A1, r24	; 0x8006a1 <__TEXT_REGION_LENGTH__+0x7006a1>
        ++auSmpAddr;
     d2a:	80 91 05 38 	lds	r24, 0x3805	; 0x803805 <auSmpAddr>
     d2e:	90 91 06 38 	lds	r25, 0x3806	; 0x803806 <auSmpAddr+0x1>
     d32:	01 96       	adiw	r24, 0x01	; 1
     d34:	80 93 05 38 	sts	0x3805, r24	; 0x803805 <auSmpAddr>
     d38:	90 93 06 38 	sts	0x3806, r25	; 0x803806 <auSmpAddr+0x1>
     d3c:	06 c0       	rjmp	.+12     	; 0xd4a <__vector_14+0x88>
    } else {
        auVolume = 0xff;
     d3e:	8f ef       	ldi	r24, 0xFF	; 255
     d40:	80 93 bc 3a 	sts	0x3ABC, r24	; 0x803abc <auVolume>
        DAC0_DATA = 0x80;
     d44:	80 e8       	ldi	r24, 0x80	; 128
     d46:	80 93 a1 06 	sts	0x06A1, r24	; 0x8006a1 <__TEXT_REGION_LENGTH__+0x7006a1>
    }
    TCB1_INTFLAGS = TCB_CAPT_bm;
     d4a:	81 e0       	ldi	r24, 0x01	; 1
     d4c:	80 93 56 0a 	sts	0x0A56, r24	; 0x800a56 <__TEXT_REGION_LENGTH__+0x700a56>
}
     d50:	ff 91       	pop	r31
     d52:	ef 91       	pop	r30
     d54:	9f 91       	pop	r25
     d56:	8f 91       	pop	r24
     d58:	4f 91       	pop	r20
     d5a:	3f 91       	pop	r19
     d5c:	2f 91       	pop	r18
     d5e:	0f 90       	pop	r0
     d60:	0f be       	out	0x3f, r0	; 63
     d62:	0f 90       	pop	r0
     d64:	1f 90       	pop	r1
     d66:	18 95       	reti

00000d68 <__vector_27>:

// Reads up to RXLEN characters until LF is found, LF sets the serRxDone flag and writes 0 instead of LF.
ISR(USART0_RXC_vect){
     d68:	1f 92       	push	r1
     d6a:	0f 92       	push	r0
     d6c:	0f b6       	in	r0, 0x3f	; 63
     d6e:	0f 92       	push	r0
     d70:	11 24       	eor	r1, r1
     d72:	8f 93       	push	r24
     d74:	ef 93       	push	r30
     d76:	ff 93       	push	r31
    if (serRxDone == 0){
     d78:	80 91 4a 38 	lds	r24, 0x384A	; 0x80384a <serRxDone>
     d7c:	81 11       	cpse	r24, r1
     d7e:	44 c0       	rjmp	.+136    	; 0xe08 <__vector_27+0xa0>
        serRx[RXCNT] = USART0.RXDATAL;
     d80:	ed b3       	in	r30, 0x1d	; 29
     d82:	f0 e0       	ldi	r31, 0x00	; 0
     d84:	80 91 00 08 	lds	r24, 0x0800	; 0x800800 <__TEXT_REGION_LENGTH__+0x700800>
     d88:	e5 58       	subi	r30, 0x85	; 133
     d8a:	f5 4c       	sbci	r31, 0xC5	; 197
     d8c:	80 83       	st	Z, r24
        USART0_TXDATAL = serRx[RXCNT];
     d8e:	ed b3       	in	r30, 0x1d	; 29
     d90:	f0 e0       	ldi	r31, 0x00	; 0
     d92:	e5 58       	subi	r30, 0x85	; 133
     d94:	f5 4c       	sbci	r31, 0xC5	; 197
     d96:	80 81       	ld	r24, Z
     d98:	80 93 02 08 	sts	0x0802, r24	; 0x800802 <__TEXT_REGION_LENGTH__+0x700802>
        if ((serRx[RXCNT] == 0x0A)||(serRx[RXCNT] == 0x0D)){
     d9c:	ed b3       	in	r30, 0x1d	; 29
     d9e:	f0 e0       	ldi	r31, 0x00	; 0
     da0:	e5 58       	subi	r30, 0x85	; 133
     da2:	f5 4c       	sbci	r31, 0xC5	; 197
     da4:	80 81       	ld	r24, Z
     da6:	8a 30       	cpi	r24, 0x0A	; 10
     da8:	39 f0       	breq	.+14     	; 0xdb8 <__vector_27+0x50>
     daa:	ed b3       	in	r30, 0x1d	; 29
     dac:	f0 e0       	ldi	r31, 0x00	; 0
     dae:	e5 58       	subi	r30, 0x85	; 133
     db0:	f5 4c       	sbci	r31, 0xC5	; 197
     db2:	80 81       	ld	r24, Z
     db4:	8d 30       	cpi	r24, 0x0D	; 13
     db6:	49 f4       	brne	.+18     	; 0xdca <__vector_27+0x62>
            serRx[RXCNT] = 0;
     db8:	ed b3       	in	r30, 0x1d	; 29
     dba:	f0 e0       	ldi	r31, 0x00	; 0
     dbc:	e5 58       	subi	r30, 0x85	; 133
     dbe:	f5 4c       	sbci	r31, 0xC5	; 197
     dc0:	10 82       	st	Z, r1
            serRxDone = 1;
     dc2:	81 e0       	ldi	r24, 0x01	; 1
     dc4:	80 93 4a 38 	sts	0x384A, r24	; 0x80384a <serRxDone>
     dc8:	1f c0       	rjmp	.+62     	; 0xe08 <__vector_27+0xa0>
        } else if (((serRx[RXCNT] == 0x08)||(serRx[RXCNT] == 0x7F))&&(RXCNT > 0)) {
     dca:	ed b3       	in	r30, 0x1d	; 29
     dcc:	f0 e0       	ldi	r31, 0x00	; 0
     dce:	e5 58       	subi	r30, 0x85	; 133
     dd0:	f5 4c       	sbci	r31, 0xC5	; 197
     dd2:	80 81       	ld	r24, Z
     dd4:	88 30       	cpi	r24, 0x08	; 8
     dd6:	39 f0       	breq	.+14     	; 0xde6 <__vector_27+0x7e>
     dd8:	ed b3       	in	r30, 0x1d	; 29
     dda:	f0 e0       	ldi	r31, 0x00	; 0
     ddc:	e5 58       	subi	r30, 0x85	; 133
     dde:	f5 4c       	sbci	r31, 0xC5	; 197
     de0:	80 81       	ld	r24, Z
     de2:	8f 37       	cpi	r24, 0x7F	; 127
     de4:	59 f4       	brne	.+22     	; 0xdfc <__vector_27+0x94>
     de6:	8d b3       	in	r24, 0x1d	; 29
     de8:	88 23       	and	r24, r24
     dea:	41 f0       	breq	.+16     	; 0xdfc <__vector_27+0x94>
            serRx[RXCNT] = 0;
     dec:	ed b3       	in	r30, 0x1d	; 29
     dee:	f0 e0       	ldi	r31, 0x00	; 0
     df0:	e5 58       	subi	r30, 0x85	; 133
     df2:	f5 4c       	sbci	r31, 0xC5	; 197
     df4:	10 82       	st	Z, r1
            --RXCNT;
     df6:	8d b3       	in	r24, 0x1d	; 29
     df8:	81 50       	subi	r24, 0x01	; 1
     dfa:	05 c0       	rjmp	.+10     	; 0xe06 <__vector_27+0x9e>
        } else if (RXCNT < (RXLEN-1)) ++RXCNT;
     dfc:	8d b3       	in	r24, 0x1d	; 29
     dfe:	80 34       	cpi	r24, 0x40	; 64
     e00:	18 f4       	brcc	.+6      	; 0xe08 <__vector_27+0xa0>
     e02:	8d b3       	in	r24, 0x1d	; 29
     e04:	8f 5f       	subi	r24, 0xFF	; 255
     e06:	8d bb       	out	0x1d, r24	; 29
    }
    USART0_STATUS = USART_RXCIF_bm;
     e08:	80 e8       	ldi	r24, 0x80	; 128
     e0a:	80 93 04 08 	sts	0x0804, r24	; 0x800804 <__TEXT_REGION_LENGTH__+0x700804>
};
     e0e:	ff 91       	pop	r31
     e10:	ef 91       	pop	r30
     e12:	8f 91       	pop	r24
     e14:	0f 90       	pop	r0
     e16:	0f be       	out	0x3f, r0	; 63
     e18:	0f 90       	pop	r0
     e1a:	1f 90       	pop	r1
     e1c:	18 95       	reti

00000e1e <__vector_28>:

// Trigger new data write and turn off DRE interrupt.
ISR(USART0_DRE_vect){
     e1e:	1f 92       	push	r1
     e20:	0f 92       	push	r0
     e22:	0f b6       	in	r0, 0x3f	; 63
     e24:	0f 92       	push	r0
     e26:	11 24       	eor	r1, r1
     e28:	8f 93       	push	r24
     e2a:	ef 93       	push	r30
     e2c:	ff 93       	push	r31
    TCB0_CNT = 0;
     e2e:	10 92 4a 0a 	sts	0x0A4A, r1	; 0x800a4a <__TEXT_REGION_LENGTH__+0x700a4a>
     e32:	10 92 4b 0a 	sts	0x0A4B, r1	; 0x800a4b <__TEXT_REGION_LENGTH__+0x700a4b>
    TCB0_INTCTRL = 0x01;
     e36:	81 e0       	ldi	r24, 0x01	; 1
     e38:	80 93 45 0a 	sts	0x0A45, r24	; 0x800a45 <__TEXT_REGION_LENGTH__+0x700a45>
    USART0_CTRLA &= ~(USART_DREIE_bm);
     e3c:	e5 e0       	ldi	r30, 0x05	; 5
     e3e:	f8 e0       	ldi	r31, 0x08	; 8
     e40:	80 81       	ld	r24, Z
     e42:	8f 7d       	andi	r24, 0xDF	; 223
     e44:	80 83       	st	Z, r24
};
     e46:	ff 91       	pop	r31
     e48:	ef 91       	pop	r30
     e4a:	8f 91       	pop	r24
     e4c:	0f 90       	pop	r0
     e4e:	0f be       	out	0x3f, r0	; 63
     e50:	0f 90       	pop	r0
     e52:	1f 90       	pop	r1
     e54:	18 95       	reti

00000e56 <__vector_20>:

// ADC used for audio input and temperature sensor.
ISR(ADC0_RESRDY_vect){
     e56:	1f 92       	push	r1
     e58:	0f 92       	push	r0
     e5a:	0f b6       	in	r0, 0x3f	; 63
     e5c:	0f 92       	push	r0
     e5e:	11 24       	eor	r1, r1
     e60:	8f 93       	push	r24
     e62:	9f 93       	push	r25
    //If just switched reference, discard first few samples
    if (adc0Chg == 0){
     e64:	80 91 3e 38 	lds	r24, 0x383E	; 0x80383e <adc0Chg>
     e68:	81 11       	cpse	r24, r1
     e6a:	12 c0       	rjmp	.+36     	; 0xe90 <__vector_20+0x3a>
        if (ADC0_MUXPOS == 0x1E) adcTemp = ADC0_RES; else auIn=ADC0_RESL;
     e6c:	80 91 06 06 	lds	r24, 0x0606	; 0x800606 <__TEXT_REGION_LENGTH__+0x700606>
     e70:	8e 31       	cpi	r24, 0x1E	; 30
     e72:	49 f4       	brne	.+18     	; 0xe86 <__vector_20+0x30>
     e74:	80 91 10 06 	lds	r24, 0x0610	; 0x800610 <__TEXT_REGION_LENGTH__+0x700610>
     e78:	90 91 11 06 	lds	r25, 0x0611	; 0x800611 <__TEXT_REGION_LENGTH__+0x700611>
     e7c:	80 93 f3 3a 	sts	0x3AF3, r24	; 0x803af3 <adcTemp>
     e80:	90 93 f4 3a 	sts	0x3AF4, r25	; 0x803af4 <adcTemp+0x1>
     e84:	0a c0       	rjmp	.+20     	; 0xe9a <__vector_20+0x44>
     e86:	80 91 10 06 	lds	r24, 0x0610	; 0x800610 <__TEXT_REGION_LENGTH__+0x700610>
     e8a:	80 93 c8 3a 	sts	0x3AC8, r24	; 0x803ac8 <auIn>
     e8e:	05 c0       	rjmp	.+10     	; 0xe9a <__vector_20+0x44>
    } else --adc0Chg;
     e90:	80 91 3e 38 	lds	r24, 0x383E	; 0x80383e <adc0Chg>
     e94:	81 50       	subi	r24, 0x01	; 1
     e96:	80 93 3e 38 	sts	0x383E, r24	; 0x80383e <adc0Chg>
    ADC0_INTFLAGS = ADC_RESRDY_bm;
     e9a:	81 e0       	ldi	r24, 0x01	; 1
     e9c:	80 93 0b 06 	sts	0x060B, r24	; 0x80060b <__TEXT_REGION_LENGTH__+0x70060b>
}
     ea0:	9f 91       	pop	r25
     ea2:	8f 91       	pop	r24
     ea4:	0f 90       	pop	r0
     ea6:	0f be       	out	0x3f, r0	; 63
     ea8:	0f 90       	pop	r0
     eaa:	1f 90       	pop	r1
     eac:	18 95       	reti

00000eae <__vector_22>:

// Reads out sensors at 8Hz and buttons at 42Hz (timed by PIT), power for the sensors is on 1/8th of the time to save power.
ISR(ADC1_RESRDY_vect){
     eae:	1f 92       	push	r1
     eb0:	0f 92       	push	r0
     eb2:	0f b6       	in	r0, 0x3f	; 63
     eb4:	0f 92       	push	r0
     eb6:	11 24       	eor	r1, r1
     eb8:	8f 93       	push	r24
     eba:	9f 93       	push	r25
    if (ADC1_MUXPOS == 0) {
     ebc:	80 91 46 06 	lds	r24, 0x0646	; 0x800646 <__TEXT_REGION_LENGTH__+0x700646>
     ec0:	81 11       	cpse	r24, r1
     ec2:	0a c0       	rjmp	.+20     	; 0xed8 <__vector_22+0x2a>
        adcPhot = ADC1_RES;
     ec4:	80 91 50 06 	lds	r24, 0x0650	; 0x800650 <__TEXT_REGION_LENGTH__+0x700650>
     ec8:	90 91 51 06 	lds	r25, 0x0651	; 0x800651 <__TEXT_REGION_LENGTH__+0x700651>
     ecc:	80 93 c3 3a 	sts	0x3AC3, r24	; 0x803ac3 <adcPhot>
     ed0:	90 93 c4 3a 	sts	0x3AC4, r25	; 0x803ac4 <adcPhot+0x1>
        ADC1_MUXPOS = 0x01;             //Select Hall sensor
     ed4:	81 e0       	ldi	r24, 0x01	; 1
     ed6:	10 c0       	rjmp	.+32     	; 0xef8 <__vector_22+0x4a>
    } else if (ADC1_MUXPOS == 1){
     ed8:	80 91 46 06 	lds	r24, 0x0646	; 0x800646 <__TEXT_REGION_LENGTH__+0x700646>
     edc:	81 30       	cpi	r24, 0x01	; 1
     ede:	79 f4       	brne	.+30     	; 0xefe <__vector_22+0x50>
        PORTA_OUTCLR = 0b00001000;      //Turn off sensor power
     ee0:	88 e0       	ldi	r24, 0x08	; 8
     ee2:	80 93 06 04 	sts	0x0406, r24	; 0x800406 <__TEXT_REGION_LENGTH__+0x700406>
        adcHall = ADC1_RES;
     ee6:	80 91 50 06 	lds	r24, 0x0650	; 0x800650 <__TEXT_REGION_LENGTH__+0x700650>
     eea:	90 91 51 06 	lds	r25, 0x0651	; 0x800651 <__TEXT_REGION_LENGTH__+0x700651>
     eee:	80 93 c1 3a 	sts	0x3AC1, r24	; 0x803ac1 <adcHall>
     ef2:	90 93 c2 3a 	sts	0x3AC2, r25	; 0x803ac2 <adcHall+0x1>
        ADC1_MUXPOS = 0x04;             //select buttons
     ef6:	84 e0       	ldi	r24, 0x04	; 4
     ef8:	80 93 46 06 	sts	0x0646, r24	; 0x800646 <__TEXT_REGION_LENGTH__+0x700646>
     efc:	10 c0       	rjmp	.+32     	; 0xf1e <__vector_22+0x70>
    } else {
        adcBtns = ADC1_RES;
     efe:	80 91 50 06 	lds	r24, 0x0650	; 0x800650 <__TEXT_REGION_LENGTH__+0x700650>
     f02:	90 91 51 06 	lds	r25, 0x0651	; 0x800651 <__TEXT_REGION_LENGTH__+0x700651>
     f06:	80 93 bd 3a 	sts	0x3ABD, r24	; 0x803abd <adcBtns>
     f0a:	90 93 be 3a 	sts	0x3ABE, r25	; 0x803abe <adcBtns+0x1>
        if (A1CNT == 15){
     f0e:	8f b3       	in	r24, 0x1f	; 31
     f10:	8f 30       	cpi	r24, 0x0F	; 15
     f12:	29 f4       	brne	.+10     	; 0xf1e <__vector_22+0x70>
            ADC1_MUXPOS = 0x00;         //Select photo transistor
     f14:	10 92 46 06 	sts	0x0646, r1	; 0x800646 <__TEXT_REGION_LENGTH__+0x700646>
            PORTA_OUTSET = 0b00001000;  //Turn on sensor power
     f18:	88 e0       	ldi	r24, 0x08	; 8
     f1a:	80 93 05 04 	sts	0x0405, r24	; 0x800405 <__TEXT_REGION_LENGTH__+0x700405>
        }
    }

    A1CNT=(A1CNT+1)%16;        
     f1e:	8f b3       	in	r24, 0x1f	; 31
     f20:	90 e0       	ldi	r25, 0x00	; 0
     f22:	01 96       	adiw	r24, 0x01	; 1
     f24:	8f 70       	andi	r24, 0x0F	; 15
     f26:	99 27       	eor	r25, r25
     f28:	8f bb       	out	0x1f, r24	; 31
    ADC1_INTFLAGS = ADC_RESRDY_bm;
     f2a:	81 e0       	ldi	r24, 0x01	; 1
     f2c:	80 93 4b 06 	sts	0x064B, r24	; 0x80064b <__TEXT_REGION_LENGTH__+0x70064b>
}
     f30:	9f 91       	pop	r25
     f32:	8f 91       	pop	r24
     f34:	0f 90       	pop	r0
     f36:	0f be       	out	0x3f, r0	; 63
     f38:	0f 90       	pop	r0
     f3a:	1f 90       	pop	r1
     f3c:	18 95       	reti

00000f3e <__vector_6>:

// RTC compare interrupt, triggers at 512/BTN_TMR rate, also RTC overflow interrupt, triggers once a minute
ISR(RTC_CNT_vect) {
     f3e:	1f 92       	push	r1
     f40:	0f 92       	push	r0
     f42:	0f b6       	in	r0, 0x3f	; 63
     f44:	0f 92       	push	r0
     f46:	11 24       	eor	r1, r1
     f48:	2f 93       	push	r18
     f4a:	3f 93       	push	r19
     f4c:	8f 93       	push	r24
     f4e:	9f 93       	push	r25
    if (RTC_INTFLAGS & RTC_CMP_bm){
     f50:	80 91 43 01 	lds	r24, 0x0143	; 0x800143 <__TEXT_REGION_LENGTH__+0x700143>
     f54:	81 ff       	sbrs	r24, 1
     f56:	36 c0       	rjmp	.+108    	; 0xfc4 <__vector_6+0x86>
        if (buttonMark<0xff) ++buttonMark;   // For button timing purposes
     f58:	80 91 48 38 	lds	r24, 0x3848	; 0x803848 <buttonMark>
     f5c:	8f 3f       	cpi	r24, 0xFF	; 255
     f5e:	29 f0       	breq	.+10     	; 0xf6a <__vector_6+0x2c>
     f60:	80 91 48 38 	lds	r24, 0x3848	; 0x803848 <buttonMark>
     f64:	8f 5f       	subi	r24, 0xFF	; 255
     f66:	80 93 48 38 	sts	0x3848, r24	; 0x803848 <buttonMark>
        tmp16bit = (RTC_CNT + BTN_TMR);
     f6a:	80 91 48 01 	lds	r24, 0x0148	; 0x800148 <__TEXT_REGION_LENGTH__+0x700148>
     f6e:	90 91 49 01 	lds	r25, 0x0149	; 0x800149 <__TEXT_REGION_LENGTH__+0x700149>
     f72:	82 96       	adiw	r24, 0x22	; 34
        while (tmp16bit > RTC_PER) tmp16bit -= RTC_PER;
     f74:	80 93 f5 3a 	sts	0x3AF5, r24	; 0x803af5 <tmp16bit>
     f78:	90 93 f6 3a 	sts	0x3AF6, r25	; 0x803af6 <tmp16bit+0x1>
     f7c:	20 91 4a 01 	lds	r18, 0x014A	; 0x80014a <__TEXT_REGION_LENGTH__+0x70014a>
     f80:	30 91 4b 01 	lds	r19, 0x014B	; 0x80014b <__TEXT_REGION_LENGTH__+0x70014b>
     f84:	80 91 f5 3a 	lds	r24, 0x3AF5	; 0x803af5 <tmp16bit>
     f88:	90 91 f6 3a 	lds	r25, 0x3AF6	; 0x803af6 <tmp16bit+0x1>
     f8c:	28 17       	cp	r18, r24
     f8e:	39 07       	cpc	r19, r25
     f90:	58 f4       	brcc	.+22     	; 0xfa8 <__vector_6+0x6a>
     f92:	20 91 4a 01 	lds	r18, 0x014A	; 0x80014a <__TEXT_REGION_LENGTH__+0x70014a>
     f96:	30 91 4b 01 	lds	r19, 0x014B	; 0x80014b <__TEXT_REGION_LENGTH__+0x70014b>
     f9a:	80 91 f5 3a 	lds	r24, 0x3AF5	; 0x803af5 <tmp16bit>
     f9e:	90 91 f6 3a 	lds	r25, 0x3AF6	; 0x803af6 <tmp16bit+0x1>
     fa2:	82 1b       	sub	r24, r18
     fa4:	93 0b       	sbc	r25, r19
     fa6:	e6 cf       	rjmp	.-52     	; 0xf74 <__vector_6+0x36>
        while(RTC_STATUS & RTC_CMPBUSY_bm);
     fa8:	80 91 41 01 	lds	r24, 0x0141	; 0x800141 <__TEXT_REGION_LENGTH__+0x700141>
     fac:	83 fd       	sbrc	r24, 3
     fae:	fc cf       	rjmp	.-8      	; 0xfa8 <__vector_6+0x6a>
        RTC_CMP = tmp16bit;                 // Button timing: next interrupt set
     fb0:	80 91 f5 3a 	lds	r24, 0x3AF5	; 0x803af5 <tmp16bit>
     fb4:	90 91 f6 3a 	lds	r25, 0x3AF6	; 0x803af6 <tmp16bit+0x1>
     fb8:	80 93 4c 01 	sts	0x014C, r24	; 0x80014c <__TEXT_REGION_LENGTH__+0x70014c>
     fbc:	90 93 4d 01 	sts	0x014D, r25	; 0x80014d <__TEXT_REGION_LENGTH__+0x70014d>
        RTC_INTFLAGS = RTC_CMP_bm;		    // clear interrupt flag
     fc0:	82 e0       	ldi	r24, 0x02	; 2
     fc2:	06 c0       	rjmp	.+12     	; 0xfd0 <__vector_6+0x92>
    } else {
        ++minuteMark;                       // For very slow timing purposes, overflows to 0
     fc4:	80 91 49 38 	lds	r24, 0x3849	; 0x803849 <minuteMark>
     fc8:	8f 5f       	subi	r24, 0xFF	; 255
     fca:	80 93 49 38 	sts	0x3849, r24	; 0x803849 <minuteMark>
        RTC_INTFLAGS = RTC_OVF_bm;		    // clear interrupt flag
     fce:	81 e0       	ldi	r24, 0x01	; 1
     fd0:	80 93 43 01 	sts	0x0143, r24	; 0x800143 <__TEXT_REGION_LENGTH__+0x700143>
    }
}
     fd4:	9f 91       	pop	r25
     fd6:	8f 91       	pop	r24
     fd8:	3f 91       	pop	r19
     fda:	2f 91       	pop	r18
     fdc:	0f 90       	pop	r0
     fde:	0f be       	out	0x3f, r0	; 63
     fe0:	0f 90       	pop	r0
     fe2:	1f 90       	pop	r1
     fe4:	18 95       	reti

00000fe6 <__vector_7>:

// PIT interrupt (timing of ADC1: sensor values)
ISR(RTC_PIT_vect) {						// PIT interrupt handling code
     fe6:	1f 92       	push	r1
     fe8:	0f 92       	push	r0
     fea:	0f b6       	in	r0, 0x3f	; 63
     fec:	0f 92       	push	r0
     fee:	11 24       	eor	r1, r1
     ff0:	8f 93       	push	r24
    ADC1_COMMAND = 0x01;
     ff2:	81 e0       	ldi	r24, 0x01	; 1
     ff4:	80 93 48 06 	sts	0x0648, r24	; 0x800648 <__TEXT_REGION_LENGTH__+0x700648>
    RTC_PITINTFLAGS = RTC_PI_bm;		// clear interrupt flag
     ff8:	80 93 53 01 	sts	0x0153, r24	; 0x800153 <__TEXT_REGION_LENGTH__+0x700153>
}
     ffc:	8f 91       	pop	r24
     ffe:	0f 90       	pop	r0
    1000:	0f be       	out	0x3f, r0	; 63
    1002:	0f 90       	pop	r0
    1004:	1f 90       	pop	r1
    1006:	18 95       	reti

00001008 <EERead>:

// Read bytes from EEPROM
void EERead(uint8_t eeAddr, uint8_t *eeValues, uint8_t size)
{
    while(NVMCTRL_STATUS & NVMCTRL_EEBUSY_bm);              // Wait until any write operation has finished
    1008:	90 91 02 10 	lds	r25, 0x1002	; 0x801002 <__TEXT_REGION_LENGTH__+0x701002>
    100c:	91 fd       	sbrc	r25, 1
    100e:	fc cf       	rjmp	.-8      	; 0x1008 <EERead>
    1010:	fb 01       	movw	r30, r22
    1012:	48 0f       	add	r20, r24

    while(size){
    1014:	84 17       	cp	r24, r20
    1016:	39 f0       	breq	.+14     	; 0x1026 <EERead+0x1e>
        *eeValues++ = *(uint8_t *)(EEPROM_START+eeAddr++);  // Read data from buffer
    1018:	a8 2f       	mov	r26, r24
    101a:	b0 e0       	ldi	r27, 0x00	; 0
    101c:	bc 5e       	subi	r27, 0xEC	; 236
    101e:	9c 91       	ld	r25, X
    1020:	91 93       	st	Z+, r25
    1022:	8f 5f       	subi	r24, 0xFF	; 255
    1024:	f7 cf       	rjmp	.-18     	; 0x1014 <EERead+0xc>
        --size;
    }
}
    1026:	08 95       	ret

00001028 <EEWrite>:
{
    uint8_t lastByteOfPage;
    while(size){
        lastByteOfPage = 0;
        while(NVMCTRL_STATUS & NVMCTRL_EEBUSY_bm);              // Wait until any write operation has finished
        CCP = CCP_SPM_gc;                                       // Gain access to NVMCTRL_CTRLA
    1028:	9d e9       	ldi	r25, 0x9D	; 157
        NVMCTRL_CTRLA = NVMCTRL_CMD_PAGEBUFCLR_gc;              // Clear page buffer
    102a:	24 e0       	ldi	r18, 0x04	; 4
            if ((eeAddr % EEPROM_PAGE_SIZE) == (EEPROM_PAGE_SIZE-1)) lastByteOfPage = 1;
            *(uint8_t *)(EEPROM_START+eeAddr++) = *eeValues++;  // Write data to buffer
            --size;
        }
        CCP = CCP_SPM_gc;
        NVMCTRL_CTRLA = NVMCTRL_CMD_PAGEERASEWRITE_gc;          // Erase old data and write new data to EEPROM
    102c:	33 e0       	ldi	r19, 0x03	; 3

// Write bytes to the EEPROM, if address exceeds EEPROM space data wraps around
uint8_t EEWrite(uint8_t eeAddr, uint8_t *eeValues, uint8_t size)
{
    uint8_t lastByteOfPage;
    while(size){
    102e:	44 23       	and	r20, r20
    1030:	09 f1       	breq	.+66     	; 0x1074 <EEWrite+0x4c>
        lastByteOfPage = 0;
        while(NVMCTRL_STATUS & NVMCTRL_EEBUSY_bm);              // Wait until any write operation has finished
    1032:	50 91 02 10 	lds	r21, 0x1002	; 0x801002 <__TEXT_REGION_LENGTH__+0x701002>
    1036:	51 fd       	sbrc	r21, 1
    1038:	fc cf       	rjmp	.-8      	; 0x1032 <EEWrite+0xa>
        CCP = CCP_SPM_gc;                                       // Gain access to NVMCTRL_CTRLA
    103a:	94 bf       	out	0x34, r25	; 52
        NVMCTRL_CTRLA = NVMCTRL_CMD_PAGEBUFCLR_gc;              // Clear page buffer
    103c:	20 93 00 10 	sts	0x1000, r18	; 0x801000 <__TEXT_REGION_LENGTH__+0x701000>
    1040:	e8 2f       	mov	r30, r24
        while((size) && (lastByteOfPage == 0)){
            if ((eeAddr % EEPROM_PAGE_SIZE) == (EEPROM_PAGE_SIZE-1)) lastByteOfPage = 1;
    1042:	58 2f       	mov	r21, r24
    1044:	5f 71       	andi	r21, 0x1F	; 31
            *(uint8_t *)(EEPROM_START+eeAddr++) = *eeValues++;  // Write data to buffer
    1046:	8f 5f       	subi	r24, 0xFF	; 255
    1048:	6f 5f       	subi	r22, 0xFF	; 255
    104a:	7f 4f       	sbci	r23, 0xFF	; 255
    104c:	db 01       	movw	r26, r22
    104e:	11 97       	sbiw	r26, 0x01	; 1
    1050:	ac 91       	ld	r26, X
    1052:	f0 e0       	ldi	r31, 0x00	; 0
    1054:	fc 5e       	subi	r31, 0xEC	; 236
    1056:	a0 83       	st	Z, r26
            --size;
    1058:	41 50       	subi	r20, 0x01	; 1
    while(size){
        lastByteOfPage = 0;
        while(NVMCTRL_STATUS & NVMCTRL_EEBUSY_bm);              // Wait until any write operation has finished
        CCP = CCP_SPM_gc;                                       // Gain access to NVMCTRL_CTRLA
        NVMCTRL_CTRLA = NVMCTRL_CMD_PAGEBUFCLR_gc;              // Clear page buffer
        while((size) && (lastByteOfPage == 0)){
    105a:	19 f0       	breq	.+6      	; 0x1062 <EEWrite+0x3a>
            if ((eeAddr % EEPROM_PAGE_SIZE) == (EEPROM_PAGE_SIZE-1)) lastByteOfPage = 1;
            *(uint8_t *)(EEPROM_START+eeAddr++) = *eeValues++;  // Write data to buffer
    105c:	e8 2f       	mov	r30, r24
    while(size){
        lastByteOfPage = 0;
        while(NVMCTRL_STATUS & NVMCTRL_EEBUSY_bm);              // Wait until any write operation has finished
        CCP = CCP_SPM_gc;                                       // Gain access to NVMCTRL_CTRLA
        NVMCTRL_CTRLA = NVMCTRL_CMD_PAGEBUFCLR_gc;              // Clear page buffer
        while((size) && (lastByteOfPage == 0)){
    105e:	5f 31       	cpi	r21, 0x1F	; 31
    1060:	81 f7       	brne	.-32     	; 0x1042 <EEWrite+0x1a>
            if ((eeAddr % EEPROM_PAGE_SIZE) == (EEPROM_PAGE_SIZE-1)) lastByteOfPage = 1;
            *(uint8_t *)(EEPROM_START+eeAddr++) = *eeValues++;  // Write data to buffer
            --size;
        }
        CCP = CCP_SPM_gc;
    1062:	94 bf       	out	0x34, r25	; 52
        NVMCTRL_CTRLA = NVMCTRL_CMD_PAGEERASEWRITE_gc;          // Erase old data and write new data to EEPROM
    1064:	30 93 00 10 	sts	0x1000, r19	; 0x801000 <__TEXT_REGION_LENGTH__+0x701000>
        if (NVMCTRL_STATUS & NVMCTRL_WRERROR_bm) return 1;
    1068:	50 91 02 10 	lds	r21, 0x1002	; 0x801002 <__TEXT_REGION_LENGTH__+0x701002>
    106c:	52 ff       	sbrs	r21, 2
    106e:	df cf       	rjmp	.-66     	; 0x102e <EEWrite+0x6>
    1070:	81 e0       	ldi	r24, 0x01	; 1
    }
    return 0;
}
    1072:	08 95       	ret
        }
        CCP = CCP_SPM_gc;
        NVMCTRL_CTRLA = NVMCTRL_CMD_PAGEERASEWRITE_gc;          // Erase old data and write new data to EEPROM
        if (NVMCTRL_STATUS & NVMCTRL_WRERROR_bm) return 1;
    }
    return 0;
    1074:	80 e0       	ldi	r24, 0x00	; 0
    1076:	08 95       	ret

00001078 <DecryptData>:
}

//Decrypts data read from I2C EEPROM, max 255 bytes at a time
void DecryptData(uint16_t offset, uint8_t length, uint8_t type, uint8_t *data){
    1078:	f9 01       	movw	r30, r18
    //offset += L_BOILER;
    while(length){
        *data ^= xor_key[type][(uint8_t)(offset%KEY_LENGTH)];
    107a:	9c 01       	movw	r18, r24
    107c:	2e 1b       	sub	r18, r30
    107e:	3f 0b       	sbc	r19, r31
    1080:	88 e0       	ldi	r24, 0x08	; 8
    1082:	48 9f       	mul	r20, r24
    1084:	a0 01       	movw	r20, r0
    1086:	11 24       	eor	r1, r1
    1088:	48 51       	subi	r20, 0x18	; 24
    108a:	51 44       	sbci	r21, 0x41	; 65
}

//Decrypts data read from I2C EEPROM, max 255 bytes at a time
void DecryptData(uint16_t offset, uint8_t length, uint8_t type, uint8_t *data){
    //offset += L_BOILER;
    while(length){
    108c:	66 23       	and	r22, r22
    108e:	69 f0       	breq	.+26     	; 0x10aa <DecryptData+0x32>
        *data ^= xor_key[type][(uint8_t)(offset%KEY_LENGTH)];
    1090:	df 01       	movw	r26, r30
    1092:	a2 0f       	add	r26, r18
    1094:	b3 1f       	adc	r27, r19
    1096:	a7 70       	andi	r26, 0x07	; 7
    1098:	bb 27       	eor	r27, r27
    109a:	a4 0f       	add	r26, r20
    109c:	b5 1f       	adc	r27, r21
    109e:	80 81       	ld	r24, Z
    10a0:	9c 91       	ld	r25, X
    10a2:	98 27       	eor	r25, r24
    10a4:	91 93       	st	Z+, r25
        ++data;
        ++offset;
        --length;
    10a6:	61 50       	subi	r22, 0x01	; 1
    10a8:	f1 cf       	rjmp	.-30     	; 0x108c <DecryptData+0x14>
    }
}
    10aa:	08 95       	ret

000010ac <ExtEERead>:

//Game data: Read a number of bytes and decrypt
uint8_t ExtEERead(uint16_t offset, uint8_t length, uint8_t type, uint8_t *data){
    10ac:	a2 e0       	ldi	r26, 0x02	; 2
    10ae:	b0 e0       	ldi	r27, 0x00	; 0
    10b0:	ec e5       	ldi	r30, 0x5C	; 92
    10b2:	f8 e0       	ldi	r31, 0x08	; 8
    10b4:	0c 94 16 1f 	jmp	0x3e2c	; 0x3e2c <__prologue_saves__+0x10>
    10b8:	d6 2e       	mov	r13, r22
    10ba:	c4 2e       	mov	r12, r20
    10bc:	59 01       	movw	r10, r18
    offset &=EXT_EE_MAX;
    10be:	7c 01       	movw	r14, r24
    10c0:	e8 94       	clt
    10c2:	f7 f8       	bld	r15, 7
    uint8_t reg[2] = {(uint8_t)(offset>>8), (uint8_t)(offset&0xff)};
    10c4:	f9 82       	std	Y+1, r15	; 0x01
    10c6:	ea 82       	std	Y+2, r14	; 0x02
    uint8_t error = (I2C_read_bytes(EE_I2C_ADDR, &reg[0], 2, data, length));
    10c8:	06 2f       	mov	r16, r22
    10ca:	42 e0       	ldi	r20, 0x02	; 2
    10cc:	be 01       	movw	r22, r28
    10ce:	6f 5f       	subi	r22, 0xFF	; 255
    10d0:	7f 4f       	sbci	r23, 0xFF	; 255
    10d2:	80 e5       	ldi	r24, 0x50	; 80
    10d4:	1a da       	rcall	.-3020   	; 0x50a <I2C_read_bytes>
    10d6:	18 2f       	mov	r17, r24
    if (error) return error;
    10d8:	81 11       	cpse	r24, r1
    10da:	05 c0       	rjmp	.+10     	; 0x10e6 <ExtEERead+0x3a>
    DecryptData(offset, length, type, data);
    10dc:	95 01       	movw	r18, r10
    10de:	4c 2d       	mov	r20, r12
    10e0:	6d 2d       	mov	r22, r13
    10e2:	c7 01       	movw	r24, r14
    10e4:	c9 df       	rcall	.-110    	; 0x1078 <DecryptData>
    return 0;
}
    10e6:	81 2f       	mov	r24, r17
    10e8:	22 96       	adiw	r28, 0x02	; 2
    10ea:	ea e0       	ldi	r30, 0x0A	; 10
    10ec:	0c 94 2f 1f 	jmp	0x3e5e	; 0x3e5e <__epilogue_restores__+0x10>

000010f0 <SerSend>:

// Sends a set of characters to the serial port, stops only when character value 0 is reached.
uint8_t SerSend(unsigned char *addr){
    if (serTxDone){
    10f0:	20 91 09 38 	lds	r18, 0x3809	; 0x803809 <serTxDone>
    10f4:	22 23       	and	r18, r18
    10f6:	59 f0       	breq	.+22     	; 0x110e <SerSend+0x1e>
        serTxAddr = addr;
    10f8:	80 93 bf 3a 	sts	0x3ABF, r24	; 0x803abf <serTxAddr>
    10fc:	90 93 c0 3a 	sts	0x3AC0, r25	; 0x803ac0 <serTxAddr+0x1>
        serTxDone = 0;
    1100:	10 92 09 38 	sts	0x3809, r1	; 0x803809 <serTxDone>
        TCB0_INTCTRL = 0x01;
    1104:	81 e0       	ldi	r24, 0x01	; 1
    1106:	80 93 45 0a 	sts	0x0A45, r24	; 0x800a45 <__TEXT_REGION_LENGTH__+0x700a45>
        return 0;
    110a:	80 e0       	ldi	r24, 0x00	; 0
    110c:	08 95       	ret
    } else return 1;    //Error: Still sending data
    110e:	81 e0       	ldi	r24, 0x01	; 1
};
    1110:	08 95       	ret

00001112 <SerSpeed>:

// Set serial character output speed, 255-0 (0.8 to 100ms delay between characters)
void SerSpeed(uint8_t serSpd){
    1112:	28 2f       	mov	r18, r24
    if (serSpd<1) serSpd = 1;
    1114:	81 11       	cpse	r24, r1
    1116:	01 c0       	rjmp	.+2      	; 0x111a <SerSpeed+0x8>
    1118:	21 e0       	ldi	r18, 0x01	; 1
    TCB0_CCMP = ((uint16_t)(0xFF-serSpd)<<8) + 0xFF;
    111a:	8f ef       	ldi	r24, 0xFF	; 255
    111c:	90 e0       	ldi	r25, 0x00	; 0
    111e:	82 1b       	sub	r24, r18
    1120:	91 09       	sbc	r25, r1
    1122:	98 2f       	mov	r25, r24
    1124:	88 27       	eor	r24, r24
    1126:	81 50       	subi	r24, 0x01	; 1
    1128:	9f 4f       	sbci	r25, 0xFF	; 255
    112a:	80 93 4c 0a 	sts	0x0A4C, r24	; 0x800a4c <__TEXT_REGION_LENGTH__+0x700a4c>
    112e:	90 93 4d 0a 	sts	0x0A4D, r25	; 0x800a4d <__TEXT_REGION_LENGTH__+0x700a4d>
    1132:	08 95       	ret

00001134 <SelectTSens>:
};

// Select temperature sensor
void SelectTSens(){
     VREF_CTRLA   = 0x12;    //0x22 for audio in/out (2.5V), 0x12 for temperature in, audio out (1.1V/2.5V)
    1134:	82 e1       	ldi	r24, 0x12	; 18
    1136:	80 93 a0 00 	sts	0x00A0, r24	; 0x8000a0 <__TEXT_REGION_LENGTH__+0x7000a0>
     ADC0_CTRLA   &= ~(ADC_RESSEL_bm);
    113a:	e0 e0       	ldi	r30, 0x00	; 0
    113c:	f6 e0       	ldi	r31, 0x06	; 6
    113e:	80 81       	ld	r24, Z
    1140:	8b 7f       	andi	r24, 0xFB	; 251
    1142:	80 83       	st	Z, r24
     ADC0_MUXPOS  = 0x1E;    //Audio in: AIN7 at (0x07), Temperature: Internal sensor at (0x1E)
    1144:	8e e1       	ldi	r24, 0x1E	; 30
    1146:	80 93 06 06 	sts	0x0606, r24	; 0x800606 <__TEXT_REGION_LENGTH__+0x700606>
     adc0Chg = 3;
    114a:	83 e0       	ldi	r24, 0x03	; 3
    114c:	80 93 3e 38 	sts	0x383E, r24	; 0x80383e <adc0Chg>
    1150:	08 95       	ret

00001152 <SelectAuIn>:
};

// Select "audio" input (0-2.5V)
void SelectAuIn(){
     VREF_CTRLA   = 0x22;    //0x22 for audio in/out (2.5V), 0x12 for temperature in, audio out (1.1V/2.5V)
    1152:	82 e2       	ldi	r24, 0x22	; 34
    1154:	80 93 a0 00 	sts	0x00A0, r24	; 0x8000a0 <__TEXT_REGION_LENGTH__+0x7000a0>
     ADC0_CTRLA   |= ADC_RESSEL_bm;
    1158:	e0 e0       	ldi	r30, 0x00	; 0
    115a:	f6 e0       	ldi	r31, 0x06	; 6
    115c:	80 81       	ld	r24, Z
    115e:	84 60       	ori	r24, 0x04	; 4
    1160:	80 83       	st	Z, r24
     ADC0_MUXPOS  = 0x07;    //Audio in: AIN7 at (0x07), Temperature: Internal sensor at (0x1E)
    1162:	87 e0       	ldi	r24, 0x07	; 7
    1164:	80 93 06 06 	sts	0x0606, r24	; 0x800606 <__TEXT_REGION_LENGTH__+0x700606>
     adc0Chg = 3;
    1168:	83 e0       	ldi	r24, 0x03	; 3
    116a:	80 93 3e 38 	sts	0x383E, r24	; 0x80383e <adc0Chg>
    116e:	08 95       	ret

00001170 <CheckButtons>:
};

// Returns button combination (4LSB) and number of consecutive times this combination is detected. First read should always be ignored! 
uint8_t CheckButtons(){
    static uint8_t previousValue = 0xFF;
    uint8_t bADC = (uint8_t)(adcBtns>>4);
    1170:	80 91 bd 3a 	lds	r24, 0x3ABD	; 0x803abd <adcBtns>
    1174:	90 91 be 3a 	lds	r25, 0x3ABE	; 0x803abe <adcBtns+0x1>
    uint8_t button = 0xFF;     //FF = released or error

        switch(bADC){
    1178:	24 e0       	ldi	r18, 0x04	; 4
    117a:	96 95       	lsr	r25
    117c:	87 95       	ror	r24
    117e:	2a 95       	dec	r18
    1180:	e1 f7       	brne	.-8      	; 0x117a <CheckButtons+0xa>
    1182:	99 27       	eor	r25, r25
    1184:	80 36       	cpi	r24, 0x60	; 96
    1186:	91 05       	cpc	r25, r1
    1188:	40 f4       	brcc	.+16     	; 0x119a <CheckButtons+0x2a>
    118a:	8f 34       	cpi	r24, 0x4F	; 79
    118c:	91 05       	cpc	r25, r1
    118e:	88 f4       	brcc	.+34     	; 0x11b2 <CheckButtons+0x42>
    1190:	c0 97       	sbiw	r24, 0x30	; 48
    1192:	09 97       	sbiw	r24, 0x09	; 9
    1194:	90 f4       	brcc	.+36     	; 0x11ba <CheckButtons+0x4a>

            case 48 ... 56:          //52: Bottom left (+/-4)
            button = 2;
    1196:	92 e0       	ldi	r25, 0x02	; 2
    1198:	11 c0       	rjmp	.+34     	; 0x11bc <CheckButtons+0x4c>
uint8_t CheckButtons(){
    static uint8_t previousValue = 0xFF;
    uint8_t bADC = (uint8_t)(adcBtns>>4);
    uint8_t button = 0xFF;     //FF = released or error

        switch(bADC){
    119a:	85 37       	cpi	r24, 0x75	; 117
    119c:	91 05       	cpc	r25, r1
    119e:	68 f0       	brcs	.+26     	; 0x11ba <CheckButtons+0x4a>
    11a0:	8e 38       	cpi	r24, 0x8E	; 142
    11a2:	91 05       	cpc	r25, r1
    11a4:	40 f0       	brcs	.+16     	; 0x11b6 <CheckButtons+0x46>
    11a6:	8e 59       	subi	r24, 0x9E	; 158
    11a8:	91 09       	sbc	r25, r1
    11aa:	81 97       	sbiw	r24, 0x21	; 33
    11ac:	30 f4       	brcc	.+12     	; 0x11ba <CheckButtons+0x4a>
            case 117 ... 141:        //129: Top right (+/- 12)
            button = 1;
            break;

            case 158 ... 190:        //174: Bottom right (+/- 16)
            button = 0;
    11ae:	90 e0       	ldi	r25, 0x00	; 0
            break;
    11b0:	05 c0       	rjmp	.+10     	; 0x11bc <CheckButtons+0x4c>
            case 48 ... 56:          //52: Bottom left (+/-4)
            button = 2;
            break;

            case 79 ... 95:          //87: Top left (+/-8)
            button = 3;
    11b2:	93 e0       	ldi	r25, 0x03	; 3
            break;
    11b4:	03 c0       	rjmp	.+6      	; 0x11bc <CheckButtons+0x4c>

            case 117 ... 141:        //129: Top right (+/- 12)
            button = 1;
    11b6:	91 e0       	ldi	r25, 0x01	; 1
            break;
    11b8:	01 c0       	rjmp	.+2      	; 0x11bc <CheckButtons+0x4c>

// Returns button combination (4LSB) and number of consecutive times this combination is detected. First read should always be ignored! 
uint8_t CheckButtons(){
    static uint8_t previousValue = 0xFF;
    uint8_t bADC = (uint8_t)(adcBtns>>4);
    uint8_t button = 0xFF;     //FF = released or error
    11ba:	9f ef       	ldi	r25, 0xFF	; 255
            case 158 ... 190:        //174: Bottom right (+/- 16)
            button = 0;
            break;
        }

        if (((previousValue+1)== 0) || (button != previousValue)) {
    11bc:	80 91 2a 38 	lds	r24, 0x382A	; 0x80382a <previousValue.3903>
    11c0:	98 17       	cp	r25, r24
    11c2:	19 f0       	breq	.+6      	; 0x11ca <CheckButtons+0x5a>
            previousValue = button;
    11c4:	90 93 2a 38 	sts	0x382A, r25	; 0x80382a <previousValue.3903>
            return 0xFF;
    11c8:	8f ef       	ldi	r24, 0xFF	; 255
        } else return button;

}
    11ca:	08 95       	ret

000011cc <lfsr>:

uint8_t lfsr(){
    static uint16_t state = 0xd401;
    state ^= (state << 13);
    11cc:	80 91 28 38 	lds	r24, 0x3828	; 0x803828 <state.3913>
    11d0:	90 91 29 38 	lds	r25, 0x3829	; 0x803829 <state.3913+0x1>
    11d4:	9c 01       	movw	r18, r24
    11d6:	32 2f       	mov	r19, r18
    11d8:	22 27       	eor	r18, r18
    11da:	32 95       	swap	r19
    11dc:	33 0f       	add	r19, r19
    11de:	30 7e       	andi	r19, 0xE0	; 224
    11e0:	82 27       	eor	r24, r18
    11e2:	93 27       	eor	r25, r19
    state ^= (state >> 9);
    11e4:	9c 01       	movw	r18, r24
    11e6:	23 2f       	mov	r18, r19
    11e8:	33 27       	eor	r19, r19
    11ea:	26 95       	lsr	r18
    11ec:	82 27       	eor	r24, r18
    11ee:	93 27       	eor	r25, r19
    state ^= (state << 7);
    11f0:	9c 01       	movw	r18, r24
    11f2:	36 95       	lsr	r19
    11f4:	32 2f       	mov	r19, r18
    11f6:	22 27       	eor	r18, r18
    11f8:	37 95       	ror	r19
    11fa:	27 95       	ror	r18
    11fc:	82 27       	eor	r24, r18
    11fe:	93 27       	eor	r25, r19
    1200:	80 93 28 38 	sts	0x3828, r24	; 0x803828 <state.3913>
    1204:	90 93 29 38 	sts	0x3829, r25	; 0x803829 <state.3913+0x1>
    return (state & 0xff);
}
    1208:	08 95       	ret

0000120a <floatSpeed>:

void floatSpeed(uint8_t bits, uint16_t min, uint16_t max){
    120a:	a0 e0       	ldi	r26, 0x00	; 0
    120c:	b0 e0       	ldi	r27, 0x00	; 0
    120e:	eb e0       	ldi	r30, 0x0B	; 11
    1210:	f9 e0       	ldi	r31, 0x09	; 9
    1212:	0c 94 19 1f 	jmp	0x3e32	; 0x3e32 <__prologue_saves__+0x16>
    1216:	7b 01       	movw	r14, r22
    1218:	8a 01       	movw	r16, r20
    uint16_t val = TCB1_CCMP;
    121a:	c0 91 5c 0a 	lds	r28, 0x0A5C	; 0x800a5c <__TEXT_REGION_LENGTH__+0x700a5c>
    121e:	d0 91 5d 0a 	lds	r29, 0x0A5D	; 0x800a5d <__TEXT_REGION_LENGTH__+0x700a5d>
    bits = mask[(bits-1)&0x07];
    1222:	e8 2f       	mov	r30, r24
    1224:	f0 e0       	ldi	r31, 0x00	; 0
    1226:	31 97       	sbiw	r30, 0x01	; 1
    1228:	e7 70       	andi	r30, 0x07	; 7
    122a:	ff 27       	eor	r31, r31
    122c:	e5 5d       	subi	r30, 0xD5	; 213
    122e:	f7 4c       	sbci	r31, 0xC7	; 199
    1230:	d0 80       	ld	r13, Z
    val += (lfsr()&bits);
    1232:	cc df       	rcall	.-104    	; 0x11cc <lfsr>
    1234:	8d 21       	and	r24, r13
    1236:	c8 0f       	add	r28, r24
    1238:	d1 1d       	adc	r29, r1
    val -= (lfsr()&bits);
    123a:	c8 df       	rcall	.-112    	; 0x11cc <lfsr>
    123c:	8d 21       	and	r24, r13
    123e:	c8 1b       	sub	r28, r24
    1240:	d1 09       	sbc	r29, r1
    1242:	0c 17       	cp	r16, r28
    1244:	1d 07       	cpc	r17, r29
    1246:	08 f4       	brcc	.+2      	; 0x124a <floatSpeed+0x40>
    1248:	e8 01       	movw	r28, r16
    124a:	c7 01       	movw	r24, r14
    124c:	ec 16       	cp	r14, r28
    124e:	fd 06       	cpc	r15, r29
    1250:	08 f4       	brcc	.+2      	; 0x1254 <floatSpeed+0x4a>
    1252:	ce 01       	movw	r24, r28
    1254:	80 93 5c 0a 	sts	0x0A5C, r24	; 0x800a5c <__TEXT_REGION_LENGTH__+0x700a5c>
    if (val > max) val = max;    
    if (val < min) val = min;  
    TCB1_CCMP = val;
    1258:	90 93 5d 0a 	sts	0x0A5D, r25	; 0x800a5d <__TEXT_REGION_LENGTH__+0x700a5d>
    125c:	cd b7       	in	r28, 0x3d	; 61
}
    125e:	de b7       	in	r29, 0x3e	; 62
    1260:	e7 e0       	ldi	r30, 0x07	; 7
    1262:	0c 94 32 1f 	jmp	0x3e64	; 0x3e64 <__epilogue_restores__+0x16>

00001266 <floatAround>:
    1266:	0f 93       	push	r16

uint8_t floatAround(uint8_t sample, uint8_t bits, uint8_t min, uint8_t max){
    1268:	1f 93       	push	r17
    126a:	cf 93       	push	r28
    126c:	df 93       	push	r29
    126e:	c8 2f       	mov	r28, r24
    1270:	d4 2f       	mov	r29, r20
    1272:	02 2f       	mov	r16, r18
    bits = mask[(bits-1)&0x07];
    1274:	e6 2f       	mov	r30, r22
    1276:	f0 e0       	ldi	r31, 0x00	; 0
    1278:	31 97       	sbiw	r30, 0x01	; 1
    127a:	e7 70       	andi	r30, 0x07	; 7
    127c:	ff 27       	eor	r31, r31
    127e:	e5 5d       	subi	r30, 0xD5	; 213
    1280:	f7 4c       	sbci	r31, 0xC7	; 199
    1282:	10 81       	ld	r17, Z
    sample += lfsr()&bits;
    1284:	a3 df       	rcall	.-186    	; 0x11cc <lfsr>
    1286:	81 23       	and	r24, r17
    1288:	c8 0f       	add	r28, r24
    sample -= lfsr()&bits;
    128a:	a0 df       	rcall	.-192    	; 0x11cc <lfsr>
    128c:	81 23       	and	r24, r17
    128e:	c8 1b       	sub	r28, r24
    1290:	8c 2f       	mov	r24, r28
    1292:	00 23       	and	r16, r16
    if (max){
    1294:	41 f0       	breq	.+16     	; 0x12a6 <floatAround+0x40>
    1296:	9c 2f       	mov	r25, r28
    1298:	0c 17       	cp	r16, r28
    129a:	08 f4       	brcc	.+2      	; 0x129e <floatAround+0x38>
    129c:	90 2f       	mov	r25, r16
    129e:	8d 2f       	mov	r24, r29
    12a0:	d9 17       	cp	r29, r25
    12a2:	08 f4       	brcc	.+2      	; 0x12a6 <floatAround+0x40>
    12a4:	89 2f       	mov	r24, r25
    12a6:	41 e0       	ldi	r20, 0x01	; 1
        if (sample > max) sample = max;
        if (sample < min) sample = min;
    }
    if (min & (sample < min)) sample = min;
    12a8:	50 e0       	ldi	r21, 0x00	; 0
    12aa:	8d 17       	cp	r24, r29
    12ac:	10 f0       	brcs	.+4      	; 0x12b2 <floatAround+0x4c>
    12ae:	40 e0       	ldi	r20, 0x00	; 0
    12b0:	50 e0       	ldi	r21, 0x00	; 0
    12b2:	2d 2f       	mov	r18, r29
    12b4:	30 e0       	ldi	r19, 0x00	; 0
    12b6:	24 23       	and	r18, r20
    12b8:	35 23       	and	r19, r21
    12ba:	23 2b       	or	r18, r19
    12bc:	09 f0       	breq	.+2      	; 0x12c0 <floatAround+0x5a>
    12be:	8d 2f       	mov	r24, r29
    12c0:	df 91       	pop	r29

    return sample;
}
    12c2:	cf 91       	pop	r28
    12c4:	1f 91       	pop	r17
    12c6:	0f 91       	pop	r16
    12c8:	08 95       	ret

000012ca <SaveGameState>:
    12ca:	cf 92       	push	r12
    inventory[0] = (gameState[INVADDR]<<8|gameState[INVADDR+1]);
    inventory[1] = (gameState[INVADDR+2]<<8|gameState[INVADDR+3]);
}

//Save changed data to EEPROM
uint8_t SaveGameState(){
    12cc:	df 92       	push	r13
    12ce:	ff 92       	push	r15
    12d0:	0f 93       	push	r16
    12d2:	1f 93       	push	r17
    12d4:	cf 93       	push	r28
    12d6:	df 93       	push	r29
    12d8:	cd b7       	in	r28, 0x3d	; 61
    12da:	de b7       	in	r29, 0x3e	; 62
    12dc:	64 97       	sbiw	r28, 0x14	; 20
    12de:	cd bf       	out	0x3d, r28	; 61
    12e0:	de bf       	out	0x3e, r29	; 62
    uint8_t gameCheck[BOOTCHK];

    //Read all data up to the boot/check result address from EEPROM
    EERead(0, &gameCheck[0], BOOTCHK);
    12e2:	44 e1       	ldi	r20, 0x14	; 20
    12e4:	be 01       	movw	r22, r28
    12e6:	6f 5f       	subi	r22, 0xFF	; 255
    12e8:	7f 4f       	sbci	r23, 0xFF	; 255
    12ea:	80 e0       	ldi	r24, 0x00	; 0
    12ec:	8d de       	rcall	.-742    	; 0x1008 <EERead>
    12ee:	87 e6       	ldi	r24, 0x67	; 103
    12f0:	c8 2e       	mov	r12, r24
    12f2:	8a e3       	ldi	r24, 0x3A	; 58
    12f4:	d8 2e       	mov	r13, r24
    12f6:	8e 01       	movw	r16, r28
    12f8:	0f 5f       	subi	r16, 0xFF	; 255
    12fa:	1f 4f       	sbci	r17, 0xFF	; 255

    //Check game status bits
    for (uint8_t x=0; x<STATLEN; ++x){
    12fc:	f1 2c       	mov	r15, r1
        if (gameState[x] != gameCheck[x]){
    12fe:	f8 01       	movw	r30, r16
    1300:	81 91       	ld	r24, Z+
    1302:	8f 01       	movw	r16, r30
    1304:	f6 01       	movw	r30, r12
    1306:	90 81       	ld	r25, Z
    1308:	98 13       	cpse	r25, r24
    130a:	08 c0       	rjmp	.+16     	; 0x131c <SaveGameState+0x52>

    //Read all data up to the boot/check result address from EEPROM
    EERead(0, &gameCheck[0], BOOTCHK);

    //Check game status bits
    for (uint8_t x=0; x<STATLEN; ++x){
    130c:	f3 94       	inc	r15
    130e:	ff ef       	ldi	r31, 0xFF	; 255
    1310:	cf 1a       	sub	r12, r31
    1312:	df 0a       	sbc	r13, r31
    1314:	80 e1       	ldi	r24, 0x10	; 16
    1316:	f8 12       	cpse	r15, r24
    1318:	f2 cf       	rjmp	.-28     	; 0x12fe <SaveGameState+0x34>
    131a:	08 c0       	rjmp	.+16     	; 0x132c <SaveGameState+0x62>
        if (gameState[x] != gameCheck[x]){
            if (EEWrite(x, &gameState[x], 1)) return 1;
    131c:	41 e0       	ldi	r20, 0x01	; 1
    131e:	b6 01       	movw	r22, r12
    1320:	8f 2d       	mov	r24, r15
    1322:	82 de       	rcall	.-764    	; 0x1028 <EEWrite>
    1324:	88 23       	and	r24, r24
    1326:	91 f3       	breq	.-28     	; 0x130c <SaveGameState+0x42>
    1328:	91 e0       	ldi	r25, 0x01	; 1
    132a:	36 c0       	rjmp	.+108    	; 0x1398 <SaveGameState+0xce>
        }
    }

    //Check the inventory too
    gameState[INVADDR] = (uint8_t)(inventory[0]>>8);
    132c:	20 91 44 38 	lds	r18, 0x3844	; 0x803844 <inventory>
    1330:	30 91 45 38 	lds	r19, 0x3845	; 0x803845 <inventory+0x1>
    1334:	30 93 77 3a 	sts	0x3A77, r19	; 0x803a77 <gameState+0x10>
    gameState[INVADDR+1] = (uint8_t)(inventory[0]&0xff);
    1338:	20 93 78 3a 	sts	0x3A78, r18	; 0x803a78 <gameState+0x11>
    gameState[INVADDR+2] = (uint8_t)(inventory[1]>>8);
    133c:	80 91 46 38 	lds	r24, 0x3846	; 0x803846 <inventory+0x2>
    1340:	90 91 47 38 	lds	r25, 0x3847	; 0x803847 <inventory+0x3>
    1344:	90 93 79 3a 	sts	0x3A79, r25	; 0x803a79 <gameState+0x12>
    gameState[INVADDR+3] = (uint8_t)(inventory[1]&0xff);
    1348:	80 93 7a 3a 	sts	0x3A7A, r24	; 0x803a7a <gameState+0x13>
    if (inventory[0] != (gameCheck[INVADDR]<<8|gameCheck[INVADDR+1])) {
    134c:	89 89       	ldd	r24, Y+17	; 0x11
    134e:	9a 89       	ldd	r25, Y+18	; 0x12
    1350:	98 27       	eor	r25, r24
    1352:	89 27       	eor	r24, r25
    1354:	98 27       	eor	r25, r24
    1356:	28 17       	cp	r18, r24
    1358:	39 07       	cpc	r19, r25
    135a:	69 f4       	brne	.+26     	; 0x1376 <SaveGameState+0xac>
        if (EEWrite(INVADDR, &gameState[INVADDR], 2)) return 1;
    }
    if (inventory[1] != (gameCheck[INVADDR+2]<<8|gameCheck[INVADDR+3])) {
    135c:	8b 89       	ldd	r24, Y+19	; 0x13
    135e:	9c 89       	ldd	r25, Y+20	; 0x14
    1360:	98 27       	eor	r25, r24
    1362:	89 27       	eor	r24, r25
    1364:	98 27       	eor	r25, r24
    1366:	20 91 46 38 	lds	r18, 0x3846	; 0x803846 <inventory+0x2>
    136a:	30 91 47 38 	lds	r19, 0x3847	; 0x803847 <inventory+0x3>
    136e:	28 17       	cp	r18, r24
    1370:	39 07       	cpc	r19, r25
    1372:	49 f4       	brne	.+18     	; 0x1386 <SaveGameState+0xbc>
    1374:	10 c0       	rjmp	.+32     	; 0x1396 <SaveGameState+0xcc>
    gameState[INVADDR] = (uint8_t)(inventory[0]>>8);
    gameState[INVADDR+1] = (uint8_t)(inventory[0]&0xff);
    gameState[INVADDR+2] = (uint8_t)(inventory[1]>>8);
    gameState[INVADDR+3] = (uint8_t)(inventory[1]&0xff);
    if (inventory[0] != (gameCheck[INVADDR]<<8|gameCheck[INVADDR+1])) {
        if (EEWrite(INVADDR, &gameState[INVADDR], 2)) return 1;
    1376:	42 e0       	ldi	r20, 0x02	; 2
    1378:	67 e7       	ldi	r22, 0x77	; 119
    137a:	7a e3       	ldi	r23, 0x3A	; 58
    137c:	80 e1       	ldi	r24, 0x10	; 16
    137e:	54 de       	rcall	.-856    	; 0x1028 <EEWrite>
    1380:	88 23       	and	r24, r24
    1382:	61 f3       	breq	.-40     	; 0x135c <SaveGameState+0x92>
    1384:	d1 cf       	rjmp	.-94     	; 0x1328 <SaveGameState+0x5e>
    }
    if (inventory[1] != (gameCheck[INVADDR+2]<<8|gameCheck[INVADDR+3])) {
        if (EEWrite(INVADDR+2, &gameState[INVADDR+2], 2)) return 1;
    1386:	42 e0       	ldi	r20, 0x02	; 2
    1388:	69 e7       	ldi	r22, 0x79	; 121
    138a:	7a e3       	ldi	r23, 0x3A	; 58
    138c:	82 e1       	ldi	r24, 0x12	; 18
    138e:	4c de       	rcall	.-872    	; 0x1028 <EEWrite>
    EERead(0, &gameCheck[0], BOOTCHK);

    //Check game status bits
    for (uint8_t x=0; x<STATLEN; ++x){
        if (gameState[x] != gameCheck[x]){
            if (EEWrite(x, &gameState[x], 1)) return 1;
    1390:	91 e0       	ldi	r25, 0x01	; 1
    1392:	81 11       	cpse	r24, r1
    1394:	01 c0       	rjmp	.+2      	; 0x1398 <SaveGameState+0xce>
    1396:	90 e0       	ldi	r25, 0x00	; 0
    if (inventory[1] != (gameCheck[INVADDR+2]<<8|gameCheck[INVADDR+3])) {
        if (EEWrite(INVADDR+2, &gameState[INVADDR+2], 2)) return 1;
    }

    return 0;
}
    1398:	89 2f       	mov	r24, r25
    139a:	64 96       	adiw	r28, 0x14	; 20
    139c:	cd bf       	out	0x3d, r28	; 61
    139e:	de bf       	out	0x3e, r29	; 62
    13a0:	df 91       	pop	r29
    13a2:	cf 91       	pop	r28
    13a4:	1f 91       	pop	r17
    13a6:	0f 91       	pop	r16
    13a8:	ff 90       	pop	r15
    13aa:	df 90       	pop	r13
    13ac:	cf 90       	pop	r12
    13ae:	08 95       	ret

000013b0 <ReadStatusBit>:

uint8_t ReadStatusBit(uint8_t number){
    number &= 0x7f;
    if (gameState[number>>3] & (1<<(number&7))) return 1; else return 0;
    13b0:	e8 2f       	mov	r30, r24
    13b2:	ef 77       	andi	r30, 0x7F	; 127
    13b4:	e6 95       	lsr	r30
    13b6:	e6 95       	lsr	r30
    13b8:	e6 95       	lsr	r30
    13ba:	f0 e0       	ldi	r31, 0x00	; 0
    13bc:	e9 59       	subi	r30, 0x99	; 153
    13be:	f5 4c       	sbci	r31, 0xC5	; 197
    13c0:	20 81       	ld	r18, Z
    13c2:	30 e0       	ldi	r19, 0x00	; 0
    13c4:	87 70       	andi	r24, 0x07	; 7
    13c6:	a9 01       	movw	r20, r18
    13c8:	02 c0       	rjmp	.+4      	; 0x13ce <ReadStatusBit+0x1e>
    13ca:	55 95       	asr	r21
    13cc:	47 95       	ror	r20
    13ce:	8a 95       	dec	r24
    13d0:	e2 f7       	brpl	.-8      	; 0x13ca <ReadStatusBit+0x1a>
    13d2:	ca 01       	movw	r24, r20
}
    13d4:	81 70       	andi	r24, 0x01	; 1
    13d6:	08 95       	ret

000013d8 <UpdateState>:

//Update game state: num -> vBBBBbbb v=value(0 is set!), BBBB=Byte number, bbb=bit number
void UpdateState(uint8_t num){
    uint8_t clearBit = num & 0x80;
    num &= 0x7f;
    13d8:	e8 2f       	mov	r30, r24
    13da:	ef 77       	andi	r30, 0x7F	; 127
    
    if (num) {
    13dc:	e9 f0       	breq	.+58     	; 0x1418 <UpdateState+0x40>
    13de:	e6 95       	lsr	r30
    13e0:	e6 95       	lsr	r30
    13e2:	e6 95       	lsr	r30
    13e4:	28 2f       	mov	r18, r24
    13e6:	27 70       	andi	r18, 0x07	; 7
        if (clearBit) {
            gameState[num>>3] &= ~(1<<(num&7));
    13e8:	f0 e0       	ldi	r31, 0x00	; 0
    13ea:	e9 59       	subi	r30, 0x99	; 153
    13ec:	f5 4c       	sbci	r31, 0xC5	; 197
void UpdateState(uint8_t num){
    uint8_t clearBit = num & 0x80;
    num &= 0x7f;
    
    if (num) {
        if (clearBit) {
    13ee:	87 ff       	sbrs	r24, 7
    13f0:	0a c0       	rjmp	.+20     	; 0x1406 <UpdateState+0x2e>
            gameState[num>>3] &= ~(1<<(num&7));
    13f2:	81 e0       	ldi	r24, 0x01	; 1
    13f4:	90 e0       	ldi	r25, 0x00	; 0
    13f6:	01 c0       	rjmp	.+2      	; 0x13fa <UpdateState+0x22>
    13f8:	88 0f       	add	r24, r24
    13fa:	2a 95       	dec	r18
    13fc:	ea f7       	brpl	.-6      	; 0x13f8 <UpdateState+0x20>
    13fe:	80 95       	com	r24
    1400:	90 81       	ld	r25, Z
    1402:	89 23       	and	r24, r25
    1404:	08 c0       	rjmp	.+16     	; 0x1416 <UpdateState+0x3e>
        } else {
            gameState[num>>3] |= 1<<(num&7);
    1406:	81 e0       	ldi	r24, 0x01	; 1
    1408:	90 e0       	ldi	r25, 0x00	; 0
    140a:	01 c0       	rjmp	.+2      	; 0x140e <UpdateState+0x36>
    140c:	88 0f       	add	r24, r24
    140e:	2a 95       	dec	r18
    1410:	ea f7       	brpl	.-6      	; 0x140c <UpdateState+0x34>
    1412:	90 81       	ld	r25, Z
    1414:	89 2b       	or	r24, r25
    1416:	80 83       	st	Z, r24
    1418:	08 95       	ret

0000141a <CheckState>:
        }
    }
}

//Checks if state of bit BBBBbbb matches with v (inverted) bit
uint8_t CheckState(uint8_t num){
    141a:	cf 93       	push	r28
    141c:	c8 2f       	mov	r28, r24
    uint8_t bitSet = 0;
    if (ReadStatusBit(num & 0x7f)){
    141e:	8f 77       	andi	r24, 0x7F	; 127
    1420:	c7 df       	rcall	.-114    	; 0x13b0 <ReadStatusBit>
    1422:	2c 2f       	mov	r18, r28
    1424:	22 1f       	adc	r18, r18
    1426:	22 27       	eor	r18, r18
    1428:	22 1f       	adc	r18, r18
    142a:	91 e0       	ldi	r25, 0x01	; 1
    142c:	81 11       	cpse	r24, r1
    142e:	01 c0       	rjmp	.+2      	; 0x1432 <CheckState+0x18>
    1430:	90 e0       	ldi	r25, 0x00	; 0
    }
    if (((num & 0x80)>0)^(bitSet>0)){
        return 1;
    }
    return 0;
}
    1432:	82 2f       	mov	r24, r18
    1434:	89 27       	eor	r24, r25
    1436:	cf 91       	pop	r28
    1438:	08 95       	ret

0000143a <getID>:

//Give out a number 0..3, calculated using serial number fields
uint8_t getID(){
    uint8_t id = 0;
    uint8_t *serNum;
    serNum = (uint8_t*)&SIGROW_SERNUM0;
    143a:	e3 e0       	ldi	r30, 0x03	; 3
    143c:	f1 e1       	ldi	r31, 0x11	; 17
    return 0;
}

//Give out a number 0..3, calculated using serial number fields
uint8_t getID(){
    uint8_t id = 0;
    143e:	80 e0       	ldi	r24, 0x00	; 0
    uint8_t *serNum;
    serNum = (uint8_t*)&SIGROW_SERNUM0;

    for (uint8_t x=0; x<10; ++x){
        id += *serNum;
    1440:	91 91       	ld	r25, Z+
    1442:	89 0f       	add	r24, r25
uint8_t getID(){
    uint8_t id = 0;
    uint8_t *serNum;
    serNum = (uint8_t*)&SIGROW_SERNUM0;

    for (uint8_t x=0; x<10; ++x){
    1444:	ed 30       	cpi	r30, 0x0D	; 13
    1446:	91 e1       	ldi	r25, 0x11	; 17
    1448:	f9 07       	cpc	r31, r25
    144a:	d1 f7       	brne	.-12     	; 0x1440 <getID+0x6>
        id += *serNum;
        ++serNum;
    }
    id %= 4;
    144c:	83 70       	andi	r24, 0x03	; 3
    whoami = id+1;
    144e:	91 e0       	ldi	r25, 0x01	; 1
    1450:	98 0f       	add	r25, r24
    1452:	90 93 43 38 	sts	0x3843, r25	; 0x803843 <whoami>
    return id;
}
    1456:	08 95       	ret

00001458 <Reset>:

void Reset(){
    1458:	cf 93       	push	r28
    145a:	e7 e6       	ldi	r30, 0x67	; 103
    145c:	fa e3       	ldi	r31, 0x3A	; 58
    //# 110   set to 1 by FW if badge UUID mod 4 == 0
    //# 111   set to 1 by FW if badge UUID mod 4 == 1
    //# 112   set to 1 by FW if badge UUID mod 4 == 2
    //# 113   set to 1 by FW if badge UUID mod 4 == 3
    for (uint8_t x=0; x<sizeof(gameState); ++x){
        gameState[x] = 0;
    145e:	11 92       	st	Z+, r1
    //Reset game progress (all zeros) and load some bits:
    //# 110   set to 1 by FW if badge UUID mod 4 == 0
    //# 111   set to 1 by FW if badge UUID mod 4 == 1
    //# 112   set to 1 by FW if badge UUID mod 4 == 2
    //# 113   set to 1 by FW if badge UUID mod 4 == 3
    for (uint8_t x=0; x<sizeof(gameState); ++x){
    1460:	8a e3       	ldi	r24, 0x3A	; 58
    1462:	eb 37       	cpi	r30, 0x7B	; 123
    1464:	f8 07       	cpc	r31, r24
    1466:	d9 f7       	brne	.-10     	; 0x145e <Reset+0x6>
        gameState[x] = 0;
    }

    uint8_t id = getID();
    1468:	e8 df       	rcall	.-48     	; 0x143a <getID>
    146a:	c8 2f       	mov	r28, r24

    //Write bit in gameState location 110..113
    if (id == 0) UpdateState(110);
    146c:	81 11       	cpse	r24, r1
    146e:	02 c0       	rjmp	.+4      	; 0x1474 <Reset+0x1c>
    1470:	8e e6       	ldi	r24, 0x6E	; 110
    1472:	0b c0       	rjmp	.+22     	; 0x148a <Reset+0x32>
    else if (id == 1) UpdateState(111);
    1474:	81 30       	cpi	r24, 0x01	; 1
    1476:	11 f4       	brne	.+4      	; 0x147c <Reset+0x24>
    1478:	8f e6       	ldi	r24, 0x6F	; 111
    147a:	07 c0       	rjmp	.+14     	; 0x148a <Reset+0x32>
    else if (id == 2) UpdateState(112);
    147c:	82 30       	cpi	r24, 0x02	; 2
    147e:	11 f4       	brne	.+4      	; 0x1484 <Reset+0x2c>
    1480:	80 e7       	ldi	r24, 0x70	; 112
    1482:	03 c0       	rjmp	.+6      	; 0x148a <Reset+0x32>
    else if (id == 3) UpdateState(113);
    1484:	83 30       	cpi	r24, 0x03	; 3
    1486:	11 f4       	brne	.+4      	; 0x148c <Reset+0x34>
    1488:	81 e7       	ldi	r24, 0x71	; 113
    148a:	a6 df       	rcall	.-180    	; 0x13d8 <UpdateState>
    UpdateState(100+id);
    148c:	84 e6       	ldi	r24, 0x64	; 100
    148e:	8c 0f       	add	r24, r28
    1490:	a3 df       	rcall	.-186    	; 0x13d8 <UpdateState>

    //Write bit 0, must always be 1!

}
    1492:	cf 91       	pop	r28
    1494:	08 95       	ret

00001496 <LoadGameState>:

    return sample;
}

//Load game status
void LoadGameState(){
    1496:	cf 93       	push	r28
    1498:	df 93       	push	r29
    EERead(0, &gameState[0], BOOTCHK);   //Load game status bits from EEPROM
    149a:	44 e1       	ldi	r20, 0x14	; 20
    149c:	67 e6       	ldi	r22, 0x67	; 103
    149e:	7a e3       	ldi	r23, 0x3A	; 58
    14a0:	80 e0       	ldi	r24, 0x00	; 0
    14a2:	b2 dd       	rcall	.-1180   	; 0x1008 <EERead>
    14a4:	ce e6       	ldi	r28, 0x6E	; 110

    uint8_t idSet = 0;
    14a6:	d0 e0       	ldi	r29, 0x00	; 0
    for (uint8_t x=0; x<4; ++x){
        idSet += ReadStatusBit(110+x);
    14a8:	8c 2f       	mov	r24, r28
    14aa:	82 df       	rcall	.-252    	; 0x13b0 <ReadStatusBit>
    14ac:	d8 0f       	add	r29, r24
    14ae:	cf 5f       	subi	r28, 0xFF	; 255
//Load game status
void LoadGameState(){
    EERead(0, &gameState[0], BOOTCHK);   //Load game status bits from EEPROM

    uint8_t idSet = 0;
    for (uint8_t x=0; x<4; ++x){
    14b0:	c2 37       	cpi	r28, 0x72	; 114
    14b2:	d1 f7       	brne	.-12     	; 0x14a8 <LoadGameState+0x12>
        idSet += ReadStatusBit(110+x);
    }

    //Check if badge is reset(0 = cheated!) or new(3) or error(2)
    if (idSet != 1) {
    14b4:	d1 30       	cpi	r29, 0x01	; 1
        Reset();
    14b6:	11 f0       	breq	.+4      	; 0x14bc <LoadGameState+0x26>
    14b8:	cf df       	rcall	.-98     	; 0x1458 <Reset>
    } else getID();
    14ba:	01 c0       	rjmp	.+2      	; 0x14be <LoadGameState+0x28>
    14bc:	be df       	rcall	.-132    	; 0x143a <getID>

    inventory[0] = (gameState[INVADDR]<<8|gameState[INVADDR+1]);
    14be:	80 91 77 3a 	lds	r24, 0x3A77	; 0x803a77 <gameState+0x10>
    14c2:	90 91 78 3a 	lds	r25, 0x3A78	; 0x803a78 <gameState+0x11>
    14c6:	98 27       	eor	r25, r24
    14c8:	89 27       	eor	r24, r25
    14ca:	98 27       	eor	r25, r24
    14cc:	80 93 44 38 	sts	0x3844, r24	; 0x803844 <inventory>
    14d0:	90 93 45 38 	sts	0x3845, r25	; 0x803845 <inventory+0x1>
    inventory[1] = (gameState[INVADDR+2]<<8|gameState[INVADDR+3]);
    14d4:	80 91 79 3a 	lds	r24, 0x3A79	; 0x803a79 <gameState+0x12>
    14d8:	90 91 7a 3a 	lds	r25, 0x3A7A	; 0x803a7a <gameState+0x13>
    14dc:	98 27       	eor	r25, r24
    14de:	89 27       	eor	r24, r25
    14e0:	98 27       	eor	r25, r24
    14e2:	80 93 46 38 	sts	0x3846, r24	; 0x803846 <inventory+0x2>
    14e6:	90 93 47 38 	sts	0x3847, r25	; 0x803847 <inventory+0x3>
}
    14ea:	df 91       	pop	r29
    14ec:	cf 91       	pop	r28
    14ee:	08 95       	ret

000014f0 <HotSummer>:
    //Write bit 0, must always be 1!

}

//Sets specific game bits after the badge is heated for one and two times.
uint8_t HotSummer(){
    14f0:	cf 93       	push	r28
    static uint8_t cooledDown = 0;

    if (CheckState(SUMMERS_COMPLETED)){
    14f2:	86 e7       	ldi	r24, 0x76	; 118
    14f4:	92 df       	rcall	.-220    	; 0x141a <CheckState>
    14f6:	c8 2f       	mov	r28, r24
    14f8:	88 23       	and	r24, r24
    14fa:	81 f0       	breq	.+32     	; 0x151c <HotSummer+0x2c>
        iLED[SCARAB[R]] = 0;
    14fc:	e0 91 ac be 	lds	r30, 0xBEAC	; 0x80beac <__bss_end+0x8394>
    1500:	f0 e0       	ldi	r31, 0x00	; 0
    1502:	e7 53       	subi	r30, 0x37	; 55
    1504:	f5 4c       	sbci	r31, 0xC5	; 197
    1506:	10 82       	st	Z, r1
        iLED[SCARAB[G]] = dimValue;
    1508:	e0 91 ad be 	lds	r30, 0xBEAD	; 0x80bead <__bss_end+0x8395>
    150c:	f0 e0       	ldi	r31, 0x00	; 0
    150e:	80 91 0c 38 	lds	r24, 0x380C	; 0x80380c <dimValue>
    1512:	e7 53       	subi	r30, 0x37	; 55
    1514:	f5 4c       	sbci	r31, 0xC5	; 197
    1516:	80 83       	st	Z, r24
        return 1;
    1518:	c1 e0       	ldi	r28, 0x01	; 1
    151a:	4c c0       	rjmp	.+152    	; 0x15b4 <HotSummer+0xc4>
    }

    if (CheckState(FIRST_SUMMER)) {
    151c:	85 e7       	ldi	r24, 0x75	; 117
    151e:	7d df       	rcall	.-262    	; 0x141a <CheckState>
    1520:	88 23       	and	r24, r24
    1522:	59 f1       	breq	.+86     	; 0x157a <HotSummer+0x8a>
        iLED[SCARAB[R]] = dimValue;
    1524:	e0 91 ac be 	lds	r30, 0xBEAC	; 0x80beac <__bss_end+0x8394>
    1528:	f0 e0       	ldi	r31, 0x00	; 0
    152a:	80 91 0c 38 	lds	r24, 0x380C	; 0x80380c <dimValue>
    152e:	e7 53       	subi	r30, 0x37	; 55
    1530:	f5 4c       	sbci	r31, 0xC5	; 197
    1532:	80 83       	st	Z, r24
        if ((cooledDown) && (adcTemp >= (calTemp + 32))) {
    1534:	80 91 5f 38 	lds	r24, 0x385F	; 0x80385f <cooledDown.3968>
    1538:	88 23       	and	r24, r24
    153a:	79 f0       	breq	.+30     	; 0x155a <HotSummer+0x6a>
    153c:	80 91 c6 3a 	lds	r24, 0x3AC6	; 0x803ac6 <calTemp>
    1540:	90 91 c7 3a 	lds	r25, 0x3AC7	; 0x803ac7 <calTemp+0x1>
    1544:	20 91 f3 3a 	lds	r18, 0x3AF3	; 0x803af3 <adcTemp>
    1548:	30 91 f4 3a 	lds	r19, 0x3AF4	; 0x803af4 <adcTemp+0x1>
    154c:	80 96       	adiw	r24, 0x20	; 32
    154e:	28 17       	cp	r18, r24
    1550:	39 07       	cpc	r19, r25
            UpdateState(SUMMERS_COMPLETED);
    1552:	18 f0       	brcs	.+6      	; 0x155a <HotSummer+0x6a>
    1554:	86 e7       	ldi	r24, 0x76	; 118
    1556:	40 df       	rcall	.-384    	; 0x13d8 <UpdateState>
            return 0;
    1558:	2d c0       	rjmp	.+90     	; 0x15b4 <HotSummer+0xc4>
        }
        if (adcTemp <= (calTemp + 8)) cooledDown = 1;
    155a:	80 91 c6 3a 	lds	r24, 0x3AC6	; 0x803ac6 <calTemp>
    155e:	90 91 c7 3a 	lds	r25, 0x3AC7	; 0x803ac7 <calTemp+0x1>
    1562:	20 91 f3 3a 	lds	r18, 0x3AF3	; 0x803af3 <adcTemp>
    1566:	30 91 f4 3a 	lds	r19, 0x3AF4	; 0x803af4 <adcTemp+0x1>
    156a:	08 96       	adiw	r24, 0x08	; 8
    156c:	82 17       	cp	r24, r18
    156e:	93 07       	cpc	r25, r19
    1570:	08 f1       	brcs	.+66     	; 0x15b4 <HotSummer+0xc4>
    1572:	81 e0       	ldi	r24, 0x01	; 1
    1574:	80 93 5f 38 	sts	0x385F, r24	; 0x80385f <cooledDown.3968>
    1578:	1d c0       	rjmp	.+58     	; 0x15b4 <HotSummer+0xc4>
                   
    } else {
        if (calTemp == 0) calTemp = adcTemp;
    157a:	80 91 c6 3a 	lds	r24, 0x3AC6	; 0x803ac6 <calTemp>
    157e:	90 91 c7 3a 	lds	r25, 0x3AC7	; 0x803ac7 <calTemp+0x1>
    1582:	89 2b       	or	r24, r25
    1584:	41 f4       	brne	.+16     	; 0x1596 <HotSummer+0xa6>
    1586:	80 91 f3 3a 	lds	r24, 0x3AF3	; 0x803af3 <adcTemp>
    158a:	90 91 f4 3a 	lds	r25, 0x3AF4	; 0x803af4 <adcTemp+0x1>
    158e:	80 93 c6 3a 	sts	0x3AC6, r24	; 0x803ac6 <calTemp>
    1592:	90 93 c7 3a 	sts	0x3AC7, r25	; 0x803ac7 <calTemp+0x1>
        if (adcTemp >= (calTemp + 32)) {
    1596:	80 91 c6 3a 	lds	r24, 0x3AC6	; 0x803ac6 <calTemp>
    159a:	90 91 c7 3a 	lds	r25, 0x3AC7	; 0x803ac7 <calTemp+0x1>
    159e:	20 91 f3 3a 	lds	r18, 0x3AF3	; 0x803af3 <adcTemp>
    15a2:	30 91 f4 3a 	lds	r19, 0x3AF4	; 0x803af4 <adcTemp+0x1>
    15a6:	80 96       	adiw	r24, 0x20	; 32
    15a8:	28 17       	cp	r18, r24
    15aa:	39 07       	cpc	r19, r25
            UpdateState(FIRST_SUMMER);
    15ac:	18 f0       	brcs	.+6      	; 0x15b4 <HotSummer+0xc4>
    15ae:	85 e7       	ldi	r24, 0x75	; 117
    15b0:	13 df       	rcall	.-474    	; 0x13d8 <UpdateState>
        }
    }
    return 0;
    15b2:	c0 e0       	ldi	r28, 0x00	; 0
}
    15b4:	8c 2f       	mov	r24, r28
    15b6:	cf 91       	pop	r28
    15b8:	08 95       	ret

000015ba <WingBar>:

void WingBar(int8_t l, int8_t r) {
    15ba:	ee ea       	ldi	r30, 0xAE	; 174
    15bc:	fe eb       	ldi	r31, 0xBE	; 190
    for (int8_t i=0; i<5; i++) {
    15be:	90 e0       	ldi	r25, 0x00	; 0
        if (i<l)
            iLED[WING[L][i]] = dimValue;
    15c0:	a5 81       	ldd	r26, Z+5	; 0x05
    15c2:	b0 e0       	ldi	r27, 0x00	; 0
    return 0;
}

void WingBar(int8_t l, int8_t r) {
    for (int8_t i=0; i<5; i++) {
        if (i<l)
    15c4:	98 17       	cp	r25, r24
    15c6:	34 f4       	brge	.+12     	; 0x15d4 <WingBar+0x1a>
            iLED[WING[L][i]] = dimValue;
    15c8:	20 91 0c 38 	lds	r18, 0x380C	; 0x80380c <dimValue>
    15cc:	a7 53       	subi	r26, 0x37	; 55
    15ce:	b5 4c       	sbci	r27, 0xC5	; 197
    15d0:	2c 93       	st	X, r18
    15d2:	03 c0       	rjmp	.+6      	; 0x15da <WingBar+0x20>
        else
            iLED[WING[L][i]] = 0;
    15d4:	a7 53       	subi	r26, 0x37	; 55
    15d6:	b5 4c       	sbci	r27, 0xC5	; 197
    15d8:	1c 92       	st	X, r1
        if (i<r)
            iLED[WING[R][i]] = dimValue;
    15da:	a0 81       	ld	r26, Z
    15dc:	b0 e0       	ldi	r27, 0x00	; 0
    for (int8_t i=0; i<5; i++) {
        if (i<l)
            iLED[WING[L][i]] = dimValue;
        else
            iLED[WING[L][i]] = 0;
        if (i<r)
    15de:	96 17       	cp	r25, r22
    15e0:	34 f4       	brge	.+12     	; 0x15ee <WingBar+0x34>
            iLED[WING[R][i]] = dimValue;
    15e2:	20 91 0c 38 	lds	r18, 0x380C	; 0x80380c <dimValue>
    15e6:	a7 53       	subi	r26, 0x37	; 55
    15e8:	b5 4c       	sbci	r27, 0xC5	; 197
    15ea:	2c 93       	st	X, r18
    15ec:	03 c0       	rjmp	.+6      	; 0x15f4 <WingBar+0x3a>
        else
            iLED[WING[R][i]] = 0;
    15ee:	a7 53       	subi	r26, 0x37	; 55
    15f0:	b5 4c       	sbci	r27, 0xC5	; 197
    15f2:	1c 92       	st	X, r1
    15f4:	9f 5f       	subi	r25, 0xFF	; 255
    15f6:	31 96       	adiw	r30, 0x01	; 1
    }
    return 0;
}

void WingBar(int8_t l, int8_t r) {
    for (int8_t i=0; i<5; i++) {
    15f8:	95 30       	cpi	r25, 0x05	; 5
    15fa:	11 f7       	brne	.-60     	; 0x15c0 <WingBar+0x6>
        if (i<r)
            iLED[WING[R][i]] = dimValue;
        else
            iLED[WING[R][i]] = 0;
    }
}
    15fc:	08 95       	ret

000015fe <SetBothEyes>:

void SetBothEyes(uint8_t r, uint8_t g) {
    for (uint8_t i=0; i<2; i++) {
        iLED[EYE[R][i]] = r;
    15fe:	a8 eb       	ldi	r26, 0xB8	; 184
    1600:	be eb       	ldi	r27, 0xBE	; 190
    1602:	ec 91       	ld	r30, X
    1604:	f0 e0       	ldi	r31, 0x00	; 0
    1606:	e7 53       	subi	r30, 0x37	; 55
    1608:	f5 4c       	sbci	r31, 0xC5	; 197
    160a:	80 83       	st	Z, r24
        iLED[EYE[G][i]] = g;
    160c:	12 96       	adiw	r26, 0x02	; 2
    160e:	ec 91       	ld	r30, X
    1610:	12 97       	sbiw	r26, 0x02	; 2
    1612:	f0 e0       	ldi	r31, 0x00	; 0
    1614:	e7 53       	subi	r30, 0x37	; 55
    1616:	f5 4c       	sbci	r31, 0xC5	; 197
    1618:	60 83       	st	Z, r22
    }
}

void SetBothEyes(uint8_t r, uint8_t g) {
    for (uint8_t i=0; i<2; i++) {
        iLED[EYE[R][i]] = r;
    161a:	11 96       	adiw	r26, 0x01	; 1
    161c:	ec 91       	ld	r30, X
    161e:	11 97       	sbiw	r26, 0x01	; 1
    1620:	f0 e0       	ldi	r31, 0x00	; 0
    1622:	e7 53       	subi	r30, 0x37	; 55
    1624:	f5 4c       	sbci	r31, 0xC5	; 197
    1626:	80 83       	st	Z, r24
        iLED[EYE[G][i]] = g;
    1628:	13 96       	adiw	r26, 0x03	; 3
    162a:	ec 91       	ld	r30, X
    162c:	f0 e0       	ldi	r31, 0x00	; 0
    162e:	e7 53       	subi	r30, 0x37	; 55
    1630:	f5 4c       	sbci	r31, 0xC5	; 197
    1632:	60 83       	st	Z, r22
    1634:	08 95       	ret

00001636 <ClearHackerLeds>:
    }
}

void ClearHackerLeds() {
    1636:	cf 93       	push	r28
    1638:	df 93       	push	r29
    163a:	ec eb       	ldi	r30, 0xBC	; 188
    163c:	fe eb       	ldi	r31, 0xBE	; 190
    163e:	ef 01       	movw	r28, r30
    for (uint8_t i=0;i<6;i++) {
        iLED[HCKR[G][i]] = 0;
    1640:	a6 81       	ldd	r26, Z+6	; 0x06
    1642:	b0 e0       	ldi	r27, 0x00	; 0
    1644:	a7 53       	subi	r26, 0x37	; 55
    1646:	b5 4c       	sbci	r27, 0xC5	; 197
    1648:	1c 92       	st	X, r1
    164a:	31 96       	adiw	r30, 0x01	; 1
        iLED[HCKR[R][i]] = 0;
    164c:	a8 81       	ld	r26, Y
    164e:	b0 e0       	ldi	r27, 0x00	; 0
    1650:	a7 53       	subi	r26, 0x37	; 55
    1652:	b5 4c       	sbci	r27, 0xC5	; 197
    1654:	1c 92       	st	X, r1
        iLED[EYE[G][i]] = g;
    }
}

void ClearHackerLeds() {
    for (uint8_t i=0;i<6;i++) {
    1656:	8e eb       	ldi	r24, 0xBE	; 190
    1658:	e2 3c       	cpi	r30, 0xC2	; 194
    165a:	f8 07       	cpc	r31, r24
    165c:	81 f7       	brne	.-32     	; 0x163e <ClearHackerLeds+0x8>
        iLED[HCKR[G][i]] = 0;
        iLED[HCKR[R][i]] = 0;
    }
}
    165e:	df 91       	pop	r29
    1660:	cf 91       	pop	r28
    1662:	08 95       	ret

00001664 <GenerateBlinks>:


void GenerateBlinks(){
    1664:	a0 e0       	ldi	r26, 0x00	; 0
    1666:	b0 e0       	ldi	r27, 0x00	; 0
    1668:	e8 e3       	ldi	r30, 0x38	; 56
    166a:	fb e0       	ldi	r31, 0x0B	; 11
    166c:	0c 94 18 1f 	jmp	0x3e30	; 0x3e30 <__prologue_saves__+0x14>
    used by the games, the other LEDs can be used by setting 
    effect (or be set directly)
    */

    //Activate HCKR & BADGER leds based on the state-bits
    if (gameNow == TEXT) {
    1670:	80 91 42 38 	lds	r24, 0x3842	; 0x803842 <gameNow>
    1674:	88 23       	and	r24, r24
    1676:	29 f0       	breq	.+10     	; 0x1682 <GenerateBlinks+0x1e>
                iLED[HCKR[R][i]] = dimValue;
            }
        }
    }

    if (CheckState(GEM_STATE)) {
    1678:	80 e4       	ldi	r24, 0x40	; 64
    167a:	cf de       	rcall	.-610    	; 0x141a <CheckState>
    167c:	81 11       	cpse	r24, r1
    167e:	24 c0       	rjmp	.+72     	; 0x16c8 <GenerateBlinks+0x64>
    1680:	50 c0       	rjmp	.+160    	; 0x1722 <GenerateBlinks+0xbe>
    1682:	cc eb       	ldi	r28, 0xBC	; 188
    1684:	de eb       	ldi	r29, 0xBE	; 190
    used by the games, the other LEDs can be used by setting 
    effect (or be set directly)
    */

    //Activate HCKR & BADGER leds based on the state-bits
    if (gameNow == TEXT) {
    1686:	1a e7       	ldi	r17, 0x7A	; 122
        for (uint8_t i=0;i<6;i++) {
            if(CheckState(HACKER_STATES + i)) {
    1688:	81 2f       	mov	r24, r17
    168a:	c7 de       	rcall	.-626    	; 0x141a <CheckState>
                iLED[HCKR[G][i]] = dimValue;
    168c:	ee 81       	ldd	r30, Y+6	; 0x06
    168e:	f0 e0       	ldi	r31, 0x00	; 0
    */

    //Activate HCKR & BADGER leds based on the state-bits
    if (gameNow == TEXT) {
        for (uint8_t i=0;i<6;i++) {
            if(CheckState(HACKER_STATES + i)) {
    1690:	88 23       	and	r24, r24
    1692:	59 f0       	breq	.+22     	; 0x16aa <GenerateBlinks+0x46>
                iLED[HCKR[G][i]] = dimValue;
    1694:	80 91 0c 38 	lds	r24, 0x380C	; 0x80380c <dimValue>
    1698:	e7 53       	subi	r30, 0x37	; 55
    169a:	f5 4c       	sbci	r31, 0xC5	; 197
    169c:	80 83       	st	Z, r24
                iLED[HCKR[R][i]] = 0;
    169e:	e8 81       	ld	r30, Y
    16a0:	f0 e0       	ldi	r31, 0x00	; 0
    16a2:	e7 53       	subi	r30, 0x37	; 55
    16a4:	f5 4c       	sbci	r31, 0xC5	; 197
    16a6:	10 82       	st	Z, r1
    16a8:	0a c0       	rjmp	.+20     	; 0x16be <GenerateBlinks+0x5a>
            } else {
                iLED[HCKR[G][i]] = 0;
    16aa:	e7 53       	subi	r30, 0x37	; 55
    16ac:	f5 4c       	sbci	r31, 0xC5	; 197
    16ae:	10 82       	st	Z, r1
                iLED[HCKR[R][i]] = dimValue;
    16b0:	e8 81       	ld	r30, Y
    16b2:	f0 e0       	ldi	r31, 0x00	; 0
    16b4:	80 91 0c 38 	lds	r24, 0x380C	; 0x80380c <dimValue>
    16b8:	e7 53       	subi	r30, 0x37	; 55
    16ba:	f5 4c       	sbci	r31, 0xC5	; 197
    16bc:	80 83       	st	Z, r24
    16be:	1f 5f       	subi	r17, 0xFF	; 255
    16c0:	21 96       	adiw	r28, 0x01	; 1
    effect (or be set directly)
    */

    //Activate HCKR & BADGER leds based on the state-bits
    if (gameNow == TEXT) {
        for (uint8_t i=0;i<6;i++) {
    16c2:	10 38       	cpi	r17, 0x80	; 128
    16c4:	09 f7       	brne	.-62     	; 0x1688 <GenerateBlinks+0x24>
    16c6:	d8 cf       	rjmp	.-80     	; 0x1678 <GenerateBlinks+0x14>
            }
        }
    }

    if (CheckState(GEM_STATE)) {
        if ( HeartCount == 1 || HeartCount == 3 || HeartCount == 5 )
    16c8:	80 91 61 38 	lds	r24, 0x3861	; 0x803861 <HeartCount>
    16cc:	98 2f       	mov	r25, r24
    16ce:	9d 7f       	andi	r25, 0xFD	; 253
    16d0:	e0 91 ab be 	lds	r30, 0xBEAB	; 0x80beab <__bss_end+0x8393>
            iLED[BADGER] = dimValue>>1 ;
    16d4:	f0 e0       	ldi	r31, 0x00	; 0
            }
        }
    }

    if (CheckState(GEM_STATE)) {
        if ( HeartCount == 1 || HeartCount == 3 || HeartCount == 5 )
    16d6:	91 30       	cpi	r25, 0x01	; 1
    16d8:	11 f0       	breq	.+4      	; 0x16de <GenerateBlinks+0x7a>
    16da:	85 30       	cpi	r24, 0x05	; 5
    16dc:	21 f4       	brne	.+8      	; 0x16e6 <GenerateBlinks+0x82>
            iLED[BADGER] = dimValue>>1 ;
    16de:	90 91 0c 38 	lds	r25, 0x380C	; 0x80380c <dimValue>
    16e2:	96 95       	lsr	r25
    16e4:	06 c0       	rjmp	.+12     	; 0x16f2 <GenerateBlinks+0x8e>
        else if ( HeartCount == 2 || HeartCount == 4 )
    16e6:	82 30       	cpi	r24, 0x02	; 2
    16e8:	11 f0       	breq	.+4      	; 0x16ee <GenerateBlinks+0x8a>
    16ea:	84 30       	cpi	r24, 0x04	; 4
    16ec:	31 f4       	brne	.+12     	; 0x16fa <GenerateBlinks+0x96>
            iLED[BADGER] = dimValue;
    16ee:	90 91 0c 38 	lds	r25, 0x380C	; 0x80380c <dimValue>
    16f2:	e7 53       	subi	r30, 0x37	; 55
    16f4:	f5 4c       	sbci	r31, 0xC5	; 197
    16f6:	90 83       	st	Z, r25
    16f8:	0c c0       	rjmp	.+24     	; 0x1712 <GenerateBlinks+0xae>
        else if ( HeartCount == 0 || HeartCount == 6 )
    16fa:	88 23       	and	r24, r24
    16fc:	11 f0       	breq	.+4      	; 0x1702 <GenerateBlinks+0x9e>
    16fe:	86 30       	cpi	r24, 0x06	; 6
    1700:	29 f4       	brne	.+10     	; 0x170c <GenerateBlinks+0xa8>
            iLED[BADGER] = dimValue>>2;
    1702:	90 91 0c 38 	lds	r25, 0x380C	; 0x80380c <dimValue>
    1706:	96 95       	lsr	r25
    1708:	96 95       	lsr	r25
    170a:	f3 cf       	rjmp	.-26     	; 0x16f2 <GenerateBlinks+0x8e>
        else
            iLED[BADGER] = 0;
    170c:	e7 53       	subi	r30, 0x37	; 55
    170e:	f5 4c       	sbci	r31, 0xC5	; 197
    1710:	10 82       	st	Z, r1
        if (HeartCount<32)
    1712:	80 32       	cpi	r24, 0x20	; 32
    1714:	20 f4       	brcc	.+8      	; 0x171e <GenerateBlinks+0xba>
            HeartCount++;
    1716:	8f 5f       	subi	r24, 0xFF	; 255
    1718:	80 93 61 38 	sts	0x3861, r24	; 0x803861 <HeartCount>
    171c:	02 c0       	rjmp	.+4      	; 0x1722 <GenerateBlinks+0xbe>
        else
            HeartCount = 0;
    171e:	10 92 61 38 	sts	0x3861, r1	; 0x803861 <HeartCount>
    }

    //LEDs effects for all games
    // Keep a counter for dynamic effects
    LedCount++;
    1722:	90 91 60 38 	lds	r25, 0x3860	; 0x803860 <LedCount>
    1726:	9f 5f       	subi	r25, 0xFF	; 255
    1728:	90 93 60 38 	sts	0x3860, r25	; 0x803860 <LedCount>
    
    switch (effect&0x1f) {
    172c:	e0 91 40 38 	lds	r30, 0x3840	; 0x803840 <effect>
    1730:	f0 91 41 38 	lds	r31, 0x3841	; 0x803841 <effect+0x1>
    1734:	ef 71       	andi	r30, 0x1F	; 31
    1736:	ff 27       	eor	r31, r31
    1738:	e9 30       	cpi	r30, 0x09	; 9
    173a:	f1 05       	cpc	r31, r1
    173c:	08 f0       	brcs	.+2      	; 0x1740 <GenerateBlinks+0xdc>
    173e:	f4 c0       	rjmp	.+488    	; 0x1928 <GenerateBlinks+0x2c4>
    1740:	e2 5c       	subi	r30, 0xC2	; 194
    1742:	ff 4f       	sbci	r31, 0xFF	; 255
    1744:	0c 94 08 1f 	jmp	0x3e10	; 0x3e10 <__tablejump2__>
        // All LEDs off
        case 0:
            WingBar(0,0);
    1748:	60 e0       	ldi	r22, 0x00	; 0
    174a:	80 e0       	ldi	r24, 0x00	; 0
    174c:	36 df       	rcall	.-404    	; 0x15ba <WingBar>
            for (uint8_t i=0; i<2; i++) {
                iLED[EYE[R][i]] = 0;
    174e:	e0 91 b8 be 	lds	r30, 0xBEB8	; 0x80beb8 <__bss_end+0x83a0>
    1752:	f0 e0       	ldi	r31, 0x00	; 0
    1754:	e7 53       	subi	r30, 0x37	; 55
    1756:	f5 4c       	sbci	r31, 0xC5	; 197
    1758:	10 82       	st	Z, r1
                iLED[EYE[G][i]] = 0; 
    175a:	e0 91 ba be 	lds	r30, 0xBEBA	; 0x80beba <__bss_end+0x83a2>
    175e:	f0 e0       	ldi	r31, 0x00	; 0
    1760:	e7 53       	subi	r30, 0x37	; 55
    1762:	f5 4c       	sbci	r31, 0xC5	; 197
    1764:	10 82       	st	Z, r1
                iLED[SCARAB[i]] = 0;
    1766:	e0 91 ac be 	lds	r30, 0xBEAC	; 0x80beac <__bss_end+0x8394>
    176a:	f0 e0       	ldi	r31, 0x00	; 0
    176c:	e7 53       	subi	r30, 0x37	; 55
    176e:	f5 4c       	sbci	r31, 0xC5	; 197
    1770:	10 82       	st	Z, r1
    switch (effect&0x1f) {
        // All LEDs off
        case 0:
            WingBar(0,0);
            for (uint8_t i=0; i<2; i++) {
                iLED[EYE[R][i]] = 0;
    1772:	e0 91 b9 be 	lds	r30, 0xBEB9	; 0x80beb9 <__bss_end+0x83a1>
    1776:	f0 e0       	ldi	r31, 0x00	; 0
    1778:	e7 53       	subi	r30, 0x37	; 55
    177a:	f5 4c       	sbci	r31, 0xC5	; 197
    177c:	10 82       	st	Z, r1
                iLED[EYE[G][i]] = 0; 
    177e:	e0 91 bb be 	lds	r30, 0xBEBB	; 0x80bebb <__bss_end+0x83a3>
    1782:	f0 e0       	ldi	r31, 0x00	; 0
    1784:	e7 53       	subi	r30, 0x37	; 55
    1786:	f5 4c       	sbci	r31, 0xC5	; 197
    1788:	10 82       	st	Z, r1
                iLED[SCARAB[i]] = 0;
    178a:	e0 91 ad be 	lds	r30, 0xBEAD	; 0x80bead <__bss_end+0x8395>
    178e:	f0 e0       	ldi	r31, 0x00	; 0
    1790:	e7 53       	subi	r30, 0x37	; 55
    1792:	f5 4c       	sbci	r31, 0xC5	; 197
    1794:	10 82       	st	Z, r1
            }
            iLED[CAT] = 0;
    1796:	e0 91 aa be 	lds	r30, 0xBEAA	; 0x80beaa <__bss_end+0x8392>
    179a:	f0 e0       	ldi	r31, 0x00	; 0
    179c:	e7 53       	subi	r30, 0x37	; 55
    179e:	f5 4c       	sbci	r31, 0xC5	; 197
    17a0:	10 82       	st	Z, r1
            break;
    17a2:	c2 c0       	rjmp	.+388    	; 0x1928 <GenerateBlinks+0x2c4>

        //'flashing red eyes',       # 1 can be used when a bad answer is given
        case 1:
            SetBothEyes((LedCount & 1 ? dimValue : 0),0);
    17a4:	89 2f       	mov	r24, r25
    17a6:	81 70       	andi	r24, 0x01	; 1
    17a8:	90 fd       	sbrc	r25, 0
    17aa:	80 91 0c 38 	lds	r24, 0x380C	; 0x80380c <dimValue>
    17ae:	60 e0       	ldi	r22, 0x00	; 0
    17b0:	0d c0       	rjmp	.+26     	; 0x17cc <GenerateBlinks+0x168>
    17b2:	69 2f       	mov	r22, r25
    17b4:	70 e0       	ldi	r23, 0x00	; 0
            break;

        //'flashing green eyes',     # 2 can be used when a good answer is given
        case 2:
            SetBothEyes(0, 0x1f + (((LedCount & 0x08) ? ((LedCount&0x07)^0x07) : (LedCount&0x07))<<5));
    17b6:	93 ff       	sbrs	r25, 3
    17b8:	02 c0       	rjmp	.+4      	; 0x17be <GenerateBlinks+0x15a>
    17ba:	60 95       	com	r22
    17bc:	70 95       	com	r23
    17be:	95 e0       	ldi	r25, 0x05	; 5
    17c0:	66 0f       	add	r22, r22
    17c2:	77 1f       	adc	r23, r23
    17c4:	9a 95       	dec	r25
    17c6:	e1 f7       	brne	.-8      	; 0x17c0 <GenerateBlinks+0x15c>
    17c8:	61 5e       	subi	r22, 0xE1	; 225
    17ca:	80 e0       	ldi	r24, 0x00	; 0
    17cc:	18 df       	rcall	.-464    	; 0x15fe <SetBothEyes>
            break;
    17ce:	ac c0       	rjmp	.+344    	; 0x1928 <GenerateBlinks+0x2c4>

        //'flash both wings'
        case 5:
            if ((LedCount & 3) == 0) {
    17d0:	89 2f       	mov	r24, r25
    17d2:	83 70       	andi	r24, 0x03	; 3
    17d4:	09 f0       	breq	.+2      	; 0x17d8 <GenerateBlinks+0x174>
    17d6:	a8 c0       	rjmp	.+336    	; 0x1928 <GenerateBlinks+0x2c4>
                if (LedCount & 4)
    17d8:	92 ff       	sbrs	r25, 2
    17da:	03 c0       	rjmp	.+6      	; 0x17e2 <GenerateBlinks+0x17e>
                    WingBar(5,5);
    17dc:	65 e0       	ldi	r22, 0x05	; 5
    17de:	85 e0       	ldi	r24, 0x05	; 5
                else
                    WingBar(0,0);
    17e0:	02 c0       	rjmp	.+4      	; 0x17e6 <GenerateBlinks+0x182>
    17e2:	60 e0       	ldi	r22, 0x00	; 0
    17e4:	80 e0       	ldi	r24, 0x00	; 0
    17e6:	e9 de       	rcall	.-558    	; 0x15ba <WingBar>
    17e8:	9f c0       	rjmp	.+318    	; 0x1928 <GenerateBlinks+0x2c4>
            }
            break;

        //'circle the wing leds'
        case 6:
            if (LedCount > 4) LedCount = 0;
    17ea:	95 30       	cpi	r25, 0x05	; 5
    17ec:	10 f0       	brcs	.+4      	; 0x17f2 <GenerateBlinks+0x18e>
    17ee:	10 92 60 38 	sts	0x3860, r1	; 0x803860 <LedCount>
            iLED[WING[L][LedCount]] = 0;
    17f2:	40 91 60 38 	lds	r20, 0x3860	; 0x803860 <LedCount>
    17f6:	24 2f       	mov	r18, r20
    17f8:	30 e0       	ldi	r19, 0x00	; 0
    17fa:	f9 01       	movw	r30, r18
    17fc:	e2 55       	subi	r30, 0x52	; 82
    17fe:	f1 44       	sbci	r31, 0x41	; 65
    1800:	e5 81       	ldd	r30, Z+5	; 0x05
    1802:	f0 e0       	ldi	r31, 0x00	; 0
    1804:	e7 53       	subi	r30, 0x37	; 55
    1806:	f5 4c       	sbci	r31, 0xC5	; 197
    1808:	10 82       	st	Z, r1
            iLED[WING[L][LedCount == 4 ? 0 : LedCount+1]] = dimValue;
    180a:	44 30       	cpi	r20, 0x04	; 4
    180c:	19 f0       	breq	.+6      	; 0x1814 <GenerateBlinks+0x1b0>
    180e:	c9 01       	movw	r24, r18
    1810:	01 96       	adiw	r24, 0x01	; 1
    1812:	02 c0       	rjmp	.+4      	; 0x1818 <GenerateBlinks+0x1b4>
    1814:	80 e0       	ldi	r24, 0x00	; 0
    1816:	90 e0       	ldi	r25, 0x00	; 0
    1818:	fc 01       	movw	r30, r24
    181a:	e2 55       	subi	r30, 0x52	; 82
    181c:	f1 44       	sbci	r31, 0x41	; 65
    181e:	e5 81       	ldd	r30, Z+5	; 0x05
    1820:	f0 e0       	ldi	r31, 0x00	; 0
    1822:	80 91 0c 38 	lds	r24, 0x380C	; 0x80380c <dimValue>
    1826:	e7 53       	subi	r30, 0x37	; 55
    1828:	f5 4c       	sbci	r31, 0xC5	; 197
    182a:	80 83       	st	Z, r24
            iLED[WING[R][4-LedCount]] = 0;
    182c:	e2 eb       	ldi	r30, 0xB2	; 178
    182e:	fe eb       	ldi	r31, 0xBE	; 190
    1830:	e2 1b       	sub	r30, r18
    1832:	f3 0b       	sbc	r31, r19
    1834:	e0 81       	ld	r30, Z
    1836:	f0 e0       	ldi	r31, 0x00	; 0
    1838:	e7 53       	subi	r30, 0x37	; 55
    183a:	f5 4c       	sbci	r31, 0xC5	; 197
    183c:	10 82       	st	Z, r1
            iLED[WING[R][LedCount == 4 ? 4 : 3-LedCount]] = dimValue;
    183e:	44 30       	cpi	r20, 0x04	; 4
    1840:	29 f0       	breq	.+10     	; 0x184c <GenerateBlinks+0x1e8>
    1842:	83 e0       	ldi	r24, 0x03	; 3
    1844:	90 e0       	ldi	r25, 0x00	; 0
    1846:	82 1b       	sub	r24, r18
    1848:	93 0b       	sbc	r25, r19
    184a:	02 c0       	rjmp	.+4      	; 0x1850 <GenerateBlinks+0x1ec>
    184c:	84 e0       	ldi	r24, 0x04	; 4
    184e:	90 e0       	ldi	r25, 0x00	; 0
    1850:	fc 01       	movw	r30, r24
    1852:	e2 55       	subi	r30, 0x52	; 82
    1854:	f1 44       	sbci	r31, 0x41	; 65
    1856:	e0 81       	ld	r30, Z
    1858:	f0 e0       	ldi	r31, 0x00	; 0
    185a:	80 91 0c 38 	lds	r24, 0x380C	; 0x80380c <dimValue>
    185e:	e7 53       	subi	r30, 0x37	; 55
    1860:	f5 4c       	sbci	r31, 0xC5	; 197
    1862:	80 83       	st	Z, r24
            break;
    1864:	61 c0       	rjmp	.+194    	; 0x1928 <GenerateBlinks+0x2c4>
    1866:	ce ea       	ldi	r28, 0xAE	; 174
    1868:	de eb       	ldi	r29, 0xBE	; 190
    186a:	83 eb       	ldi	r24, 0xB3	; 179
    186c:	e8 2e       	mov	r14, r24
    186e:	8e eb       	ldi	r24, 0xBE	; 190
    1870:	f8 2e       	mov	r15, r24

        //'random wing leds'
        case 7:
            for (uint8_t x=0; x<5; ++x){
                iLED[WING[L][x]] = (lfsr() > 127)?dimValue:0;
    1872:	6e 01       	movw	r12, r28
    1874:	0d 81       	ldd	r16, Y+5	; 0x05
    1876:	10 e0       	ldi	r17, 0x00	; 0
    1878:	a9 dc       	rcall	.-1710   	; 0x11cc <lfsr>
    187a:	87 ff       	sbrs	r24, 7
    187c:	03 c0       	rjmp	.+6      	; 0x1884 <GenerateBlinks+0x220>
    187e:	80 91 0c 38 	lds	r24, 0x380C	; 0x80380c <dimValue>
    1882:	01 c0       	rjmp	.+2      	; 0x1886 <GenerateBlinks+0x222>
    1884:	80 e0       	ldi	r24, 0x00	; 0
    1886:	f8 01       	movw	r30, r16
    1888:	e7 53       	subi	r30, 0x37	; 55
    188a:	f5 4c       	sbci	r31, 0xC5	; 197
    188c:	80 83       	st	Z, r24
                iLED[WING[R][x]] = (lfsr() > 127)?dimValue:0;
    188e:	21 96       	adiw	r28, 0x01	; 1
    1890:	f6 01       	movw	r30, r12
    1892:	00 81       	ld	r16, Z
    1894:	10 e0       	ldi	r17, 0x00	; 0
    1896:	9a dc       	rcall	.-1740   	; 0x11cc <lfsr>
    1898:	87 ff       	sbrs	r24, 7
    189a:	03 c0       	rjmp	.+6      	; 0x18a2 <GenerateBlinks+0x23e>
    189c:	80 91 0c 38 	lds	r24, 0x380C	; 0x80380c <dimValue>
    18a0:	01 c0       	rjmp	.+2      	; 0x18a4 <GenerateBlinks+0x240>
    18a2:	80 e0       	ldi	r24, 0x00	; 0
    18a4:	f8 01       	movw	r30, r16
    18a6:	e7 53       	subi	r30, 0x37	; 55
    18a8:	f5 4c       	sbci	r31, 0xC5	; 197
    18aa:	80 83       	st	Z, r24
            iLED[WING[R][LedCount == 4 ? 4 : 3-LedCount]] = dimValue;
            break;

        //'random wing leds'
        case 7:
            for (uint8_t x=0; x<5; ++x){
    18ac:	ec 16       	cp	r14, r28
    18ae:	fd 06       	cpc	r15, r29
    18b0:	01 f7       	brne	.-64     	; 0x1872 <GenerateBlinks+0x20e>
    18b2:	3a c0       	rjmp	.+116    	; 0x1928 <GenerateBlinks+0x2c4>
            }
            break;

        //'falling rain'
        case 8:
            if ((LedCount & 1) == 0) {
    18b4:	90 fd       	sbrc	r25, 0
    18b6:	38 c0       	rjmp	.+112    	; 0x1928 <GenerateBlinks+0x2c4>
    18b8:	ee ea       	ldi	r30, 0xAE	; 174
    18ba:	fe eb       	ldi	r31, 0xBE	; 190
    18bc:	82 eb       	ldi	r24, 0xB2	; 178
    18be:	9e eb       	ldi	r25, 0xBE	; 190
    18c0:	9f 01       	movw	r18, r30
                for (uint8_t x=0; x<4; ++x){
                    iLED[WING[L][x]] = iLED[WING[L][x+1]];
    18c2:	a5 81       	ldd	r26, Z+5	; 0x05
    18c4:	b0 e0       	ldi	r27, 0x00	; 0
    18c6:	c6 81       	ldd	r28, Z+6	; 0x06
    18c8:	d0 e0       	ldi	r29, 0x00	; 0
    18ca:	c7 53       	subi	r28, 0x37	; 55
    18cc:	d5 4c       	sbci	r29, 0xC5	; 197
    18ce:	48 81       	ld	r20, Y
    18d0:	a7 53       	subi	r26, 0x37	; 55
    18d2:	b5 4c       	sbci	r27, 0xC5	; 197
    18d4:	4c 93       	st	X, r20
    18d6:	31 96       	adiw	r30, 0x01	; 1
                    iLED[WING[R][x]] = iLED[WING[R][x+1]];
    18d8:	e9 01       	movw	r28, r18
    18da:	a8 81       	ld	r26, Y
    18dc:	b0 e0       	ldi	r27, 0x00	; 0
    18de:	c0 81       	ld	r28, Z
    18e0:	d0 e0       	ldi	r29, 0x00	; 0
    18e2:	c7 53       	subi	r28, 0x37	; 55
    18e4:	d5 4c       	sbci	r29, 0xC5	; 197
    18e6:	28 81       	ld	r18, Y
    18e8:	a7 53       	subi	r26, 0x37	; 55
    18ea:	b5 4c       	sbci	r27, 0xC5	; 197
            break;

        //'falling rain'
        case 8:
            if ((LedCount & 1) == 0) {
                for (uint8_t x=0; x<4; ++x){
    18ec:	2c 93       	st	X, r18
    18ee:	8e 17       	cp	r24, r30
    18f0:	9f 07       	cpc	r25, r31
                    iLED[WING[L][x]] = iLED[WING[L][x+1]];
                    iLED[WING[R][x]] = iLED[WING[R][x+1]];
                }
                iLED[WING[L][4]] = (lfsr() > 224)?dimValue:0;
    18f2:	31 f7       	brne	.-52     	; 0x18c0 <GenerateBlinks+0x25c>
    18f4:	c0 91 b7 be 	lds	r28, 0xBEB7	; 0x80beb7 <__bss_end+0x839f>
    18f8:	d0 e0       	ldi	r29, 0x00	; 0
    18fa:	68 dc       	rcall	.-1840   	; 0x11cc <lfsr>
    18fc:	81 3e       	cpi	r24, 0xE1	; 225
    18fe:	18 f0       	brcs	.+6      	; 0x1906 <GenerateBlinks+0x2a2>
    1900:	80 91 0c 38 	lds	r24, 0x380C	; 0x80380c <dimValue>
    1904:	01 c0       	rjmp	.+2      	; 0x1908 <GenerateBlinks+0x2a4>
    1906:	80 e0       	ldi	r24, 0x00	; 0
    1908:	c7 53       	subi	r28, 0x37	; 55
    190a:	d5 4c       	sbci	r29, 0xC5	; 197
                iLED[WING[R][4]] = (lfsr() > 224)?dimValue:0;
    190c:	88 83       	st	Y, r24
    190e:	c0 91 b2 be 	lds	r28, 0xBEB2	; 0x80beb2 <__bss_end+0x839a>
    1912:	d0 e0       	ldi	r29, 0x00	; 0
    1914:	5b dc       	rcall	.-1866   	; 0x11cc <lfsr>
    1916:	81 3e       	cpi	r24, 0xE1	; 225
    1918:	18 f0       	brcs	.+6      	; 0x1920 <GenerateBlinks+0x2bc>
    191a:	80 91 0c 38 	lds	r24, 0x380C	; 0x80380c <dimValue>
    191e:	01 c0       	rjmp	.+2      	; 0x1922 <GenerateBlinks+0x2be>
    1920:	80 e0       	ldi	r24, 0x00	; 0
    1922:	c7 53       	subi	r28, 0x37	; 55
    1924:	d5 4c       	sbci	r29, 0xC5	; 197
    1926:	88 83       	st	Y, r24
        case 31:
        default:
            break;
            
    }
}
    1928:	cd b7       	in	r28, 0x3d	; 61
    192a:	de b7       	in	r29, 0x3e	; 62
    192c:	e8 e0       	ldi	r30, 0x08	; 8
    192e:	0c 94 31 1f 	jmp	0x3e62	; 0x3e62 <__epilogue_restores__+0x14>

00001932 <GenerateAudio>:


uint8_t GenerateAudio(){
    1932:	0f 93       	push	r16
    1934:	1f 93       	push	r17
    1936:	cf 93       	push	r28

    if (auIn < HPLVL) {
    1938:	80 91 c8 3a 	lds	r24, 0x3AC8	; 0x803ac8 <auIn>
    193c:	89 31       	cpi	r24, 0x19	; 25
    193e:	08 f0       	brcs	.+2      	; 0x1942 <GenerateAudio+0x10>
    1940:	81 c1       	rjmp	.+770    	; 0x1c44 <GenerateAudio+0x312>

        detHdPh = 1;
    1942:	c1 e0       	ldi	r28, 0x01	; 1
    1944:	c0 93 c5 3a 	sts	0x3AC5, r28	; 0x803ac5 <detHdPh>

        //Audio for text adventure
        if ((effect&0xff00)==0) {
    1948:	80 91 40 38 	lds	r24, 0x3840	; 0x803840 <effect>
    194c:	90 91 41 38 	lds	r25, 0x3841	; 0x803841 <effect+0x1>
    1950:	88 27       	eor	r24, r24
    1952:	89 2b       	or	r24, r25
    1954:	09 f0       	breq	.+2      	; 0x1958 <GenerateAudio+0x26>
    1956:	23 c1       	rjmp	.+582    	; 0x1b9e <GenerateAudio+0x26c>

            //Silence
            if ((effect&0xE0)==0){
    1958:	80 91 40 38 	lds	r24, 0x3840	; 0x803840 <effect>
    195c:	90 91 41 38 	lds	r25, 0x3841	; 0x803841 <effect+0x1>
    1960:	80 7e       	andi	r24, 0xE0	; 224
    1962:	99 27       	eor	r25, r25
    1964:	89 2b       	or	r24, r25
    1966:	31 f4       	brne	.+12     	; 0x1974 <GenerateAudio+0x42>
                auRepAddr = &zero;
    1968:	8f e3       	ldi	r24, 0x3F	; 63
    196a:	98 e3       	ldi	r25, 0x38	; 56
    196c:	80 93 03 38 	sts	0x3803, r24	; 0x803803 <auRepAddr>
    1970:	90 93 04 38 	sts	0x3804, r25	; 0x803804 <auRepAddr+0x1>
            }

            //Bad (buzzer)
            if ((effect&0xE0)==32){
    1974:	80 91 40 38 	lds	r24, 0x3840	; 0x803840 <effect>
    1978:	90 91 41 38 	lds	r25, 0x3841	; 0x803841 <effect+0x1>
    197c:	80 7e       	andi	r24, 0xE0	; 224
    197e:	99 27       	eor	r25, r25
    1980:	80 97       	sbiw	r24, 0x20	; 32
    1982:	09 f0       	breq	.+2      	; 0x1986 <GenerateAudio+0x54>
    1984:	4c c0       	rjmp	.+152    	; 0x1a1e <GenerateAudio+0xec>
                static uint8_t auBuffer[17] = {1, 255, 128, 128, 192, 255, 64, 255, 192, 128, 64, 1, 192, 1, 64, 128, 0}; 
                static uint8_t duration, start;
                floatSpeed(1, 0x2000, 0x2200);
    1986:	40 e0       	ldi	r20, 0x00	; 0
    1988:	52 e2       	ldi	r21, 0x22	; 34
    198a:	60 e0       	ldi	r22, 0x00	; 0
    198c:	70 e2       	ldi	r23, 0x20	; 32
    198e:	81 e0       	ldi	r24, 0x01	; 1
    1990:	3c dc       	rcall	.-1928   	; 0x120a <floatSpeed>
                auBuffer[2] = floatAround(0x80, 5, 0x01, 0x00);
    1992:	20 e0       	ldi	r18, 0x00	; 0
    1994:	41 e0       	ldi	r20, 0x01	; 1
    1996:	65 e0       	ldi	r22, 0x05	; 5
    1998:	80 e8       	ldi	r24, 0x80	; 128
    199a:	65 dc       	rcall	.-1846   	; 0x1266 <floatAround>
    199c:	80 93 19 38 	sts	0x3819, r24	; 0x803819 <auBuffer.4021+0x2>

                if (buttonMark){
    19a0:	80 91 48 38 	lds	r24, 0x3848	; 0x803848 <buttonMark>
    19a4:	88 23       	and	r24, r24
    19a6:	d9 f1       	breq	.+118    	; 0x1a1e <GenerateAudio+0xec>
                    if (start == 0) {
    19a8:	80 91 5e 38 	lds	r24, 0x385E	; 0x80385e <start.4023>
    19ac:	81 11       	cpse	r24, r1
    19ae:	0c c0       	rjmp	.+24     	; 0x19c8 <GenerateAudio+0x96>
                        duration = 4;
    19b0:	84 e0       	ldi	r24, 0x04	; 4
    19b2:	80 93 5d 38 	sts	0x385D, r24	; 0x80385d <duration.4022>
                        auRepAddr = &auBuffer[0];
    19b6:	87 e1       	ldi	r24, 0x17	; 23
    19b8:	98 e3       	ldi	r25, 0x38	; 56
    19ba:	80 93 03 38 	sts	0x3803, r24	; 0x803803 <auRepAddr>
    19be:	90 93 04 38 	sts	0x3804, r25	; 0x803804 <auRepAddr+0x1>
                        start = 1;
    19c2:	81 e0       	ldi	r24, 0x01	; 1
    19c4:	80 93 5e 38 	sts	0x385E, r24	; 0x80385e <start.4023>
                    }
                    
                    if ((auVolume)&&(duration == 0)) auVolume >>= 1; 
    19c8:	80 91 bc 3a 	lds	r24, 0x3ABC	; 0x803abc <auVolume>
    19cc:	88 23       	and	r24, r24
    19ce:	49 f0       	breq	.+18     	; 0x19e2 <GenerateAudio+0xb0>
    19d0:	80 91 5d 38 	lds	r24, 0x385D	; 0x80385d <duration.4022>
    19d4:	81 11       	cpse	r24, r1
    19d6:	05 c0       	rjmp	.+10     	; 0x19e2 <GenerateAudio+0xb0>
    19d8:	80 91 bc 3a 	lds	r24, 0x3ABC	; 0x803abc <auVolume>
    19dc:	86 95       	lsr	r24
    19de:	80 93 bc 3a 	sts	0x3ABC, r24	; 0x803abc <auVolume>

                    if (auVolume == 0){
    19e2:	80 91 bc 3a 	lds	r24, 0x3ABC	; 0x803abc <auVolume>
    19e6:	81 11       	cpse	r24, r1
    19e8:	13 c0       	rjmp	.+38     	; 0x1a10 <GenerateAudio+0xde>
                        start = 0;
    19ea:	10 92 5e 38 	sts	0x385E, r1	; 0x80385e <start.4023>
                        auRepAddr = &zero;
    19ee:	8f e3       	ldi	r24, 0x3F	; 63
    19f0:	98 e3       	ldi	r25, 0x38	; 56
    19f2:	80 93 03 38 	sts	0x3803, r24	; 0x803803 <auRepAddr>
    19f6:	90 93 04 38 	sts	0x3804, r25	; 0x803804 <auRepAddr+0x1>
                        effect &= 0x1f;
    19fa:	80 91 40 38 	lds	r24, 0x3840	; 0x803840 <effect>
    19fe:	90 91 41 38 	lds	r25, 0x3841	; 0x803841 <effect+0x1>
    1a02:	8f 71       	andi	r24, 0x1F	; 31
    1a04:	99 27       	eor	r25, r25
    1a06:	80 93 40 38 	sts	0x3840, r24	; 0x803840 <effect>
    1a0a:	90 93 41 38 	sts	0x3841, r25	; 0x803841 <effect+0x1>
    1a0e:	07 c0       	rjmp	.+14     	; 0x1a1e <GenerateAudio+0xec>
                    } else if (duration) --duration;
    1a10:	80 91 5d 38 	lds	r24, 0x385D	; 0x80385d <duration.4022>
    1a14:	88 23       	and	r24, r24
    1a16:	19 f0       	breq	.+6      	; 0x1a1e <GenerateAudio+0xec>
    1a18:	81 50       	subi	r24, 0x01	; 1
    1a1a:	80 93 5d 38 	sts	0x385D, r24	; 0x80385d <duration.4022>

                }
            }

            //Good (bell)
            if (((effect&0xE0)==64)||((effect&0xE0)==160)){
    1a1e:	80 91 40 38 	lds	r24, 0x3840	; 0x803840 <effect>
    1a22:	90 91 41 38 	lds	r25, 0x3841	; 0x803841 <effect+0x1>
    1a26:	80 7e       	andi	r24, 0xE0	; 224
    1a28:	99 27       	eor	r25, r25
    1a2a:	80 34       	cpi	r24, 0x40	; 64
    1a2c:	91 05       	cpc	r25, r1
    1a2e:	51 f0       	breq	.+20     	; 0x1a44 <GenerateAudio+0x112>
    1a30:	80 91 40 38 	lds	r24, 0x3840	; 0x803840 <effect>
    1a34:	90 91 41 38 	lds	r25, 0x3841	; 0x803841 <effect+0x1>
    1a38:	80 7e       	andi	r24, 0xE0	; 224
    1a3a:	99 27       	eor	r25, r25
    1a3c:	80 3a       	cpi	r24, 0xA0	; 160
    1a3e:	91 05       	cpc	r25, r1
    1a40:	09 f0       	breq	.+2      	; 0x1a44 <GenerateAudio+0x112>
    1a42:	44 c0       	rjmp	.+136    	; 0x1acc <GenerateAudio+0x19a>
                static uint8_t start, auBuffer[3] = {255, 1, 0};
                
                if (buttonMark){
    1a44:	80 91 48 38 	lds	r24, 0x3848	; 0x803848 <buttonMark>
    1a48:	88 23       	and	r24, r24
    1a4a:	09 f4       	brne	.+2      	; 0x1a4e <GenerateAudio+0x11c>
    1a4c:	3f c0       	rjmp	.+126    	; 0x1acc <GenerateAudio+0x19a>
                    if (start == 0) {
    1a4e:	80 91 5c 38 	lds	r24, 0x385C	; 0x80385c <start.4024>
    1a52:	81 11       	cpse	r24, r1
    1a54:	0f c0       	rjmp	.+30     	; 0x1a74 <GenerateAudio+0x142>
                        TCB1_CCMP = 0x0a00;
    1a56:	80 e0       	ldi	r24, 0x00	; 0
    1a58:	9a e0       	ldi	r25, 0x0A	; 10
    1a5a:	80 93 5c 0a 	sts	0x0A5C, r24	; 0x800a5c <__TEXT_REGION_LENGTH__+0x700a5c>
    1a5e:	90 93 5d 0a 	sts	0x0A5D, r25	; 0x800a5d <__TEXT_REGION_LENGTH__+0x700a5d>
                        auRepAddr = &auBuffer[0];
    1a62:	84 e1       	ldi	r24, 0x14	; 20
    1a64:	98 e3       	ldi	r25, 0x38	; 56
    1a66:	80 93 03 38 	sts	0x3803, r24	; 0x803803 <auRepAddr>
    1a6a:	90 93 04 38 	sts	0x3804, r25	; 0x803804 <auRepAddr+0x1>
                        start = 1;
    1a6e:	81 e0       	ldi	r24, 0x01	; 1
    1a70:	80 93 5c 38 	sts	0x385C, r24	; 0x80385c <start.4024>
                    }
                     
                    TCB1_CCMP -= (0x080<<((uint8_t)(effect>64)?2:0));                    
    1a74:	80 91 40 38 	lds	r24, 0x3840	; 0x803840 <effect>
    1a78:	90 91 41 38 	lds	r25, 0x3841	; 0x803841 <effect+0x1>
    1a7c:	81 34       	cpi	r24, 0x41	; 65
    1a7e:	91 05       	cpc	r25, r1
    1a80:	18 f4       	brcc	.+6      	; 0x1a88 <GenerateAudio+0x156>
    1a82:	20 e8       	ldi	r18, 0x80	; 128
    1a84:	30 e0       	ldi	r19, 0x00	; 0
    1a86:	02 c0       	rjmp	.+4      	; 0x1a8c <GenerateAudio+0x15a>
    1a88:	20 e0       	ldi	r18, 0x00	; 0
    1a8a:	32 e0       	ldi	r19, 0x02	; 2
    1a8c:	80 91 5c 0a 	lds	r24, 0x0A5C	; 0x800a5c <__TEXT_REGION_LENGTH__+0x700a5c>
    1a90:	90 91 5d 0a 	lds	r25, 0x0A5D	; 0x800a5d <__TEXT_REGION_LENGTH__+0x700a5d>
    1a94:	82 1b       	sub	r24, r18
    1a96:	93 0b       	sbc	r25, r19
    1a98:	80 93 5c 0a 	sts	0x0A5C, r24	; 0x800a5c <__TEXT_REGION_LENGTH__+0x700a5c>
    1a9c:	90 93 5d 0a 	sts	0x0A5D, r25	; 0x800a5d <__TEXT_REGION_LENGTH__+0x700a5d>
                    if (auVolume > 32) auVolume -=32; else 
    1aa0:	80 91 bc 3a 	lds	r24, 0x3ABC	; 0x803abc <auVolume>
    1aa4:	81 32       	cpi	r24, 0x21	; 33
    1aa6:	30 f0       	brcs	.+12     	; 0x1ab4 <GenerateAudio+0x182>
    1aa8:	80 91 bc 3a 	lds	r24, 0x3ABC	; 0x803abc <auVolume>
    1aac:	80 52       	subi	r24, 0x20	; 32
    1aae:	80 93 bc 3a 	sts	0x3ABC, r24	; 0x803abc <auVolume>
    1ab2:	0c c0       	rjmp	.+24     	; 0x1acc <GenerateAudio+0x19a>
                    {
                        start = 0;
    1ab4:	10 92 5c 38 	sts	0x385C, r1	; 0x80385c <start.4024>
                        auRepAddr = &zero;
    1ab8:	8f e3       	ldi	r24, 0x3F	; 63
    1aba:	98 e3       	ldi	r25, 0x38	; 56
    1abc:	80 93 03 38 	sts	0x3803, r24	; 0x803803 <auRepAddr>
    1ac0:	90 93 04 38 	sts	0x3804, r25	; 0x803804 <auRepAddr+0x1>
                        effect = 0;
    1ac4:	10 92 40 38 	sts	0x3840, r1	; 0x803840 <effect>
    1ac8:	10 92 41 38 	sts	0x3841, r1	; 0x803841 <effect+0x1>
                    }
                }
            }

            //Rain storm with whistling wind
            if ((effect&0xE0)==96){
    1acc:	80 91 40 38 	lds	r24, 0x3840	; 0x803840 <effect>
    1ad0:	90 91 41 38 	lds	r25, 0x3841	; 0x803841 <effect+0x1>
    1ad4:	80 7e       	andi	r24, 0xE0	; 224
    1ad6:	99 27       	eor	r25, r25
    1ad8:	80 36       	cpi	r24, 0x60	; 96
    1ada:	91 05       	cpc	r25, r1
    1adc:	a9 f5       	brne	.+106    	; 0x1b48 <GenerateAudio+0x216>
                static uint8_t auBuffer[7];
                auBuffer[6]= 0;        
    1ade:	10 92 5b 38 	sts	0x385B, r1	; 0x80385b <auBuffer.4026+0x6>
                auRepAddr = &auBuffer[0];
    1ae2:	85 e5       	ldi	r24, 0x55	; 85
    1ae4:	98 e3       	ldi	r25, 0x38	; 56
    1ae6:	80 93 03 38 	sts	0x3803, r24	; 0x803803 <auRepAddr>
    1aea:	90 93 04 38 	sts	0x3804, r25	; 0x803804 <auRepAddr+0x1>
    1aee:	8c 01       	movw	r16, r24

                //Noise is to be generated fast, outside of buttonMark loop
                for (uint8_t x=1; x<6; ++x){
    1af0:	c1 e0       	ldi	r28, 0x01	; 1
                    if ((x>0) && (x!=3)) auBuffer[x] = floatAround(0x80, 5, 0x01, 0x00);
    1af2:	c3 30       	cpi	r28, 0x03	; 3
    1af4:	39 f0       	breq	.+14     	; 0x1b04 <GenerateAudio+0x1d2>
    1af6:	20 e0       	ldi	r18, 0x00	; 0
    1af8:	41 e0       	ldi	r20, 0x01	; 1
    1afa:	65 e0       	ldi	r22, 0x05	; 5
    1afc:	80 e8       	ldi	r24, 0x80	; 128
    1afe:	b3 db       	rcall	.-2202   	; 0x1266 <floatAround>
    1b00:	f8 01       	movw	r30, r16
    1b02:	81 83       	std	Z+1, r24	; 0x01
                static uint8_t auBuffer[7];
                auBuffer[6]= 0;        
                auRepAddr = &auBuffer[0];

                //Noise is to be generated fast, outside of buttonMark loop
                for (uint8_t x=1; x<6; ++x){
    1b04:	cf 5f       	subi	r28, 0xFF	; 255
    1b06:	0f 5f       	subi	r16, 0xFF	; 255
    1b08:	1f 4f       	sbci	r17, 0xFF	; 255
    1b0a:	c6 30       	cpi	r28, 0x06	; 6
    1b0c:	91 f7       	brne	.-28     	; 0x1af2 <GenerateAudio+0x1c0>
                    if ((x>0) && (x!=3)) auBuffer[x] = floatAround(0x80, 5, 0x01, 0x00);
                }

                if (buttonMark){
    1b0e:	80 91 48 38 	lds	r24, 0x3848	; 0x803848 <buttonMark>
    1b12:	88 23       	and	r24, r24
    1b14:	c9 f0       	breq	.+50     	; 0x1b48 <GenerateAudio+0x216>
                    //"Floating" speed for howl (and noise, but that's hardly audible)
                    floatSpeed(5, 0x0280, 0x0400);
    1b16:	40 e0       	ldi	r20, 0x00	; 0
    1b18:	54 e0       	ldi	r21, 0x04	; 4
    1b1a:	60 e8       	ldi	r22, 0x80	; 128
    1b1c:	72 e0       	ldi	r23, 0x02	; 2
    1b1e:	85 e0       	ldi	r24, 0x05	; 5
    1b20:	74 db       	rcall	.-2328   	; 0x120a <floatSpeed>
            
                    //"Floating" volume and wind howl during 8 bit rainstorm needs some randomness
                    auVolume = floatAround(auVolume, 2, 0x10, 0xA0);
    1b22:	80 91 bc 3a 	lds	r24, 0x3ABC	; 0x803abc <auVolume>
    1b26:	20 ea       	ldi	r18, 0xA0	; 160
    1b28:	40 e1       	ldi	r20, 0x10	; 16
    1b2a:	62 e0       	ldi	r22, 0x02	; 2
    1b2c:	9c db       	rcall	.-2248   	; 0x1266 <floatAround>
    1b2e:	80 93 bc 3a 	sts	0x3ABC, r24	; 0x803abc <auVolume>
                    auBuffer[0] = floatAround(auBuffer[0], 2, 0x70, 0x90);
    1b32:	20 e9       	ldi	r18, 0x90	; 144
    1b34:	40 e7       	ldi	r20, 0x70	; 112
    1b36:	62 e0       	ldi	r22, 0x02	; 2
    1b38:	80 91 55 38 	lds	r24, 0x3855	; 0x803855 <auBuffer.4026>
    1b3c:	94 db       	rcall	.-2264   	; 0x1266 <floatAround>
    1b3e:	80 93 55 38 	sts	0x3855, r24	; 0x803855 <auBuffer.4026>
                    auBuffer[3] = 0xFF-auBuffer[0];  //Inverse value of wind[0] produces a whistle
    1b42:	80 95       	com	r24
    1b44:	80 93 58 38 	sts	0x3858, r24	; 0x803858 <auBuffer.4026+0x3>
                }
            }

            //Footsteps
            if ((effect&0xE0)==128){
    1b48:	80 91 40 38 	lds	r24, 0x3840	; 0x803840 <effect>
    1b4c:	90 91 41 38 	lds	r25, 0x3841	; 0x803841 <effect+0x1>

            }

            //Bleeps
            if ((effect&0xE0)==160){
    1b50:	80 91 40 38 	lds	r24, 0x3840	; 0x803840 <effect>
    1b54:	90 91 41 38 	lds	r25, 0x3841	; 0x803841 <effect+0x1>
    1b58:	80 7e       	andi	r24, 0xE0	; 224
    1b5a:	99 27       	eor	r25, r25
    1b5c:	80 3a       	cpi	r24, 0xA0	; 160
    1b5e:	91 05       	cpc	r25, r1
    1b60:	c9 f4       	brne	.+50     	; 0x1b94 <GenerateAudio+0x262>
                static uint8_t auBuffer[3] = {255, 1, 0};
                auRepAddr = &auBuffer[0];
    1b62:	81 e1       	ldi	r24, 0x11	; 17
    1b64:	98 e3       	ldi	r25, 0x38	; 56
    1b66:	80 93 03 38 	sts	0x3803, r24	; 0x803803 <auRepAddr>
    1b6a:	90 93 04 38 	sts	0x3804, r25	; 0x803804 <auRepAddr+0x1>
                if (buttonMark){
    1b6e:	80 91 48 38 	lds	r24, 0x3848	; 0x803848 <buttonMark>
    1b72:	88 23       	and	r24, r24
                    floatSpeed(6, 0x0500, 0x0fff);
    1b74:	79 f0       	breq	.+30     	; 0x1b94 <GenerateAudio+0x262>
    1b76:	4f ef       	ldi	r20, 0xFF	; 255
    1b78:	5f e0       	ldi	r21, 0x0F	; 15
    1b7a:	60 e0       	ldi	r22, 0x00	; 0
    1b7c:	75 e0       	ldi	r23, 0x05	; 5
    1b7e:	86 e0       	ldi	r24, 0x06	; 6
    1b80:	44 db       	rcall	.-2424   	; 0x120a <floatSpeed>
                    if (auVolume) --auVolume;
    1b82:	80 91 bc 3a 	lds	r24, 0x3ABC	; 0x803abc <auVolume>
    1b86:	88 23       	and	r24, r24
    1b88:	29 f0       	breq	.+10     	; 0x1b94 <GenerateAudio+0x262>
    1b8a:	80 91 bc 3a 	lds	r24, 0x3ABC	; 0x803abc <auVolume>
    1b8e:	81 50       	subi	r24, 0x01	; 1
    1b90:	80 93 bc 3a 	sts	0x3ABC, r24	; 0x803abc <auVolume>
                }
            }

            //
            if ((effect&0xE0)==192){
    1b94:	80 91 40 38 	lds	r24, 0x3840	; 0x803840 <effect>
    1b98:	90 91 41 38 	lds	r25, 0x3841	; 0x803841 <effect+0x1>
    1b9c:	55 c0       	rjmp	.+170    	; 0x1c48 <GenerateAudio+0x316>
            }

            //
            else {
            }
        } else if ((effect&0xff00)==0x0100) {
    1b9e:	80 91 40 38 	lds	r24, 0x3840	; 0x803840 <effect>
    1ba2:	90 91 41 38 	lds	r25, 0x3841	; 0x803841 <effect+0x1>
    1ba6:	88 27       	eor	r24, r24
    1ba8:	81 15       	cp	r24, r1
    1baa:	91 40       	sbci	r25, 0x01	; 1
    1bac:	09 f0       	breq	.+2      	; 0x1bb0 <GenerateAudio+0x27e>
    1bae:	4c c0       	rjmp	.+152    	; 0x1c48 <GenerateAudio+0x316>
            if ((effect&0xE0) <= 0x90) {
    1bb0:	80 91 40 38 	lds	r24, 0x3840	; 0x803840 <effect>
    1bb4:	90 91 41 38 	lds	r25, 0x3841	; 0x803841 <effect+0x1>
    1bb8:	80 7e       	andi	r24, 0xE0	; 224
    1bba:	99 27       	eor	r25, r25
    1bbc:	81 39       	cpi	r24, 0x91	; 145
    1bbe:	91 05       	cpc	r25, r1
    1bc0:	08 f0       	brcs	.+2      	; 0x1bc4 <GenerateAudio+0x292>
    1bc2:	42 c0       	rjmp	.+132    	; 0x1c48 <GenerateAudio+0x316>
                
                static uint8_t auBuffer[3] = {255, 1, 0};
                static uint8_t duration, start;
                uint16_t freq = ((effect&0xE0)+1)<<6;
    1bc4:	60 91 40 38 	lds	r22, 0x3840	; 0x803840 <effect>
    1bc8:	70 91 41 38 	lds	r23, 0x3841	; 0x803841 <effect+0x1>
    1bcc:	60 7e       	andi	r22, 0xE0	; 224
    1bce:	77 27       	eor	r23, r23
    1bd0:	6f 5f       	subi	r22, 0xFF	; 255
    1bd2:	7f 4f       	sbci	r23, 0xFF	; 255
    1bd4:	86 e0       	ldi	r24, 0x06	; 6
    1bd6:	66 0f       	add	r22, r22
    1bd8:	77 1f       	adc	r23, r23
    1bda:	8a 95       	dec	r24
                floatSpeed(1, freq+0x0200, freq+0x0300);
    1bdc:	e1 f7       	brne	.-8      	; 0x1bd6 <GenerateAudio+0x2a4>
    1bde:	ab 01       	movw	r20, r22
    1be0:	5d 5f       	subi	r21, 0xFD	; 253
    1be2:	7e 5f       	subi	r23, 0xFE	; 254
    1be4:	81 e0       	ldi	r24, 0x01	; 1
    1be6:	11 db       	rcall	.-2526   	; 0x120a <floatSpeed>
                //auBuffer[] = floatAround(0x80, 5, 0x01, 0x00);

                if (buttonMark) {
    1be8:	80 91 48 38 	lds	r24, 0x3848	; 0x803848 <buttonMark>
    1bec:	88 23       	and	r24, r24
    1bee:	61 f1       	breq	.+88     	; 0x1c48 <GenerateAudio+0x316>
                    if (start == 0) {
    1bf0:	80 91 54 38 	lds	r24, 0x3854	; 0x803854 <start.4034>
    1bf4:	81 11       	cpse	r24, r1
    1bf6:	0b c0       	rjmp	.+22     	; 0x1c0e <GenerateAudio+0x2dc>
                        duration = 3;
    1bf8:	83 e0       	ldi	r24, 0x03	; 3
    1bfa:	80 93 53 38 	sts	0x3853, r24	; 0x803853 <duration.4033>
                        auRepAddr = &auBuffer[0];
    1bfe:	8e e0       	ldi	r24, 0x0E	; 14
    1c00:	98 e3       	ldi	r25, 0x38	; 56
    1c02:	80 93 03 38 	sts	0x3803, r24	; 0x803803 <auRepAddr>
    1c06:	90 93 04 38 	sts	0x3804, r25	; 0x803804 <auRepAddr+0x1>
                        start = 1;
    1c0a:	c0 93 54 38 	sts	0x3854, r28	; 0x803854 <start.4034>
                    }   if (duration == 0) {
    1c0e:	80 91 53 38 	lds	r24, 0x3853	; 0x803853 <duration.4033>
    1c12:	81 11       	cpse	r24, r1
    1c14:	13 c0       	rjmp	.+38     	; 0x1c3c <GenerateAudio+0x30a>
                        effect &= 0x1f;
    1c16:	80 91 40 38 	lds	r24, 0x3840	; 0x803840 <effect>
    1c1a:	90 91 41 38 	lds	r25, 0x3841	; 0x803841 <effect+0x1>
    1c1e:	8f 71       	andi	r24, 0x1F	; 31
    1c20:	99 27       	eor	r25, r25
    1c22:	80 93 40 38 	sts	0x3840, r24	; 0x803840 <effect>
    1c26:	90 93 41 38 	sts	0x3841, r25	; 0x803841 <effect+0x1>
                        auRepAddr = &zero;
    1c2a:	8f e3       	ldi	r24, 0x3F	; 63
    1c2c:	98 e3       	ldi	r25, 0x38	; 56
    1c2e:	80 93 03 38 	sts	0x3803, r24	; 0x803803 <auRepAddr>
    1c32:	90 93 04 38 	sts	0x3804, r25	; 0x803804 <auRepAddr+0x1>
                        start = 0;
    1c36:	10 92 54 38 	sts	0x3854, r1	; 0x803854 <start.4034>
    1c3a:	06 c0       	rjmp	.+12     	; 0x1c48 <GenerateAudio+0x316>
                    } else --duration;
    1c3c:	81 50       	subi	r24, 0x01	; 1
    1c3e:	80 93 53 38 	sts	0x3853, r24	; 0x803853 <duration.4033>
    1c42:	02 c0       	rjmp	.+4      	; 0x1c48 <GenerateAudio+0x316>
                }
            }
        }
    } else {
        detHdPh = 0;
    1c44:	10 92 c5 3a 	sts	0x3AC5, r1	; 0x803ac5 <detHdPh>
    }
    return buttonMark;
    1c48:	80 91 48 38 	lds	r24, 0x3848	; 0x803848 <buttonMark>
}
    1c4c:	cf 91       	pop	r28
    1c4e:	1f 91       	pop	r17
    1c50:	0f 91       	pop	r16
    1c52:	08 95       	ret

00001c54 <getClock>:

uint16_t getClock() {
    uint16_t tmp = RTC_CNT;
    1c54:	80 91 48 01 	lds	r24, 0x0148	; 0x800148 <__TEXT_REGION_LENGTH__+0x700148>
    1c58:	90 91 49 01 	lds	r25, 0x0149	; 0x800149 <__TEXT_REGION_LENGTH__+0x700149>
    return 60 * minuteMark + (tmp>>9);
    1c5c:	20 91 49 38 	lds	r18, 0x3849	; 0x803849 <minuteMark>
    1c60:	89 2f       	mov	r24, r25
    1c62:	99 27       	eor	r25, r25
    1c64:	86 95       	lsr	r24
}
    1c66:	3c e3       	ldi	r19, 0x3C	; 60
    1c68:	23 9f       	mul	r18, r19
    1c6a:	80 0d       	add	r24, r0
    1c6c:	91 1d       	adc	r25, r1
    1c6e:	11 24       	eor	r1, r1
    1c70:	08 95       	ret

00001c72 <idleTimeout>:

uint8_t idleTimeout(uint16_t lastActive, uint16_t maxIdle) {
    1c72:	0f 93       	push	r16
    1c74:	1f 93       	push	r17
    1c76:	cf 93       	push	r28
    1c78:	df 93       	push	r29
    1c7a:	8c 01       	movw	r16, r24
    1c7c:	eb 01       	movw	r28, r22
    uint16_t curClock;

    curClock = getClock();
    1c7e:	ea df       	rcall	.-44     	; 0x1c54 <getClock>
    1c80:	9c 01       	movw	r18, r24
    if (curClock < lastActive)
    1c82:	80 17       	cp	r24, r16
    1c84:	91 07       	cpc	r25, r17
    1c86:	08 f4       	brcc	.+2      	; 0x1c8a <idleTimeout+0x18>
        curClock += 256 * 60;
    1c88:	34 5c       	subi	r19, 0xC4	; 196

    return (curClock > (lastActive + maxIdle));
    1c8a:	c0 0f       	add	r28, r16
    1c8c:	d1 1f       	adc	r29, r17
    1c8e:	81 e0       	ldi	r24, 0x01	; 1
    1c90:	c2 17       	cp	r28, r18
    1c92:	d3 07       	cpc	r29, r19
    1c94:	08 f0       	brcs	.+2      	; 0x1c98 <idleTimeout+0x26>
    1c96:	80 e0       	ldi	r24, 0x00	; 0
}
    1c98:	df 91       	pop	r29
    1c9a:	cf 91       	pop	r28
    1c9c:	1f 91       	pop	r17
    1c9e:	0f 91       	pop	r16
    1ca0:	08 95       	ret

00001ca2 <SelfTest>:

uint8_t SelfTest(){
    1ca2:	a4 e0       	ldi	r26, 0x04	; 4
    1ca4:	b0 e0       	ldi	r27, 0x00	; 0
    1ca6:	e7 e5       	ldi	r30, 0x57	; 87
    1ca8:	fe e0       	ldi	r31, 0x0E	; 14
    1caa:	0c 94 1d 1f 	jmp	0x3e3a	; 0x3e3a <__prologue_saves__+0x1e>
    uint8_t tstVal[4] = {0x01, 0};
    1cae:	19 82       	std	Y+1, r1	; 0x01
    1cb0:	1a 82       	std	Y+2, r1	; 0x02
    1cb2:	1b 82       	std	Y+3, r1	; 0x03
    1cb4:	1c 82       	std	Y+4, r1	; 0x04
    1cb6:	ac eb       	ldi	r26, 0xBC	; 188
    1cb8:	be eb       	ldi	r27, 0xBE	; 190
    1cba:	82 ec       	ldi	r24, 0xC2	; 194
    1cbc:	9e eb       	ldi	r25, 0xBE	; 190

    //Red HCKR all on 100%
    for (uint8_t x=0; x<6; ++x) {
        iLED[HCKR[R][x]] = 0xff;
    1cbe:	2f ef       	ldi	r18, 0xFF	; 255
    1cc0:	ed 91       	ld	r30, X+
    1cc2:	f0 e0       	ldi	r31, 0x00	; 0
    1cc4:	e7 53       	subi	r30, 0x37	; 55
    1cc6:	f5 4c       	sbci	r31, 0xC5	; 197
    1cc8:	20 83       	st	Z, r18

uint8_t SelfTest(){
    uint8_t tstVal[4] = {0x01, 0};

    //Red HCKR all on 100%
    for (uint8_t x=0; x<6; ++x) {
    1cca:	8a 17       	cp	r24, r26
    1ccc:	9b 07       	cpc	r25, r27
    1cce:	c1 f7       	brne	.-16     	; 0x1cc0 <SelfTest+0x1e>
        iLED[HCKR[R][x]] = 0xff;
    }

    //Light sensor
    tstVal[0] = adcPhot&0xff;
    1cd0:	80 91 c3 3a 	lds	r24, 0x3AC3	; 0x803ac3 <adcPhot>
    1cd4:	90 91 c4 3a 	lds	r25, 0x3AC4	; 0x803ac4 <adcPhot+0x1>
    1cd8:	89 83       	std	Y+1, r24	; 0x01
    while (tstVal[0] == (adcPhot&0xff)) ;
    1cda:	99 27       	eor	r25, r25
    1cdc:	20 91 c3 3a 	lds	r18, 0x3AC3	; 0x803ac3 <adcPhot>
    1ce0:	30 91 c4 3a 	lds	r19, 0x3AC4	; 0x803ac4 <adcPhot+0x1>
    1ce4:	33 27       	eor	r19, r19
    1ce6:	28 17       	cp	r18, r24
    1ce8:	39 07       	cpc	r19, r25
    1cea:	c1 f3       	breq	.-16     	; 0x1cdc <SelfTest+0x3a>
    iLED[HCKR[R][1]] = 0x00;
    1cec:	e0 91 bd be 	lds	r30, 0xBEBD	; 0x80bebd <__bss_end+0x83a5>
    1cf0:	f0 e0       	ldi	r31, 0x00	; 0
    1cf2:	e7 53       	subi	r30, 0x37	; 55
    1cf4:	f5 4c       	sbci	r31, 0xC5	; 197
    1cf6:	10 82       	st	Z, r1

    //Buttons (none pressed / shorted)
    while ((adcBtns>>4) < 200) ;
    1cf8:	80 91 bd 3a 	lds	r24, 0x3ABD	; 0x803abd <adcBtns>
    1cfc:	90 91 be 3a 	lds	r25, 0x3ABE	; 0x803abe <adcBtns+0x1>
    1d00:	80 38       	cpi	r24, 0x80	; 128
    1d02:	9c 40       	sbci	r25, 0x0C	; 12
    1d04:	c8 f3       	brcs	.-14     	; 0x1cf8 <SelfTest+0x56>
    iLED[HCKR[R][4]] = 0x00;
    1d06:	e0 91 c0 be 	lds	r30, 0xBEC0	; 0x80bec0 <__bss_end+0x83a8>
    1d0a:	f0 e0       	ldi	r31, 0x00	; 0
    1d0c:	e7 53       	subi	r30, 0x37	; 55
    1d0e:	f5 4c       	sbci	r31, 0xC5	; 197
    1d10:	10 82       	st	Z, r1
    
    ExtEERead(0x3CCC, 4, 0, (uint8_t *)&tstVal[0]);
    1d12:	9e 01       	movw	r18, r28
    1d14:	2f 5f       	subi	r18, 0xFF	; 255
    1d16:	3f 4f       	sbci	r19, 0xFF	; 255
    1d18:	40 e0       	ldi	r20, 0x00	; 0
    1d1a:	64 e0       	ldi	r22, 0x04	; 4
    1d1c:	8c ec       	ldi	r24, 0xCC	; 204
    1d1e:	9c e3       	ldi	r25, 0x3C	; 60
    1d20:	c5 d9       	rcall	.-3190   	; 0x10ac <ExtEERead>
    if ((tstVal[0] != 63) || (tstVal[1] != 0) || (tstVal[2] != 192) || (tstVal[3] != 20)){
    1d22:	89 81       	ldd	r24, Y+1	; 0x01
    1d24:	8f 33       	cpi	r24, 0x3F	; 63
    1d26:	49 f4       	brne	.+18     	; 0x1d3a <SelfTest+0x98>
    1d28:	8a 81       	ldd	r24, Y+2	; 0x02
    1d2a:	81 11       	cpse	r24, r1
    1d2c:	06 c0       	rjmp	.+12     	; 0x1d3a <SelfTest+0x98>
    1d2e:	8b 81       	ldd	r24, Y+3	; 0x03
    1d30:	80 3c       	cpi	r24, 0xC0	; 192
    1d32:	19 f4       	brne	.+6      	; 0x1d3a <SelfTest+0x98>
    1d34:	8c 81       	ldd	r24, Y+4	; 0x04
    1d36:	84 31       	cpi	r24, 0x14	; 20
    1d38:	09 f0       	breq	.+2      	; 0x1d3c <SelfTest+0x9a>
    1d3a:	ff cf       	rjmp	.-2      	; 0x1d3a <SelfTest+0x98>
    1d3c:	80 e0       	ldi	r24, 0x00	; 0
    1d3e:	90 e0       	ldi	r25, 0x00	; 0
        while(1);
    }
    
    //All LEDs off
    for (uint8_t x=0; x<40; ++x) {
        iLED[x]=0;
    1d40:	fc 01       	movw	r30, r24
    1d42:	e7 53       	subi	r30, 0x37	; 55
    1d44:	f5 4c       	sbci	r31, 0xC5	; 197
    1d46:	10 82       	st	Z, r1
    1d48:	01 96       	adiw	r24, 0x01	; 1
    if ((tstVal[0] != 63) || (tstVal[1] != 0) || (tstVal[2] != 192) || (tstVal[3] != 20)){
        while(1);
    }
    
    //All LEDs off
    for (uint8_t x=0; x<40; ++x) {
    1d4a:	88 32       	cpi	r24, 0x28	; 40
    1d4c:	91 05       	cpc	r25, r1
    1d4e:	c1 f7       	brne	.-16     	; 0x1d40 <SelfTest+0x9e>
    1d50:	10 e0       	ldi	r17, 0x00	; 0
        iLED[x]=0;
    }

    for(uint8_t x=0; x<(adcPhot&0x3f); ++x) lfsr();
    1d52:	80 91 c3 3a 	lds	r24, 0x3AC3	; 0x803ac3 <adcPhot>
    1d56:	90 91 c4 3a 	lds	r25, 0x3AC4	; 0x803ac4 <adcPhot+0x1>
    1d5a:	21 2f       	mov	r18, r17
    1d5c:	30 e0       	ldi	r19, 0x00	; 0
    1d5e:	8f 73       	andi	r24, 0x3F	; 63
    1d60:	99 27       	eor	r25, r25
    1d62:	28 17       	cp	r18, r24
    1d64:	39 07       	cpc	r19, r25
    1d66:	18 f4       	brcc	.+6      	; 0x1d6e <SelfTest+0xcc>
    1d68:	31 da       	rcall	.-2974   	; 0x11cc <lfsr>
    1d6a:	1f 5f       	subi	r17, 0xFF	; 255
    1d6c:	f2 cf       	rjmp	.-28     	; 0x1d52 <SelfTest+0xb0>

    return 0;
}
    1d6e:	80 e0       	ldi	r24, 0x00	; 0
    1d70:	24 96       	adiw	r28, 0x04	; 4
    1d72:	e3 e0       	ldi	r30, 0x03	; 3
    1d74:	0c 94 36 1f 	jmp	0x3e6c	; 0x3e6c <__epilogue_restores__+0x1e>

00001d78 <simonLed>:

/**
 * Set the wing LED blocks to selected option
 * @param val
 */
void simonLed(uint8_t val) {
    1d78:	cf 93       	push	r28
    1d7a:	df 93       	push	r29
    1d7c:	ee ea       	ldi	r30, 0xAE	; 174
    1d7e:	fe eb       	ldi	r31, 0xBE	; 190
    1d80:	ef 01       	movw	r28, r30
    for (uint8_t n = 0; n < 5; n++) {
        iLED[WING[L][n]] = 0;
    1d82:	a5 81       	ldd	r26, Z+5	; 0x05
    1d84:	b0 e0       	ldi	r27, 0x00	; 0
    1d86:	a7 53       	subi	r26, 0x37	; 55
    1d88:	b5 4c       	sbci	r27, 0xC5	; 197
    1d8a:	1c 92       	st	X, r1
    1d8c:	31 96       	adiw	r30, 0x01	; 1
        iLED[WING[R][n]] = 0;
    1d8e:	a8 81       	ld	r26, Y
    1d90:	b0 e0       	ldi	r27, 0x00	; 0
    1d92:	a7 53       	subi	r26, 0x37	; 55
    1d94:	b5 4c       	sbci	r27, 0xC5	; 197
    1d96:	1c 92       	st	X, r1
/**
 * Set the wing LED blocks to selected option
 * @param val
 */
void simonLed(uint8_t val) {
    for (uint8_t n = 0; n < 5; n++) {
    1d98:	9e eb       	ldi	r25, 0xBE	; 190
    1d9a:	e3 3b       	cpi	r30, 0xB3	; 179
    1d9c:	f9 07       	cpc	r31, r25
    1d9e:	81 f7       	brne	.-32     	; 0x1d80 <simonLed+0x8>
        iLED[WING[L][n]] = 0;
        iLED[WING[R][n]] = 0;
    }
    if (val == 3) {         // II
    1da0:	83 30       	cpi	r24, 0x03	; 3
    1da2:	d9 f4       	brne	.+54     	; 0x1dda <simonLed+0x62>
        iLED[WING[L][0]] = dimValue;
    1da4:	e0 91 b3 be 	lds	r30, 0xBEB3	; 0x80beb3 <__bss_end+0x839b>
    1da8:	f0 e0       	ldi	r31, 0x00	; 0
    1daa:	80 91 0c 38 	lds	r24, 0x380C	; 0x80380c <dimValue>
    1dae:	e7 53       	subi	r30, 0x37	; 55
    1db0:	f5 4c       	sbci	r31, 0xC5	; 197
    1db2:	80 83       	st	Z, r24
        iLED[WING[L][1]] = dimValue;
    1db4:	e0 91 b4 be 	lds	r30, 0xBEB4	; 0x80beb4 <__bss_end+0x839c>
    1db8:	f0 e0       	ldi	r31, 0x00	; 0
    1dba:	80 91 0c 38 	lds	r24, 0x380C	; 0x80380c <dimValue>
    1dbe:	e7 53       	subi	r30, 0x37	; 55
    1dc0:	f5 4c       	sbci	r31, 0xC5	; 197
    1dc2:	80 83       	st	Z, r24
        iLED[WING[L][2]] = dimValue;
    1dc4:	e0 91 b5 be 	lds	r30, 0xBEB5	; 0x80beb5 <__bss_end+0x839d>
    1dc8:	f0 e0       	ldi	r31, 0x00	; 0
    1dca:	80 91 0c 38 	lds	r24, 0x380C	; 0x80380c <dimValue>
    1dce:	e7 53       	subi	r30, 0x37	; 55
    1dd0:	f5 4c       	sbci	r31, 0xC5	; 197
    1dd2:	80 83       	st	Z, r24
        effect = 0x013f;
    1dd4:	8f e3       	ldi	r24, 0x3F	; 63
    1dd6:	91 e0       	ldi	r25, 0x01	; 1
    1dd8:	46 c0       	rjmp	.+140    	; 0x1e66 <simonLed+0xee>
    } else if (val == 1) {  //
    1dda:	81 30       	cpi	r24, 0x01	; 1
    1ddc:	99 f4       	brne	.+38     	; 0x1e04 <simonLed+0x8c>
        iLED[WING[L][3]] = dimValue;
    1dde:	e0 91 b6 be 	lds	r30, 0xBEB6	; 0x80beb6 <__bss_end+0x839e>
    1de2:	f0 e0       	ldi	r31, 0x00	; 0
    1de4:	80 91 0c 38 	lds	r24, 0x380C	; 0x80380c <dimValue>
    1de8:	e7 53       	subi	r30, 0x37	; 55
    1dea:	f5 4c       	sbci	r31, 0xC5	; 197
    1dec:	80 83       	st	Z, r24
        iLED[WING[L][4]] = dimValue;
    1dee:	e0 91 b7 be 	lds	r30, 0xBEB7	; 0x80beb7 <__bss_end+0x839f>
    1df2:	f0 e0       	ldi	r31, 0x00	; 0
    1df4:	80 91 0c 38 	lds	r24, 0x380C	; 0x80380c <dimValue>
    1df8:	e7 53       	subi	r30, 0x37	; 55
    1dfa:	f5 4c       	sbci	r31, 0xC5	; 197
    1dfc:	80 83       	st	Z, r24
        effect = 0x015f;
    1dfe:	8f e5       	ldi	r24, 0x5F	; 95
    1e00:	91 e0       	ldi	r25, 0x01	; 1
    1e02:	31 c0       	rjmp	.+98     	; 0x1e66 <simonLed+0xee>
    } else if (val == 4) {  // III
    1e04:	84 30       	cpi	r24, 0x04	; 4
    1e06:	d9 f4       	brne	.+54     	; 0x1e3e <simonLed+0xc6>
        iLED[WING[R][0]] = dimValue;
    1e08:	e0 91 ae be 	lds	r30, 0xBEAE	; 0x80beae <__bss_end+0x8396>
    1e0c:	f0 e0       	ldi	r31, 0x00	; 0
    1e0e:	80 91 0c 38 	lds	r24, 0x380C	; 0x80380c <dimValue>
    1e12:	e7 53       	subi	r30, 0x37	; 55
    1e14:	f5 4c       	sbci	r31, 0xC5	; 197
    1e16:	80 83       	st	Z, r24
        iLED[WING[R][1]] = dimValue;
    1e18:	e0 91 af be 	lds	r30, 0xBEAF	; 0x80beaf <__bss_end+0x8397>
    1e1c:	f0 e0       	ldi	r31, 0x00	; 0
    1e1e:	80 91 0c 38 	lds	r24, 0x380C	; 0x80380c <dimValue>
    1e22:	e7 53       	subi	r30, 0x37	; 55
    1e24:	f5 4c       	sbci	r31, 0xC5	; 197
    1e26:	80 83       	st	Z, r24
        iLED[WING[R][2]] = dimValue;
    1e28:	e0 91 b0 be 	lds	r30, 0xBEB0	; 0x80beb0 <__bss_end+0x8398>
    1e2c:	f0 e0       	ldi	r31, 0x00	; 0
    1e2e:	80 91 0c 38 	lds	r24, 0x380C	; 0x80380c <dimValue>
    1e32:	e7 53       	subi	r30, 0x37	; 55
    1e34:	f5 4c       	sbci	r31, 0xC5	; 197
    1e36:	80 83       	st	Z, r24
        effect = 0x017f;
    1e38:	8f e7       	ldi	r24, 0x7F	; 127
    1e3a:	91 e0       	ldi	r25, 0x01	; 1
    1e3c:	14 c0       	rjmp	.+40     	; 0x1e66 <simonLed+0xee>
    } else if (val == 2) {  // I
    1e3e:	82 30       	cpi	r24, 0x02	; 2
    1e40:	b1 f4       	brne	.+44     	; 0x1e6e <simonLed+0xf6>
        iLED[WING[R][3]] = dimValue;
    1e42:	e0 91 b1 be 	lds	r30, 0xBEB1	; 0x80beb1 <__bss_end+0x8399>
    1e46:	f0 e0       	ldi	r31, 0x00	; 0
    1e48:	80 91 0c 38 	lds	r24, 0x380C	; 0x80380c <dimValue>
    1e4c:	e7 53       	subi	r30, 0x37	; 55
    1e4e:	f5 4c       	sbci	r31, 0xC5	; 197
    1e50:	80 83       	st	Z, r24
        iLED[WING[R][4]] = dimValue;
    1e52:	e0 91 b2 be 	lds	r30, 0xBEB2	; 0x80beb2 <__bss_end+0x839a>
    1e56:	f0 e0       	ldi	r31, 0x00	; 0
    1e58:	80 91 0c 38 	lds	r24, 0x380C	; 0x80380c <dimValue>
    1e5c:	e7 53       	subi	r30, 0x37	; 55
    1e5e:	f5 4c       	sbci	r31, 0xC5	; 197
    1e60:	80 83       	st	Z, r24
        effect = 0x019f;
    1e62:	8f e9       	ldi	r24, 0x9F	; 159
    1e64:	91 e0       	ldi	r25, 0x01	; 1
    1e66:	80 93 40 38 	sts	0x3840, r24	; 0x803840 <effect>
    1e6a:	90 93 41 38 	sts	0x3841, r25	; 0x803841 <effect+0x1>
    }
}
    1e6e:	df 91       	pop	r29
    1e70:	cf 91       	pop	r28
    1e72:	08 95       	ret

00001e74 <BastetDictates>:

/**
 * Main game loop
 * @return 0
 */
uint8_t BastetDictates() {
    1e74:	cf 93       	push	r28
    1e76:	df 93       	push	r29
    if ((TEXT != gameNow) && (BASTET != gameNow))
    1e78:	80 91 42 38 	lds	r24, 0x3842	; 0x803842 <gameNow>
    1e7c:	8d 7f       	andi	r24, 0xFD	; 253
    1e7e:	09 f0       	breq	.+2      	; 0x1e82 <BastetDictates+0xe>
    1e80:	73 c1       	rjmp	.+742    	; 0x2168 <BastetDictates+0x2f4>
        return 0;

    if (CheckState(BASTET_COMPLETED)) {
    1e82:	8a e7       	ldi	r24, 0x7A	; 122
    1e84:	ca da       	rcall	.-2668   	; 0x141a <CheckState>
    1e86:	88 23       	and	r24, r24
    1e88:	41 f0       	breq	.+16     	; 0x1e9a <BastetDictates+0x26>
        if (BASTET == gameNow) {
    1e8a:	80 91 42 38 	lds	r24, 0x3842	; 0x803842 <gameNow>
    1e8e:	82 30       	cpi	r24, 0x02	; 2
    1e90:	09 f0       	breq	.+2      	; 0x1e94 <BastetDictates+0x20>
    1e92:	6a c1       	rjmp	.+724    	; 0x2168 <BastetDictates+0x2f4>
            gameNow = TEXT;
    1e94:	10 92 42 38 	sts	0x3842, r1	; 0x803842 <gameNow>
    1e98:	67 c1       	rjmp	.+718    	; 0x2168 <BastetDictates+0x2f4>
        }
        return 0;
    }

    if (CheckState(LANYARD_COMPLETED))
    1e9a:	8b e7       	ldi	r24, 0x7B	; 123
    1e9c:	be da       	rcall	.-2692   	; 0x141a <CheckState>
    1e9e:	90 91 08 38 	lds	r25, 0x3808	; 0x803808 <buttonState>
    1ea2:	88 23       	and	r24, r24
    1ea4:	29 f0       	breq	.+10     	; 0x1eb0 <BastetDictates+0x3c>
        if (buttonState!=0xff)
    1ea6:	9f 3f       	cpi	r25, 0xFF	; 255
    1ea8:	19 f0       	breq	.+6      	; 0x1eb0 <BastetDictates+0x3c>
            gameNow = BASTET;
    1eaa:	82 e0       	ldi	r24, 0x02	; 2
    1eac:	80 93 42 38 	sts	0x3842, r24	; 0x803842 <gameNow>

    iLED[CAT] = (buttonState==0xff ? 0 : dimValue);
    1eb0:	e0 91 aa be 	lds	r30, 0xBEAA	; 0x80beaa <__bss_end+0x8392>
    1eb4:	f0 e0       	ldi	r31, 0x00	; 0
    1eb6:	9f 3f       	cpi	r25, 0xFF	; 255
    1eb8:	19 f0       	breq	.+6      	; 0x1ec0 <BastetDictates+0x4c>
    1eba:	80 91 0c 38 	lds	r24, 0x380C	; 0x80380c <dimValue>
    1ebe:	01 c0       	rjmp	.+2      	; 0x1ec2 <BastetDictates+0x4e>
    1ec0:	80 e0       	ldi	r24, 0x00	; 0
    1ec2:	e7 53       	subi	r30, 0x37	; 55
    1ec4:	f5 4c       	sbci	r31, 0xC5	; 197
    1ec6:	80 83       	st	Z, r24

    if (BASTET_BOOT == simonGameState) {
    1ec8:	80 91 62 38 	lds	r24, 0x3862	; 0x803862 <simonGameState>
    1ecc:	81 11       	cpse	r24, r1
    1ece:	0c c0       	rjmp	.+24     	; 0x1ee8 <BastetDictates+0x74>
    1ed0:	c8 e6       	ldi	r28, 0x68	; 104
        for (uint8_t i = 0; i < BASTET_LENGTH; i++) {
            simonState[i] = (lfsr() % 4);
    1ed2:	d8 e3       	ldi	r29, 0x38	; 56
    1ed4:	7b d9       	rcall	.-3338   	; 0x11cc <lfsr>
    1ed6:	83 70       	andi	r24, 0x03	; 3
    1ed8:	89 93       	st	Y+, r24
            gameNow = BASTET;

    iLED[CAT] = (buttonState==0xff ? 0 : dimValue);

    if (BASTET_BOOT == simonGameState) {
        for (uint8_t i = 0; i < BASTET_LENGTH; i++) {
    1eda:	88 e3       	ldi	r24, 0x38	; 56
    1edc:	c4 37       	cpi	r28, 0x74	; 116
    1ede:	d8 07       	cpc	r29, r24
    1ee0:	c9 f7       	brne	.-14     	; 0x1ed4 <BastetDictates+0x60>
            simonState[i] = (lfsr() % 4);
        }
        simonGameState = BASTET_GAME_START;
    1ee2:	81 e0       	ldi	r24, 0x01	; 1
    1ee4:	80 93 62 38 	sts	0x3862, r24	; 0x803862 <simonGameState>
    }

    if (BASTET_GAME_START == simonGameState && BASTET == gameNow) {
    1ee8:	80 91 62 38 	lds	r24, 0x3862	; 0x803862 <simonGameState>
    1eec:	81 30       	cpi	r24, 0x01	; 1
    1eee:	71 f4       	brne	.+28     	; 0x1f0c <BastetDictates+0x98>
    1ef0:	80 91 42 38 	lds	r24, 0x3842	; 0x803842 <gameNow>
    1ef4:	82 30       	cpi	r24, 0x02	; 2
    1ef6:	51 f4       	brne	.+20     	; 0x1f0c <BastetDictates+0x98>
        simonGameState = BASTET_GAME_INTRO;
    1ef8:	80 93 62 38 	sts	0x3862, r24	; 0x803862 <simonGameState>
        simonPos = 0;
    1efc:	10 92 67 38 	sts	0x3867, r1	; 0x803867 <simonPos>
        simonInputPos = 0;
    1f00:	10 92 66 38 	sts	0x3866, r1	; 0x803866 <simonInputPos>
        simonTimer = 0;
    1f04:	10 92 65 38 	sts	0x3865, r1	; 0x803865 <simonTimer>
        simonCounter = 0;
    1f08:	10 92 63 38 	sts	0x3863, r1	; 0x803863 <simonCounter>
    }

    if (BASTET_GAME_INTRO == simonGameState) {
    1f0c:	80 91 62 38 	lds	r24, 0x3862	; 0x803862 <simonGameState>
    1f10:	82 30       	cpi	r24, 0x02	; 2
    1f12:	19 f5       	brne	.+70     	; 0x1f5a <BastetDictates+0xe6>
        if (simonTimer > 5) {   // .33 seconds
    1f14:	80 91 65 38 	lds	r24, 0x3865	; 0x803865 <simonTimer>
    1f18:	86 30       	cpi	r24, 0x06	; 6
    1f1a:	38 f0       	brcs	.+14     	; 0x1f2a <BastetDictates+0xb6>
            simonCounter++;
    1f1c:	80 91 63 38 	lds	r24, 0x3863	; 0x803863 <simonCounter>
    1f20:	8f 5f       	subi	r24, 0xFF	; 255
    1f22:	80 93 63 38 	sts	0x3863, r24	; 0x803863 <simonCounter>
            simonTimer = 0;
    1f26:	10 92 65 38 	sts	0x3865, r1	; 0x803865 <simonTimer>
        }
        if (simonCounter > 5) {
    1f2a:	e0 91 63 38 	lds	r30, 0x3863	; 0x803863 <simonCounter>
    1f2e:	e6 30       	cpi	r30, 0x06	; 6
    1f30:	48 f0       	brcs	.+18     	; 0x1f44 <BastetDictates+0xd0>
            simonGameState = BASTET_GAME_SHOW_PATTERN;
    1f32:	83 e0       	ldi	r24, 0x03	; 3
    1f34:	80 93 62 38 	sts	0x3862, r24	; 0x803862 <simonGameState>
            simonTimer = 0;
    1f38:	10 92 65 38 	sts	0x3865, r1	; 0x803865 <simonTimer>
            simonCounter = 0;
    1f3c:	10 92 63 38 	sts	0x3863, r1	; 0x803863 <simonCounter>
            ClearHackerLeds();
    1f40:	7a db       	rcall	.-2316   	; 0x1636 <ClearHackerLeds>
            return 0;
    1f42:	12 c1       	rjmp	.+548    	; 0x2168 <BastetDictates+0x2f4>
        }
        iLED[HCKR[R][simonCounter]] = dimValue;
    1f44:	f0 e0       	ldi	r31, 0x00	; 0
    1f46:	e4 54       	subi	r30, 0x44	; 68
    1f48:	f1 44       	sbci	r31, 0x41	; 65
    1f4a:	e0 81       	ld	r30, Z
    1f4c:	f0 e0       	ldi	r31, 0x00	; 0
    1f4e:	80 91 0c 38 	lds	r24, 0x380C	; 0x80380c <dimValue>
    1f52:	e7 53       	subi	r30, 0x37	; 55
    1f54:	f5 4c       	sbci	r31, 0xC5	; 197
    1f56:	80 83       	st	Z, r24
    1f58:	2b c0       	rjmp	.+86     	; 0x1fb0 <BastetDictates+0x13c>
    }

    if (BASTET_GAME_SHOW_PATTERN == simonGameState) {
    1f5a:	83 30       	cpi	r24, 0x03	; 3
    1f5c:	49 f5       	brne	.+82     	; 0x1fb0 <BastetDictates+0x13c>
        if (simonTimer > 7) {   // .5 second
    1f5e:	80 91 65 38 	lds	r24, 0x3865	; 0x803865 <simonTimer>
    1f62:	88 30       	cpi	r24, 0x08	; 8
    1f64:	38 f0       	brcs	.+14     	; 0x1f74 <BastetDictates+0x100>
            simonCounter++;
    1f66:	80 91 63 38 	lds	r24, 0x3863	; 0x803863 <simonCounter>
    1f6a:	8f 5f       	subi	r24, 0xFF	; 255
    1f6c:	80 93 63 38 	sts	0x3863, r24	; 0x803863 <simonCounter>
            simonTimer = 0;
    1f70:	10 92 65 38 	sts	0x3865, r1	; 0x803865 <simonTimer>
        }
        if (simonCounter > simonPos) {
    1f74:	e0 91 63 38 	lds	r30, 0x3863	; 0x803863 <simonCounter>
    1f78:	80 91 67 38 	lds	r24, 0x3867	; 0x803867 <simonPos>
    1f7c:	8e 17       	cp	r24, r30
    1f7e:	40 f4       	brcc	.+16     	; 0x1f90 <BastetDictates+0x11c>
            simonInputPos = 0;
    1f80:	10 92 66 38 	sts	0x3866, r1	; 0x803866 <simonInputPos>
            simonGameState = BASTET_GAME_INPUT;
    1f84:	85 e0       	ldi	r24, 0x05	; 5
    1f86:	80 93 62 38 	sts	0x3862, r24	; 0x803862 <simonGameState>
            simonLed(0);
    1f8a:	80 e0       	ldi	r24, 0x00	; 0
    1f8c:	f5 de       	rcall	.-534    	; 0x1d78 <simonLed>
    1f8e:	98 c0       	rjmp	.+304    	; 0x20c0 <BastetDictates+0x24c>
            simonTimer = 0;
            return 0;
        }
        if (simonTimer < 3) {
    1f90:	80 91 65 38 	lds	r24, 0x3865	; 0x803865 <simonTimer>
    1f94:	83 30       	cpi	r24, 0x03	; 3
    1f96:	30 f4       	brcc	.+12     	; 0x1fa4 <BastetDictates+0x130>
            simonLed(simonState[simonCounter] + 1);
    1f98:	f0 e0       	ldi	r31, 0x00	; 0
    1f9a:	e8 59       	subi	r30, 0x98	; 152
    1f9c:	f7 4c       	sbci	r31, 0xC7	; 199
    1f9e:	80 81       	ld	r24, Z
    1fa0:	8f 5f       	subi	r24, 0xFF	; 255
    1fa2:	ea de       	rcall	.-556    	; 0x1d78 <simonLed>
        }
        if (simonTimer > 6) {
    1fa4:	80 91 65 38 	lds	r24, 0x3865	; 0x803865 <simonTimer>
    1fa8:	87 30       	cpi	r24, 0x07	; 7
    1faa:	10 f0       	brcs	.+4      	; 0x1fb0 <BastetDictates+0x13c>
            simonLed(0);
    1fac:	80 e0       	ldi	r24, 0x00	; 0
    1fae:	e4 de       	rcall	.-568    	; 0x1d78 <simonLed>
    1fb0:	c0 91 62 38 	lds	r28, 0x3862	; 0x803862 <simonGameState>
        }
    }

    if (BASTET_GAME_INPUT == simonGameState) {
    1fb4:	c5 30       	cpi	r28, 0x05	; 5
    1fb6:	09 f0       	breq	.+2      	; 0x1fba <BastetDictates+0x146>
    1fb8:	86 c0       	rjmp	.+268    	; 0x20c6 <BastetDictates+0x252>
    1fba:	80 91 08 38 	lds	r24, 0x3808	; 0x803808 <buttonState>
        //Button pressed
        if (lastButtonState != buttonState && (buttonState+1) > 0) {
    1fbe:	90 91 07 38 	lds	r25, 0x3807	; 0x803807 <lastButtonState>
    1fc2:	98 17       	cp	r25, r24
    1fc4:	09 f4       	brne	.+2      	; 0x1fc8 <BastetDictates+0x154>
    1fc6:	71 c0       	rjmp	.+226    	; 0x20aa <BastetDictates+0x236>
    1fc8:	90 91 64 38 	lds	r25, 0x3864	; 0x803864 <simonWait>
            if (simonWait == 0 && buttonState < 4) {
    1fcc:	91 11       	cpse	r25, r1
    1fce:	6f c0       	rjmp	.+222    	; 0x20ae <BastetDictates+0x23a>
    1fd0:	84 30       	cpi	r24, 0x04	; 4
    1fd2:	08 f0       	brcs	.+2      	; 0x1fd6 <BastetDictates+0x162>
    1fd4:	6c c0       	rjmp	.+216    	; 0x20ae <BastetDictates+0x23a>
                simonWait = 1;
    1fd6:	91 e0       	ldi	r25, 0x01	; 1
    1fd8:	90 93 64 38 	sts	0x3864, r25	; 0x803864 <simonWait>
                simonTimer = 0;
    1fdc:	10 92 65 38 	sts	0x3865, r1	; 0x803865 <simonTimer>
                simonLed(buttonState+1);
    1fe0:	8f 5f       	subi	r24, 0xFF	; 255
    1fe2:	ca de       	rcall	.-620    	; 0x1d78 <simonLed>
    1fe4:	84 e0       	ldi	r24, 0x04	; 4
                simonGameState = BASTET_GAME_WAIT_LEDS;
    1fe6:	80 93 62 38 	sts	0x3862, r24	; 0x803862 <simonGameState>
    1fea:	c0 93 33 38 	sts	0x3833, r28	; 0x803833 <simonNextGameState>
                simonNextGameState = BASTET_GAME_INPUT;
    1fee:	80 91 66 38 	lds	r24, 0x3866	; 0x803866 <simonInputPos>

                if (simonState[simonInputPos] == buttonState) {
    1ff2:	e8 2f       	mov	r30, r24
    1ff4:	f0 e0       	ldi	r31, 0x00	; 0
    1ff6:	e8 59       	subi	r30, 0x98	; 152
    1ff8:	f7 4c       	sbci	r31, 0xC7	; 199
    1ffa:	20 81       	ld	r18, Z
    1ffc:	90 91 08 38 	lds	r25, 0x3808	; 0x803808 <buttonState>
    2000:	29 13       	cpse	r18, r25
    2002:	1d c0       	rjmp	.+58     	; 0x203e <BastetDictates+0x1ca>
    2004:	8f 5f       	subi	r24, 0xFF	; 255
                    simonInputPos++;
    2006:	80 93 66 38 	sts	0x3866, r24	; 0x803866 <simonInputPos>
    200a:	e0 91 67 38 	lds	r30, 0x3867	; 0x803867 <simonPos>
                    if (simonInputPos > simonPos) {
    200e:	e8 17       	cp	r30, r24
    2010:	a0 f5       	brcc	.+104    	; 0x207a <BastetDictates+0x206>
    2012:	ef 5f       	subi	r30, 0xFF	; 255
                        simonPos++;
    2014:	e0 93 67 38 	sts	0x3867, r30	; 0x803867 <simonPos>
    2018:	10 92 65 38 	sts	0x3865, r1	; 0x803865 <simonTimer>
                        simonTimer = 0;
    201c:	10 92 63 38 	sts	0x3863, r1	; 0x803863 <simonCounter>
                        simonCounter = 0;
    2020:	e1 30       	cpi	r30, 0x01	; 1
                        if (simonPos > 1) { // BASTET_LENGTH = 12
    2022:	59 f0       	breq	.+22     	; 0x203a <BastetDictates+0x1c6>
    2024:	e6 95       	lsr	r30
                            iLED[HCKR[G][(simonPos / 2) - 1]] = dimValue;
    2026:	f0 e0       	ldi	r31, 0x00	; 0
    2028:	e4 54       	subi	r30, 0x44	; 68
    202a:	f1 44       	sbci	r31, 0x41	; 65
    202c:	e5 81       	ldd	r30, Z+5	; 0x05
    202e:	f0 e0       	ldi	r31, 0x00	; 0
    2030:	80 91 0c 38 	lds	r24, 0x380C	; 0x80380c <dimValue>
    2034:	e7 53       	subi	r30, 0x37	; 55
    2036:	f5 4c       	sbci	r31, 0xC5	; 197
    2038:	80 83       	st	Z, r24
    203a:	83 e0       	ldi	r24, 0x03	; 3
                        }
                        simonNextGameState = BASTET_GAME_SHOW_PATTERN;
    203c:	1c c0       	rjmp	.+56     	; 0x2076 <BastetDictates+0x202>
    203e:	80 e2       	ldi	r24, 0x20	; 32
                    }
                } else {
                    effect = 32;
    2040:	90 e0       	ldi	r25, 0x00	; 0
    2042:	80 93 40 38 	sts	0x3840, r24	; 0x803840 <effect>
    2046:	90 93 41 38 	sts	0x3841, r25	; 0x803841 <effect+0x1>
    204a:	ac eb       	ldi	r26, 0xBC	; 188
    204c:	be eb       	ldi	r27, 0xBE	; 190
    204e:	ed 91       	ld	r30, X+
                    for (uint8_t n=0; n<6; n++){
                        iLED[HCKR[R][n]] = dimValue;
    2050:	f0 e0       	ldi	r31, 0x00	; 0
    2052:	80 91 0c 38 	lds	r24, 0x380C	; 0x80380c <dimValue>
    2056:	e7 53       	subi	r30, 0x37	; 55
    2058:	f5 4c       	sbci	r31, 0xC5	; 197
    205a:	80 83       	st	Z, r24
    205c:	8e eb       	ldi	r24, 0xBE	; 190
                        }
                        simonNextGameState = BASTET_GAME_SHOW_PATTERN;
                    }
                } else {
                    effect = 32;
                    for (uint8_t n=0; n<6; n++){
    205e:	a2 3c       	cpi	r26, 0xC2	; 194
    2060:	b8 07       	cpc	r27, r24
    2062:	a9 f7       	brne	.-22     	; 0x204e <BastetDictates+0x1da>
    2064:	10 92 66 38 	sts	0x3866, r1	; 0x803866 <simonInputPos>
                        iLED[HCKR[R][n]] = dimValue;
                    }
                    simonInputPos = 0;
    2068:	10 92 67 38 	sts	0x3867, r1	; 0x803867 <simonPos>
                    simonPos = 0;
    206c:	10 92 65 38 	sts	0x3865, r1	; 0x803865 <simonTimer>
                    simonTimer = 0;
    2070:	10 92 63 38 	sts	0x3863, r1	; 0x803863 <simonCounter>
                    simonCounter = 0;
    2074:	86 e0       	ldi	r24, 0x06	; 6
                    simonNextGameState = BASTET_GAME_OUTRO;
    2076:	80 93 33 38 	sts	0x3833, r24	; 0x803833 <simonNextGameState>
    207a:	80 91 66 38 	lds	r24, 0x3866	; 0x803866 <simonInputPos>
                }

                if (simonInputPos >= BASTET_LENGTH || simonPos >= BASTET_LENGTH) { // beetje dubbel
    207e:	8c 30       	cpi	r24, 0x0C	; 12
    2080:	20 f4       	brcc	.+8      	; 0x208a <BastetDictates+0x216>
    2082:	80 91 67 38 	lds	r24, 0x3867	; 0x803867 <simonPos>
    2086:	8c 30       	cpi	r24, 0x0C	; 12
    2088:	90 f0       	brcs	.+36     	; 0x20ae <BastetDictates+0x23a>
                    effect = 64|2;
    208a:	82 e4       	ldi	r24, 0x42	; 66
    208c:	90 e0       	ldi	r25, 0x00	; 0
    208e:	80 93 40 38 	sts	0x3840, r24	; 0x803840 <effect>
    2092:	90 93 41 38 	sts	0x3841, r25	; 0x803841 <effect+0x1>
                    UpdateState(BASTET_COMPLETED);
    2096:	8a e7       	ldi	r24, 0x7A	; 122
    2098:	9f d9       	rcall	.-3266   	; 0x13d8 <UpdateState>
    209a:	10 92 65 38 	sts	0x3865, r1	; 0x803865 <simonTimer>
                    simonTimer = 0;
    209e:	10 92 63 38 	sts	0x3863, r1	; 0x803863 <simonCounter>
                    simonCounter = 0;
    20a2:	87 e0       	ldi	r24, 0x07	; 7
                    simonNextGameState = BASTET_GAME_OVER;
    20a4:	80 93 33 38 	sts	0x3833, r24	; 0x803833 <simonNextGameState>
    20a8:	02 c0       	rjmp	.+4      	; 0x20ae <BastetDictates+0x23a>
    20aa:	10 92 64 38 	sts	0x3864, r1	; 0x803864 <simonWait>
                }
            }
        
        //Button released, next or reset!
        } else {
            simonWait = 0;
    20ae:	80 91 65 38 	lds	r24, 0x3865	; 0x803865 <simonTimer>
        }

        if (simonTimer == 200) {    // did you forget about Bastet?
    20b2:	88 3c       	cpi	r24, 0xC8	; 200
    20b4:	41 f4       	brne	.+16     	; 0x20c6 <BastetDictates+0x252>
    20b6:	83 e0       	ldi	r24, 0x03	; 3
            simonGameState = BASTET_GAME_SHOW_PATTERN;
    20b8:	80 93 62 38 	sts	0x3862, r24	; 0x803862 <simonGameState>
    20bc:	10 92 63 38 	sts	0x3863, r1	; 0x803863 <simonCounter>
            simonCounter = 0;
    20c0:	10 92 65 38 	sts	0x3865, r1	; 0x803865 <simonTimer>
            simonTimer = 0;
    20c4:	51 c0       	rjmp	.+162    	; 0x2168 <BastetDictates+0x2f4>
            return 0;
    20c6:	80 91 62 38 	lds	r24, 0x3862	; 0x803862 <simonGameState>
        }
    }

    if (BASTET_GAME_WAIT_LEDS == simonGameState) {
    20ca:	84 30       	cpi	r24, 0x04	; 4
    20cc:	81 f4       	brne	.+32     	; 0x20ee <BastetDictates+0x27a>
        if (simonTimer >= 7) {
    20ce:	80 91 65 38 	lds	r24, 0x3865	; 0x803865 <simonTimer>
    20d2:	87 30       	cpi	r24, 0x07	; 7
    20d4:	60 f0       	brcs	.+24     	; 0x20ee <BastetDictates+0x27a>
            // on to next state after .5 second
            simonLed(0);  // LEDs off
    20d6:	80 e0       	ldi	r24, 0x00	; 0
    20d8:	4f de       	rcall	.-866    	; 0x1d78 <simonLed>
    20da:	10 92 64 38 	sts	0x3864, r1	; 0x803864 <simonWait>
            simonWait = 0;
    20de:	10 92 65 38 	sts	0x3865, r1	; 0x803865 <simonTimer>
            simonTimer = 0;
    20e2:	10 92 63 38 	sts	0x3863, r1	; 0x803863 <simonCounter>
            simonCounter = 0;
    20e6:	80 91 33 38 	lds	r24, 0x3833	; 0x803833 <simonNextGameState>
            simonGameState = simonNextGameState;
    20ea:	80 93 62 38 	sts	0x3862, r24	; 0x803862 <simonGameState>
    20ee:	80 91 62 38 	lds	r24, 0x3862	; 0x803862 <simonGameState>
        }
    }

    if (BASTET_GAME_OUTRO == simonGameState) {
    20f2:	86 30       	cpi	r24, 0x06	; 6
    20f4:	41 f5       	brne	.+80     	; 0x2146 <BastetDictates+0x2d2>
    20f6:	80 91 65 38 	lds	r24, 0x3865	; 0x803865 <simonTimer>
        if (simonTimer > 3) {
    20fa:	84 30       	cpi	r24, 0x04	; 4
    20fc:	38 f0       	brcs	.+14     	; 0x210c <BastetDictates+0x298>
    20fe:	80 91 63 38 	lds	r24, 0x3863	; 0x803863 <simonCounter>
            simonCounter++;
    2102:	8f 5f       	subi	r24, 0xFF	; 255
    2104:	80 93 63 38 	sts	0x3863, r24	; 0x803863 <simonCounter>
    2108:	10 92 65 38 	sts	0x3865, r1	; 0x803865 <simonTimer>
            simonTimer = 0;
    210c:	80 91 63 38 	lds	r24, 0x3863	; 0x803863 <simonCounter>
        }
        if (simonCounter > 5) {
    2110:	86 30       	cpi	r24, 0x06	; 6
    2112:	40 f0       	brcs	.+16     	; 0x2124 <BastetDictates+0x2b0>
    2114:	10 92 65 38 	sts	0x3865, r1	; 0x803865 <simonTimer>
            simonTimer = 0;
    2118:	10 92 63 38 	sts	0x3863, r1	; 0x803863 <simonCounter>
            simonCounter = 0;
    211c:	87 e0       	ldi	r24, 0x07	; 7
            simonGameState = BASTET_GAME_OVER;
    211e:	80 93 62 38 	sts	0x3862, r24	; 0x803862 <simonGameState>
    2122:	22 c0       	rjmp	.+68     	; 0x2168 <BastetDictates+0x2f4>
            return 0;
    2124:	e5 e0       	ldi	r30, 0x05	; 5
        }
        iLED[HCKR[R][5-simonCounter]] = 0;
    2126:	f0 e0       	ldi	r31, 0x00	; 0
    2128:	e8 1b       	sub	r30, r24
    212a:	f1 09       	sbc	r31, r1
    212c:	e4 54       	subi	r30, 0x44	; 68
    212e:	f1 44       	sbci	r31, 0x41	; 65
    2130:	a0 81       	ld	r26, Z
    2132:	b0 e0       	ldi	r27, 0x00	; 0
    2134:	a7 53       	subi	r26, 0x37	; 55
    2136:	b5 4c       	sbci	r27, 0xC5	; 197
    2138:	1c 92       	st	X, r1
    213a:	e6 81       	ldd	r30, Z+6	; 0x06
        iLED[HCKR[G][5-simonCounter]] = 0;
    213c:	f0 e0       	ldi	r31, 0x00	; 0
    213e:	e7 53       	subi	r30, 0x37	; 55
    2140:	f5 4c       	sbci	r31, 0xC5	; 197
    2142:	10 82       	st	Z, r1
    2144:	0c c0       	rjmp	.+24     	; 0x215e <BastetDictates+0x2ea>
    2146:	87 30       	cpi	r24, 0x07	; 7
    }

    if (BASTET_GAME_OVER == simonGameState) {
    2148:	51 f4       	brne	.+20     	; 0x215e <BastetDictates+0x2ea>
        simonInputPos = 0;
    214a:	10 92 66 38 	sts	0x3866, r1	; 0x803866 <simonInputPos>
        simonPos = 0;
    214e:	10 92 67 38 	sts	0x3867, r1	; 0x803867 <simonPos>
        simonGameState = BASTET_BOOT; // BASTET_GAME_START for stale "field" s
    2152:	10 92 62 38 	sts	0x3862, r1	; 0x803862 <simonGameState>
        gameNow = TEXT;
    2156:	10 92 42 38 	sts	0x3842, r1	; 0x803842 <gameNow>
        simonLed(0);
    215a:	80 e0       	ldi	r24, 0x00	; 0
    215c:	0d de       	rcall	.-998    	; 0x1d78 <simonLed>
    215e:	80 91 65 38 	lds	r24, 0x3865	; 0x803865 <simonTimer>
    }

    ++simonTimer;
    2162:	8f 5f       	subi	r24, 0xFF	; 255
    2164:	80 93 65 38 	sts	0x3865, r24	; 0x803865 <simonTimer>
    2168:	80 e0       	ldi	r24, 0x00	; 0
    return 0;
}
    216a:	df 91       	pop	r29
    216c:	cf 91       	pop	r28
    216e:	08 95       	ret

00002170 <Cheat>:
    2170:	a2 e1       	ldi	r26, 0x12	; 18

//
void SetResponse(uint8_t number, uint16_t address, uint16_t length, uint8_t type){
    reactStr[0][number]=address;
    reactStr[1][number]=length;
    reactStr[2][number]=type;
    2172:	b0 e0       	ldi	r27, 0x00	; 0
    2174:	ee eb       	ldi	r30, 0xBE	; 190
    2176:	f0 e1       	ldi	r31, 0x10	; 16
    2178:	0c 94 1d 1f 	jmp	0x3e3a	; 0x3e3a <__prologue_saves__+0x1e>
    217c:	8a 8b       	std	Y+18, r24	; 0x12
    217e:	80 e1       	ldi	r24, 0x10	; 16
    2180:	e2 e8       	ldi	r30, 0x82	; 130
    2182:	fe eb       	ldi	r31, 0xBE	; 190
    2184:	de 01       	movw	r26, r28
    2186:	11 96       	adiw	r26, 0x01	; 1
    2188:	01 90       	ld	r0, Z+
    218a:	0d 92       	st	X+, r0
    218c:	8a 95       	dec	r24
    218e:	e1 f7       	brne	.-8      	; 0x2188 <Cheat+0x18>
    2190:	fe 01       	movw	r30, r28
    2192:	31 96       	adiw	r30, 0x01	; 1
    2194:	90 e0       	ldi	r25, 0x00	; 0
    2196:	8f ef       	ldi	r24, 0xFF	; 255
    2198:	21 91       	ld	r18, Z+
    219a:	31 91       	ld	r19, Z+
    219c:	26 17       	cp	r18, r22
    219e:	37 07       	cpc	r19, r23
    21a0:	09 f4       	brne	.+2      	; 0x21a4 <Cheat+0x34>
    21a2:	89 2f       	mov	r24, r25
    21a4:	9f 5f       	subi	r25, 0xFF	; 255
    21a6:	98 30       	cpi	r25, 0x08	; 8
    21a8:	b9 f7       	brne	.-18     	; 0x2198 <Cheat+0x28>
    21aa:	88 30       	cpi	r24, 0x08	; 8
    21ac:	10 f0       	brcs	.+4      	; 0x21b2 <Cheat+0x42>
    21ae:	80 e0       	ldi	r24, 0x00	; 0
    21b0:	14 c0       	rjmp	.+40     	; 0x21da <Cheat+0x6a>
    21b2:	18 e1       	ldi	r17, 0x18	; 24
    21b4:	18 0f       	add	r17, r24
    21b6:	41 e0       	ldi	r20, 0x01	; 1
    21b8:	be 01       	movw	r22, r28
    21ba:	6f 5e       	subi	r22, 0xEF	; 239
    21bc:	7f 4f       	sbci	r23, 0xFF	; 255
    21be:	81 2f       	mov	r24, r17
    21c0:	0e 94 04 08 	call	0x1008	; 0x1008 <EERead>
    21c4:	89 89       	ldd	r24, Y+17	; 0x11
    21c6:	8f 3f       	cpi	r24, 0xFF	; 255
    21c8:	91 f7       	brne	.-28     	; 0x21ae <Cheat+0x3e>
    21ca:	41 e0       	ldi	r20, 0x01	; 1
    21cc:	be 01       	movw	r22, r28
    21ce:	6e 5e       	subi	r22, 0xEE	; 238
    21d0:	7f 4f       	sbci	r23, 0xFF	; 255
    21d2:	81 2f       	mov	r24, r17
    21d4:	0e 94 14 08 	call	0x1028	; 0x1028 <EEWrite>
    21d8:	81 e0       	ldi	r24, 0x01	; 1
    21da:	62 96       	adiw	r28, 0x12	; 18
    21dc:	e3 e0       	ldi	r30, 0x03	; 3
    21de:	0c 94 36 1f 	jmp	0x3e6c	; 0x3e6c <__epilogue_restores__+0x1e>

000021e2 <UnflipData>:
    21e2:	26 2f       	mov	r18, r22
    21e4:	fb 01       	movw	r30, r22
    21e6:	35 e5       	ldi	r19, 0x55	; 85
    21e8:	9e 2f       	mov	r25, r30
    21ea:	92 1b       	sub	r25, r18
    21ec:	98 17       	cp	r25, r24
    21ee:	28 f4       	brcc	.+10     	; 0x21fa <UnflipData+0x18>
    21f0:	90 81       	ld	r25, Z
    21f2:	92 95       	swap	r25
    21f4:	93 27       	eor	r25, r19
    21f6:	91 93       	st	Z+, r25
    21f8:	f7 cf       	rjmp	.-18     	; 0x21e8 <UnflipData+0x6>
    21fa:	08 95       	ret

000021fc <ClearTxAfter>:
    21fc:	8f 5f       	subi	r24, 0xFF	; 255
    21fe:	88 30       	cpi	r24, 0x08	; 8
    2200:	30 f4       	brcc	.+12     	; 0x220e <ClearTxAfter+0x12>
    2202:	e8 2f       	mov	r30, r24
    2204:	f0 e0       	ldi	r31, 0x00	; 0
    2206:	e2 5b       	subi	r30, 0xB2	; 178
    2208:	f5 4c       	sbci	r31, 0xC5	; 197
    220a:	10 82       	st	Z, r1
    220c:	f7 cf       	rjmp	.-18     	; 0x21fc <ClearTxAfter>
    220e:	08 95       	ret

00002210 <StartsWith>:
    2210:	ac 01       	movw	r20, r24
    2212:	90 e0       	ldi	r25, 0x00	; 0
    2214:	e9 2f       	mov	r30, r25
    2216:	f0 e0       	ldi	r31, 0x00	; 0
    2218:	da 01       	movw	r26, r20
    221a:	ae 0f       	add	r26, r30
    221c:	bf 1f       	adc	r27, r31
    221e:	3c 91       	ld	r19, X
    2220:	e6 0f       	add	r30, r22
    2222:	f7 1f       	adc	r31, r23
    2224:	31 11       	cpse	r19, r1
    2226:	05 c0       	rjmp	.+10     	; 0x2232 <StartsWith+0x22>
    2228:	81 e0       	ldi	r24, 0x01	; 1
    222a:	90 81       	ld	r25, Z
    222c:	99 23       	and	r25, r25
    222e:	49 f0       	breq	.+18     	; 0x2242 <StartsWith+0x32>
    2230:	07 c0       	rjmp	.+14     	; 0x2240 <StartsWith+0x30>
    2232:	20 81       	ld	r18, Z
    2234:	22 23       	and	r18, r18
    2236:	c1 f3       	breq	.-16     	; 0x2228 <StartsWith+0x18>
    2238:	32 13       	cpse	r19, r18
    223a:	02 c0       	rjmp	.+4      	; 0x2240 <StartsWith+0x30>
    223c:	9f 5f       	subi	r25, 0xFF	; 255
    223e:	ea cf       	rjmp	.-44     	; 0x2214 <StartsWith+0x4>
    2240:	80 e0       	ldi	r24, 0x00	; 0
    2242:	08 95       	ret

00002244 <PrepareSending>:
    2244:	cf 93       	push	r28
    2246:	df 93       	push	r29
    2248:	fc 01       	movw	r30, r24
    224a:	61 15       	cp	r22, r1
    224c:	71 05       	cpc	r23, r1
    224e:	59 f1       	breq	.+86     	; 0x22a6 <PrepareSending+0x62>
    2250:	a6 e5       	ldi	r26, 0x56	; 86
    2252:	ba e3       	ldi	r27, 0x3A	; 58
    2254:	ce e4       	ldi	r28, 0x4E	; 78
    2256:	da e3       	ldi	r29, 0x3A	; 58
    2258:	80 e0       	ldi	r24, 0x00	; 0
    225a:	9f ef       	ldi	r25, 0xFF	; 255
    225c:	6f 3f       	cpi	r22, 0xFF	; 255
    225e:	71 05       	cpc	r23, r1
    2260:	69 f0       	breq	.+26     	; 0x227c <PrepareSending+0x38>
    2262:	60 f0       	brcs	.+24     	; 0x227c <PrepareSending+0x38>
    2264:	ed 93       	st	X+, r30
    2266:	fd 93       	st	X+, r31
    2268:	99 93       	st	Y+, r25
    226a:	e1 50       	subi	r30, 0x01	; 1
    226c:	ff 4f       	sbci	r31, 0xFF	; 255
    226e:	6f 5f       	subi	r22, 0xFF	; 255
    2270:	71 09       	sbc	r23, r1
    2272:	8f 5f       	subi	r24, 0xFF	; 255
    2274:	87 30       	cpi	r24, 0x07	; 7
    2276:	91 f7       	brne	.-28     	; 0x225c <PrepareSending+0x18>
    2278:	81 e0       	ldi	r24, 0x01	; 1
    227a:	1e c0       	rjmp	.+60     	; 0x22b8 <PrepareSending+0x74>
    227c:	28 2f       	mov	r18, r24
    227e:	30 e0       	ldi	r19, 0x00	; 0
    2280:	d9 01       	movw	r26, r18
    2282:	aa 0f       	add	r26, r26
    2284:	bb 1f       	adc	r27, r27
    2286:	aa 5a       	subi	r26, 0xAA	; 170
    2288:	b5 4c       	sbci	r27, 0xC5	; 197
    228a:	ed 93       	st	X+, r30
    228c:	fc 93       	st	X, r31
    228e:	6f 3f       	cpi	r22, 0xFF	; 255
    2290:	71 05       	cpc	r23, r1
    2292:	11 f4       	brne	.+4      	; 0x2298 <PrepareSending+0x54>
    2294:	6e ef       	ldi	r22, 0xFE	; 254
    2296:	70 e0       	ldi	r23, 0x00	; 0
    2298:	f9 01       	movw	r30, r18
    229a:	e2 5b       	subi	r30, 0xB2	; 178
    229c:	f5 4c       	sbci	r31, 0xC5	; 197
    229e:	60 83       	st	Z, r22
    22a0:	40 93 4c 3a 	sts	0x3A4C, r20	; 0x803a4c <txTypeNow>
    22a4:	05 c0       	rjmp	.+10     	; 0x22b0 <PrepareSending+0x6c>
    22a6:	10 92 56 3a 	sts	0x3A56, r1	; 0x803a56 <txAddrList>
    22aa:	10 92 57 3a 	sts	0x3A57, r1	; 0x803a57 <txAddrList+0x1>
    22ae:	80 e0       	ldi	r24, 0x00	; 0
    22b0:	a5 df       	rcall	.-182    	; 0x21fc <ClearTxAfter>
    22b2:	10 92 4d 3a 	sts	0x3A4D, r1	; 0x803a4d <txAddrNow>
    22b6:	80 e0       	ldi	r24, 0x00	; 0
    22b8:	df 91       	pop	r29
    22ba:	cf 91       	pop	r28
    22bc:	08 95       	ret

000022be <SetStandardResponse>:
}

//
uint8_t SetStandardResponse(uint8_t custStrEnd){
    22be:	cf 93       	push	r28
    22c0:	df 93       	push	r29
    return 0;
}

//
void SetResponse(uint8_t number, uint16_t address, uint16_t length, uint8_t type){
    reactStr[0][number]=address;
    22c2:	28 2f       	mov	r18, r24
    22c4:	30 e0       	ldi	r19, 0x00	; 0
    22c6:	f9 01       	movw	r30, r18
    22c8:	ee 0f       	add	r30, r30
    22ca:	ff 1f       	adc	r31, r31
    22cc:	ef 5d       	subi	r30, 0xDF	; 223
    22ce:	f6 4c       	sbci	r31, 0xC6	; 198
    22d0:	a9 e5       	ldi	r26, 0x59	; 89
    22d2:	ba e7       	ldi	r27, 0x7A	; 122
    22d4:	a0 83       	st	Z, r26
    22d6:	b1 83       	std	Z+1, r27	; 0x01
    reactStr[1][number]=length;
    22d8:	f9 01       	movw	r30, r18
    22da:	ee 0f       	add	r30, r30
    22dc:	ff 1f       	adc	r31, r31
    22de:	ef 59       	subi	r30, 0x9F	; 159
    22e0:	f6 4c       	sbci	r31, 0xC6	; 198
    22e2:	62 e0       	ldi	r22, 0x02	; 2
    22e4:	70 e0       	ldi	r23, 0x00	; 0
    22e6:	60 83       	st	Z, r22
    22e8:	71 83       	std	Z+1, r23	; 0x01
    reactStr[2][number]=type;
    22ea:	22 0f       	add	r18, r18
    22ec:	33 1f       	adc	r19, r19
    22ee:	f9 01       	movw	r30, r18
    22f0:	ef 55       	subi	r30, 0x5F	; 95
    22f2:	f6 4c       	sbci	r31, 0xC6	; 198
    22f4:	41 e0       	ldi	r20, 0x01	; 1
    22f6:	50 e0       	ldi	r21, 0x00	; 0
    22f8:	40 83       	st	Z, r20
    22fa:	51 83       	std	Z+1, r21	; 0x01
    return 0;
}

//
void SetResponse(uint8_t number, uint16_t address, uint16_t length, uint8_t type){
    reactStr[0][number]=address;
    22fc:	21 e0       	ldi	r18, 0x01	; 1
    22fe:	28 0f       	add	r18, r24
    2300:	30 e0       	ldi	r19, 0x00	; 0
    2302:	f9 01       	movw	r30, r18
    2304:	ee 0f       	add	r30, r30
    2306:	ff 1f       	adc	r31, r31
    2308:	ef 5d       	subi	r30, 0xDF	; 223
    230a:	f6 4c       	sbci	r31, 0xC6	; 198
    230c:	c2 e6       	ldi	r28, 0x62	; 98
    230e:	da e7       	ldi	r29, 0x7A	; 122
    2310:	c0 83       	st	Z, r28
    2312:	d1 83       	std	Z+1, r29	; 0x01
    reactStr[1][number]=length;
    2314:	f9 01       	movw	r30, r18
    2316:	ee 0f       	add	r30, r30
    2318:	ff 1f       	adc	r31, r31
    231a:	ef 59       	subi	r30, 0x9F	; 159
    231c:	f6 4c       	sbci	r31, 0xC6	; 198
    231e:	cc e0       	ldi	r28, 0x0C	; 12
    2320:	d0 e0       	ldi	r29, 0x00	; 0
    2322:	c0 83       	st	Z, r28
    2324:	d1 83       	std	Z+1, r29	; 0x01
    reactStr[2][number]=type;
    2326:	22 0f       	add	r18, r18
    2328:	33 1f       	adc	r19, r19
    232a:	f9 01       	movw	r30, r18
    232c:	ef 55       	subi	r30, 0x5F	; 95
    232e:	f6 4c       	sbci	r31, 0xC6	; 198
    2330:	40 83       	st	Z, r20
    2332:	51 83       	std	Z+1, r21	; 0x01
//
uint8_t SetStandardResponse(uint8_t custStrEnd){

    SetResponse(custStrEnd++, A_LF, 2, TEASER);
    SetResponse(custStrEnd++, A_LOCATION, L_LOCATION, TEASER);
    reactStr[0][custStrEnd++] = CURR_LOC;
    2334:	e2 e0       	ldi	r30, 0x02	; 2
    2336:	e8 0f       	add	r30, r24
    2338:	f0 e0       	ldi	r31, 0x00	; 0
    233a:	ee 0f       	add	r30, r30
    233c:	ff 1f       	adc	r31, r31
    233e:	ef 5d       	subi	r30, 0xDF	; 223
    2340:	f6 4c       	sbci	r31, 0xC6	; 198
    2342:	20 ef       	ldi	r18, 0xF0	; 240
    2344:	3f ef       	ldi	r19, 0xFF	; 255
    2346:	20 83       	st	Z, r18
    2348:	31 83       	std	Z+1, r19	; 0x01
    return 0;
}

//
void SetResponse(uint8_t number, uint16_t address, uint16_t length, uint8_t type){
    reactStr[0][number]=address;
    234a:	23 e0       	ldi	r18, 0x03	; 3
    234c:	28 0f       	add	r18, r24
    234e:	30 e0       	ldi	r19, 0x00	; 0
    2350:	f9 01       	movw	r30, r18
    2352:	ee 0f       	add	r30, r30
    2354:	ff 1f       	adc	r31, r31
    2356:	ef 5d       	subi	r30, 0xDF	; 223
    2358:	f6 4c       	sbci	r31, 0xC6	; 198
    235a:	a0 83       	st	Z, r26
    235c:	b1 83       	std	Z+1, r27	; 0x01
    reactStr[1][number]=length;
    235e:	f9 01       	movw	r30, r18
    2360:	ee 0f       	add	r30, r30
    2362:	ff 1f       	adc	r31, r31
    2364:	ef 59       	subi	r30, 0x9F	; 159
    2366:	f6 4c       	sbci	r31, 0xC6	; 198
    2368:	60 83       	st	Z, r22
    236a:	71 83       	std	Z+1, r23	; 0x01
    reactStr[2][number]=type;
    236c:	22 0f       	add	r18, r18
    236e:	33 1f       	adc	r19, r19
    2370:	f9 01       	movw	r30, r18
    2372:	ef 55       	subi	r30, 0x5F	; 95
    2374:	f6 4c       	sbci	r31, 0xC6	; 198
    2376:	40 83       	st	Z, r20
    2378:	51 83       	std	Z+1, r21	; 0x01
    return 0;
}

//
void SetResponse(uint8_t number, uint16_t address, uint16_t length, uint8_t type){
    reactStr[0][number]=address;
    237a:	24 e0       	ldi	r18, 0x04	; 4
    237c:	28 0f       	add	r18, r24
    237e:	30 e0       	ldi	r19, 0x00	; 0
    2380:	f9 01       	movw	r30, r18
    2382:	ee 0f       	add	r30, r30
    2384:	ff 1f       	adc	r31, r31
    2386:	ef 5d       	subi	r30, 0xDF	; 223
    2388:	f6 4c       	sbci	r31, 0xC6	; 198
    238a:	a5 e5       	ldi	r26, 0x55	; 85
    238c:	ba e7       	ldi	r27, 0x7A	; 122
    238e:	a0 83       	st	Z, r26
    2390:	b1 83       	std	Z+1, r27	; 0x01
    reactStr[1][number]=length;
    2392:	f9 01       	movw	r30, r18
    2394:	ee 0f       	add	r30, r30
    2396:	ff 1f       	adc	r31, r31
    2398:	ef 59       	subi	r30, 0x9F	; 159
    239a:	f6 4c       	sbci	r31, 0xC6	; 198
    239c:	60 83       	st	Z, r22
    239e:	71 83       	std	Z+1, r23	; 0x01
    reactStr[2][number]=type;
    23a0:	22 0f       	add	r18, r18
    23a2:	33 1f       	adc	r19, r19
    23a4:	f9 01       	movw	r30, r18
    23a6:	ef 55       	subi	r30, 0x5F	; 95
    23a8:	f6 4c       	sbci	r31, 0xC6	; 198
    23aa:	40 83       	st	Z, r20
    23ac:	51 83       	std	Z+1, r21	; 0x01
    reactStr[0][custStrEnd++] = CURR_LOC;
    SetResponse(custStrEnd++, A_LF, 2, TEASER);
    SetResponse(custStrEnd++, A_PROMPT, L_PROMPT, TEASER);

    return custStrEnd;
}
    23ae:	8b 5f       	subi	r24, 0xFB	; 251
    23b0:	df 91       	pop	r29
    23b2:	cf 91       	pop	r28
    23b4:	08 95       	ret

000023b6 <PopulateObject>:

//Get all the relevant data and string addresses of an object
void PopulateObject(uint16_t offset, object_model_t *object){
    23b6:	af 92       	push	r10
    23b8:	bf 92       	push	r11
    23ba:	df 92       	push	r13
    23bc:	ef 92       	push	r14
    23be:	ff 92       	push	r15
    23c0:	0f 93       	push	r16
    23c2:	1f 93       	push	r17
    23c4:	cf 93       	push	r28
    23c6:	df 93       	push	r29
    23c8:	cd b7       	in	r28, 0x3d	; 61
    23ca:	de b7       	in	r29, 0x3e	; 62
    23cc:	2c 97       	sbiw	r28, 0x0c	; 12
    23ce:	cd bf       	out	0x3d, r28	; 61
    23d0:	de bf       	out	0x3e, r29	; 62
    23d2:	7c 01       	movw	r14, r24
    23d4:	8b 01       	movw	r16, r22
    uint16_t parStr;
    offset += L_BOILER;

    //Fill things with fixed distance to offset
    uint8_t data[OFF_STRINGFLDS];
    ExtEERead(offset, OFF_STRINGFLDS, GAME, &data[0]);
    23d6:	9e 01       	movw	r18, r28
    23d8:	2f 5f       	subi	r18, 0xFF	; 255
    23da:	3f 4f       	sbci	r19, 0xFF	; 255
    23dc:	40 e0       	ldi	r20, 0x00	; 0
    23de:	6c e0       	ldi	r22, 0x0C	; 12
    23e0:	80 96       	adiw	r24, 0x20	; 32
    23e2:	0e 94 56 08 	call	0x10ac	; 0x10ac <ExtEERead>
    object->addrNextObj = (data[OFF_NEXTOBJ]<<8|data[OFF_NEXTOBJ+1])+L_BOILER;
    23e6:	89 81       	ldd	r24, Y+1	; 0x01
    23e8:	9a 81       	ldd	r25, Y+2	; 0x02
    23ea:	98 27       	eor	r25, r24
    23ec:	89 27       	eor	r24, r25
    23ee:	98 27       	eor	r25, r24
    23f0:	80 96       	adiw	r24, 0x20	; 32
    23f2:	f8 01       	movw	r30, r16
    23f4:	80 83       	st	Z, r24
    23f6:	91 83       	std	Z+1, r25	; 0x01
    object->addrNextLvl = (data[OFF_NEXTLVL]<<8|data[OFF_NEXTLVL+1])+L_BOILER;
    23f8:	8b 81       	ldd	r24, Y+3	; 0x03
    23fa:	9c 81       	ldd	r25, Y+4	; 0x04
    23fc:	98 27       	eor	r25, r24
    23fe:	89 27       	eor	r24, r25
    2400:	98 27       	eor	r25, r24
    2402:	80 96       	adiw	r24, 0x20	; 32
    2404:	82 83       	std	Z+2, r24	; 0x02
    2406:	93 83       	std	Z+3, r25	; 0x03
    2408:	de 01       	movw	r26, r28
    240a:	15 96       	adiw	r26, 0x05	; 5
    240c:	34 96       	adiw	r30, 0x04	; 4
    240e:	c8 01       	movw	r24, r16
    2410:	0c 96       	adiw	r24, 0x0c	; 12
    for (uint8_t x=0; x<BYTE_FIELDS_LEN; ++x){
        object->byteField[x]=data[x+OFF_BYTEFLDS];
    2412:	2d 91       	ld	r18, X+
    2414:	21 93       	st	Z+, r18
    //Fill things with fixed distance to offset
    uint8_t data[OFF_STRINGFLDS];
    ExtEERead(offset, OFF_STRINGFLDS, GAME, &data[0]);
    object->addrNextObj = (data[OFF_NEXTOBJ]<<8|data[OFF_NEXTOBJ+1])+L_BOILER;
    object->addrNextLvl = (data[OFF_NEXTLVL]<<8|data[OFF_NEXTLVL+1])+L_BOILER;
    for (uint8_t x=0; x<BYTE_FIELDS_LEN; ++x){
    2416:	e8 17       	cp	r30, r24
    2418:	f9 07       	cpc	r31, r25
    241a:	d9 f7       	brne	.-10     	; 0x2412 <PopulateObject+0x5c>
        object->byteField[x]=data[x+OFF_BYTEFLDS];
    }

    //Find out where all of the strings begin and how long they are
    offset += OFF_STRINGFLDS;
    241c:	fc e2       	ldi	r31, 0x2C	; 44
    241e:	ef 0e       	add	r14, r31
    2420:	f1 1c       	adc	r15, r1
    2422:	58 01       	movw	r10, r16
    for(uint8_t x=0; x<STRING_FIELDS_LEN; ++x){
    2424:	d1 2c       	mov	r13, r1
        
        //Determine length
        ExtEERead(offset, 3, GAME, &data[0]);
    2426:	9e 01       	movw	r18, r28
    2428:	2f 5f       	subi	r18, 0xFF	; 255
    242a:	3f 4f       	sbci	r19, 0xFF	; 255
    242c:	40 e0       	ldi	r20, 0x00	; 0
    242e:	63 e0       	ldi	r22, 0x03	; 3
    2430:	c7 01       	movw	r24, r14
    2432:	0e 94 56 08 	call	0x10ac	; 0x10ac <ExtEERead>
    2436:	89 81       	ldd	r24, Y+1	; 0x01
    2438:	9a 81       	ldd	r25, Y+2	; 0x02
    243a:	98 27       	eor	r25, r24
    243c:	89 27       	eor	r24, r25
    243e:	98 27       	eor	r25, r24
        parStr = (data[0]<<8|data[1]);
        offset += 2;
    2440:	97 01       	movw	r18, r14
    2442:	2e 5f       	subi	r18, 0xFE	; 254
    2444:	3f 4f       	sbci	r19, 0xFF	; 255
        if (x >= OPEN_ACL_MSG){
    2446:	43 e0       	ldi	r20, 0x03	; 3
    2448:	4d 15       	cp	r20, r13
    244a:	80 f4       	brcc	.+32     	; 0x246c <PopulateObject+0xb6>
            object->lenStr[x]= parStr-1;
    244c:	ac 01       	movw	r20, r24
    244e:	41 50       	subi	r20, 0x01	; 1
    2450:	51 09       	sbc	r21, r1
    2452:	f8 01       	movw	r30, r16
    2454:	42 8f       	std	Z+26, r20	; 0x1a
    2456:	53 8f       	std	Z+27, r21	; 0x1b
            object->addrStr[x]=offset+1;
    2458:	f3 e0       	ldi	r31, 0x03	; 3
    245a:	ef 0e       	add	r14, r31
    245c:	f1 1c       	adc	r15, r1
    245e:	f8 01       	movw	r30, r16
    2460:	e4 86       	std	Z+12, r14	; 0x0c
    2462:	f5 86       	std	Z+13, r15	; 0x0d
            object->effect[x-OPEN_ACL_MSG] = data[2];
    2464:	4b 81       	ldd	r20, Y+3	; 0x03
    2466:	f5 01       	movw	r30, r10
    2468:	44 a3       	std	Z+36, r20	; 0x24
    246a:	05 c0       	rjmp	.+10     	; 0x2476 <PopulateObject+0xc0>
        } else {
            object->lenStr[x]= parStr;
    246c:	f8 01       	movw	r30, r16
    246e:	82 8f       	std	Z+26, r24	; 0x1a
    2470:	93 8f       	std	Z+27, r25	; 0x1b
            object->addrStr[x]=offset;
    2472:	24 87       	std	Z+12, r18	; 0x0c
    2474:	35 87       	std	Z+13, r19	; 0x0d
        }
        
        //Determine string start location for next field
        offset += parStr;
    2476:	7c 01       	movw	r14, r24
    2478:	e2 0e       	add	r14, r18
    247a:	f3 1e       	adc	r15, r19
        object->byteField[x]=data[x+OFF_BYTEFLDS];
    }

    //Find out where all of the strings begin and how long they are
    offset += OFF_STRINGFLDS;
    for(uint8_t x=0; x<STRING_FIELDS_LEN; ++x){
    247c:	d3 94       	inc	r13
    247e:	0e 5f       	subi	r16, 0xFE	; 254
    2480:	1f 4f       	sbci	r17, 0xFF	; 255
    2482:	ff ef       	ldi	r31, 0xFF	; 255
    2484:	af 1a       	sub	r10, r31
    2486:	bf 0a       	sbc	r11, r31
    2488:	47 e0       	ldi	r20, 0x07	; 7
    248a:	d4 12       	cpse	r13, r20
    248c:	cc cf       	rjmp	.-104    	; 0x2426 <PopulateObject+0x70>
        }
        
        //Determine string start location for next field
        offset += parStr;
    }    
}
    248e:	2c 96       	adiw	r28, 0x0c	; 12
    2490:	cd bf       	out	0x3d, r28	; 61
    2492:	de bf       	out	0x3e, r29	; 62
    2494:	df 91       	pop	r29
    2496:	cf 91       	pop	r28
    2498:	1f 91       	pop	r17
    249a:	0f 91       	pop	r16
    249c:	ff 90       	pop	r15
    249e:	ef 90       	pop	r14
    24a0:	df 90       	pop	r13
    24a2:	bf 90       	pop	r11
    24a4:	af 90       	pop	r10
    24a6:	08 95       	ret

000024a8 <CheckLetter>:

//Check if the entered letter corresponds with a name
uint8_t CheckLetter(uint16_t object, uint8_t letter){
    24a8:	a0 e2       	ldi	r26, 0x20	; 32
    24aa:	b0 e0       	ldi	r27, 0x00	; 0
    24ac:	ea e5       	ldi	r30, 0x5A	; 90
    24ae:	f2 e1       	ldi	r31, 0x12	; 18
    24b0:	0c 94 18 1f 	jmp	0x3e30	; 0x3e30 <__prologue_saves__+0x14>
    24b4:	c6 2e       	mov	r12, r22
    
    uint8_t found = 0;
    uint8_t data[32];

    object += L_BOILER;
    24b6:	7c 01       	movw	r14, r24
    24b8:	20 e2       	ldi	r18, 0x20	; 32
    24ba:	e2 0e       	add	r14, r18
    24bc:	f1 1c       	adc	r15, r1
    ExtEERead(object+OFF_STRINGFLDS, 2, GAME, &data[0]);
    24be:	9e 01       	movw	r18, r28
    24c0:	2f 5f       	subi	r18, 0xFF	; 255
    24c2:	3f 4f       	sbci	r19, 0xFF	; 255
    24c4:	40 e0       	ldi	r20, 0x00	; 0
    24c6:	62 e0       	ldi	r22, 0x02	; 2
    24c8:	8c 96       	adiw	r24, 0x2c	; 44
    24ca:	0e 94 56 08 	call	0x10ac	; 0x10ac <ExtEERead>
    uint8_t x = data[1]; //Assuming a name is not longer than 255 characters.
    24ce:	1a 81       	ldd	r17, Y+2	; 0x02
}

//Check if the entered letter corresponds with a name
uint8_t CheckLetter(uint16_t object, uint8_t letter){
    
    uint8_t found = 0;
    24d0:	d1 2c       	mov	r13, r1

    object += L_BOILER;
    ExtEERead(object+OFF_STRINGFLDS, 2, GAME, &data[0]);
    uint8_t x = data[1]; //Assuming a name is not longer than 255 characters.

    while (x){
    24d2:	11 23       	and	r17, r17
    24d4:	59 f1       	breq	.+86     	; 0x252c <CheckLetter+0x84>
    24d6:	01 2f       	mov	r16, r17
    24d8:	11 32       	cpi	r17, 0x21	; 33
    24da:	08 f0       	brcs	.+2      	; 0x24de <CheckLetter+0x36>
    24dc:	00 e2       	ldi	r16, 0x20	; 32
        uint8_t max;
        if (x>32) max = 32; else max = x;
        ExtEERead(object+OFF_STRINGFLDS+2, max, GAME, &data[0]);
    24de:	9e 01       	movw	r18, r28
    24e0:	2f 5f       	subi	r18, 0xFF	; 255
    24e2:	3f 4f       	sbci	r19, 0xFF	; 255
    24e4:	40 e0       	ldi	r20, 0x00	; 0
    24e6:	60 2f       	mov	r22, r16
    24e8:	c7 01       	movw	r24, r14
    24ea:	0e 96       	adiw	r24, 0x0e	; 14
    24ec:	0e 94 56 08 	call	0x10ac	; 0x10ac <ExtEERead>
    24f0:	fe 01       	movw	r30, r28
    24f2:	31 96       	adiw	r30, 0x01	; 1
        for (uint8_t y=0; y<max; ++y){
    24f4:	80 e0       	ldi	r24, 0x00	; 0
            if (found){
    24f6:	dd 20       	and	r13, r13
    24f8:	61 f0       	breq	.+24     	; 0x2512 <CheckLetter+0x6a>
                if ((data[y]|0x20) == letter) return 1; else return 0;
    24fa:	e1 e0       	ldi	r30, 0x01	; 1
    24fc:	f0 e0       	ldi	r31, 0x00	; 0
    24fe:	ec 0f       	add	r30, r28
    2500:	fd 1f       	adc	r31, r29
    2502:	e8 0f       	add	r30, r24
    2504:	f1 1d       	adc	r31, r1
    2506:	90 81       	ld	r25, Z
    2508:	90 62       	ori	r25, 0x20	; 32
    250a:	81 e0       	ldi	r24, 0x01	; 1
    250c:	9c 11       	cpse	r25, r12
    250e:	0e c0       	rjmp	.+28     	; 0x252c <CheckLetter+0x84>
    2510:	0e c0       	rjmp	.+28     	; 0x252e <CheckLetter+0x86>
            }
            if (data[y] == '[') found = 1;
    2512:	91 91       	ld	r25, Z+
    2514:	dd 24       	eor	r13, r13
    2516:	d3 94       	inc	r13
    2518:	9b 35       	cpi	r25, 0x5B	; 91
    251a:	09 f0       	breq	.+2      	; 0x251e <CheckLetter+0x76>
    251c:	d1 2c       	mov	r13, r1

    while (x){
        uint8_t max;
        if (x>32) max = 32; else max = x;
        ExtEERead(object+OFF_STRINGFLDS+2, max, GAME, &data[0]);
        for (uint8_t y=0; y<max; ++y){
    251e:	8f 5f       	subi	r24, 0xFF	; 255
    2520:	80 17       	cp	r24, r16
    2522:	48 f3       	brcs	.-46     	; 0x24f6 <CheckLetter+0x4e>
            if (found){
                if ((data[y]|0x20) == letter) return 1; else return 0;
            }
            if (data[y] == '[') found = 1;
        }
        object += max;
    2524:	e0 0e       	add	r14, r16
    2526:	f1 1c       	adc	r15, r1
        x -= max;
    2528:	10 1b       	sub	r17, r16
    252a:	d3 cf       	rjmp	.-90     	; 0x24d2 <CheckLetter+0x2a>
    }
    return 0;
    252c:	80 e0       	ldi	r24, 0x00	; 0
}
    252e:	a0 96       	adiw	r28, 0x20	; 32
    2530:	e8 e0       	ldi	r30, 0x08	; 8
    2532:	0c 94 31 1f 	jmp	0x3e62	; 0x3e62 <__epilogue_restores__+0x14>

00002536 <FindChild>:

//Returns the child's address if the child is visible and the search letter matches
uint16_t FindChild(uint16_t parent, uint8_t letter, uint16_t start){
    2536:	af 92       	push	r10
    2538:	bf 92       	push	r11
    253a:	df 92       	push	r13
    253c:	ef 92       	push	r14
    253e:	ff 92       	push	r15
    2540:	0f 93       	push	r16
    2542:	1f 93       	push	r17
    2544:	cf 93       	push	r28
    2546:	df 93       	push	r29
    2548:	00 d0       	rcall	.+0      	; 0x254a <FindChild+0x14>
    254a:	00 d0       	rcall	.+0      	; 0x254c <FindChild+0x16>
    254c:	cd b7       	in	r28, 0x3d	; 61
    254e:	de b7       	in	r29, 0x3e	; 62
    2550:	d6 2e       	mov	r13, r22
    2552:	5a 01       	movw	r10, r20
    
    uint16_t child = parent;
    uint8_t data[4];

    ExtEERead(child+L_BOILER, 4, GAME, &data[0]);
    2554:	9e 01       	movw	r18, r28
    2556:	2f 5f       	subi	r18, 0xFF	; 255
    2558:	3f 4f       	sbci	r19, 0xFF	; 255
    255a:	40 e0       	ldi	r20, 0x00	; 0
    255c:	64 e0       	ldi	r22, 0x04	; 4
    255e:	80 96       	adiw	r24, 0x20	; 32
    2560:	0e 94 56 08 	call	0x10ac	; 0x10ac <ExtEERead>
    2564:	e9 80       	ldd	r14, Y+1	; 0x01
    2566:	fa 80       	ldd	r15, Y+2	; 0x02
    2568:	fe 24       	eor	r15, r14
    256a:	ef 24       	eor	r14, r15
    256c:	fe 24       	eor	r15, r14
    256e:	0b 81       	ldd	r16, Y+3	; 0x03
    2570:	1c 81       	ldd	r17, Y+4	; 0x04
    2572:	10 27       	eor	r17, r16
    2574:	01 27       	eor	r16, r17
    2576:	10 27       	eor	r17, r16
    parent = (data[0]<<8|data[1]);    //Next object on parent level
    child =  (data[2]<<8|data[3]);    //First object on child level

    //As long as the child is within the parent's range
    while (parent>child){
    2578:	0e 15       	cp	r16, r14
    257a:	1f 05       	cpc	r17, r15
    257c:	48 f5       	brcc	.+82     	; 0x25d0 <FindChild+0x9a>

        //If child's address is higher than the start address, perform search for letter
        if (child>start){
    257e:	a0 16       	cp	r10, r16
    2580:	b1 06       	cpc	r11, r17
    2582:	60 f0       	brcs	.+24     	; 0x259c <FindChild+0x66>
                if ((letter == 0)||(CheckLetter(child, letter))) return child;
            }
        }

        //Not visible or name not right
        ExtEERead(child+L_BOILER, 2, GAME, &data[0]);
    2584:	9e 01       	movw	r18, r28
    2586:	2f 5f       	subi	r18, 0xFF	; 255
    2588:	3f 4f       	sbci	r19, 0xFF	; 255
    258a:	40 e0       	ldi	r20, 0x00	; 0
    258c:	62 e0       	ldi	r22, 0x02	; 2
    258e:	c8 01       	movw	r24, r16
    2590:	80 96       	adiw	r24, 0x20	; 32
    2592:	0e 94 56 08 	call	0x10ac	; 0x10ac <ExtEERead>
    2596:	09 81       	ldd	r16, Y+1	; 0x01
    2598:	1a 81       	ldd	r17, Y+2	; 0x02
    259a:	eb cf       	rjmp	.-42     	; 0x2572 <FindChild+0x3c>
    //As long as the child is within the parent's range
    while (parent>child){

        //If child's address is higher than the start address, perform search for letter
        if (child>start){
            ExtEERead(child+OFF_BYTEFLDS+VISIBLE_ACL+L_BOILER, 1, GAME, &data[0]);
    259c:	9e 01       	movw	r18, r28
    259e:	2f 5f       	subi	r18, 0xFF	; 255
    25a0:	3f 4f       	sbci	r19, 0xFF	; 255
    25a2:	40 e0       	ldi	r20, 0x00	; 0
    25a4:	61 e0       	ldi	r22, 0x01	; 1
    25a6:	c8 01       	movw	r24, r16
    25a8:	85 96       	adiw	r24, 0x25	; 37
    25aa:	0e 94 56 08 	call	0x10ac	; 0x10ac <ExtEERead>
            if ((data[0] == 0)||(CheckState(data[0]))) {
    25ae:	89 81       	ldd	r24, Y+1	; 0x01
    25b0:	81 11       	cpse	r24, r1
    25b2:	03 c0       	rjmp	.+6      	; 0x25ba <FindChild+0x84>
                if ((letter == 0)||(CheckLetter(child, letter))) return child;
    25b4:	d1 10       	cpse	r13, r1
    25b6:	06 c0       	rjmp	.+12     	; 0x25c4 <FindChild+0x8e>
    25b8:	0e c0       	rjmp	.+28     	; 0x25d6 <FindChild+0xa0>
    while (parent>child){

        //If child's address is higher than the start address, perform search for letter
        if (child>start){
            ExtEERead(child+OFF_BYTEFLDS+VISIBLE_ACL+L_BOILER, 1, GAME, &data[0]);
            if ((data[0] == 0)||(CheckState(data[0]))) {
    25ba:	0e 94 0d 0a 	call	0x141a	; 0x141a <CheckState>
    25be:	81 11       	cpse	r24, r1
    25c0:	f9 cf       	rjmp	.-14     	; 0x25b4 <FindChild+0x7e>
    25c2:	e0 cf       	rjmp	.-64     	; 0x2584 <FindChild+0x4e>
                if ((letter == 0)||(CheckLetter(child, letter))) return child;
    25c4:	6d 2d       	mov	r22, r13
    25c6:	c8 01       	movw	r24, r16
    25c8:	6f df       	rcall	.-290    	; 0x24a8 <CheckLetter>
    25ca:	88 23       	and	r24, r24
    25cc:	d9 f2       	breq	.-74     	; 0x2584 <FindChild+0x4e>
    25ce:	03 c0       	rjmp	.+6      	; 0x25d6 <FindChild+0xa0>

        //Not visible or name not right
        ExtEERead(child+L_BOILER, 2, GAME, &data[0]);
        child = (data[0]<<8|data[1]);    //Next object on child level
        
    } return 0;
    25d0:	80 e0       	ldi	r24, 0x00	; 0
    25d2:	90 e0       	ldi	r25, 0x00	; 0
    25d4:	01 c0       	rjmp	.+2      	; 0x25d8 <FindChild+0xa2>
    25d6:	c8 01       	movw	r24, r16
}
    25d8:	24 96       	adiw	r28, 0x04	; 4
    25da:	cd bf       	out	0x3d, r28	; 61
    25dc:	de bf       	out	0x3e, r29	; 62
    25de:	df 91       	pop	r29
    25e0:	cf 91       	pop	r28
    25e2:	1f 91       	pop	r17
    25e4:	0f 91       	pop	r16
    25e6:	ff 90       	pop	r15
    25e8:	ef 90       	pop	r14
    25ea:	df 90       	pop	r13
    25ec:	bf 90       	pop	r11
    25ee:	af 90       	pop	r10
    25f0:	08 95       	ret

000025f2 <InpOkChk>:

//Allow only a(A) to z(Z) and 0 to 9 as input
uint8_t InpOkChk(uint8_t test){
    test |= 0x20;
    25f2:	80 62       	ori	r24, 0x20	; 32
    if ((test>='a')&&(test<='z')) return 1;
    25f4:	9f e9       	ldi	r25, 0x9F	; 159
    25f6:	98 0f       	add	r25, r24
    25f8:	9a 31       	cpi	r25, 0x1A	; 26
    25fa:	38 f0       	brcs	.+14     	; 0x260a <InpOkChk+0x18>
    25fc:	90 ed       	ldi	r25, 0xD0	; 208
    25fe:	98 0f       	add	r25, r24
    2600:	81 e0       	ldi	r24, 0x01	; 1
    2602:	9a 30       	cpi	r25, 0x0A	; 10
    2604:	18 f0       	brcs	.+6      	; 0x260c <InpOkChk+0x1a>
    2606:	80 e0       	ldi	r24, 0x00	; 0
    2608:	08 95       	ret
    260a:	81 e0       	ldi	r24, 0x01	; 1
    if ((test>='0')&&(test<='9')) return 1;
    return 0;
}
    260c:	08 95       	ret

0000260e <CleanInput>:

//Cleans input of garbage and returns length of cleaned input "o->d2  !\0" becomes "od2\0"
uint8_t CleanInput(uint8_t *data){
    260e:	0f 93       	push	r16
    2610:	1f 93       	push	r17
    2612:	cf 93       	push	r28
    2614:	df 93       	push	r29
    2616:	8c 01       	movw	r16, r24
    uint8_t cnt = 0;
    for (uint8_t x=0; data[x]!=0; ++x){
    2618:	d0 e0       	ldi	r29, 0x00	; 0
    return 0;
}

//Cleans input of garbage and returns length of cleaned input "o->d2  !\0" becomes "od2\0"
uint8_t CleanInput(uint8_t *data){
    uint8_t cnt = 0;
    261a:	c0 e0       	ldi	r28, 0x00	; 0
    for (uint8_t x=0; data[x]!=0; ++x){
    261c:	f8 01       	movw	r30, r16
    261e:	ed 0f       	add	r30, r29
    2620:	f1 1d       	adc	r31, r1
    2622:	20 81       	ld	r18, Z
    2624:	8c 2f       	mov	r24, r28
    2626:	90 e0       	ldi	r25, 0x00	; 0
    2628:	22 23       	and	r18, r18
    262a:	51 f0       	breq	.+20     	; 0x2640 <CleanInput+0x32>
        data[cnt] = data[x];
    262c:	d8 01       	movw	r26, r16
    262e:	a8 0f       	add	r26, r24
    2630:	b9 1f       	adc	r27, r25
    2632:	2c 93       	st	X, r18
        if (InpOkChk(data[x])) ++cnt;
    2634:	80 81       	ld	r24, Z
    2636:	dd df       	rcall	.-70     	; 0x25f2 <InpOkChk>
    2638:	81 11       	cpse	r24, r1
    263a:	cf 5f       	subi	r28, 0xFF	; 255
}

//Cleans input of garbage and returns length of cleaned input "o->d2  !\0" becomes "od2\0"
uint8_t CleanInput(uint8_t *data){
    uint8_t cnt = 0;
    for (uint8_t x=0; data[x]!=0; ++x){
    263c:	df 5f       	subi	r29, 0xFF	; 255
    263e:	ee cf       	rjmp	.-36     	; 0x261c <CleanInput+0xe>
        data[cnt] = data[x];
        if (InpOkChk(data[x])) ++cnt;
    }
    data[cnt] = 0;
    2640:	f8 01       	movw	r30, r16
    2642:	e8 0f       	add	r30, r24
    2644:	f9 1f       	adc	r31, r25
    2646:	10 82       	st	Z, r1
    return cnt;
}
    2648:	8c 2f       	mov	r24, r28
    264a:	df 91       	pop	r29
    264c:	cf 91       	pop	r28
    264e:	1f 91       	pop	r17
    2650:	0f 91       	pop	r16
    2652:	08 95       	ret

00002654 <CheckSend>:

//Send routine, optimized for low memory usage
uint8_t CheckSend(){
    2654:	cf 93       	push	r28
    /*if (effect == 0){
        effect = currObj.byteField[EFFECTS];
    }*/

    //Check if more string(part)s have to be sent to the serial output if previous send operation is completed
    if ((txAddrNow < TXLISTLEN) && serTxDone){
    2656:	20 91 4d 3a 	lds	r18, 0x3A4D	; 0x803a4d <txAddrNow>
    265a:	28 30       	cpi	r18, 0x08	; 8
    265c:	08 f0       	brcs	.+2      	; 0x2660 <CheckSend+0xc>
    265e:	49 c0       	rjmp	.+146    	; 0x26f2 <CheckSend+0x9e>
    2660:	80 91 09 38 	lds	r24, 0x3809	; 0x803809 <serTxDone>
    2664:	88 23       	and	r24, r24
    2666:	09 f4       	brne	.+2      	; 0x266a <CheckSend+0x16>
    2668:	44 c0       	rjmp	.+136    	; 0x26f2 <CheckSend+0x9e>
        if (txStrLen[txAddrNow] == 0){
    266a:	82 2f       	mov	r24, r18
    266c:	90 e0       	ldi	r25, 0x00	; 0
    266e:	fc 01       	movw	r30, r24
    2670:	e2 5b       	subi	r30, 0xB2	; 178
    2672:	f5 4c       	sbci	r31, 0xC5	; 197
    2674:	e0 81       	ld	r30, Z
    2676:	e1 11       	cpse	r30, r1
    2678:	06 c0       	rjmp	.+12     	; 0x2686 <CheckSend+0x32>
            txPart = 0;
    267a:	10 92 0c 39 	sts	0x390C, r1	; 0x80390c <txPart.3937>
            txAddrNow = TXLISTLEN;
    267e:	88 e0       	ldi	r24, 0x08	; 8
    2680:	80 93 4d 3a 	sts	0x3A4D, r24	; 0x803a4d <txAddrNow>
    2684:	2e c0       	rjmp	.+92     	; 0x26e2 <CheckSend+0x8e>
        } else if (txPart < txStrLen[txAddrNow]){
    2686:	50 91 0c 39 	lds	r21, 0x390C	; 0x80390c <txPart.3937>
    268a:	5e 17       	cp	r21, r30
    268c:	60 f5       	brcc	.+88     	; 0x26e6 <CheckSend+0x92>
            EEreadLength = txStrLen[txAddrNow]-txPart;
    268e:	ce 2f       	mov	r28, r30
    2690:	c5 1b       	sub	r28, r21
    2692:	c1 32       	cpi	r28, 0x21	; 33
    2694:	08 f0       	brcs	.+2      	; 0x2698 <CheckSend+0x44>
    2696:	c0 e2       	ldi	r28, 0x20	; 32
            if (EEreadLength>=TXLEN) EEreadLength = TXLEN-1;
            ExtEERead(txAddrList[txAddrNow]+txPart, EEreadLength, txTypeNow, &txBuffer[0]);
    2698:	88 0f       	add	r24, r24
    269a:	99 1f       	adc	r25, r25
    269c:	fc 01       	movw	r30, r24
    269e:	ea 5a       	subi	r30, 0xAA	; 170
    26a0:	f5 4c       	sbci	r31, 0xC5	; 197
    26a2:	80 81       	ld	r24, Z
    26a4:	91 81       	ldd	r25, Z+1	; 0x01
    26a6:	27 ef       	ldi	r18, 0xF7	; 247
    26a8:	3a e3       	ldi	r19, 0x3A	; 58
    26aa:	40 91 4c 3a 	lds	r20, 0x3A4C	; 0x803a4c <txTypeNow>
    26ae:	6c 2f       	mov	r22, r28
    26b0:	85 0f       	add	r24, r21
    26b2:	91 1d       	adc	r25, r1
    26b4:	0e 94 56 08 	call	0x10ac	; 0x10ac <ExtEERead>
            txPart += EEreadLength;
    26b8:	80 91 0c 39 	lds	r24, 0x390C	; 0x80390c <txPart.3937>
    26bc:	8c 0f       	add	r24, r28
    26be:	80 93 0c 39 	sts	0x390C, r24	; 0x80390c <txPart.3937>
            txBuffer[EEreadLength] = 0; //Add string terminator after piece to send to plug memory leak
    26c2:	ec 2f       	mov	r30, r28
    26c4:	f0 e0       	ldi	r31, 0x00	; 0
    26c6:	e9 50       	subi	r30, 0x09	; 9
    26c8:	f5 4c       	sbci	r31, 0xC5	; 197
    26ca:	10 82       	st	Z, r1
            if ((txBuffer[0] == 0) && (EEreadLength)) txBuffer[0] = 0xDB; //Block character when data wrong.
    26cc:	80 91 f7 3a 	lds	r24, 0x3AF7	; 0x803af7 <txBuffer>
    26d0:	81 11       	cpse	r24, r1
    26d2:	03 c0       	rjmp	.+6      	; 0x26da <CheckSend+0x86>
    26d4:	8b ed       	ldi	r24, 0xDB	; 219
    26d6:	80 93 f7 3a 	sts	0x3AF7, r24	; 0x803af7 <txBuffer>
            SerSend(&txBuffer[0]);
    26da:	87 ef       	ldi	r24, 0xF7	; 247
    26dc:	9a e3       	ldi	r25, 0x3A	; 58
    26de:	0e 94 78 08 	call	0x10f0	; 0x10f0 <SerSend>
        } else {
            txPart = 0;
            ++txAddrNow;
        }
    } else if (serTxDone) return 0; //All is sent!
    return 1; //Still sending, do not change the data in the tx variables
    26e2:	81 e0       	ldi	r24, 0x01	; 1
    26e4:	0b c0       	rjmp	.+22     	; 0x26fc <CheckSend+0xa8>
            txPart += EEreadLength;
            txBuffer[EEreadLength] = 0; //Add string terminator after piece to send to plug memory leak
            if ((txBuffer[0] == 0) && (EEreadLength)) txBuffer[0] = 0xDB; //Block character when data wrong.
            SerSend(&txBuffer[0]);
        } else {
            txPart = 0;
    26e6:	10 92 0c 39 	sts	0x390C, r1	; 0x80390c <txPart.3937>
            ++txAddrNow;
    26ea:	2f 5f       	subi	r18, 0xFF	; 255
    26ec:	20 93 4d 3a 	sts	0x3A4D, r18	; 0x803a4d <txAddrNow>
    26f0:	f8 cf       	rjmp	.-16     	; 0x26e2 <CheckSend+0x8e>
        }
    } else if (serTxDone) return 0; //All is sent!
    26f2:	90 91 09 38 	lds	r25, 0x3809	; 0x803809 <serTxDone>
    26f6:	81 e0       	ldi	r24, 0x01	; 1
    26f8:	91 11       	cpse	r25, r1
    26fa:	80 e0       	ldi	r24, 0x00	; 0
    return 1; //Still sending, do not change the data in the tx variables
}
    26fc:	cf 91       	pop	r28
    26fe:	08 95       	ret

00002700 <CheckResponse>:

//Send another part of the response and play the effect afterwards
uint8_t CheckResponse(){
    2700:	cf 93       	push	r28
    2702:	df 93       	push	r29
    static uint8_t number = 0;
    if (responseList){
    2704:	c0 91 20 39 	lds	r28, 0x3920	; 0x803920 <responseList>
    2708:	cc 23       	and	r28, r28
    270a:	b1 f1       	breq	.+108    	; 0x2778 <CheckResponse+0x78>
        --responseList;
    270c:	c1 50       	subi	r28, 0x01	; 1
    270e:	c0 93 20 39 	sts	0x3920, r28	; 0x803920 <responseList>
        if (reactStr[0][number] == CURR_LOC) {
    2712:	d0 91 0b 39 	lds	r29, 0x390B	; 0x80390b <number.3941>
    2716:	2d 2f       	mov	r18, r29
    2718:	30 e0       	ldi	r19, 0x00	; 0
    271a:	f9 01       	movw	r30, r18
    271c:	ee 0f       	add	r30, r30
    271e:	ff 1f       	adc	r31, r31
    2720:	ef 5d       	subi	r30, 0xDF	; 223
    2722:	f6 4c       	sbci	r31, 0xC6	; 198
    2724:	80 81       	ld	r24, Z
    2726:	91 81       	ldd	r25, Z+1	; 0x01
    2728:	80 3f       	cpi	r24, 0xF0	; 240
    272a:	4f ef       	ldi	r20, 0xFF	; 255
    272c:	94 07       	cpc	r25, r20
    272e:	51 f4       	brne	.+20     	; 0x2744 <CheckResponse+0x44>
            PrepareSending(currObj.addrStr[NAME], currObj.lenStr[NAME], GAME);
    2730:	60 91 3b 3a 	lds	r22, 0x3A3B	; 0x803a3b <currObj+0x1a>
    2734:	70 91 3c 3a 	lds	r23, 0x3A3C	; 0x803a3c <currObj+0x1b>
    2738:	40 e0       	ldi	r20, 0x00	; 0
    273a:	80 91 2d 3a 	lds	r24, 0x3A2D	; 0x803a2d <currObj+0xc>
    273e:	90 91 2e 3a 	lds	r25, 0x3A2E	; 0x803a2e <currObj+0xd>
    2742:	0d c0       	rjmp	.+26     	; 0x275e <CheckResponse+0x5e>
        } else {
            PrepareSending(reactStr[0][number], reactStr[1][number], reactStr[2][number]);
    2744:	d9 01       	movw	r26, r18
    2746:	aa 0f       	add	r26, r26
    2748:	bb 1f       	adc	r27, r27
    274a:	af 55       	subi	r26, 0x5F	; 95
    274c:	b6 4c       	sbci	r27, 0xC6	; 198
    274e:	22 0f       	add	r18, r18
    2750:	33 1f       	adc	r19, r19
    2752:	f9 01       	movw	r30, r18
    2754:	ef 59       	subi	r30, 0x9F	; 159
    2756:	f6 4c       	sbci	r31, 0xC6	; 198
    2758:	60 81       	ld	r22, Z
    275a:	71 81       	ldd	r23, Z+1	; 0x01
    275c:	4c 91       	ld	r20, X
    275e:	72 dd       	rcall	.-1308   	; 0x2244 <PrepareSending>
        }
        ++number;
    2760:	df 5f       	subi	r29, 0xFF	; 255
    2762:	d0 93 0b 39 	sts	0x390B, r29	; 0x80390b <number.3941>

        if (responseList == 0) {
    2766:	c1 11       	cpse	r28, r1
    2768:	06 c0       	rjmp	.+12     	; 0x2776 <CheckResponse+0x76>
            //effect = currObj.byteField[EFFECTS];
            RXCNT = 0;
    276a:	1d ba       	out	0x1d, r1	; 29
            serRxDone = 0;
    276c:	10 92 4a 38 	sts	0x384A, r1	; 0x80384a <serRxDone>
            number = 0;
    2770:	10 92 0b 39 	sts	0x390B, r1	; 0x80390b <number.3941>
    2774:	01 c0       	rjmp	.+2      	; 0x2778 <CheckResponse+0x78>
            return 0;
        }
        return 1;
    2776:	c1 e0       	ldi	r28, 0x01	; 1
    }
    return 0;
}
    2778:	8c 2f       	mov	r24, r28
    277a:	df 91       	pop	r29
    277c:	cf 91       	pop	r28
    277e:	08 95       	ret

00002780 <CheckInput>:

//User input check (and validation)
uint8_t CheckInput(uint8_t *data){
    2780:	aa e0       	ldi	r26, 0x0A	; 10
    2782:	b0 e0       	ldi	r27, 0x00	; 0
    2784:	e6 ec       	ldi	r30, 0xC6	; 198
    2786:	f3 e1       	ldi	r31, 0x13	; 19
    2788:	0c 94 11 1f 	jmp	0x3e22	; 0x3e22 <__prologue_saves__+0x6>
    278c:	8c 01       	movw	r16, r24
    
    //Load game data after reboot
    if (currDepth == 0xff) {
    278e:	80 91 34 38 	lds	r24, 0x3834	; 0x803834 <currDepth>
    2792:	8f 3f       	cpi	r24, 0xFF	; 255
    2794:	49 f4       	brne	.+18     	; 0x27a8 <CheckInput+0x28>
        //Start at first location
        PopulateObject(route[0], &currObj);
    2796:	61 e2       	ldi	r22, 0x21	; 33
    2798:	7a e3       	ldi	r23, 0x3A	; 58
    279a:	80 91 e1 39 	lds	r24, 0x39E1	; 0x8039e1 <route>
    279e:	90 91 e2 39 	lds	r25, 0x39E2	; 0x8039e2 <route+0x1>
    27a2:	09 de       	rcall	.-1006   	; 0x23b6 <PopulateObject>
        currDepth = 0;
    27a4:	10 92 34 38 	sts	0x3834, r1	; 0x803834 <currDepth>
    }

    if (serRxDone){
    27a8:	80 91 4a 38 	lds	r24, 0x384A	; 0x80384a <serRxDone>
    27ac:	88 23       	and	r24, r24
    27ae:	09 f4       	brne	.+2      	; 0x27b2 <CheckInput+0x32>
    27b0:	d4 c1       	rjmp	.+936    	; 0x2b5a <CheckInput+0x3da>

        //Special input requested from user by game
        if (specialInput[0]){
    27b2:	80 91 10 39 	lds	r24, 0x3910	; 0x803910 <specialInput>
    27b6:	88 23       	and	r24, r24
    27b8:	09 f4       	brne	.+2      	; 0x27bc <CheckInput+0x3c>
    27ba:	4f c0       	rjmp	.+158    	; 0x285a <CheckInput+0xda>
            specialPassed = 0;
    27bc:	10 92 0f 39 	sts	0x390F, r1	; 0x80390f <specialPassed>
            data[0] = 'a';
    27c0:	81 e6       	ldi	r24, 0x61	; 97
    27c2:	f8 01       	movw	r30, r16
    27c4:	80 83       	st	Z, r24
            
            //Normal code challenge
            if (StartsWith((uint8_t *)&serRx[0], &specialInput[0])) {
    27c6:	60 e1       	ldi	r22, 0x10	; 16
    27c8:	79 e3       	ldi	r23, 0x39	; 57
    27ca:	8b e7       	ldi	r24, 0x7B	; 123
    27cc:	9a e3       	ldi	r25, 0x3A	; 58
    27ce:	20 dd       	rcall	.-1472   	; 0x2210 <StartsWith>
    27d0:	f8 2e       	mov	r15, r24
    27d2:	88 23       	and	r24, r24
    27d4:	21 f0       	breq	.+8      	; 0x27de <CheckInput+0x5e>
                specialPassed = 1;
    27d6:	81 e0       	ldi	r24, 0x01	; 1
    27d8:	80 93 0f 39 	sts	0x390F, r24	; 0x80390f <specialPassed>
    27dc:	04 c0       	rjmp	.+8      	; 0x27e6 <CheckInput+0x66>

            //Special challenge 1
            } else if ((specialInput[0] == '1')&&(specialInput[2] == 0)) {
    27de:	80 91 10 39 	lds	r24, 0x3910	; 0x803910 <specialInput>
    27e2:	81 33       	cpi	r24, 0x31	; 49
    27e4:	11 f0       	breq	.+4      	; 0x27ea <CheckInput+0x6a>
                responseList = SetStandardResponse((3*MAX_CHEATS));
                return 1;
            }
        } 
        //Data received, but not any of the commands above
        return 0;
    27e6:	f1 2c       	mov	r15, r1
    27e8:	ba c1       	rjmp	.+884    	; 0x2b5e <CheckInput+0x3de>
            //Normal code challenge
            if (StartsWith((uint8_t *)&serRx[0], &specialInput[0])) {
                specialPassed = 1;

            //Special challenge 1
            } else if ((specialInput[0] == '1')&&(specialInput[2] == 0)) {
    27ea:	80 91 12 39 	lds	r24, 0x3912	; 0x803912 <specialInput+0x2>
    27ee:	81 11       	cpse	r24, r1
    27f0:	fa cf       	rjmp	.-12     	; 0x27e6 <CheckInput+0x66>
                uint8_t inputLen = CleanInput((uint8_t *)&serRx[0]);
    27f2:	8b e7       	ldi	r24, 0x7B	; 123
    27f4:	9a e3       	ldi	r25, 0x3A	; 58
    27f6:	0b df       	rcall	.-490    	; 0x260e <CleanInput>
                specialPassed = 2;
    27f8:	92 e0       	ldi	r25, 0x02	; 2
    27fa:	90 93 0f 39 	sts	0x390F, r25	; 0x80390f <specialPassed>
                data[1] = 0;
    27fe:	f8 01       	movw	r30, r16
    2800:	11 82       	std	Z+1, r1	; 0x01

                if (inputLen >= 2) {
    2802:	82 30       	cpi	r24, 0x02	; 2
    2804:	80 f3       	brcs	.-32     	; 0x27e6 <CheckInput+0x66>
                    if ((serRx[0] >= '1') && (serRx[0] <= '4')) {
    2806:	80 91 7b 3a 	lds	r24, 0x3A7B	; 0x803a7b <serRx>
    280a:	81 33       	cpi	r24, 0x31	; 49
    280c:	60 f3       	brcs	.-40     	; 0x27e6 <CheckInput+0x66>
    280e:	80 91 7b 3a 	lds	r24, 0x3A7B	; 0x803a7b <serRx>
    2812:	85 33       	cpi	r24, 0x35	; 53
    2814:	40 f7       	brcc	.-48     	; 0x27e6 <CheckInput+0x66>
                        serRx[1] |= 0x20;
    2816:	80 91 7c 3a 	lds	r24, 0x3A7C	; 0x803a7c <serRx+0x1>
    281a:	80 62       	ori	r24, 0x20	; 32
    281c:	80 93 7c 3a 	sts	0x3A7C, r24	; 0x803a7c <serRx+0x1>
                        if ((serRx[1] == 'a')||(serRx[1] == 'e')||(serRx[1] == 'f')||(serRx[1] == 'w')) {
    2820:	80 91 7c 3a 	lds	r24, 0x3A7C	; 0x803a7c <serRx+0x1>
    2824:	81 36       	cpi	r24, 0x61	; 97
    2826:	61 f0       	breq	.+24     	; 0x2840 <CheckInput+0xc0>
    2828:	80 91 7c 3a 	lds	r24, 0x3A7C	; 0x803a7c <serRx+0x1>
    282c:	85 36       	cpi	r24, 0x65	; 101
    282e:	41 f0       	breq	.+16     	; 0x2840 <CheckInput+0xc0>
    2830:	80 91 7c 3a 	lds	r24, 0x3A7C	; 0x803a7c <serRx+0x1>
    2834:	86 36       	cpi	r24, 0x66	; 102
    2836:	21 f0       	breq	.+8      	; 0x2840 <CheckInput+0xc0>
    2838:	80 91 7c 3a 	lds	r24, 0x3A7C	; 0x803a7c <serRx+0x1>
    283c:	87 37       	cpi	r24, 0x77	; 119
    283e:	99 f6       	brne	.-90     	; 0x27e6 <CheckInput+0x66>
                            data[1] = specialInput[1]+0x11;
    2840:	80 91 11 39 	lds	r24, 0x3911	; 0x803911 <specialInput+0x1>
    2844:	8f 5e       	subi	r24, 0xEF	; 239
    2846:	f8 01       	movw	r30, r16
    2848:	81 83       	std	Z+1, r24	; 0x01
                            data[2] = serRx[0];
    284a:	80 91 7b 3a 	lds	r24, 0x3A7B	; 0x803a7b <serRx>
    284e:	82 83       	std	Z+2, r24	; 0x02
                            data[3] = serRx[1];
    2850:	80 91 7c 3a 	lds	r24, 0x3A7C	; 0x803a7c <serRx+0x1>
    2854:	83 83       	std	Z+3, r24	; 0x03
                            data[4] = 0;
    2856:	14 82       	std	Z+4, r1	; 0x04
    2858:	82 c1       	rjmp	.+772    	; 0x2b5e <CheckInput+0x3de>
        } else {
      
            //SetResponse(0, A_LF, 4, TEASER);

            //Change status bit
            if ((serRx[0] == '#')&&(RXCNT == 6)){
    285a:	80 91 7b 3a 	lds	r24, 0x3A7B	; 0x803a7b <serRx>
    285e:	83 32       	cpi	r24, 0x23	; 35
    2860:	89 f5       	brne	.+98     	; 0x28c4 <CheckInput+0x144>
    2862:	8d b3       	in	r24, 0x1d	; 29
    2864:	86 30       	cpi	r24, 0x06	; 6
    2866:	71 f5       	brne	.+92     	; 0x28c4 <CheckInput+0x144>
    2868:	81 e0       	ldi	r24, 0x01	; 1
    286a:	90 e0       	ldi	r25, 0x00	; 0
    286c:	10 e0       	ldi	r17, 0x00	; 0
                uint8_t bitNr = 0;

                for (uint8_t x=1; x<4; ++x) {
                    serRx[x] -= '0';
    286e:	fc 01       	movw	r30, r24
    2870:	e5 58       	subi	r30, 0x85	; 133
    2872:	f5 4c       	sbci	r31, 0xC5	; 197
    2874:	20 81       	ld	r18, Z
    2876:	20 53       	subi	r18, 0x30	; 48
    2878:	20 83       	st	Z, r18
                    bitNr *= 10;
    287a:	11 0f       	add	r17, r17
    287c:	21 2f       	mov	r18, r17
    287e:	22 0f       	add	r18, r18
    2880:	22 0f       	add	r18, r18
    2882:	12 0f       	add	r17, r18
                    if (serRx[1] > 2) break;
    2884:	20 91 7c 3a 	lds	r18, 0x3A7C	; 0x803a7c <serRx+0x1>
    2888:	23 30       	cpi	r18, 0x03	; 3
    288a:	48 f4       	brcc	.+18     	; 0x289e <CheckInput+0x11e>
                    if (serRx[x] < 10) {
    288c:	20 81       	ld	r18, Z
    288e:	2a 30       	cpi	r18, 0x0A	; 10
    2890:	b8 f4       	brcc	.+46     	; 0x28c0 <CheckInput+0x140>
                        bitNr += serRx[x];
    2892:	20 81       	ld	r18, Z
    2894:	12 0f       	add	r17, r18
    2896:	01 96       	adiw	r24, 0x01	; 1

            //Change status bit
            if ((serRx[0] == '#')&&(RXCNT == 6)){
                uint8_t bitNr = 0;

                for (uint8_t x=1; x<4; ++x) {
    2898:	84 30       	cpi	r24, 0x04	; 4
    289a:	91 05       	cpc	r25, r1
    289c:	41 f7       	brne	.-48     	; 0x286e <CheckInput+0xee>
                        continue;
                    }
                    bitNr = 0;
                    break;
                }
                if ((bitNr)&&(bitNr!=128)) {
    289e:	81 2f       	mov	r24, r17
    28a0:	8f 77       	andi	r24, 0x7F	; 127
    28a2:	71 f0       	breq	.+28     	; 0x28c0 <CheckInput+0x140>
                    if (Cheat(0xff-bitNr, serRx[4]<<8|serRx[5])) UpdateState(bitNr);
    28a4:	80 91 7f 3a 	lds	r24, 0x3A7F	; 0x803a7f <serRx+0x4>
    28a8:	60 91 80 3a 	lds	r22, 0x3A80	; 0x803a80 <serRx+0x5>
    28ac:	70 e0       	ldi	r23, 0x00	; 0
    28ae:	78 2b       	or	r23, r24
    28b0:	81 2f       	mov	r24, r17
    28b2:	80 95       	com	r24
    28b4:	5d dc       	rcall	.-1862   	; 0x2170 <Cheat>
    28b6:	88 23       	and	r24, r24
    28b8:	19 f0       	breq	.+6      	; 0x28c0 <CheckInput+0x140>
    28ba:	81 2f       	mov	r24, r17
    28bc:	0e 94 ec 09 	call	0x13d8	; 0x13d8 <UpdateState>
                }
                
                responseList = SetStandardResponse(1);
    28c0:	81 e0       	ldi	r24, 0x01	; 1
    28c2:	48 c1       	rjmp	.+656    	; 0x2b54 <CheckInput+0x3d4>
    28c4:	d8 01       	movw	r26, r16
    28c6:	80 e0       	ldi	r24, 0x00	; 0
    28c8:	90 e0       	ldi	r25, 0x00	; 0
                return 1;            
            }
            
            //Read up to the \0 character and convert to lower case.
            for (uint8_t x=0; x<RXLEN; ++x){
                if ((serRx[x]<'A')||(serRx[x]>'Z')) data[x]=serRx[x]; else data[x]=serRx[x]|0x20;
    28ca:	fc 01       	movw	r30, r24
    28cc:	e5 58       	subi	r30, 0x85	; 133
    28ce:	f5 4c       	sbci	r31, 0xC5	; 197
    28d0:	20 81       	ld	r18, Z
    28d2:	21 34       	cpi	r18, 0x41	; 65
    28d4:	18 f0       	brcs	.+6      	; 0x28dc <CheckInput+0x15c>
    28d6:	20 81       	ld	r18, Z
    28d8:	2b 35       	cpi	r18, 0x5B	; 91
    28da:	10 f0       	brcs	.+4      	; 0x28e0 <CheckInput+0x160>
    28dc:	20 81       	ld	r18, Z
    28de:	02 c0       	rjmp	.+4      	; 0x28e4 <CheckInput+0x164>
    28e0:	20 81       	ld	r18, Z
    28e2:	20 62       	ori	r18, 0x20	; 32
    28e4:	2c 93       	st	X, r18
                if (serRx[x] == 0) {
    28e6:	20 81       	ld	r18, Z
    28e8:	21 11       	cpse	r18, r1
    28ea:	05 c0       	rjmp	.+10     	; 0x28f6 <CheckInput+0x176>
                    data[x] = 0;
    28ec:	f8 01       	movw	r30, r16
    28ee:	e8 0f       	add	r30, r24
    28f0:	f1 1d       	adc	r31, r1
    28f2:	10 82       	st	Z, r1
                    break;
    28f4:	05 c0       	rjmp	.+10     	; 0x2900 <CheckInput+0x180>
    28f6:	01 96       	adiw	r24, 0x01	; 1
    28f8:	11 96       	adiw	r26, 0x01	; 1
                
                return 1;            
            }
            
            //Read up to the \0 character and convert to lower case.
            for (uint8_t x=0; x<RXLEN; ++x){
    28fa:	81 34       	cpi	r24, 0x41	; 65
    28fc:	91 05       	cpc	r25, r1
    28fe:	29 f7       	brne	.-54     	; 0x28ca <CheckInput+0x14a>
                    break;
                }
            }

            //No text
            if (serRx[0] == 0){
    2900:	80 91 7b 3a 	lds	r24, 0x3A7B	; 0x803a7b <serRx>
                data[0] = 0;
    2904:	f8 01       	movw	r30, r16
                    break;
                }
            }

            //No text
            if (serRx[0] == 0){
    2906:	81 11       	cpse	r24, r1
    2908:	05 c0       	rjmp	.+10     	; 0x2914 <CheckInput+0x194>
                data[0] = 0;
    290a:	10 82       	st	Z, r1
                RXCNT = 0;
    290c:	1d ba       	out	0x1d, r1	; 29
                serRxDone = 0;
    290e:	10 92 4a 38 	sts	0x384A, r1	; 0x80384a <serRxDone>
    2912:	23 c1       	rjmp	.+582    	; 0x2b5a <CheckInput+0x3da>
                return 1;
            }

            //Help text
            if ((data[0] == '?')||(data[0] == 'h')){
    2914:	80 81       	ld	r24, Z
    2916:	8f 33       	cpi	r24, 0x3F	; 63
    2918:	11 f0       	breq	.+4      	; 0x291e <CheckInput+0x19e>
    291a:	88 36       	cpi	r24, 0x68	; 104
    291c:	49 f4       	brne	.+18     	; 0x2930 <CheckInput+0x1b0>
    return 0;
}

//
void SetResponse(uint8_t number, uint16_t address, uint16_t length, uint8_t type){
    reactStr[0][number]=address;
    291e:	83 e9       	ldi	r24, 0x93	; 147
    2920:	9b e7       	ldi	r25, 0x7B	; 123
    2922:	80 93 23 39 	sts	0x3923, r24	; 0x803923 <reactStr+0x2>
    2926:	90 93 24 39 	sts	0x3924, r25	; 0x803924 <reactStr+0x3>
    reactStr[1][number]=length;
    292a:	8d e6       	ldi	r24, 0x6D	; 109
    292c:	94 e0       	ldi	r25, 0x04	; 4
    292e:	0a c0       	rjmp	.+20     	; 0x2944 <CheckInput+0x1c4>
                responseList = SetStandardResponse(2);
                return 1;
            }        
        
            //Alphabet text
            if (data[0] == 'a'){
    2930:	81 36       	cpi	r24, 0x61	; 97
    2932:	a1 f4       	brne	.+40     	; 0x295c <CheckInput+0x1dc>
    return 0;
}

//
void SetResponse(uint8_t number, uint16_t address, uint16_t length, uint8_t type){
    reactStr[0][number]=address;
    2934:	8e e6       	ldi	r24, 0x6E	; 110
    2936:	9a e7       	ldi	r25, 0x7A	; 122
    2938:	80 93 23 39 	sts	0x3923, r24	; 0x803923 <reactStr+0x2>
    293c:	90 93 24 39 	sts	0x3924, r25	; 0x803924 <reactStr+0x3>
    reactStr[1][number]=length;
    2940:	85 e2       	ldi	r24, 0x25	; 37
    2942:	91 e0       	ldi	r25, 0x01	; 1
    2944:	80 93 63 39 	sts	0x3963, r24	; 0x803963 <reactStr+0x42>
    2948:	90 93 64 39 	sts	0x3964, r25	; 0x803964 <reactStr+0x43>
    reactStr[2][number]=type;
    294c:	81 e0       	ldi	r24, 0x01	; 1
    294e:	90 e0       	ldi	r25, 0x00	; 0
    2950:	80 93 a3 39 	sts	0x39A3, r24	; 0x8039a3 <reactStr+0x82>
    2954:	90 93 a4 39 	sts	0x39A4, r25	; 0x8039a4 <reactStr+0x83>
            }        
        
            //Alphabet text
            if (data[0] == 'a'){
                SetResponse(1, A_ALPHABET, L_ALPHABET, TEASER);
                responseList = SetStandardResponse(2);
    2958:	82 e0       	ldi	r24, 0x02	; 2
    295a:	fc c0       	rjmp	.+504    	; 0x2b54 <CheckInput+0x3d4>
                return 1;
            }

            //Whoami text
            if (data[0] == 'w'){
    295c:	87 37       	cpi	r24, 0x77	; 119
    295e:	09 f0       	breq	.+2      	; 0x2962 <CheckInput+0x1e2>
    2960:	41 c0       	rjmp	.+130    	; 0x29e4 <CheckInput+0x264>
    return 0;
}

//
void SetResponse(uint8_t number, uint16_t address, uint16_t length, uint8_t type){
    reactStr[0][number]=address;
    2962:	8d e8       	ldi	r24, 0x8D	; 141
    2964:	96 e7       	ldi	r25, 0x76	; 118
    2966:	80 93 23 39 	sts	0x3923, r24	; 0x803923 <reactStr+0x2>
    296a:	90 93 24 39 	sts	0x3924, r25	; 0x803924 <reactStr+0x3>
    reactStr[1][number]=length;
    296e:	82 e1       	ldi	r24, 0x12	; 18
    2970:	90 e0       	ldi	r25, 0x00	; 0
    2972:	80 93 63 39 	sts	0x3963, r24	; 0x803963 <reactStr+0x42>
    2976:	90 93 64 39 	sts	0x3964, r25	; 0x803964 <reactStr+0x43>
    reactStr[2][number]=type;
    297a:	21 e0       	ldi	r18, 0x01	; 1
    297c:	30 e0       	ldi	r19, 0x00	; 0
    297e:	20 93 a3 39 	sts	0x39A3, r18	; 0x8039a3 <reactStr+0x82>
    2982:	30 93 a4 39 	sts	0x39A4, r19	; 0x8039a4 <reactStr+0x83>
            }

            //Whoami text
            if (data[0] == 'w'){
                SetResponse(1, A_HELLO, L_HELLO, TEASER);
                SetResponse(2, names[0][whoami-1], names[1][whoami-1], TEASER);
    2986:	80 91 43 38 	lds	r24, 0x3843	; 0x803843 <whoami>
    298a:	90 e0       	ldi	r25, 0x00	; 0
    298c:	fc 01       	movw	r30, r24
    298e:	ee 0f       	add	r30, r30
    2990:	ff 1f       	adc	r31, r31
    2992:	ec 5c       	subi	r30, 0xCC	; 204
    2994:	f0 44       	sbci	r31, 0x40	; 64
    2996:	40 81       	ld	r20, Z
    2998:	51 81       	ldd	r21, Z+1	; 0x01
    299a:	88 0f       	add	r24, r24
    299c:	99 1f       	adc	r25, r25
    299e:	fc 01       	movw	r30, r24
    29a0:	e4 5d       	subi	r30, 0xD4	; 212
    29a2:	f0 44       	sbci	r31, 0x40	; 64
    return 0;
}

//
void SetResponse(uint8_t number, uint16_t address, uint16_t length, uint8_t type){
    reactStr[0][number]=address;
    29a4:	80 81       	ld	r24, Z
    29a6:	91 81       	ldd	r25, Z+1	; 0x01
    29a8:	80 93 25 39 	sts	0x3925, r24	; 0x803925 <reactStr+0x4>
    29ac:	90 93 26 39 	sts	0x3926, r25	; 0x803926 <reactStr+0x5>
    reactStr[1][number]=length;
    29b0:	40 93 65 39 	sts	0x3965, r20	; 0x803965 <reactStr+0x44>
    29b4:	50 93 66 39 	sts	0x3966, r21	; 0x803966 <reactStr+0x45>
    reactStr[2][number]=type;
    29b8:	20 93 a5 39 	sts	0x39A5, r18	; 0x8039a5 <reactStr+0x84>
    29bc:	30 93 a6 39 	sts	0x39A6, r19	; 0x8039a6 <reactStr+0x85>
    return 0;
}

//
void SetResponse(uint8_t number, uint16_t address, uint16_t length, uint8_t type){
    reactStr[0][number]=address;
    29c0:	8f e5       	ldi	r24, 0x5F	; 95
    29c2:	96 e7       	ldi	r25, 0x76	; 118
    29c4:	80 93 27 39 	sts	0x3927, r24	; 0x803927 <reactStr+0x6>
    29c8:	90 93 28 39 	sts	0x3928, r25	; 0x803928 <reactStr+0x7>
    reactStr[1][number]=length;
    29cc:	8a e1       	ldi	r24, 0x1A	; 26
    29ce:	90 e0       	ldi	r25, 0x00	; 0
    29d0:	80 93 67 39 	sts	0x3967, r24	; 0x803967 <reactStr+0x46>
    29d4:	90 93 68 39 	sts	0x3968, r25	; 0x803968 <reactStr+0x47>
    reactStr[2][number]=type;
    29d8:	20 93 a7 39 	sts	0x39A7, r18	; 0x8039a7 <reactStr+0x86>
    29dc:	30 93 a8 39 	sts	0x39A8, r19	; 0x8039a8 <reactStr+0x87>
                } else {
                    SetResponse(2, A_ERROR, L_ERROR, TEASER);
                }*/

                SetResponse(3, A_PLEASED, L_PLEASED, TEASER);
                responseList = SetStandardResponse(4);
    29e0:	84 e0       	ldi	r24, 0x04	; 4
                responseList = SetStandardResponse(2);
                return 1;
            }*/

            //Fake cheat = reset badge!
            if (StartsWith(&data[0], "iddqd")){
    29e2:	b8 c0       	rjmp	.+368    	; 0x2b54 <CheckInput+0x3d4>
    29e4:	6a e0       	ldi	r22, 0x0A	; 10
    29e6:	7f eb       	ldi	r23, 0xBF	; 191
    29e8:	c8 01       	movw	r24, r16
    29ea:	12 dc       	rcall	.-2012   	; 0x2210 <StartsWith>
    29ec:	88 23       	and	r24, r24
    29ee:	19 f1       	breq	.+70     	; 0x2a36 <CheckInput+0x2b6>
            
                //Reset game data by wiping the UUID bits
                for (uint8_t x=0; x<4; ++x){
                    UpdateState(128+110+x);
    29f0:	8e ee       	ldi	r24, 0xEE	; 238
    29f2:	0e 94 ec 09 	call	0x13d8	; 0x13d8 <UpdateState>
    29f6:	8f ee       	ldi	r24, 0xEF	; 239
    29f8:	0e 94 ec 09 	call	0x13d8	; 0x13d8 <UpdateState>
    29fc:	80 ef       	ldi	r24, 0xF0	; 240
    29fe:	0e 94 ec 09 	call	0x13d8	; 0x13d8 <UpdateState>
    2a02:	81 ef       	ldi	r24, 0xF1	; 241
    2a04:	0e 94 ec 09 	call	0x13d8	; 0x13d8 <UpdateState>
                }
                SaveGameState();
    2a08:	0e 94 65 09 	call	0x12ca	; 0x12ca <SaveGameState>

                uint8_t cheat[] = "Gotcha! ";
    2a0c:	89 e0       	ldi	r24, 0x09	; 9
    2a0e:	ed e1       	ldi	r30, 0x1D	; 29
    2a10:	ff eb       	ldi	r31, 0xBF	; 191
    2a12:	de 01       	movw	r26, r28
    2a14:	11 96       	adiw	r26, 0x01	; 1
    2a16:	01 90       	ld	r0, Z+
    2a18:	0d 92       	st	X+, r0
    2a1a:	8a 95       	dec	r24
    2a1c:	e1 f7       	brne	.-8      	; 0x2a16 <CheckInput+0x296>
                SerSpeed(60);
    2a1e:	8c e3       	ldi	r24, 0x3C	; 60
    2a20:	0e 94 89 08 	call	0x1112	; 0x1112 <SerSpeed>
                while(1){
                    if (serTxDone) SerSend(&cheat[0]);
    2a24:	80 91 09 38 	lds	r24, 0x3809	; 0x803809 <serTxDone>
    2a28:	88 23       	and	r24, r24
    2a2a:	e1 f3       	breq	.-8      	; 0x2a24 <CheckInput+0x2a4>
    2a2c:	ce 01       	movw	r24, r28
    2a2e:	01 96       	adiw	r24, 0x01	; 1
    2a30:	0e 94 78 08 	call	0x10f0	; 0x10f0 <SerSend>
                }
            }
            
            //Cheat reset
            if (StartsWith(&data[0], "ikillu")){
    2a34:	f7 cf       	rjmp	.-18     	; 0x2a24 <CheckInput+0x2a4>
    2a36:	60 e1       	ldi	r22, 0x10	; 16
    2a38:	7f eb       	ldi	r23, 0xBF	; 191
    2a3a:	c8 01       	movw	r24, r16
    2a3c:	e9 db       	rcall	.-2094   	; 0x2210 <StartsWith>
    2a3e:	88 23       	and	r24, r24
    2a40:	81 f1       	breq	.+96     	; 0x2aa2 <CheckInput+0x322>
                
                //Reset cheat data by resetting the EEPROM bytes
                uint8_t empty=0xff;
    2a42:	8f ef       	ldi	r24, 0xFF	; 255
    2a44:	8a 87       	std	Y+10, r24	; 0x0a
    2a46:	18 e1       	ldi	r17, 0x18	; 24
                for (uint8_t x=0; x<MAX_CHEATS; ++x){
                    EEWrite(CHEATS+x, &empty, 1);
    2a48:	41 e0       	ldi	r20, 0x01	; 1
    2a4a:	be 01       	movw	r22, r28
    2a4c:	66 5f       	subi	r22, 0xF6	; 246
    2a4e:	7f 4f       	sbci	r23, 0xFF	; 255
    2a50:	81 2f       	mov	r24, r17
    2a52:	0e 94 14 08 	call	0x1028	; 0x1028 <EEWrite>
    2a56:	1f 5f       	subi	r17, 0xFF	; 255
            //Cheat reset
            if (StartsWith(&data[0], "ikillu")){
                
                //Reset cheat data by resetting the EEPROM bytes
                uint8_t empty=0xff;
                for (uint8_t x=0; x<MAX_CHEATS; ++x){
    2a58:	10 32       	cpi	r17, 0x20	; 32
    2a5a:	b1 f7       	brne	.-20     	; 0x2a48 <CheckInput+0x2c8>
                    EEWrite(CHEATS+x, &empty, 1);
                }
                //Reset game data by wiping the UUID bits
                for (uint8_t x=0; x<4; ++x){
                    UpdateState(128+110+x);
    2a5c:	8e ee       	ldi	r24, 0xEE	; 238
    2a5e:	0e 94 ec 09 	call	0x13d8	; 0x13d8 <UpdateState>
    2a62:	8f ee       	ldi	r24, 0xEF	; 239
    2a64:	0e 94 ec 09 	call	0x13d8	; 0x13d8 <UpdateState>
    2a68:	80 ef       	ldi	r24, 0xF0	; 240
    2a6a:	0e 94 ec 09 	call	0x13d8	; 0x13d8 <UpdateState>
    2a6e:	81 ef       	ldi	r24, 0xF1	; 241
    2a70:	0e 94 ec 09 	call	0x13d8	; 0x13d8 <UpdateState>
                }
                
                SaveGameState();
    2a74:	0e 94 65 09 	call	0x12ca	; 0x12ca <SaveGameState>

                uint8_t cheat[] = "Reset! ";
    2a78:	88 e0       	ldi	r24, 0x08	; 8
    2a7a:	e6 e2       	ldi	r30, 0x26	; 38
    2a7c:	ff eb       	ldi	r31, 0xBF	; 191
    2a7e:	de 01       	movw	r26, r28
    2a80:	11 96       	adiw	r26, 0x01	; 1
    2a82:	01 90       	ld	r0, Z+
    2a84:	0d 92       	st	X+, r0
    2a86:	8a 95       	dec	r24
    2a88:	e1 f7       	brne	.-8      	; 0x2a82 <CheckInput+0x302>
                SerSpeed(60);
    2a8a:	8c e3       	ldi	r24, 0x3C	; 60
    2a8c:	0e 94 89 08 	call	0x1112	; 0x1112 <SerSpeed>
                while(1){
                    if (serTxDone) SerSend(&cheat[0]);
    2a90:	80 91 09 38 	lds	r24, 0x3809	; 0x803809 <serTxDone>
    2a94:	88 23       	and	r24, r24
    2a96:	e1 f3       	breq	.-8      	; 0x2a90 <CheckInput+0x310>
    2a98:	ce 01       	movw	r24, r28
    2a9a:	01 96       	adiw	r24, 0x01	; 1
    2a9c:	0e 94 78 08 	call	0x10f0	; 0x10f0 <SerSend>
                }
            }

            //Show used cheat codes
            if (StartsWith(&data[0], "cheat")){
    2aa0:	f7 cf       	rjmp	.-18     	; 0x2a90 <CheckInput+0x310>
    2aa2:	67 e1       	ldi	r22, 0x17	; 23
    2aa4:	7f eb       	ldi	r23, 0xBF	; 191
    2aa6:	c8 01       	movw	r24, r16
    2aa8:	b3 db       	rcall	.-2202   	; 0x2210 <StartsWith>
    2aaa:	88 23       	and	r24, r24
    2aac:	09 f4       	brne	.+2      	; 0x2ab0 <CheckInput+0x330>
    2aae:	9b ce       	rjmp	.-714    	; 0x27e6 <CheckInput+0x66>
    2ab0:	81 e2       	ldi	r24, 0x21	; 33
    2ab2:	c8 2e       	mov	r12, r24
    2ab4:	89 e3       	ldi	r24, 0x39	; 57
    2ab6:	d8 2e       	mov	r13, r24
    2ab8:	91 e6       	ldi	r25, 0x61	; 97
    2aba:	e9 2e       	mov	r14, r25
    2abc:	99 e3       	ldi	r25, 0x39	; 57
    2abe:	f9 2e       	mov	r15, r25
    2ac0:	01 ea       	ldi	r16, 0xA1	; 161
    2ac2:	19 e3       	ldi	r17, 0x39	; 57
    2ac4:	28 e1       	ldi	r18, 0x18	; 24
    2ac6:	52 2e       	mov	r5, r18
}

//
void SetResponse(uint8_t number, uint16_t address, uint16_t length, uint8_t type){
    reactStr[0][number]=address;
    reactStr[1][number]=length;
    2ac8:	aa 24       	eor	r10, r10
    2aca:	a3 94       	inc	r10
    2acc:	b1 2c       	mov	r11, r1
    return 0;
}

//
void SetResponse(uint8_t number, uint16_t address, uint16_t length, uint8_t type){
    reactStr[0][number]=address;
    2ace:	47 e5       	ldi	r20, 0x57	; 87
    2ad0:	84 2e       	mov	r8, r20
    2ad2:	4a e7       	ldi	r20, 0x7A	; 122
    2ad4:	94 2e       	mov	r9, r20
    reactStr[1][number]=length;
    2ad6:	52 e0       	ldi	r21, 0x02	; 2
    2ad8:	65 2e       	mov	r6, r21
    2ada:	71 2c       	mov	r7, r1
            if (StartsWith(&data[0], "cheat")){
                uint8_t bit;
                for (uint8_t x=0; x<MAX_CHEATS; ++x){
                    
                    //Set up sending out number
                    EERead(CHEATS+x, &bit, 1);
    2adc:	41 e0       	ldi	r20, 0x01	; 1
    2ade:	be 01       	movw	r22, r28
    2ae0:	6f 5f       	subi	r22, 0xFF	; 255
    2ae2:	7f 4f       	sbci	r23, 0xFF	; 255
    2ae4:	85 2d       	mov	r24, r5
    2ae6:	0e 94 04 08 	call	0x1008	; 0x1008 <EERead>
                    bit = 0xff-bit;
    2aea:	89 81       	ldd	r24, Y+1	; 0x01
    2aec:	80 95       	com	r24
    2aee:	89 83       	std	Y+1, r24	; 0x01
    return 0;
}

//
void SetResponse(uint8_t number, uint16_t address, uint16_t length, uint8_t type){
    reactStr[0][number]=address;
    2af0:	28 2f       	mov	r18, r24
    2af2:	22 95       	swap	r18
    2af4:	2f 70       	andi	r18, 0x0F	; 15
    2af6:	30 e0       	ldi	r19, 0x00	; 0
    2af8:	23 57       	subi	r18, 0x73	; 115
    2afa:	3b 48       	sbci	r19, 0x8B	; 139
    2afc:	f6 01       	movw	r30, r12
    2afe:	20 83       	st	Z, r18
    2b00:	31 83       	std	Z+1, r19	; 0x01
    reactStr[1][number]=length;
    2b02:	f7 01       	movw	r30, r14
    2b04:	a0 82       	st	Z, r10
    2b06:	b1 82       	std	Z+1, r11	; 0x01
    reactStr[2][number]=type;
    2b08:	f8 01       	movw	r30, r16
    2b0a:	a0 82       	st	Z, r10
    2b0c:	b1 82       	std	Z+1, r11	; 0x01
    return 0;
}

//
void SetResponse(uint8_t number, uint16_t address, uint16_t length, uint8_t type){
    reactStr[0][number]=address;
    2b0e:	8f 70       	andi	r24, 0x0F	; 15
    2b10:	90 e0       	ldi	r25, 0x00	; 0
    2b12:	83 57       	subi	r24, 0x73	; 115
    2b14:	9b 48       	sbci	r25, 0x8B	; 139
    2b16:	f6 01       	movw	r30, r12
    2b18:	82 83       	std	Z+2, r24	; 0x02
    2b1a:	93 83       	std	Z+3, r25	; 0x03
    reactStr[1][number]=length;
    2b1c:	f7 01       	movw	r30, r14
    2b1e:	a2 82       	std	Z+2, r10	; 0x02
    2b20:	b3 82       	std	Z+3, r11	; 0x03
    reactStr[2][number]=type;
    2b22:	f8 01       	movw	r30, r16
    2b24:	a2 82       	std	Z+2, r10	; 0x02
    2b26:	b3 82       	std	Z+3, r11	; 0x03
    return 0;
}

//
void SetResponse(uint8_t number, uint16_t address, uint16_t length, uint8_t type){
    reactStr[0][number]=address;
    2b28:	f6 01       	movw	r30, r12
    2b2a:	84 82       	std	Z+4, r8	; 0x04
    2b2c:	95 82       	std	Z+5, r9	; 0x05
    reactStr[1][number]=length;
    2b2e:	f7 01       	movw	r30, r14
    2b30:	64 82       	std	Z+4, r6	; 0x04
    2b32:	75 82       	std	Z+5, r7	; 0x05
    reactStr[2][number]=type;
    2b34:	f8 01       	movw	r30, r16
    2b36:	a4 82       	std	Z+4, r10	; 0x04
    2b38:	b5 82       	std	Z+5, r11	; 0x05
    2b3a:	53 94       	inc	r5
    2b3c:	f6 e0       	ldi	r31, 0x06	; 6
    2b3e:	cf 0e       	add	r12, r31
    2b40:	d1 1c       	adc	r13, r1
    2b42:	86 e0       	ldi	r24, 0x06	; 6
    2b44:	e8 0e       	add	r14, r24
    2b46:	f1 1c       	adc	r15, r1
    2b48:	0a 5f       	subi	r16, 0xFA	; 250
            }

            //Show used cheat codes
            if (StartsWith(&data[0], "cheat")){
                uint8_t bit;
                for (uint8_t x=0; x<MAX_CHEATS; ++x){
    2b4a:	1f 4f       	sbci	r17, 0xFF	; 255
    2b4c:	e0 e2       	ldi	r30, 0x20	; 32
    2b4e:	5e 12       	cpse	r5, r30
                    //SetResponse(x*4, A_HEXPREFIX, L_HEXPREFIX, TEASER);
                    SetResponse(x*3, A_DIGITS+(bit>>4), 1, TEASER);               
                    SetResponse(x*3+1, A_DIGITS+(bit%16), 1, TEASER);
                    SetResponse(x*3+2, A_COMMA, L_COMMA, TEASER);
                }
                responseList = SetStandardResponse((3*MAX_CHEATS));
    2b50:	c5 cf       	rjmp	.-118    	; 0x2adc <CheckInput+0x35c>
    2b52:	88 e1       	ldi	r24, 0x18	; 24
    2b54:	b4 db       	rcall	.-2200   	; 0x22be <SetStandardResponse>
    2b56:	80 93 20 39 	sts	0x3920, r24	; 0x803920 <responseList>
        //Data received, but not any of the commands above
        return 0;
    }

    //Serial input not available yet
    return 1;
    2b5a:	ff 24       	eor	r15, r15
    2b5c:	f3 94       	inc	r15
}
    2b5e:	8f 2d       	mov	r24, r15
    2b60:	2a 96       	adiw	r28, 0x0a	; 10
    2b62:	ef e0       	ldi	r30, 0x0F	; 15
    2b64:	0c 94 2a 1f 	jmp	0x3e54	; 0x3e54 <__epilogue_restores__+0x6>

00002b68 <ShowInventory>:

uint8_t ShowInventory(uint8_t elements){
    2b68:	ab e2       	ldi	r26, 0x2B	; 43
    2b6a:	b0 e0       	ldi	r27, 0x00	; 0
    2b6c:	ea eb       	ldi	r30, 0xBA	; 186
    2b6e:	f5 e1       	ldi	r31, 0x15	; 21
    2b70:	0c 94 15 1f 	jmp	0x3e2a	; 0x3e2a <__prologue_saves__+0xe>
    object_model_t actObj1;

    SetResponse(elements++, A_NOWCARRING, L_NOWCARRING, TEASER);
    2b74:	99 24       	eor	r9, r9
    2b76:	93 94       	inc	r9
    2b78:	98 0e       	add	r9, r24
    return 0;
}

//
void SetResponse(uint8_t number, uint16_t address, uint16_t length, uint8_t type){
    reactStr[0][number]=address;
    2b7a:	90 e0       	ldi	r25, 0x00	; 0
    2b7c:	fc 01       	movw	r30, r24
    2b7e:	ee 0f       	add	r30, r30
    2b80:	ff 1f       	adc	r31, r31
    2b82:	ef 5d       	subi	r30, 0xDF	; 223
    2b84:	f6 4c       	sbci	r31, 0xC6	; 198
    2b86:	2c ec       	ldi	r18, 0xCC	; 204
    2b88:	37 e7       	ldi	r19, 0x77	; 119
    2b8a:	20 83       	st	Z, r18
    2b8c:	31 83       	std	Z+1, r19	; 0x01
    reactStr[1][number]=length;
    2b8e:	fc 01       	movw	r30, r24
    2b90:	ee 0f       	add	r30, r30
    2b92:	ff 1f       	adc	r31, r31
    2b94:	ef 59       	subi	r30, 0x9F	; 159
    2b96:	f6 4c       	sbci	r31, 0xC6	; 198
    2b98:	26 e1       	ldi	r18, 0x16	; 22
    2b9a:	30 e0       	ldi	r19, 0x00	; 0
    2b9c:	20 83       	st	Z, r18
    2b9e:	31 83       	std	Z+1, r19	; 0x01
    reactStr[2][number]=type;
    2ba0:	88 0f       	add	r24, r24
    2ba2:	99 1f       	adc	r25, r25
    2ba4:	fc 01       	movw	r30, r24
    2ba6:	ef 55       	subi	r30, 0x5F	; 95
    2ba8:	f6 4c       	sbci	r31, 0xC6	; 198
    2baa:	81 e0       	ldi	r24, 0x01	; 1
    2bac:	90 e0       	ldi	r25, 0x00	; 0
    2bae:	80 83       	st	Z, r24
    2bb0:	91 83       	std	Z+1, r25	; 0x01
    2bb2:	04 e4       	ldi	r16, 0x44	; 68
    2bb4:	18 e3       	ldi	r17, 0x38	; 56
    return 0;
}

//
void SetResponse(uint8_t number, uint16_t address, uint16_t length, uint8_t type){
    reactStr[0][number]=address;
    2bb6:	37 e5       	ldi	r19, 0x57	; 87
    2bb8:	e3 2e       	mov	r14, r19
    2bba:	3a e7       	ldi	r19, 0x7A	; 122
    2bbc:	f3 2e       	mov	r15, r19
    reactStr[1][number]=length;
    2bbe:	42 e0       	ldi	r20, 0x02	; 2
    2bc0:	c4 2e       	mov	r12, r20
    2bc2:	d1 2c       	mov	r13, r1
    reactStr[2][number]=type;
    2bc4:	aa 24       	eor	r10, r10
    2bc6:	a3 94       	inc	r10
    2bc8:	b1 2c       	mov	r11, r1
    object_model_t actObj1;

    SetResponse(elements++, A_NOWCARRING, L_NOWCARRING, TEASER);

    for (uint8_t x=0; x<2; ++x) {
        if (inventory[x]) {
    2bca:	f8 01       	movw	r30, r16
    2bcc:	81 91       	ld	r24, Z+
    2bce:	91 91       	ld	r25, Z+
    2bd0:	8f 01       	movw	r16, r30
    2bd2:	00 97       	sbiw	r24, 0x00	; 0
    2bd4:	c9 f1       	breq	.+114    	; 0x2c48 <ShowInventory+0xe0>
            PopulateObject(inventory[x], &actObj1);
    2bd6:	be 01       	movw	r22, r28
    2bd8:	6f 5f       	subi	r22, 0xFF	; 255
    2bda:	7f 4f       	sbci	r23, 0xFF	; 255
    2bdc:	ec db       	rcall	.-2088   	; 0x23b6 <PopulateObject>
            SetResponse(elements++, actObj1.addrStr[NAME], actObj1.lenStr[NAME], GAME);
    2bde:	2b 8d       	ldd	r18, Y+27	; 0x1b
    2be0:	3c 8d       	ldd	r19, Y+28	; 0x1c
    return 0;
}

//
void SetResponse(uint8_t number, uint16_t address, uint16_t length, uint8_t type){
    reactStr[0][number]=address;
    2be2:	89 2d       	mov	r24, r9
    2be4:	90 e0       	ldi	r25, 0x00	; 0
    2be6:	fc 01       	movw	r30, r24
    2be8:	ee 0f       	add	r30, r30
    2bea:	ff 1f       	adc	r31, r31
    2bec:	ef 5d       	subi	r30, 0xDF	; 223
    2bee:	f6 4c       	sbci	r31, 0xC6	; 198
    2bf0:	4d 85       	ldd	r20, Y+13	; 0x0d
    2bf2:	5e 85       	ldd	r21, Y+14	; 0x0e
    2bf4:	40 83       	st	Z, r20
    2bf6:	51 83       	std	Z+1, r21	; 0x01
    reactStr[1][number]=length;
    2bf8:	fc 01       	movw	r30, r24
    2bfa:	ee 0f       	add	r30, r30
    2bfc:	ff 1f       	adc	r31, r31
    2bfe:	ef 59       	subi	r30, 0x9F	; 159
    2c00:	f6 4c       	sbci	r31, 0xC6	; 198
    2c02:	20 83       	st	Z, r18
    2c04:	31 83       	std	Z+1, r19	; 0x01
    reactStr[2][number]=type;
    2c06:	88 0f       	add	r24, r24
    2c08:	99 1f       	adc	r25, r25
    2c0a:	fc 01       	movw	r30, r24
    2c0c:	ef 55       	subi	r30, 0x5F	; 95
    2c0e:	f6 4c       	sbci	r31, 0xC6	; 198
    2c10:	10 82       	st	Z, r1
    2c12:	11 82       	std	Z+1, r1	; 0x01
    return 0;
}

//
void SetResponse(uint8_t number, uint16_t address, uint16_t length, uint8_t type){
    reactStr[0][number]=address;
    2c14:	81 e0       	ldi	r24, 0x01	; 1
    2c16:	89 0d       	add	r24, r9
    2c18:	90 e0       	ldi	r25, 0x00	; 0
    2c1a:	93 94       	inc	r9
    2c1c:	93 94       	inc	r9
    2c1e:	fc 01       	movw	r30, r24
    2c20:	ee 0f       	add	r30, r30
    2c22:	ff 1f       	adc	r31, r31
    2c24:	ef 5d       	subi	r30, 0xDF	; 223
    2c26:	f6 4c       	sbci	r31, 0xC6	; 198
    2c28:	e0 82       	st	Z, r14
    2c2a:	f1 82       	std	Z+1, r15	; 0x01
    reactStr[1][number]=length;
    2c2c:	fc 01       	movw	r30, r24
    2c2e:	ee 0f       	add	r30, r30
    2c30:	ff 1f       	adc	r31, r31
    2c32:	ef 59       	subi	r30, 0x9F	; 159
    2c34:	f6 4c       	sbci	r31, 0xC6	; 198
    2c36:	c0 82       	st	Z, r12
    2c38:	d1 82       	std	Z+1, r13	; 0x01
    reactStr[2][number]=type;
    2c3a:	88 0f       	add	r24, r24
    2c3c:	99 1f       	adc	r25, r25
    2c3e:	fc 01       	movw	r30, r24
    2c40:	ef 55       	subi	r30, 0x5F	; 95
    2c42:	f6 4c       	sbci	r31, 0xC6	; 198
    2c44:	a0 82       	st	Z, r10
    2c46:	b1 82       	std	Z+1, r11	; 0x01
uint8_t ShowInventory(uint8_t elements){
    object_model_t actObj1;

    SetResponse(elements++, A_NOWCARRING, L_NOWCARRING, TEASER);

    for (uint8_t x=0; x<2; ++x) {
    2c48:	f8 e3       	ldi	r31, 0x38	; 56
    2c4a:	08 34       	cpi	r16, 0x48	; 72
    2c4c:	1f 07       	cpc	r17, r31
    2c4e:	09 f0       	breq	.+2      	; 0x2c52 <ShowInventory+0xea>
    2c50:	bc cf       	rjmp	.-136    	; 0x2bca <ShowInventory+0x62>
        }
    }
    elements -= 1;
            
    return elements;
}
    2c52:	8f ef       	ldi	r24, 0xFF	; 255
    2c54:	89 0d       	add	r24, r9
    2c56:	ab 96       	adiw	r28, 0x2b	; 43
    2c58:	eb e0       	ldi	r30, 0x0B	; 11
    2c5a:	0c 94 2e 1f 	jmp	0x3e5c	; 0x3e5c <__epilogue_restores__+0xe>

00002c5e <ProcessInput>:

//The game logic!
uint8_t ProcessInput(uint8_t *data){
    2c5e:	a8 e0       	ldi	r26, 0x08	; 8
    2c60:	b0 e0       	ldi	r27, 0x00	; 0
    2c62:	e5 e3       	ldi	r30, 0x35	; 53
    2c64:	f6 e1       	ldi	r31, 0x16	; 22
    2c66:	0c 94 12 1f 	jmp	0x3e24	; 0x3e24 <__prologue_saves__+0x8>
    2c6a:	3c 01       	movw	r6, r24
    static object_model_t actObj1, actObj2;
    uint8_t elements = 1;

    CleanInput(&data[0]);
    2c6c:	d0 dc       	rcall	.-1632   	; 0x260e <CleanInput>
    uint8_t inputLen = CleanInput(&data[0]);
    2c6e:	c3 01       	movw	r24, r6
    2c70:	ce dc       	rcall	.-1636   	; 0x260e <CleanInput>
    2c72:	f8 2e       	mov	r15, r24
    return 0;
}

//
void SetResponse(uint8_t number, uint16_t address, uint16_t length, uint8_t type){
    reactStr[0][number]=address;
    2c74:	29 e5       	ldi	r18, 0x59	; 89
    2c76:	3a e7       	ldi	r19, 0x7A	; 122
    2c78:	20 93 21 39 	sts	0x3921, r18	; 0x803921 <reactStr>
    2c7c:	30 93 22 39 	sts	0x3922, r19	; 0x803922 <reactStr+0x1>
    reactStr[1][number]=length;
    2c80:	84 e0       	ldi	r24, 0x04	; 4
    2c82:	90 e0       	ldi	r25, 0x00	; 0
    2c84:	80 93 61 39 	sts	0x3961, r24	; 0x803961 <reactStr+0x40>
    2c88:	90 93 62 39 	sts	0x3962, r25	; 0x803962 <reactStr+0x41>
    reactStr[2][number]=type;
    2c8c:	01 e0       	ldi	r16, 0x01	; 1
    2c8e:	10 e0       	ldi	r17, 0x00	; 0
    2c90:	00 93 a1 39 	sts	0x39A1, r16	; 0x8039a1 <reactStr+0x80>
    2c94:	10 93 a2 39 	sts	0x39A2, r17	; 0x8039a2 <reactStr+0x81>

    CleanInput(&data[0]);
    uint8_t inputLen = CleanInput(&data[0]);
    SetResponse(0, A_LF, 4, TEASER);

    if (inputLen) {
    2c98:	ff 20       	and	r15, r15
    2c9a:	09 f4       	brne	.+2      	; 0x2c9e <ProcessInput+0x40>
    2c9c:	54 c7       	rjmp	.+3752   	; 0x3b46 <ProcessInput+0xee8>

        //eXit to previous location
        if (data[0] == 'x'){
    2c9e:	d3 01       	movw	r26, r6
    2ca0:	8c 91       	ld	r24, X
    2ca2:	88 37       	cpi	r24, 0x78	; 120
    2ca4:	09 f0       	breq	.+2      	; 0x2ca8 <ProcessInput+0x4a>
    2ca6:	45 c0       	rjmp	.+138    	; 0x2d32 <ProcessInput+0xd4>

            //Standing in the Lobby?
            if ((route[currDepth] == 0)||(currDepth == 0)){
    2ca8:	80 91 34 38 	lds	r24, 0x3834	; 0x803834 <currDepth>
    2cac:	e8 2f       	mov	r30, r24
    2cae:	f0 e0       	ldi	r31, 0x00	; 0
    2cb0:	ee 0f       	add	r30, r30
    2cb2:	ff 1f       	adc	r31, r31
    2cb4:	ef 51       	subi	r30, 0x1F	; 31
    2cb6:	f6 4c       	sbci	r31, 0xC6	; 198
    2cb8:	20 81       	ld	r18, Z
    2cba:	31 81       	ldd	r19, Z+1	; 0x01
    2cbc:	23 2b       	or	r18, r19
    2cbe:	11 f0       	breq	.+4      	; 0x2cc4 <ProcessInput+0x66>
    2cc0:	81 11       	cpse	r24, r1
    2cc2:	03 c0       	rjmp	.+6      	; 0x2cca <ProcessInput+0x6c>
    return 0;
}

//
void SetResponse(uint8_t number, uint16_t address, uint16_t length, uint8_t type){
    reactStr[0][number]=address;
    2cc4:	84 e4       	ldi	r24, 0x44	; 68
    2cc6:	96 e7       	ldi	r25, 0x76	; 118
    2cc8:	13 c5       	rjmp	.+2598   	; 0x36f0 <ProcessInput+0xa92>
            //Standing in the Lobby?
            if ((route[currDepth] == 0)||(currDepth == 0)){
                SetResponse(elements++, A_NOTPOSSIBLE, L_NOTPOSSIBLE, TEASER);
            
            //Is there a way to go back?
            } else if (CheckState(currObj.byteField[OPEN_ACL])){
    2cca:	80 91 27 3a 	lds	r24, 0x3A27	; 0x803a27 <currObj+0x6>
    2cce:	0e 94 0d 0a 	call	0x141a	; 0x141a <CheckState>
    2cd2:	88 23       	and	r24, r24
    2cd4:	b9 f0       	breq	.+46     	; 0x2d04 <ProcessInput+0xa6>
                --currDepth;
    2cd6:	e0 91 34 38 	lds	r30, 0x3834	; 0x803834 <currDepth>
    2cda:	e1 50       	subi	r30, 0x01	; 1
    2cdc:	e0 93 34 38 	sts	0x3834, r30	; 0x803834 <currDepth>
                PopulateObject(route[currDepth], &currObj);
    2ce0:	f0 e0       	ldi	r31, 0x00	; 0
    2ce2:	ee 0f       	add	r30, r30
    2ce4:	ff 1f       	adc	r31, r31
    2ce6:	ef 51       	subi	r30, 0x1F	; 31
    2ce8:	f6 4c       	sbci	r31, 0xC6	; 198
    2cea:	61 e2       	ldi	r22, 0x21	; 33
    2cec:	7a e3       	ldi	r23, 0x3A	; 58
    2cee:	80 81       	ld	r24, Z
    2cf0:	91 81       	ldd	r25, Z+1	; 0x01
    2cf2:	61 db       	rcall	.-2366   	; 0x23b6 <PopulateObject>
                effect = currObj.byteField[EFFECTS];
    2cf4:	80 91 25 3a 	lds	r24, 0x3A25	; 0x803a25 <currObj+0x4>
    2cf8:	90 e0       	ldi	r25, 0x00	; 0
    2cfa:	80 93 40 38 	sts	0x3840, r24	; 0x803840 <effect>
    2cfe:	90 93 41 38 	sts	0x3841, r25	; 0x803841 <effect+0x1>
    2d02:	2a c2       	rjmp	.+1108   	; 0x3158 <ProcessInput+0x4fa>
            
            //No way out, print denied message of location
            } else {
                SetResponse(elements++, currObj.addrStr[OPEN_ACL_MSG], currObj.lenStr[OPEN_ACL_MSG], GAME);
    2d04:	80 91 43 3a 	lds	r24, 0x3A43	; 0x803a43 <currObj+0x22>
    2d08:	90 91 44 3a 	lds	r25, 0x3A44	; 0x803a44 <currObj+0x23>
    return 0;
}

//
void SetResponse(uint8_t number, uint16_t address, uint16_t length, uint8_t type){
    reactStr[0][number]=address;
    2d0c:	20 91 35 3a 	lds	r18, 0x3A35	; 0x803a35 <currObj+0x14>
    2d10:	30 91 36 3a 	lds	r19, 0x3A36	; 0x803a36 <currObj+0x15>
    2d14:	20 93 23 39 	sts	0x3923, r18	; 0x803923 <reactStr+0x2>
    2d18:	30 93 24 39 	sts	0x3924, r19	; 0x803924 <reactStr+0x3>
    reactStr[1][number]=length;
    2d1c:	80 93 63 39 	sts	0x3963, r24	; 0x803963 <reactStr+0x42>
    2d20:	90 93 64 39 	sts	0x3964, r25	; 0x803964 <reactStr+0x43>
    reactStr[2][number]=type;
    2d24:	10 92 a3 39 	sts	0x39A3, r1	; 0x8039a3 <reactStr+0x82>
    2d28:	10 92 a4 39 	sts	0x39A4, r1	; 0x8039a4 <reactStr+0x83>
                effect = currObj.byteField[EFFECTS];
            
            //No way out, print denied message of location
            } else {
                SetResponse(elements++, currObj.addrStr[OPEN_ACL_MSG], currObj.lenStr[OPEN_ACL_MSG], GAME);
                effect = currObj.effect[0];               
    2d2c:	80 91 49 3a 	lds	r24, 0x3A49	; 0x803a49 <currObj+0x28>
    2d30:	a9 c5       	rjmp	.+2898   	; 0x3884 <ProcessInput+0xc26>
            }   
        
        //Enter locations or Open objects    
        } else if ((data[0] == 'e')||(data[0] == 'o')) {
    2d32:	85 36       	cpi	r24, 0x65	; 101
    2d34:	19 f0       	breq	.+6      	; 0x2d3c <ProcessInput+0xde>
    2d36:	8f 36       	cpi	r24, 0x6F	; 111
    2d38:	09 f0       	breq	.+2      	; 0x2d3c <ProcessInput+0xde>
    2d3a:	de c0       	rjmp	.+444    	; 0x2ef8 <ProcessInput+0x29a>
                
            //Not possible, too many/little characters
            if (inputLen != 2){
    2d3c:	b2 e0       	ldi	r27, 0x02	; 2
    2d3e:	fb 12       	cpse	r15, r27
    2d40:	c1 cf       	rjmp	.-126    	; 0x2cc4 <ProcessInput+0x66>
                SetResponse(elements++, A_NOTPOSSIBLE, L_NOTPOSSIBLE, TEASER);
            } else {
                uint8_t canDo = 0;
                route[currDepth+1] = FindChild(route[currDepth], data[1], 0);
    2d42:	00 91 34 38 	lds	r16, 0x3834	; 0x803834 <currDepth>
    2d46:	10 e0       	ldi	r17, 0x00	; 0
    2d48:	f8 01       	movw	r30, r16
    2d4a:	ee 0f       	add	r30, r30
    2d4c:	ff 1f       	adc	r31, r31
    2d4e:	ef 51       	subi	r30, 0x1F	; 31
    2d50:	f6 4c       	sbci	r31, 0xC6	; 198
    2d52:	40 e0       	ldi	r20, 0x00	; 0
    2d54:	50 e0       	ldi	r21, 0x00	; 0
    2d56:	d3 01       	movw	r26, r6
    2d58:	11 96       	adiw	r26, 0x01	; 1
    2d5a:	6c 91       	ld	r22, X
    2d5c:	80 81       	ld	r24, Z
    2d5e:	91 81       	ldd	r25, Z+1	; 0x01
    2d60:	ea db       	rcall	.-2092   	; 0x2536 <FindChild>
    2d62:	00 0f       	add	r16, r16
    2d64:	11 1f       	adc	r17, r17
    2d66:	f8 01       	movw	r30, r16
    2d68:	ed 51       	subi	r30, 0x1D	; 29
    2d6a:	f6 4c       	sbci	r31, 0xC6	; 198
    2d6c:	80 83       	st	Z, r24
    2d6e:	91 83       	std	Z+1, r25	; 0x01
                    
                //Child found?
                if (route[currDepth+1]) {
    2d70:	90 91 34 38 	lds	r25, 0x3834	; 0x803834 <currDepth>
    2d74:	29 2f       	mov	r18, r25
    2d76:	30 e0       	ldi	r19, 0x00	; 0
    2d78:	f9 01       	movw	r30, r18
    2d7a:	ee 0f       	add	r30, r30
    2d7c:	ff 1f       	adc	r31, r31
    2d7e:	ed 51       	subi	r30, 0x1D	; 29
    2d80:	f6 4c       	sbci	r31, 0xC6	; 198
    2d82:	40 81       	ld	r20, Z
    2d84:	51 81       	ldd	r21, Z+1	; 0x01
    2d86:	41 15       	cp	r20, r1
    2d88:	51 05       	cpc	r21, r1
    2d8a:	21 f0       	breq	.+8      	; 0x2d94 <ProcessInput+0x136>
                    PopulateObject(route[currDepth+1], &actObj1);
    2d8c:	60 ee       	ldi	r22, 0xE0	; 224
    2d8e:	78 e3       	ldi	r23, 0x38	; 56
    2d90:	ca 01       	movw	r24, r20
    2d92:	1c c0       	rjmp	.+56     	; 0x2dcc <ProcessInput+0x16e>
                    canDo = 1;
                //No child, maybe a step back, letter ok?
                } else if (currDepth) {
    2d94:	99 23       	and	r25, r25
    2d96:	09 f4       	brne	.+2      	; 0x2d9a <ProcessInput+0x13c>
    2d98:	dc c6       	rjmp	.+3512   	; 0x3b52 <ProcessInput+0xef4>
                    if (CheckLetter(route[currDepth-1], data[1])) {
    2d9a:	22 0f       	add	r18, r18
    2d9c:	33 1f       	adc	r19, r19
    2d9e:	f9 01       	movw	r30, r18
    2da0:	e1 52       	subi	r30, 0x21	; 33
    2da2:	f6 4c       	sbci	r31, 0xC6	; 198
    2da4:	d3 01       	movw	r26, r6
    2da6:	11 96       	adiw	r26, 0x01	; 1
    2da8:	6c 91       	ld	r22, X
    2daa:	80 81       	ld	r24, Z
    2dac:	91 81       	ldd	r25, Z+1	; 0x01
    2dae:	7c db       	rcall	.-2312   	; 0x24a8 <CheckLetter>
    2db0:	88 23       	and	r24, r24
    2db2:	09 f4       	brne	.+2      	; 0x2db6 <ProcessInput+0x158>
    2db4:	ce c6       	rjmp	.+3484   	; 0x3b52 <ProcessInput+0xef4>
                        PopulateObject(route[currDepth-1], &actObj1);
    2db6:	e0 91 34 38 	lds	r30, 0x3834	; 0x803834 <currDepth>
    2dba:	f0 e0       	ldi	r31, 0x00	; 0
    2dbc:	ee 0f       	add	r30, r30
    2dbe:	ff 1f       	adc	r31, r31
    2dc0:	e1 52       	subi	r30, 0x21	; 33
    2dc2:	f6 4c       	sbci	r31, 0xC6	; 198
    2dc4:	60 ee       	ldi	r22, 0xE0	; 224
    2dc6:	78 e3       	ldi	r23, 0x38	; 56
    2dc8:	80 81       	ld	r24, Z
    2dca:	91 81       	ldd	r25, Z+1	; 0x01
    2dcc:	f4 da       	rcall	.-2584   	; 0x23b6 <PopulateObject>
                    }
                }

                //The candidate is found! Let's check if the action is legit
                if (canDo) {
                    if ((data[0] == 'e') && ((actObj1.byteField[ACTION_MASK]&ENTER)==0)) {
    2dce:	d3 01       	movw	r26, r6
    2dd0:	8c 91       	ld	r24, X
    2dd2:	85 36       	cpi	r24, 0x65	; 101
    2dd4:	c1 f4       	brne	.+48     	; 0x2e06 <ProcessInput+0x1a8>
    2dd6:	80 91 e8 38 	lds	r24, 0x38E8	; 0x8038e8 <actObj1.3989+0x8>
    2dda:	80 fd       	sbrc	r24, 0
    2ddc:	1d c0       	rjmp	.+58     	; 0x2e18 <ProcessInput+0x1ba>
    return 0;
}

//
void SetResponse(uint8_t number, uint16_t address, uint16_t length, uint8_t type){
    reactStr[0][number]=address;
    2dde:	8d e9       	ldi	r24, 0x9D	; 157
    2de0:	99 e7       	ldi	r25, 0x79	; 121
    2de2:	80 93 23 39 	sts	0x3923, r24	; 0x803923 <reactStr+0x2>
    2de6:	90 93 24 39 	sts	0x3924, r25	; 0x803924 <reactStr+0x3>
    reactStr[1][number]=length;
    2dea:	8e e1       	ldi	r24, 0x1E	; 30
    2dec:	90 e0       	ldi	r25, 0x00	; 0
    2dee:	80 93 63 39 	sts	0x3963, r24	; 0x803963 <reactStr+0x42>
    2df2:	90 93 64 39 	sts	0x3964, r25	; 0x803964 <reactStr+0x43>
    reactStr[2][number]=type;
    2df6:	81 e0       	ldi	r24, 0x01	; 1
    2df8:	90 e0       	ldi	r25, 0x00	; 0
    2dfa:	80 93 a3 39 	sts	0x39A3, r24	; 0x8039a3 <reactStr+0x82>
    2dfe:	90 93 a4 39 	sts	0x39A4, r25	; 0x8039a4 <reactStr+0x83>
                }

                //The candidate is found! Let's check if the action is legit
                if (canDo) {
                    if ((data[0] == 'e') && ((actObj1.byteField[ACTION_MASK]&ENTER)==0)) {
                        SetResponse(elements++, A_CANTENTER, L_CANTENTER, TEASER);
    2e02:	12 e0       	ldi	r17, 0x02	; 2
    2e04:	97 c6       	rjmp	.+3374   	; 0x3b34 <ProcessInput+0xed6>
                    } else if ((data[0] == 'o') && ((actObj1.byteField[ACTION_MASK]&OPEN)==0)) {
    2e06:	8f 36       	cpi	r24, 0x6F	; 111
    2e08:	39 f4       	brne	.+14     	; 0x2e18 <ProcessInput+0x1ba>
    2e0a:	80 91 e8 38 	lds	r24, 0x38E8	; 0x8038e8 <actObj1.3989+0x8>
    2e0e:	81 fd       	sbrc	r24, 1
    2e10:	03 c0       	rjmp	.+6      	; 0x2e18 <ProcessInput+0x1ba>
    return 0;
}

//
void SetResponse(uint8_t number, uint16_t address, uint16_t length, uint8_t type){
    reactStr[0][number]=address;
    2e12:	82 e8       	ldi	r24, 0x82	; 130
    2e14:	99 e7       	ldi	r25, 0x79	; 121
    2e16:	6c c4       	rjmp	.+2264   	; 0x36f0 <ProcessInput+0xa92>
                        SetResponse(elements++, A_CANTENTER, L_CANTENTER, TEASER);
                    } else if ((data[0] == 'o') && ((actObj1.byteField[ACTION_MASK]&OPEN)==0)) {
                        SetResponse(elements++, A_CANTOPEN, L_CANTOPEN, TEASER);
                    
                    //Action legit, permission granted?
                    } else if (CheckState(actObj1.byteField[OPEN_ACL])) {
    2e18:	80 91 e6 38 	lds	r24, 0x38E6	; 0x8038e6 <actObj1.3989+0x6>
    2e1c:	0e 94 0d 0a 	call	0x141a	; 0x141a <CheckState>
    2e20:	e0 91 34 38 	lds	r30, 0x3834	; 0x803834 <currDepth>
    2e24:	88 23       	and	r24, r24
    2e26:	09 f4       	brne	.+2      	; 0x2e2a <ProcessInput+0x1cc>
    2e28:	49 c0       	rjmp	.+146    	; 0x2ebc <ProcessInput+0x25e>
                            
                        //Yes! Check if we must move forward or backwards.
                        if (route[currDepth+1]) ++currDepth; else --currDepth;
    2e2a:	ae 2f       	mov	r26, r30
    2e2c:	b0 e0       	ldi	r27, 0x00	; 0
    2e2e:	aa 0f       	add	r26, r26
    2e30:	bb 1f       	adc	r27, r27
    2e32:	ad 51       	subi	r26, 0x1D	; 29
    2e34:	b6 4c       	sbci	r27, 0xC6	; 198
    2e36:	8d 91       	ld	r24, X+
    2e38:	9c 91       	ld	r25, X
    2e3a:	89 2b       	or	r24, r25
    2e3c:	11 f0       	breq	.+4      	; 0x2e42 <ProcessInput+0x1e4>
    2e3e:	ef 5f       	subi	r30, 0xFF	; 255
    2e40:	01 c0       	rjmp	.+2      	; 0x2e44 <ProcessInput+0x1e6>
    2e42:	e1 50       	subi	r30, 0x01	; 1
    2e44:	e0 93 34 38 	sts	0x3834, r30	; 0x803834 <currDepth>
                        PopulateObject(route[currDepth], &currObj);
    2e48:	e0 91 34 38 	lds	r30, 0x3834	; 0x803834 <currDepth>
    2e4c:	f0 e0       	ldi	r31, 0x00	; 0
    2e4e:	ee 0f       	add	r30, r30
    2e50:	ff 1f       	adc	r31, r31
    2e52:	ef 51       	subi	r30, 0x1F	; 31
    2e54:	f6 4c       	sbci	r31, 0xC6	; 198
    2e56:	61 e2       	ldi	r22, 0x21	; 33
    2e58:	7a e3       	ldi	r23, 0x3A	; 58
    2e5a:	80 81       	ld	r24, Z
    2e5c:	91 81       	ldd	r25, Z+1	; 0x01
    2e5e:	ab da       	rcall	.-2730   	; 0x23b6 <PopulateObject>
                        SetResponse(elements++, currObj.addrStr[DESC], currObj.lenStr[DESC],GAME);
    2e60:	80 91 3d 3a 	lds	r24, 0x3A3D	; 0x803a3d <currObj+0x1c>
    2e64:	90 91 3e 3a 	lds	r25, 0x3A3E	; 0x803a3e <currObj+0x1d>
    return 0;
}

//
void SetResponse(uint8_t number, uint16_t address, uint16_t length, uint8_t type){
    reactStr[0][number]=address;
    2e68:	20 91 2f 3a 	lds	r18, 0x3A2F	; 0x803a2f <currObj+0xe>
    2e6c:	30 91 30 3a 	lds	r19, 0x3A30	; 0x803a30 <currObj+0xf>
    2e70:	20 93 23 39 	sts	0x3923, r18	; 0x803923 <reactStr+0x2>
    2e74:	30 93 24 39 	sts	0x3924, r19	; 0x803924 <reactStr+0x3>
    reactStr[1][number]=length;
    2e78:	80 93 63 39 	sts	0x3963, r24	; 0x803963 <reactStr+0x42>
    2e7c:	90 93 64 39 	sts	0x3964, r25	; 0x803964 <reactStr+0x43>
    reactStr[2][number]=type;
    2e80:	10 92 a3 39 	sts	0x39A3, r1	; 0x8039a3 <reactStr+0x82>
    2e84:	10 92 a4 39 	sts	0x39A4, r1	; 0x8039a4 <reactStr+0x83>
    return 0;
}

//
void SetResponse(uint8_t number, uint16_t address, uint16_t length, uint8_t type){
    reactStr[0][number]=address;
    2e88:	89 e5       	ldi	r24, 0x59	; 89
    2e8a:	9a e7       	ldi	r25, 0x7A	; 122
    2e8c:	80 93 25 39 	sts	0x3925, r24	; 0x803925 <reactStr+0x4>
    2e90:	90 93 26 39 	sts	0x3926, r25	; 0x803926 <reactStr+0x5>
    reactStr[1][number]=length;
    2e94:	82 e0       	ldi	r24, 0x02	; 2
    2e96:	90 e0       	ldi	r25, 0x00	; 0
    2e98:	80 93 65 39 	sts	0x3965, r24	; 0x803965 <reactStr+0x44>
    2e9c:	90 93 66 39 	sts	0x3966, r25	; 0x803966 <reactStr+0x45>
    reactStr[2][number]=type;
    2ea0:	81 e0       	ldi	r24, 0x01	; 1
    2ea2:	90 e0       	ldi	r25, 0x00	; 0
    2ea4:	80 93 a5 39 	sts	0x39A5, r24	; 0x8039a5 <reactStr+0x84>
    2ea8:	90 93 a6 39 	sts	0x39A6, r25	; 0x8039a6 <reactStr+0x85>
                        //Yes! Check if we must move forward or backwards.
                        if (route[currDepth+1]) ++currDepth; else --currDepth;
                        PopulateObject(route[currDepth], &currObj);
                        SetResponse(elements++, currObj.addrStr[DESC], currObj.lenStr[DESC],GAME);
                        SetResponse(elements++, A_LF, 2, TEASER);
                        effect = currObj.byteField[EFFECTS];
    2eac:	80 91 25 3a 	lds	r24, 0x3A25	; 0x803a25 <currObj+0x4>
    2eb0:	90 e0       	ldi	r25, 0x00	; 0
    2eb2:	80 93 40 38 	sts	0x3840, r24	; 0x803840 <effect>
    2eb6:	90 93 41 38 	sts	0x3841, r25	; 0x803841 <effect+0x1>
    2eba:	07 c4       	rjmp	.+2062   	; 0x36ca <ProcessInput+0xa6c>
                                                  
                    //Not granted!
                    } else {
                        route[currDepth+1] = 0;
    2ebc:	f0 e0       	ldi	r31, 0x00	; 0
    2ebe:	ee 0f       	add	r30, r30
    2ec0:	ff 1f       	adc	r31, r31
    2ec2:	ed 51       	subi	r30, 0x1D	; 29
    2ec4:	f6 4c       	sbci	r31, 0xC6	; 198
    2ec6:	10 82       	st	Z, r1
    2ec8:	11 82       	std	Z+1, r1	; 0x01
                        SetResponse(elements++, actObj1.addrStr[OPEN_ACL_MSG], actObj1.lenStr[OPEN_ACL_MSG], GAME);
    2eca:	80 91 02 39 	lds	r24, 0x3902	; 0x803902 <actObj1.3989+0x22>
    2ece:	90 91 03 39 	lds	r25, 0x3903	; 0x803903 <actObj1.3989+0x23>
    return 0;
}

//
void SetResponse(uint8_t number, uint16_t address, uint16_t length, uint8_t type){
    reactStr[0][number]=address;
    2ed2:	20 91 f4 38 	lds	r18, 0x38F4	; 0x8038f4 <actObj1.3989+0x14>
    2ed6:	30 91 f5 38 	lds	r19, 0x38F5	; 0x8038f5 <actObj1.3989+0x15>
    2eda:	20 93 23 39 	sts	0x3923, r18	; 0x803923 <reactStr+0x2>
    2ede:	30 93 24 39 	sts	0x3924, r19	; 0x803924 <reactStr+0x3>
    reactStr[1][number]=length;
    2ee2:	80 93 63 39 	sts	0x3963, r24	; 0x803963 <reactStr+0x42>
    2ee6:	90 93 64 39 	sts	0x3964, r25	; 0x803964 <reactStr+0x43>
    reactStr[2][number]=type;
    2eea:	10 92 a3 39 	sts	0x39A3, r1	; 0x8039a3 <reactStr+0x82>
    2eee:	10 92 a4 39 	sts	0x39A4, r1	; 0x8039a4 <reactStr+0x83>
                                                  
                    //Not granted!
                    } else {
                        route[currDepth+1] = 0;
                        SetResponse(elements++, actObj1.addrStr[OPEN_ACL_MSG], actObj1.lenStr[OPEN_ACL_MSG], GAME);
                        effect = actObj1.effect[0];              
    2ef2:	80 91 08 39 	lds	r24, 0x3908	; 0x803908 <actObj1.3989+0x28>
    2ef6:	c6 c4       	rjmp	.+2444   	; 0x3884 <ProcessInput+0xc26>
                    SetResponse(elements++, A_DONTSEE, L_DONTSEE, TEASER);                
                }
            }

        //Look around or at objects
        } else if (data[0] == 'l') {
    2ef8:	8c 36       	cpi	r24, 0x6C	; 108
    2efa:	09 f0       	breq	.+2      	; 0x2efe <ProcessInput+0x2a0>
    2efc:	59 c1       	rjmp	.+690    	; 0x31b0 <ProcessInput+0x552>
    2efe:	e0 91 34 38 	lds	r30, 0x3834	; 0x803834 <currDepth>
            if (inputLen == 1) {
    2f02:	b1 e0       	ldi	r27, 0x01	; 1
    2f04:	fb 12       	cpse	r15, r27
    2f06:	f1 c0       	rjmp	.+482    	; 0x30ea <ProcessInput+0x48c>

                //Show info about this area first
                SetResponse(elements++, currObj.addrStr[DESC], currObj.lenStr[DESC],GAME);
    2f08:	80 91 3d 3a 	lds	r24, 0x3A3D	; 0x803a3d <currObj+0x1c>
    2f0c:	90 91 3e 3a 	lds	r25, 0x3A3E	; 0x803a3e <currObj+0x1d>
    return 0;
}

//
void SetResponse(uint8_t number, uint16_t address, uint16_t length, uint8_t type){
    reactStr[0][number]=address;
    2f10:	40 91 2f 3a 	lds	r20, 0x3A2F	; 0x803a2f <currObj+0xe>
    2f14:	50 91 30 3a 	lds	r21, 0x3A30	; 0x803a30 <currObj+0xf>
    2f18:	40 93 23 39 	sts	0x3923, r20	; 0x803923 <reactStr+0x2>
    2f1c:	50 93 24 39 	sts	0x3924, r21	; 0x803924 <reactStr+0x3>
    reactStr[1][number]=length;
    2f20:	80 93 63 39 	sts	0x3963, r24	; 0x803963 <reactStr+0x42>
    2f24:	90 93 64 39 	sts	0x3964, r25	; 0x803964 <reactStr+0x43>
    reactStr[2][number]=type;
    2f28:	10 92 a3 39 	sts	0x39A3, r1	; 0x8039a3 <reactStr+0x82>
    2f2c:	10 92 a4 39 	sts	0x39A4, r1	; 0x8039a4 <reactStr+0x83>
    return 0;
}

//
void SetResponse(uint8_t number, uint16_t address, uint16_t length, uint8_t type){
    reactStr[0][number]=address;
    2f30:	20 93 25 39 	sts	0x3925, r18	; 0x803925 <reactStr+0x4>
    2f34:	30 93 26 39 	sts	0x3926, r19	; 0x803926 <reactStr+0x5>
    reactStr[1][number]=length;
    2f38:	82 e0       	ldi	r24, 0x02	; 2
    2f3a:	90 e0       	ldi	r25, 0x00	; 0
    2f3c:	80 93 65 39 	sts	0x3965, r24	; 0x803965 <reactStr+0x44>
    2f40:	90 93 66 39 	sts	0x3966, r25	; 0x803966 <reactStr+0x45>
    reactStr[2][number]=type;
    2f44:	00 93 a5 39 	sts	0x39A5, r16	; 0x8039a5 <reactStr+0x84>
    2f48:	10 93 a6 39 	sts	0x39A6, r17	; 0x8039a6 <reactStr+0x85>
    return 0;
}

//
void SetResponse(uint8_t number, uint16_t address, uint16_t length, uint8_t type){
    reactStr[0][number]=address;
    2f4c:	8b ee       	ldi	r24, 0xEB	; 235
    2f4e:	99 e7       	ldi	r25, 0x79	; 121
    2f50:	80 93 27 39 	sts	0x3927, r24	; 0x803927 <reactStr+0x6>
    2f54:	90 93 28 39 	sts	0x3928, r25	; 0x803928 <reactStr+0x7>
    reactStr[1][number]=length;
    2f58:	85 e1       	ldi	r24, 0x15	; 21
    2f5a:	90 e0       	ldi	r25, 0x00	; 0
    2f5c:	80 93 67 39 	sts	0x3967, r24	; 0x803967 <reactStr+0x46>
    2f60:	90 93 68 39 	sts	0x3968, r25	; 0x803968 <reactStr+0x47>
    reactStr[2][number]=type;
    2f64:	00 93 a7 39 	sts	0x39A7, r16	; 0x8039a7 <reactStr+0x86>
    2f68:	10 93 a8 39 	sts	0x39A8, r17	; 0x8039a8 <reactStr+0x87>
                SetResponse(elements++, currObj.addrStr[DESC], currObj.lenStr[DESC],GAME);
                SetResponse(elements++, A_LF, 2, TEASER);
                SetResponse(elements++, A_LOOK, L_LOOK, TEASER);

                //Check the visible children first
                route[currDepth+1] = 0;
    2f6c:	f0 e0       	ldi	r31, 0x00	; 0
    2f6e:	ee 0f       	add	r30, r30
    2f70:	ff 1f       	adc	r31, r31
    2f72:	ed 51       	subi	r30, 0x1D	; 29
    2f74:	f6 4c       	sbci	r31, 0xC6	; 198
    2f76:	10 82       	st	Z, r1
    2f78:	11 82       	std	Z+1, r1	; 0x01
            if (inputLen == 1) {

                //Show info about this area first
                SetResponse(elements++, currObj.addrStr[DESC], currObj.lenStr[DESC],GAME);
                SetResponse(elements++, A_LF, 2, TEASER);
                SetResponse(elements++, A_LOOK, L_LOOK, TEASER);
    2f7a:	14 e0       	ldi	r17, 0x04	; 4
    2f7c:	91 2e       	mov	r9, r17
    return 0;
}

//
void SetResponse(uint8_t number, uint16_t address, uint16_t length, uint8_t type){
    reactStr[0][number]=address;
    2f7e:	07 e5       	ldi	r16, 0x57	; 87
    2f80:	e0 2e       	mov	r14, r16
    2f82:	0a e7       	ldi	r16, 0x7A	; 122
    2f84:	f0 2e       	mov	r15, r16
    reactStr[1][number]=length;
    2f86:	82 e0       	ldi	r24, 0x02	; 2
    2f88:	c8 2e       	mov	r12, r24
    2f8a:	d1 2c       	mov	r13, r1
    reactStr[2][number]=type;
    2f8c:	aa 24       	eor	r10, r10
    2f8e:	a3 94       	inc	r10
    2f90:	b1 2c       	mov	r11, r1
                SetResponse(elements++, A_LOOK, L_LOOK, TEASER);

                //Check the visible children first
                route[currDepth+1] = 0;
                do{
                    route[currDepth+1] = FindChild(route[currDepth], 0, route[currDepth+1]);
    2f92:	80 91 34 38 	lds	r24, 0x3834	; 0x803834 <currDepth>
    2f96:	90 e0       	ldi	r25, 0x00	; 0
    2f98:	8c 01       	movw	r16, r24
    2f9a:	00 0f       	add	r16, r16
    2f9c:	11 1f       	adc	r17, r17
    2f9e:	0d 51       	subi	r16, 0x1D	; 29
    2fa0:	16 4c       	sbci	r17, 0xC6	; 198
    2fa2:	f8 01       	movw	r30, r16
    2fa4:	40 81       	ld	r20, Z
    2fa6:	51 81       	ldd	r21, Z+1	; 0x01
    2fa8:	88 0f       	add	r24, r24
    2faa:	99 1f       	adc	r25, r25
    2fac:	fc 01       	movw	r30, r24
    2fae:	ef 51       	subi	r30, 0x1F	; 31
    2fb0:	f6 4c       	sbci	r31, 0xC6	; 198
    2fb2:	60 e0       	ldi	r22, 0x00	; 0
    2fb4:	80 81       	ld	r24, Z
    2fb6:	91 81       	ldd	r25, Z+1	; 0x01
    2fb8:	be da       	rcall	.-2692   	; 0x2536 <FindChild>
    2fba:	d8 01       	movw	r26, r16
    2fbc:	8d 93       	st	X+, r24
    2fbe:	9c 93       	st	X, r25
                    if (route[currDepth+1]) {
    2fc0:	e0 91 34 38 	lds	r30, 0x3834	; 0x803834 <currDepth>
    2fc4:	f0 e0       	ldi	r31, 0x00	; 0
    2fc6:	ee 0f       	add	r30, r30
    2fc8:	ff 1f       	adc	r31, r31
    2fca:	ed 51       	subi	r30, 0x1D	; 29
    2fcc:	f6 4c       	sbci	r31, 0xC6	; 198
    2fce:	80 81       	ld	r24, Z
    2fd0:	91 81       	ldd	r25, Z+1	; 0x01
    2fd2:	00 97       	sbiw	r24, 0x00	; 0
    2fd4:	09 f4       	brne	.+2      	; 0x2fd8 <ProcessInput+0x37a>
    2fd6:	4a c0       	rjmp	.+148    	; 0x306c <ProcessInput+0x40e>
                        if ((route[currDepth+1] != inventory[0])&&(route[currDepth+1] != inventory[1])) {
    2fd8:	20 91 44 38 	lds	r18, 0x3844	; 0x803844 <inventory>
    2fdc:	30 91 45 38 	lds	r19, 0x3845	; 0x803845 <inventory+0x1>
    2fe0:	82 17       	cp	r24, r18
    2fe2:	93 07       	cpc	r25, r19
    2fe4:	09 f4       	brne	.+2      	; 0x2fe8 <ProcessInput+0x38a>
    2fe6:	42 c0       	rjmp	.+132    	; 0x306c <ProcessInput+0x40e>
    2fe8:	20 91 46 38 	lds	r18, 0x3846	; 0x803846 <inventory+0x2>
    2fec:	30 91 47 38 	lds	r19, 0x3847	; 0x803847 <inventory+0x3>
    2ff0:	82 17       	cp	r24, r18
    2ff2:	93 07       	cpc	r25, r19
                            PopulateObject(route[currDepth+1], &actObj1);
    2ff4:	d9 f1       	breq	.+118    	; 0x306c <ProcessInput+0x40e>
    2ff6:	60 ee       	ldi	r22, 0xE0	; 224
    2ff8:	78 e3       	ldi	r23, 0x38	; 56
    2ffa:	dd d9       	rcall	.-3142   	; 0x23b6 <PopulateObject>
                            SetResponse(elements++, actObj1.addrStr[NAME], actObj1.lenStr[NAME],GAME);
    2ffc:	80 91 fa 38 	lds	r24, 0x38FA	; 0x8038fa <actObj1.3989+0x1a>
    3000:	90 91 fb 38 	lds	r25, 0x38FB	; 0x8038fb <actObj1.3989+0x1b>
    return 0;
}

//
void SetResponse(uint8_t number, uint16_t address, uint16_t length, uint8_t type){
    reactStr[0][number]=address;
    3004:	e9 2d       	mov	r30, r9
    3006:	f0 e0       	ldi	r31, 0x00	; 0
    3008:	df 01       	movw	r26, r30
    300a:	aa 0f       	add	r26, r26
    300c:	bb 1f       	adc	r27, r27
    300e:	af 5d       	subi	r26, 0xDF	; 223
    3010:	b6 4c       	sbci	r27, 0xC6	; 198
    3012:	20 91 ec 38 	lds	r18, 0x38EC	; 0x8038ec <actObj1.3989+0xc>
    3016:	30 91 ed 38 	lds	r19, 0x38ED	; 0x8038ed <actObj1.3989+0xd>
    301a:	2d 93       	st	X+, r18
    301c:	3c 93       	st	X, r19
    reactStr[1][number]=length;
    301e:	df 01       	movw	r26, r30
    3020:	aa 0f       	add	r26, r26
    3022:	bb 1f       	adc	r27, r27
    3024:	af 59       	subi	r26, 0x9F	; 159
    3026:	b6 4c       	sbci	r27, 0xC6	; 198
    3028:	8d 93       	st	X+, r24
    302a:	9c 93       	st	X, r25
    reactStr[2][number]=type;
    302c:	ee 0f       	add	r30, r30
    302e:	ff 1f       	adc	r31, r31
    3030:	ef 55       	subi	r30, 0x5F	; 95
    3032:	f6 4c       	sbci	r31, 0xC6	; 198
    3034:	10 82       	st	Z, r1
    3036:	11 82       	std	Z+1, r1	; 0x01
    return 0;
}

//
void SetResponse(uint8_t number, uint16_t address, uint16_t length, uint8_t type){
    reactStr[0][number]=address;
    3038:	81 e0       	ldi	r24, 0x01	; 1
    303a:	89 0d       	add	r24, r9
    303c:	90 e0       	ldi	r25, 0x00	; 0
    303e:	93 94       	inc	r9
    3040:	93 94       	inc	r9
    3042:	fc 01       	movw	r30, r24
    3044:	ee 0f       	add	r30, r30
    3046:	ff 1f       	adc	r31, r31
    3048:	ef 5d       	subi	r30, 0xDF	; 223
    304a:	f6 4c       	sbci	r31, 0xC6	; 198
    304c:	e0 82       	st	Z, r14
    304e:	f1 82       	std	Z+1, r15	; 0x01
    reactStr[1][number]=length;
    3050:	fc 01       	movw	r30, r24
    3052:	ee 0f       	add	r30, r30
    3054:	ff 1f       	adc	r31, r31
    3056:	ef 59       	subi	r30, 0x9F	; 159
    3058:	f6 4c       	sbci	r31, 0xC6	; 198
    305a:	c0 82       	st	Z, r12
    305c:	d1 82       	std	Z+1, r13	; 0x01
    reactStr[2][number]=type;
    305e:	88 0f       	add	r24, r24
    3060:	99 1f       	adc	r25, r25
    3062:	fc 01       	movw	r30, r24
    3064:	ef 55       	subi	r30, 0x5F	; 95
    3066:	f6 4c       	sbci	r31, 0xC6	; 198
    3068:	a0 82       	st	Z, r10
    306a:	b1 82       	std	Z+1, r11	; 0x01
                            PopulateObject(route[currDepth+1], &actObj1);
                            SetResponse(elements++, actObj1.addrStr[NAME], actObj1.lenStr[NAME],GAME);
                            SetResponse(elements++, A_COMMA, L_COMMA, TEASER);
                        }
                    }
                }while (route[currDepth+1]);
    306c:	20 91 34 38 	lds	r18, 0x3834	; 0x803834 <currDepth>
    3070:	82 2f       	mov	r24, r18
    3072:	90 e0       	ldi	r25, 0x00	; 0
    3074:	fc 01       	movw	r30, r24
    3076:	ee 0f       	add	r30, r30
    3078:	ff 1f       	adc	r31, r31
    307a:	ed 51       	subi	r30, 0x1D	; 29
    307c:	f6 4c       	sbci	r31, 0xC6	; 198
    307e:	40 81       	ld	r20, Z
    3080:	51 81       	ldd	r21, Z+1	; 0x01
    3082:	45 2b       	or	r20, r21
    3084:	09 f0       	breq	.+2      	; 0x3088 <ProcessInput+0x42a>
    3086:	85 cf       	rjmp	.-246    	; 0x2f92 <ProcessInput+0x334>

                //Look back if not on level 0
                if (currDepth) {
    3088:	22 23       	and	r18, r18
    308a:	61 f1       	breq	.+88     	; 0x30e4 <ProcessInput+0x486>
                    PopulateObject(route[currDepth-1], &actObj1);
    308c:	88 0f       	add	r24, r24
    308e:	99 1f       	adc	r25, r25
    3090:	fc 01       	movw	r30, r24
    3092:	e1 52       	subi	r30, 0x21	; 33
    3094:	f6 4c       	sbci	r31, 0xC6	; 198
    3096:	60 ee       	ldi	r22, 0xE0	; 224
    3098:	78 e3       	ldi	r23, 0x38	; 56
    309a:	80 81       	ld	r24, Z
    309c:	91 81       	ldd	r25, Z+1	; 0x01
    309e:	8b d9       	rcall	.-3306   	; 0x23b6 <PopulateObject>
                    SetResponse(elements++, actObj1.addrStr[NAME], actObj1.lenStr[NAME],GAME);
    30a0:	20 91 fa 38 	lds	r18, 0x38FA	; 0x8038fa <actObj1.3989+0x1a>
    30a4:	30 91 fb 38 	lds	r19, 0x38FB	; 0x8038fb <actObj1.3989+0x1b>
    30a8:	11 e0       	ldi	r17, 0x01	; 1
    30aa:	19 0d       	add	r17, r9
    return 0;
}

//
void SetResponse(uint8_t number, uint16_t address, uint16_t length, uint8_t type){
    reactStr[0][number]=address;
    30ac:	89 2d       	mov	r24, r9
    30ae:	90 e0       	ldi	r25, 0x00	; 0
    30b0:	fc 01       	movw	r30, r24
    30b2:	ee 0f       	add	r30, r30
    30b4:	ff 1f       	adc	r31, r31
    30b6:	ef 5d       	subi	r30, 0xDF	; 223
    30b8:	f6 4c       	sbci	r31, 0xC6	; 198
    30ba:	40 91 ec 38 	lds	r20, 0x38EC	; 0x8038ec <actObj1.3989+0xc>
    30be:	50 91 ed 38 	lds	r21, 0x38ED	; 0x8038ed <actObj1.3989+0xd>
    30c2:	40 83       	st	Z, r20
    30c4:	51 83       	std	Z+1, r21	; 0x01
    reactStr[1][number]=length;
    30c6:	fc 01       	movw	r30, r24
    30c8:	ee 0f       	add	r30, r30
    30ca:	ff 1f       	adc	r31, r31
    30cc:	ef 59       	subi	r30, 0x9F	; 159
    30ce:	f6 4c       	sbci	r31, 0xC6	; 198
    30d0:	20 83       	st	Z, r18
    30d2:	31 83       	std	Z+1, r19	; 0x01
    reactStr[2][number]=type;
    30d4:	88 0f       	add	r24, r24
    30d6:	99 1f       	adc	r25, r25
    30d8:	fc 01       	movw	r30, r24
    30da:	ef 55       	subi	r30, 0x5F	; 95
    30dc:	f6 4c       	sbci	r31, 0xC6	; 198
    30de:	10 82       	st	Z, r1
    30e0:	11 82       	std	Z+1, r1	; 0x01
    30e2:	28 c5       	rjmp	.+2640   	; 0x3b34 <ProcessInput+0xed6>

                //Look back if not on level 0
                if (currDepth) {
                    PopulateObject(route[currDepth-1], &actObj1);
                    SetResponse(elements++, actObj1.addrStr[NAME], actObj1.lenStr[NAME],GAME);
                } else elements-=1;
    30e4:	1f ef       	ldi	r17, 0xFF	; 255
    30e6:	19 0d       	add	r17, r9
    30e8:	25 c5       	rjmp	.+2634   	; 0x3b34 <ProcessInput+0xed6>

            } else {
                route[currDepth+1] = FindChild(route[currDepth], data[1], 0);
    30ea:	ee 2e       	mov	r14, r30
    30ec:	f1 2c       	mov	r15, r1
    30ee:	f7 01       	movw	r30, r14
    30f0:	ee 0f       	add	r30, r30
    30f2:	ff 1f       	adc	r31, r31
    30f4:	ef 51       	subi	r30, 0x1F	; 31
    30f6:	f6 4c       	sbci	r31, 0xC6	; 198
    30f8:	40 e0       	ldi	r20, 0x00	; 0
    30fa:	50 e0       	ldi	r21, 0x00	; 0
    30fc:	d3 01       	movw	r26, r6
    30fe:	11 96       	adiw	r26, 0x01	; 1
    3100:	6c 91       	ld	r22, X
    3102:	80 81       	ld	r24, Z
    3104:	91 81       	ldd	r25, Z+1	; 0x01
    3106:	17 da       	rcall	.-3026   	; 0x2536 <FindChild>
    3108:	f7 01       	movw	r30, r14
    310a:	ee 0f       	add	r30, r30
    310c:	ff 1f       	adc	r31, r31
    310e:	ed 51       	subi	r30, 0x1D	; 29
    3110:	f6 4c       	sbci	r31, 0xC6	; 198
    3112:	80 83       	st	Z, r24
    3114:	91 83       	std	Z+1, r25	; 0x01
                if (route[currDepth+1]) {
    3116:	90 91 34 38 	lds	r25, 0x3834	; 0x803834 <currDepth>
    311a:	29 2f       	mov	r18, r25
    311c:	30 e0       	ldi	r19, 0x00	; 0
    311e:	f9 01       	movw	r30, r18
    3120:	ee 0f       	add	r30, r30
    3122:	ff 1f       	adc	r31, r31
    3124:	ed 51       	subi	r30, 0x1D	; 29
    3126:	f6 4c       	sbci	r31, 0xC6	; 198
    3128:	40 81       	ld	r20, Z
    312a:	51 81       	ldd	r21, Z+1	; 0x01
    312c:	41 15       	cp	r20, r1
    312e:	51 05       	cpc	r21, r1
    3130:	21 f0       	breq	.+8      	; 0x313a <ProcessInput+0x4dc>
                    PopulateObject(route[currDepth+1], &actObj1);
    3132:	60 ee       	ldi	r22, 0xE0	; 224
    3134:	78 e3       	ldi	r23, 0x38	; 56
    3136:	ca 01       	movw	r24, r20
    3138:	1c c0       	rjmp	.+56     	; 0x3172 <ProcessInput+0x514>
                    SetResponse(elements++, actObj1.addrStr[DESC], actObj1.lenStr[DESC],GAME);   
                } else if (currDepth) {
    313a:	99 23       	and	r25, r25
                    if (CheckLetter(route[currDepth-1], data[1])) {
    313c:	81 f1       	breq	.+96     	; 0x319e <ProcessInput+0x540>
    313e:	22 0f       	add	r18, r18
    3140:	33 1f       	adc	r19, r19
    3142:	f9 01       	movw	r30, r18
    3144:	e1 52       	subi	r30, 0x21	; 33
    3146:	f6 4c       	sbci	r31, 0xC6	; 198
    3148:	d3 01       	movw	r26, r6
    314a:	11 96       	adiw	r26, 0x01	; 1
    314c:	6c 91       	ld	r22, X
    314e:	80 81       	ld	r24, Z
    3150:	91 81       	ldd	r25, Z+1	; 0x01
    3152:	aa d9       	rcall	.-3244   	; 0x24a8 <CheckLetter>
    3154:	81 11       	cpse	r24, r1
    3156:	02 c0       	rjmp	.+4      	; 0x315c <ProcessInput+0x4fe>
}

//The game logic!
uint8_t ProcessInput(uint8_t *data){
    static object_model_t actObj1, actObj2;
    uint8_t elements = 1;
    3158:	11 e0       	ldi	r17, 0x01	; 1
                if (route[currDepth+1]) {
                    PopulateObject(route[currDepth+1], &actObj1);
                    SetResponse(elements++, actObj1.addrStr[DESC], actObj1.lenStr[DESC],GAME);   
                } else if (currDepth) {
                    if (CheckLetter(route[currDepth-1], data[1])) {
                        PopulateObject(route[currDepth-1], &actObj1);
    315a:	ec c4       	rjmp	.+2520   	; 0x3b34 <ProcessInput+0xed6>
    315c:	e0 91 34 38 	lds	r30, 0x3834	; 0x803834 <currDepth>
    3160:	f0 e0       	ldi	r31, 0x00	; 0
    3162:	ee 0f       	add	r30, r30
    3164:	ff 1f       	adc	r31, r31
    3166:	e1 52       	subi	r30, 0x21	; 33
    3168:	f6 4c       	sbci	r31, 0xC6	; 198
    316a:	60 ee       	ldi	r22, 0xE0	; 224
    316c:	78 e3       	ldi	r23, 0x38	; 56
    316e:	80 81       	ld	r24, Z
    3170:	91 81       	ldd	r25, Z+1	; 0x01
    3172:	21 d9       	rcall	.-3518   	; 0x23b6 <PopulateObject>
                        SetResponse(elements++, actObj1.addrStr[DESC], actObj1.lenStr[DESC],GAME);
    3174:	80 91 fc 38 	lds	r24, 0x38FC	; 0x8038fc <actObj1.3989+0x1c>
    3178:	90 91 fd 38 	lds	r25, 0x38FD	; 0x8038fd <actObj1.3989+0x1d>
    return 0;
}

//
void SetResponse(uint8_t number, uint16_t address, uint16_t length, uint8_t type){
    reactStr[0][number]=address;
    317c:	20 91 ee 38 	lds	r18, 0x38EE	; 0x8038ee <actObj1.3989+0xe>
    3180:	30 91 ef 38 	lds	r19, 0x38EF	; 0x8038ef <actObj1.3989+0xf>
    3184:	20 93 23 39 	sts	0x3923, r18	; 0x803923 <reactStr+0x2>
    3188:	30 93 24 39 	sts	0x3924, r19	; 0x803924 <reactStr+0x3>
    reactStr[1][number]=length;
    318c:	80 93 63 39 	sts	0x3963, r24	; 0x803963 <reactStr+0x42>
    3190:	90 93 64 39 	sts	0x3964, r25	; 0x803964 <reactStr+0x43>
    reactStr[2][number]=type;
    3194:	10 92 a3 39 	sts	0x39A3, r1	; 0x8039a3 <reactStr+0x82>
    3198:	10 92 a4 39 	sts	0x39A4, r1	; 0x8039a4 <reactStr+0x83>
    319c:	32 ce       	rjmp	.-924    	; 0x2e02 <ProcessInput+0x1a4>
    return 0;
}

//
void SetResponse(uint8_t number, uint16_t address, uint16_t length, uint8_t type){
    reactStr[0][number]=address;
    319e:	81 ed       	ldi	r24, 0xD1	; 209
    31a0:	99 e7       	ldi	r25, 0x79	; 121
    31a2:	80 93 23 39 	sts	0x3923, r24	; 0x803923 <reactStr+0x2>
    31a6:	90 93 24 39 	sts	0x3924, r25	; 0x803924 <reactStr+0x3>
    reactStr[1][number]=length;
    31aa:	8a e1       	ldi	r24, 0x1A	; 26
    31ac:	90 e0       	ldi	r25, 0x00	; 0
    31ae:	c9 c2       	rjmp	.+1426   	; 0x3742 <ProcessInput+0xae4>
                    SetResponse(elements++, A_DONTSEE, L_DONTSEE, TEASER);
                }
            }
        
        //Pick up an object
        } else if (data[0] == 'p') {
    31b0:	80 37       	cpi	r24, 0x70	; 112
    31b2:	09 f0       	breq	.+2      	; 0x31b6 <ProcessInput+0x558>
    31b4:	92 c0       	rjmp	.+292    	; 0x32da <ProcessInput+0x67c>
            if (inventory[0]&&inventory[1]) {
    31b6:	80 91 44 38 	lds	r24, 0x3844	; 0x803844 <inventory>
    31ba:	90 91 45 38 	lds	r25, 0x3845	; 0x803845 <inventory+0x1>
    31be:	89 2b       	or	r24, r25
    31c0:	79 f0       	breq	.+30     	; 0x31e0 <ProcessInput+0x582>
    31c2:	80 91 46 38 	lds	r24, 0x3846	; 0x803846 <inventory+0x2>
    31c6:	90 91 47 38 	lds	r25, 0x3847	; 0x803847 <inventory+0x3>
    31ca:	89 2b       	or	r24, r25
    31cc:	49 f0       	breq	.+18     	; 0x31e0 <ProcessInput+0x582>
    return 0;
}

//
void SetResponse(uint8_t number, uint16_t address, uint16_t length, uint8_t type){
    reactStr[0][number]=address;
    31ce:	87 e0       	ldi	r24, 0x07	; 7
    31d0:	98 e7       	ldi	r25, 0x78	; 120
    31d2:	80 93 23 39 	sts	0x3923, r24	; 0x803923 <reactStr+0x2>
    31d6:	90 93 24 39 	sts	0x3924, r25	; 0x803924 <reactStr+0x3>
    reactStr[1][number]=length;
    31da:	89 e5       	ldi	r24, 0x59	; 89
    31dc:	90 e0       	ldi	r25, 0x00	; 0
    31de:	b1 c2       	rjmp	.+1378   	; 0x3742 <ProcessInput+0xae4>
        
        //Pick up an object
        } else if (data[0] == 'p') {
            if (inventory[0]&&inventory[1]) {
                SetResponse(elements++, A_CARRYTWO, L_CARRYTWO, TEASER);
            } else if (inputLen != 2) {
    31e0:	b2 e0       	ldi	r27, 0x02	; 2
    31e2:	fb 12       	cpse	r15, r27
    31e4:	6f cd       	rjmp	.-1314   	; 0x2cc4 <ProcessInput+0x66>
                SetResponse(elements++, A_NOTPOSSIBLE, L_NOTPOSSIBLE, TEASER);
            } else {
                route[currDepth+1] = FindChild(route[currDepth], data[1], 0);
    31e6:	00 91 34 38 	lds	r16, 0x3834	; 0x803834 <currDepth>
    31ea:	10 e0       	ldi	r17, 0x00	; 0
    31ec:	f8 01       	movw	r30, r16
    31ee:	ee 0f       	add	r30, r30
    31f0:	ff 1f       	adc	r31, r31
    31f2:	ef 51       	subi	r30, 0x1F	; 31
    31f4:	f6 4c       	sbci	r31, 0xC6	; 198
    31f6:	40 e0       	ldi	r20, 0x00	; 0
    31f8:	50 e0       	ldi	r21, 0x00	; 0
    31fa:	d3 01       	movw	r26, r6
    31fc:	11 96       	adiw	r26, 0x01	; 1
    31fe:	6c 91       	ld	r22, X
    3200:	80 81       	ld	r24, Z
    3202:	91 81       	ldd	r25, Z+1	; 0x01
    3204:	98 d9       	rcall	.-3280   	; 0x2536 <FindChild>
    3206:	00 0f       	add	r16, r16
    3208:	11 1f       	adc	r17, r17
    320a:	f8 01       	movw	r30, r16
    320c:	ed 51       	subi	r30, 0x1D	; 29
    320e:	f6 4c       	sbci	r31, 0xC6	; 198
    3210:	80 83       	st	Z, r24
    3212:	91 83       	std	Z+1, r25	; 0x01
                if (route[currDepth+1]) {
    3214:	20 91 34 38 	lds	r18, 0x3834	; 0x803834 <currDepth>
    3218:	30 e0       	ldi	r19, 0x00	; 0
    321a:	2f 5f       	subi	r18, 0xFF	; 255
    321c:	3f 4f       	sbci	r19, 0xFF	; 255
    321e:	22 0f       	add	r18, r18
    3220:	33 1f       	adc	r19, r19
    3222:	f9 01       	movw	r30, r18
    3224:	ef 51       	subi	r30, 0x1F	; 31
    3226:	f6 4c       	sbci	r31, 0xC6	; 198
    3228:	80 81       	ld	r24, Z
    322a:	91 81       	ldd	r25, Z+1	; 0x01
    322c:	00 97       	sbiw	r24, 0x00	; 0
    322e:	09 f4       	brne	.+2      	; 0x3232 <ProcessInput+0x5d4>
    3230:	38 c3       	rjmp	.+1648   	; 0x38a2 <ProcessInput+0xc44>
                    if ((route[currDepth+1] == inventory[0])||(route[currDepth+1] == inventory[1])) {
    3232:	40 91 44 38 	lds	r20, 0x3844	; 0x803844 <inventory>
    3236:	50 91 45 38 	lds	r21, 0x3845	; 0x803845 <inventory+0x1>
    323a:	84 17       	cp	r24, r20
    323c:	95 07       	cpc	r25, r21
    323e:	39 f0       	breq	.+14     	; 0x324e <ProcessInput+0x5f0>
    3240:	40 91 46 38 	lds	r20, 0x3846	; 0x803846 <inventory+0x2>
    3244:	50 91 47 38 	lds	r21, 0x3847	; 0x803847 <inventory+0x3>
    3248:	84 17       	cp	r24, r20
    324a:	95 07       	cpc	r25, r21
    324c:	c1 f4       	brne	.+48     	; 0x327e <ProcessInput+0x620>
    return 0;
}

//
void SetResponse(uint8_t number, uint16_t address, uint16_t length, uint8_t type){
    reactStr[0][number]=address;
    324e:	82 ee       	ldi	r24, 0xE2	; 226
    3250:	97 e7       	ldi	r25, 0x77	; 119
    3252:	80 93 23 39 	sts	0x3923, r24	; 0x803923 <reactStr+0x2>
    3256:	90 93 24 39 	sts	0x3924, r25	; 0x803924 <reactStr+0x3>
    reactStr[1][number]=length;
    325a:	85 e2       	ldi	r24, 0x25	; 37
    325c:	90 e0       	ldi	r25, 0x00	; 0
    325e:	80 93 63 39 	sts	0x3963, r24	; 0x803963 <reactStr+0x42>
    3262:	90 93 64 39 	sts	0x3964, r25	; 0x803964 <reactStr+0x43>
    reactStr[2][number]=type;
    3266:	81 e0       	ldi	r24, 0x01	; 1
    3268:	90 e0       	ldi	r25, 0x00	; 0
    326a:	80 93 a3 39 	sts	0x39A3, r24	; 0x8039a3 <reactStr+0x82>
    326e:	90 93 a4 39 	sts	0x39A4, r25	; 0x8039a4 <reactStr+0x83>
            } else {
                route[currDepth+1] = FindChild(route[currDepth], data[1], 0);
                if (route[currDepth+1]) {
                    if ((route[currDepth+1] == inventory[0])||(route[currDepth+1] == inventory[1])) {
                        SetResponse(elements++, A_ALREADYCARRYING, L_ALREADYCARRYING, TEASER);
                        route[currDepth+1] = 0;
    3272:	f9 01       	movw	r30, r18
    3274:	ef 51       	subi	r30, 0x1F	; 31
    3276:	f6 4c       	sbci	r31, 0xC6	; 198
    3278:	10 82       	st	Z, r1
    327a:	11 82       	std	Z+1, r1	; 0x01
                    } else {
                        //Put item in the inventory if possible
                        PopulateObject(route[currDepth+1], &actObj1);  
    327c:	c2 cd       	rjmp	.-1148   	; 0x2e02 <ProcessInput+0x1a4>
    327e:	60 ee       	ldi	r22, 0xE0	; 224
    3280:	78 e3       	ldi	r23, 0x38	; 56
    3282:	99 d8       	rcall	.-3790   	; 0x23b6 <PopulateObject>
                        if (CheckState(actObj1.byteField[ACTION_ACL])) {
    3284:	80 91 e7 38 	lds	r24, 0x38E7	; 0x8038e7 <actObj1.3989+0x7>
    3288:	0e 94 0d 0a 	call	0x141a	; 0x141a <CheckState>
    328c:	88 23       	and	r24, r24
    328e:	09 f4       	brne	.+2      	; 0x3292 <ProcessInput+0x634>
    3290:	e3 c2       	rjmp	.+1478   	; 0x3858 <ProcessInput+0xbfa>
                            if (actObj1.byteField[ITEM_NR]) {
    3292:	80 91 eb 38 	lds	r24, 0x38EB	; 0x8038eb <actObj1.3989+0xb>
    3296:	88 23       	and	r24, r24
    3298:	09 f4       	brne	.+2      	; 0x329c <ProcessInput+0x63e>
    329a:	14 cd       	rjmp	.-1496   	; 0x2cc4 <ProcessInput+0x66>
                                if (inventory[0]) {
    329c:	80 91 44 38 	lds	r24, 0x3844	; 0x803844 <inventory>
    32a0:	90 91 45 38 	lds	r25, 0x3845	; 0x803845 <inventory+0x1>
    32a4:	e0 91 34 38 	lds	r30, 0x3834	; 0x803834 <currDepth>
                                    inventory[1] = route[currDepth+1];
    32a8:	f0 e0       	ldi	r31, 0x00	; 0
    32aa:	ee 0f       	add	r30, r30
    32ac:	ff 1f       	adc	r31, r31
    32ae:	ed 51       	subi	r30, 0x1D	; 29
    32b0:	f6 4c       	sbci	r31, 0xC6	; 198
                    } else {
                        //Put item in the inventory if possible
                        PopulateObject(route[currDepth+1], &actObj1);  
                        if (CheckState(actObj1.byteField[ACTION_ACL])) {
                            if (actObj1.byteField[ITEM_NR]) {
                                if (inventory[0]) {
    32b2:	89 2b       	or	r24, r25
    32b4:	39 f0       	breq	.+14     	; 0x32c4 <ProcessInput+0x666>
                                    inventory[1] = route[currDepth+1];
    32b6:	80 81       	ld	r24, Z
    32b8:	91 81       	ldd	r25, Z+1	; 0x01
    32ba:	80 93 46 38 	sts	0x3846, r24	; 0x803846 <inventory+0x2>
    32be:	90 93 47 38 	sts	0x3847, r25	; 0x803847 <inventory+0x3>
    32c2:	06 c0       	rjmp	.+12     	; 0x32d0 <ProcessInput+0x672>
                                } else {
                                    inventory[0] = route[currDepth+1];
    32c4:	80 81       	ld	r24, Z
    32c6:	91 81       	ldd	r25, Z+1	; 0x01
    32c8:	80 93 44 38 	sts	0x3844, r24	; 0x803844 <inventory>
    32cc:	90 93 45 38 	sts	0x3845, r25	; 0x803845 <inventory+0x1>
                                }
                                UpdateState(actObj1.byteField[ACTION_STATE]);
    32d0:	80 91 ea 38 	lds	r24, 0x38EA	; 0x8038ea <actObj1.3989+0xa>
    32d4:	0e 94 ec 09 	call	0x13d8	; 0x13d8 <UpdateState>
    32d8:	2b c0       	rjmp	.+86     	; 0x3330 <ProcessInput+0x6d2>
                } else SetResponse(elements++, A_NOSUCHOBJECT, L_NOSUCHOBJECT, TEASER);
            }
        } else

        //Drop item if in inventory
        if (data[0] == 'd') {
    32da:	84 36       	cpi	r24, 0x64	; 100
    32dc:	d9 f4       	brne	.+54     	; 0x3314 <ProcessInput+0x6b6>
            if ((inventory[0] == 0)&&(inventory[1] == 0)){
    32de:	80 91 44 38 	lds	r24, 0x3844	; 0x803844 <inventory>
    32e2:	90 91 45 38 	lds	r25, 0x3845	; 0x803845 <inventory+0x1>
    32e6:	00 97       	sbiw	r24, 0x00	; 0
    32e8:	09 f0       	breq	.+2      	; 0x32ec <ProcessInput+0x68e>
    32ea:	3c c4       	rjmp	.+2168   	; 0x3b64 <ProcessInput+0xf06>
    32ec:	80 91 46 38 	lds	r24, 0x3846	; 0x803846 <inventory+0x2>
    32f0:	90 91 47 38 	lds	r25, 0x3847	; 0x803847 <inventory+0x3>
    32f4:	89 2b       	or	r24, r25
    32f6:	49 f4       	brne	.+18     	; 0x330a <ProcessInput+0x6ac>
    return 0;
}

//
void SetResponse(uint8_t number, uint16_t address, uint16_t length, uint8_t type){
    reactStr[0][number]=address;
    32f8:	86 ea       	ldi	r24, 0xA6	; 166
    32fa:	97 e7       	ldi	r25, 0x77	; 119
    32fc:	80 93 23 39 	sts	0x3923, r24	; 0x803923 <reactStr+0x2>
    3300:	90 93 24 39 	sts	0x3924, r25	; 0x803924 <reactStr+0x3>
    reactStr[1][number]=length;
    3304:	86 e2       	ldi	r24, 0x26	; 38
    3306:	90 e0       	ldi	r25, 0x00	; 0
    3308:	72 cd       	rjmp	.-1308   	; 0x2dee <ProcessInput+0x190>

        //Drop item if in inventory
        if (data[0] == 'd') {
            if ((inventory[0] == 0)&&(inventory[1] == 0)){
                SetResponse(elements++, A_EMPTYHANDS, L_EMPTYHANDS, TEASER);
            } else if (inputLen != 2) {
    330a:	b2 e0       	ldi	r27, 0x02	; 2
    330c:	fb 16       	cp	r15, r27
    330e:	09 f4       	brne	.+2      	; 0x3312 <ProcessInput+0x6b4>
    3310:	8b c4       	rjmp	.+2326   	; 0x3c28 <ProcessInput+0xfca>
    3312:	d8 cc       	rjmp	.-1616   	; 0x2cc4 <ProcessInput+0x66>
                }
            }
        } 

        //Inventory list
        else if (data[0] == 'i') {
    3314:	89 36       	cpi	r24, 0x69	; 105
            if ((inventory[0] == 0)&&(inventory[1] == 0)){
    3316:	81 f4       	brne	.+32     	; 0x3338 <ProcessInput+0x6da>
    3318:	80 91 44 38 	lds	r24, 0x3844	; 0x803844 <inventory>
    331c:	90 91 45 38 	lds	r25, 0x3845	; 0x803845 <inventory+0x1>
    3320:	89 2b       	or	r24, r25
    3322:	31 f4       	brne	.+12     	; 0x3330 <ProcessInput+0x6d2>
    3324:	80 91 46 38 	lds	r24, 0x3846	; 0x803846 <inventory+0x2>
    3328:	90 91 47 38 	lds	r25, 0x3847	; 0x803847 <inventory+0x3>
    332c:	89 2b       	or	r24, r25
                SetResponse(elements++, A_EMPTYHANDS, L_EMPTYHANDS, TEASER);
                } else {
                    elements = ShowInventory(elements);
    332e:	21 f3       	breq	.-56     	; 0x32f8 <ProcessInput+0x69a>
    3330:	81 e0       	ldi	r24, 0x01	; 1
    3332:	1a dc       	rcall	.-1996   	; 0x2b68 <ShowInventory>
    3334:	18 2f       	mov	r17, r24
    3336:	fe c3       	rjmp	.+2044   	; 0x3b34 <ProcessInput+0xed6>
                }        
        
        //Talk, use, give, read
        } else if ((data[0] == 't')||(data[0] == 'u')||(data[0] == 'g')||(data[0] == 'r')) {
    3338:	9c e8       	ldi	r25, 0x8C	; 140
    333a:	98 0f       	add	r25, r24
    333c:	92 30       	cpi	r25, 0x02	; 2
    333e:	28 f0       	brcs	.+10     	; 0x334a <ProcessInput+0x6ec>
    3340:	87 36       	cpi	r24, 0x67	; 103
    3342:	19 f0       	breq	.+6      	; 0x334a <ProcessInput+0x6ec>
    3344:	82 37       	cpi	r24, 0x72	; 114
    3346:	09 f0       	breq	.+2      	; 0x334a <ProcessInput+0x6ec>
    3348:	b5 c2       	rjmp	.+1386   	; 0x38b4 <ProcessInput+0xc56>
            if ((inputLen<2)||(inputLen>3)) {
    334a:	8e ef       	ldi	r24, 0xFE	; 254
    334c:	8f 0d       	add	r24, r15
    334e:	82 30       	cpi	r24, 0x02	; 2
    3350:	08 f0       	brcs	.+2      	; 0x3354 <ProcessInput+0x6f6>
    3352:	b8 cc       	rjmp	.-1680   	; 0x2cc4 <ProcessInput+0x66>
                SetResponse(elements++, A_NOTPOSSIBLE, L_NOTPOSSIBLE, TEASER);                
            
            //Check for visible person or object first
            } else {
                route[currDepth+1] = FindChild(route[currDepth], data[inputLen-1], 0);
    3354:	e0 91 34 38 	lds	r30, 0x3834	; 0x803834 <currDepth>
    3358:	0e 2f       	mov	r16, r30
    335a:	10 e0       	ldi	r17, 0x00	; 0
    335c:	d3 01       	movw	r26, r6
    335e:	af 0d       	add	r26, r15
    3360:	b1 1d       	adc	r27, r1
    3362:	11 97       	sbiw	r26, 0x01	; 1
    3364:	f8 01       	movw	r30, r16
    3366:	ee 0f       	add	r30, r30
    3368:	ff 1f       	adc	r31, r31
    336a:	ef 51       	subi	r30, 0x1F	; 31
    336c:	f6 4c       	sbci	r31, 0xC6	; 198
    336e:	40 e0       	ldi	r20, 0x00	; 0
    3370:	50 e0       	ldi	r21, 0x00	; 0
    3372:	6c 91       	ld	r22, X
    3374:	80 81       	ld	r24, Z
    3376:	91 81       	ldd	r25, Z+1	; 0x01
    3378:	de d8       	rcall	.-3652   	; 0x2536 <FindChild>
    337a:	f8 01       	movw	r30, r16
    337c:	ee 0f       	add	r30, r30
    337e:	ff 1f       	adc	r31, r31
    3380:	ed 51       	subi	r30, 0x1D	; 29
    3382:	f6 4c       	sbci	r31, 0xC6	; 198
    3384:	80 83       	st	Z, r24
    3386:	91 83       	std	Z+1, r25	; 0x01
                if (route[currDepth+1]) {
    3388:	e0 91 34 38 	lds	r30, 0x3834	; 0x803834 <currDepth>
    338c:	f0 e0       	ldi	r31, 0x00	; 0
    338e:	ee 0f       	add	r30, r30
    3390:	ff 1f       	adc	r31, r31
    3392:	ed 51       	subi	r30, 0x1D	; 29
    3394:	f6 4c       	sbci	r31, 0xC6	; 198
    3396:	80 81       	ld	r24, Z
    3398:	91 81       	ldd	r25, Z+1	; 0x01
    339a:	00 97       	sbiw	r24, 0x00	; 0
    339c:	09 f4       	brne	.+2      	; 0x33a0 <ProcessInput+0x742>
    339e:	78 c2       	rjmp	.+1264   	; 0x3890 <ProcessInput+0xc32>
                    
                    //Give item to person / use item on object 
                    if ((inputLen == 3)&&((data[0] == 'u')||(data[0] == 'g'))) {
    33a0:	f3 e0       	ldi	r31, 0x03	; 3
    33a2:	ff 12       	cpse	r15, r31
    33a4:	60 c1       	rjmp	.+704    	; 0x3666 <ProcessInput+0xa08>
    33a6:	d3 01       	movw	r26, r6
    33a8:	2c 91       	ld	r18, X
    33aa:	25 37       	cpi	r18, 0x75	; 117
    33ac:	19 f0       	breq	.+6      	; 0x33b4 <ProcessInput+0x756>
    33ae:	27 36       	cpi	r18, 0x67	; 103
    33b0:	09 f0       	breq	.+2      	; 0x33b4 <ProcessInput+0x756>
    33b2:	59 c1       	rjmp	.+690    	; 0x3666 <ProcessInput+0xa08>
    33b4:	00 e0       	ldi	r16, 0x00	; 0
    33b6:	11 e0       	ldi	r17, 0x01	; 1
    return 0;
}

//
void SetResponse(uint8_t number, uint16_t address, uint16_t length, uint8_t type){
    reactStr[0][number]=address;
    33b8:	41 e6       	ldi	r20, 0x61	; 97
    33ba:	c4 2e       	mov	r12, r20
    33bc:	49 e7       	ldi	r20, 0x79	; 121
    33be:	d4 2e       	mov	r13, r20
    reactStr[1][number]=length;
    33c0:	51 e2       	ldi	r21, 0x21	; 33
    33c2:	a5 2e       	mov	r10, r21
    33c4:	b1 2c       	mov	r11, r1
    reactStr[2][number]=type;
    33c6:	88 24       	eor	r8, r8
    33c8:	83 94       	inc	r8
                if (route[currDepth+1]) {
                    
                    //Give item to person / use item on object 
                    if ((inputLen == 3)&&((data[0] == 'u')||(data[0] == 'g'))) {
                        for (uint8_t x=0; x<2; ++x) {
                            if (inventory[x]) { 
    33ca:	91 2c       	mov	r9, r1
    33cc:	e0 2e       	mov	r14, r16
    33ce:	f1 2c       	mov	r15, r1
    33d0:	c7 01       	movw	r24, r14
    33d2:	88 0f       	add	r24, r24
    33d4:	99 1f       	adc	r25, r25
    33d6:	fc 01       	movw	r30, r24
    33d8:	ec 5b       	subi	r30, 0xBC	; 188
    33da:	f7 4c       	sbci	r31, 0xC7	; 199
    33dc:	7f 01       	movw	r14, r30
    33de:	80 81       	ld	r24, Z
    33e0:	91 81       	ldd	r25, Z+1	; 0x01
    33e2:	00 97       	sbiw	r24, 0x00	; 0
                                if (CheckLetter(inventory[x], data[1])) {
    33e4:	79 f0       	breq	.+30     	; 0x3404 <ProcessInput+0x7a6>
    33e6:	d3 01       	movw	r26, r6
    33e8:	11 96       	adiw	r26, 0x01	; 1
    33ea:	6c 91       	ld	r22, X
    33ec:	5d d8       	rcall	.-3910   	; 0x24a8 <CheckLetter>
    33ee:	88 23       	and	r24, r24
    33f0:	49 f0       	breq	.+18     	; 0x3404 <ProcessInput+0x7a6>
                                    PopulateObject(inventory[x], &actObj2);
    33f2:	65 eb       	ldi	r22, 0xB5	; 181
    33f4:	78 e3       	ldi	r23, 0x38	; 56
    33f6:	f7 01       	movw	r30, r14
    33f8:	80 81       	ld	r24, Z
    33fa:	91 81       	ldd	r25, Z+1	; 0x01
    33fc:	0e 94 db 11 	call	0x23b6	; 0x23b6 <PopulateObject>
                                    x = 2;
    3400:	02 e0       	ldi	r16, 0x02	; 2
    3402:	1d c0       	rjmp	.+58     	; 0x343e <ProcessInput+0x7e0>
                                }
                            }
                            if (x == 1) { 
    3404:	01 30       	cpi	r16, 0x01	; 1
    3406:	d1 f4       	brne	.+52     	; 0x343c <ProcessInput+0x7de>
    return 0;
}

//
void SetResponse(uint8_t number, uint16_t address, uint16_t length, uint8_t type){
    reactStr[0][number]=address;
    3408:	e1 2f       	mov	r30, r17
    340a:	f0 e0       	ldi	r31, 0x00	; 0
    340c:	df 01       	movw	r26, r30
    340e:	aa 0f       	add	r26, r26
    3410:	bb 1f       	adc	r27, r27
    3412:	af 5d       	subi	r26, 0xDF	; 223
    3414:	b6 4c       	sbci	r27, 0xC6	; 198
    3416:	cd 92       	st	X+, r12
    3418:	dc 92       	st	X, r13
    reactStr[1][number]=length;
    341a:	df 01       	movw	r26, r30
    341c:	aa 0f       	add	r26, r26
    341e:	bb 1f       	adc	r27, r27
    3420:	af 59       	subi	r26, 0x9F	; 159
    3422:	b6 4c       	sbci	r27, 0xC6	; 198
    3424:	ad 92       	st	X+, r10
    3426:	bc 92       	st	X, r11
    reactStr[2][number]=type;
    3428:	ee 0f       	add	r30, r30
    342a:	ff 1f       	adc	r31, r31
    342c:	ef 55       	subi	r30, 0x5F	; 95
    342e:	f6 4c       	sbci	r31, 0xC6	; 198
    3430:	80 82       	st	Z, r8
    3432:	91 82       	std	Z+1, r9	; 0x01
                                    x = 2;
                                }
                            }
                            if (x == 1) { 
                                SetResponse(elements++, A_NOTCARRYING, L_NOTCARRYING, TEASER);
                                data[0] = 0;
    3434:	d3 01       	movw	r26, r6
    3436:	1c 92       	st	X, r1
                                    PopulateObject(inventory[x], &actObj2);
                                    x = 2;
                                }
                            }
                            if (x == 1) { 
                                SetResponse(elements++, A_NOTCARRYING, L_NOTCARRYING, TEASER);
    3438:	1f 5f       	subi	r17, 0xFF	; 255
    343a:	01 c0       	rjmp	.+2      	; 0x343e <ProcessInput+0x7e0>
    343c:	00 e0       	ldi	r16, 0x00	; 0
                route[currDepth+1] = FindChild(route[currDepth], data[inputLen-1], 0);
                if (route[currDepth+1]) {
                    
                    //Give item to person / use item on object 
                    if ((inputLen == 3)&&((data[0] == 'u')||(data[0] == 'g'))) {
                        for (uint8_t x=0; x<2; ++x) {
    343e:	0f 5f       	subi	r16, 0xFF	; 255
    3440:	01 30       	cpi	r16, 0x01	; 1
    3442:	21 f2       	breq	.-120    	; 0x33cc <ProcessInput+0x76e>
                                data[0] = 0;
                            }
                        }

                        //Both the item and person/object are found, check if action is legit
                        if (data[0]){
    3444:	f3 01       	movw	r30, r6
    3446:	80 81       	ld	r24, Z
    3448:	88 23       	and	r24, r24
    344a:	09 f4       	brne	.+2      	; 0x344e <ProcessInput+0x7f0>
    344c:	73 c3       	rjmp	.+1766   	; 0x3b34 <ProcessInput+0xed6>
                            PopulateObject(route[currDepth+1], &actObj1);
    344e:	e0 91 34 38 	lds	r30, 0x3834	; 0x803834 <currDepth>
    3452:	f0 e0       	ldi	r31, 0x00	; 0
    3454:	ee 0f       	add	r30, r30
    3456:	ff 1f       	adc	r31, r31
    3458:	ed 51       	subi	r30, 0x1D	; 29
    345a:	f6 4c       	sbci	r31, 0xC6	; 198
    345c:	60 ee       	ldi	r22, 0xE0	; 224
    345e:	78 e3       	ldi	r23, 0x38	; 56
    3460:	80 81       	ld	r24, Z
    3462:	91 81       	ldd	r25, Z+1	; 0x01
    3464:	0e 94 db 11 	call	0x23b6	; 0x23b6 <PopulateObject>

                            //Special game
                            if (actObj1.lenStr[ACTION_STR1] == 1) {
    3468:	e0 90 fe 38 	lds	r14, 0x38FE	; 0x8038fe <actObj1.3989+0x1e>
    346c:	f0 90 ff 38 	lds	r15, 0x38FF	; 0x8038ff <actObj1.3989+0x1f>
    3470:	f1 e0       	ldi	r31, 0x01	; 1
    3472:	ef 16       	cp	r14, r31
    3474:	f1 04       	cpc	r15, r1
    3476:	09 f0       	breq	.+2      	; 0x347a <ProcessInput+0x81c>
    3478:	89 c0       	rjmp	.+274    	; 0x358c <ProcessInput+0x92e>
                                ExtEERead(actObj1.addrStr[ACTION_STR1], 1, GAME, &data[2]);
    347a:	93 01       	movw	r18, r6
    347c:	2e 5f       	subi	r18, 0xFE	; 254
    347e:	3f 4f       	sbci	r19, 0xFF	; 255
    3480:	40 e0       	ldi	r20, 0x00	; 0
    3482:	61 e0       	ldi	r22, 0x01	; 1
    3484:	80 91 f0 38 	lds	r24, 0x38F0	; 0x8038f0 <actObj1.3989+0x10>
    3488:	90 91 f1 38 	lds	r25, 0x38F1	; 0x8038f1 <actObj1.3989+0x11>
    348c:	0e 94 56 08 	call	0x10ac	; 0x10ac <ExtEERead>
                                if (data[2] == '1') {
    3490:	d3 01       	movw	r26, r6
    3492:	12 96       	adiw	r26, 0x02	; 2
    3494:	3c 91       	ld	r19, X
    3496:	31 33       	cpi	r19, 0x31	; 49
    3498:	09 f0       	breq	.+2      	; 0x349c <ProcessInput+0x83e>
    349a:	4c c3       	rjmp	.+1688   	; 0x3b34 <ProcessInput+0xed6>
                                    uint8_t item = actObj2.byteField[ITEM_NR];
    349c:	20 91 c0 38 	lds	r18, 0x38C0	; 0x8038c0 <actObj2.3990+0xb>
                                    if ((item < 31)||(item > 34)) {
    34a0:	51 ee       	ldi	r21, 0xE1	; 225
    34a2:	52 0f       	add	r21, r18
    34a4:	41 e0       	ldi	r20, 0x01	; 1
    34a6:	41 0f       	add	r20, r17
    34a8:	81 2f       	mov	r24, r17
    34aa:	90 e0       	ldi	r25, 0x00	; 0
    return 0;
}

//
void SetResponse(uint8_t number, uint16_t address, uint16_t length, uint8_t type){
    reactStr[0][number]=address;
    34ac:	fc 01       	movw	r30, r24
    34ae:	ee 0f       	add	r30, r30
    34b0:	ff 1f       	adc	r31, r31
    34b2:	ef 5d       	subi	r30, 0xDF	; 223
    34b4:	f6 4c       	sbci	r31, 0xC6	; 198
                            //Special game
                            if (actObj1.lenStr[ACTION_STR1] == 1) {
                                ExtEERead(actObj1.addrStr[ACTION_STR1], 1, GAME, &data[2]);
                                if (data[2] == '1') {
                                    uint8_t item = actObj2.byteField[ITEM_NR];
                                    if ((item < 31)||(item > 34)) {
    34b6:	54 30       	cpi	r21, 0x04	; 4
    34b8:	b0 f0       	brcs	.+44     	; 0x34e6 <ProcessInput+0x888>
    return 0;
}

//
void SetResponse(uint8_t number, uint16_t address, uint16_t length, uint8_t type){
    reactStr[0][number]=address;
    34ba:	21 e0       	ldi	r18, 0x01	; 1
    34bc:	39 e7       	ldi	r19, 0x79	; 121
    34be:	20 83       	st	Z, r18
    34c0:	31 83       	std	Z+1, r19	; 0x01
    reactStr[1][number]=length;
    34c2:	fc 01       	movw	r30, r24
    34c4:	ee 0f       	add	r30, r30
    34c6:	ff 1f       	adc	r31, r31
    34c8:	ef 59       	subi	r30, 0x9F	; 159
    34ca:	f6 4c       	sbci	r31, 0xC6	; 198
    34cc:	2a e1       	ldi	r18, 0x1A	; 26
    34ce:	30 e0       	ldi	r19, 0x00	; 0
    34d0:	20 83       	st	Z, r18
    34d2:	31 83       	std	Z+1, r19	; 0x01
    reactStr[2][number]=type;
    34d4:	88 0f       	add	r24, r24
    34d6:	99 1f       	adc	r25, r25
    34d8:	fc 01       	movw	r30, r24
    34da:	ef 55       	subi	r30, 0x5F	; 95
    34dc:	f6 4c       	sbci	r31, 0xC6	; 198
    34de:	e0 82       	st	Z, r14
    34e0:	f1 82       	std	Z+1, r15	; 0x01
                            if (actObj1.lenStr[ACTION_STR1] == 1) {
                                ExtEERead(actObj1.addrStr[ACTION_STR1], 1, GAME, &data[2]);
                                if (data[2] == '1') {
                                    uint8_t item = actObj2.byteField[ITEM_NR];
                                    if ((item < 31)||(item > 34)) {
                                        SetResponse(elements++, A_CANTUSE, L_CANTUSE, TEASER);
    34e2:	14 2f       	mov	r17, r20
    34e4:	27 c3       	rjmp	.+1614   	; 0x3b34 <ProcessInput+0xed6>
    return 0;
}

//
void SetResponse(uint8_t number, uint16_t address, uint16_t length, uint8_t type){
    reactStr[0][number]=address;
    34e6:	60 e5       	ldi	r22, 0x50	; 80
    34e8:	75 e7       	ldi	r23, 0x75	; 117
    34ea:	60 83       	st	Z, r22
    34ec:	71 83       	std	Z+1, r23	; 0x01
    reactStr[1][number]=length;
    34ee:	fc 01       	movw	r30, r24
    34f0:	ee 0f       	add	r30, r30
    34f2:	ff 1f       	adc	r31, r31
    34f4:	ef 59       	subi	r30, 0x9F	; 159
    34f6:	f6 4c       	sbci	r31, 0xC6	; 198
    34f8:	62 eb       	ldi	r22, 0xB2	; 178
    34fa:	70 e0       	ldi	r23, 0x00	; 0
    34fc:	60 83       	st	Z, r22
    34fe:	71 83       	std	Z+1, r23	; 0x01
    reactStr[2][number]=type;
    3500:	88 0f       	add	r24, r24
    3502:	99 1f       	adc	r25, r25
    3504:	fc 01       	movw	r30, r24
    3506:	ef 55       	subi	r30, 0x5F	; 95
    3508:	f6 4c       	sbci	r31, 0xC6	; 198
    350a:	e0 82       	st	Z, r14
    350c:	f1 82       	std	Z+1, r15	; 0x01
    return 0;
}

//
void SetResponse(uint8_t number, uint16_t address, uint16_t length, uint8_t type){
    reactStr[0][number]=address;
    350e:	84 2f       	mov	r24, r20
    3510:	90 e0       	ldi	r25, 0x00	; 0
    3512:	fc 01       	movw	r30, r24
    3514:	ee 0f       	add	r30, r30
    3516:	ff 1f       	adc	r31, r31
    3518:	ef 5d       	subi	r30, 0xDF	; 223
    351a:	f6 4c       	sbci	r31, 0xC6	; 198
    351c:	49 e5       	ldi	r20, 0x59	; 89
    351e:	5a e7       	ldi	r21, 0x7A	; 122
    3520:	40 83       	st	Z, r20
    3522:	51 83       	std	Z+1, r21	; 0x01
    reactStr[1][number]=length;
    3524:	fc 01       	movw	r30, r24
    3526:	ee 0f       	add	r30, r30
    3528:	ff 1f       	adc	r31, r31
    352a:	ef 59       	subi	r30, 0x9F	; 159
    352c:	f6 4c       	sbci	r31, 0xC6	; 198
    352e:	42 e0       	ldi	r20, 0x02	; 2
    3530:	50 e0       	ldi	r21, 0x00	; 0
    3532:	40 83       	st	Z, r20
    3534:	51 83       	std	Z+1, r21	; 0x01
    reactStr[2][number]=type;
    3536:	88 0f       	add	r24, r24
    3538:	99 1f       	adc	r25, r25
    353a:	fc 01       	movw	r30, r24
    353c:	ef 55       	subi	r30, 0x5F	; 95
    353e:	f6 4c       	sbci	r31, 0xC6	; 198
    3540:	e0 82       	st	Z, r14
    3542:	f1 82       	std	Z+1, r15	; 0x01
    return 0;
}

//
void SetResponse(uint8_t number, uint16_t address, uint16_t length, uint8_t type){
    reactStr[0][number]=address;
    3544:	82 e0       	ldi	r24, 0x02	; 2
    3546:	81 0f       	add	r24, r17
    3548:	90 e0       	ldi	r25, 0x00	; 0
    354a:	1d 5f       	subi	r17, 0xFD	; 253
    354c:	fc 01       	movw	r30, r24
    354e:	ee 0f       	add	r30, r30
    3550:	ff 1f       	adc	r31, r31
    3552:	ef 5d       	subi	r30, 0xDF	; 223
    3554:	f6 4c       	sbci	r31, 0xC6	; 198
    3556:	4d ea       	ldi	r20, 0xAD	; 173
    3558:	58 e7       	ldi	r21, 0x78	; 120
    355a:	40 83       	st	Z, r20
    355c:	51 83       	std	Z+1, r21	; 0x01
    reactStr[1][number]=length;
    355e:	fc 01       	movw	r30, r24
    3560:	ee 0f       	add	r30, r30
    3562:	ff 1f       	adc	r31, r31
    3564:	ef 59       	subi	r30, 0x9F	; 159
    3566:	f6 4c       	sbci	r31, 0xC6	; 198
    3568:	42 e1       	ldi	r20, 0x12	; 18
    356a:	50 e0       	ldi	r21, 0x00	; 0
    356c:	40 83       	st	Z, r20
    356e:	51 83       	std	Z+1, r21	; 0x01
    reactStr[2][number]=type;
    3570:	88 0f       	add	r24, r24
    3572:	99 1f       	adc	r25, r25
    3574:	fc 01       	movw	r30, r24
    3576:	ef 55       	subi	r30, 0x5F	; 95
    3578:	f6 4c       	sbci	r31, 0xC6	; 198
    357a:	e0 82       	st	Z, r14
    357c:	f1 82       	std	Z+1, r15	; 0x01
                                        SetResponse(elements++, A_CANTUSE, L_CANTUSE, TEASER);
                                    } else {
                                        SetResponse(elements++, A_PRIEST, L_PRIEST, TEASER);
                                        SetResponse(elements++, A_LF, 2, TEASER);
                                        SetResponse(elements++, A_RESPONSE, L_RESPONSE, TEASER);
                                        specialInput[0] = '1';
    357e:	30 93 10 39 	sts	0x3910, r19	; 0x803910 <specialInput>
                                        specialInput[1] = item;
    3582:	20 93 11 39 	sts	0x3911, r18	; 0x803911 <specialInput+0x1>
                                        specialInput[2] = 0;
    3586:	10 92 12 39 	sts	0x3912, r1	; 0x803912 <specialInput+0x2>
    358a:	d4 c2       	rjmp	.+1448   	; 0x3b34 <ProcessInput+0xed6>
                                    }
                                }

                            //Normal "use ... on ..." or "give ... to ..." action
                            } else if (actObj1.byteField[ACTION_ITEM] == actObj2.byteField[ITEM_NR]) {
    358c:	90 91 e9 38 	lds	r25, 0x38E9	; 0x8038e9 <actObj1.3989+0x9>
    3590:	80 91 c0 38 	lds	r24, 0x38C0	; 0x8038c0 <actObj2.3990+0xb>
    3594:	98 13       	cpse	r25, r24
    3596:	2e c0       	rjmp	.+92     	; 0x35f4 <ProcessInput+0x996>
                                SetResponse(elements++, actObj1.addrStr[ACTION_MSG], actObj1.lenStr[ACTION_MSG], GAME);
    3598:	20 91 06 39 	lds	r18, 0x3906	; 0x803906 <actObj1.3989+0x26>
    359c:	30 91 07 39 	lds	r19, 0x3907	; 0x803907 <actObj1.3989+0x27>
    35a0:	01 e0       	ldi	r16, 0x01	; 1
    35a2:	01 0f       	add	r16, r17
    return 0;
}

//
void SetResponse(uint8_t number, uint16_t address, uint16_t length, uint8_t type){
    reactStr[0][number]=address;
    35a4:	81 2f       	mov	r24, r17
    35a6:	90 e0       	ldi	r25, 0x00	; 0
    35a8:	fc 01       	movw	r30, r24
    35aa:	ee 0f       	add	r30, r30
    35ac:	ff 1f       	adc	r31, r31
    35ae:	ef 5d       	subi	r30, 0xDF	; 223
    35b0:	f6 4c       	sbci	r31, 0xC6	; 198
    35b2:	40 91 f8 38 	lds	r20, 0x38F8	; 0x8038f8 <actObj1.3989+0x18>
    35b6:	50 91 f9 38 	lds	r21, 0x38F9	; 0x8038f9 <actObj1.3989+0x19>
    35ba:	40 83       	st	Z, r20
    35bc:	51 83       	std	Z+1, r21	; 0x01
    reactStr[1][number]=length;
    35be:	fc 01       	movw	r30, r24
    35c0:	ee 0f       	add	r30, r30
    35c2:	ff 1f       	adc	r31, r31
    35c4:	ef 59       	subi	r30, 0x9F	; 159
    35c6:	f6 4c       	sbci	r31, 0xC6	; 198
    35c8:	20 83       	st	Z, r18
    35ca:	31 83       	std	Z+1, r19	; 0x01
    reactStr[2][number]=type;
    35cc:	88 0f       	add	r24, r24
    35ce:	99 1f       	adc	r25, r25
    35d0:	fc 01       	movw	r30, r24
    35d2:	ef 55       	subi	r30, 0x5F	; 95
    35d4:	f6 4c       	sbci	r31, 0xC6	; 198
    35d6:	10 82       	st	Z, r1
    35d8:	11 82       	std	Z+1, r1	; 0x01
                                }

                            //Normal "use ... on ..." or "give ... to ..." action
                            } else if (actObj1.byteField[ACTION_ITEM] == actObj2.byteField[ITEM_NR]) {
                                SetResponse(elements++, actObj1.addrStr[ACTION_MSG], actObj1.lenStr[ACTION_MSG], GAME);
                                effect = actObj1.effect[2];
    35da:	80 91 0a 39 	lds	r24, 0x390A	; 0x80390a <actObj1.3989+0x2a>
    35de:	90 e0       	ldi	r25, 0x00	; 0
    35e0:	80 93 40 38 	sts	0x3840, r24	; 0x803840 <effect>
    35e4:	90 93 41 38 	sts	0x3841, r25	; 0x803841 <effect+0x1>
                                UpdateState(actObj1.byteField[ACTION_STATE]);
    35e8:	80 91 ea 38 	lds	r24, 0x38EA	; 0x8038ea <actObj1.3989+0xa>
    35ec:	0e 94 ec 09 	call	0x13d8	; 0x13d8 <UpdateState>
                                    }
                                }

                            //Normal "use ... on ..." or "give ... to ..." action
                            } else if (actObj1.byteField[ACTION_ITEM] == actObj2.byteField[ITEM_NR]) {
                                SetResponse(elements++, actObj1.addrStr[ACTION_MSG], actObj1.lenStr[ACTION_MSG], GAME);
    35f0:	10 2f       	mov	r17, r16
    35f2:	a0 c2       	rjmp	.+1344   	; 0x3b34 <ProcessInput+0xed6>
                                effect = actObj1.effect[2];
                                UpdateState(actObj1.byteField[ACTION_STATE]);
                                
                            } else {
                                if (data[0] == 'u') {
    35f4:	f3 01       	movw	r30, r6
    35f6:	80 81       	ld	r24, Z
    35f8:	85 37       	cpi	r24, 0x75	; 117
    35fa:	99 f4       	brne	.+38     	; 0x3622 <ProcessInput+0x9c4>
    return 0;
}

//
void SetResponse(uint8_t number, uint16_t address, uint16_t length, uint8_t type){
    reactStr[0][number]=address;
    35fc:	81 2f       	mov	r24, r17
    35fe:	90 e0       	ldi	r25, 0x00	; 0
    3600:	fc 01       	movw	r30, r24
    3602:	ee 0f       	add	r30, r30
    3604:	ff 1f       	adc	r31, r31
    3606:	ef 5d       	subi	r30, 0xDF	; 223
    3608:	f6 4c       	sbci	r31, 0xC6	; 198
    360a:	21 e0       	ldi	r18, 0x01	; 1
    360c:	39 e7       	ldi	r19, 0x79	; 121
    360e:	20 83       	st	Z, r18
    3610:	31 83       	std	Z+1, r19	; 0x01
    reactStr[1][number]=length;
    3612:	fc 01       	movw	r30, r24
    3614:	ee 0f       	add	r30, r30
    3616:	ff 1f       	adc	r31, r31
    3618:	ef 59       	subi	r30, 0x9F	; 159
    361a:	f6 4c       	sbci	r31, 0xC6	; 198
    361c:	2a e1       	ldi	r18, 0x1A	; 26
    361e:	30 e0       	ldi	r19, 0x00	; 0
    3620:	15 c0       	rjmp	.+42     	; 0x364c <ProcessInput+0x9ee>
                                UpdateState(actObj1.byteField[ACTION_STATE]);
                                
                            } else {
                                if (data[0] == 'u') {
                                    SetResponse(elements++, A_CANTUSE, L_CANTUSE, TEASER);
                                } else if (data[0] == 'g') {
    3622:	87 36       	cpi	r24, 0x67	; 103
    3624:	09 f0       	breq	.+2      	; 0x3628 <ProcessInput+0x9ca>
    3626:	86 c2       	rjmp	.+1292   	; 0x3b34 <ProcessInput+0xed6>
    return 0;
}

//
void SetResponse(uint8_t number, uint16_t address, uint16_t length, uint8_t type){
    reactStr[0][number]=address;
    3628:	81 2f       	mov	r24, r17
    362a:	90 e0       	ldi	r25, 0x00	; 0
    362c:	fc 01       	movw	r30, r24
    362e:	ee 0f       	add	r30, r30
    3630:	ff 1f       	adc	r31, r31
    3632:	ef 5d       	subi	r30, 0xDF	; 223
    3634:	f6 4c       	sbci	r31, 0xC6	; 198
    3636:	2f e9       	ldi	r18, 0x9F	; 159
    3638:	36 e7       	ldi	r19, 0x76	; 118
    363a:	20 83       	st	Z, r18
    363c:	31 83       	std	Z+1, r19	; 0x01
    reactStr[1][number]=length;
    363e:	fc 01       	movw	r30, r24
    3640:	ee 0f       	add	r30, r30
    3642:	ff 1f       	adc	r31, r31
    3644:	ef 59       	subi	r30, 0x9F	; 159
    3646:	f6 4c       	sbci	r31, 0xC6	; 198
    3648:	28 e2       	ldi	r18, 0x28	; 40
    364a:	30 e0       	ldi	r19, 0x00	; 0
    364c:	20 83       	st	Z, r18
    364e:	31 83       	std	Z+1, r19	; 0x01
    reactStr[2][number]=type;
    3650:	88 0f       	add	r24, r24
    3652:	99 1f       	adc	r25, r25
    3654:	fc 01       	movw	r30, r24
    3656:	ef 55       	subi	r30, 0x5F	; 95
    3658:	f6 4c       	sbci	r31, 0xC6	; 198
    365a:	81 e0       	ldi	r24, 0x01	; 1
    365c:	90 e0       	ldi	r25, 0x00	; 0
    365e:	80 83       	st	Z, r24
    3660:	91 83       	std	Z+1, r25	; 0x01
                                
                            } else {
                                if (data[0] == 'u') {
                                    SetResponse(elements++, A_CANTUSE, L_CANTUSE, TEASER);
                                } else if (data[0] == 'g') {
                                    SetResponse(elements++, A_CANTGIVE, L_CANTGIVE, TEASER);                                    
    3662:	1f 5f       	subi	r17, 0xFF	; 255
    3664:	67 c2       	rjmp	.+1230   	; 0x3b34 <ProcessInput+0xed6>
                            }
                        }
                    
                    //Talk to person, read or use object (without item)                          
                    } else {
                        PopulateObject(route[currDepth+1], &actObj1);
    3666:	60 ee       	ldi	r22, 0xE0	; 224
    3668:	78 e3       	ldi	r23, 0x38	; 56
    366a:	0e 94 db 11 	call	0x23b6	; 0x23b6 <PopulateObject>
                        if ((data[0] == 't')&&((actObj1.byteField[ACTION_MASK]&TALK) == 0)) {
    366e:	d3 01       	movw	r26, r6
    3670:	8c 91       	ld	r24, X
    3672:	84 37       	cpi	r24, 0x74	; 116
    3674:	61 f5       	brne	.+88     	; 0x36ce <ProcessInput+0xa70>
    3676:	80 91 e8 38 	lds	r24, 0x38E8	; 0x8038e8 <actObj1.3989+0x8>
    367a:	83 fd       	sbrc	r24, 3
    367c:	43 c0       	rjmp	.+134    	; 0x3704 <ProcessInput+0xaa6>
    return 0;
}

//
void SetResponse(uint8_t number, uint16_t address, uint16_t length, uint8_t type){
    reactStr[0][number]=address;
    367e:	8b e1       	ldi	r24, 0x1B	; 27
    3680:	99 e7       	ldi	r25, 0x79	; 121
    3682:	80 93 23 39 	sts	0x3923, r24	; 0x803923 <reactStr+0x2>
    3686:	90 93 24 39 	sts	0x3924, r25	; 0x803924 <reactStr+0x3>
    reactStr[1][number]=length;
    368a:	8e e1       	ldi	r24, 0x1E	; 30
    368c:	90 e0       	ldi	r25, 0x00	; 0
    368e:	80 93 63 39 	sts	0x3963, r24	; 0x803963 <reactStr+0x42>
    3692:	90 93 64 39 	sts	0x3964, r25	; 0x803964 <reactStr+0x43>
    reactStr[2][number]=type;
    3696:	81 e0       	ldi	r24, 0x01	; 1
    3698:	90 e0       	ldi	r25, 0x00	; 0
    369a:	80 93 a3 39 	sts	0x39A3, r24	; 0x8039a3 <reactStr+0x82>
    369e:	90 93 a4 39 	sts	0x39A4, r25	; 0x8039a4 <reactStr+0x83>
                    //Talk to person, read or use object (without item)                          
                    } else {
                        PopulateObject(route[currDepth+1], &actObj1);
                        if ((data[0] == 't')&&((actObj1.byteField[ACTION_MASK]&TALK) == 0)) {
                            SetResponse(elements++, A_WHYTALK, L_WHYTALK, TEASER);
                            SetResponse(elements++, actObj1.addrStr[NAME], actObj1.lenStr[NAME], GAME);
    36a2:	80 91 fa 38 	lds	r24, 0x38FA	; 0x8038fa <actObj1.3989+0x1a>
    36a6:	90 91 fb 38 	lds	r25, 0x38FB	; 0x8038fb <actObj1.3989+0x1b>
    return 0;
}

//
void SetResponse(uint8_t number, uint16_t address, uint16_t length, uint8_t type){
    reactStr[0][number]=address;
    36aa:	20 91 ec 38 	lds	r18, 0x38EC	; 0x8038ec <actObj1.3989+0xc>
    36ae:	30 91 ed 38 	lds	r19, 0x38ED	; 0x8038ed <actObj1.3989+0xd>
    36b2:	20 93 25 39 	sts	0x3925, r18	; 0x803925 <reactStr+0x4>
    36b6:	30 93 26 39 	sts	0x3926, r19	; 0x803926 <reactStr+0x5>
    reactStr[1][number]=length;
    36ba:	80 93 65 39 	sts	0x3965, r24	; 0x803965 <reactStr+0x44>
    36be:	90 93 66 39 	sts	0x3966, r25	; 0x803966 <reactStr+0x45>
    reactStr[2][number]=type;
    36c2:	10 92 a5 39 	sts	0x39A5, r1	; 0x8039a5 <reactStr+0x84>
    36c6:	10 92 a6 39 	sts	0x39A6, r1	; 0x8039a6 <reactStr+0x85>
                    //Talk to person, read or use object (without item)                          
                    } else {
                        PopulateObject(route[currDepth+1], &actObj1);
                        if ((data[0] == 't')&&((actObj1.byteField[ACTION_MASK]&TALK) == 0)) {
                            SetResponse(elements++, A_WHYTALK, L_WHYTALK, TEASER);
                            SetResponse(elements++, actObj1.addrStr[NAME], actObj1.lenStr[NAME], GAME);
    36ca:	13 e0       	ldi	r17, 0x03	; 3
    36cc:	33 c2       	rjmp	.+1126   	; 0x3b34 <ProcessInput+0xed6>
                        } else if ((data[0] == 'u')&&((actObj1.byteField[ACTION_MASK]&USE) == 0)) {
    36ce:	85 37       	cpi	r24, 0x75	; 117
    36d0:	39 f4       	brne	.+14     	; 0x36e0 <ProcessInput+0xa82>
    36d2:	80 91 e8 38 	lds	r24, 0x38E8	; 0x8038e8 <actObj1.3989+0x8>
    36d6:	84 fd       	sbrc	r24, 4
    36d8:	15 c0       	rjmp	.+42     	; 0x3704 <ProcessInput+0xaa6>
    return 0;
}

//
void SetResponse(uint8_t number, uint16_t address, uint16_t length, uint8_t type){
    reactStr[0][number]=address;
    36da:	81 e0       	ldi	r24, 0x01	; 1
    36dc:	99 e7       	ldi	r25, 0x79	; 121
    36de:	3b c2       	rjmp	.+1142   	; 0x3b56 <ProcessInput+0xef8>
                        if ((data[0] == 't')&&((actObj1.byteField[ACTION_MASK]&TALK) == 0)) {
                            SetResponse(elements++, A_WHYTALK, L_WHYTALK, TEASER);
                            SetResponse(elements++, actObj1.addrStr[NAME], actObj1.lenStr[NAME], GAME);
                        } else if ((data[0] == 'u')&&((actObj1.byteField[ACTION_MASK]&USE) == 0)) {
                            SetResponse(elements++, A_CANTUSE, L_CANTUSE, TEASER);
                        } else if ((data[0] == 'r')&&((actObj1.byteField[ACTION_MASK]&READ) == 0)) {
    36e0:	82 37       	cpi	r24, 0x72	; 114
    36e2:	69 f4       	brne	.+26     	; 0x36fe <ProcessInput+0xaa0>
    36e4:	80 91 e8 38 	lds	r24, 0x38E8	; 0x8038e8 <actObj1.3989+0x8>
    36e8:	85 fd       	sbrc	r24, 5
    36ea:	0c c0       	rjmp	.+24     	; 0x3704 <ProcessInput+0xaa6>
    return 0;
}

//
void SetResponse(uint8_t number, uint16_t address, uint16_t length, uint8_t type){
    reactStr[0][number]=address;
    36ec:	86 ee       	ldi	r24, 0xE6	; 230
    36ee:	98 e7       	ldi	r25, 0x78	; 120
    36f0:	80 93 23 39 	sts	0x3923, r24	; 0x803923 <reactStr+0x2>
    36f4:	90 93 24 39 	sts	0x3924, r25	; 0x803924 <reactStr+0x3>
    reactStr[1][number]=length;
    36f8:	8b e1       	ldi	r24, 0x1B	; 27
    36fa:	90 e0       	ldi	r25, 0x00	; 0
    36fc:	78 cb       	rjmp	.-2320   	; 0x2dee <ProcessInput+0x190>
                            SetResponse(elements++, actObj1.addrStr[NAME], actObj1.lenStr[NAME], GAME);
                        } else if ((data[0] == 'u')&&((actObj1.byteField[ACTION_MASK]&USE) == 0)) {
                            SetResponse(elements++, A_CANTUSE, L_CANTUSE, TEASER);
                        } else if ((data[0] == 'r')&&((actObj1.byteField[ACTION_MASK]&READ) == 0)) {
                            SetResponse(elements++, A_CANTREAD, L_CANTREAD, TEASER);
                        } else if (data[0] == 'g'){ 
    36fe:	87 36       	cpi	r24, 0x67	; 103
    3700:	09 f4       	brne	.+2      	; 0x3704 <ProcessInput+0xaa6>
    3702:	e0 ca       	rjmp	.-2624   	; 0x2cc4 <ProcessInput+0x66>
                            SetResponse(elements++, A_NOTPOSSIBLE, L_NOTPOSSIBLE, TEASER);  
                        } else {

                            //Special game, not enough characters
                            if (actObj1.lenStr[ACTION_STR1] == 1) {
    3704:	00 91 fe 38 	lds	r16, 0x38FE	; 0x8038fe <actObj1.3989+0x1e>
    3708:	10 91 ff 38 	lds	r17, 0x38FF	; 0x8038ff <actObj1.3989+0x1f>
    370c:	01 30       	cpi	r16, 0x01	; 1
    370e:	11 05       	cpc	r17, r1
    3710:	09 f5       	brne	.+66     	; 0x3754 <ProcessInput+0xaf6>
                                ExtEERead(actObj1.addrStr[ACTION_STR1], 1, GAME, &data[2]);
    3712:	93 01       	movw	r18, r6
    3714:	2e 5f       	subi	r18, 0xFE	; 254
    3716:	3f 4f       	sbci	r19, 0xFF	; 255
    3718:	40 e0       	ldi	r20, 0x00	; 0
    371a:	61 e0       	ldi	r22, 0x01	; 1
    371c:	80 91 f0 38 	lds	r24, 0x38F0	; 0x8038f0 <actObj1.3989+0x10>
    3720:	90 91 f1 38 	lds	r25, 0x38F1	; 0x8038f1 <actObj1.3989+0x11>
    3724:	0e 94 56 08 	call	0x10ac	; 0x10ac <ExtEERead>
                                if (data[2] == '1') {
    3728:	f3 01       	movw	r30, r6
    372a:	82 81       	ldd	r24, Z+2	; 0x02
    372c:	81 33       	cpi	r24, 0x31	; 49
    372e:	09 f0       	breq	.+2      	; 0x3732 <ProcessInput+0xad4>
    3730:	13 cd       	rjmp	.-1498   	; 0x3158 <ProcessInput+0x4fa>
    return 0;
}

//
void SetResponse(uint8_t number, uint16_t address, uint16_t length, uint8_t type){
    reactStr[0][number]=address;
    3732:	85 e2       	ldi	r24, 0x25	; 37
    3734:	95 e7       	ldi	r25, 0x75	; 117
    3736:	80 93 23 39 	sts	0x3923, r24	; 0x803923 <reactStr+0x2>
    373a:	90 93 24 39 	sts	0x3924, r25	; 0x803924 <reactStr+0x3>
    reactStr[1][number]=length;
    373e:	8b e2       	ldi	r24, 0x2B	; 43
    3740:	90 e0       	ldi	r25, 0x00	; 0
    3742:	80 93 63 39 	sts	0x3963, r24	; 0x803963 <reactStr+0x42>
    3746:	90 93 64 39 	sts	0x3964, r25	; 0x803964 <reactStr+0x43>
    reactStr[2][number]=type;
    374a:	00 93 a3 39 	sts	0x39A3, r16	; 0x8039a3 <reactStr+0x82>
    374e:	10 93 a4 39 	sts	0x39A4, r17	; 0x8039a4 <reactStr+0x83>
    3752:	57 cb       	rjmp	.-2386   	; 0x2e02 <ProcessInput+0x1a4>
                                if (data[2] == '1') {
                                    SetResponse(elements++, A_PLEASEOFFER, L_PLEASEOFFER, TEASER);
                                }

                            //General request
                            } else if (actObj1.lenStr[ACTION_STR1]) {
    3754:	01 15       	cp	r16, r1
    3756:	11 05       	cpc	r17, r1
    3758:	09 f4       	brne	.+2      	; 0x375c <ProcessInput+0xafe>
    375a:	58 c0       	rjmp	.+176    	; 0x380c <ProcessInput+0xbae>
    return 0;
}

//
void SetResponse(uint8_t number, uint16_t address, uint16_t length, uint8_t type){
    reactStr[0][number]=address;
    375c:	80 91 f0 38 	lds	r24, 0x38F0	; 0x8038f0 <actObj1.3989+0x10>
    3760:	90 91 f1 38 	lds	r25, 0x38F1	; 0x8038f1 <actObj1.3989+0x11>
    3764:	80 93 23 39 	sts	0x3923, r24	; 0x803923 <reactStr+0x2>
    3768:	90 93 24 39 	sts	0x3924, r25	; 0x803924 <reactStr+0x3>
    reactStr[1][number]=length;
    376c:	00 93 63 39 	sts	0x3963, r16	; 0x803963 <reactStr+0x42>
    3770:	10 93 64 39 	sts	0x3964, r17	; 0x803964 <reactStr+0x43>
    reactStr[2][number]=type;
    3774:	10 92 a3 39 	sts	0x39A3, r1	; 0x8039a3 <reactStr+0x82>
    3778:	10 92 a4 39 	sts	0x39A4, r1	; 0x8039a4 <reactStr+0x83>
    return 0;
}

//
void SetResponse(uint8_t number, uint16_t address, uint16_t length, uint8_t type){
    reactStr[0][number]=address;
    377c:	89 e5       	ldi	r24, 0x59	; 89
    377e:	9a e7       	ldi	r25, 0x7A	; 122
    3780:	80 93 25 39 	sts	0x3925, r24	; 0x803925 <reactStr+0x4>
    3784:	90 93 26 39 	sts	0x3926, r25	; 0x803926 <reactStr+0x5>
    reactStr[1][number]=length;
    3788:	82 e0       	ldi	r24, 0x02	; 2
    378a:	90 e0       	ldi	r25, 0x00	; 0
    378c:	80 93 65 39 	sts	0x3965, r24	; 0x803965 <reactStr+0x44>
    3790:	90 93 66 39 	sts	0x3966, r25	; 0x803966 <reactStr+0x45>
    reactStr[2][number]=type;
    3794:	81 e0       	ldi	r24, 0x01	; 1
    3796:	90 e0       	ldi	r25, 0x00	; 0
    3798:	80 93 a5 39 	sts	0x39A5, r24	; 0x8039a5 <reactStr+0x84>
    379c:	90 93 a6 39 	sts	0x39A6, r25	; 0x8039a6 <reactStr+0x85>
    return 0;
}

//
void SetResponse(uint8_t number, uint16_t address, uint16_t length, uint8_t type){
    reactStr[0][number]=address;
    37a0:	2d ea       	ldi	r18, 0xAD	; 173
    37a2:	38 e7       	ldi	r19, 0x78	; 120
    37a4:	20 93 27 39 	sts	0x3927, r18	; 0x803927 <reactStr+0x6>
    37a8:	30 93 28 39 	sts	0x3928, r19	; 0x803928 <reactStr+0x7>
    reactStr[1][number]=length;
    37ac:	22 e1       	ldi	r18, 0x12	; 18
    37ae:	30 e0       	ldi	r19, 0x00	; 0
    37b0:	20 93 67 39 	sts	0x3967, r18	; 0x803967 <reactStr+0x46>
    37b4:	30 93 68 39 	sts	0x3968, r19	; 0x803968 <reactStr+0x47>
    reactStr[2][number]=type;
    37b8:	80 93 a7 39 	sts	0x39A7, r24	; 0x8039a7 <reactStr+0x86>
    37bc:	90 93 a8 39 	sts	0x39A8, r25	; 0x8039a8 <reactStr+0x87>
                            //General request
                            } else if (actObj1.lenStr[ACTION_STR1]) {
                                SetResponse(elements++, actObj1.addrStr[ACTION_STR1], actObj1.lenStr[ACTION_STR1], GAME);
                                SetResponse(elements++, A_LF, 2, TEASER);
                                SetResponse(elements++, A_RESPONSE, L_RESPONSE, TEASER);
                                if (actObj1.lenStr[ACTION_STR2]>(INP_LENGTH-1)) actObj1.lenStr[ACTION_STR2] = (INP_LENGTH-1);
    37c0:	80 91 00 39 	lds	r24, 0x3900	; 0x803900 <actObj1.3989+0x20>
    37c4:	90 91 01 39 	lds	r25, 0x3901	; 0x803901 <actObj1.3989+0x21>
    37c8:	40 97       	sbiw	r24, 0x10	; 16
    37ca:	30 f0       	brcs	.+12     	; 0x37d8 <ProcessInput+0xb7a>
    37cc:	8f e0       	ldi	r24, 0x0F	; 15
    37ce:	90 e0       	ldi	r25, 0x00	; 0
    37d0:	80 93 00 39 	sts	0x3900, r24	; 0x803900 <actObj1.3989+0x20>
    37d4:	90 93 01 39 	sts	0x3901, r25	; 0x803901 <actObj1.3989+0x21>
                                ExtEERead(actObj1.addrStr[ACTION_STR2], actObj1.lenStr[ACTION_STR2], GAME, (uint8_t *)&specialInput[0]);
    37d8:	20 e1       	ldi	r18, 0x10	; 16
    37da:	39 e3       	ldi	r19, 0x39	; 57
    37dc:	40 e0       	ldi	r20, 0x00	; 0
    37de:	60 91 00 39 	lds	r22, 0x3900	; 0x803900 <actObj1.3989+0x20>
    37e2:	80 91 f2 38 	lds	r24, 0x38F2	; 0x8038f2 <actObj1.3989+0x12>
    37e6:	90 91 f3 38 	lds	r25, 0x38F3	; 0x8038f3 <actObj1.3989+0x13>
    37ea:	0e 94 56 08 	call	0x10ac	; 0x10ac <ExtEERead>
                                UnflipData(actObj1.lenStr[ACTION_STR2], (uint8_t *)&specialInput[0]);
    37ee:	60 e1       	ldi	r22, 0x10	; 16
    37f0:	79 e3       	ldi	r23, 0x39	; 57
    37f2:	80 91 00 39 	lds	r24, 0x3900	; 0x803900 <actObj1.3989+0x20>
    37f6:	0e 94 f1 10 	call	0x21e2	; 0x21e2 <UnflipData>
                                specialInput[actObj1.lenStr[ACTION_STR2]] = 0;
    37fa:	e0 91 00 39 	lds	r30, 0x3900	; 0x803900 <actObj1.3989+0x20>
    37fe:	f0 91 01 39 	lds	r31, 0x3901	; 0x803901 <actObj1.3989+0x21>
    3802:	e0 5f       	subi	r30, 0xF0	; 240
    3804:	f6 4c       	sbci	r31, 0xC6	; 198
    3806:	10 82       	st	Z, r1

                            //General request
                            } else if (actObj1.lenStr[ACTION_STR1]) {
                                SetResponse(elements++, actObj1.addrStr[ACTION_STR1], actObj1.lenStr[ACTION_STR1], GAME);
                                SetResponse(elements++, A_LF, 2, TEASER);
                                SetResponse(elements++, A_RESPONSE, L_RESPONSE, TEASER);
    3808:	14 e0       	ldi	r17, 0x04	; 4
    380a:	94 c1       	rjmp	.+808    	; 0x3b34 <ProcessInput+0xed6>
                                ExtEERead(actObj1.addrStr[ACTION_STR2], actObj1.lenStr[ACTION_STR2], GAME, (uint8_t *)&specialInput[0]);
                                UnflipData(actObj1.lenStr[ACTION_STR2], (uint8_t *)&specialInput[0]);
                                specialInput[actObj1.lenStr[ACTION_STR2]] = 0;
                            
                            //Normal action    
                            } else if (CheckState(actObj1.byteField[ACTION_ACL])){
    380c:	80 91 e7 38 	lds	r24, 0x38E7	; 0x8038e7 <actObj1.3989+0x7>
    3810:	0e 94 0d 0a 	call	0x141a	; 0x141a <CheckState>
    3814:	88 23       	and	r24, r24
    3816:	01 f1       	breq	.+64     	; 0x3858 <ProcessInput+0xbfa>
                                SetResponse(elements++, actObj1.addrStr[ACTION_MSG], actObj1.lenStr[ACTION_MSG], GAME);
    3818:	80 91 06 39 	lds	r24, 0x3906	; 0x803906 <actObj1.3989+0x26>
    381c:	90 91 07 39 	lds	r25, 0x3907	; 0x803907 <actObj1.3989+0x27>
    return 0;
}

//
void SetResponse(uint8_t number, uint16_t address, uint16_t length, uint8_t type){
    reactStr[0][number]=address;
    3820:	20 91 f8 38 	lds	r18, 0x38F8	; 0x8038f8 <actObj1.3989+0x18>
    3824:	30 91 f9 38 	lds	r19, 0x38F9	; 0x8038f9 <actObj1.3989+0x19>
    3828:	20 93 23 39 	sts	0x3923, r18	; 0x803923 <reactStr+0x2>
    382c:	30 93 24 39 	sts	0x3924, r19	; 0x803924 <reactStr+0x3>
    reactStr[1][number]=length;
    3830:	80 93 63 39 	sts	0x3963, r24	; 0x803963 <reactStr+0x42>
    3834:	90 93 64 39 	sts	0x3964, r25	; 0x803964 <reactStr+0x43>
    reactStr[2][number]=type;
    3838:	10 92 a3 39 	sts	0x39A3, r1	; 0x8039a3 <reactStr+0x82>
    383c:	10 92 a4 39 	sts	0x39A4, r1	; 0x8039a4 <reactStr+0x83>
                                specialInput[actObj1.lenStr[ACTION_STR2]] = 0;
                            
                            //Normal action    
                            } else if (CheckState(actObj1.byteField[ACTION_ACL])){
                                SetResponse(elements++, actObj1.addrStr[ACTION_MSG], actObj1.lenStr[ACTION_MSG], GAME);
                                effect = actObj1.effect[2];
    3840:	80 91 0a 39 	lds	r24, 0x390A	; 0x80390a <actObj1.3989+0x2a>
    3844:	90 e0       	ldi	r25, 0x00	; 0
    3846:	80 93 40 38 	sts	0x3840, r24	; 0x803840 <effect>
    384a:	90 93 41 38 	sts	0x3841, r25	; 0x803841 <effect+0x1>
                                UpdateState(actObj1.byteField[ACTION_STATE]);
    384e:	80 91 ea 38 	lds	r24, 0x38EA	; 0x8038ea <actObj1.3989+0xa>
    3852:	0e 94 ec 09 	call	0x13d8	; 0x13d8 <UpdateState>
    3856:	d5 ca       	rjmp	.-2646   	; 0x2e02 <ProcessInput+0x1a4>
                            } else {
                                SetResponse(elements++, actObj1.addrStr[ACTION_ACL_MSG], actObj1.lenStr[ACTION_ACL_MSG], GAME);
    3858:	80 91 04 39 	lds	r24, 0x3904	; 0x803904 <actObj1.3989+0x24>
    385c:	90 91 05 39 	lds	r25, 0x3905	; 0x803905 <actObj1.3989+0x25>
    return 0;
}

//
void SetResponse(uint8_t number, uint16_t address, uint16_t length, uint8_t type){
    reactStr[0][number]=address;
    3860:	20 91 f6 38 	lds	r18, 0x38F6	; 0x8038f6 <actObj1.3989+0x16>
    3864:	30 91 f7 38 	lds	r19, 0x38F7	; 0x8038f7 <actObj1.3989+0x17>
    3868:	20 93 23 39 	sts	0x3923, r18	; 0x803923 <reactStr+0x2>
    386c:	30 93 24 39 	sts	0x3924, r19	; 0x803924 <reactStr+0x3>
    reactStr[1][number]=length;
    3870:	80 93 63 39 	sts	0x3963, r24	; 0x803963 <reactStr+0x42>
    3874:	90 93 64 39 	sts	0x3964, r25	; 0x803964 <reactStr+0x43>
    reactStr[2][number]=type;
    3878:	10 92 a3 39 	sts	0x39A3, r1	; 0x8039a3 <reactStr+0x82>
    387c:	10 92 a4 39 	sts	0x39A4, r1	; 0x8039a4 <reactStr+0x83>
                                SetResponse(elements++, actObj1.addrStr[ACTION_MSG], actObj1.lenStr[ACTION_MSG], GAME);
                                effect = actObj1.effect[2];
                                UpdateState(actObj1.byteField[ACTION_STATE]);
                            } else {
                                SetResponse(elements++, actObj1.addrStr[ACTION_ACL_MSG], actObj1.lenStr[ACTION_ACL_MSG], GAME);
                                effect = actObj1.effect[1];
    3880:	80 91 09 39 	lds	r24, 0x3909	; 0x803909 <actObj1.3989+0x29>
    3884:	90 e0       	ldi	r25, 0x00	; 0
    3886:	80 93 40 38 	sts	0x3840, r24	; 0x803840 <effect>
    388a:	90 93 41 38 	sts	0x3841, r25	; 0x803841 <effect+0x1>
    388e:	b9 ca       	rjmp	.-2702   	; 0x2e02 <ProcessInput+0x1a4>
                        }
                    }

                //Person or object not found
                } else {
                    if ((data[0] == 't')||(data[0] == 'g')){
    3890:	d3 01       	movw	r26, r6
    3892:	8c 91       	ld	r24, X
    3894:	84 37       	cpi	r24, 0x74	; 116
    3896:	11 f0       	breq	.+4      	; 0x389c <ProcessInput+0xc3e>
    3898:	87 36       	cpi	r24, 0x67	; 103
    389a:	19 f4       	brne	.+6      	; 0x38a2 <ProcessInput+0xc44>
    return 0;
}

//
void SetResponse(uint8_t number, uint16_t address, uint16_t length, uint8_t type){
    reactStr[0][number]=address;
    389c:	89 e3       	ldi	r24, 0x39	; 57
    389e:	99 e7       	ldi	r25, 0x79	; 121
    38a0:	02 c0       	rjmp	.+4      	; 0x38a6 <ProcessInput+0xc48>
    38a2:	8d e4       	ldi	r24, 0x4D	; 77
    38a4:	99 e7       	ldi	r25, 0x79	; 121
    38a6:	80 93 23 39 	sts	0x3923, r24	; 0x803923 <reactStr+0x2>
    38aa:	90 93 24 39 	sts	0x3924, r25	; 0x803924 <reactStr+0x3>
    reactStr[1][number]=length;
    38ae:	84 e1       	ldi	r24, 0x14	; 20
    38b0:	90 e0       	ldi	r25, 0x00	; 0
    38b2:	9d ca       	rjmp	.-2758   	; 0x2dee <ProcessInput+0x190>
                    }
                }
            }
        
        //Special answer given
        } else if (data[0] == 'a'){
    38b4:	81 36       	cpi	r24, 0x61	; 97
    38b6:	09 f0       	breq	.+2      	; 0x38ba <ProcessInput+0xc5c>
    38b8:	4f cc       	rjmp	.-1890   	; 0x3158 <ProcessInput+0x4fa>
            
            //Priest offerings
            if (specialPassed >= 2) {
    38ba:	80 91 0f 39 	lds	r24, 0x390F	; 0x80390f <specialPassed>
    38be:	82 30       	cpi	r24, 0x02	; 2
    38c0:	08 f4       	brcc	.+2      	; 0x38c4 <ProcessInput+0xc66>
    38c2:	c7 c0       	rjmp	.+398    	; 0x3a52 <ProcessInput+0xdf4>
                if (data[1] > 0) {
    38c4:	f3 01       	movw	r30, r6
    38c6:	21 81       	ldd	r18, Z+1	; 0x01
    38c8:	22 23       	and	r18, r18
    38ca:	09 f4       	brne	.+2      	; 0x38ce <ProcessInput+0xc70>
    38cc:	af c0       	rjmp	.+350    	; 0x3a2c <ProcessInput+0xdce>

                    //uint8_t  digit[10] = {0, 0, 0, 0, 0, 0, 0, 0, 0, 0};
                    uint8_t  digit[8] = {0, 0, 0, 0, 0, 0, 0, 0};
    38ce:	ce 01       	movw	r24, r28
    38d0:	01 96       	adiw	r24, 0x01	; 1
    38d2:	7c 01       	movw	r14, r24
    38d4:	88 e0       	ldi	r24, 0x08	; 8
    38d6:	d7 01       	movw	r26, r14
    38d8:	1d 92       	st	X+, r1
    38da:	8a 95       	dec	r24
    38dc:	e9 f7       	brne	.-6      	; 0x38d8 <ProcessInput+0xc7a>
                        answer = ((offering  & 2) << 19) + ((offering  & 1) << 8) + \
                        ((element   & 2) << 15) + ((element   & 1) << 4) + \
                        ((kneelings & 2) << 11) + ((kneelings & 1))
                        answer = answer << (3-person)
                    */
                    data[1]-='0'; // item 31 needs to become something that results in 0 when doing %4
    38de:	20 53       	subi	r18, 0x30	; 48
    38e0:	21 83       	std	Z+1, r18	; 0x01
                    data[2]-='1';
    38e2:	32 81       	ldd	r19, Z+2	; 0x02
    38e4:	31 53       	subi	r19, 0x31	; 49
    38e6:	32 83       	std	Z+2, r19	; 0x02
                    if (data[3] == 'a') data[3] = 1;
    38e8:	83 81       	ldd	r24, Z+3	; 0x03
    38ea:	81 36       	cpi	r24, 0x61	; 97
    38ec:	11 f4       	brne	.+4      	; 0x38f2 <ProcessInput+0xc94>
    38ee:	81 e0       	ldi	r24, 0x01	; 1
    38f0:	0c c0       	rjmp	.+24     	; 0x390a <ProcessInput+0xcac>
                    else if (data[3] == 'e') data[3] = 0;
    38f2:	85 36       	cpi	r24, 0x65	; 101
    38f4:	19 f4       	brne	.+6      	; 0x38fc <ProcessInput+0xc9e>
    38f6:	f3 01       	movw	r30, r6
    38f8:	13 82       	std	Z+3, r1	; 0x03
    38fa:	08 c0       	rjmp	.+16     	; 0x390c <ProcessInput+0xcae>
                    else if (data[3] == 'f') data[3] = 3;
    38fc:	86 36       	cpi	r24, 0x66	; 102
    38fe:	19 f4       	brne	.+6      	; 0x3906 <ProcessInput+0xca8>
    3900:	83 e0       	ldi	r24, 0x03	; 3
    3902:	83 83       	std	Z+3, r24	; 0x03
    3904:	03 c0       	rjmp	.+6      	; 0x390c <ProcessInput+0xcae>
                    else data[3] = 2;
    3906:	82 e0       	ldi	r24, 0x02	; 2
    3908:	f3 01       	movw	r30, r6
    390a:	83 83       	std	Z+3, r24	; 0x03

                    if (data[1] & 2) answer += (1UL << 20);
    390c:	21 fd       	sbrc	r18, 1
    390e:	04 c0       	rjmp	.+8      	; 0x3918 <ProcessInput+0xcba>
            if (specialPassed >= 2) {
                if (data[1] > 0) {

                    //uint8_t  digit[10] = {0, 0, 0, 0, 0, 0, 0, 0, 0, 0};
                    uint8_t  digit[8] = {0, 0, 0, 0, 0, 0, 0, 0};
                    uint32_t answer = 0;
    3910:	80 e0       	ldi	r24, 0x00	; 0
    3912:	90 e0       	ldi	r25, 0x00	; 0
    3914:	dc 01       	movw	r26, r24
    3916:	04 c0       	rjmp	.+8      	; 0x3920 <ProcessInput+0xcc2>
                    if (data[3] == 'a') data[3] = 1;
                    else if (data[3] == 'e') data[3] = 0;
                    else if (data[3] == 'f') data[3] = 3;
                    else data[3] = 2;

                    if (data[1] & 2) answer += (1UL << 20);
    3918:	80 e0       	ldi	r24, 0x00	; 0
    391a:	90 e0       	ldi	r25, 0x00	; 0
    391c:	a0 e1       	ldi	r26, 0x10	; 16
    391e:	b0 e0       	ldi	r27, 0x00	; 0
                    if (data[1] & 1) answer += (1 << 8);
    3920:	20 ff       	sbrs	r18, 0
    3922:	03 c0       	rjmp	.+6      	; 0x392a <ProcessInput+0xccc>
    3924:	9f 5f       	subi	r25, 0xFF	; 255
    3926:	af 4f       	sbci	r26, 0xFF	; 255
    3928:	bf 4f       	sbci	r27, 0xFF	; 255
                    if (data[3] & 2) answer += (1UL << 16);
    392a:	f3 01       	movw	r30, r6
    392c:	23 81       	ldd	r18, Z+3	; 0x03
    392e:	21 fd       	sbrc	r18, 1
    3930:	11 96       	adiw	r26, 0x01	; 1
                    if (data[3] & 1) answer += (1 << 4);
    3932:	20 ff       	sbrs	r18, 0
    3934:	03 c0       	rjmp	.+6      	; 0x393c <ProcessInput+0xcde>
    3936:	40 96       	adiw	r24, 0x10	; 16
    3938:	a1 1d       	adc	r26, r1
    393a:	b1 1d       	adc	r27, r1
                    if (data[2] & 2) answer += (1 << 12);
    393c:	31 ff       	sbrs	r19, 1
    393e:	03 c0       	rjmp	.+6      	; 0x3946 <ProcessInput+0xce8>
    3940:	90 5f       	subi	r25, 0xF0	; 240
    3942:	af 4f       	sbci	r26, 0xFF	; 255
    3944:	bf 4f       	sbci	r27, 0xFF	; 255
                    if (data[2] & 1) answer += 1;
    3946:	30 ff       	sbrs	r19, 0
    3948:	03 c0       	rjmp	.+6      	; 0x3950 <ProcessInput+0xcf2>
    394a:	01 96       	adiw	r24, 0x01	; 1
    394c:	a1 1d       	adc	r26, r1
    394e:	b1 1d       	adc	r27, r1
                    answer <<= (4 - whoami);            
    3950:	40 91 43 38 	lds	r20, 0x3843	; 0x803843 <whoami>
    3954:	24 e0       	ldi	r18, 0x04	; 4
    3956:	30 e0       	ldi	r19, 0x00	; 0
    3958:	24 1b       	sub	r18, r20
    395a:	31 09       	sbc	r19, r1
    395c:	04 c0       	rjmp	.+8      	; 0x3966 <ProcessInput+0xd08>
    395e:	88 0f       	add	r24, r24
    3960:	99 1f       	adc	r25, r25
    3962:	aa 1f       	adc	r26, r26
    3964:	bb 1f       	adc	r27, r27
    3966:	2a 95       	dec	r18
    3968:	d2 f7       	brpl	.-12     	; 0x395e <ProcessInput+0xd00>
    return 0;
}

//
void SetResponse(uint8_t number, uint16_t address, uint16_t length, uint8_t type){
    reactStr[0][number]=address;
    396a:	28 ec       	ldi	r18, 0xC8	; 200
    396c:	34 e7       	ldi	r19, 0x74	; 116
    396e:	20 93 23 39 	sts	0x3923, r18	; 0x803923 <reactStr+0x2>
    3972:	30 93 24 39 	sts	0x3924, r19	; 0x803924 <reactStr+0x3>
    reactStr[1][number]=length;
    3976:	20 e2       	ldi	r18, 0x20	; 32
    3978:	30 e0       	ldi	r19, 0x00	; 0
    397a:	20 93 63 39 	sts	0x3963, r18	; 0x803963 <reactStr+0x42>
    397e:	30 93 64 39 	sts	0x3964, r19	; 0x803964 <reactStr+0x43>
    reactStr[2][number]=type;
    3982:	21 e0       	ldi	r18, 0x01	; 1
    3984:	30 e0       	ldi	r19, 0x00	; 0
    3986:	20 93 a3 39 	sts	0x39A3, r18	; 0x8039a3 <reactStr+0x82>
    398a:	30 93 a4 39 	sts	0x39A4, r19	; 0x8039a4 <reactStr+0x83>
    return 0;
}

//
void SetResponse(uint8_t number, uint16_t address, uint16_t length, uint8_t type){
    reactStr[0][number]=address;
    398e:	4d e9       	ldi	r20, 0x9D	; 157
    3990:	54 e7       	ldi	r21, 0x74	; 116
    3992:	40 93 25 39 	sts	0x3925, r20	; 0x803925 <reactStr+0x4>
    3996:	50 93 26 39 	sts	0x3926, r21	; 0x803926 <reactStr+0x5>
    reactStr[1][number]=length;
    399a:	42 e0       	ldi	r20, 0x02	; 2
    399c:	50 e0       	ldi	r21, 0x00	; 0
    399e:	40 93 65 39 	sts	0x3965, r20	; 0x803965 <reactStr+0x44>
    39a2:	50 93 66 39 	sts	0x3966, r21	; 0x803966 <reactStr+0x45>
    reactStr[2][number]=type;
    39a6:	20 93 a5 39 	sts	0x39A5, r18	; 0x8039a5 <reactStr+0x84>
    39aa:	30 93 a6 39 	sts	0x39A6, r19	; 0x8039a6 <reactStr+0x85>

                    SetResponse(elements++, A_YOURPART, L_YOURPART, TEASER);
                    SetResponse(elements++, A_HEXPREFIX, L_HEXPREFIX, TEASER);
                    
                    //Set up sending out number
                    for (n=7; n>=0; --n) {
    39ae:	07 e0       	ldi	r16, 0x07	; 7
                        digit[n] = answer % 16;
    39b0:	f7 01       	movw	r30, r14
    39b2:	e0 0f       	add	r30, r16
    39b4:	f1 1d       	adc	r31, r1
    39b6:	28 2f       	mov	r18, r24
    39b8:	2f 70       	andi	r18, 0x0F	; 15
    39ba:	20 83       	st	Z, r18
                        answer /= 16;
    39bc:	44 e0       	ldi	r20, 0x04	; 4
    39be:	b6 95       	lsr	r27
    39c0:	a7 95       	ror	r26
    39c2:	97 95       	ror	r25
    39c4:	87 95       	ror	r24
    39c6:	4a 95       	dec	r20
    39c8:	d1 f7       	brne	.-12     	; 0x39be <ProcessInput+0xd60>
                        if (answer == 0) break;
    39ca:	00 97       	sbiw	r24, 0x00	; 0
    39cc:	a1 05       	cpc	r26, r1
    39ce:	b1 05       	cpc	r27, r1
    39d0:	49 f4       	brne	.+18     	; 0x39e4 <ProcessInput+0xd86>
    39d2:	21 e2       	ldi	r18, 0x21	; 33
    39d4:	c2 2e       	mov	r12, r18
    39d6:	29 e3       	ldi	r18, 0x39	; 57
    39d8:	d2 2e       	mov	r13, r18
    39da:	13 e0       	ldi	r17, 0x03	; 3
}

//
void SetResponse(uint8_t number, uint16_t address, uint16_t length, uint8_t type){
    reactStr[0][number]=address;
    reactStr[1][number]=length;
    39dc:	aa 24       	eor	r10, r10
    39de:	a3 94       	inc	r10
    39e0:	b1 2c       	mov	r11, r1
    39e2:	02 c0       	rjmp	.+4      	; 0x39e8 <ProcessInput+0xd8a>

                    SetResponse(elements++, A_YOURPART, L_YOURPART, TEASER);
                    SetResponse(elements++, A_HEXPREFIX, L_HEXPREFIX, TEASER);
                    
                    //Set up sending out number
                    for (n=7; n>=0; --n) {
    39e4:	01 50       	subi	r16, 0x01	; 1
                        digit[n] = answer % 16;
                        answer /= 16;
                        if (answer == 0) break;
                    }
    39e6:	e4 cf       	rjmp	.-56     	; 0x39b0 <ProcessInput+0xd52>
    39e8:	b2 e0       	ldi	r27, 0x02	; 2
    39ea:	cb 0e       	add	r12, r27
    39ec:	d1 1c       	adc	r13, r1

                    for (; n<8; ++n) {
    39ee:	08 30       	cpi	r16, 0x08	; 8
    39f0:	08 f0       	brcs	.+2      	; 0x39f4 <ProcessInput+0xd96>
    39f2:	9e c0       	rjmp	.+316    	; 0x3b30 <ProcessInput+0xed2>
                        SetResponse(elements++, A_DIGITS+digit[n], 1, TEASER);
    39f4:	1f 5f       	subi	r17, 0xFF	; 255
    39f6:	f7 01       	movw	r30, r14
    39f8:	e0 0f       	add	r30, r16
    39fa:	f1 1d       	adc	r31, r1
    return 0;
}

//
void SetResponse(uint8_t number, uint16_t address, uint16_t length, uint8_t type){
    reactStr[0][number]=address;
    39fc:	80 81       	ld	r24, Z
    39fe:	90 e0       	ldi	r25, 0x00	; 0
    3a00:	83 57       	subi	r24, 0x73	; 115
    3a02:	9b 48       	sbci	r25, 0x8B	; 139
    3a04:	d6 01       	movw	r26, r12
    3a06:	14 96       	adiw	r26, 0x04	; 4
    3a08:	8d 93       	st	X+, r24
    3a0a:	9c 93       	st	X, r25
    3a0c:	15 97       	sbiw	r26, 0x05	; 5
    reactStr[1][number]=length;
    3a0e:	f6 01       	movw	r30, r12
    3a10:	ec 5b       	subi	r30, 0xBC	; 188
    3a12:	ff 4f       	sbci	r31, 0xFF	; 255
    3a14:	a0 82       	st	Z, r10
    3a16:	b1 82       	std	Z+1, r11	; 0x01
    reactStr[2][number]=type;
    3a18:	e0 5c       	subi	r30, 0xC0	; 192
    3a1a:	ff 4f       	sbci	r31, 0xFF	; 255
    3a1c:	a0 82       	st	Z, r10
    3a1e:	b1 82       	std	Z+1, r11	; 0x01
                        if (answer == 0) break;
                    }

                    for (; n<8; ++n) {
                        SetResponse(elements++, A_DIGITS+digit[n], 1, TEASER);
                        UpdateState(actObj1.byteField[ACTION_STATE]);
    3a20:	80 91 ea 38 	lds	r24, 0x38EA	; 0x8038ea <actObj1.3989+0xa>
    3a24:	0e 94 ec 09 	call	0x13d8	; 0x13d8 <UpdateState>
                        digit[n] = answer % 16;
                        answer /= 16;
                        if (answer == 0) break;
                    }

                    for (; n<8; ++n) {
    3a28:	0f 5f       	subi	r16, 0xFF	; 255
    3a2a:	de cf       	rjmp	.-68     	; 0x39e8 <ProcessInput+0xd8a>
    return 0;
}

//
void SetResponse(uint8_t number, uint16_t address, uint16_t length, uint8_t type){
    reactStr[0][number]=address;
    3a2c:	88 ee       	ldi	r24, 0xE8	; 232
    3a2e:	94 e7       	ldi	r25, 0x74	; 116
    3a30:	80 93 23 39 	sts	0x3923, r24	; 0x803923 <reactStr+0x2>
    3a34:	90 93 24 39 	sts	0x3924, r25	; 0x803924 <reactStr+0x3>
    reactStr[1][number]=length;
    3a38:	8d e3       	ldi	r24, 0x3D	; 61
    3a3a:	90 e0       	ldi	r25, 0x00	; 0
    3a3c:	80 93 63 39 	sts	0x3963, r24	; 0x803963 <reactStr+0x42>
    3a40:	90 93 64 39 	sts	0x3964, r25	; 0x803964 <reactStr+0x43>
    reactStr[2][number]=type;
    3a44:	81 e0       	ldi	r24, 0x01	; 1
    3a46:	90 e0       	ldi	r25, 0x00	; 0
    3a48:	80 93 a3 39 	sts	0x39A3, r24	; 0x8039a3 <reactStr+0x82>
    3a4c:	90 93 a4 39 	sts	0x39A4, r25	; 0x8039a4 <reactStr+0x83>
    3a50:	6e c0       	rjmp	.+220    	; 0x3b2e <ProcessInput+0xed0>
    3a52:	e0 91 34 38 	lds	r30, 0x3834	; 0x803834 <currDepth>
                    SetResponse(elements++, A_BADOFFERING, L_BADOFFERING, TEASER);
                }
            
            //Other questions    
            } else if (specialPassed == 1) {
                PopulateObject(route[currDepth+1], &actObj1);
    3a56:	f0 e0       	ldi	r31, 0x00	; 0
    3a58:	ee 0f       	add	r30, r30
    3a5a:	ff 1f       	adc	r31, r31
    3a5c:	ed 51       	subi	r30, 0x1D	; 29
    3a5e:	f6 4c       	sbci	r31, 0xC6	; 198
    3a60:	60 ee       	ldi	r22, 0xE0	; 224
    3a62:	78 e3       	ldi	r23, 0x38	; 56
                } else {
                    SetResponse(elements++, A_BADOFFERING, L_BADOFFERING, TEASER);
                }
            
            //Other questions    
            } else if (specialPassed == 1) {
    3a64:	81 30       	cpi	r24, 0x01	; 1
    3a66:	09 f0       	breq	.+2      	; 0x3a6a <ProcessInput+0xe0c>
    3a68:	46 c0       	rjmp	.+140    	; 0x3af6 <ProcessInput+0xe98>
                PopulateObject(route[currDepth+1], &actObj1);
    3a6a:	80 81       	ld	r24, Z
    3a6c:	91 81       	ldd	r25, Z+1	; 0x01
    3a6e:	0e 94 db 11 	call	0x23b6	; 0x23b6 <PopulateObject>
                if (CheckState(actObj1.byteField[ACTION_ACL])){
    3a72:	80 91 e7 38 	lds	r24, 0x38E7	; 0x8038e7 <actObj1.3989+0x7>
    3a76:	0e 94 0d 0a 	call	0x141a	; 0x141a <CheckState>
    3a7a:	88 23       	and	r24, r24
    3a7c:	01 f1       	breq	.+64     	; 0x3abe <ProcessInput+0xe60>
                    SetResponse(elements++, actObj1.addrStr[ACTION_MSG], actObj1.lenStr[ACTION_MSG], GAME);
    3a7e:	80 91 06 39 	lds	r24, 0x3906	; 0x803906 <actObj1.3989+0x26>
    3a82:	90 91 07 39 	lds	r25, 0x3907	; 0x803907 <actObj1.3989+0x27>
    return 0;
}

//
void SetResponse(uint8_t number, uint16_t address, uint16_t length, uint8_t type){
    reactStr[0][number]=address;
    3a86:	20 91 f8 38 	lds	r18, 0x38F8	; 0x8038f8 <actObj1.3989+0x18>
    3a8a:	30 91 f9 38 	lds	r19, 0x38F9	; 0x8038f9 <actObj1.3989+0x19>
    3a8e:	20 93 23 39 	sts	0x3923, r18	; 0x803923 <reactStr+0x2>
    3a92:	30 93 24 39 	sts	0x3924, r19	; 0x803924 <reactStr+0x3>
    reactStr[1][number]=length;
    3a96:	80 93 63 39 	sts	0x3963, r24	; 0x803963 <reactStr+0x42>
    3a9a:	90 93 64 39 	sts	0x3964, r25	; 0x803964 <reactStr+0x43>
    reactStr[2][number]=type;
    3a9e:	10 92 a3 39 	sts	0x39A3, r1	; 0x8039a3 <reactStr+0x82>
    3aa2:	10 92 a4 39 	sts	0x39A4, r1	; 0x8039a4 <reactStr+0x83>
            //Other questions    
            } else if (specialPassed == 1) {
                PopulateObject(route[currDepth+1], &actObj1);
                if (CheckState(actObj1.byteField[ACTION_ACL])){
                    SetResponse(elements++, actObj1.addrStr[ACTION_MSG], actObj1.lenStr[ACTION_MSG], GAME);
                    effect = actObj1.effect[2];
    3aa6:	80 91 0a 39 	lds	r24, 0x390A	; 0x80390a <actObj1.3989+0x2a>
    3aaa:	90 e0       	ldi	r25, 0x00	; 0
    3aac:	80 93 40 38 	sts	0x3840, r24	; 0x803840 <effect>
    3ab0:	90 93 41 38 	sts	0x3841, r25	; 0x803841 <effect+0x1>
                    UpdateState(actObj1.byteField[ACTION_STATE]);
    3ab4:	80 91 ea 38 	lds	r24, 0x38EA	; 0x8038ea <actObj1.3989+0xa>
    3ab8:	0e 94 ec 09 	call	0x13d8	; 0x13d8 <UpdateState>
    3abc:	38 c0       	rjmp	.+112    	; 0x3b2e <ProcessInput+0xed0>
                } else {
                    SetResponse(elements++, actObj1.addrStr[ACTION_ACL_MSG], actObj1.lenStr[ACTION_ACL_MSG], GAME);
    3abe:	80 91 04 39 	lds	r24, 0x3904	; 0x803904 <actObj1.3989+0x24>
    3ac2:	90 91 05 39 	lds	r25, 0x3905	; 0x803905 <actObj1.3989+0x25>
    return 0;
}

//
void SetResponse(uint8_t number, uint16_t address, uint16_t length, uint8_t type){
    reactStr[0][number]=address;
    3ac6:	20 91 f6 38 	lds	r18, 0x38F6	; 0x8038f6 <actObj1.3989+0x16>
    3aca:	30 91 f7 38 	lds	r19, 0x38F7	; 0x8038f7 <actObj1.3989+0x17>
    3ace:	20 93 23 39 	sts	0x3923, r18	; 0x803923 <reactStr+0x2>
    3ad2:	30 93 24 39 	sts	0x3924, r19	; 0x803924 <reactStr+0x3>
    reactStr[1][number]=length;
    3ad6:	80 93 63 39 	sts	0x3963, r24	; 0x803963 <reactStr+0x42>
    3ada:	90 93 64 39 	sts	0x3964, r25	; 0x803964 <reactStr+0x43>
    reactStr[2][number]=type;
    3ade:	10 92 a3 39 	sts	0x39A3, r1	; 0x8039a3 <reactStr+0x82>
    3ae2:	10 92 a4 39 	sts	0x39A4, r1	; 0x8039a4 <reactStr+0x83>
                    SetResponse(elements++, actObj1.addrStr[ACTION_MSG], actObj1.lenStr[ACTION_MSG], GAME);
                    effect = actObj1.effect[2];
                    UpdateState(actObj1.byteField[ACTION_STATE]);
                } else {
                    SetResponse(elements++, actObj1.addrStr[ACTION_ACL_MSG], actObj1.lenStr[ACTION_ACL_MSG], GAME);
                    effect = actObj1.effect[1];
    3ae6:	80 91 09 39 	lds	r24, 0x3909	; 0x803909 <actObj1.3989+0x29>
    3aea:	90 e0       	ldi	r25, 0x00	; 0
    3aec:	80 93 40 38 	sts	0x3840, r24	; 0x803840 <effect>
    3af0:	90 93 41 38 	sts	0x3841, r25	; 0x803841 <effect+0x1>
    3af4:	1c c0       	rjmp	.+56     	; 0x3b2e <ProcessInput+0xed0>
                }

            } else {
                PopulateObject(route[currDepth+1], &actObj1);
    3af6:	80 81       	ld	r24, Z
    3af8:	91 81       	ldd	r25, Z+1	; 0x01
    3afa:	0e 94 db 11 	call	0x23b6	; 0x23b6 <PopulateObject>
    return 0;
}

//
void SetResponse(uint8_t number, uint16_t address, uint16_t length, uint8_t type){
    reactStr[0][number]=address;
    3afe:	80 e6       	ldi	r24, 0x60	; 96
    3b00:	98 e7       	ldi	r25, 0x78	; 120
    3b02:	80 93 23 39 	sts	0x3923, r24	; 0x803923 <reactStr+0x2>
    3b06:	90 93 24 39 	sts	0x3924, r25	; 0x803924 <reactStr+0x3>
    reactStr[1][number]=length;
    3b0a:	8d e4       	ldi	r24, 0x4D	; 77
    3b0c:	90 e0       	ldi	r25, 0x00	; 0
    3b0e:	80 93 63 39 	sts	0x3963, r24	; 0x803963 <reactStr+0x42>
    3b12:	90 93 64 39 	sts	0x3964, r25	; 0x803964 <reactStr+0x43>
    reactStr[2][number]=type;
    3b16:	81 e0       	ldi	r24, 0x01	; 1
    3b18:	90 e0       	ldi	r25, 0x00	; 0
    3b1a:	80 93 a3 39 	sts	0x39A3, r24	; 0x8039a3 <reactStr+0x82>
    3b1e:	90 93 a4 39 	sts	0x39A4, r25	; 0x8039a4 <reactStr+0x83>
                }

            } else {
                PopulateObject(route[currDepth+1], &actObj1);
                SetResponse(elements++, A_INCORRECT, L_INCORRECT, TEASER);
                PunishmentTime = getClock();
    3b22:	0e 94 2a 0e 	call	0x1c54	; 0x1c54 <getClock>
    3b26:	80 93 0d 39 	sts	0x390D, r24	; 0x80390d <PunishmentTime>
    3b2a:	90 93 0e 39 	sts	0x390E, r25	; 0x80390e <PunishmentTime+0x1>
                    effect = actObj1.effect[1];
                }

            } else {
                PopulateObject(route[currDepth+1], &actObj1);
                SetResponse(elements++, A_INCORRECT, L_INCORRECT, TEASER);
    3b2e:	12 e0       	ldi	r17, 0x02	; 2
                PunishmentTime = getClock();
            }
            specialInput[0] = 0;
    3b30:	10 92 10 39 	sts	0x3910, r1	; 0x803910 <specialInput>

        }
                    
        //Input handled
        if (specialInput[0]) responseList = elements; else responseList = SetStandardResponse(elements);
    3b34:	80 91 10 39 	lds	r24, 0x3910	; 0x803910 <specialInput>
    3b38:	88 23       	and	r24, r24
    3b3a:	19 f0       	breq	.+6      	; 0x3b42 <ProcessInput+0xee4>
    3b3c:	10 93 20 39 	sts	0x3920, r17	; 0x803920 <responseList>
    3b40:	8b c0       	rjmp	.+278    	; 0x3c58 <ProcessInput+0xffa>
    3b42:	81 2f       	mov	r24, r17
    3b44:	01 c0       	rjmp	.+2      	; 0x3b48 <ProcessInput+0xeea>

    } else {

        responseList = SetStandardResponse(1);
    3b46:	81 e0       	ldi	r24, 0x01	; 1
    3b48:	0e 94 5f 11 	call	0x22be	; 0x22be <SetStandardResponse>
    3b4c:	80 93 20 39 	sts	0x3920, r24	; 0x803920 <responseList>
    3b50:	83 c0       	rjmp	.+262    	; 0x3c58 <ProcessInput+0xffa>
    return 0;
}

//
void SetResponse(uint8_t number, uint16_t address, uint16_t length, uint8_t type){
    reactStr[0][number]=address;
    3b52:	81 ed       	ldi	r24, 0xD1	; 209
    3b54:	99 e7       	ldi	r25, 0x79	; 121
    3b56:	80 93 23 39 	sts	0x3923, r24	; 0x803923 <reactStr+0x2>
    3b5a:	90 93 24 39 	sts	0x3924, r25	; 0x803924 <reactStr+0x3>
    reactStr[1][number]=length;
    3b5e:	8a e1       	ldi	r24, 0x1A	; 26
    3b60:	90 e0       	ldi	r25, 0x00	; 0
    3b62:	45 c9       	rjmp	.-3446   	; 0x2dee <ProcessInput+0x190>

        //Drop item if in inventory
        if (data[0] == 'd') {
            if ((inventory[0] == 0)&&(inventory[1] == 0)){
                SetResponse(elements++, A_EMPTYHANDS, L_EMPTYHANDS, TEASER);
            } else if (inputLen != 2) {
    3b64:	f2 e0       	ldi	r31, 0x02	; 2
    3b66:	ff 12       	cpse	r15, r31
    3b68:	ad c8       	rjmp	.-3750   	; 0x2cc4 <ProcessInput+0x66>
                SetResponse(elements++, A_NOTPOSSIBLE, L_NOTPOSSIBLE, TEASER);
            } else {
                for (uint8_t x=0; x<2; ++x) {
                    if (inventory[x]) {
                        if (CheckLetter(inventory[x], data[1])) {
    3b6a:	f3 01       	movw	r30, r6
    3b6c:	61 81       	ldd	r22, Z+1	; 0x01
    3b6e:	0e 94 54 12 	call	0x24a8	; 0x24a8 <CheckLetter>
    3b72:	88 23       	and	r24, r24
    3b74:	09 f4       	brne	.+2      	; 0x3b78 <ProcessInput+0xf1a>
    3b76:	58 c0       	rjmp	.+176    	; 0x3c28 <ProcessInput+0xfca>
                SetResponse(elements++, A_EMPTYHANDS, L_EMPTYHANDS, TEASER);
            } else if (inputLen != 2) {
                SetResponse(elements++, A_NOTPOSSIBLE, L_NOTPOSSIBLE, TEASER);
            } else {
                for (uint8_t x=0; x<2; ++x) {
                    if (inventory[x]) {
    3b78:	00 e0       	ldi	r16, 0x00	; 0
    3b7a:	10 e0       	ldi	r17, 0x00	; 0
                        if (CheckLetter(inventory[x], data[1])) {
                            PopulateObject(inventory[x], &actObj1);
    3b7c:	00 0f       	add	r16, r16
    3b7e:	11 1f       	adc	r17, r17
    3b80:	0c 5b       	subi	r16, 0xBC	; 188
    3b82:	17 4c       	sbci	r17, 0xC7	; 199
    3b84:	60 ee       	ldi	r22, 0xE0	; 224
    3b86:	78 e3       	ldi	r23, 0x38	; 56
    3b88:	d8 01       	movw	r26, r16
    3b8a:	8d 91       	ld	r24, X+
    3b8c:	9c 91       	ld	r25, X
    3b8e:	0e 94 db 11 	call	0x23b6	; 0x23b6 <PopulateObject>
    return 0;
}

//
void SetResponse(uint8_t number, uint16_t address, uint16_t length, uint8_t type){
    reactStr[0][number]=address;
    3b92:	86 e9       	ldi	r24, 0x96	; 150
    3b94:	97 e7       	ldi	r25, 0x77	; 119
    3b96:	80 93 23 39 	sts	0x3923, r24	; 0x803923 <reactStr+0x2>
    3b9a:	90 93 24 39 	sts	0x3924, r25	; 0x803924 <reactStr+0x3>
    reactStr[1][number]=length;
    3b9e:	80 e1       	ldi	r24, 0x10	; 16
    3ba0:	90 e0       	ldi	r25, 0x00	; 0
    3ba2:	80 93 63 39 	sts	0x3963, r24	; 0x803963 <reactStr+0x42>
    3ba6:	90 93 64 39 	sts	0x3964, r25	; 0x803964 <reactStr+0x43>
    reactStr[2][number]=type;
    3baa:	81 e0       	ldi	r24, 0x01	; 1
    3bac:	90 e0       	ldi	r25, 0x00	; 0
    3bae:	80 93 a3 39 	sts	0x39A3, r24	; 0x8039a3 <reactStr+0x82>
    3bb2:	90 93 a4 39 	sts	0x39A4, r25	; 0x8039a4 <reactStr+0x83>
                for (uint8_t x=0; x<2; ++x) {
                    if (inventory[x]) {
                        if (CheckLetter(inventory[x], data[1])) {
                            PopulateObject(inventory[x], &actObj1);
                            SetResponse(elements++, A_DROPPING, L_DROPPING, TEASER);
                            SetResponse(elements++, actObj1.addrStr[NAME], actObj1.lenStr[NAME], GAME);
    3bb6:	20 91 fa 38 	lds	r18, 0x38FA	; 0x8038fa <actObj1.3989+0x1a>
    3bba:	30 91 fb 38 	lds	r19, 0x38FB	; 0x8038fb <actObj1.3989+0x1b>
    return 0;
}

//
void SetResponse(uint8_t number, uint16_t address, uint16_t length, uint8_t type){
    reactStr[0][number]=address;
    3bbe:	40 91 ec 38 	lds	r20, 0x38EC	; 0x8038ec <actObj1.3989+0xc>
    3bc2:	50 91 ed 38 	lds	r21, 0x38ED	; 0x8038ed <actObj1.3989+0xd>
    3bc6:	40 93 25 39 	sts	0x3925, r20	; 0x803925 <reactStr+0x4>
    3bca:	50 93 26 39 	sts	0x3926, r21	; 0x803926 <reactStr+0x5>
    reactStr[1][number]=length;
    3bce:	20 93 65 39 	sts	0x3965, r18	; 0x803965 <reactStr+0x44>
    3bd2:	30 93 66 39 	sts	0x3966, r19	; 0x803966 <reactStr+0x45>
    reactStr[2][number]=type;
    3bd6:	10 92 a5 39 	sts	0x39A5, r1	; 0x8039a5 <reactStr+0x84>
    3bda:	10 92 a6 39 	sts	0x39A6, r1	; 0x8039a6 <reactStr+0x85>
    return 0;
}

//
void SetResponse(uint8_t number, uint16_t address, uint16_t length, uint8_t type){
    reactStr[0][number]=address;
    3bde:	29 e5       	ldi	r18, 0x59	; 89
    3be0:	3a e7       	ldi	r19, 0x7A	; 122
    3be2:	20 93 27 39 	sts	0x3927, r18	; 0x803927 <reactStr+0x6>
    3be6:	30 93 28 39 	sts	0x3928, r19	; 0x803928 <reactStr+0x7>
    reactStr[1][number]=length;
    3bea:	22 e0       	ldi	r18, 0x02	; 2
    3bec:	30 e0       	ldi	r19, 0x00	; 0
    3bee:	20 93 67 39 	sts	0x3967, r18	; 0x803967 <reactStr+0x46>
    3bf2:	30 93 68 39 	sts	0x3968, r19	; 0x803968 <reactStr+0x47>
    reactStr[2][number]=type;
    3bf6:	80 93 a7 39 	sts	0x39A7, r24	; 0x8039a7 <reactStr+0x86>
    3bfa:	90 93 a8 39 	sts	0x39A8, r25	; 0x8039a8 <reactStr+0x87>
    return 0;
}

//
void SetResponse(uint8_t number, uint16_t address, uint16_t length, uint8_t type){
    reactStr[0][number]=address;
    3bfe:	29 e5       	ldi	r18, 0x59	; 89
    3c00:	37 e7       	ldi	r19, 0x77	; 119
    3c02:	20 93 29 39 	sts	0x3929, r18	; 0x803929 <reactStr+0x8>
    3c06:	30 93 2a 39 	sts	0x392A, r19	; 0x80392a <reactStr+0x9>
    reactStr[1][number]=length;
    3c0a:	2d e3       	ldi	r18, 0x3D	; 61
    3c0c:	30 e0       	ldi	r19, 0x00	; 0
    3c0e:	20 93 69 39 	sts	0x3969, r18	; 0x803969 <reactStr+0x48>
    3c12:	30 93 6a 39 	sts	0x396A, r19	; 0x80396a <reactStr+0x49>
    reactStr[2][number]=type;
    3c16:	80 93 a9 39 	sts	0x39A9, r24	; 0x8039a9 <reactStr+0x88>
    3c1a:	90 93 aa 39 	sts	0x39AA, r25	; 0x8039aa <reactStr+0x89>
                            PopulateObject(inventory[x], &actObj1);
                            SetResponse(elements++, A_DROPPING, L_DROPPING, TEASER);
                            SetResponse(elements++, actObj1.addrStr[NAME], actObj1.lenStr[NAME], GAME);
                            SetResponse(elements++, A_LF, 2, TEASER);
                            SetResponse(elements++, A_RETURNING, L_RETURNING, TEASER);
                            inventory[x] = 0;
    3c1e:	f8 01       	movw	r30, r16
    3c20:	10 82       	st	Z, r1
    3c22:	11 82       	std	Z+1, r1	; 0x01
                        if (CheckLetter(inventory[x], data[1])) {
                            PopulateObject(inventory[x], &actObj1);
                            SetResponse(elements++, A_DROPPING, L_DROPPING, TEASER);
                            SetResponse(elements++, actObj1.addrStr[NAME], actObj1.lenStr[NAME], GAME);
                            SetResponse(elements++, A_LF, 2, TEASER);
                            SetResponse(elements++, A_RETURNING, L_RETURNING, TEASER);
    3c24:	15 e0       	ldi	r17, 0x05	; 5
                            inventory[x] = 0;
                            break;
    3c26:	86 cf       	rjmp	.-244    	; 0x3b34 <ProcessInput+0xed6>
                SetResponse(elements++, A_EMPTYHANDS, L_EMPTYHANDS, TEASER);
            } else if (inputLen != 2) {
                SetResponse(elements++, A_NOTPOSSIBLE, L_NOTPOSSIBLE, TEASER);
            } else {
                for (uint8_t x=0; x<2; ++x) {
                    if (inventory[x]) {
    3c28:	80 91 46 38 	lds	r24, 0x3846	; 0x803846 <inventory+0x2>
    3c2c:	90 91 47 38 	lds	r25, 0x3847	; 0x803847 <inventory+0x3>
    3c30:	00 97       	sbiw	r24, 0x00	; 0
    3c32:	49 f0       	breq	.+18     	; 0x3c46 <ProcessInput+0xfe8>
                        if (CheckLetter(inventory[x], data[1])) {
    3c34:	f3 01       	movw	r30, r6
    3c36:	61 81       	ldd	r22, Z+1	; 0x01
    3c38:	0e 94 54 12 	call	0x24a8	; 0x24a8 <CheckLetter>
    3c3c:	88 23       	and	r24, r24
    3c3e:	19 f0       	breq	.+6      	; 0x3c46 <ProcessInput+0xfe8>
                SetResponse(elements++, A_EMPTYHANDS, L_EMPTYHANDS, TEASER);
            } else if (inputLen != 2) {
                SetResponse(elements++, A_NOTPOSSIBLE, L_NOTPOSSIBLE, TEASER);
            } else {
                for (uint8_t x=0; x<2; ++x) {
                    if (inventory[x]) {
    3c40:	01 e0       	ldi	r16, 0x01	; 1
    3c42:	10 e0       	ldi	r17, 0x00	; 0
    3c44:	9b cf       	rjmp	.-202    	; 0x3b7c <ProcessInput+0xf1e>
    return 0;
}

//
void SetResponse(uint8_t number, uint16_t address, uint16_t length, uint8_t type){
    reactStr[0][number]=address;
    3c46:	81 e6       	ldi	r24, 0x61	; 97
    3c48:	99 e7       	ldi	r25, 0x79	; 121
    3c4a:	80 93 23 39 	sts	0x3923, r24	; 0x803923 <reactStr+0x2>
    3c4e:	90 93 24 39 	sts	0x3924, r25	; 0x803924 <reactStr+0x3>
    reactStr[1][number]=length;
    3c52:	81 e2       	ldi	r24, 0x21	; 33
    3c54:	90 e0       	ldi	r25, 0x00	; 0
    } else {

        responseList = SetStandardResponse(1);
    }

    data[0] = 0;
    3c56:	cb c8       	rjmp	.-3690   	; 0x2dee <ProcessInput+0x190>
    3c58:	f3 01       	movw	r30, r6
    serRxDone = 0;
    3c5a:	10 82       	st	Z, r1
    3c5c:	10 92 4a 38 	sts	0x384A, r1	; 0x80384a <serRxDone>
    RXCNT = 0;    
    return 0;
}
    3c60:	1d ba       	out	0x1d, r1	; 29
    3c62:	80 e0       	ldi	r24, 0x00	; 0
    3c64:	28 96       	adiw	r28, 0x08	; 8
    3c66:	ee e0       	ldi	r30, 0x0E	; 14
    3c68:	f6 c0       	rjmp	.+492    	; 0x3e56 <__epilogue_restores__+0x8>

00003c6a <TextAdventure>:


//MAIN GAME STRUCTURE
uint8_t TextAdventure(){
    3c6a:	cf 93       	push	r28
    static uint8_t serInput[RXLEN];
    uint16_t PunishmentCount;
    
    /* Count down PunishmentTime on WING LEDs */
    if (PunishmentTime != 0) {
    3c6c:	80 91 0d 39 	lds	r24, 0x390D	; 0x80390d <PunishmentTime>
    3c70:	90 91 0e 39 	lds	r25, 0x390E	; 0x80390e <PunishmentTime+0x1>
    3c74:	89 2b       	or	r24, r25
    3c76:	09 f1       	breq	.+66     	; 0x3cba <TextAdventure+0x50>
        PunishmentCount = getClock();
    3c78:	0e 94 2a 0e 	call	0x1c54	; 0x1c54 <getClock>
        if (PunishmentCount < PunishmentTime)
    3c7c:	20 91 0d 39 	lds	r18, 0x390D	; 0x80390d <PunishmentTime>
    3c80:	30 91 0e 39 	lds	r19, 0x390E	; 0x80390e <PunishmentTime+0x1>
    3c84:	82 17       	cp	r24, r18
    3c86:	93 07       	cpc	r25, r19
    3c88:	08 f4       	brcc	.+2      	; 0x3c8c <TextAdventure+0x22>
            PunishmentCount += 256 * 60;
    3c8a:	94 5c       	subi	r25, 0xC4	; 196
        PunishmentCount -= PunishmentTime;
    3c8c:	ac 01       	movw	r20, r24
    3c8e:	42 1b       	sub	r20, r18
    3c90:	53 0b       	sbc	r21, r19
    3c92:	9a 01       	movw	r18, r20
        if (PunishmentCount > 10) {
    3c94:	4b 30       	cpi	r20, 0x0B	; 11
    3c96:	51 05       	cpc	r21, r1
    3c98:	30 f0       	brcs	.+12     	; 0x3ca6 <TextAdventure+0x3c>
            PunishmentTime = 0;
    3c9a:	10 92 0d 39 	sts	0x390D, r1	; 0x80390d <PunishmentTime>
    3c9e:	10 92 0e 39 	sts	0x390E, r1	; 0x80390e <PunishmentTime+0x1>
            PunishmentCount = 10;
    3ca2:	2a e0       	ldi	r18, 0x0A	; 10
    3ca4:	30 e0       	ldi	r19, 0x00	; 0
        }
        if (gameNow == TEXT ) {
    3ca6:	80 91 42 38 	lds	r24, 0x3842	; 0x803842 <gameNow>
    3caa:	81 11       	cpse	r24, r1
    3cac:	06 c0       	rjmp	.+12     	; 0x3cba <TextAdventure+0x50>
            WingBar(10-PunishmentCount,5-PunishmentCount);
    3cae:	65 e0       	ldi	r22, 0x05	; 5
    3cb0:	62 1b       	sub	r22, r18
    3cb2:	8a e0       	ldi	r24, 0x0A	; 10
    3cb4:	82 1b       	sub	r24, r18
    3cb6:	0e 94 dd 0a 	call	0x15ba	; 0x15ba <WingBar>
        }
    }

    //Still sending data to serial?
    if (CheckSend()) return 1;
    3cba:	0e 94 2a 13 	call	0x2654	; 0x2654 <CheckSend>
    3cbe:	88 23       	and	r24, r24
    3cc0:	11 f0       	breq	.+4      	; 0x3cc6 <TextAdventure+0x5c>
    3cc2:	c1 e0       	ldi	r28, 0x01	; 1
    3cc4:	18 c0       	rjmp	.+48     	; 0x3cf6 <TextAdventure+0x8c>

    //Not sending? Process next response part to send, if any.
    if (CheckResponse()) return 1;        
    3cc6:	0e 94 80 13 	call	0x2700	; 0x2700 <CheckResponse>
    3cca:	c8 2f       	mov	r28, r24
    3ccc:	81 11       	cpse	r24, r1
    3cce:	f9 cf       	rjmp	.-14     	; 0x3cc2 <TextAdventure+0x58>

    if (PunishmentTime == 0) {
    3cd0:	80 91 0d 39 	lds	r24, 0x390D	; 0x80390d <PunishmentTime>
    3cd4:	90 91 0e 39 	lds	r25, 0x390E	; 0x80390e <PunishmentTime+0x1>
    3cd8:	89 2b       	or	r24, r25
    3cda:	69 f4       	brne	.+26     	; 0x3cf6 <TextAdventure+0x8c>
        //No responses to send, check if there is user input.
        if (CheckInput(&serInput[0])) return 2; 
    3cdc:	84 e7       	ldi	r24, 0x74	; 116
    3cde:	98 e3       	ldi	r25, 0x38	; 56
    3ce0:	0e 94 c0 13 	call	0x2780	; 0x2780 <CheckInput>
    3ce4:	c8 2f       	mov	r28, r24
    3ce6:	81 11       	cpse	r24, r1
    3ce8:	05 c0       	rjmp	.+10     	; 0x3cf4 <TextAdventure+0x8a>

        //Input found, process and save (changes only)
        ProcessInput(&serInput[0]);
    3cea:	84 e7       	ldi	r24, 0x74	; 116
    3cec:	98 e3       	ldi	r25, 0x38	; 56
    3cee:	0e 94 2f 16 	call	0x2c5e	; 0x2c5e <ProcessInput>
    3cf2:	01 c0       	rjmp	.+2      	; 0x3cf6 <TextAdventure+0x8c>
    //Not sending? Process next response part to send, if any.
    if (CheckResponse()) return 1;        

    if (PunishmentTime == 0) {
        //No responses to send, check if there is user input.
        if (CheckInput(&serInput[0])) return 2; 
    3cf4:	c2 e0       	ldi	r28, 0x02	; 2
        //Input found, process and save (changes only)
        ProcessInput(&serInput[0]);
    }

    return 0;
}
    3cf6:	8c 2f       	mov	r24, r28
    3cf8:	cf 91       	pop	r28
    3cfa:	08 95       	ret

00003cfc <main>:


//This is where it begins, inits first and main program in while(1) loop.
int main(void)
{
    Setup();
    3cfc:	0e 94 cc 04 	call	0x998	; 0x998 <Setup>
    LoadGameState();
    3d00:	0e 94 4b 0a 	call	0x1496	; 0x1496 <LoadGameState>
    gameState[0]|=1;
    3d04:	80 91 67 3a 	lds	r24, 0x3A67	; 0x803a67 <gameState>
    3d08:	81 60       	ori	r24, 0x01	; 1
    3d0a:	80 93 67 3a 	sts	0x3A67, r24	; 0x803a67 <gameState>
    SelfTest();
    3d0e:	0e 94 51 0e 	call	0x1ca2	; 0x1ca2 <SelfTest>
            if (adcPhot < 10) UpdateState(116);
            if (adcPhot > 100) UpdateState(128+116);

            dimValueSum -= (dimValueSum>>6);
            dimValueSum += 256;
            dimValueSum -= QSINE[31-(adcPhot>>7)];
    3d12:	cf e1       	ldi	r28, 0x1F	; 31
    3d14:	d0 e0       	ldi	r29, 0x00	; 0
    LoadGameState();
    gameState[0]|=1;
    SelfTest();

    while (TRUE) {
        if (GenerateAudio()) {
    3d16:	0e 94 99 0c 	call	0x1932	; 0x1932 <GenerateAudio>
    3d1a:	88 23       	and	r24, r24
    3d1c:	e1 f3       	breq	.-8      	; 0x3d16 <main+0x1a>
            lastButtonState = buttonState;
    3d1e:	80 91 08 38 	lds	r24, 0x3808	; 0x803808 <buttonState>
    3d22:	80 93 07 38 	sts	0x3807, r24	; 0x803807 <lastButtonState>
            buttonState = CheckButtons();
    3d26:	0e 94 b8 08 	call	0x1170	; 0x1170 <CheckButtons>
    3d2a:	80 93 08 38 	sts	0x3808, r24	; 0x803808 <buttonState>
            --buttonMark;
    3d2e:	80 91 48 38 	lds	r24, 0x3848	; 0x803848 <buttonMark>
    3d32:	81 50       	subi	r24, 0x01	; 1
    3d34:	80 93 48 38 	sts	0x3848, r24	; 0x803848 <buttonMark>

            if (VREF_CTRLA == 0x12) SelectAuIn(); else SelectTSens();
    3d38:	80 91 a0 00 	lds	r24, 0x00A0	; 0x8000a0 <__TEXT_REGION_LENGTH__+0x7000a0>
    3d3c:	82 31       	cpi	r24, 0x12	; 18
    3d3e:	19 f4       	brne	.+6      	; 0x3d46 <main+0x4a>
    3d40:	0e 94 a9 08 	call	0x1152	; 0x1152 <SelectAuIn>
    3d44:	02 c0       	rjmp	.+4      	; 0x3d4a <main+0x4e>
    3d46:	0e 94 9a 08 	call	0x1134	; 0x1134 <SelectTSens>

            GenerateBlinks();
    3d4a:	0e 94 32 0b 	call	0x1664	; 0x1664 <GenerateBlinks>

            //Main game, to complete: Finish sub-game MagnetMaze and MakeFriends too.
            TextAdventure();
    3d4e:	8d df       	rcall	.-230    	; 0x3c6a <TextAdventure>

            //Other games & user interaction checks
            MagnetMaze();
    3d50:	0e 94 cf 03 	call	0x79e	; 0x79e <MagnetMaze>
            LanyardCode();
    3d54:	0e 94 d4 02 	call	0x5a8	; 0x5a8 <LanyardCode>
            BastetDictates();
    3d58:	0e 94 3a 0f 	call	0x1e74	; 0x1e74 <BastetDictates>
            MakeFriends();
    3d5c:	0e 94 7d 00 	call	0xfa	; 0xfa <MakeFriends>

            //Save progress
            SaveGameState();
    3d60:	0e 94 65 09 	call	0x12ca	; 0x12ca <SaveGameState>

            //Check light sensor status (added hysteresis to preserve writing cycles to internal EEPROM)
            if (adcPhot < 10) UpdateState(116);
    3d64:	80 91 c3 3a 	lds	r24, 0x3AC3	; 0x803ac3 <adcPhot>
    3d68:	90 91 c4 3a 	lds	r25, 0x3AC4	; 0x803ac4 <adcPhot+0x1>
    3d6c:	0a 97       	sbiw	r24, 0x0a	; 10
    3d6e:	18 f4       	brcc	.+6      	; 0x3d76 <main+0x7a>
    3d70:	84 e7       	ldi	r24, 0x74	; 116
    3d72:	0e 94 ec 09 	call	0x13d8	; 0x13d8 <UpdateState>
            if (adcPhot > 100) UpdateState(128+116);
    3d76:	80 91 c3 3a 	lds	r24, 0x3AC3	; 0x803ac3 <adcPhot>
    3d7a:	90 91 c4 3a 	lds	r25, 0x3AC4	; 0x803ac4 <adcPhot+0x1>
    3d7e:	85 36       	cpi	r24, 0x65	; 101
    3d80:	91 05       	cpc	r25, r1
    3d82:	18 f0       	brcs	.+6      	; 0x3d8a <main+0x8e>
    3d84:	84 ef       	ldi	r24, 0xF4	; 244
    3d86:	0e 94 ec 09 	call	0x13d8	; 0x13d8 <UpdateState>

            dimValueSum -= (dimValueSum>>6);
    3d8a:	20 91 0a 38 	lds	r18, 0x380A	; 0x80380a <dimValueSum>
    3d8e:	30 91 0b 38 	lds	r19, 0x380B	; 0x80380b <dimValueSum+0x1>
    3d92:	80 91 0a 38 	lds	r24, 0x380A	; 0x80380a <dimValueSum>
    3d96:	90 91 0b 38 	lds	r25, 0x380B	; 0x80380b <dimValueSum+0x1>
    3d9a:	46 e0       	ldi	r20, 0x06	; 6
    3d9c:	36 95       	lsr	r19
    3d9e:	27 95       	ror	r18
    3da0:	4a 95       	dec	r20
    3da2:	e1 f7       	brne	.-8      	; 0x3d9c <main+0xa0>
    3da4:	82 1b       	sub	r24, r18
    3da6:	93 0b       	sbc	r25, r19
    3da8:	80 93 0a 38 	sts	0x380A, r24	; 0x80380a <dimValueSum>
    3dac:	90 93 0b 38 	sts	0x380B, r25	; 0x80380b <dimValueSum+0x1>
            dimValueSum += 256;
    3db0:	80 91 0a 38 	lds	r24, 0x380A	; 0x80380a <dimValueSum>
    3db4:	90 91 0b 38 	lds	r25, 0x380B	; 0x80380b <dimValueSum+0x1>
    3db8:	93 95       	inc	r25
    3dba:	80 93 0a 38 	sts	0x380A, r24	; 0x80380a <dimValueSum>
    3dbe:	90 93 0b 38 	sts	0x380B, r25	; 0x80380b <dimValueSum+0x1>
            dimValueSum -= QSINE[31-(adcPhot>>7)];
    3dc2:	20 91 c3 3a 	lds	r18, 0x3AC3	; 0x803ac3 <adcPhot>
    3dc6:	30 91 c4 3a 	lds	r19, 0x3AC4	; 0x803ac4 <adcPhot+0x1>
    3dca:	80 91 0a 38 	lds	r24, 0x380A	; 0x80380a <dimValueSum>
    3dce:	90 91 0b 38 	lds	r25, 0x380B	; 0x80380b <dimValueSum+0x1>
    3dd2:	22 0f       	add	r18, r18
    3dd4:	23 2f       	mov	r18, r19
    3dd6:	22 1f       	adc	r18, r18
    3dd8:	33 0b       	sbc	r19, r19
    3dda:	31 95       	neg	r19
    3ddc:	fe 01       	movw	r30, r28
    3dde:	e2 1b       	sub	r30, r18
    3de0:	f3 0b       	sbc	r31, r19
    3de2:	e8 53       	subi	r30, 0x38	; 56
    3de4:	f1 44       	sbci	r31, 0x41	; 65
    3de6:	20 81       	ld	r18, Z
    3de8:	82 1b       	sub	r24, r18
    3dea:	91 09       	sbc	r25, r1
    3dec:	80 93 0a 38 	sts	0x380A, r24	; 0x80380a <dimValueSum>
    3df0:	90 93 0b 38 	sts	0x380B, r25	; 0x80380b <dimValueSum+0x1>
            dimValue     = dimValueSum>>6;
    3df4:	80 91 0a 38 	lds	r24, 0x380A	; 0x80380a <dimValueSum>
    3df8:	90 91 0b 38 	lds	r25, 0x380B	; 0x80380b <dimValueSum+0x1>
    3dfc:	66 e0       	ldi	r22, 0x06	; 6
    3dfe:	96 95       	lsr	r25
    3e00:	87 95       	ror	r24
    3e02:	6a 95       	dec	r22
    3e04:	e1 f7       	brne	.-8      	; 0x3dfe <main+0x102>
    3e06:	80 93 0c 38 	sts	0x380C, r24	; 0x80380c <dimValue>

            //Check temperature
            HotSummer();
    3e0a:	0e 94 78 0a 	call	0x14f0	; 0x14f0 <HotSummer>
    3e0e:	83 cf       	rjmp	.-250    	; 0x3d16 <main+0x1a>

00003e10 <__tablejump2__>:
    3e10:	ee 0f       	add	r30, r30
    3e12:	ff 1f       	adc	r31, r31
    3e14:	05 90       	lpm	r0, Z+
    3e16:	f4 91       	lpm	r31, Z
    3e18:	e0 2d       	mov	r30, r0
    3e1a:	09 94       	ijmp

00003e1c <__prologue_saves__>:
    3e1c:	2f 92       	push	r2
    3e1e:	3f 92       	push	r3
    3e20:	4f 92       	push	r4
    3e22:	5f 92       	push	r5
    3e24:	6f 92       	push	r6
    3e26:	7f 92       	push	r7
    3e28:	8f 92       	push	r8
    3e2a:	9f 92       	push	r9
    3e2c:	af 92       	push	r10
    3e2e:	bf 92       	push	r11
    3e30:	cf 92       	push	r12
    3e32:	df 92       	push	r13
    3e34:	ef 92       	push	r14
    3e36:	ff 92       	push	r15
    3e38:	0f 93       	push	r16
    3e3a:	1f 93       	push	r17
    3e3c:	cf 93       	push	r28
    3e3e:	df 93       	push	r29
    3e40:	cd b7       	in	r28, 0x3d	; 61
    3e42:	de b7       	in	r29, 0x3e	; 62
    3e44:	ca 1b       	sub	r28, r26
    3e46:	db 0b       	sbc	r29, r27
    3e48:	cd bf       	out	0x3d, r28	; 61
    3e4a:	de bf       	out	0x3e, r29	; 62
    3e4c:	09 94       	ijmp

00003e4e <__epilogue_restores__>:
    3e4e:	2a 88       	ldd	r2, Y+18	; 0x12
    3e50:	39 88       	ldd	r3, Y+17	; 0x11
    3e52:	48 88       	ldd	r4, Y+16	; 0x10
    3e54:	5f 84       	ldd	r5, Y+15	; 0x0f
    3e56:	6e 84       	ldd	r6, Y+14	; 0x0e
    3e58:	7d 84       	ldd	r7, Y+13	; 0x0d
    3e5a:	8c 84       	ldd	r8, Y+12	; 0x0c
    3e5c:	9b 84       	ldd	r9, Y+11	; 0x0b
    3e5e:	aa 84       	ldd	r10, Y+10	; 0x0a
    3e60:	b9 84       	ldd	r11, Y+9	; 0x09
    3e62:	c8 84       	ldd	r12, Y+8	; 0x08
    3e64:	df 80       	ldd	r13, Y+7	; 0x07
    3e66:	ee 80       	ldd	r14, Y+6	; 0x06
    3e68:	fd 80       	ldd	r15, Y+5	; 0x05
    3e6a:	0c 81       	ldd	r16, Y+4	; 0x04
    3e6c:	1b 81       	ldd	r17, Y+3	; 0x03
    3e6e:	aa 81       	ldd	r26, Y+2	; 0x02
    3e70:	b9 81       	ldd	r27, Y+1	; 0x01
    3e72:	ce 0f       	add	r28, r30
    3e74:	d1 1d       	adc	r29, r1
    3e76:	cd bf       	out	0x3d, r28	; 61
    3e78:	de bf       	out	0x3e, r29	; 62
    3e7a:	ed 01       	movw	r28, r26
    3e7c:	08 95       	ret

00003e7e <_exit>:
    3e7e:	f8 94       	cli

00003e80 <__stop_program>:
    3e80:	ff cf       	rjmp	.-2      	; 0x3e80 <__stop_program>
