
ISR_IO.elf:     file format elf32-avr

Sections:
Idx Name          Size      VMA       LMA       File off  Algn
  0 .data         00000016  00803800  00001998  00001a4c  2**0
                  CONTENTS, ALLOC, LOAD, DATA
  1 .text         00001954  00000000  00000000  000000b4  2**1
                  CONTENTS, ALLOC, LOAD, READONLY, CODE
  2 .rodata       00000044  00009954  00001954  00001a08  2**0
                  CONTENTS, ALLOC, LOAD, READONLY, DATA
  3 .bss          000001ff  00803816  00803816  00001a62  2**0
                  ALLOC
  4 .comment      00000030  00000000  00000000  00001a62  2**0
                  CONTENTS, READONLY
  5 .note.gnu.avr.deviceinfo 00000040  00000000  00000000  00001a94  2**2
                  CONTENTS, READONLY
  6 .debug_aranges 00000230  00000000  00000000  00001ad4  2**0
                  CONTENTS, READONLY, DEBUGGING
  7 .debug_info   0000421f  00000000  00000000  00001d04  2**0
                  CONTENTS, READONLY, DEBUGGING
  8 .debug_abbrev 00002252  00000000  00000000  00005f23  2**0
                  CONTENTS, READONLY, DEBUGGING
  9 .debug_line   00001ca9  00000000  00000000  00008175  2**0
                  CONTENTS, READONLY, DEBUGGING
 10 .debug_frame  0000076c  00000000  00000000  00009e20  2**2
                  CONTENTS, READONLY, DEBUGGING
 11 .debug_str    000016d8  00000000  00000000  0000a58c  2**0
                  CONTENTS, READONLY, DEBUGGING
 12 .debug_loc    00002433  00000000  00000000  0000bc64  2**0
                  CONTENTS, READONLY, DEBUGGING
 13 .debug_ranges 00000298  00000000  00000000  0000e097  2**0
                  CONTENTS, READONLY, DEBUGGING

Disassembly of section .text:

00000000 <__vectors>:
       0:	3d c0       	rjmp	.+122    	; 0x7c <__ctors_end>
       2:	00 00       	nop
       4:	58 c0       	rjmp	.+176    	; 0xb6 <__bad_interrupt>
       6:	00 00       	nop
       8:	56 c0       	rjmp	.+172    	; 0xb6 <__bad_interrupt>
       a:	00 00       	nop
       c:	54 c0       	rjmp	.+168    	; 0xb6 <__bad_interrupt>
       e:	00 00       	nop
      10:	52 c0       	rjmp	.+164    	; 0xb6 <__bad_interrupt>
      12:	00 00       	nop
      14:	50 c0       	rjmp	.+160    	; 0xb6 <__bad_interrupt>
      16:	00 00       	nop
      18:	24 c4       	rjmp	.+2120   	; 0x862 <__vector_6>
      1a:	00 00       	nop
      1c:	77 c4       	rjmp	.+2286   	; 0x90c <__vector_7>
      1e:	00 00       	nop
      20:	78 c2       	rjmp	.+1264   	; 0x512 <__vector_8>
      22:	00 00       	nop
      24:	48 c0       	rjmp	.+144    	; 0xb6 <__bad_interrupt>
      26:	00 00       	nop
      28:	46 c0       	rjmp	.+140    	; 0xb6 <__bad_interrupt>
      2a:	00 00       	nop
      2c:	44 c0       	rjmp	.+136    	; 0xb6 <__bad_interrupt>
      2e:	00 00       	nop
      30:	42 c0       	rjmp	.+132    	; 0xb6 <__bad_interrupt>
      32:	00 00       	nop
      34:	c2 c2       	rjmp	.+1412   	; 0x5ba <__vector_13>
      36:	00 00       	nop
      38:	f3 c2       	rjmp	.+1510   	; 0x620 <__vector_14>
      3a:	00 00       	nop
      3c:	3c c0       	rjmp	.+120    	; 0xb6 <__bad_interrupt>
      3e:	00 00       	nop
      40:	3a c0       	rjmp	.+116    	; 0xb6 <__bad_interrupt>
      42:	00 00       	nop
      44:	38 c0       	rjmp	.+112    	; 0xb6 <__bad_interrupt>
      46:	00 00       	nop
      48:	36 c0       	rjmp	.+108    	; 0xb6 <__bad_interrupt>
      4a:	00 00       	nop
      4c:	34 c0       	rjmp	.+104    	; 0xb6 <__bad_interrupt>
      4e:	00 00       	nop
      50:	8a c3       	rjmp	.+1812   	; 0x766 <__vector_20>
      52:	00 00       	nop
      54:	30 c0       	rjmp	.+96     	; 0xb6 <__bad_interrupt>
      56:	00 00       	nop
      58:	b4 c3       	rjmp	.+1896   	; 0x7c2 <__vector_22>
      5a:	00 00       	nop
      5c:	2c c0       	rjmp	.+88     	; 0xb6 <__bad_interrupt>
      5e:	00 00       	nop
      60:	2a c0       	rjmp	.+84     	; 0xb6 <__bad_interrupt>
      62:	00 00       	nop
      64:	28 c0       	rjmp	.+80     	; 0xb6 <__bad_interrupt>
      66:	00 00       	nop
      68:	26 c0       	rjmp	.+76     	; 0xb6 <__bad_interrupt>
      6a:	00 00       	nop
      6c:	2c c3       	rjmp	.+1624   	; 0x6c6 <__vector_27>
      6e:	00 00       	nop
      70:	5e c3       	rjmp	.+1724   	; 0x72e <__vector_28>
      72:	00 00       	nop
      74:	20 c0       	rjmp	.+64     	; 0xb6 <__bad_interrupt>
      76:	00 00       	nop
      78:	1e c0       	rjmp	.+60     	; 0xb6 <__bad_interrupt>
	...

0000007c <__ctors_end>:
      7c:	11 24       	eor	r1, r1
      7e:	1f be       	out	0x3f, r1	; 63
      80:	cf ef       	ldi	r28, 0xFF	; 255
      82:	cd bf       	out	0x3d, r28	; 61
      84:	df e3       	ldi	r29, 0x3F	; 63
      86:	de bf       	out	0x3e, r29	; 62

00000088 <__do_copy_data>:
      88:	18 e3       	ldi	r17, 0x38	; 56
      8a:	a0 e0       	ldi	r26, 0x00	; 0
      8c:	b8 e3       	ldi	r27, 0x38	; 56
      8e:	e8 e9       	ldi	r30, 0x98	; 152
      90:	f9 e1       	ldi	r31, 0x19	; 25
      92:	02 c0       	rjmp	.+4      	; 0x98 <__do_copy_data+0x10>
      94:	05 90       	lpm	r0, Z+
      96:	0d 92       	st	X+, r0
      98:	a6 31       	cpi	r26, 0x16	; 22
      9a:	b1 07       	cpc	r27, r17
      9c:	d9 f7       	brne	.-10     	; 0x94 <__do_copy_data+0xc>

0000009e <__do_clear_bss>:
      9e:	2a e3       	ldi	r18, 0x3A	; 58
      a0:	a6 e1       	ldi	r26, 0x16	; 22
      a2:	b8 e3       	ldi	r27, 0x38	; 56
      a4:	01 c0       	rjmp	.+2      	; 0xa8 <.do_clear_bss_start>

000000a6 <.do_clear_bss_loop>:
      a6:	1d 92       	st	X+, r1

000000a8 <.do_clear_bss_start>:
      a8:	a5 31       	cpi	r26, 0x15	; 21
      aa:	b2 07       	cpc	r27, r18
      ac:	e1 f7       	brne	.-8      	; 0xa6 <.do_clear_bss_loop>
      ae:	0e 94 26 0c 	call	0x184c	; 0x184c <main>
      b2:	0c 94 a8 0c 	jmp	0x1950	; 0x1950 <_exit>

000000b6 <__bad_interrupt>:
      b6:	a4 cf       	rjmp	.-184    	; 0x0 <__vectors>

000000b8 <I2C_init>:
// the Atmel device documentation mentions a special command for repeated start TWI_MCMD_REPSTART_gc,
// but this is not used in Atmel's demo code, so we don't use it either

void I2C_rep_start(uint8_t shifted_addr)						    // send repeated start, device_addr + LSB set if READ
{
	TWI0.MADDR = shifted_addr;	
      b8:	81 e0       	ldi	r24, 0x01	; 1
      ba:	80 93 22 04 	sts	0x0422, r24	; 0x800422 <__TEXT_REGION_LENGTH__+0x700422>
      be:	e6 e2       	ldi	r30, 0x26	; 38
      c0:	f4 e0       	ldi	r31, 0x04	; 4
      c2:	80 83       	st	Z, r24
      c4:	10 92 30 04 	sts	0x0430, r1	; 0x800430 <__TEXT_REGION_LENGTH__+0x700430>
      c8:	a1 e2       	ldi	r26, 0x21	; 33
      ca:	b4 e0       	ldi	r27, 0x04	; 4
      cc:	92 e0       	ldi	r25, 0x02	; 2
      ce:	9c 93       	st	X, r25
      d0:	90 83       	st	Z, r25
      d2:	10 92 31 04 	sts	0x0431, r1	; 0x800431 <__TEXT_REGION_LENGTH__+0x700431>
      d6:	e0 e1       	ldi	r30, 0x10	; 16
      d8:	f8 e0       	ldi	r31, 0x08	; 8
      da:	9d e2       	ldi	r25, 0x2D	; 45
      dc:	96 83       	std	Z+6, r25	; 0x06
      de:	98 e0       	ldi	r25, 0x08	; 8
      e0:	94 83       	std	Z+4, r25	; 0x04
      e2:	83 83       	std	Z+3, r24	; 0x03
      e4:	8c 93       	st	X, r24
      e6:	85 81       	ldd	r24, Z+5	; 0x05
      e8:	81 60       	ori	r24, 0x01	; 1
      ea:	85 83       	std	Z+5, r24	; 0x05
      ec:	85 81       	ldd	r24, Z+5	; 0x05
      ee:	84 6c       	ori	r24, 0xC4	; 196
      f0:	85 83       	std	Z+5, r24	; 0x05
      f2:	08 95       	ret

000000f4 <I2C_recover>:
      f4:	e0 e1       	ldi	r30, 0x10	; 16
      f6:	f8 e0       	ldi	r31, 0x08	; 8
      f8:	84 81       	ldd	r24, Z+4	; 0x04
      fa:	88 60       	ori	r24, 0x08	; 8
      fc:	84 83       	std	Z+4, r24	; 0x04
      fe:	13 82       	std	Z+3, r1	; 0x03
     100:	82 e0       	ldi	r24, 0x02	; 2
     102:	80 93 22 04 	sts	0x0422, r24	; 0x800422 <__TEXT_REGION_LENGTH__+0x700422>
     106:	89 e0       	ldi	r24, 0x09	; 9
     108:	a1 e2       	ldi	r26, 0x21	; 33
     10a:	b4 e0       	ldi	r27, 0x04	; 4
     10c:	91 e0       	ldi	r25, 0x01	; 1
     10e:	e2 e2       	ldi	r30, 0x22	; 34
     110:	f4 e0       	ldi	r31, 0x04	; 4
     112:	9c 93       	st	X, r25
     114:	20 e1       	ldi	r18, 0x10	; 16
     116:	2a 95       	dec	r18
     118:	f1 f7       	brne	.-4      	; 0x116 <I2C_recover+0x22>
     11a:	00 c0       	rjmp	.+0      	; 0x11c <I2C_recover+0x28>
     11c:	90 83       	st	Z, r25
     11e:	20 e1       	ldi	r18, 0x10	; 16
     120:	2a 95       	dec	r18
     122:	f1 f7       	brne	.-4      	; 0x120 <I2C_recover+0x2c>
     124:	00 c0       	rjmp	.+0      	; 0x126 <I2C_recover+0x32>
     126:	81 50       	subi	r24, 0x01	; 1
     128:	a1 f7       	brne	.-24     	; 0x112 <I2C_recover+0x1e>
     12a:	e0 e1       	ldi	r30, 0x10	; 16
     12c:	f8 e0       	ldi	r31, 0x08	; 8
     12e:	28 e0       	ldi	r18, 0x08	; 8
     130:	24 83       	std	Z+4, r18	; 0x04
     132:	81 e0       	ldi	r24, 0x01	; 1
     134:	83 83       	std	Z+3, r24	; 0x03
     136:	a1 e2       	ldi	r26, 0x21	; 33
     138:	b4 e0       	ldi	r27, 0x04	; 4
     13a:	92 e0       	ldi	r25, 0x02	; 2
     13c:	9c 93       	st	X, r25
     13e:	95 81       	ldd	r25, Z+5	; 0x05
     140:	91 60       	ori	r25, 0x01	; 1
     142:	95 83       	std	Z+5, r25	; 0x05
     144:	95 81       	ldd	r25, Z+5	; 0x05
     146:	94 6c       	ori	r25, 0xC4	; 196
     148:	95 83       	std	Z+5, r25	; 0x05
     14a:	24 83       	std	Z+4, r18	; 0x04
     14c:	83 83       	std	Z+3, r24	; 0x03
     14e:	8c 93       	st	X, r24
     150:	85 81       	ldd	r24, Z+5	; 0x05
     152:	81 60       	ori	r24, 0x01	; 1
     154:	85 83       	std	Z+5, r24	; 0x05
     156:	85 81       	ldd	r24, Z+5	; 0x05
     158:	84 6c       	ori	r24, 0xC4	; 196
     15a:	85 83       	std	Z+5, r24	; 0x05
     15c:	08 95       	ret

0000015e <I2C_start>:
     15e:	28 2f       	mov	r18, r24
     160:	e0 e1       	ldi	r30, 0x10	; 16
     162:	f8 e0       	ldi	r31, 0x08	; 8
     164:	95 81       	ldd	r25, Z+5	; 0x05
     166:	90 6c       	ori	r25, 0xC0	; 192
     168:	95 83       	std	Z+5, r25	; 0x05
     16a:	95 81       	ldd	r25, Z+5	; 0x05
     16c:	89 2f       	mov	r24, r25
     16e:	84 70       	andi	r24, 0x04	; 4
     170:	92 fd       	sbrc	r25, 2
     172:	03 c0       	rjmp	.+6      	; 0x17a <I2C_start+0x1c>
     174:	20 93 17 08 	sts	0x0817, r18	; 0x800817 <__TEXT_REGION_LENGTH__+0x700817>
     178:	08 95       	ret
     17a:	84 e0       	ldi	r24, 0x04	; 4
     17c:	08 95       	ret

0000017e <I2C_wait_ACK>:
     17e:	8c e0       	ldi	r24, 0x0C	; 12
     180:	80 93 45 39 	sts	0x3945, r24	; 0x803945 <timeout_I2C>
     184:	e0 e1       	ldi	r30, 0x10	; 16
     186:	f8 e0       	ldi	r31, 0x08	; 8
     188:	04 c0       	rjmp	.+8      	; 0x192 <I2C_wait_ACK+0x14>
     18a:	80 91 45 39 	lds	r24, 0x3945	; 0x803945 <timeout_I2C>
     18e:	88 23       	and	r24, r24
     190:	b9 f0       	breq	.+46     	; 0x1c0 <I2C_wait_ACK+0x42>
     192:	85 81       	ldd	r24, Z+5	; 0x05
     194:	88 23       	and	r24, r24
     196:	1c f0       	brlt	.+6      	; 0x19e <I2C_wait_ACK+0x20>
     198:	85 81       	ldd	r24, Z+5	; 0x05
     19a:	86 ff       	sbrs	r24, 6
     19c:	f6 cf       	rjmp	.-20     	; 0x18a <I2C_wait_ACK+0xc>
     19e:	e0 e1       	ldi	r30, 0x10	; 16
     1a0:	f8 e0       	ldi	r31, 0x08	; 8
     1a2:	85 81       	ldd	r24, Z+5	; 0x05
     1a4:	80 6c       	ori	r24, 0xC0	; 192
     1a6:	85 83       	std	Z+5, r24	; 0x05
     1a8:	85 81       	ldd	r24, Z+5	; 0x05
     1aa:	82 fd       	sbrc	r24, 2
     1ac:	0b c0       	rjmp	.+22     	; 0x1c4 <I2C_wait_ACK+0x46>
     1ae:	80 91 15 08 	lds	r24, 0x0815	; 0x800815 <__TEXT_REGION_LENGTH__+0x700815>
     1b2:	83 fd       	sbrc	r24, 3
     1b4:	09 c0       	rjmp	.+18     	; 0x1c8 <I2C_wait_ACK+0x4a>
     1b6:	80 91 15 08 	lds	r24, 0x0815	; 0x800815 <__TEXT_REGION_LENGTH__+0x700815>
     1ba:	82 95       	swap	r24
     1bc:	81 70       	andi	r24, 0x01	; 1
     1be:	08 95       	ret
     1c0:	8f ef       	ldi	r24, 0xFF	; 255
     1c2:	08 95       	ret
     1c4:	84 e0       	ldi	r24, 0x04	; 4
     1c6:	08 95       	ret
     1c8:	82 e0       	ldi	r24, 0x02	; 2
     1ca:	08 95       	ret

000001cc <I2C_read>:
}

uint8_t	I2C_read(uint8_t *data, uint8_t ack_flag)					// read data, ack_flag 0: send ACK, 1: send NACK, returns status
{
     1cc:	dc 01       	movw	r26, r24
	timeout_I2C = READ_TIMEOUT;										// reset timeout counter, will be decremented by LED matrix interrupt
     1ce:	9c e0       	ldi	r25, 0x0C	; 12
     1d0:	90 93 45 39 	sts	0x3945, r25	; 0x803945 <timeout_I2C>
	if ((TWI0.MSTATUS & TWI_BUSSTATE_gm) == TWI_BUSSTATE_OWNER_gc)	// if master controls bus
     1d4:	90 91 15 08 	lds	r25, 0x0815	; 0x800815 <__TEXT_REGION_LENGTH__+0x700815>
     1d8:	89 2f       	mov	r24, r25
     1da:	83 70       	andi	r24, 0x03	; 3
     1dc:	82 30       	cpi	r24, 0x02	; 2
     1de:	39 f0       	breq	.+14     	; 0x1ee <I2C_read+0x22>
		else		TWI0.MCTRLB |= TWI_ACKACT_NACK_gc;				// setup NACK (last byte read)
		*data = TWI0.MDATA;
		if (ack_flag == 0) TWI0.MCTRLB |= TWI_MCMD_RECVTRANS_gc;	// send ACK, more bytes to follow					
		return 0;
	}
	else return 8;													// master does not control bus
     1e0:	88 e0       	ldi	r24, 0x08	; 8
     1e2:	08 95       	ret
	timeout_I2C = READ_TIMEOUT;										// reset timeout counter, will be decremented by LED matrix interrupt
	if ((TWI0.MSTATUS & TWI_BUSSTATE_gm) == TWI_BUSSTATE_OWNER_gc)	// if master controls bus
	{		
		while (!(TWI0.MSTATUS & TWI_RIF_bm))						// wait for RIF set (data byte received)
		{
			if (!(timeout_I2C)) return 0xff;			            // return timeout error
     1e4:	90 91 45 39 	lds	r25, 0x3945	; 0x803945 <timeout_I2C>
     1e8:	91 11       	cpse	r25, r1
     1ea:	03 c0       	rjmp	.+6      	; 0x1f2 <I2C_read+0x26>
     1ec:	2a c0       	rjmp	.+84     	; 0x242 <I2C_read+0x76>
uint8_t	I2C_read(uint8_t *data, uint8_t ack_flag)					// read data, ack_flag 0: send ACK, 1: send NACK, returns status
{
	timeout_I2C = READ_TIMEOUT;										// reset timeout counter, will be decremented by LED matrix interrupt
	if ((TWI0.MSTATUS & TWI_BUSSTATE_gm) == TWI_BUSSTATE_OWNER_gc)	// if master controls bus
	{		
		while (!(TWI0.MSTATUS & TWI_RIF_bm))						// wait for RIF set (data byte received)
     1ee:	e0 e1       	ldi	r30, 0x10	; 16
     1f0:	f8 e0       	ldi	r31, 0x08	; 8
     1f2:	95 81       	ldd	r25, Z+5	; 0x05
     1f4:	99 23       	and	r25, r25
     1f6:	b4 f7       	brge	.-20     	; 0x1e4 <I2C_read+0x18>
		{
			if (!(timeout_I2C)) return 0xff;			            // return timeout error
		}
		TWI0.MSTATUS |= (TWI_RIF_bm | TWI_WIF_bm);					// clear Read and Write interrupt flags	
     1f8:	e0 e1       	ldi	r30, 0x10	; 16
     1fa:	f8 e0       	ldi	r31, 0x08	; 8
     1fc:	95 81       	ldd	r25, Z+5	; 0x05
     1fe:	90 6c       	ori	r25, 0xC0	; 192
     200:	95 83       	std	Z+5, r25	; 0x05
		if (TWI0.MSTATUS & TWI_BUSERR_bm) return 4;					// Bus Error, abort
     202:	95 81       	ldd	r25, Z+5	; 0x05
     204:	92 fd       	sbrc	r25, 2
     206:	1f c0       	rjmp	.+62     	; 0x246 <I2C_read+0x7a>
		if (TWI0.MSTATUS & TWI_ARBLOST_bm) return 2;				// Arbitration Lost, abort
     208:	90 91 15 08 	lds	r25, 0x0815	; 0x800815 <__TEXT_REGION_LENGTH__+0x700815>
     20c:	93 fd       	sbrc	r25, 3
     20e:	1e c0       	rjmp	.+60     	; 0x24c <I2C_read+0x80>
		if (TWI0.MSTATUS & TWI_RXACK_bm) return 1;					// Slave replied with NACK, abort				
     210:	90 91 15 08 	lds	r25, 0x0815	; 0x800815 <__TEXT_REGION_LENGTH__+0x700815>
     214:	89 2f       	mov	r24, r25
     216:	80 71       	andi	r24, 0x10	; 16
     218:	94 fd       	sbrc	r25, 4
     21a:	17 c0       	rjmp	.+46     	; 0x24a <I2C_read+0x7e>
		if (ack_flag == 0) TWI0.MCTRLB &= ~(1 << TWI_ACKACT_bp);	// setup ACK
     21c:	61 11       	cpse	r22, r1
     21e:	09 c0       	rjmp	.+18     	; 0x232 <I2C_read+0x66>
     220:	94 81       	ldd	r25, Z+4	; 0x04
     222:	9b 7f       	andi	r25, 0xFB	; 251
     224:	94 83       	std	Z+4, r25	; 0x04
		else		TWI0.MCTRLB |= TWI_ACKACT_NACK_gc;				// setup NACK (last byte read)
		*data = TWI0.MDATA;
     226:	90 85       	ldd	r25, Z+8	; 0x08
     228:	9c 93       	st	X, r25
		if (ack_flag == 0) TWI0.MCTRLB |= TWI_MCMD_RECVTRANS_gc;	// send ACK, more bytes to follow					
     22a:	94 81       	ldd	r25, Z+4	; 0x04
     22c:	92 60       	ori	r25, 0x02	; 2
     22e:	94 83       	std	Z+4, r25	; 0x04
     230:	08 95       	ret
		TWI0.MSTATUS |= (TWI_RIF_bm | TWI_WIF_bm);					// clear Read and Write interrupt flags	
		if (TWI0.MSTATUS & TWI_BUSERR_bm) return 4;					// Bus Error, abort
		if (TWI0.MSTATUS & TWI_ARBLOST_bm) return 2;				// Arbitration Lost, abort
		if (TWI0.MSTATUS & TWI_RXACK_bm) return 1;					// Slave replied with NACK, abort				
		if (ack_flag == 0) TWI0.MCTRLB &= ~(1 << TWI_ACKACT_bp);	// setup ACK
		else		TWI0.MCTRLB |= TWI_ACKACT_NACK_gc;				// setup NACK (last byte read)
     232:	e0 e1       	ldi	r30, 0x10	; 16
     234:	f8 e0       	ldi	r31, 0x08	; 8
     236:	94 81       	ldd	r25, Z+4	; 0x04
     238:	94 60       	ori	r25, 0x04	; 4
     23a:	94 83       	std	Z+4, r25	; 0x04
		*data = TWI0.MDATA;
     23c:	90 85       	ldd	r25, Z+8	; 0x08
     23e:	9c 93       	st	X, r25
     240:	08 95       	ret
	timeout_I2C = READ_TIMEOUT;										// reset timeout counter, will be decremented by LED matrix interrupt
	if ((TWI0.MSTATUS & TWI_BUSSTATE_gm) == TWI_BUSSTATE_OWNER_gc)	// if master controls bus
	{		
		while (!(TWI0.MSTATUS & TWI_RIF_bm))						// wait for RIF set (data byte received)
		{
			if (!(timeout_I2C)) return 0xff;			            // return timeout error
     242:	8f ef       	ldi	r24, 0xFF	; 255
     244:	08 95       	ret
		}
		TWI0.MSTATUS |= (TWI_RIF_bm | TWI_WIF_bm);					// clear Read and Write interrupt flags	
		if (TWI0.MSTATUS & TWI_BUSERR_bm) return 4;					// Bus Error, abort
     246:	84 e0       	ldi	r24, 0x04	; 4
     248:	08 95       	ret
		if (TWI0.MSTATUS & TWI_ARBLOST_bm) return 2;				// Arbitration Lost, abort
		if (TWI0.MSTATUS & TWI_RXACK_bm) return 1;					// Slave replied with NACK, abort				
     24a:	81 e0       	ldi	r24, 0x01	; 1
		*data = TWI0.MDATA;
		if (ack_flag == 0) TWI0.MCTRLB |= TWI_MCMD_RECVTRANS_gc;	// send ACK, more bytes to follow					
		return 0;
	}
	else return 8;													// master does not control bus
}
     24c:	08 95       	ret

0000024e <I2C_write>:

uint8_t I2C_write(uint8_t *data)									// write data, return status
{
     24e:	fc 01       	movw	r30, r24
	timeout_I2C = WRITE_TIMEOUT;									// reset timeout counter, will be decremented by LED matrix interrupt
     250:	9c e0       	ldi	r25, 0x0C	; 12
     252:	90 93 45 39 	sts	0x3945, r25	; 0x803945 <timeout_I2C>
	if ((TWI0.MSTATUS & TWI_BUSSTATE_gm) == TWI_BUSSTATE_OWNER_gc)	// if master controls bus
     256:	90 91 15 08 	lds	r25, 0x0815	; 0x800815 <__TEXT_REGION_LENGTH__+0x700815>
     25a:	93 70       	andi	r25, 0x03	; 3
     25c:	92 30       	cpi	r25, 0x02	; 2
     25e:	b1 f4       	brne	.+44     	; 0x28c <I2C_write+0x3e>
	{
		TWI0.MDATA = *data;		
     260:	80 81       	ld	r24, Z
     262:	80 93 18 08 	sts	0x0818, r24	; 0x800818 <__TEXT_REGION_LENGTH__+0x700818>
		while (!(TWI0.MSTATUS & TWI_WIF_bm))						// wait until WIF set, status register contains ACK/NACK bit
     266:	e0 e1       	ldi	r30, 0x10	; 16
     268:	f8 e0       	ldi	r31, 0x08	; 8
     26a:	04 c0       	rjmp	.+8      	; 0x274 <I2C_write+0x26>
		{
			if (!(timeout_I2C)) return 0xff;			            // return timeout error
     26c:	80 91 45 39 	lds	r24, 0x3945	; 0x803945 <timeout_I2C>
     270:	88 23       	and	r24, r24
     272:	71 f0       	breq	.+28     	; 0x290 <I2C_write+0x42>
{
	timeout_I2C = WRITE_TIMEOUT;									// reset timeout counter, will be decremented by LED matrix interrupt
	if ((TWI0.MSTATUS & TWI_BUSSTATE_gm) == TWI_BUSSTATE_OWNER_gc)	// if master controls bus
	{
		TWI0.MDATA = *data;		
		while (!(TWI0.MSTATUS & TWI_WIF_bm))						// wait until WIF set, status register contains ACK/NACK bit
     274:	85 81       	ldd	r24, Z+5	; 0x05
     276:	86 ff       	sbrs	r24, 6
     278:	f9 cf       	rjmp	.-14     	; 0x26c <I2C_write+0x1e>
		{
			if (!(timeout_I2C)) return 0xff;			            // return timeout error
		}
		if (TWI0.MSTATUS & TWI_BUSERR_bm) return 4;					// Bus Error, abort
     27a:	80 91 15 08 	lds	r24, 0x0815	; 0x800815 <__TEXT_REGION_LENGTH__+0x700815>
     27e:	82 fd       	sbrc	r24, 2
     280:	09 c0       	rjmp	.+18     	; 0x294 <I2C_write+0x46>
		if (TWI0.MSTATUS & TWI_RXACK_bm) return 1;					// Slave replied with NACK, abort
     282:	80 91 15 08 	lds	r24, 0x0815	; 0x800815 <__TEXT_REGION_LENGTH__+0x700815>
	if ((TWI0.MSTATUS & TWI_BUSSTATE_gm) == TWI_BUSSTATE_OWNER_gc)	// if master controls bus
	{
		TWI0.MDATA = *data;		
		while (!(TWI0.MSTATUS & TWI_WIF_bm))						// wait until WIF set, status register contains ACK/NACK bit
		{
			if (!(timeout_I2C)) return 0xff;			            // return timeout error
     286:	82 95       	swap	r24
     288:	81 70       	andi	r24, 0x01	; 1
     28a:	08 95       	ret
		}
		if (TWI0.MSTATUS & TWI_BUSERR_bm) return 4;					// Bus Error, abort
		if (TWI0.MSTATUS & TWI_RXACK_bm) return 1;					// Slave replied with NACK, abort
		return 0;													// no error	
	}
	else return 8;													// master does not control bus
     28c:	88 e0       	ldi	r24, 0x08	; 8
     28e:	08 95       	ret
	if ((TWI0.MSTATUS & TWI_BUSSTATE_gm) == TWI_BUSSTATE_OWNER_gc)	// if master controls bus
	{
		TWI0.MDATA = *data;		
		while (!(TWI0.MSTATUS & TWI_WIF_bm))						// wait until WIF set, status register contains ACK/NACK bit
		{
			if (!(timeout_I2C)) return 0xff;			            // return timeout error
     290:	8f ef       	ldi	r24, 0xFF	; 255
     292:	08 95       	ret
		}
		if (TWI0.MSTATUS & TWI_BUSERR_bm) return 4;					// Bus Error, abort
     294:	84 e0       	ldi	r24, 0x04	; 4
		if (TWI0.MSTATUS & TWI_RXACK_bm) return 1;					// Slave replied with NACK, abort
		return 0;													// no error	
	}
	else return 8;													// master does not control bus
}
     296:	08 95       	ret

00000298 <I2C_stop>:

void I2C_stop()
{
	TWI0.MCTRLB |= TWI_MCMD_STOP_gc;
     298:	e0 e1       	ldi	r30, 0x10	; 16
     29a:	f8 e0       	ldi	r31, 0x08	; 8
     29c:	84 81       	ldd	r24, Z+4	; 0x04
     29e:	83 60       	ori	r24, 0x03	; 3
     2a0:	84 83       	std	Z+4, r24	; 0x04
     2a2:	08 95       	ret

000002a4 <I2C_read_bytes>:
// addr_ptr		address of first array element to transfer
// slave reg	starting slave register
// num_bytes	number of bytes to transfer

uint8_t	I2C_read_bytes(uint8_t slave_addr, uint8_t *reg_ptr, uint8_t reg_len, uint8_t *dat_ptr, uint8_t dat_len)
{
     2a4:	cf 92       	push	r12
     2a6:	df 92       	push	r13
     2a8:	ef 92       	push	r14
     2aa:	ff 92       	push	r15
     2ac:	0f 93       	push	r16
     2ae:	1f 93       	push	r17
     2b0:	cf 93       	push	r28
     2b2:	df 93       	push	r29
     2b4:	eb 01       	movw	r28, r22
     2b6:	c4 2e       	mov	r12, r20
     2b8:	79 01       	movw	r14, r18
	uint8_t status;
	if (dat_len > MAX_LEN) dat_len = MAX_LEN;
	status = I2C_start(slave_addr << 1);							// slave write address, LSB 0
     2ba:	18 2f       	mov	r17, r24
     2bc:	11 0f       	add	r17, r17
     2be:	81 2f       	mov	r24, r17
     2c0:	4e df       	rcall	.-356    	; 0x15e <I2C_start>
	if (status != 0) goto error;
     2c2:	81 11       	cpse	r24, r1
	status = I2C_wait_ACK();										// wait for slave ACK
     2c4:	3c c0       	rjmp	.+120    	; 0x33e <I2C_read_bytes+0x9a>
     2c6:	5b df       	rcall	.-330    	; 0x17e <I2C_wait_ACK>
	if (status == 1) {
     2c8:	81 30       	cpi	r24, 0x01	; 1
		I2C_stop();													// NACK, abort
     2ca:	19 f4       	brne	.+6      	; 0x2d2 <I2C_read_bytes+0x2e>
     2cc:	e5 df       	rcall	.-54     	; 0x298 <I2C_stop>
		return 1;
     2ce:	81 e0       	ldi	r24, 0x01	; 1
     2d0:	38 c0       	rjmp	.+112    	; 0x342 <I2C_read_bytes+0x9e>
	}
	if (status != 0) goto error;
     2d2:	81 11       	cpse	r24, r1
     2d4:	34 c0       	rjmp	.+104    	; 0x33e <I2C_read_bytes+0x9a>
    while(reg_len > 0){
     2d6:	cc 20       	and	r12, r12
     2d8:	79 f0       	breq	.+30     	; 0x2f8 <I2C_read_bytes+0x54>
     2da:	ca 94       	dec	r12
     2dc:	d1 2c       	mov	r13, r1
     2de:	8f ef       	ldi	r24, 0xFF	; 255
     2e0:	c8 1a       	sub	r12, r24
     2e2:	d8 0a       	sbc	r13, r24
     2e4:	cc 0e       	add	r12, r28
	    status = I2C_write(reg_ptr);    							// send slave start register
     2e6:	dd 1e       	adc	r13, r29
     2e8:	ce 01       	movw	r24, r28
     2ea:	b1 df       	rcall	.-158    	; 0x24e <I2C_write>
	    if (status != 0) goto error;
     2ec:	81 11       	cpse	r24, r1
     2ee:	27 c0       	rjmp	.+78     	; 0x33e <I2C_read_bytes+0x9a>
        ++reg_ptr;
     2f0:	21 96       	adiw	r28, 0x01	; 1
	if (status == 1) {
		I2C_stop();													// NACK, abort
		return 1;
	}
	if (status != 0) goto error;
    while(reg_len > 0){
     2f2:	cc 16       	cp	r12, r28
     2f4:	dd 06       	cpc	r13, r29
     2f6:	c1 f7       	brne	.-16     	; 0x2e8 <I2C_read_bytes+0x44>
     2f8:	01 34       	cpi	r16, 0x41	; 65
     2fa:	08 f0       	brcs	.+2      	; 0x2fe <I2C_read_bytes+0x5a>
     2fc:	00 e4       	ldi	r16, 0x40	; 64
	    status = I2C_write(reg_ptr);    							// send slave start register
	    if (status != 0) goto error;
        ++reg_ptr;
        --reg_len;
    }
	I2C_rep_start((slave_addr << 1) + 1);							// slave read address, LSB 1
     2fe:	1f 5f       	subi	r17, 0xFF	; 255
// the Atmel device documentation mentions a special command for repeated start TWI_MCMD_REPSTART_gc,
// but this is not used in Atmel's demo code, so we don't use it either

void I2C_rep_start(uint8_t shifted_addr)						    // send repeated start, device_addr + LSB set if READ
{
	TWI0.MADDR = shifted_addr;	
     300:	10 93 17 08 	sts	0x0817, r17	; 0x800817 <__TEXT_REGION_LENGTH__+0x700817>
	    if (status != 0) goto error;
        ++reg_ptr;
        --reg_len;
    }
	I2C_rep_start((slave_addr << 1) + 1);							// slave read address, LSB 1
	while (dat_len > 1) {
     304:	02 30       	cpi	r16, 0x02	; 2
     306:	90 f0       	brcs	.+36     	; 0x32c <I2C_read_bytes+0x88>
     308:	02 50       	subi	r16, 0x02	; 2
     30a:	c0 2f       	mov	r28, r16
     30c:	d0 e0       	ldi	r29, 0x00	; 0
     30e:	21 96       	adiw	r28, 0x01	; 1
     310:	ce 0d       	add	r28, r14
		status = I2C_read(dat_ptr, 0);								// first bytes, send ACK
     312:	df 1d       	adc	r29, r15
     314:	60 e0       	ldi	r22, 0x00	; 0
     316:	c7 01       	movw	r24, r14
     318:	59 df       	rcall	.-334    	; 0x1cc <I2C_read>
		if (status != 0) goto error;
     31a:	81 11       	cpse	r24, r1
     31c:	10 c0       	rjmp	.+32     	; 0x33e <I2C_read_bytes+0x9a>
		++dat_ptr;
     31e:	8f ef       	ldi	r24, 0xFF	; 255
     320:	e8 1a       	sub	r14, r24
     322:	f8 0a       	sbc	r15, r24
	    if (status != 0) goto error;
        ++reg_ptr;
        --reg_len;
    }
	I2C_rep_start((slave_addr << 1) + 1);							// slave read address, LSB 1
	while (dat_len > 1) {
     324:	ec 16       	cp	r14, r28
     326:	fd 06       	cpc	r15, r29
     328:	a9 f7       	brne	.-22     	; 0x314 <I2C_read_bytes+0x70>
     32a:	01 c0       	rjmp	.+2      	; 0x32e <I2C_read_bytes+0x8a>
		status = I2C_read(dat_ptr, 0);								// first bytes, send ACK
		if (status != 0) goto error;
		++dat_ptr;
		--dat_len;
	}
	status = I2C_read(dat_ptr, 1);									// single or last byte, send NACK
     32c:	e7 01       	movw	r28, r14
     32e:	61 e0       	ldi	r22, 0x01	; 1
     330:	ce 01       	movw	r24, r28
	if (status != 0) goto error;
     332:	4c df       	rcall	.-360    	; 0x1cc <I2C_read>
     334:	81 11       	cpse	r24, r1
	I2C_stop();
     336:	03 c0       	rjmp	.+6      	; 0x33e <I2C_read_bytes+0x9a>
     338:	af df       	rcall	.-162    	; 0x298 <I2C_stop>
	return 0;
     33a:	80 e0       	ldi	r24, 0x00	; 0
     33c:	02 c0       	rjmp	.+4      	; 0x342 <I2C_read_bytes+0x9e>
	
error:
	I2C_recover();													// clock out possibly stuck slave, reset master
     33e:	da de       	rcall	.-588    	; 0xf4 <I2C_recover>
     340:	8f ef       	ldi	r24, 0xFF	; 255
	return 0xff;													// flag error
     342:	df 91       	pop	r29
}
     344:	cf 91       	pop	r28
     346:	1f 91       	pop	r17
     348:	0f 91       	pop	r16
     34a:	ff 90       	pop	r15
     34c:	ef 90       	pop	r14
     34e:	df 90       	pop	r13
     350:	cf 90       	pop	r12
     352:	08 95       	ret

00000354 <Setup>:
     354:	cf 93       	push	r28
// Select "audio" input (0-2.5V)
void SelectAuIn(){
     VREF_CTRLA   = 0x22;    //0x22 for audio in/out (2.5V), 0x12 for temperature in, audio out (1.1V/2.5V)
     ADC0_CTRLA   &= ~(ADC_RESSEL_bm);
     ADC0_MUXPOS  = 0x07;    //Audio in: AIN7 at (0x07), Temperature: Internal sensor at (0x1E)
     adc0Chg = 1;
     356:	df 93       	push	r29
     358:	f8 94       	cli
     35a:	88 ed       	ldi	r24, 0xD8	; 216
     35c:	84 bf       	out	0x34, r24	; 52
     35e:	c1 e0       	ldi	r28, 0x01	; 1
     360:	c0 93 61 00 	sts	0x0061, r28	; 0x800061 <__TEXT_REGION_LENGTH__+0x700061>
     364:	8a e4       	ldi	r24, 0x4A	; 74
     366:	80 93 00 04 	sts	0x0400, r24	; 0x800400 <__TEXT_REGION_LENGTH__+0x700400>
     36a:	8c e7       	ldi	r24, 0x7C	; 124
     36c:	80 93 20 04 	sts	0x0420, r24	; 0x800420 <__TEXT_REGION_LENGTH__+0x700420>
     370:	8f e3       	ldi	r24, 0x3F	; 63
     372:	80 93 40 04 	sts	0x0440, r24	; 0x800440 <__TEXT_REGION_LENGTH__+0x700440>
     376:	c0 93 01 02 	sts	0x0201, r28	; 0x800201 <__TEXT_REGION_LENGTH__+0x700201>
     37a:	d2 e0       	ldi	r29, 0x02	; 2
     37c:	d0 93 05 04 	sts	0x0405, r29	; 0x800405 <__TEXT_REGION_LENGTH__+0x700405>
     380:	2b e5       	ldi	r18, 0x5B	; 91
     382:	31 e0       	ldi	r19, 0x01	; 1
     384:	20 93 08 08 	sts	0x0808, r18	; 0x800808 <__TEXT_REGION_LENGTH__+0x700808>
     388:	30 93 09 08 	sts	0x0809, r19	; 0x800809 <__TEXT_REGION_LENGTH__+0x700809>
     38c:	90 ea       	ldi	r25, 0xA0	; 160
     38e:	90 93 05 08 	sts	0x0805, r25	; 0x800805 <__TEXT_REGION_LENGTH__+0x700805>
     392:	90 ec       	ldi	r25, 0xC0	; 192
     394:	90 93 06 08 	sts	0x0806, r25	; 0x800806 <__TEXT_REGION_LENGTH__+0x700806>
     398:	93 e0       	ldi	r25, 0x03	; 3
     39a:	90 93 07 08 	sts	0x0807, r25	; 0x800807 <__TEXT_REGION_LENGTH__+0x700807>
     39e:	1c ba       	out	0x1c, r1	; 28
     3a0:	1d ba       	out	0x1d, r1	; 29
     3a2:	1e ba       	out	0x1e, r1	; 30
     3a4:	1f ba       	out	0x1f, r1	; 31
     3a6:	c0 93 03 0a 	sts	0x0A03, r28	; 0x800a03 <__TEXT_REGION_LENGTH__+0x700a03>
     3aa:	e0 e0       	ldi	r30, 0x00	; 0
     3ac:	fa e0       	ldi	r31, 0x0A	; 10
     3ae:	98 e0       	ldi	r25, 0x08	; 8
     3b0:	90 83       	st	Z, r25
     3b2:	80 93 02 02 	sts	0x0202, r24	; 0x800202 <__TEXT_REGION_LENGTH__+0x700202>
     3b6:	87 e7       	ldi	r24, 0x77	; 119
     3b8:	80 93 01 0a 	sts	0x0A01, r24	; 0x800a01 <__TEXT_REGION_LENGTH__+0x700a01>
     3bc:	c0 93 0a 0a 	sts	0x0A0A, r28	; 0x800a0a <__TEXT_REGION_LENGTH__+0x700a0a>
     3c0:	8b e0       	ldi	r24, 0x0B	; 11
     3c2:	80 93 05 0a 	sts	0x0A05, r24	; 0x800a05 <__TEXT_REGION_LENGTH__+0x700a05>
     3c6:	80 81       	ld	r24, Z
     3c8:	81 60       	ori	r24, 0x01	; 1
     3ca:	80 83       	st	Z, r24
     3cc:	85 e0       	ldi	r24, 0x05	; 5
     3ce:	80 93 40 0a 	sts	0x0A40, r24	; 0x800a40 <__TEXT_REGION_LENGTH__+0x700a40>
     3d2:	10 92 41 0a 	sts	0x0A41, r1	; 0x800a41 <__TEXT_REGION_LENGTH__+0x700a41>
     3d6:	8f ef       	ldi	r24, 0xFF	; 255
     3d8:	91 e0       	ldi	r25, 0x01	; 1
     3da:	80 93 4c 0a 	sts	0x0A4C, r24	; 0x800a4c <__TEXT_REGION_LENGTH__+0x700a4c>
     3de:	90 93 4d 0a 	sts	0x0A4D, r25	; 0x800a4d <__TEXT_REGION_LENGTH__+0x700a4d>
     3e2:	10 92 45 0a 	sts	0x0A45, r1	; 0x800a45 <__TEXT_REGION_LENGTH__+0x700a45>
     3e6:	c0 93 50 0a 	sts	0x0A50, r28	; 0x800a50 <__TEXT_REGION_LENGTH__+0x700a50>
     3ea:	10 92 51 0a 	sts	0x0A51, r1	; 0x800a51 <__TEXT_REGION_LENGTH__+0x700a51>
     3ee:	8b e8       	ldi	r24, 0x8B	; 139
     3f0:	93 e0       	ldi	r25, 0x03	; 3
     3f2:	80 93 5c 0a 	sts	0x0A5C, r24	; 0x800a5c <__TEXT_REGION_LENGTH__+0x700a5c>
     3f6:	90 93 5d 0a 	sts	0x0A5D, r25	; 0x800a5d <__TEXT_REGION_LENGTH__+0x700a5d>
     3fa:	c0 93 55 0a 	sts	0x0A55, r28	; 0x800a55 <__TEXT_REGION_LENGTH__+0x700a55>
     3fe:	5c de       	rcall	.-840    	; 0xb8 <I2C_init>
     400:	82 e1       	ldi	r24, 0x12	; 18
     402:	80 93 a0 00 	sts	0x00A0, r24	; 0x8000a0 <__TEXT_REGION_LENGTH__+0x7000a0>
     406:	80 e2       	ldi	r24, 0x20	; 32
     408:	80 93 a2 00 	sts	0x00A2, r24	; 0x8000a2 <__TEXT_REGION_LENGTH__+0x7000a2>
     40c:	c0 93 a1 00 	sts	0x00A1, r28	; 0x8000a1 <__TEXT_REGION_LENGTH__+0x7000a1>
     410:	e0 e0       	ldi	r30, 0x00	; 0
     412:	f6 e0       	ldi	r31, 0x06	; 6
     414:	86 e0       	ldi	r24, 0x06	; 6
     416:	80 83       	st	Z, r24
     418:	84 e4       	ldi	r24, 0x44	; 68
     41a:	80 93 02 06 	sts	0x0602, r24	; 0x800602 <__TEXT_REGION_LENGTH__+0x700602>
     41e:	8e e1       	ldi	r24, 0x1E	; 30
     420:	80 93 06 06 	sts	0x0606, r24	; 0x800606 <__TEXT_REGION_LENGTH__+0x700606>
     424:	c0 93 0a 06 	sts	0x060A, r28	; 0x80060a <__TEXT_REGION_LENGTH__+0x70060a>
     428:	80 81       	ld	r24, Z
     42a:	81 60       	ori	r24, 0x01	; 1
     42c:	80 83       	st	Z, r24
     42e:	c0 93 08 06 	sts	0x0608, r28	; 0x800608 <__TEXT_REGION_LENGTH__+0x700608>
     432:	e0 e4       	ldi	r30, 0x40	; 64
     434:	f6 e0       	ldi	r31, 0x06	; 6
     436:	10 82       	st	Z, r1
     438:	d0 93 41 06 	sts	0x0641, r29	; 0x800641 <__TEXT_REGION_LENGTH__+0x700641>
     43c:	82 e5       	ldi	r24, 0x52	; 82
     43e:	80 93 42 06 	sts	0x0642, r24	; 0x800642 <__TEXT_REGION_LENGTH__+0x700642>
     442:	84 e0       	ldi	r24, 0x04	; 4
     444:	80 93 45 06 	sts	0x0645, r24	; 0x800645 <__TEXT_REGION_LENGTH__+0x700645>
     448:	80 93 46 06 	sts	0x0646, r24	; 0x800646 <__TEXT_REGION_LENGTH__+0x700646>
     44c:	c0 93 4a 06 	sts	0x064A, r28	; 0x80064a <__TEXT_REGION_LENGTH__+0x70064a>
     450:	80 81       	ld	r24, Z
     452:	81 60       	ori	r24, 0x01	; 1
     454:	80 83       	st	Z, r24
     456:	c0 93 48 06 	sts	0x0648, r28	; 0x800648 <__TEXT_REGION_LENGTH__+0x700648>
     45a:	e0 ea       	ldi	r30, 0xA0	; 160
     45c:	f6 e0       	ldi	r31, 0x06	; 6
     45e:	80 e4       	ldi	r24, 0x40	; 64
     460:	80 83       	st	Z, r24
     462:	80 e8       	ldi	r24, 0x80	; 128
     464:	80 93 a1 06 	sts	0x06A1, r24	; 0x8006a1 <__TEXT_REGION_LENGTH__+0x7006a1>
     468:	80 81       	ld	r24, Z
     46a:	81 60       	ori	r24, 0x01	; 1
     46c:	80 83       	st	Z, r24
     46e:	e1 e4       	ldi	r30, 0x41	; 65
     470:	f1 e0       	ldi	r31, 0x01	; 1
     472:	80 81       	ld	r24, Z
     474:	80 fd       	sbrc	r24, 0
     476:	fd cf       	rjmp	.-6      	; 0x472 <__LOCK_REGION_LENGTH__+0x72>
     478:	80 e3       	ldi	r24, 0x30	; 48
     47a:	80 93 40 01 	sts	0x0140, r24	; 0x800140 <__TEXT_REGION_LENGTH__+0x700140>
     47e:	10 92 47 01 	sts	0x0147, r1	; 0x800147 <__TEXT_REGION_LENGTH__+0x700147>
     482:	e1 e4       	ldi	r30, 0x41	; 65
     484:	f1 e0       	ldi	r31, 0x01	; 1
     486:	80 81       	ld	r24, Z
     488:	82 fd       	sbrc	r24, 2
     48a:	fd cf       	rjmp	.-6      	; 0x486 <__LOCK_REGION_LENGTH__+0x86>
     48c:	ea e4       	ldi	r30, 0x4A	; 74
     48e:	f1 e0       	ldi	r31, 0x01	; 1
     490:	80 e0       	ldi	r24, 0x00	; 0
     492:	98 e7       	ldi	r25, 0x78	; 120
     494:	80 83       	st	Z, r24
     496:	91 83       	std	Z+1, r25	; 0x01
     498:	80 91 48 01 	lds	r24, 0x0148	; 0x800148 <__TEXT_REGION_LENGTH__+0x700148>
     49c:	90 91 49 01 	lds	r25, 0x0149	; 0x800149 <__TEXT_REGION_LENGTH__+0x700149>
     4a0:	60 81       	ld	r22, Z
     4a2:	71 81       	ldd	r23, Z+1	; 0x01
     4a4:	82 96       	adiw	r24, 0x22	; 34
     4a6:	0e 94 85 0c 	call	0x190a	; 0x190a <__udivmodhi4>
     4aa:	80 93 f2 39 	sts	0x39F2, r24	; 0x8039f2 <tmp16bit>
     4ae:	90 93 f3 39 	sts	0x39F3, r25	; 0x8039f3 <tmp16bit+0x1>
     4b2:	e1 e4       	ldi	r30, 0x41	; 65
     4b4:	f1 e0       	ldi	r31, 0x01	; 1
     4b6:	80 81       	ld	r24, Z
     4b8:	83 fd       	sbrc	r24, 3
     4ba:	fd cf       	rjmp	.-6      	; 0x4b6 <__LOCK_REGION_LENGTH__+0xb6>
     4bc:	80 91 f2 39 	lds	r24, 0x39F2	; 0x8039f2 <tmp16bit>
     4c0:	90 91 f3 39 	lds	r25, 0x39F3	; 0x8039f3 <tmp16bit+0x1>
     4c4:	80 93 4c 01 	sts	0x014C, r24	; 0x80014c <__TEXT_REGION_LENGTH__+0x70014c>
     4c8:	90 93 4d 01 	sts	0x014D, r25	; 0x80014d <__TEXT_REGION_LENGTH__+0x70014d>
     4cc:	83 e0       	ldi	r24, 0x03	; 3
     4ce:	80 93 42 01 	sts	0x0142, r24	; 0x800142 <__TEXT_REGION_LENGTH__+0x700142>
     4d2:	81 e0       	ldi	r24, 0x01	; 1
     4d4:	80 93 52 01 	sts	0x0152, r24	; 0x800152 <__TEXT_REGION_LENGTH__+0x700152>
     4d8:	88 e0       	ldi	r24, 0x08	; 8
     4da:	80 93 50 01 	sts	0x0150, r24	; 0x800150 <__TEXT_REGION_LENGTH__+0x700150>
     4de:	e1 e4       	ldi	r30, 0x41	; 65
     4e0:	f1 e0       	ldi	r31, 0x01	; 1
     4e2:	80 81       	ld	r24, Z
     4e4:	80 fd       	sbrc	r24, 0
     4e6:	fd cf       	rjmp	.-6      	; 0x4e2 <__LOCK_REGION_LENGTH__+0xe2>
     4e8:	e0 e4       	ldi	r30, 0x40	; 64
     4ea:	f1 e0       	ldi	r31, 0x01	; 1
     4ec:	80 81       	ld	r24, Z
     4ee:	81 60       	ori	r24, 0x01	; 1
     4f0:	80 83       	st	Z, r24
     4f2:	e0 e5       	ldi	r30, 0x50	; 80
     4f4:	f1 e0       	ldi	r31, 0x01	; 1
     4f6:	80 81       	ld	r24, Z
     4f8:	81 60       	ori	r24, 0x01	; 1
     4fa:	80 83       	st	Z, r24
     4fc:	e6 e5       	ldi	r30, 0x56	; 86
     4fe:	f9 e3       	ldi	r31, 0x39	; 57
     500:	10 82       	st	Z, r1
     502:	e0 93 a1 39 	sts	0x39A1, r30	; 0x8039a1 <serTxAddr>
     506:	f0 93 a2 39 	sts	0x39A2, r31	; 0x8039a2 <serTxAddr+0x1>
     50a:	78 94       	sei
     50c:	df 91       	pop	r29
     50e:	cf 91       	pop	r28
     510:	08 95       	ret

00000512 <__vector_8>:
     512:	1f 92       	push	r1
     514:	0f 92       	push	r0
     516:	0f b6       	in	r0, 0x3f	; 63
     518:	0f 92       	push	r0
     51a:	11 24       	eor	r1, r1
     51c:	8f 93       	push	r24
     51e:	9f 93       	push	r25
     520:	af 93       	push	r26
     522:	bf 93       	push	r27
     524:	ef 93       	push	r30
     526:	ff 93       	push	r31
     528:	87 e0       	ldi	r24, 0x07	; 7
     52a:	80 93 46 04 	sts	0x0446, r24	; 0x800446 <__TEXT_REGION_LENGTH__+0x700446>
     52e:	84 e4       	ldi	r24, 0x44	; 68
     530:	80 93 26 04 	sts	0x0426, r24	; 0x800426 <__TEXT_REGION_LENGTH__+0x700426>
     534:	ec b3       	in	r30, 0x1c	; 28
     536:	f0 e0       	ldi	r31, 0x00	; 0
     538:	ee 0f       	add	r30, r30
     53a:	ff 1f       	adc	r31, r31
     53c:	ee 0f       	add	r30, r30
     53e:	ff 1f       	adc	r31, r31
     540:	ee 0f       	add	r30, r30
     542:	ff 1f       	adc	r31, r31
     544:	e8 53       	subi	r30, 0x38	; 56
     546:	f6 4c       	sbci	r31, 0xC6	; 198
     548:	a8 e2       	ldi	r26, 0x28	; 40
     54a:	ba e0       	ldi	r27, 0x0A	; 10
     54c:	96 e0       	ldi	r25, 0x06	; 6
     54e:	81 91       	ld	r24, Z+
     550:	8d 93       	st	X+, r24
     552:	9a 95       	dec	r25
     554:	e1 f7       	brne	.-8      	; 0x54e <__vector_8+0x3c>
     556:	8b e0       	ldi	r24, 0x0B	; 11
     558:	80 93 05 0a 	sts	0x0A05, r24	; 0x800a05 <__TEXT_REGION_LENGTH__+0x700a05>
     55c:	8c b3       	in	r24, 0x1c	; 28
     55e:	83 30       	cpi	r24, 0x03	; 3
     560:	58 f4       	brcc	.+22     	; 0x578 <__vector_8+0x66>
     562:	8c b3       	in	r24, 0x1c	; 28
     564:	91 e0       	ldi	r25, 0x01	; 1
     566:	01 c0       	rjmp	.+2      	; 0x56a <__vector_8+0x58>
     568:	99 0f       	add	r25, r25
     56a:	8a 95       	dec	r24
     56c:	ea f7       	brpl	.-6      	; 0x568 <__vector_8+0x56>
     56e:	99 b9       	out	0x09, r25	; 9
     570:	8c b3       	in	r24, 0x1c	; 28
     572:	83 95       	inc	r24
     574:	8c bb       	out	0x1c, r24	; 28
     576:	0a c0       	rjmp	.+20     	; 0x58c <__vector_8+0x7a>
     578:	8c b3       	in	r24, 0x1c	; 28
     57a:	83 30       	cpi	r24, 0x03	; 3
     57c:	21 f4       	brne	.+8      	; 0x586 <__vector_8+0x74>
     57e:	2a 9a       	sbi	0x05, 2	; 5
     580:	83 95       	inc	r24
     582:	8c bb       	out	0x1c, r24	; 28
     584:	03 c0       	rjmp	.+6      	; 0x58c <__vector_8+0x7a>
     586:	2e 9a       	sbi	0x05, 6	; 5
     588:	88 27       	eor	r24, r24
     58a:	8c bb       	out	0x1c, r24	; 28
     58c:	80 91 45 39 	lds	r24, 0x3945	; 0x803945 <timeout_I2C>
     590:	88 23       	and	r24, r24
     592:	29 f0       	breq	.+10     	; 0x59e <__vector_8+0x8c>
     594:	80 91 45 39 	lds	r24, 0x3945	; 0x803945 <timeout_I2C>
     598:	81 50       	subi	r24, 0x01	; 1
     59a:	80 93 45 39 	sts	0x3945, r24	; 0x803945 <timeout_I2C>
     59e:	8f ef       	ldi	r24, 0xFF	; 255
     5a0:	80 93 0b 0a 	sts	0x0A0B, r24	; 0x800a0b <__TEXT_REGION_LENGTH__+0x700a0b>
     5a4:	ff 91       	pop	r31
     5a6:	ef 91       	pop	r30
     5a8:	bf 91       	pop	r27
     5aa:	af 91       	pop	r26
     5ac:	9f 91       	pop	r25
     5ae:	8f 91       	pop	r24
     5b0:	0f 90       	pop	r0
     5b2:	0f be       	out	0x3f, r0	; 63
     5b4:	0f 90       	pop	r0
     5b6:	1f 90       	pop	r1
     5b8:	18 95       	reti

000005ba <__vector_13>:
     5ba:	1f 92       	push	r1
     5bc:	0f 92       	push	r0
     5be:	0f b6       	in	r0, 0x3f	; 63
     5c0:	0f 92       	push	r0
     5c2:	11 24       	eor	r1, r1
     5c4:	8f 93       	push	r24
     5c6:	9f 93       	push	r25
     5c8:	ef 93       	push	r30
     5ca:	ff 93       	push	r31
     5cc:	e0 91 a1 39 	lds	r30, 0x39A1	; 0x8039a1 <serTxAddr>
     5d0:	f0 91 a2 39 	lds	r31, 0x39A2	; 0x8039a2 <serTxAddr+0x1>
     5d4:	80 81       	ld	r24, Z
     5d6:	88 23       	and	r24, r24
     5d8:	91 f0       	breq	.+36     	; 0x5fe <__vector_13+0x44>
     5da:	80 81       	ld	r24, Z
     5dc:	80 93 02 08 	sts	0x0802, r24	; 0x800802 <__TEXT_REGION_LENGTH__+0x700802>
     5e0:	80 91 a1 39 	lds	r24, 0x39A1	; 0x8039a1 <serTxAddr>
     5e4:	90 91 a2 39 	lds	r25, 0x39A2	; 0x8039a2 <serTxAddr+0x1>
     5e8:	01 96       	adiw	r24, 0x01	; 1
     5ea:	80 93 a1 39 	sts	0x39A1, r24	; 0x8039a1 <serTxAddr>
     5ee:	90 93 a2 39 	sts	0x39A2, r25	; 0x8039a2 <serTxAddr+0x1>
     5f2:	e5 e0       	ldi	r30, 0x05	; 5
     5f4:	f8 e0       	ldi	r31, 0x08	; 8
     5f6:	80 81       	ld	r24, Z
     5f8:	80 62       	ori	r24, 0x20	; 32
     5fa:	80 83       	st	Z, r24
     5fc:	05 c0       	rjmp	.+10     	; 0x608 <__vector_13+0x4e>
     5fe:	81 e0       	ldi	r24, 0x01	; 1
     600:	80 93 04 38 	sts	0x3804, r24	; 0x803804 <serTxDone>
     604:	10 92 45 0a 	sts	0x0A45, r1	; 0x800a45 <__TEXT_REGION_LENGTH__+0x700a45>
     608:	81 e0       	ldi	r24, 0x01	; 1
     60a:	80 93 46 0a 	sts	0x0A46, r24	; 0x800a46 <__TEXT_REGION_LENGTH__+0x700a46>
     60e:	ff 91       	pop	r31
     610:	ef 91       	pop	r30
     612:	9f 91       	pop	r25
     614:	8f 91       	pop	r24
     616:	0f 90       	pop	r0
     618:	0f be       	out	0x3f, r0	; 63
     61a:	0f 90       	pop	r0
     61c:	1f 90       	pop	r1
     61e:	18 95       	reti

00000620 <__vector_14>:
     620:	1f 92       	push	r1
     622:	0f 92       	push	r0
     624:	0f b6       	in	r0, 0x3f	; 63
     626:	0f 92       	push	r0
     628:	11 24       	eor	r1, r1
     62a:	2f 93       	push	r18
     62c:	3f 93       	push	r19
     62e:	4f 93       	push	r20
     630:	8f 93       	push	r24
     632:	9f 93       	push	r25
     634:	ef 93       	push	r30
     636:	ff 93       	push	r31
     638:	e0 91 02 38 	lds	r30, 0x3802	; 0x803802 <auSmpAddr>
     63c:	f0 91 03 38 	lds	r31, 0x3803	; 0x803803 <auSmpAddr+0x1>
     640:	80 81       	ld	r24, Z
     642:	81 11       	cpse	r24, r1
     644:	08 c0       	rjmp	.+16     	; 0x656 <__vector_14+0x36>
     646:	80 91 00 38 	lds	r24, 0x3800	; 0x803800 <__data_start>
     64a:	90 91 01 38 	lds	r25, 0x3801	; 0x803801 <__data_start+0x1>
     64e:	80 93 02 38 	sts	0x3802, r24	; 0x803802 <auSmpAddr>
     652:	90 93 03 38 	sts	0x3803, r25	; 0x803803 <auSmpAddr+0x1>
     656:	e0 91 02 38 	lds	r30, 0x3802	; 0x803802 <auSmpAddr>
     65a:	f0 91 03 38 	lds	r31, 0x3803	; 0x803803 <auSmpAddr+0x1>
     65e:	80 81       	ld	r24, Z
     660:	88 23       	and	r24, r24
     662:	e1 f0       	breq	.+56     	; 0x69c <__vector_14+0x7c>
     664:	20 81       	ld	r18, Z
     666:	40 91 9e 39 	lds	r20, 0x399E	; 0x80399e <auVolume>
     66a:	30 e0       	ldi	r19, 0x00	; 0
     66c:	2f 57       	subi	r18, 0x7F	; 127
     66e:	31 09       	sbc	r19, r1
     670:	42 9f       	mul	r20, r18
     672:	c0 01       	movw	r24, r0
     674:	43 9f       	mul	r20, r19
     676:	90 0d       	add	r25, r0
     678:	11 24       	eor	r1, r1
     67a:	89 2f       	mov	r24, r25
     67c:	99 0f       	add	r25, r25
     67e:	99 0b       	sbc	r25, r25
     680:	80 58       	subi	r24, 0x80	; 128
     682:	9f 4f       	sbci	r25, 0xFF	; 255
     684:	80 93 a1 06 	sts	0x06A1, r24	; 0x8006a1 <__TEXT_REGION_LENGTH__+0x7006a1>
     688:	80 91 02 38 	lds	r24, 0x3802	; 0x803802 <auSmpAddr>
     68c:	90 91 03 38 	lds	r25, 0x3803	; 0x803803 <auSmpAddr+0x1>
     690:	01 96       	adiw	r24, 0x01	; 1
     692:	80 93 02 38 	sts	0x3802, r24	; 0x803802 <auSmpAddr>
     696:	90 93 03 38 	sts	0x3803, r25	; 0x803803 <auSmpAddr+0x1>
     69a:	06 c0       	rjmp	.+12     	; 0x6a8 <__vector_14+0x88>
     69c:	80 e8       	ldi	r24, 0x80	; 128
     69e:	80 93 a1 06 	sts	0x06A1, r24	; 0x8006a1 <__TEXT_REGION_LENGTH__+0x7006a1>
     6a2:	81 e0       	ldi	r24, 0x01	; 1
     6a4:	80 93 f0 39 	sts	0x39F0, r24	; 0x8039f0 <auPlayDone>
     6a8:	81 e0       	ldi	r24, 0x01	; 1
     6aa:	80 93 56 0a 	sts	0x0A56, r24	; 0x800a56 <__TEXT_REGION_LENGTH__+0x700a56>
     6ae:	ff 91       	pop	r31
     6b0:	ef 91       	pop	r30
     6b2:	9f 91       	pop	r25
     6b4:	8f 91       	pop	r24
     6b6:	4f 91       	pop	r20
     6b8:	3f 91       	pop	r19
     6ba:	2f 91       	pop	r18
     6bc:	0f 90       	pop	r0
     6be:	0f be       	out	0x3f, r0	; 63
     6c0:	0f 90       	pop	r0
     6c2:	1f 90       	pop	r1
     6c4:	18 95       	reti

000006c6 <__vector_27>:
     6c6:	1f 92       	push	r1
     6c8:	0f 92       	push	r0
     6ca:	0f b6       	in	r0, 0x3f	; 63
     6cc:	0f 92       	push	r0
     6ce:	11 24       	eor	r1, r1
     6d0:	8f 93       	push	r24
     6d2:	ef 93       	push	r30
     6d4:	ff 93       	push	r31
     6d6:	80 91 1c 38 	lds	r24, 0x381C	; 0x80381c <serRxDone>
     6da:	81 11       	cpse	r24, r1
     6dc:	1d c0       	rjmp	.+58     	; 0x718 <__vector_27+0x52>
     6de:	ed b3       	in	r30, 0x1d	; 29
     6e0:	f0 e0       	ldi	r31, 0x00	; 0
     6e2:	80 91 00 08 	lds	r24, 0x0800	; 0x800800 <__TEXT_REGION_LENGTH__+0x700800>
     6e6:	ea 5a       	subi	r30, 0xAA	; 170
     6e8:	f6 4c       	sbci	r31, 0xC6	; 198
     6ea:	80 83       	st	Z, r24
     6ec:	ed b3       	in	r30, 0x1d	; 29
     6ee:	f0 e0       	ldi	r31, 0x00	; 0
     6f0:	ea 5a       	subi	r30, 0xAA	; 170
     6f2:	f6 4c       	sbci	r31, 0xC6	; 198
     6f4:	80 81       	ld	r24, Z
     6f6:	8a 30       	cpi	r24, 0x0A	; 10
     6f8:	49 f4       	brne	.+18     	; 0x70c <__vector_27+0x46>
     6fa:	ed b3       	in	r30, 0x1d	; 29
     6fc:	f0 e0       	ldi	r31, 0x00	; 0
     6fe:	ea 5a       	subi	r30, 0xAA	; 170
     700:	f6 4c       	sbci	r31, 0xC6	; 198
     702:	10 82       	st	Z, r1
     704:	81 e0       	ldi	r24, 0x01	; 1
     706:	80 93 1c 38 	sts	0x381C, r24	; 0x80381c <serRxDone>
     70a:	06 c0       	rjmp	.+12     	; 0x718 <__vector_27+0x52>
     70c:	8d b3       	in	r24, 0x1d	; 29
     70e:	87 34       	cpi	r24, 0x47	; 71
     710:	18 f4       	brcc	.+6      	; 0x718 <__vector_27+0x52>
     712:	8d b3       	in	r24, 0x1d	; 29
     714:	8f 5f       	subi	r24, 0xFF	; 255
     716:	8d bb       	out	0x1d, r24	; 29
     718:	80 e8       	ldi	r24, 0x80	; 128
     71a:	80 93 04 08 	sts	0x0804, r24	; 0x800804 <__TEXT_REGION_LENGTH__+0x700804>
     71e:	ff 91       	pop	r31
     720:	ef 91       	pop	r30
     722:	8f 91       	pop	r24
     724:	0f 90       	pop	r0
     726:	0f be       	out	0x3f, r0	; 63
     728:	0f 90       	pop	r0
     72a:	1f 90       	pop	r1
     72c:	18 95       	reti

0000072e <__vector_28>:
     72e:	1f 92       	push	r1
     730:	0f 92       	push	r0
     732:	0f b6       	in	r0, 0x3f	; 63
     734:	0f 92       	push	r0
     736:	11 24       	eor	r1, r1
     738:	8f 93       	push	r24
     73a:	ef 93       	push	r30
     73c:	ff 93       	push	r31
     73e:	10 92 4a 0a 	sts	0x0A4A, r1	; 0x800a4a <__TEXT_REGION_LENGTH__+0x700a4a>
     742:	10 92 4b 0a 	sts	0x0A4B, r1	; 0x800a4b <__TEXT_REGION_LENGTH__+0x700a4b>
     746:	81 e0       	ldi	r24, 0x01	; 1
     748:	80 93 45 0a 	sts	0x0A45, r24	; 0x800a45 <__TEXT_REGION_LENGTH__+0x700a45>
     74c:	e5 e0       	ldi	r30, 0x05	; 5
     74e:	f8 e0       	ldi	r31, 0x08	; 8
     750:	80 81       	ld	r24, Z
     752:	8f 7d       	andi	r24, 0xDF	; 223
     754:	80 83       	st	Z, r24
     756:	ff 91       	pop	r31
     758:	ef 91       	pop	r30
     75a:	8f 91       	pop	r24
     75c:	0f 90       	pop	r0
     75e:	0f be       	out	0x3f, r0	; 63
     760:	0f 90       	pop	r0
     762:	1f 90       	pop	r1
     764:	18 95       	reti

00000766 <__vector_20>:
     766:	1f 92       	push	r1
     768:	0f 92       	push	r0
     76a:	0f b6       	in	r0, 0x3f	; 63
     76c:	0f 92       	push	r0
     76e:	11 24       	eor	r1, r1
     770:	8f 93       	push	r24
     772:	ef 93       	push	r30
     774:	ff 93       	push	r31
     776:	80 91 19 38 	lds	r24, 0x3819	; 0x803819 <adc0Chg>
     77a:	81 11       	cpse	r24, r1
     77c:	15 c0       	rjmp	.+42     	; 0x7a8 <__vector_20+0x42>
     77e:	8e b3       	in	r24, 0x1e	; 30
     780:	8f 5f       	subi	r24, 0xFF	; 255
     782:	8f 71       	andi	r24, 0x1F	; 31
     784:	8e bb       	out	0x1e, r24	; 30
     786:	80 91 06 06 	lds	r24, 0x0606	; 0x800606 <__TEXT_REGION_LENGTH__+0x700606>
     78a:	8e 31       	cpi	r24, 0x1E	; 30
     78c:	29 f4       	brne	.+10     	; 0x798 <__vector_20+0x32>
     78e:	80 91 10 06 	lds	r24, 0x0610	; 0x800610 <__TEXT_REGION_LENGTH__+0x700610>
     792:	80 93 f1 39 	sts	0x39F1, r24	; 0x8039f1 <adcTemp>
     796:	0a c0       	rjmp	.+20     	; 0x7ac <__vector_20+0x46>
     798:	ee b3       	in	r30, 0x1e	; 30
     79a:	f0 e0       	ldi	r31, 0x00	; 0
     79c:	80 91 10 06 	lds	r24, 0x0610	; 0x800610 <__TEXT_REGION_LENGTH__+0x700610>
     7a0:	e8 55       	subi	r30, 0x58	; 88
     7a2:	f6 4c       	sbci	r31, 0xC6	; 198
     7a4:	80 83       	st	Z, r24
     7a6:	02 c0       	rjmp	.+4      	; 0x7ac <__vector_20+0x46>
     7a8:	10 92 19 38 	sts	0x3819, r1	; 0x803819 <adc0Chg>
     7ac:	81 e0       	ldi	r24, 0x01	; 1
     7ae:	80 93 0b 06 	sts	0x060B, r24	; 0x80060b <__TEXT_REGION_LENGTH__+0x70060b>
     7b2:	ff 91       	pop	r31
     7b4:	ef 91       	pop	r30
     7b6:	8f 91       	pop	r24
     7b8:	0f 90       	pop	r0
     7ba:	0f be       	out	0x3f, r0	; 63
     7bc:	0f 90       	pop	r0
     7be:	1f 90       	pop	r1
     7c0:	18 95       	reti

000007c2 <__vector_22>:
     7c2:	1f 92       	push	r1
     7c4:	0f 92       	push	r0
     7c6:	0f b6       	in	r0, 0x3f	; 63
     7c8:	0f 92       	push	r0
     7ca:	11 24       	eor	r1, r1
     7cc:	8f 93       	push	r24
     7ce:	9f 93       	push	r25
     7d0:	80 91 46 06 	lds	r24, 0x0646	; 0x800646 <__TEXT_REGION_LENGTH__+0x700646>
     7d4:	81 11       	cpse	r24, r1
     7d6:	0c c0       	rjmp	.+24     	; 0x7f0 <__vector_22+0x2e>
     7d8:	80 91 50 06 	lds	r24, 0x0650	; 0x800650 <__TEXT_REGION_LENGTH__+0x700650>
     7dc:	90 91 51 06 	lds	r25, 0x0651	; 0x800651 <__TEXT_REGION_LENGTH__+0x700651>
     7e0:	80 93 a5 39 	sts	0x39A5, r24	; 0x8039a5 <adcPhot>
     7e4:	90 93 a6 39 	sts	0x39A6, r25	; 0x8039a6 <adcPhot+0x1>
     7e8:	81 e0       	ldi	r24, 0x01	; 1
     7ea:	80 93 46 06 	sts	0x0646, r24	; 0x800646 <__TEXT_REGION_LENGTH__+0x700646>
     7ee:	23 c0       	rjmp	.+70     	; 0x836 <__vector_22+0x74>
     7f0:	80 91 46 06 	lds	r24, 0x0646	; 0x800646 <__TEXT_REGION_LENGTH__+0x700646>
     7f4:	81 30       	cpi	r24, 0x01	; 1
     7f6:	79 f4       	brne	.+30     	; 0x816 <__vector_22+0x54>
     7f8:	88 e0       	ldi	r24, 0x08	; 8
     7fa:	80 93 06 04 	sts	0x0406, r24	; 0x800406 <__TEXT_REGION_LENGTH__+0x700406>
     7fe:	80 91 50 06 	lds	r24, 0x0650	; 0x800650 <__TEXT_REGION_LENGTH__+0x700650>
     802:	90 91 51 06 	lds	r25, 0x0651	; 0x800651 <__TEXT_REGION_LENGTH__+0x700651>
     806:	80 93 a3 39 	sts	0x39A3, r24	; 0x8039a3 <adcHall>
     80a:	90 93 a4 39 	sts	0x39A4, r25	; 0x8039a4 <adcHall+0x1>
     80e:	84 e0       	ldi	r24, 0x04	; 4
     810:	80 93 46 06 	sts	0x0646, r24	; 0x800646 <__TEXT_REGION_LENGTH__+0x700646>
     814:	10 c0       	rjmp	.+32     	; 0x836 <__vector_22+0x74>
     816:	80 91 50 06 	lds	r24, 0x0650	; 0x800650 <__TEXT_REGION_LENGTH__+0x700650>
     81a:	90 91 51 06 	lds	r25, 0x0651	; 0x800651 <__TEXT_REGION_LENGTH__+0x700651>
     81e:	80 93 9f 39 	sts	0x399F, r24	; 0x80399f <adcBtns>
     822:	90 93 a0 39 	sts	0x39A0, r25	; 0x8039a0 <adcBtns+0x1>
     826:	8f b3       	in	r24, 0x1f	; 31
     828:	8f 30       	cpi	r24, 0x0F	; 15
     82a:	29 f4       	brne	.+10     	; 0x836 <__vector_22+0x74>
     82c:	10 92 46 06 	sts	0x0646, r1	; 0x800646 <__TEXT_REGION_LENGTH__+0x700646>
     830:	88 e0       	ldi	r24, 0x08	; 8
     832:	80 93 05 04 	sts	0x0405, r24	; 0x800405 <__TEXT_REGION_LENGTH__+0x700405>
     836:	8f b3       	in	r24, 0x1f	; 31
     838:	90 e0       	ldi	r25, 0x00	; 0
     83a:	01 96       	adiw	r24, 0x01	; 1
     83c:	8f 70       	andi	r24, 0x0F	; 15
     83e:	90 78       	andi	r25, 0x80	; 128
     840:	99 23       	and	r25, r25
     842:	24 f4       	brge	.+8      	; 0x84c <__vector_22+0x8a>
     844:	01 97       	sbiw	r24, 0x01	; 1
     846:	80 6f       	ori	r24, 0xF0	; 240
     848:	9f 6f       	ori	r25, 0xFF	; 255
     84a:	01 96       	adiw	r24, 0x01	; 1
     84c:	8f bb       	out	0x1f, r24	; 31
     84e:	81 e0       	ldi	r24, 0x01	; 1
     850:	80 93 4b 06 	sts	0x064B, r24	; 0x80064b <__TEXT_REGION_LENGTH__+0x70064b>
     854:	9f 91       	pop	r25
     856:	8f 91       	pop	r24
     858:	0f 90       	pop	r0
     85a:	0f be       	out	0x3f, r0	; 63
     85c:	0f 90       	pop	r0
     85e:	1f 90       	pop	r1
     860:	18 95       	reti

00000862 <__vector_6>:
     862:	1f 92       	push	r1
     864:	0f 92       	push	r0
     866:	0f b6       	in	r0, 0x3f	; 63
     868:	0f 92       	push	r0
     86a:	11 24       	eor	r1, r1
     86c:	5f 93       	push	r21
     86e:	6f 93       	push	r22
     870:	7f 93       	push	r23
     872:	8f 93       	push	r24
     874:	9f 93       	push	r25
     876:	af 93       	push	r26
     878:	bf 93       	push	r27
     87a:	ef 93       	push	r30
     87c:	ff 93       	push	r31
     87e:	80 91 43 01 	lds	r24, 0x0143	; 0x800143 <__TEXT_REGION_LENGTH__+0x700143>
     882:	81 ff       	sbrs	r24, 1
     884:	29 c0       	rjmp	.+82     	; 0x8d8 <__vector_6+0x76>
     886:	80 91 1a 38 	lds	r24, 0x381A	; 0x80381a <buttonMark>
     88a:	8f 3f       	cpi	r24, 0xFF	; 255
     88c:	29 f0       	breq	.+10     	; 0x898 <__vector_6+0x36>
     88e:	80 91 1a 38 	lds	r24, 0x381A	; 0x80381a <buttonMark>
     892:	8f 5f       	subi	r24, 0xFF	; 255
     894:	80 93 1a 38 	sts	0x381A, r24	; 0x80381a <buttonMark>
     898:	80 91 48 01 	lds	r24, 0x0148	; 0x800148 <__TEXT_REGION_LENGTH__+0x700148>
     89c:	90 91 49 01 	lds	r25, 0x0149	; 0x800149 <__TEXT_REGION_LENGTH__+0x700149>
     8a0:	60 91 4a 01 	lds	r22, 0x014A	; 0x80014a <__TEXT_REGION_LENGTH__+0x70014a>
     8a4:	70 91 4b 01 	lds	r23, 0x014B	; 0x80014b <__TEXT_REGION_LENGTH__+0x70014b>
     8a8:	82 96       	adiw	r24, 0x22	; 34
     8aa:	0e 94 85 0c 	call	0x190a	; 0x190a <__udivmodhi4>
     8ae:	80 93 f2 39 	sts	0x39F2, r24	; 0x8039f2 <tmp16bit>
     8b2:	90 93 f3 39 	sts	0x39F3, r25	; 0x8039f3 <tmp16bit+0x1>
     8b6:	e1 e4       	ldi	r30, 0x41	; 65
     8b8:	f1 e0       	ldi	r31, 0x01	; 1
     8ba:	80 81       	ld	r24, Z
     8bc:	83 fd       	sbrc	r24, 3
     8be:	fd cf       	rjmp	.-6      	; 0x8ba <__vector_6+0x58>
     8c0:	80 91 f2 39 	lds	r24, 0x39F2	; 0x8039f2 <tmp16bit>
     8c4:	90 91 f3 39 	lds	r25, 0x39F3	; 0x8039f3 <tmp16bit+0x1>
     8c8:	80 93 4c 01 	sts	0x014C, r24	; 0x80014c <__TEXT_REGION_LENGTH__+0x70014c>
     8cc:	90 93 4d 01 	sts	0x014D, r25	; 0x80014d <__TEXT_REGION_LENGTH__+0x70014d>
     8d0:	82 e0       	ldi	r24, 0x02	; 2
     8d2:	80 93 43 01 	sts	0x0143, r24	; 0x800143 <__TEXT_REGION_LENGTH__+0x700143>
     8d6:	0c c0       	rjmp	.+24     	; 0x8f0 <__vector_6+0x8e>
     8d8:	80 91 1b 38 	lds	r24, 0x381B	; 0x80381b <minuteMark>
     8dc:	8f 3f       	cpi	r24, 0xFF	; 255
     8de:	29 f0       	breq	.+10     	; 0x8ea <__vector_6+0x88>
     8e0:	80 91 1b 38 	lds	r24, 0x381B	; 0x80381b <minuteMark>
     8e4:	8f 5f       	subi	r24, 0xFF	; 255
     8e6:	80 93 1b 38 	sts	0x381B, r24	; 0x80381b <minuteMark>
     8ea:	81 e0       	ldi	r24, 0x01	; 1
     8ec:	80 93 43 01 	sts	0x0143, r24	; 0x800143 <__TEXT_REGION_LENGTH__+0x700143>
     8f0:	ff 91       	pop	r31
     8f2:	ef 91       	pop	r30
     8f4:	bf 91       	pop	r27
     8f6:	af 91       	pop	r26
     8f8:	9f 91       	pop	r25
     8fa:	8f 91       	pop	r24
     8fc:	7f 91       	pop	r23
     8fe:	6f 91       	pop	r22
     900:	5f 91       	pop	r21
     902:	0f 90       	pop	r0
     904:	0f be       	out	0x3f, r0	; 63
     906:	0f 90       	pop	r0
     908:	1f 90       	pop	r1
     90a:	18 95       	reti

0000090c <__vector_7>:
     90c:	1f 92       	push	r1
     90e:	0f 92       	push	r0
     910:	0f b6       	in	r0, 0x3f	; 63
     912:	0f 92       	push	r0
     914:	11 24       	eor	r1, r1
     916:	8f 93       	push	r24
     918:	81 e0       	ldi	r24, 0x01	; 1
     91a:	80 93 48 06 	sts	0x0648, r24	; 0x800648 <__TEXT_REGION_LENGTH__+0x700648>
     91e:	80 93 53 01 	sts	0x0153, r24	; 0x800153 <__TEXT_REGION_LENGTH__+0x700153>
     922:	8f 91       	pop	r24
     924:	0f 90       	pop	r0
     926:	0f be       	out	0x3f, r0	; 63
     928:	0f 90       	pop	r0
     92a:	1f 90       	pop	r1
     92c:	18 95       	reti

0000092e <EERead>:
     92e:	e2 e0       	ldi	r30, 0x02	; 2
     930:	f0 e1       	ldi	r31, 0x10	; 16
     932:	90 81       	ld	r25, Z
     934:	91 fd       	sbrc	r25, 1
     936:	fd cf       	rjmp	.-6      	; 0x932 <EERead+0x4>
     938:	44 23       	and	r20, r20
     93a:	59 f0       	breq	.+22     	; 0x952 <EERead+0x24>
     93c:	a6 2f       	mov	r26, r22
     93e:	b7 2f       	mov	r27, r23
     940:	48 0f       	add	r20, r24
     942:	e8 2f       	mov	r30, r24
     944:	f0 e0       	ldi	r31, 0x00	; 0
     946:	fc 5e       	subi	r31, 0xEC	; 236
     948:	90 81       	ld	r25, Z
     94a:	9d 93       	st	X+, r25
     94c:	8f 5f       	subi	r24, 0xFF	; 255
     94e:	48 13       	cpse	r20, r24
     950:	f8 cf       	rjmp	.-16     	; 0x942 <EERead+0x14>
     952:	08 95       	ret

00000954 <EEWrite>:
     954:	ff 92       	push	r15
     956:	0f 93       	push	r16
     958:	1f 93       	push	r17
     95a:	cf 93       	push	r28
     95c:	df 93       	push	r29
     95e:	e8 2f       	mov	r30, r24
     960:	44 23       	and	r20, r20
     962:	79 f1       	breq	.+94     	; 0x9c2 <EEWrite+0x6e>
     964:	c2 e0       	ldi	r28, 0x02	; 2
     966:	d0 e1       	ldi	r29, 0x10	; 16
     968:	3d e9       	ldi	r19, 0x9D	; 157
     96a:	00 e0       	ldi	r16, 0x00	; 0
     96c:	10 e1       	ldi	r17, 0x10	; 16
     96e:	54 e0       	ldi	r21, 0x04	; 4
     970:	0f 2e       	mov	r0, r31
     972:	f3 e0       	ldi	r31, 0x03	; 3
     974:	ff 2e       	mov	r15, r31
     976:	f0 2d       	mov	r31, r0
     978:	88 81       	ld	r24, Y
     97a:	81 fd       	sbrc	r24, 1
     97c:	fd cf       	rjmp	.-6      	; 0x978 <EEWrite+0x24>
     97e:	34 bf       	out	0x34, r19	; 52
     980:	d8 01       	movw	r26, r16
     982:	5c 93       	st	X, r21
     984:	44 23       	and	r20, r20
     986:	91 f0       	breq	.+36     	; 0x9ac <EEWrite+0x58>
     988:	2e 2f       	mov	r18, r30
     98a:	2f 71       	andi	r18, 0x1F	; 31
     98c:	91 e0       	ldi	r25, 0x01	; 1
     98e:	9e 0f       	add	r25, r30
     990:	6f 5f       	subi	r22, 0xFF	; 255
     992:	7f 4f       	sbci	r23, 0xFF	; 255
     994:	db 01       	movw	r26, r22
     996:	11 97       	sbiw	r26, 0x01	; 1
     998:	8c 91       	ld	r24, X
     99a:	f0 e0       	ldi	r31, 0x00	; 0
     99c:	fc 5e       	subi	r31, 0xEC	; 236
     99e:	80 83       	st	Z, r24
     9a0:	41 50       	subi	r20, 0x01	; 1
     9a2:	21 f0       	breq	.+8      	; 0x9ac <EEWrite+0x58>
     9a4:	e9 2f       	mov	r30, r25
     9a6:	2f 31       	cpi	r18, 0x1F	; 31
     9a8:	79 f7       	brne	.-34     	; 0x988 <EEWrite+0x34>
     9aa:	0f c0       	rjmp	.+30     	; 0x9ca <EEWrite+0x76>
     9ac:	8d e9       	ldi	r24, 0x9D	; 157
     9ae:	84 bf       	out	0x34, r24	; 52
     9b0:	83 e0       	ldi	r24, 0x03	; 3
     9b2:	80 93 00 10 	sts	0x1000, r24	; 0x801000 <__TEXT_REGION_LENGTH__+0x701000>
     9b6:	80 91 02 10 	lds	r24, 0x1002	; 0x801002 <__TEXT_REGION_LENGTH__+0x701002>
     9ba:	82 fb       	bst	r24, 2
     9bc:	88 27       	eor	r24, r24
     9be:	80 f9       	bld	r24, 0
     9c0:	0c c0       	rjmp	.+24     	; 0x9da <EEWrite+0x86>
     9c2:	80 e0       	ldi	r24, 0x00	; 0
     9c4:	0a c0       	rjmp	.+20     	; 0x9da <EEWrite+0x86>
     9c6:	81 e0       	ldi	r24, 0x01	; 1
     9c8:	08 c0       	rjmp	.+16     	; 0x9da <EEWrite+0x86>
     9ca:	34 bf       	out	0x34, r19	; 52
     9cc:	f8 01       	movw	r30, r16
     9ce:	f0 82       	st	Z, r15
     9d0:	88 81       	ld	r24, Y
     9d2:	82 fd       	sbrc	r24, 2
     9d4:	f8 cf       	rjmp	.-16     	; 0x9c6 <EEWrite+0x72>
     9d6:	e9 2f       	mov	r30, r25
     9d8:	cf cf       	rjmp	.-98     	; 0x978 <EEWrite+0x24>
     9da:	df 91       	pop	r29
     9dc:	cf 91       	pop	r28
     9de:	1f 91       	pop	r17
     9e0:	0f 91       	pop	r16
     9e2:	ff 90       	pop	r15
     9e4:	08 95       	ret

000009e6 <SerSend>:
     9e6:	9c 01       	movw	r18, r24
     9e8:	90 91 04 38 	lds	r25, 0x3804	; 0x803804 <serTxDone>
     9ec:	99 23       	and	r25, r25
     9ee:	59 f0       	breq	.+22     	; 0xa06 <SerSend+0x20>
     9f0:	20 93 a1 39 	sts	0x39A1, r18	; 0x8039a1 <serTxAddr>
     9f4:	30 93 a2 39 	sts	0x39A2, r19	; 0x8039a2 <serTxAddr+0x1>
     9f8:	10 92 04 38 	sts	0x3804, r1	; 0x803804 <serTxDone>
     9fc:	81 e0       	ldi	r24, 0x01	; 1
     9fe:	80 93 45 0a 	sts	0x0A45, r24	; 0x800a45 <__TEXT_REGION_LENGTH__+0x700a45>
     a02:	80 e0       	ldi	r24, 0x00	; 0
     a04:	08 95       	ret
     a06:	81 e0       	ldi	r24, 0x01	; 1
     a08:	08 95       	ret

00000a0a <SerSpeed>:
     a0a:	28 2f       	mov	r18, r24
     a0c:	81 11       	cpse	r24, r1
     a0e:	01 c0       	rjmp	.+2      	; 0xa12 <SerSpeed+0x8>
     a10:	21 e0       	ldi	r18, 0x01	; 1
     a12:	8f ef       	ldi	r24, 0xFF	; 255
     a14:	90 e0       	ldi	r25, 0x00	; 0
     a16:	82 1b       	sub	r24, r18
     a18:	91 09       	sbc	r25, r1
     a1a:	98 2f       	mov	r25, r24
     a1c:	88 27       	eor	r24, r24
     a1e:	81 50       	subi	r24, 0x01	; 1
     a20:	9f 4f       	sbci	r25, 0xFF	; 255
     a22:	80 93 4c 0a 	sts	0x0A4C, r24	; 0x800a4c <__TEXT_REGION_LENGTH__+0x700a4c>
     a26:	90 93 4d 0a 	sts	0x0A4D, r25	; 0x800a4d <__TEXT_REGION_LENGTH__+0x700a4d>
     a2a:	08 95       	ret

00000a2c <CheckButtons>:
};

// Returns button combination (4LSB) and number of consecutive times this combination is detected. First read should always be ignored! 
uint8_t CheckButtons(uint8_t previousValue){
    uint8_t bADC = (uint8_t)(adcBtns>>4);
     a2c:	20 91 9f 39 	lds	r18, 0x399F	; 0x80399f <adcBtns>
     a30:	30 91 a0 39 	lds	r19, 0x39A0	; 0x8039a0 <adcBtns+0x1>
    uint8_t bNibble = 0x0F;     //MSB to LSB: Bottom left, top left, top right, bottom right, 0F is error
    
    switch(bADC){
     a34:	32 95       	swap	r19
     a36:	22 95       	swap	r18
     a38:	2f 70       	andi	r18, 0x0F	; 15
     a3a:	23 27       	eor	r18, r19
     a3c:	3f 70       	andi	r19, 0x0F	; 15
     a3e:	23 27       	eor	r18, r19
     a40:	33 27       	eor	r19, r19
     a42:	2c 35       	cpi	r18, 0x5C	; 92
     a44:	31 05       	cpc	r19, r1
     a46:	d0 f4       	brcc	.+52     	; 0xa7c <CheckButtons+0x50>
     a48:	23 35       	cpi	r18, 0x53	; 83
     a4a:	31 05       	cpc	r19, r1
     a4c:	98 f5       	brcc	.+102    	; 0xab4 <CheckButtons+0x88>
     a4e:	22 33       	cpi	r18, 0x32	; 50
     a50:	31 05       	cpc	r19, r1
     a52:	50 f4       	brcc	.+20     	; 0xa68 <CheckButtons+0x3c>
     a54:	2d 32       	cpi	r18, 0x2D	; 45
     a56:	31 05       	cpc	r19, r1
     a58:	48 f5       	brcc	.+82     	; 0xaac <CheckButtons+0x80>
     a5a:	23 52       	subi	r18, 0x23	; 35
     a5c:	31 09       	sbc	r19, r1
     a5e:	25 30       	cpi	r18, 0x05	; 5
     a60:	31 05       	cpc	r19, r1
     a62:	08 f4       	brcc	.+2      	; 0xa66 <CheckButtons+0x3a>
     a64:	42 c0       	rjmp	.+132    	; 0xaea <CheckButtons+0xbe>
     a66:	2e c0       	rjmp	.+92     	; 0xac4 <CheckButtons+0x98>
     a68:	27 33       	cpi	r18, 0x37	; 55
     a6a:	31 05       	cpc	r19, r1
     a6c:	08 f4       	brcc	.+2      	; 0xa70 <CheckButtons+0x44>
     a6e:	3f c0       	rjmp	.+126    	; 0xaee <CheckButtons+0xc2>
     a70:	2e 53       	subi	r18, 0x3E	; 62
     a72:	31 09       	sbc	r19, r1
     a74:	27 30       	cpi	r18, 0x07	; 7
     a76:	31 05       	cpc	r19, r1
     a78:	d8 f0       	brcs	.+54     	; 0xab0 <CheckButtons+0x84>
     a7a:	24 c0       	rjmp	.+72     	; 0xac4 <CheckButtons+0x98>
     a7c:	2a 38       	cpi	r18, 0x8A	; 138
     a7e:	31 05       	cpc	r19, r1
     a80:	48 f4       	brcc	.+18     	; 0xa94 <CheckButtons+0x68>
     a82:	29 37       	cpi	r18, 0x79	; 121
     a84:	31 05       	cpc	r19, r1
     a86:	d0 f4       	brcc	.+52     	; 0xabc <CheckButtons+0x90>
     a88:	23 56       	subi	r18, 0x63	; 99
     a8a:	31 09       	sbc	r19, r1
     a8c:	2b 30       	cpi	r18, 0x0B	; 11
     a8e:	31 05       	cpc	r19, r1
     a90:	98 f0       	brcs	.+38     	; 0xab8 <CheckButtons+0x8c>
     a92:	18 c0       	rjmp	.+48     	; 0xac4 <CheckButtons+0x98>
     a94:	22 3a       	cpi	r18, 0xA2	; 162
     a96:	31 05       	cpc	r19, r1
     a98:	a8 f0       	brcs	.+42     	; 0xac4 <CheckButtons+0x98>
     a9a:	2b 3b       	cpi	r18, 0xBB	; 187
     a9c:	31 05       	cpc	r19, r1
     a9e:	80 f0       	brcs	.+32     	; 0xac0 <CheckButtons+0x94>
     aa0:	20 5f       	subi	r18, 0xF0	; 240
     aa2:	31 09       	sbc	r19, r1
     aa4:	20 31       	cpi	r18, 0x10	; 16
     aa6:	31 05       	cpc	r19, r1
     aa8:	d8 f0       	brcs	.+54     	; 0xae0 <CheckButtons+0xb4>
     aaa:	0c c0       	rjmp	.+24     	; 0xac4 <CheckButtons+0x98>
        case 35 ... 39:          //37: Both left
        bNibble = 0b1100;
        break;

        case 45 ... 49:          //47: Both bottom
        bNibble = 0b1001;
     aac:	99 e0       	ldi	r25, 0x09	; 9
     aae:	20 c0       	rjmp	.+64     	; 0xaf0 <CheckButtons+0xc4>
        case 50 ... 54:          //52: Bottom left
        bNibble = 0b1000;
        break;

        case 62 ... 68:          //65: Both top
        bNibble = 0b0110;
     ab0:	96 e0       	ldi	r25, 0x06	; 6
        break;
     ab2:	1e c0       	rjmp	.+60     	; 0xaf0 <CheckButtons+0xc4>

        case 83 ... 91:          //87: Top left
        bNibble = 0b0100;
     ab4:	94 e0       	ldi	r25, 0x04	; 4
        break;
     ab6:	1c c0       	rjmp	.+56     	; 0xaf0 <CheckButtons+0xc4>

        case 99 ... 109:         //104: Both right
        bNibble = 0b0011;
     ab8:	93 e0       	ldi	r25, 0x03	; 3
        break;
     aba:	1a c0       	rjmp	.+52     	; 0xaf0 <CheckButtons+0xc4>

        case 121 ... 137:        //129: Top right
        bNibble = 0b0010;
     abc:	92 e0       	ldi	r25, 0x02	; 2
        break;
     abe:	18 c0       	rjmp	.+48     	; 0xaf0 <CheckButtons+0xc4>

        case 162 ... 186:        //174: Bottom right
        bNibble = 0b0001;
     ac0:	91 e0       	ldi	r25, 0x01	; 1
        break;
     ac2:	16 c0       	rjmp	.+44     	; 0xaf0 <CheckButtons+0xc4>
        case 240 ... 255:        //255: No button pressed
        bNibble = 0b0000;
        break;
    }

    if ((previousValue&0x0F)==bNibble){
     ac4:	98 2f       	mov	r25, r24
     ac6:	9f 70       	andi	r25, 0x0F	; 15
     ac8:	9f 30       	cpi	r25, 0x0F	; 15
     aca:	41 f4       	brne	.+16     	; 0xadc <CheckButtons+0xb0>
        if ((previousValue&0xF0) < 0xF0) previousValue += 0x10; //Same value? Increase time nibble
     acc:	28 2f       	mov	r18, r24
     ace:	20 7f       	andi	r18, 0xF0	; 240
     ad0:	30 e0       	ldi	r19, 0x00	; 0
     ad2:	20 3f       	cpi	r18, 0xF0	; 240
     ad4:	31 05       	cpc	r19, r1
     ad6:	8c f4       	brge	.+34     	; 0xafa <CheckButtons+0xce>
     ad8:	80 5f       	subi	r24, 0xF0	; 240
     ada:	08 95       	ret
};

// Returns button combination (4LSB) and number of consecutive times this combination is detected. First read should always be ignored! 
uint8_t CheckButtons(uint8_t previousValue){
    uint8_t bADC = (uint8_t)(adcBtns>>4);
    uint8_t bNibble = 0x0F;     //MSB to LSB: Bottom left, top left, top right, bottom right, 0F is error
     adc:	8f e0       	ldi	r24, 0x0F	; 15
     ade:	08 95       	ret
        case 240 ... 255:        //255: No button pressed
        bNibble = 0b0000;
        break;
    }

    if ((previousValue&0x0F)==bNibble){
     ae0:	98 2f       	mov	r25, r24
     ae2:	9f 70       	andi	r25, 0x0F	; 15
     ae4:	99 f3       	breq	.-26     	; 0xacc <CheckButtons+0xa0>
        if ((previousValue&0xF0) < 0xF0) previousValue += 0x10; //Same value? Increase time nibble
        return previousValue;       
    } else if (bNibble == 0) return 0xFF; //Buttons released, 0xFF triggers readout, previousValue holds last button value.
     ae6:	8f ef       	ldi	r24, 0xFF	; 255
     ae8:	08 95       	ret
        case 28 ... 32:         //30: All buttons pressed
        bNibble = 0b1111;
        break;

        case 35 ... 39:          //37: Both left
        bNibble = 0b1100;
     aea:	9c e0       	ldi	r25, 0x0C	; 12
     aec:	01 c0       	rjmp	.+2      	; 0xaf0 <CheckButtons+0xc4>
        case 45 ... 49:          //47: Both bottom
        bNibble = 0b1001;
        break;

        case 50 ... 54:          //52: Bottom left
        bNibble = 0b1000;
     aee:	98 e0       	ldi	r25, 0x08	; 8
        case 240 ... 255:        //255: No button pressed
        bNibble = 0b0000;
        break;
    }

    if ((previousValue&0x0F)==bNibble){
     af0:	28 2f       	mov	r18, r24
     af2:	2f 70       	andi	r18, 0x0F	; 15
     af4:	92 17       	cp	r25, r18
     af6:	51 f3       	breq	.-44     	; 0xacc <CheckButtons+0xa0>
     af8:	89 2f       	mov	r24, r25
        if ((previousValue&0xF0) < 0xF0) previousValue += 0x10; //Same value? Increase time nibble
        return previousValue;       
    } else if (bNibble == 0) return 0xFF; //Buttons released, 0xFF triggers readout, previousValue holds last button value.
              else return bNibble;  //New value  
}
     afa:	08 95       	ret

00000afc <lfsr>:

uint8_t lfsr(){
    static uint16_t state = 0xd401;
    state ^= (state << 13);
     afc:	80 91 0c 38 	lds	r24, 0x380C	; 0x80380c <state.3858>
     b00:	90 91 0d 38 	lds	r25, 0x380D	; 0x80380d <state.3858+0x1>
     b04:	9c 01       	movw	r18, r24
     b06:	32 2f       	mov	r19, r18
     b08:	22 27       	eor	r18, r18
     b0a:	32 95       	swap	r19
     b0c:	33 0f       	add	r19, r19
     b0e:	30 7e       	andi	r19, 0xE0	; 224
     b10:	82 27       	eor	r24, r18
     b12:	93 27       	eor	r25, r19
    state ^= (state >> 9);
     b14:	9c 01       	movw	r18, r24
     b16:	23 2f       	mov	r18, r19
     b18:	33 27       	eor	r19, r19
     b1a:	26 95       	lsr	r18
     b1c:	82 27       	eor	r24, r18
     b1e:	93 27       	eor	r25, r19
    state ^= (state << 7);
     b20:	9c 01       	movw	r18, r24
     b22:	36 95       	lsr	r19
     b24:	32 2f       	mov	r19, r18
     b26:	22 27       	eor	r18, r18
     b28:	37 95       	ror	r19
     b2a:	27 95       	ror	r18
     b2c:	82 27       	eor	r24, r18
     b2e:	93 27       	eor	r25, r19
     b30:	80 93 0c 38 	sts	0x380C, r24	; 0x80380c <state.3858>
     b34:	90 93 0d 38 	sts	0x380D, r25	; 0x80380d <state.3858+0x1>
    return (state & 0xff);
}
     b38:	08 95       	ret

00000b3a <floatSpeed>:

void floatSpeed(uint8_t bits, uint16_t min, uint16_t max){
     b3a:	df 92       	push	r13
     b3c:	ef 92       	push	r14
     b3e:	ff 92       	push	r15
     b40:	0f 93       	push	r16
     b42:	1f 93       	push	r17
     b44:	cf 93       	push	r28
     b46:	df 93       	push	r29
     b48:	e6 2e       	mov	r14, r22
     b4a:	f7 2e       	mov	r15, r23
     b4c:	8a 01       	movw	r16, r20
    uint16_t val = TCB1_CCMP;
     b4e:	c0 91 5c 0a 	lds	r28, 0x0A5C	; 0x800a5c <__TEXT_REGION_LENGTH__+0x700a5c>
     b52:	d0 91 5d 0a 	lds	r29, 0x0A5D	; 0x800a5d <__TEXT_REGION_LENGTH__+0x700a5d>
    bits = mask[(bits-1)&0x07];
     b56:	e8 2f       	mov	r30, r24
     b58:	f0 e0       	ldi	r31, 0x00	; 0
     b5a:	31 97       	sbiw	r30, 0x01	; 1
     b5c:	e7 70       	andi	r30, 0x07	; 7
     b5e:	ff 27       	eor	r31, r31
     b60:	e2 5f       	subi	r30, 0xF2	; 242
     b62:	f7 4c       	sbci	r31, 0xC7	; 199
     b64:	d0 80       	ld	r13, Z
    val += (lfsr()&bits);
     b66:	ca df       	rcall	.-108    	; 0xafc <lfsr>
     b68:	8d 21       	and	r24, r13
     b6a:	c8 0f       	add	r28, r24
     b6c:	d1 1d       	adc	r29, r1
    val -= (lfsr()&bits);
     b6e:	c6 df       	rcall	.-116    	; 0xafc <lfsr>
     b70:	8d 21       	and	r24, r13
     b72:	c8 1b       	sub	r28, r24
     b74:	d1 09       	sbc	r29, r1
     b76:	0c 17       	cp	r16, r28
     b78:	1d 07       	cpc	r17, r29
     b7a:	08 f4       	brcc	.+2      	; 0xb7e <floatSpeed+0x44>
     b7c:	e8 01       	movw	r28, r16
     b7e:	8e 2d       	mov	r24, r14
     b80:	9f 2d       	mov	r25, r15
     b82:	8c 17       	cp	r24, r28
     b84:	9d 07       	cpc	r25, r29
     b86:	08 f4       	brcc	.+2      	; 0xb8a <floatSpeed+0x50>
     b88:	ce 01       	movw	r24, r28
     b8a:	80 93 5c 0a 	sts	0x0A5C, r24	; 0x800a5c <__TEXT_REGION_LENGTH__+0x700a5c>
    if (val > max) val = max;    //0x038B is normal rate, for wind we need to be a bit slower
    if (val < min) val = min;  
    TCB1_CCMP = val;
     b8e:	90 93 5d 0a 	sts	0x0A5D, r25	; 0x800a5d <__TEXT_REGION_LENGTH__+0x700a5d>
     b92:	df 91       	pop	r29
}
     b94:	cf 91       	pop	r28
     b96:	1f 91       	pop	r17
     b98:	0f 91       	pop	r16
     b9a:	ff 90       	pop	r15
     b9c:	ef 90       	pop	r14
     b9e:	df 90       	pop	r13
     ba0:	08 95       	ret

00000ba2 <floatAround>:
     ba2:	0f 93       	push	r16

uint8_t floatAround(uint8_t sample, uint8_t bits, uint8_t min, uint8_t max){
     ba4:	1f 93       	push	r17
     ba6:	cf 93       	push	r28
     ba8:	df 93       	push	r29
     baa:	c8 2f       	mov	r28, r24
     bac:	04 2f       	mov	r16, r20
     bae:	12 2f       	mov	r17, r18
    bits = mask[(bits-1)&0x07];
     bb0:	e6 2f       	mov	r30, r22
     bb2:	f0 e0       	ldi	r31, 0x00	; 0
     bb4:	31 97       	sbiw	r30, 0x01	; 1
     bb6:	e7 70       	andi	r30, 0x07	; 7
     bb8:	ff 27       	eor	r31, r31
     bba:	e2 5f       	subi	r30, 0xF2	; 242
     bbc:	f7 4c       	sbci	r31, 0xC7	; 199
     bbe:	d0 81       	ld	r29, Z
    sample += lfsr()&bits;
     bc0:	9d df       	rcall	.-198    	; 0xafc <lfsr>
     bc2:	8d 23       	and	r24, r29
     bc4:	c8 0f       	add	r28, r24
    sample -= lfsr()&bits;
     bc6:	9a df       	rcall	.-204    	; 0xafc <lfsr>
     bc8:	8d 23       	and	r24, r29
     bca:	c8 1b       	sub	r28, r24
     bcc:	8c 2f       	mov	r24, r28
     bce:	11 23       	and	r17, r17
    if (max){
     bd0:	41 f0       	breq	.+16     	; 0xbe2 <floatAround+0x40>
     bd2:	9c 2f       	mov	r25, r28
     bd4:	1c 17       	cp	r17, r28
     bd6:	08 f4       	brcc	.+2      	; 0xbda <floatAround+0x38>
     bd8:	91 2f       	mov	r25, r17
     bda:	80 2f       	mov	r24, r16
     bdc:	09 17       	cp	r16, r25
     bde:	08 f4       	brcc	.+2      	; 0xbe2 <floatAround+0x40>
     be0:	89 2f       	mov	r24, r25
     be2:	df 91       	pop	r29
        if (sample > max) sample = max;
        if (sample < min) sample = min;
    }
    return sample;
}
     be4:	cf 91       	pop	r28
     be6:	1f 91       	pop	r17
     be8:	0f 91       	pop	r16
     bea:	08 95       	ret

00000bec <SaveGameState>:
     bec:	cf 92       	push	r12

//Save changed data to EEPROM
uint8_t SaveGameState(){
     bee:	df 92       	push	r13
     bf0:	ff 92       	push	r15
     bf2:	0f 93       	push	r16
     bf4:	1f 93       	push	r17
     bf6:	cf 93       	push	r28
     bf8:	df 93       	push	r29
     bfa:	cd b7       	in	r28, 0x3d	; 61
     bfc:	de b7       	in	r29, 0x3e	; 62
     bfe:	60 97       	sbiw	r28, 0x10	; 16
     c00:	cd bf       	out	0x3d, r28	; 61
     c02:	de bf       	out	0x3e, r29	; 62
    uint8_t gameCheck[16];
    EERead(0, &gameCheck[0], 16);
     c04:	40 e1       	ldi	r20, 0x10	; 16
     c06:	be 01       	movw	r22, r28
     c08:	6f 5f       	subi	r22, 0xFF	; 255
     c0a:	7f 4f       	sbci	r23, 0xFF	; 255
     c0c:	80 e0       	ldi	r24, 0x00	; 0
     c0e:	8f de       	rcall	.-738    	; 0x92e <EERead>
     c10:	06 e4       	ldi	r16, 0x46	; 70
     c12:	19 e3       	ldi	r17, 0x39	; 57
     c14:	ce 01       	movw	r24, r28
     c16:	01 96       	adiw	r24, 0x01	; 1
     c18:	6c 01       	movw	r12, r24
    for (uint8_t x=0; x<16; ++x){
     c1a:	f1 2c       	mov	r15, r1
        if (gameState[x] != gameCheck[x]){
     c1c:	f6 01       	movw	r30, r12
     c1e:	81 91       	ld	r24, Z+
     c20:	6f 01       	movw	r12, r30
     c22:	f8 01       	movw	r30, r16
     c24:	90 81       	ld	r25, Z
     c26:	98 17       	cp	r25, r24
     c28:	31 f0       	breq	.+12     	; 0xc36 <SaveGameState+0x4a>
            if (EEWrite(x, &gameState[x], 1)) return 1;
     c2a:	41 e0       	ldi	r20, 0x01	; 1
     c2c:	b8 01       	movw	r22, r16
     c2e:	8f 2d       	mov	r24, r15
     c30:	91 de       	rcall	.-734    	; 0x954 <EEWrite>
     c32:	81 11       	cpse	r24, r1
     c34:	08 c0       	rjmp	.+16     	; 0xc46 <SaveGameState+0x5a>

//Save changed data to EEPROM
uint8_t SaveGameState(){
    uint8_t gameCheck[16];
    EERead(0, &gameCheck[0], 16);
    for (uint8_t x=0; x<16; ++x){
     c36:	f3 94       	inc	r15
     c38:	0f 5f       	subi	r16, 0xFF	; 255
     c3a:	1f 4f       	sbci	r17, 0xFF	; 255
     c3c:	f0 e1       	ldi	r31, 0x10	; 16
     c3e:	ff 12       	cpse	r15, r31
     c40:	ed cf       	rjmp	.-38     	; 0xc1c <SaveGameState+0x30>
        if (gameState[x] != gameCheck[x]){
            if (EEWrite(x, &gameState[x], 1)) return 1;
        }
    }
    return 0;
     c42:	80 e0       	ldi	r24, 0x00	; 0
     c44:	01 c0       	rjmp	.+2      	; 0xc48 <SaveGameState+0x5c>
uint8_t SaveGameState(){
    uint8_t gameCheck[16];
    EERead(0, &gameCheck[0], 16);
    for (uint8_t x=0; x<16; ++x){
        if (gameState[x] != gameCheck[x]){
            if (EEWrite(x, &gameState[x], 1)) return 1;
     c46:	81 e0       	ldi	r24, 0x01	; 1
        }
    }
    return 0;
}
     c48:	60 96       	adiw	r28, 0x10	; 16
     c4a:	cd bf       	out	0x3d, r28	; 61
     c4c:	de bf       	out	0x3e, r29	; 62
     c4e:	df 91       	pop	r29
     c50:	cf 91       	pop	r28
     c52:	1f 91       	pop	r17
     c54:	0f 91       	pop	r16
     c56:	ff 90       	pop	r15
     c58:	df 90       	pop	r13
     c5a:	cf 90       	pop	r12
     c5c:	08 95       	ret

00000c5e <ReadStatusBit>:

uint8_t ReadStatusBit(uint8_t number){
    number &= 0x3f;
    if (gameState[number>>3] & (1<<(number&7))) return 1; else return 0;
     c5e:	e8 2f       	mov	r30, r24
     c60:	ef 73       	andi	r30, 0x3F	; 63
     c62:	e6 95       	lsr	r30
     c64:	e6 95       	lsr	r30
     c66:	e6 95       	lsr	r30
     c68:	f0 e0       	ldi	r31, 0x00	; 0
     c6a:	ea 5b       	subi	r30, 0xBA	; 186
     c6c:	f6 4c       	sbci	r31, 0xC6	; 198
     c6e:	20 81       	ld	r18, Z
     c70:	30 e0       	ldi	r19, 0x00	; 0
     c72:	87 70       	andi	r24, 0x07	; 7
     c74:	a9 01       	movw	r20, r18
     c76:	02 c0       	rjmp	.+4      	; 0xc7c <ReadStatusBit+0x1e>
     c78:	55 95       	asr	r21
     c7a:	47 95       	ror	r20
     c7c:	8a 95       	dec	r24
     c7e:	e2 f7       	brpl	.-8      	; 0xc78 <ReadStatusBit+0x1a>
     c80:	ca 01       	movw	r24, r20
}
     c82:	81 70       	andi	r24, 0x01	; 1
     c84:	08 95       	ret

00000c86 <WriteStatusBit>:

void WriteStatusBit(uint8_t number, uint8_t state){
    number &= 0x3f;
     c86:	e8 2f       	mov	r30, r24
     c88:	ef 73       	andi	r30, 0x3F	; 63
    if (state) gameState[number>>3] |= 1<<(number&7);
     c8a:	66 23       	and	r22, r22
     c8c:	a1 f0       	breq	.+40     	; 0xcb6 <WriteStatusBit+0x30>
     c8e:	e6 95       	lsr	r30
     c90:	e6 95       	lsr	r30
     c92:	e6 95       	lsr	r30
     c94:	f0 e0       	ldi	r31, 0x00	; 0
     c96:	ea 5b       	subi	r30, 0xBA	; 186
     c98:	f6 4c       	sbci	r31, 0xC6	; 198
     c9a:	87 70       	andi	r24, 0x07	; 7
     c9c:	21 e0       	ldi	r18, 0x01	; 1
     c9e:	30 e0       	ldi	r19, 0x00	; 0
     ca0:	a9 01       	movw	r20, r18
     ca2:	02 c0       	rjmp	.+4      	; 0xca8 <WriteStatusBit+0x22>
     ca4:	44 0f       	add	r20, r20
     ca6:	55 1f       	adc	r21, r21
     ca8:	8a 95       	dec	r24
     caa:	e2 f7       	brpl	.-8      	; 0xca4 <WriteStatusBit+0x1e>
     cac:	ca 01       	movw	r24, r20
     cae:	90 81       	ld	r25, Z
     cb0:	89 2b       	or	r24, r25
     cb2:	80 83       	st	Z, r24
     cb4:	08 95       	ret
    else gameState[number>>3] &= ~(1<<(number&7));
     cb6:	e6 95       	lsr	r30
     cb8:	e6 95       	lsr	r30
     cba:	e6 95       	lsr	r30
     cbc:	f0 e0       	ldi	r31, 0x00	; 0
     cbe:	ea 5b       	subi	r30, 0xBA	; 186
     cc0:	f6 4c       	sbci	r31, 0xC6	; 198
     cc2:	87 70       	andi	r24, 0x07	; 7
     cc4:	21 e0       	ldi	r18, 0x01	; 1
     cc6:	30 e0       	ldi	r19, 0x00	; 0
     cc8:	a9 01       	movw	r20, r18
     cca:	02 c0       	rjmp	.+4      	; 0xcd0 <WriteStatusBit+0x4a>
     ccc:	44 0f       	add	r20, r20
     cce:	55 1f       	adc	r21, r21
     cd0:	8a 95       	dec	r24
     cd2:	e2 f7       	brpl	.-8      	; 0xccc <WriteStatusBit+0x46>
     cd4:	ca 01       	movw	r24, r20
     cd6:	80 95       	com	r24
     cd8:	90 81       	ld	r25, Z
     cda:	89 23       	and	r24, r25
     cdc:	80 83       	st	Z, r24
     cde:	08 95       	ret

00000ce0 <Reset>:
}

void Reset(){
     ce0:	e6 e4       	ldi	r30, 0x46	; 70
     ce2:	f9 e3       	ldi	r31, 0x39	; 57
     ce4:	86 e5       	ldi	r24, 0x56	; 86
     ce6:	99 e3       	ldi	r25, 0x39	; 57
    //# 110   set to 1 by FW if badge UUID mod 4 == 0
    //# 111   set to 1 by FW if badge UUID mod 4 == 1
    //# 112   set to 1 by FW if badge UUID mod 4 == 2
    //# 113   set to 1 by FW if badge UUID mod 4 == 3
    for (uint8_t x=0; x<sizeof(gameState); ++x){
        gameState[x] = 0;
     ce8:	11 92       	st	Z+, r1
    //Reset game progress (all zeroes) and load some bits:
    //# 110   set to 1 by FW if badge UUID mod 4 == 0
    //# 111   set to 1 by FW if badge UUID mod 4 == 1
    //# 112   set to 1 by FW if badge UUID mod 4 == 2
    //# 113   set to 1 by FW if badge UUID mod 4 == 3
    for (uint8_t x=0; x<sizeof(gameState); ++x){
     cea:	8e 17       	cp	r24, r30
     cec:	9f 07       	cpc	r25, r31
     cee:	e1 f7       	brne	.-8      	; 0xce8 <Reset+0x8>
     cf0:	e3 e0       	ldi	r30, 0x03	; 3
     cf2:	f1 e1       	ldi	r31, 0x11	; 17
     cf4:	80 e0       	ldi	r24, 0x00	; 0
    uint8_t *serNum;
    serNum = (uint8_t*)&SIGROW_SERNUM0;
    
    //Give out a number 0..3, calculated using serial number fields
    for (uint8_t x=0; x<10; ++x){
        id += *serNum;
     cf6:	91 91       	ld	r25, Z+
     cf8:	89 0f       	add	r24, r25
    uint8_t id = 0;
    uint8_t *serNum;
    serNum = (uint8_t*)&SIGROW_SERNUM0;
    
    //Give out a number 0..3, calculated using serial number fields
    for (uint8_t x=0; x<10; ++x){
     cfa:	ed 30       	cpi	r30, 0x0D	; 13
     cfc:	91 e1       	ldi	r25, 0x11	; 17
     cfe:	f9 07       	cpc	r31, r25
     d00:	d1 f7       	brne	.-12     	; 0xcf6 <Reset+0x16>
        id += *serNum;
        ++serNum;
    }
    id %= 4;
     d02:	83 70       	andi	r24, 0x03	; 3

    //Write bit in gameState location 110..113
    if (id == 0) WriteStatusBit(110, 1);
     d04:	31 f4       	brne	.+12     	; 0xd12 <Reset+0x32>
    if (gameState[number>>3] & (1<<(number&7))) return 1; else return 0;
}

void WriteStatusBit(uint8_t number, uint8_t state){
    number &= 0x3f;
    if (state) gameState[number>>3] |= 1<<(number&7);
     d06:	e6 e4       	ldi	r30, 0x46	; 70
     d08:	f9 e3       	ldi	r31, 0x39	; 57
     d0a:	85 81       	ldd	r24, Z+5	; 0x05
     d0c:	80 64       	ori	r24, 0x40	; 64
     d0e:	85 83       	std	Z+5, r24	; 0x05
     d10:	17 c0       	rjmp	.+46     	; 0xd40 <Reset+0x60>
    }
    id %= 4;

    //Write bit in gameState location 110..113
    if (id == 0) WriteStatusBit(110, 1);
    else if (id == 1) WriteStatusBit(111, 1);
     d12:	81 30       	cpi	r24, 0x01	; 1
     d14:	31 f4       	brne	.+12     	; 0xd22 <Reset+0x42>
    if (gameState[number>>3] & (1<<(number&7))) return 1; else return 0;
}

void WriteStatusBit(uint8_t number, uint8_t state){
    number &= 0x3f;
    if (state) gameState[number>>3] |= 1<<(number&7);
     d16:	e6 e4       	ldi	r30, 0x46	; 70
     d18:	f9 e3       	ldi	r31, 0x39	; 57
     d1a:	85 81       	ldd	r24, Z+5	; 0x05
     d1c:	80 68       	ori	r24, 0x80	; 128
     d1e:	85 83       	std	Z+5, r24	; 0x05
     d20:	0f c0       	rjmp	.+30     	; 0xd40 <Reset+0x60>
    id %= 4;

    //Write bit in gameState location 110..113
    if (id == 0) WriteStatusBit(110, 1);
    else if (id == 1) WriteStatusBit(111, 1);
    else if (id == 2) WriteStatusBit(112, 1);
     d22:	82 30       	cpi	r24, 0x02	; 2
     d24:	31 f4       	brne	.+12     	; 0xd32 <Reset+0x52>
    if (gameState[number>>3] & (1<<(number&7))) return 1; else return 0;
}

void WriteStatusBit(uint8_t number, uint8_t state){
    number &= 0x3f;
    if (state) gameState[number>>3] |= 1<<(number&7);
     d26:	e6 e4       	ldi	r30, 0x46	; 70
     d28:	f9 e3       	ldi	r31, 0x39	; 57
     d2a:	86 81       	ldd	r24, Z+6	; 0x06
     d2c:	81 60       	ori	r24, 0x01	; 1
     d2e:	86 83       	std	Z+6, r24	; 0x06
     d30:	07 c0       	rjmp	.+14     	; 0xd40 <Reset+0x60>

    //Write bit in gameState location 110..113
    if (id == 0) WriteStatusBit(110, 1);
    else if (id == 1) WriteStatusBit(111, 1);
    else if (id == 2) WriteStatusBit(112, 1);
    else if (id == 3) WriteStatusBit(113, 1);
     d32:	83 30       	cpi	r24, 0x03	; 3
     d34:	29 f4       	brne	.+10     	; 0xd40 <Reset+0x60>
    if (gameState[number>>3] & (1<<(number&7))) return 1; else return 0;
}

void WriteStatusBit(uint8_t number, uint8_t state){
    number &= 0x3f;
    if (state) gameState[number>>3] |= 1<<(number&7);
     d36:	e6 e4       	ldi	r30, 0x46	; 70
     d38:	f9 e3       	ldi	r31, 0x39	; 57
     d3a:	86 81       	ldd	r24, Z+6	; 0x06
     d3c:	82 60       	ori	r24, 0x02	; 2
     d3e:	86 83       	std	Z+6, r24	; 0x06
     d40:	e6 e4       	ldi	r30, 0x46	; 70
     d42:	f9 e3       	ldi	r31, 0x39	; 57
     d44:	80 81       	ld	r24, Z
     d46:	81 60       	ori	r24, 0x01	; 1
     d48:	80 83       	st	Z, r24
     d4a:	08 95       	ret

00000d4c <GenerateAudio>:

    //Write bit 0, must always be 1!
    WriteStatusBit(0, 1);
}

void GenerateAudio(){
     d4c:	0f 93       	push	r16
     d4e:	1f 93       	push	r17
     d50:	cf 93       	push	r28
     d52:	df 93       	push	r29
    //Test audio play, play a rainstorm with howling wind.
    static uint8_t storm[7]={0x80, 0x80, 0x80, 0x80, 0x80, 0x80, 0};
    auRepAddr = &storm[0];
     d54:	85 e0       	ldi	r24, 0x05	; 5
     d56:	98 e3       	ldi	r25, 0x38	; 56
     d58:	80 93 00 38 	sts	0x3800, r24	; 0x803800 <__data_start>
     d5c:	90 93 01 38 	sts	0x3801, r25	; 0x803801 <__data_start+0x1>
     d60:	8c 01       	movw	r16, r24

    //Noise is to be generated fast, outside of buttonMark loop
    for (uint8_t x=1; x<6; ++x){
     d62:	c1 e0       	ldi	r28, 0x01	; 1
        if (x%3) storm[x] = floatAround(0x80, 5, 0x01, 0x00);
     d64:	db ea       	ldi	r29, 0xAB	; 171
     d66:	cd 9f       	mul	r28, r29
     d68:	81 2d       	mov	r24, r1
     d6a:	11 24       	eor	r1, r1
     d6c:	86 95       	lsr	r24
     d6e:	98 2f       	mov	r25, r24
     d70:	99 0f       	add	r25, r25
     d72:	89 0f       	add	r24, r25
     d74:	c8 17       	cp	r28, r24
     d76:	39 f0       	breq	.+14     	; 0xd86 <GenerateAudio+0x3a>
     d78:	20 e0       	ldi	r18, 0x00	; 0
     d7a:	41 e0       	ldi	r20, 0x01	; 1
     d7c:	65 e0       	ldi	r22, 0x05	; 5
     d7e:	80 e8       	ldi	r24, 0x80	; 128
     d80:	10 df       	rcall	.-480    	; 0xba2 <floatAround>
     d82:	f8 01       	movw	r30, r16
     d84:	81 83       	std	Z+1, r24	; 0x01
    //Test audio play, play a rainstorm with howling wind.
    static uint8_t storm[7]={0x80, 0x80, 0x80, 0x80, 0x80, 0x80, 0};
    auRepAddr = &storm[0];

    //Noise is to be generated fast, outside of buttonMark loop
    for (uint8_t x=1; x<6; ++x){
     d86:	cf 5f       	subi	r28, 0xFF	; 255
     d88:	0f 5f       	subi	r16, 0xFF	; 255
     d8a:	1f 4f       	sbci	r17, 0xFF	; 255
     d8c:	c6 30       	cpi	r28, 0x06	; 6
     d8e:	59 f7       	brne	.-42     	; 0xd66 <GenerateAudio+0x1a>
        if (x%3) storm[x] = floatAround(0x80, 5, 0x01, 0x00);
    }

    if (buttonMark){
     d90:	80 91 1a 38 	lds	r24, 0x381A	; 0x80381a <buttonMark>
     d94:	88 23       	and	r24, r24
     d96:	c1 f0       	breq	.+48     	; 0xdc8 <GenerateAudio+0x7c>
        //"Floating" speed for howl (and noise, but that's hardly audible)
        floatSpeed(5, 0x0300, 0x0500);
     d98:	40 e0       	ldi	r20, 0x00	; 0
     d9a:	55 e0       	ldi	r21, 0x05	; 5
     d9c:	60 e0       	ldi	r22, 0x00	; 0
     d9e:	73 e0       	ldi	r23, 0x03	; 3
     da0:	85 e0       	ldi	r24, 0x05	; 5
     da2:	cb de       	rcall	.-618    	; 0xb3a <floatSpeed>
            
        //"Floating" volume and wind howl during 8 bit rainstorm needs some randomness
        auVolume = floatAround(auVolume, 2, 0x10, 0xA0);
     da4:	80 91 9e 39 	lds	r24, 0x399E	; 0x80399e <auVolume>
     da8:	20 ea       	ldi	r18, 0xA0	; 160
     daa:	40 e1       	ldi	r20, 0x10	; 16
     dac:	62 e0       	ldi	r22, 0x02	; 2
     dae:	f9 de       	rcall	.-526    	; 0xba2 <floatAround>
     db0:	80 93 9e 39 	sts	0x399E, r24	; 0x80399e <auVolume>
        storm[0] = floatAround(storm[0], 2, 0x70, 0x90);
     db4:	c5 e0       	ldi	r28, 0x05	; 5
     db6:	d8 e3       	ldi	r29, 0x38	; 56
     db8:	20 e9       	ldi	r18, 0x90	; 144
     dba:	40 e7       	ldi	r20, 0x70	; 112
     dbc:	62 e0       	ldi	r22, 0x02	; 2
     dbe:	88 81       	ld	r24, Y
     dc0:	f0 de       	rcall	.-544    	; 0xba2 <floatAround>
     dc2:	88 83       	st	Y, r24
        storm[3] = 0xFF-storm[0];  //Inverse value of wind[0] produces a whistle
     dc4:	80 95       	com	r24
     dc6:	8b 83       	std	Y+3, r24	; 0x03
    }
     dc8:	df 91       	pop	r29
     dca:	cf 91       	pop	r28
     dcc:	1f 91       	pop	r17
     dce:	0f 91       	pop	r16
     dd0:	08 95       	ret

00000dd2 <DecryptData>:
    uint8_t clearBit = num & STATUS_BITS;
    num &= (STATUS_BITS-1);
    if (clearBit) {
        WriteStatusBit(num, 0);
    } else {
        WriteStatusBit(num, 1);
     dd2:	cf 93       	push	r28
     dd4:	df 93       	push	r29
     dd6:	dc 01       	movw	r26, r24
     dd8:	e9 01       	movw	r28, r18
     dda:	66 23       	and	r22, r22
     ddc:	a9 f0       	breq	.+42     	; 0xe08 <DecryptData+0x36>
     dde:	50 e0       	ldi	r21, 0x00	; 0
     de0:	44 0f       	add	r20, r20
     de2:	55 1f       	adc	r21, r21
     de4:	44 0f       	add	r20, r20
     de6:	55 1f       	adc	r21, r21
     de8:	44 0f       	add	r20, r20
     dea:	55 1f       	adc	r21, r21
     dec:	4c 59       	subi	r20, 0x9C	; 156
     dee:	56 46       	sbci	r21, 0x66	; 102
     df0:	fd 01       	movw	r30, r26
     df2:	e7 70       	andi	r30, 0x07	; 7
     df4:	ff 27       	eor	r31, r31
     df6:	e4 0f       	add	r30, r20
     df8:	f5 1f       	adc	r31, r21
     dfa:	88 81       	ld	r24, Y
     dfc:	90 81       	ld	r25, Z
     dfe:	98 27       	eor	r25, r24
     e00:	99 93       	st	Y+, r25
     e02:	11 96       	adiw	r26, 0x01	; 1
     e04:	61 50       	subi	r22, 0x01	; 1
     e06:	a1 f7       	brne	.-24     	; 0xdf0 <DecryptData+0x1e>
     e08:	df 91       	pop	r29
     e0a:	cf 91       	pop	r28
     e0c:	08 95       	ret

00000e0e <ExtEERead>:
     e0e:	af 92       	push	r10
     e10:	bf 92       	push	r11
     e12:	cf 92       	push	r12
     e14:	df 92       	push	r13
     e16:	ef 92       	push	r14
     e18:	ff 92       	push	r15
     e1a:	0f 93       	push	r16
     e1c:	1f 93       	push	r17
     e1e:	cf 93       	push	r28
     e20:	df 93       	push	r29
     e22:	00 d0       	rcall	.+0      	; 0xe24 <ExtEERead+0x16>
     e24:	cd b7       	in	r28, 0x3d	; 61
     e26:	de b7       	in	r29, 0x3e	; 62
     e28:	d6 2e       	mov	r13, r22
     e2a:	c4 2e       	mov	r12, r20
     e2c:	59 01       	movw	r10, r18
     e2e:	7c 01       	movw	r14, r24
     e30:	e8 94       	clt
     e32:	f7 f8       	bld	r15, 7
     e34:	f9 82       	std	Y+1, r15	; 0x01
     e36:	ea 82       	std	Y+2, r14	; 0x02
     e38:	06 2f       	mov	r16, r22
     e3a:	42 e0       	ldi	r20, 0x02	; 2
     e3c:	be 01       	movw	r22, r28
     e3e:	6f 5f       	subi	r22, 0xFF	; 255
     e40:	7f 4f       	sbci	r23, 0xFF	; 255
     e42:	80 e5       	ldi	r24, 0x50	; 80
     e44:	2f da       	rcall	.-2978   	; 0x2a4 <I2C_read_bytes>
     e46:	18 2f       	mov	r17, r24
     e48:	81 11       	cpse	r24, r1
     e4a:	05 c0       	rjmp	.+10     	; 0xe56 <ExtEERead+0x48>
     e4c:	95 01       	movw	r18, r10
     e4e:	4c 2d       	mov	r20, r12
     e50:	6d 2d       	mov	r22, r13
     e52:	c7 01       	movw	r24, r14
     e54:	be df       	rcall	.-132    	; 0xdd2 <DecryptData>
     e56:	81 2f       	mov	r24, r17
     e58:	0f 90       	pop	r0
     e5a:	0f 90       	pop	r0
     e5c:	df 91       	pop	r29
     e5e:	cf 91       	pop	r28
     e60:	1f 91       	pop	r17
     e62:	0f 91       	pop	r16
     e64:	ff 90       	pop	r15
     e66:	ef 90       	pop	r14
     e68:	df 90       	pop	r13
     e6a:	cf 90       	pop	r12
     e6c:	bf 90       	pop	r11
     e6e:	af 90       	pop	r10
     e70:	08 95       	ret

00000e72 <ClearTxAfter>:
     e72:	8f 5f       	subi	r24, 0xFF	; 255
     e74:	88 30       	cpi	r24, 0x08	; 8
     e76:	40 f4       	brcc	.+16     	; 0xe88 <ClearTxAfter+0x16>
     e78:	e8 2f       	mov	r30, r24
     e7a:	f0 e0       	ldi	r31, 0x00	; 0
     e7c:	e4 5d       	subi	r30, 0xD4	; 212
     e7e:	f6 4c       	sbci	r31, 0xC6	; 198
     e80:	10 82       	st	Z, r1
     e82:	8f 5f       	subi	r24, 0xFF	; 255
     e84:	88 30       	cpi	r24, 0x08	; 8
     e86:	c1 f7       	brne	.-16     	; 0xe78 <ClearTxAfter+0x6>
     e88:	08 95       	ret

00000e8a <StartsWith>:
     e8a:	fc 01       	movw	r30, r24
     e8c:	90 81       	ld	r25, Z
     e8e:	91 11       	cpse	r25, r1
     e90:	07 c0       	rjmp	.+14     	; 0xea0 <StartsWith+0x16>
     e92:	81 e0       	ldi	r24, 0x01	; 1
     e94:	08 95       	ret
     e96:	81 e0       	ldi	r24, 0x01	; 1
     e98:	92 17       	cp	r25, r18
     e9a:	39 f0       	breq	.+14     	; 0xeaa <StartsWith+0x20>
     e9c:	80 e0       	ldi	r24, 0x00	; 0
     e9e:	08 95       	ret
     ea0:	fb 01       	movw	r30, r22
     ea2:	20 81       	ld	r18, Z
     ea4:	21 11       	cpse	r18, r1
     ea6:	f7 cf       	rjmp	.-18     	; 0xe96 <StartsWith+0xc>
     ea8:	81 e0       	ldi	r24, 0x01	; 1
     eaa:	08 95       	ret

00000eac <PrepareSending>:
     eac:	1f 93       	push	r17
     eae:	cf 93       	push	r28
     eb0:	df 93       	push	r29
     eb2:	eb 01       	movw	r28, r22
     eb4:	12 2f       	mov	r17, r18
     eb6:	20 97       	sbiw	r28, 0x00	; 0
     eb8:	e9 f0       	breq	.+58     	; 0xef4 <PrepareSending+0x48>
     eba:	6f 3f       	cpi	r22, 0xFF	; 255
     ebc:	71 05       	cpc	r23, r1
     ebe:	01 f1       	breq	.+64     	; 0xf00 <PrepareSending+0x54>
     ec0:	f8 f0       	brcs	.+62     	; 0xf00 <PrepareSending+0x54>
     ec2:	50 e0       	ldi	r21, 0x00	; 0
     ec4:	6f ef       	ldi	r22, 0xFF	; 255
     ec6:	25 2f       	mov	r18, r21
     ec8:	30 e0       	ldi	r19, 0x00	; 0
     eca:	f9 01       	movw	r30, r18
     ecc:	ee 0f       	add	r30, r30
     ece:	ff 1f       	adc	r31, r31
     ed0:	ec 5c       	subi	r30, 0xCC	; 204
     ed2:	f6 4c       	sbci	r31, 0xC6	; 198
     ed4:	80 83       	st	Z, r24
     ed6:	91 83       	std	Z+1, r25	; 0x01
     ed8:	f9 01       	movw	r30, r18
     eda:	e4 5d       	subi	r30, 0xD4	; 212
     edc:	f6 4c       	sbci	r31, 0xC6	; 198
     ede:	60 83       	st	Z, r22
     ee0:	81 50       	subi	r24, 0x01	; 1
     ee2:	9f 4f       	sbci	r25, 0xFF	; 255
     ee4:	cf 5f       	subi	r28, 0xFF	; 255
     ee6:	d1 09       	sbc	r29, r1
     ee8:	5f 5f       	subi	r21, 0xFF	; 255
     eea:	cf 3f       	cpi	r28, 0xFF	; 255
     eec:	d1 05       	cpc	r29, r1
     eee:	09 f0       	breq	.+2      	; 0xef2 <PrepareSending+0x46>
     ef0:	50 f7       	brcc	.-44     	; 0xec6 <PrepareSending+0x1a>
     ef2:	07 c0       	rjmp	.+14     	; 0xf02 <PrepareSending+0x56>
     ef4:	10 92 34 39 	sts	0x3934, r1	; 0x803934 <txAddrList>
     ef8:	10 92 35 39 	sts	0x3935, r1	; 0x803935 <txAddrList+0x1>
     efc:	50 e0       	ldi	r21, 0x00	; 0
     efe:	21 c0       	rjmp	.+66     	; 0xf42 <PrepareSending+0x96>
     f00:	50 e0       	ldi	r21, 0x00	; 0
     f02:	25 2f       	mov	r18, r21
     f04:	30 e0       	ldi	r19, 0x00	; 0
     f06:	f9 01       	movw	r30, r18
     f08:	ee 0f       	add	r30, r30
     f0a:	ff 1f       	adc	r31, r31
     f0c:	ec 5c       	subi	r30, 0xCC	; 204
     f0e:	f6 4c       	sbci	r31, 0xC6	; 198
     f10:	80 83       	st	Z, r24
     f12:	91 83       	std	Z+1, r25	; 0x01
     f14:	f9 01       	movw	r30, r18
     f16:	e4 5d       	subi	r30, 0xD4	; 212
     f18:	f6 4c       	sbci	r31, 0xC6	; 198
     f1a:	9e 01       	movw	r18, r28
     f1c:	a1 e8       	ldi	r26, 0x81	; 129
     f1e:	b0 e8       	ldi	r27, 0x80	; 128
     f20:	08 d5       	rcall	.+2576   	; 0x1932 <__umulhisi3>
     f22:	88 0f       	add	r24, r24
     f24:	89 2f       	mov	r24, r25
     f26:	88 1f       	adc	r24, r24
     f28:	99 0b       	sbc	r25, r25
     f2a:	91 95       	neg	r25
     f2c:	6f ef       	ldi	r22, 0xFF	; 255
     f2e:	68 9f       	mul	r22, r24
     f30:	90 01       	movw	r18, r0
     f32:	69 9f       	mul	r22, r25
     f34:	30 0d       	add	r19, r0
     f36:	11 24       	eor	r1, r1
     f38:	c2 1b       	sub	r28, r18
     f3a:	d3 0b       	sbc	r29, r19
     f3c:	c0 83       	st	Z, r28
     f3e:	40 93 29 39 	sts	0x3929, r20	; 0x803929 <txTypeNow>
     f42:	85 2f       	mov	r24, r21
     f44:	96 df       	rcall	.-212    	; 0xe72 <ClearTxAfter>
     f46:	10 93 2a 39 	sts	0x392A, r17	; 0x80392a <sendPrompt>
     f4a:	10 92 2b 39 	sts	0x392B, r1	; 0x80392b <txAddrNow>
     f4e:	80 e0       	ldi	r24, 0x00	; 0
     f50:	df 91       	pop	r29
     f52:	cf 91       	pop	r28
     f54:	1f 91       	pop	r17
     f56:	08 95       	ret

00000f58 <PopulateObject>:
     f58:	6f 92       	push	r6
     f5a:	7f 92       	push	r7
     f5c:	8f 92       	push	r8
     f5e:	9f 92       	push	r9
     f60:	af 92       	push	r10
     f62:	bf 92       	push	r11
     f64:	cf 92       	push	r12
     f66:	df 92       	push	r13
     f68:	ef 92       	push	r14
     f6a:	ff 92       	push	r15
     f6c:	0f 93       	push	r16
     f6e:	1f 93       	push	r17
     f70:	cf 93       	push	r28
     f72:	df 93       	push	r29
     f74:	cd b7       	in	r28, 0x3d	; 61
     f76:	de b7       	in	r29, 0x3e	; 62
     f78:	2c 97       	sbiw	r28, 0x0c	; 12
     f7a:	cd bf       	out	0x3d, r28	; 61
     f7c:	de bf       	out	0x3e, r29	; 62
     f7e:	8c 01       	movw	r16, r24
     f80:	5b 01       	movw	r10, r22
     f82:	9e 01       	movw	r18, r28
     f84:	2f 5f       	subi	r18, 0xFF	; 255
     f86:	3f 4f       	sbci	r19, 0xFF	; 255
     f88:	40 e0       	ldi	r20, 0x00	; 0
     f8a:	6c e0       	ldi	r22, 0x0C	; 12
     f8c:	80 96       	adiw	r24, 0x20	; 32
     f8e:	3f df       	rcall	.-386    	; 0xe0e <ExtEERead>
     f90:	89 81       	ldd	r24, Y+1	; 0x01
     f92:	90 e0       	ldi	r25, 0x00	; 0
     f94:	98 2f       	mov	r25, r24
     f96:	88 27       	eor	r24, r24
     f98:	2a 81       	ldd	r18, Y+2	; 0x02
     f9a:	82 2b       	or	r24, r18
     f9c:	80 96       	adiw	r24, 0x20	; 32
     f9e:	f5 01       	movw	r30, r10
     fa0:	80 83       	st	Z, r24
     fa2:	91 83       	std	Z+1, r25	; 0x01
     fa4:	8b 81       	ldd	r24, Y+3	; 0x03
     fa6:	90 e0       	ldi	r25, 0x00	; 0
     fa8:	98 2f       	mov	r25, r24
     faa:	88 27       	eor	r24, r24
     fac:	2c 81       	ldd	r18, Y+4	; 0x04
     fae:	82 2b       	or	r24, r18
     fb0:	80 96       	adiw	r24, 0x20	; 32
     fb2:	82 83       	std	Z+2, r24	; 0x02
     fb4:	93 83       	std	Z+3, r25	; 0x03
     fb6:	fe 01       	movw	r30, r28
     fb8:	35 96       	adiw	r30, 0x05	; 5
     fba:	d5 01       	movw	r26, r10
     fbc:	14 96       	adiw	r26, 0x04	; 4
     fbe:	9e 01       	movw	r18, r28
     fc0:	23 5f       	subi	r18, 0xF3	; 243
     fc2:	3f 4f       	sbci	r19, 0xFF	; 255
     fc4:	81 91       	ld	r24, Z+
     fc6:	8d 93       	st	X+, r24
     fc8:	e2 17       	cp	r30, r18
     fca:	f3 07       	cpc	r31, r19
     fcc:	d9 f7       	brne	.-10     	; 0xfc4 <PopulateObject+0x6c>
     fce:	38 01       	movw	r6, r16
     fd0:	fc e2       	ldi	r31, 0x2C	; 44
     fd2:	6f 0e       	add	r6, r31
     fd4:	71 1c       	adc	r7, r1
     fd6:	03 5d       	subi	r16, 0xD3	; 211
     fd8:	1f 4f       	sbci	r17, 0xFF	; 255
     fda:	f5 01       	movw	r30, r10
     fdc:	04 87       	std	Z+12, r16	; 0x0c
     fde:	15 87       	std	Z+13, r17	; 0x0d
     fe0:	65 01       	movw	r12, r10
     fe2:	fe e0       	ldi	r31, 0x0E	; 14
     fe4:	cf 0e       	add	r12, r31
     fe6:	d1 1c       	adc	r13, r1
     fe8:	45 01       	movw	r8, r10
     fea:	8a e1       	ldi	r24, 0x1A	; 26
     fec:	88 0e       	add	r8, r24
     fee:	91 1c       	adc	r9, r1
     ff0:	73 01       	movw	r14, r6
     ff2:	02 c0       	rjmp	.+4      	; 0xff8 <PopulateObject+0xa0>
     ff4:	78 01       	movw	r14, r16
     ff6:	38 01       	movw	r6, r16
     ff8:	83 01       	movw	r16, r6
     ffa:	9e 01       	movw	r18, r28
     ffc:	2f 5f       	subi	r18, 0xFF	; 255
     ffe:	3f 4f       	sbci	r19, 0xFF	; 255
    1000:	40 e0       	ldi	r20, 0x00	; 0
    1002:	61 e0       	ldi	r22, 0x01	; 1
    1004:	c8 01       	movw	r24, r16
    1006:	03 df       	rcall	.-506    	; 0xe0e <ExtEERead>
    1008:	89 81       	ldd	r24, Y+1	; 0x01
    100a:	98 01       	movw	r18, r16
    100c:	28 0f       	add	r18, r24
    100e:	31 1d       	adc	r19, r1
    1010:	89 01       	movw	r16, r18
    1012:	0f 5f       	subi	r16, 0xFF	; 255
    1014:	1f 4f       	sbci	r17, 0xFF	; 255
    1016:	12 f0       	brmi	.+4      	; 0x101c <PopulateObject+0xc4>
    1018:	8f 3f       	cpi	r24, 0xFF	; 255
    101a:	79 f3       	breq	.-34     	; 0xffa <PopulateObject+0xa2>
    101c:	e0 94       	com	r14
    101e:	f0 94       	com	r15
    1020:	e0 0e       	add	r14, r16
    1022:	f1 1e       	adc	r15, r17
    1024:	e8 94       	clt
    1026:	f7 f8       	bld	r15, 7
    1028:	f6 01       	movw	r30, r12
    102a:	e4 86       	std	Z+12, r14	; 0x0c
    102c:	f5 86       	std	Z+13, r15	; 0x0d
    102e:	3f 77       	andi	r19, 0x7F	; 127
    1030:	21 93       	st	Z+, r18
    1032:	31 93       	st	Z+, r19
    1034:	6f 01       	movw	r12, r30
    1036:	e8 15       	cp	r30, r8
    1038:	f9 05       	cpc	r31, r9
    103a:	e1 f6       	brne	.-72     	; 0xff4 <PopulateObject+0x9c>
    103c:	06 19       	sub	r16, r6
    103e:	17 09       	sbc	r17, r7
    1040:	1f 77       	andi	r17, 0x7F	; 127
    1042:	f5 01       	movw	r30, r10
    1044:	06 a3       	std	Z+38, r16	; 0x26
    1046:	17 a3       	std	Z+39, r17	; 0x27
    1048:	2c 96       	adiw	r28, 0x0c	; 12
    104a:	cd bf       	out	0x3d, r28	; 61
    104c:	de bf       	out	0x3e, r29	; 62
    104e:	df 91       	pop	r29
    1050:	cf 91       	pop	r28
    1052:	1f 91       	pop	r17
    1054:	0f 91       	pop	r16
    1056:	ff 90       	pop	r15
    1058:	ef 90       	pop	r14
    105a:	df 90       	pop	r13
    105c:	cf 90       	pop	r12
    105e:	bf 90       	pop	r11
    1060:	af 90       	pop	r10
    1062:	9f 90       	pop	r9
    1064:	8f 90       	pop	r8
    1066:	7f 90       	pop	r7
    1068:	6f 90       	pop	r6
    106a:	08 95       	ret

0000106c <SendLiteral>:
    106c:	cf 92       	push	r12
    106e:	df 92       	push	r13
    1070:	ef 92       	push	r14
    1072:	ff 92       	push	r15
    1074:	1f 93       	push	r17
    1076:	cf 93       	push	r28
    1078:	df 93       	push	r29
    107a:	7c 01       	movw	r14, r24
    107c:	cb 01       	movw	r24, r22
    107e:	14 2f       	mov	r17, r20
    1080:	1f 71       	andi	r17, 0x1F	; 31
    1082:	c1 2e       	mov	r12, r17
    1084:	d1 2c       	mov	r13, r1
    1086:	20 e2       	ldi	r18, 0x20	; 32
    1088:	30 e0       	ldi	r19, 0x00	; 0
    108a:	b9 01       	movw	r22, r18
    108c:	6c 19       	sub	r22, r12
    108e:	7d 09       	sbc	r23, r13
    1090:	3c d4       	rcall	.+2168   	; 0x190a <__udivmodhi4>
    1092:	ec 01       	movw	r28, r24
    1094:	ac 01       	movw	r20, r24
    1096:	11 23       	and	r17, r17
    1098:	61 f0       	breq	.+24     	; 0x10b2 <SendLiteral+0x46>
    109a:	e4 ef       	ldi	r30, 0xF4	; 244
    109c:	f9 e3       	ldi	r31, 0x39	; 57
    109e:	8f ef       	ldi	r24, 0xFF	; 255
    10a0:	81 0f       	add	r24, r17
    10a2:	90 e0       	ldi	r25, 0x00	; 0
    10a4:	8b 50       	subi	r24, 0x0B	; 11
    10a6:	96 4c       	sbci	r25, 0xC6	; 198
    10a8:	3a e0       	ldi	r19, 0x0A	; 10
    10aa:	31 93       	st	Z+, r19
    10ac:	e8 17       	cp	r30, r24
    10ae:	f9 07       	cpc	r31, r25
    10b0:	e1 f7       	brne	.-8      	; 0x10aa <SendLiteral+0x3e>
    10b2:	45 2b       	or	r20, r21
    10b4:	39 f0       	breq	.+14     	; 0x10c4 <SendLiteral+0x58>
    10b6:	96 01       	movw	r18, r12
    10b8:	2c 50       	subi	r18, 0x0C	; 12
    10ba:	36 4c       	sbci	r19, 0xC6	; 198
    10bc:	41 e0       	ldi	r20, 0x01	; 1
    10be:	6c 2f       	mov	r22, r28
    10c0:	c7 01       	movw	r24, r14
    10c2:	a5 de       	rcall	.-694    	; 0xe0e <ExtEERead>
    10c4:	cc 50       	subi	r28, 0x0C	; 12
    10c6:	d6 4c       	sbci	r29, 0xC6	; 198
    10c8:	c1 0f       	add	r28, r17
    10ca:	d1 1d       	adc	r29, r1
    10cc:	18 82       	st	Y, r1
    10ce:	84 ef       	ldi	r24, 0xF4	; 244
    10d0:	99 e3       	ldi	r25, 0x39	; 57
    10d2:	89 dc       	rcall	.-1774   	; 0x9e6 <SerSend>
    10d4:	df 91       	pop	r29
    10d6:	cf 91       	pop	r28
    10d8:	1f 91       	pop	r17
    10da:	ff 90       	pop	r15
    10dc:	ef 90       	pop	r14
    10de:	df 90       	pop	r13
    10e0:	cf 90       	pop	r12
    10e2:	08 95       	ret

000010e4 <GetState>:
    }
}

//Returns the state of the bit on position "num"
uint8_t GetState(uint8_t num){
    if ((num)&&(num<STATUS_BITS)){
    10e4:	18 16       	cp	r1, r24
    10e6:	14 f4       	brge	.+4      	; 0x10ec <GetState+0x8>
        return ReadStatusBit(num);
    10e8:	ba cd       	rjmp	.-1164   	; 0xc5e <ReadStatusBit>
    10ea:	08 95       	ret
    }
    return 1;
    10ec:	81 e0       	ldi	r24, 0x01	; 1
}
    10ee:	08 95       	ret

000010f0 <CheckState>:

//Checks if state of bit BBBBbbb matches with v (inverted) bit
uint8_t CheckState(uint8_t num){
    10f0:	cf 93       	push	r28
    10f2:	c8 2f       	mov	r28, r24
    return (GetState(num&(STATUS_BITS-1)) == (1-(num&STATUS_BITS))); 
    10f4:	8f 77       	andi	r24, 0x7F	; 127
    10f6:	f6 df       	rcall	.-20     	; 0x10e4 <GetState>
    10f8:	c0 78       	andi	r28, 0x80	; 128
    10fa:	41 e0       	ldi	r20, 0x01	; 1
    10fc:	50 e0       	ldi	r21, 0x00	; 0
    10fe:	4c 1b       	sub	r20, r28
    1100:	51 09       	sbc	r21, r1
    1102:	28 2f       	mov	r18, r24
    1104:	30 e0       	ldi	r19, 0x00	; 0
    1106:	81 e0       	ldi	r24, 0x01	; 1
    1108:	42 17       	cp	r20, r18
    110a:	53 07       	cpc	r21, r19
    110c:	09 f0       	breq	.+2      	; 0x1110 <CheckState+0x20>
    110e:	80 e0       	ldi	r24, 0x00	; 0
}
    1110:	cf 91       	pop	r28
    1112:	08 95       	ret

00001114 <CheckLetter>:

//
uint8_t CheckLetter(uint16_t child, uint8_t letter){
    1114:	cf 92       	push	r12
    1116:	df 92       	push	r13
    1118:	ef 92       	push	r14
    111a:	ff 92       	push	r15
    111c:	0f 93       	push	r16
    111e:	1f 93       	push	r17
    1120:	cf 93       	push	r28
    1122:	df 93       	push	r29
    1124:	cd b7       	in	r28, 0x3d	; 61
    1126:	de b7       	in	r29, 0x3e	; 62
    1128:	a0 97       	sbiw	r28, 0x20	; 32
    112a:	cd bf       	out	0x3d, r28	; 61
    112c:	de bf       	out	0x3e, r29	; 62
    112e:	c6 2e       	mov	r12, r22
    
    uint8_t found = 0;
    uint8_t data[32];

    child += L_BOILER;
    1130:	7c 01       	movw	r14, r24
    1132:	20 e2       	ldi	r18, 0x20	; 32
    1134:	e2 0e       	add	r14, r18
    1136:	f1 1c       	adc	r15, r1
    ExtEERead(child+OFF_STRINGFLDS, 1, GAME, &data[0]);
    1138:	9e 01       	movw	r18, r28
    113a:	2f 5f       	subi	r18, 0xFF	; 255
    113c:	3f 4f       	sbci	r19, 0xFF	; 255
    113e:	40 e0       	ldi	r20, 0x00	; 0
    1140:	61 e0       	ldi	r22, 0x01	; 1
    1142:	8c 96       	adiw	r24, 0x2c	; 44
    1144:	64 de       	rcall	.-824    	; 0xe0e <ExtEERead>
    uint8_t x = data[0];
    1146:	09 81       	ldd	r16, Y+1	; 0x01

    while (x){
    1148:	00 23       	and	r16, r16
    114a:	51 f1       	breq	.+84     	; 0x11a0 <CheckLetter+0x8c>
    114c:	d1 2c       	mov	r13, r1
        uint8_t max = (x>32)?32:x;
    114e:	10 2f       	mov	r17, r16
    1150:	01 32       	cpi	r16, 0x21	; 33
    1152:	08 f0       	brcs	.+2      	; 0x1156 <CheckLetter+0x42>
    1154:	10 e2       	ldi	r17, 0x20	; 32
        ExtEERead(child+OFF_STRINGFLDS+1, max, GAME, &data[0]);
    1156:	9e 01       	movw	r18, r28
    1158:	2f 5f       	subi	r18, 0xFF	; 255
    115a:	3f 4f       	sbci	r19, 0xFF	; 255
    115c:	40 e0       	ldi	r20, 0x00	; 0
    115e:	61 2f       	mov	r22, r17
    1160:	c7 01       	movw	r24, r14
    1162:	0d 96       	adiw	r24, 0x0d	; 13
    1164:	54 de       	rcall	.-856    	; 0xe0e <ExtEERead>
        for (uint8_t y=0; y<max; ++y){
    1166:	11 23       	and	r17, r17
    1168:	a9 f0       	breq	.+42     	; 0x1194 <CheckLetter+0x80>
            if (found){
    116a:	dd 20       	and	r13, r13
    116c:	51 f0       	breq	.+20     	; 0x1182 <CheckLetter+0x6e>
    uint8_t x = data[0];

    while (x){
        uint8_t max = (x>32)?32:x;
        ExtEERead(child+OFF_STRINGFLDS+1, max, GAME, &data[0]);
        for (uint8_t y=0; y<max; ++y){
    116e:	80 e0       	ldi	r24, 0x00	; 0
            if (found){
                if (data[y] == letter) return 1; else return 0;
    1170:	fe 01       	movw	r30, r28
    1172:	e8 0f       	add	r30, r24
    1174:	f1 1d       	adc	r31, r1
    1176:	81 e0       	ldi	r24, 0x01	; 1
    1178:	91 81       	ldd	r25, Z+1	; 0x01
    117a:	9c 15       	cp	r25, r12
    117c:	c9 f0       	breq	.+50     	; 0x11b0 <CheckLetter+0x9c>
    117e:	80 e0       	ldi	r24, 0x00	; 0
    1180:	17 c0       	rjmp	.+46     	; 0x11b0 <CheckLetter+0x9c>
    1182:	fe 01       	movw	r30, r28
    1184:	31 96       	adiw	r30, 0x01	; 1

    while (x){
        uint8_t max = (x>32)?32:x;
        ExtEERead(child+OFF_STRINGFLDS+1, max, GAME, &data[0]);
        for (uint8_t y=0; y<max; ++y){
            if (found){
    1186:	80 e0       	ldi	r24, 0x00	; 0
                if (data[y] == letter) return 1; else return 0;
            }
            if (data[y] == '[') found = 1;
    1188:	91 91       	ld	r25, Z+
    118a:	9b 35       	cpi	r25, 0x5B	; 91
    118c:	59 f0       	breq	.+22     	; 0x11a4 <CheckLetter+0x90>
    uint8_t x = data[0];

    while (x){
        uint8_t max = (x>32)?32:x;
        ExtEERead(child+OFF_STRINGFLDS+1, max, GAME, &data[0]);
        for (uint8_t y=0; y<max; ++y){
    118e:	8f 5f       	subi	r24, 0xFF	; 255
    1190:	18 13       	cpse	r17, r24
    1192:	fa cf       	rjmp	.-12     	; 0x1188 <CheckLetter+0x74>
            if (found){
                if (data[y] == letter) return 1; else return 0;
            }
            if (data[y] == '[') found = 1;
        }
        child += max;
    1194:	e1 0e       	add	r14, r17
    1196:	f1 1c       	adc	r15, r1
        x -= max;
    1198:	01 1b       	sub	r16, r17

    child += L_BOILER;
    ExtEERead(child+OFF_STRINGFLDS, 1, GAME, &data[0]);
    uint8_t x = data[0];

    while (x){
    119a:	c9 f6       	brne	.-78     	; 0x114e <CheckLetter+0x3a>
            if (data[y] == '[') found = 1;
        }
        child += max;
        x -= max;
    }
    return 0;
    119c:	80 e0       	ldi	r24, 0x00	; 0
    119e:	08 c0       	rjmp	.+16     	; 0x11b0 <CheckLetter+0x9c>
    11a0:	80 e0       	ldi	r24, 0x00	; 0
    11a2:	06 c0       	rjmp	.+12     	; 0x11b0 <CheckLetter+0x9c>
    uint8_t x = data[0];

    while (x){
        uint8_t max = (x>32)?32:x;
        ExtEERead(child+OFF_STRINGFLDS+1, max, GAME, &data[0]);
        for (uint8_t y=0; y<max; ++y){
    11a4:	8f 5f       	subi	r24, 0xFF	; 255
    11a6:	81 17       	cp	r24, r17
    11a8:	18 f3       	brcs	.-58     	; 0x1170 <CheckLetter+0x5c>
            if (found){
                if (data[y] == letter) return 1; else return 0;
            }
            if (data[y] == '[') found = 1;
    11aa:	dd 24       	eor	r13, r13
    11ac:	d3 94       	inc	r13
    11ae:	f2 cf       	rjmp	.-28     	; 0x1194 <CheckLetter+0x80>
        }
        child += max;
        x -= max;
    }
    return 0;
}
    11b0:	a0 96       	adiw	r28, 0x20	; 32
    11b2:	cd bf       	out	0x3d, r28	; 61
    11b4:	de bf       	out	0x3e, r29	; 62
    11b6:	df 91       	pop	r29
    11b8:	cf 91       	pop	r28
    11ba:	1f 91       	pop	r17
    11bc:	0f 91       	pop	r16
    11be:	ff 90       	pop	r15
    11c0:	ef 90       	pop	r14
    11c2:	df 90       	pop	r13
    11c4:	cf 90       	pop	r12
    11c6:	08 95       	ret

000011c8 <FindChild>:

//Returns the child's address if the child is visible and the search letter matches
uint16_t FindChild(uint16_t parent, uint8_t letter){
    11c8:	df 92       	push	r13
    11ca:	ef 92       	push	r14
    11cc:	ff 92       	push	r15
    11ce:	0f 93       	push	r16
    11d0:	1f 93       	push	r17
    11d2:	cf 93       	push	r28
    11d4:	df 93       	push	r29
    11d6:	00 d0       	rcall	.+0      	; 0x11d8 <FindChild+0x10>
    11d8:	00 d0       	rcall	.+0      	; 0x11da <FindChild+0x12>
    11da:	cd b7       	in	r28, 0x3d	; 61
    11dc:	de b7       	in	r29, 0x3e	; 62
    11de:	d6 2e       	mov	r13, r22
    
    uint16_t child = parent;
    uint8_t data[4];

    ExtEERead(child+L_BOILER, 4, GAME, &data[0]);
    11e0:	9e 01       	movw	r18, r28
    11e2:	2f 5f       	subi	r18, 0xFF	; 255
    11e4:	3f 4f       	sbci	r19, 0xFF	; 255
    11e6:	40 e0       	ldi	r20, 0x00	; 0
    11e8:	64 e0       	ldi	r22, 0x04	; 4
    11ea:	80 96       	adiw	r24, 0x20	; 32
    11ec:	10 de       	rcall	.-992    	; 0xe0e <ExtEERead>
    parent = (data[0]<<8||data[1]);    //Next object on parent level
    11ee:	89 81       	ldd	r24, Y+1	; 0x01
    11f0:	81 11       	cpse	r24, r1
    11f2:	4d c0       	rjmp	.+154    	; 0x128e <FindChild+0xc6>
    11f4:	91 e0       	ldi	r25, 0x01	; 1
    11f6:	2a 81       	ldd	r18, Y+2	; 0x02
    11f8:	21 11       	cpse	r18, r1
    11fa:	01 c0       	rjmp	.+2      	; 0x11fe <FindChild+0x36>
    11fc:	90 e0       	ldi	r25, 0x00	; 0
    11fe:	e9 2e       	mov	r14, r25
    1200:	f8 2e       	mov	r15, r24
    child =  (data[2]<<8||data[3]);    //First object on child level
    1202:	8b 81       	ldd	r24, Y+3	; 0x03
    1204:	81 11       	cpse	r24, r1
    1206:	07 c0       	rjmp	.+14     	; 0x1216 <FindChild+0x4e>
    1208:	91 e0       	ldi	r25, 0x01	; 1
    120a:	80 e0       	ldi	r24, 0x00	; 0
    120c:	2c 81       	ldd	r18, Y+4	; 0x04
    120e:	21 11       	cpse	r18, r1
    1210:	04 c0       	rjmp	.+8      	; 0x121a <FindChild+0x52>
    1212:	90 e0       	ldi	r25, 0x00	; 0
    1214:	02 c0       	rjmp	.+4      	; 0x121a <FindChild+0x52>
    1216:	91 e0       	ldi	r25, 0x01	; 1
    1218:	80 e0       	ldi	r24, 0x00	; 0
    121a:	09 2f       	mov	r16, r25
    121c:	18 2f       	mov	r17, r24

    //As long as the child is within the parent's range
    while (parent>child){
    121e:	0e 15       	cp	r16, r14
    1220:	1f 05       	cpc	r17, r15
    1222:	60 f5       	brcc	.+88     	; 0x127c <FindChild+0xb4>

        //Find out if the found child is visible and check letter
        ExtEERead(child+OFF_BYTEFLDS+VISIBLE_ACL+L_BOILER, 1, GAME, &data[0]);
    1224:	9e 01       	movw	r18, r28
    1226:	2f 5f       	subi	r18, 0xFF	; 255
    1228:	3f 4f       	sbci	r19, 0xFF	; 255
    122a:	40 e0       	ldi	r20, 0x00	; 0
    122c:	61 e0       	ldi	r22, 0x01	; 1
    122e:	c8 01       	movw	r24, r16
    1230:	85 96       	adiw	r24, 0x25	; 37
    1232:	ed dd       	rcall	.-1062   	; 0xe0e <ExtEERead>
        if (CheckState(data[0])) {
    1234:	89 81       	ldd	r24, Y+1	; 0x01
    1236:	5c df       	rcall	.-328    	; 0x10f0 <CheckState>
    1238:	88 23       	and	r24, r24
    123a:	29 f0       	breq	.+10     	; 0x1246 <FindChild+0x7e>
            if (CheckLetter(child, letter)) return child;
    123c:	6d 2d       	mov	r22, r13
    123e:	c8 01       	movw	r24, r16
    1240:	69 df       	rcall	.-302    	; 0x1114 <CheckLetter>
    1242:	81 11       	cpse	r24, r1
    1244:	1e c0       	rjmp	.+60     	; 0x1282 <FindChild+0xba>
    1246:	9e 01       	movw	r18, r28
        }

        //Not visible or name not right
        ExtEERead(child+L_BOILER, 2, GAME, &data[0]);
    1248:	2f 5f       	subi	r18, 0xFF	; 255
    124a:	3f 4f       	sbci	r19, 0xFF	; 255
    124c:	40 e0       	ldi	r20, 0x00	; 0
    124e:	62 e0       	ldi	r22, 0x02	; 2
    1250:	c8 01       	movw	r24, r16
    1252:	80 96       	adiw	r24, 0x20	; 32
    1254:	dc dd       	rcall	.-1096   	; 0xe0e <ExtEERead>
    1256:	89 81       	ldd	r24, Y+1	; 0x01
        child = (data[0]<<8||data[1]);    //Next object on child level
    1258:	81 11       	cpse	r24, r1
    125a:	06 c0       	rjmp	.+12     	; 0x1268 <FindChild+0xa0>
    125c:	91 e0       	ldi	r25, 0x01	; 1
    125e:	2a 81       	ldd	r18, Y+2	; 0x02
    1260:	21 11       	cpse	r18, r1
    1262:	04 c0       	rjmp	.+8      	; 0x126c <FindChild+0xa4>
    1264:	90 e0       	ldi	r25, 0x00	; 0
    1266:	02 c0       	rjmp	.+4      	; 0x126c <FindChild+0xa4>
    1268:	91 e0       	ldi	r25, 0x01	; 1
    126a:	80 e0       	ldi	r24, 0x00	; 0
    126c:	09 2f       	mov	r16, r25
    126e:	18 2f       	mov	r17, r24
    1270:	0e 15       	cp	r16, r14
    ExtEERead(child+L_BOILER, 4, GAME, &data[0]);
    parent = (data[0]<<8||data[1]);    //Next object on parent level
    child =  (data[2]<<8||data[3]);    //First object on child level

    //As long as the child is within the parent's range
    while (parent>child){
    1272:	1f 05       	cpc	r17, r15
    1274:	b8 f2       	brcs	.-82     	; 0x1224 <FindChild+0x5c>
    1276:	80 e0       	ldi	r24, 0x00	; 0

        //Not visible or name not right
        ExtEERead(child+L_BOILER, 2, GAME, &data[0]);
        child = (data[0]<<8||data[1]);    //Next object on child level
        
    } return 0;
    1278:	90 e0       	ldi	r25, 0x00	; 0
    127a:	10 c0       	rjmp	.+32     	; 0x129c <FindChild+0xd4>
    127c:	80 e0       	ldi	r24, 0x00	; 0
    127e:	90 e0       	ldi	r25, 0x00	; 0
    1280:	0d c0       	rjmp	.+26     	; 0x129c <FindChild+0xd4>
    1282:	80 2f       	mov	r24, r16
    1284:	91 2f       	mov	r25, r17
    1286:	0a c0       	rjmp	.+20     	; 0x129c <FindChild+0xd4>
    1288:	80 e0       	ldi	r24, 0x00	; 0
    128a:	90 e0       	ldi	r25, 0x00	; 0
    128c:	07 c0       	rjmp	.+14     	; 0x129c <FindChild+0xd4>
    128e:	8b 81       	ldd	r24, Y+3	; 0x03
    uint16_t child = parent;
    uint8_t data[4];

    ExtEERead(child+L_BOILER, 4, GAME, &data[0]);
    parent = (data[0]<<8||data[1]);    //Next object on parent level
    child =  (data[2]<<8||data[3]);    //First object on child level
    1290:	81 11       	cpse	r24, r1
    1292:	fa cf       	rjmp	.-12     	; 0x1288 <FindChild+0xc0>
    1294:	ee 24       	eor	r14, r14
    
    uint16_t child = parent;
    uint8_t data[4];

    ExtEERead(child+L_BOILER, 4, GAME, &data[0]);
    parent = (data[0]<<8||data[1]);    //Next object on parent level
    1296:	e3 94       	inc	r14
    1298:	f1 2c       	mov	r15, r1
    129a:	b6 cf       	rjmp	.-148    	; 0x1208 <FindChild+0x40>
    129c:	24 96       	adiw	r28, 0x04	; 4
        //Not visible or name not right
        ExtEERead(child+L_BOILER, 2, GAME, &data[0]);
        child = (data[0]<<8||data[1]);    //Next object on child level
        
    } return 0;
}
    129e:	cd bf       	out	0x3d, r28	; 61
    12a0:	de bf       	out	0x3e, r29	; 62
    12a2:	df 91       	pop	r29
    12a4:	cf 91       	pop	r28
    12a6:	1f 91       	pop	r17
    12a8:	0f 91       	pop	r16
    12aa:	ff 90       	pop	r15
    12ac:	ef 90       	pop	r14
    12ae:	df 90       	pop	r13
    12b0:	08 95       	ret

000012b2 <InpOkChk>:
    12b2:	9f e9       	ldi	r25, 0x9F	; 159

uint8_t InpOkChk(uint8_t test){
    if ((test>='a')&&(test<='z')) return 1;
    12b4:	98 0f       	add	r25, r24
    12b6:	9a 31       	cpi	r25, 0x1A	; 26
    12b8:	38 f0       	brcs	.+14     	; 0x12c8 <InpOkChk+0x16>
    12ba:	90 ed       	ldi	r25, 0xD0	; 208
    12bc:	98 0f       	add	r25, r24
    12be:	81 e0       	ldi	r24, 0x01	; 1
    12c0:	9a 30       	cpi	r25, 0x0A	; 10
    12c2:	18 f0       	brcs	.+6      	; 0x12ca <InpOkChk+0x18>
    12c4:	80 e0       	ldi	r24, 0x00	; 0
    12c6:	08 95       	ret
    12c8:	81 e0       	ldi	r24, 0x01	; 1
    if ((test>='0')&&(test<='9')) return 1;
    return 0;
}
    12ca:	08 95       	ret

000012cc <CleanInput>:

//Cleans input of garbage and returns length of cleaned input "o->d2  !\0" becomes "od2\0"
uint8_t CleanInput(uint8_t *data){
    12cc:	0f 93       	push	r16
    12ce:	1f 93       	push	r17
    12d0:	cf 93       	push	r28
    12d2:	df 93       	push	r29
    12d4:	8c 01       	movw	r16, r24
    uint8_t cnt = 0;
    for (uint8_t x=0; data[x]!=0; ++x){
    12d6:	fc 01       	movw	r30, r24
    12d8:	80 81       	ld	r24, Z
    12da:	88 23       	and	r24, r24
    12dc:	91 f0       	breq	.+36     	; 0x1302 <CleanInput+0x36>
    12de:	c0 e0       	ldi	r28, 0x00	; 0
    12e0:	d0 e0       	ldi	r29, 0x00	; 0
        data[cnt] = data[x];
    12e2:	d8 01       	movw	r26, r16
    12e4:	ad 0f       	add	r26, r29
    12e6:	b1 1d       	adc	r27, r1
    12e8:	8c 93       	st	X, r24
        if (InpOkChk(data[x])) ++cnt;
    12ea:	80 81       	ld	r24, Z
    12ec:	e2 df       	rcall	.-60     	; 0x12b2 <InpOkChk>
    12ee:	81 11       	cpse	r24, r1
    12f0:	df 5f       	subi	r29, 0xFF	; 255
}

//Cleans input of garbage and returns length of cleaned input "o->d2  !\0" becomes "od2\0"
uint8_t CleanInput(uint8_t *data){
    uint8_t cnt = 0;
    for (uint8_t x=0; data[x]!=0; ++x){
    12f2:	cf 5f       	subi	r28, 0xFF	; 255
    12f4:	f8 01       	movw	r30, r16
    12f6:	ec 0f       	add	r30, r28
    12f8:	f1 1d       	adc	r31, r1
    12fa:	80 81       	ld	r24, Z
    12fc:	81 11       	cpse	r24, r1
    12fe:	f1 cf       	rjmp	.-30     	; 0x12e2 <CleanInput+0x16>
    1300:	01 c0       	rjmp	.+2      	; 0x1304 <CleanInput+0x38>
    return 0;
}

//Cleans input of garbage and returns length of cleaned input "o->d2  !\0" becomes "od2\0"
uint8_t CleanInput(uint8_t *data){
    uint8_t cnt = 0;
    1302:	d0 e0       	ldi	r29, 0x00	; 0
    for (uint8_t x=0; data[x]!=0; ++x){
        data[cnt] = data[x];
        if (InpOkChk(data[x])) ++cnt;
    }
    data[cnt] = 0;
    1304:	f8 01       	movw	r30, r16
    1306:	ed 0f       	add	r30, r29
    1308:	f1 1d       	adc	r31, r1
    130a:	10 82       	st	Z, r1
    return cnt;
}
    130c:	8d 2f       	mov	r24, r29
    130e:	df 91       	pop	r29
    1310:	cf 91       	pop	r28
    1312:	1f 91       	pop	r17
    1314:	0f 91       	pop	r16
    1316:	08 95       	ret

00001318 <CheckSend>:


//Send routine, optimized for low memory usage
uint8_t CheckSend(){
    1318:	cf 93       	push	r28
    static uint8_t txPart;
    uint8_t EEreadLength=0;

    //Check if more string(part)s have to be sent to the serial output if previous send operation is completed
    if ((txAddrNow < TXLISTLEN) && serTxDone){
    131a:	80 91 2b 39 	lds	r24, 0x392B	; 0x80392b <txAddrNow>
    131e:	88 30       	cpi	r24, 0x08	; 8
    1320:	d8 f5       	brcc	.+118    	; 0x1398 <CheckSend+0x80>
    1322:	90 91 04 38 	lds	r25, 0x3804	; 0x803804 <serTxDone>
    1326:	99 23       	and	r25, r25
    1328:	b9 f1       	breq	.+110    	; 0x1398 <CheckSend+0x80>
        if (txPart < txStrLen[txAddrNow]){
    132a:	28 2f       	mov	r18, r24
    132c:	30 e0       	ldi	r19, 0x00	; 0
    132e:	f9 01       	movw	r30, r18
    1330:	e4 5d       	subi	r30, 0xD4	; 212
    1332:	f6 4c       	sbci	r31, 0xC6	; 198
    1334:	e0 81       	ld	r30, Z
    1336:	90 91 28 39 	lds	r25, 0x3928	; 0x803928 <txPart.3910>
    133a:	9e 17       	cp	r25, r30
    133c:	30 f5       	brcc	.+76     	; 0x138a <CheckSend+0x72>
            EEreadLength = txStrLen[txAddrNow]-txPart;
    133e:	ce 2f       	mov	r28, r30
    1340:	c9 1b       	sub	r28, r25
    1342:	c1 32       	cpi	r28, 0x21	; 33
    1344:	08 f0       	brcs	.+2      	; 0x1348 <CheckSend+0x30>
    1346:	c0 e2       	ldi	r28, 0x20	; 32
            if (EEreadLength>=TXLEN) EEreadLength = TXLEN-1;
            ExtEERead(txAddrList[txAddrNow]+txPart, EEreadLength, txTypeNow, &txBuffer[0]);
    1348:	22 0f       	add	r18, r18
    134a:	33 1f       	adc	r19, r19
    134c:	f9 01       	movw	r30, r18
    134e:	ec 5c       	subi	r30, 0xCC	; 204
    1350:	f6 4c       	sbci	r31, 0xC6	; 198
    1352:	01 90       	ld	r0, Z+
    1354:	f0 81       	ld	r31, Z
    1356:	e0 2d       	mov	r30, r0
    1358:	24 ef       	ldi	r18, 0xF4	; 244
    135a:	39 e3       	ldi	r19, 0x39	; 57
    135c:	40 91 29 39 	lds	r20, 0x3929	; 0x803929 <txTypeNow>
    1360:	6c 2f       	mov	r22, r28
    1362:	df 01       	movw	r26, r30
    1364:	a9 0f       	add	r26, r25
    1366:	b1 1d       	adc	r27, r1
    1368:	cd 01       	movw	r24, r26
    136a:	51 dd       	rcall	.-1374   	; 0xe0e <ExtEERead>
            txPart += EEreadLength;
    136c:	80 91 28 39 	lds	r24, 0x3928	; 0x803928 <txPart.3910>
    1370:	8c 0f       	add	r24, r28
    1372:	80 93 28 39 	sts	0x3928, r24	; 0x803928 <txPart.3910>
            txBuffer[EEreadLength] = 0; //Add string terminator after piece to send to plug memory leak
    1376:	ec 2f       	mov	r30, r28
    1378:	f0 e0       	ldi	r31, 0x00	; 0
    137a:	ec 50       	subi	r30, 0x0C	; 12
    137c:	f6 4c       	sbci	r31, 0xC6	; 198
    137e:	10 82       	st	Z, r1
            SerSend(&txBuffer[0]);
    1380:	84 ef       	ldi	r24, 0xF4	; 244
    1382:	99 e3       	ldi	r25, 0x39	; 57
    1384:	30 db       	rcall	.-2464   	; 0x9e6 <SerSend>
        } else if (sendPrompt == LOCATION){
            SendLiteral(A_LOCATION, L_LOCATION, 0);
        }
        sendPrompt=0;
    } else if (serTxDone) return 0; //All is sent!
    return 1; //Still sending, do not change the data in the tx variables
    1386:	81 e0       	ldi	r24, 0x01	; 1
    1388:	44 c0       	rjmp	.+136    	; 0x1412 <CheckSend+0xfa>
            ExtEERead(txAddrList[txAddrNow]+txPart, EEreadLength, txTypeNow, &txBuffer[0]);
            txPart += EEreadLength;
            txBuffer[EEreadLength] = 0; //Add string terminator after piece to send to plug memory leak
            SerSend(&txBuffer[0]);
        } else {
            txPart = 0;
    138a:	10 92 28 39 	sts	0x3928, r1	; 0x803928 <txPart.3910>
            ++txAddrNow;
    138e:	8f 5f       	subi	r24, 0xFF	; 255
    1390:	80 93 2b 39 	sts	0x392B, r24	; 0x80392b <txAddrNow>
        } else if (sendPrompt == LOCATION){
            SendLiteral(A_LOCATION, L_LOCATION, 0);
        }
        sendPrompt=0;
    } else if (serTxDone) return 0; //All is sent!
    return 1; //Still sending, do not change the data in the tx variables
    1394:	81 e0       	ldi	r24, 0x01	; 1
    1396:	3d c0       	rjmp	.+122    	; 0x1412 <CheckSend+0xfa>
            txPart = 0;
            ++txAddrNow;
        }
    
    //Check if prompt needs to be sent afterward or something else
    } else if (serTxDone&&sendPrompt) {
    1398:	80 91 04 38 	lds	r24, 0x3804	; 0x803804 <serTxDone>
    139c:	88 23       	and	r24, r24
    139e:	a1 f1       	breq	.+104    	; 0x1408 <CheckSend+0xf0>
    13a0:	80 91 2a 39 	lds	r24, 0x392A	; 0x80392a <sendPrompt>
    13a4:	88 23       	and	r24, r24
    13a6:	81 f1       	breq	.+96     	; 0x1408 <CheckSend+0xf0>
        if (sendPrompt == PROMPT){
    13a8:	81 30       	cpi	r24, 0x01	; 1
    13aa:	39 f4       	brne	.+14     	; 0x13ba <CheckSend+0xa2>
            SendLiteral(A_PROMPT, L_PROMPT, 2);
    13ac:	42 e0       	ldi	r20, 0x02	; 2
    13ae:	62 e0       	ldi	r22, 0x02	; 2
    13b0:	70 e0       	ldi	r23, 0x00	; 0
    13b2:	8d e4       	ldi	r24, 0x4D	; 77
    13b4:	9c e7       	ldi	r25, 0x7C	; 124
    13b6:	5a de       	rcall	.-844    	; 0x106c <SendLiteral>
    13b8:	23 c0       	rjmp	.+70     	; 0x1400 <CheckSend+0xe8>
        } else if (sendPrompt == SPACE){
    13ba:	82 30       	cpi	r24, 0x02	; 2
    13bc:	39 f4       	brne	.+14     	; 0x13cc <CheckSend+0xb4>
            SendLiteral(A_SPACE, L_SPACE, 0);
    13be:	40 e0       	ldi	r20, 0x00	; 0
    13c0:	61 e0       	ldi	r22, 0x01	; 1
    13c2:	70 e0       	ldi	r23, 0x00	; 0
    13c4:	8f e4       	ldi	r24, 0x4F	; 79
    13c6:	9c e7       	ldi	r25, 0x7C	; 124
    13c8:	51 de       	rcall	.-862    	; 0x106c <SendLiteral>
    13ca:	1a c0       	rjmp	.+52     	; 0x1400 <CheckSend+0xe8>
        } else if (sendPrompt == CR_1){
    13cc:	83 30       	cpi	r24, 0x03	; 3
    13ce:	39 f4       	brne	.+14     	; 0x13de <CheckSend+0xc6>
            SendLiteral(0, 0, 1);
    13d0:	41 e0       	ldi	r20, 0x01	; 1
    13d2:	60 e0       	ldi	r22, 0x00	; 0
    13d4:	70 e0       	ldi	r23, 0x00	; 0
    13d6:	80 e0       	ldi	r24, 0x00	; 0
    13d8:	90 e0       	ldi	r25, 0x00	; 0
    13da:	48 de       	rcall	.-880    	; 0x106c <SendLiteral>
    13dc:	11 c0       	rjmp	.+34     	; 0x1400 <CheckSend+0xe8>
        } else if (sendPrompt == CR_2){
    13de:	84 30       	cpi	r24, 0x04	; 4
    13e0:	39 f4       	brne	.+14     	; 0x13f0 <CheckSend+0xd8>
            SendLiteral(0, 0, 2);
    13e2:	42 e0       	ldi	r20, 0x02	; 2
    13e4:	60 e0       	ldi	r22, 0x00	; 0
    13e6:	70 e0       	ldi	r23, 0x00	; 0
    13e8:	80 e0       	ldi	r24, 0x00	; 0
    13ea:	90 e0       	ldi	r25, 0x00	; 0
    13ec:	3f de       	rcall	.-898    	; 0x106c <SendLiteral>
    13ee:	08 c0       	rjmp	.+16     	; 0x1400 <CheckSend+0xe8>
        } else if (sendPrompt == LOCATION){
    13f0:	85 30       	cpi	r24, 0x05	; 5
            SendLiteral(A_LOCATION, L_LOCATION, 0);
    13f2:	31 f4       	brne	.+12     	; 0x1400 <CheckSend+0xe8>
    13f4:	40 e0       	ldi	r20, 0x00	; 0
    13f6:	6b e0       	ldi	r22, 0x0B	; 11
    13f8:	70 e0       	ldi	r23, 0x00	; 0
    13fa:	80 e5       	ldi	r24, 0x50	; 80
    13fc:	9c e7       	ldi	r25, 0x7C	; 124
    13fe:	36 de       	rcall	.-916    	; 0x106c <SendLiteral>
        }
        sendPrompt=0;
    1400:	10 92 2a 39 	sts	0x392A, r1	; 0x80392a <sendPrompt>
    } else if (serTxDone) return 0; //All is sent!
    return 1; //Still sending, do not change the data in the tx variables
    1404:	81 e0       	ldi	r24, 0x01	; 1
        } else if (sendPrompt == CR_2){
            SendLiteral(0, 0, 2);
        } else if (sendPrompt == LOCATION){
            SendLiteral(A_LOCATION, L_LOCATION, 0);
        }
        sendPrompt=0;
    1406:	05 c0       	rjmp	.+10     	; 0x1412 <CheckSend+0xfa>
    } else if (serTxDone) return 0; //All is sent!
    1408:	90 91 04 38 	lds	r25, 0x3804	; 0x803804 <serTxDone>
    140c:	81 e0       	ldi	r24, 0x01	; 1
    140e:	91 11       	cpse	r25, r1
    1410:	80 e0       	ldi	r24, 0x00	; 0
    return 1; //Still sending, do not change the data in the tx variables
}
    1412:	cf 91       	pop	r28
    1414:	08 95       	ret

00001416 <CheckInput>:

//User input check (and validation)
uint8_t CheckInput(uint8_t *data){
    1416:	1f 93       	push	r17
    1418:	cf 93       	push	r28
    141a:	df 93       	push	r29
    141c:	cd b7       	in	r28, 0x3d	; 61
    141e:	de b7       	in	r29, 0x3e	; 62
    1420:	2a 97       	sbiw	r28, 0x0a	; 10
    1422:	cd bf       	out	0x3d, r28	; 61
    1424:	de bf       	out	0x3e, r29	; 62
    if (serRxDone){
    1426:	20 91 1c 38 	lds	r18, 0x381C	; 0x80381c <serRxDone>
    142a:	22 23       	and	r18, r18
    142c:	09 f4       	brne	.+2      	; 0x1430 <CheckInput+0x1a>
    142e:	6e c0       	rjmp	.+220    	; 0x150c <CheckInput+0xf6>
        //Read up to the \0 character and convert to lower case.
        for (uint8_t x=0; serRx[x]!=0; ++x){
    1430:	20 91 56 39 	lds	r18, 0x3956	; 0x803956 <serRx>
    1434:	22 23       	and	r18, r18
    1436:	51 f1       	breq	.+84     	; 0x148c <CheckInput+0x76>
    1438:	20 e0       	ldi	r18, 0x00	; 0
    143a:	30 e0       	ldi	r19, 0x00	; 0
    143c:	40 e0       	ldi	r20, 0x00	; 0
            if ((serRx[x]<'A')||(serRx[x]>'Z')) data[x]=serRx[x]; else data[x]=serRx[x]|0x20;
    143e:	f9 01       	movw	r30, r18
    1440:	ea 5a       	subi	r30, 0xAA	; 170
    1442:	f6 4c       	sbci	r31, 0xC6	; 198
    1444:	50 81       	ld	r21, Z
    1446:	51 34       	cpi	r21, 0x41	; 65
    1448:	30 f0       	brcs	.+12     	; 0x1456 <CheckInput+0x40>
    144a:	f9 01       	movw	r30, r18
    144c:	ea 5a       	subi	r30, 0xAA	; 170
    144e:	f6 4c       	sbci	r31, 0xC6	; 198
    1450:	50 81       	ld	r21, Z
    1452:	5b 35       	cpi	r21, 0x5B	; 91
    1454:	48 f0       	brcs	.+18     	; 0x1468 <CheckInput+0x52>
    1456:	f9 01       	movw	r30, r18
    1458:	ea 5a       	subi	r30, 0xAA	; 170
    145a:	f6 4c       	sbci	r31, 0xC6	; 198
    145c:	20 81       	ld	r18, Z
    145e:	fc 01       	movw	r30, r24
    1460:	e4 0f       	add	r30, r20
    1462:	f1 1d       	adc	r31, r1
    1464:	20 83       	st	Z, r18
    1466:	09 c0       	rjmp	.+18     	; 0x147a <CheckInput+0x64>
    1468:	f9 01       	movw	r30, r18
    146a:	ea 5a       	subi	r30, 0xAA	; 170
    146c:	f6 4c       	sbci	r31, 0xC6	; 198
    146e:	20 81       	ld	r18, Z
    1470:	fc 01       	movw	r30, r24
    1472:	e4 0f       	add	r30, r20
    1474:	f1 1d       	adc	r31, r1
    1476:	20 62       	ori	r18, 0x20	; 32
    1478:	20 83       	st	Z, r18

//User input check (and validation)
uint8_t CheckInput(uint8_t *data){
    if (serRxDone){
        //Read up to the \0 character and convert to lower case.
        for (uint8_t x=0; serRx[x]!=0; ++x){
    147a:	4f 5f       	subi	r20, 0xFF	; 255
    147c:	24 2f       	mov	r18, r20
    147e:	30 e0       	ldi	r19, 0x00	; 0
    1480:	f9 01       	movw	r30, r18
    1482:	ea 5a       	subi	r30, 0xAA	; 170
    1484:	f6 4c       	sbci	r31, 0xC6	; 198
    1486:	50 81       	ld	r21, Z
    1488:	51 11       	cpse	r21, r1
    148a:	d9 cf       	rjmp	.-78     	; 0x143e <CheckInput+0x28>
            if ((serRx[x]<'A')||(serRx[x]>'Z')) data[x]=serRx[x]; else data[x]=serRx[x]|0x20;
        }

        //Help text
        if ((data[0] == '?')||(data[0] == 'h')){
    148c:	fc 01       	movw	r30, r24
    148e:	20 81       	ld	r18, Z
    1490:	2f 33       	cpi	r18, 0x3F	; 63
    1492:	11 f0       	breq	.+4      	; 0x1498 <CheckInput+0x82>
    1494:	28 36       	cpi	r18, 0x68	; 104
    1496:	61 f4       	brne	.+24     	; 0x14b0 <CheckInput+0x9a>
            //Put help pointers/lengths in tx list
            PrepareSending(A_HELP, L_HELP, TEASER, PROMPT);
    1498:	21 e0       	ldi	r18, 0x01	; 1
    149a:	41 e0       	ldi	r20, 0x01	; 1
    149c:	65 ea       	ldi	r22, 0xA5	; 165
    149e:	73 e0       	ldi	r23, 0x03	; 3
    14a0:	8b e5       	ldi	r24, 0x5B	; 91
    14a2:	9c e7       	ldi	r25, 0x7C	; 124
    14a4:	03 dd       	rcall	.-1530   	; 0xeac <PrepareSending>
            RXCNT = 0;
    14a6:	1d ba       	out	0x1d, r1	; 29
            serRxDone = 0;
    14a8:	10 92 1c 38 	sts	0x381C, r1	; 0x80381c <serRxDone>
            return 1;
    14ac:	81 e0       	ldi	r24, 0x01	; 1
    14ae:	2f c0       	rjmp	.+94     	; 0x150e <CheckInput+0xf8>
        }

        //Quit text
        if (data[0] == 'q'){
    14b0:	21 37       	cpi	r18, 0x71	; 113
    14b2:	61 f4       	brne	.+24     	; 0x14cc <CheckInput+0xb6>
            //Put quit pointers/lengths in tx list
            PrepareSending(A_QUIT, L_QUIT, TEASER, PROMPT);
    14b4:	21 e0       	ldi	r18, 0x01	; 1
    14b6:	41 e0       	ldi	r20, 0x01	; 1
    14b8:	64 e5       	ldi	r22, 0x54	; 84
    14ba:	70 e0       	ldi	r23, 0x00	; 0
    14bc:	89 ef       	ldi	r24, 0xF9	; 249
    14be:	9b e7       	ldi	r25, 0x7B	; 123
    14c0:	f5 dc       	rcall	.-1558   	; 0xeac <PrepareSending>
            RXCNT = 0;
    14c2:	1d ba       	out	0x1d, r1	; 29
            serRxDone = 0;
    14c4:	10 92 1c 38 	sts	0x381C, r1	; 0x80381c <serRxDone>
            return 1;
    14c8:	81 e0       	ldi	r24, 0x01	; 1
    14ca:	21 c0       	rjmp	.+66     	; 0x150e <CheckInput+0xf8>
        }

        //Cheat = reset badge!
        if (StartsWith(&data[0], "iddqd")){
    14cc:	64 e5       	ldi	r22, 0x54	; 84
    14ce:	79 e9       	ldi	r23, 0x99	; 153
    14d0:	dc dc       	rcall	.-1608   	; 0xe8a <StartsWith>
    14d2:	88 23       	and	r24, r24
    14d4:	e1 f0       	breq	.+56     	; 0x150e <CheckInput+0xf8>
    14d6:	1e e6       	ldi	r17, 0x6E	; 110
            
            //Reset game data by wiping the UUID bits
            for (uint8_t x=0; x<4; ++x){
                WriteStatusBit(110+x, 0);
    14d8:	60 e0       	ldi	r22, 0x00	; 0
    14da:	81 2f       	mov	r24, r17
    14dc:	d4 db       	rcall	.-2136   	; 0xc86 <WriteStatusBit>
    14de:	1f 5f       	subi	r17, 0xFF	; 255

        //Cheat = reset badge!
        if (StartsWith(&data[0], "iddqd")){
            
            //Reset game data by wiping the UUID bits
            for (uint8_t x=0; x<4; ++x){
    14e0:	12 37       	cpi	r17, 0x72	; 114
    14e2:	d1 f7       	brne	.-12     	; 0x14d8 <CheckInput+0xc2>
                WriteStatusBit(110+x, 0);
            }
            SaveGameState();
    14e4:	83 db       	rcall	.-2298   	; 0xbec <SaveGameState>
    14e6:	8a e0       	ldi	r24, 0x0A	; 10

            uint8_t cheat[] = "Cheater! ";
    14e8:	ea e5       	ldi	r30, 0x5A	; 90
    14ea:	f9 e9       	ldi	r31, 0x99	; 153
    14ec:	de 01       	movw	r26, r28
    14ee:	11 96       	adiw	r26, 0x01	; 1
    14f0:	01 90       	ld	r0, Z+
    14f2:	0d 92       	st	X+, r0
    14f4:	8a 95       	dec	r24
    14f6:	e1 f7       	brne	.-8      	; 0x14f0 <CheckInput+0xda>
            SerSpeed(60);
    14f8:	8c e3       	ldi	r24, 0x3C	; 60
    14fa:	87 da       	rcall	.-2802   	; 0xa0a <SerSpeed>
    14fc:	80 91 04 38 	lds	r24, 0x3804	; 0x803804 <serTxDone>
            while(1){
                if (serTxDone) SerSend(&cheat[0]);
    1500:	88 23       	and	r24, r24
    1502:	e1 f3       	breq	.-8      	; 0x14fc <CheckInput+0xe6>
    1504:	ce 01       	movw	r24, r28
    1506:	01 96       	adiw	r24, 0x01	; 1
    1508:	6e da       	rcall	.-2852   	; 0x9e6 <SerSend>
    150a:	f8 cf       	rjmp	.-16     	; 0x14fc <CheckInput+0xe6>
    150c:	81 e0       	ldi	r24, 0x01	; 1
        //Data received, but not any of the commands above
        return 0;
    }

    //Serial input not available yet
    return 1;
    150e:	2a 96       	adiw	r28, 0x0a	; 10
}
    1510:	cd bf       	out	0x3d, r28	; 61
    1512:	de bf       	out	0x3e, r29	; 62
    1514:	df 91       	pop	r29
    1516:	cf 91       	pop	r28
    1518:	1f 91       	pop	r17
    151a:	08 95       	ret

0000151c <ProcessInput>:
    151c:	0f 93       	push	r16

//The game logic!
uint8_t ProcessInput(uint8_t *data){
    151e:	1f 93       	push	r17
    1520:	cf 93       	push	r28
    1522:	df 93       	push	r29
    1524:	8c 01       	movw	r16, r24
    
    static uint16_t reactStr[3][8] = {{0},{0},{0}};
    static uint8_t actionList = 0;
    static uint8_t toSend = 0;

    if (currDepth == 0) PopulateObject(route[currDepth], &currObj);
    1526:	80 91 27 39 	lds	r24, 0x3927	; 0x803927 <currDepth.3932>
    152a:	81 11       	cpse	r24, r1
    152c:	07 c0       	rjmp	.+14     	; 0x153c <ProcessInput+0x20>
    152e:	6f eb       	ldi	r22, 0xBF	; 191
    1530:	78 e3       	ldi	r23, 0x38	; 56
    1532:	80 91 e7 38 	lds	r24, 0x38E7	; 0x8038e7 <route.3931>
    1536:	90 91 e8 38 	lds	r25, 0x38E8	; 0x8038e8 <route.3931+0x1>
    153a:	0e dd       	rcall	.-1508   	; 0xf58 <PopulateObject>
    effect = currObj.byteField[EFFECTS];
    153c:	80 91 c3 38 	lds	r24, 0x38C3	; 0x8038c3 <currObj.3928+0x4>
    1540:	90 e0       	ldi	r25, 0x00	; 0
    1542:	80 93 16 38 	sts	0x3816, r24	; 0x803816 <__data_end>
    1546:	90 93 17 38 	sts	0x3817, r25	; 0x803817 <__data_end+0x1>
    CleanInput(&data[0]);
    154a:	c8 01       	movw	r24, r16
    154c:	bf de       	rcall	.-642    	; 0x12cc <CleanInput>
    
    //Responses to send after something has tried by the user
    if (actionList){
    154e:	c0 91 be 38 	lds	r28, 0x38BE	; 0x8038be <actionList.3934>
    1552:	cc 23       	and	r28, r28
    1554:	31 f1       	breq	.+76     	; 0x15a2 <ProcessInput+0x86>
        PrepareSending(reactStr[0][toSend], reactStr[1][toSend], GAME, reactStr[2][toSend]);
    1556:	10 91 bd 38 	lds	r17, 0x38BD	; 0x8038bd <toSend.3935>
    155a:	81 2f       	mov	r24, r17
    155c:	90 e0       	ldi	r25, 0x00	; 0
    155e:	dc 01       	movw	r26, r24
    1560:	aa 0f       	add	r26, r26
    1562:	bb 1f       	adc	r27, r27
    1564:	a3 55       	subi	r26, 0x53	; 83
    1566:	b7 4c       	sbci	r27, 0xC7	; 199
    1568:	fc 01       	movw	r30, r24
    156a:	ee 0f       	add	r30, r30
    156c:	ff 1f       	adc	r31, r31
    156e:	e3 56       	subi	r30, 0x63	; 99
    1570:	f7 4c       	sbci	r31, 0xC7	; 199
    1572:	60 81       	ld	r22, Z
    1574:	71 81       	ldd	r23, Z+1	; 0x01
    1576:	88 0f       	add	r24, r24
    1578:	99 1f       	adc	r25, r25
    157a:	fc 01       	movw	r30, r24
    157c:	e3 57       	subi	r30, 0x73	; 115
    157e:	f7 4c       	sbci	r31, 0xC7	; 199
    1580:	2c 91       	ld	r18, X
    1582:	40 e0       	ldi	r20, 0x00	; 0
    1584:	80 81       	ld	r24, Z
    1586:	91 81       	ldd	r25, Z+1	; 0x01
    1588:	91 dc       	rcall	.-1758   	; 0xeac <PrepareSending>
        ++toSend;
    158a:	1f 5f       	subi	r17, 0xFF	; 255
    158c:	10 93 bd 38 	sts	0x38BD, r17	; 0x8038bd <toSend.3935>
        --actionList;
    1590:	c1 50       	subi	r28, 0x01	; 1
    1592:	c0 93 be 38 	sts	0x38BE, r28	; 0x8038be <actionList.3934>
        if (actionList == 0) {
    1596:	c1 11       	cpse	r28, r1
    1598:	3e c1       	rjmp	.+636    	; 0x1816 <ProcessInput+0x2fa>
            RXCNT = 0;
    159a:	1d ba       	out	0x1d, r1	; 29
            serRxDone = 0;
    159c:	10 92 1c 38 	sts	0x381C, r1	; 0x80381c <serRxDone>
        }

    //No responses yet and data available? Figure out what to say!
    } else {

        uint8_t inputLen = CleanInput(&data[0]);
    15a0:	3a c1       	rjmp	.+628    	; 0x1816 <ProcessInput+0x2fa>
    15a2:	c8 01       	movw	r24, r16
    15a4:	93 de       	rcall	.-730    	; 0x12cc <CleanInput>
        if (inputLen) {
    15a6:	88 23       	and	r24, r24
    15a8:	09 f4       	brne	.+2      	; 0x15ac <ProcessInput+0x90>
    15aa:	35 c1       	rjmp	.+618    	; 0x1816 <ProcessInput+0x2fa>

            toSend = 0;
    15ac:	10 92 bd 38 	sts	0x38BD, r1	; 0x8038bd <toSend.3935>
            reactStr[1][0]=0;
    15b0:	ed e8       	ldi	r30, 0x8D	; 141
    15b2:	f8 e3       	ldi	r31, 0x38	; 56
    15b4:	10 8a       	std	Z+16, r1	; 0x10
    15b6:	11 8a       	std	Z+17, r1	; 0x11
            reactStr[2][0]=CR_2;
    15b8:	24 e0       	ldi	r18, 0x04	; 4
    15ba:	30 e0       	ldi	r19, 0x00	; 0
    15bc:	20 a3       	std	Z+32, r18	; 0x20
    15be:	31 a3       	std	Z+33, r19	; 0x21

            if (data[0] == 'x'){
    15c0:	d8 01       	movw	r26, r16
    15c2:	9c 91       	ld	r25, X
    15c4:	98 37       	cpi	r25, 0x78	; 120
    15c6:	09 f0       	breq	.+2      	; 0x15ca <ProcessInput+0xae>
    15c8:	5a c0       	rjmp	.+180    	; 0x167e <ProcessInput+0x162>

                //Standing outside?
                if ((route[currDepth] == 0)||(currDepth == 0)){
    15ca:	80 91 27 39 	lds	r24, 0x3927	; 0x803927 <currDepth.3932>
    15ce:	e8 2f       	mov	r30, r24
    15d0:	f0 e0       	ldi	r31, 0x00	; 0
    15d2:	ee 0f       	add	r30, r30
    15d4:	ff 1f       	adc	r31, r31
    15d6:	e9 51       	subi	r30, 0x19	; 25
    15d8:	f7 4c       	sbci	r31, 0xC7	; 199
    15da:	20 81       	ld	r18, Z
    15dc:	31 81       	ldd	r19, Z+1	; 0x01
    15de:	23 2b       	or	r18, r19
    15e0:	11 f0       	breq	.+4      	; 0x15e6 <ProcessInput+0xca>
    15e2:	81 11       	cpse	r24, r1
    15e4:	08 c0       	rjmp	.+16     	; 0x15f6 <ProcessInput+0xda>
                    PrepareSending(A_NOTPOSSIBLE, L_NOTPOSSIBLE, TEASER, PROMPT);
    15e6:	21 e0       	ldi	r18, 0x01	; 1
    15e8:	41 e0       	ldi	r20, 0x01	; 1
    15ea:	6b e1       	ldi	r22, 0x1B	; 27
    15ec:	70 e0       	ldi	r23, 0x00	; 0
    15ee:	86 ea       	ldi	r24, 0xA6	; 166
    15f0:	98 e7       	ldi	r25, 0x78	; 120
    15f2:	5c dc       	rcall	.-1864   	; 0xeac <PrepareSending>
            
                //Is there a way to go back?
                } else if (CheckState(currObj.byteField[OPEN_ACL])){
    15f4:	06 c1       	rjmp	.+524    	; 0x1802 <ProcessInput+0x2e6>
    15f6:	80 91 c5 38 	lds	r24, 0x38C5	; 0x8038c5 <currObj.3928+0x6>
    15fa:	7a dd       	rcall	.-1292   	; 0x10f0 <CheckState>
    15fc:	88 23       	and	r24, r24
    15fe:	39 f1       	breq	.+78     	; 0x164e <ProcessInput+0x132>
                    --currDepth;
    1600:	e0 91 27 39 	lds	r30, 0x3927	; 0x803927 <currDepth.3932>
    1604:	e1 50       	subi	r30, 0x01	; 1
    1606:	e0 93 27 39 	sts	0x3927, r30	; 0x803927 <currDepth.3932>
                    PopulateObject(route[currDepth], &currObj);
    160a:	f0 e0       	ldi	r31, 0x00	; 0
    160c:	ee 0f       	add	r30, r30
    160e:	ff 1f       	adc	r31, r31
    1610:	e9 51       	subi	r30, 0x19	; 25
    1612:	f7 4c       	sbci	r31, 0xC7	; 199
    1614:	6f eb       	ldi	r22, 0xBF	; 191
    1616:	78 e3       	ldi	r23, 0x38	; 56
    1618:	80 81       	ld	r24, Z
    161a:	91 81       	ldd	r25, Z+1	; 0x01
    161c:	9d dc       	rcall	.-1734   	; 0xf58 <PopulateObject>
                    reactStr[0][1]=currObj.addrStr[NAME];
    161e:	ed e8       	ldi	r30, 0x8D	; 141
    1620:	f8 e3       	ldi	r31, 0x38	; 56
    1622:	af eb       	ldi	r26, 0xBF	; 191
    1624:	b8 e3       	ldi	r27, 0x38	; 56
    1626:	1c 96       	adiw	r26, 0x0c	; 12
    1628:	8d 91       	ld	r24, X+
    162a:	9c 91       	ld	r25, X
    162c:	1d 97       	sbiw	r26, 0x0d	; 13
    162e:	82 83       	std	Z+2, r24	; 0x02
    1630:	93 83       	std	Z+3, r25	; 0x03
                    reactStr[1][1]=currObj.lenStr[NAME];
    1632:	5a 96       	adiw	r26, 0x1a	; 26
    1634:	8d 91       	ld	r24, X+
    1636:	9c 91       	ld	r25, X
    1638:	5b 97       	sbiw	r26, 0x1b	; 27
    163a:	82 8b       	std	Z+18, r24	; 0x12
    163c:	93 8b       	std	Z+19, r25	; 0x13
                    reactStr[2][1]=PROMPT;             
    163e:	81 e0       	ldi	r24, 0x01	; 1
    1640:	90 e0       	ldi	r25, 0x00	; 0
    1642:	82 a3       	std	Z+34, r24	; 0x22
    1644:	93 a3       	std	Z+35, r25	; 0x23
                    actionList = 2;
    1646:	82 e0       	ldi	r24, 0x02	; 2
    1648:	80 93 be 38 	sts	0x38BE, r24	; 0x8038be <actionList.3934>
    164c:	da c0       	rjmp	.+436    	; 0x1802 <ProcessInput+0x2e6>
            
                //No way out, print denied message of location
                } else {
                    reactStr[0][1]=currObj.addrStr[OPEN_ACL_MSG];
    164e:	ed e8       	ldi	r30, 0x8D	; 141
    1650:	f8 e3       	ldi	r31, 0x38	; 56
    1652:	af eb       	ldi	r26, 0xBF	; 191
    1654:	b8 e3       	ldi	r27, 0x38	; 56
    1656:	54 96       	adiw	r26, 0x14	; 20
    1658:	8d 91       	ld	r24, X+
    165a:	9c 91       	ld	r25, X
    165c:	55 97       	sbiw	r26, 0x15	; 21
    165e:	82 83       	std	Z+2, r24	; 0x02
    1660:	93 83       	std	Z+3, r25	; 0x03
                    reactStr[1][1]=currObj.lenStr[OPEN_ACL_MSG];
    1662:	92 96       	adiw	r26, 0x22	; 34
    1664:	8d 91       	ld	r24, X+
    1666:	9c 91       	ld	r25, X
    1668:	93 97       	sbiw	r26, 0x23	; 35
    166a:	82 8b       	std	Z+18, r24	; 0x12
    166c:	93 8b       	std	Z+19, r25	; 0x13
                    reactStr[2][1]=PROMPT;                
    166e:	81 e0       	ldi	r24, 0x01	; 1
    1670:	90 e0       	ldi	r25, 0x00	; 0
    1672:	82 a3       	std	Z+34, r24	; 0x22
    1674:	93 a3       	std	Z+35, r25	; 0x23
                    actionList = 2;
    1676:	82 e0       	ldi	r24, 0x02	; 2
    1678:	80 93 be 38 	sts	0x38BE, r24	; 0x8038be <actionList.3934>
    167c:	c2 c0       	rjmp	.+388    	; 0x1802 <ProcessInput+0x2e6>
                }
            } 
        
            else if ((data[0] == 'e')||(data[0] == 'o')) {
    167e:	95 36       	cpi	r25, 0x65	; 101
    1680:	19 f0       	breq	.+6      	; 0x1688 <ProcessInput+0x16c>
    1682:	9f 36       	cpi	r25, 0x6F	; 111
    1684:	09 f0       	breq	.+2      	; 0x1688 <ProcessInput+0x16c>
    1686:	bd c0       	rjmp	.+378    	; 0x1802 <ProcessInput+0x2e6>
                
                //Not possible, too many/little characters
                if (inputLen != 2){
    1688:	82 30       	cpi	r24, 0x02	; 2
                    PrepareSending(A_NOTPOSSIBLE, L_NOTPOSSIBLE, TEASER, CR_2);
    168a:	41 f0       	breq	.+16     	; 0x169c <ProcessInput+0x180>
    168c:	24 e0       	ldi	r18, 0x04	; 4
    168e:	41 e0       	ldi	r20, 0x01	; 1
    1690:	6b e1       	ldi	r22, 0x1B	; 27
    1692:	70 e0       	ldi	r23, 0x00	; 0
    1694:	86 ea       	ldi	r24, 0xA6	; 166
    1696:	98 e7       	ldi	r25, 0x78	; 120
    1698:	09 dc       	rcall	.-2030   	; 0xeac <PrepareSending>
    169a:	90 c0       	rjmp	.+288    	; 0x17bc <ProcessInput+0x2a0>
                } else {
                    uint8_t canDo = 0;
                    route[currDepth+1] = FindChild(route[currDepth], data[1]);
    169c:	c0 91 27 39 	lds	r28, 0x3927	; 0x803927 <currDepth.3932>
    16a0:	d0 e0       	ldi	r29, 0x00	; 0
    16a2:	fe 01       	movw	r30, r28
    16a4:	ee 0f       	add	r30, r30
    16a6:	ff 1f       	adc	r31, r31
    16a8:	e9 51       	subi	r30, 0x19	; 25
    16aa:	f7 4c       	sbci	r31, 0xC7	; 199
    16ac:	d8 01       	movw	r26, r16
    16ae:	11 96       	adiw	r26, 0x01	; 1
    16b0:	6c 91       	ld	r22, X
    16b2:	80 81       	ld	r24, Z
    16b4:	91 81       	ldd	r25, Z+1	; 0x01
    16b6:	88 dd       	rcall	.-1264   	; 0x11c8 <FindChild>
    16b8:	cc 0f       	add	r28, r28
    16ba:	dd 1f       	adc	r29, r29
    16bc:	c7 51       	subi	r28, 0x17	; 23
    16be:	d7 4c       	sbci	r29, 0xC7	; 199
    16c0:	88 83       	st	Y, r24
    16c2:	99 83       	std	Y+1, r25	; 0x01
                    
                    //Child found?
                    if (route[currDepth+1]) {
    16c4:	90 91 27 39 	lds	r25, 0x3927	; 0x803927 <currDepth.3932>
    16c8:	29 2f       	mov	r18, r25
    16ca:	30 e0       	ldi	r19, 0x00	; 0
    16cc:	f9 01       	movw	r30, r18
    16ce:	ee 0f       	add	r30, r30
    16d0:	ff 1f       	adc	r31, r31
    16d2:	e7 51       	subi	r30, 0x17	; 23
    16d4:	f7 4c       	sbci	r31, 0xC7	; 199
    16d6:	40 81       	ld	r20, Z
    16d8:	51 81       	ldd	r21, Z+1	; 0x01
    16da:	41 15       	cp	r20, r1
    16dc:	51 05       	cpc	r21, r1
                        PopulateObject(route[currDepth+1], &actObj1);
    16de:	29 f0       	breq	.+10     	; 0x16ea <ProcessInput+0x1ce>
    16e0:	65 e6       	ldi	r22, 0x65	; 101
    16e2:	78 e3       	ldi	r23, 0x38	; 56
    16e4:	ca 01       	movw	r24, r20
    16e6:	38 dc       	rcall	.-1936   	; 0xf58 <PopulateObject>
    16e8:	17 c0       	rjmp	.+46     	; 0x1718 <ProcessInput+0x1fc>
                        canDo = 1;
                    //No child, maybe a step back, letter ok?
                    } else if (currDepth) {
    16ea:	99 23       	and	r25, r25
    16ec:	09 f4       	brne	.+2      	; 0x16f0 <ProcessInput+0x1d4>
                        PopulateObject(route[currDepth-1], &actObj1);
    16ee:	5f c0       	rjmp	.+190    	; 0x17ae <ProcessInput+0x292>
    16f0:	22 0f       	add	r18, r18
    16f2:	33 1f       	adc	r19, r19
    16f4:	f9 01       	movw	r30, r18
    16f6:	eb 51       	subi	r30, 0x1B	; 27
    16f8:	f7 4c       	sbci	r31, 0xC7	; 199
    16fa:	65 e6       	ldi	r22, 0x65	; 101
    16fc:	78 e3       	ldi	r23, 0x38	; 56
    16fe:	80 81       	ld	r24, Z
    1700:	91 81       	ldd	r25, Z+1	; 0x01
                        if (CheckLetter(actObj1.addrStr[NAME], data[1])) {
    1702:	2a dc       	rcall	.-1964   	; 0xf58 <PopulateObject>
    1704:	f8 01       	movw	r30, r16
    1706:	61 81       	ldd	r22, Z+1	; 0x01
    1708:	80 91 71 38 	lds	r24, 0x3871	; 0x803871 <actObj1.3929+0xc>
    170c:	90 91 72 38 	lds	r25, 0x3872	; 0x803872 <actObj1.3929+0xd>
    1710:	01 dd       	rcall	.-1534   	; 0x1114 <CheckLetter>
                            canDo = 1; 
                        }
                    }

                    //The candidate is found! Let's check if the action is legit
                    if (canDo) {
    1712:	88 23       	and	r24, r24
    1714:	09 f4       	brne	.+2      	; 0x1718 <ProcessInput+0x1fc>
    1716:	4b c0       	rjmp	.+150    	; 0x17ae <ProcessInput+0x292>
                        uint8_t bEnter = (data[0] == 'e');
                        if ((actObj1.byteField[ACTION_ACL]&(bEnter?ENTER:OPEN))==0) {
    1718:	90 91 6c 38 	lds	r25, 0x386C	; 0x80386c <actObj1.3929+0x7>
    171c:	d8 01       	movw	r26, r16
    171e:	8c 91       	ld	r24, X
    1720:	85 36       	cpi	r24, 0x65	; 101
    1722:	09 f0       	breq	.+2      	; 0x1726 <ProcessInput+0x20a>
    1724:	75 c0       	rjmp	.+234    	; 0x1810 <ProcessInput+0x2f4>
                            PrepareSending(bEnter?A_CANTENTER:A_CANTOPEN, bEnter?L_CANTENTER:L_CANTOPEN, TEASER, CR_2);
    1726:	71 c0       	rjmp	.+226    	; 0x180a <ProcessInput+0x2ee>
    1728:	6e e1       	ldi	r22, 0x1E	; 30
    172a:	70 e0       	ldi	r23, 0x00	; 0
    172c:	83 e9       	ldi	r24, 0x93	; 147
    172e:	9b e7       	ldi	r25, 0x7B	; 123
    1730:	04 c0       	rjmp	.+8      	; 0x173a <ProcessInput+0x21e>
    1732:	6b e1       	ldi	r22, 0x1B	; 27
    1734:	70 e0       	ldi	r23, 0x00	; 0
    1736:	88 e7       	ldi	r24, 0x78	; 120
    1738:	9b e7       	ldi	r25, 0x7B	; 123
    173a:	24 e0       	ldi	r18, 0x04	; 4
    173c:	41 e0       	ldi	r20, 0x01	; 1
    173e:	b6 db       	rcall	.-2196   	; 0xeac <PrepareSending>
                        
                        //Action legit, permission granted?
                        } else if (CheckState(actObj1.byteField[OPEN_ACL])) {
    1740:	3d c0       	rjmp	.+122    	; 0x17bc <ProcessInput+0x2a0>
    1742:	80 91 6b 38 	lds	r24, 0x386B	; 0x80386b <actObj1.3929+0x6>
    1746:	d4 dc       	rcall	.-1624   	; 0x10f0 <CheckState>
    1748:	88 23       	and	r24, r24
    174a:	39 f1       	breq	.+78     	; 0x179a <ProcessInput+0x27e>
                            
                            //Yes! Check if we must move forward or backwards.
                            if (route[currDepth+1]) ++currDepth; else --currDepth;
    174c:	80 91 27 39 	lds	r24, 0x3927	; 0x803927 <currDepth.3932>
    1750:	e8 2f       	mov	r30, r24
    1752:	f0 e0       	ldi	r31, 0x00	; 0
    1754:	ee 0f       	add	r30, r30
    1756:	ff 1f       	adc	r31, r31
    1758:	e7 51       	subi	r30, 0x17	; 23
    175a:	f7 4c       	sbci	r31, 0xC7	; 199
    175c:	20 81       	ld	r18, Z
    175e:	31 81       	ldd	r19, Z+1	; 0x01
    1760:	23 2b       	or	r18, r19
    1762:	21 f0       	breq	.+8      	; 0x176c <ProcessInput+0x250>
    1764:	8f 5f       	subi	r24, 0xFF	; 255
    1766:	80 93 27 39 	sts	0x3927, r24	; 0x803927 <currDepth.3932>
    176a:	03 c0       	rjmp	.+6      	; 0x1772 <ProcessInput+0x256>
    176c:	81 50       	subi	r24, 0x01	; 1
    176e:	80 93 27 39 	sts	0x3927, r24	; 0x803927 <currDepth.3932>
                            PopulateObject(route[currDepth], &currObj);
    1772:	e0 91 27 39 	lds	r30, 0x3927	; 0x803927 <currDepth.3932>
    1776:	f0 e0       	ldi	r31, 0x00	; 0
    1778:	ee 0f       	add	r30, r30
    177a:	ff 1f       	adc	r31, r31
    177c:	e9 51       	subi	r30, 0x19	; 25
    177e:	f7 4c       	sbci	r31, 0xC7	; 199
    1780:	6f eb       	ldi	r22, 0xBF	; 191
    1782:	78 e3       	ldi	r23, 0x38	; 56
    1784:	80 81       	ld	r24, Z
    1786:	91 81       	ldd	r25, Z+1	; 0x01
    1788:	e7 db       	rcall	.-2098   	; 0xf58 <PopulateObject>
                            effect = currObj.byteField[EFFECTS];
    178a:	80 91 c3 38 	lds	r24, 0x38C3	; 0x8038c3 <currObj.3928+0x4>
    178e:	90 e0       	ldi	r25, 0x00	; 0
    1790:	80 93 16 38 	sts	0x3816, r24	; 0x803816 <__data_end>
    1794:	90 93 17 38 	sts	0x3817, r25	; 0x803817 <__data_end+0x1>
    1798:	11 c0       	rjmp	.+34     	; 0x17bc <ProcessInput+0x2a0>

                        //Not granted!
                        } else {
                            route[currDepth+1] = 0;
    179a:	e0 91 27 39 	lds	r30, 0x3927	; 0x803927 <currDepth.3932>
    179e:	f0 e0       	ldi	r31, 0x00	; 0
    17a0:	ee 0f       	add	r30, r30
    17a2:	ff 1f       	adc	r31, r31
    17a4:	e7 51       	subi	r30, 0x17	; 23
    17a6:	f7 4c       	sbci	r31, 0xC7	; 199
    17a8:	10 82       	st	Z, r1
    17aa:	11 82       	std	Z+1, r1	; 0x01
                        }

                    //No candidate
                    } else {
                        PrepareSending(A_DONTSEE, L_DONTSEE, TEASER, CR_2);
    17ac:	07 c0       	rjmp	.+14     	; 0x17bc <ProcessInput+0x2a0>
    17ae:	24 e0       	ldi	r18, 0x04	; 4
    17b0:	41 e0       	ldi	r20, 0x01	; 1
    17b2:	6a e1       	ldi	r22, 0x1A	; 26
    17b4:	70 e0       	ldi	r23, 0x00	; 0
    17b6:	87 ec       	ldi	r24, 0xC7	; 199
    17b8:	9b e7       	ldi	r25, 0x7B	; 123
    17ba:	78 db       	rcall	.-2320   	; 0xeac <PrepareSending>
                    }
                }

                //Show current location
                reactStr[1][1]=0;
    17bc:	ed e8       	ldi	r30, 0x8D	; 141
    17be:	f8 e3       	ldi	r31, 0x38	; 56
    17c0:	12 8a       	std	Z+18, r1	; 0x12
    17c2:	13 8a       	std	Z+19, r1	; 0x13
                reactStr[2][1]=LOCATION;
    17c4:	85 e0       	ldi	r24, 0x05	; 5
    17c6:	90 e0       	ldi	r25, 0x00	; 0
    17c8:	82 a3       	std	Z+34, r24	; 0x22
    17ca:	93 a3       	std	Z+35, r25	; 0x23
                reactStr[1][2]=0;
    17cc:	14 8a       	std	Z+20, r1	; 0x14
    17ce:	15 8a       	std	Z+21, r1	; 0x15
                reactStr[2][2]=SPACE;
    17d0:	82 e0       	ldi	r24, 0x02	; 2
    17d2:	90 e0       	ldi	r25, 0x00	; 0
    17d4:	84 a3       	std	Z+36, r24	; 0x24
    17d6:	95 a3       	std	Z+37, r25	; 0x25
                reactStr[0][3]=currObj.addrStr[NAME];
    17d8:	af eb       	ldi	r26, 0xBF	; 191
    17da:	b8 e3       	ldi	r27, 0x38	; 56
    17dc:	1c 96       	adiw	r26, 0x0c	; 12
    17de:	8d 91       	ld	r24, X+
    17e0:	9c 91       	ld	r25, X
    17e2:	1d 97       	sbiw	r26, 0x0d	; 13
    17e4:	86 83       	std	Z+6, r24	; 0x06
    17e6:	97 83       	std	Z+7, r25	; 0x07
                reactStr[1][3]=currObj.lenStr[NAME];
    17e8:	5a 96       	adiw	r26, 0x1a	; 26
    17ea:	8d 91       	ld	r24, X+
    17ec:	9c 91       	ld	r25, X
    17ee:	5b 97       	sbiw	r26, 0x1b	; 27
    17f0:	86 8b       	std	Z+22, r24	; 0x16
    17f2:	97 8b       	std	Z+23, r25	; 0x17
                reactStr[2][3]=PROMPT;
    17f4:	81 e0       	ldi	r24, 0x01	; 1
    17f6:	90 e0       	ldi	r25, 0x00	; 0
    17f8:	86 a3       	std	Z+38, r24	; 0x26
    17fa:	97 a3       	std	Z+39, r25	; 0x27
                actionList = 3;
    17fc:	83 e0       	ldi	r24, 0x03	; 3
    17fe:	80 93 be 38 	sts	0x38BE, r24	; 0x8038be <actionList.3934>
                
            }
            
            //Input handled
            //data[0] = 0;
            serRxDone = 0;
    1802:	10 92 1c 38 	sts	0x381C, r1	; 0x80381c <serRxDone>
            RXCNT = 0;
    1806:	1d ba       	out	0x1d, r1	; 29
        }
    }
    return 0;
    1808:	06 c0       	rjmp	.+12     	; 0x1816 <ProcessInput+0x2fa>
                    }

                    //The candidate is found! Let's check if the action is legit
                    if (canDo) {
                        uint8_t bEnter = (data[0] == 'e');
                        if ((actObj1.byteField[ACTION_ACL]&(bEnter?ENTER:OPEN))==0) {
    180a:	90 ff       	sbrs	r25, 0
    180c:	8d cf       	rjmp	.-230    	; 0x1728 <ProcessInput+0x20c>
    180e:	99 cf       	rjmp	.-206    	; 0x1742 <ProcessInput+0x226>
    1810:	91 ff       	sbrs	r25, 1
    1812:	8f cf       	rjmp	.-226    	; 0x1732 <ProcessInput+0x216>
    1814:	96 cf       	rjmp	.-212    	; 0x1742 <ProcessInput+0x226>
            serRxDone = 0;
            RXCNT = 0;
        }
    }
    return 0;
}
    1816:	80 e0       	ldi	r24, 0x00	; 0
    1818:	df 91       	pop	r29
    181a:	cf 91       	pop	r28
    181c:	1f 91       	pop	r17
    181e:	0f 91       	pop	r16
    1820:	08 95       	ret

00001822 <TextAdventure>:


// Main game loop
uint8_t TextAdventure(){
    1822:	cf 93       	push	r28
    static uint8_t serInput[RXLEN];
    if (CheckSend()) return 1;                      //Still sending data to serial, return 1
    1824:	79 dd       	rcall	.-1294   	; 0x1318 <CheckSend>
    1826:	81 11       	cpse	r24, r1
    1828:	0b c0       	rjmp	.+22     	; 0x1840 <TextAdventure+0x1e>
    if (CheckInput(&serInput[0])) return 2;         //No valid input to process, return 2
    182a:	8d e1       	ldi	r24, 0x1D	; 29
    182c:	98 e3       	ldi	r25, 0x38	; 56
    182e:	f3 dd       	rcall	.-1050   	; 0x1416 <CheckInput>
    1830:	c8 2f       	mov	r28, r24
    1832:	81 11       	cpse	r24, r1
    1834:	07 c0       	rjmp	.+14     	; 0x1844 <TextAdventure+0x22>
    ProcessInput(&serInput[0]);                     //Check which response to generate and fill tx arrays
    1836:	8d e1       	ldi	r24, 0x1D	; 29
    1838:	98 e3       	ldi	r25, 0x38	; 56
    SaveGameState();                                //Check if things are changed, write to EEPROM
    183a:	70 de       	rcall	.-800    	; 0x151c <ProcessInput>
    183c:	d7 d9       	rcall	.-3154   	; 0xbec <SaveGameState>
    return 0;
    183e:	03 c0       	rjmp	.+6      	; 0x1846 <TextAdventure+0x24>


// Main game loop
uint8_t TextAdventure(){
    static uint8_t serInput[RXLEN];
    if (CheckSend()) return 1;                      //Still sending data to serial, return 1
    1840:	c1 e0       	ldi	r28, 0x01	; 1
    1842:	01 c0       	rjmp	.+2      	; 0x1846 <TextAdventure+0x24>
    if (CheckInput(&serInput[0])) return 2;         //No valid input to process, return 2
    1844:	c2 e0       	ldi	r28, 0x02	; 2
    ProcessInput(&serInput[0]);                     //Check which response to generate and fill tx arrays
    SaveGameState();                                //Check if things are changed, write to EEPROM
    return 0;
    1846:	8c 2f       	mov	r24, r28
    1848:	cf 91       	pop	r28
    184a:	08 95       	ret

0000184c <main>:




//This is where it begins, inits first and main program in while(1) loop.
int main(void)
    184c:	cf 93       	push	r28
    184e:	df 93       	push	r29
    1850:	cd b7       	in	r28, 0x3d	; 61
    1852:	de b7       	in	r29, 0x3e	; 62
    1854:	a4 97       	sbiw	r28, 0x24	; 36
    1856:	cd bf       	out	0x3d, r28	; 61
    1858:	de bf       	out	0x3e, r29	; 62
{
    185a:	0e 94 aa 01 	call	0x354	; 0x354 <Setup>
    Setup();
    185e:	40 e1       	ldi	r20, 0x10	; 16
    1860:	66 e4       	ldi	r22, 0x46	; 70
    1862:	79 e3       	ldi	r23, 0x39	; 57
    1864:	80 e0       	ldi	r24, 0x00	; 0
    1866:	63 d8       	rcall	.-3898   	; 0x92e <EERead>
    1868:	1e e6       	ldi	r17, 0x6E	; 110
    EERead(0, &gameState[0], 16);   //Load game status bits from EEPROM

    186a:	00 e0       	ldi	r16, 0x00	; 0
    uint8_t idSet = 0;
    for (uint8_t x=0; x<4; ++x){
    186c:	81 2f       	mov	r24, r17
    186e:	f7 d9       	rcall	.-3090   	; 0xc5e <ReadStatusBit>
    1870:	08 0f       	add	r16, r24
    1872:	1f 5f       	subi	r17, 0xFF	; 255
int main(void)
{
    Setup();
    EERead(0, &gameState[0], 16);   //Load game status bits from EEPROM

    uint8_t idSet = 0;
    1874:	12 37       	cpi	r17, 0x72	; 114
    1876:	d1 f7       	brne	.-12     	; 0x186c <main+0x20>
    for (uint8_t x=0; x<4; ++x){
        idSet += ReadStatusBit(110+x);
    }

    //idSet can be used to detect cheating. After cheating idSet will be 0, with a virgin badge idSet will be 3.
    1878:	01 30       	cpi	r16, 0x01	; 1
    if (idSet != 1) {
    187a:	09 f0       	breq	.+2      	; 0x187e <main+0x32>
        Reset();
    }

    187c:	31 da       	rcall	.-2974   	; 0xce0 <Reset>
    187e:	81 e0       	ldi	r24, 0x01	; 1
    1880:	c4 d8       	rcall	.-3704   	; 0xa0a <SerSpeed>
    SerSpeed(1);
    1882:	84 e2       	ldi	r24, 0x24	; 36
    1884:	e4 e7       	ldi	r30, 0x74	; 116
    1886:	f9 e9       	ldi	r31, 0x99	; 153
    1888:	de 01       	movw	r26, r28
    188a:	11 96       	adiw	r26, 0x01	; 1
    188c:	01 90       	ld	r0, Z+
    188e:	0d 92       	st	X+, r0
    1890:	8a 95       	dec	r24
    unsigned char strTest[]="\aHckerHotel2020 badge pest!\b\b\b\b\bt\n";
    1892:	e1 f7       	brne	.-8      	; 0x188c <main+0x40>
    1894:	ce 01       	movw	r24, r28
    1896:	01 96       	adiw	r24, 0x01	; 1
    SerSend(&strTest[0]);

    //uint8_t bla = 0;
    1898:	a6 d8       	rcall	.-3764   	; 0x9e6 <SerSend>
    189a:	8f ef       	ldi	r24, 0xFF	; 255
    189c:	b6 d8       	rcall	.-3732   	; 0xa0a <SerSpeed>
    SerSpeed(255);

    //Turn on LEDs on low setting to check for interrupt glitches
    189e:	80 e0       	ldi	r24, 0x00	; 0
    for (uint8_t n=0; n<40; n++){
        if ((n%8)>5) n+=2;
    18a0:	22 e0       	ldi	r18, 0x02	; 2
    18a2:	07 c0       	rjmp	.+14     	; 0x18b2 <main+0x66>

    //uint8_t bla = 0;
    SerSpeed(255);

    //Turn on LEDs on low setting to check for interrupt glitches
    for (uint8_t n=0; n<40; n++){
    18a4:	39 2f       	mov	r19, r25
    18a6:	37 70       	andi	r19, 0x07	; 7
    18a8:	36 30       	cpi	r19, 0x06	; 6
    18aa:	10 f0       	brcs	.+4      	; 0x18b0 <main+0x64>
    18ac:	93 e0       	ldi	r25, 0x03	; 3
    18ae:	98 0f       	add	r25, r24
//This is where it begins, inits first and main program in while(1) loop.
int main(void)
{
    Setup();
    EERead(0, &gameState[0], 16);   //Load game status bits from EEPROM

    18b0:	89 2f       	mov	r24, r25
    //uint8_t bla = 0;
    SerSpeed(255);

    //Turn on LEDs on low setting to check for interrupt glitches
    for (uint8_t n=0; n<40; n++){
        if ((n%8)>5) n+=2;
    18b2:	88 32       	cpi	r24, 0x28	; 40
    18b4:	28 f4       	brcc	.+10     	; 0x18c0 <main+0x74>
    18b6:	e8 2f       	mov	r30, r24
    18b8:	f0 e0       	ldi	r31, 0x00	; 0
    18ba:	e8 53       	subi	r30, 0x38	; 56
    18bc:	f6 4c       	sbci	r31, 0xC6	; 198
    SerSend(&strTest[0]);

    //uint8_t bla = 0;
    SerSpeed(255);

    //Turn on LEDs on low setting to check for interrupt glitches
    18be:	20 83       	st	Z, r18
    18c0:	91 e0       	ldi	r25, 0x01	; 1
    18c2:	98 0f       	add	r25, r24
    18c4:	98 32       	cpi	r25, 0x28	; 40
    }



    while (1)
    {
    18c6:	70 f3       	brcs	.-36     	; 0x18a4 <main+0x58>
        GenerateAudio();

    18c8:	41 da       	rcall	.-2942   	; 0xd4c <GenerateAudio>
    18ca:	80 91 1a 38 	lds	r24, 0x381A	; 0x80381a <buttonMark>
    18ce:	88 23       	and	r24, r24
        if (buttonMark){
    18d0:	d9 f3       	breq	.-10     	; 0x18c8 <main+0x7c>
    18d2:	80 91 44 39 	lds	r24, 0x3944	; 0x803944 <buttonState>
    18d6:	aa d8       	rcall	.-3756   	; 0xa2c <CheckButtons>
    18d8:	80 93 44 39 	sts	0x3944, r24	; 0x803944 <buttonState>
            buttonState = CheckButtons(buttonState);
    18dc:	10 92 1a 38 	sts	0x381A, r1	; 0x80381a <buttonMark>
            BastetDictates();
            //MasterMind-ishThing(); //Not sure if to be implemented
            //LanyardCode();
            //MakeFriends();
             
            //Check light sensor status (added hysteresis to preserve writing cycles to internal EEPROM)
    18e0:	a0 df       	rcall	.-192    	; 0x1822 <TextAdventure>
    18e2:	80 91 a5 39 	lds	r24, 0x39A5	; 0x8039a5 <adcPhot>
    18e6:	90 91 a6 39 	lds	r25, 0x39A6	; 0x8039a6 <adcPhot+0x1>
    18ea:	0a 97       	sbiw	r24, 0x0a	; 10
    18ec:	18 f4       	brcc	.+6      	; 0x18f4 <main+0xa8>
    18ee:	61 e0       	ldi	r22, 0x01	; 1
    18f0:	84 e7       	ldi	r24, 0x74	; 116
            if (adcPhot < 10) WriteStatusBit(116, 1);
    18f2:	c9 d9       	rcall	.-3182   	; 0xc86 <WriteStatusBit>
    18f4:	80 91 a5 39 	lds	r24, 0x39A5	; 0x8039a5 <adcPhot>
    18f8:	90 91 a6 39 	lds	r25, 0x39A6	; 0x8039a6 <adcPhot+0x1>
    18fc:	85 36       	cpi	r24, 0x65	; 101
    18fe:	91 05       	cpc	r25, r1
    1900:	18 f3       	brcs	.-58     	; 0x18c8 <main+0x7c>
    1902:	60 e0       	ldi	r22, 0x00	; 0
    1904:	84 e7       	ldi	r24, 0x74	; 116
    1906:	bf d9       	rcall	.-3202   	; 0xc86 <WriteStatusBit>
    1908:	df cf       	rjmp	.-66     	; 0x18c8 <main+0x7c>

0000190a <__udivmodhi4>:
    190a:	aa 1b       	sub	r26, r26
    190c:	bb 1b       	sub	r27, r27
    190e:	51 e1       	ldi	r21, 0x11	; 17
    1910:	07 c0       	rjmp	.+14     	; 0x1920 <__udivmodhi4_ep>

00001912 <__udivmodhi4_loop>:
    1912:	aa 1f       	adc	r26, r26
    1914:	bb 1f       	adc	r27, r27
    1916:	a6 17       	cp	r26, r22
    1918:	b7 07       	cpc	r27, r23
    191a:	10 f0       	brcs	.+4      	; 0x1920 <__udivmodhi4_ep>
    191c:	a6 1b       	sub	r26, r22
    191e:	b7 0b       	sbc	r27, r23

00001920 <__udivmodhi4_ep>:
    1920:	88 1f       	adc	r24, r24
    1922:	99 1f       	adc	r25, r25
    1924:	5a 95       	dec	r21
    1926:	a9 f7       	brne	.-22     	; 0x1912 <__udivmodhi4_loop>
    1928:	80 95       	com	r24
    192a:	90 95       	com	r25
    192c:	bc 01       	movw	r22, r24
    192e:	cd 01       	movw	r24, r26
    1930:	08 95       	ret

00001932 <__umulhisi3>:
    1932:	a2 9f       	mul	r26, r18
    1934:	b0 01       	movw	r22, r0
    1936:	b3 9f       	mul	r27, r19
    1938:	c0 01       	movw	r24, r0
    193a:	a3 9f       	mul	r26, r19
    193c:	70 0d       	add	r23, r0
    193e:	81 1d       	adc	r24, r1
    1940:	11 24       	eor	r1, r1
    1942:	91 1d       	adc	r25, r1
    1944:	b2 9f       	mul	r27, r18
    1946:	70 0d       	add	r23, r0
    1948:	81 1d       	adc	r24, r1
    194a:	11 24       	eor	r1, r1
    194c:	91 1d       	adc	r25, r1
    194e:	08 95       	ret

00001950 <_exit>:
    1950:	f8 94       	cli

00001952 <__stop_program>:
    1952:	ff cf       	rjmp	.-2      	; 0x1952 <__stop_program>
