
ISR_IO.elf:     file format elf32-avr

Sections:
Idx Name          Size      VMA       LMA       File off  Algn
  0 .data         00000002  00803800  0000104a  000010fe  2**0
                  CONTENTS, ALLOC, LOAD, DATA
  1 .text         00000ffa  00000000  00000000  000000b4  2**1
                  CONTENTS, ALLOC, LOAD, READONLY, CODE
  2 .rodata       00000050  00008ffa  00000ffa  000010ae  2**0
                  CONTENTS, ALLOC, LOAD, READONLY, DATA
  3 .bss          000000eb  00803802  00803802  00001100  2**0
                  ALLOC
  4 .comment      00000030  00000000  00000000  00001100  2**0
                  CONTENTS, READONLY
  5 .note.gnu.avr.deviceinfo 00000040  00000000  00000000  00001130  2**2
                  CONTENTS, READONLY
  6 .debug_aranges 000001c0  00000000  00000000  00001170  2**0
                  CONTENTS, READONLY, DEBUGGING
  7 .debug_info   00003695  00000000  00000000  00001330  2**0
                  CONTENTS, READONLY, DEBUGGING
  8 .debug_abbrev 00002166  00000000  00000000  000049c5  2**0
                  CONTENTS, READONLY, DEBUGGING
  9 .debug_line   0000176c  00000000  00000000  00006b2b  2**0
                  CONTENTS, READONLY, DEBUGGING
 10 .debug_frame  0000054c  00000000  00000000  00008298  2**2
                  CONTENTS, READONLY, DEBUGGING
 11 .debug_str    00001530  00000000  00000000  000087e4  2**0
                  CONTENTS, READONLY, DEBUGGING
 12 .debug_loc    00001695  00000000  00000000  00009d14  2**0
                  CONTENTS, READONLY, DEBUGGING
 13 .debug_ranges 000001c0  00000000  00000000  0000b3a9  2**0
                  CONTENTS, READONLY, DEBUGGING

Disassembly of section .text:

00000000 <__vectors>:
   0:	3d c0       	rjmp	.+122    	; 0x7c <__ctors_end>
   2:	00 00       	nop
   4:	56 c0       	rjmp	.+172    	; 0xb2 <__bad_interrupt>
   6:	00 00       	nop
   8:	54 c0       	rjmp	.+168    	; 0xb2 <__bad_interrupt>
   a:	00 00       	nop
   c:	52 c0       	rjmp	.+164    	; 0xb2 <__bad_interrupt>
   e:	00 00       	nop
  10:	50 c0       	rjmp	.+160    	; 0xb2 <__bad_interrupt>
  12:	00 00       	nop
  14:	4e c0       	rjmp	.+156    	; 0xb2 <__bad_interrupt>
  16:	00 00       	nop
  18:	49 c4       	rjmp	.+2194   	; 0x8ac <__vector_6>
  1a:	00 00       	nop
  1c:	9b c4       	rjmp	.+2358   	; 0x954 <__vector_7>
  1e:	00 00       	nop
  20:	c1 c2       	rjmp	.+1410   	; 0x5a4 <__vector_8>
  22:	00 00       	nop
  24:	46 c0       	rjmp	.+140    	; 0xb2 <__bad_interrupt>
  26:	00 00       	nop
  28:	44 c0       	rjmp	.+136    	; 0xb2 <__bad_interrupt>
  2a:	00 00       	nop
  2c:	42 c0       	rjmp	.+132    	; 0xb2 <__bad_interrupt>
  2e:	00 00       	nop
  30:	40 c0       	rjmp	.+128    	; 0xb2 <__bad_interrupt>
  32:	00 00       	nop
  34:	0b c3       	rjmp	.+1558   	; 0x64c <__vector_13>
  36:	00 00       	nop
  38:	3c c3       	rjmp	.+1656   	; 0x6b2 <__vector_14>
  3a:	00 00       	nop
  3c:	3a c0       	rjmp	.+116    	; 0xb2 <__bad_interrupt>
  3e:	00 00       	nop
  40:	38 c0       	rjmp	.+112    	; 0xb2 <__bad_interrupt>
  42:	00 00       	nop
  44:	36 c0       	rjmp	.+108    	; 0xb2 <__bad_interrupt>
  46:	00 00       	nop
  48:	34 c0       	rjmp	.+104    	; 0xb2 <__bad_interrupt>
  4a:	00 00       	nop
  4c:	32 c0       	rjmp	.+100    	; 0xb2 <__bad_interrupt>
  4e:	00 00       	nop
  50:	af c3       	rjmp	.+1886   	; 0x7b0 <__vector_20>
  52:	00 00       	nop
  54:	2e c0       	rjmp	.+92     	; 0xb2 <__bad_interrupt>
  56:	00 00       	nop
  58:	d9 c3       	rjmp	.+1970   	; 0x80c <__vector_22>
  5a:	00 00       	nop
  5c:	2a c0       	rjmp	.+84     	; 0xb2 <__bad_interrupt>
  5e:	00 00       	nop
  60:	28 c0       	rjmp	.+80     	; 0xb2 <__bad_interrupt>
  62:	00 00       	nop
  64:	26 c0       	rjmp	.+76     	; 0xb2 <__bad_interrupt>
  66:	00 00       	nop
  68:	24 c0       	rjmp	.+72     	; 0xb2 <__bad_interrupt>
  6a:	00 00       	nop
  6c:	51 c3       	rjmp	.+1698   	; 0x710 <__vector_27>
  6e:	00 00       	nop
  70:	83 c3       	rjmp	.+1798   	; 0x778 <__vector_28>
  72:	00 00       	nop
  74:	1e c0       	rjmp	.+60     	; 0xb2 <__bad_interrupt>
  76:	00 00       	nop
  78:	1c c0       	rjmp	.+56     	; 0xb2 <__bad_interrupt>
	...

0000007c <__ctors_end>:
  7c:	11 24       	eor	r1, r1
  7e:	1f be       	out	0x3f, r1	; 63
  80:	cf ef       	ldi	r28, 0xFF	; 255
  82:	cd bf       	out	0x3d, r28	; 61
  84:	df e3       	ldi	r29, 0x3F	; 63
  86:	de bf       	out	0x3e, r29	; 62

00000088 <__do_copy_data>:
  88:	18 e3       	ldi	r17, 0x38	; 56
  8a:	a0 e0       	ldi	r26, 0x00	; 0
  8c:	b8 e3       	ldi	r27, 0x38	; 56
  8e:	ea e4       	ldi	r30, 0x4A	; 74
  90:	f0 e1       	ldi	r31, 0x10	; 16
  92:	02 c0       	rjmp	.+4      	; 0x98 <__do_copy_data+0x10>
  94:	05 90       	lpm	r0, Z+
  96:	0d 92       	st	X+, r0
  98:	a2 30       	cpi	r26, 0x02	; 2
  9a:	b1 07       	cpc	r27, r17
  9c:	d9 f7       	brne	.-10     	; 0x94 <__do_copy_data+0xc>

0000009e <__do_clear_bss>:
  9e:	28 e3       	ldi	r18, 0x38	; 56
  a0:	a2 e0       	ldi	r26, 0x02	; 2
  a2:	b8 e3       	ldi	r27, 0x38	; 56
  a4:	01 c0       	rjmp	.+2      	; 0xa8 <.do_clear_bss_start>

000000a6 <.do_clear_bss_loop>:
  a6:	1d 92       	st	X+, r1

000000a8 <.do_clear_bss_start>:
  a8:	ad 3e       	cpi	r26, 0xED	; 237
  aa:	b2 07       	cpc	r27, r18
  ac:	e1 f7       	brne	.-8      	; 0xa6 <.do_clear_bss_loop>
  ae:	c4 d6       	rcall	.+3464   	; 0xe38 <main>
  b0:	a2 c7       	rjmp	.+3908   	; 0xff6 <_exit>

000000b2 <__bad_interrupt>:
  b2:	a6 cf       	rjmp	.-180    	; 0x0 <__vectors>

000000b4 <I2C_init>:
// the Atmel device documentation mentions a special command for repeated start TWI_MCMD_REPSTART_gc,
// but this is not used in Atmel's demo code, so we don't use it either

void I2C_rep_start(uint8_t shifted_addr)						    // send repeated start, device_addr + LSB set if READ
{
	TWI0.MADDR = shifted_addr;	
  b4:	81 e0       	ldi	r24, 0x01	; 1
  b6:	80 93 22 04 	sts	0x0422, r24	; 0x800422 <__TEXT_REGION_LENGTH__+0x700422>
  ba:	e6 e2       	ldi	r30, 0x26	; 38
  bc:	f4 e0       	ldi	r31, 0x04	; 4
  be:	80 83       	st	Z, r24
  c0:	10 92 30 04 	sts	0x0430, r1	; 0x800430 <__TEXT_REGION_LENGTH__+0x700430>
  c4:	a1 e2       	ldi	r26, 0x21	; 33
  c6:	b4 e0       	ldi	r27, 0x04	; 4
  c8:	92 e0       	ldi	r25, 0x02	; 2
  ca:	9c 93       	st	X, r25
  cc:	90 83       	st	Z, r25
  ce:	10 92 31 04 	sts	0x0431, r1	; 0x800431 <__TEXT_REGION_LENGTH__+0x700431>
  d2:	e0 e1       	ldi	r30, 0x10	; 16
  d4:	f8 e0       	ldi	r31, 0x08	; 8
  d6:	9d e2       	ldi	r25, 0x2D	; 45
  d8:	96 83       	std	Z+6, r25	; 0x06
  da:	98 e0       	ldi	r25, 0x08	; 8
  dc:	94 83       	std	Z+4, r25	; 0x04
  de:	83 83       	std	Z+3, r24	; 0x03
  e0:	8c 93       	st	X, r24
  e2:	85 81       	ldd	r24, Z+5	; 0x05
  e4:	81 60       	ori	r24, 0x01	; 1
  e6:	85 83       	std	Z+5, r24	; 0x05
  e8:	85 81       	ldd	r24, Z+5	; 0x05
  ea:	84 6c       	ori	r24, 0xC4	; 196
  ec:	85 83       	std	Z+5, r24	; 0x05
  ee:	08 95       	ret

000000f0 <I2C_recover>:
  f0:	e0 e1       	ldi	r30, 0x10	; 16
  f2:	f8 e0       	ldi	r31, 0x08	; 8
  f4:	84 81       	ldd	r24, Z+4	; 0x04
  f6:	88 60       	ori	r24, 0x08	; 8
  f8:	84 83       	std	Z+4, r24	; 0x04
  fa:	13 82       	std	Z+3, r1	; 0x03
  fc:	82 e0       	ldi	r24, 0x02	; 2
  fe:	80 93 22 04 	sts	0x0422, r24	; 0x800422 <__TEXT_REGION_LENGTH__+0x700422>
 102:	89 e0       	ldi	r24, 0x09	; 9
 104:	a1 e2       	ldi	r26, 0x21	; 33
 106:	b4 e0       	ldi	r27, 0x04	; 4
 108:	91 e0       	ldi	r25, 0x01	; 1
 10a:	e2 e2       	ldi	r30, 0x22	; 34
 10c:	f4 e0       	ldi	r31, 0x04	; 4
 10e:	9c 93       	st	X, r25
 110:	20 e1       	ldi	r18, 0x10	; 16
 112:	2a 95       	dec	r18
 114:	f1 f7       	brne	.-4      	; 0x112 <I2C_recover+0x22>
 116:	00 c0       	rjmp	.+0      	; 0x118 <I2C_recover+0x28>
 118:	90 83       	st	Z, r25
 11a:	20 e1       	ldi	r18, 0x10	; 16
 11c:	2a 95       	dec	r18
 11e:	f1 f7       	brne	.-4      	; 0x11c <I2C_recover+0x2c>
 120:	00 c0       	rjmp	.+0      	; 0x122 <I2C_recover+0x32>
 122:	81 50       	subi	r24, 0x01	; 1
 124:	a1 f7       	brne	.-24     	; 0x10e <I2C_recover+0x1e>
 126:	e0 e1       	ldi	r30, 0x10	; 16
 128:	f8 e0       	ldi	r31, 0x08	; 8
 12a:	28 e0       	ldi	r18, 0x08	; 8
 12c:	24 83       	std	Z+4, r18	; 0x04
 12e:	81 e0       	ldi	r24, 0x01	; 1
 130:	83 83       	std	Z+3, r24	; 0x03
 132:	a1 e2       	ldi	r26, 0x21	; 33
 134:	b4 e0       	ldi	r27, 0x04	; 4
 136:	92 e0       	ldi	r25, 0x02	; 2
 138:	9c 93       	st	X, r25
 13a:	95 81       	ldd	r25, Z+5	; 0x05
 13c:	91 60       	ori	r25, 0x01	; 1
 13e:	95 83       	std	Z+5, r25	; 0x05
 140:	95 81       	ldd	r25, Z+5	; 0x05
 142:	94 6c       	ori	r25, 0xC4	; 196
 144:	95 83       	std	Z+5, r25	; 0x05
 146:	24 83       	std	Z+4, r18	; 0x04
 148:	83 83       	std	Z+3, r24	; 0x03
 14a:	8c 93       	st	X, r24
 14c:	85 81       	ldd	r24, Z+5	; 0x05
 14e:	81 60       	ori	r24, 0x01	; 1
 150:	85 83       	std	Z+5, r24	; 0x05
 152:	85 81       	ldd	r24, Z+5	; 0x05
 154:	84 6c       	ori	r24, 0xC4	; 196
 156:	85 83       	std	Z+5, r24	; 0x05
 158:	08 95       	ret

0000015a <I2C_start>:
 15a:	28 2f       	mov	r18, r24
 15c:	e0 e1       	ldi	r30, 0x10	; 16
 15e:	f8 e0       	ldi	r31, 0x08	; 8
 160:	95 81       	ldd	r25, Z+5	; 0x05
 162:	90 6c       	ori	r25, 0xC0	; 192
 164:	95 83       	std	Z+5, r25	; 0x05
 166:	95 81       	ldd	r25, Z+5	; 0x05
 168:	89 2f       	mov	r24, r25
 16a:	84 70       	andi	r24, 0x04	; 4
 16c:	92 fd       	sbrc	r25, 2
 16e:	03 c0       	rjmp	.+6      	; 0x176 <I2C_start+0x1c>
 170:	20 93 17 08 	sts	0x0817, r18	; 0x800817 <__TEXT_REGION_LENGTH__+0x700817>
 174:	08 95       	ret
 176:	84 e0       	ldi	r24, 0x04	; 4
 178:	08 95       	ret

0000017a <I2C_wait_ACK>:
 17a:	8c e0       	ldi	r24, 0x0C	; 12
 17c:	80 93 20 38 	sts	0x3820, r24	; 0x803820 <timeout_I2C>
 180:	e0 e1       	ldi	r30, 0x10	; 16
 182:	f8 e0       	ldi	r31, 0x08	; 8
 184:	04 c0       	rjmp	.+8      	; 0x18e <I2C_wait_ACK+0x14>
 186:	80 91 20 38 	lds	r24, 0x3820	; 0x803820 <timeout_I2C>
 18a:	88 23       	and	r24, r24
 18c:	b9 f0       	breq	.+46     	; 0x1bc <I2C_wait_ACK+0x42>
 18e:	85 81       	ldd	r24, Z+5	; 0x05
 190:	88 23       	and	r24, r24
 192:	1c f0       	brlt	.+6      	; 0x19a <I2C_wait_ACK+0x20>
 194:	85 81       	ldd	r24, Z+5	; 0x05
 196:	86 ff       	sbrs	r24, 6
 198:	f6 cf       	rjmp	.-20     	; 0x186 <I2C_wait_ACK+0xc>
 19a:	e0 e1       	ldi	r30, 0x10	; 16
 19c:	f8 e0       	ldi	r31, 0x08	; 8
 19e:	85 81       	ldd	r24, Z+5	; 0x05
 1a0:	80 6c       	ori	r24, 0xC0	; 192
 1a2:	85 83       	std	Z+5, r24	; 0x05
 1a4:	85 81       	ldd	r24, Z+5	; 0x05
 1a6:	82 fd       	sbrc	r24, 2
 1a8:	0b c0       	rjmp	.+22     	; 0x1c0 <I2C_wait_ACK+0x46>
 1aa:	80 91 15 08 	lds	r24, 0x0815	; 0x800815 <__TEXT_REGION_LENGTH__+0x700815>
 1ae:	83 fd       	sbrc	r24, 3
 1b0:	09 c0       	rjmp	.+18     	; 0x1c4 <I2C_wait_ACK+0x4a>
 1b2:	80 91 15 08 	lds	r24, 0x0815	; 0x800815 <__TEXT_REGION_LENGTH__+0x700815>
 1b6:	82 95       	swap	r24
 1b8:	81 70       	andi	r24, 0x01	; 1
 1ba:	08 95       	ret
 1bc:	8f ef       	ldi	r24, 0xFF	; 255
 1be:	08 95       	ret
 1c0:	84 e0       	ldi	r24, 0x04	; 4
 1c2:	08 95       	ret
 1c4:	82 e0       	ldi	r24, 0x02	; 2
 1c6:	08 95       	ret

000001c8 <I2C_read>:
}

uint8_t	I2C_read(uint8_t *data, uint8_t ack_flag)					// read data, ack_flag 0: send ACK, 1: send NACK, returns status
{
 1c8:	dc 01       	movw	r26, r24
	timeout_I2C = READ_TIMEOUT;										// reset timeout counter, will be decremented by LED matrix interrupt
 1ca:	9c e0       	ldi	r25, 0x0C	; 12
 1cc:	90 93 20 38 	sts	0x3820, r25	; 0x803820 <timeout_I2C>
	if ((TWI0.MSTATUS & TWI_BUSSTATE_gm) == TWI_BUSSTATE_OWNER_gc)	// if master controls bus
 1d0:	90 91 15 08 	lds	r25, 0x0815	; 0x800815 <__TEXT_REGION_LENGTH__+0x700815>
 1d4:	89 2f       	mov	r24, r25
 1d6:	83 70       	andi	r24, 0x03	; 3
 1d8:	82 30       	cpi	r24, 0x02	; 2
 1da:	39 f0       	breq	.+14     	; 0x1ea <I2C_read+0x22>
		else		TWI0.MCTRLB |= TWI_ACKACT_NACK_gc;				// setup NACK (last byte read)
		*data = TWI0.MDATA;
		if (ack_flag == 0) TWI0.MCTRLB |= TWI_MCMD_RECVTRANS_gc;	// send ACK, more bytes to follow					
		return 0;
	}
	else return 8;													// master does not control bus
 1dc:	88 e0       	ldi	r24, 0x08	; 8
 1de:	08 95       	ret
	timeout_I2C = READ_TIMEOUT;										// reset timeout counter, will be decremented by LED matrix interrupt
	if ((TWI0.MSTATUS & TWI_BUSSTATE_gm) == TWI_BUSSTATE_OWNER_gc)	// if master controls bus
	{		
		while (!(TWI0.MSTATUS & TWI_RIF_bm))						// wait for RIF set (data byte received)
		{
			if (!(timeout_I2C)) return 0xff;			            // return timeout error
 1e0:	90 91 20 38 	lds	r25, 0x3820	; 0x803820 <timeout_I2C>
 1e4:	91 11       	cpse	r25, r1
 1e6:	03 c0       	rjmp	.+6      	; 0x1ee <I2C_read+0x26>
 1e8:	2a c0       	rjmp	.+84     	; 0x23e <I2C_read+0x76>
uint8_t	I2C_read(uint8_t *data, uint8_t ack_flag)					// read data, ack_flag 0: send ACK, 1: send NACK, returns status
{
	timeout_I2C = READ_TIMEOUT;										// reset timeout counter, will be decremented by LED matrix interrupt
	if ((TWI0.MSTATUS & TWI_BUSSTATE_gm) == TWI_BUSSTATE_OWNER_gc)	// if master controls bus
	{		
		while (!(TWI0.MSTATUS & TWI_RIF_bm))						// wait for RIF set (data byte received)
 1ea:	e0 e1       	ldi	r30, 0x10	; 16
 1ec:	f8 e0       	ldi	r31, 0x08	; 8
 1ee:	95 81       	ldd	r25, Z+5	; 0x05
 1f0:	99 23       	and	r25, r25
 1f2:	b4 f7       	brge	.-20     	; 0x1e0 <I2C_read+0x18>
		{
			if (!(timeout_I2C)) return 0xff;			            // return timeout error
		}
		TWI0.MSTATUS |= (TWI_RIF_bm | TWI_WIF_bm);					// clear Read and Write interrupt flags	
 1f4:	e0 e1       	ldi	r30, 0x10	; 16
 1f6:	f8 e0       	ldi	r31, 0x08	; 8
 1f8:	95 81       	ldd	r25, Z+5	; 0x05
 1fa:	90 6c       	ori	r25, 0xC0	; 192
 1fc:	95 83       	std	Z+5, r25	; 0x05
		if (TWI0.MSTATUS & TWI_BUSERR_bm) return 4;					// Bus Error, abort
 1fe:	95 81       	ldd	r25, Z+5	; 0x05
 200:	92 fd       	sbrc	r25, 2
 202:	1f c0       	rjmp	.+62     	; 0x242 <I2C_read+0x7a>
		if (TWI0.MSTATUS & TWI_ARBLOST_bm) return 2;				// Arbitration Lost, abort
 204:	90 91 15 08 	lds	r25, 0x0815	; 0x800815 <__TEXT_REGION_LENGTH__+0x700815>
 208:	93 fd       	sbrc	r25, 3
 20a:	1e c0       	rjmp	.+60     	; 0x248 <I2C_read+0x80>
		if (TWI0.MSTATUS & TWI_RXACK_bm) return 1;					// Slave replied with NACK, abort				
 20c:	90 91 15 08 	lds	r25, 0x0815	; 0x800815 <__TEXT_REGION_LENGTH__+0x700815>
 210:	89 2f       	mov	r24, r25
 212:	80 71       	andi	r24, 0x10	; 16
 214:	94 fd       	sbrc	r25, 4
 216:	17 c0       	rjmp	.+46     	; 0x246 <I2C_read+0x7e>
		if (ack_flag == 0) TWI0.MCTRLB &= ~(1 << TWI_ACKACT_bp);	// setup ACK
 218:	61 11       	cpse	r22, r1
 21a:	09 c0       	rjmp	.+18     	; 0x22e <I2C_read+0x66>
 21c:	94 81       	ldd	r25, Z+4	; 0x04
 21e:	9b 7f       	andi	r25, 0xFB	; 251
 220:	94 83       	std	Z+4, r25	; 0x04
		else		TWI0.MCTRLB |= TWI_ACKACT_NACK_gc;				// setup NACK (last byte read)
		*data = TWI0.MDATA;
 222:	90 85       	ldd	r25, Z+8	; 0x08
 224:	9c 93       	st	X, r25
		if (ack_flag == 0) TWI0.MCTRLB |= TWI_MCMD_RECVTRANS_gc;	// send ACK, more bytes to follow					
 226:	94 81       	ldd	r25, Z+4	; 0x04
 228:	92 60       	ori	r25, 0x02	; 2
 22a:	94 83       	std	Z+4, r25	; 0x04
 22c:	08 95       	ret
		TWI0.MSTATUS |= (TWI_RIF_bm | TWI_WIF_bm);					// clear Read and Write interrupt flags	
		if (TWI0.MSTATUS & TWI_BUSERR_bm) return 4;					// Bus Error, abort
		if (TWI0.MSTATUS & TWI_ARBLOST_bm) return 2;				// Arbitration Lost, abort
		if (TWI0.MSTATUS & TWI_RXACK_bm) return 1;					// Slave replied with NACK, abort				
		if (ack_flag == 0) TWI0.MCTRLB &= ~(1 << TWI_ACKACT_bp);	// setup ACK
		else		TWI0.MCTRLB |= TWI_ACKACT_NACK_gc;				// setup NACK (last byte read)
 22e:	e0 e1       	ldi	r30, 0x10	; 16
 230:	f8 e0       	ldi	r31, 0x08	; 8
 232:	94 81       	ldd	r25, Z+4	; 0x04
 234:	94 60       	ori	r25, 0x04	; 4
 236:	94 83       	std	Z+4, r25	; 0x04
		*data = TWI0.MDATA;
 238:	90 85       	ldd	r25, Z+8	; 0x08
 23a:	9c 93       	st	X, r25
 23c:	08 95       	ret
	timeout_I2C = READ_TIMEOUT;										// reset timeout counter, will be decremented by LED matrix interrupt
	if ((TWI0.MSTATUS & TWI_BUSSTATE_gm) == TWI_BUSSTATE_OWNER_gc)	// if master controls bus
	{		
		while (!(TWI0.MSTATUS & TWI_RIF_bm))						// wait for RIF set (data byte received)
		{
			if (!(timeout_I2C)) return 0xff;			            // return timeout error
 23e:	8f ef       	ldi	r24, 0xFF	; 255
 240:	08 95       	ret
		}
		TWI0.MSTATUS |= (TWI_RIF_bm | TWI_WIF_bm);					// clear Read and Write interrupt flags	
		if (TWI0.MSTATUS & TWI_BUSERR_bm) return 4;					// Bus Error, abort
 242:	84 e0       	ldi	r24, 0x04	; 4
 244:	08 95       	ret
		if (TWI0.MSTATUS & TWI_ARBLOST_bm) return 2;				// Arbitration Lost, abort
		if (TWI0.MSTATUS & TWI_RXACK_bm) return 1;					// Slave replied with NACK, abort				
 246:	81 e0       	ldi	r24, 0x01	; 1
		*data = TWI0.MDATA;
		if (ack_flag == 0) TWI0.MCTRLB |= TWI_MCMD_RECVTRANS_gc;	// send ACK, more bytes to follow					
		return 0;
	}
	else return 8;													// master does not control bus
}
 248:	08 95       	ret

0000024a <I2C_write>:

uint8_t I2C_write(uint8_t *data)									// write data, return status
{
 24a:	fc 01       	movw	r30, r24
	timeout_I2C = WRITE_TIMEOUT;									// reset timeout counter, will be decremented by LED matrix interrupt
 24c:	9c e0       	ldi	r25, 0x0C	; 12
 24e:	90 93 20 38 	sts	0x3820, r25	; 0x803820 <timeout_I2C>
	if ((TWI0.MSTATUS & TWI_BUSSTATE_gm) == TWI_BUSSTATE_OWNER_gc)	// if master controls bus
 252:	90 91 15 08 	lds	r25, 0x0815	; 0x800815 <__TEXT_REGION_LENGTH__+0x700815>
 256:	93 70       	andi	r25, 0x03	; 3
 258:	92 30       	cpi	r25, 0x02	; 2
 25a:	b1 f4       	brne	.+44     	; 0x288 <I2C_write+0x3e>
	{
		TWI0.MDATA = *data;		
 25c:	80 81       	ld	r24, Z
 25e:	80 93 18 08 	sts	0x0818, r24	; 0x800818 <__TEXT_REGION_LENGTH__+0x700818>
		while (!(TWI0.MSTATUS & TWI_WIF_bm))						// wait until WIF set, status register contains ACK/NACK bit
 262:	e0 e1       	ldi	r30, 0x10	; 16
 264:	f8 e0       	ldi	r31, 0x08	; 8
 266:	04 c0       	rjmp	.+8      	; 0x270 <I2C_write+0x26>
		{
			if (!(timeout_I2C)) return 0xff;			            // return timeout error
 268:	80 91 20 38 	lds	r24, 0x3820	; 0x803820 <timeout_I2C>
 26c:	88 23       	and	r24, r24
 26e:	71 f0       	breq	.+28     	; 0x28c <I2C_write+0x42>
{
	timeout_I2C = WRITE_TIMEOUT;									// reset timeout counter, will be decremented by LED matrix interrupt
	if ((TWI0.MSTATUS & TWI_BUSSTATE_gm) == TWI_BUSSTATE_OWNER_gc)	// if master controls bus
	{
		TWI0.MDATA = *data;		
		while (!(TWI0.MSTATUS & TWI_WIF_bm))						// wait until WIF set, status register contains ACK/NACK bit
 270:	85 81       	ldd	r24, Z+5	; 0x05
 272:	86 ff       	sbrs	r24, 6
 274:	f9 cf       	rjmp	.-14     	; 0x268 <I2C_write+0x1e>
		{
			if (!(timeout_I2C)) return 0xff;			            // return timeout error
		}
		if (TWI0.MSTATUS & TWI_BUSERR_bm) return 4;					// Bus Error, abort
 276:	80 91 15 08 	lds	r24, 0x0815	; 0x800815 <__TEXT_REGION_LENGTH__+0x700815>
 27a:	82 fd       	sbrc	r24, 2
 27c:	09 c0       	rjmp	.+18     	; 0x290 <I2C_write+0x46>
		if (TWI0.MSTATUS & TWI_RXACK_bm) return 1;					// Slave replied with NACK, abort
 27e:	80 91 15 08 	lds	r24, 0x0815	; 0x800815 <__TEXT_REGION_LENGTH__+0x700815>
	if ((TWI0.MSTATUS & TWI_BUSSTATE_gm) == TWI_BUSSTATE_OWNER_gc)	// if master controls bus
	{
		TWI0.MDATA = *data;		
		while (!(TWI0.MSTATUS & TWI_WIF_bm))						// wait until WIF set, status register contains ACK/NACK bit
		{
			if (!(timeout_I2C)) return 0xff;			            // return timeout error
 282:	82 95       	swap	r24
 284:	81 70       	andi	r24, 0x01	; 1
 286:	08 95       	ret
		}
		if (TWI0.MSTATUS & TWI_BUSERR_bm) return 4;					// Bus Error, abort
		if (TWI0.MSTATUS & TWI_RXACK_bm) return 1;					// Slave replied with NACK, abort
		return 0;													// no error	
	}
	else return 8;													// master does not control bus
 288:	88 e0       	ldi	r24, 0x08	; 8
 28a:	08 95       	ret
	if ((TWI0.MSTATUS & TWI_BUSSTATE_gm) == TWI_BUSSTATE_OWNER_gc)	// if master controls bus
	{
		TWI0.MDATA = *data;		
		while (!(TWI0.MSTATUS & TWI_WIF_bm))						// wait until WIF set, status register contains ACK/NACK bit
		{
			if (!(timeout_I2C)) return 0xff;			            // return timeout error
 28c:	8f ef       	ldi	r24, 0xFF	; 255
 28e:	08 95       	ret
		}
		if (TWI0.MSTATUS & TWI_BUSERR_bm) return 4;					// Bus Error, abort
 290:	84 e0       	ldi	r24, 0x04	; 4
		if (TWI0.MSTATUS & TWI_RXACK_bm) return 1;					// Slave replied with NACK, abort
		return 0;													// no error	
	}
	else return 8;													// master does not control bus
}
 292:	08 95       	ret

00000294 <I2C_stop>:

void I2C_stop()
{
	TWI0.MCTRLB |= TWI_MCMD_STOP_gc;
 294:	e0 e1       	ldi	r30, 0x10	; 16
 296:	f8 e0       	ldi	r31, 0x08	; 8
 298:	84 81       	ldd	r24, Z+4	; 0x04
 29a:	83 60       	ori	r24, 0x03	; 3
 29c:	84 83       	std	Z+4, r24	; 0x04
 29e:	08 95       	ret

000002a0 <I2C_read_bytes>:
// addr_ptr		address of first array element to transfer
// slave reg	starting slave register
// num_bytes	number of bytes to transfer

uint8_t	I2C_read_bytes(uint8_t slave_addr, uint8_t *reg_ptr, uint8_t reg_len, uint8_t *dat_ptr, uint8_t dat_len)
{
 2a0:	cf 92       	push	r12
 2a2:	df 92       	push	r13
 2a4:	ef 92       	push	r14
 2a6:	ff 92       	push	r15
 2a8:	0f 93       	push	r16
 2aa:	1f 93       	push	r17
 2ac:	cf 93       	push	r28
 2ae:	df 93       	push	r29
 2b0:	eb 01       	movw	r28, r22
 2b2:	c4 2e       	mov	r12, r20
 2b4:	79 01       	movw	r14, r18
	uint8_t status;
	if (dat_len > MAX_LEN) dat_len = MAX_LEN;
	status = I2C_start(slave_addr << 1);							// slave write address, LSB 0
 2b6:	18 2f       	mov	r17, r24
 2b8:	11 0f       	add	r17, r17
 2ba:	81 2f       	mov	r24, r17
 2bc:	4e df       	rcall	.-356    	; 0x15a <I2C_start>
	if (status != 0) goto error;
 2be:	81 11       	cpse	r24, r1
	status = I2C_wait_ACK();										// wait for slave ACK
 2c0:	3c c0       	rjmp	.+120    	; 0x33a <I2C_read_bytes+0x9a>
 2c2:	5b df       	rcall	.-330    	; 0x17a <I2C_wait_ACK>
	if (status == 1) {
 2c4:	81 30       	cpi	r24, 0x01	; 1
		I2C_stop();													// NACK, abort
 2c6:	19 f4       	brne	.+6      	; 0x2ce <I2C_read_bytes+0x2e>
 2c8:	e5 df       	rcall	.-54     	; 0x294 <I2C_stop>
		return 1;
 2ca:	81 e0       	ldi	r24, 0x01	; 1
 2cc:	38 c0       	rjmp	.+112    	; 0x33e <I2C_read_bytes+0x9e>
	}
	if (status != 0) goto error;
 2ce:	81 11       	cpse	r24, r1
 2d0:	34 c0       	rjmp	.+104    	; 0x33a <I2C_read_bytes+0x9a>
    while(reg_len > 0){
 2d2:	cc 20       	and	r12, r12
 2d4:	79 f0       	breq	.+30     	; 0x2f4 <I2C_read_bytes+0x54>
 2d6:	ca 94       	dec	r12
 2d8:	d1 2c       	mov	r13, r1
 2da:	8f ef       	ldi	r24, 0xFF	; 255
 2dc:	c8 1a       	sub	r12, r24
 2de:	d8 0a       	sbc	r13, r24
 2e0:	cc 0e       	add	r12, r28
	    status = I2C_write(reg_ptr);    							// send slave start register
 2e2:	dd 1e       	adc	r13, r29
 2e4:	ce 01       	movw	r24, r28
 2e6:	b1 df       	rcall	.-158    	; 0x24a <I2C_write>
	    if (status != 0) goto error;
 2e8:	81 11       	cpse	r24, r1
 2ea:	27 c0       	rjmp	.+78     	; 0x33a <I2C_read_bytes+0x9a>
        ++reg_ptr;
 2ec:	21 96       	adiw	r28, 0x01	; 1
	if (status == 1) {
		I2C_stop();													// NACK, abort
		return 1;
	}
	if (status != 0) goto error;
    while(reg_len > 0){
 2ee:	cc 16       	cp	r12, r28
 2f0:	dd 06       	cpc	r13, r29
 2f2:	c1 f7       	brne	.-16     	; 0x2e4 <I2C_read_bytes+0x44>
 2f4:	01 34       	cpi	r16, 0x41	; 65
 2f6:	08 f0       	brcs	.+2      	; 0x2fa <I2C_read_bytes+0x5a>
 2f8:	00 e4       	ldi	r16, 0x40	; 64
	    status = I2C_write(reg_ptr);    							// send slave start register
	    if (status != 0) goto error;
        ++reg_ptr;
        --reg_len;
    }
	I2C_rep_start((slave_addr << 1) + 1);							// slave read address, LSB 1
 2fa:	1f 5f       	subi	r17, 0xFF	; 255
// the Atmel device documentation mentions a special command for repeated start TWI_MCMD_REPSTART_gc,
// but this is not used in Atmel's demo code, so we don't use it either

void I2C_rep_start(uint8_t shifted_addr)						    // send repeated start, device_addr + LSB set if READ
{
	TWI0.MADDR = shifted_addr;	
 2fc:	10 93 17 08 	sts	0x0817, r17	; 0x800817 <__TEXT_REGION_LENGTH__+0x700817>
	    if (status != 0) goto error;
        ++reg_ptr;
        --reg_len;
    }
	I2C_rep_start((slave_addr << 1) + 1);							// slave read address, LSB 1
	while (dat_len > 1) {
 300:	02 30       	cpi	r16, 0x02	; 2
 302:	90 f0       	brcs	.+36     	; 0x328 <I2C_read_bytes+0x88>
 304:	02 50       	subi	r16, 0x02	; 2
 306:	c0 2f       	mov	r28, r16
 308:	d0 e0       	ldi	r29, 0x00	; 0
 30a:	21 96       	adiw	r28, 0x01	; 1
 30c:	ce 0d       	add	r28, r14
		status = I2C_read(dat_ptr, 0);								// first bytes, send ACK
 30e:	df 1d       	adc	r29, r15
 310:	60 e0       	ldi	r22, 0x00	; 0
 312:	c7 01       	movw	r24, r14
 314:	59 df       	rcall	.-334    	; 0x1c8 <I2C_read>
		if (status != 0) goto error;
 316:	81 11       	cpse	r24, r1
 318:	10 c0       	rjmp	.+32     	; 0x33a <I2C_read_bytes+0x9a>
		++dat_ptr;
 31a:	8f ef       	ldi	r24, 0xFF	; 255
 31c:	e8 1a       	sub	r14, r24
 31e:	f8 0a       	sbc	r15, r24
	    if (status != 0) goto error;
        ++reg_ptr;
        --reg_len;
    }
	I2C_rep_start((slave_addr << 1) + 1);							// slave read address, LSB 1
	while (dat_len > 1) {
 320:	ec 16       	cp	r14, r28
 322:	fd 06       	cpc	r15, r29
 324:	a9 f7       	brne	.-22     	; 0x310 <I2C_read_bytes+0x70>
 326:	01 c0       	rjmp	.+2      	; 0x32a <I2C_read_bytes+0x8a>
		status = I2C_read(dat_ptr, 0);								// first bytes, send ACK
		if (status != 0) goto error;
		++dat_ptr;
		--dat_len;
	}
	status = I2C_read(dat_ptr, 1);									// single or last byte, send NACK
 328:	e7 01       	movw	r28, r14
 32a:	61 e0       	ldi	r22, 0x01	; 1
 32c:	ce 01       	movw	r24, r28
	if (status != 0) goto error;
 32e:	4c df       	rcall	.-360    	; 0x1c8 <I2C_read>
 330:	81 11       	cpse	r24, r1
	I2C_stop();
 332:	03 c0       	rjmp	.+6      	; 0x33a <I2C_read_bytes+0x9a>
 334:	af df       	rcall	.-162    	; 0x294 <I2C_stop>
	return 0;
 336:	80 e0       	ldi	r24, 0x00	; 0
 338:	02 c0       	rjmp	.+4      	; 0x33e <I2C_read_bytes+0x9e>
	
error:
	I2C_recover();													// clock out possibly stuck slave, reset master
 33a:	da de       	rcall	.-588    	; 0xf0 <I2C_recover>
 33c:	8f ef       	ldi	r24, 0xFF	; 255
	return 0xff;													// flag error
 33e:	df 91       	pop	r29
}
 340:	cf 91       	pop	r28
 342:	1f 91       	pop	r17
 344:	0f 91       	pop	r16
 346:	ff 90       	pop	r15
 348:	ef 90       	pop	r14
 34a:	df 90       	pop	r13
 34c:	cf 90       	pop	r12
 34e:	08 95       	ret

00000350 <I2C_write_bytes>:
 350:	cf 92       	push	r12

uint8_t	I2C_write_bytes(uint8_t slave_addr, uint8_t *reg_ptr, uint8_t reg_len, uint8_t *dat_ptr, uint8_t dat_len)
{
 352:	df 92       	push	r13
 354:	ef 92       	push	r14
 356:	ff 92       	push	r15
 358:	0f 93       	push	r16
 35a:	cf 93       	push	r28
 35c:	df 93       	push	r29
 35e:	eb 01       	movw	r28, r22
 360:	e4 2e       	mov	r14, r20
 362:	69 01       	movw	r12, r18
	uint8_t status;
	if (dat_len > MAX_LEN) dat_len = MAX_LEN;
	status = I2C_start(slave_addr << 1);							// slave write address, LSB 0
 364:	88 0f       	add	r24, r24
 366:	f9 de       	rcall	.-526    	; 0x15a <I2C_start>
	if (status != 0) goto error;
 368:	81 11       	cpse	r24, r1
	status = I2C_wait_ACK();										// wait for Slave ACK
 36a:	27 c0       	rjmp	.+78     	; 0x3ba <I2C_write_bytes+0x6a>
 36c:	06 df       	rcall	.-500    	; 0x17a <I2C_wait_ACK>
	if (status == 1) {
 36e:	81 30       	cpi	r24, 0x01	; 1
		I2C_stop();													// NACK, abort	
 370:	19 f4       	brne	.+6      	; 0x378 <I2C_write_bytes+0x28>
 372:	90 df       	rcall	.-224    	; 0x294 <I2C_stop>
		return 1;													
 374:	81 e0       	ldi	r24, 0x01	; 1
 376:	30 c0       	rjmp	.+96     	; 0x3d8 <I2C_write_bytes+0x88>
	}	 										
	if (status != 0) goto error;
 378:	81 11       	cpse	r24, r1
 37a:	1f c0       	rjmp	.+62     	; 0x3ba <I2C_write_bytes+0x6a>
	while(reg_len > 0){
 37c:	ee 20       	and	r14, r14
 37e:	01 f1       	breq	.+64     	; 0x3c0 <I2C_write_bytes+0x70>
 380:	ea 94       	dec	r14
 382:	f1 2c       	mov	r15, r1
 384:	8f ef       	ldi	r24, 0xFF	; 255
 386:	e8 1a       	sub	r14, r24
 388:	f8 0a       	sbc	r15, r24
 38a:	ec 0e       	add	r14, r28
    	status = I2C_write(reg_ptr);    							// send slave start register
 38c:	fd 1e       	adc	r15, r29
 38e:	ce 01       	movw	r24, r28
 390:	5c df       	rcall	.-328    	; 0x24a <I2C_write>
    	if (status != 0) goto error;
 392:	81 11       	cpse	r24, r1
 394:	12 c0       	rjmp	.+36     	; 0x3ba <I2C_write_bytes+0x6a>
    	++reg_ptr;
 396:	21 96       	adiw	r28, 0x01	; 1
	if (status == 1) {
		I2C_stop();													// NACK, abort	
		return 1;													
	}	 										
	if (status != 0) goto error;
	while(reg_len > 0){
 398:	ce 15       	cp	r28, r14
 39a:	df 05       	cpc	r29, r15
 39c:	c1 f7       	brne	.-16     	; 0x38e <I2C_write_bytes+0x3e>
    	++reg_ptr;
    	--reg_len;
	}
	if (status != 0) goto error;
	while (dat_len > 0) {											// write bytes
		status = I2C_write(dat_ptr);
 39e:	10 c0       	rjmp	.+32     	; 0x3c0 <I2C_write_bytes+0x70>
 3a0:	c6 01       	movw	r24, r12
 3a2:	53 df       	rcall	.-346    	; 0x24a <I2C_write>
		if (status != 0) goto error;
 3a4:	81 11       	cpse	r24, r1
 3a6:	09 c0       	rjmp	.+18     	; 0x3ba <I2C_write_bytes+0x6a>
		++dat_ptr;
 3a8:	8f ef       	ldi	r24, 0xFF	; 255
 3aa:	c8 1a       	sub	r12, r24
    	if (status != 0) goto error;
    	++reg_ptr;
    	--reg_len;
	}
	if (status != 0) goto error;
	while (dat_len > 0) {											// write bytes
 3ac:	d8 0a       	sbc	r13, r24
 3ae:	cc 16       	cp	r12, r28
		status = I2C_write(dat_ptr);
		if (status != 0) goto error;
		++dat_ptr;
		--dat_len;		
	}
	I2C_stop();
 3b0:	dd 06       	cpc	r13, r29
 3b2:	b1 f7       	brne	.-20     	; 0x3a0 <I2C_write_bytes+0x50>
	return 0;
 3b4:	6f df       	rcall	.-290    	; 0x294 <I2C_stop>
 3b6:	80 e0       	ldi	r24, 0x00	; 0

error:
	I2C_recover();
 3b8:	0f c0       	rjmp	.+30     	; 0x3d8 <I2C_write_bytes+0x88>
 3ba:	9a de       	rcall	.-716    	; 0xf0 <I2C_recover>
	return 0xff;
 3bc:	8f ef       	ldi	r24, 0xFF	; 255
 3be:	0c c0       	rjmp	.+24     	; 0x3d8 <I2C_write_bytes+0x88>
 3c0:	01 34       	cpi	r16, 0x41	; 65
 3c2:	08 f0       	brcs	.+2      	; 0x3c6 <I2C_write_bytes+0x76>
 3c4:	00 e4       	ldi	r16, 0x40	; 64
    	if (status != 0) goto error;
    	++reg_ptr;
    	--reg_len;
	}
	if (status != 0) goto error;
	while (dat_len > 0) {											// write bytes
 3c6:	00 23       	and	r16, r16
 3c8:	a9 f3       	breq	.-22     	; 0x3b4 <I2C_write_bytes+0x64>
 3ca:	01 50       	subi	r16, 0x01	; 1
 3cc:	c0 2f       	mov	r28, r16
 3ce:	d0 e0       	ldi	r29, 0x00	; 0
 3d0:	21 96       	adiw	r28, 0x01	; 1
 3d2:	cc 0d       	add	r28, r12
 3d4:	dd 1d       	adc	r29, r13
 3d6:	e4 cf       	rjmp	.-56     	; 0x3a0 <I2C_write_bytes+0x50>
	return 0;

error:
	I2C_recover();
	return 0xff;
 3d8:	df 91       	pop	r29
 3da:	cf 91       	pop	r28
 3dc:	0f 91       	pop	r16
 3de:	ff 90       	pop	r15
 3e0:	ef 90       	pop	r14
 3e2:	df 90       	pop	r13
 3e4:	cf 90       	pop	r12
 3e6:	08 95       	ret

000003e8 <setup>:
//Read bytes from EEPROM
void EERead(uint8_t eeAddr, uint8_t *eeValues, uint8_t size)
{
    while(NVMCTRL_STATUS & NVMCTRL_EEBUSY_bm);              // Wait until any write operation has finished

    while(size){
 3e8:	cf 93       	push	r28
 3ea:	df 93       	push	r29
 3ec:	f8 94       	cli
 3ee:	88 ed       	ldi	r24, 0xD8	; 216
 3f0:	84 bf       	out	0x34, r24	; 52
 3f2:	c1 e0       	ldi	r28, 0x01	; 1
 3f4:	c0 93 61 00 	sts	0x0061, r28	; 0x800061 <__TEXT_REGION_LENGTH__+0x700061>
 3f8:	8a e4       	ldi	r24, 0x4A	; 74
 3fa:	80 93 00 04 	sts	0x0400, r24	; 0x800400 <__TEXT_REGION_LENGTH__+0x700400>
 3fe:	8c e7       	ldi	r24, 0x7C	; 124
 400:	80 93 20 04 	sts	0x0420, r24	; 0x800420 <__TEXT_REGION_LENGTH__+0x700420>
 404:	8f e3       	ldi	r24, 0x3F	; 63
 406:	80 93 40 04 	sts	0x0440, r24	; 0x800440 <__TEXT_REGION_LENGTH__+0x700440>
 40a:	c0 93 01 02 	sts	0x0201, r28	; 0x800201 <__TEXT_REGION_LENGTH__+0x700201>
 40e:	d2 e0       	ldi	r29, 0x02	; 2
 410:	d0 93 05 04 	sts	0x0405, r29	; 0x800405 <__TEXT_REGION_LENGTH__+0x700405>
 414:	2b e5       	ldi	r18, 0x5B	; 91
 416:	31 e0       	ldi	r19, 0x01	; 1
 418:	20 93 08 08 	sts	0x0808, r18	; 0x800808 <__TEXT_REGION_LENGTH__+0x700808>
 41c:	30 93 09 08 	sts	0x0809, r19	; 0x800809 <__TEXT_REGION_LENGTH__+0x700809>
 420:	90 ea       	ldi	r25, 0xA0	; 160
 422:	90 93 05 08 	sts	0x0805, r25	; 0x800805 <__TEXT_REGION_LENGTH__+0x700805>
 426:	90 ec       	ldi	r25, 0xC0	; 192
 428:	90 93 06 08 	sts	0x0806, r25	; 0x800806 <__TEXT_REGION_LENGTH__+0x700806>
 42c:	93 e0       	ldi	r25, 0x03	; 3
 42e:	90 93 07 08 	sts	0x0807, r25	; 0x800807 <__TEXT_REGION_LENGTH__+0x700807>
 432:	1c ba       	out	0x1c, r1	; 28
 434:	1d ba       	out	0x1d, r1	; 29
 436:	1e ba       	out	0x1e, r1	; 30
 438:	1f ba       	out	0x1f, r1	; 31
 43a:	c0 93 03 0a 	sts	0x0A03, r28	; 0x800a03 <__TEXT_REGION_LENGTH__+0x700a03>
 43e:	e0 e0       	ldi	r30, 0x00	; 0
 440:	fa e0       	ldi	r31, 0x0A	; 10
 442:	98 e0       	ldi	r25, 0x08	; 8
 444:	90 83       	st	Z, r25
 446:	80 93 02 02 	sts	0x0202, r24	; 0x800202 <__TEXT_REGION_LENGTH__+0x700202>
 44a:	87 e7       	ldi	r24, 0x77	; 119
 44c:	80 93 01 0a 	sts	0x0A01, r24	; 0x800a01 <__TEXT_REGION_LENGTH__+0x700a01>
 450:	c0 93 0a 0a 	sts	0x0A0A, r28	; 0x800a0a <__TEXT_REGION_LENGTH__+0x700a0a>
 454:	8b e0       	ldi	r24, 0x0B	; 11
 456:	80 93 05 0a 	sts	0x0A05, r24	; 0x800a05 <__TEXT_REGION_LENGTH__+0x700a05>
 45a:	80 81       	ld	r24, Z
 45c:	81 60       	ori	r24, 0x01	; 1
 45e:	80 83       	st	Z, r24
 460:	85 e0       	ldi	r24, 0x05	; 5
 462:	80 93 40 0a 	sts	0x0A40, r24	; 0x800a40 <__TEXT_REGION_LENGTH__+0x700a40>
 466:	10 92 41 0a 	sts	0x0A41, r1	; 0x800a41 <__TEXT_REGION_LENGTH__+0x700a41>
 46a:	8f ef       	ldi	r24, 0xFF	; 255
 46c:	91 e0       	ldi	r25, 0x01	; 1
 46e:	80 93 4c 0a 	sts	0x0A4C, r24	; 0x800a4c <__TEXT_REGION_LENGTH__+0x700a4c>
 472:	90 93 4d 0a 	sts	0x0A4D, r25	; 0x800a4d <__TEXT_REGION_LENGTH__+0x700a4d>
 476:	10 92 45 0a 	sts	0x0A45, r1	; 0x800a45 <__TEXT_REGION_LENGTH__+0x700a45>
 47a:	c0 93 50 0a 	sts	0x0A50, r28	; 0x800a50 <__TEXT_REGION_LENGTH__+0x700a50>
 47e:	10 92 51 0a 	sts	0x0A51, r1	; 0x800a51 <__TEXT_REGION_LENGTH__+0x700a51>
 482:	8b e8       	ldi	r24, 0x8B	; 139
 484:	93 e0       	ldi	r25, 0x03	; 3
 486:	80 93 5c 0a 	sts	0x0A5C, r24	; 0x800a5c <__TEXT_REGION_LENGTH__+0x700a5c>
 48a:	90 93 5d 0a 	sts	0x0A5D, r25	; 0x800a5d <__TEXT_REGION_LENGTH__+0x700a5d>
 48e:	c0 93 55 0a 	sts	0x0A55, r28	; 0x800a55 <__TEXT_REGION_LENGTH__+0x700a55>
 492:	10 de       	rcall	.-992    	; 0xb4 <I2C_init>
 494:	82 e1       	ldi	r24, 0x12	; 18
 496:	80 93 a0 00 	sts	0x00A0, r24	; 0x8000a0 <__TEXT_REGION_LENGTH__+0x7000a0>
 49a:	80 e2       	ldi	r24, 0x20	; 32
 49c:	80 93 a2 00 	sts	0x00A2, r24	; 0x8000a2 <__TEXT_REGION_LENGTH__+0x7000a2>
 4a0:	c0 93 a1 00 	sts	0x00A1, r28	; 0x8000a1 <__TEXT_REGION_LENGTH__+0x7000a1>
 4a4:	e0 e0       	ldi	r30, 0x00	; 0
 4a6:	f6 e0       	ldi	r31, 0x06	; 6
 4a8:	86 e0       	ldi	r24, 0x06	; 6
 4aa:	80 83       	st	Z, r24
 4ac:	84 e4       	ldi	r24, 0x44	; 68
 4ae:	80 93 02 06 	sts	0x0602, r24	; 0x800602 <__TEXT_REGION_LENGTH__+0x700602>
 4b2:	8e e1       	ldi	r24, 0x1E	; 30
 4b4:	80 93 06 06 	sts	0x0606, r24	; 0x800606 <__TEXT_REGION_LENGTH__+0x700606>
 4b8:	c0 93 0a 06 	sts	0x060A, r28	; 0x80060a <__TEXT_REGION_LENGTH__+0x70060a>
 4bc:	80 81       	ld	r24, Z
 4be:	81 60       	ori	r24, 0x01	; 1
 4c0:	80 83       	st	Z, r24
 4c2:	c0 93 08 06 	sts	0x0608, r28	; 0x800608 <__TEXT_REGION_LENGTH__+0x700608>
 4c6:	e0 e4       	ldi	r30, 0x40	; 64
 4c8:	f6 e0       	ldi	r31, 0x06	; 6
 4ca:	10 82       	st	Z, r1
 4cc:	d0 93 41 06 	sts	0x0641, r29	; 0x800641 <__TEXT_REGION_LENGTH__+0x700641>
 4d0:	82 e5       	ldi	r24, 0x52	; 82
 4d2:	80 93 42 06 	sts	0x0642, r24	; 0x800642 <__TEXT_REGION_LENGTH__+0x700642>
 4d6:	84 e0       	ldi	r24, 0x04	; 4
 4d8:	80 93 45 06 	sts	0x0645, r24	; 0x800645 <__TEXT_REGION_LENGTH__+0x700645>
 4dc:	80 93 46 06 	sts	0x0646, r24	; 0x800646 <__TEXT_REGION_LENGTH__+0x700646>
 4e0:	c0 93 4a 06 	sts	0x064A, r28	; 0x80064a <__TEXT_REGION_LENGTH__+0x70064a>
 4e4:	80 81       	ld	r24, Z
 4e6:	81 60       	ori	r24, 0x01	; 1
 4e8:	80 83       	st	Z, r24
 4ea:	c0 93 48 06 	sts	0x0648, r28	; 0x800648 <__TEXT_REGION_LENGTH__+0x700648>
 4ee:	e0 ea       	ldi	r30, 0xA0	; 160
 4f0:	f6 e0       	ldi	r31, 0x06	; 6
 4f2:	80 e4       	ldi	r24, 0x40	; 64
 4f4:	80 83       	st	Z, r24
 4f6:	80 e8       	ldi	r24, 0x80	; 128
 4f8:	80 93 a1 06 	sts	0x06A1, r24	; 0x8006a1 <__TEXT_REGION_LENGTH__+0x7006a1>
 4fc:	80 81       	ld	r24, Z
 4fe:	81 60       	ori	r24, 0x01	; 1
 500:	80 83       	st	Z, r24
 502:	e1 e4       	ldi	r30, 0x41	; 65
 504:	f1 e0       	ldi	r31, 0x01	; 1
 506:	80 81       	ld	r24, Z
 508:	80 fd       	sbrc	r24, 0
 50a:	fd cf       	rjmp	.-6      	; 0x506 <__LOCK_REGION_LENGTH__+0x106>
 50c:	80 e3       	ldi	r24, 0x30	; 48
 50e:	80 93 40 01 	sts	0x0140, r24	; 0x800140 <__TEXT_REGION_LENGTH__+0x700140>
 512:	10 92 47 01 	sts	0x0147, r1	; 0x800147 <__TEXT_REGION_LENGTH__+0x700147>
 516:	e1 e4       	ldi	r30, 0x41	; 65
 518:	f1 e0       	ldi	r31, 0x01	; 1
 51a:	80 81       	ld	r24, Z
 51c:	82 fd       	sbrc	r24, 2
 51e:	fd cf       	rjmp	.-6      	; 0x51a <__LOCK_REGION_LENGTH__+0x11a>
 520:	ea e4       	ldi	r30, 0x4A	; 74
 522:	f1 e0       	ldi	r31, 0x01	; 1
 524:	80 e0       	ldi	r24, 0x00	; 0
 526:	98 e7       	ldi	r25, 0x78	; 120
 528:	80 83       	st	Z, r24
 52a:	91 83       	std	Z+1, r25	; 0x01
 52c:	80 91 48 01 	lds	r24, 0x0148	; 0x800148 <__TEXT_REGION_LENGTH__+0x700148>
 530:	90 91 49 01 	lds	r25, 0x0149	; 0x800149 <__TEXT_REGION_LENGTH__+0x700149>
 534:	60 81       	ld	r22, Z
 536:	71 81       	ldd	r23, Z+1	; 0x01
 538:	82 96       	adiw	r24, 0x22	; 34
 53a:	3a d5       	rcall	.+2676   	; 0xfb0 <__udivmodhi4>
 53c:	80 93 96 38 	sts	0x3896, r24	; 0x803896 <tmp16bit>
 540:	90 93 97 38 	sts	0x3897, r25	; 0x803897 <tmp16bit+0x1>
 544:	e1 e4       	ldi	r30, 0x41	; 65
 546:	f1 e0       	ldi	r31, 0x01	; 1
 548:	80 81       	ld	r24, Z
 54a:	83 fd       	sbrc	r24, 3
 54c:	fd cf       	rjmp	.-6      	; 0x548 <__LOCK_REGION_LENGTH__+0x148>
 54e:	80 91 96 38 	lds	r24, 0x3896	; 0x803896 <tmp16bit>
 552:	90 91 97 38 	lds	r25, 0x3897	; 0x803897 <tmp16bit+0x1>
 556:	80 93 4c 01 	sts	0x014C, r24	; 0x80014c <__TEXT_REGION_LENGTH__+0x70014c>
 55a:	90 93 4d 01 	sts	0x014D, r25	; 0x80014d <__TEXT_REGION_LENGTH__+0x70014d>
 55e:	83 e0       	ldi	r24, 0x03	; 3
 560:	80 93 42 01 	sts	0x0142, r24	; 0x800142 <__TEXT_REGION_LENGTH__+0x700142>
 564:	81 e0       	ldi	r24, 0x01	; 1
 566:	80 93 52 01 	sts	0x0152, r24	; 0x800152 <__TEXT_REGION_LENGTH__+0x700152>
 56a:	88 e0       	ldi	r24, 0x08	; 8
 56c:	80 93 50 01 	sts	0x0150, r24	; 0x800150 <__TEXT_REGION_LENGTH__+0x700150>
 570:	e1 e4       	ldi	r30, 0x41	; 65
 572:	f1 e0       	ldi	r31, 0x01	; 1
 574:	80 81       	ld	r24, Z
 576:	80 fd       	sbrc	r24, 0
 578:	fd cf       	rjmp	.-6      	; 0x574 <__LOCK_REGION_LENGTH__+0x174>
 57a:	e0 e4       	ldi	r30, 0x40	; 64
 57c:	f1 e0       	ldi	r31, 0x01	; 1
 57e:	80 81       	ld	r24, Z
 580:	81 60       	ori	r24, 0x01	; 1
 582:	80 83       	st	Z, r24
 584:	e0 e5       	ldi	r30, 0x50	; 80
 586:	f1 e0       	ldi	r31, 0x01	; 1
 588:	80 81       	ld	r24, Z
 58a:	81 60       	ori	r24, 0x01	; 1
 58c:	80 83       	st	Z, r24
 58e:	e1 e2       	ldi	r30, 0x21	; 33
 590:	f8 e3       	ldi	r31, 0x38	; 56
 592:	10 82       	st	Z, r1
 594:	e0 93 45 38 	sts	0x3845, r30	; 0x803845 <serTxAddr>
 598:	f0 93 46 38 	sts	0x3846, r31	; 0x803846 <serTxAddr+0x1>
 59c:	78 94       	sei
 59e:	df 91       	pop	r29
 5a0:	cf 91       	pop	r28
 5a2:	08 95       	ret

000005a4 <__vector_8>:
 5a4:	1f 92       	push	r1
 5a6:	0f 92       	push	r0
 5a8:	0f b6       	in	r0, 0x3f	; 63
 5aa:	0f 92       	push	r0
 5ac:	11 24       	eor	r1, r1
 5ae:	8f 93       	push	r24
 5b0:	9f 93       	push	r25
 5b2:	af 93       	push	r26
 5b4:	bf 93       	push	r27
 5b6:	ef 93       	push	r30
 5b8:	ff 93       	push	r31
 5ba:	87 e0       	ldi	r24, 0x07	; 7
 5bc:	80 93 46 04 	sts	0x0446, r24	; 0x800446 <__TEXT_REGION_LENGTH__+0x700446>
 5c0:	84 e4       	ldi	r24, 0x44	; 68
 5c2:	80 93 26 04 	sts	0x0426, r24	; 0x800426 <__TEXT_REGION_LENGTH__+0x700426>
 5c6:	ec b3       	in	r30, 0x1c	; 28
 5c8:	f0 e0       	ldi	r31, 0x00	; 0
 5ca:	ee 0f       	add	r30, r30
 5cc:	ff 1f       	adc	r31, r31
 5ce:	ee 0f       	add	r30, r30
 5d0:	ff 1f       	adc	r31, r31
 5d2:	ee 0f       	add	r30, r30
 5d4:	ff 1f       	adc	r31, r31
 5d6:	e4 59       	subi	r30, 0x94	; 148
 5d8:	f7 4c       	sbci	r31, 0xC7	; 199
 5da:	a8 e2       	ldi	r26, 0x28	; 40
 5dc:	ba e0       	ldi	r27, 0x0A	; 10
 5de:	96 e0       	ldi	r25, 0x06	; 6
 5e0:	81 91       	ld	r24, Z+
 5e2:	8d 93       	st	X+, r24
 5e4:	9a 95       	dec	r25
 5e6:	e1 f7       	brne	.-8      	; 0x5e0 <__vector_8+0x3c>
 5e8:	8b e0       	ldi	r24, 0x0B	; 11
 5ea:	80 93 05 0a 	sts	0x0A05, r24	; 0x800a05 <__TEXT_REGION_LENGTH__+0x700a05>
 5ee:	8c b3       	in	r24, 0x1c	; 28
 5f0:	83 30       	cpi	r24, 0x03	; 3
 5f2:	58 f4       	brcc	.+22     	; 0x60a <__vector_8+0x66>
 5f4:	8c b3       	in	r24, 0x1c	; 28
 5f6:	91 e0       	ldi	r25, 0x01	; 1
 5f8:	01 c0       	rjmp	.+2      	; 0x5fc <__vector_8+0x58>
 5fa:	99 0f       	add	r25, r25
 5fc:	8a 95       	dec	r24
 5fe:	ea f7       	brpl	.-6      	; 0x5fa <__vector_8+0x56>
 600:	99 b9       	out	0x09, r25	; 9
 602:	8c b3       	in	r24, 0x1c	; 28
 604:	83 95       	inc	r24
 606:	8c bb       	out	0x1c, r24	; 28
 608:	0a c0       	rjmp	.+20     	; 0x61e <__vector_8+0x7a>
 60a:	8c b3       	in	r24, 0x1c	; 28
 60c:	83 30       	cpi	r24, 0x03	; 3
 60e:	21 f4       	brne	.+8      	; 0x618 <__vector_8+0x74>
 610:	2a 9a       	sbi	0x05, 2	; 5
 612:	83 95       	inc	r24
 614:	8c bb       	out	0x1c, r24	; 28
 616:	03 c0       	rjmp	.+6      	; 0x61e <__vector_8+0x7a>
 618:	2e 9a       	sbi	0x05, 6	; 5
 61a:	88 27       	eor	r24, r24
 61c:	8c bb       	out	0x1c, r24	; 28
 61e:	80 91 20 38 	lds	r24, 0x3820	; 0x803820 <timeout_I2C>
 622:	88 23       	and	r24, r24
 624:	29 f0       	breq	.+10     	; 0x630 <__vector_8+0x8c>
 626:	80 91 20 38 	lds	r24, 0x3820	; 0x803820 <timeout_I2C>
 62a:	81 50       	subi	r24, 0x01	; 1
 62c:	80 93 20 38 	sts	0x3820, r24	; 0x803820 <timeout_I2C>
 630:	8f ef       	ldi	r24, 0xFF	; 255
 632:	80 93 0b 0a 	sts	0x0A0B, r24	; 0x800a0b <__TEXT_REGION_LENGTH__+0x700a0b>
 636:	ff 91       	pop	r31
 638:	ef 91       	pop	r30
 63a:	bf 91       	pop	r27
 63c:	af 91       	pop	r26
 63e:	9f 91       	pop	r25
 640:	8f 91       	pop	r24
 642:	0f 90       	pop	r0
 644:	0f be       	out	0x3f, r0	; 63
 646:	0f 90       	pop	r0
 648:	1f 90       	pop	r1
 64a:	18 95       	reti

0000064c <__vector_13>:
 64c:	1f 92       	push	r1
 64e:	0f 92       	push	r0
 650:	0f b6       	in	r0, 0x3f	; 63
 652:	0f 92       	push	r0
 654:	11 24       	eor	r1, r1
 656:	8f 93       	push	r24
 658:	9f 93       	push	r25
 65a:	ef 93       	push	r30
 65c:	ff 93       	push	r31
 65e:	e0 91 45 38 	lds	r30, 0x3845	; 0x803845 <serTxAddr>
 662:	f0 91 46 38 	lds	r31, 0x3846	; 0x803846 <serTxAddr+0x1>
 666:	80 81       	ld	r24, Z
 668:	88 23       	and	r24, r24
 66a:	91 f0       	breq	.+36     	; 0x690 <__vector_13+0x44>
 66c:	80 81       	ld	r24, Z
 66e:	80 93 02 08 	sts	0x0802, r24	; 0x800802 <__TEXT_REGION_LENGTH__+0x700802>
 672:	80 91 45 38 	lds	r24, 0x3845	; 0x803845 <serTxAddr>
 676:	90 91 46 38 	lds	r25, 0x3846	; 0x803846 <serTxAddr+0x1>
 67a:	01 96       	adiw	r24, 0x01	; 1
 67c:	80 93 45 38 	sts	0x3845, r24	; 0x803845 <serTxAddr>
 680:	90 93 46 38 	sts	0x3846, r25	; 0x803846 <serTxAddr+0x1>
 684:	e5 e0       	ldi	r30, 0x05	; 5
 686:	f8 e0       	ldi	r31, 0x08	; 8
 688:	80 81       	ld	r24, Z
 68a:	80 62       	ori	r24, 0x20	; 32
 68c:	80 83       	st	Z, r24
 68e:	05 c0       	rjmp	.+10     	; 0x69a <__vector_13+0x4e>
 690:	81 e0       	ldi	r24, 0x01	; 1
 692:	80 93 00 38 	sts	0x3800, r24	; 0x803800 <__data_start>
 696:	10 92 45 0a 	sts	0x0A45, r1	; 0x800a45 <__TEXT_REGION_LENGTH__+0x700a45>
 69a:	81 e0       	ldi	r24, 0x01	; 1
 69c:	80 93 46 0a 	sts	0x0A46, r24	; 0x800a46 <__TEXT_REGION_LENGTH__+0x700a46>
 6a0:	ff 91       	pop	r31
 6a2:	ef 91       	pop	r30
 6a4:	9f 91       	pop	r25
 6a6:	8f 91       	pop	r24
 6a8:	0f 90       	pop	r0
 6aa:	0f be       	out	0x3f, r0	; 63
 6ac:	0f 90       	pop	r0
 6ae:	1f 90       	pop	r1
 6b0:	18 95       	reti

000006b2 <__vector_14>:
 6b2:	1f 92       	push	r1
 6b4:	0f 92       	push	r0
 6b6:	0f b6       	in	r0, 0x3f	; 63
 6b8:	0f 92       	push	r0
 6ba:	11 24       	eor	r1, r1
 6bc:	8f 93       	push	r24
 6be:	9f 93       	push	r25
 6c0:	ef 93       	push	r30
 6c2:	ff 93       	push	r31
 6c4:	e0 91 41 38 	lds	r30, 0x3841	; 0x803841 <auSmpAddr>
 6c8:	f0 91 42 38 	lds	r31, 0x3842	; 0x803842 <auSmpAddr+0x1>
 6cc:	80 81       	ld	r24, Z
 6ce:	88 23       	and	r24, r24
 6d0:	69 f0       	breq	.+26     	; 0x6ec <__vector_14+0x3a>
 6d2:	80 81       	ld	r24, Z
 6d4:	80 93 a1 06 	sts	0x06A1, r24	; 0x8006a1 <__TEXT_REGION_LENGTH__+0x7006a1>
 6d8:	80 91 41 38 	lds	r24, 0x3841	; 0x803841 <auSmpAddr>
 6dc:	90 91 42 38 	lds	r25, 0x3842	; 0x803842 <auSmpAddr+0x1>
 6e0:	01 96       	adiw	r24, 0x01	; 1
 6e2:	80 93 41 38 	sts	0x3841, r24	; 0x803841 <auSmpAddr>
 6e6:	90 93 42 38 	sts	0x3842, r25	; 0x803842 <auSmpAddr+0x1>
 6ea:	06 c0       	rjmp	.+12     	; 0x6f8 <__vector_14+0x46>
 6ec:	80 e8       	ldi	r24, 0x80	; 128
 6ee:	80 93 a1 06 	sts	0x06A1, r24	; 0x8006a1 <__TEXT_REGION_LENGTH__+0x7006a1>
 6f2:	81 e0       	ldi	r24, 0x01	; 1
 6f4:	80 93 94 38 	sts	0x3894, r24	; 0x803894 <auPlayDone>
 6f8:	81 e0       	ldi	r24, 0x01	; 1
 6fa:	80 93 56 0a 	sts	0x0A56, r24	; 0x800a56 <__TEXT_REGION_LENGTH__+0x700a56>
 6fe:	ff 91       	pop	r31
 700:	ef 91       	pop	r30
 702:	9f 91       	pop	r25
 704:	8f 91       	pop	r24
 706:	0f 90       	pop	r0
 708:	0f be       	out	0x3f, r0	; 63
 70a:	0f 90       	pop	r0
 70c:	1f 90       	pop	r1
 70e:	18 95       	reti

00000710 <__vector_27>:
 710:	1f 92       	push	r1
 712:	0f 92       	push	r0
 714:	0f b6       	in	r0, 0x3f	; 63
 716:	0f 92       	push	r0
 718:	11 24       	eor	r1, r1
 71a:	8f 93       	push	r24
 71c:	ef 93       	push	r30
 71e:	ff 93       	push	r31
 720:	80 91 05 38 	lds	r24, 0x3805	; 0x803805 <serRxDone>
 724:	81 11       	cpse	r24, r1
 726:	1d c0       	rjmp	.+58     	; 0x762 <__vector_27+0x52>
 728:	ed b3       	in	r30, 0x1d	; 29
 72a:	f0 e0       	ldi	r31, 0x00	; 0
 72c:	80 91 00 08 	lds	r24, 0x0800	; 0x800800 <__TEXT_REGION_LENGTH__+0x700800>
 730:	ef 5d       	subi	r30, 0xDF	; 223
 732:	f7 4c       	sbci	r31, 0xC7	; 199
 734:	80 83       	st	Z, r24
 736:	ed b3       	in	r30, 0x1d	; 29
 738:	f0 e0       	ldi	r31, 0x00	; 0
 73a:	ef 5d       	subi	r30, 0xDF	; 223
 73c:	f7 4c       	sbci	r31, 0xC7	; 199
 73e:	80 81       	ld	r24, Z
 740:	8a 30       	cpi	r24, 0x0A	; 10
 742:	49 f4       	brne	.+18     	; 0x756 <__vector_27+0x46>
 744:	ed b3       	in	r30, 0x1d	; 29
 746:	f0 e0       	ldi	r31, 0x00	; 0
 748:	ef 5d       	subi	r30, 0xDF	; 223
 74a:	f7 4c       	sbci	r31, 0xC7	; 199
 74c:	10 82       	st	Z, r1
 74e:	81 e0       	ldi	r24, 0x01	; 1
 750:	80 93 05 38 	sts	0x3805, r24	; 0x803805 <serRxDone>
 754:	06 c0       	rjmp	.+12     	; 0x762 <__vector_27+0x52>
 756:	8d b3       	in	r24, 0x1d	; 29
 758:	8f 31       	cpi	r24, 0x1F	; 31
 75a:	18 f4       	brcc	.+6      	; 0x762 <__vector_27+0x52>
 75c:	8d b3       	in	r24, 0x1d	; 29
 75e:	8f 5f       	subi	r24, 0xFF	; 255
 760:	8d bb       	out	0x1d, r24	; 29
 762:	80 e8       	ldi	r24, 0x80	; 128
 764:	80 93 04 08 	sts	0x0804, r24	; 0x800804 <__TEXT_REGION_LENGTH__+0x700804>
 768:	ff 91       	pop	r31
 76a:	ef 91       	pop	r30
 76c:	8f 91       	pop	r24
 76e:	0f 90       	pop	r0
 770:	0f be       	out	0x3f, r0	; 63
 772:	0f 90       	pop	r0
 774:	1f 90       	pop	r1
 776:	18 95       	reti

00000778 <__vector_28>:
 778:	1f 92       	push	r1
 77a:	0f 92       	push	r0
 77c:	0f b6       	in	r0, 0x3f	; 63
 77e:	0f 92       	push	r0
 780:	11 24       	eor	r1, r1
 782:	8f 93       	push	r24
 784:	ef 93       	push	r30
 786:	ff 93       	push	r31
 788:	10 92 4a 0a 	sts	0x0A4A, r1	; 0x800a4a <__TEXT_REGION_LENGTH__+0x700a4a>
 78c:	10 92 4b 0a 	sts	0x0A4B, r1	; 0x800a4b <__TEXT_REGION_LENGTH__+0x700a4b>
 790:	81 e0       	ldi	r24, 0x01	; 1
 792:	80 93 45 0a 	sts	0x0A45, r24	; 0x800a45 <__TEXT_REGION_LENGTH__+0x700a45>
 796:	e5 e0       	ldi	r30, 0x05	; 5
 798:	f8 e0       	ldi	r31, 0x08	; 8
 79a:	80 81       	ld	r24, Z
 79c:	8f 7d       	andi	r24, 0xDF	; 223
 79e:	80 83       	st	Z, r24
 7a0:	ff 91       	pop	r31
 7a2:	ef 91       	pop	r30
 7a4:	8f 91       	pop	r24
 7a6:	0f 90       	pop	r0
 7a8:	0f be       	out	0x3f, r0	; 63
 7aa:	0f 90       	pop	r0
 7ac:	1f 90       	pop	r1
 7ae:	18 95       	reti

000007b0 <__vector_20>:
 7b0:	1f 92       	push	r1
 7b2:	0f 92       	push	r0
 7b4:	0f b6       	in	r0, 0x3f	; 63
 7b6:	0f 92       	push	r0
 7b8:	11 24       	eor	r1, r1
 7ba:	8f 93       	push	r24
 7bc:	ef 93       	push	r30
 7be:	ff 93       	push	r31
 7c0:	8e b3       	in	r24, 0x1e	; 30
 7c2:	8f 5f       	subi	r24, 0xFF	; 255
 7c4:	8f 71       	andi	r24, 0x1F	; 31
 7c6:	8e bb       	out	0x1e, r24	; 30
 7c8:	80 91 02 38 	lds	r24, 0x3802	; 0x803802 <__data_end>
 7cc:	81 11       	cpse	r24, r1
 7ce:	11 c0       	rjmp	.+34     	; 0x7f2 <__vector_20+0x42>
 7d0:	80 91 06 06 	lds	r24, 0x0606	; 0x800606 <__TEXT_REGION_LENGTH__+0x700606>
 7d4:	8e 31       	cpi	r24, 0x1E	; 30
 7d6:	29 f4       	brne	.+10     	; 0x7e2 <__vector_20+0x32>
 7d8:	80 91 10 06 	lds	r24, 0x0610	; 0x800610 <__TEXT_REGION_LENGTH__+0x700610>
 7dc:	80 93 95 38 	sts	0x3895, r24	; 0x803895 <adcTemp>
 7e0:	0a c0       	rjmp	.+20     	; 0x7f6 <__vector_20+0x46>
 7e2:	ee b3       	in	r30, 0x1e	; 30
 7e4:	f0 e0       	ldi	r31, 0x00	; 0
 7e6:	80 91 10 06 	lds	r24, 0x0610	; 0x800610 <__TEXT_REGION_LENGTH__+0x700610>
 7ea:	e4 5b       	subi	r30, 0xB4	; 180
 7ec:	f7 4c       	sbci	r31, 0xC7	; 199
 7ee:	80 83       	st	Z, r24
 7f0:	02 c0       	rjmp	.+4      	; 0x7f6 <__vector_20+0x46>
 7f2:	10 92 02 38 	sts	0x3802, r1	; 0x803802 <__data_end>
 7f6:	81 e0       	ldi	r24, 0x01	; 1
 7f8:	80 93 0b 06 	sts	0x060B, r24	; 0x80060b <__TEXT_REGION_LENGTH__+0x70060b>
 7fc:	ff 91       	pop	r31
 7fe:	ef 91       	pop	r30
 800:	8f 91       	pop	r24
 802:	0f 90       	pop	r0
 804:	0f be       	out	0x3f, r0	; 63
 806:	0f 90       	pop	r0
 808:	1f 90       	pop	r1
 80a:	18 95       	reti

0000080c <__vector_22>:
 80c:	1f 92       	push	r1
 80e:	0f 92       	push	r0
 810:	0f b6       	in	r0, 0x3f	; 63
 812:	0f 92       	push	r0
 814:	11 24       	eor	r1, r1
 816:	8f 93       	push	r24
 818:	9f 93       	push	r25
 81a:	80 91 46 06 	lds	r24, 0x0646	; 0x800646 <__TEXT_REGION_LENGTH__+0x700646>
 81e:	81 11       	cpse	r24, r1
 820:	0c c0       	rjmp	.+24     	; 0x83a <__vector_22+0x2e>
 822:	80 91 50 06 	lds	r24, 0x0650	; 0x800650 <__TEXT_REGION_LENGTH__+0x700650>
 826:	90 91 51 06 	lds	r25, 0x0651	; 0x800651 <__TEXT_REGION_LENGTH__+0x700651>
 82a:	80 93 49 38 	sts	0x3849, r24	; 0x803849 <adcPhot>
 82e:	90 93 4a 38 	sts	0x384A, r25	; 0x80384a <adcPhot+0x1>
 832:	81 e0       	ldi	r24, 0x01	; 1
 834:	80 93 46 06 	sts	0x0646, r24	; 0x800646 <__TEXT_REGION_LENGTH__+0x700646>
 838:	23 c0       	rjmp	.+70     	; 0x880 <__vector_22+0x74>
 83a:	80 91 46 06 	lds	r24, 0x0646	; 0x800646 <__TEXT_REGION_LENGTH__+0x700646>
 83e:	81 30       	cpi	r24, 0x01	; 1
 840:	79 f4       	brne	.+30     	; 0x860 <__vector_22+0x54>
 842:	88 e0       	ldi	r24, 0x08	; 8
 844:	80 93 06 04 	sts	0x0406, r24	; 0x800406 <__TEXT_REGION_LENGTH__+0x700406>
 848:	80 91 50 06 	lds	r24, 0x0650	; 0x800650 <__TEXT_REGION_LENGTH__+0x700650>
 84c:	90 91 51 06 	lds	r25, 0x0651	; 0x800651 <__TEXT_REGION_LENGTH__+0x700651>
 850:	80 93 47 38 	sts	0x3847, r24	; 0x803847 <adcHall>
 854:	90 93 48 38 	sts	0x3848, r25	; 0x803848 <adcHall+0x1>
 858:	84 e0       	ldi	r24, 0x04	; 4
 85a:	80 93 46 06 	sts	0x0646, r24	; 0x800646 <__TEXT_REGION_LENGTH__+0x700646>
 85e:	10 c0       	rjmp	.+32     	; 0x880 <__vector_22+0x74>
 860:	80 91 50 06 	lds	r24, 0x0650	; 0x800650 <__TEXT_REGION_LENGTH__+0x700650>
 864:	90 91 51 06 	lds	r25, 0x0651	; 0x800651 <__TEXT_REGION_LENGTH__+0x700651>
 868:	80 93 43 38 	sts	0x3843, r24	; 0x803843 <adcBtns>
 86c:	90 93 44 38 	sts	0x3844, r25	; 0x803844 <adcBtns+0x1>
 870:	8f b3       	in	r24, 0x1f	; 31
 872:	8f 30       	cpi	r24, 0x0F	; 15
 874:	29 f4       	brne	.+10     	; 0x880 <__vector_22+0x74>
 876:	10 92 46 06 	sts	0x0646, r1	; 0x800646 <__TEXT_REGION_LENGTH__+0x700646>
 87a:	88 e0       	ldi	r24, 0x08	; 8
 87c:	80 93 05 04 	sts	0x0405, r24	; 0x800405 <__TEXT_REGION_LENGTH__+0x700405>
 880:	8f b3       	in	r24, 0x1f	; 31
 882:	90 e0       	ldi	r25, 0x00	; 0
 884:	01 96       	adiw	r24, 0x01	; 1
 886:	8f 70       	andi	r24, 0x0F	; 15
 888:	90 78       	andi	r25, 0x80	; 128
 88a:	99 23       	and	r25, r25
 88c:	24 f4       	brge	.+8      	; 0x896 <__vector_22+0x8a>
 88e:	01 97       	sbiw	r24, 0x01	; 1
 890:	80 6f       	ori	r24, 0xF0	; 240
 892:	9f 6f       	ori	r25, 0xFF	; 255
 894:	01 96       	adiw	r24, 0x01	; 1
 896:	8f bb       	out	0x1f, r24	; 31
 898:	81 e0       	ldi	r24, 0x01	; 1
 89a:	80 93 4b 06 	sts	0x064B, r24	; 0x80064b <__TEXT_REGION_LENGTH__+0x70064b>
 89e:	9f 91       	pop	r25
 8a0:	8f 91       	pop	r24
 8a2:	0f 90       	pop	r0
 8a4:	0f be       	out	0x3f, r0	; 63
 8a6:	0f 90       	pop	r0
 8a8:	1f 90       	pop	r1
 8aa:	18 95       	reti

000008ac <__vector_6>:
 8ac:	1f 92       	push	r1
 8ae:	0f 92       	push	r0
 8b0:	0f b6       	in	r0, 0x3f	; 63
 8b2:	0f 92       	push	r0
 8b4:	11 24       	eor	r1, r1
 8b6:	5f 93       	push	r21
 8b8:	6f 93       	push	r22
 8ba:	7f 93       	push	r23
 8bc:	8f 93       	push	r24
 8be:	9f 93       	push	r25
 8c0:	af 93       	push	r26
 8c2:	bf 93       	push	r27
 8c4:	ef 93       	push	r30
 8c6:	ff 93       	push	r31
 8c8:	80 91 43 01 	lds	r24, 0x0143	; 0x800143 <__TEXT_REGION_LENGTH__+0x700143>
 8cc:	81 ff       	sbrs	r24, 1
 8ce:	28 c0       	rjmp	.+80     	; 0x920 <__vector_6+0x74>
 8d0:	80 91 03 38 	lds	r24, 0x3803	; 0x803803 <buttonMark>
 8d4:	8f 3f       	cpi	r24, 0xFF	; 255
 8d6:	29 f0       	breq	.+10     	; 0x8e2 <__vector_6+0x36>
 8d8:	80 91 03 38 	lds	r24, 0x3803	; 0x803803 <buttonMark>
 8dc:	8f 5f       	subi	r24, 0xFF	; 255
 8de:	80 93 03 38 	sts	0x3803, r24	; 0x803803 <buttonMark>
 8e2:	80 91 48 01 	lds	r24, 0x0148	; 0x800148 <__TEXT_REGION_LENGTH__+0x700148>
 8e6:	90 91 49 01 	lds	r25, 0x0149	; 0x800149 <__TEXT_REGION_LENGTH__+0x700149>
 8ea:	60 91 4a 01 	lds	r22, 0x014A	; 0x80014a <__TEXT_REGION_LENGTH__+0x70014a>
 8ee:	70 91 4b 01 	lds	r23, 0x014B	; 0x80014b <__TEXT_REGION_LENGTH__+0x70014b>
 8f2:	82 96       	adiw	r24, 0x22	; 34
 8f4:	5d d3       	rcall	.+1722   	; 0xfb0 <__udivmodhi4>
 8f6:	80 93 96 38 	sts	0x3896, r24	; 0x803896 <tmp16bit>
 8fa:	90 93 97 38 	sts	0x3897, r25	; 0x803897 <tmp16bit+0x1>
 8fe:	e1 e4       	ldi	r30, 0x41	; 65
 900:	f1 e0       	ldi	r31, 0x01	; 1
 902:	80 81       	ld	r24, Z
 904:	83 fd       	sbrc	r24, 3
 906:	fd cf       	rjmp	.-6      	; 0x902 <__vector_6+0x56>
 908:	80 91 96 38 	lds	r24, 0x3896	; 0x803896 <tmp16bit>
 90c:	90 91 97 38 	lds	r25, 0x3897	; 0x803897 <tmp16bit+0x1>
 910:	80 93 4c 01 	sts	0x014C, r24	; 0x80014c <__TEXT_REGION_LENGTH__+0x70014c>
 914:	90 93 4d 01 	sts	0x014D, r25	; 0x80014d <__TEXT_REGION_LENGTH__+0x70014d>
 918:	82 e0       	ldi	r24, 0x02	; 2
 91a:	80 93 43 01 	sts	0x0143, r24	; 0x800143 <__TEXT_REGION_LENGTH__+0x700143>
 91e:	0c c0       	rjmp	.+24     	; 0x938 <__vector_6+0x8c>
 920:	80 91 04 38 	lds	r24, 0x3804	; 0x803804 <minuteMark>
 924:	8f 3f       	cpi	r24, 0xFF	; 255
 926:	29 f0       	breq	.+10     	; 0x932 <__vector_6+0x86>
 928:	80 91 04 38 	lds	r24, 0x3804	; 0x803804 <minuteMark>
 92c:	8f 5f       	subi	r24, 0xFF	; 255
 92e:	80 93 04 38 	sts	0x3804, r24	; 0x803804 <minuteMark>
 932:	81 e0       	ldi	r24, 0x01	; 1
 934:	80 93 43 01 	sts	0x0143, r24	; 0x800143 <__TEXT_REGION_LENGTH__+0x700143>
 938:	ff 91       	pop	r31
 93a:	ef 91       	pop	r30
 93c:	bf 91       	pop	r27
 93e:	af 91       	pop	r26
 940:	9f 91       	pop	r25
 942:	8f 91       	pop	r24
 944:	7f 91       	pop	r23
 946:	6f 91       	pop	r22
 948:	5f 91       	pop	r21
 94a:	0f 90       	pop	r0
 94c:	0f be       	out	0x3f, r0	; 63
 94e:	0f 90       	pop	r0
 950:	1f 90       	pop	r1
 952:	18 95       	reti

00000954 <__vector_7>:
 954:	1f 92       	push	r1
 956:	0f 92       	push	r0
 958:	0f b6       	in	r0, 0x3f	; 63
 95a:	0f 92       	push	r0
 95c:	11 24       	eor	r1, r1
 95e:	8f 93       	push	r24
 960:	81 e0       	ldi	r24, 0x01	; 1
 962:	80 93 48 06 	sts	0x0648, r24	; 0x800648 <__TEXT_REGION_LENGTH__+0x700648>
 966:	80 93 53 01 	sts	0x0153, r24	; 0x800153 <__TEXT_REGION_LENGTH__+0x700153>
 96a:	8f 91       	pop	r24
 96c:	0f 90       	pop	r0
 96e:	0f be       	out	0x3f, r0	; 63
 970:	0f 90       	pop	r0
 972:	1f 90       	pop	r1
 974:	18 95       	reti

00000976 <EEWrite>:
    }
}

//Write bytes to the EEPROM, if address exceeds EEPROM space data wraps around
uint8_t EEWrite(uint8_t eeAddr, uint8_t *eeValues, uint8_t size)
{
 976:	ff 92       	push	r15
 978:	0f 93       	push	r16
 97a:	1f 93       	push	r17
 97c:	cf 93       	push	r28
 97e:	df 93       	push	r29
 980:	e8 2f       	mov	r30, r24
    uint8_t lastByteOfPage;
    while(size){
 982:	44 23       	and	r20, r20
 984:	79 f1       	breq	.+94     	; 0x9e4 <EEWrite+0x6e>
        lastByteOfPage = 0;
        while(NVMCTRL_STATUS & NVMCTRL_EEBUSY_bm);              // Wait until any write operation has finished
 986:	c2 e0       	ldi	r28, 0x02	; 2
 988:	d0 e1       	ldi	r29, 0x10	; 16
        CCP = CCP_SPM_gc;                                       // Gain access to NVMCTRL_CTRLA
 98a:	3d e9       	ldi	r19, 0x9D	; 157
        NVMCTRL_CTRLA = NVMCTRL_CMD_PAGEBUFCLR_gc;              // Clear page buffer
 98c:	00 e0       	ldi	r16, 0x00	; 0
 98e:	10 e1       	ldi	r17, 0x10	; 16
 990:	54 e0       	ldi	r21, 0x04	; 4
            if ((eeAddr % EEPROM_PAGE_SIZE) == (EEPROM_PAGE_SIZE-1)) lastByteOfPage = 1;
            *(uint8_t *)(EEPROM_START+eeAddr++) = *eeValues++;  // Write data to buffer
            --size;
        }
        CCP = CCP_SPM_gc;
        NVMCTRL_CTRLA = NVMCTRL_CMD_PAGEERASEWRITE_gc;          // Erase old data and write new data to EEPROM
 992:	0f 2e       	mov	r0, r31
 994:	f3 e0       	ldi	r31, 0x03	; 3
 996:	ff 2e       	mov	r15, r31
 998:	f0 2d       	mov	r31, r0
uint8_t EEWrite(uint8_t eeAddr, uint8_t *eeValues, uint8_t size)
{
    uint8_t lastByteOfPage;
    while(size){
        lastByteOfPage = 0;
        while(NVMCTRL_STATUS & NVMCTRL_EEBUSY_bm);              // Wait until any write operation has finished
 99a:	88 81       	ld	r24, Y
 99c:	81 fd       	sbrc	r24, 1
 99e:	fd cf       	rjmp	.-6      	; 0x99a <EEWrite+0x24>
        CCP = CCP_SPM_gc;                                       // Gain access to NVMCTRL_CTRLA
 9a0:	34 bf       	out	0x34, r19	; 52
        NVMCTRL_CTRLA = NVMCTRL_CMD_PAGEBUFCLR_gc;              // Clear page buffer
 9a2:	d8 01       	movw	r26, r16
 9a4:	5c 93       	st	X, r21
        while((size) && (lastByteOfPage == 0)){
 9a6:	44 23       	and	r20, r20
 9a8:	91 f0       	breq	.+36     	; 0x9ce <EEWrite+0x58>
            if ((eeAddr % EEPROM_PAGE_SIZE) == (EEPROM_PAGE_SIZE-1)) lastByteOfPage = 1;
 9aa:	2e 2f       	mov	r18, r30
 9ac:	2f 71       	andi	r18, 0x1F	; 31
            *(uint8_t *)(EEPROM_START+eeAddr++) = *eeValues++;  // Write data to buffer
 9ae:	91 e0       	ldi	r25, 0x01	; 1
 9b0:	9e 0f       	add	r25, r30
 9b2:	6f 5f       	subi	r22, 0xFF	; 255
 9b4:	7f 4f       	sbci	r23, 0xFF	; 255
 9b6:	db 01       	movw	r26, r22
 9b8:	11 97       	sbiw	r26, 0x01	; 1
 9ba:	8c 91       	ld	r24, X
 9bc:	f0 e0       	ldi	r31, 0x00	; 0
 9be:	fc 5e       	subi	r31, 0xEC	; 236
 9c0:	80 83       	st	Z, r24
            --size;
 9c2:	41 50       	subi	r20, 0x01	; 1
    while(size){
        lastByteOfPage = 0;
        while(NVMCTRL_STATUS & NVMCTRL_EEBUSY_bm);              // Wait until any write operation has finished
        CCP = CCP_SPM_gc;                                       // Gain access to NVMCTRL_CTRLA
        NVMCTRL_CTRLA = NVMCTRL_CMD_PAGEBUFCLR_gc;              // Clear page buffer
        while((size) && (lastByteOfPage == 0)){
 9c4:	21 f0       	breq	.+8      	; 0x9ce <EEWrite+0x58>
            if ((eeAddr % EEPROM_PAGE_SIZE) == (EEPROM_PAGE_SIZE-1)) lastByteOfPage = 1;
            *(uint8_t *)(EEPROM_START+eeAddr++) = *eeValues++;  // Write data to buffer
 9c6:	e9 2f       	mov	r30, r25
    while(size){
        lastByteOfPage = 0;
        while(NVMCTRL_STATUS & NVMCTRL_EEBUSY_bm);              // Wait until any write operation has finished
        CCP = CCP_SPM_gc;                                       // Gain access to NVMCTRL_CTRLA
        NVMCTRL_CTRLA = NVMCTRL_CMD_PAGEBUFCLR_gc;              // Clear page buffer
        while((size) && (lastByteOfPage == 0)){
 9c8:	2f 31       	cpi	r18, 0x1F	; 31
 9ca:	79 f7       	brne	.-34     	; 0x9aa <EEWrite+0x34>
 9cc:	0f c0       	rjmp	.+30     	; 0x9ec <EEWrite+0x76>
            if ((eeAddr % EEPROM_PAGE_SIZE) == (EEPROM_PAGE_SIZE-1)) lastByteOfPage = 1;
            *(uint8_t *)(EEPROM_START+eeAddr++) = *eeValues++;  // Write data to buffer
            --size;
        }
        CCP = CCP_SPM_gc;
 9ce:	8d e9       	ldi	r24, 0x9D	; 157
 9d0:	84 bf       	out	0x34, r24	; 52
        NVMCTRL_CTRLA = NVMCTRL_CMD_PAGEERASEWRITE_gc;          // Erase old data and write new data to EEPROM
 9d2:	83 e0       	ldi	r24, 0x03	; 3
 9d4:	80 93 00 10 	sts	0x1000, r24	; 0x801000 <__TEXT_REGION_LENGTH__+0x701000>
        if (NVMCTRL_STATUS & NVMCTRL_WRERROR_bm) return 1;
 9d8:	80 91 02 10 	lds	r24, 0x1002	; 0x801002 <__TEXT_REGION_LENGTH__+0x701002>
 9dc:	82 fb       	bst	r24, 2
 9de:	88 27       	eor	r24, r24
 9e0:	80 f9       	bld	r24, 0
 9e2:	0c c0       	rjmp	.+24     	; 0x9fc <EEWrite+0x86>
    }
    return 0;
 9e4:	80 e0       	ldi	r24, 0x00	; 0
 9e6:	0a c0       	rjmp	.+20     	; 0x9fc <EEWrite+0x86>
            *(uint8_t *)(EEPROM_START+eeAddr++) = *eeValues++;  // Write data to buffer
            --size;
        }
        CCP = CCP_SPM_gc;
        NVMCTRL_CTRLA = NVMCTRL_CMD_PAGEERASEWRITE_gc;          // Erase old data and write new data to EEPROM
        if (NVMCTRL_STATUS & NVMCTRL_WRERROR_bm) return 1;
 9e8:	81 e0       	ldi	r24, 0x01	; 1
 9ea:	08 c0       	rjmp	.+16     	; 0x9fc <EEWrite+0x86>
        while((size) && (lastByteOfPage == 0)){
            if ((eeAddr % EEPROM_PAGE_SIZE) == (EEPROM_PAGE_SIZE-1)) lastByteOfPage = 1;
            *(uint8_t *)(EEPROM_START+eeAddr++) = *eeValues++;  // Write data to buffer
            --size;
        }
        CCP = CCP_SPM_gc;
 9ec:	34 bf       	out	0x34, r19	; 52
        NVMCTRL_CTRLA = NVMCTRL_CMD_PAGEERASEWRITE_gc;          // Erase old data and write new data to EEPROM
 9ee:	f8 01       	movw	r30, r16
 9f0:	f0 82       	st	Z, r15
        if (NVMCTRL_STATUS & NVMCTRL_WRERROR_bm) return 1;
 9f2:	88 81       	ld	r24, Y
 9f4:	82 fd       	sbrc	r24, 2
 9f6:	f8 cf       	rjmp	.-16     	; 0x9e8 <EEWrite+0x72>
        while(NVMCTRL_STATUS & NVMCTRL_EEBUSY_bm);              // Wait until any write operation has finished
        CCP = CCP_SPM_gc;                                       // Gain access to NVMCTRL_CTRLA
        NVMCTRL_CTRLA = NVMCTRL_CMD_PAGEBUFCLR_gc;              // Clear page buffer
        while((size) && (lastByteOfPage == 0)){
            if ((eeAddr % EEPROM_PAGE_SIZE) == (EEPROM_PAGE_SIZE-1)) lastByteOfPage = 1;
            *(uint8_t *)(EEPROM_START+eeAddr++) = *eeValues++;  // Write data to buffer
 9f8:	e9 2f       	mov	r30, r25
 9fa:	cf cf       	rjmp	.-98     	; 0x99a <EEWrite+0x24>
        CCP = CCP_SPM_gc;
        NVMCTRL_CTRLA = NVMCTRL_CMD_PAGEERASEWRITE_gc;          // Erase old data and write new data to EEPROM
        if (NVMCTRL_STATUS & NVMCTRL_WRERROR_bm) return 1;
    }
    return 0;
}
 9fc:	df 91       	pop	r29
 9fe:	cf 91       	pop	r28
 a00:	1f 91       	pop	r17
 a02:	0f 91       	pop	r16
 a04:	ff 90       	pop	r15
 a06:	08 95       	ret

00000a08 <SerSend>:

//Sends a set of characters to the serial port, stops only when character value 0 is reached.
uint8_t SerSend(unsigned char *addr){
 a08:	9c 01       	movw	r18, r24
    if (serTxDone){
 a0a:	90 91 00 38 	lds	r25, 0x3800	; 0x803800 <__data_start>
 a0e:	99 23       	and	r25, r25
 a10:	59 f0       	breq	.+22     	; 0xa28 <SerSend+0x20>
        serTxAddr = addr;
 a12:	20 93 45 38 	sts	0x3845, r18	; 0x803845 <serTxAddr>
 a16:	30 93 46 38 	sts	0x3846, r19	; 0x803846 <serTxAddr+0x1>
        serTxDone = 0;
 a1a:	10 92 00 38 	sts	0x3800, r1	; 0x803800 <__data_start>
        TCB0_INTCTRL = 0x01;
 a1e:	81 e0       	ldi	r24, 0x01	; 1
 a20:	80 93 45 0a 	sts	0x0A45, r24	; 0x800a45 <__TEXT_REGION_LENGTH__+0x700a45>
        return 0;
 a24:	80 e0       	ldi	r24, 0x00	; 0
 a26:	08 95       	ret
    } else return 1;    //Error: Still sending data
 a28:	81 e0       	ldi	r24, 0x01	; 1
};
 a2a:	08 95       	ret

00000a2c <SerSpeed>:

// Set serial character output speed, 255-0 (0.8 to 100ms delay between characters)
void SerSpeed(uint8_t serSpd){
 a2c:	28 2f       	mov	r18, r24
    if (serSpd<1) serSpd = 1;
 a2e:	81 11       	cpse	r24, r1
 a30:	01 c0       	rjmp	.+2      	; 0xa34 <SerSpeed+0x8>
 a32:	21 e0       	ldi	r18, 0x01	; 1
    TCB0_CCMP = ((uint16_t)(0xFF-serSpd)<<8) + 0xFF;
 a34:	8f ef       	ldi	r24, 0xFF	; 255
 a36:	90 e0       	ldi	r25, 0x00	; 0
 a38:	82 1b       	sub	r24, r18
 a3a:	91 09       	sbc	r25, r1
 a3c:	98 2f       	mov	r25, r24
 a3e:	88 27       	eor	r24, r24
 a40:	81 50       	subi	r24, 0x01	; 1
 a42:	9f 4f       	sbci	r25, 0xFF	; 255
 a44:	80 93 4c 0a 	sts	0x0A4C, r24	; 0x800a4c <__TEXT_REGION_LENGTH__+0x700a4c>
 a48:	90 93 4d 0a 	sts	0x0A4D, r25	; 0x800a4d <__TEXT_REGION_LENGTH__+0x700a4d>
 a4c:	08 95       	ret

00000a4e <SelectTSens>:
};

// Select temperature sensor
void SelectTSens(){
     VREF_CTRLA   = 0x12;    //0x22 for audio in/out (2.5V), 0x12 for temperature in, audio out (1.1V/2.5V)
 a4e:	82 e1       	ldi	r24, 0x12	; 18
 a50:	80 93 a0 00 	sts	0x00A0, r24	; 0x8000a0 <__TEXT_REGION_LENGTH__+0x7000a0>
     ADC0_CTRLA   |= ADC_RESSEL_bm;
 a54:	e0 e0       	ldi	r30, 0x00	; 0
 a56:	f6 e0       	ldi	r31, 0x06	; 6
 a58:	80 81       	ld	r24, Z
 a5a:	84 60       	ori	r24, 0x04	; 4
 a5c:	80 83       	st	Z, r24
     ADC0_MUXPOS  = 0x1E;    //Audio in: AIN7 at (0x07), Temperature: Internal sensor at (0x1E)
 a5e:	8e e1       	ldi	r24, 0x1E	; 30
 a60:	80 93 06 06 	sts	0x0606, r24	; 0x800606 <__TEXT_REGION_LENGTH__+0x700606>
     adc0Chg = 1;
 a64:	81 e0       	ldi	r24, 0x01	; 1
 a66:	80 93 02 38 	sts	0x3802, r24	; 0x803802 <__data_end>
 a6a:	08 95       	ret

00000a6c <SelectAuIn>:
};

// Select "audio" input (0-2.5V)
void SelectAuIn(){
     VREF_CTRLA   = 0x22;    //0x22 for audio in/out (2.5V), 0x12 for temperature in, audio out (1.1V/2.5V)
 a6c:	82 e2       	ldi	r24, 0x22	; 34
 a6e:	80 93 a0 00 	sts	0x00A0, r24	; 0x8000a0 <__TEXT_REGION_LENGTH__+0x7000a0>
     ADC0_CTRLA   &= ~(ADC_RESSEL_bm);
 a72:	e0 e0       	ldi	r30, 0x00	; 0
 a74:	f6 e0       	ldi	r31, 0x06	; 6
 a76:	80 81       	ld	r24, Z
 a78:	8b 7f       	andi	r24, 0xFB	; 251
 a7a:	80 83       	st	Z, r24
     ADC0_MUXPOS  = 0x07;    //Audio in: AIN7 at (0x07), Temperature: Internal sensor at (0x1E)
 a7c:	87 e0       	ldi	r24, 0x07	; 7
 a7e:	80 93 06 06 	sts	0x0606, r24	; 0x800606 <__TEXT_REGION_LENGTH__+0x700606>
     adc0Chg = 1;
 a82:	81 e0       	ldi	r24, 0x01	; 1
 a84:	80 93 02 38 	sts	0x3802, r24	; 0x803802 <__data_end>
 a88:	08 95       	ret

00000a8a <LoadGameState>:
    } else
    if ((data[0] == 't')||(data[0] == 'u')){
        
    } 

    txAddrNow = 0;  //Start at first pointer, initiates sending in CheckSend
 a8a:	80 e0       	ldi	r24, 0x00	; 0
 a8c:	08 95       	ret

00000a8e <DecryptData>:
 a8e:	cf 93       	push	r28
 a90:	df 93       	push	r29
 a92:	dc 01       	movw	r26, r24
 a94:	e9 01       	movw	r28, r18
 a96:	66 23       	and	r22, r22
 a98:	a9 f0       	breq	.+42     	; 0xac4 <DecryptData+0x36>
 a9a:	50 e0       	ldi	r21, 0x00	; 0
 a9c:	90 97       	sbiw	r26, 0x20	; 32
 a9e:	fd 01       	movw	r30, r26
 aa0:	e7 70       	andi	r30, 0x07	; 7
 aa2:	ff 27       	eor	r31, r31
 aa4:	ee 0f       	add	r30, r30
 aa6:	ff 1f       	adc	r31, r31
 aa8:	ee 0f       	add	r30, r30
 aaa:	ff 1f       	adc	r31, r31
 aac:	ee 0f       	add	r30, r30
 aae:	ff 1f       	adc	r31, r31
 ab0:	ea 5e       	subi	r30, 0xEA	; 234
 ab2:	ff 46       	sbci	r31, 0x6F	; 111
 ab4:	e4 0f       	add	r30, r20
 ab6:	f5 1f       	adc	r31, r21
 ab8:	88 81       	ld	r24, Y
 aba:	90 81       	ld	r25, Z
 abc:	98 27       	eor	r25, r24
 abe:	99 93       	st	Y+, r25
 ac0:	61 50       	subi	r22, 0x01	; 1
 ac2:	61 f7       	brne	.-40     	; 0xa9c <DecryptData+0xe>
 ac4:	df 91       	pop	r29
 ac6:	cf 91       	pop	r28
 ac8:	08 95       	ret

00000aca <ExtEERead>:
 aca:	af 92       	push	r10
 acc:	bf 92       	push	r11
 ace:	cf 92       	push	r12
 ad0:	df 92       	push	r13
 ad2:	ef 92       	push	r14
 ad4:	ff 92       	push	r15
 ad6:	0f 93       	push	r16
 ad8:	1f 93       	push	r17
 ada:	cf 93       	push	r28
 adc:	df 93       	push	r29
 ade:	00 d0       	rcall	.+0      	; 0xae0 <ExtEERead+0x16>
 ae0:	cd b7       	in	r28, 0x3d	; 61
 ae2:	de b7       	in	r29, 0x3e	; 62
 ae4:	d6 2e       	mov	r13, r22
 ae6:	c4 2e       	mov	r12, r20
 ae8:	59 01       	movw	r10, r18
 aea:	80 96       	adiw	r24, 0x20	; 32
 aec:	7c 01       	movw	r14, r24
 aee:	e8 94       	clt
 af0:	f7 f8       	bld	r15, 7
 af2:	f9 82       	std	Y+1, r15	; 0x01
 af4:	ea 82       	std	Y+2, r14	; 0x02
 af6:	06 2f       	mov	r16, r22
 af8:	42 e0       	ldi	r20, 0x02	; 2
 afa:	be 01       	movw	r22, r28
 afc:	6f 5f       	subi	r22, 0xFF	; 255
 afe:	7f 4f       	sbci	r23, 0xFF	; 255
 b00:	80 e5       	ldi	r24, 0x50	; 80
 b02:	ce db       	rcall	.-2148   	; 0x2a0 <I2C_read_bytes>
 b04:	18 2f       	mov	r17, r24
 b06:	81 11       	cpse	r24, r1
 b08:	05 c0       	rjmp	.+10     	; 0xb14 <ExtEERead+0x4a>
 b0a:	95 01       	movw	r18, r10
 b0c:	4c 2d       	mov	r20, r12
 b0e:	6d 2d       	mov	r22, r13
 b10:	c7 01       	movw	r24, r14
 b12:	bd df       	rcall	.-134    	; 0xa8e <DecryptData>
 b14:	81 2f       	mov	r24, r17
 b16:	0f 90       	pop	r0
 b18:	0f 90       	pop	r0
 b1a:	df 91       	pop	r29
 b1c:	cf 91       	pop	r28
 b1e:	1f 91       	pop	r17
 b20:	0f 91       	pop	r16
 b22:	ff 90       	pop	r15
 b24:	ef 90       	pop	r14
 b26:	df 90       	pop	r13
 b28:	cf 90       	pop	r12
 b2a:	bf 90       	pop	r11
 b2c:	af 90       	pop	r10
 b2e:	08 95       	ret

00000b30 <ClearTxAfter>:
 b30:	8f 5f       	subi	r24, 0xFF	; 255
 b32:	88 30       	cpi	r24, 0x08	; 8
 b34:	40 f4       	brcc	.+16     	; 0xb46 <ClearTxAfter+0x16>
 b36:	e8 2f       	mov	r30, r24
 b38:	f0 e0       	ldi	r31, 0x00	; 0
 b3a:	e8 5f       	subi	r30, 0xF8	; 248
 b3c:	f7 4c       	sbci	r31, 0xC7	; 199
 b3e:	10 82       	st	Z, r1
 b40:	8f 5f       	subi	r24, 0xFF	; 255
 b42:	88 30       	cpi	r24, 0x08	; 8
 b44:	c1 f7       	brne	.-16     	; 0xb36 <ClearTxAfter+0x6>
 b46:	08 95       	ret

00000b48 <StartsWith>:
 b48:	fc 01       	movw	r30, r24
 b4a:	90 81       	ld	r25, Z
 b4c:	99 23       	and	r25, r25
 b4e:	b1 f0       	breq	.+44     	; 0xb7c <StartsWith+0x34>
 b50:	db 01       	movw	r26, r22
 b52:	8c 91       	ld	r24, X
 b54:	88 23       	and	r24, r24
 b56:	a1 f0       	breq	.+40     	; 0xb80 <StartsWith+0x38>
 b58:	98 13       	cpse	r25, r24
 b5a:	14 c0       	rjmp	.+40     	; 0xb84 <StartsWith+0x3c>
 b5c:	91 81       	ldd	r25, Z+1	; 0x01
 b5e:	91 11       	cpse	r25, r1
 b60:	07 c0       	rjmp	.+14     	; 0xb70 <StartsWith+0x28>
 b62:	81 e0       	ldi	r24, 0x01	; 1
 b64:	08 95       	ret
 b66:	81 e0       	ldi	r24, 0x01	; 1
 b68:	92 17       	cp	r25, r18
 b6a:	69 f0       	breq	.+26     	; 0xb86 <StartsWith+0x3e>
 b6c:	80 e0       	ldi	r24, 0x00	; 0
 b6e:	08 95       	ret
 b70:	fb 01       	movw	r30, r22
 b72:	21 81       	ldd	r18, Z+1	; 0x01
 b74:	21 11       	cpse	r18, r1
 b76:	f7 cf       	rjmp	.-18     	; 0xb66 <StartsWith+0x1e>
 b78:	81 e0       	ldi	r24, 0x01	; 1
 b7a:	08 95       	ret
 b7c:	81 e0       	ldi	r24, 0x01	; 1
 b7e:	08 95       	ret
 b80:	81 e0       	ldi	r24, 0x01	; 1
 b82:	08 95       	ret
 b84:	80 e0       	ldi	r24, 0x00	; 0
 b86:	08 95       	ret

00000b88 <CheckSend>:
 b88:	cf 93       	push	r28
 b8a:	80 91 07 38 	lds	r24, 0x3807	; 0x803807 <txAddrNow>
 b8e:	88 30       	cpi	r24, 0x08	; 8
 b90:	d0 f5       	brcc	.+116    	; 0xc06 <CheckSend+0x7e>
 b92:	90 91 00 38 	lds	r25, 0x3800	; 0x803800 <__data_start>
 b96:	99 23       	and	r25, r25
 b98:	b1 f1       	breq	.+108    	; 0xc06 <CheckSend+0x7e>
 b9a:	28 2f       	mov	r18, r24
 b9c:	30 e0       	ldi	r19, 0x00	; 0
 b9e:	f9 01       	movw	r30, r18
 ba0:	e8 5f       	subi	r30, 0xF8	; 248
 ba2:	f7 4c       	sbci	r31, 0xC7	; 199
 ba4:	e0 81       	ld	r30, Z
 ba6:	90 91 06 38 	lds	r25, 0x3806	; 0x803806 <txPart.3980>
 baa:	9e 17       	cp	r25, r30
 bac:	28 f5       	brcc	.+74     	; 0xbf8 <CheckSend+0x70>
 bae:	ce 2f       	mov	r28, r30
 bb0:	c9 1b       	sub	r28, r25
 bb2:	c1 32       	cpi	r28, 0x21	; 33
 bb4:	08 f0       	brcs	.+2      	; 0xbb8 <CheckSend+0x30>
 bb6:	c0 e2       	ldi	r28, 0x20	; 32
 bb8:	22 0f       	add	r18, r18
 bba:	33 1f       	adc	r19, r19
 bbc:	f9 01       	movw	r30, r18
 bbe:	e0 5f       	subi	r30, 0xF0	; 240
 bc0:	f7 4c       	sbci	r31, 0xC7	; 199
 bc2:	01 90       	ld	r0, Z+
 bc4:	f0 81       	ld	r31, Z
 bc6:	e0 2d       	mov	r30, r0
 bc8:	22 eb       	ldi	r18, 0xB2	; 178
 bca:	38 e3       	ldi	r19, 0x38	; 56
 bcc:	40 e0       	ldi	r20, 0x00	; 0
 bce:	6c 2f       	mov	r22, r28
 bd0:	df 01       	movw	r26, r30
 bd2:	a9 0f       	add	r26, r25
 bd4:	b1 1d       	adc	r27, r1
 bd6:	cd 01       	movw	r24, r26
 bd8:	78 df       	rcall	.-272    	; 0xaca <ExtEERead>
 bda:	80 91 06 38 	lds	r24, 0x3806	; 0x803806 <txPart.3980>
 bde:	8c 0f       	add	r24, r28
 be0:	80 93 06 38 	sts	0x3806, r24	; 0x803806 <txPart.3980>
 be4:	ec 2f       	mov	r30, r28
 be6:	f0 e0       	ldi	r31, 0x00	; 0
 be8:	ee 54       	subi	r30, 0x4E	; 78
 bea:	f7 4c       	sbci	r31, 0xC7	; 199
 bec:	10 82       	st	Z, r1
 bee:	82 eb       	ldi	r24, 0xB2	; 178
 bf0:	98 e3       	ldi	r25, 0x38	; 56
 bf2:	0a df       	rcall	.-492    	; 0xa08 <SerSend>
 bf4:	81 e0       	ldi	r24, 0x01	; 1
 bf6:	0c c0       	rjmp	.+24     	; 0xc10 <CheckSend+0x88>
 bf8:	10 92 06 38 	sts	0x3806, r1	; 0x803806 <txPart.3980>
 bfc:	8f 5f       	subi	r24, 0xFF	; 255
 bfe:	80 93 07 38 	sts	0x3807, r24	; 0x803807 <txAddrNow>
 c02:	81 e0       	ldi	r24, 0x01	; 1
 c04:	05 c0       	rjmp	.+10     	; 0xc10 <CheckSend+0x88>
 c06:	90 91 00 38 	lds	r25, 0x3800	; 0x803800 <__data_start>
 c0a:	81 e0       	ldi	r24, 0x01	; 1
 c0c:	91 11       	cpse	r25, r1
 c0e:	80 e0       	ldi	r24, 0x00	; 0
 c10:	cf 91       	pop	r28
 c12:	08 95       	ret

00000c14 <CheckInput>:
 c14:	af 92       	push	r10
 c16:	bf 92       	push	r11
 c18:	cf 92       	push	r12
 c1a:	df 92       	push	r13
 c1c:	ff 92       	push	r15
 c1e:	0f 93       	push	r16
 c20:	1f 93       	push	r17
 c22:	cf 93       	push	r28
 c24:	df 93       	push	r29
 c26:	cd b7       	in	r28, 0x3d	; 61
 c28:	de b7       	in	r29, 0x3e	; 62
 c2a:	2c 97       	sbiw	r28, 0x0c	; 12
 c2c:	cd bf       	out	0x3d, r28	; 61
 c2e:	de bf       	out	0x3e, r29	; 62
 c30:	20 91 05 38 	lds	r18, 0x3805	; 0x803805 <serRxDone>
 c34:	22 23       	and	r18, r18
 c36:	09 f4       	brne	.+2      	; 0xc3a <CheckInput+0x26>
 c38:	d6 c0       	rjmp	.+428    	; 0xde6 <CheckInput+0x1d2>
 c3a:	20 91 21 38 	lds	r18, 0x3821	; 0x803821 <serRx>
 c3e:	22 23       	and	r18, r18
 c40:	61 f1       	breq	.+88     	; 0xc9a <CheckInput+0x86>
 c42:	20 e0       	ldi	r18, 0x00	; 0
 c44:	30 e0       	ldi	r19, 0x00	; 0
 c46:	40 e0       	ldi	r20, 0x00	; 0
 c48:	f9 01       	movw	r30, r18
 c4a:	ef 5d       	subi	r30, 0xDF	; 223
 c4c:	f7 4c       	sbci	r31, 0xC7	; 199
 c4e:	50 81       	ld	r21, Z
 c50:	51 34       	cpi	r21, 0x41	; 65
 c52:	30 f0       	brcs	.+12     	; 0xc60 <CheckInput+0x4c>
 c54:	f9 01       	movw	r30, r18
 c56:	ef 5d       	subi	r30, 0xDF	; 223
 c58:	f7 4c       	sbci	r31, 0xC7	; 199
 c5a:	50 81       	ld	r21, Z
 c5c:	5b 35       	cpi	r21, 0x5B	; 91
 c5e:	48 f0       	brcs	.+18     	; 0xc72 <CheckInput+0x5e>
 c60:	f9 01       	movw	r30, r18
 c62:	ef 5d       	subi	r30, 0xDF	; 223
 c64:	f7 4c       	sbci	r31, 0xC7	; 199
 c66:	20 81       	ld	r18, Z
 c68:	fc 01       	movw	r30, r24
 c6a:	e4 0f       	add	r30, r20
 c6c:	f1 1d       	adc	r31, r1
 c6e:	20 83       	st	Z, r18
 c70:	09 c0       	rjmp	.+18     	; 0xc84 <CheckInput+0x70>
 c72:	f9 01       	movw	r30, r18
 c74:	ef 5d       	subi	r30, 0xDF	; 223
 c76:	f7 4c       	sbci	r31, 0xC7	; 199
 c78:	20 81       	ld	r18, Z
 c7a:	fc 01       	movw	r30, r24
 c7c:	e4 0f       	add	r30, r20
 c7e:	f1 1d       	adc	r31, r1
 c80:	20 62       	ori	r18, 0x20	; 32
 c82:	20 83       	st	Z, r18
 c84:	10 92 05 38 	sts	0x3805, r1	; 0x803805 <serRxDone>
 c88:	4f 5f       	subi	r20, 0xFF	; 255
 c8a:	24 2f       	mov	r18, r20
 c8c:	30 e0       	ldi	r19, 0x00	; 0
 c8e:	f9 01       	movw	r30, r18
 c90:	ef 5d       	subi	r30, 0xDF	; 223
 c92:	f7 4c       	sbci	r31, 0xC7	; 199
 c94:	50 81       	ld	r21, Z
 c96:	51 11       	cpse	r21, r1
 c98:	d7 cf       	rjmp	.-82     	; 0xc48 <CheckInput+0x34>
 c9a:	dc 01       	movw	r26, r24
 c9c:	2c 91       	ld	r18, X
 c9e:	2f 33       	cpi	r18, 0x3F	; 63
 ca0:	19 f0       	breq	.+6      	; 0xca8 <CheckInput+0x94>
 ca2:	28 36       	cpi	r18, 0x68	; 104
 ca4:	09 f0       	breq	.+2      	; 0xca8 <CheckInput+0x94>
 ca6:	77 c0       	rjmp	.+238    	; 0xd96 <CheckInput+0x182>
 ca8:	9e 01       	movw	r18, r28
 caa:	25 5f       	subi	r18, 0xF5	; 245
 cac:	3f 4f       	sbci	r19, 0xFF	; 255
 cae:	40 e0       	ldi	r20, 0x00	; 0
 cb0:	62 e0       	ldi	r22, 0x02	; 2
 cb2:	80 e0       	ldi	r24, 0x00	; 0
 cb4:	90 e0       	ldi	r25, 0x00	; 0
 cb6:	09 df       	rcall	.-494    	; 0xaca <ExtEERead>
 cb8:	81 11       	cpse	r24, r1
 cba:	93 c0       	rjmp	.+294    	; 0xde2 <CheckInput+0x1ce>
 cbc:	8b 85       	ldd	r24, Y+11	; 0x0b
 cbe:	9c 85       	ldd	r25, Y+12	; 0x0c
 cc0:	9b 87       	std	Y+11, r25	; 0x0b
 cc2:	8c 87       	std	Y+12, r24	; 0x0c
 cc4:	9e 01       	movw	r18, r28
 cc6:	2f 5f       	subi	r18, 0xFF	; 255
 cc8:	3f 4f       	sbci	r19, 0xFF	; 255
 cca:	40 e0       	ldi	r20, 0x00	; 0
 ccc:	62 e0       	ldi	r22, 0x02	; 2
 cce:	8b 85       	ldd	r24, Y+11	; 0x0b
 cd0:	9c 85       	ldd	r25, Y+12	; 0x0c
 cd2:	fb de       	rcall	.-522    	; 0xaca <ExtEERead>
 cd4:	2b 85       	ldd	r18, Y+11	; 0x0b
 cd6:	3c 85       	ldd	r19, Y+12	; 0x0c
 cd8:	2e 5f       	subi	r18, 0xFE	; 254
 cda:	3f 4f       	sbci	r19, 0xFF	; 255
 cdc:	e9 81       	ldd	r30, Y+1	; 0x01
 cde:	fa 81       	ldd	r31, Y+2	; 0x02
 ce0:	0f 2e       	mov	r0, r31
 ce2:	f0 e1       	ldi	r31, 0x10	; 16
 ce4:	af 2e       	mov	r10, r31
 ce6:	f8 e3       	ldi	r31, 0x38	; 56
 ce8:	bf 2e       	mov	r11, r31
 cea:	f0 2d       	mov	r31, r0
 cec:	08 e0       	ldi	r16, 0x08	; 8
 cee:	18 e3       	ldi	r17, 0x38	; 56
 cf0:	40 e0       	ldi	r20, 0x00	; 0
 cf2:	0f 2e       	mov	r0, r31
 cf4:	cc 24       	eor	r12, r12
 cf6:	ca 94       	dec	r12
 cf8:	ff e7       	ldi	r31, 0x7F	; 127
 cfa:	df 2e       	mov	r13, r31
 cfc:	f0 2d       	mov	r31, r0
 cfe:	ff 24       	eor	r15, r15
 d00:	fa 94       	dec	r15
 d02:	16 c0       	rjmp	.+44     	; 0xd30 <CheckInput+0x11c>
 d04:	c9 01       	movw	r24, r18
 d06:	b6 01       	movw	r22, r12
 d08:	53 d1       	rcall	.+678    	; 0xfb0 <__udivmodhi4>
 d0a:	d5 01       	movw	r26, r10
 d0c:	8d 93       	st	X+, r24
 d0e:	9d 93       	st	X+, r25
 d10:	5d 01       	movw	r10, r26
 d12:	4f 5f       	subi	r20, 0xFF	; 255
 d14:	d8 01       	movw	r26, r16
 d16:	fd 92       	st	X+, r15
 d18:	8d 01       	movw	r16, r26
 d1a:	21 50       	subi	r18, 0x01	; 1
 d1c:	3f 4f       	sbci	r19, 0xFF	; 255
 d1e:	ef 5f       	subi	r30, 0xFF	; 255
 d20:	f1 09       	sbc	r31, r1
 d22:	47 30       	cpi	r20, 0x07	; 7
 d24:	29 f4       	brne	.+10     	; 0xd30 <CheckInput+0x11c>
 d26:	e9 83       	std	Y+1, r30	; 0x01
 d28:	fa 83       	std	Y+2, r31	; 0x02
 d2a:	2b 87       	std	Y+11, r18	; 0x0b
 d2c:	3c 87       	std	Y+12, r19	; 0x0c
 d2e:	08 c0       	rjmp	.+16     	; 0xd40 <CheckInput+0x12c>
 d30:	ef 3f       	cpi	r30, 0xFF	; 255
 d32:	f1 05       	cpc	r31, r1
 d34:	09 f0       	breq	.+2      	; 0xd38 <CheckInput+0x124>
 d36:	30 f7       	brcc	.-52     	; 0xd04 <CheckInput+0xf0>
 d38:	e9 83       	std	Y+1, r30	; 0x01
 d3a:	fa 83       	std	Y+2, r31	; 0x02
 d3c:	2b 87       	std	Y+11, r18	; 0x0b
 d3e:	3c 87       	std	Y+12, r19	; 0x0c
 d40:	24 2f       	mov	r18, r20
 d42:	30 e0       	ldi	r19, 0x00	; 0
 d44:	f9 01       	movw	r30, r18
 d46:	ee 0f       	add	r30, r30
 d48:	ff 1f       	adc	r31, r31
 d4a:	e0 5f       	subi	r30, 0xF0	; 240
 d4c:	f7 4c       	sbci	r31, 0xC7	; 199
 d4e:	8b 85       	ldd	r24, Y+11	; 0x0b
 d50:	9c 85       	ldd	r25, Y+12	; 0x0c
 d52:	6f ef       	ldi	r22, 0xFF	; 255
 d54:	7f e7       	ldi	r23, 0x7F	; 127
 d56:	2c d1       	rcall	.+600    	; 0xfb0 <__udivmodhi4>
 d58:	80 83       	st	Z, r24
 d5a:	91 83       	std	Z+1, r25	; 0x01
 d5c:	f9 01       	movw	r30, r18
 d5e:	e8 5f       	subi	r30, 0xF8	; 248
 d60:	f7 4c       	sbci	r31, 0xC7	; 199
 d62:	09 81       	ldd	r16, Y+1	; 0x01
 d64:	1a 81       	ldd	r17, Y+2	; 0x02
 d66:	98 01       	movw	r18, r16
 d68:	a1 e8       	ldi	r26, 0x81	; 129
 d6a:	b0 e8       	ldi	r27, 0x80	; 128
 d6c:	35 d1       	rcall	.+618    	; 0xfd8 <__umulhisi3>
 d6e:	88 0f       	add	r24, r24
 d70:	89 2f       	mov	r24, r25
 d72:	88 1f       	adc	r24, r24
 d74:	99 0b       	sbc	r25, r25
 d76:	91 95       	neg	r25
 d78:	5f ef       	ldi	r21, 0xFF	; 255
 d7a:	58 9f       	mul	r21, r24
 d7c:	90 01       	movw	r18, r0
 d7e:	59 9f       	mul	r21, r25
 d80:	30 0d       	add	r19, r0
 d82:	11 24       	eor	r1, r1
 d84:	02 1b       	sub	r16, r18
 d86:	13 0b       	sbc	r17, r19
 d88:	00 83       	st	Z, r16
 d8a:	84 2f       	mov	r24, r20
 d8c:	d1 de       	rcall	.-606    	; 0xb30 <ClearTxAfter>
 d8e:	10 92 07 38 	sts	0x3807, r1	; 0x803807 <txAddrNow>
 d92:	81 e0       	ldi	r24, 0x01	; 1
 d94:	29 c0       	rjmp	.+82     	; 0xde8 <CheckInput+0x1d4>
 d96:	21 37       	cpi	r18, 0x71	; 113
 d98:	61 f4       	brne	.+24     	; 0xdb2 <CheckInput+0x19e>
 d9a:	10 92 10 38 	sts	0x3810, r1	; 0x803810 <txAddrList>
 d9e:	10 92 11 38 	sts	0x3811, r1	; 0x803811 <txAddrList+0x1>
 da2:	10 92 08 38 	sts	0x3808, r1	; 0x803808 <txStrLen>
 da6:	80 e0       	ldi	r24, 0x00	; 0
 da8:	c3 de       	rcall	.-634    	; 0xb30 <ClearTxAfter>
 daa:	10 92 07 38 	sts	0x3807, r1	; 0x803807 <txAddrNow>
 dae:	81 e0       	ldi	r24, 0x01	; 1
 db0:	1b c0       	rjmp	.+54     	; 0xde8 <CheckInput+0x1d4>
 db2:	66 e0       	ldi	r22, 0x06	; 6
 db4:	70 e9       	ldi	r23, 0x90	; 144
 db6:	c8 de       	rcall	.-624    	; 0xb48 <StartsWith>
 db8:	88 23       	and	r24, r24
 dba:	b1 f0       	breq	.+44     	; 0xde8 <CheckInput+0x1d4>
 dbc:	8a e0       	ldi	r24, 0x0A	; 10
 dbe:	ec e0       	ldi	r30, 0x0C	; 12
 dc0:	f0 e9       	ldi	r31, 0x90	; 144
 dc2:	de 01       	movw	r26, r28
 dc4:	11 96       	adiw	r26, 0x01	; 1
 dc6:	01 90       	ld	r0, Z+
 dc8:	0d 92       	st	X+, r0
 dca:	8a 95       	dec	r24
 dcc:	e1 f7       	brne	.-8      	; 0xdc6 <CheckInput+0x1b2>
 dce:	8f ef       	ldi	r24, 0xFF	; 255
 dd0:	2d de       	rcall	.-934    	; 0xa2c <SerSpeed>
 dd2:	80 91 00 38 	lds	r24, 0x3800	; 0x803800 <__data_start>
 dd6:	88 23       	and	r24, r24
 dd8:	e1 f3       	breq	.-8      	; 0xdd2 <CheckInput+0x1be>
 dda:	ce 01       	movw	r24, r28
 ddc:	01 96       	adiw	r24, 0x01	; 1
 dde:	14 de       	rcall	.-984    	; 0xa08 <SerSend>
 de0:	f8 cf       	rjmp	.-16     	; 0xdd2 <CheckInput+0x1be>
 de2:	8f ef       	ldi	r24, 0xFF	; 255
 de4:	01 c0       	rjmp	.+2      	; 0xde8 <CheckInput+0x1d4>
 de6:	81 e0       	ldi	r24, 0x01	; 1
 de8:	2c 96       	adiw	r28, 0x0c	; 12
 dea:	cd bf       	out	0x3d, r28	; 61
 dec:	de bf       	out	0x3e, r29	; 62
 dee:	df 91       	pop	r29
 df0:	cf 91       	pop	r28
 df2:	1f 91       	pop	r17
 df4:	0f 91       	pop	r16
 df6:	ff 90       	pop	r15
 df8:	df 90       	pop	r13
 dfa:	cf 90       	pop	r12
 dfc:	bf 90       	pop	r11
 dfe:	af 90       	pop	r10
 e00:	08 95       	ret

00000e02 <TextAdventure>:
}


// Main game loop
uint8_t TextAdventure(){
 e02:	cf 93       	push	r28
 e04:	df 93       	push	r29
 e06:	cd b7       	in	r28, 0x3d	; 61
 e08:	de b7       	in	r29, 0x3e	; 62
 e0a:	a0 97       	sbiw	r28, 0x20	; 32
 e0c:	cd bf       	out	0x3d, r28	; 61
 e0e:	de bf       	out	0x3e, r29	; 62
    uint8_t serInput[RXLEN];
    if (CheckSend()) return 1;                       //Still sending data to serial, return 1
 e10:	bb de       	rcall	.-650    	; 0xb88 <CheckSend>
 e12:	81 11       	cpse	r24, r1
 e14:	08 c0       	rjmp	.+16     	; 0xe26 <TextAdventure+0x24>
    if (CheckInput(&serInput[0])) return 2;         //No valid input to process, return 2
 e16:	ce 01       	movw	r24, r28
 e18:	01 96       	adiw	r24, 0x01	; 1
 e1a:	fc de       	rcall	.-520    	; 0xc14 <CheckInput>
 e1c:	81 11       	cpse	r24, r1
 e1e:	05 c0       	rjmp	.+10     	; 0xe2a <TextAdventure+0x28>
    } else
    if ((data[0] == 't')||(data[0] == 'u')){
        
    } 

    txAddrNow = 0;  //Start at first pointer, initiates sending in CheckSend
 e20:	10 92 07 38 	sts	0x3807, r1	; 0x803807 <txAddrNow>
 e24:	03 c0       	rjmp	.+6      	; 0xe2c <TextAdventure+0x2a>


// Main game loop
uint8_t TextAdventure(){
    uint8_t serInput[RXLEN];
    if (CheckSend()) return 1;                       //Still sending data to serial, return 1
 e26:	81 e0       	ldi	r24, 0x01	; 1
 e28:	01 c0       	rjmp	.+2      	; 0xe2c <TextAdventure+0x2a>
    if (CheckInput(&serInput[0])) return 2;         //No valid input to process, return 2
 e2a:	82 e0       	ldi	r24, 0x02	; 2
    ProcessInput(&serInput[0]);                     //Check which response to generate and fill tx arrays
    //CheckChanges();                               //Check if things are changed, write to EEPROM
    return 0;
 e2c:	a0 96       	adiw	r28, 0x20	; 32
 e2e:	cd bf       	out	0x3d, r28	; 61
 e30:	de bf       	out	0x3e, r29	; 62
 e32:	df 91       	pop	r29
 e34:	cf 91       	pop	r28
 e36:	08 95       	ret

00000e38 <main>:



//This is where it begins, inits first and main program in while(1) loop.
int main(void)
{
 e38:	cf 93       	push	r28
 e3a:	df 93       	push	r29
 e3c:	cd b7       	in	r28, 0x3d	; 61
 e3e:	de b7       	in	r29, 0x3e	; 62
 e40:	a7 97       	sbiw	r28, 0x27	; 39
 e42:	cd bf       	out	0x3d, r28	; 61
 e44:	de bf       	out	0x3e, r29	; 62
    setup();
 e46:	d0 da       	rcall	.-2656   	; 0x3e8 <setup>
    LoadGameState();
 e48:	20 de       	rcall	.-960    	; 0xa8a <LoadGameState>
 e4a:	84 e2       	ldi	r24, 0x24	; 36

    unsigned char strTest[]="\aHckerHotel2020 badge pest!\b\b\b\b\bt\n";
 e4c:	e6 e2       	ldi	r30, 0x26	; 38
 e4e:	f0 e9       	ldi	r31, 0x90	; 144
 e50:	de 01       	movw	r26, r28
 e52:	11 96       	adiw	r26, 0x01	; 1
 e54:	01 90       	ld	r0, Z+
 e56:	0d 92       	st	X+, r0
 e58:	8a 95       	dec	r24
 e5a:	e1 f7       	brne	.-8      	; 0xe54 <main+0x1c>
 e5c:	ce 01       	movw	r24, r28
    SerSend(&strTest[0]);
 e5e:	01 96       	adiw	r24, 0x01	; 1
 e60:	d3 dd       	rcall	.-1114   	; 0xa08 <SerSend>
 e62:	1d a2       	std	Y+37, r1	; 0x25

    //I2C 
    uint8_t devAddr = 0x50;
    uint8_t memAddr[2] = {0,0};
 e64:	1e a2       	std	Y+38, r1	; 0x26
 e66:	1f a2       	std	Y+39, r1	; 0x27
    volatile uint8_t retVal = 0;
 e68:	04 e2       	ldi	r16, 0x24	; 36
    uint8_t btns = 0;
    uint8_t bla = 0;

    if (I2C_write_bytes(devAddr, &memAddr[0], 2, &strTest[0], sizeof(strTest))) retVal = 0xFA;
 e6a:	9e 01       	movw	r18, r28
 e6c:	2f 5f       	subi	r18, 0xFF	; 255
 e6e:	3f 4f       	sbci	r19, 0xFF	; 255
 e70:	42 e0       	ldi	r20, 0x02	; 2
 e72:	be 01       	movw	r22, r28
 e74:	6b 5d       	subi	r22, 0xDB	; 219
 e76:	7f 4f       	sbci	r23, 0xFF	; 255
 e78:	80 e5       	ldi	r24, 0x50	; 80
 e7a:	6a da       	rcall	.-2860   	; 0x350 <I2C_write_bytes>
 e7c:	88 23       	and	r24, r24
 e7e:	11 f0       	breq	.+4      	; 0xe84 <main+0x4c>
 e80:	8a ef       	ldi	r24, 0xFA	; 250
 e82:	8f a3       	std	Y+39, r24	; 0x27
 e84:	8f ef       	ldi	r24, 0xFF	; 255
    SerSpeed(255);
 e86:	d2 dd       	rcall	.-1116   	; 0xa2c <SerSpeed>
 e88:	80 e0       	ldi	r24, 0x00	; 0
 e8a:	2f ef       	ldi	r18, 0xFF	; 255

    //Do some LED tests
    for (uint8_t n=0; n<40; n++){
 e8c:	07 c0       	rjmp	.+14     	; 0xe9c <main+0x64>
        if ((n%8)>5) n+=2;
        if (n<40) iLED[n] = 255;
 e8e:	39 2f       	mov	r19, r25
 e90:	37 70       	andi	r19, 0x07	; 7
    if (I2C_write_bytes(devAddr, &memAddr[0], 2, &strTest[0], sizeof(strTest))) retVal = 0xFA;
    SerSpeed(255);

    //Do some LED tests
    for (uint8_t n=0; n<40; n++){
        if ((n%8)>5) n+=2;
 e92:	36 30       	cpi	r19, 0x06	; 6
 e94:	10 f0       	brcs	.+4      	; 0xe9a <main+0x62>
 e96:	93 e0       	ldi	r25, 0x03	; 3
 e98:	98 0f       	add	r25, r24
 e9a:	89 2f       	mov	r24, r25
 e9c:	88 32       	cpi	r24, 0x28	; 40



//This is where it begins, inits first and main program in while(1) loop.
int main(void)
{
 e9e:	08 f0       	brcs	.+2      	; 0xea2 <main+0x6a>
    SerSpeed(255);

    //Do some LED tests
    for (uint8_t n=0; n<40; n++){
        if ((n%8)>5) n+=2;
        if (n<40) iLED[n] = 255;
 ea0:	83 c0       	rjmp	.+262    	; 0xfa8 <main+0x170>
 ea2:	e8 2f       	mov	r30, r24
 ea4:	f0 e0       	ldi	r31, 0x00	; 0
 ea6:	e4 59       	subi	r30, 0x94	; 148
 ea8:	f7 4c       	sbci	r31, 0xC7	; 199
 eaa:	20 83       	st	Z, r18
 eac:	7d c0       	rjmp	.+250    	; 0xfa8 <main+0x170>
 eae:	e7 ea       	ldi	r30, 0xA7	; 167
 eb0:	f1 e6       	ldi	r31, 0x61	; 97
	#else
		//round up by default
		__ticks_dc = (uint32_t)(ceil(fabs(__tmp)));
	#endif

	__builtin_avr_delay_cycles(__ticks_dc);
 eb2:	31 97       	sbiw	r30, 0x01	; 1
 eb4:	f1 f7       	brne	.-4      	; 0xeb2 <main+0x7a>
 eb6:	00 c0       	rjmp	.+0      	; 0xeb8 <main+0x80>
 eb8:	00 00       	nop
 eba:	91 50       	subi	r25, 0x01	; 1
 ebc:	c1 f7       	brne	.-16     	; 0xeae <main+0x76>
 ebe:	91 e0       	ldi	r25, 0x01	; 1
        for(uint8_t b=0; b<10; b++)_delay_ms(10);
 ec0:	98 0f       	add	r25, r24

    if (I2C_write_bytes(devAddr, &memAddr[0], 2, &strTest[0], sizeof(strTest))) retVal = 0xFA;
    SerSpeed(255);

    //Do some LED tests
    for (uint8_t n=0; n<40; n++){
 ec2:	98 32       	cpi	r25, 0x28	; 40
 ec4:	20 f3       	brcs	.-56     	; 0xe8e <main+0x56>
 ec6:	80 e0       	ldi	r24, 0x00	; 0
 ec8:	07 c0       	rjmp	.+14     	; 0xed8 <main+0xa0>
 eca:	29 2f       	mov	r18, r25
 ecc:	27 70       	andi	r18, 0x07	; 7
        if ((n%8)>5) n+=2;
        if (n<40) iLED[n] = 255;
        for(uint8_t b=0; b<10; b++)_delay_ms(10);
    }
    for (uint8_t n=0; n<40; n++){
        if ((n%8)>5) n+=2;
 ece:	26 30       	cpi	r18, 0x06	; 6
 ed0:	10 f0       	brcs	.+4      	; 0xed6 <main+0x9e>
 ed2:	93 e0       	ldi	r25, 0x03	; 3
 ed4:	98 0f       	add	r25, r24
 ed6:	89 2f       	mov	r24, r25
 ed8:	88 32       	cpi	r24, 0x28	; 40
 eda:	08 f0       	brcs	.+2      	; 0xede <main+0xa6>
        if (n<40) iLED[n] = 0;
 edc:	67 c0       	rjmp	.+206    	; 0xfac <main+0x174>
 ede:	e8 2f       	mov	r30, r24
 ee0:	f0 e0       	ldi	r31, 0x00	; 0
 ee2:	e4 59       	subi	r30, 0x94	; 148
 ee4:	f7 4c       	sbci	r31, 0xC7	; 199
 ee6:	10 82       	st	Z, r1
 ee8:	61 c0       	rjmp	.+194    	; 0xfac <main+0x174>
 eea:	e7 ea       	ldi	r30, 0xA7	; 167
 eec:	f1 e6       	ldi	r31, 0x61	; 97
 eee:	31 97       	sbiw	r30, 0x01	; 1
 ef0:	f1 f7       	brne	.-4      	; 0xeee <main+0xb6>
 ef2:	00 c0       	rjmp	.+0      	; 0xef4 <main+0xbc>
 ef4:	00 00       	nop
 ef6:	91 50       	subi	r25, 0x01	; 1
 ef8:	c1 f7       	brne	.-16     	; 0xeea <main+0xb2>
 efa:	91 e0       	ldi	r25, 0x01	; 1
        for(uint8_t b=0; b<10; b++)_delay_ms(10);
 efc:	98 0f       	add	r25, r24
    for (uint8_t n=0; n<40; n++){
        if ((n%8)>5) n+=2;
        if (n<40) iLED[n] = 255;
        for(uint8_t b=0; b<10; b++)_delay_ms(10);
    }
    for (uint8_t n=0; n<40; n++){
 efe:	98 32       	cpi	r25, 0x28	; 40
 f00:	20 f3       	brcs	.-56     	; 0xeca <main+0x92>
 f02:	2c ef       	ldi	r18, 0xFC	; 252
 f04:	3f e8       	ldi	r19, 0x8F	; 143
 f06:	a6 e0       	ldi	r26, 0x06	; 6
 f08:	b0 e9       	ldi	r27, 0x90	; 144
 f0a:	80 e0       	ldi	r24, 0x00	; 0
 f0c:	90 e0       	ldi	r25, 0x00	; 0
 f0e:	41 e0       	ldi	r20, 0x01	; 1
 f10:	50 e0       	ldi	r21, 0x00	; 0
        if ((n%8)>5) n+=2;
        if (n<40) iLED[n] = 0;
        for(uint8_t b=0; b<10; b++)_delay_ms(10);
    }
    for (uint8_t n=0; n<5; n++){
        iLED[WING[R][n]] = 1<<n;
 f12:	f9 01       	movw	r30, r18
 f14:	61 91       	ld	r22, Z+
 f16:	9f 01       	movw	r18, r30
 f18:	e6 2f       	mov	r30, r22
 f1a:	f0 e0       	ldi	r31, 0x00	; 0
 f1c:	e4 59       	subi	r30, 0x94	; 148
 f1e:	f7 4c       	sbci	r31, 0xC7	; 199
 f20:	ba 01       	movw	r22, r20
 f22:	08 2e       	mov	r0, r24
 f24:	02 c0       	rjmp	.+4      	; 0xf2a <main+0xf2>
 f26:	66 0f       	add	r22, r22
 f28:	77 1f       	adc	r23, r23
 f2a:	0a 94       	dec	r0
 f2c:	e2 f7       	brpl	.-8      	; 0xf26 <main+0xee>
 f2e:	60 83       	st	Z, r22
 f30:	ee 91       	ld	r30, -X
 f32:	f0 e0       	ldi	r31, 0x00	; 0
        iLED[WING[L][4-n]] = 1<<n;
 f34:	e4 59       	subi	r30, 0x94	; 148
 f36:	f7 4c       	sbci	r31, 0xC7	; 199
 f38:	60 83       	st	Z, r22
 f3a:	6a e0       	ldi	r22, 0x0A	; 10
 f3c:	e7 ea       	ldi	r30, 0xA7	; 167
 f3e:	f1 e6       	ldi	r31, 0x61	; 97
 f40:	31 97       	sbiw	r30, 0x01	; 1
 f42:	f1 f7       	brne	.-4      	; 0xf40 <main+0x108>
 f44:	00 c0       	rjmp	.+0      	; 0xf46 <main+0x10e>
 f46:	00 00       	nop
 f48:	61 50       	subi	r22, 0x01	; 1
 f4a:	c1 f7       	brne	.-16     	; 0xf3c <main+0x104>
 f4c:	01 96       	adiw	r24, 0x01	; 1
        for(uint8_t b=0; b<10; b++)_delay_ms(10);
 f4e:	85 30       	cpi	r24, 0x05	; 5
 f50:	91 05       	cpc	r25, r1
    for (uint8_t n=0; n<40; n++){
        if ((n%8)>5) n+=2;
        if (n<40) iLED[n] = 0;
        for(uint8_t b=0; b<10; b++)_delay_ms(10);
    }
    for (uint8_t n=0; n<5; n++){
 f52:	f9 f6       	brne	.-66     	; 0xf12 <main+0xda>
 f54:	aa ef       	ldi	r26, 0xFA	; 250
 f56:	bf e8       	ldi	r27, 0x8F	; 143
        iLED[WING[R][n]] = 1<<n;
        iLED[WING[L][4-n]] = 1<<n;
        for(uint8_t b=0; b<10; b++)_delay_ms(10);
    }

    iLED[GEM[R]] = 255;
 f58:	ec 91       	ld	r30, X
 f5a:	f0 e0       	ldi	r31, 0x00	; 0
 f5c:	e4 59       	subi	r30, 0x94	; 148
 f5e:	f7 4c       	sbci	r31, 0xC7	; 199
 f60:	8f ef       	ldi	r24, 0xFF	; 255
 f62:	80 83       	st	Z, r24
 f64:	11 96       	adiw	r26, 0x01	; 1
 f66:	ec 91       	ld	r30, X
    iLED[GEM[L]] = 63;
 f68:	f0 e0       	ldi	r31, 0x00	; 0
 f6a:	e4 59       	subi	r30, 0x94	; 148
 f6c:	f7 4c       	sbci	r31, 0xC7	; 199
 f6e:	8f e3       	ldi	r24, 0x3F	; 63
 f70:	80 83       	st	Z, r24
 f72:	44 e2       	ldi	r20, 0x24	; 36
 f74:	be 01       	movw	r22, r28

    if (EEWrite(16, &strTest[0], sizeof(strTest))) retVal = 0xFA;     //Internal EEPROM write test
 f76:	6f 5f       	subi	r22, 0xFF	; 255
 f78:	7f 4f       	sbci	r23, 0xFF	; 255
 f7a:	80 e1       	ldi	r24, 0x10	; 16
 f7c:	fc dc       	rcall	.-1544   	; 0x976 <EEWrite>
 f7e:	88 23       	and	r24, r24
 f80:	11 f0       	breq	.+4      	; 0xf86 <main+0x14e>
 f82:	8a ef       	ldi	r24, 0xFA	; 250
 f84:	8f a3       	std	Y+39, r24	; 0x27
 f86:	10 e0       	ldi	r17, 0x00	; 0
 f88:	80 91 03 38 	lds	r24, 0x3803	; 0x803803 <buttonMark>
            RXCNT = 0;
            serRxDone = 0;         
        }*/

        //buttonMark is updated by hardware timer, every increment there is a new button value available  
        if (buttonMark){
 f8c:	88 23       	and	r24, r24
 f8e:	e1 f3       	breq	.-8      	; 0xf88 <main+0x150>
 f90:	10 92 03 38 	sts	0x3803, r1	; 0x803803 <buttonMark>
            */
            //btns = serRx[0]; 
            buttonMark = 0;

            bla++;
            if (bla%2) SelectAuIn(); else SelectTSens();    //Switch between audio in and temperature for testing
 f94:	1f 5f       	subi	r17, 0xFF	; 255
 f96:	10 ff       	sbrs	r17, 0
 f98:	02 c0       	rjmp	.+4      	; 0xf9e <main+0x166>
 f9a:	68 dd       	rcall	.-1328   	; 0xa6c <SelectAuIn>
 f9c:	01 c0       	rjmp	.+2      	; 0xfa0 <main+0x168>
 f9e:	57 dd       	rcall	.-1362   	; 0xa4e <SelectTSens>
 fa0:	30 df       	rcall	.-416    	; 0xe02 <TextAdventure>
            EERead(17, (uint8_t*)&serRx[6], 1);                                                   //"H" character (second char of strTest)
            if (I2C_read_bytes(devAddr, &memAddr[0], 2, (uint8_t*)&serRx[7], 1)) retVal = 0xFA;   //Bell character (first char of strTest)
            serRx[8] = retVal;
            while (serTxDone == 0);
            //SerSend((uint8_t*) &serRx[0]);*/
            retVal = TextAdventure();
 fa2:	8f a3       	std	Y+39, r24	; 0x27
 fa4:	1f a2       	std	Y+39, r1	; 0x27
 fa6:	f0 cf       	rjmp	.-32     	; 0xf88 <main+0x150>
            retVal = 0;
 fa8:	9a e0       	ldi	r25, 0x0A	; 10
 faa:	81 cf       	rjmp	.-254    	; 0xeae <main+0x76>

    if (I2C_write_bytes(devAddr, &memAddr[0], 2, &strTest[0], sizeof(strTest))) retVal = 0xFA;
    SerSpeed(255);

    //Do some LED tests
    for (uint8_t n=0; n<40; n++){
 fac:	9a e0       	ldi	r25, 0x0A	; 10
 fae:	9d cf       	rjmp	.-198    	; 0xeea <main+0xb2>

00000fb0 <__udivmodhi4>:
 fb0:	aa 1b       	sub	r26, r26
 fb2:	bb 1b       	sub	r27, r27
 fb4:	51 e1       	ldi	r21, 0x11	; 17
 fb6:	07 c0       	rjmp	.+14     	; 0xfc6 <__udivmodhi4_ep>

00000fb8 <__udivmodhi4_loop>:
 fb8:	aa 1f       	adc	r26, r26
 fba:	bb 1f       	adc	r27, r27
 fbc:	a6 17       	cp	r26, r22
 fbe:	b7 07       	cpc	r27, r23
 fc0:	10 f0       	brcs	.+4      	; 0xfc6 <__udivmodhi4_ep>
 fc2:	a6 1b       	sub	r26, r22
 fc4:	b7 0b       	sbc	r27, r23

00000fc6 <__udivmodhi4_ep>:
 fc6:	88 1f       	adc	r24, r24
 fc8:	99 1f       	adc	r25, r25
 fca:	5a 95       	dec	r21
 fcc:	a9 f7       	brne	.-22     	; 0xfb8 <__udivmodhi4_loop>
 fce:	80 95       	com	r24
 fd0:	90 95       	com	r25
 fd2:	bc 01       	movw	r22, r24
 fd4:	cd 01       	movw	r24, r26
 fd6:	08 95       	ret

00000fd8 <__umulhisi3>:
 fd8:	a2 9f       	mul	r26, r18
 fda:	b0 01       	movw	r22, r0
 fdc:	b3 9f       	mul	r27, r19
 fde:	c0 01       	movw	r24, r0
 fe0:	a3 9f       	mul	r26, r19
 fe2:	70 0d       	add	r23, r0
 fe4:	81 1d       	adc	r24, r1
 fe6:	11 24       	eor	r1, r1
 fe8:	91 1d       	adc	r25, r1
 fea:	b2 9f       	mul	r27, r18
 fec:	70 0d       	add	r23, r0
 fee:	81 1d       	adc	r24, r1
 ff0:	11 24       	eor	r1, r1
 ff2:	91 1d       	adc	r25, r1
 ff4:	08 95       	ret

00000ff6 <_exit>:
 ff6:	f8 94       	cli

00000ff8 <__stop_program>:
 ff8:	ff cf       	rjmp	.-2      	; 0xff8 <__stop_program>
