
ISR_IO.elf:     file format elf32-avr

Sections:
Idx Name          Size      VMA       LMA       File off  Algn
  0 .data         00000040  00803800  00003fb4  00004068  2**0
                  CONTENTS, ALLOC, LOAD, DATA
  1 .text         00003f24  00000000  00000000  000000b4  2**1
                  CONTENTS, ALLOC, LOAD, READONLY, CODE
  2 .rodata       00000090  0000bf24  00003f24  00003fd8  2**0
                  CONTENTS, ALLOC, LOAD, READONLY, DATA
  3 .bss          000002e7  00803840  00803840  000040a8  2**0
                  ALLOC
  4 .comment      00000030  00000000  00000000  000040a8  2**0
                  CONTENTS, READONLY
  5 .note.gnu.avr.deviceinfo 00000040  00000000  00000000  000040d8  2**2
                  CONTENTS, READONLY
  6 .debug_aranges 000002f8  00000000  00000000  00004118  2**0
                  CONTENTS, READONLY, DEBUGGING
  7 .debug_info   00006a68  00000000  00000000  00004410  2**0
                  CONTENTS, READONLY, DEBUGGING
  8 .debug_abbrev 00002660  00000000  00000000  0000ae78  2**0
                  CONTENTS, READONLY, DEBUGGING
  9 .debug_line   00003a4e  00000000  00000000  0000d4d8  2**0
                  CONTENTS, READONLY, DEBUGGING
 10 .debug_frame  00000890  00000000  00000000  00010f28  2**2
                  CONTENTS, READONLY, DEBUGGING
 11 .debug_str    000018e1  00000000  00000000  000117b8  2**0
                  CONTENTS, READONLY, DEBUGGING
 12 .debug_loc    0000391b  00000000  00000000  00013099  2**0
                  CONTENTS, READONLY, DEBUGGING
 13 .debug_ranges 00000378  00000000  00000000  000169b4  2**0
                  CONTENTS, READONLY, DEBUGGING

Disassembly of section .text:

00000000 <__vectors>:
       0:	56 c0       	rjmp	.+172    	; 0xae <__ctors_end>
       2:	00 00       	nop
       4:	71 c0       	rjmp	.+226    	; 0xe8 <__bad_interrupt>
       6:	00 00       	nop
       8:	6f c0       	rjmp	.+222    	; 0xe8 <__bad_interrupt>
       a:	00 00       	nop
       c:	6d c0       	rjmp	.+218    	; 0xe8 <__bad_interrupt>
       e:	00 00       	nop
      10:	6b c0       	rjmp	.+214    	; 0xe8 <__bad_interrupt>
      12:	00 00       	nop
      14:	69 c0       	rjmp	.+210    	; 0xe8 <__bad_interrupt>
      16:	00 00       	nop
      18:	c2 c6       	rjmp	.+3460   	; 0xd9e <__vector_6>
      1a:	00 00       	nop
      1c:	14 c7       	rjmp	.+3624   	; 0xe46 <__vector_7>
      1e:	00 00       	nop
      20:	a1 c4       	rjmp	.+2370   	; 0x964 <__vector_8>
      22:	00 00       	nop
      24:	61 c0       	rjmp	.+194    	; 0xe8 <__bad_interrupt>
      26:	00 00       	nop
      28:	5f c0       	rjmp	.+190    	; 0xe8 <__bad_interrupt>
      2a:	00 00       	nop
      2c:	5d c0       	rjmp	.+186    	; 0xe8 <__bad_interrupt>
      2e:	00 00       	nop
      30:	5b c0       	rjmp	.+182    	; 0xe8 <__bad_interrupt>
      32:	00 00       	nop
      34:	df c4       	rjmp	.+2494   	; 0x9f4 <__vector_13>
      36:	00 00       	nop
      38:	10 c5       	rjmp	.+2592   	; 0xa5a <__vector_14>
      3a:	00 00       	nop
      3c:	55 c0       	rjmp	.+170    	; 0xe8 <__bad_interrupt>
      3e:	00 00       	nop
      40:	53 c0       	rjmp	.+166    	; 0xe8 <__bad_interrupt>
      42:	00 00       	nop
      44:	51 c0       	rjmp	.+162    	; 0xe8 <__bad_interrupt>
      46:	00 00       	nop
      48:	4f c0       	rjmp	.+158    	; 0xe8 <__bad_interrupt>
      4a:	00 00       	nop
      4c:	4d c0       	rjmp	.+154    	; 0xe8 <__bad_interrupt>
      4e:	00 00       	nop
      50:	32 c6       	rjmp	.+3172   	; 0xcb6 <__vector_20>
      52:	00 00       	nop
      54:	49 c0       	rjmp	.+146    	; 0xe8 <__bad_interrupt>
      56:	00 00       	nop
      58:	5a c6       	rjmp	.+3252   	; 0xd0e <__vector_22>
      5a:	00 00       	nop
      5c:	45 c0       	rjmp	.+138    	; 0xe8 <__bad_interrupt>
      5e:	00 00       	nop
      60:	43 c0       	rjmp	.+134    	; 0xe8 <__bad_interrupt>
      62:	00 00       	nop
      64:	4d c5       	rjmp	.+2714   	; 0xb00 <__vector_25>
      66:	00 00       	nop
      68:	3f c0       	rjmp	.+126    	; 0xe8 <__bad_interrupt>
      6a:	00 00       	nop
      6c:	ad c5       	rjmp	.+2906   	; 0xbc8 <__vector_27>
      6e:	00 00       	nop
      70:	06 c6       	rjmp	.+3084   	; 0xc7e <__vector_28>
      72:	00 00       	nop
      74:	39 c0       	rjmp	.+114    	; 0xe8 <__bad_interrupt>
      76:	00 00       	nop
      78:	37 c0       	rjmp	.+110    	; 0xe8 <__bad_interrupt>
      7a:	00 00       	nop
      7c:	1f 0b       	sbc	r17, r31
      7e:	26 0b       	sbc	r18, r22
      80:	2f 0b       	sbc	r18, r31
      82:	26 0b       	sbc	r18, r22
      84:	2f 0b       	sbc	r18, r31
      86:	26 0b       	sbc	r18, r22
      88:	1f 0b       	sbc	r17, r31
      8a:	54 0b       	sbc	r21, r20
      8c:	6e 0b       	sbc	r22, r30
      8e:	80 0b       	sbc	r24, r16
      90:	3b 0c       	add	r3, r11
      92:	3b 0c       	add	r3, r11
      94:	8f 0b       	sbc	r24, r31
      96:	9c 0b       	sbc	r25, r28
      98:	da 0b       	sbc	r29, r26
      9a:	01 0c       	add	r0, r1
      9c:	3b 0c       	add	r3, r11
      9e:	3b 0c       	add	r3, r11
      a0:	3b 0c       	add	r3, r11
      a2:	3b 0c       	add	r3, r11
      a4:	3b 0c       	add	r3, r11
      a6:	3b 0c       	add	r3, r11
      a8:	3b 0c       	add	r3, r11
      aa:	54 0b       	sbc	r21, r20
      ac:	6e 0b       	sbc	r22, r30

000000ae <__ctors_end>:
      ae:	11 24       	eor	r1, r1
      b0:	1f be       	out	0x3f, r1	; 63
      b2:	cf ef       	ldi	r28, 0xFF	; 255
      b4:	cd bf       	out	0x3d, r28	; 61
      b6:	df e3       	ldi	r29, 0x3F	; 63
      b8:	de bf       	out	0x3e, r29	; 62

000000ba <__do_copy_data>:
      ba:	18 e3       	ldi	r17, 0x38	; 56
      bc:	a0 e0       	ldi	r26, 0x00	; 0
      be:	b8 e3       	ldi	r27, 0x38	; 56
      c0:	e4 eb       	ldi	r30, 0xB4	; 180
      c2:	ff e3       	ldi	r31, 0x3F	; 63
      c4:	02 c0       	rjmp	.+4      	; 0xca <__do_copy_data+0x10>
      c6:	05 90       	lpm	r0, Z+
      c8:	0d 92       	st	X+, r0
      ca:	a0 34       	cpi	r26, 0x40	; 64
      cc:	b1 07       	cpc	r27, r17
      ce:	d9 f7       	brne	.-10     	; 0xc6 <__do_copy_data+0xc>

000000d0 <__do_clear_bss>:
      d0:	2b e3       	ldi	r18, 0x3B	; 59
      d2:	a0 e4       	ldi	r26, 0x40	; 64
      d4:	b8 e3       	ldi	r27, 0x38	; 56
      d6:	01 c0       	rjmp	.+2      	; 0xda <.do_clear_bss_start>

000000d8 <.do_clear_bss_loop>:
      d8:	1d 92       	st	X+, r1

000000da <.do_clear_bss_start>:
      da:	a7 32       	cpi	r26, 0x27	; 39
      dc:	b2 07       	cpc	r27, r18
      de:	e1 f7       	brne	.-8      	; 0xd8 <.do_clear_bss_loop>
      e0:	0e 94 8e 1e 	call	0x3d1c	; 0x3d1c <main>
      e4:	0c 94 90 1f 	jmp	0x3f20	; 0x3f20 <_exit>

000000e8 <__bad_interrupt>:
      e8:	8b cf       	rjmp	.-234    	; 0x0 <__vectors>

000000ea <chkVolt250>:
#include <friends.h>
#include <main_def.h>
#include <resources.h>

//Returns measured voltage * 4 (2V returns 8) if it is in the expected range (DELTA)
uint8_t chkVolt250(){
      ea:	28 ed       	ldi	r18, 0xD8	; 216
      ec:	30 e0       	ldi	r19, 0x00	; 0
    uint8_t avgVolt = 9;
      ee:	89 e0       	ldi	r24, 0x09	; 9
        
    for (uint8_t x=225; x>24; x-=25) {
        if ((auIn > (x-DELTA)) && (auIn < (x+DELTA))) {
      f0:	40 91 d7 3a 	lds	r20, 0x3AD7	; 0x803ad7 <auIn>
      f4:	50 e0       	ldi	r21, 0x00	; 0
      f6:	42 17       	cp	r20, r18
      f8:	53 07       	cpc	r21, r19
      fa:	4c f0       	brlt	.+18     	; 0x10e <chkVolt250+0x24>
      fc:	40 91 d7 3a 	lds	r20, 0x3AD7	; 0x803ad7 <auIn>
     100:	50 e0       	ldi	r21, 0x00	; 0
     102:	b9 01       	movw	r22, r18
     104:	6e 5e       	subi	r22, 0xEE	; 238
     106:	7f 4f       	sbci	r23, 0xFF	; 255
     108:	64 17       	cp	r22, r20
     10a:	75 07       	cpc	r23, r21
     10c:	2c f4       	brge	.+10     	; 0x118 <chkVolt250+0x2e>
            break;
        }
        --avgVolt;
     10e:	81 50       	subi	r24, 0x01	; 1
     110:	29 51       	subi	r18, 0x19	; 25
     112:	31 09       	sbc	r19, r1

//Returns measured voltage * 4 (2V returns 8) if it is in the expected range (DELTA)
uint8_t chkVolt250(){
    uint8_t avgVolt = 9;
        
    for (uint8_t x=225; x>24; x-=25) {
     114:	81 11       	cpse	r24, r1
     116:	ec cf       	rjmp	.-40     	; 0xf0 <chkVolt250+0x6>
            break;
        }
        --avgVolt;
    }
    return avgVolt;
}
     118:	08 95       	ret

0000011a <MakeFriends>:

// Main game loop
uint8_t MakeFriends(){
     11a:	cf 93       	push	r28
     11c:	df 93       	push	r29
    static uint8_t setDAC[2] = {255, 0};
    static uint8_t chkTmr = 0;
    static uint8_t jackIn = 0;
    static uint8_t candidate = 0;

    ++chkTmr;
     11e:	80 91 43 38 	lds	r24, 0x3843	; 0x803843 <chkTmr.3770>
     122:	8f 5f       	subi	r24, 0xFF	; 255
     124:	80 93 43 38 	sts	0x3843, r24	; 0x803843 <chkTmr.3770>
     128:	c4 e6       	ldi	r28, 0x64	; 100

    //Check if badge has found 3 friends, if true, don't accept any new connections!
    uint8_t foundAll = 1;
     12a:	d1 e0       	ldi	r29, 0x01	; 1
    for (uint8_t x=0; x<4; ++x){
        if (CheckState(100+x) == 0) foundAll = 0;
     12c:	8c 2f       	mov	r24, r28
     12e:	0e 94 6a 09 	call	0x12d4	; 0x12d4 <CheckState>
     132:	81 11       	cpse	r24, r1
     134:	01 c0       	rjmp	.+2      	; 0x138 <MakeFriends+0x1e>
     136:	d0 e0       	ldi	r29, 0x00	; 0
     138:	cf 5f       	subi	r28, 0xFF	; 255

    ++chkTmr;

    //Check if badge has found 3 friends, if true, don't accept any new connections!
    uint8_t foundAll = 1;
    for (uint8_t x=0; x<4; ++x){
     13a:	c8 36       	cpi	r28, 0x68	; 104
     13c:	b9 f7       	brne	.-18     	; 0x12c <MakeFriends+0x12>
        if (CheckState(100+x) == 0) foundAll = 0;
    }
    if (foundAll) {
     13e:	dd 23       	and	r29, r29
     140:	31 f0       	breq	.+12     	; 0x14e <MakeFriends+0x34>
        UpdateState(124);
     142:	8c e7       	ldi	r24, 0x7C	; 124
     144:	0e 94 49 09 	call	0x1292	; 0x1292 <UpdateState>
        gameNow = TEXT; 
     148:	10 92 4c 38 	sts	0x384C, r1	; 0x80384c <gameNow>
        return 0;
     14c:	ee c0       	rjmp	.+476    	; 0x32a <MakeFriends+0x210>
    }

    //Set game state, must be able to hijack from other games.
    if (progress > FIRST_CONTACT) { 
     14e:	80 91 42 38 	lds	r24, 0x3842	; 0x803842 <progress.3768>
     152:	82 30       	cpi	r24, 0x02	; 2
     154:	20 f0       	brcs	.+8      	; 0x15e <MakeFriends+0x44>
        gameNow = FRIENDS; 
     156:	94 e0       	ldi	r25, 0x04	; 4
     158:	90 93 4c 38 	sts	0x384C, r25	; 0x80384c <gameNow>
     15c:	0d c0       	rjmp	.+26     	; 0x178 <MakeFriends+0x5e>
    }
    
    //Clear game state if not communicating properly or headphones detected
    if (((progress == NO_OTHER) || detHdPh) && (gameNow == FRIENDS)) {
     15e:	81 11       	cpse	r24, r1
     160:	0b c0       	rjmp	.+22     	; 0x178 <MakeFriends+0x5e>
     162:	90 91 4c 38 	lds	r25, 0x384C	; 0x80384c <gameNow>
     166:	94 30       	cpi	r25, 0x04	; 4
     168:	61 f4       	brne	.+24     	; 0x182 <MakeFriends+0x68>
        gameNow = TEXT; 
     16a:	10 92 4c 38 	sts	0x384C, r1	; 0x80384c <gameNow>
        effect = 0;
     16e:	10 92 4a 38 	sts	0x384A, r1	; 0x80384a <effect>
     172:	10 92 4b 38 	sts	0x384B, r1	; 0x80384b <effect+0x1>
     176:	05 c0       	rjmp	.+10     	; 0x182 <MakeFriends+0x68>
    if (progress > FIRST_CONTACT) { 
        gameNow = FRIENDS; 
    }
    
    //Clear game state if not communicating properly or headphones detected
    if (((progress == NO_OTHER) || detHdPh) && (gameNow == FRIENDS)) {
     178:	90 91 d4 3a 	lds	r25, 0x3AD4	; 0x803ad4 <detHdPh>
     17c:	91 11       	cpse	r25, r1
     17e:	f1 cf       	rjmp	.-30     	; 0x162 <MakeFriends+0x48>
     180:	18 c0       	rjmp	.+48     	; 0x1b2 <MakeFriends+0x98>
        gameNow = TEXT; 
        effect = 0;
    }

    //Audio off, set voltage level (setDAC[0]*10mV)
    if ((progress == NO_OTHER) && (detHdPh == 0)) {
     182:	81 11       	cpse	r24, r1
     184:	16 c0       	rjmp	.+44     	; 0x1b2 <MakeFriends+0x98>
     186:	90 91 d4 3a 	lds	r25, 0x3AD4	; 0x803ad4 <detHdPh>
     18a:	91 11       	cpse	r25, r1
     18c:	12 c0       	rjmp	.+36     	; 0x1b2 <MakeFriends+0x98>
        setDAC[0] = whoami * 51;
     18e:	80 91 4d 38 	lds	r24, 0x384D	; 0x80384d <whoami>
     192:	93 e3       	ldi	r25, 0x33	; 51
     194:	89 9f       	mul	r24, r25
     196:	80 2d       	mov	r24, r0
     198:	11 24       	eor	r1, r1
     19a:	80 93 00 38 	sts	0x3800, r24	; 0x803800 <__data_start>
        auRepAddr = &setDAC[0];
     19e:	80 e0       	ldi	r24, 0x00	; 0
     1a0:	98 e3       	ldi	r25, 0x38	; 56
     1a2:	80 93 03 38 	sts	0x3803, r24	; 0x803803 <auRepAddr>
     1a6:	90 93 04 38 	sts	0x3804, r25	; 0x803804 <auRepAddr+0x1>
        auVolume = 255;
     1aa:	8f ef       	ldi	r24, 0xFF	; 255
     1ac:	80 93 ca 3a 	sts	0x3ACA, r24	; 0x803aca <auVolume>
     1b0:	09 c0       	rjmp	.+18     	; 0x1c4 <MakeFriends+0xaa>
    } else {
        if (progress & NEXT){
     1b2:	98 2f       	mov	r25, r24
     1b4:	90 7f       	andi	r25, 0xF0	; 240
     1b6:	31 f0       	breq	.+12     	; 0x1c4 <MakeFriends+0xaa>
            progress++;
            progress&=0x0f;
     1b8:	8f 5f       	subi	r24, 0xFF	; 255
     1ba:	8f 70       	andi	r24, 0x0F	; 15
     1bc:	80 93 42 38 	sts	0x3842, r24	; 0x803842 <progress.3768>
            chkTmr = 0;
     1c0:	10 92 43 38 	sts	0x3843, r1	; 0x803843 <chkTmr.3770>
        }
    }

    //Check for other badges ()
    if ((auIn < (setDAC[0] - DELTA)) || (auIn > (setDAC[0] + DELTA)) || (progress > FIRST_CONTACT)) {
     1c4:	40 91 d7 3a 	lds	r20, 0x3AD7	; 0x803ad7 <auIn>
     1c8:	20 91 00 38 	lds	r18, 0x3800	; 0x803800 <__data_start>
     1cc:	30 e0       	ldi	r19, 0x00	; 0
     1ce:	50 e0       	ldi	r21, 0x00	; 0
     1d0:	b9 01       	movw	r22, r18
     1d2:	6a 50       	subi	r22, 0x0A	; 10
     1d4:	71 09       	sbc	r23, r1
     1d6:	80 91 42 38 	lds	r24, 0x3842	; 0x803842 <progress.3768>
     1da:	46 17       	cp	r20, r22
     1dc:	57 07       	cpc	r21, r23
     1de:	5c f0       	brlt	.+22     	; 0x1f6 <MakeFriends+0xdc>
     1e0:	40 91 d7 3a 	lds	r20, 0x3AD7	; 0x803ad7 <auIn>
     1e4:	50 e0       	ldi	r21, 0x00	; 0
     1e6:	26 5f       	subi	r18, 0xF6	; 246
     1e8:	3f 4f       	sbci	r19, 0xFF	; 255
     1ea:	24 17       	cp	r18, r20
     1ec:	35 07       	cpc	r19, r21
     1ee:	1c f0       	brlt	.+6      	; 0x1f6 <MakeFriends+0xdc>
     1f0:	82 30       	cpi	r24, 0x02	; 2
     1f2:	08 f4       	brcc	.+2      	; 0x1f6 <MakeFriends+0xdc>
     1f4:	43 c0       	rjmp	.+134    	; 0x27c <MakeFriends+0x162>
        if ((progress == NO_OTHER) && (detHdPh == 0)) {
     1f6:	81 11       	cpse	r24, r1
     1f8:	0b c0       	rjmp	.+22     	; 0x210 <MakeFriends+0xf6>
     1fa:	80 91 d4 3a 	lds	r24, 0x3AD4	; 0x803ad4 <detHdPh>
     1fe:	81 11       	cpse	r24, r1
     200:	94 c0       	rjmp	.+296    	; 0x32a <MakeFriends+0x210>
            if (chkTmr >= 8) {
     202:	80 91 43 38 	lds	r24, 0x3843	; 0x803843 <chkTmr.3770>
     206:	88 30       	cpi	r24, 0x08	; 8
     208:	08 f4       	brcc	.+2      	; 0x20c <MakeFriends+0xf2>
     20a:	8f c0       	rjmp	.+286    	; 0x32a <MakeFriends+0x210>
                progress |= NEXT;
     20c:	80 ef       	ldi	r24, 0xF0	; 240
     20e:	63 c0       	rjmp	.+198    	; 0x2d6 <MakeFriends+0x1bc>
            }
        }

        //Candidate found, check ranges
        else if (progress == FIRST_CONTACT) {
     210:	81 30       	cpi	r24, 0x01	; 1
     212:	41 f5       	brne	.+80     	; 0x264 <MakeFriends+0x14a>
            jackIn = chkVolt250();
     214:	6a df       	rcall	.-300    	; 0xea <chkVolt250>
     216:	80 93 41 38 	sts	0x3841, r24	; 0x803841 <jackIn.3771>
            if (jackIn) {
     21a:	88 23       	and	r24, r24
     21c:	79 f1       	breq	.+94     	; 0x27c <MakeFriends+0x162>
                if (chkTmr >= SHORT_WAIT){
     21e:	90 91 43 38 	lds	r25, 0x3843	; 0x803843 <chkTmr.3770>
     222:	98 30       	cpi	r25, 0x08	; 8
     224:	08 f4       	brcc	.+2      	; 0x228 <MakeFriends+0x10e>
     226:	81 c0       	rjmp	.+258    	; 0x32a <MakeFriends+0x210>
                    if (   ((whoami == 1)&&((jackIn >= 3)&&(jackIn <= 5))) 
     228:	90 91 4d 38 	lds	r25, 0x384D	; 0x80384d <whoami>
     22c:	91 30       	cpi	r25, 0x01	; 1
     22e:	11 f4       	brne	.+4      	; 0x234 <MakeFriends+0x11a>
     230:	83 50       	subi	r24, 0x03	; 3
     232:	14 c0       	rjmp	.+40     	; 0x25c <MakeFriends+0x142>
                    || ((whoami == 2)&&((jackIn == 3)||(jackIn == 5)||(jackIn == 6)))  
     234:	92 30       	cpi	r25, 0x02	; 2
     236:	31 f4       	brne	.+12     	; 0x244 <MakeFriends+0x12a>
     238:	83 30       	cpi	r24, 0x03	; 3
     23a:	91 f0       	breq	.+36     	; 0x260 <MakeFriends+0x146>
     23c:	85 50       	subi	r24, 0x05	; 5
     23e:	82 30       	cpi	r24, 0x02	; 2
     240:	e8 f4       	brcc	.+58     	; 0x27c <MakeFriends+0x162>
     242:	0e c0       	rjmp	.+28     	; 0x260 <MakeFriends+0x146>
                    || ((whoami == 3)&&((jackIn == 4)||(jackIn == 5)||(jackIn == 7))) 
     244:	93 30       	cpi	r25, 0x03	; 3
     246:	39 f4       	brne	.+14     	; 0x256 <MakeFriends+0x13c>
     248:	9c ef       	ldi	r25, 0xFC	; 252
     24a:	98 0f       	add	r25, r24
     24c:	92 30       	cpi	r25, 0x02	; 2
     24e:	40 f0       	brcs	.+16     	; 0x260 <MakeFriends+0x146>
     250:	87 30       	cpi	r24, 0x07	; 7
     252:	a1 f4       	brne	.+40     	; 0x27c <MakeFriends+0x162>
     254:	05 c0       	rjmp	.+10     	; 0x260 <MakeFriends+0x146>
                    || ((whoami == 4)&&((jackIn >= 5)&&(jackIn <= 7)))   ) {
     256:	94 30       	cpi	r25, 0x04	; 4
     258:	89 f4       	brne	.+34     	; 0x27c <MakeFriends+0x162>
     25a:	85 50       	subi	r24, 0x05	; 5
     25c:	83 30       	cpi	r24, 0x03	; 3
     25e:	70 f4       	brcc	.+28     	; 0x27c <MakeFriends+0x162>
                        progress |= NEXT;
     260:	81 ef       	ldi	r24, 0xF1	; 241
     262:	39 c0       	rjmp	.+114    	; 0x2d6 <MakeFriends+0x1bc>
                progress = NO_OTHER;
            }
        }

        //Wait for the other badge (and a bit longer for effect)
        else if (progress == SECOND_LOVE){
     264:	82 30       	cpi	r24, 0x02	; 2
     266:	69 f0       	breq	.+26     	; 0x282 <MakeFriends+0x168>
                progress |= NEXT;
            }
        } 
        
        //Wait a bit, check Voltage again, if ok show who you connected with and your own number, save, exit
        else if (progress == THIRD_KISS) {
     268:	83 30       	cpi	r24, 0x03	; 3
     26a:	c1 f1       	breq	.+112    	; 0x2dc <MakeFriends+0x1c2>
                    progress |= NEXT;
                } else progress = NO_OTHER;                
            }

        //Wait for quit
        } else if (progress == FOURTH_BASE) {
     26c:	84 30       	cpi	r24, 0x04	; 4
     26e:	09 f0       	breq	.+2      	; 0x272 <MakeFriends+0x158>
     270:	5c c0       	rjmp	.+184    	; 0x32a <MakeFriends+0x210>
            if (chkTmr >= (SHORT_WAIT<<3)) {
     272:	80 91 43 38 	lds	r24, 0x3843	; 0x803843 <chkTmr.3770>
     276:	80 34       	cpi	r24, 0x40	; 64
     278:	08 f4       	brcc	.+2      	; 0x27c <MakeFriends+0x162>
     27a:	57 c0       	rjmp	.+174    	; 0x32a <MakeFriends+0x210>
                    if (   ((whoami == 1)&&((jackIn >= 3)&&(jackIn <= 5))) 
                    || ((whoami == 2)&&((jackIn == 3)||(jackIn == 5)||(jackIn == 6)))  
                    || ((whoami == 3)&&((jackIn == 4)||(jackIn == 5)||(jackIn == 7))) 
                    || ((whoami == 4)&&((jackIn >= 5)&&(jackIn <= 7)))   ) {
                        progress |= NEXT;
                    } else progress = NO_OTHER;
     27c:	10 92 42 38 	sts	0x3842, r1	; 0x803842 <progress.3768>
     280:	54 c0       	rjmp	.+168    	; 0x32a <MakeFriends+0x210>
        }

        //Wait for the other badge (and a bit longer for effect)
        else if (progress == SECOND_LOVE){
            
            effect = 7;
     282:	87 e0       	ldi	r24, 0x07	; 7
     284:	90 e0       	ldi	r25, 0x00	; 0
     286:	80 93 4a 38 	sts	0x384A, r24	; 0x80384a <effect>
     28a:	90 93 4b 38 	sts	0x384B, r25	; 0x80384b <effect+0x1>
            if (chkTmr >= SHORT_WAIT) {
     28e:	80 91 43 38 	lds	r24, 0x3843	; 0x803843 <chkTmr.3770>
     292:	88 30       	cpi	r24, 0x08	; 8
     294:	38 f0       	brcs	.+14     	; 0x2a4 <MakeFriends+0x18a>
                setDAC[0] = floatAround(0x80, 8, 100, 255); 
     296:	2f ef       	ldi	r18, 0xFF	; 255
     298:	44 e6       	ldi	r20, 0x64	; 100
     29a:	68 e0       	ldi	r22, 0x08	; 8
     29c:	80 e8       	ldi	r24, 0x80	; 128
     29e:	40 d7       	rcall	.+3712   	; 0x1120 <floatAround>
     2a0:	80 93 00 38 	sts	0x3800, r24	; 0x803800 <__data_start>
            }

            //The badge with the lowest voltage will now go to 2.5V (impedance check, for people tricking the things with a power supply)
            if (chkTmr >= LONG_WAIT){
     2a4:	80 91 43 38 	lds	r24, 0x3843	; 0x803843 <chkTmr.3770>
     2a8:	8a 3f       	cpi	r24, 0xFA	; 250
     2aa:	08 f4       	brcc	.+2      	; 0x2ae <MakeFriends+0x194>
     2ac:	3e c0       	rjmp	.+124    	; 0x32a <MakeFriends+0x210>
                candidate = jackIn-whoami;
     2ae:	80 91 4d 38 	lds	r24, 0x384D	; 0x80384d <whoami>
     2b2:	90 91 41 38 	lds	r25, 0x3841	; 0x803841 <jackIn.3771>
     2b6:	98 1b       	sub	r25, r24
     2b8:	90 93 40 38 	sts	0x3840, r25	; 0x803840 <__data_end>
                if (candidate > whoami) {
     2bc:	89 17       	cp	r24, r25
     2be:	10 f4       	brcc	.+4      	; 0x2c4 <MakeFriends+0x1aa>
                    setDAC[0] = 249;
     2c0:	89 ef       	ldi	r24, 0xF9	; 249
     2c2:	04 c0       	rjmp	.+8      	; 0x2cc <MakeFriends+0x1b2>
                } else {
                    setDAC[0] = whoami * 51;
     2c4:	93 e3       	ldi	r25, 0x33	; 51
     2c6:	89 9f       	mul	r24, r25
     2c8:	80 2d       	mov	r24, r0
     2ca:	11 24       	eor	r1, r1
     2cc:	80 93 00 38 	sts	0x3800, r24	; 0x803800 <__data_start>
                }
                progress |= NEXT;
     2d0:	80 91 42 38 	lds	r24, 0x3842	; 0x803842 <progress.3768>
     2d4:	80 6f       	ori	r24, 0xF0	; 240
     2d6:	80 93 42 38 	sts	0x3842, r24	; 0x803842 <progress.3768>
     2da:	27 c0       	rjmp	.+78     	; 0x32a <MakeFriends+0x210>
            }
        } 
        
        //Wait a bit, check Voltage again, if ok show who you connected with and your own number, save, exit
        else if (progress == THIRD_KISS) {
            if (chkTmr >= SHORT_WAIT) {
     2dc:	80 91 43 38 	lds	r24, 0x3843	; 0x803843 <chkTmr.3770>
     2e0:	88 30       	cpi	r24, 0x08	; 8
                jackIn = chkVolt250();
     2e2:	18 f1       	brcs	.+70     	; 0x32a <MakeFriends+0x210>
     2e4:	02 df       	rcall	.-508    	; 0xea <chkVolt250>
     2e6:	80 93 41 38 	sts	0x3841, r24	; 0x803841 <jackIn.3771>
                if (jackIn == (((candidate > whoami)?candidate:whoami) + 5)) {
     2ea:	90 91 40 38 	lds	r25, 0x3840	; 0x803840 <__data_end>
     2ee:	48 2f       	mov	r20, r24
     2f0:	50 e0       	ldi	r21, 0x00	; 0
     2f2:	20 91 4d 38 	lds	r18, 0x384D	; 0x80384d <whoami>
     2f6:	29 17       	cp	r18, r25
     2f8:	08 f4       	brcc	.+2      	; 0x2fc <MakeFriends+0x1e2>
     2fa:	29 2f       	mov	r18, r25
     2fc:	30 e0       	ldi	r19, 0x00	; 0
     2fe:	2b 5f       	subi	r18, 0xFB	; 251
     300:	3f 4f       	sbci	r19, 0xFF	; 255
     302:	42 17       	cp	r20, r18
     304:	53 07       	cpc	r21, r19
     306:	09 f0       	breq	.+2      	; 0x30a <MakeFriends+0x1f0>
                    UpdateState(99+candidate);
     308:	b9 cf       	rjmp	.-142    	; 0x27c <MakeFriends+0x162>
     30a:	83 e6       	ldi	r24, 0x63	; 99
     30c:	89 0f       	add	r24, r25
     30e:	c1 d7       	rcall	.+3970   	; 0x1292 <UpdateState>
                 
                    effect = 31;
     310:	8f e1       	ldi	r24, 0x1F	; 31
     312:	90 e0       	ldi	r25, 0x00	; 0
     314:	80 93 4a 38 	sts	0x384A, r24	; 0x80384a <effect>
     318:	90 93 4b 38 	sts	0x384B, r25	; 0x80384b <effect+0x1>
                    WingBar(candidate, whoami);
     31c:	60 91 4d 38 	lds	r22, 0x384D	; 0x80384d <whoami>
     320:	80 91 40 38 	lds	r24, 0x3840	; 0x803840 <__data_end>
     324:	0e 94 65 0a 	call	0x14ca	; 0x14ca <WingBar>
     328:	d3 cf       	rjmp	.-90     	; 0x2d0 <MakeFriends+0x1b6>
    } else {
        progress = NO_OTHER;
    }
      
    return 0;
}
     32a:	80 e0       	ldi	r24, 0x00	; 0
     32c:	df 91       	pop	r29
     32e:	cf 91       	pop	r28
     330:	08 95       	ret

00000332 <LanyardCode>:
uint16_t        lanyardLastActive = 0;


// Main game loop
uint8_t LanyardCode(){
    if (gameNow == LANYARD && idleTimeout(lanyardLastActive,LANYARD_MAX_IDLE)) {
     332:	80 91 4c 38 	lds	r24, 0x384C	; 0x80384c <gameNow>
     336:	83 30       	cpi	r24, 0x03	; 3
     338:	89 f4       	brne	.+34     	; 0x35c <LanyardCode+0x2a>
     33a:	6a e0       	ldi	r22, 0x0A	; 10
     33c:	70 e0       	ldi	r23, 0x00	; 0
     33e:	80 91 44 38 	lds	r24, 0x3844	; 0x803844 <lanyardLastActive>
     342:	90 91 45 38 	lds	r25, 0x3845	; 0x803845 <lanyardLastActive+0x1>
     346:	0e 94 65 0e 	call	0x1cca	; 0x1cca <idleTimeout>
     34a:	88 23       	and	r24, r24
     34c:	39 f0       	breq	.+14     	; 0x35c <LanyardCode+0x2a>
        /* clean up maze game and go back to text game */
        gameNow = TEXT;
     34e:	10 92 4c 38 	sts	0x384C, r1	; 0x80384c <gameNow>
        effect = 0;
     352:	10 92 4a 38 	sts	0x384A, r1	; 0x80384a <effect>
     356:	10 92 4b 38 	sts	0x384B, r1	; 0x80384b <effect+0x1>
        return 0;
     35a:	95 c0       	rjmp	.+298    	; 0x486 <__LOCK_REGION_LENGTH__+0x86>
    }

    if (CheckState(LANYARD_COMPLETED))
     35c:	8b e7       	ldi	r24, 0x7B	; 123
     35e:	ba d7       	rcall	.+3956   	; 0x12d4 <CheckState>
     360:	81 11       	cpse	r24, r1
     362:	91 c0       	rjmp	.+290    	; 0x486 <__LOCK_REGION_LENGTH__+0x86>
        return 0;

    if ( gameNow != TEXT && gameNow != LANYARD )
     364:	80 91 4c 38 	lds	r24, 0x384C	; 0x80384c <gameNow>
     368:	88 23       	and	r24, r24
     36a:	19 f0       	breq	.+6      	; 0x372 <LanyardCode+0x40>
     36c:	83 30       	cpi	r24, 0x03	; 3
     36e:	09 f0       	breq	.+2      	; 0x372 <LanyardCode+0x40>
     370:	8a c0       	rjmp	.+276    	; 0x486 <__LOCK_REGION_LENGTH__+0x86>
        return 0;

    if (buttonState == 0xff)
     372:	80 91 08 38 	lds	r24, 0x3808	; 0x803808 <buttonState>
     376:	8f 3f       	cpi	r24, 0xFF	; 255
     378:	09 f4       	brne	.+2      	; 0x37c <LanyardCode+0x4a>
     37a:	85 c0       	rjmp	.+266    	; 0x486 <__LOCK_REGION_LENGTH__+0x86>
        return 0;

    if (buttonState == lastButtonState)
     37c:	90 91 07 38 	lds	r25, 0x3807	; 0x803807 <lastButtonState>
     380:	89 17       	cp	r24, r25
     382:	09 f4       	brne	.+2      	; 0x386 <LanyardCode+0x54>
     384:	80 c0       	rjmp	.+256    	; 0x486 <__LOCK_REGION_LENGTH__+0x86>
        return 0;

    lanyardLastActive = getClock();
     386:	0e 94 56 0e 	call	0x1cac	; 0x1cac <getClock>
     38a:	80 93 44 38 	sts	0x3844, r24	; 0x803844 <lanyardLastActive>
     38e:	90 93 45 38 	sts	0x3845, r25	; 0x803845 <lanyardLastActive+0x1>

    if (lastButtonState == 0xff){
     392:	80 91 07 38 	lds	r24, 0x3807	; 0x803807 <lastButtonState>
     396:	8f 3f       	cpi	r24, 0xFF	; 255
     398:	09 f0       	breq	.+2      	; 0x39c <LanyardCode+0x6a>
     39a:	75 c0       	rjmp	.+234    	; 0x486 <__LOCK_REGION_LENGTH__+0x86>
        if ((gameNow != LANYARD) || (lanyardState == LANYARD_GAMEOVER)) {
     39c:	80 91 4c 38 	lds	r24, 0x384C	; 0x80384c <gameNow>
     3a0:	83 30       	cpi	r24, 0x03	; 3
     3a2:	21 f4       	brne	.+8      	; 0x3ac <LanyardCode+0x7a>
     3a4:	80 91 02 38 	lds	r24, 0x3802	; 0x803802 <lanyardState>
     3a8:	83 30       	cpi	r24, 0x03	; 3
     3aa:	a1 f4       	brne	.+40     	; 0x3d4 <LanyardCode+0xa2>
            // init Lanyard game
            gameNow         = LANYARD;
     3ac:	83 e0       	ldi	r24, 0x03	; 3
     3ae:	80 93 4c 38 	sts	0x384C, r24	; 0x80384c <gameNow>
            lanyardPos      = 0;
     3b2:	10 92 47 38 	sts	0x3847, r1	; 0x803847 <lanyardPos>
            lanyardCnt      = 0;
     3b6:	10 92 46 38 	sts	0x3846, r1	; 0x803846 <lanyardCnt>
            lanyardState    = LANYARD_GOOD;
     3ba:	81 e0       	ldi	r24, 0x01	; 1
     3bc:	80 93 02 38 	sts	0x3802, r24	; 0x803802 <lanyardState>
            SetHackerLeds(0,0);
     3c0:	60 e0       	ldi	r22, 0x00	; 0
     3c2:	80 e0       	ldi	r24, 0x00	; 0
     3c4:	0e 94 a3 0a 	call	0x1546	; 0x1546 <SetHackerLeds>
            effect = 16;
     3c8:	80 e1       	ldi	r24, 0x10	; 16
     3ca:	90 e0       	ldi	r25, 0x00	; 0
     3cc:	80 93 4a 38 	sts	0x384A, r24	; 0x80384a <effect>
     3d0:	90 93 4b 38 	sts	0x384B, r25	; 0x80384b <effect+0x1>
        }

        if (buttonState != lanyardCode[lanyardPos]) {
     3d4:	80 91 47 38 	lds	r24, 0x3847	; 0x803847 <lanyardPos>
     3d8:	e8 2f       	mov	r30, r24
     3da:	f0 e0       	ldi	r31, 0x00	; 0
     3dc:	ec 5c       	subi	r30, 0xCC	; 204
     3de:	f0 44       	sbci	r31, 0x40	; 64
     3e0:	20 81       	ld	r18, Z
     3e2:	90 91 08 38 	lds	r25, 0x3808	; 0x803808 <buttonState>
     3e6:	29 17       	cp	r18, r25
     3e8:	41 f0       	breq	.+16     	; 0x3fa <LanyardCode+0xc8>
            if (lanyardPos == 0 ) {
     3ea:	81 11       	cpse	r24, r1
     3ec:	03 c0       	rjmp	.+6      	; 0x3f4 <LanyardCode+0xc2>
                gameNow = TEXT;
     3ee:	10 92 4c 38 	sts	0x384C, r1	; 0x80384c <gameNow>
                return 0;
     3f2:	49 c0       	rjmp	.+146    	; 0x486 <__LOCK_REGION_LENGTH__+0x86>
            }
            lanyardState = LANYARD_MISTAKE;
     3f4:	92 e0       	ldi	r25, 0x02	; 2
     3f6:	90 93 02 38 	sts	0x3802, r25	; 0x803802 <lanyardState>
        }
        lanyardPos++;
     3fa:	8f 5f       	subi	r24, 0xFF	; 255
     3fc:	80 93 47 38 	sts	0x3847, r24	; 0x803847 <lanyardPos>
        lanyardCnt++;            
     400:	80 91 46 38 	lds	r24, 0x3846	; 0x803846 <lanyardCnt>
     404:	8f 5f       	subi	r24, 0xFF	; 255
     406:	80 93 46 38 	sts	0x3846, r24	; 0x803846 <lanyardCnt>
        WingBar(lanyardCnt,lanyardCnt);
     40a:	68 2f       	mov	r22, r24
     40c:	0e 94 65 0a 	call	0x14ca	; 0x14ca <WingBar>
        if (lanyardCnt >= 4) {
     410:	80 91 46 38 	lds	r24, 0x3846	; 0x803846 <lanyardCnt>
     414:	84 30       	cpi	r24, 0x04	; 4
     416:	b8 f1       	brcs	.+110    	; 0x486 <__LOCK_REGION_LENGTH__+0x86>
            lanyardCnt = 0;
     418:	10 92 46 38 	sts	0x3846, r1	; 0x803846 <lanyardCnt>
            if (lanyardState == LANYARD_GOOD) {
     41c:	80 91 02 38 	lds	r24, 0x3802	; 0x803802 <lanyardState>
     420:	81 30       	cpi	r24, 0x01	; 1
     422:	21 f5       	brne	.+72     	; 0x46c <__LOCK_REGION_LENGTH__+0x6c>
                if (lanyardCnt == 0) {
                    WingBar(0,0);
     424:	60 e0       	ldi	r22, 0x00	; 0
     426:	80 e0       	ldi	r24, 0x00	; 0
     428:	0e 94 65 0a 	call	0x14ca	; 0x14ca <WingBar>
                    iLED[HCKR[G][(lanyardPos>>1)-2]] = dimValue;
     42c:	80 91 47 38 	lds	r24, 0x3847	; 0x803847 <lanyardPos>
     430:	e8 2f       	mov	r30, r24
     432:	e6 95       	lsr	r30
     434:	f0 e0       	ldi	r31, 0x00	; 0
     436:	ee 5a       	subi	r30, 0xAE	; 174
     438:	f0 44       	sbci	r31, 0x40	; 64
     43a:	a4 81       	ldd	r26, Z+4	; 0x04
     43c:	b0 e0       	ldi	r27, 0x00	; 0
     43e:	90 91 0c 38 	lds	r25, 0x380C	; 0x80380c <dimValue>
     442:	a8 52       	subi	r26, 0x28	; 40
     444:	b5 4c       	sbci	r27, 0xC5	; 197
     446:	9c 93       	st	X, r25
                    iLED[HCKR[G][(lanyardPos>>1)-1]] = dimValue;
     448:	e5 81       	ldd	r30, Z+5	; 0x05
     44a:	f0 e0       	ldi	r31, 0x00	; 0
     44c:	90 91 0c 38 	lds	r25, 0x380C	; 0x80380c <dimValue>
     450:	e8 52       	subi	r30, 0x28	; 40
     452:	f5 4c       	sbci	r31, 0xC5	; 197
     454:	90 83       	st	Z, r25
                }
                if (lanyardPos == LANYARD_LEN) {
     456:	8c 30       	cpi	r24, 0x0C	; 12
     458:	b1 f4       	brne	.+44     	; 0x486 <__LOCK_REGION_LENGTH__+0x86>
                    UpdateState(LANYARD_COMPLETED);
     45a:	8b e7       	ldi	r24, 0x7B	; 123
     45c:	1a d7       	rcall	.+3636   	; 0x1292 <UpdateState>
                    effect    = 0x42;
     45e:	82 e4       	ldi	r24, 0x42	; 66
     460:	90 e0       	ldi	r25, 0x00	; 0
     462:	80 93 4a 38 	sts	0x384A, r24	; 0x80384a <effect>
     466:	90 93 4b 38 	sts	0x384B, r25	; 0x80384b <effect+0x1>
     46a:	0d c0       	rjmp	.+26     	; 0x486 <__LOCK_REGION_LENGTH__+0x86>
                    /*TODO state = STATE_MUSIC;*/
                }
            } else {
                lanyardState = LANYARD_GAMEOVER;
     46c:	83 e0       	ldi	r24, 0x03	; 3
     46e:	80 93 02 38 	sts	0x3802, r24	; 0x803802 <lanyardState>
                effect  = 0x31;
     472:	81 e3       	ldi	r24, 0x31	; 49
     474:	90 e0       	ldi	r25, 0x00	; 0
     476:	80 93 4a 38 	sts	0x384A, r24	; 0x80384a <effect>
     47a:	90 93 4b 38 	sts	0x384B, r25	; 0x80384b <effect+0x1>
                WingBar(0,0);
     47e:	60 e0       	ldi	r22, 0x00	; 0
     480:	80 e0       	ldi	r24, 0x00	; 0
     482:	0e 94 65 0a 	call	0x14ca	; 0x14ca <WingBar>
            }
        }
    }

    return 0;
}
     486:	80 e0       	ldi	r24, 0x00	; 0
     488:	08 95       	ret

0000048a <initMaze>:
uint8_t         mazeState = TRUE;
uint8_t         inverted  = FALSE;
uint16_t        mazeLastActive = 0;

void initMaze() {
    mazeHckrPos = 0;
     48a:	10 92 5a 38 	sts	0x385A, r1	; 0x80385a <mazeHckrPos>
    mazePos = 0;
     48e:	10 92 5b 38 	sts	0x385B, r1	; 0x80385b <mazePos>
    mazeCnt = 0;
     492:	10 92 59 38 	sts	0x3859, r1	; 0x803859 <mazeCnt>
    mazeState = TRUE;
     496:	81 e0       	ldi	r24, 0x01	; 1
     498:	80 93 0d 38 	sts	0x380D, r24	; 0x80380d <mazeState>
    inverted  = FALSE;
     49c:	10 92 58 38 	sts	0x3858, r1	; 0x803858 <inverted>
    effect = 16;
     4a0:	80 e1       	ldi	r24, 0x10	; 16
     4a2:	90 e0       	ldi	r25, 0x00	; 0
     4a4:	80 93 4a 38 	sts	0x384A, r24	; 0x80384a <effect>
     4a8:	90 93 4b 38 	sts	0x384B, r25	; 0x80384b <effect+0x1>
    SetHackerLeds(0,0);
     4ac:	60 e0       	ldi	r22, 0x00	; 0
     4ae:	80 e0       	ldi	r24, 0x00	; 0
     4b0:	0c 94 a3 0a 	jmp	0x1546	; 0x1546 <SetHackerLeds>
     4b4:	08 95       	ret

000004b6 <showFieldStrength>:
}

void showFieldStrength(int16_t val) {
     4b6:	cf 93       	push	r28
     4b8:	df 93       	push	r29
     4ba:	ec 01       	movw	r28, r24
    int16_t field;
 
    field = abs(val);
     4bc:	97 ff       	sbrs	r25, 7
     4be:	03 c0       	rjmp	.+6      	; 0x4c6 <showFieldStrength+0x10>
     4c0:	d1 95       	neg	r29
     4c2:	c1 95       	neg	r28
     4c4:	d1 09       	sbc	r29, r1
 
    if ( field > HALL_FIELD_0 ) {
     4c6:	cd 33       	cpi	r28, 0x3D	; 61
     4c8:	d1 05       	cpc	r29, r1
     4ca:	44 f0       	brlt	.+16     	; 0x4dc <showFieldStrength+0x26>
        if (gameNow == TEXT) {
     4cc:	80 91 4c 38 	lds	r24, 0x384C	; 0x80384c <gameNow>
     4d0:	81 11       	cpse	r24, r1
     4d2:	04 c0       	rjmp	.+8      	; 0x4dc <showFieldStrength+0x26>
            initMaze();
     4d4:	da df       	rcall	.-76     	; 0x48a <initMaze>
            gameNow = MAZE;
     4d6:	81 e0       	ldi	r24, 0x01	; 1
     4d8:	80 93 4c 38 	sts	0x384C, r24	; 0x80384c <gameNow>
        }
    }

    if (gameNow == MAZE) {
     4dc:	80 91 4c 38 	lds	r24, 0x384C	; 0x80384c <gameNow>
     4e0:	81 30       	cpi	r24, 0x01	; 1
     4e2:	09 f5       	brne	.+66     	; 0x526 <showFieldStrength+0x70>
        if ( field < HALL_FIELD_0 )
     4e4:	cc 33       	cpi	r28, 0x3C	; 60
     4e6:	d1 05       	cpc	r29, r1
     4e8:	1c f4       	brge	.+6      	; 0x4f0 <showFieldStrength+0x3a>
            WingBar(0,0);
     4ea:	60 e0       	ldi	r22, 0x00	; 0
     4ec:	80 e0       	ldi	r24, 0x00	; 0
     4ee:	1a c0       	rjmp	.+52     	; 0x524 <showFieldStrength+0x6e>
        else if ( field < HALL_FIELD_1 )
     4f0:	c8 37       	cpi	r28, 0x78	; 120
     4f2:	d1 05       	cpc	r29, r1
     4f4:	1c f4       	brge	.+6      	; 0x4fc <showFieldStrength+0x46>
            WingBar(1,1);
     4f6:	61 e0       	ldi	r22, 0x01	; 1
     4f8:	81 e0       	ldi	r24, 0x01	; 1
     4fa:	14 c0       	rjmp	.+40     	; 0x524 <showFieldStrength+0x6e>
        else if ( field < HALL_FIELD_2 )
     4fc:	c6 39       	cpi	r28, 0x96	; 150
     4fe:	d1 05       	cpc	r29, r1
     500:	1c f4       	brge	.+6      	; 0x508 <showFieldStrength+0x52>
            WingBar(2,2);
     502:	62 e0       	ldi	r22, 0x02	; 2
     504:	82 e0       	ldi	r24, 0x02	; 2
     506:	0e c0       	rjmp	.+28     	; 0x524 <showFieldStrength+0x6e>
        else if ( field < HALL_FIELD_3 )
     508:	c8 3c       	cpi	r28, 0xC8	; 200
     50a:	d1 05       	cpc	r29, r1
     50c:	1c f4       	brge	.+6      	; 0x514 <showFieldStrength+0x5e>
            WingBar(3,3);
     50e:	63 e0       	ldi	r22, 0x03	; 3
     510:	83 e0       	ldi	r24, 0x03	; 3
     512:	08 c0       	rjmp	.+16     	; 0x524 <showFieldStrength+0x6e>
        else if ( field < HALL_FIELD_4 )
     514:	cc 32       	cpi	r28, 0x2C	; 44
     516:	d1 40       	sbci	r29, 0x01	; 1
     518:	1c f4       	brge	.+6      	; 0x520 <showFieldStrength+0x6a>
            WingBar(4,4);
     51a:	64 e0       	ldi	r22, 0x04	; 4
     51c:	84 e0       	ldi	r24, 0x04	; 4
     51e:	02 c0       	rjmp	.+4      	; 0x524 <showFieldStrength+0x6e>
        else
            WingBar(5,5);
     520:	65 e0       	ldi	r22, 0x05	; 5
     522:	85 e0       	ldi	r24, 0x05	; 5
     524:	d2 d7       	rcall	.+4004   	; 0x14ca <WingBar>
    }
}
     526:	df 91       	pop	r29
     528:	cf 91       	pop	r28
     52a:	08 95       	ret

0000052c <MagnetMaze>:

// Main game loop
uint8_t MagnetMaze(){
     52c:	cf 93       	push	r28
     52e:	df 93       	push	r29
    if (gameNow == MAZE && idleTimeout(mazeLastActive,MAZE_MAX_IDLE)) {
     530:	80 91 4c 38 	lds	r24, 0x384C	; 0x80384c <gameNow>
     534:	81 30       	cpi	r24, 0x01	; 1
     536:	71 f4       	brne	.+28     	; 0x554 <MagnetMaze+0x28>
     538:	6a e0       	ldi	r22, 0x0A	; 10
     53a:	70 e0       	ldi	r23, 0x00	; 0
     53c:	80 91 56 38 	lds	r24, 0x3856	; 0x803856 <mazeLastActive>
     540:	90 91 57 38 	lds	r25, 0x3857	; 0x803857 <mazeLastActive+0x1>
     544:	0e 94 65 0e 	call	0x1cca	; 0x1cca <idleTimeout>
     548:	88 23       	and	r24, r24
     54a:	21 f0       	breq	.+8      	; 0x554 <MagnetMaze+0x28>
        /* clean up maze game and go back to text game */
        initMaze();
     54c:	9e df       	rcall	.-196    	; 0x48a <initMaze>
        gameNow = TEXT;
     54e:	10 92 4c 38 	sts	0x384C, r1	; 0x80384c <gameNow>
        return 0;
     552:	e5 c0       	rjmp	.+458    	; 0x71e <MagnetMaze+0x1f2>
    }
        
    if (CheckState(MAZE_INACTIVE))
     554:	87 ef       	ldi	r24, 0xF7	; 247
     556:	be d6       	rcall	.+3452   	; 0x12d4 <CheckState>
     558:	81 11       	cpse	r24, r1
     55a:	e1 c0       	rjmp	.+450    	; 0x71e <MagnetMaze+0x1f2>
        return 0;

    if (CheckState(MAZE_COMPLETED))
     55c:	8d e7       	ldi	r24, 0x7D	; 125
     55e:	ba d6       	rcall	.+3444   	; 0x12d4 <CheckState>
     560:	81 11       	cpse	r24, r1
     562:	dd c0       	rjmp	.+442    	; 0x71e <MagnetMaze+0x1f2>
     564:	80 91 4c 38 	lds	r24, 0x384C	; 0x80384c <gameNow>
        return 0;

    if ( (gameNow != TEXT) && (gameNow != MAZE) )
     568:	82 30       	cpi	r24, 0x02	; 2
     56a:	08 f0       	brcs	.+2      	; 0x56e <MagnetMaze+0x42>
     56c:	d8 c0       	rjmp	.+432    	; 0x71e <MagnetMaze+0x1f2>
     56e:	80 91 00 3b 	lds	r24, 0x3B00	; 0x803b00 <calHall>
        return 0;

    if (calHall == 0)
     572:	90 91 01 3b 	lds	r25, 0x3B01	; 0x803b01 <calHall+0x1>
     576:	89 2b       	or	r24, r25
     578:	41 f4       	brne	.+16     	; 0x58a <MagnetMaze+0x5e>
     57a:	80 91 cf 3a 	lds	r24, 0x3ACF	; 0x803acf <adcHall>
        calHall = adcHall;
     57e:	90 91 d0 3a 	lds	r25, 0x3AD0	; 0x803ad0 <adcHall+0x1>
     582:	80 93 00 3b 	sts	0x3B00, r24	; 0x803b00 <calHall>
     586:	90 93 01 3b 	sts	0x3B01, r25	; 0x803b01 <calHall+0x1>
     58a:	c0 91 cf 3a 	lds	r28, 0x3ACF	; 0x803acf <adcHall>

    int16_t valHall = adcHall - calHall;
     58e:	d0 91 d0 3a 	lds	r29, 0x3AD0	; 0x803ad0 <adcHall+0x1>
     592:	80 91 00 3b 	lds	r24, 0x3B00	; 0x803b00 <calHall>
     596:	90 91 01 3b 	lds	r25, 0x3B01	; 0x803b01 <calHall+0x1>
     59a:	c8 1b       	sub	r28, r24
     59c:	d9 0b       	sbc	r29, r25
    showFieldStrength(valHall);
     59e:	ce 01       	movw	r24, r28
     5a0:	8a df       	rcall	.-236    	; 0x4b6 <showFieldStrength>
     5a2:	80 91 5d 38 	lds	r24, 0x385D	; 0x80385d <curHallState>

    switch (curHallState) {
     5a6:	81 30       	cpi	r24, 0x01	; 1
     5a8:	89 f0       	breq	.+34     	; 0x5cc <MagnetMaze+0xa0>
     5aa:	18 f0       	brcs	.+6      	; 0x5b2 <MagnetMaze+0x86>
     5ac:	82 30       	cpi	r24, 0x02	; 2
     5ae:	c1 f0       	breq	.+48     	; 0x5e0 <MagnetMaze+0xb4>
     5b0:	1f c0       	rjmp	.+62     	; 0x5f0 <MagnetMaze+0xc4>
     5b2:	c4 3d       	cpi	r28, 0xD4	; 212
        case 0:
            if ( valHall + HALL_HIGH < 0 ) {
     5b4:	9e ef       	ldi	r25, 0xFE	; 254
     5b6:	d9 07       	cpc	r29, r25
     5b8:	14 f4       	brge	.+4      	; 0x5be <MagnetMaze+0x92>
     5ba:	91 e0       	ldi	r25, 0x01	; 1
                newHallState = 1;
     5bc:	04 c0       	rjmp	.+8      	; 0x5c6 <MagnetMaze+0x9a>
     5be:	cd 32       	cpi	r28, 0x2D	; 45
            } else if ( valHall - HALL_HIGH > 0 ) {
     5c0:	d1 40       	sbci	r29, 0x01	; 1
     5c2:	5c f0       	brlt	.+22     	; 0x5da <MagnetMaze+0xae>
     5c4:	92 e0       	ldi	r25, 0x02	; 2
                newHallState = 2;
     5c6:	90 93 5c 38 	sts	0x385C, r25	; 0x80385c <newHallState>
     5ca:	12 c0       	rjmp	.+36     	; 0x5f0 <MagnetMaze+0xc4>
     5cc:	cd 32       	cpi	r28, 0x2D	; 45
                newHallState = 0;
            }
            break;
        
        case 1:
            if ( valHall - HALL_HIGH > 0 ) {
     5ce:	91 e0       	ldi	r25, 0x01	; 1
     5d0:	d9 07       	cpc	r29, r25
     5d2:	c4 f7       	brge	.-16     	; 0x5c4 <MagnetMaze+0x98>
     5d4:	c9 38       	cpi	r28, 0x89	; 137
                newHallState = 2;
            } else if ( valHall + HALL_LOW > 0 ) {
     5d6:	df 4f       	sbci	r29, 0xFF	; 255
     5d8:	84 f3       	brlt	.-32     	; 0x5ba <MagnetMaze+0x8e>
     5da:	10 92 5c 38 	sts	0x385C, r1	; 0x80385c <newHallState>
            if ( valHall + HALL_HIGH < 0 ) {
                newHallState = 1;
            } else if ( valHall - HALL_HIGH > 0 ) {
                newHallState = 2;
            } else {
                newHallState = 0;
     5de:	08 c0       	rjmp	.+16     	; 0x5f0 <MagnetMaze+0xc4>
     5e0:	c4 3d       	cpi	r28, 0xD4	; 212
                newHallState = 1;
            }
            break;
        
        case 2:
            if ( valHall + HALL_HIGH < 0 ) {
     5e2:	9e ef       	ldi	r25, 0xFE	; 254
     5e4:	d9 07       	cpc	r29, r25
     5e6:	4c f3       	brlt	.-46     	; 0x5ba <MagnetMaze+0x8e>
     5e8:	c8 37       	cpi	r28, 0x78	; 120
                newHallState = 1;
            } else if ( valHall - HALL_LOW < 0 ) {
     5ea:	d1 05       	cpc	r29, r1
     5ec:	b4 f3       	brlt	.-20     	; 0x5da <MagnetMaze+0xae>
     5ee:	ea cf       	rjmp	.-44     	; 0x5c4 <MagnetMaze+0x98>
     5f0:	c0 91 40 bf 	lds	r28, 0xBF40	; 0x80bf40 <__bss_end+0x8419>
            }
            break;
    }

    /* Indicate that the magnet was read succesfully */
    iLED[CAT] = (newHallState ? dimValue : 0);
     5f4:	ec 2f       	mov	r30, r28
     5f6:	f0 e0       	ldi	r31, 0x00	; 0
     5f8:	90 91 5c 38 	lds	r25, 0x385C	; 0x80385c <newHallState>
     5fc:	99 23       	and	r25, r25
     5fe:	19 f0       	breq	.+6      	; 0x606 <MagnetMaze+0xda>
     600:	20 91 0c 38 	lds	r18, 0x380C	; 0x80380c <dimValue>
     604:	01 c0       	rjmp	.+2      	; 0x608 <MagnetMaze+0xdc>
     606:	20 e0       	ldi	r18, 0x00	; 0
     608:	e8 52       	subi	r30, 0x28	; 40
     60a:	f5 4c       	sbci	r31, 0xC5	; 197
     60c:	20 83       	st	Z, r18
     60e:	89 17       	cp	r24, r25

    if (newHallState != curHallState) {
     610:	09 f4       	brne	.+2      	; 0x614 <MagnetMaze+0xe8>
     612:	85 c0       	rjmp	.+266    	; 0x71e <MagnetMaze+0x1f2>
     614:	0e 94 56 0e 	call	0x1cac	; 0x1cac <getClock>
        /* keep track of time to enable an idle timeout to exit the game */
        mazeLastActive = getClock();
     618:	80 93 56 38 	sts	0x3856, r24	; 0x803856 <mazeLastActive>
     61c:	90 93 57 38 	sts	0x3857, r25	; 0x803857 <mazeLastActive+0x1>
     620:	90 91 5b 38 	lds	r25, 0x385B	; 0x80385b <mazePos>

        /* Make the maze work regardless of badge orientation */
        if ((mazePos == 0) && (newHallState != 0))
     624:	80 91 5c 38 	lds	r24, 0x385C	; 0x80385c <newHallState>
     628:	91 11       	cpse	r25, r1
     62a:	08 c0       	rjmp	.+16     	; 0x63c <MagnetMaze+0x110>
     62c:	88 23       	and	r24, r24
     62e:	31 f0       	breq	.+12     	; 0x63c <MagnetMaze+0x110>
     630:	91 e0       	ldi	r25, 0x01	; 1
            inverted = (newHallState != mazeCode[0]) ? TRUE : FALSE;
     632:	81 30       	cpi	r24, 0x01	; 1
     634:	09 f4       	brne	.+2      	; 0x638 <MagnetMaze+0x10c>
     636:	90 e0       	ldi	r25, 0x00	; 0
     638:	90 93 58 38 	sts	0x3858, r25	; 0x803858 <inverted>
     63c:	80 93 5d 38 	sts	0x385D, r24	; 0x80385d <curHallState>

        curHallState = newHallState;
     640:	88 23       	and	r24, r24
        
        if (curHallState != 0) {
     642:	09 f4       	brne	.+2      	; 0x646 <MagnetMaze+0x11a>
     644:	6c c0       	rjmp	.+216    	; 0x71e <MagnetMaze+0x1f2>
     646:	8f e9       	ldi	r24, 0x9F	; 159
            effect = 0x19f;
     648:	91 e0       	ldi	r25, 0x01	; 1
     64a:	80 93 4a 38 	sts	0x384A, r24	; 0x80384a <effect>
     64e:	90 93 4b 38 	sts	0x384B, r25	; 0x80384b <effect+0x1>
     652:	80 91 4c 38 	lds	r24, 0x384C	; 0x80384c <gameNow>
            if (gameNow == TEXT)
     656:	81 11       	cpse	r24, r1
     658:	01 c0       	rjmp	.+2      	; 0x65c <MagnetMaze+0x130>
                initMaze();
     65a:	17 df       	rcall	.-466    	; 0x48a <initMaze>
     65c:	81 e0       	ldi	r24, 0x01	; 1
            gameNow = MAZE;
     65e:	80 93 4c 38 	sts	0x384C, r24	; 0x80384c <gameNow>
     662:	80 91 58 38 	lds	r24, 0x3858	; 0x803858 <inverted>

            if ( (inverted ? curHallState^3 : curHallState) == mazeCode[mazePos]) {
     666:	20 91 5d 38 	lds	r18, 0x385D	; 0x80385d <curHallState>
     66a:	88 23       	and	r24, r24
     66c:	11 f0       	breq	.+4      	; 0x672 <MagnetMaze+0x146>
     66e:	83 e0       	ldi	r24, 0x03	; 3
     670:	28 27       	eor	r18, r24
     672:	30 e0       	ldi	r19, 0x00	; 0
     674:	80 91 5b 38 	lds	r24, 0x385B	; 0x80385b <mazePos>
     678:	e8 2f       	mov	r30, r24
     67a:	f0 e0       	ldi	r31, 0x00	; 0
     67c:	e2 59       	subi	r30, 0x92	; 146
     67e:	f0 44       	sbci	r31, 0x40	; 64
     680:	40 81       	ld	r20, Z
     682:	50 e0       	ldi	r21, 0x00	; 0
     684:	24 17       	cp	r18, r20
     686:	35 07       	cpc	r19, r21
     688:	91 f4       	brne	.+36     	; 0x6ae <MagnetMaze+0x182>
     68a:	90 91 0d 38 	lds	r25, 0x380D	; 0x80380d <mazeState>
                mazeState &= TRUE;
     68e:	91 70       	andi	r25, 0x01	; 1
     690:	90 93 0d 38 	sts	0x380D, r25	; 0x80380d <mazeState>
     694:	e0 91 4f bf 	lds	r30, 0xBF4F	; 0x80bf4f <__bss_end+0x8428>
                iLED[EYE[R][L]] = 0;
     698:	f0 e0       	ldi	r31, 0x00	; 0
     69a:	e8 52       	subi	r30, 0x28	; 40
     69c:	f5 4c       	sbci	r31, 0xC5	; 197
     69e:	10 82       	st	Z, r1
     6a0:	e0 91 4e bf 	lds	r30, 0xBF4E	; 0x80bf4e <__bss_end+0x8427>
                iLED[EYE[R][R]] = 0;
     6a4:	f0 e0       	ldi	r31, 0x00	; 0
     6a6:	e8 52       	subi	r30, 0x28	; 40
     6a8:	f5 4c       	sbci	r31, 0xC5	; 197
     6aa:	10 82       	st	Z, r1
     6ac:	02 c0       	rjmp	.+4      	; 0x6b2 <MagnetMaze+0x186>
     6ae:	10 92 0d 38 	sts	0x380D, r1	; 0x80380d <mazeState>
            } else {
                mazeState = FALSE;
     6b2:	8f 5f       	subi	r24, 0xFF	; 255
            }
            mazePos++;
     6b4:	80 93 5b 38 	sts	0x385B, r24	; 0x80385b <mazePos>
     6b8:	90 91 59 38 	lds	r25, 0x3859	; 0x803859 <mazeCnt>
            mazeCnt++;            
     6bc:	9f 5f       	subi	r25, 0xFF	; 255
     6be:	93 30       	cpi	r25, 0x03	; 3
            if (mazeCnt >= 3) {
     6c0:	18 f4       	brcc	.+6      	; 0x6c8 <MagnetMaze+0x19c>
     6c2:	90 93 59 38 	sts	0x3859, r25	; 0x803859 <mazeCnt>
                iLED[EYE[R][R]] = 0;
            } else {
                mazeState = FALSE;
            }
            mazePos++;
            mazeCnt++;            
     6c6:	2b c0       	rjmp	.+86     	; 0x71e <MagnetMaze+0x1f2>
     6c8:	10 92 59 38 	sts	0x3859, r1	; 0x803859 <mazeCnt>
            if (mazeCnt >= 3) {
                mazeCnt = 0;
     6cc:	90 91 0d 38 	lds	r25, 0x380D	; 0x80380d <mazeState>
                if (mazeState == TRUE) {
     6d0:	91 30       	cpi	r25, 0x01	; 1
     6d2:	e1 f4       	brne	.+56     	; 0x70c <MagnetMaze+0x1e0>
     6d4:	90 91 5a 38 	lds	r25, 0x385A	; 0x80385a <mazeHckrPos>
                    iLED[HCKR[G][mazeHckrPos]] = dimValue;
     6d8:	e9 2f       	mov	r30, r25
     6da:	f0 e0       	ldi	r31, 0x00	; 0
     6dc:	ee 5a       	subi	r30, 0xAE	; 174
     6de:	f0 44       	sbci	r31, 0x40	; 64
     6e0:	e6 81       	ldd	r30, Z+6	; 0x06
     6e2:	f0 e0       	ldi	r31, 0x00	; 0
     6e4:	20 91 0c 38 	lds	r18, 0x380C	; 0x80380c <dimValue>
     6e8:	e8 52       	subi	r30, 0x28	; 40
     6ea:	f5 4c       	sbci	r31, 0xC5	; 197
     6ec:	20 83       	st	Z, r18
     6ee:	9f 5f       	subi	r25, 0xFF	; 255
                    mazeHckrPos++;
     6f0:	90 93 5a 38 	sts	0x385A, r25	; 0x80385a <mazeHckrPos>
                    if (mazePos == sizeof(mazeCode)) {
     6f4:	82 31       	cpi	r24, 0x12	; 18
     6f6:	99 f4       	brne	.+38     	; 0x71e <MagnetMaze+0x1f2>
                        UpdateState(MAZE_COMPLETED);
     6f8:	8d e7       	ldi	r24, 0x7D	; 125
     6fa:	cb d5       	rcall	.+2966   	; 0x1292 <UpdateState>
     6fc:	ec 2f       	mov	r30, r28
                        iLED[CAT]       = 0;
     6fe:	f0 e0       	ldi	r31, 0x00	; 0
     700:	e8 52       	subi	r30, 0x28	; 40
     702:	f5 4c       	sbci	r31, 0xC5	; 197
     704:	10 82       	st	Z, r1
                        effect = 0x42;
     706:	82 e4       	ldi	r24, 0x42	; 66
     708:	90 e0       	ldi	r25, 0x00	; 0
     70a:	05 c0       	rjmp	.+10     	; 0x716 <MagnetMaze+0x1ea>
                        /*TODO state = STATE_MUSIC;*/
                    }
                } else {
                    initMaze();
     70c:	be de       	rcall	.-644    	; 0x48a <initMaze>
     70e:	10 92 4c 38 	sts	0x384C, r1	; 0x80384c <gameNow>
                    gameNow   = TEXT;
     712:	81 e3       	ldi	r24, 0x31	; 49
                    effect = 0x31;
     714:	90 e0       	ldi	r25, 0x00	; 0
     716:	80 93 4a 38 	sts	0x384A, r24	; 0x80384a <effect>
     71a:	90 93 4b 38 	sts	0x384B, r25	; 0x80384b <effect+0x1>
     71e:	80 e0       	ldi	r24, 0x00	; 0
                }
            }
        }
    }
    return 0;
}
     720:	df 91       	pop	r29
     722:	cf 91       	pop	r28
     724:	08 95       	ret

00000726 <Setup>:
     726:	f8 94       	cli
    TCB1_CCMP = pitch;
    if (repeat) auRepAddr = auBuffer;
    else auSmpAddr = auBuffer;
    auVolume = volume;
    return 1;
}
     728:	88 ed       	ldi	r24, 0xD8	; 216
     72a:	84 bf       	out	0x34, r24	; 52
     72c:	81 e0       	ldi	r24, 0x01	; 1
     72e:	80 93 61 00 	sts	0x0061, r24	; 0x800061 <__TEXT_REGION_LENGTH__+0x700061>
     732:	9a e4       	ldi	r25, 0x4A	; 74
     734:	90 93 00 04 	sts	0x0400, r25	; 0x800400 <__TEXT_REGION_LENGTH__+0x700400>
     738:	9c e7       	ldi	r25, 0x7C	; 124
     73a:	90 93 20 04 	sts	0x0420, r25	; 0x800420 <__TEXT_REGION_LENGTH__+0x700420>
     73e:	2f e3       	ldi	r18, 0x3F	; 63
     740:	20 93 40 04 	sts	0x0440, r18	; 0x800440 <__TEXT_REGION_LENGTH__+0x700440>
     744:	90 91 53 04 	lds	r25, 0x0453	; 0x800453 <__TEXT_REGION_LENGTH__+0x700453>
     748:	90 68       	ori	r25, 0x80	; 128
     74a:	90 93 53 04 	sts	0x0453, r25	; 0x800453 <__TEXT_REGION_LENGTH__+0x700453>
     74e:	90 91 54 04 	lds	r25, 0x0454	; 0x800454 <__TEXT_REGION_LENGTH__+0x700454>
     752:	90 68       	ori	r25, 0x80	; 128
     754:	90 93 54 04 	sts	0x0454, r25	; 0x800454 <__TEXT_REGION_LENGTH__+0x700454>
     758:	90 91 55 04 	lds	r25, 0x0455	; 0x800455 <__TEXT_REGION_LENGTH__+0x700455>
     75c:	90 68       	ori	r25, 0x80	; 128
     75e:	90 93 55 04 	sts	0x0455, r25	; 0x800455 <__TEXT_REGION_LENGTH__+0x700455>
     762:	90 91 33 04 	lds	r25, 0x0433	; 0x800433 <__TEXT_REGION_LENGTH__+0x700433>
     766:	90 68       	ori	r25, 0x80	; 128
     768:	90 93 33 04 	sts	0x0433, r25	; 0x800433 <__TEXT_REGION_LENGTH__+0x700433>
     76c:	90 91 34 04 	lds	r25, 0x0434	; 0x800434 <__TEXT_REGION_LENGTH__+0x700434>
     770:	90 68       	ori	r25, 0x80	; 128
     772:	90 93 34 04 	sts	0x0434, r25	; 0x800434 <__TEXT_REGION_LENGTH__+0x700434>
     776:	90 91 35 04 	lds	r25, 0x0435	; 0x800435 <__TEXT_REGION_LENGTH__+0x700435>
     77a:	90 68       	ori	r25, 0x80	; 128
     77c:	90 93 35 04 	sts	0x0435, r25	; 0x800435 <__TEXT_REGION_LENGTH__+0x700435>
     780:	80 93 01 02 	sts	0x0201, r24	; 0x800201 <__TEXT_REGION_LENGTH__+0x700201>
     784:	92 e0       	ldi	r25, 0x02	; 2
     786:	90 93 05 04 	sts	0x0405, r25	; 0x800405 <__TEXT_REGION_LENGTH__+0x700405>
     78a:	4b e5       	ldi	r20, 0x5B	; 91
     78c:	51 e0       	ldi	r21, 0x01	; 1
     78e:	40 93 08 08 	sts	0x0808, r20	; 0x800808 <__TEXT_REGION_LENGTH__+0x700808>
     792:	50 93 09 08 	sts	0x0809, r21	; 0x800809 <__TEXT_REGION_LENGTH__+0x700809>
     796:	30 ea       	ldi	r19, 0xA0	; 160
     798:	30 93 05 08 	sts	0x0805, r19	; 0x800805 <__TEXT_REGION_LENGTH__+0x700805>
     79c:	30 ec       	ldi	r19, 0xC0	; 192
     79e:	30 93 06 08 	sts	0x0806, r19	; 0x800806 <__TEXT_REGION_LENGTH__+0x700806>
     7a2:	33 e0       	ldi	r19, 0x03	; 3
     7a4:	30 93 07 08 	sts	0x0807, r19	; 0x800807 <__TEXT_REGION_LENGTH__+0x700807>
     7a8:	1c ba       	out	0x1c, r1	; 28
     7aa:	1d ba       	out	0x1d, r1	; 29
     7ac:	1f ba       	out	0x1f, r1	; 31
     7ae:	80 93 03 0a 	sts	0x0A03, r24	; 0x800a03 <__TEXT_REGION_LENGTH__+0x700a03>
     7b2:	38 e0       	ldi	r19, 0x08	; 8
     7b4:	30 93 00 0a 	sts	0x0A00, r19	; 0x800a00 <__TEXT_REGION_LENGTH__+0x700a00>
     7b8:	20 93 02 02 	sts	0x0202, r18	; 0x800202 <__TEXT_REGION_LENGTH__+0x700202>
     7bc:	27 e7       	ldi	r18, 0x77	; 119
     7be:	20 93 01 0a 	sts	0x0A01, r18	; 0x800a01 <__TEXT_REGION_LENGTH__+0x700a01>
     7c2:	80 93 0a 0a 	sts	0x0A0A, r24	; 0x800a0a <__TEXT_REGION_LENGTH__+0x700a0a>
     7c6:	2b e0       	ldi	r18, 0x0B	; 11
     7c8:	20 93 05 0a 	sts	0x0A05, r18	; 0x800a05 <__TEXT_REGION_LENGTH__+0x700a05>
     7cc:	20 91 00 0a 	lds	r18, 0x0A00	; 0x800a00 <__TEXT_REGION_LENGTH__+0x700a00>
     7d0:	21 60       	ori	r18, 0x01	; 1
     7d2:	20 93 00 0a 	sts	0x0A00, r18	; 0x800a00 <__TEXT_REGION_LENGTH__+0x700a00>
     7d6:	25 e0       	ldi	r18, 0x05	; 5
     7d8:	20 93 40 0a 	sts	0x0A40, r18	; 0x800a40 <__TEXT_REGION_LENGTH__+0x700a40>
     7dc:	10 92 41 0a 	sts	0x0A41, r1	; 0x800a41 <__TEXT_REGION_LENGTH__+0x700a41>
     7e0:	2f ef       	ldi	r18, 0xFF	; 255
     7e2:	31 e0       	ldi	r19, 0x01	; 1
     7e4:	20 93 4c 0a 	sts	0x0A4C, r18	; 0x800a4c <__TEXT_REGION_LENGTH__+0x700a4c>
     7e8:	30 93 4d 0a 	sts	0x0A4D, r19	; 0x800a4d <__TEXT_REGION_LENGTH__+0x700a4d>
     7ec:	10 92 45 0a 	sts	0x0A45, r1	; 0x800a45 <__TEXT_REGION_LENGTH__+0x700a45>
     7f0:	80 93 50 0a 	sts	0x0A50, r24	; 0x800a50 <__TEXT_REGION_LENGTH__+0x700a50>
     7f4:	10 92 51 0a 	sts	0x0A51, r1	; 0x800a51 <__TEXT_REGION_LENGTH__+0x700a51>
     7f8:	2b e8       	ldi	r18, 0x8B	; 139
     7fa:	33 e0       	ldi	r19, 0x03	; 3
     7fc:	20 93 5c 0a 	sts	0x0A5C, r18	; 0x800a5c <__TEXT_REGION_LENGTH__+0x700a5c>
     800:	30 93 5d 0a 	sts	0x0A5D, r19	; 0x800a5d <__TEXT_REGION_LENGTH__+0x700a5d>
     804:	80 93 55 0a 	sts	0x0A55, r24	; 0x800a55 <__TEXT_REGION_LENGTH__+0x700a55>
     808:	2c e0       	ldi	r18, 0x0C	; 12
     80a:	20 93 16 08 	sts	0x0816, r18	; 0x800816 <__TEXT_REGION_LENGTH__+0x700816>
     80e:	23 ec       	ldi	r18, 0xC3	; 195
     810:	20 93 13 08 	sts	0x0813, r18	; 0x800813 <__TEXT_REGION_LENGTH__+0x700813>
     814:	20 91 15 08 	lds	r18, 0x0815	; 0x800815 <__TEXT_REGION_LENGTH__+0x700815>
     818:	21 60       	ori	r18, 0x01	; 1
     81a:	20 93 15 08 	sts	0x0815, r18	; 0x800815 <__TEXT_REGION_LENGTH__+0x700815>
     81e:	20 91 15 08 	lds	r18, 0x0815	; 0x800815 <__TEXT_REGION_LENGTH__+0x700815>
     822:	24 6c       	ori	r18, 0xC4	; 196
     824:	20 93 15 08 	sts	0x0815, r18	; 0x800815 <__TEXT_REGION_LENGTH__+0x700815>
     828:	22 e1       	ldi	r18, 0x12	; 18
     82a:	20 93 a0 00 	sts	0x00A0, r18	; 0x8000a0 <__TEXT_REGION_LENGTH__+0x7000a0>
     82e:	20 e2       	ldi	r18, 0x20	; 32
     830:	20 93 a2 00 	sts	0x00A2, r18	; 0x8000a2 <__TEXT_REGION_LENGTH__+0x7000a2>
     834:	80 93 a1 00 	sts	0x00A1, r24	; 0x8000a1 <__TEXT_REGION_LENGTH__+0x7000a1>
     838:	90 93 00 06 	sts	0x0600, r25	; 0x800600 <__TEXT_REGION_LENGTH__+0x700600>
     83c:	24 e4       	ldi	r18, 0x44	; 68
     83e:	20 93 02 06 	sts	0x0602, r18	; 0x800602 <__TEXT_REGION_LENGTH__+0x700602>
     842:	2e e1       	ldi	r18, 0x1E	; 30
     844:	20 93 06 06 	sts	0x0606, r18	; 0x800606 <__TEXT_REGION_LENGTH__+0x700606>
     848:	80 93 0a 06 	sts	0x060A, r24	; 0x80060a <__TEXT_REGION_LENGTH__+0x70060a>
     84c:	20 91 00 06 	lds	r18, 0x0600	; 0x800600 <__TEXT_REGION_LENGTH__+0x700600>
     850:	21 60       	ori	r18, 0x01	; 1
     852:	20 93 00 06 	sts	0x0600, r18	; 0x800600 <__TEXT_REGION_LENGTH__+0x700600>
     856:	80 93 08 06 	sts	0x0608, r24	; 0x800608 <__TEXT_REGION_LENGTH__+0x700608>
     85a:	10 92 40 06 	sts	0x0640, r1	; 0x800640 <__TEXT_REGION_LENGTH__+0x700640>
     85e:	90 93 41 06 	sts	0x0641, r25	; 0x800641 <__TEXT_REGION_LENGTH__+0x700641>
     862:	92 e5       	ldi	r25, 0x52	; 82
     864:	90 93 42 06 	sts	0x0642, r25	; 0x800642 <__TEXT_REGION_LENGTH__+0x700642>
     868:	94 e0       	ldi	r25, 0x04	; 4
     86a:	90 93 45 06 	sts	0x0645, r25	; 0x800645 <__TEXT_REGION_LENGTH__+0x700645>
     86e:	90 93 46 06 	sts	0x0646, r25	; 0x800646 <__TEXT_REGION_LENGTH__+0x700646>
     872:	80 93 4a 06 	sts	0x064A, r24	; 0x80064a <__TEXT_REGION_LENGTH__+0x70064a>
     876:	90 91 40 06 	lds	r25, 0x0640	; 0x800640 <__TEXT_REGION_LENGTH__+0x700640>
     87a:	91 60       	ori	r25, 0x01	; 1
     87c:	90 93 40 06 	sts	0x0640, r25	; 0x800640 <__TEXT_REGION_LENGTH__+0x700640>
     880:	80 93 48 06 	sts	0x0648, r24	; 0x800648 <__TEXT_REGION_LENGTH__+0x700648>
     884:	80 e4       	ldi	r24, 0x40	; 64
     886:	80 93 a0 06 	sts	0x06A0, r24	; 0x8006a0 <__TEXT_REGION_LENGTH__+0x7006a0>
     88a:	80 e8       	ldi	r24, 0x80	; 128
     88c:	80 93 a1 06 	sts	0x06A1, r24	; 0x8006a1 <__TEXT_REGION_LENGTH__+0x7006a1>
     890:	80 91 a0 06 	lds	r24, 0x06A0	; 0x8006a0 <__TEXT_REGION_LENGTH__+0x7006a0>
     894:	81 60       	ori	r24, 0x01	; 1
     896:	80 93 a0 06 	sts	0x06A0, r24	; 0x8006a0 <__TEXT_REGION_LENGTH__+0x7006a0>
     89a:	80 91 41 01 	lds	r24, 0x0141	; 0x800141 <__TEXT_REGION_LENGTH__+0x700141>
     89e:	80 fd       	sbrc	r24, 0
     8a0:	fc cf       	rjmp	.-8      	; 0x89a <Setup+0x174>
     8a2:	80 e3       	ldi	r24, 0x30	; 48
     8a4:	80 93 40 01 	sts	0x0140, r24	; 0x800140 <__TEXT_REGION_LENGTH__+0x700140>
     8a8:	10 92 47 01 	sts	0x0147, r1	; 0x800147 <__TEXT_REGION_LENGTH__+0x700147>
     8ac:	80 91 41 01 	lds	r24, 0x0141	; 0x800141 <__TEXT_REGION_LENGTH__+0x700141>
     8b0:	82 fd       	sbrc	r24, 2
     8b2:	fc cf       	rjmp	.-8      	; 0x8ac <Setup+0x186>
     8b4:	80 e0       	ldi	r24, 0x00	; 0
     8b6:	98 e7       	ldi	r25, 0x78	; 120
     8b8:	80 93 4a 01 	sts	0x014A, r24	; 0x80014a <__TEXT_REGION_LENGTH__+0x70014a>
     8bc:	90 93 4b 01 	sts	0x014B, r25	; 0x80014b <__TEXT_REGION_LENGTH__+0x70014b>
     8c0:	80 91 48 01 	lds	r24, 0x0148	; 0x800148 <__TEXT_REGION_LENGTH__+0x700148>
     8c4:	90 91 49 01 	lds	r25, 0x0149	; 0x800149 <__TEXT_REGION_LENGTH__+0x700149>
     8c8:	82 96       	adiw	r24, 0x22	; 34
     8ca:	80 93 04 3b 	sts	0x3B04, r24	; 0x803b04 <tmp16bit>
     8ce:	90 93 05 3b 	sts	0x3B05, r25	; 0x803b05 <tmp16bit+0x1>
     8d2:	20 91 4a 01 	lds	r18, 0x014A	; 0x80014a <__TEXT_REGION_LENGTH__+0x70014a>
     8d6:	30 91 4b 01 	lds	r19, 0x014B	; 0x80014b <__TEXT_REGION_LENGTH__+0x70014b>
     8da:	80 91 04 3b 	lds	r24, 0x3B04	; 0x803b04 <tmp16bit>
     8de:	90 91 05 3b 	lds	r25, 0x3B05	; 0x803b05 <tmp16bit+0x1>
     8e2:	28 17       	cp	r18, r24
     8e4:	39 07       	cpc	r19, r25
     8e6:	70 f4       	brcc	.+28     	; 0x904 <Setup+0x1de>
     8e8:	20 91 4a 01 	lds	r18, 0x014A	; 0x80014a <__TEXT_REGION_LENGTH__+0x70014a>
     8ec:	30 91 4b 01 	lds	r19, 0x014B	; 0x80014b <__TEXT_REGION_LENGTH__+0x70014b>
     8f0:	80 91 04 3b 	lds	r24, 0x3B04	; 0x803b04 <tmp16bit>
     8f4:	90 91 05 3b 	lds	r25, 0x3B05	; 0x803b05 <tmp16bit+0x1>
     8f8:	82 1b       	sub	r24, r18
     8fa:	93 0b       	sbc	r25, r19
     8fc:	80 93 04 3b 	sts	0x3B04, r24	; 0x803b04 <tmp16bit>
     900:	90 93 05 3b 	sts	0x3B05, r25	; 0x803b05 <tmp16bit+0x1>
     904:	80 91 41 01 	lds	r24, 0x0141	; 0x800141 <__TEXT_REGION_LENGTH__+0x700141>
     908:	83 fd       	sbrc	r24, 3
     90a:	fc cf       	rjmp	.-8      	; 0x904 <Setup+0x1de>
     90c:	80 91 04 3b 	lds	r24, 0x3B04	; 0x803b04 <tmp16bit>
     910:	90 91 05 3b 	lds	r25, 0x3B05	; 0x803b05 <tmp16bit+0x1>
     914:	80 93 4c 01 	sts	0x014C, r24	; 0x80014c <__TEXT_REGION_LENGTH__+0x70014c>
     918:	90 93 4d 01 	sts	0x014D, r25	; 0x80014d <__TEXT_REGION_LENGTH__+0x70014d>
     91c:	83 e0       	ldi	r24, 0x03	; 3
     91e:	80 93 42 01 	sts	0x0142, r24	; 0x800142 <__TEXT_REGION_LENGTH__+0x700142>
     922:	81 e0       	ldi	r24, 0x01	; 1
     924:	80 93 52 01 	sts	0x0152, r24	; 0x800152 <__TEXT_REGION_LENGTH__+0x700152>
     928:	88 e0       	ldi	r24, 0x08	; 8
     92a:	80 93 50 01 	sts	0x0150, r24	; 0x800150 <__TEXT_REGION_LENGTH__+0x700150>
     92e:	80 91 41 01 	lds	r24, 0x0141	; 0x800141 <__TEXT_REGION_LENGTH__+0x700141>
     932:	80 fd       	sbrc	r24, 0
     934:	fc cf       	rjmp	.-8      	; 0x92e <Setup+0x208>
     936:	80 91 40 01 	lds	r24, 0x0140	; 0x800140 <__TEXT_REGION_LENGTH__+0x700140>
     93a:	81 60       	ori	r24, 0x01	; 1
     93c:	80 93 40 01 	sts	0x0140, r24	; 0x800140 <__TEXT_REGION_LENGTH__+0x700140>
     940:	80 91 50 01 	lds	r24, 0x0150	; 0x800150 <__TEXT_REGION_LENGTH__+0x700150>
     944:	81 60       	ori	r24, 0x01	; 1
     946:	80 93 50 01 	sts	0x0150, r24	; 0x800150 <__TEXT_REGION_LENGTH__+0x700150>
     94a:	10 92 87 3a 	sts	0x3A87, r1	; 0x803a87 <serRx>
     94e:	87 e8       	ldi	r24, 0x87	; 135
     950:	9a e3       	ldi	r25, 0x3A	; 58
     952:	80 93 cd 3a 	sts	0x3ACD, r24	; 0x803acd <serTxAddr>
     956:	90 93 ce 3a 	sts	0x3ACE, r25	; 0x803ace <serTxAddr+0x1>
     95a:	8f ef       	ldi	r24, 0xFF	; 255
     95c:	80 93 48 38 	sts	0x3848, r24	; 0x803848 <adc0Chg>
     960:	78 94       	sei
     962:	08 95       	ret

00000964 <__vector_8>:
     964:	1f 92       	push	r1
     966:	0f 92       	push	r0
     968:	0f b6       	in	r0, 0x3f	; 63
     96a:	0f 92       	push	r0
     96c:	11 24       	eor	r1, r1
     96e:	8f 93       	push	r24
     970:	9f 93       	push	r25
     972:	af 93       	push	r26
     974:	bf 93       	push	r27
     976:	ef 93       	push	r30
     978:	ff 93       	push	r31
     97a:	87 e0       	ldi	r24, 0x07	; 7
     97c:	80 93 46 04 	sts	0x0446, r24	; 0x800446 <__TEXT_REGION_LENGTH__+0x700446>
     980:	84 e4       	ldi	r24, 0x44	; 68
     982:	80 93 26 04 	sts	0x0426, r24	; 0x800426 <__TEXT_REGION_LENGTH__+0x700426>
     986:	ec b3       	in	r30, 0x1c	; 28
     988:	88 e0       	ldi	r24, 0x08	; 8
     98a:	e8 9f       	mul	r30, r24
     98c:	f0 01       	movw	r30, r0
     98e:	11 24       	eor	r1, r1
     990:	e8 52       	subi	r30, 0x28	; 40
     992:	f5 4c       	sbci	r31, 0xC5	; 197
     994:	a8 e2       	ldi	r26, 0x28	; 40
     996:	ba e0       	ldi	r27, 0x0A	; 10
     998:	96 e0       	ldi	r25, 0x06	; 6
     99a:	81 91       	ld	r24, Z+
     99c:	8d 93       	st	X+, r24
     99e:	9a 95       	dec	r25
     9a0:	e1 f7       	brne	.-8      	; 0x99a <__vector_8+0x36>
     9a2:	8b e0       	ldi	r24, 0x0B	; 11
     9a4:	80 93 05 0a 	sts	0x0A05, r24	; 0x800a05 <__TEXT_REGION_LENGTH__+0x700a05>
     9a8:	8c b3       	in	r24, 0x1c	; 28
     9aa:	83 30       	cpi	r24, 0x03	; 3
     9ac:	58 f4       	brcc	.+22     	; 0x9c4 <__vector_8+0x60>
     9ae:	8c b3       	in	r24, 0x1c	; 28
     9b0:	91 e0       	ldi	r25, 0x01	; 1
     9b2:	01 c0       	rjmp	.+2      	; 0x9b6 <__vector_8+0x52>
     9b4:	99 0f       	add	r25, r25
     9b6:	8a 95       	dec	r24
     9b8:	ea f7       	brpl	.-6      	; 0x9b4 <__vector_8+0x50>
     9ba:	99 b9       	out	0x09, r25	; 9
     9bc:	8c b3       	in	r24, 0x1c	; 28
     9be:	83 95       	inc	r24
     9c0:	8c bb       	out	0x1c, r24	; 28
     9c2:	0a c0       	rjmp	.+20     	; 0x9d8 <__vector_8+0x74>
     9c4:	8c b3       	in	r24, 0x1c	; 28
     9c6:	83 30       	cpi	r24, 0x03	; 3
     9c8:	21 f4       	brne	.+8      	; 0x9d2 <__vector_8+0x6e>
     9ca:	2a 9a       	sbi	0x05, 2	; 5
     9cc:	83 95       	inc	r24
     9ce:	8c bb       	out	0x1c, r24	; 28
     9d0:	03 c0       	rjmp	.+6      	; 0x9d8 <__vector_8+0x74>
     9d2:	2e 9a       	sbi	0x05, 6	; 5
     9d4:	88 27       	eor	r24, r24
     9d6:	8c bb       	out	0x1c, r24	; 28
     9d8:	8f ef       	ldi	r24, 0xFF	; 255
     9da:	80 93 0b 0a 	sts	0x0A0B, r24	; 0x800a0b <__TEXT_REGION_LENGTH__+0x700a0b>
     9de:	ff 91       	pop	r31
     9e0:	ef 91       	pop	r30
     9e2:	bf 91       	pop	r27
     9e4:	af 91       	pop	r26
     9e6:	9f 91       	pop	r25
     9e8:	8f 91       	pop	r24
     9ea:	0f 90       	pop	r0
     9ec:	0f be       	out	0x3f, r0	; 63
     9ee:	0f 90       	pop	r0
     9f0:	1f 90       	pop	r1
     9f2:	18 95       	reti

000009f4 <__vector_13>:
     9f4:	1f 92       	push	r1
     9f6:	0f 92       	push	r0
     9f8:	0f b6       	in	r0, 0x3f	; 63
     9fa:	0f 92       	push	r0
     9fc:	11 24       	eor	r1, r1
     9fe:	8f 93       	push	r24
     a00:	9f 93       	push	r25
     a02:	ef 93       	push	r30
     a04:	ff 93       	push	r31
     a06:	e0 91 cd 3a 	lds	r30, 0x3ACD	; 0x803acd <serTxAddr>
     a0a:	f0 91 ce 3a 	lds	r31, 0x3ACE	; 0x803ace <serTxAddr+0x1>
     a0e:	80 81       	ld	r24, Z
     a10:	88 23       	and	r24, r24
     a12:	91 f0       	breq	.+36     	; 0xa38 <__vector_13+0x44>
     a14:	80 81       	ld	r24, Z
     a16:	80 93 02 08 	sts	0x0802, r24	; 0x800802 <__TEXT_REGION_LENGTH__+0x700802>
     a1a:	80 91 cd 3a 	lds	r24, 0x3ACD	; 0x803acd <serTxAddr>
     a1e:	90 91 ce 3a 	lds	r25, 0x3ACE	; 0x803ace <serTxAddr+0x1>
     a22:	01 96       	adiw	r24, 0x01	; 1
     a24:	80 93 cd 3a 	sts	0x3ACD, r24	; 0x803acd <serTxAddr>
     a28:	90 93 ce 3a 	sts	0x3ACE, r25	; 0x803ace <serTxAddr+0x1>
     a2c:	80 91 05 08 	lds	r24, 0x0805	; 0x800805 <__TEXT_REGION_LENGTH__+0x700805>
     a30:	80 62       	ori	r24, 0x20	; 32
     a32:	80 93 05 08 	sts	0x0805, r24	; 0x800805 <__TEXT_REGION_LENGTH__+0x700805>
     a36:	05 c0       	rjmp	.+10     	; 0xa42 <__vector_13+0x4e>
     a38:	81 e0       	ldi	r24, 0x01	; 1
     a3a:	80 93 09 38 	sts	0x3809, r24	; 0x803809 <serTxDone>
     a3e:	10 92 45 0a 	sts	0x0A45, r1	; 0x800a45 <__TEXT_REGION_LENGTH__+0x700a45>
     a42:	81 e0       	ldi	r24, 0x01	; 1
     a44:	80 93 46 0a 	sts	0x0A46, r24	; 0x800a46 <__TEXT_REGION_LENGTH__+0x700a46>
     a48:	ff 91       	pop	r31
     a4a:	ef 91       	pop	r30
     a4c:	9f 91       	pop	r25
     a4e:	8f 91       	pop	r24
     a50:	0f 90       	pop	r0
     a52:	0f be       	out	0x3f, r0	; 63
     a54:	0f 90       	pop	r0
     a56:	1f 90       	pop	r1
     a58:	18 95       	reti

00000a5a <__vector_14>:
     a5a:	1f 92       	push	r1
     a5c:	0f 92       	push	r0
     a5e:	0f b6       	in	r0, 0x3f	; 63
     a60:	0f 92       	push	r0
     a62:	11 24       	eor	r1, r1
     a64:	2f 93       	push	r18
     a66:	3f 93       	push	r19
     a68:	4f 93       	push	r20
     a6a:	8f 93       	push	r24
     a6c:	9f 93       	push	r25
     a6e:	ef 93       	push	r30
     a70:	ff 93       	push	r31
     a72:	e0 91 05 38 	lds	r30, 0x3805	; 0x803805 <auSmpAddr>
     a76:	f0 91 06 38 	lds	r31, 0x3806	; 0x803806 <auSmpAddr+0x1>
     a7a:	80 81       	ld	r24, Z
     a7c:	81 11       	cpse	r24, r1
     a7e:	08 c0       	rjmp	.+16     	; 0xa90 <__vector_14+0x36>
     a80:	80 91 03 38 	lds	r24, 0x3803	; 0x803803 <auRepAddr>
     a84:	90 91 04 38 	lds	r25, 0x3804	; 0x803804 <auRepAddr+0x1>
     a88:	80 93 05 38 	sts	0x3805, r24	; 0x803805 <auSmpAddr>
     a8c:	90 93 06 38 	sts	0x3806, r25	; 0x803806 <auSmpAddr+0x1>
     a90:	e0 91 05 38 	lds	r30, 0x3805	; 0x803805 <auSmpAddr>
     a94:	f0 91 06 38 	lds	r31, 0x3806	; 0x803806 <auSmpAddr+0x1>
     a98:	80 81       	ld	r24, Z
     a9a:	88 23       	and	r24, r24
     a9c:	e1 f0       	breq	.+56     	; 0xad6 <__vector_14+0x7c>
     a9e:	20 81       	ld	r18, Z
     aa0:	40 91 ca 3a 	lds	r20, 0x3ACA	; 0x803aca <auVolume>
     aa4:	30 e0       	ldi	r19, 0x00	; 0
     aa6:	2f 57       	subi	r18, 0x7F	; 127
     aa8:	31 09       	sbc	r19, r1
     aaa:	42 9f       	mul	r20, r18
     aac:	c0 01       	movw	r24, r0
     aae:	43 9f       	mul	r20, r19
     ab0:	90 0d       	add	r25, r0
     ab2:	11 24       	eor	r1, r1
     ab4:	89 2f       	mov	r24, r25
     ab6:	99 0f       	add	r25, r25
     ab8:	99 0b       	sbc	r25, r25
     aba:	80 58       	subi	r24, 0x80	; 128
     abc:	9f 4f       	sbci	r25, 0xFF	; 255
     abe:	80 93 a1 06 	sts	0x06A1, r24	; 0x8006a1 <__TEXT_REGION_LENGTH__+0x7006a1>
     ac2:	80 91 05 38 	lds	r24, 0x3805	; 0x803805 <auSmpAddr>
     ac6:	90 91 06 38 	lds	r25, 0x3806	; 0x803806 <auSmpAddr+0x1>
     aca:	01 96       	adiw	r24, 0x01	; 1
     acc:	80 93 05 38 	sts	0x3805, r24	; 0x803805 <auSmpAddr>
     ad0:	90 93 06 38 	sts	0x3806, r25	; 0x803806 <auSmpAddr+0x1>
     ad4:	06 c0       	rjmp	.+12     	; 0xae2 <__vector_14+0x88>
     ad6:	8f ef       	ldi	r24, 0xFF	; 255
     ad8:	80 93 ca 3a 	sts	0x3ACA, r24	; 0x803aca <auVolume>
     adc:	80 e8       	ldi	r24, 0x80	; 128
     ade:	80 93 a1 06 	sts	0x06A1, r24	; 0x8006a1 <__TEXT_REGION_LENGTH__+0x7006a1>
     ae2:	81 e0       	ldi	r24, 0x01	; 1
     ae4:	80 93 56 0a 	sts	0x0A56, r24	; 0x800a56 <__TEXT_REGION_LENGTH__+0x700a56>
     ae8:	ff 91       	pop	r31
     aea:	ef 91       	pop	r30
     aec:	9f 91       	pop	r25
     aee:	8f 91       	pop	r24
     af0:	4f 91       	pop	r20
     af2:	3f 91       	pop	r19
     af4:	2f 91       	pop	r18
     af6:	0f 90       	pop	r0
     af8:	0f be       	out	0x3f, r0	; 63
     afa:	0f 90       	pop	r0
     afc:	1f 90       	pop	r1
     afe:	18 95       	reti

00000b00 <__vector_25>:
     b00:	1f 92       	push	r1
     b02:	0f 92       	push	r0
     b04:	0f b6       	in	r0, 0x3f	; 63
     b06:	0f 92       	push	r0
     b08:	11 24       	eor	r1, r1
     b0a:	8f 93       	push	r24
     b0c:	9f 93       	push	r25
     b0e:	ef 93       	push	r30
     b10:	ff 93       	push	r31
     b12:	80 91 d3 3a 	lds	r24, 0x3AD3	; 0x803ad3 <bytesLeftI2C>
     b16:	88 23       	and	r24, r24
     b18:	29 f0       	breq	.+10     	; 0xb24 <__vector_25+0x24>
     b1a:	80 91 d3 3a 	lds	r24, 0x3AD3	; 0x803ad3 <bytesLeftI2C>
     b1e:	81 50       	subi	r24, 0x01	; 1
     b20:	80 93 d3 3a 	sts	0x3AD3, r24	; 0x803ad3 <bytesLeftI2C>
     b24:	80 91 15 08 	lds	r24, 0x0815	; 0x800815 <__TEXT_REGION_LENGTH__+0x700815>
     b28:	87 ff       	sbrs	r24, 7
     b2a:	18 c0       	rjmp	.+48     	; 0xb5c <__vector_25+0x5c>
     b2c:	80 91 d3 3a 	lds	r24, 0x3AD3	; 0x803ad3 <bytesLeftI2C>
     b30:	88 23       	and	r24, r24
     b32:	81 f0       	breq	.+32     	; 0xb54 <__vector_25+0x54>
     b34:	e0 91 c8 3a 	lds	r30, 0x3AC8	; 0x803ac8 <addrDataI2C>
     b38:	f0 91 c9 3a 	lds	r31, 0x3AC9	; 0x803ac9 <addrDataI2C+0x1>
     b3c:	cf 01       	movw	r24, r30
     b3e:	01 96       	adiw	r24, 0x01	; 1
     b40:	80 93 c8 3a 	sts	0x3AC8, r24	; 0x803ac8 <addrDataI2C>
     b44:	90 93 c9 3a 	sts	0x3AC9, r25	; 0x803ac9 <addrDataI2C+0x1>
     b48:	80 91 18 08 	lds	r24, 0x0818	; 0x800818 <__TEXT_REGION_LENGTH__+0x700818>
     b4c:	80 83       	st	Z, r24
     b4e:	10 92 14 08 	sts	0x0814, r1	; 0x800814 <__TEXT_REGION_LENGTH__+0x700814>
     b52:	26 c0       	rjmp	.+76     	; 0xba0 <__vector_25+0xa0>
     b54:	84 e0       	ldi	r24, 0x04	; 4
     b56:	80 93 14 08 	sts	0x0814, r24	; 0x800814 <__TEXT_REGION_LENGTH__+0x700814>
     b5a:	22 c0       	rjmp	.+68     	; 0xba0 <__vector_25+0xa0>
     b5c:	80 91 15 08 	lds	r24, 0x0815	; 0x800815 <__TEXT_REGION_LENGTH__+0x700815>
     b60:	8c 70       	andi	r24, 0x0C	; 12
     b62:	19 f0       	breq	.+6      	; 0xb6a <__vector_25+0x6a>
     b64:	10 92 d3 3a 	sts	0x3AD3, r1	; 0x803ad3 <bytesLeftI2C>
     b68:	1b c0       	rjmp	.+54     	; 0xba0 <__vector_25+0xa0>
     b6a:	80 91 d3 3a 	lds	r24, 0x3AD3	; 0x803ad3 <bytesLeftI2C>
     b6e:	82 30       	cpi	r24, 0x02	; 2
     b70:	31 f4       	brne	.+12     	; 0xb7e <__vector_25+0x7e>
     b72:	e0 91 c8 3a 	lds	r30, 0x3AC8	; 0x803ac8 <addrDataI2C>
     b76:	f0 91 c9 3a 	lds	r31, 0x3AC9	; 0x803ac9 <addrDataI2C+0x1>
     b7a:	80 81       	ld	r24, Z
     b7c:	09 c0       	rjmp	.+18     	; 0xb90 <__vector_25+0x90>
     b7e:	80 91 d3 3a 	lds	r24, 0x3AD3	; 0x803ad3 <bytesLeftI2C>
     b82:	81 30       	cpi	r24, 0x01	; 1
     b84:	41 f4       	brne	.+16     	; 0xb96 <__vector_25+0x96>
     b86:	e0 91 c8 3a 	lds	r30, 0x3AC8	; 0x803ac8 <addrDataI2C>
     b8a:	f0 91 c9 3a 	lds	r31, 0x3AC9	; 0x803ac9 <addrDataI2C+0x1>
     b8e:	81 81       	ldd	r24, Z+1	; 0x01
     b90:	80 93 18 08 	sts	0x0818, r24	; 0x800818 <__TEXT_REGION_LENGTH__+0x700818>
     b94:	05 c0       	rjmp	.+10     	; 0xba0 <__vector_25+0xa0>
     b96:	80 91 17 08 	lds	r24, 0x0817	; 0x800817 <__TEXT_REGION_LENGTH__+0x700817>
     b9a:	81 60       	ori	r24, 0x01	; 1
     b9c:	80 93 17 08 	sts	0x0817, r24	; 0x800817 <__TEXT_REGION_LENGTH__+0x700817>
     ba0:	80 91 15 08 	lds	r24, 0x0815	; 0x800815 <__TEXT_REGION_LENGTH__+0x700815>
     ba4:	87 ff       	sbrs	r24, 7
     ba6:	07 c0       	rjmp	.+14     	; 0xbb6 <__vector_25+0xb6>
     ba8:	80 91 d3 3a 	lds	r24, 0x3AD3	; 0x803ad3 <bytesLeftI2C>
     bac:	81 11       	cpse	r24, r1
     bae:	03 c0       	rjmp	.+6      	; 0xbb6 <__vector_25+0xb6>
     bb0:	87 e0       	ldi	r24, 0x07	; 7
     bb2:	80 93 14 08 	sts	0x0814, r24	; 0x800814 <__TEXT_REGION_LENGTH__+0x700814>
     bb6:	ff 91       	pop	r31
     bb8:	ef 91       	pop	r30
     bba:	9f 91       	pop	r25
     bbc:	8f 91       	pop	r24
     bbe:	0f 90       	pop	r0
     bc0:	0f be       	out	0x3f, r0	; 63
     bc2:	0f 90       	pop	r0
     bc4:	1f 90       	pop	r1
     bc6:	18 95       	reti

00000bc8 <__vector_27>:
     bc8:	1f 92       	push	r1
     bca:	0f 92       	push	r0
     bcc:	0f b6       	in	r0, 0x3f	; 63
     bce:	0f 92       	push	r0
     bd0:	11 24       	eor	r1, r1
     bd2:	8f 93       	push	r24
     bd4:	ef 93       	push	r30
     bd6:	ff 93       	push	r31
     bd8:	80 91 55 38 	lds	r24, 0x3855	; 0x803855 <serRxDone>
     bdc:	81 11       	cpse	r24, r1
     bde:	44 c0       	rjmp	.+136    	; 0xc68 <__vector_27+0xa0>
     be0:	ed b3       	in	r30, 0x1d	; 29
     be2:	f0 e0       	ldi	r31, 0x00	; 0
     be4:	80 91 00 08 	lds	r24, 0x0800	; 0x800800 <__TEXT_REGION_LENGTH__+0x700800>
     be8:	e9 57       	subi	r30, 0x79	; 121
     bea:	f5 4c       	sbci	r31, 0xC5	; 197
     bec:	80 83       	st	Z, r24
     bee:	ed b3       	in	r30, 0x1d	; 29
     bf0:	f0 e0       	ldi	r31, 0x00	; 0
     bf2:	e9 57       	subi	r30, 0x79	; 121
     bf4:	f5 4c       	sbci	r31, 0xC5	; 197
     bf6:	80 81       	ld	r24, Z
     bf8:	80 93 02 08 	sts	0x0802, r24	; 0x800802 <__TEXT_REGION_LENGTH__+0x700802>
     bfc:	ed b3       	in	r30, 0x1d	; 29
     bfe:	f0 e0       	ldi	r31, 0x00	; 0
     c00:	e9 57       	subi	r30, 0x79	; 121
     c02:	f5 4c       	sbci	r31, 0xC5	; 197
     c04:	80 81       	ld	r24, Z
     c06:	8a 30       	cpi	r24, 0x0A	; 10
     c08:	39 f0       	breq	.+14     	; 0xc18 <__vector_27+0x50>
     c0a:	ed b3       	in	r30, 0x1d	; 29
     c0c:	f0 e0       	ldi	r31, 0x00	; 0
     c0e:	e9 57       	subi	r30, 0x79	; 121
     c10:	f5 4c       	sbci	r31, 0xC5	; 197
     c12:	80 81       	ld	r24, Z
     c14:	8d 30       	cpi	r24, 0x0D	; 13
     c16:	49 f4       	brne	.+18     	; 0xc2a <__vector_27+0x62>
     c18:	ed b3       	in	r30, 0x1d	; 29
     c1a:	f0 e0       	ldi	r31, 0x00	; 0
     c1c:	e9 57       	subi	r30, 0x79	; 121
     c1e:	f5 4c       	sbci	r31, 0xC5	; 197
     c20:	10 82       	st	Z, r1
     c22:	81 e0       	ldi	r24, 0x01	; 1
     c24:	80 93 55 38 	sts	0x3855, r24	; 0x803855 <serRxDone>
     c28:	1f c0       	rjmp	.+62     	; 0xc68 <__vector_27+0xa0>
     c2a:	ed b3       	in	r30, 0x1d	; 29
     c2c:	f0 e0       	ldi	r31, 0x00	; 0
     c2e:	e9 57       	subi	r30, 0x79	; 121
     c30:	f5 4c       	sbci	r31, 0xC5	; 197
     c32:	80 81       	ld	r24, Z
     c34:	88 30       	cpi	r24, 0x08	; 8
     c36:	39 f0       	breq	.+14     	; 0xc46 <__vector_27+0x7e>
     c38:	ed b3       	in	r30, 0x1d	; 29
     c3a:	f0 e0       	ldi	r31, 0x00	; 0
     c3c:	e9 57       	subi	r30, 0x79	; 121
     c3e:	f5 4c       	sbci	r31, 0xC5	; 197
     c40:	80 81       	ld	r24, Z
     c42:	8f 37       	cpi	r24, 0x7F	; 127
     c44:	59 f4       	brne	.+22     	; 0xc5c <__vector_27+0x94>
     c46:	8d b3       	in	r24, 0x1d	; 29
     c48:	88 23       	and	r24, r24
     c4a:	41 f0       	breq	.+16     	; 0xc5c <__vector_27+0x94>
     c4c:	ed b3       	in	r30, 0x1d	; 29
     c4e:	f0 e0       	ldi	r31, 0x00	; 0
     c50:	e9 57       	subi	r30, 0x79	; 121
     c52:	f5 4c       	sbci	r31, 0xC5	; 197
     c54:	10 82       	st	Z, r1
     c56:	8d b3       	in	r24, 0x1d	; 29
     c58:	81 50       	subi	r24, 0x01	; 1
     c5a:	05 c0       	rjmp	.+10     	; 0xc66 <__vector_27+0x9e>
     c5c:	8d b3       	in	r24, 0x1d	; 29
     c5e:	80 34       	cpi	r24, 0x40	; 64
     c60:	18 f4       	brcc	.+6      	; 0xc68 <__vector_27+0xa0>
     c62:	8d b3       	in	r24, 0x1d	; 29
     c64:	8f 5f       	subi	r24, 0xFF	; 255
     c66:	8d bb       	out	0x1d, r24	; 29
     c68:	80 e8       	ldi	r24, 0x80	; 128
     c6a:	80 93 04 08 	sts	0x0804, r24	; 0x800804 <__TEXT_REGION_LENGTH__+0x700804>
     c6e:	ff 91       	pop	r31
     c70:	ef 91       	pop	r30
     c72:	8f 91       	pop	r24
     c74:	0f 90       	pop	r0
     c76:	0f be       	out	0x3f, r0	; 63
     c78:	0f 90       	pop	r0
     c7a:	1f 90       	pop	r1
     c7c:	18 95       	reti

00000c7e <__vector_28>:
     c7e:	1f 92       	push	r1
     c80:	0f 92       	push	r0
     c82:	0f b6       	in	r0, 0x3f	; 63
     c84:	0f 92       	push	r0
     c86:	11 24       	eor	r1, r1
     c88:	8f 93       	push	r24
     c8a:	ef 93       	push	r30
     c8c:	ff 93       	push	r31
     c8e:	10 92 4a 0a 	sts	0x0A4A, r1	; 0x800a4a <__TEXT_REGION_LENGTH__+0x700a4a>
     c92:	10 92 4b 0a 	sts	0x0A4B, r1	; 0x800a4b <__TEXT_REGION_LENGTH__+0x700a4b>
     c96:	81 e0       	ldi	r24, 0x01	; 1
     c98:	80 93 45 0a 	sts	0x0A45, r24	; 0x800a45 <__TEXT_REGION_LENGTH__+0x700a45>
     c9c:	e5 e0       	ldi	r30, 0x05	; 5
     c9e:	f8 e0       	ldi	r31, 0x08	; 8
     ca0:	80 81       	ld	r24, Z
     ca2:	8f 7d       	andi	r24, 0xDF	; 223
     ca4:	80 83       	st	Z, r24
     ca6:	ff 91       	pop	r31
     ca8:	ef 91       	pop	r30
     caa:	8f 91       	pop	r24
     cac:	0f 90       	pop	r0
     cae:	0f be       	out	0x3f, r0	; 63
     cb0:	0f 90       	pop	r0
     cb2:	1f 90       	pop	r1
     cb4:	18 95       	reti

00000cb6 <__vector_20>:
     cb6:	1f 92       	push	r1
     cb8:	0f 92       	push	r0
     cba:	0f b6       	in	r0, 0x3f	; 63
     cbc:	0f 92       	push	r0
     cbe:	11 24       	eor	r1, r1
     cc0:	8f 93       	push	r24
     cc2:	9f 93       	push	r25
     cc4:	80 91 48 38 	lds	r24, 0x3848	; 0x803848 <adc0Chg>
     cc8:	81 11       	cpse	r24, r1
     cca:	12 c0       	rjmp	.+36     	; 0xcf0 <__vector_20+0x3a>
     ccc:	80 91 06 06 	lds	r24, 0x0606	; 0x800606 <__TEXT_REGION_LENGTH__+0x700606>
     cd0:	8e 31       	cpi	r24, 0x1E	; 30
     cd2:	49 f4       	brne	.+18     	; 0xce6 <__vector_20+0x30>
     cd4:	80 91 10 06 	lds	r24, 0x0610	; 0x800610 <__TEXT_REGION_LENGTH__+0x700610>
     cd8:	90 91 11 06 	lds	r25, 0x0611	; 0x800611 <__TEXT_REGION_LENGTH__+0x700611>
     cdc:	80 93 02 3b 	sts	0x3B02, r24	; 0x803b02 <adcTemp>
     ce0:	90 93 03 3b 	sts	0x3B03, r25	; 0x803b03 <adcTemp+0x1>
     ce4:	0a c0       	rjmp	.+20     	; 0xcfa <__vector_20+0x44>
     ce6:	80 91 10 06 	lds	r24, 0x0610	; 0x800610 <__TEXT_REGION_LENGTH__+0x700610>
     cea:	80 93 d7 3a 	sts	0x3AD7, r24	; 0x803ad7 <auIn>
     cee:	05 c0       	rjmp	.+10     	; 0xcfa <__vector_20+0x44>
     cf0:	80 91 48 38 	lds	r24, 0x3848	; 0x803848 <adc0Chg>
     cf4:	81 50       	subi	r24, 0x01	; 1
     cf6:	80 93 48 38 	sts	0x3848, r24	; 0x803848 <adc0Chg>
     cfa:	81 e0       	ldi	r24, 0x01	; 1
     cfc:	80 93 0b 06 	sts	0x060B, r24	; 0x80060b <__TEXT_REGION_LENGTH__+0x70060b>
     d00:	9f 91       	pop	r25
     d02:	8f 91       	pop	r24
     d04:	0f 90       	pop	r0
     d06:	0f be       	out	0x3f, r0	; 63
     d08:	0f 90       	pop	r0
     d0a:	1f 90       	pop	r1
     d0c:	18 95       	reti

00000d0e <__vector_22>:
     d0e:	1f 92       	push	r1
     d10:	0f 92       	push	r0
     d12:	0f b6       	in	r0, 0x3f	; 63
     d14:	0f 92       	push	r0
     d16:	11 24       	eor	r1, r1
     d18:	8f 93       	push	r24
     d1a:	9f 93       	push	r25
     d1c:	80 91 46 06 	lds	r24, 0x0646	; 0x800646 <__TEXT_REGION_LENGTH__+0x700646>
     d20:	81 11       	cpse	r24, r1
     d22:	0a c0       	rjmp	.+20     	; 0xd38 <__vector_22+0x2a>
     d24:	80 91 50 06 	lds	r24, 0x0650	; 0x800650 <__TEXT_REGION_LENGTH__+0x700650>
     d28:	90 91 51 06 	lds	r25, 0x0651	; 0x800651 <__TEXT_REGION_LENGTH__+0x700651>
     d2c:	80 93 d1 3a 	sts	0x3AD1, r24	; 0x803ad1 <adcPhot>
     d30:	90 93 d2 3a 	sts	0x3AD2, r25	; 0x803ad2 <adcPhot+0x1>
     d34:	81 e0       	ldi	r24, 0x01	; 1
     d36:	10 c0       	rjmp	.+32     	; 0xd58 <__vector_22+0x4a>
     d38:	80 91 46 06 	lds	r24, 0x0646	; 0x800646 <__TEXT_REGION_LENGTH__+0x700646>
     d3c:	81 30       	cpi	r24, 0x01	; 1
     d3e:	79 f4       	brne	.+30     	; 0xd5e <__vector_22+0x50>
     d40:	88 e0       	ldi	r24, 0x08	; 8
     d42:	80 93 06 04 	sts	0x0406, r24	; 0x800406 <__TEXT_REGION_LENGTH__+0x700406>
     d46:	80 91 50 06 	lds	r24, 0x0650	; 0x800650 <__TEXT_REGION_LENGTH__+0x700650>
     d4a:	90 91 51 06 	lds	r25, 0x0651	; 0x800651 <__TEXT_REGION_LENGTH__+0x700651>
     d4e:	80 93 cf 3a 	sts	0x3ACF, r24	; 0x803acf <adcHall>
     d52:	90 93 d0 3a 	sts	0x3AD0, r25	; 0x803ad0 <adcHall+0x1>
     d56:	84 e0       	ldi	r24, 0x04	; 4
     d58:	80 93 46 06 	sts	0x0646, r24	; 0x800646 <__TEXT_REGION_LENGTH__+0x700646>
     d5c:	10 c0       	rjmp	.+32     	; 0xd7e <__vector_22+0x70>
     d5e:	80 91 50 06 	lds	r24, 0x0650	; 0x800650 <__TEXT_REGION_LENGTH__+0x700650>
     d62:	90 91 51 06 	lds	r25, 0x0651	; 0x800651 <__TEXT_REGION_LENGTH__+0x700651>
     d66:	80 93 cb 3a 	sts	0x3ACB, r24	; 0x803acb <adcBtns>
     d6a:	90 93 cc 3a 	sts	0x3ACC, r25	; 0x803acc <adcBtns+0x1>
     d6e:	8f b3       	in	r24, 0x1f	; 31
     d70:	8f 30       	cpi	r24, 0x0F	; 15
     d72:	29 f4       	brne	.+10     	; 0xd7e <__vector_22+0x70>
     d74:	10 92 46 06 	sts	0x0646, r1	; 0x800646 <__TEXT_REGION_LENGTH__+0x700646>
     d78:	88 e0       	ldi	r24, 0x08	; 8
     d7a:	80 93 05 04 	sts	0x0405, r24	; 0x800405 <__TEXT_REGION_LENGTH__+0x700405>
     d7e:	8f b3       	in	r24, 0x1f	; 31
     d80:	90 e0       	ldi	r25, 0x00	; 0
     d82:	01 96       	adiw	r24, 0x01	; 1
     d84:	8f 70       	andi	r24, 0x0F	; 15
     d86:	99 27       	eor	r25, r25
     d88:	8f bb       	out	0x1f, r24	; 31
     d8a:	81 e0       	ldi	r24, 0x01	; 1
     d8c:	80 93 4b 06 	sts	0x064B, r24	; 0x80064b <__TEXT_REGION_LENGTH__+0x70064b>
     d90:	9f 91       	pop	r25
     d92:	8f 91       	pop	r24
     d94:	0f 90       	pop	r0
     d96:	0f be       	out	0x3f, r0	; 63
     d98:	0f 90       	pop	r0
     d9a:	1f 90       	pop	r1
     d9c:	18 95       	reti

00000d9e <__vector_6>:
     d9e:	1f 92       	push	r1
     da0:	0f 92       	push	r0
     da2:	0f b6       	in	r0, 0x3f	; 63
     da4:	0f 92       	push	r0
     da6:	11 24       	eor	r1, r1
     da8:	2f 93       	push	r18
     daa:	3f 93       	push	r19
     dac:	8f 93       	push	r24
     dae:	9f 93       	push	r25
     db0:	80 91 43 01 	lds	r24, 0x0143	; 0x800143 <__TEXT_REGION_LENGTH__+0x700143>
     db4:	81 ff       	sbrs	r24, 1
     db6:	36 c0       	rjmp	.+108    	; 0xe24 <__vector_6+0x86>
     db8:	80 91 52 38 	lds	r24, 0x3852	; 0x803852 <buttonMark>
     dbc:	8f 3f       	cpi	r24, 0xFF	; 255
     dbe:	29 f0       	breq	.+10     	; 0xdca <__vector_6+0x2c>
     dc0:	80 91 52 38 	lds	r24, 0x3852	; 0x803852 <buttonMark>
     dc4:	8f 5f       	subi	r24, 0xFF	; 255
     dc6:	80 93 52 38 	sts	0x3852, r24	; 0x803852 <buttonMark>
     dca:	80 91 48 01 	lds	r24, 0x0148	; 0x800148 <__TEXT_REGION_LENGTH__+0x700148>
     dce:	90 91 49 01 	lds	r25, 0x0149	; 0x800149 <__TEXT_REGION_LENGTH__+0x700149>
     dd2:	82 96       	adiw	r24, 0x22	; 34
     dd4:	80 93 04 3b 	sts	0x3B04, r24	; 0x803b04 <tmp16bit>
     dd8:	90 93 05 3b 	sts	0x3B05, r25	; 0x803b05 <tmp16bit+0x1>
     ddc:	20 91 4a 01 	lds	r18, 0x014A	; 0x80014a <__TEXT_REGION_LENGTH__+0x70014a>
     de0:	30 91 4b 01 	lds	r19, 0x014B	; 0x80014b <__TEXT_REGION_LENGTH__+0x70014b>
     de4:	80 91 04 3b 	lds	r24, 0x3B04	; 0x803b04 <tmp16bit>
     de8:	90 91 05 3b 	lds	r25, 0x3B05	; 0x803b05 <tmp16bit+0x1>
     dec:	28 17       	cp	r18, r24
     dee:	39 07       	cpc	r19, r25
     df0:	58 f4       	brcc	.+22     	; 0xe08 <__vector_6+0x6a>
     df2:	20 91 4a 01 	lds	r18, 0x014A	; 0x80014a <__TEXT_REGION_LENGTH__+0x70014a>
     df6:	30 91 4b 01 	lds	r19, 0x014B	; 0x80014b <__TEXT_REGION_LENGTH__+0x70014b>
     dfa:	80 91 04 3b 	lds	r24, 0x3B04	; 0x803b04 <tmp16bit>
     dfe:	90 91 05 3b 	lds	r25, 0x3B05	; 0x803b05 <tmp16bit+0x1>
     e02:	82 1b       	sub	r24, r18
     e04:	93 0b       	sbc	r25, r19
     e06:	e6 cf       	rjmp	.-52     	; 0xdd4 <__vector_6+0x36>
     e08:	80 91 41 01 	lds	r24, 0x0141	; 0x800141 <__TEXT_REGION_LENGTH__+0x700141>
     e0c:	83 fd       	sbrc	r24, 3
     e0e:	fc cf       	rjmp	.-8      	; 0xe08 <__vector_6+0x6a>
     e10:	80 91 04 3b 	lds	r24, 0x3B04	; 0x803b04 <tmp16bit>
     e14:	90 91 05 3b 	lds	r25, 0x3B05	; 0x803b05 <tmp16bit+0x1>
     e18:	80 93 4c 01 	sts	0x014C, r24	; 0x80014c <__TEXT_REGION_LENGTH__+0x70014c>
     e1c:	90 93 4d 01 	sts	0x014D, r25	; 0x80014d <__TEXT_REGION_LENGTH__+0x70014d>
     e20:	82 e0       	ldi	r24, 0x02	; 2
     e22:	06 c0       	rjmp	.+12     	; 0xe30 <__vector_6+0x92>
     e24:	80 91 53 38 	lds	r24, 0x3853	; 0x803853 <minuteMark>
     e28:	8f 5f       	subi	r24, 0xFF	; 255
     e2a:	80 93 53 38 	sts	0x3853, r24	; 0x803853 <minuteMark>
     e2e:	81 e0       	ldi	r24, 0x01	; 1
     e30:	80 93 43 01 	sts	0x0143, r24	; 0x800143 <__TEXT_REGION_LENGTH__+0x700143>
     e34:	9f 91       	pop	r25
     e36:	8f 91       	pop	r24
     e38:	3f 91       	pop	r19
     e3a:	2f 91       	pop	r18
     e3c:	0f 90       	pop	r0
     e3e:	0f be       	out	0x3f, r0	; 63
     e40:	0f 90       	pop	r0
     e42:	1f 90       	pop	r1
     e44:	18 95       	reti

00000e46 <__vector_7>:
     e46:	1f 92       	push	r1
     e48:	0f 92       	push	r0
     e4a:	0f b6       	in	r0, 0x3f	; 63
     e4c:	0f 92       	push	r0
     e4e:	11 24       	eor	r1, r1
     e50:	8f 93       	push	r24
     e52:	9f 93       	push	r25
     e54:	91 e0       	ldi	r25, 0x01	; 1
     e56:	90 93 48 06 	sts	0x0648, r25	; 0x800648 <__TEXT_REGION_LENGTH__+0x700648>
     e5a:	80 91 54 38 	lds	r24, 0x3854	; 0x803854 <fastTicker>
     e5e:	8f 5f       	subi	r24, 0xFF	; 255
     e60:	80 93 54 38 	sts	0x3854, r24	; 0x803854 <fastTicker>
     e64:	90 93 53 01 	sts	0x0153, r25	; 0x800153 <__TEXT_REGION_LENGTH__+0x700153>
     e68:	9f 91       	pop	r25
     e6a:	8f 91       	pop	r24
     e6c:	0f 90       	pop	r0
     e6e:	0f be       	out	0x3f, r0	; 63
     e70:	0f 90       	pop	r0
     e72:	1f 90       	pop	r1
     e74:	18 95       	reti

00000e76 <I2C_read_bytes>:
     e76:	0f 93       	push	r16
     e78:	80 91 15 08 	lds	r24, 0x0815	; 0x800815 <__TEXT_REGION_LENGTH__+0x700815>
     e7c:	83 70       	andi	r24, 0x03	; 3
     e7e:	11 f4       	brne	.+4      	; 0xe84 <I2C_read_bytes+0xe>
     e80:	81 e0       	ldi	r24, 0x01	; 1
     e82:	1d c0       	rjmp	.+58     	; 0xebe <I2C_read_bytes+0x48>
     e84:	60 93 c8 3a 	sts	0x3AC8, r22	; 0x803ac8 <addrDataI2C>
     e88:	70 93 c9 3a 	sts	0x3AC9, r23	; 0x803ac9 <addrDataI2C+0x1>
     e8c:	67 2b       	or	r22, r23
     e8e:	c1 f3       	breq	.-16     	; 0xe80 <I2C_read_bytes+0xa>
     e90:	80 ea       	ldi	r24, 0xA0	; 160
     e92:	80 93 17 08 	sts	0x0817, r24	; 0x800817 <__TEXT_REGION_LENGTH__+0x700817>
     e96:	4f 5f       	subi	r20, 0xFF	; 255
     e98:	40 93 d3 3a 	sts	0x3AD3, r20	; 0x803ad3 <bytesLeftI2C>
     e9c:	80 91 d3 3a 	lds	r24, 0x3AD3	; 0x803ad3 <bytesLeftI2C>
     ea0:	81 11       	cpse	r24, r1
     ea2:	fc cf       	rjmp	.-8      	; 0xe9c <I2C_read_bytes+0x26>
     ea4:	20 93 c8 3a 	sts	0x3AC8, r18	; 0x803ac8 <addrDataI2C>
     ea8:	30 93 c9 3a 	sts	0x3AC9, r19	; 0x803ac9 <addrDataI2C+0x1>
     eac:	23 2b       	or	r18, r19
     eae:	41 f3       	breq	.-48     	; 0xe80 <I2C_read_bytes+0xa>
     eb0:	0f 5f       	subi	r16, 0xFF	; 255
     eb2:	00 93 d3 3a 	sts	0x3AD3, r16	; 0x803ad3 <bytesLeftI2C>
     eb6:	80 91 d3 3a 	lds	r24, 0x3AD3	; 0x803ad3 <bytesLeftI2C>
     eba:	81 11       	cpse	r24, r1
     ebc:	fc cf       	rjmp	.-8      	; 0xeb6 <I2C_read_bytes+0x40>
     ebe:	0f 91       	pop	r16
     ec0:	08 95       	ret

00000ec2 <EERead>:
     ec2:	90 91 02 10 	lds	r25, 0x1002	; 0x801002 <__TEXT_REGION_LENGTH__+0x701002>
     ec6:	91 fd       	sbrc	r25, 1
     ec8:	fc cf       	rjmp	.-8      	; 0xec2 <EERead>
     eca:	fb 01       	movw	r30, r22
     ecc:	48 0f       	add	r20, r24
     ece:	84 17       	cp	r24, r20
     ed0:	39 f0       	breq	.+14     	; 0xee0 <EERead+0x1e>
     ed2:	a8 2f       	mov	r26, r24
     ed4:	b0 e0       	ldi	r27, 0x00	; 0
     ed6:	bc 5e       	subi	r27, 0xEC	; 236
     ed8:	9c 91       	ld	r25, X
     eda:	91 93       	st	Z+, r25
     edc:	8f 5f       	subi	r24, 0xFF	; 255
     ede:	f7 cf       	rjmp	.-18     	; 0xece <EERead+0xc>
     ee0:	08 95       	ret

00000ee2 <EEWrite>:
     ee2:	9d e9       	ldi	r25, 0x9D	; 157
     ee4:	24 e0       	ldi	r18, 0x04	; 4
     ee6:	33 e0       	ldi	r19, 0x03	; 3
     ee8:	44 23       	and	r20, r20
     eea:	09 f1       	breq	.+66     	; 0xf2e <EEWrite+0x4c>
     eec:	50 91 02 10 	lds	r21, 0x1002	; 0x801002 <__TEXT_REGION_LENGTH__+0x701002>
     ef0:	51 fd       	sbrc	r21, 1
     ef2:	fc cf       	rjmp	.-8      	; 0xeec <EEWrite+0xa>
     ef4:	94 bf       	out	0x34, r25	; 52
     ef6:	20 93 00 10 	sts	0x1000, r18	; 0x801000 <__TEXT_REGION_LENGTH__+0x701000>
     efa:	e8 2f       	mov	r30, r24
     efc:	58 2f       	mov	r21, r24
     efe:	5f 71       	andi	r21, 0x1F	; 31
     f00:	8f 5f       	subi	r24, 0xFF	; 255
     f02:	6f 5f       	subi	r22, 0xFF	; 255
     f04:	7f 4f       	sbci	r23, 0xFF	; 255
     f06:	db 01       	movw	r26, r22
     f08:	11 97       	sbiw	r26, 0x01	; 1
     f0a:	ac 91       	ld	r26, X
     f0c:	f0 e0       	ldi	r31, 0x00	; 0
     f0e:	fc 5e       	subi	r31, 0xEC	; 236
     f10:	a0 83       	st	Z, r26
     f12:	41 50       	subi	r20, 0x01	; 1
     f14:	19 f0       	breq	.+6      	; 0xf1c <EEWrite+0x3a>
     f16:	e8 2f       	mov	r30, r24
     f18:	5f 31       	cpi	r21, 0x1F	; 31
     f1a:	81 f7       	brne	.-32     	; 0xefc <EEWrite+0x1a>
     f1c:	94 bf       	out	0x34, r25	; 52
     f1e:	30 93 00 10 	sts	0x1000, r19	; 0x801000 <__TEXT_REGION_LENGTH__+0x701000>
     f22:	50 91 02 10 	lds	r21, 0x1002	; 0x801002 <__TEXT_REGION_LENGTH__+0x701002>
     f26:	52 ff       	sbrs	r21, 2
     f28:	df cf       	rjmp	.-66     	; 0xee8 <EEWrite+0x6>
     f2a:	81 e0       	ldi	r24, 0x01	; 1
     f2c:	08 95       	ret
     f2e:	80 e0       	ldi	r24, 0x00	; 0
     f30:	08 95       	ret

00000f32 <DecryptData>:
     f32:	f9 01       	movw	r30, r18
     f34:	9c 01       	movw	r18, r24
     f36:	2e 1b       	sub	r18, r30
     f38:	3f 0b       	sbc	r19, r31
     f3a:	88 e0       	ldi	r24, 0x08	; 8
     f3c:	48 9f       	mul	r20, r24
     f3e:	a0 01       	movw	r20, r0
     f40:	11 24       	eor	r1, r1
     f42:	42 5a       	subi	r20, 0xA2	; 162
     f44:	50 44       	sbci	r21, 0x40	; 64
     f46:	66 23       	and	r22, r22
     f48:	69 f0       	breq	.+26     	; 0xf64 <DecryptData+0x32>
     f4a:	df 01       	movw	r26, r30
     f4c:	a2 0f       	add	r26, r18
     f4e:	b3 1f       	adc	r27, r19
     f50:	a7 70       	andi	r26, 0x07	; 7
     f52:	bb 27       	eor	r27, r27
     f54:	a4 0f       	add	r26, r20
     f56:	b5 1f       	adc	r27, r21
     f58:	80 81       	ld	r24, Z
     f5a:	9c 91       	ld	r25, X
     f5c:	98 27       	eor	r25, r24
     f5e:	91 93       	st	Z+, r25
     f60:	61 50       	subi	r22, 0x01	; 1
     f62:	f1 cf       	rjmp	.-30     	; 0xf46 <DecryptData+0x14>
     f64:	08 95       	ret

00000f66 <ExtEERead>:
     f66:	a2 e0       	ldi	r26, 0x02	; 2
     f68:	b0 e0       	ldi	r27, 0x00	; 0
     f6a:	e9 eb       	ldi	r30, 0xB9	; 185
     f6c:	f7 e0       	ldi	r31, 0x07	; 7
     f6e:	0c 94 67 1f 	jmp	0x3ece	; 0x3ece <__prologue_saves__+0x10>
     f72:	d6 2e       	mov	r13, r22
     f74:	c4 2e       	mov	r12, r20
     f76:	59 01       	movw	r10, r18
     f78:	7c 01       	movw	r14, r24
     f7a:	e8 94       	clt
     f7c:	f7 f8       	bld	r15, 7
     f7e:	f9 82       	std	Y+1, r15	; 0x01
     f80:	ea 82       	std	Y+2, r14	; 0x02
     f82:	06 2f       	mov	r16, r22
     f84:	42 e0       	ldi	r20, 0x02	; 2
     f86:	be 01       	movw	r22, r28
     f88:	6f 5f       	subi	r22, 0xFF	; 255
     f8a:	7f 4f       	sbci	r23, 0xFF	; 255
     f8c:	80 e5       	ldi	r24, 0x50	; 80
     f8e:	73 df       	rcall	.-282    	; 0xe76 <I2C_read_bytes>
     f90:	18 2f       	mov	r17, r24
     f92:	81 11       	cpse	r24, r1
     f94:	05 c0       	rjmp	.+10     	; 0xfa0 <ExtEERead+0x3a>
     f96:	95 01       	movw	r18, r10
     f98:	4c 2d       	mov	r20, r12
     f9a:	6d 2d       	mov	r22, r13
     f9c:	c7 01       	movw	r24, r14
     f9e:	c9 df       	rcall	.-110    	; 0xf32 <DecryptData>
     fa0:	81 2f       	mov	r24, r17
     fa2:	22 96       	adiw	r28, 0x02	; 2
     fa4:	ea e0       	ldi	r30, 0x0A	; 10
     fa6:	0c 94 80 1f 	jmp	0x3f00	; 0x3f00 <__epilogue_restores__+0x10>

00000faa <SerSend>:
     faa:	20 91 09 38 	lds	r18, 0x3809	; 0x803809 <serTxDone>
     fae:	22 23       	and	r18, r18
     fb0:	59 f0       	breq	.+22     	; 0xfc8 <SerSend+0x1e>
     fb2:	80 93 cd 3a 	sts	0x3ACD, r24	; 0x803acd <serTxAddr>
     fb6:	90 93 ce 3a 	sts	0x3ACE, r25	; 0x803ace <serTxAddr+0x1>
     fba:	10 92 09 38 	sts	0x3809, r1	; 0x803809 <serTxDone>
     fbe:	81 e0       	ldi	r24, 0x01	; 1
     fc0:	80 93 45 0a 	sts	0x0A45, r24	; 0x800a45 <__TEXT_REGION_LENGTH__+0x700a45>
     fc4:	80 e0       	ldi	r24, 0x00	; 0
     fc6:	08 95       	ret
     fc8:	81 e0       	ldi	r24, 0x01	; 1
     fca:	08 95       	ret

00000fcc <SerSpeed>:
     fcc:	28 2f       	mov	r18, r24
     fce:	81 11       	cpse	r24, r1
     fd0:	01 c0       	rjmp	.+2      	; 0xfd4 <SerSpeed+0x8>
     fd2:	21 e0       	ldi	r18, 0x01	; 1
     fd4:	8f ef       	ldi	r24, 0xFF	; 255
     fd6:	90 e0       	ldi	r25, 0x00	; 0
     fd8:	82 1b       	sub	r24, r18
     fda:	91 09       	sbc	r25, r1
     fdc:	98 2f       	mov	r25, r24
     fde:	88 27       	eor	r24, r24
     fe0:	81 50       	subi	r24, 0x01	; 1
     fe2:	9f 4f       	sbci	r25, 0xFF	; 255
     fe4:	80 93 4c 0a 	sts	0x0A4C, r24	; 0x800a4c <__TEXT_REGION_LENGTH__+0x700a4c>
     fe8:	90 93 4d 0a 	sts	0x0A4D, r25	; 0x800a4d <__TEXT_REGION_LENGTH__+0x700a4d>
     fec:	08 95       	ret

00000fee <SelectTSens>:
     fee:	8f ef       	ldi	r24, 0xFF	; 255
     ff0:	80 93 48 38 	sts	0x3848, r24	; 0x803848 <adc0Chg>
     ff4:	82 e1       	ldi	r24, 0x12	; 18
     ff6:	80 93 a0 00 	sts	0x00A0, r24	; 0x8000a0 <__TEXT_REGION_LENGTH__+0x7000a0>
     ffa:	e0 e0       	ldi	r30, 0x00	; 0
     ffc:	f6 e0       	ldi	r31, 0x06	; 6
     ffe:	80 81       	ld	r24, Z
    1000:	8b 7f       	andi	r24, 0xFB	; 251
    1002:	80 83       	st	Z, r24
    1004:	8e e1       	ldi	r24, 0x1E	; 30
    1006:	80 93 06 06 	sts	0x0606, r24	; 0x800606 <__TEXT_REGION_LENGTH__+0x700606>
    100a:	08 95       	ret

0000100c <SelectAuIn>:
    100c:	8f ef       	ldi	r24, 0xFF	; 255
    100e:	80 93 48 38 	sts	0x3848, r24	; 0x803848 <adc0Chg>
    1012:	82 e2       	ldi	r24, 0x22	; 34
    1014:	80 93 a0 00 	sts	0x00A0, r24	; 0x8000a0 <__TEXT_REGION_LENGTH__+0x7000a0>
    1018:	e0 e0       	ldi	r30, 0x00	; 0
    101a:	f6 e0       	ldi	r31, 0x06	; 6
    101c:	80 81       	ld	r24, Z
    101e:	84 60       	ori	r24, 0x04	; 4
    1020:	80 83       	st	Z, r24
    1022:	87 e0       	ldi	r24, 0x07	; 7
    1024:	80 93 06 06 	sts	0x0606, r24	; 0x800606 <__TEXT_REGION_LENGTH__+0x700606>
    1028:	08 95       	ret

0000102a <CheckButtons>:
    102a:	80 91 cb 3a 	lds	r24, 0x3ACB	; 0x803acb <adcBtns>
    102e:	90 91 cc 3a 	lds	r25, 0x3ACC	; 0x803acc <adcBtns+0x1>
    1032:	24 e0       	ldi	r18, 0x04	; 4
    1034:	96 95       	lsr	r25
    1036:	87 95       	ror	r24
    1038:	2a 95       	dec	r18
    103a:	e1 f7       	brne	.-8      	; 0x1034 <CheckButtons+0xa>
    103c:	99 27       	eor	r25, r25
    103e:	80 36       	cpi	r24, 0x60	; 96
    1040:	91 05       	cpc	r25, r1
    1042:	40 f4       	brcc	.+16     	; 0x1054 <CheckButtons+0x2a>
    1044:	8f 34       	cpi	r24, 0x4F	; 79
    1046:	91 05       	cpc	r25, r1
    1048:	88 f4       	brcc	.+34     	; 0x106c <CheckButtons+0x42>
    104a:	c0 97       	sbiw	r24, 0x30	; 48
    104c:	09 97       	sbiw	r24, 0x09	; 9
    104e:	90 f4       	brcc	.+36     	; 0x1074 <CheckButtons+0x4a>
    1050:	92 e0       	ldi	r25, 0x02	; 2
    1052:	11 c0       	rjmp	.+34     	; 0x1076 <CheckButtons+0x4c>
    1054:	85 37       	cpi	r24, 0x75	; 117
    1056:	91 05       	cpc	r25, r1
    1058:	68 f0       	brcs	.+26     	; 0x1074 <CheckButtons+0x4a>
    105a:	8e 38       	cpi	r24, 0x8E	; 142
    105c:	91 05       	cpc	r25, r1
    105e:	40 f0       	brcs	.+16     	; 0x1070 <CheckButtons+0x46>
    1060:	8e 59       	subi	r24, 0x9E	; 158
    1062:	91 09       	sbc	r25, r1
    1064:	81 97       	sbiw	r24, 0x21	; 33
    1066:	30 f4       	brcc	.+12     	; 0x1074 <CheckButtons+0x4a>
    1068:	90 e0       	ldi	r25, 0x00	; 0
    106a:	05 c0       	rjmp	.+10     	; 0x1076 <CheckButtons+0x4c>
    106c:	93 e0       	ldi	r25, 0x03	; 3
    106e:	03 c0       	rjmp	.+6      	; 0x1076 <CheckButtons+0x4c>
    1070:	91 e0       	ldi	r25, 0x01	; 1
    1072:	01 c0       	rjmp	.+2      	; 0x1076 <CheckButtons+0x4c>
    1074:	9f ef       	ldi	r25, 0xFF	; 255
    1076:	80 91 34 38 	lds	r24, 0x3834	; 0x803834 <previousValue.3902>
    107a:	98 17       	cp	r25, r24
    107c:	19 f0       	breq	.+6      	; 0x1084 <CheckButtons+0x5a>
    107e:	90 93 34 38 	sts	0x3834, r25	; 0x803834 <previousValue.3902>
    1082:	8f ef       	ldi	r24, 0xFF	; 255
    1084:	08 95       	ret

00001086 <lfsr>:
    1086:	80 91 6c 38 	lds	r24, 0x386C	; 0x80386c <lfsrSeed>
    108a:	90 91 6d 38 	lds	r25, 0x386D	; 0x80386d <lfsrSeed+0x1>
    108e:	9c 01       	movw	r18, r24
    1090:	32 2f       	mov	r19, r18
    1092:	22 27       	eor	r18, r18
    1094:	32 95       	swap	r19
    1096:	33 0f       	add	r19, r19
    1098:	30 7e       	andi	r19, 0xE0	; 224
    109a:	82 27       	eor	r24, r18
    109c:	93 27       	eor	r25, r19
    109e:	9c 01       	movw	r18, r24
    10a0:	23 2f       	mov	r18, r19
    10a2:	33 27       	eor	r19, r19
    10a4:	26 95       	lsr	r18
    10a6:	82 27       	eor	r24, r18
    10a8:	93 27       	eor	r25, r19
    10aa:	9c 01       	movw	r18, r24
    10ac:	36 95       	lsr	r19
    10ae:	32 2f       	mov	r19, r18
    10b0:	22 27       	eor	r18, r18
    10b2:	37 95       	ror	r19
    10b4:	27 95       	ror	r18
    10b6:	82 27       	eor	r24, r18
    10b8:	93 27       	eor	r25, r19
    10ba:	80 93 6c 38 	sts	0x386C, r24	; 0x80386c <lfsrSeed>
    10be:	90 93 6d 38 	sts	0x386D, r25	; 0x80386d <lfsrSeed+0x1>
    10c2:	08 95       	ret

000010c4 <floatSpeed>:
    10c4:	a0 e0       	ldi	r26, 0x00	; 0
    10c6:	b0 e0       	ldi	r27, 0x00	; 0
    10c8:	e8 e6       	ldi	r30, 0x68	; 104
    10ca:	f8 e0       	ldi	r31, 0x08	; 8
    10cc:	0c 94 6a 1f 	jmp	0x3ed4	; 0x3ed4 <__prologue_saves__+0x16>
    10d0:	7b 01       	movw	r14, r22
    10d2:	8a 01       	movw	r16, r20
    10d4:	c0 91 5c 0a 	lds	r28, 0x0A5C	; 0x800a5c <__TEXT_REGION_LENGTH__+0x700a5c>
    10d8:	d0 91 5d 0a 	lds	r29, 0x0A5D	; 0x800a5d <__TEXT_REGION_LENGTH__+0x700a5d>
    10dc:	e8 2f       	mov	r30, r24
    10de:	f0 e0       	ldi	r31, 0x00	; 0
    10e0:	31 97       	sbiw	r30, 0x01	; 1
    10e2:	e7 70       	andi	r30, 0x07	; 7
    10e4:	ff 27       	eor	r31, r31
    10e6:	eb 5c       	subi	r30, 0xCB	; 203
    10e8:	f7 4c       	sbci	r31, 0xC7	; 199
    10ea:	d0 80       	ld	r13, Z
    10ec:	cc df       	rcall	.-104    	; 0x1086 <lfsr>
    10ee:	8d 21       	and	r24, r13
    10f0:	c8 0f       	add	r28, r24
    10f2:	d1 1d       	adc	r29, r1
    10f4:	c8 df       	rcall	.-112    	; 0x1086 <lfsr>
    10f6:	8d 21       	and	r24, r13
    10f8:	c8 1b       	sub	r28, r24
    10fa:	d1 09       	sbc	r29, r1
    10fc:	0c 17       	cp	r16, r28
    10fe:	1d 07       	cpc	r17, r29
    1100:	08 f4       	brcc	.+2      	; 0x1104 <floatSpeed+0x40>
    1102:	e8 01       	movw	r28, r16
    1104:	c7 01       	movw	r24, r14
    1106:	ec 16       	cp	r14, r28
    1108:	fd 06       	cpc	r15, r29
    110a:	08 f4       	brcc	.+2      	; 0x110e <floatSpeed+0x4a>
    110c:	ce 01       	movw	r24, r28
    110e:	80 93 5c 0a 	sts	0x0A5C, r24	; 0x800a5c <__TEXT_REGION_LENGTH__+0x700a5c>
    1112:	90 93 5d 0a 	sts	0x0A5D, r25	; 0x800a5d <__TEXT_REGION_LENGTH__+0x700a5d>
    1116:	cd b7       	in	r28, 0x3d	; 61
    1118:	de b7       	in	r29, 0x3e	; 62
    111a:	e7 e0       	ldi	r30, 0x07	; 7
    111c:	0c 94 83 1f 	jmp	0x3f06	; 0x3f06 <__epilogue_restores__+0x16>

00001120 <floatAround>:
    1120:	0f 93       	push	r16
    1122:	1f 93       	push	r17
    1124:	cf 93       	push	r28
    1126:	df 93       	push	r29
    1128:	c8 2f       	mov	r28, r24
    112a:	d4 2f       	mov	r29, r20
    112c:	02 2f       	mov	r16, r18
    112e:	e6 2f       	mov	r30, r22
    1130:	f0 e0       	ldi	r31, 0x00	; 0
    1132:	31 97       	sbiw	r30, 0x01	; 1
    1134:	e7 70       	andi	r30, 0x07	; 7
    1136:	ff 27       	eor	r31, r31
    1138:	eb 5c       	subi	r30, 0xCB	; 203
    113a:	f7 4c       	sbci	r31, 0xC7	; 199
    113c:	10 81       	ld	r17, Z
    113e:	a3 df       	rcall	.-186    	; 0x1086 <lfsr>
    1140:	81 23       	and	r24, r17
    1142:	c8 0f       	add	r28, r24
    1144:	a0 df       	rcall	.-192    	; 0x1086 <lfsr>
    1146:	81 23       	and	r24, r17
    1148:	c8 1b       	sub	r28, r24
    114a:	8c 2f       	mov	r24, r28
    114c:	00 23       	and	r16, r16
    114e:	41 f0       	breq	.+16     	; 0x1160 <floatAround+0x40>
    1150:	9c 2f       	mov	r25, r28
    1152:	0c 17       	cp	r16, r28
    1154:	08 f4       	brcc	.+2      	; 0x1158 <floatAround+0x38>
    1156:	90 2f       	mov	r25, r16
    1158:	8d 2f       	mov	r24, r29
    115a:	d9 17       	cp	r29, r25
    115c:	08 f4       	brcc	.+2      	; 0x1160 <floatAround+0x40>
    115e:	89 2f       	mov	r24, r25
    1160:	41 e0       	ldi	r20, 0x01	; 1
    1162:	50 e0       	ldi	r21, 0x00	; 0
    1164:	8d 17       	cp	r24, r29
    1166:	10 f0       	brcs	.+4      	; 0x116c <floatAround+0x4c>
    1168:	40 e0       	ldi	r20, 0x00	; 0
    116a:	50 e0       	ldi	r21, 0x00	; 0
    116c:	2d 2f       	mov	r18, r29
    116e:	30 e0       	ldi	r19, 0x00	; 0
    1170:	24 23       	and	r18, r20
    1172:	35 23       	and	r19, r21
    1174:	23 2b       	or	r18, r19
    1176:	09 f0       	breq	.+2      	; 0x117a <floatAround+0x5a>
    1178:	8d 2f       	mov	r24, r29
    117a:	df 91       	pop	r29
    117c:	cf 91       	pop	r28
    117e:	1f 91       	pop	r17
    1180:	0f 91       	pop	r16
    1182:	08 95       	ret

00001184 <SaveGameState>:
    1184:	cf 92       	push	r12
    1186:	df 92       	push	r13
    1188:	ff 92       	push	r15
    118a:	0f 93       	push	r16
    118c:	1f 93       	push	r17
    118e:	cf 93       	push	r28
    1190:	df 93       	push	r29
    1192:	cd b7       	in	r28, 0x3d	; 61
    1194:	de b7       	in	r29, 0x3e	; 62
    1196:	64 97       	sbiw	r28, 0x14	; 20
    1198:	cd bf       	out	0x3d, r28	; 61
    119a:	de bf       	out	0x3e, r29	; 62
    119c:	44 e1       	ldi	r20, 0x14	; 20
    119e:	be 01       	movw	r22, r28
    11a0:	6f 5f       	subi	r22, 0xFF	; 255
    11a2:	7f 4f       	sbci	r23, 0xFF	; 255
    11a4:	80 e0       	ldi	r24, 0x00	; 0
    11a6:	8d de       	rcall	.-742    	; 0xec2 <EERead>
    11a8:	83 e7       	ldi	r24, 0x73	; 115
    11aa:	c8 2e       	mov	r12, r24
    11ac:	8a e3       	ldi	r24, 0x3A	; 58
    11ae:	d8 2e       	mov	r13, r24
    11b0:	8e 01       	movw	r16, r28
    11b2:	0f 5f       	subi	r16, 0xFF	; 255
    11b4:	1f 4f       	sbci	r17, 0xFF	; 255
    11b6:	f1 2c       	mov	r15, r1
    11b8:	f8 01       	movw	r30, r16
    11ba:	81 91       	ld	r24, Z+
    11bc:	8f 01       	movw	r16, r30
    11be:	f6 01       	movw	r30, r12
    11c0:	90 81       	ld	r25, Z
    11c2:	98 13       	cpse	r25, r24
    11c4:	08 c0       	rjmp	.+16     	; 0x11d6 <SaveGameState+0x52>
    11c6:	f3 94       	inc	r15
    11c8:	ff ef       	ldi	r31, 0xFF	; 255
    11ca:	cf 1a       	sub	r12, r31
    11cc:	df 0a       	sbc	r13, r31
    11ce:	80 e1       	ldi	r24, 0x10	; 16
    11d0:	f8 12       	cpse	r15, r24
    11d2:	f2 cf       	rjmp	.-28     	; 0x11b8 <SaveGameState+0x34>
    11d4:	08 c0       	rjmp	.+16     	; 0x11e6 <SaveGameState+0x62>
    11d6:	41 e0       	ldi	r20, 0x01	; 1
    11d8:	b6 01       	movw	r22, r12
    11da:	8f 2d       	mov	r24, r15
    11dc:	82 de       	rcall	.-764    	; 0xee2 <EEWrite>
    11de:	88 23       	and	r24, r24
    11e0:	91 f3       	breq	.-28     	; 0x11c6 <SaveGameState+0x42>
    11e2:	91 e0       	ldi	r25, 0x01	; 1
    11e4:	36 c0       	rjmp	.+108    	; 0x1252 <SaveGameState+0xce>
    11e6:	20 91 4e 38 	lds	r18, 0x384E	; 0x80384e <inventory>
    11ea:	30 91 4f 38 	lds	r19, 0x384F	; 0x80384f <inventory+0x1>
    11ee:	30 93 83 3a 	sts	0x3A83, r19	; 0x803a83 <gameState+0x10>
    11f2:	20 93 84 3a 	sts	0x3A84, r18	; 0x803a84 <gameState+0x11>
    11f6:	80 91 50 38 	lds	r24, 0x3850	; 0x803850 <inventory+0x2>
    11fa:	90 91 51 38 	lds	r25, 0x3851	; 0x803851 <inventory+0x3>
    11fe:	90 93 85 3a 	sts	0x3A85, r25	; 0x803a85 <gameState+0x12>
    1202:	80 93 86 3a 	sts	0x3A86, r24	; 0x803a86 <gameState+0x13>
    1206:	89 89       	ldd	r24, Y+17	; 0x11
    1208:	9a 89       	ldd	r25, Y+18	; 0x12
    120a:	98 27       	eor	r25, r24
    120c:	89 27       	eor	r24, r25
    120e:	98 27       	eor	r25, r24
    1210:	28 17       	cp	r18, r24
    1212:	39 07       	cpc	r19, r25
    1214:	69 f4       	brne	.+26     	; 0x1230 <SaveGameState+0xac>
    1216:	8b 89       	ldd	r24, Y+19	; 0x13
    1218:	9c 89       	ldd	r25, Y+20	; 0x14
    121a:	98 27       	eor	r25, r24
    121c:	89 27       	eor	r24, r25
    121e:	98 27       	eor	r25, r24
    1220:	20 91 50 38 	lds	r18, 0x3850	; 0x803850 <inventory+0x2>
    1224:	30 91 51 38 	lds	r19, 0x3851	; 0x803851 <inventory+0x3>
    1228:	28 17       	cp	r18, r24
    122a:	39 07       	cpc	r19, r25
    122c:	49 f4       	brne	.+18     	; 0x1240 <SaveGameState+0xbc>
    122e:	10 c0       	rjmp	.+32     	; 0x1250 <SaveGameState+0xcc>
    1230:	42 e0       	ldi	r20, 0x02	; 2
    1232:	63 e8       	ldi	r22, 0x83	; 131
    1234:	7a e3       	ldi	r23, 0x3A	; 58
    1236:	80 e1       	ldi	r24, 0x10	; 16
    1238:	54 de       	rcall	.-856    	; 0xee2 <EEWrite>
    123a:	88 23       	and	r24, r24
    123c:	61 f3       	breq	.-40     	; 0x1216 <SaveGameState+0x92>
    123e:	d1 cf       	rjmp	.-94     	; 0x11e2 <SaveGameState+0x5e>
    1240:	42 e0       	ldi	r20, 0x02	; 2
    1242:	65 e8       	ldi	r22, 0x85	; 133
    1244:	7a e3       	ldi	r23, 0x3A	; 58
    1246:	82 e1       	ldi	r24, 0x12	; 18
    1248:	4c de       	rcall	.-872    	; 0xee2 <EEWrite>
    124a:	91 e0       	ldi	r25, 0x01	; 1
    124c:	81 11       	cpse	r24, r1
    124e:	01 c0       	rjmp	.+2      	; 0x1252 <SaveGameState+0xce>
    1250:	90 e0       	ldi	r25, 0x00	; 0
    1252:	89 2f       	mov	r24, r25
    1254:	64 96       	adiw	r28, 0x14	; 20
    1256:	cd bf       	out	0x3d, r28	; 61
    1258:	de bf       	out	0x3e, r29	; 62
    125a:	df 91       	pop	r29
    125c:	cf 91       	pop	r28
    125e:	1f 91       	pop	r17
    1260:	0f 91       	pop	r16
    1262:	ff 90       	pop	r15
    1264:	df 90       	pop	r13
    1266:	cf 90       	pop	r12
    1268:	08 95       	ret

0000126a <ReadStatusBit>:
    126a:	e8 2f       	mov	r30, r24
    126c:	ef 77       	andi	r30, 0x7F	; 127
    126e:	e6 95       	lsr	r30
    1270:	e6 95       	lsr	r30
    1272:	e6 95       	lsr	r30
    1274:	f0 e0       	ldi	r31, 0x00	; 0
    1276:	ed 58       	subi	r30, 0x8D	; 141
    1278:	f5 4c       	sbci	r31, 0xC5	; 197
    127a:	20 81       	ld	r18, Z
    127c:	30 e0       	ldi	r19, 0x00	; 0
    127e:	87 70       	andi	r24, 0x07	; 7
    1280:	a9 01       	movw	r20, r18
    1282:	02 c0       	rjmp	.+4      	; 0x1288 <ReadStatusBit+0x1e>
    1284:	55 95       	asr	r21
    1286:	47 95       	ror	r20
    1288:	8a 95       	dec	r24
    128a:	e2 f7       	brpl	.-8      	; 0x1284 <ReadStatusBit+0x1a>
    128c:	ca 01       	movw	r24, r20
    128e:	81 70       	andi	r24, 0x01	; 1
    1290:	08 95       	ret

00001292 <UpdateState>:
    1292:	e8 2f       	mov	r30, r24
    1294:	ef 77       	andi	r30, 0x7F	; 127
    1296:	e9 f0       	breq	.+58     	; 0x12d2 <UpdateState+0x40>
    1298:	e6 95       	lsr	r30
    129a:	e6 95       	lsr	r30
    129c:	e6 95       	lsr	r30
    129e:	28 2f       	mov	r18, r24
    12a0:	27 70       	andi	r18, 0x07	; 7
    12a2:	f0 e0       	ldi	r31, 0x00	; 0
    12a4:	ed 58       	subi	r30, 0x8D	; 141
    12a6:	f5 4c       	sbci	r31, 0xC5	; 197
    12a8:	87 ff       	sbrs	r24, 7
    12aa:	0a c0       	rjmp	.+20     	; 0x12c0 <UpdateState+0x2e>
    12ac:	81 e0       	ldi	r24, 0x01	; 1
    12ae:	90 e0       	ldi	r25, 0x00	; 0
    12b0:	01 c0       	rjmp	.+2      	; 0x12b4 <UpdateState+0x22>
    12b2:	88 0f       	add	r24, r24
    12b4:	2a 95       	dec	r18
    12b6:	ea f7       	brpl	.-6      	; 0x12b2 <UpdateState+0x20>
    12b8:	80 95       	com	r24
    12ba:	90 81       	ld	r25, Z
    12bc:	89 23       	and	r24, r25
    12be:	08 c0       	rjmp	.+16     	; 0x12d0 <UpdateState+0x3e>
    12c0:	81 e0       	ldi	r24, 0x01	; 1
    12c2:	90 e0       	ldi	r25, 0x00	; 0
    12c4:	01 c0       	rjmp	.+2      	; 0x12c8 <UpdateState+0x36>
    12c6:	88 0f       	add	r24, r24
    12c8:	2a 95       	dec	r18
    12ca:	ea f7       	brpl	.-6      	; 0x12c6 <UpdateState+0x34>
    12cc:	90 81       	ld	r25, Z
    12ce:	89 2b       	or	r24, r25
    12d0:	80 83       	st	Z, r24
    12d2:	08 95       	ret

000012d4 <CheckState>:
    12d4:	cf 93       	push	r28
    12d6:	c8 2f       	mov	r28, r24
    12d8:	8f 77       	andi	r24, 0x7F	; 127
    12da:	c7 df       	rcall	.-114    	; 0x126a <ReadStatusBit>
    12dc:	2c 2f       	mov	r18, r28
    12de:	22 1f       	adc	r18, r18
    12e0:	22 27       	eor	r18, r18
    12e2:	22 1f       	adc	r18, r18
    12e4:	91 e0       	ldi	r25, 0x01	; 1
    12e6:	81 11       	cpse	r24, r1
    12e8:	01 c0       	rjmp	.+2      	; 0x12ec <CheckState+0x18>
    12ea:	90 e0       	ldi	r25, 0x00	; 0
    12ec:	82 2f       	mov	r24, r18
    12ee:	89 27       	eor	r24, r25
    12f0:	cf 91       	pop	r28
    12f2:	08 95       	ret

000012f4 <getID>:
    12f4:	e3 e0       	ldi	r30, 0x03	; 3
    12f6:	f1 e1       	ldi	r31, 0x11	; 17
    12f8:	80 e0       	ldi	r24, 0x00	; 0
    12fa:	91 91       	ld	r25, Z+
    12fc:	89 0f       	add	r24, r25
    12fe:	ed 30       	cpi	r30, 0x0D	; 13
    1300:	91 e1       	ldi	r25, 0x11	; 17
    1302:	f9 07       	cpc	r31, r25
    1304:	d1 f7       	brne	.-12     	; 0x12fa <getID+0x6>
    1306:	83 70       	andi	r24, 0x03	; 3
    1308:	91 e0       	ldi	r25, 0x01	; 1
    130a:	98 0f       	add	r25, r24
    130c:	90 93 4d 38 	sts	0x384D, r25	; 0x80384d <whoami>
    1310:	08 95       	ret

00001312 <WipeAfterBoot>:
    1312:	a1 e0       	ldi	r26, 0x01	; 1
    1314:	b0 e0       	ldi	r27, 0x00	; 0
    1316:	ef e8       	ldi	r30, 0x8F	; 143
    1318:	f9 e0       	ldi	r31, 0x09	; 9
    131a:	0c 94 6e 1f 	jmp	0x3edc	; 0x3edc <__prologue_saves__+0x1e>
    131e:	9f ef       	ldi	r25, 0xFF	; 255
    1320:	99 83       	std	Y+1, r25	; 0x01
    1322:	81 11       	cpse	r24, r1
    1324:	08 c0       	rjmp	.+16     	; 0x1336 <WipeAfterBoot+0x24>
    1326:	80 91 4d 38 	lds	r24, 0x384D	; 0x80384d <whoami>
    132a:	83 51       	subi	r24, 0x13	; 19
    132c:	b2 df       	rcall	.-156    	; 0x1292 <UpdateState>
    132e:	21 96       	adiw	r28, 0x01	; 1
    1330:	e3 e0       	ldi	r30, 0x03	; 3
    1332:	0c 94 87 1f 	jmp	0x3f0e	; 0x3f0e <__epilogue_restores__+0x1e>
    1336:	10 e0       	ldi	r17, 0x00	; 0
    1338:	41 e0       	ldi	r20, 0x01	; 1
    133a:	be 01       	movw	r22, r28
    133c:	6f 5f       	subi	r22, 0xFF	; 255
    133e:	7f 4f       	sbci	r23, 0xFF	; 255
    1340:	81 2f       	mov	r24, r17
    1342:	cf dd       	rcall	.-1122   	; 0xee2 <EEWrite>
    1344:	1f 5f       	subi	r17, 0xFF	; 255
    1346:	10 32       	cpi	r17, 0x20	; 32
    1348:	b9 f7       	brne	.-18     	; 0x1338 <WipeAfterBoot+0x26>
    134a:	ed cf       	rjmp	.-38     	; 0x1326 <WipeAfterBoot+0x14>

0000134c <Reset>:
    134c:	cf 93       	push	r28
    134e:	e3 e7       	ldi	r30, 0x73	; 115
    1350:	fa e3       	ldi	r31, 0x3A	; 58
    1352:	11 92       	st	Z+, r1
    1354:	8a e3       	ldi	r24, 0x3A	; 58
    1356:	e7 38       	cpi	r30, 0x87	; 135
    1358:	f8 07       	cpc	r31, r24
    135a:	d9 f7       	brne	.-10     	; 0x1352 <Reset+0x6>
    135c:	cb df       	rcall	.-106    	; 0x12f4 <getID>
    135e:	c8 2f       	mov	r28, r24
    1360:	81 11       	cpse	r24, r1
    1362:	02 c0       	rjmp	.+4      	; 0x1368 <Reset+0x1c>
    1364:	8e e6       	ldi	r24, 0x6E	; 110
    1366:	0b c0       	rjmp	.+22     	; 0x137e <Reset+0x32>
    1368:	81 30       	cpi	r24, 0x01	; 1
    136a:	11 f4       	brne	.+4      	; 0x1370 <Reset+0x24>
    136c:	8f e6       	ldi	r24, 0x6F	; 111
    136e:	07 c0       	rjmp	.+14     	; 0x137e <Reset+0x32>
    1370:	82 30       	cpi	r24, 0x02	; 2
    1372:	11 f4       	brne	.+4      	; 0x1378 <Reset+0x2c>
    1374:	80 e7       	ldi	r24, 0x70	; 112
    1376:	03 c0       	rjmp	.+6      	; 0x137e <Reset+0x32>
    1378:	83 30       	cpi	r24, 0x03	; 3
    137a:	11 f4       	brne	.+4      	; 0x1380 <Reset+0x34>
    137c:	81 e7       	ldi	r24, 0x71	; 113
    137e:	89 df       	rcall	.-238    	; 0x1292 <UpdateState>
    1380:	84 e6       	ldi	r24, 0x64	; 100
    1382:	8c 0f       	add	r24, r28
    1384:	86 df       	rcall	.-244    	; 0x1292 <UpdateState>
    1386:	cf 91       	pop	r28
    1388:	08 95       	ret

0000138a <LoadGameState>:
    138a:	cf 93       	push	r28
    138c:	df 93       	push	r29
    138e:	20 91 d1 3a 	lds	r18, 0x3AD1	; 0x803ad1 <adcPhot>
    1392:	30 91 d2 3a 	lds	r19, 0x3AD2	; 0x803ad2 <adcPhot+0x1>
    1396:	80 91 02 3b 	lds	r24, 0x3B02	; 0x803b02 <adcTemp>
    139a:	90 91 03 3b 	lds	r25, 0x3B03	; 0x803b03 <adcTemp+0x1>
    139e:	82 0f       	add	r24, r18
    13a0:	93 1f       	adc	r25, r19
    13a2:	88 0f       	add	r24, r24
    13a4:	99 1f       	adc	r25, r25
    13a6:	81 60       	ori	r24, 0x01	; 1
    13a8:	80 93 6c 38 	sts	0x386C, r24	; 0x80386c <lfsrSeed>
    13ac:	90 93 6d 38 	sts	0x386D, r25	; 0x80386d <lfsrSeed+0x1>
    13b0:	44 e1       	ldi	r20, 0x14	; 20
    13b2:	63 e7       	ldi	r22, 0x73	; 115
    13b4:	7a e3       	ldi	r23, 0x3A	; 58
    13b6:	80 e0       	ldi	r24, 0x00	; 0
    13b8:	84 dd       	rcall	.-1272   	; 0xec2 <EERead>
    13ba:	ce e6       	ldi	r28, 0x6E	; 110
    13bc:	d0 e0       	ldi	r29, 0x00	; 0
    13be:	8c 2f       	mov	r24, r28
    13c0:	54 df       	rcall	.-344    	; 0x126a <ReadStatusBit>
    13c2:	d8 0f       	add	r29, r24
    13c4:	cf 5f       	subi	r28, 0xFF	; 255
    13c6:	c2 37       	cpi	r28, 0x72	; 114
    13c8:	d1 f7       	brne	.-12     	; 0x13be <LoadGameState+0x34>
    13ca:	d1 30       	cpi	r29, 0x01	; 1
    13cc:	11 f0       	breq	.+4      	; 0x13d2 <LoadGameState+0x48>
    13ce:	be df       	rcall	.-132    	; 0x134c <Reset>
    13d0:	01 c0       	rjmp	.+2      	; 0x13d4 <LoadGameState+0x4a>
    13d2:	90 df       	rcall	.-224    	; 0x12f4 <getID>
    13d4:	80 91 83 3a 	lds	r24, 0x3A83	; 0x803a83 <gameState+0x10>
    13d8:	90 91 84 3a 	lds	r25, 0x3A84	; 0x803a84 <gameState+0x11>
    13dc:	98 27       	eor	r25, r24
    13de:	89 27       	eor	r24, r25
    13e0:	98 27       	eor	r25, r24
    13e2:	80 93 4e 38 	sts	0x384E, r24	; 0x80384e <inventory>
    13e6:	90 93 4f 38 	sts	0x384F, r25	; 0x80384f <inventory+0x1>
    13ea:	80 91 85 3a 	lds	r24, 0x3A85	; 0x803a85 <gameState+0x12>
    13ee:	90 91 86 3a 	lds	r25, 0x3A86	; 0x803a86 <gameState+0x13>
    13f2:	98 27       	eor	r25, r24
    13f4:	89 27       	eor	r24, r25
    13f6:	98 27       	eor	r25, r24
    13f8:	80 93 50 38 	sts	0x3850, r24	; 0x803850 <inventory+0x2>
    13fc:	90 93 51 38 	sts	0x3851, r25	; 0x803851 <inventory+0x3>
    1400:	df 91       	pop	r29
    1402:	cf 91       	pop	r28
    1404:	08 95       	ret

00001406 <HotSummer>:
    1406:	cf 93       	push	r28
    1408:	86 e7       	ldi	r24, 0x76	; 118
    140a:	64 df       	rcall	.-312    	; 0x12d4 <CheckState>
    140c:	c8 2f       	mov	r28, r24
    140e:	88 23       	and	r24, r24
    1410:	81 f0       	breq	.+32     	; 0x1432 <HotSummer+0x2c>
    1412:	e0 91 42 bf 	lds	r30, 0xBF42	; 0x80bf42 <__bss_end+0x841b>
    1416:	f0 e0       	ldi	r31, 0x00	; 0
    1418:	e8 52       	subi	r30, 0x28	; 40
    141a:	f5 4c       	sbci	r31, 0xC5	; 197
    141c:	10 82       	st	Z, r1
    141e:	e0 91 43 bf 	lds	r30, 0xBF43	; 0x80bf43 <__bss_end+0x841c>
    1422:	f0 e0       	ldi	r31, 0x00	; 0
    1424:	80 91 0c 38 	lds	r24, 0x380C	; 0x80380c <dimValue>
    1428:	e8 52       	subi	r30, 0x28	; 40
    142a:	f5 4c       	sbci	r31, 0xC5	; 197
    142c:	80 83       	st	Z, r24
    142e:	c1 e0       	ldi	r28, 0x01	; 1
    1430:	49 c0       	rjmp	.+146    	; 0x14c4 <HotSummer+0xbe>
    1432:	85 e7       	ldi	r24, 0x75	; 117
    1434:	4f df       	rcall	.-354    	; 0x12d4 <CheckState>
    1436:	88 23       	and	r24, r24
    1438:	49 f1       	breq	.+82     	; 0x148c <HotSummer+0x86>
    143a:	e0 91 42 bf 	lds	r30, 0xBF42	; 0x80bf42 <__bss_end+0x841b>
    143e:	f0 e0       	ldi	r31, 0x00	; 0
    1440:	80 91 0c 38 	lds	r24, 0x380C	; 0x80380c <dimValue>
    1444:	e8 52       	subi	r30, 0x28	; 40
    1446:	f5 4c       	sbci	r31, 0xC5	; 197
    1448:	80 83       	st	Z, r24
    144a:	80 91 69 38 	lds	r24, 0x3869	; 0x803869 <cooledDown.3974>
    144e:	88 23       	and	r24, r24
    1450:	71 f0       	breq	.+28     	; 0x146e <HotSummer+0x68>
    1452:	80 91 d5 3a 	lds	r24, 0x3AD5	; 0x803ad5 <calTemp>
    1456:	90 91 d6 3a 	lds	r25, 0x3AD6	; 0x803ad6 <calTemp+0x1>
    145a:	20 91 02 3b 	lds	r18, 0x3B02	; 0x803b02 <adcTemp>
    145e:	30 91 03 3b 	lds	r19, 0x3B03	; 0x803b03 <adcTemp+0x1>
    1462:	80 96       	adiw	r24, 0x20	; 32
    1464:	28 17       	cp	r18, r24
    1466:	39 07       	cpc	r19, r25
    1468:	10 f0       	brcs	.+4      	; 0x146e <HotSummer+0x68>
    146a:	86 e7       	ldi	r24, 0x76	; 118
    146c:	2a c0       	rjmp	.+84     	; 0x14c2 <HotSummer+0xbc>
    146e:	80 91 d5 3a 	lds	r24, 0x3AD5	; 0x803ad5 <calTemp>
    1472:	90 91 d6 3a 	lds	r25, 0x3AD6	; 0x803ad6 <calTemp+0x1>
    1476:	20 91 02 3b 	lds	r18, 0x3B02	; 0x803b02 <adcTemp>
    147a:	30 91 03 3b 	lds	r19, 0x3B03	; 0x803b03 <adcTemp+0x1>
    147e:	08 96       	adiw	r24, 0x08	; 8
    1480:	82 17       	cp	r24, r18
    1482:	93 07       	cpc	r25, r19
    1484:	18 f0       	brcs	.+6      	; 0x148c <HotSummer+0x86>
    1486:	81 e0       	ldi	r24, 0x01	; 1
    1488:	80 93 69 38 	sts	0x3869, r24	; 0x803869 <cooledDown.3974>
    148c:	80 91 d5 3a 	lds	r24, 0x3AD5	; 0x803ad5 <calTemp>
    1490:	90 91 d6 3a 	lds	r25, 0x3AD6	; 0x803ad6 <calTemp+0x1>
    1494:	89 2b       	or	r24, r25
    1496:	41 f4       	brne	.+16     	; 0x14a8 <HotSummer+0xa2>
    1498:	80 91 02 3b 	lds	r24, 0x3B02	; 0x803b02 <adcTemp>
    149c:	90 91 03 3b 	lds	r25, 0x3B03	; 0x803b03 <adcTemp+0x1>
    14a0:	80 93 d5 3a 	sts	0x3AD5, r24	; 0x803ad5 <calTemp>
    14a4:	90 93 d6 3a 	sts	0x3AD6, r25	; 0x803ad6 <calTemp+0x1>
    14a8:	80 91 d5 3a 	lds	r24, 0x3AD5	; 0x803ad5 <calTemp>
    14ac:	90 91 d6 3a 	lds	r25, 0x3AD6	; 0x803ad6 <calTemp+0x1>
    14b0:	20 91 02 3b 	lds	r18, 0x3B02	; 0x803b02 <adcTemp>
    14b4:	30 91 03 3b 	lds	r19, 0x3B03	; 0x803b03 <adcTemp+0x1>
    14b8:	80 96       	adiw	r24, 0x20	; 32
    14ba:	28 17       	cp	r18, r24
    14bc:	39 07       	cpc	r19, r25
    14be:	10 f0       	brcs	.+4      	; 0x14c4 <HotSummer+0xbe>
    14c0:	85 e7       	ldi	r24, 0x75	; 117
    14c2:	e7 de       	rcall	.-562    	; 0x1292 <UpdateState>
    14c4:	8c 2f       	mov	r24, r28
    14c6:	cf 91       	pop	r28
    14c8:	08 95       	ret

000014ca <WingBar>:
    14ca:	e4 e4       	ldi	r30, 0x44	; 68
    14cc:	ff eb       	ldi	r31, 0xBF	; 191
    14ce:	90 e0       	ldi	r25, 0x00	; 0
    14d0:	a5 81       	ldd	r26, Z+5	; 0x05
    14d2:	b0 e0       	ldi	r27, 0x00	; 0
    14d4:	98 17       	cp	r25, r24
    14d6:	34 f4       	brge	.+12     	; 0x14e4 <WingBar+0x1a>
    14d8:	20 91 0c 38 	lds	r18, 0x380C	; 0x80380c <dimValue>
    14dc:	a8 52       	subi	r26, 0x28	; 40
    14de:	b5 4c       	sbci	r27, 0xC5	; 197
    14e0:	2c 93       	st	X, r18
    14e2:	03 c0       	rjmp	.+6      	; 0x14ea <WingBar+0x20>
    14e4:	a8 52       	subi	r26, 0x28	; 40
    14e6:	b5 4c       	sbci	r27, 0xC5	; 197
    14e8:	1c 92       	st	X, r1
    14ea:	a0 81       	ld	r26, Z
    14ec:	b0 e0       	ldi	r27, 0x00	; 0
    14ee:	96 17       	cp	r25, r22
    14f0:	34 f4       	brge	.+12     	; 0x14fe <WingBar+0x34>
    14f2:	20 91 0c 38 	lds	r18, 0x380C	; 0x80380c <dimValue>
    14f6:	a8 52       	subi	r26, 0x28	; 40
    14f8:	b5 4c       	sbci	r27, 0xC5	; 197
    14fa:	2c 93       	st	X, r18
    14fc:	03 c0       	rjmp	.+6      	; 0x1504 <WingBar+0x3a>
    14fe:	a8 52       	subi	r26, 0x28	; 40
    1500:	b5 4c       	sbci	r27, 0xC5	; 197
    1502:	1c 92       	st	X, r1
    1504:	9f 5f       	subi	r25, 0xFF	; 255
    1506:	31 96       	adiw	r30, 0x01	; 1
    1508:	95 30       	cpi	r25, 0x05	; 5
    150a:	11 f7       	brne	.-60     	; 0x14d0 <WingBar+0x6>
    150c:	08 95       	ret

0000150e <SetBothEyes>:
    150e:	ae e4       	ldi	r26, 0x4E	; 78
    1510:	bf eb       	ldi	r27, 0xBF	; 191
    1512:	ec 91       	ld	r30, X
    1514:	f0 e0       	ldi	r31, 0x00	; 0
    1516:	e8 52       	subi	r30, 0x28	; 40
    1518:	f5 4c       	sbci	r31, 0xC5	; 197
    151a:	80 83       	st	Z, r24
    151c:	12 96       	adiw	r26, 0x02	; 2
    151e:	ec 91       	ld	r30, X
    1520:	12 97       	sbiw	r26, 0x02	; 2
    1522:	f0 e0       	ldi	r31, 0x00	; 0
    1524:	e8 52       	subi	r30, 0x28	; 40
    1526:	f5 4c       	sbci	r31, 0xC5	; 197
    1528:	60 83       	st	Z, r22
    152a:	11 96       	adiw	r26, 0x01	; 1
    152c:	ec 91       	ld	r30, X
    152e:	11 97       	sbiw	r26, 0x01	; 1
    1530:	f0 e0       	ldi	r31, 0x00	; 0
    1532:	e8 52       	subi	r30, 0x28	; 40
    1534:	f5 4c       	sbci	r31, 0xC5	; 197
    1536:	80 83       	st	Z, r24
    1538:	13 96       	adiw	r26, 0x03	; 3
    153a:	ec 91       	ld	r30, X
    153c:	f0 e0       	ldi	r31, 0x00	; 0
    153e:	e8 52       	subi	r30, 0x28	; 40
    1540:	f5 4c       	sbci	r31, 0xC5	; 197
    1542:	60 83       	st	Z, r22
    1544:	08 95       	ret

00001546 <SetHackerLeds>:
    1546:	a2 e5       	ldi	r26, 0x52	; 82
    1548:	bf eb       	ldi	r27, 0xBF	; 191
    154a:	ed 91       	ld	r30, X+
    154c:	f0 e0       	ldi	r31, 0x00	; 0
    154e:	e8 52       	subi	r30, 0x28	; 40
    1550:	f5 4c       	sbci	r31, 0xC5	; 197
    1552:	80 83       	st	Z, r24
    1554:	15 96       	adiw	r26, 0x05	; 5
    1556:	ec 91       	ld	r30, X
    1558:	15 97       	sbiw	r26, 0x05	; 5
    155a:	f0 e0       	ldi	r31, 0x00	; 0
    155c:	e8 52       	subi	r30, 0x28	; 40
    155e:	f5 4c       	sbci	r31, 0xC5	; 197
    1560:	60 83       	st	Z, r22
    1562:	9f eb       	ldi	r25, 0xBF	; 191
    1564:	a8 35       	cpi	r26, 0x58	; 88
    1566:	b9 07       	cpc	r27, r25
    1568:	81 f7       	brne	.-32     	; 0x154a <SetHackerLeds+0x4>
    156a:	08 95       	ret

0000156c <VictoryDance>:
    156c:	60 91 0c 38 	lds	r22, 0x380C	; 0x80380c <dimValue>
    1570:	80 e0       	ldi	r24, 0x00	; 0
    1572:	cd df       	rcall	.-102    	; 0x150e <SetBothEyes>
    1574:	80 91 48 01 	lds	r24, 0x0148	; 0x800148 <__TEXT_REGION_LENGTH__+0x700148>
    1578:	90 91 49 01 	lds	r25, 0x0149	; 0x800149 <__TEXT_REGION_LENGTH__+0x700149>
    157c:	89 2f       	mov	r24, r25
    157e:	99 27       	eor	r25, r25
    1580:	82 95       	swap	r24
    1582:	8f 70       	andi	r24, 0x0F	; 15
    1584:	87 70       	andi	r24, 0x07	; 7
    1586:	99 27       	eor	r25, r25
    1588:	84 30       	cpi	r24, 0x04	; 4
    158a:	91 05       	cpc	r25, r1
    158c:	59 f0       	breq	.+22     	; 0x15a4 <VictoryDance+0x38>
    158e:	28 f4       	brcc	.+10     	; 0x159a <VictoryDance+0x2e>
    1590:	03 97       	sbiw	r24, 0x03	; 3
    1592:	58 f4       	brcc	.+22     	; 0x15aa <VictoryDance+0x3e>
    1594:	88 e0       	ldi	r24, 0x08	; 8
    1596:	90 e0       	ldi	r25, 0x00	; 0
    1598:	0d c0       	rjmp	.+26     	; 0x15b4 <VictoryDance+0x48>
    159a:	06 97       	sbiw	r24, 0x06	; 6
    159c:	31 f4       	brne	.+12     	; 0x15aa <VictoryDance+0x3e>
    159e:	87 e0       	ldi	r24, 0x07	; 7
    15a0:	90 e0       	ldi	r25, 0x00	; 0
    15a2:	08 c0       	rjmp	.+16     	; 0x15b4 <VictoryDance+0x48>
    15a4:	86 e0       	ldi	r24, 0x06	; 6
    15a6:	90 e0       	ldi	r25, 0x00	; 0
    15a8:	05 c0       	rjmp	.+10     	; 0x15b4 <VictoryDance+0x48>
    15aa:	60 e0       	ldi	r22, 0x00	; 0
    15ac:	80 e0       	ldi	r24, 0x00	; 0
    15ae:	8d df       	rcall	.-230    	; 0x14ca <WingBar>
    15b0:	82 e0       	ldi	r24, 0x02	; 2
    15b2:	90 e0       	ldi	r25, 0x00	; 0
    15b4:	80 93 4a 38 	sts	0x384A, r24	; 0x80384a <effect>
    15b8:	90 93 4b 38 	sts	0x384B, r25	; 0x80384b <effect+0x1>
    15bc:	08 95       	ret

000015be <GenerateBlinks>:
    15be:	a0 e0       	ldi	r26, 0x00	; 0
    15c0:	b0 e0       	ldi	r27, 0x00	; 0
    15c2:	e5 ee       	ldi	r30, 0xE5	; 229
    15c4:	fa e0       	ldi	r31, 0x0A	; 10
    15c6:	0c 94 69 1f 	jmp	0x3ed2	; 0x3ed2 <__prologue_saves__+0x14>
    15ca:	80 91 4c 38 	lds	r24, 0x384C	; 0x80384c <gameNow>
    15ce:	88 23       	and	r24, r24
    15d0:	29 f0       	breq	.+10     	; 0x15dc <GenerateBlinks+0x1e>
    15d2:	80 e4       	ldi	r24, 0x40	; 64
    15d4:	7f de       	rcall	.-770    	; 0x12d4 <CheckState>
    15d6:	81 11       	cpse	r24, r1
    15d8:	24 c0       	rjmp	.+72     	; 0x1622 <GenerateBlinks+0x64>
    15da:	53 c0       	rjmp	.+166    	; 0x1682 <GenerateBlinks+0xc4>
    15dc:	c2 e5       	ldi	r28, 0x52	; 82
    15de:	df eb       	ldi	r29, 0xBF	; 191
    15e0:	1a e7       	ldi	r17, 0x7A	; 122
    15e2:	81 2f       	mov	r24, r17
    15e4:	77 de       	rcall	.-786    	; 0x12d4 <CheckState>
    15e6:	ee 81       	ldd	r30, Y+6	; 0x06
    15e8:	f0 e0       	ldi	r31, 0x00	; 0
    15ea:	88 23       	and	r24, r24
    15ec:	59 f0       	breq	.+22     	; 0x1604 <GenerateBlinks+0x46>
    15ee:	80 91 0c 38 	lds	r24, 0x380C	; 0x80380c <dimValue>
    15f2:	e8 52       	subi	r30, 0x28	; 40
    15f4:	f5 4c       	sbci	r31, 0xC5	; 197
    15f6:	80 83       	st	Z, r24
    15f8:	e8 81       	ld	r30, Y
    15fa:	f0 e0       	ldi	r31, 0x00	; 0
    15fc:	e8 52       	subi	r30, 0x28	; 40
    15fe:	f5 4c       	sbci	r31, 0xC5	; 197
    1600:	10 82       	st	Z, r1
    1602:	0a c0       	rjmp	.+20     	; 0x1618 <GenerateBlinks+0x5a>
    1604:	e8 52       	subi	r30, 0x28	; 40
    1606:	f5 4c       	sbci	r31, 0xC5	; 197
    1608:	10 82       	st	Z, r1
    160a:	e8 81       	ld	r30, Y
    160c:	f0 e0       	ldi	r31, 0x00	; 0
    160e:	80 91 0c 38 	lds	r24, 0x380C	; 0x80380c <dimValue>
    1612:	e8 52       	subi	r30, 0x28	; 40
    1614:	f5 4c       	sbci	r31, 0xC5	; 197
    1616:	80 83       	st	Z, r24
    1618:	1f 5f       	subi	r17, 0xFF	; 255
    161a:	21 96       	adiw	r28, 0x01	; 1
    161c:	10 38       	cpi	r17, 0x80	; 128
    161e:	09 f7       	brne	.-62     	; 0x15e2 <GenerateBlinks+0x24>
    1620:	d8 cf       	rjmp	.-80     	; 0x15d2 <GenerateBlinks+0x14>
    1622:	90 91 6b 38 	lds	r25, 0x386B	; 0x80386b <HeartCount>
    1626:	49 2f       	mov	r20, r25
    1628:	50 e0       	ldi	r21, 0x00	; 0
    162a:	80 91 41 bf 	lds	r24, 0xBF41	; 0x80bf41 <__bss_end+0x841a>
    162e:	47 30       	cpi	r20, 0x07	; 7
    1630:	51 05       	cpc	r21, r1
    1632:	d0 f4       	brcc	.+52     	; 0x1668 <GenerateBlinks+0xaa>
    1634:	fa 01       	movw	r30, r20
    1636:	e2 5c       	subi	r30, 0xC2	; 194
    1638:	ff 4f       	sbci	r31, 0xFF	; 255
    163a:	0c 94 59 1f 	jmp	0x3eb2	; 0x3eb2 <__tablejump2__>
    163e:	e8 2f       	mov	r30, r24
    1640:	f0 e0       	ldi	r31, 0x00	; 0
    1642:	80 91 0c 38 	lds	r24, 0x380C	; 0x80380c <dimValue>
    1646:	86 95       	lsr	r24
    1648:	86 95       	lsr	r24
    164a:	05 c0       	rjmp	.+10     	; 0x1656 <GenerateBlinks+0x98>
    164c:	e8 2f       	mov	r30, r24
    164e:	f0 e0       	ldi	r31, 0x00	; 0
    1650:	80 91 0c 38 	lds	r24, 0x380C	; 0x80380c <dimValue>
    1654:	86 95       	lsr	r24
    1656:	e8 52       	subi	r30, 0x28	; 40
    1658:	f5 4c       	sbci	r31, 0xC5	; 197
    165a:	80 83       	st	Z, r24
    165c:	0a c0       	rjmp	.+20     	; 0x1672 <GenerateBlinks+0xb4>
    165e:	e8 2f       	mov	r30, r24
    1660:	f0 e0       	ldi	r31, 0x00	; 0
    1662:	80 91 0c 38 	lds	r24, 0x380C	; 0x80380c <dimValue>
    1666:	f7 cf       	rjmp	.-18     	; 0x1656 <GenerateBlinks+0x98>
    1668:	e8 2f       	mov	r30, r24
    166a:	f0 e0       	ldi	r31, 0x00	; 0
    166c:	e8 52       	subi	r30, 0x28	; 40
    166e:	f5 4c       	sbci	r31, 0xC5	; 197
    1670:	10 82       	st	Z, r1
    1672:	90 32       	cpi	r25, 0x20	; 32
    1674:	20 f4       	brcc	.+8      	; 0x167e <GenerateBlinks+0xc0>
    1676:	9f 5f       	subi	r25, 0xFF	; 255
    1678:	90 93 6b 38 	sts	0x386B, r25	; 0x80386b <HeartCount>
    167c:	02 c0       	rjmp	.+4      	; 0x1682 <GenerateBlinks+0xc4>
    167e:	10 92 6b 38 	sts	0x386B, r1	; 0x80386b <HeartCount>
    1682:	90 91 6a 38 	lds	r25, 0x386A	; 0x80386a <LedCount>
    1686:	9f 5f       	subi	r25, 0xFF	; 255
    1688:	90 93 6a 38 	sts	0x386A, r25	; 0x80386a <LedCount>
    168c:	e0 91 4a 38 	lds	r30, 0x384A	; 0x80384a <effect>
    1690:	f0 91 4b 38 	lds	r31, 0x384B	; 0x80384b <effect+0x1>
    1694:	ef 71       	andi	r30, 0x1F	; 31
    1696:	ff 27       	eor	r31, r31
    1698:	e2 31       	cpi	r30, 0x12	; 18
    169a:	f1 05       	cpc	r31, r1
    169c:	08 f0       	brcs	.+2      	; 0x16a0 <GenerateBlinks+0xe2>
    169e:	eb c0       	rjmp	.+470    	; 0x1876 <GenerateBlinks+0x2b8>
    16a0:	eb 5b       	subi	r30, 0xBB	; 187
    16a2:	ff 4f       	sbci	r31, 0xFF	; 255
    16a4:	0c 94 59 1f 	jmp	0x3eb2	; 0x3eb2 <__tablejump2__>
    16a8:	60 e0       	ldi	r22, 0x00	; 0
    16aa:	80 e0       	ldi	r24, 0x00	; 0
    16ac:	30 df       	rcall	.-416    	; 0x150e <SetBothEyes>
    16ae:	80 91 4a 38 	lds	r24, 0x384A	; 0x80384a <effect>
    16b2:	90 91 4b 38 	lds	r25, 0x384B	; 0x80384b <effect+0x1>
    16b6:	84 fd       	sbrc	r24, 4
    16b8:	0a c0       	rjmp	.+20     	; 0x16ce <GenerateBlinks+0x110>
    16ba:	60 e0       	ldi	r22, 0x00	; 0
    16bc:	80 e0       	ldi	r24, 0x00	; 0
    16be:	05 df       	rcall	.-502    	; 0x14ca <WingBar>
    16c0:	e0 91 40 bf 	lds	r30, 0xBF40	; 0x80bf40 <__bss_end+0x8419>
    16c4:	f0 e0       	ldi	r31, 0x00	; 0
    16c6:	e8 52       	subi	r30, 0x28	; 40
    16c8:	f5 4c       	sbci	r31, 0xC5	; 197
    16ca:	10 82       	st	Z, r1
    16cc:	d4 c0       	rjmp	.+424    	; 0x1876 <GenerateBlinks+0x2b8>
    16ce:	8f e1       	ldi	r24, 0x1F	; 31
    16d0:	90 e0       	ldi	r25, 0x00	; 0
    16d2:	80 93 4a 38 	sts	0x384A, r24	; 0x80384a <effect>
    16d6:	90 93 4b 38 	sts	0x384B, r25	; 0x80384b <effect+0x1>
    16da:	cd c0       	rjmp	.+410    	; 0x1876 <GenerateBlinks+0x2b8>
    16dc:	89 2f       	mov	r24, r25
    16de:	81 70       	andi	r24, 0x01	; 1
    16e0:	90 fd       	sbrc	r25, 0
    16e2:	80 91 0c 38 	lds	r24, 0x380C	; 0x80380c <dimValue>
    16e6:	60 e0       	ldi	r22, 0x00	; 0
    16e8:	12 df       	rcall	.-476    	; 0x150e <SetBothEyes>
    16ea:	80 91 4a 38 	lds	r24, 0x384A	; 0x80384a <effect>
    16ee:	90 91 4b 38 	lds	r25, 0x384B	; 0x80384b <effect+0x1>
    16f2:	84 ff       	sbrs	r24, 4
    16f4:	c0 c0       	rjmp	.+384    	; 0x1876 <GenerateBlinks+0x2b8>
    16f6:	80 91 0c 38 	lds	r24, 0x380C	; 0x80380c <dimValue>
    16fa:	60 e0       	ldi	r22, 0x00	; 0
    16fc:	24 df       	rcall	.-440    	; 0x1546 <SetHackerLeds>
    16fe:	bb c0       	rjmp	.+374    	; 0x1876 <GenerateBlinks+0x2b8>
    1700:	69 2f       	mov	r22, r25
    1702:	70 e0       	ldi	r23, 0x00	; 0
    1704:	93 ff       	sbrs	r25, 3
    1706:	02 c0       	rjmp	.+4      	; 0x170c <GenerateBlinks+0x14e>
    1708:	60 95       	com	r22
    170a:	70 95       	com	r23
    170c:	95 e0       	ldi	r25, 0x05	; 5
    170e:	66 0f       	add	r22, r22
    1710:	77 1f       	adc	r23, r23
    1712:	9a 95       	dec	r25
    1714:	e1 f7       	brne	.-8      	; 0x170e <GenerateBlinks+0x150>
    1716:	61 5e       	subi	r22, 0xE1	; 225
    1718:	80 e0       	ldi	r24, 0x00	; 0
    171a:	f9 de       	rcall	.-526    	; 0x150e <SetBothEyes>
    171c:	ac c0       	rjmp	.+344    	; 0x1876 <GenerateBlinks+0x2b8>
    171e:	89 2f       	mov	r24, r25
    1720:	83 70       	andi	r24, 0x03	; 3
    1722:	09 f0       	breq	.+2      	; 0x1726 <GenerateBlinks+0x168>
    1724:	a8 c0       	rjmp	.+336    	; 0x1876 <GenerateBlinks+0x2b8>
    1726:	92 ff       	sbrs	r25, 2
    1728:	03 c0       	rjmp	.+6      	; 0x1730 <GenerateBlinks+0x172>
    172a:	65 e0       	ldi	r22, 0x05	; 5
    172c:	85 e0       	ldi	r24, 0x05	; 5
    172e:	02 c0       	rjmp	.+4      	; 0x1734 <GenerateBlinks+0x176>
    1730:	60 e0       	ldi	r22, 0x00	; 0
    1732:	80 e0       	ldi	r24, 0x00	; 0
    1734:	ca de       	rcall	.-620    	; 0x14ca <WingBar>
    1736:	9f c0       	rjmp	.+318    	; 0x1876 <GenerateBlinks+0x2b8>
    1738:	95 30       	cpi	r25, 0x05	; 5
    173a:	10 f0       	brcs	.+4      	; 0x1740 <GenerateBlinks+0x182>
    173c:	10 92 6a 38 	sts	0x386A, r1	; 0x80386a <LedCount>
    1740:	40 91 6a 38 	lds	r20, 0x386A	; 0x80386a <LedCount>
    1744:	24 2f       	mov	r18, r20
    1746:	30 e0       	ldi	r19, 0x00	; 0
    1748:	f9 01       	movw	r30, r18
    174a:	ec 5b       	subi	r30, 0xBC	; 188
    174c:	f0 44       	sbci	r31, 0x40	; 64
    174e:	e5 81       	ldd	r30, Z+5	; 0x05
    1750:	f0 e0       	ldi	r31, 0x00	; 0
    1752:	e8 52       	subi	r30, 0x28	; 40
    1754:	f5 4c       	sbci	r31, 0xC5	; 197
    1756:	10 82       	st	Z, r1
    1758:	44 30       	cpi	r20, 0x04	; 4
    175a:	19 f0       	breq	.+6      	; 0x1762 <GenerateBlinks+0x1a4>
    175c:	c9 01       	movw	r24, r18
    175e:	01 96       	adiw	r24, 0x01	; 1
    1760:	02 c0       	rjmp	.+4      	; 0x1766 <GenerateBlinks+0x1a8>
    1762:	80 e0       	ldi	r24, 0x00	; 0
    1764:	90 e0       	ldi	r25, 0x00	; 0
    1766:	fc 01       	movw	r30, r24
    1768:	ec 5b       	subi	r30, 0xBC	; 188
    176a:	f0 44       	sbci	r31, 0x40	; 64
    176c:	e5 81       	ldd	r30, Z+5	; 0x05
    176e:	f0 e0       	ldi	r31, 0x00	; 0
    1770:	80 91 0c 38 	lds	r24, 0x380C	; 0x80380c <dimValue>
    1774:	e8 52       	subi	r30, 0x28	; 40
    1776:	f5 4c       	sbci	r31, 0xC5	; 197
    1778:	80 83       	st	Z, r24
    177a:	e8 e4       	ldi	r30, 0x48	; 72
    177c:	ff eb       	ldi	r31, 0xBF	; 191
    177e:	e2 1b       	sub	r30, r18
    1780:	f3 0b       	sbc	r31, r19
    1782:	e0 81       	ld	r30, Z
    1784:	f0 e0       	ldi	r31, 0x00	; 0
    1786:	e8 52       	subi	r30, 0x28	; 40
    1788:	f5 4c       	sbci	r31, 0xC5	; 197
    178a:	10 82       	st	Z, r1
    178c:	44 30       	cpi	r20, 0x04	; 4
    178e:	29 f0       	breq	.+10     	; 0x179a <GenerateBlinks+0x1dc>
    1790:	83 e0       	ldi	r24, 0x03	; 3
    1792:	90 e0       	ldi	r25, 0x00	; 0
    1794:	82 1b       	sub	r24, r18
    1796:	93 0b       	sbc	r25, r19
    1798:	02 c0       	rjmp	.+4      	; 0x179e <GenerateBlinks+0x1e0>
    179a:	84 e0       	ldi	r24, 0x04	; 4
    179c:	90 e0       	ldi	r25, 0x00	; 0
    179e:	fc 01       	movw	r30, r24
    17a0:	ec 5b       	subi	r30, 0xBC	; 188
    17a2:	f0 44       	sbci	r31, 0x40	; 64
    17a4:	e0 81       	ld	r30, Z
    17a6:	f0 e0       	ldi	r31, 0x00	; 0
    17a8:	80 91 0c 38 	lds	r24, 0x380C	; 0x80380c <dimValue>
    17ac:	e8 52       	subi	r30, 0x28	; 40
    17ae:	f5 4c       	sbci	r31, 0xC5	; 197
    17b0:	80 83       	st	Z, r24
    17b2:	61 c0       	rjmp	.+194    	; 0x1876 <GenerateBlinks+0x2b8>
    17b4:	c4 e4       	ldi	r28, 0x44	; 68
    17b6:	df eb       	ldi	r29, 0xBF	; 191
    17b8:	89 e4       	ldi	r24, 0x49	; 73
    17ba:	e8 2e       	mov	r14, r24
    17bc:	8f eb       	ldi	r24, 0xBF	; 191
    17be:	f8 2e       	mov	r15, r24
    17c0:	6e 01       	movw	r12, r28
    17c2:	0d 81       	ldd	r16, Y+5	; 0x05
    17c4:	10 e0       	ldi	r17, 0x00	; 0
    17c6:	5f dc       	rcall	.-1858   	; 0x1086 <lfsr>
    17c8:	87 ff       	sbrs	r24, 7
    17ca:	03 c0       	rjmp	.+6      	; 0x17d2 <GenerateBlinks+0x214>
    17cc:	80 91 0c 38 	lds	r24, 0x380C	; 0x80380c <dimValue>
    17d0:	01 c0       	rjmp	.+2      	; 0x17d4 <GenerateBlinks+0x216>
    17d2:	80 e0       	ldi	r24, 0x00	; 0
    17d4:	f8 01       	movw	r30, r16
    17d6:	e8 52       	subi	r30, 0x28	; 40
    17d8:	f5 4c       	sbci	r31, 0xC5	; 197
    17da:	80 83       	st	Z, r24
    17dc:	21 96       	adiw	r28, 0x01	; 1
    17de:	f6 01       	movw	r30, r12
    17e0:	00 81       	ld	r16, Z
    17e2:	10 e0       	ldi	r17, 0x00	; 0
    17e4:	50 dc       	rcall	.-1888   	; 0x1086 <lfsr>
    17e6:	87 ff       	sbrs	r24, 7
    17e8:	03 c0       	rjmp	.+6      	; 0x17f0 <GenerateBlinks+0x232>
    17ea:	80 91 0c 38 	lds	r24, 0x380C	; 0x80380c <dimValue>
    17ee:	01 c0       	rjmp	.+2      	; 0x17f2 <GenerateBlinks+0x234>
    17f0:	80 e0       	ldi	r24, 0x00	; 0
    17f2:	f8 01       	movw	r30, r16
    17f4:	e8 52       	subi	r30, 0x28	; 40
    17f6:	f5 4c       	sbci	r31, 0xC5	; 197
    17f8:	80 83       	st	Z, r24
    17fa:	ec 16       	cp	r14, r28
    17fc:	fd 06       	cpc	r15, r29
    17fe:	01 f7       	brne	.-64     	; 0x17c0 <GenerateBlinks+0x202>
    1800:	3a c0       	rjmp	.+116    	; 0x1876 <GenerateBlinks+0x2b8>
    1802:	90 fd       	sbrc	r25, 0
    1804:	38 c0       	rjmp	.+112    	; 0x1876 <GenerateBlinks+0x2b8>
    1806:	e4 e4       	ldi	r30, 0x44	; 68
    1808:	ff eb       	ldi	r31, 0xBF	; 191
    180a:	88 e4       	ldi	r24, 0x48	; 72
    180c:	9f eb       	ldi	r25, 0xBF	; 191
    180e:	9f 01       	movw	r18, r30
    1810:	a5 81       	ldd	r26, Z+5	; 0x05
    1812:	b0 e0       	ldi	r27, 0x00	; 0
    1814:	c6 81       	ldd	r28, Z+6	; 0x06
    1816:	d0 e0       	ldi	r29, 0x00	; 0
    1818:	c8 52       	subi	r28, 0x28	; 40
    181a:	d5 4c       	sbci	r29, 0xC5	; 197
    181c:	48 81       	ld	r20, Y
    181e:	a8 52       	subi	r26, 0x28	; 40
    1820:	b5 4c       	sbci	r27, 0xC5	; 197
    1822:	4c 93       	st	X, r20
    1824:	31 96       	adiw	r30, 0x01	; 1
    1826:	e9 01       	movw	r28, r18
    1828:	a8 81       	ld	r26, Y
    182a:	b0 e0       	ldi	r27, 0x00	; 0
    182c:	c0 81       	ld	r28, Z
    182e:	d0 e0       	ldi	r29, 0x00	; 0
    1830:	c8 52       	subi	r28, 0x28	; 40
    1832:	d5 4c       	sbci	r29, 0xC5	; 197
    1834:	28 81       	ld	r18, Y
    1836:	a8 52       	subi	r26, 0x28	; 40
    1838:	b5 4c       	sbci	r27, 0xC5	; 197
    183a:	2c 93       	st	X, r18
    183c:	8e 17       	cp	r24, r30
    183e:	9f 07       	cpc	r25, r31
    1840:	31 f7       	brne	.-52     	; 0x180e <GenerateBlinks+0x250>
    1842:	c0 91 4d bf 	lds	r28, 0xBF4D	; 0x80bf4d <__bss_end+0x8426>
    1846:	d0 e0       	ldi	r29, 0x00	; 0
    1848:	1e dc       	rcall	.-1988   	; 0x1086 <lfsr>
    184a:	81 3e       	cpi	r24, 0xE1	; 225
    184c:	18 f0       	brcs	.+6      	; 0x1854 <GenerateBlinks+0x296>
    184e:	80 91 0c 38 	lds	r24, 0x380C	; 0x80380c <dimValue>
    1852:	01 c0       	rjmp	.+2      	; 0x1856 <GenerateBlinks+0x298>
    1854:	80 e0       	ldi	r24, 0x00	; 0
    1856:	c8 52       	subi	r28, 0x28	; 40
    1858:	d5 4c       	sbci	r29, 0xC5	; 197
    185a:	88 83       	st	Y, r24
    185c:	c0 91 48 bf 	lds	r28, 0xBF48	; 0x80bf48 <__bss_end+0x8421>
    1860:	d0 e0       	ldi	r29, 0x00	; 0
    1862:	11 dc       	rcall	.-2014   	; 0x1086 <lfsr>
    1864:	81 3e       	cpi	r24, 0xE1	; 225
    1866:	18 f0       	brcs	.+6      	; 0x186e <GenerateBlinks+0x2b0>
    1868:	80 91 0c 38 	lds	r24, 0x380C	; 0x80380c <dimValue>
    186c:	01 c0       	rjmp	.+2      	; 0x1870 <GenerateBlinks+0x2b2>
    186e:	80 e0       	ldi	r24, 0x00	; 0
    1870:	c8 52       	subi	r28, 0x28	; 40
    1872:	d5 4c       	sbci	r29, 0xC5	; 197
    1874:	88 83       	st	Y, r24
    1876:	cd b7       	in	r28, 0x3d	; 61
    1878:	de b7       	in	r29, 0x3e	; 62
    187a:	e8 e0       	ldi	r30, 0x08	; 8
    187c:	0c 94 82 1f 	jmp	0x3f04	; 0x3f04 <__epilogue_restores__+0x14>

00001880 <FadeOut>:
    1880:	80 95       	com	r24
    1882:	20 91 54 38 	lds	r18, 0x3854	; 0x803854 <fastTicker>
    1886:	30 e0       	ldi	r19, 0x00	; 0
    1888:	87 70       	andi	r24, 0x07	; 7
    188a:	a9 01       	movw	r20, r18
    188c:	02 c0       	rjmp	.+4      	; 0x1892 <FadeOut+0x12>
    188e:	55 95       	asr	r21
    1890:	47 95       	ror	r20
    1892:	8a 95       	dec	r24
    1894:	e2 f7       	brpl	.-8      	; 0x188e <FadeOut+0xe>
    1896:	ca 01       	movw	r24, r20
    1898:	44 23       	and	r20, r20
    189a:	01 f1       	breq	.+64     	; 0x18dc <FadeOut+0x5c>
    189c:	30 91 ca 3a 	lds	r19, 0x3ACA	; 0x803aca <auVolume>
    18a0:	43 17       	cp	r20, r19
    18a2:	30 f4       	brcc	.+12     	; 0x18b0 <FadeOut+0x30>
    18a4:	90 91 ca 3a 	lds	r25, 0x3ACA	; 0x803aca <auVolume>
    18a8:	98 1b       	sub	r25, r24
    18aa:	90 93 ca 3a 	sts	0x3ACA, r25	; 0x803aca <auVolume>
    18ae:	14 c0       	rjmp	.+40     	; 0x18d8 <FadeOut+0x58>
    18b0:	10 92 ca 3a 	sts	0x3ACA, r1	; 0x803aca <auVolume>
    18b4:	66 23       	and	r22, r22
    18b6:	81 f0       	breq	.+32     	; 0x18d8 <FadeOut+0x58>
    18b8:	89 e4       	ldi	r24, 0x49	; 73
    18ba:	98 e3       	ldi	r25, 0x38	; 56
    18bc:	80 93 03 38 	sts	0x3803, r24	; 0x803803 <auRepAddr>
    18c0:	90 93 04 38 	sts	0x3804, r25	; 0x803804 <auRepAddr+0x1>
    18c4:	80 91 4a 38 	lds	r24, 0x384A	; 0x80384a <effect>
    18c8:	90 91 4b 38 	lds	r25, 0x384B	; 0x80384b <effect+0x1>
    18cc:	8f 71       	andi	r24, 0x1F	; 31
    18ce:	99 27       	eor	r25, r25
    18d0:	80 93 4a 38 	sts	0x384A, r24	; 0x80384a <effect>
    18d4:	90 93 4b 38 	sts	0x384B, r25	; 0x80384b <effect+0x1>
    18d8:	10 92 54 38 	sts	0x3854, r1	; 0x803854 <fastTicker>
    18dc:	08 95       	ret

000018de <GenerateAudio>:

uint8_t GenerateAudio(){
    18de:	0f 93       	push	r16
    18e0:	1f 93       	push	r17
    18e2:	cf 93       	push	r28
    18e4:	df 93       	push	r29
    static uint8_t start = 0;
    static uint8_t duration;

    //Headphones detected?
    if (auIn < HPLVL) {
    18e6:	80 91 d7 3a 	lds	r24, 0x3AD7	; 0x803ad7 <auIn>
    18ea:	89 31       	cpi	r24, 0x19	; 25
    18ec:	08 f0       	brcs	.+2      	; 0x18f0 <GenerateAudio+0x12>
    18ee:	ca c1       	rjmp	.+916    	; 0x1c84 <GenerateAudio+0x3a6>

        detHdPh = 1;
    18f0:	c1 e0       	ldi	r28, 0x01	; 1
    18f2:	c0 93 d4 3a 	sts	0x3AD4, r28	; 0x803ad4 <detHdPh>

        //Audio for text adventure
        if ((effect&0xff00)==0) {
    18f6:	80 91 4a 38 	lds	r24, 0x384A	; 0x80384a <effect>
    18fa:	90 91 4b 38 	lds	r25, 0x384B	; 0x80384b <effect+0x1>
    18fe:	88 27       	eor	r24, r24
    1900:	89 2b       	or	r24, r25
    1902:	09 f0       	breq	.+2      	; 0x1906 <GenerateAudio+0x28>
    1904:	75 c1       	rjmp	.+746    	; 0x1bf0 <GenerateAudio+0x312>
        
            //Silence, I kill u
            if ((effect&0xE0)==0){
    1906:	80 91 4a 38 	lds	r24, 0x384A	; 0x80384a <effect>
    190a:	90 91 4b 38 	lds	r25, 0x384B	; 0x80384b <effect+0x1>
    190e:	80 7e       	andi	r24, 0xE0	; 224
    1910:	99 27       	eor	r25, r25
    1912:	89 2b       	or	r24, r25
    1914:	39 f4       	brne	.+14     	; 0x1924 <GenerateAudio+0x46>
                auRepAddr = &zero;
    1916:	89 e4       	ldi	r24, 0x49	; 73
    1918:	98 e3       	ldi	r25, 0x38	; 56
    191a:	80 93 03 38 	sts	0x3803, r24	; 0x803803 <auRepAddr>
    191e:	90 93 04 38 	sts	0x3804, r25	; 0x803804 <auRepAddr+0x1>
    1922:	63 c1       	rjmp	.+710    	; 0x1bea <GenerateAudio+0x30c>
                start = 0;
            }

            //Bad answer (buzzer, also used in other games)
            else if ((effect&0xE0)==32){
    1924:	80 91 4a 38 	lds	r24, 0x384A	; 0x80384a <effect>
    1928:	90 91 4b 38 	lds	r25, 0x384B	; 0x80384b <effect+0x1>
    192c:	80 7e       	andi	r24, 0xE0	; 224
    192e:	99 27       	eor	r25, r25
    1930:	80 97       	sbiw	r24, 0x20	; 32
    1932:	61 f5       	brne	.+88     	; 0x198c <GenerateAudio+0xae>
                static uint8_t auBuffer[17] = {1, 255, 128, 128, 192, 255, 64, 255, 192, 128, 64, 1, 192, 1, 64, 128, 0}; 
                auBuffer[2] = floatAround(0x80, 5, 0x01, 0x00);
    1934:	20 e0       	ldi	r18, 0x00	; 0
    1936:	41 e0       	ldi	r20, 0x01	; 1
    1938:	65 e0       	ldi	r22, 0x05	; 5
    193a:	80 e8       	ldi	r24, 0x80	; 128
    193c:	f1 db       	rcall	.-2078   	; 0x1120 <floatAround>
    193e:	80 93 25 38 	sts	0x3825, r24	; 0x803825 <auBuffer.4058+0x2>

                if (start == 0) {
    1942:	80 91 68 38 	lds	r24, 0x3868	; 0x803868 <start.4056>
    1946:	81 11       	cpse	r24, r1
    1948:	14 c0       	rjmp	.+40     	; 0x1972 <GenerateAudio+0x94>
    //}
}

uint8_t Play(uint8_t * auBuffer, uint8_t repeat, uint16_t pitch, uint8_t volume)
{
    TCB1_CCMP = pitch;
    194a:	80 e0       	ldi	r24, 0x00	; 0
    194c:	91 e2       	ldi	r25, 0x21	; 33
    194e:	80 93 5c 0a 	sts	0x0A5C, r24	; 0x800a5c <__TEXT_REGION_LENGTH__+0x700a5c>
    1952:	90 93 5d 0a 	sts	0x0A5D, r25	; 0x800a5d <__TEXT_REGION_LENGTH__+0x700a5d>
    if (repeat) auRepAddr = auBuffer;
    1956:	83 e2       	ldi	r24, 0x23	; 35
    1958:	98 e3       	ldi	r25, 0x38	; 56
    195a:	80 93 03 38 	sts	0x3803, r24	; 0x803803 <auRepAddr>
    195e:	90 93 04 38 	sts	0x3804, r25	; 0x803804 <auRepAddr+0x1>
    else auSmpAddr = auBuffer;
    auVolume = volume;
    1962:	8f ef       	ldi	r24, 0xFF	; 255
    1964:	80 93 ca 3a 	sts	0x3ACA, r24	; 0x803aca <auVolume>
            else if ((effect&0xE0)==32){
                static uint8_t auBuffer[17] = {1, 255, 128, 128, 192, 255, 64, 255, 192, 128, 64, 1, 192, 1, 64, 128, 0}; 
                auBuffer[2] = floatAround(0x80, 5, 0x01, 0x00);

                if (start == 0) {
                    start = Play(&auBuffer[0], 1, 0x2100, 0xff);
    1968:	c0 93 68 38 	sts	0x3868, r28	; 0x803868 <start.4056>
                    duration = 8;
    196c:	88 e0       	ldi	r24, 0x08	; 8
    196e:	80 93 67 38 	sts	0x3867, r24	; 0x803867 <duration.4057>
                }

                if (duration == 0) FadeOut(4, start);
    1972:	80 91 67 38 	lds	r24, 0x3867	; 0x803867 <duration.4057>
    1976:	81 11       	cpse	r24, r1
    1978:	04 c0       	rjmp	.+8      	; 0x1982 <GenerateAudio+0xa4>
    197a:	60 91 68 38 	lds	r22, 0x3868	; 0x803868 <start.4056>
    197e:	84 e0       	ldi	r24, 0x04	; 4
    1980:	7f df       	rcall	.-258    	; 0x1880 <FadeOut>
                floatSpeed(1, 0x2000, 0x2200);
    1982:	40 e0       	ldi	r20, 0x00	; 0
    1984:	52 e2       	ldi	r21, 0x22	; 34
    1986:	60 e0       	ldi	r22, 0x00	; 0
    1988:	70 e2       	ldi	r23, 0x20	; 32
    198a:	79 c1       	rjmp	.+754    	; 0x1c7e <GenerateAudio+0x3a0>
            }

            //Good (bell)
            else if ((effect&0xE0)==64){   //64
    198c:	80 91 4a 38 	lds	r24, 0x384A	; 0x80384a <effect>
    1990:	90 91 4b 38 	lds	r25, 0x384B	; 0x80384b <effect+0x1>
    1994:	80 7e       	andi	r24, 0xE0	; 224
    1996:	99 27       	eor	r25, r25
    1998:	80 34       	cpi	r24, 0x40	; 64
    199a:	91 05       	cpc	r25, r1
    199c:	c1 f5       	brne	.+112    	; 0x1a0e <GenerateAudio+0x130>
                static uint8_t auBuffer[3] = {255, 1, 0};

                if (start == 0) {
    199e:	80 91 68 38 	lds	r24, 0x3868	; 0x803868 <start.4056>
    19a2:	81 11       	cpse	r24, r1
    19a4:	14 c0       	rjmp	.+40     	; 0x19ce <GenerateAudio+0xf0>
    //}
}

uint8_t Play(uint8_t * auBuffer, uint8_t repeat, uint16_t pitch, uint8_t volume)
{
    TCB1_CCMP = pitch;
    19a6:	80 e0       	ldi	r24, 0x00	; 0
    19a8:	9a e0       	ldi	r25, 0x0A	; 10
    19aa:	80 93 5c 0a 	sts	0x0A5C, r24	; 0x800a5c <__TEXT_REGION_LENGTH__+0x700a5c>
    19ae:	90 93 5d 0a 	sts	0x0A5D, r25	; 0x800a5d <__TEXT_REGION_LENGTH__+0x700a5d>
    if (repeat) auRepAddr = auBuffer;
    19b2:	80 e2       	ldi	r24, 0x20	; 32
    19b4:	98 e3       	ldi	r25, 0x38	; 56
    19b6:	80 93 03 38 	sts	0x3803, r24	; 0x803803 <auRepAddr>
    19ba:	90 93 04 38 	sts	0x3804, r25	; 0x803804 <auRepAddr+0x1>
    else auSmpAddr = auBuffer;
    auVolume = volume;
    19be:	8f ef       	ldi	r24, 0xFF	; 255
    19c0:	80 93 ca 3a 	sts	0x3ACA, r24	; 0x803aca <auVolume>
            //Good (bell)
            else if ((effect&0xE0)==64){   //64
                static uint8_t auBuffer[3] = {255, 1, 0};

                if (start == 0) {
                    start = Play(&auBuffer[0], 1, 0x0a00, 0xff);
    19c4:	c0 93 68 38 	sts	0x3868, r28	; 0x803868 <start.4056>
                    duration = 6;
    19c8:	86 e0       	ldi	r24, 0x06	; 6
    19ca:	80 93 67 38 	sts	0x3867, r24	; 0x803867 <duration.4057>
                }

                if (duration == 0) FadeOut(4, start);
    19ce:	80 91 67 38 	lds	r24, 0x3867	; 0x803867 <duration.4057>
    19d2:	81 11       	cpse	r24, r1
    19d4:	04 c0       	rjmp	.+8      	; 0x19de <GenerateAudio+0x100>
    19d6:	60 91 68 38 	lds	r22, 0x3868	; 0x803868 <start.4056>
    19da:	84 e0       	ldi	r24, 0x04	; 4
    19dc:	51 df       	rcall	.-350    	; 0x1880 <FadeOut>
                if (buttonMark){
    19de:	80 91 52 38 	lds	r24, 0x3852	; 0x803852 <buttonMark>
    19e2:	88 23       	and	r24, r24
    19e4:	09 f4       	brne	.+2      	; 0x19e8 <GenerateAudio+0x10a>
    19e6:	50 c1       	rjmp	.+672    	; 0x1c88 <GenerateAudio+0x3aa>
                    TCB1_CCMP -= 0x080;                    
    19e8:	80 91 5c 0a 	lds	r24, 0x0A5C	; 0x800a5c <__TEXT_REGION_LENGTH__+0x700a5c>
    19ec:	90 91 5d 0a 	lds	r25, 0x0A5D	; 0x800a5d <__TEXT_REGION_LENGTH__+0x700a5d>
    19f0:	80 58       	subi	r24, 0x80	; 128
    19f2:	91 09       	sbc	r25, r1
    19f4:	80 93 5c 0a 	sts	0x0A5C, r24	; 0x800a5c <__TEXT_REGION_LENGTH__+0x700a5c>
    19f8:	90 93 5d 0a 	sts	0x0A5D, r25	; 0x800a5d <__TEXT_REGION_LENGTH__+0x700a5d>
                    if (auVolume == 0) effect = 0;
    19fc:	80 91 ca 3a 	lds	r24, 0x3ACA	; 0x803aca <auVolume>
    1a00:	81 11       	cpse	r24, r1
    1a02:	42 c1       	rjmp	.+644    	; 0x1c88 <GenerateAudio+0x3aa>
    1a04:	10 92 4a 38 	sts	0x384A, r1	; 0x80384a <effect>
    1a08:	10 92 4b 38 	sts	0x384B, r1	; 0x80384b <effect+0x1>
    1a0c:	3d c1       	rjmp	.+634    	; 0x1c88 <GenerateAudio+0x3aa>
                }
            }

            //Rain storm with whistling wind and ghostly 
            else if (((effect&0xE0)==128)||((effect&0xE0)==96)){
    1a0e:	80 91 4a 38 	lds	r24, 0x384A	; 0x80384a <effect>
    1a12:	90 91 4b 38 	lds	r25, 0x384B	; 0x80384b <effect+0x1>
    1a16:	80 7e       	andi	r24, 0xE0	; 224
    1a18:	99 27       	eor	r25, r25
    1a1a:	80 38       	cpi	r24, 0x80	; 128
    1a1c:	91 05       	cpc	r25, r1
    1a1e:	51 f0       	breq	.+20     	; 0x1a34 <GenerateAudio+0x156>
    1a20:	80 91 4a 38 	lds	r24, 0x384A	; 0x80384a <effect>
    1a24:	90 91 4b 38 	lds	r25, 0x384B	; 0x80384b <effect+0x1>
    1a28:	80 7e       	andi	r24, 0xE0	; 224
    1a2a:	99 27       	eor	r25, r25
    1a2c:	80 36       	cpi	r24, 0x60	; 96
    1a2e:	91 05       	cpc	r25, r1
    1a30:	09 f0       	breq	.+2      	; 0x1a34 <GenerateAudio+0x156>
    1a32:	55 c0       	rjmp	.+170    	; 0x1ade <GenerateAudio+0x200>
                static uint8_t auBuffer[7];
                auBuffer[6]= 0;        
    1a34:	10 92 66 38 	sts	0x3866, r1	; 0x803866 <auBuffer.4060+0x6>
                auRepAddr = &auBuffer[0];
    1a38:	80 e6       	ldi	r24, 0x60	; 96
    1a3a:	98 e3       	ldi	r25, 0x38	; 56
    1a3c:	80 93 03 38 	sts	0x3803, r24	; 0x803803 <auRepAddr>
    1a40:	90 93 04 38 	sts	0x3804, r25	; 0x803804 <auRepAddr+0x1>
    1a44:	8c 01       	movw	r16, r24

                //Noise is to be generated fast, outside of buttonMark loop
                for (uint8_t x=1; x<6; ++x){
    1a46:	c1 e0       	ldi	r28, 0x01	; 1
                    if ((x>0) && (x!=3)) {
                        auBuffer[x] = floatAround(0x80, 6-((effect&0xa0)>>5), 0x01, 0x00);
    1a48:	d6 e0       	ldi	r29, 0x06	; 6
                auBuffer[6]= 0;        
                auRepAddr = &auBuffer[0];

                //Noise is to be generated fast, outside of buttonMark loop
                for (uint8_t x=1; x<6; ++x){
                    if ((x>0) && (x!=3)) {
    1a4a:	c3 30       	cpi	r28, 0x03	; 3
    1a4c:	99 f0       	breq	.+38     	; 0x1a74 <GenerateAudio+0x196>
                        auBuffer[x] = floatAround(0x80, 6-((effect&0xa0)>>5), 0x01, 0x00);
    1a4e:	80 91 4a 38 	lds	r24, 0x384A	; 0x80384a <effect>
    1a52:	90 91 4b 38 	lds	r25, 0x384B	; 0x80384b <effect+0x1>
    1a56:	80 7a       	andi	r24, 0xA0	; 160
    1a58:	99 27       	eor	r25, r25
    1a5a:	35 e0       	ldi	r19, 0x05	; 5
    1a5c:	96 95       	lsr	r25
    1a5e:	87 95       	ror	r24
    1a60:	3a 95       	dec	r19
    1a62:	e1 f7       	brne	.-8      	; 0x1a5c <GenerateAudio+0x17e>
    1a64:	6d 2f       	mov	r22, r29
    1a66:	68 1b       	sub	r22, r24
    1a68:	20 e0       	ldi	r18, 0x00	; 0
    1a6a:	41 e0       	ldi	r20, 0x01	; 1
    1a6c:	80 e8       	ldi	r24, 0x80	; 128
    1a6e:	58 db       	rcall	.-2384   	; 0x1120 <floatAround>
    1a70:	f8 01       	movw	r30, r16
    1a72:	81 83       	std	Z+1, r24	; 0x01
                static uint8_t auBuffer[7];
                auBuffer[6]= 0;        
                auRepAddr = &auBuffer[0];

                //Noise is to be generated fast, outside of buttonMark loop
                for (uint8_t x=1; x<6; ++x){
    1a74:	cf 5f       	subi	r28, 0xFF	; 255
    1a76:	0f 5f       	subi	r16, 0xFF	; 255
    1a78:	1f 4f       	sbci	r17, 0xFF	; 255
    1a7a:	c6 30       	cpi	r28, 0x06	; 6
    1a7c:	31 f7       	brne	.-52     	; 0x1a4a <GenerateAudio+0x16c>
                    if ((x>0) && (x!=3)) {
                        auBuffer[x] = floatAround(0x80, 6-((effect&0xa0)>>5), 0x01, 0x00);
                    }
                }

                if (buttonMark){
    1a7e:	80 91 52 38 	lds	r24, 0x3852	; 0x803852 <buttonMark>
    1a82:	88 23       	and	r24, r24
    1a84:	09 f4       	brne	.+2      	; 0x1a88 <GenerateAudio+0x1aa>
    1a86:	00 c1       	rjmp	.+512    	; 0x1c88 <GenerateAudio+0x3aa>
                    //"Floating" speed for howl (and noise, but that's hardly audible)
                    if (effect & 128) floatSpeed(6, 0x0800, 0x2000); 
    1a88:	80 91 4a 38 	lds	r24, 0x384A	; 0x80384a <effect>
    1a8c:	90 91 4b 38 	lds	r25, 0x384B	; 0x80384b <effect+0x1>
    1a90:	87 ff       	sbrs	r24, 7
    1a92:	06 c0       	rjmp	.+12     	; 0x1aa0 <GenerateAudio+0x1c2>
    1a94:	40 e0       	ldi	r20, 0x00	; 0
    1a96:	50 e2       	ldi	r21, 0x20	; 32
    1a98:	60 e0       	ldi	r22, 0x00	; 0
    1a9a:	78 e0       	ldi	r23, 0x08	; 8
    1a9c:	86 e0       	ldi	r24, 0x06	; 6
    1a9e:	05 c0       	rjmp	.+10     	; 0x1aaa <GenerateAudio+0x1cc>
                    else              floatSpeed(5, 0x0280, 0x0400);
    1aa0:	40 e0       	ldi	r20, 0x00	; 0
    1aa2:	54 e0       	ldi	r21, 0x04	; 4
    1aa4:	60 e8       	ldi	r22, 0x80	; 128
    1aa6:	72 e0       	ldi	r23, 0x02	; 2
    1aa8:	85 e0       	ldi	r24, 0x05	; 5
    1aaa:	0c db       	rcall	.-2536   	; 0x10c4 <floatSpeed>
            
                    //"Floating" volume and wind howl during 8 bit rainstorm needs some randomness
                    auVolume = floatAround(auVolume, 2, 0x10, 0xA0);
    1aac:	80 91 ca 3a 	lds	r24, 0x3ACA	; 0x803aca <auVolume>
    1ab0:	20 ea       	ldi	r18, 0xA0	; 160
    1ab2:	40 e1       	ldi	r20, 0x10	; 16
    1ab4:	62 e0       	ldi	r22, 0x02	; 2
    1ab6:	34 db       	rcall	.-2456   	; 0x1120 <floatAround>
    1ab8:	80 93 ca 3a 	sts	0x3ACA, r24	; 0x803aca <auVolume>
                    auBuffer[0] = floatAround(auBuffer[0], 2, 0xD0-effect, 0x90);
    1abc:	80 91 4a 38 	lds	r24, 0x384A	; 0x80384a <effect>
    1ac0:	90 91 4b 38 	lds	r25, 0x384B	; 0x80384b <effect+0x1>
    1ac4:	40 ed       	ldi	r20, 0xD0	; 208
    1ac6:	48 1b       	sub	r20, r24
    1ac8:	20 e9       	ldi	r18, 0x90	; 144
    1aca:	62 e0       	ldi	r22, 0x02	; 2
    1acc:	80 91 60 38 	lds	r24, 0x3860	; 0x803860 <auBuffer.4060>
    1ad0:	27 db       	rcall	.-2482   	; 0x1120 <floatAround>
    1ad2:	80 93 60 38 	sts	0x3860, r24	; 0x803860 <auBuffer.4060>
                    auBuffer[3] = 0xFF-auBuffer[0];  //Inverse value of wind[0] produces a whistle
    1ad6:	80 95       	com	r24
    1ad8:	80 93 63 38 	sts	0x3863, r24	; 0x803863 <auBuffer.4060+0x3>
    1adc:	d5 c0       	rjmp	.+426    	; 0x1c88 <GenerateAudio+0x3aa>
                }
            }

            //AAAhhhh failed sound effect, too tired...
            else if ((effect&0xE0)==192){ //128//192
    1ade:	80 91 4a 38 	lds	r24, 0x384A	; 0x80384a <effect>
    1ae2:	90 91 4b 38 	lds	r25, 0x384B	; 0x80384b <effect+0x1>
    1ae6:	80 7e       	andi	r24, 0xE0	; 224
    1ae8:	99 27       	eor	r25, r25
    1aea:	80 3c       	cpi	r24, 0xC0	; 192
    1aec:	91 05       	cpc	r25, r1
    1aee:	09 f4       	brne	.+2      	; 0x1af2 <GenerateAudio+0x214>
    1af0:	cb c0       	rjmp	.+406    	; 0x1c88 <GenerateAudio+0x3aa>
                FadeOut(1, start);         
                */
            }

            //Bleeps
            else if ((effect&0xE0)==160){
    1af2:	80 91 4a 38 	lds	r24, 0x384A	; 0x80384a <effect>
    1af6:	90 91 4b 38 	lds	r25, 0x384B	; 0x80384b <effect+0x1>
    1afa:	80 7e       	andi	r24, 0xE0	; 224
    1afc:	99 27       	eor	r25, r25
    1afe:	80 3a       	cpi	r24, 0xA0	; 160
    1b00:	91 05       	cpc	r25, r1
    1b02:	81 f5       	brne	.+96     	; 0x1b64 <GenerateAudio+0x286>
                static uint8_t auBuffer[6] = {255, 192, 128, 64 ,1 ,0};
                
                start = Play(&auBuffer[0], 1, TCB1_CCMP, auVolume);
    1b04:	80 91 ca 3a 	lds	r24, 0x3ACA	; 0x803aca <auVolume>
    1b08:	20 91 5c 0a 	lds	r18, 0x0A5C	; 0x800a5c <__TEXT_REGION_LENGTH__+0x700a5c>
    1b0c:	30 91 5d 0a 	lds	r19, 0x0A5D	; 0x800a5d <__TEXT_REGION_LENGTH__+0x700a5d>
    //}
}

uint8_t Play(uint8_t * auBuffer, uint8_t repeat, uint16_t pitch, uint8_t volume)
{
    TCB1_CCMP = pitch;
    1b10:	20 93 5c 0a 	sts	0x0A5C, r18	; 0x800a5c <__TEXT_REGION_LENGTH__+0x700a5c>
    1b14:	30 93 5d 0a 	sts	0x0A5D, r19	; 0x800a5d <__TEXT_REGION_LENGTH__+0x700a5d>
    if (repeat) auRepAddr = auBuffer;
    1b18:	2a e1       	ldi	r18, 0x1A	; 26
    1b1a:	38 e3       	ldi	r19, 0x38	; 56
    1b1c:	20 93 03 38 	sts	0x3803, r18	; 0x803803 <auRepAddr>
    1b20:	30 93 04 38 	sts	0x3804, r19	; 0x803804 <auRepAddr+0x1>
    else auSmpAddr = auBuffer;
    auVolume = volume;
    1b24:	80 93 ca 3a 	sts	0x3ACA, r24	; 0x803aca <auVolume>

            //Bleeps
            else if ((effect&0xE0)==160){
                static uint8_t auBuffer[6] = {255, 192, 128, 64 ,1 ,0};
                
                start = Play(&auBuffer[0], 1, TCB1_CCMP, auVolume);
    1b28:	c0 93 68 38 	sts	0x3868, r28	; 0x803868 <start.4056>

                FadeOut(0, start);
    1b2c:	61 e0       	ldi	r22, 0x01	; 1
    1b2e:	80 e0       	ldi	r24, 0x00	; 0
                if (buttonMark){
    1b30:	a7 de       	rcall	.-690    	; 0x1880 <FadeOut>
    1b32:	80 91 52 38 	lds	r24, 0x3852	; 0x803852 <buttonMark>
    1b36:	88 23       	and	r24, r24
    1b38:	09 f4       	brne	.+2      	; 0x1b3c <GenerateAudio+0x25e>
                    TCB1_CCMP = 0x0400 + (lfsr()<<5);
    1b3a:	a6 c0       	rjmp	.+332    	; 0x1c88 <GenerateAudio+0x3aa>
    1b3c:	a4 da       	rcall	.-2744   	; 0x1086 <lfsr>
    1b3e:	f0 e2       	ldi	r31, 0x20	; 32
    1b40:	8f 9f       	mul	r24, r31
    1b42:	c0 01       	movw	r24, r0
    1b44:	11 24       	eor	r1, r1
    1b46:	9c 5f       	subi	r25, 0xFC	; 252
    1b48:	80 93 5c 0a 	sts	0x0A5C, r24	; 0x800a5c <__TEXT_REGION_LENGTH__+0x700a5c>
    1b4c:	90 93 5d 0a 	sts	0x0A5D, r25	; 0x800a5d <__TEXT_REGION_LENGTH__+0x700a5d>
    1b50:	ca e1       	ldi	r28, 0x1A	; 26
                    for(uint8_t x=0; x<5; ++x){
                        auBuffer[x]=lfsr()|0x01;
    1b52:	d8 e3       	ldi	r29, 0x38	; 56
    1b54:	98 da       	rcall	.-2768   	; 0x1086 <lfsr>
    1b56:	81 60       	ori	r24, 0x01	; 1
    1b58:	89 93       	st	Y+, r24
                start = Play(&auBuffer[0], 1, TCB1_CCMP, auVolume);

                FadeOut(0, start);
                if (buttonMark){
                    TCB1_CCMP = 0x0400 + (lfsr()<<5);
                    for(uint8_t x=0; x<5; ++x){
    1b5a:	28 e3       	ldi	r18, 0x38	; 56
    1b5c:	cf 31       	cpi	r28, 0x1F	; 31
    1b5e:	d2 07       	cpc	r29, r18
    1b60:	c9 f7       	brne	.-14     	; 0x1b54 <GenerateAudio+0x276>
    1b62:	92 c0       	rjmp	.+292    	; 0x1c88 <GenerateAudio+0x3aa>
                    }
                }
            }

            //Footsteps
            else if ((effect&0xE0)==224){//224){
    1b64:	80 91 4a 38 	lds	r24, 0x384A	; 0x80384a <effect>
    1b68:	90 91 4b 38 	lds	r25, 0x384B	; 0x80384b <effect+0x1>
    1b6c:	80 7e       	andi	r24, 0xE0	; 224
    1b6e:	99 27       	eor	r25, r25
    1b70:	80 3e       	cpi	r24, 0xE0	; 224
    1b72:	91 05       	cpc	r25, r1
    1b74:	09 f0       	breq	.+2      	; 0x1b78 <GenerateAudio+0x29a>
    1b76:	88 c0       	rjmp	.+272    	; 0x1c88 <GenerateAudio+0x3aa>
                static uint8_t auBuffer[8] = {64, 200, 240, 128, 64, 32, 16, 0};
                static uint8_t interval = 6;

                
                if (start == 0) {
    1b78:	80 91 68 38 	lds	r24, 0x3868	; 0x803868 <start.4056>
    1b7c:	81 11       	cpse	r24, r1
    1b7e:	19 c0       	rjmp	.+50     	; 0x1bb2 <GenerateAudio+0x2d4>
                    auRepAddr = &auBuffer[6];
    1b80:	88 e1       	ldi	r24, 0x18	; 24
    1b82:	98 e3       	ldi	r25, 0x38	; 56
    1b84:	80 93 03 38 	sts	0x3803, r24	; 0x803803 <auRepAddr>
    1b88:	90 93 04 38 	sts	0x3804, r25	; 0x803804 <auRepAddr+0x1>
                    start = Play(&auBuffer[0], 0, 0x6000, auVolume);
    1b8c:	80 91 ca 3a 	lds	r24, 0x3ACA	; 0x803aca <auVolume>
    //}
}

uint8_t Play(uint8_t * auBuffer, uint8_t repeat, uint16_t pitch, uint8_t volume)
{
    TCB1_CCMP = pitch;
    1b90:	20 e0       	ldi	r18, 0x00	; 0
    1b92:	30 e6       	ldi	r19, 0x60	; 96
    1b94:	20 93 5c 0a 	sts	0x0A5C, r18	; 0x800a5c <__TEXT_REGION_LENGTH__+0x700a5c>
    1b98:	30 93 5d 0a 	sts	0x0A5D, r19	; 0x800a5d <__TEXT_REGION_LENGTH__+0x700a5d>
    if (repeat) auRepAddr = auBuffer;
    else auSmpAddr = auBuffer;
    1b9c:	22 e1       	ldi	r18, 0x12	; 18
    1b9e:	38 e3       	ldi	r19, 0x38	; 56
    1ba0:	20 93 05 38 	sts	0x3805, r18	; 0x803805 <auSmpAddr>
    1ba4:	30 93 06 38 	sts	0x3806, r19	; 0x803806 <auSmpAddr+0x1>
    auVolume = volume;
    1ba8:	80 93 ca 3a 	sts	0x3ACA, r24	; 0x803aca <auVolume>
                static uint8_t interval = 6;

                
                if (start == 0) {
                    auRepAddr = &auBuffer[6];
                    start = Play(&auBuffer[0], 0, 0x6000, auVolume);
    1bac:	81 e0       	ldi	r24, 0x01	; 1
    1bae:	80 93 68 38 	sts	0x3868, r24	; 0x803868 <start.4056>
                }

                FadeOut(0, start);
    1bb2:	60 91 68 38 	lds	r22, 0x3868	; 0x803868 <start.4056>
    1bb6:	80 e0       	ldi	r24, 0x00	; 0
    1bb8:	63 de       	rcall	.-826    	; 0x1880 <FadeOut>
                if (buttonMark){
    1bba:	80 91 52 38 	lds	r24, 0x3852	; 0x803852 <buttonMark>
    1bbe:	88 23       	and	r24, r24
    1bc0:	09 f4       	brne	.+2      	; 0x1bc4 <GenerateAudio+0x2e6>
    1bc2:	62 c0       	rjmp	.+196    	; 0x1c88 <GenerateAudio+0x3aa>
                    --interval;
    1bc4:	80 91 11 38 	lds	r24, 0x3811	; 0x803811 <interval.4071>
    1bc8:	81 50       	subi	r24, 0x01	; 1
    1bca:	80 93 11 38 	sts	0x3811, r24	; 0x803811 <interval.4071>
                    if (interval == 0){
    1bce:	81 11       	cpse	r24, r1
    1bd0:	5b c0       	rjmp	.+182    	; 0x1c88 <GenerateAudio+0x3aa>
                        TCB1_CCMP += 0x0300;
    1bd2:	80 91 5c 0a 	lds	r24, 0x0A5C	; 0x800a5c <__TEXT_REGION_LENGTH__+0x700a5c>
    1bd6:	90 91 5d 0a 	lds	r25, 0x0A5D	; 0x800a5d <__TEXT_REGION_LENGTH__+0x700a5d>
    1bda:	9d 5f       	subi	r25, 0xFD	; 253
    1bdc:	80 93 5c 0a 	sts	0x0A5C, r24	; 0x800a5c <__TEXT_REGION_LENGTH__+0x700a5c>
    1be0:	90 93 5d 0a 	sts	0x0A5D, r25	; 0x800a5d <__TEXT_REGION_LENGTH__+0x700a5d>
                        interval = 6;
    1be4:	86 e0       	ldi	r24, 0x06	; 6
    1be6:	80 93 11 38 	sts	0x3811, r24	; 0x803811 <interval.4071>
                        start = 0;
    1bea:	10 92 68 38 	sts	0x3868, r1	; 0x803868 <start.4056>
    1bee:	4c c0       	rjmp	.+152    	; 0x1c88 <GenerateAudio+0x3aa>
                    }
                }
            }

        } else if ((effect&0xff00)==0x0100) {
    1bf0:	80 91 4a 38 	lds	r24, 0x384A	; 0x80384a <effect>
    1bf4:	90 91 4b 38 	lds	r25, 0x384B	; 0x80384b <effect+0x1>
    1bf8:	88 27       	eor	r24, r24
    1bfa:	81 15       	cp	r24, r1
    1bfc:	91 40       	sbci	r25, 0x01	; 1
    1bfe:	09 f0       	breq	.+2      	; 0x1c02 <GenerateAudio+0x324>
    1c00:	43 c0       	rjmp	.+134    	; 0x1c88 <GenerateAudio+0x3aa>
            if ((effect&0xE0) <= 0x90) {
    1c02:	80 91 4a 38 	lds	r24, 0x384A	; 0x80384a <effect>
    1c06:	90 91 4b 38 	lds	r25, 0x384B	; 0x80384b <effect+0x1>
    1c0a:	80 7e       	andi	r24, 0xE0	; 224
    1c0c:	99 27       	eor	r25, r25
    1c0e:	81 39       	cpi	r24, 0x91	; 145
    1c10:	91 05       	cpc	r25, r1
    1c12:	d0 f5       	brcc	.+116    	; 0x1c88 <GenerateAudio+0x3aa>
                
                static uint8_t auBuffer[3] = {255, 1, 0};
                static uint16_t freq;

                if (start == 0) {
    1c14:	80 91 68 38 	lds	r24, 0x3868	; 0x803868 <start.4056>
    1c18:	81 11       	cpse	r24, r1
    1c1a:	22 c0       	rjmp	.+68     	; 0x1c60 <GenerateAudio+0x382>
                    freq = ((effect&0xE0)+1)<<6;
    1c1c:	80 91 4a 38 	lds	r24, 0x384A	; 0x80384a <effect>
    1c20:	90 91 4b 38 	lds	r25, 0x384B	; 0x80384b <effect+0x1>
    1c24:	80 7e       	andi	r24, 0xE0	; 224
    1c26:	99 27       	eor	r25, r25
    1c28:	01 96       	adiw	r24, 0x01	; 1
    1c2a:	26 e0       	ldi	r18, 0x06	; 6
    1c2c:	88 0f       	add	r24, r24
    1c2e:	99 1f       	adc	r25, r25
    1c30:	2a 95       	dec	r18
    1c32:	e1 f7       	brne	.-8      	; 0x1c2c <GenerateAudio+0x34e>
    1c34:	80 93 5e 38 	sts	0x385E, r24	; 0x80385e <freq.4073>
    1c38:	90 93 5f 38 	sts	0x385F, r25	; 0x80385f <freq.4073+0x1>
    //}
}

uint8_t Play(uint8_t * auBuffer, uint8_t repeat, uint16_t pitch, uint8_t volume)
{
    TCB1_CCMP = pitch;
    1c3c:	80 93 5c 0a 	sts	0x0A5C, r24	; 0x800a5c <__TEXT_REGION_LENGTH__+0x700a5c>
    1c40:	90 93 5d 0a 	sts	0x0A5D, r25	; 0x800a5d <__TEXT_REGION_LENGTH__+0x700a5d>
    if (repeat) auRepAddr = auBuffer;
    1c44:	8e e0       	ldi	r24, 0x0E	; 14
    1c46:	98 e3       	ldi	r25, 0x38	; 56
    1c48:	80 93 03 38 	sts	0x3803, r24	; 0x803803 <auRepAddr>
    1c4c:	90 93 04 38 	sts	0x3804, r25	; 0x803804 <auRepAddr+0x1>
    else auSmpAddr = auBuffer;
    auVolume = volume;
    1c50:	8f ef       	ldi	r24, 0xFF	; 255
    1c52:	80 93 ca 3a 	sts	0x3ACA, r24	; 0x803aca <auVolume>
                static uint8_t auBuffer[3] = {255, 1, 0};
                static uint16_t freq;

                if (start == 0) {
                    freq = ((effect&0xE0)+1)<<6;
                    start = Play(&auBuffer[0], 1, freq, 0xff);
    1c56:	c0 93 68 38 	sts	0x3868, r28	; 0x803868 <start.4056>
                    duration = 3;
    1c5a:	83 e0       	ldi	r24, 0x03	; 3
    1c5c:	80 93 67 38 	sts	0x3867, r24	; 0x803867 <duration.4057>
                }

                if (duration == 0) FadeOut(7, start);
    1c60:	80 91 67 38 	lds	r24, 0x3867	; 0x803867 <duration.4057>
    1c64:	81 11       	cpse	r24, r1
    1c66:	04 c0       	rjmp	.+8      	; 0x1c70 <GenerateAudio+0x392>
    1c68:	60 91 68 38 	lds	r22, 0x3868	; 0x803868 <start.4056>
    1c6c:	87 e0       	ldi	r24, 0x07	; 7
                floatSpeed(1, freq+0x0200, freq+0x0300);
    1c6e:	08 de       	rcall	.-1008   	; 0x1880 <FadeOut>
    1c70:	60 91 5e 38 	lds	r22, 0x385E	; 0x80385e <freq.4073>
    1c74:	70 91 5f 38 	lds	r23, 0x385F	; 0x80385f <freq.4073+0x1>
    1c78:	ab 01       	movw	r20, r22
    1c7a:	5d 5f       	subi	r21, 0xFD	; 253
    1c7c:	7e 5f       	subi	r23, 0xFE	; 254
    1c7e:	81 e0       	ldi	r24, 0x01	; 1
    1c80:	21 da       	rcall	.-3006   	; 0x10c4 <floatSpeed>
    1c82:	02 c0       	rjmp	.+4      	; 0x1c88 <GenerateAudio+0x3aa>
                //auBuffer[] = floatAround(0x80, 5, 0x01, 0x00);
            }
        }
    } else {
        detHdPh = 0;
    1c84:	10 92 d4 3a 	sts	0x3AD4, r1	; 0x803ad4 <detHdPh>
    }

    if (buttonMark && duration) --duration;
    1c88:	80 91 52 38 	lds	r24, 0x3852	; 0x803852 <buttonMark>
    1c8c:	88 23       	and	r24, r24
    1c8e:	39 f0       	breq	.+14     	; 0x1c9e <GenerateAudio+0x3c0>
    1c90:	80 91 67 38 	lds	r24, 0x3867	; 0x803867 <duration.4057>
    1c94:	88 23       	and	r24, r24
    1c96:	19 f0       	breq	.+6      	; 0x1c9e <GenerateAudio+0x3c0>
    1c98:	81 50       	subi	r24, 0x01	; 1
    1c9a:	80 93 67 38 	sts	0x3867, r24	; 0x803867 <duration.4057>

    return buttonMark;
    1c9e:	80 91 52 38 	lds	r24, 0x3852	; 0x803852 <buttonMark>
}
    1ca2:	df 91       	pop	r29
    1ca4:	cf 91       	pop	r28
    1ca6:	1f 91       	pop	r17
    1ca8:	0f 91       	pop	r16
    1caa:	08 95       	ret

00001cac <getClock>:

uint16_t getClock() {
    uint16_t tmp = RTC_CNT;
    1cac:	80 91 48 01 	lds	r24, 0x0148	; 0x800148 <__TEXT_REGION_LENGTH__+0x700148>
    1cb0:	90 91 49 01 	lds	r25, 0x0149	; 0x800149 <__TEXT_REGION_LENGTH__+0x700149>
    return 60 * minuteMark + (tmp>>9);
    1cb4:	20 91 53 38 	lds	r18, 0x3853	; 0x803853 <minuteMark>
    1cb8:	89 2f       	mov	r24, r25
    1cba:	99 27       	eor	r25, r25
    1cbc:	86 95       	lsr	r24
}
    1cbe:	3c e3       	ldi	r19, 0x3C	; 60
    1cc0:	23 9f       	mul	r18, r19
    1cc2:	80 0d       	add	r24, r0
    1cc4:	91 1d       	adc	r25, r1
    1cc6:	11 24       	eor	r1, r1
    1cc8:	08 95       	ret

00001cca <idleTimeout>:

uint8_t idleTimeout(uint16_t lastActive, uint16_t maxIdle) {
    1cca:	0f 93       	push	r16
    1ccc:	1f 93       	push	r17
    1cce:	cf 93       	push	r28
    1cd0:	df 93       	push	r29
    1cd2:	8c 01       	movw	r16, r24
    1cd4:	eb 01       	movw	r28, r22
    uint16_t curClock;

    curClock = getClock();
    1cd6:	ea df       	rcall	.-44     	; 0x1cac <getClock>
    1cd8:	9c 01       	movw	r18, r24
    if (curClock < lastActive)
    1cda:	80 17       	cp	r24, r16
    1cdc:	91 07       	cpc	r25, r17
    1cde:	08 f4       	brcc	.+2      	; 0x1ce2 <idleTimeout+0x18>
        curClock += 256 * 60;
    1ce0:	34 5c       	subi	r19, 0xC4	; 196

    return (curClock > (lastActive + maxIdle));
    1ce2:	c0 0f       	add	r28, r16
    1ce4:	d1 1f       	adc	r29, r17
    1ce6:	81 e0       	ldi	r24, 0x01	; 1
    1ce8:	c2 17       	cp	r28, r18
    1cea:	d3 07       	cpc	r29, r19
    1cec:	08 f0       	brcs	.+2      	; 0x1cf0 <idleTimeout+0x26>
    1cee:	80 e0       	ldi	r24, 0x00	; 0
}
    1cf0:	df 91       	pop	r29
    1cf2:	cf 91       	pop	r28
    1cf4:	1f 91       	pop	r17
    1cf6:	0f 91       	pop	r16
    1cf8:	08 95       	ret

00001cfa <SelfTest>:

uint8_t SelfTest(){
    1cfa:	a4 e0       	ldi	r26, 0x04	; 4
    1cfc:	b0 e0       	ldi	r27, 0x00	; 0
    1cfe:	e3 e8       	ldi	r30, 0x83	; 131
    1d00:	fe e0       	ldi	r31, 0x0E	; 14
    1d02:	0c 94 68 1f 	jmp	0x3ed0	; 0x3ed0 <__prologue_saves__+0x12>
    uint8_t tstVal[4] = {0, 0, 0, 0};
    1d06:	19 82       	std	Y+1, r1	; 0x01
    1d08:	1a 82       	std	Y+2, r1	; 0x02
    1d0a:	1b 82       	std	Y+3, r1	; 0x03
    1d0c:	1c 82       	std	Y+4, r1	; 0x04

    while (adcTemp == 0) ;
    1d0e:	80 91 02 3b 	lds	r24, 0x3B02	; 0x803b02 <adcTemp>
    1d12:	90 91 03 3b 	lds	r25, 0x3B03	; 0x803b03 <adcTemp+0x1>
    1d16:	89 2b       	or	r24, r25
    1d18:	d1 f3       	breq	.-12     	; 0x1d0e <SelfTest+0x14>
    EERead(BOOTCHK, &tstVal[0], 4);
    1d1a:	44 e0       	ldi	r20, 0x04	; 4
    1d1c:	be 01       	movw	r22, r28
    1d1e:	6f 5f       	subi	r22, 0xFF	; 255
    1d20:	7f 4f       	sbci	r23, 0xFF	; 255
    1d22:	84 e1       	ldi	r24, 0x14	; 20
    1d24:	ce d8       	rcall	.-3684   	; 0xec2 <EERead>
    //already checked and ok, skip test, can be reset by using "ikillu" command.
    if (tstVal[0] == 0xA5) {
    1d26:	89 81       	ldd	r24, Y+1	; 0x01
    1d28:	85 3a       	cpi	r24, 0xA5	; 165
    1d2a:	a1 f4       	brne	.+40     	; 0x1d54 <SelfTest+0x5a>
        calTemp =  tstVal[1]<<8;
    1d2c:	8a 81       	ldd	r24, Y+2	; 0x02
    1d2e:	90 e0       	ldi	r25, 0x00	; 0
    1d30:	98 2f       	mov	r25, r24
    1d32:	88 27       	eor	r24, r24
    1d34:	80 93 d5 3a 	sts	0x3AD5, r24	; 0x803ad5 <calTemp>
    1d38:	90 93 d6 3a 	sts	0x3AD6, r25	; 0x803ad6 <calTemp+0x1>
        calTemp |= tstVal[2];
    1d3c:	80 91 d5 3a 	lds	r24, 0x3AD5	; 0x803ad5 <calTemp>
    1d40:	90 91 d6 3a 	lds	r25, 0x3AD6	; 0x803ad6 <calTemp+0x1>
    1d44:	2b 81       	ldd	r18, Y+3	; 0x03
    1d46:	82 2b       	or	r24, r18
    1d48:	80 93 d5 3a 	sts	0x3AD5, r24	; 0x803ad5 <calTemp>
    1d4c:	90 93 d6 3a 	sts	0x3AD6, r25	; 0x803ad6 <calTemp+0x1>
        return 0; 
    1d50:	b1 2c       	mov	r11, r1
    1d52:	7c c0       	rjmp	.+248    	; 0x1e4c <SelfTest+0x152>
    } 

    //Old data in EEPROM, wipe!
    if (tstVal[3] != 0xff) return 1;
    1d54:	8c 81       	ldd	r24, Y+4	; 0x04
    1d56:	8f 3f       	cpi	r24, 0xFF	; 255
    1d58:	09 f0       	breq	.+2      	; 0x1d5c <SelfTest+0x62>
    1d5a:	76 c0       	rjmp	.+236    	; 0x1e48 <SelfTest+0x14e>

    //Red BADGER, CAT, EYEs and SCARAB LED on 100% = error
    iLED[BADGER] = 255;
    1d5c:	00 91 41 bf 	lds	r16, 0xBF41	; 0x80bf41 <__bss_end+0x841a>
    1d60:	10 e0       	ldi	r17, 0x00	; 0
    1d62:	08 52       	subi	r16, 0x28	; 40
    1d64:	15 4c       	sbci	r17, 0xC5	; 197
    1d66:	d8 01       	movw	r26, r16
    1d68:	8c 93       	st	X, r24
    iLED[CAT] = 255;
    1d6a:	e0 91 40 bf 	lds	r30, 0xBF40	; 0x80bf40 <__bss_end+0x8419>
    1d6e:	f0 e0       	ldi	r31, 0x00	; 0
    1d70:	e8 52       	subi	r30, 0x28	; 40
    1d72:	f5 4c       	sbci	r31, 0xC5	; 197
    1d74:	80 83       	st	Z, r24
    iLED[EYE[R][R]] = 255;    
    1d76:	c0 90 4e bf 	lds	r12, 0xBF4E	; 0x80bf4e <__bss_end+0x8427>
    1d7a:	2c 2d       	mov	r18, r12
    1d7c:	30 e0       	ldi	r19, 0x00	; 0
    1d7e:	a9 01       	movw	r20, r18
    1d80:	48 52       	subi	r20, 0x28	; 40
    1d82:	55 4c       	sbci	r21, 0xC5	; 197
    1d84:	6a 01       	movw	r12, r20
    1d86:	da 01       	movw	r26, r20
    1d88:	8c 93       	st	X, r24
    iLED[EYE[R][L]] = 255;
    1d8a:	e0 90 4f bf 	lds	r14, 0xBF4F	; 0x80bf4f <__bss_end+0x8428>
    1d8e:	2e 2d       	mov	r18, r14
    1d90:	30 e0       	ldi	r19, 0x00	; 0
    1d92:	a9 01       	movw	r20, r18
    1d94:	48 52       	subi	r20, 0x28	; 40
    1d96:	55 4c       	sbci	r21, 0xC5	; 197
    1d98:	7a 01       	movw	r14, r20
    1d9a:	da 01       	movw	r26, r20
    1d9c:	8c 93       	st	X, r24
    iLED[SCARAB[R]] = 255;
    1d9e:	a0 91 42 bf 	lds	r26, 0xBF42	; 0x80bf42 <__bss_end+0x841b>
    1da2:	b0 e0       	ldi	r27, 0x00	; 0
    1da4:	a8 52       	subi	r26, 0x28	; 40
    1da6:	b5 4c       	sbci	r27, 0xC5	; 197
    1da8:	8c 93       	st	X, r24

    //Light sensor OK, scarab off
    tstVal[0] = adcPhot&0xff;
    1daa:	80 91 d1 3a 	lds	r24, 0x3AD1	; 0x803ad1 <adcPhot>
    1dae:	90 91 d2 3a 	lds	r25, 0x3AD2	; 0x803ad2 <adcPhot+0x1>
    1db2:	89 83       	std	Y+1, r24	; 0x01
    while (tstVal[0] == (adcPhot&0xff)) ;
    1db4:	99 27       	eor	r25, r25
    1db6:	20 91 d1 3a 	lds	r18, 0x3AD1	; 0x803ad1 <adcPhot>
    1dba:	30 91 d2 3a 	lds	r19, 0x3AD2	; 0x803ad2 <adcPhot+0x1>
    1dbe:	33 27       	eor	r19, r19
    1dc0:	28 17       	cp	r18, r24
    1dc2:	39 07       	cpc	r19, r25
    1dc4:	c1 f3       	breq	.-16     	; 0x1db6 <SelfTest+0xbc>
    iLED[SCARAB[R]] = 0x00;
    1dc6:	1c 92       	st	X, r1

    //Buttons OK (none pressed / shorted), cat forehead off
    while ((adcBtns>>4) < 200) ;
    1dc8:	80 91 cb 3a 	lds	r24, 0x3ACB	; 0x803acb <adcBtns>
    1dcc:	90 91 cc 3a 	lds	r25, 0x3ACC	; 0x803acc <adcBtns+0x1>
    1dd0:	80 38       	cpi	r24, 0x80	; 128
    1dd2:	9c 40       	sbci	r25, 0x0C	; 12
    1dd4:	c8 f3       	brcs	.-14     	; 0x1dc8 <SelfTest+0xce>
    iLED[CAT] = 0x00;
    1dd6:	10 82       	st	Z, r1

    //Right ROM?
    ExtEERead(0x3CCC, 4, 0, (uint8_t *)&tstVal[0]);
    1dd8:	9e 01       	movw	r18, r28
    1dda:	2f 5f       	subi	r18, 0xFF	; 255
    1ddc:	3f 4f       	sbci	r19, 0xFF	; 255
    1dde:	40 e0       	ldi	r20, 0x00	; 0
    1de0:	64 e0       	ldi	r22, 0x04	; 4
    1de2:	8c ec       	ldi	r24, 0xCC	; 204
    1de4:	9c e3       	ldi	r25, 0x3C	; 60
    1de6:	bf d8       	rcall	.-3714   	; 0xf66 <ExtEERead>
    if ((tstVal[0] != 63) || (tstVal[1] != 0) || (tstVal[2] != 192) || (tstVal[3] != 20)){
    1de8:	89 81       	ldd	r24, Y+1	; 0x01
    1dea:	8f 33       	cpi	r24, 0x3F	; 63
    1dec:	49 f4       	brne	.+18     	; 0x1e00 <SelfTest+0x106>
    1dee:	ba 80       	ldd	r11, Y+2	; 0x02
    1df0:	b1 10       	cpse	r11, r1
    1df2:	06 c0       	rjmp	.+12     	; 0x1e00 <SelfTest+0x106>
    1df4:	8b 81       	ldd	r24, Y+3	; 0x03
    1df6:	80 3c       	cpi	r24, 0xC0	; 192
    1df8:	19 f4       	brne	.+6      	; 0x1e00 <SelfTest+0x106>
    1dfa:	8c 81       	ldd	r24, Y+4	; 0x04
    1dfc:	84 31       	cpi	r24, 0x14	; 20
    1dfe:	09 f0       	breq	.+2      	; 0x1e02 <SelfTest+0x108>
        while(1);
    }
    
    SelectAuIn();
    1e00:	ff cf       	rjmp	.-2      	; 0x1e00 <SelfTest+0x106>
    1e02:	04 d9       	rcall	.-3576   	; 0x100c <SelectAuIn>
    //Audio in/out OK, eyes off
    while ((auIn < 0x78) || (auIn > 0x88)) ;
    1e04:	80 91 d7 3a 	lds	r24, 0x3AD7	; 0x803ad7 <auIn>
    1e08:	88 37       	cpi	r24, 0x78	; 120
    1e0a:	e0 f3       	brcs	.-8      	; 0x1e04 <SelfTest+0x10a>
    1e0c:	80 91 d7 3a 	lds	r24, 0x3AD7	; 0x803ad7 <auIn>
    1e10:	89 38       	cpi	r24, 0x89	; 137
    1e12:	c0 f7       	brcc	.-16     	; 0x1e04 <SelfTest+0x10a>
    iLED[EYE[R][R]] = 0x00;
    1e14:	f6 01       	movw	r30, r12
    1e16:	10 82       	st	Z, r1
    iLED[EYE[R][L]] = 0x00;
    1e18:	d7 01       	movw	r26, r14
    1e1a:	1c 92       	st	X, r1
    
    //All ok!
    tstVal[0] = 0xA5;
    1e1c:	85 ea       	ldi	r24, 0xA5	; 165
    1e1e:	89 83       	std	Y+1, r24	; 0x01
    tstVal[1] = adcTemp>>8;
    1e20:	80 91 02 3b 	lds	r24, 0x3B02	; 0x803b02 <adcTemp>
    1e24:	90 91 03 3b 	lds	r25, 0x3B03	; 0x803b03 <adcTemp+0x1>
    1e28:	9a 83       	std	Y+2, r25	; 0x02
    tstVal[2] = adcTemp&0xff;
    1e2a:	80 91 02 3b 	lds	r24, 0x3B02	; 0x803b02 <adcTemp>
    1e2e:	90 91 03 3b 	lds	r25, 0x3B03	; 0x803b03 <adcTemp+0x1>
    1e32:	8b 83       	std	Y+3, r24	; 0x03

    EEWrite(BOOTCHK, &tstVal[0], 3);
    1e34:	43 e0       	ldi	r20, 0x03	; 3
    1e36:	be 01       	movw	r22, r28
    1e38:	6f 5f       	subi	r22, 0xFF	; 255
    1e3a:	7f 4f       	sbci	r23, 0xFF	; 255
    1e3c:	84 e1       	ldi	r24, 0x14	; 20
    1e3e:	51 d8       	rcall	.-3934   	; 0xee2 <EEWrite>
    iLED[BADGER] = 0x08;
    1e40:	88 e0       	ldi	r24, 0x08	; 8
    1e42:	f8 01       	movw	r30, r16
    1e44:	80 83       	st	Z, r24
    return 0;
    1e46:	02 c0       	rjmp	.+4      	; 0x1e4c <SelfTest+0x152>
        calTemp |= tstVal[2];
        return 0; 
    } 

    //Old data in EEPROM, wipe!
    if (tstVal[3] != 0xff) return 1;
    1e48:	bb 24       	eor	r11, r11
    1e4a:	b3 94       	inc	r11
    tstVal[2] = adcTemp&0xff;

    EEWrite(BOOTCHK, &tstVal[0], 3);
    iLED[BADGER] = 0x08;
    return 0;
}
    1e4c:	8b 2d       	mov	r24, r11
    1e4e:	24 96       	adiw	r28, 0x04	; 4
    1e50:	e9 e0       	ldi	r30, 0x09	; 9
    1e52:	0c 94 81 1f 	jmp	0x3f02	; 0x3f02 <__epilogue_restores__+0x12>

00001e56 <simonLed>:

/**
 * Set the wing LED blocks to selected option
 * @param val
 */
void simonLed(uint8_t val) {
    1e56:	cf 93       	push	r28
    1e58:	c8 2f       	mov	r28, r24
    WingBar(0,0);
    1e5a:	60 e0       	ldi	r22, 0x00	; 0
    1e5c:	80 e0       	ldi	r24, 0x00	; 0
    1e5e:	35 db       	rcall	.-2454   	; 0x14ca <WingBar>
    if (val==0)
    1e60:	cc 23       	and	r28, r28
    1e62:	51 f1       	breq	.+84     	; 0x1eb8 <simonLed+0x62>
        return;

    if ((effect & 0xffe0)==0)
    1e64:	80 91 4a 38 	lds	r24, 0x384A	; 0x80384a <effect>
    1e68:	90 91 4b 38 	lds	r25, 0x384B	; 0x80384b <effect+0x1>
    1e6c:	80 7e       	andi	r24, 0xE0	; 224
    1e6e:	89 2b       	or	r24, r25
    1e70:	51 f4       	brne	.+20     	; 0x1e86 <simonLed+0x30>
        effect = 0x13f + ((val-1)<<5);
    1e72:	20 e2       	ldi	r18, 0x20	; 32
    1e74:	c2 9f       	mul	r28, r18
    1e76:	c0 01       	movw	r24, r0
    1e78:	11 24       	eor	r1, r1
    1e7a:	81 5e       	subi	r24, 0xE1	; 225
    1e7c:	9e 4f       	sbci	r25, 0xFE	; 254
    1e7e:	80 93 4a 38 	sts	0x384A, r24	; 0x80384a <effect>
    1e82:	90 93 4b 38 	sts	0x384B, r25	; 0x80384b <effect+0x1>

    if (val == 1) {                     //
    1e86:	c1 30       	cpi	r28, 0x01	; 1
    1e88:	19 f4       	brne	.+6      	; 0x1e90 <simonLed+0x3a>
        iLED[WING[L][4]] = dimValue;
    1e8a:	e0 91 4d bf 	lds	r30, 0xBF4D	; 0x80bf4d <__bss_end+0x8426>
    1e8e:	0e c0       	rjmp	.+28     	; 0x1eac <simonLed+0x56>
    } else if (val == 2) {              // I
    1e90:	c2 30       	cpi	r28, 0x02	; 2
    1e92:	19 f4       	brne	.+6      	; 0x1e9a <simonLed+0x44>
        iLED[WING[R][4]] = dimValue;
    1e94:	e0 91 48 bf 	lds	r30, 0xBF48	; 0x80bf48 <__bss_end+0x8421>
    1e98:	09 c0       	rjmp	.+18     	; 0x1eac <simonLed+0x56>
    } else if (val == 3) {              // II
    1e9a:	c3 30       	cpi	r28, 0x03	; 3
    1e9c:	19 f4       	brne	.+6      	; 0x1ea4 <simonLed+0x4e>
        iLED[WING[L][2]] = dimValue;
    1e9e:	e0 91 4b bf 	lds	r30, 0xBF4B	; 0x80bf4b <__bss_end+0x8424>
    1ea2:	04 c0       	rjmp	.+8      	; 0x1eac <simonLed+0x56>
    } else if (val == 4) {              // III
    1ea4:	c4 30       	cpi	r28, 0x04	; 4
    1ea6:	41 f4       	brne	.+16     	; 0x1eb8 <simonLed+0x62>
        iLED[WING[R][2]] = dimValue;
    1ea8:	e0 91 46 bf 	lds	r30, 0xBF46	; 0x80bf46 <__bss_end+0x841f>
    1eac:	f0 e0       	ldi	r31, 0x00	; 0
    1eae:	80 91 0c 38 	lds	r24, 0x380C	; 0x80380c <dimValue>
    1eb2:	e8 52       	subi	r30, 0x28	; 40
    1eb4:	f5 4c       	sbci	r31, 0xC5	; 197
    1eb6:	80 83       	st	Z, r24
    }
}
    1eb8:	cf 91       	pop	r28
    1eba:	08 95       	ret

00001ebc <BastetDictates>:

/**
 * Main game loop
 * @return 0
 */
uint8_t BastetDictates() {
    1ebc:	0f 93       	push	r16
    1ebe:	1f 93       	push	r17
    1ec0:	cf 93       	push	r28
    1ec2:	df 93       	push	r29
    if ((TEXT != gameNow) && (BASTET != gameNow))
    1ec4:	80 91 4c 38 	lds	r24, 0x384C	; 0x80384c <gameNow>
    1ec8:	88 23       	and	r24, r24
    1eca:	21 f0       	breq	.+8      	; 0x1ed4 <BastetDictates+0x18>
    1ecc:	82 30       	cpi	r24, 0x02	; 2
    1ece:	09 f0       	breq	.+2      	; 0x1ed2 <BastetDictates+0x16>
    1ed0:	6b c1       	rjmp	.+726    	; 0x21a8 <BastetDictates+0x2ec>
    1ed2:	0a c0       	rjmp	.+20     	; 0x1ee8 <BastetDictates+0x2c>
        return 0;
    }
    */

    if (TEXT == gameNow)
        if (buttonState!=0xff) {
    1ed4:	80 91 08 38 	lds	r24, 0x3808	; 0x803808 <buttonState>
    1ed8:	8f 3f       	cpi	r24, 0xFF	; 255
    1eda:	31 f0       	breq	.+12     	; 0x1ee8 <BastetDictates+0x2c>
            WingBar(0,0);
    1edc:	60 e0       	ldi	r22, 0x00	; 0
    1ede:	80 e0       	ldi	r24, 0x00	; 0
    1ee0:	f4 da       	rcall	.-2584   	; 0x14ca <WingBar>
            gameNow = BASTET;
    1ee2:	82 e0       	ldi	r24, 0x02	; 2
    1ee4:	80 93 4c 38 	sts	0x384C, r24	; 0x80384c <gameNow>
        }

    if (BASTET_BOOT == simonGameState) {
    1ee8:	80 91 6e 38 	lds	r24, 0x386E	; 0x80386e <simonGameState>
    1eec:	81 11       	cpse	r24, r1
    1eee:	0d c0       	rjmp	.+26     	; 0x1f0a <BastetDictates+0x4e>
    1ef0:	c4 e7       	ldi	r28, 0x74	; 116
    1ef2:	d8 e3       	ldi	r29, 0x38	; 56
    1ef4:	00 e8       	ldi	r16, 0x80	; 128
        for (uint8_t i = 0; i < BASTET_LENGTH; i++) {
            simonState[i] = (lfsr() % 4);
    1ef6:	18 e3       	ldi	r17, 0x38	; 56
    1ef8:	c6 d8       	rcall	.-3700   	; 0x1086 <lfsr>
    1efa:	83 70       	andi	r24, 0x03	; 3
    1efc:	89 93       	st	Y+, r24
            WingBar(0,0);
            gameNow = BASTET;
        }

    if (BASTET_BOOT == simonGameState) {
        for (uint8_t i = 0; i < BASTET_LENGTH; i++) {
    1efe:	0c 17       	cp	r16, r28
    1f00:	1d 07       	cpc	r17, r29
    1f02:	d1 f7       	brne	.-12     	; 0x1ef8 <BastetDictates+0x3c>
            simonState[i] = (lfsr() % 4);
        }
        simonGameState = BASTET_GAME_START;
    1f04:	81 e0       	ldi	r24, 0x01	; 1
    1f06:	80 93 6e 38 	sts	0x386E, r24	; 0x80386e <simonGameState>
    }

    if (BASTET_GAME_START == simonGameState && BASTET == gameNow) {
    1f0a:	80 91 6e 38 	lds	r24, 0x386E	; 0x80386e <simonGameState>
    1f0e:	81 30       	cpi	r24, 0x01	; 1
    1f10:	91 f4       	brne	.+36     	; 0x1f36 <BastetDictates+0x7a>
    1f12:	80 91 4c 38 	lds	r24, 0x384C	; 0x80384c <gameNow>
    1f16:	82 30       	cpi	r24, 0x02	; 2
    1f18:	71 f4       	brne	.+28     	; 0x1f36 <BastetDictates+0x7a>
        simonGameState = BASTET_GAME_INTRO;
    1f1a:	80 93 6e 38 	sts	0x386E, r24	; 0x80386e <simonGameState>
        simonPos = 0;
    1f1e:	10 92 73 38 	sts	0x3873, r1	; 0x803873 <simonPos>
        simonInputPos = 0;
    1f22:	10 92 72 38 	sts	0x3872, r1	; 0x803872 <simonInputPos>
        simonTimer = 0;
    1f26:	10 92 71 38 	sts	0x3871, r1	; 0x803871 <simonTimer>
        simonCounter = 0;
    1f2a:	10 92 6f 38 	sts	0x386F, r1	; 0x80386f <simonCounter>
        effect = 0;
    1f2e:	10 92 4a 38 	sts	0x384A, r1	; 0x80384a <effect>
    1f32:	10 92 4b 38 	sts	0x384B, r1	; 0x80384b <effect+0x1>
    }

    if (BASTET_GAME_INTRO == simonGameState) {
    1f36:	80 91 6e 38 	lds	r24, 0x386E	; 0x80386e <simonGameState>
    1f3a:	82 30       	cpi	r24, 0x02	; 2
    1f3c:	51 f5       	brne	.+84     	; 0x1f92 <BastetDictates+0xd6>
        if (simonTimer > 3) {   // ? seconds
    1f3e:	80 91 71 38 	lds	r24, 0x3871	; 0x803871 <simonTimer>
    1f42:	84 30       	cpi	r24, 0x04	; 4
    1f44:	38 f0       	brcs	.+14     	; 0x1f54 <BastetDictates+0x98>
            simonCounter++;
    1f46:	80 91 6f 38 	lds	r24, 0x386F	; 0x80386f <simonCounter>
    1f4a:	8f 5f       	subi	r24, 0xFF	; 255
    1f4c:	80 93 6f 38 	sts	0x386F, r24	; 0x80386f <simonCounter>
            simonTimer = 0;
    1f50:	10 92 71 38 	sts	0x3871, r1	; 0x803871 <simonTimer>
        }
        if (simonCounter > 5) {
    1f54:	e0 91 6f 38 	lds	r30, 0x386F	; 0x80386f <simonCounter>
    1f58:	e6 30       	cpi	r30, 0x06	; 6
    1f5a:	58 f0       	brcs	.+22     	; 0x1f72 <BastetDictates+0xb6>
            simonGameState = BASTET_GAME_SHOW_PATTERN;
    1f5c:	83 e0       	ldi	r24, 0x03	; 3
    1f5e:	80 93 6e 38 	sts	0x386E, r24	; 0x80386e <simonGameState>
            simonTimer = 0;
    1f62:	10 92 71 38 	sts	0x3871, r1	; 0x803871 <simonTimer>
            simonCounter = 0;
    1f66:	10 92 6f 38 	sts	0x386F, r1	; 0x80386f <simonCounter>
            SetHackerLeds(0,0);
    1f6a:	60 e0       	ldi	r22, 0x00	; 0
    1f6c:	80 e0       	ldi	r24, 0x00	; 0
    1f6e:	eb da       	rcall	.-2602   	; 0x1546 <SetHackerLeds>
            return 0;
    1f70:	1b c1       	rjmp	.+566    	; 0x21a8 <BastetDictates+0x2ec>
        }
        iLED[HCKR[R][simonCounter]] = dimValue;
    1f72:	f0 e0       	ldi	r31, 0x00	; 0
    1f74:	ee 5a       	subi	r30, 0xAE	; 174
    1f76:	f0 44       	sbci	r31, 0x40	; 64
    1f78:	a0 81       	ld	r26, Z
    1f7a:	b0 e0       	ldi	r27, 0x00	; 0
    1f7c:	80 91 0c 38 	lds	r24, 0x380C	; 0x80380c <dimValue>
    1f80:	a8 52       	subi	r26, 0x28	; 40
    1f82:	b5 4c       	sbci	r27, 0xC5	; 197
    1f84:	8c 93       	st	X, r24
        iLED[HCKR[G][simonCounter]] = 0;
    1f86:	e6 81       	ldd	r30, Z+6	; 0x06
    1f88:	f0 e0       	ldi	r31, 0x00	; 0
    1f8a:	e8 52       	subi	r30, 0x28	; 40
    1f8c:	f5 4c       	sbci	r31, 0xC5	; 197
    1f8e:	10 82       	st	Z, r1
    1f90:	2a c0       	rjmp	.+84     	; 0x1fe6 <BastetDictates+0x12a>
    }

    if (BASTET_GAME_SHOW_PATTERN == simonGameState) {
    1f92:	83 30       	cpi	r24, 0x03	; 3
    1f94:	41 f5       	brne	.+80     	; 0x1fe6 <BastetDictates+0x12a>
        if (simonTimer > 8) {   // .6 second
    1f96:	80 91 71 38 	lds	r24, 0x3871	; 0x803871 <simonTimer>
    1f9a:	89 30       	cpi	r24, 0x09	; 9
    1f9c:	38 f0       	brcs	.+14     	; 0x1fac <BastetDictates+0xf0>
            simonCounter++;
    1f9e:	80 91 6f 38 	lds	r24, 0x386F	; 0x80386f <simonCounter>
    1fa2:	8f 5f       	subi	r24, 0xFF	; 255
    1fa4:	80 93 6f 38 	sts	0x386F, r24	; 0x80386f <simonCounter>
            simonTimer = 0;
    1fa8:	10 92 71 38 	sts	0x3871, r1	; 0x803871 <simonTimer>
        }
        if (simonCounter > simonPos) {
    1fac:	e0 91 6f 38 	lds	r30, 0x386F	; 0x80386f <simonCounter>
    1fb0:	80 91 73 38 	lds	r24, 0x3873	; 0x803873 <simonPos>
    1fb4:	8e 17       	cp	r24, r30
    1fb6:	40 f4       	brcc	.+16     	; 0x1fc8 <BastetDictates+0x10c>
            simonInputPos = 0;
    1fb8:	10 92 72 38 	sts	0x3872, r1	; 0x803872 <simonInputPos>
            simonGameState = BASTET_GAME_INPUT;
    1fbc:	85 e0       	ldi	r24, 0x05	; 5
    1fbe:	80 93 6e 38 	sts	0x386E, r24	; 0x80386e <simonGameState>
            simonLed(0);
    1fc2:	80 e0       	ldi	r24, 0x00	; 0
    1fc4:	48 df       	rcall	.-368    	; 0x1e56 <simonLed>
    1fc6:	98 c0       	rjmp	.+304    	; 0x20f8 <BastetDictates+0x23c>
            simonTimer = 0;
            return 0;
        }
        if (simonTimer > 7 ) {
    1fc8:	80 91 71 38 	lds	r24, 0x3871	; 0x803871 <simonTimer>
    1fcc:	88 30       	cpi	r24, 0x08	; 8
    1fce:	10 f0       	brcs	.+4      	; 0x1fd4 <BastetDictates+0x118>
            simonLed(0);
    1fd0:	80 e0       	ldi	r24, 0x00	; 0
    1fd2:	08 c0       	rjmp	.+16     	; 0x1fe4 <BastetDictates+0x128>
        } else if (simonTimer > 5) {
    1fd4:	86 30       	cpi	r24, 0x06	; 6
    1fd6:	08 f4       	brcc	.+2      	; 0x1fda <BastetDictates+0x11e>
    1fd8:	92 c0       	rjmp	.+292    	; 0x20fe <BastetDictates+0x242>
            simonLed(simonState[simonCounter] + 1);
    1fda:	f0 e0       	ldi	r31, 0x00	; 0
    1fdc:	ec 58       	subi	r30, 0x8C	; 140
    1fde:	f7 4c       	sbci	r31, 0xC7	; 199
    1fe0:	80 81       	ld	r24, Z
    1fe2:	8f 5f       	subi	r24, 0xFF	; 255
    1fe4:	38 df       	rcall	.-400    	; 0x1e56 <simonLed>
        }
    }

    if (BASTET_GAME_INPUT == simonGameState) {
    1fe6:	c0 91 6e 38 	lds	r28, 0x386E	; 0x80386e <simonGameState>
    1fea:	c5 30       	cpi	r28, 0x05	; 5
    1fec:	09 f0       	breq	.+2      	; 0x1ff0 <BastetDictates+0x134>
    1fee:	87 c0       	rjmp	.+270    	; 0x20fe <BastetDictates+0x242>
        //Button pressed
        if (lastButtonState != buttonState && (buttonState+1) > 0) {
    1ff0:	80 91 08 38 	lds	r24, 0x3808	; 0x803808 <buttonState>
    1ff4:	90 91 07 38 	lds	r25, 0x3807	; 0x803807 <lastButtonState>
    1ff8:	98 17       	cp	r25, r24
    1ffa:	09 f4       	brne	.+2      	; 0x1ffe <BastetDictates+0x142>
    1ffc:	72 c0       	rjmp	.+228    	; 0x20e2 <BastetDictates+0x226>
            if (simonWait == 0 && buttonState < 4) {
    1ffe:	90 91 70 38 	lds	r25, 0x3870	; 0x803870 <simonWait>
    2002:	91 11       	cpse	r25, r1
    2004:	70 c0       	rjmp	.+224    	; 0x20e6 <BastetDictates+0x22a>
    2006:	84 30       	cpi	r24, 0x04	; 4
    2008:	08 f0       	brcs	.+2      	; 0x200c <BastetDictates+0x150>
    200a:	6d c0       	rjmp	.+218    	; 0x20e6 <BastetDictates+0x22a>
                simonWait = 1;
    200c:	91 e0       	ldi	r25, 0x01	; 1
    200e:	90 93 70 38 	sts	0x3870, r25	; 0x803870 <simonWait>
                simonTimer = 0;
    2012:	10 92 71 38 	sts	0x3871, r1	; 0x803871 <simonTimer>
                simonLed(buttonState+1);
    2016:	8f 5f       	subi	r24, 0xFF	; 255
    2018:	1e df       	rcall	.-452    	; 0x1e56 <simonLed>
                simonGameState = BASTET_GAME_WAIT_LEDS;
    201a:	84 e0       	ldi	r24, 0x04	; 4
    201c:	80 93 6e 38 	sts	0x386E, r24	; 0x80386e <simonGameState>
                simonNextGameState = BASTET_GAME_INPUT;
    2020:	c0 93 3d 38 	sts	0x383D, r28	; 0x80383d <simonNextGameState>

                if (simonState[simonInputPos] == buttonState) {
    2024:	80 91 72 38 	lds	r24, 0x3872	; 0x803872 <simonInputPos>
    2028:	e8 2f       	mov	r30, r24
    202a:	f0 e0       	ldi	r31, 0x00	; 0
    202c:	ec 58       	subi	r30, 0x8C	; 140
    202e:	f7 4c       	sbci	r31, 0xC7	; 199
    2030:	20 81       	ld	r18, Z
    2032:	90 91 08 38 	lds	r25, 0x3808	; 0x803808 <buttonState>
    2036:	29 13       	cpse	r18, r25
    2038:	1d c0       	rjmp	.+58     	; 0x2074 <BastetDictates+0x1b8>
                    simonInputPos++;
    203a:	8f 5f       	subi	r24, 0xFF	; 255
    203c:	80 93 72 38 	sts	0x3872, r24	; 0x803872 <simonInputPos>
                    if (simonInputPos > simonPos) {
    2040:	e0 91 73 38 	lds	r30, 0x3873	; 0x803873 <simonPos>
    2044:	e8 17       	cp	r30, r24
    2046:	a8 f5       	brcc	.+106    	; 0x20b2 <BastetDictates+0x1f6>
                        simonPos++;
    2048:	ef 5f       	subi	r30, 0xFF	; 255
    204a:	e0 93 73 38 	sts	0x3873, r30	; 0x803873 <simonPos>
                        simonTimer = 0;
    204e:	10 92 71 38 	sts	0x3871, r1	; 0x803871 <simonTimer>
                        simonCounter = 0;
    2052:	10 92 6f 38 	sts	0x386F, r1	; 0x80386f <simonCounter>
                        if (simonPos > 1) { // BASTET_LENGTH = 12
    2056:	e1 30       	cpi	r30, 0x01	; 1
    2058:	59 f0       	breq	.+22     	; 0x2070 <BastetDictates+0x1b4>
                            iLED[HCKR[G][(simonPos / 2) - 1]] = dimValue;
    205a:	e6 95       	lsr	r30
    205c:	f0 e0       	ldi	r31, 0x00	; 0
    205e:	ee 5a       	subi	r30, 0xAE	; 174
    2060:	f0 44       	sbci	r31, 0x40	; 64
    2062:	e5 81       	ldd	r30, Z+5	; 0x05
    2064:	f0 e0       	ldi	r31, 0x00	; 0
    2066:	80 91 0c 38 	lds	r24, 0x380C	; 0x80380c <dimValue>
    206a:	e8 52       	subi	r30, 0x28	; 40
    206c:	f5 4c       	sbci	r31, 0xC5	; 197
    206e:	80 83       	st	Z, r24
                        }
                        simonNextGameState = BASTET_GAME_SHOW_PATTERN;
    2070:	83 e0       	ldi	r24, 0x03	; 3
    2072:	1d c0       	rjmp	.+58     	; 0x20ae <BastetDictates+0x1f2>
                    }
                } else {
                    effect = 32|1;
    2074:	81 e2       	ldi	r24, 0x21	; 33
    2076:	90 e0       	ldi	r25, 0x00	; 0
    2078:	80 93 4a 38 	sts	0x384A, r24	; 0x80384a <effect>
    207c:	90 93 4b 38 	sts	0x384B, r25	; 0x80384b <effect+0x1>
    2080:	a2 e5       	ldi	r26, 0x52	; 82
    2082:	bf eb       	ldi	r27, 0xBF	; 191
    2084:	88 e5       	ldi	r24, 0x58	; 88
    2086:	9f eb       	ldi	r25, 0xBF	; 191
                    for (uint8_t n=0; n<6; n++){
                        iLED[HCKR[R][n]] = dimValue;
    2088:	ed 91       	ld	r30, X+
    208a:	f0 e0       	ldi	r31, 0x00	; 0
    208c:	20 91 0c 38 	lds	r18, 0x380C	; 0x80380c <dimValue>
    2090:	e8 52       	subi	r30, 0x28	; 40
    2092:	f5 4c       	sbci	r31, 0xC5	; 197
    2094:	20 83       	st	Z, r18
                        }
                        simonNextGameState = BASTET_GAME_SHOW_PATTERN;
                    }
                } else {
                    effect = 32|1;
                    for (uint8_t n=0; n<6; n++){
    2096:	8a 17       	cp	r24, r26
    2098:	9b 07       	cpc	r25, r27
    209a:	b1 f7       	brne	.-20     	; 0x2088 <BastetDictates+0x1cc>
                        iLED[HCKR[R][n]] = dimValue;
                    }
                    simonInputPos = 0;
    209c:	10 92 72 38 	sts	0x3872, r1	; 0x803872 <simonInputPos>
                    simonPos = 0;
    20a0:	10 92 73 38 	sts	0x3873, r1	; 0x803873 <simonPos>
                    simonTimer = 0;
    20a4:	10 92 71 38 	sts	0x3871, r1	; 0x803871 <simonTimer>
                    simonCounter = 0;
    20a8:	10 92 6f 38 	sts	0x386F, r1	; 0x80386f <simonCounter>
                    simonNextGameState = BASTET_GAME_OUTRO;
    20ac:	86 e0       	ldi	r24, 0x06	; 6
    20ae:	80 93 3d 38 	sts	0x383D, r24	; 0x80383d <simonNextGameState>
                }

                if (simonInputPos >= BASTET_LENGTH || simonPos >= BASTET_LENGTH) { // beetje dubbel
    20b2:	80 91 72 38 	lds	r24, 0x3872	; 0x803872 <simonInputPos>
    20b6:	8c 30       	cpi	r24, 0x0C	; 12
    20b8:	20 f4       	brcc	.+8      	; 0x20c2 <BastetDictates+0x206>
    20ba:	80 91 73 38 	lds	r24, 0x3873	; 0x803873 <simonPos>
    20be:	8c 30       	cpi	r24, 0x0C	; 12
    20c0:	90 f0       	brcs	.+36     	; 0x20e6 <BastetDictates+0x22a>
                    effect = 64|2;
    20c2:	82 e4       	ldi	r24, 0x42	; 66
    20c4:	90 e0       	ldi	r25, 0x00	; 0
    20c6:	80 93 4a 38 	sts	0x384A, r24	; 0x80384a <effect>
    20ca:	90 93 4b 38 	sts	0x384B, r25	; 0x80384b <effect+0x1>
                    UpdateState(BASTET_COMPLETED);
    20ce:	8a e7       	ldi	r24, 0x7A	; 122
    20d0:	e0 d8       	rcall	.-3648   	; 0x1292 <UpdateState>
                    simonTimer = 0;
    20d2:	10 92 71 38 	sts	0x3871, r1	; 0x803871 <simonTimer>
                    simonCounter = 0;
    20d6:	10 92 6f 38 	sts	0x386F, r1	; 0x80386f <simonCounter>
                    simonNextGameState = BASTET_GAME_OVER;
    20da:	87 e0       	ldi	r24, 0x07	; 7
    20dc:	80 93 3d 38 	sts	0x383D, r24	; 0x80383d <simonNextGameState>
    20e0:	02 c0       	rjmp	.+4      	; 0x20e6 <BastetDictates+0x22a>
                }
            }
        
        //Button released, next or reset!
        } else {
            simonWait = 0;
    20e2:	10 92 70 38 	sts	0x3870, r1	; 0x803870 <simonWait>
        }

        if (simonTimer == 75) {    // did you forget about Bastet?
    20e6:	80 91 71 38 	lds	r24, 0x3871	; 0x803871 <simonTimer>
    20ea:	8b 34       	cpi	r24, 0x4B	; 75
    20ec:	41 f4       	brne	.+16     	; 0x20fe <BastetDictates+0x242>
            simonGameState = BASTET_GAME_SHOW_PATTERN;
    20ee:	83 e0       	ldi	r24, 0x03	; 3
    20f0:	80 93 6e 38 	sts	0x386E, r24	; 0x80386e <simonGameState>
            simonCounter = 0;
    20f4:	10 92 6f 38 	sts	0x386F, r1	; 0x80386f <simonCounter>
            simonTimer = 0;
    20f8:	10 92 71 38 	sts	0x3871, r1	; 0x803871 <simonTimer>
            return 0;
    20fc:	55 c0       	rjmp	.+170    	; 0x21a8 <BastetDictates+0x2ec>
        }
    }

    if (BASTET_GAME_WAIT_LEDS == simonGameState) {
    20fe:	80 91 6e 38 	lds	r24, 0x386E	; 0x80386e <simonGameState>
    2102:	84 30       	cpi	r24, 0x04	; 4
        if (simonTimer >= 3) {
    2104:	81 f4       	brne	.+32     	; 0x2126 <BastetDictates+0x26a>
    2106:	80 91 71 38 	lds	r24, 0x3871	; 0x803871 <simonTimer>
    210a:	83 30       	cpi	r24, 0x03	; 3
            // on to next state after .2 second
            simonLed(0);  // LEDs off
    210c:	60 f0       	brcs	.+24     	; 0x2126 <BastetDictates+0x26a>
    210e:	80 e0       	ldi	r24, 0x00	; 0
    2110:	a2 de       	rcall	.-700    	; 0x1e56 <simonLed>
            simonWait = 0;
    2112:	10 92 70 38 	sts	0x3870, r1	; 0x803870 <simonWait>
            simonTimer = 0;
    2116:	10 92 71 38 	sts	0x3871, r1	; 0x803871 <simonTimer>
            simonCounter = 0;
    211a:	10 92 6f 38 	sts	0x386F, r1	; 0x80386f <simonCounter>
            simonGameState = simonNextGameState;
    211e:	80 91 3d 38 	lds	r24, 0x383D	; 0x80383d <simonNextGameState>
    2122:	80 93 6e 38 	sts	0x386E, r24	; 0x80386e <simonGameState>
        }
    }

    if (BASTET_GAME_OUTRO == simonGameState) {
    2126:	80 91 6e 38 	lds	r24, 0x386E	; 0x80386e <simonGameState>
    212a:	86 30       	cpi	r24, 0x06	; 6
    212c:	61 f5       	brne	.+88     	; 0x2186 <BastetDictates+0x2ca>
        if (simonTimer > 3) {
    212e:	80 91 71 38 	lds	r24, 0x3871	; 0x803871 <simonTimer>
    2132:	84 30       	cpi	r24, 0x04	; 4
    2134:	38 f0       	brcs	.+14     	; 0x2144 <BastetDictates+0x288>
            simonCounter++;
    2136:	80 91 6f 38 	lds	r24, 0x386F	; 0x80386f <simonCounter>
    213a:	8f 5f       	subi	r24, 0xFF	; 255
    213c:	80 93 6f 38 	sts	0x386F, r24	; 0x80386f <simonCounter>
            simonTimer = 0;
    2140:	10 92 71 38 	sts	0x3871, r1	; 0x803871 <simonTimer>
        }
        if (simonCounter > 5) {
    2144:	80 91 6f 38 	lds	r24, 0x386F	; 0x80386f <simonCounter>
    2148:	86 30       	cpi	r24, 0x06	; 6
    214a:	60 f0       	brcs	.+24     	; 0x2164 <BastetDictates+0x2a8>
            simonTimer = 0;
    214c:	10 92 71 38 	sts	0x3871, r1	; 0x803871 <simonTimer>
            simonCounter = 0;
    2150:	10 92 6f 38 	sts	0x386F, r1	; 0x80386f <simonCounter>
            simonGameState = BASTET_GAME_OVER;
    2154:	87 e0       	ldi	r24, 0x07	; 7
    2156:	80 93 6e 38 	sts	0x386E, r24	; 0x80386e <simonGameState>
            effect = 0;
    215a:	10 92 4a 38 	sts	0x384A, r1	; 0x80384a <effect>
    215e:	10 92 4b 38 	sts	0x384B, r1	; 0x80384b <effect+0x1>
            return 0;
    2162:	22 c0       	rjmp	.+68     	; 0x21a8 <BastetDictates+0x2ec>
        }
        iLED[HCKR[R][5-simonCounter]] = 0;
    2164:	e5 e0       	ldi	r30, 0x05	; 5
    2166:	f0 e0       	ldi	r31, 0x00	; 0
    2168:	e8 1b       	sub	r30, r24
    216a:	f1 09       	sbc	r31, r1
    216c:	ee 5a       	subi	r30, 0xAE	; 174
    216e:	f0 44       	sbci	r31, 0x40	; 64
    2170:	a0 81       	ld	r26, Z
    2172:	b0 e0       	ldi	r27, 0x00	; 0
    2174:	a8 52       	subi	r26, 0x28	; 40
    2176:	b5 4c       	sbci	r27, 0xC5	; 197
    2178:	1c 92       	st	X, r1
        iLED[HCKR[G][5-simonCounter]] = 0;
    217a:	e6 81       	ldd	r30, Z+6	; 0x06
    217c:	f0 e0       	ldi	r31, 0x00	; 0
    217e:	e8 52       	subi	r30, 0x28	; 40
    2180:	f5 4c       	sbci	r31, 0xC5	; 197
    2182:	10 82       	st	Z, r1
    2184:	0c c0       	rjmp	.+24     	; 0x219e <BastetDictates+0x2e2>
    }

    if (BASTET_GAME_OVER == simonGameState) {
    2186:	87 30       	cpi	r24, 0x07	; 7
    2188:	51 f4       	brne	.+20     	; 0x219e <BastetDictates+0x2e2>
        simonInputPos = 0;
    218a:	10 92 72 38 	sts	0x3872, r1	; 0x803872 <simonInputPos>
        simonPos = 0;
    218e:	10 92 73 38 	sts	0x3873, r1	; 0x803873 <simonPos>
        simonGameState = BASTET_BOOT; // BASTET_GAME_START for stale "field" s
    2192:	10 92 6e 38 	sts	0x386E, r1	; 0x80386e <simonGameState>
        gameNow = TEXT;
    2196:	10 92 4c 38 	sts	0x384C, r1	; 0x80384c <gameNow>
        simonLed(0);
    219a:	80 e0       	ldi	r24, 0x00	; 0
    219c:	5c de       	rcall	.-840    	; 0x1e56 <simonLed>
    }

    ++simonTimer;
    219e:	80 91 71 38 	lds	r24, 0x3871	; 0x803871 <simonTimer>
    21a2:	8f 5f       	subi	r24, 0xFF	; 255
    21a4:	80 93 71 38 	sts	0x3871, r24	; 0x803871 <simonTimer>
    return 0;
}
    21a8:	80 e0       	ldi	r24, 0x00	; 0
    21aa:	df 91       	pop	r29
    21ac:	cf 91       	pop	r28
    21ae:	1f 91       	pop	r17
    21b0:	0f 91       	pop	r16
    21b2:	08 95       	ret

000021b4 <Cheat>:

//
void SetResponse(uint8_t number, uint16_t address, uint16_t length, uint8_t type){
    reactStr[0][number]=address;
    reactStr[1][number]=length;
    reactStr[2][number]=type;
    21b4:	a2 e1       	ldi	r26, 0x12	; 18
    21b6:	b0 e0       	ldi	r27, 0x00	; 0
    21b8:	e0 ee       	ldi	r30, 0xE0	; 224
    21ba:	f0 e1       	ldi	r31, 0x10	; 16
    21bc:	0c 94 6e 1f 	jmp	0x3edc	; 0x3edc <__prologue_saves__+0x1e>
    21c0:	8a 8b       	std	Y+18, r24	; 0x12
    21c2:	80 e1       	ldi	r24, 0x10	; 16
    21c4:	e4 e2       	ldi	r30, 0x24	; 36
    21c6:	ff eb       	ldi	r31, 0xBF	; 191
    21c8:	de 01       	movw	r26, r28
    21ca:	11 96       	adiw	r26, 0x01	; 1
    21cc:	01 90       	ld	r0, Z+
    21ce:	0d 92       	st	X+, r0
    21d0:	8a 95       	dec	r24
    21d2:	e1 f7       	brne	.-8      	; 0x21cc <Cheat+0x18>
    21d4:	fe 01       	movw	r30, r28
    21d6:	31 96       	adiw	r30, 0x01	; 1
    21d8:	90 e0       	ldi	r25, 0x00	; 0
    21da:	8f ef       	ldi	r24, 0xFF	; 255
    21dc:	21 91       	ld	r18, Z+
    21de:	31 91       	ld	r19, Z+
    21e0:	26 17       	cp	r18, r22
    21e2:	37 07       	cpc	r19, r23
    21e4:	09 f4       	brne	.+2      	; 0x21e8 <Cheat+0x34>
    21e6:	89 2f       	mov	r24, r25
    21e8:	9f 5f       	subi	r25, 0xFF	; 255
    21ea:	98 30       	cpi	r25, 0x08	; 8
    21ec:	b9 f7       	brne	.-18     	; 0x21dc <Cheat+0x28>
    21ee:	88 30       	cpi	r24, 0x08	; 8
    21f0:	10 f0       	brcs	.+4      	; 0x21f6 <Cheat+0x42>
    21f2:	80 e0       	ldi	r24, 0x00	; 0
    21f4:	14 c0       	rjmp	.+40     	; 0x221e <Cheat+0x6a>
    21f6:	18 e1       	ldi	r17, 0x18	; 24
    21f8:	18 0f       	add	r17, r24
    21fa:	41 e0       	ldi	r20, 0x01	; 1
    21fc:	be 01       	movw	r22, r28
    21fe:	6f 5e       	subi	r22, 0xEF	; 239
    2200:	7f 4f       	sbci	r23, 0xFF	; 255
    2202:	81 2f       	mov	r24, r17
    2204:	0e 94 61 07 	call	0xec2	; 0xec2 <EERead>
    2208:	89 89       	ldd	r24, Y+17	; 0x11
    220a:	8f 3f       	cpi	r24, 0xFF	; 255
    220c:	91 f7       	brne	.-28     	; 0x21f2 <Cheat+0x3e>
    220e:	41 e0       	ldi	r20, 0x01	; 1
    2210:	be 01       	movw	r22, r28
    2212:	6e 5e       	subi	r22, 0xEE	; 238
    2214:	7f 4f       	sbci	r23, 0xFF	; 255
    2216:	81 2f       	mov	r24, r17
    2218:	0e 94 71 07 	call	0xee2	; 0xee2 <EEWrite>
    221c:	81 e0       	ldi	r24, 0x01	; 1
    221e:	62 96       	adiw	r28, 0x12	; 18
    2220:	e3 e0       	ldi	r30, 0x03	; 3
    2222:	0c 94 87 1f 	jmp	0x3f0e	; 0x3f0e <__epilogue_restores__+0x1e>

00002226 <UnflipData>:
    2226:	26 2f       	mov	r18, r22
    2228:	fb 01       	movw	r30, r22
    222a:	35 e5       	ldi	r19, 0x55	; 85
    222c:	9e 2f       	mov	r25, r30
    222e:	92 1b       	sub	r25, r18
    2230:	98 17       	cp	r25, r24
    2232:	28 f4       	brcc	.+10     	; 0x223e <UnflipData+0x18>
    2234:	90 81       	ld	r25, Z
    2236:	92 95       	swap	r25
    2238:	93 27       	eor	r25, r19
    223a:	91 93       	st	Z+, r25
    223c:	f7 cf       	rjmp	.-18     	; 0x222c <UnflipData+0x6>
    223e:	08 95       	ret

00002240 <ClearTxAfter>:
    2240:	8f 5f       	subi	r24, 0xFF	; 255
    2242:	88 30       	cpi	r24, 0x08	; 8
    2244:	30 f4       	brcc	.+12     	; 0x2252 <ClearTxAfter+0x12>
    2246:	e8 2f       	mov	r30, r24
    2248:	f0 e0       	ldi	r31, 0x00	; 0
    224a:	e6 5a       	subi	r30, 0xA6	; 166
    224c:	f5 4c       	sbci	r31, 0xC5	; 197
    224e:	10 82       	st	Z, r1
    2250:	f7 cf       	rjmp	.-18     	; 0x2240 <ClearTxAfter>
    2252:	08 95       	ret

00002254 <StartsWith>:
    2254:	ac 01       	movw	r20, r24
    2256:	90 e0       	ldi	r25, 0x00	; 0
    2258:	e9 2f       	mov	r30, r25
    225a:	f0 e0       	ldi	r31, 0x00	; 0
    225c:	da 01       	movw	r26, r20
    225e:	ae 0f       	add	r26, r30
    2260:	bf 1f       	adc	r27, r31
    2262:	3c 91       	ld	r19, X
    2264:	e6 0f       	add	r30, r22
    2266:	f7 1f       	adc	r31, r23
    2268:	31 11       	cpse	r19, r1
    226a:	05 c0       	rjmp	.+10     	; 0x2276 <StartsWith+0x22>
    226c:	81 e0       	ldi	r24, 0x01	; 1
    226e:	90 81       	ld	r25, Z
    2270:	99 23       	and	r25, r25
    2272:	49 f0       	breq	.+18     	; 0x2286 <StartsWith+0x32>
    2274:	07 c0       	rjmp	.+14     	; 0x2284 <StartsWith+0x30>
    2276:	20 81       	ld	r18, Z
    2278:	22 23       	and	r18, r18
    227a:	c1 f3       	breq	.-16     	; 0x226c <StartsWith+0x18>
    227c:	32 13       	cpse	r19, r18
    227e:	02 c0       	rjmp	.+4      	; 0x2284 <StartsWith+0x30>
    2280:	9f 5f       	subi	r25, 0xFF	; 255
    2282:	ea cf       	rjmp	.-44     	; 0x2258 <StartsWith+0x4>
    2284:	80 e0       	ldi	r24, 0x00	; 0
    2286:	08 95       	ret

00002288 <PrepareSending>:
    2288:	cf 93       	push	r28
    228a:	df 93       	push	r29
    228c:	fc 01       	movw	r30, r24
    228e:	61 15       	cp	r22, r1
    2290:	71 05       	cpc	r23, r1
    2292:	59 f1       	breq	.+86     	; 0x22ea <PrepareSending+0x62>
    2294:	a2 e6       	ldi	r26, 0x62	; 98
    2296:	ba e3       	ldi	r27, 0x3A	; 58
    2298:	ca e5       	ldi	r28, 0x5A	; 90
    229a:	da e3       	ldi	r29, 0x3A	; 58
    229c:	80 e0       	ldi	r24, 0x00	; 0
    229e:	9f ef       	ldi	r25, 0xFF	; 255
    22a0:	6f 3f       	cpi	r22, 0xFF	; 255
    22a2:	71 05       	cpc	r23, r1
    22a4:	69 f0       	breq	.+26     	; 0x22c0 <PrepareSending+0x38>
    22a6:	60 f0       	brcs	.+24     	; 0x22c0 <PrepareSending+0x38>
    22a8:	ed 93       	st	X+, r30
    22aa:	fd 93       	st	X+, r31
    22ac:	99 93       	st	Y+, r25
    22ae:	e1 50       	subi	r30, 0x01	; 1
    22b0:	ff 4f       	sbci	r31, 0xFF	; 255
    22b2:	6f 5f       	subi	r22, 0xFF	; 255
    22b4:	71 09       	sbc	r23, r1
    22b6:	8f 5f       	subi	r24, 0xFF	; 255
    22b8:	87 30       	cpi	r24, 0x07	; 7
    22ba:	91 f7       	brne	.-28     	; 0x22a0 <PrepareSending+0x18>
    22bc:	81 e0       	ldi	r24, 0x01	; 1
    22be:	1e c0       	rjmp	.+60     	; 0x22fc <PrepareSending+0x74>
    22c0:	28 2f       	mov	r18, r24
    22c2:	30 e0       	ldi	r19, 0x00	; 0
    22c4:	d9 01       	movw	r26, r18
    22c6:	aa 0f       	add	r26, r26
    22c8:	bb 1f       	adc	r27, r27
    22ca:	ae 59       	subi	r26, 0x9E	; 158
    22cc:	b5 4c       	sbci	r27, 0xC5	; 197
    22ce:	ed 93       	st	X+, r30
    22d0:	fc 93       	st	X, r31
    22d2:	6f 3f       	cpi	r22, 0xFF	; 255
    22d4:	71 05       	cpc	r23, r1
    22d6:	11 f4       	brne	.+4      	; 0x22dc <PrepareSending+0x54>
    22d8:	6e ef       	ldi	r22, 0xFE	; 254
    22da:	70 e0       	ldi	r23, 0x00	; 0
    22dc:	f9 01       	movw	r30, r18
    22de:	e6 5a       	subi	r30, 0xA6	; 166
    22e0:	f5 4c       	sbci	r31, 0xC5	; 197
    22e2:	60 83       	st	Z, r22
    22e4:	40 93 58 3a 	sts	0x3A58, r20	; 0x803a58 <txTypeNow>
    22e8:	05 c0       	rjmp	.+10     	; 0x22f4 <PrepareSending+0x6c>
    22ea:	10 92 62 3a 	sts	0x3A62, r1	; 0x803a62 <txAddrList>
    22ee:	10 92 63 3a 	sts	0x3A63, r1	; 0x803a63 <txAddrList+0x1>
    22f2:	80 e0       	ldi	r24, 0x00	; 0
    22f4:	a5 df       	rcall	.-182    	; 0x2240 <ClearTxAfter>
    22f6:	10 92 59 3a 	sts	0x3A59, r1	; 0x803a59 <txAddrNow>
    22fa:	80 e0       	ldi	r24, 0x00	; 0
    22fc:	df 91       	pop	r29
    22fe:	cf 91       	pop	r28
    2300:	08 95       	ret

00002302 <SetStandardResponse>:
}

//
uint8_t SetStandardResponse(uint8_t custStrEnd){
    2302:	cf 93       	push	r28
    2304:	df 93       	push	r29
    return 0;
}

//
void SetResponse(uint8_t number, uint16_t address, uint16_t length, uint8_t type){
    reactStr[0][number]=address;
    2306:	28 2f       	mov	r18, r24
    2308:	30 e0       	ldi	r19, 0x00	; 0
    230a:	f9 01       	movw	r30, r18
    230c:	ee 0f       	add	r30, r30
    230e:	ff 1f       	adc	r31, r31
    2310:	e3 5d       	subi	r30, 0xD3	; 211
    2312:	f6 4c       	sbci	r31, 0xC6	; 198
    2314:	a9 e5       	ldi	r26, 0x59	; 89
    2316:	ba e7       	ldi	r27, 0x7A	; 122
    2318:	a0 83       	st	Z, r26
    231a:	b1 83       	std	Z+1, r27	; 0x01
    reactStr[1][number]=length;
    231c:	f9 01       	movw	r30, r18
    231e:	ee 0f       	add	r30, r30
    2320:	ff 1f       	adc	r31, r31
    2322:	e3 59       	subi	r30, 0x93	; 147
    2324:	f6 4c       	sbci	r31, 0xC6	; 198
    2326:	62 e0       	ldi	r22, 0x02	; 2
    2328:	70 e0       	ldi	r23, 0x00	; 0
    232a:	60 83       	st	Z, r22
    232c:	71 83       	std	Z+1, r23	; 0x01
    reactStr[2][number]=type;
    232e:	22 0f       	add	r18, r18
    2330:	33 1f       	adc	r19, r19
    2332:	f9 01       	movw	r30, r18
    2334:	e3 55       	subi	r30, 0x53	; 83
    2336:	f6 4c       	sbci	r31, 0xC6	; 198
    2338:	41 e0       	ldi	r20, 0x01	; 1
    233a:	50 e0       	ldi	r21, 0x00	; 0
    233c:	40 83       	st	Z, r20
    233e:	51 83       	std	Z+1, r21	; 0x01
    return 0;
}

//
void SetResponse(uint8_t number, uint16_t address, uint16_t length, uint8_t type){
    reactStr[0][number]=address;
    2340:	21 e0       	ldi	r18, 0x01	; 1
    2342:	28 0f       	add	r18, r24
    2344:	30 e0       	ldi	r19, 0x00	; 0
    2346:	f9 01       	movw	r30, r18
    2348:	ee 0f       	add	r30, r30
    234a:	ff 1f       	adc	r31, r31
    234c:	e3 5d       	subi	r30, 0xD3	; 211
    234e:	f6 4c       	sbci	r31, 0xC6	; 198
    2350:	c2 e6       	ldi	r28, 0x62	; 98
    2352:	da e7       	ldi	r29, 0x7A	; 122
    2354:	c0 83       	st	Z, r28
    2356:	d1 83       	std	Z+1, r29	; 0x01
    reactStr[1][number]=length;
    2358:	f9 01       	movw	r30, r18
    235a:	ee 0f       	add	r30, r30
    235c:	ff 1f       	adc	r31, r31
    235e:	e3 59       	subi	r30, 0x93	; 147
    2360:	f6 4c       	sbci	r31, 0xC6	; 198
    2362:	cc e0       	ldi	r28, 0x0C	; 12
    2364:	d0 e0       	ldi	r29, 0x00	; 0
    2366:	c0 83       	st	Z, r28
    2368:	d1 83       	std	Z+1, r29	; 0x01
    reactStr[2][number]=type;
    236a:	22 0f       	add	r18, r18
    236c:	33 1f       	adc	r19, r19
    236e:	f9 01       	movw	r30, r18
    2370:	e3 55       	subi	r30, 0x53	; 83
    2372:	f6 4c       	sbci	r31, 0xC6	; 198
    2374:	40 83       	st	Z, r20
    2376:	51 83       	std	Z+1, r21	; 0x01
//
uint8_t SetStandardResponse(uint8_t custStrEnd){

    SetResponse(custStrEnd++, A_LF, 2, TEASER);
    SetResponse(custStrEnd++, A_LOCATION, L_LOCATION, TEASER);
    reactStr[0][custStrEnd++] = CURR_LOC;
    2378:	e2 e0       	ldi	r30, 0x02	; 2
    237a:	e8 0f       	add	r30, r24
    237c:	f0 e0       	ldi	r31, 0x00	; 0
    237e:	ee 0f       	add	r30, r30
    2380:	ff 1f       	adc	r31, r31
    2382:	e3 5d       	subi	r30, 0xD3	; 211
    2384:	f6 4c       	sbci	r31, 0xC6	; 198
    2386:	20 ef       	ldi	r18, 0xF0	; 240
    2388:	3f ef       	ldi	r19, 0xFF	; 255
    238a:	20 83       	st	Z, r18
    238c:	31 83       	std	Z+1, r19	; 0x01
    return 0;
}

//
void SetResponse(uint8_t number, uint16_t address, uint16_t length, uint8_t type){
    reactStr[0][number]=address;
    238e:	23 e0       	ldi	r18, 0x03	; 3
    2390:	28 0f       	add	r18, r24
    2392:	30 e0       	ldi	r19, 0x00	; 0
    2394:	f9 01       	movw	r30, r18
    2396:	ee 0f       	add	r30, r30
    2398:	ff 1f       	adc	r31, r31
    239a:	e3 5d       	subi	r30, 0xD3	; 211
    239c:	f6 4c       	sbci	r31, 0xC6	; 198
    239e:	a0 83       	st	Z, r26
    23a0:	b1 83       	std	Z+1, r27	; 0x01
    reactStr[1][number]=length;
    23a2:	f9 01       	movw	r30, r18
    23a4:	ee 0f       	add	r30, r30
    23a6:	ff 1f       	adc	r31, r31
    23a8:	e3 59       	subi	r30, 0x93	; 147
    23aa:	f6 4c       	sbci	r31, 0xC6	; 198
    23ac:	60 83       	st	Z, r22
    23ae:	71 83       	std	Z+1, r23	; 0x01
    reactStr[2][number]=type;
    23b0:	22 0f       	add	r18, r18
    23b2:	33 1f       	adc	r19, r19
    23b4:	f9 01       	movw	r30, r18
    23b6:	e3 55       	subi	r30, 0x53	; 83
    23b8:	f6 4c       	sbci	r31, 0xC6	; 198
    23ba:	40 83       	st	Z, r20
    23bc:	51 83       	std	Z+1, r21	; 0x01
    return 0;
}

//
void SetResponse(uint8_t number, uint16_t address, uint16_t length, uint8_t type){
    reactStr[0][number]=address;
    23be:	24 e0       	ldi	r18, 0x04	; 4
    23c0:	28 0f       	add	r18, r24
    23c2:	30 e0       	ldi	r19, 0x00	; 0
    23c4:	f9 01       	movw	r30, r18
    23c6:	ee 0f       	add	r30, r30
    23c8:	ff 1f       	adc	r31, r31
    23ca:	e3 5d       	subi	r30, 0xD3	; 211
    23cc:	f6 4c       	sbci	r31, 0xC6	; 198
    23ce:	a5 e5       	ldi	r26, 0x55	; 85
    23d0:	ba e7       	ldi	r27, 0x7A	; 122
    23d2:	a0 83       	st	Z, r26
    23d4:	b1 83       	std	Z+1, r27	; 0x01
    reactStr[1][number]=length;
    23d6:	f9 01       	movw	r30, r18
    23d8:	ee 0f       	add	r30, r30
    23da:	ff 1f       	adc	r31, r31
    23dc:	e3 59       	subi	r30, 0x93	; 147
    23de:	f6 4c       	sbci	r31, 0xC6	; 198
    23e0:	60 83       	st	Z, r22
    23e2:	71 83       	std	Z+1, r23	; 0x01
    reactStr[2][number]=type;
    23e4:	22 0f       	add	r18, r18
    23e6:	33 1f       	adc	r19, r19
    23e8:	f9 01       	movw	r30, r18
    23ea:	e3 55       	subi	r30, 0x53	; 83
    23ec:	f6 4c       	sbci	r31, 0xC6	; 198
    23ee:	40 83       	st	Z, r20
    23f0:	51 83       	std	Z+1, r21	; 0x01
    reactStr[0][custStrEnd++] = CURR_LOC;
    SetResponse(custStrEnd++, A_LF, 2, TEASER);
    SetResponse(custStrEnd++, A_PROMPT, L_PROMPT, TEASER);

    return custStrEnd;
}
    23f2:	8b 5f       	subi	r24, 0xFB	; 251
    23f4:	df 91       	pop	r29
    23f6:	cf 91       	pop	r28
    23f8:	08 95       	ret

000023fa <PopulateObject>:

//Get all the relevant data and string addresses of an object
void PopulateObject(uint16_t offset, object_model_t *object){
    23fa:	af 92       	push	r10
    23fc:	bf 92       	push	r11
    23fe:	df 92       	push	r13
    2400:	ef 92       	push	r14
    2402:	ff 92       	push	r15
    2404:	0f 93       	push	r16
    2406:	1f 93       	push	r17
    2408:	cf 93       	push	r28
    240a:	df 93       	push	r29
    240c:	cd b7       	in	r28, 0x3d	; 61
    240e:	de b7       	in	r29, 0x3e	; 62
    2410:	2c 97       	sbiw	r28, 0x0c	; 12
    2412:	cd bf       	out	0x3d, r28	; 61
    2414:	de bf       	out	0x3e, r29	; 62
    2416:	7c 01       	movw	r14, r24
    2418:	8b 01       	movw	r16, r22
    uint16_t parStr;
    offset += L_BOILER;

    //Fill things with fixed distance to offset
    uint8_t data[OFF_STRINGFLDS];
    ExtEERead(offset, OFF_STRINGFLDS, GAME, &data[0]);
    241a:	9e 01       	movw	r18, r28
    241c:	2f 5f       	subi	r18, 0xFF	; 255
    241e:	3f 4f       	sbci	r19, 0xFF	; 255
    2420:	40 e0       	ldi	r20, 0x00	; 0
    2422:	6c e0       	ldi	r22, 0x0C	; 12
    2424:	80 96       	adiw	r24, 0x20	; 32
    2426:	0e 94 b3 07 	call	0xf66	; 0xf66 <ExtEERead>
    object->addrNextObj = (data[OFF_NEXTOBJ]<<8|data[OFF_NEXTOBJ+1])+L_BOILER;
    242a:	89 81       	ldd	r24, Y+1	; 0x01
    242c:	9a 81       	ldd	r25, Y+2	; 0x02
    242e:	98 27       	eor	r25, r24
    2430:	89 27       	eor	r24, r25
    2432:	98 27       	eor	r25, r24
    2434:	80 96       	adiw	r24, 0x20	; 32
    2436:	f8 01       	movw	r30, r16
    2438:	80 83       	st	Z, r24
    243a:	91 83       	std	Z+1, r25	; 0x01
    object->addrNextLvl = (data[OFF_NEXTLVL]<<8|data[OFF_NEXTLVL+1])+L_BOILER;
    243c:	8b 81       	ldd	r24, Y+3	; 0x03
    243e:	9c 81       	ldd	r25, Y+4	; 0x04
    2440:	98 27       	eor	r25, r24
    2442:	89 27       	eor	r24, r25
    2444:	98 27       	eor	r25, r24
    2446:	80 96       	adiw	r24, 0x20	; 32
    2448:	82 83       	std	Z+2, r24	; 0x02
    244a:	93 83       	std	Z+3, r25	; 0x03
    244c:	de 01       	movw	r26, r28
    244e:	15 96       	adiw	r26, 0x05	; 5
    2450:	34 96       	adiw	r30, 0x04	; 4
    2452:	c8 01       	movw	r24, r16
    2454:	0c 96       	adiw	r24, 0x0c	; 12
    for (uint8_t x=0; x<BYTE_FIELDS_LEN; ++x){
        object->byteField[x]=data[x+OFF_BYTEFLDS];
    2456:	2d 91       	ld	r18, X+
    2458:	21 93       	st	Z+, r18
    //Fill things with fixed distance to offset
    uint8_t data[OFF_STRINGFLDS];
    ExtEERead(offset, OFF_STRINGFLDS, GAME, &data[0]);
    object->addrNextObj = (data[OFF_NEXTOBJ]<<8|data[OFF_NEXTOBJ+1])+L_BOILER;
    object->addrNextLvl = (data[OFF_NEXTLVL]<<8|data[OFF_NEXTLVL+1])+L_BOILER;
    for (uint8_t x=0; x<BYTE_FIELDS_LEN; ++x){
    245a:	e8 17       	cp	r30, r24
    245c:	f9 07       	cpc	r31, r25
    245e:	d9 f7       	brne	.-10     	; 0x2456 <PopulateObject+0x5c>
        object->byteField[x]=data[x+OFF_BYTEFLDS];
    }

    //Find out where all of the strings begin and how long they are
    offset += OFF_STRINGFLDS;
    2460:	fc e2       	ldi	r31, 0x2C	; 44
    2462:	ef 0e       	add	r14, r31
    2464:	f1 1c       	adc	r15, r1
    2466:	58 01       	movw	r10, r16
    for(uint8_t x=0; x<STRING_FIELDS_LEN; ++x){
    2468:	d1 2c       	mov	r13, r1
        
        //Determine length
        ExtEERead(offset, 3, GAME, &data[0]);
    246a:	9e 01       	movw	r18, r28
    246c:	2f 5f       	subi	r18, 0xFF	; 255
    246e:	3f 4f       	sbci	r19, 0xFF	; 255
    2470:	40 e0       	ldi	r20, 0x00	; 0
    2472:	63 e0       	ldi	r22, 0x03	; 3
    2474:	c7 01       	movw	r24, r14
    2476:	0e 94 b3 07 	call	0xf66	; 0xf66 <ExtEERead>
    247a:	89 81       	ldd	r24, Y+1	; 0x01
    247c:	9a 81       	ldd	r25, Y+2	; 0x02
    247e:	98 27       	eor	r25, r24
    2480:	89 27       	eor	r24, r25
    2482:	98 27       	eor	r25, r24
        parStr = (data[0]<<8|data[1]);
        offset += 2;
    2484:	97 01       	movw	r18, r14
    2486:	2e 5f       	subi	r18, 0xFE	; 254
    2488:	3f 4f       	sbci	r19, 0xFF	; 255
        if (x >= OPEN_ACL_MSG){
    248a:	43 e0       	ldi	r20, 0x03	; 3
    248c:	4d 15       	cp	r20, r13
    248e:	80 f4       	brcc	.+32     	; 0x24b0 <PopulateObject+0xb6>
            object->lenStr[x]= parStr-1;
    2490:	ac 01       	movw	r20, r24
    2492:	41 50       	subi	r20, 0x01	; 1
    2494:	51 09       	sbc	r21, r1
    2496:	f8 01       	movw	r30, r16
    2498:	42 8f       	std	Z+26, r20	; 0x1a
    249a:	53 8f       	std	Z+27, r21	; 0x1b
            object->addrStr[x]=offset+1;
    249c:	f3 e0       	ldi	r31, 0x03	; 3
    249e:	ef 0e       	add	r14, r31
    24a0:	f1 1c       	adc	r15, r1
    24a2:	f8 01       	movw	r30, r16
    24a4:	e4 86       	std	Z+12, r14	; 0x0c
    24a6:	f5 86       	std	Z+13, r15	; 0x0d
            object->effect[x-OPEN_ACL_MSG] = data[2];
    24a8:	4b 81       	ldd	r20, Y+3	; 0x03
    24aa:	f5 01       	movw	r30, r10
    24ac:	44 a3       	std	Z+36, r20	; 0x24
    24ae:	05 c0       	rjmp	.+10     	; 0x24ba <PopulateObject+0xc0>
        } else {
            object->lenStr[x]= parStr;
    24b0:	f8 01       	movw	r30, r16
    24b2:	82 8f       	std	Z+26, r24	; 0x1a
    24b4:	93 8f       	std	Z+27, r25	; 0x1b
            object->addrStr[x]=offset;
    24b6:	24 87       	std	Z+12, r18	; 0x0c
    24b8:	35 87       	std	Z+13, r19	; 0x0d
        }
        
        //Determine string start location for next field
        offset += parStr;
    24ba:	7c 01       	movw	r14, r24
    24bc:	e2 0e       	add	r14, r18
    24be:	f3 1e       	adc	r15, r19
        object->byteField[x]=data[x+OFF_BYTEFLDS];
    }

    //Find out where all of the strings begin and how long they are
    offset += OFF_STRINGFLDS;
    for(uint8_t x=0; x<STRING_FIELDS_LEN; ++x){
    24c0:	d3 94       	inc	r13
    24c2:	0e 5f       	subi	r16, 0xFE	; 254
    24c4:	1f 4f       	sbci	r17, 0xFF	; 255
    24c6:	ff ef       	ldi	r31, 0xFF	; 255
    24c8:	af 1a       	sub	r10, r31
    24ca:	bf 0a       	sbc	r11, r31
    24cc:	47 e0       	ldi	r20, 0x07	; 7
    24ce:	d4 12       	cpse	r13, r20
    24d0:	cc cf       	rjmp	.-104    	; 0x246a <PopulateObject+0x70>
        }
        
        //Determine string start location for next field
        offset += parStr;
    }    
}
    24d2:	2c 96       	adiw	r28, 0x0c	; 12
    24d4:	cd bf       	out	0x3d, r28	; 61
    24d6:	de bf       	out	0x3e, r29	; 62
    24d8:	df 91       	pop	r29
    24da:	cf 91       	pop	r28
    24dc:	1f 91       	pop	r17
    24de:	0f 91       	pop	r16
    24e0:	ff 90       	pop	r15
    24e2:	ef 90       	pop	r14
    24e4:	df 90       	pop	r13
    24e6:	bf 90       	pop	r11
    24e8:	af 90       	pop	r10
    24ea:	08 95       	ret

000024ec <CheckLetter>:

//Check if the entered letter corresponds with a name
uint8_t CheckLetter(uint16_t object, uint8_t letter){
    24ec:	a0 e2       	ldi	r26, 0x20	; 32
    24ee:	b0 e0       	ldi	r27, 0x00	; 0
    24f0:	ec e7       	ldi	r30, 0x7C	; 124
    24f2:	f2 e1       	ldi	r31, 0x12	; 18
    24f4:	0c 94 69 1f 	jmp	0x3ed2	; 0x3ed2 <__prologue_saves__+0x14>
    24f8:	c6 2e       	mov	r12, r22
    
    uint8_t found = 0;
    uint8_t data[32];

    object += L_BOILER;
    24fa:	7c 01       	movw	r14, r24
    24fc:	20 e2       	ldi	r18, 0x20	; 32
    24fe:	e2 0e       	add	r14, r18
    2500:	f1 1c       	adc	r15, r1
    ExtEERead(object+OFF_STRINGFLDS, 2, GAME, &data[0]);
    2502:	9e 01       	movw	r18, r28
    2504:	2f 5f       	subi	r18, 0xFF	; 255
    2506:	3f 4f       	sbci	r19, 0xFF	; 255
    2508:	40 e0       	ldi	r20, 0x00	; 0
    250a:	62 e0       	ldi	r22, 0x02	; 2
    250c:	8c 96       	adiw	r24, 0x2c	; 44
    250e:	0e 94 b3 07 	call	0xf66	; 0xf66 <ExtEERead>
    uint8_t x = data[1]; //Assuming a name is not longer than 255 characters.
    2512:	1a 81       	ldd	r17, Y+2	; 0x02
}

//Check if the entered letter corresponds with a name
uint8_t CheckLetter(uint16_t object, uint8_t letter){
    
    uint8_t found = 0;
    2514:	d1 2c       	mov	r13, r1

    object += L_BOILER;
    ExtEERead(object+OFF_STRINGFLDS, 2, GAME, &data[0]);
    uint8_t x = data[1]; //Assuming a name is not longer than 255 characters.

    while (x){
    2516:	11 23       	and	r17, r17
    2518:	59 f1       	breq	.+86     	; 0x2570 <CheckLetter+0x84>
    251a:	01 2f       	mov	r16, r17
    251c:	11 32       	cpi	r17, 0x21	; 33
    251e:	08 f0       	brcs	.+2      	; 0x2522 <CheckLetter+0x36>
    2520:	00 e2       	ldi	r16, 0x20	; 32
        uint8_t max;
        if (x>32) max = 32; else max = x;
        ExtEERead(object+OFF_STRINGFLDS+2, max, GAME, &data[0]);
    2522:	9e 01       	movw	r18, r28
    2524:	2f 5f       	subi	r18, 0xFF	; 255
    2526:	3f 4f       	sbci	r19, 0xFF	; 255
    2528:	40 e0       	ldi	r20, 0x00	; 0
    252a:	60 2f       	mov	r22, r16
    252c:	c7 01       	movw	r24, r14
    252e:	0e 96       	adiw	r24, 0x0e	; 14
    2530:	0e 94 b3 07 	call	0xf66	; 0xf66 <ExtEERead>
    2534:	fe 01       	movw	r30, r28
    2536:	31 96       	adiw	r30, 0x01	; 1
        for (uint8_t y=0; y<max; ++y){
    2538:	80 e0       	ldi	r24, 0x00	; 0
            if (found){
    253a:	dd 20       	and	r13, r13
    253c:	61 f0       	breq	.+24     	; 0x2556 <CheckLetter+0x6a>
                if ((data[y]|0x20) == letter) return 1; else return 0;
    253e:	e1 e0       	ldi	r30, 0x01	; 1
    2540:	f0 e0       	ldi	r31, 0x00	; 0
    2542:	ec 0f       	add	r30, r28
    2544:	fd 1f       	adc	r31, r29
    2546:	e8 0f       	add	r30, r24
    2548:	f1 1d       	adc	r31, r1
    254a:	90 81       	ld	r25, Z
    254c:	90 62       	ori	r25, 0x20	; 32
    254e:	81 e0       	ldi	r24, 0x01	; 1
    2550:	9c 11       	cpse	r25, r12
    2552:	0e c0       	rjmp	.+28     	; 0x2570 <CheckLetter+0x84>
    2554:	0e c0       	rjmp	.+28     	; 0x2572 <CheckLetter+0x86>
            }
            if (data[y] == '[') found = 1;
    2556:	91 91       	ld	r25, Z+
    2558:	dd 24       	eor	r13, r13
    255a:	d3 94       	inc	r13
    255c:	9b 35       	cpi	r25, 0x5B	; 91
    255e:	09 f0       	breq	.+2      	; 0x2562 <CheckLetter+0x76>
    2560:	d1 2c       	mov	r13, r1

    while (x){
        uint8_t max;
        if (x>32) max = 32; else max = x;
        ExtEERead(object+OFF_STRINGFLDS+2, max, GAME, &data[0]);
        for (uint8_t y=0; y<max; ++y){
    2562:	8f 5f       	subi	r24, 0xFF	; 255
    2564:	80 17       	cp	r24, r16
    2566:	48 f3       	brcs	.-46     	; 0x253a <CheckLetter+0x4e>
            if (found){
                if ((data[y]|0x20) == letter) return 1; else return 0;
            }
            if (data[y] == '[') found = 1;
        }
        object += max;
    2568:	e0 0e       	add	r14, r16
    256a:	f1 1c       	adc	r15, r1
        x -= max;
    256c:	10 1b       	sub	r17, r16
    256e:	d3 cf       	rjmp	.-90     	; 0x2516 <CheckLetter+0x2a>
    }
    return 0;
    2570:	80 e0       	ldi	r24, 0x00	; 0
}
    2572:	a0 96       	adiw	r28, 0x20	; 32
    2574:	e8 e0       	ldi	r30, 0x08	; 8
    2576:	0c 94 82 1f 	jmp	0x3f04	; 0x3f04 <__epilogue_restores__+0x14>

0000257a <FindChild>:

//Returns the child's address if the child is visible and the search letter matches
uint16_t FindChild(uint16_t parent, uint8_t letter, uint16_t start){
    257a:	af 92       	push	r10
    257c:	bf 92       	push	r11
    257e:	df 92       	push	r13
    2580:	ef 92       	push	r14
    2582:	ff 92       	push	r15
    2584:	0f 93       	push	r16
    2586:	1f 93       	push	r17
    2588:	cf 93       	push	r28
    258a:	df 93       	push	r29
    258c:	00 d0       	rcall	.+0      	; 0x258e <FindChild+0x14>
    258e:	00 d0       	rcall	.+0      	; 0x2590 <FindChild+0x16>
    2590:	cd b7       	in	r28, 0x3d	; 61
    2592:	de b7       	in	r29, 0x3e	; 62
    2594:	d6 2e       	mov	r13, r22
    2596:	5a 01       	movw	r10, r20
    
    uint16_t child = parent;
    uint8_t data[4];

    ExtEERead(child+L_BOILER, 4, GAME, &data[0]);
    2598:	9e 01       	movw	r18, r28
    259a:	2f 5f       	subi	r18, 0xFF	; 255
    259c:	3f 4f       	sbci	r19, 0xFF	; 255
    259e:	40 e0       	ldi	r20, 0x00	; 0
    25a0:	64 e0       	ldi	r22, 0x04	; 4
    25a2:	80 96       	adiw	r24, 0x20	; 32
    25a4:	0e 94 b3 07 	call	0xf66	; 0xf66 <ExtEERead>
    25a8:	e9 80       	ldd	r14, Y+1	; 0x01
    25aa:	fa 80       	ldd	r15, Y+2	; 0x02
    25ac:	fe 24       	eor	r15, r14
    25ae:	ef 24       	eor	r14, r15
    25b0:	fe 24       	eor	r15, r14
    25b2:	0b 81       	ldd	r16, Y+3	; 0x03
    25b4:	1c 81       	ldd	r17, Y+4	; 0x04
    25b6:	10 27       	eor	r17, r16
    25b8:	01 27       	eor	r16, r17
    25ba:	10 27       	eor	r17, r16
    parent = (data[0]<<8|data[1]);    //Next object on parent level
    child =  (data[2]<<8|data[3]);    //First object on child level

    //As long as the child is within the parent's range
    while (parent>child){
    25bc:	0e 15       	cp	r16, r14
    25be:	1f 05       	cpc	r17, r15
    25c0:	48 f5       	brcc	.+82     	; 0x2614 <FindChild+0x9a>

        //If child's address is higher than the start address, perform search for letter
        if (child>start){
    25c2:	a0 16       	cp	r10, r16
    25c4:	b1 06       	cpc	r11, r17
    25c6:	60 f0       	brcs	.+24     	; 0x25e0 <FindChild+0x66>
                if ((letter == 0)||(CheckLetter(child, letter))) return child;
            }
        }

        //Not visible or name not right
        ExtEERead(child+L_BOILER, 2, GAME, &data[0]);
    25c8:	9e 01       	movw	r18, r28
    25ca:	2f 5f       	subi	r18, 0xFF	; 255
    25cc:	3f 4f       	sbci	r19, 0xFF	; 255
    25ce:	40 e0       	ldi	r20, 0x00	; 0
    25d0:	62 e0       	ldi	r22, 0x02	; 2
    25d2:	c8 01       	movw	r24, r16
    25d4:	80 96       	adiw	r24, 0x20	; 32
    25d6:	0e 94 b3 07 	call	0xf66	; 0xf66 <ExtEERead>
    25da:	09 81       	ldd	r16, Y+1	; 0x01
    25dc:	1a 81       	ldd	r17, Y+2	; 0x02
    25de:	eb cf       	rjmp	.-42     	; 0x25b6 <FindChild+0x3c>
    //As long as the child is within the parent's range
    while (parent>child){

        //If child's address is higher than the start address, perform search for letter
        if (child>start){
            ExtEERead(child+OFF_BYTEFLDS+VISIBLE_ACL+L_BOILER, 1, GAME, &data[0]);
    25e0:	9e 01       	movw	r18, r28
    25e2:	2f 5f       	subi	r18, 0xFF	; 255
    25e4:	3f 4f       	sbci	r19, 0xFF	; 255
    25e6:	40 e0       	ldi	r20, 0x00	; 0
    25e8:	61 e0       	ldi	r22, 0x01	; 1
    25ea:	c8 01       	movw	r24, r16
    25ec:	85 96       	adiw	r24, 0x25	; 37
    25ee:	0e 94 b3 07 	call	0xf66	; 0xf66 <ExtEERead>
            if ((data[0] == 0)||(CheckState(data[0]))) {
    25f2:	89 81       	ldd	r24, Y+1	; 0x01
    25f4:	81 11       	cpse	r24, r1
    25f6:	03 c0       	rjmp	.+6      	; 0x25fe <FindChild+0x84>
                if ((letter == 0)||(CheckLetter(child, letter))) return child;
    25f8:	d1 10       	cpse	r13, r1
    25fa:	06 c0       	rjmp	.+12     	; 0x2608 <FindChild+0x8e>
    25fc:	0e c0       	rjmp	.+28     	; 0x261a <FindChild+0xa0>
    while (parent>child){

        //If child's address is higher than the start address, perform search for letter
        if (child>start){
            ExtEERead(child+OFF_BYTEFLDS+VISIBLE_ACL+L_BOILER, 1, GAME, &data[0]);
            if ((data[0] == 0)||(CheckState(data[0]))) {
    25fe:	0e 94 6a 09 	call	0x12d4	; 0x12d4 <CheckState>
    2602:	81 11       	cpse	r24, r1
    2604:	f9 cf       	rjmp	.-14     	; 0x25f8 <FindChild+0x7e>
    2606:	e0 cf       	rjmp	.-64     	; 0x25c8 <FindChild+0x4e>
                if ((letter == 0)||(CheckLetter(child, letter))) return child;
    2608:	6d 2d       	mov	r22, r13
    260a:	c8 01       	movw	r24, r16
    260c:	6f df       	rcall	.-290    	; 0x24ec <CheckLetter>
    260e:	88 23       	and	r24, r24
    2610:	d9 f2       	breq	.-74     	; 0x25c8 <FindChild+0x4e>
    2612:	03 c0       	rjmp	.+6      	; 0x261a <FindChild+0xa0>

        //Not visible or name not right
        ExtEERead(child+L_BOILER, 2, GAME, &data[0]);
        child = (data[0]<<8|data[1]);    //Next object on child level
        
    } return 0;
    2614:	80 e0       	ldi	r24, 0x00	; 0
    2616:	90 e0       	ldi	r25, 0x00	; 0
    2618:	01 c0       	rjmp	.+2      	; 0x261c <FindChild+0xa2>
    261a:	c8 01       	movw	r24, r16
}
    261c:	24 96       	adiw	r28, 0x04	; 4
    261e:	cd bf       	out	0x3d, r28	; 61
    2620:	de bf       	out	0x3e, r29	; 62
    2622:	df 91       	pop	r29
    2624:	cf 91       	pop	r28
    2626:	1f 91       	pop	r17
    2628:	0f 91       	pop	r16
    262a:	ff 90       	pop	r15
    262c:	ef 90       	pop	r14
    262e:	df 90       	pop	r13
    2630:	bf 90       	pop	r11
    2632:	af 90       	pop	r10
    2634:	08 95       	ret

00002636 <InpOkChk>:

//Allow only a(A) to z(Z) and 0 to 9 as input
uint8_t InpOkChk(uint8_t test){
    test |= 0x20;
    2636:	80 62       	ori	r24, 0x20	; 32
    if ((test>='a')&&(test<='z')) return 1;
    2638:	9f e9       	ldi	r25, 0x9F	; 159
    263a:	98 0f       	add	r25, r24
    263c:	9a 31       	cpi	r25, 0x1A	; 26
    263e:	38 f0       	brcs	.+14     	; 0x264e <InpOkChk+0x18>
    2640:	90 ed       	ldi	r25, 0xD0	; 208
    2642:	98 0f       	add	r25, r24
    2644:	81 e0       	ldi	r24, 0x01	; 1
    2646:	9a 30       	cpi	r25, 0x0A	; 10
    2648:	18 f0       	brcs	.+6      	; 0x2650 <InpOkChk+0x1a>
    264a:	80 e0       	ldi	r24, 0x00	; 0
    264c:	08 95       	ret
    264e:	81 e0       	ldi	r24, 0x01	; 1
    if ((test>='0')&&(test<='9')) return 1;
    return 0;
}
    2650:	08 95       	ret

00002652 <CleanInput>:

//Cleans input of garbage and returns length of cleaned input "o->d2  !\0" becomes "od2\0"
uint8_t CleanInput(uint8_t *data){
    2652:	0f 93       	push	r16
    2654:	1f 93       	push	r17
    2656:	cf 93       	push	r28
    2658:	df 93       	push	r29
    265a:	8c 01       	movw	r16, r24
    uint8_t cnt = 0;
    for (uint8_t x=0; data[x]!=0; ++x){
    265c:	d0 e0       	ldi	r29, 0x00	; 0
    return 0;
}

//Cleans input of garbage and returns length of cleaned input "o->d2  !\0" becomes "od2\0"
uint8_t CleanInput(uint8_t *data){
    uint8_t cnt = 0;
    265e:	c0 e0       	ldi	r28, 0x00	; 0
    for (uint8_t x=0; data[x]!=0; ++x){
    2660:	f8 01       	movw	r30, r16
    2662:	ed 0f       	add	r30, r29
    2664:	f1 1d       	adc	r31, r1
    2666:	80 81       	ld	r24, Z
    2668:	2c 2f       	mov	r18, r28
    266a:	30 e0       	ldi	r19, 0x00	; 0
    266c:	88 23       	and	r24, r24
    266e:	61 f0       	breq	.+24     	; 0x2688 <CleanInput+0x36>
        data[cnt] = data[x];
    2670:	d8 01       	movw	r26, r16
    2672:	a2 0f       	add	r26, r18
    2674:	b3 1f       	adc	r27, r19
    2676:	8c 93       	st	X, r24
        if (data[x] == 0x1b) break; //Escape characters are not supported!
    2678:	80 81       	ld	r24, Z
    267a:	8b 31       	cpi	r24, 0x1B	; 27
    267c:	29 f0       	breq	.+10     	; 0x2688 <CleanInput+0x36>
        if (InpOkChk(data[x])) ++cnt;
    267e:	db df       	rcall	.-74     	; 0x2636 <InpOkChk>
    2680:	81 11       	cpse	r24, r1
    2682:	cf 5f       	subi	r28, 0xFF	; 255
}

//Cleans input of garbage and returns length of cleaned input "o->d2  !\0" becomes "od2\0"
uint8_t CleanInput(uint8_t *data){
    uint8_t cnt = 0;
    for (uint8_t x=0; data[x]!=0; ++x){
    2684:	df 5f       	subi	r29, 0xFF	; 255
    2686:	ec cf       	rjmp	.-40     	; 0x2660 <CleanInput+0xe>
        data[cnt] = data[x];
        if (data[x] == 0x1b) break; //Escape characters are not supported!
        if (InpOkChk(data[x])) ++cnt;
    }
    data[cnt] = 0;
    2688:	f8 01       	movw	r30, r16
    268a:	e2 0f       	add	r30, r18
    268c:	f3 1f       	adc	r31, r19
    268e:	10 82       	st	Z, r1
    return cnt;
}
    2690:	8c 2f       	mov	r24, r28
    2692:	df 91       	pop	r29
    2694:	cf 91       	pop	r28
    2696:	1f 91       	pop	r17
    2698:	0f 91       	pop	r16
    269a:	08 95       	ret

0000269c <CheckSend>:

//Send routine, optimized for low memory usage
uint8_t CheckSend(){
    269c:	cf 93       	push	r28
    /*if (effect == 0){
        effect = currObj.byteField[EFFECTS];
    }*/

    //Check if more string(part)s have to be sent to the serial output if previous send operation is completed
    if ((txAddrNow < TXLISTLEN) && serTxDone){
    269e:	20 91 59 3a 	lds	r18, 0x3A59	; 0x803a59 <txAddrNow>
    26a2:	28 30       	cpi	r18, 0x08	; 8
    26a4:	08 f0       	brcs	.+2      	; 0x26a8 <CheckSend+0xc>
    26a6:	49 c0       	rjmp	.+146    	; 0x273a <CheckSend+0x9e>
    26a8:	80 91 09 38 	lds	r24, 0x3809	; 0x803809 <serTxDone>
    26ac:	88 23       	and	r24, r24
    26ae:	09 f4       	brne	.+2      	; 0x26b2 <CheckSend+0x16>
    26b0:	44 c0       	rjmp	.+136    	; 0x273a <CheckSend+0x9e>
        if (txStrLen[txAddrNow] == 0){
    26b2:	82 2f       	mov	r24, r18
    26b4:	90 e0       	ldi	r25, 0x00	; 0
    26b6:	fc 01       	movw	r30, r24
    26b8:	e6 5a       	subi	r30, 0xA6	; 166
    26ba:	f5 4c       	sbci	r31, 0xC5	; 197
    26bc:	e0 81       	ld	r30, Z
    26be:	e1 11       	cpse	r30, r1
    26c0:	06 c0       	rjmp	.+12     	; 0x26ce <CheckSend+0x32>
            txPart = 0;
    26c2:	10 92 18 39 	sts	0x3918, r1	; 0x803918 <txPart.3917>
            txAddrNow = TXLISTLEN;
    26c6:	88 e0       	ldi	r24, 0x08	; 8
    26c8:	80 93 59 3a 	sts	0x3A59, r24	; 0x803a59 <txAddrNow>
    26cc:	2e c0       	rjmp	.+92     	; 0x272a <CheckSend+0x8e>
        } else if (txPart < txStrLen[txAddrNow]){
    26ce:	50 91 18 39 	lds	r21, 0x3918	; 0x803918 <txPart.3917>
    26d2:	5e 17       	cp	r21, r30
    26d4:	60 f5       	brcc	.+88     	; 0x272e <CheckSend+0x92>
            EEreadLength = txStrLen[txAddrNow]-txPart;
    26d6:	ce 2f       	mov	r28, r30
    26d8:	c5 1b       	sub	r28, r21
    26da:	c1 32       	cpi	r28, 0x21	; 33
    26dc:	08 f0       	brcs	.+2      	; 0x26e0 <CheckSend+0x44>
    26de:	c0 e2       	ldi	r28, 0x20	; 32
            if (EEreadLength>=TXLEN) EEreadLength = TXLEN-1;
            ExtEERead(txAddrList[txAddrNow]+txPart, EEreadLength, txTypeNow, &txBuffer[0]);
    26e0:	88 0f       	add	r24, r24
    26e2:	99 1f       	adc	r25, r25
    26e4:	fc 01       	movw	r30, r24
    26e6:	ee 59       	subi	r30, 0x9E	; 158
    26e8:	f5 4c       	sbci	r31, 0xC5	; 197
    26ea:	80 81       	ld	r24, Z
    26ec:	91 81       	ldd	r25, Z+1	; 0x01
    26ee:	26 e0       	ldi	r18, 0x06	; 6
    26f0:	3b e3       	ldi	r19, 0x3B	; 59
    26f2:	40 91 58 3a 	lds	r20, 0x3A58	; 0x803a58 <txTypeNow>
    26f6:	6c 2f       	mov	r22, r28
    26f8:	85 0f       	add	r24, r21
    26fa:	91 1d       	adc	r25, r1
    26fc:	0e 94 b3 07 	call	0xf66	; 0xf66 <ExtEERead>
            txPart += EEreadLength;
    2700:	80 91 18 39 	lds	r24, 0x3918	; 0x803918 <txPart.3917>
    2704:	8c 0f       	add	r24, r28
    2706:	80 93 18 39 	sts	0x3918, r24	; 0x803918 <txPart.3917>
            txBuffer[EEreadLength] = 0; //Add string terminator after piece to send to plug memory leak
    270a:	ec 2f       	mov	r30, r28
    270c:	f0 e0       	ldi	r31, 0x00	; 0
    270e:	ea 5f       	subi	r30, 0xFA	; 250
    2710:	f4 4c       	sbci	r31, 0xC4	; 196
    2712:	10 82       	st	Z, r1
            if ((txBuffer[0] == 0) && (EEreadLength)) txBuffer[0] = 0xDB; //Block character when data wrong.
    2714:	80 91 06 3b 	lds	r24, 0x3B06	; 0x803b06 <txBuffer>
    2718:	81 11       	cpse	r24, r1
    271a:	03 c0       	rjmp	.+6      	; 0x2722 <CheckSend+0x86>
    271c:	8b ed       	ldi	r24, 0xDB	; 219
    271e:	80 93 06 3b 	sts	0x3B06, r24	; 0x803b06 <txBuffer>
            SerSend(&txBuffer[0]);
    2722:	86 e0       	ldi	r24, 0x06	; 6
    2724:	9b e3       	ldi	r25, 0x3B	; 59
    2726:	0e 94 d5 07 	call	0xfaa	; 0xfaa <SerSend>
        } else {
            txPart = 0;
            ++txAddrNow;
        }
    } else if (serTxDone) return 0; //All is sent!
    return 1; //Still sending, do not change the data in the tx variables
    272a:	81 e0       	ldi	r24, 0x01	; 1
    272c:	0b c0       	rjmp	.+22     	; 0x2744 <CheckSend+0xa8>
            txPart += EEreadLength;
            txBuffer[EEreadLength] = 0; //Add string terminator after piece to send to plug memory leak
            if ((txBuffer[0] == 0) && (EEreadLength)) txBuffer[0] = 0xDB; //Block character when data wrong.
            SerSend(&txBuffer[0]);
        } else {
            txPart = 0;
    272e:	10 92 18 39 	sts	0x3918, r1	; 0x803918 <txPart.3917>
            ++txAddrNow;
    2732:	2f 5f       	subi	r18, 0xFF	; 255
    2734:	20 93 59 3a 	sts	0x3A59, r18	; 0x803a59 <txAddrNow>
    2738:	f8 cf       	rjmp	.-16     	; 0x272a <CheckSend+0x8e>
        }
    } else if (serTxDone) return 0; //All is sent!
    273a:	90 91 09 38 	lds	r25, 0x3809	; 0x803809 <serTxDone>
    273e:	81 e0       	ldi	r24, 0x01	; 1
    2740:	91 11       	cpse	r25, r1
    2742:	80 e0       	ldi	r24, 0x00	; 0
    return 1; //Still sending, do not change the data in the tx variables
}
    2744:	cf 91       	pop	r28
    2746:	08 95       	ret

00002748 <CheckResponse>:

//Send another part of the response and play the effect afterwards
uint8_t CheckResponse(){
    2748:	cf 93       	push	r28
    274a:	df 93       	push	r29
    static uint8_t number = 0;
    if (responseList){
    274c:	c0 91 2c 39 	lds	r28, 0x392C	; 0x80392c <responseList>
    2750:	cc 23       	and	r28, r28
    2752:	b1 f1       	breq	.+108    	; 0x27c0 <CheckResponse+0x78>
        --responseList;
    2754:	c1 50       	subi	r28, 0x01	; 1
    2756:	c0 93 2c 39 	sts	0x392C, r28	; 0x80392c <responseList>
        if (reactStr[0][number] == CURR_LOC) {
    275a:	d0 91 17 39 	lds	r29, 0x3917	; 0x803917 <number.3921>
    275e:	2d 2f       	mov	r18, r29
    2760:	30 e0       	ldi	r19, 0x00	; 0
    2762:	f9 01       	movw	r30, r18
    2764:	ee 0f       	add	r30, r30
    2766:	ff 1f       	adc	r31, r31
    2768:	e3 5d       	subi	r30, 0xD3	; 211
    276a:	f6 4c       	sbci	r31, 0xC6	; 198
    276c:	80 81       	ld	r24, Z
    276e:	91 81       	ldd	r25, Z+1	; 0x01
    2770:	80 3f       	cpi	r24, 0xF0	; 240
    2772:	4f ef       	ldi	r20, 0xFF	; 255
    2774:	94 07       	cpc	r25, r20
    2776:	51 f4       	brne	.+20     	; 0x278c <CheckResponse+0x44>
            PrepareSending(currObj.addrStr[NAME], currObj.lenStr[NAME], GAME);
    2778:	60 91 47 3a 	lds	r22, 0x3A47	; 0x803a47 <currObj+0x1a>
    277c:	70 91 48 3a 	lds	r23, 0x3A48	; 0x803a48 <currObj+0x1b>
    2780:	40 e0       	ldi	r20, 0x00	; 0
    2782:	80 91 39 3a 	lds	r24, 0x3A39	; 0x803a39 <currObj+0xc>
    2786:	90 91 3a 3a 	lds	r25, 0x3A3A	; 0x803a3a <currObj+0xd>
    278a:	0d c0       	rjmp	.+26     	; 0x27a6 <CheckResponse+0x5e>
        } else {
            PrepareSending(reactStr[0][number], reactStr[1][number], reactStr[2][number]);
    278c:	d9 01       	movw	r26, r18
    278e:	aa 0f       	add	r26, r26
    2790:	bb 1f       	adc	r27, r27
    2792:	a3 55       	subi	r26, 0x53	; 83
    2794:	b6 4c       	sbci	r27, 0xC6	; 198
    2796:	22 0f       	add	r18, r18
    2798:	33 1f       	adc	r19, r19
    279a:	f9 01       	movw	r30, r18
    279c:	e3 59       	subi	r30, 0x93	; 147
    279e:	f6 4c       	sbci	r31, 0xC6	; 198
    27a0:	60 81       	ld	r22, Z
    27a2:	71 81       	ldd	r23, Z+1	; 0x01
    27a4:	4c 91       	ld	r20, X
    27a6:	70 dd       	rcall	.-1312   	; 0x2288 <PrepareSending>
        }
        ++number;
    27a8:	df 5f       	subi	r29, 0xFF	; 255
    27aa:	d0 93 17 39 	sts	0x3917, r29	; 0x803917 <number.3921>

        if (responseList == 0) {
    27ae:	c1 11       	cpse	r28, r1
    27b0:	06 c0       	rjmp	.+12     	; 0x27be <CheckResponse+0x76>
            //effect = currObj.byteField[EFFECTS];
            RXCNT = 0;
    27b2:	1d ba       	out	0x1d, r1	; 29
            serRxDone = 0;
    27b4:	10 92 55 38 	sts	0x3855, r1	; 0x803855 <serRxDone>
            number = 0;
    27b8:	10 92 17 39 	sts	0x3917, r1	; 0x803917 <number.3921>
    27bc:	01 c0       	rjmp	.+2      	; 0x27c0 <CheckResponse+0x78>
            return 0;
        }
        return 1;
    27be:	c1 e0       	ldi	r28, 0x01	; 1
    }
    return 0;
}
    27c0:	8c 2f       	mov	r24, r28
    27c2:	df 91       	pop	r29
    27c4:	cf 91       	pop	r28
    27c6:	08 95       	ret

000027c8 <CheckInput>:

//User input check (and validation)
uint8_t CheckInput(uint8_t *data){
    27c8:	a9 e0       	ldi	r26, 0x09	; 9
    27ca:	b0 e0       	ldi	r27, 0x00	; 0
    27cc:	ea ee       	ldi	r30, 0xEA	; 234
    27ce:	f3 e1       	ldi	r31, 0x13	; 19
    27d0:	0c 94 62 1f 	jmp	0x3ec4	; 0x3ec4 <__prologue_saves__+0x6>
    27d4:	8c 01       	movw	r16, r24
    
    //Load game data after reboot
    if (currDepth == 0xff) {
    27d6:	80 91 3e 38 	lds	r24, 0x383E	; 0x80383e <currDepth>
    27da:	8f 3f       	cpi	r24, 0xFF	; 255
    27dc:	49 f4       	brne	.+18     	; 0x27f0 <CheckInput+0x28>
        //Start at first location
        PopulateObject(route[0], &currObj);
    27de:	6d e2       	ldi	r22, 0x2D	; 45
    27e0:	7a e3       	ldi	r23, 0x3A	; 58
    27e2:	80 91 ed 39 	lds	r24, 0x39ED	; 0x8039ed <route>
    27e6:	90 91 ee 39 	lds	r25, 0x39EE	; 0x8039ee <route+0x1>
    27ea:	07 de       	rcall	.-1010   	; 0x23fa <PopulateObject>
        currDepth = 0;
    27ec:	10 92 3e 38 	sts	0x383E, r1	; 0x80383e <currDepth>
    }

    if (serRxDone){
    27f0:	80 91 55 38 	lds	r24, 0x3855	; 0x803855 <serRxDone>
    27f4:	88 23       	and	r24, r24
    27f6:	09 f4       	brne	.+2      	; 0x27fa <CheckInput+0x32>
    27f8:	c0 c1       	rjmp	.+896    	; 0x2b7a <CheckInput+0x3b2>

        //Special input requested from user by game
        if (specialInput[0]){
    27fa:	80 91 1c 39 	lds	r24, 0x391C	; 0x80391c <specialInput>
    27fe:	88 23       	and	r24, r24
    2800:	09 f4       	brne	.+2      	; 0x2804 <CheckInput+0x3c>
    2802:	4f c0       	rjmp	.+158    	; 0x28a2 <CheckInput+0xda>
            specialPassed = 0;
    2804:	10 92 1b 39 	sts	0x391B, r1	; 0x80391b <specialPassed>
            data[0] = 'a';
    2808:	81 e6       	ldi	r24, 0x61	; 97
    280a:	f8 01       	movw	r30, r16
    280c:	80 83       	st	Z, r24
            
            //Normal code challenge
            if (StartsWith((uint8_t *)&serRx[0], &specialInput[0])) {
    280e:	6c e1       	ldi	r22, 0x1C	; 28
    2810:	79 e3       	ldi	r23, 0x39	; 57
    2812:	87 e8       	ldi	r24, 0x87	; 135
    2814:	9a e3       	ldi	r25, 0x3A	; 58
    2816:	1e dd       	rcall	.-1476   	; 0x2254 <StartsWith>
    2818:	f8 2e       	mov	r15, r24
    281a:	88 23       	and	r24, r24
    281c:	21 f0       	breq	.+8      	; 0x2826 <CheckInput+0x5e>
                specialPassed = 1;
    281e:	81 e0       	ldi	r24, 0x01	; 1
    2820:	80 93 1b 39 	sts	0x391B, r24	; 0x80391b <specialPassed>
    2824:	04 c0       	rjmp	.+8      	; 0x282e <CheckInput+0x66>

            //Special challenge 1
            } else if ((specialInput[0] == '1')&&(specialInput[2] == 0)) {
    2826:	80 91 1c 39 	lds	r24, 0x391C	; 0x80391c <specialInput>
    282a:	81 33       	cpi	r24, 0x31	; 49
    282c:	11 f0       	breq	.+4      	; 0x2832 <CheckInput+0x6a>
                responseList = SetStandardResponse((3*MAX_CHEATS));
                return 1;
            }
        } 
        //Data received, but not any of the commands above
        return 0;
    282e:	f1 2c       	mov	r15, r1
    2830:	a6 c1       	rjmp	.+844    	; 0x2b7e <CheckInput+0x3b6>
            //Normal code challenge
            if (StartsWith((uint8_t *)&serRx[0], &specialInput[0])) {
                specialPassed = 1;

            //Special challenge 1
            } else if ((specialInput[0] == '1')&&(specialInput[2] == 0)) {
    2832:	80 91 1e 39 	lds	r24, 0x391E	; 0x80391e <specialInput+0x2>
    2836:	81 11       	cpse	r24, r1
    2838:	fa cf       	rjmp	.-12     	; 0x282e <CheckInput+0x66>
                uint8_t inputLen = CleanInput((uint8_t *)&serRx[0]);
    283a:	87 e8       	ldi	r24, 0x87	; 135
    283c:	9a e3       	ldi	r25, 0x3A	; 58
    283e:	09 df       	rcall	.-494    	; 0x2652 <CleanInput>
                specialPassed = 2;
    2840:	92 e0       	ldi	r25, 0x02	; 2
    2842:	90 93 1b 39 	sts	0x391B, r25	; 0x80391b <specialPassed>
                data[1] = 0;
    2846:	f8 01       	movw	r30, r16
    2848:	11 82       	std	Z+1, r1	; 0x01

                if (inputLen >= 2) {
    284a:	82 30       	cpi	r24, 0x02	; 2
    284c:	80 f3       	brcs	.-32     	; 0x282e <CheckInput+0x66>
                    if ((serRx[0] >= '1') && (serRx[0] <= '4')) {
    284e:	80 91 87 3a 	lds	r24, 0x3A87	; 0x803a87 <serRx>
    2852:	81 33       	cpi	r24, 0x31	; 49
    2854:	60 f3       	brcs	.-40     	; 0x282e <CheckInput+0x66>
    2856:	80 91 87 3a 	lds	r24, 0x3A87	; 0x803a87 <serRx>
    285a:	85 33       	cpi	r24, 0x35	; 53
    285c:	40 f7       	brcc	.-48     	; 0x282e <CheckInput+0x66>
                        serRx[1] |= 0x20;
    285e:	80 91 88 3a 	lds	r24, 0x3A88	; 0x803a88 <serRx+0x1>
    2862:	80 62       	ori	r24, 0x20	; 32
    2864:	80 93 88 3a 	sts	0x3A88, r24	; 0x803a88 <serRx+0x1>
                        if ((serRx[1] == 'a')||(serRx[1] == 'e')||(serRx[1] == 'f')||(serRx[1] == 'w')) {
    2868:	80 91 88 3a 	lds	r24, 0x3A88	; 0x803a88 <serRx+0x1>
    286c:	81 36       	cpi	r24, 0x61	; 97
    286e:	61 f0       	breq	.+24     	; 0x2888 <CheckInput+0xc0>
    2870:	80 91 88 3a 	lds	r24, 0x3A88	; 0x803a88 <serRx+0x1>
    2874:	85 36       	cpi	r24, 0x65	; 101
    2876:	41 f0       	breq	.+16     	; 0x2888 <CheckInput+0xc0>
    2878:	80 91 88 3a 	lds	r24, 0x3A88	; 0x803a88 <serRx+0x1>
    287c:	86 36       	cpi	r24, 0x66	; 102
    287e:	21 f0       	breq	.+8      	; 0x2888 <CheckInput+0xc0>
    2880:	80 91 88 3a 	lds	r24, 0x3A88	; 0x803a88 <serRx+0x1>
    2884:	87 37       	cpi	r24, 0x77	; 119
    2886:	99 f6       	brne	.-90     	; 0x282e <CheckInput+0x66>
                            data[1] = specialInput[1]+0x11;
    2888:	80 91 1d 39 	lds	r24, 0x391D	; 0x80391d <specialInput+0x1>
    288c:	8f 5e       	subi	r24, 0xEF	; 239
    288e:	f8 01       	movw	r30, r16
    2890:	81 83       	std	Z+1, r24	; 0x01
                            data[2] = serRx[0];
    2892:	80 91 87 3a 	lds	r24, 0x3A87	; 0x803a87 <serRx>
    2896:	82 83       	std	Z+2, r24	; 0x02
                            data[3] = serRx[1];
    2898:	80 91 88 3a 	lds	r24, 0x3A88	; 0x803a88 <serRx+0x1>
    289c:	83 83       	std	Z+3, r24	; 0x03
                            data[4] = 0;
    289e:	14 82       	std	Z+4, r1	; 0x04
    28a0:	6e c1       	rjmp	.+732    	; 0x2b7e <CheckInput+0x3b6>
        } else {
      
            //SetResponse(0, A_LF, 4, TEASER);

            //Change status bit
            if ((serRx[0] == '#')&&(RXCNT == 6)){
    28a2:	80 91 87 3a 	lds	r24, 0x3A87	; 0x803a87 <serRx>
    28a6:	83 32       	cpi	r24, 0x23	; 35
    28a8:	89 f5       	brne	.+98     	; 0x290c <CheckInput+0x144>
    28aa:	8d b3       	in	r24, 0x1d	; 29
    28ac:	86 30       	cpi	r24, 0x06	; 6
    28ae:	71 f5       	brne	.+92     	; 0x290c <CheckInput+0x144>
    28b0:	81 e0       	ldi	r24, 0x01	; 1
    28b2:	90 e0       	ldi	r25, 0x00	; 0
    28b4:	10 e0       	ldi	r17, 0x00	; 0
                uint8_t bitNr = 0;

                for (uint8_t x=1; x<4; ++x) {
                    serRx[x] -= '0';
    28b6:	fc 01       	movw	r30, r24
    28b8:	e9 57       	subi	r30, 0x79	; 121
    28ba:	f5 4c       	sbci	r31, 0xC5	; 197
    28bc:	20 81       	ld	r18, Z
    28be:	20 53       	subi	r18, 0x30	; 48
    28c0:	20 83       	st	Z, r18
                    bitNr *= 10;
    28c2:	11 0f       	add	r17, r17
    28c4:	21 2f       	mov	r18, r17
    28c6:	22 0f       	add	r18, r18
    28c8:	22 0f       	add	r18, r18
    28ca:	12 0f       	add	r17, r18
                    if (serRx[1] > 2) break;
    28cc:	20 91 88 3a 	lds	r18, 0x3A88	; 0x803a88 <serRx+0x1>
    28d0:	23 30       	cpi	r18, 0x03	; 3
    28d2:	48 f4       	brcc	.+18     	; 0x28e6 <CheckInput+0x11e>
                    if (serRx[x] < 10) {
    28d4:	20 81       	ld	r18, Z
    28d6:	2a 30       	cpi	r18, 0x0A	; 10
    28d8:	b8 f4       	brcc	.+46     	; 0x2908 <CheckInput+0x140>
                        bitNr += serRx[x];
    28da:	20 81       	ld	r18, Z
    28dc:	12 0f       	add	r17, r18
    28de:	01 96       	adiw	r24, 0x01	; 1

            //Change status bit
            if ((serRx[0] == '#')&&(RXCNT == 6)){
                uint8_t bitNr = 0;

                for (uint8_t x=1; x<4; ++x) {
    28e0:	84 30       	cpi	r24, 0x04	; 4
    28e2:	91 05       	cpc	r25, r1
    28e4:	41 f7       	brne	.-48     	; 0x28b6 <CheckInput+0xee>
                        continue;
                    }
                    bitNr = 0;
                    break;
                }
                if ((bitNr)&&(bitNr!=128)) {
    28e6:	81 2f       	mov	r24, r17
    28e8:	8f 77       	andi	r24, 0x7F	; 127
    28ea:	71 f0       	breq	.+28     	; 0x2908 <CheckInput+0x140>
                    if (Cheat(0xff-bitNr, serRx[4]<<8|serRx[5])) UpdateState(bitNr);
    28ec:	80 91 8b 3a 	lds	r24, 0x3A8B	; 0x803a8b <serRx+0x4>
    28f0:	60 91 8c 3a 	lds	r22, 0x3A8C	; 0x803a8c <serRx+0x5>
    28f4:	70 e0       	ldi	r23, 0x00	; 0
    28f6:	78 2b       	or	r23, r24
    28f8:	81 2f       	mov	r24, r17
    28fa:	80 95       	com	r24
    28fc:	5b dc       	rcall	.-1866   	; 0x21b4 <Cheat>
    28fe:	88 23       	and	r24, r24
    2900:	19 f0       	breq	.+6      	; 0x2908 <CheckInput+0x140>
    2902:	81 2f       	mov	r24, r17
    2904:	0e 94 49 09 	call	0x1292	; 0x1292 <UpdateState>
                }
                
                responseList = SetStandardResponse(1);
    2908:	81 e0       	ldi	r24, 0x01	; 1
    290a:	34 c1       	rjmp	.+616    	; 0x2b74 <CheckInput+0x3ac>
    290c:	d8 01       	movw	r26, r16
    290e:	80 e0       	ldi	r24, 0x00	; 0
    2910:	90 e0       	ldi	r25, 0x00	; 0
                return 1;            
            }
            
            //Read up to the \0 character and convert to lower case.
            for (uint8_t x=0; x<RXLEN; ++x){
                if ((serRx[x]<'A')||(serRx[x]>'Z')) data[x]=serRx[x]; else data[x]=serRx[x]|0x20;
    2912:	fc 01       	movw	r30, r24
    2914:	e9 57       	subi	r30, 0x79	; 121
    2916:	f5 4c       	sbci	r31, 0xC5	; 197
    2918:	20 81       	ld	r18, Z
    291a:	21 34       	cpi	r18, 0x41	; 65
    291c:	18 f0       	brcs	.+6      	; 0x2924 <CheckInput+0x15c>
    291e:	20 81       	ld	r18, Z
    2920:	2b 35       	cpi	r18, 0x5B	; 91
    2922:	10 f0       	brcs	.+4      	; 0x2928 <CheckInput+0x160>
    2924:	20 81       	ld	r18, Z
    2926:	02 c0       	rjmp	.+4      	; 0x292c <CheckInput+0x164>
    2928:	20 81       	ld	r18, Z
    292a:	20 62       	ori	r18, 0x20	; 32
    292c:	2c 93       	st	X, r18
                if (serRx[x] == 0) {
    292e:	20 81       	ld	r18, Z
    2930:	21 11       	cpse	r18, r1
    2932:	05 c0       	rjmp	.+10     	; 0x293e <CheckInput+0x176>
                    data[x] = 0;
    2934:	f8 01       	movw	r30, r16
    2936:	e8 0f       	add	r30, r24
    2938:	f1 1d       	adc	r31, r1
    293a:	10 82       	st	Z, r1
                    break;
    293c:	05 c0       	rjmp	.+10     	; 0x2948 <CheckInput+0x180>
    293e:	01 96       	adiw	r24, 0x01	; 1
    2940:	11 96       	adiw	r26, 0x01	; 1
                
                return 1;            
            }
            
            //Read up to the \0 character and convert to lower case.
            for (uint8_t x=0; x<RXLEN; ++x){
    2942:	81 34       	cpi	r24, 0x41	; 65
    2944:	91 05       	cpc	r25, r1
    2946:	29 f7       	brne	.-54     	; 0x2912 <CheckInput+0x14a>
                    break;
                }
            }

            //No text
            if (serRx[0] == 0){
    2948:	80 91 87 3a 	lds	r24, 0x3A87	; 0x803a87 <serRx>
                data[0] = 0;
    294c:	f8 01       	movw	r30, r16
                    break;
                }
            }

            //No text
            if (serRx[0] == 0){
    294e:	81 11       	cpse	r24, r1
    2950:	05 c0       	rjmp	.+10     	; 0x295c <CheckInput+0x194>
                data[0] = 0;
    2952:	10 82       	st	Z, r1
                RXCNT = 0;
    2954:	1d ba       	out	0x1d, r1	; 29
                serRxDone = 0;
    2956:	10 92 55 38 	sts	0x3855, r1	; 0x803855 <serRxDone>
    295a:	0f c1       	rjmp	.+542    	; 0x2b7a <CheckInput+0x3b2>
                return 1;
            }

            //Help text
            if ((data[0] == '?')||(data[0] == 'h')){
    295c:	80 81       	ld	r24, Z
    295e:	8f 33       	cpi	r24, 0x3F	; 63
    2960:	11 f0       	breq	.+4      	; 0x2966 <CheckInput+0x19e>
    2962:	88 36       	cpi	r24, 0x68	; 104
    2964:	49 f4       	brne	.+18     	; 0x2978 <CheckInput+0x1b0>
    return 0;
}

//
void SetResponse(uint8_t number, uint16_t address, uint16_t length, uint8_t type){
    reactStr[0][number]=address;
    2966:	83 e9       	ldi	r24, 0x93	; 147
    2968:	9b e7       	ldi	r25, 0x7B	; 123
    296a:	80 93 2f 39 	sts	0x392F, r24	; 0x80392f <reactStr+0x2>
    296e:	90 93 30 39 	sts	0x3930, r25	; 0x803930 <reactStr+0x3>
    reactStr[1][number]=length;
    2972:	8d e6       	ldi	r24, 0x6D	; 109
    2974:	94 e0       	ldi	r25, 0x04	; 4
    2976:	59 c0       	rjmp	.+178    	; 0x2a2a <CheckInput+0x262>
                responseList = SetStandardResponse(2);
                return 1;
            }        
        
            //Alphabet text
            if (data[0] == 'a'){
    2978:	81 36       	cpi	r24, 0x61	; 97
    297a:	49 f4       	brne	.+18     	; 0x298e <CheckInput+0x1c6>
    return 0;
}

//
void SetResponse(uint8_t number, uint16_t address, uint16_t length, uint8_t type){
    reactStr[0][number]=address;
    297c:	8e e6       	ldi	r24, 0x6E	; 110
    297e:	9a e7       	ldi	r25, 0x7A	; 122
    2980:	80 93 2f 39 	sts	0x392F, r24	; 0x80392f <reactStr+0x2>
    2984:	90 93 30 39 	sts	0x3930, r25	; 0x803930 <reactStr+0x3>
    reactStr[1][number]=length;
    2988:	85 e2       	ldi	r24, 0x25	; 37
    298a:	91 e0       	ldi	r25, 0x01	; 1
    298c:	4e c0       	rjmp	.+156    	; 0x2a2a <CheckInput+0x262>
                responseList = SetStandardResponse(2);
                return 1;
            }

            //Whoami text
            if (data[0] == 'w'){
    298e:	87 37       	cpi	r24, 0x77	; 119
    2990:	09 f0       	breq	.+2      	; 0x2994 <CheckInput+0x1cc>
    2992:	41 c0       	rjmp	.+130    	; 0x2a16 <CheckInput+0x24e>
    return 0;
}

//
void SetResponse(uint8_t number, uint16_t address, uint16_t length, uint8_t type){
    reactStr[0][number]=address;
    2994:	8d e8       	ldi	r24, 0x8D	; 141
    2996:	96 e7       	ldi	r25, 0x76	; 118
    2998:	80 93 2f 39 	sts	0x392F, r24	; 0x80392f <reactStr+0x2>
    299c:	90 93 30 39 	sts	0x3930, r25	; 0x803930 <reactStr+0x3>
    reactStr[1][number]=length;
    29a0:	82 e1       	ldi	r24, 0x12	; 18
    29a2:	90 e0       	ldi	r25, 0x00	; 0
    29a4:	80 93 6f 39 	sts	0x396F, r24	; 0x80396f <reactStr+0x42>
    29a8:	90 93 70 39 	sts	0x3970, r25	; 0x803970 <reactStr+0x43>
    reactStr[2][number]=type;
    29ac:	21 e0       	ldi	r18, 0x01	; 1
    29ae:	30 e0       	ldi	r19, 0x00	; 0
    29b0:	20 93 af 39 	sts	0x39AF, r18	; 0x8039af <reactStr+0x82>
    29b4:	30 93 b0 39 	sts	0x39B0, r19	; 0x8039b0 <reactStr+0x83>
            }

            //Whoami text
            if (data[0] == 'w'){
                SetResponse(1, A_HELLO, L_HELLO, TEASER);
                SetResponse(2, names[0][whoami-1], names[1][whoami-1], TEASER);
    29b8:	80 91 4d 38 	lds	r24, 0x384D	; 0x80384d <whoami>
    29bc:	90 e0       	ldi	r25, 0x00	; 0
    29be:	fc 01       	movw	r30, r24
    29c0:	ee 0f       	add	r30, r30
    29c2:	ff 1f       	adc	r31, r31
    29c4:	e6 55       	subi	r30, 0x56	; 86
    29c6:	f0 44       	sbci	r31, 0x40	; 64
    29c8:	40 81       	ld	r20, Z
    29ca:	51 81       	ldd	r21, Z+1	; 0x01
    29cc:	88 0f       	add	r24, r24
    29ce:	99 1f       	adc	r25, r25
    29d0:	fc 01       	movw	r30, r24
    29d2:	ee 55       	subi	r30, 0x5E	; 94
    29d4:	f0 44       	sbci	r31, 0x40	; 64
    return 0;
}

//
void SetResponse(uint8_t number, uint16_t address, uint16_t length, uint8_t type){
    reactStr[0][number]=address;
    29d6:	80 81       	ld	r24, Z
    29d8:	91 81       	ldd	r25, Z+1	; 0x01
    29da:	80 93 31 39 	sts	0x3931, r24	; 0x803931 <reactStr+0x4>
    29de:	90 93 32 39 	sts	0x3932, r25	; 0x803932 <reactStr+0x5>
    reactStr[1][number]=length;
    29e2:	40 93 71 39 	sts	0x3971, r20	; 0x803971 <reactStr+0x44>
    29e6:	50 93 72 39 	sts	0x3972, r21	; 0x803972 <reactStr+0x45>
    reactStr[2][number]=type;
    29ea:	20 93 b1 39 	sts	0x39B1, r18	; 0x8039b1 <reactStr+0x84>
    29ee:	30 93 b2 39 	sts	0x39B2, r19	; 0x8039b2 <reactStr+0x85>
    return 0;
}

//
void SetResponse(uint8_t number, uint16_t address, uint16_t length, uint8_t type){
    reactStr[0][number]=address;
    29f2:	8f e5       	ldi	r24, 0x5F	; 95
    29f4:	96 e7       	ldi	r25, 0x76	; 118
    29f6:	80 93 33 39 	sts	0x3933, r24	; 0x803933 <reactStr+0x6>
    29fa:	90 93 34 39 	sts	0x3934, r25	; 0x803934 <reactStr+0x7>
    reactStr[1][number]=length;
    29fe:	8a e1       	ldi	r24, 0x1A	; 26
    2a00:	90 e0       	ldi	r25, 0x00	; 0
    2a02:	80 93 73 39 	sts	0x3973, r24	; 0x803973 <reactStr+0x46>
    2a06:	90 93 74 39 	sts	0x3974, r25	; 0x803974 <reactStr+0x47>
    reactStr[2][number]=type;
    2a0a:	20 93 b3 39 	sts	0x39B3, r18	; 0x8039b3 <reactStr+0x86>
    2a0e:	30 93 b4 39 	sts	0x39B4, r19	; 0x8039b4 <reactStr+0x87>
            //Whoami text
            if (data[0] == 'w'){
                SetResponse(1, A_HELLO, L_HELLO, TEASER);
                SetResponse(2, names[0][whoami-1], names[1][whoami-1], TEASER);
                SetResponse(3, A_PLEASED, L_PLEASED, TEASER);
                responseList = SetStandardResponse(4);
    2a12:	84 e0       	ldi	r24, 0x04	; 4
    2a14:	af c0       	rjmp	.+350    	; 0x2b74 <CheckInput+0x3ac>
                return 1;
            }

            //Quit text
            if (data[0] == 'q'){
    2a16:	81 37       	cpi	r24, 0x71	; 113
    2a18:	a1 f4       	brne	.+40     	; 0x2a42 <CheckInput+0x27a>
    return 0;
}

//
void SetResponse(uint8_t number, uint16_t address, uint16_t length, uint8_t type){
    reactStr[0][number]=address;
    2a1a:	80 e0       	ldi	r24, 0x00	; 0
    2a1c:	9a e7       	ldi	r25, 0x7A	; 122
    2a1e:	80 93 2f 39 	sts	0x392F, r24	; 0x80392f <reactStr+0x2>
    2a22:	90 93 30 39 	sts	0x3930, r25	; 0x803930 <reactStr+0x3>
    reactStr[1][number]=length;
    2a26:	85 e5       	ldi	r24, 0x55	; 85
    2a28:	90 e0       	ldi	r25, 0x00	; 0
    2a2a:	80 93 6f 39 	sts	0x396F, r24	; 0x80396f <reactStr+0x42>
    2a2e:	90 93 70 39 	sts	0x3970, r25	; 0x803970 <reactStr+0x43>
    reactStr[2][number]=type;
    2a32:	81 e0       	ldi	r24, 0x01	; 1
    2a34:	90 e0       	ldi	r25, 0x00	; 0
    2a36:	80 93 af 39 	sts	0x39AF, r24	; 0x8039af <reactStr+0x82>
    2a3a:	90 93 b0 39 	sts	0x39B0, r25	; 0x8039b0 <reactStr+0x83>
            }

            //Quit text
            if (data[0] == 'q'){
                SetResponse(1, A_QUIT, L_QUIT, TEASER);
                responseList = SetStandardResponse(2);
    2a3e:	82 e0       	ldi	r24, 0x02	; 2
                return 1;
            }

            //Fake cheat = reset badge!
            if (StartsWith(&data[0], "iddqd")){
    2a40:	99 c0       	rjmp	.+306    	; 0x2b74 <CheckInput+0x3ac>
    2a42:	60 e8       	ldi	r22, 0x80	; 128
    2a44:	7f eb       	ldi	r23, 0xBF	; 191
    2a46:	c8 01       	movw	r24, r16
    2a48:	05 dc       	rcall	.-2038   	; 0x2254 <StartsWith>
    2a4a:	88 23       	and	r24, r24
    2a4c:	d1 f0       	breq	.+52     	; 0x2a82 <CheckInput+0x2ba>
            
                //Wipe, but not the cheat data, hidden easter egg in ext. eeprom. ;)
                WipeAfterBoot(0);
    2a4e:	80 e0       	ldi	r24, 0x00	; 0
    2a50:	0e 94 89 09 	call	0x1312	; 0x1312 <WipeAfterBoot>
                SaveGameState();
    2a54:	0e 94 c2 08 	call	0x1184	; 0x1184 <SaveGameState>

                uint8_t cheat[] = "Gotcha! ";
    2a58:	89 e0       	ldi	r24, 0x09	; 9
    2a5a:	e3 e9       	ldi	r30, 0x93	; 147
    2a5c:	ff eb       	ldi	r31, 0xBF	; 191
    2a5e:	de 01       	movw	r26, r28
    2a60:	11 96       	adiw	r26, 0x01	; 1
    2a62:	01 90       	ld	r0, Z+
    2a64:	0d 92       	st	X+, r0
    2a66:	8a 95       	dec	r24
    2a68:	e1 f7       	brne	.-8      	; 0x2a62 <CheckInput+0x29a>
                SerSpeed(60);
    2a6a:	8c e3       	ldi	r24, 0x3C	; 60
    2a6c:	0e 94 e6 07 	call	0xfcc	; 0xfcc <SerSpeed>
                while(1){
                    if (serTxDone) SerSend(&cheat[0]);
    2a70:	80 91 09 38 	lds	r24, 0x3809	; 0x803809 <serTxDone>
    2a74:	88 23       	and	r24, r24
    2a76:	e1 f3       	breq	.-8      	; 0x2a70 <CheckInput+0x2a8>
    2a78:	ce 01       	movw	r24, r28
    2a7a:	01 96       	adiw	r24, 0x01	; 1
    2a7c:	0e 94 d5 07 	call	0xfaa	; 0xfaa <SerSend>
                }
            }
            
            //Cheat reset
            if (StartsWith(&data[0], "ikillu")){
    2a80:	f7 cf       	rjmp	.-18     	; 0x2a70 <CheckInput+0x2a8>
    2a82:	66 e8       	ldi	r22, 0x86	; 134
    2a84:	7f eb       	ldi	r23, 0xBF	; 191
    2a86:	c8 01       	movw	r24, r16
    2a88:	e5 db       	rcall	.-2102   	; 0x2254 <StartsWith>
    2a8a:	88 23       	and	r24, r24
    2a8c:	d1 f0       	breq	.+52     	; 0x2ac2 <CheckInput+0x2fa>
                
                //Full wipe, including cheats, for badge.team use only!
                WipeAfterBoot(1);
    2a8e:	81 e0       	ldi	r24, 0x01	; 1
    2a90:	0e 94 89 09 	call	0x1312	; 0x1312 <WipeAfterBoot>
                SaveGameState();
    2a94:	0e 94 c2 08 	call	0x1184	; 0x1184 <SaveGameState>

                uint8_t cheat[] = "Reset! ";
    2a98:	88 e0       	ldi	r24, 0x08	; 8
    2a9a:	ec e9       	ldi	r30, 0x9C	; 156
    2a9c:	ff eb       	ldi	r31, 0xBF	; 191
    2a9e:	de 01       	movw	r26, r28
    2aa0:	11 96       	adiw	r26, 0x01	; 1
    2aa2:	01 90       	ld	r0, Z+
    2aa4:	0d 92       	st	X+, r0
    2aa6:	8a 95       	dec	r24
    2aa8:	e1 f7       	brne	.-8      	; 0x2aa2 <CheckInput+0x2da>
                SerSpeed(60);
    2aaa:	8c e3       	ldi	r24, 0x3C	; 60
    2aac:	0e 94 e6 07 	call	0xfcc	; 0xfcc <SerSpeed>
                while(1){
                    if (serTxDone) SerSend(&cheat[0]);
    2ab0:	80 91 09 38 	lds	r24, 0x3809	; 0x803809 <serTxDone>
    2ab4:	88 23       	and	r24, r24
    2ab6:	e1 f3       	breq	.-8      	; 0x2ab0 <CheckInput+0x2e8>
    2ab8:	ce 01       	movw	r24, r28
    2aba:	01 96       	adiw	r24, 0x01	; 1
    2abc:	0e 94 d5 07 	call	0xfaa	; 0xfaa <SerSend>
                }
            }

            //Show used cheat codes
            if (StartsWith(&data[0], "cheat")){
    2ac0:	f7 cf       	rjmp	.-18     	; 0x2ab0 <CheckInput+0x2e8>
    2ac2:	6d e8       	ldi	r22, 0x8D	; 141
    2ac4:	7f eb       	ldi	r23, 0xBF	; 191
    2ac6:	c8 01       	movw	r24, r16
    2ac8:	c5 db       	rcall	.-2166   	; 0x2254 <StartsWith>
    2aca:	88 23       	and	r24, r24
    2acc:	09 f4       	brne	.+2      	; 0x2ad0 <CheckInput+0x308>
    2ace:	af ce       	rjmp	.-674    	; 0x282e <CheckInput+0x66>
    2ad0:	8d e2       	ldi	r24, 0x2D	; 45
    2ad2:	c8 2e       	mov	r12, r24
    2ad4:	89 e3       	ldi	r24, 0x39	; 57
    2ad6:	d8 2e       	mov	r13, r24
    2ad8:	9d e6       	ldi	r25, 0x6D	; 109
    2ada:	e9 2e       	mov	r14, r25
    2adc:	99 e3       	ldi	r25, 0x39	; 57
    2ade:	f9 2e       	mov	r15, r25
    2ae0:	0d ea       	ldi	r16, 0xAD	; 173
    2ae2:	19 e3       	ldi	r17, 0x39	; 57
    2ae4:	28 e1       	ldi	r18, 0x18	; 24
    2ae6:	52 2e       	mov	r5, r18
}

//
void SetResponse(uint8_t number, uint16_t address, uint16_t length, uint8_t type){
    reactStr[0][number]=address;
    reactStr[1][number]=length;
    2ae8:	aa 24       	eor	r10, r10
    2aea:	a3 94       	inc	r10
    2aec:	b1 2c       	mov	r11, r1
    return 0;
}

//
void SetResponse(uint8_t number, uint16_t address, uint16_t length, uint8_t type){
    reactStr[0][number]=address;
    2aee:	47 e5       	ldi	r20, 0x57	; 87
    2af0:	84 2e       	mov	r8, r20
    2af2:	4a e7       	ldi	r20, 0x7A	; 122
    2af4:	94 2e       	mov	r9, r20
    reactStr[1][number]=length;
    2af6:	52 e0       	ldi	r21, 0x02	; 2
    2af8:	65 2e       	mov	r6, r21
    2afa:	71 2c       	mov	r7, r1
            if (StartsWith(&data[0], "cheat")){
                uint8_t bit;
                for (uint8_t x=0; x<MAX_CHEATS; ++x){
                    
                    //Set up sending out number
                    EERead(CHEATS+x, &bit, 1);
    2afc:	41 e0       	ldi	r20, 0x01	; 1
    2afe:	be 01       	movw	r22, r28
    2b00:	6f 5f       	subi	r22, 0xFF	; 255
    2b02:	7f 4f       	sbci	r23, 0xFF	; 255
    2b04:	85 2d       	mov	r24, r5
    2b06:	0e 94 61 07 	call	0xec2	; 0xec2 <EERead>
                    bit = 0xff-bit;
    2b0a:	89 81       	ldd	r24, Y+1	; 0x01
    2b0c:	80 95       	com	r24
    2b0e:	89 83       	std	Y+1, r24	; 0x01
    return 0;
}

//
void SetResponse(uint8_t number, uint16_t address, uint16_t length, uint8_t type){
    reactStr[0][number]=address;
    2b10:	28 2f       	mov	r18, r24
    2b12:	22 95       	swap	r18
    2b14:	2f 70       	andi	r18, 0x0F	; 15
    2b16:	30 e0       	ldi	r19, 0x00	; 0
    2b18:	23 57       	subi	r18, 0x73	; 115
    2b1a:	3b 48       	sbci	r19, 0x8B	; 139
    2b1c:	f6 01       	movw	r30, r12
    2b1e:	20 83       	st	Z, r18
    2b20:	31 83       	std	Z+1, r19	; 0x01
    reactStr[1][number]=length;
    2b22:	f7 01       	movw	r30, r14
    2b24:	a0 82       	st	Z, r10
    2b26:	b1 82       	std	Z+1, r11	; 0x01
    reactStr[2][number]=type;
    2b28:	f8 01       	movw	r30, r16
    2b2a:	a0 82       	st	Z, r10
    2b2c:	b1 82       	std	Z+1, r11	; 0x01
    return 0;
}

//
void SetResponse(uint8_t number, uint16_t address, uint16_t length, uint8_t type){
    reactStr[0][number]=address;
    2b2e:	8f 70       	andi	r24, 0x0F	; 15
    2b30:	90 e0       	ldi	r25, 0x00	; 0
    2b32:	83 57       	subi	r24, 0x73	; 115
    2b34:	9b 48       	sbci	r25, 0x8B	; 139
    2b36:	f6 01       	movw	r30, r12
    2b38:	82 83       	std	Z+2, r24	; 0x02
    2b3a:	93 83       	std	Z+3, r25	; 0x03
    reactStr[1][number]=length;
    2b3c:	f7 01       	movw	r30, r14
    2b3e:	a2 82       	std	Z+2, r10	; 0x02
    2b40:	b3 82       	std	Z+3, r11	; 0x03
    reactStr[2][number]=type;
    2b42:	f8 01       	movw	r30, r16
    2b44:	a2 82       	std	Z+2, r10	; 0x02
    2b46:	b3 82       	std	Z+3, r11	; 0x03
    return 0;
}

//
void SetResponse(uint8_t number, uint16_t address, uint16_t length, uint8_t type){
    reactStr[0][number]=address;
    2b48:	f6 01       	movw	r30, r12
    2b4a:	84 82       	std	Z+4, r8	; 0x04
    2b4c:	95 82       	std	Z+5, r9	; 0x05
    reactStr[1][number]=length;
    2b4e:	f7 01       	movw	r30, r14
    2b50:	64 82       	std	Z+4, r6	; 0x04
    2b52:	75 82       	std	Z+5, r7	; 0x05
    reactStr[2][number]=type;
    2b54:	f8 01       	movw	r30, r16
    2b56:	a4 82       	std	Z+4, r10	; 0x04
    2b58:	b5 82       	std	Z+5, r11	; 0x05
    2b5a:	53 94       	inc	r5
    2b5c:	f6 e0       	ldi	r31, 0x06	; 6
    2b5e:	cf 0e       	add	r12, r31
    2b60:	d1 1c       	adc	r13, r1
    2b62:	86 e0       	ldi	r24, 0x06	; 6
    2b64:	e8 0e       	add	r14, r24
    2b66:	f1 1c       	adc	r15, r1
    2b68:	0a 5f       	subi	r16, 0xFA	; 250
            }

            //Show used cheat codes
            if (StartsWith(&data[0], "cheat")){
                uint8_t bit;
                for (uint8_t x=0; x<MAX_CHEATS; ++x){
    2b6a:	1f 4f       	sbci	r17, 0xFF	; 255
    2b6c:	e0 e2       	ldi	r30, 0x20	; 32
    2b6e:	5e 12       	cpse	r5, r30
                    //SetResponse(x*4, A_HEXPREFIX, L_HEXPREFIX, TEASER);
                    SetResponse(x*3, A_DIGITS+(bit>>4), 1, TEASER);               
                    SetResponse(x*3+1, A_DIGITS+(bit%16), 1, TEASER);
                    SetResponse(x*3+2, A_COMMA, L_COMMA, TEASER);
                }
                responseList = SetStandardResponse((3*MAX_CHEATS));
    2b70:	c5 cf       	rjmp	.-118    	; 0x2afc <CheckInput+0x334>
    2b72:	88 e1       	ldi	r24, 0x18	; 24
    2b74:	c6 db       	rcall	.-2164   	; 0x2302 <SetStandardResponse>
    2b76:	80 93 2c 39 	sts	0x392C, r24	; 0x80392c <responseList>
        //Data received, but not any of the commands above
        return 0;
    }

    //Serial input not available yet
    return 1;
    2b7a:	ff 24       	eor	r15, r15
    2b7c:	f3 94       	inc	r15
}
    2b7e:	8f 2d       	mov	r24, r15
    2b80:	29 96       	adiw	r28, 0x09	; 9
    2b82:	ef e0       	ldi	r30, 0x0F	; 15
    2b84:	0c 94 7b 1f 	jmp	0x3ef6	; 0x3ef6 <__epilogue_restores__+0x6>

00002b88 <ShowInventory>:

uint8_t ShowInventory(uint8_t elements){
    2b88:	ab e2       	ldi	r26, 0x2B	; 43
    2b8a:	b0 e0       	ldi	r27, 0x00	; 0
    2b8c:	ea ec       	ldi	r30, 0xCA	; 202
    2b8e:	f5 e1       	ldi	r31, 0x15	; 21
    2b90:	0c 94 66 1f 	jmp	0x3ecc	; 0x3ecc <__prologue_saves__+0xe>
    object_model_t actObj1;

    SetResponse(elements++, A_NOWCARRING, L_NOWCARRING, TEASER);
    2b94:	99 24       	eor	r9, r9
    2b96:	93 94       	inc	r9
    2b98:	98 0e       	add	r9, r24
    return 0;
}

//
void SetResponse(uint8_t number, uint16_t address, uint16_t length, uint8_t type){
    reactStr[0][number]=address;
    2b9a:	90 e0       	ldi	r25, 0x00	; 0
    2b9c:	fc 01       	movw	r30, r24
    2b9e:	ee 0f       	add	r30, r30
    2ba0:	ff 1f       	adc	r31, r31
    2ba2:	e3 5d       	subi	r30, 0xD3	; 211
    2ba4:	f6 4c       	sbci	r31, 0xC6	; 198
    2ba6:	2c ec       	ldi	r18, 0xCC	; 204
    2ba8:	37 e7       	ldi	r19, 0x77	; 119
    2baa:	20 83       	st	Z, r18
    2bac:	31 83       	std	Z+1, r19	; 0x01
    reactStr[1][number]=length;
    2bae:	fc 01       	movw	r30, r24
    2bb0:	ee 0f       	add	r30, r30
    2bb2:	ff 1f       	adc	r31, r31
    2bb4:	e3 59       	subi	r30, 0x93	; 147
    2bb6:	f6 4c       	sbci	r31, 0xC6	; 198
    2bb8:	26 e1       	ldi	r18, 0x16	; 22
    2bba:	30 e0       	ldi	r19, 0x00	; 0
    2bbc:	20 83       	st	Z, r18
    2bbe:	31 83       	std	Z+1, r19	; 0x01
    reactStr[2][number]=type;
    2bc0:	88 0f       	add	r24, r24
    2bc2:	99 1f       	adc	r25, r25
    2bc4:	fc 01       	movw	r30, r24
    2bc6:	e3 55       	subi	r30, 0x53	; 83
    2bc8:	f6 4c       	sbci	r31, 0xC6	; 198
    2bca:	81 e0       	ldi	r24, 0x01	; 1
    2bcc:	90 e0       	ldi	r25, 0x00	; 0
    2bce:	80 83       	st	Z, r24
    2bd0:	91 83       	std	Z+1, r25	; 0x01
    2bd2:	0e e4       	ldi	r16, 0x4E	; 78
    2bd4:	18 e3       	ldi	r17, 0x38	; 56
    return 0;
}

//
void SetResponse(uint8_t number, uint16_t address, uint16_t length, uint8_t type){
    reactStr[0][number]=address;
    2bd6:	37 e5       	ldi	r19, 0x57	; 87
    2bd8:	e3 2e       	mov	r14, r19
    2bda:	3a e7       	ldi	r19, 0x7A	; 122
    2bdc:	f3 2e       	mov	r15, r19
    reactStr[1][number]=length;
    2bde:	42 e0       	ldi	r20, 0x02	; 2
    2be0:	c4 2e       	mov	r12, r20
    2be2:	d1 2c       	mov	r13, r1
    reactStr[2][number]=type;
    2be4:	aa 24       	eor	r10, r10
    2be6:	a3 94       	inc	r10
    2be8:	b1 2c       	mov	r11, r1
    object_model_t actObj1;

    SetResponse(elements++, A_NOWCARRING, L_NOWCARRING, TEASER);

    for (uint8_t x=0; x<2; ++x) {
        if (inventory[x]) {
    2bea:	f8 01       	movw	r30, r16
    2bec:	81 91       	ld	r24, Z+
    2bee:	91 91       	ld	r25, Z+
    2bf0:	8f 01       	movw	r16, r30
    2bf2:	00 97       	sbiw	r24, 0x00	; 0
    2bf4:	c9 f1       	breq	.+114    	; 0x2c68 <ShowInventory+0xe0>
            PopulateObject(inventory[x], &actObj1);
    2bf6:	be 01       	movw	r22, r28
    2bf8:	6f 5f       	subi	r22, 0xFF	; 255
    2bfa:	7f 4f       	sbci	r23, 0xFF	; 255
    2bfc:	fe db       	rcall	.-2052   	; 0x23fa <PopulateObject>
            SetResponse(elements++, actObj1.addrStr[NAME], actObj1.lenStr[NAME], GAME);
    2bfe:	2b 8d       	ldd	r18, Y+27	; 0x1b
    2c00:	3c 8d       	ldd	r19, Y+28	; 0x1c
    return 0;
}

//
void SetResponse(uint8_t number, uint16_t address, uint16_t length, uint8_t type){
    reactStr[0][number]=address;
    2c02:	89 2d       	mov	r24, r9
    2c04:	90 e0       	ldi	r25, 0x00	; 0
    2c06:	fc 01       	movw	r30, r24
    2c08:	ee 0f       	add	r30, r30
    2c0a:	ff 1f       	adc	r31, r31
    2c0c:	e3 5d       	subi	r30, 0xD3	; 211
    2c0e:	f6 4c       	sbci	r31, 0xC6	; 198
    2c10:	4d 85       	ldd	r20, Y+13	; 0x0d
    2c12:	5e 85       	ldd	r21, Y+14	; 0x0e
    2c14:	40 83       	st	Z, r20
    2c16:	51 83       	std	Z+1, r21	; 0x01
    reactStr[1][number]=length;
    2c18:	fc 01       	movw	r30, r24
    2c1a:	ee 0f       	add	r30, r30
    2c1c:	ff 1f       	adc	r31, r31
    2c1e:	e3 59       	subi	r30, 0x93	; 147
    2c20:	f6 4c       	sbci	r31, 0xC6	; 198
    2c22:	20 83       	st	Z, r18
    2c24:	31 83       	std	Z+1, r19	; 0x01
    reactStr[2][number]=type;
    2c26:	88 0f       	add	r24, r24
    2c28:	99 1f       	adc	r25, r25
    2c2a:	fc 01       	movw	r30, r24
    2c2c:	e3 55       	subi	r30, 0x53	; 83
    2c2e:	f6 4c       	sbci	r31, 0xC6	; 198
    2c30:	10 82       	st	Z, r1
    2c32:	11 82       	std	Z+1, r1	; 0x01
    return 0;
}

//
void SetResponse(uint8_t number, uint16_t address, uint16_t length, uint8_t type){
    reactStr[0][number]=address;
    2c34:	81 e0       	ldi	r24, 0x01	; 1
    2c36:	89 0d       	add	r24, r9
    2c38:	90 e0       	ldi	r25, 0x00	; 0
    2c3a:	93 94       	inc	r9
    2c3c:	93 94       	inc	r9
    2c3e:	fc 01       	movw	r30, r24
    2c40:	ee 0f       	add	r30, r30
    2c42:	ff 1f       	adc	r31, r31
    2c44:	e3 5d       	subi	r30, 0xD3	; 211
    2c46:	f6 4c       	sbci	r31, 0xC6	; 198
    2c48:	e0 82       	st	Z, r14
    2c4a:	f1 82       	std	Z+1, r15	; 0x01
    reactStr[1][number]=length;
    2c4c:	fc 01       	movw	r30, r24
    2c4e:	ee 0f       	add	r30, r30
    2c50:	ff 1f       	adc	r31, r31
    2c52:	e3 59       	subi	r30, 0x93	; 147
    2c54:	f6 4c       	sbci	r31, 0xC6	; 198
    2c56:	c0 82       	st	Z, r12
    2c58:	d1 82       	std	Z+1, r13	; 0x01
    reactStr[2][number]=type;
    2c5a:	88 0f       	add	r24, r24
    2c5c:	99 1f       	adc	r25, r25
    2c5e:	fc 01       	movw	r30, r24
    2c60:	e3 55       	subi	r30, 0x53	; 83
    2c62:	f6 4c       	sbci	r31, 0xC6	; 198
    2c64:	a0 82       	st	Z, r10
    2c66:	b1 82       	std	Z+1, r11	; 0x01
uint8_t ShowInventory(uint8_t elements){
    object_model_t actObj1;

    SetResponse(elements++, A_NOWCARRING, L_NOWCARRING, TEASER);

    for (uint8_t x=0; x<2; ++x) {
    2c68:	f8 e3       	ldi	r31, 0x38	; 56
    2c6a:	02 35       	cpi	r16, 0x52	; 82
    2c6c:	1f 07       	cpc	r17, r31
    2c6e:	09 f0       	breq	.+2      	; 0x2c72 <ShowInventory+0xea>
    2c70:	bc cf       	rjmp	.-136    	; 0x2bea <ShowInventory+0x62>
        }
    }
    elements -= 1;
            
    return elements;
}
    2c72:	8f ef       	ldi	r24, 0xFF	; 255
    2c74:	89 0d       	add	r24, r9
    2c76:	ab 96       	adiw	r28, 0x2b	; 43
    2c78:	eb e0       	ldi	r30, 0x0B	; 11
    2c7a:	0c 94 7f 1f 	jmp	0x3efe	; 0x3efe <__epilogue_restores__+0xe>

00002c7e <ProcessInput>:

//The game logic!
uint8_t ProcessInput(uint8_t *data){
    2c7e:	a8 e0       	ldi	r26, 0x08	; 8
    2c80:	b0 e0       	ldi	r27, 0x00	; 0
    2c82:	e5 e4       	ldi	r30, 0x45	; 69
    2c84:	f6 e1       	ldi	r31, 0x16	; 22
    2c86:	0c 94 63 1f 	jmp	0x3ec6	; 0x3ec6 <__prologue_saves__+0x8>
    2c8a:	3c 01       	movw	r6, r24
    static object_model_t actObj1, actObj2;
    uint8_t elements = 1;

    CleanInput(&data[0]);
    2c8c:	e2 dc       	rcall	.-1596   	; 0x2652 <CleanInput>
    uint8_t inputLen = CleanInput(&data[0]);
    2c8e:	c3 01       	movw	r24, r6
    2c90:	e0 dc       	rcall	.-1600   	; 0x2652 <CleanInput>
    2c92:	f8 2e       	mov	r15, r24
    return 0;
}

//
void SetResponse(uint8_t number, uint16_t address, uint16_t length, uint8_t type){
    reactStr[0][number]=address;
    2c94:	29 e5       	ldi	r18, 0x59	; 89
    2c96:	3a e7       	ldi	r19, 0x7A	; 122
    2c98:	20 93 2d 39 	sts	0x392D, r18	; 0x80392d <reactStr>
    2c9c:	30 93 2e 39 	sts	0x392E, r19	; 0x80392e <reactStr+0x1>
    reactStr[1][number]=length;
    2ca0:	84 e0       	ldi	r24, 0x04	; 4
    2ca2:	90 e0       	ldi	r25, 0x00	; 0
    2ca4:	80 93 6d 39 	sts	0x396D, r24	; 0x80396d <reactStr+0x40>
    2ca8:	90 93 6e 39 	sts	0x396E, r25	; 0x80396e <reactStr+0x41>
    reactStr[2][number]=type;
    2cac:	01 e0       	ldi	r16, 0x01	; 1
    2cae:	10 e0       	ldi	r17, 0x00	; 0
    2cb0:	00 93 ad 39 	sts	0x39AD, r16	; 0x8039ad <reactStr+0x80>
    2cb4:	10 93 ae 39 	sts	0x39AE, r17	; 0x8039ae <reactStr+0x81>

    CleanInput(&data[0]);
    uint8_t inputLen = CleanInput(&data[0]);
    SetResponse(0, A_LF, 4, TEASER);

    if (inputLen) {
    2cb8:	ff 20       	and	r15, r15
    2cba:	09 f4       	brne	.+2      	; 0x2cbe <ProcessInput+0x40>
    2cbc:	54 c7       	rjmp	.+3752   	; 0x3b66 <ProcessInput+0xee8>

        //eXit to previous location
        if (data[0] == 'x'){
    2cbe:	d3 01       	movw	r26, r6
    2cc0:	8c 91       	ld	r24, X
    2cc2:	88 37       	cpi	r24, 0x78	; 120
    2cc4:	09 f0       	breq	.+2      	; 0x2cc8 <ProcessInput+0x4a>
    2cc6:	45 c0       	rjmp	.+138    	; 0x2d52 <ProcessInput+0xd4>

            //Standing in the Lobby?
            if ((route[currDepth] == 0)||(currDepth == 0)){
    2cc8:	80 91 3e 38 	lds	r24, 0x383E	; 0x80383e <currDepth>
    2ccc:	e8 2f       	mov	r30, r24
    2cce:	f0 e0       	ldi	r31, 0x00	; 0
    2cd0:	ee 0f       	add	r30, r30
    2cd2:	ff 1f       	adc	r31, r31
    2cd4:	e3 51       	subi	r30, 0x13	; 19
    2cd6:	f6 4c       	sbci	r31, 0xC6	; 198
    2cd8:	20 81       	ld	r18, Z
    2cda:	31 81       	ldd	r19, Z+1	; 0x01
    2cdc:	23 2b       	or	r18, r19
    2cde:	11 f0       	breq	.+4      	; 0x2ce4 <ProcessInput+0x66>
    2ce0:	81 11       	cpse	r24, r1
    2ce2:	03 c0       	rjmp	.+6      	; 0x2cea <ProcessInput+0x6c>
    return 0;
}

//
void SetResponse(uint8_t number, uint16_t address, uint16_t length, uint8_t type){
    reactStr[0][number]=address;
    2ce4:	84 e4       	ldi	r24, 0x44	; 68
    2ce6:	96 e7       	ldi	r25, 0x76	; 118
    2ce8:	13 c5       	rjmp	.+2598   	; 0x3710 <ProcessInput+0xa92>
            //Standing in the Lobby?
            if ((route[currDepth] == 0)||(currDepth == 0)){
                SetResponse(elements++, A_NOTPOSSIBLE, L_NOTPOSSIBLE, TEASER);
            
            //Is there a way to go back?
            } else if (CheckState(currObj.byteField[OPEN_ACL])){
    2cea:	80 91 33 3a 	lds	r24, 0x3A33	; 0x803a33 <currObj+0x6>
    2cee:	0e 94 6a 09 	call	0x12d4	; 0x12d4 <CheckState>
    2cf2:	88 23       	and	r24, r24
    2cf4:	b9 f0       	breq	.+46     	; 0x2d24 <ProcessInput+0xa6>
                --currDepth;
    2cf6:	e0 91 3e 38 	lds	r30, 0x383E	; 0x80383e <currDepth>
    2cfa:	e1 50       	subi	r30, 0x01	; 1
    2cfc:	e0 93 3e 38 	sts	0x383E, r30	; 0x80383e <currDepth>
                PopulateObject(route[currDepth], &currObj);
    2d00:	f0 e0       	ldi	r31, 0x00	; 0
    2d02:	ee 0f       	add	r30, r30
    2d04:	ff 1f       	adc	r31, r31
    2d06:	e3 51       	subi	r30, 0x13	; 19
    2d08:	f6 4c       	sbci	r31, 0xC6	; 198
    2d0a:	6d e2       	ldi	r22, 0x2D	; 45
    2d0c:	7a e3       	ldi	r23, 0x3A	; 58
    2d0e:	80 81       	ld	r24, Z
    2d10:	91 81       	ldd	r25, Z+1	; 0x01
    2d12:	73 db       	rcall	.-2330   	; 0x23fa <PopulateObject>
                effect = currObj.byteField[EFFECTS];
    2d14:	80 91 31 3a 	lds	r24, 0x3A31	; 0x803a31 <currObj+0x4>
    2d18:	90 e0       	ldi	r25, 0x00	; 0
    2d1a:	80 93 4a 38 	sts	0x384A, r24	; 0x80384a <effect>
    2d1e:	90 93 4b 38 	sts	0x384B, r25	; 0x80384b <effect+0x1>
    2d22:	2a c2       	rjmp	.+1108   	; 0x3178 <ProcessInput+0x4fa>
            
            //No way out, print denied message of location
            } else {
                SetResponse(elements++, currObj.addrStr[OPEN_ACL_MSG], currObj.lenStr[OPEN_ACL_MSG], GAME);
    2d24:	80 91 4f 3a 	lds	r24, 0x3A4F	; 0x803a4f <currObj+0x22>
    2d28:	90 91 50 3a 	lds	r25, 0x3A50	; 0x803a50 <currObj+0x23>
    return 0;
}

//
void SetResponse(uint8_t number, uint16_t address, uint16_t length, uint8_t type){
    reactStr[0][number]=address;
    2d2c:	20 91 41 3a 	lds	r18, 0x3A41	; 0x803a41 <currObj+0x14>
    2d30:	30 91 42 3a 	lds	r19, 0x3A42	; 0x803a42 <currObj+0x15>
    2d34:	20 93 2f 39 	sts	0x392F, r18	; 0x80392f <reactStr+0x2>
    2d38:	30 93 30 39 	sts	0x3930, r19	; 0x803930 <reactStr+0x3>
    reactStr[1][number]=length;
    2d3c:	80 93 6f 39 	sts	0x396F, r24	; 0x80396f <reactStr+0x42>
    2d40:	90 93 70 39 	sts	0x3970, r25	; 0x803970 <reactStr+0x43>
    reactStr[2][number]=type;
    2d44:	10 92 af 39 	sts	0x39AF, r1	; 0x8039af <reactStr+0x82>
    2d48:	10 92 b0 39 	sts	0x39B0, r1	; 0x8039b0 <reactStr+0x83>
                effect = currObj.byteField[EFFECTS];
            
            //No way out, print denied message of location
            } else {
                SetResponse(elements++, currObj.addrStr[OPEN_ACL_MSG], currObj.lenStr[OPEN_ACL_MSG], GAME);
                effect = currObj.effect[0];               
    2d4c:	80 91 55 3a 	lds	r24, 0x3A55	; 0x803a55 <currObj+0x28>
    2d50:	a9 c5       	rjmp	.+2898   	; 0x38a4 <ProcessInput+0xc26>
            }   
        
        //Enter locations or Open objects    
        } else if ((data[0] == 'e')||(data[0] == 'o')) {
    2d52:	85 36       	cpi	r24, 0x65	; 101
    2d54:	19 f0       	breq	.+6      	; 0x2d5c <ProcessInput+0xde>
    2d56:	8f 36       	cpi	r24, 0x6F	; 111
    2d58:	09 f0       	breq	.+2      	; 0x2d5c <ProcessInput+0xde>
    2d5a:	de c0       	rjmp	.+444    	; 0x2f18 <ProcessInput+0x29a>
                
            //Not possible, too many/little characters
            if (inputLen != 2){
    2d5c:	b2 e0       	ldi	r27, 0x02	; 2
    2d5e:	fb 12       	cpse	r15, r27
    2d60:	c1 cf       	rjmp	.-126    	; 0x2ce4 <ProcessInput+0x66>
                SetResponse(elements++, A_NOTPOSSIBLE, L_NOTPOSSIBLE, TEASER);
            } else {
                uint8_t canDo = 0;
                route[currDepth+1] = FindChild(route[currDepth], data[1], 0);
    2d62:	00 91 3e 38 	lds	r16, 0x383E	; 0x80383e <currDepth>
    2d66:	10 e0       	ldi	r17, 0x00	; 0
    2d68:	f8 01       	movw	r30, r16
    2d6a:	ee 0f       	add	r30, r30
    2d6c:	ff 1f       	adc	r31, r31
    2d6e:	e3 51       	subi	r30, 0x13	; 19
    2d70:	f6 4c       	sbci	r31, 0xC6	; 198
    2d72:	40 e0       	ldi	r20, 0x00	; 0
    2d74:	50 e0       	ldi	r21, 0x00	; 0
    2d76:	d3 01       	movw	r26, r6
    2d78:	11 96       	adiw	r26, 0x01	; 1
    2d7a:	6c 91       	ld	r22, X
    2d7c:	80 81       	ld	r24, Z
    2d7e:	91 81       	ldd	r25, Z+1	; 0x01
    2d80:	fc db       	rcall	.-2056   	; 0x257a <FindChild>
    2d82:	00 0f       	add	r16, r16
    2d84:	11 1f       	adc	r17, r17
    2d86:	f8 01       	movw	r30, r16
    2d88:	e1 51       	subi	r30, 0x11	; 17
    2d8a:	f6 4c       	sbci	r31, 0xC6	; 198
    2d8c:	80 83       	st	Z, r24
    2d8e:	91 83       	std	Z+1, r25	; 0x01
                    
                //Child found?
                if (route[currDepth+1]) {
    2d90:	90 91 3e 38 	lds	r25, 0x383E	; 0x80383e <currDepth>
    2d94:	29 2f       	mov	r18, r25
    2d96:	30 e0       	ldi	r19, 0x00	; 0
    2d98:	f9 01       	movw	r30, r18
    2d9a:	ee 0f       	add	r30, r30
    2d9c:	ff 1f       	adc	r31, r31
    2d9e:	e1 51       	subi	r30, 0x11	; 17
    2da0:	f6 4c       	sbci	r31, 0xC6	; 198
    2da2:	40 81       	ld	r20, Z
    2da4:	51 81       	ldd	r21, Z+1	; 0x01
    2da6:	41 15       	cp	r20, r1
    2da8:	51 05       	cpc	r21, r1
    2daa:	21 f0       	breq	.+8      	; 0x2db4 <ProcessInput+0x136>
                    PopulateObject(route[currDepth+1], &actObj1);
    2dac:	6c ee       	ldi	r22, 0xEC	; 236
    2dae:	78 e3       	ldi	r23, 0x38	; 56
    2db0:	ca 01       	movw	r24, r20
    2db2:	1c c0       	rjmp	.+56     	; 0x2dec <ProcessInput+0x16e>
                    canDo = 1;
                //No child, maybe a step back, letter ok?
                } else if (currDepth) {
    2db4:	99 23       	and	r25, r25
    2db6:	09 f4       	brne	.+2      	; 0x2dba <ProcessInput+0x13c>
    2db8:	dc c6       	rjmp	.+3512   	; 0x3b72 <ProcessInput+0xef4>
                    if (CheckLetter(route[currDepth-1], data[1])) {
    2dba:	22 0f       	add	r18, r18
    2dbc:	33 1f       	adc	r19, r19
    2dbe:	f9 01       	movw	r30, r18
    2dc0:	e5 51       	subi	r30, 0x15	; 21
    2dc2:	f6 4c       	sbci	r31, 0xC6	; 198
    2dc4:	d3 01       	movw	r26, r6
    2dc6:	11 96       	adiw	r26, 0x01	; 1
    2dc8:	6c 91       	ld	r22, X
    2dca:	80 81       	ld	r24, Z
    2dcc:	91 81       	ldd	r25, Z+1	; 0x01
    2dce:	8e db       	rcall	.-2276   	; 0x24ec <CheckLetter>
    2dd0:	88 23       	and	r24, r24
    2dd2:	09 f4       	brne	.+2      	; 0x2dd6 <ProcessInput+0x158>
    2dd4:	ce c6       	rjmp	.+3484   	; 0x3b72 <ProcessInput+0xef4>
                        PopulateObject(route[currDepth-1], &actObj1);
    2dd6:	e0 91 3e 38 	lds	r30, 0x383E	; 0x80383e <currDepth>
    2dda:	f0 e0       	ldi	r31, 0x00	; 0
    2ddc:	ee 0f       	add	r30, r30
    2dde:	ff 1f       	adc	r31, r31
    2de0:	e5 51       	subi	r30, 0x15	; 21
    2de2:	f6 4c       	sbci	r31, 0xC6	; 198
    2de4:	6c ee       	ldi	r22, 0xEC	; 236
    2de6:	78 e3       	ldi	r23, 0x38	; 56
    2de8:	80 81       	ld	r24, Z
    2dea:	91 81       	ldd	r25, Z+1	; 0x01
    2dec:	06 db       	rcall	.-2548   	; 0x23fa <PopulateObject>
                    }
                }

                //The candidate is found! Let's check if the action is legit
                if (canDo) {
                    if ((data[0] == 'e') && ((actObj1.byteField[ACTION_MASK]&ENTER)==0)) {
    2dee:	d3 01       	movw	r26, r6
    2df0:	8c 91       	ld	r24, X
    2df2:	85 36       	cpi	r24, 0x65	; 101
    2df4:	c1 f4       	brne	.+48     	; 0x2e26 <ProcessInput+0x1a8>
    2df6:	80 91 f4 38 	lds	r24, 0x38F4	; 0x8038f4 <actObj1.3956+0x8>
    2dfa:	80 fd       	sbrc	r24, 0
    2dfc:	1d c0       	rjmp	.+58     	; 0x2e38 <ProcessInput+0x1ba>
    return 0;
}

//
void SetResponse(uint8_t number, uint16_t address, uint16_t length, uint8_t type){
    reactStr[0][number]=address;
    2dfe:	8d e9       	ldi	r24, 0x9D	; 157
    2e00:	99 e7       	ldi	r25, 0x79	; 121
    2e02:	80 93 2f 39 	sts	0x392F, r24	; 0x80392f <reactStr+0x2>
    2e06:	90 93 30 39 	sts	0x3930, r25	; 0x803930 <reactStr+0x3>
    reactStr[1][number]=length;
    2e0a:	8e e1       	ldi	r24, 0x1E	; 30
    2e0c:	90 e0       	ldi	r25, 0x00	; 0
    2e0e:	80 93 6f 39 	sts	0x396F, r24	; 0x80396f <reactStr+0x42>
    2e12:	90 93 70 39 	sts	0x3970, r25	; 0x803970 <reactStr+0x43>
    reactStr[2][number]=type;
    2e16:	81 e0       	ldi	r24, 0x01	; 1
    2e18:	90 e0       	ldi	r25, 0x00	; 0
    2e1a:	80 93 af 39 	sts	0x39AF, r24	; 0x8039af <reactStr+0x82>
    2e1e:	90 93 b0 39 	sts	0x39B0, r25	; 0x8039b0 <reactStr+0x83>
                }

                //The candidate is found! Let's check if the action is legit
                if (canDo) {
                    if ((data[0] == 'e') && ((actObj1.byteField[ACTION_MASK]&ENTER)==0)) {
                        SetResponse(elements++, A_CANTENTER, L_CANTENTER, TEASER);
    2e22:	12 e0       	ldi	r17, 0x02	; 2
    2e24:	97 c6       	rjmp	.+3374   	; 0x3b54 <ProcessInput+0xed6>
                    } else if ((data[0] == 'o') && ((actObj1.byteField[ACTION_MASK]&OPEN)==0)) {
    2e26:	8f 36       	cpi	r24, 0x6F	; 111
    2e28:	39 f4       	brne	.+14     	; 0x2e38 <ProcessInput+0x1ba>
    2e2a:	80 91 f4 38 	lds	r24, 0x38F4	; 0x8038f4 <actObj1.3956+0x8>
    2e2e:	81 fd       	sbrc	r24, 1
    2e30:	03 c0       	rjmp	.+6      	; 0x2e38 <ProcessInput+0x1ba>
    return 0;
}

//
void SetResponse(uint8_t number, uint16_t address, uint16_t length, uint8_t type){
    reactStr[0][number]=address;
    2e32:	82 e8       	ldi	r24, 0x82	; 130
    2e34:	99 e7       	ldi	r25, 0x79	; 121
    2e36:	6c c4       	rjmp	.+2264   	; 0x3710 <ProcessInput+0xa92>
                        SetResponse(elements++, A_CANTENTER, L_CANTENTER, TEASER);
                    } else if ((data[0] == 'o') && ((actObj1.byteField[ACTION_MASK]&OPEN)==0)) {
                        SetResponse(elements++, A_CANTOPEN, L_CANTOPEN, TEASER);
                    
                    //Action legit, permission granted?
                    } else if (CheckState(actObj1.byteField[OPEN_ACL])) {
    2e38:	80 91 f2 38 	lds	r24, 0x38F2	; 0x8038f2 <actObj1.3956+0x6>
    2e3c:	0e 94 6a 09 	call	0x12d4	; 0x12d4 <CheckState>
    2e40:	e0 91 3e 38 	lds	r30, 0x383E	; 0x80383e <currDepth>
    2e44:	88 23       	and	r24, r24
    2e46:	09 f4       	brne	.+2      	; 0x2e4a <ProcessInput+0x1cc>
    2e48:	49 c0       	rjmp	.+146    	; 0x2edc <ProcessInput+0x25e>
                            
                        //Yes! Check if we must move forward or backwards.
                        if (route[currDepth+1]) ++currDepth; else --currDepth;
    2e4a:	ae 2f       	mov	r26, r30
    2e4c:	b0 e0       	ldi	r27, 0x00	; 0
    2e4e:	aa 0f       	add	r26, r26
    2e50:	bb 1f       	adc	r27, r27
    2e52:	a1 51       	subi	r26, 0x11	; 17
    2e54:	b6 4c       	sbci	r27, 0xC6	; 198
    2e56:	8d 91       	ld	r24, X+
    2e58:	9c 91       	ld	r25, X
    2e5a:	89 2b       	or	r24, r25
    2e5c:	11 f0       	breq	.+4      	; 0x2e62 <ProcessInput+0x1e4>
    2e5e:	ef 5f       	subi	r30, 0xFF	; 255
    2e60:	01 c0       	rjmp	.+2      	; 0x2e64 <ProcessInput+0x1e6>
    2e62:	e1 50       	subi	r30, 0x01	; 1
    2e64:	e0 93 3e 38 	sts	0x383E, r30	; 0x80383e <currDepth>
                        PopulateObject(route[currDepth], &currObj);
    2e68:	e0 91 3e 38 	lds	r30, 0x383E	; 0x80383e <currDepth>
    2e6c:	f0 e0       	ldi	r31, 0x00	; 0
    2e6e:	ee 0f       	add	r30, r30
    2e70:	ff 1f       	adc	r31, r31
    2e72:	e3 51       	subi	r30, 0x13	; 19
    2e74:	f6 4c       	sbci	r31, 0xC6	; 198
    2e76:	6d e2       	ldi	r22, 0x2D	; 45
    2e78:	7a e3       	ldi	r23, 0x3A	; 58
    2e7a:	80 81       	ld	r24, Z
    2e7c:	91 81       	ldd	r25, Z+1	; 0x01
    2e7e:	bd da       	rcall	.-2694   	; 0x23fa <PopulateObject>
                        SetResponse(elements++, currObj.addrStr[DESC], currObj.lenStr[DESC],GAME);
    2e80:	80 91 49 3a 	lds	r24, 0x3A49	; 0x803a49 <currObj+0x1c>
    2e84:	90 91 4a 3a 	lds	r25, 0x3A4A	; 0x803a4a <currObj+0x1d>
    return 0;
}

//
void SetResponse(uint8_t number, uint16_t address, uint16_t length, uint8_t type){
    reactStr[0][number]=address;
    2e88:	20 91 3b 3a 	lds	r18, 0x3A3B	; 0x803a3b <currObj+0xe>
    2e8c:	30 91 3c 3a 	lds	r19, 0x3A3C	; 0x803a3c <currObj+0xf>
    2e90:	20 93 2f 39 	sts	0x392F, r18	; 0x80392f <reactStr+0x2>
    2e94:	30 93 30 39 	sts	0x3930, r19	; 0x803930 <reactStr+0x3>
    reactStr[1][number]=length;
    2e98:	80 93 6f 39 	sts	0x396F, r24	; 0x80396f <reactStr+0x42>
    2e9c:	90 93 70 39 	sts	0x3970, r25	; 0x803970 <reactStr+0x43>
    reactStr[2][number]=type;
    2ea0:	10 92 af 39 	sts	0x39AF, r1	; 0x8039af <reactStr+0x82>
    2ea4:	10 92 b0 39 	sts	0x39B0, r1	; 0x8039b0 <reactStr+0x83>
    return 0;
}

//
void SetResponse(uint8_t number, uint16_t address, uint16_t length, uint8_t type){
    reactStr[0][number]=address;
    2ea8:	89 e5       	ldi	r24, 0x59	; 89
    2eaa:	9a e7       	ldi	r25, 0x7A	; 122
    2eac:	80 93 31 39 	sts	0x3931, r24	; 0x803931 <reactStr+0x4>
    2eb0:	90 93 32 39 	sts	0x3932, r25	; 0x803932 <reactStr+0x5>
    reactStr[1][number]=length;
    2eb4:	82 e0       	ldi	r24, 0x02	; 2
    2eb6:	90 e0       	ldi	r25, 0x00	; 0
    2eb8:	80 93 71 39 	sts	0x3971, r24	; 0x803971 <reactStr+0x44>
    2ebc:	90 93 72 39 	sts	0x3972, r25	; 0x803972 <reactStr+0x45>
    reactStr[2][number]=type;
    2ec0:	81 e0       	ldi	r24, 0x01	; 1
    2ec2:	90 e0       	ldi	r25, 0x00	; 0
    2ec4:	80 93 b1 39 	sts	0x39B1, r24	; 0x8039b1 <reactStr+0x84>
    2ec8:	90 93 b2 39 	sts	0x39B2, r25	; 0x8039b2 <reactStr+0x85>
                        //Yes! Check if we must move forward or backwards.
                        if (route[currDepth+1]) ++currDepth; else --currDepth;
                        PopulateObject(route[currDepth], &currObj);
                        SetResponse(elements++, currObj.addrStr[DESC], currObj.lenStr[DESC],GAME);
                        SetResponse(elements++, A_LF, 2, TEASER);
                        effect = currObj.byteField[EFFECTS];
    2ecc:	80 91 31 3a 	lds	r24, 0x3A31	; 0x803a31 <currObj+0x4>
    2ed0:	90 e0       	ldi	r25, 0x00	; 0
    2ed2:	80 93 4a 38 	sts	0x384A, r24	; 0x80384a <effect>
    2ed6:	90 93 4b 38 	sts	0x384B, r25	; 0x80384b <effect+0x1>
    2eda:	07 c4       	rjmp	.+2062   	; 0x36ea <ProcessInput+0xa6c>
                                                  
                    //Not granted!
                    } else {
                        route[currDepth+1] = 0;
    2edc:	f0 e0       	ldi	r31, 0x00	; 0
    2ede:	ee 0f       	add	r30, r30
    2ee0:	ff 1f       	adc	r31, r31
    2ee2:	e1 51       	subi	r30, 0x11	; 17
    2ee4:	f6 4c       	sbci	r31, 0xC6	; 198
    2ee6:	10 82       	st	Z, r1
    2ee8:	11 82       	std	Z+1, r1	; 0x01
                        SetResponse(elements++, actObj1.addrStr[OPEN_ACL_MSG], actObj1.lenStr[OPEN_ACL_MSG], GAME);
    2eea:	80 91 0e 39 	lds	r24, 0x390E	; 0x80390e <actObj1.3956+0x22>
    2eee:	90 91 0f 39 	lds	r25, 0x390F	; 0x80390f <actObj1.3956+0x23>
    return 0;
}

//
void SetResponse(uint8_t number, uint16_t address, uint16_t length, uint8_t type){
    reactStr[0][number]=address;
    2ef2:	20 91 00 39 	lds	r18, 0x3900	; 0x803900 <actObj1.3956+0x14>
    2ef6:	30 91 01 39 	lds	r19, 0x3901	; 0x803901 <actObj1.3956+0x15>
    2efa:	20 93 2f 39 	sts	0x392F, r18	; 0x80392f <reactStr+0x2>
    2efe:	30 93 30 39 	sts	0x3930, r19	; 0x803930 <reactStr+0x3>
    reactStr[1][number]=length;
    2f02:	80 93 6f 39 	sts	0x396F, r24	; 0x80396f <reactStr+0x42>
    2f06:	90 93 70 39 	sts	0x3970, r25	; 0x803970 <reactStr+0x43>
    reactStr[2][number]=type;
    2f0a:	10 92 af 39 	sts	0x39AF, r1	; 0x8039af <reactStr+0x82>
    2f0e:	10 92 b0 39 	sts	0x39B0, r1	; 0x8039b0 <reactStr+0x83>
                                                  
                    //Not granted!
                    } else {
                        route[currDepth+1] = 0;
                        SetResponse(elements++, actObj1.addrStr[OPEN_ACL_MSG], actObj1.lenStr[OPEN_ACL_MSG], GAME);
                        effect = actObj1.effect[0];              
    2f12:	80 91 14 39 	lds	r24, 0x3914	; 0x803914 <actObj1.3956+0x28>
    2f16:	c6 c4       	rjmp	.+2444   	; 0x38a4 <ProcessInput+0xc26>
                    SetResponse(elements++, A_DONTSEE, L_DONTSEE, TEASER);                
                }
            }

        //Look around or at objects
        } else if (data[0] == 'l') {
    2f18:	8c 36       	cpi	r24, 0x6C	; 108
    2f1a:	09 f0       	breq	.+2      	; 0x2f1e <ProcessInput+0x2a0>
    2f1c:	59 c1       	rjmp	.+690    	; 0x31d0 <ProcessInput+0x552>
    2f1e:	e0 91 3e 38 	lds	r30, 0x383E	; 0x80383e <currDepth>
            if (inputLen == 1) {
    2f22:	b1 e0       	ldi	r27, 0x01	; 1
    2f24:	fb 12       	cpse	r15, r27
    2f26:	f1 c0       	rjmp	.+482    	; 0x310a <ProcessInput+0x48c>

                //Show info about this area first
                SetResponse(elements++, currObj.addrStr[DESC], currObj.lenStr[DESC],GAME);
    2f28:	80 91 49 3a 	lds	r24, 0x3A49	; 0x803a49 <currObj+0x1c>
    2f2c:	90 91 4a 3a 	lds	r25, 0x3A4A	; 0x803a4a <currObj+0x1d>
    return 0;
}

//
void SetResponse(uint8_t number, uint16_t address, uint16_t length, uint8_t type){
    reactStr[0][number]=address;
    2f30:	40 91 3b 3a 	lds	r20, 0x3A3B	; 0x803a3b <currObj+0xe>
    2f34:	50 91 3c 3a 	lds	r21, 0x3A3C	; 0x803a3c <currObj+0xf>
    2f38:	40 93 2f 39 	sts	0x392F, r20	; 0x80392f <reactStr+0x2>
    2f3c:	50 93 30 39 	sts	0x3930, r21	; 0x803930 <reactStr+0x3>
    reactStr[1][number]=length;
    2f40:	80 93 6f 39 	sts	0x396F, r24	; 0x80396f <reactStr+0x42>
    2f44:	90 93 70 39 	sts	0x3970, r25	; 0x803970 <reactStr+0x43>
    reactStr[2][number]=type;
    2f48:	10 92 af 39 	sts	0x39AF, r1	; 0x8039af <reactStr+0x82>
    2f4c:	10 92 b0 39 	sts	0x39B0, r1	; 0x8039b0 <reactStr+0x83>
    return 0;
}

//
void SetResponse(uint8_t number, uint16_t address, uint16_t length, uint8_t type){
    reactStr[0][number]=address;
    2f50:	20 93 31 39 	sts	0x3931, r18	; 0x803931 <reactStr+0x4>
    2f54:	30 93 32 39 	sts	0x3932, r19	; 0x803932 <reactStr+0x5>
    reactStr[1][number]=length;
    2f58:	82 e0       	ldi	r24, 0x02	; 2
    2f5a:	90 e0       	ldi	r25, 0x00	; 0
    2f5c:	80 93 71 39 	sts	0x3971, r24	; 0x803971 <reactStr+0x44>
    2f60:	90 93 72 39 	sts	0x3972, r25	; 0x803972 <reactStr+0x45>
    reactStr[2][number]=type;
    2f64:	00 93 b1 39 	sts	0x39B1, r16	; 0x8039b1 <reactStr+0x84>
    2f68:	10 93 b2 39 	sts	0x39B2, r17	; 0x8039b2 <reactStr+0x85>
    return 0;
}

//
void SetResponse(uint8_t number, uint16_t address, uint16_t length, uint8_t type){
    reactStr[0][number]=address;
    2f6c:	8b ee       	ldi	r24, 0xEB	; 235
    2f6e:	99 e7       	ldi	r25, 0x79	; 121
    2f70:	80 93 33 39 	sts	0x3933, r24	; 0x803933 <reactStr+0x6>
    2f74:	90 93 34 39 	sts	0x3934, r25	; 0x803934 <reactStr+0x7>
    reactStr[1][number]=length;
    2f78:	85 e1       	ldi	r24, 0x15	; 21
    2f7a:	90 e0       	ldi	r25, 0x00	; 0
    2f7c:	80 93 73 39 	sts	0x3973, r24	; 0x803973 <reactStr+0x46>
    2f80:	90 93 74 39 	sts	0x3974, r25	; 0x803974 <reactStr+0x47>
    reactStr[2][number]=type;
    2f84:	00 93 b3 39 	sts	0x39B3, r16	; 0x8039b3 <reactStr+0x86>
    2f88:	10 93 b4 39 	sts	0x39B4, r17	; 0x8039b4 <reactStr+0x87>
                SetResponse(elements++, currObj.addrStr[DESC], currObj.lenStr[DESC],GAME);
                SetResponse(elements++, A_LF, 2, TEASER);
                SetResponse(elements++, A_LOOK, L_LOOK, TEASER);

                //Check the visible children first
                route[currDepth+1] = 0;
    2f8c:	f0 e0       	ldi	r31, 0x00	; 0
    2f8e:	ee 0f       	add	r30, r30
    2f90:	ff 1f       	adc	r31, r31
    2f92:	e1 51       	subi	r30, 0x11	; 17
    2f94:	f6 4c       	sbci	r31, 0xC6	; 198
    2f96:	10 82       	st	Z, r1
    2f98:	11 82       	std	Z+1, r1	; 0x01
            if (inputLen == 1) {

                //Show info about this area first
                SetResponse(elements++, currObj.addrStr[DESC], currObj.lenStr[DESC],GAME);
                SetResponse(elements++, A_LF, 2, TEASER);
                SetResponse(elements++, A_LOOK, L_LOOK, TEASER);
    2f9a:	14 e0       	ldi	r17, 0x04	; 4
    2f9c:	91 2e       	mov	r9, r17
    return 0;
}

//
void SetResponse(uint8_t number, uint16_t address, uint16_t length, uint8_t type){
    reactStr[0][number]=address;
    2f9e:	07 e5       	ldi	r16, 0x57	; 87
    2fa0:	e0 2e       	mov	r14, r16
    2fa2:	0a e7       	ldi	r16, 0x7A	; 122
    2fa4:	f0 2e       	mov	r15, r16
    reactStr[1][number]=length;
    2fa6:	82 e0       	ldi	r24, 0x02	; 2
    2fa8:	c8 2e       	mov	r12, r24
    2faa:	d1 2c       	mov	r13, r1
    reactStr[2][number]=type;
    2fac:	aa 24       	eor	r10, r10
    2fae:	a3 94       	inc	r10
    2fb0:	b1 2c       	mov	r11, r1
                SetResponse(elements++, A_LOOK, L_LOOK, TEASER);

                //Check the visible children first
                route[currDepth+1] = 0;
                do{
                    route[currDepth+1] = FindChild(route[currDepth], 0, route[currDepth+1]);
    2fb2:	80 91 3e 38 	lds	r24, 0x383E	; 0x80383e <currDepth>
    2fb6:	90 e0       	ldi	r25, 0x00	; 0
    2fb8:	8c 01       	movw	r16, r24
    2fba:	00 0f       	add	r16, r16
    2fbc:	11 1f       	adc	r17, r17
    2fbe:	01 51       	subi	r16, 0x11	; 17
    2fc0:	16 4c       	sbci	r17, 0xC6	; 198
    2fc2:	f8 01       	movw	r30, r16
    2fc4:	40 81       	ld	r20, Z
    2fc6:	51 81       	ldd	r21, Z+1	; 0x01
    2fc8:	88 0f       	add	r24, r24
    2fca:	99 1f       	adc	r25, r25
    2fcc:	fc 01       	movw	r30, r24
    2fce:	e3 51       	subi	r30, 0x13	; 19
    2fd0:	f6 4c       	sbci	r31, 0xC6	; 198
    2fd2:	60 e0       	ldi	r22, 0x00	; 0
    2fd4:	80 81       	ld	r24, Z
    2fd6:	91 81       	ldd	r25, Z+1	; 0x01
    2fd8:	d0 da       	rcall	.-2656   	; 0x257a <FindChild>
    2fda:	d8 01       	movw	r26, r16
    2fdc:	8d 93       	st	X+, r24
    2fde:	9c 93       	st	X, r25
                    if (route[currDepth+1]) {
    2fe0:	e0 91 3e 38 	lds	r30, 0x383E	; 0x80383e <currDepth>
    2fe4:	f0 e0       	ldi	r31, 0x00	; 0
    2fe6:	ee 0f       	add	r30, r30
    2fe8:	ff 1f       	adc	r31, r31
    2fea:	e1 51       	subi	r30, 0x11	; 17
    2fec:	f6 4c       	sbci	r31, 0xC6	; 198
    2fee:	80 81       	ld	r24, Z
    2ff0:	91 81       	ldd	r25, Z+1	; 0x01
    2ff2:	00 97       	sbiw	r24, 0x00	; 0
    2ff4:	09 f4       	brne	.+2      	; 0x2ff8 <ProcessInput+0x37a>
    2ff6:	4a c0       	rjmp	.+148    	; 0x308c <ProcessInput+0x40e>
                        if ((route[currDepth+1] != inventory[0])&&(route[currDepth+1] != inventory[1])) {
    2ff8:	20 91 4e 38 	lds	r18, 0x384E	; 0x80384e <inventory>
    2ffc:	30 91 4f 38 	lds	r19, 0x384F	; 0x80384f <inventory+0x1>
    3000:	82 17       	cp	r24, r18
    3002:	93 07       	cpc	r25, r19
    3004:	09 f4       	brne	.+2      	; 0x3008 <ProcessInput+0x38a>
    3006:	42 c0       	rjmp	.+132    	; 0x308c <ProcessInput+0x40e>
    3008:	20 91 50 38 	lds	r18, 0x3850	; 0x803850 <inventory+0x2>
    300c:	30 91 51 38 	lds	r19, 0x3851	; 0x803851 <inventory+0x3>
    3010:	82 17       	cp	r24, r18
    3012:	93 07       	cpc	r25, r19
                            PopulateObject(route[currDepth+1], &actObj1);
    3014:	d9 f1       	breq	.+118    	; 0x308c <ProcessInput+0x40e>
    3016:	6c ee       	ldi	r22, 0xEC	; 236
    3018:	78 e3       	ldi	r23, 0x38	; 56
    301a:	ef d9       	rcall	.-3106   	; 0x23fa <PopulateObject>
                            SetResponse(elements++, actObj1.addrStr[NAME], actObj1.lenStr[NAME],GAME);
    301c:	80 91 06 39 	lds	r24, 0x3906	; 0x803906 <actObj1.3956+0x1a>
    3020:	90 91 07 39 	lds	r25, 0x3907	; 0x803907 <actObj1.3956+0x1b>
    return 0;
}

//
void SetResponse(uint8_t number, uint16_t address, uint16_t length, uint8_t type){
    reactStr[0][number]=address;
    3024:	e9 2d       	mov	r30, r9
    3026:	f0 e0       	ldi	r31, 0x00	; 0
    3028:	df 01       	movw	r26, r30
    302a:	aa 0f       	add	r26, r26
    302c:	bb 1f       	adc	r27, r27
    302e:	a3 5d       	subi	r26, 0xD3	; 211
    3030:	b6 4c       	sbci	r27, 0xC6	; 198
    3032:	20 91 f8 38 	lds	r18, 0x38F8	; 0x8038f8 <actObj1.3956+0xc>
    3036:	30 91 f9 38 	lds	r19, 0x38F9	; 0x8038f9 <actObj1.3956+0xd>
    303a:	2d 93       	st	X+, r18
    303c:	3c 93       	st	X, r19
    reactStr[1][number]=length;
    303e:	df 01       	movw	r26, r30
    3040:	aa 0f       	add	r26, r26
    3042:	bb 1f       	adc	r27, r27
    3044:	a3 59       	subi	r26, 0x93	; 147
    3046:	b6 4c       	sbci	r27, 0xC6	; 198
    3048:	8d 93       	st	X+, r24
    304a:	9c 93       	st	X, r25
    reactStr[2][number]=type;
    304c:	ee 0f       	add	r30, r30
    304e:	ff 1f       	adc	r31, r31
    3050:	e3 55       	subi	r30, 0x53	; 83
    3052:	f6 4c       	sbci	r31, 0xC6	; 198
    3054:	10 82       	st	Z, r1
    3056:	11 82       	std	Z+1, r1	; 0x01
    return 0;
}

//
void SetResponse(uint8_t number, uint16_t address, uint16_t length, uint8_t type){
    reactStr[0][number]=address;
    3058:	81 e0       	ldi	r24, 0x01	; 1
    305a:	89 0d       	add	r24, r9
    305c:	90 e0       	ldi	r25, 0x00	; 0
    305e:	93 94       	inc	r9
    3060:	93 94       	inc	r9
    3062:	fc 01       	movw	r30, r24
    3064:	ee 0f       	add	r30, r30
    3066:	ff 1f       	adc	r31, r31
    3068:	e3 5d       	subi	r30, 0xD3	; 211
    306a:	f6 4c       	sbci	r31, 0xC6	; 198
    306c:	e0 82       	st	Z, r14
    306e:	f1 82       	std	Z+1, r15	; 0x01
    reactStr[1][number]=length;
    3070:	fc 01       	movw	r30, r24
    3072:	ee 0f       	add	r30, r30
    3074:	ff 1f       	adc	r31, r31
    3076:	e3 59       	subi	r30, 0x93	; 147
    3078:	f6 4c       	sbci	r31, 0xC6	; 198
    307a:	c0 82       	st	Z, r12
    307c:	d1 82       	std	Z+1, r13	; 0x01
    reactStr[2][number]=type;
    307e:	88 0f       	add	r24, r24
    3080:	99 1f       	adc	r25, r25
    3082:	fc 01       	movw	r30, r24
    3084:	e3 55       	subi	r30, 0x53	; 83
    3086:	f6 4c       	sbci	r31, 0xC6	; 198
    3088:	a0 82       	st	Z, r10
    308a:	b1 82       	std	Z+1, r11	; 0x01
                            PopulateObject(route[currDepth+1], &actObj1);
                            SetResponse(elements++, actObj1.addrStr[NAME], actObj1.lenStr[NAME],GAME);
                            SetResponse(elements++, A_COMMA, L_COMMA, TEASER);
                        }
                    }
                }while (route[currDepth+1]);
    308c:	20 91 3e 38 	lds	r18, 0x383E	; 0x80383e <currDepth>
    3090:	82 2f       	mov	r24, r18
    3092:	90 e0       	ldi	r25, 0x00	; 0
    3094:	fc 01       	movw	r30, r24
    3096:	ee 0f       	add	r30, r30
    3098:	ff 1f       	adc	r31, r31
    309a:	e1 51       	subi	r30, 0x11	; 17
    309c:	f6 4c       	sbci	r31, 0xC6	; 198
    309e:	40 81       	ld	r20, Z
    30a0:	51 81       	ldd	r21, Z+1	; 0x01
    30a2:	45 2b       	or	r20, r21
    30a4:	09 f0       	breq	.+2      	; 0x30a8 <ProcessInput+0x42a>
    30a6:	85 cf       	rjmp	.-246    	; 0x2fb2 <ProcessInput+0x334>

                //Look back if not on level 0
                if (currDepth) {
    30a8:	22 23       	and	r18, r18
    30aa:	61 f1       	breq	.+88     	; 0x3104 <ProcessInput+0x486>
                    PopulateObject(route[currDepth-1], &actObj1);
    30ac:	88 0f       	add	r24, r24
    30ae:	99 1f       	adc	r25, r25
    30b0:	fc 01       	movw	r30, r24
    30b2:	e5 51       	subi	r30, 0x15	; 21
    30b4:	f6 4c       	sbci	r31, 0xC6	; 198
    30b6:	6c ee       	ldi	r22, 0xEC	; 236
    30b8:	78 e3       	ldi	r23, 0x38	; 56
    30ba:	80 81       	ld	r24, Z
    30bc:	91 81       	ldd	r25, Z+1	; 0x01
    30be:	9d d9       	rcall	.-3270   	; 0x23fa <PopulateObject>
                    SetResponse(elements++, actObj1.addrStr[NAME], actObj1.lenStr[NAME],GAME);
    30c0:	20 91 06 39 	lds	r18, 0x3906	; 0x803906 <actObj1.3956+0x1a>
    30c4:	30 91 07 39 	lds	r19, 0x3907	; 0x803907 <actObj1.3956+0x1b>
    30c8:	11 e0       	ldi	r17, 0x01	; 1
    30ca:	19 0d       	add	r17, r9
    return 0;
}

//
void SetResponse(uint8_t number, uint16_t address, uint16_t length, uint8_t type){
    reactStr[0][number]=address;
    30cc:	89 2d       	mov	r24, r9
    30ce:	90 e0       	ldi	r25, 0x00	; 0
    30d0:	fc 01       	movw	r30, r24
    30d2:	ee 0f       	add	r30, r30
    30d4:	ff 1f       	adc	r31, r31
    30d6:	e3 5d       	subi	r30, 0xD3	; 211
    30d8:	f6 4c       	sbci	r31, 0xC6	; 198
    30da:	40 91 f8 38 	lds	r20, 0x38F8	; 0x8038f8 <actObj1.3956+0xc>
    30de:	50 91 f9 38 	lds	r21, 0x38F9	; 0x8038f9 <actObj1.3956+0xd>
    30e2:	40 83       	st	Z, r20
    30e4:	51 83       	std	Z+1, r21	; 0x01
    reactStr[1][number]=length;
    30e6:	fc 01       	movw	r30, r24
    30e8:	ee 0f       	add	r30, r30
    30ea:	ff 1f       	adc	r31, r31
    30ec:	e3 59       	subi	r30, 0x93	; 147
    30ee:	f6 4c       	sbci	r31, 0xC6	; 198
    30f0:	20 83       	st	Z, r18
    30f2:	31 83       	std	Z+1, r19	; 0x01
    reactStr[2][number]=type;
    30f4:	88 0f       	add	r24, r24
    30f6:	99 1f       	adc	r25, r25
    30f8:	fc 01       	movw	r30, r24
    30fa:	e3 55       	subi	r30, 0x53	; 83
    30fc:	f6 4c       	sbci	r31, 0xC6	; 198
    30fe:	10 82       	st	Z, r1
    3100:	11 82       	std	Z+1, r1	; 0x01
    3102:	28 c5       	rjmp	.+2640   	; 0x3b54 <ProcessInput+0xed6>

                //Look back if not on level 0
                if (currDepth) {
                    PopulateObject(route[currDepth-1], &actObj1);
                    SetResponse(elements++, actObj1.addrStr[NAME], actObj1.lenStr[NAME],GAME);
                } else elements-=1;
    3104:	1f ef       	ldi	r17, 0xFF	; 255
    3106:	19 0d       	add	r17, r9
    3108:	25 c5       	rjmp	.+2634   	; 0x3b54 <ProcessInput+0xed6>

            } else {
                route[currDepth+1] = FindChild(route[currDepth], data[1], 0);
    310a:	ee 2e       	mov	r14, r30
    310c:	f1 2c       	mov	r15, r1
    310e:	f7 01       	movw	r30, r14
    3110:	ee 0f       	add	r30, r30
    3112:	ff 1f       	adc	r31, r31
    3114:	e3 51       	subi	r30, 0x13	; 19
    3116:	f6 4c       	sbci	r31, 0xC6	; 198
    3118:	40 e0       	ldi	r20, 0x00	; 0
    311a:	50 e0       	ldi	r21, 0x00	; 0
    311c:	d3 01       	movw	r26, r6
    311e:	11 96       	adiw	r26, 0x01	; 1
    3120:	6c 91       	ld	r22, X
    3122:	80 81       	ld	r24, Z
    3124:	91 81       	ldd	r25, Z+1	; 0x01
    3126:	29 da       	rcall	.-2990   	; 0x257a <FindChild>
    3128:	f7 01       	movw	r30, r14
    312a:	ee 0f       	add	r30, r30
    312c:	ff 1f       	adc	r31, r31
    312e:	e1 51       	subi	r30, 0x11	; 17
    3130:	f6 4c       	sbci	r31, 0xC6	; 198
    3132:	80 83       	st	Z, r24
    3134:	91 83       	std	Z+1, r25	; 0x01
                if (route[currDepth+1]) {
    3136:	90 91 3e 38 	lds	r25, 0x383E	; 0x80383e <currDepth>
    313a:	29 2f       	mov	r18, r25
    313c:	30 e0       	ldi	r19, 0x00	; 0
    313e:	f9 01       	movw	r30, r18
    3140:	ee 0f       	add	r30, r30
    3142:	ff 1f       	adc	r31, r31
    3144:	e1 51       	subi	r30, 0x11	; 17
    3146:	f6 4c       	sbci	r31, 0xC6	; 198
    3148:	40 81       	ld	r20, Z
    314a:	51 81       	ldd	r21, Z+1	; 0x01
    314c:	41 15       	cp	r20, r1
    314e:	51 05       	cpc	r21, r1
    3150:	21 f0       	breq	.+8      	; 0x315a <ProcessInput+0x4dc>
                    PopulateObject(route[currDepth+1], &actObj1);
    3152:	6c ee       	ldi	r22, 0xEC	; 236
    3154:	78 e3       	ldi	r23, 0x38	; 56
    3156:	ca 01       	movw	r24, r20
    3158:	1c c0       	rjmp	.+56     	; 0x3192 <ProcessInput+0x514>
                    SetResponse(elements++, actObj1.addrStr[DESC], actObj1.lenStr[DESC],GAME);   
                } else if (currDepth) {
    315a:	99 23       	and	r25, r25
                    if (CheckLetter(route[currDepth-1], data[1])) {
    315c:	81 f1       	breq	.+96     	; 0x31be <ProcessInput+0x540>
    315e:	22 0f       	add	r18, r18
    3160:	33 1f       	adc	r19, r19
    3162:	f9 01       	movw	r30, r18
    3164:	e5 51       	subi	r30, 0x15	; 21
    3166:	f6 4c       	sbci	r31, 0xC6	; 198
    3168:	d3 01       	movw	r26, r6
    316a:	11 96       	adiw	r26, 0x01	; 1
    316c:	6c 91       	ld	r22, X
    316e:	80 81       	ld	r24, Z
    3170:	91 81       	ldd	r25, Z+1	; 0x01
    3172:	bc d9       	rcall	.-3208   	; 0x24ec <CheckLetter>
    3174:	81 11       	cpse	r24, r1
    3176:	02 c0       	rjmp	.+4      	; 0x317c <ProcessInput+0x4fe>
}

//The game logic!
uint8_t ProcessInput(uint8_t *data){
    static object_model_t actObj1, actObj2;
    uint8_t elements = 1;
    3178:	11 e0       	ldi	r17, 0x01	; 1
                if (route[currDepth+1]) {
                    PopulateObject(route[currDepth+1], &actObj1);
                    SetResponse(elements++, actObj1.addrStr[DESC], actObj1.lenStr[DESC],GAME);   
                } else if (currDepth) {
                    if (CheckLetter(route[currDepth-1], data[1])) {
                        PopulateObject(route[currDepth-1], &actObj1);
    317a:	ec c4       	rjmp	.+2520   	; 0x3b54 <ProcessInput+0xed6>
    317c:	e0 91 3e 38 	lds	r30, 0x383E	; 0x80383e <currDepth>
    3180:	f0 e0       	ldi	r31, 0x00	; 0
    3182:	ee 0f       	add	r30, r30
    3184:	ff 1f       	adc	r31, r31
    3186:	e5 51       	subi	r30, 0x15	; 21
    3188:	f6 4c       	sbci	r31, 0xC6	; 198
    318a:	6c ee       	ldi	r22, 0xEC	; 236
    318c:	78 e3       	ldi	r23, 0x38	; 56
    318e:	80 81       	ld	r24, Z
    3190:	91 81       	ldd	r25, Z+1	; 0x01
    3192:	33 d9       	rcall	.-3482   	; 0x23fa <PopulateObject>
                        SetResponse(elements++, actObj1.addrStr[DESC], actObj1.lenStr[DESC],GAME);
    3194:	80 91 08 39 	lds	r24, 0x3908	; 0x803908 <actObj1.3956+0x1c>
    3198:	90 91 09 39 	lds	r25, 0x3909	; 0x803909 <actObj1.3956+0x1d>
    return 0;
}

//
void SetResponse(uint8_t number, uint16_t address, uint16_t length, uint8_t type){
    reactStr[0][number]=address;
    319c:	20 91 fa 38 	lds	r18, 0x38FA	; 0x8038fa <actObj1.3956+0xe>
    31a0:	30 91 fb 38 	lds	r19, 0x38FB	; 0x8038fb <actObj1.3956+0xf>
    31a4:	20 93 2f 39 	sts	0x392F, r18	; 0x80392f <reactStr+0x2>
    31a8:	30 93 30 39 	sts	0x3930, r19	; 0x803930 <reactStr+0x3>
    reactStr[1][number]=length;
    31ac:	80 93 6f 39 	sts	0x396F, r24	; 0x80396f <reactStr+0x42>
    31b0:	90 93 70 39 	sts	0x3970, r25	; 0x803970 <reactStr+0x43>
    reactStr[2][number]=type;
    31b4:	10 92 af 39 	sts	0x39AF, r1	; 0x8039af <reactStr+0x82>
    31b8:	10 92 b0 39 	sts	0x39B0, r1	; 0x8039b0 <reactStr+0x83>
    31bc:	32 ce       	rjmp	.-924    	; 0x2e22 <ProcessInput+0x1a4>
    return 0;
}

//
void SetResponse(uint8_t number, uint16_t address, uint16_t length, uint8_t type){
    reactStr[0][number]=address;
    31be:	81 ed       	ldi	r24, 0xD1	; 209
    31c0:	99 e7       	ldi	r25, 0x79	; 121
    31c2:	80 93 2f 39 	sts	0x392F, r24	; 0x80392f <reactStr+0x2>
    31c6:	90 93 30 39 	sts	0x3930, r25	; 0x803930 <reactStr+0x3>
    reactStr[1][number]=length;
    31ca:	8a e1       	ldi	r24, 0x1A	; 26
    31cc:	90 e0       	ldi	r25, 0x00	; 0
    31ce:	c9 c2       	rjmp	.+1426   	; 0x3762 <ProcessInput+0xae4>
                    SetResponse(elements++, A_DONTSEE, L_DONTSEE, TEASER);
                }
            }
        
        //Pick up an object
        } else if (data[0] == 'p') {
    31d0:	80 37       	cpi	r24, 0x70	; 112
    31d2:	09 f0       	breq	.+2      	; 0x31d6 <ProcessInput+0x558>
    31d4:	92 c0       	rjmp	.+292    	; 0x32fa <ProcessInput+0x67c>
            if (inventory[0]&&inventory[1]) {
    31d6:	80 91 4e 38 	lds	r24, 0x384E	; 0x80384e <inventory>
    31da:	90 91 4f 38 	lds	r25, 0x384F	; 0x80384f <inventory+0x1>
    31de:	89 2b       	or	r24, r25
    31e0:	79 f0       	breq	.+30     	; 0x3200 <ProcessInput+0x582>
    31e2:	80 91 50 38 	lds	r24, 0x3850	; 0x803850 <inventory+0x2>
    31e6:	90 91 51 38 	lds	r25, 0x3851	; 0x803851 <inventory+0x3>
    31ea:	89 2b       	or	r24, r25
    31ec:	49 f0       	breq	.+18     	; 0x3200 <ProcessInput+0x582>
    return 0;
}

//
void SetResponse(uint8_t number, uint16_t address, uint16_t length, uint8_t type){
    reactStr[0][number]=address;
    31ee:	87 e0       	ldi	r24, 0x07	; 7
    31f0:	98 e7       	ldi	r25, 0x78	; 120
    31f2:	80 93 2f 39 	sts	0x392F, r24	; 0x80392f <reactStr+0x2>
    31f6:	90 93 30 39 	sts	0x3930, r25	; 0x803930 <reactStr+0x3>
    reactStr[1][number]=length;
    31fa:	89 e5       	ldi	r24, 0x59	; 89
    31fc:	90 e0       	ldi	r25, 0x00	; 0
    31fe:	b1 c2       	rjmp	.+1378   	; 0x3762 <ProcessInput+0xae4>
        
        //Pick up an object
        } else if (data[0] == 'p') {
            if (inventory[0]&&inventory[1]) {
                SetResponse(elements++, A_CARRYTWO, L_CARRYTWO, TEASER);
            } else if (inputLen != 2) {
    3200:	b2 e0       	ldi	r27, 0x02	; 2
    3202:	fb 12       	cpse	r15, r27
    3204:	6f cd       	rjmp	.-1314   	; 0x2ce4 <ProcessInput+0x66>
                SetResponse(elements++, A_NOTPOSSIBLE, L_NOTPOSSIBLE, TEASER);
            } else {
                route[currDepth+1] = FindChild(route[currDepth], data[1], 0);
    3206:	00 91 3e 38 	lds	r16, 0x383E	; 0x80383e <currDepth>
    320a:	10 e0       	ldi	r17, 0x00	; 0
    320c:	f8 01       	movw	r30, r16
    320e:	ee 0f       	add	r30, r30
    3210:	ff 1f       	adc	r31, r31
    3212:	e3 51       	subi	r30, 0x13	; 19
    3214:	f6 4c       	sbci	r31, 0xC6	; 198
    3216:	40 e0       	ldi	r20, 0x00	; 0
    3218:	50 e0       	ldi	r21, 0x00	; 0
    321a:	d3 01       	movw	r26, r6
    321c:	11 96       	adiw	r26, 0x01	; 1
    321e:	6c 91       	ld	r22, X
    3220:	80 81       	ld	r24, Z
    3222:	91 81       	ldd	r25, Z+1	; 0x01
    3224:	aa d9       	rcall	.-3244   	; 0x257a <FindChild>
    3226:	00 0f       	add	r16, r16
    3228:	11 1f       	adc	r17, r17
    322a:	f8 01       	movw	r30, r16
    322c:	e1 51       	subi	r30, 0x11	; 17
    322e:	f6 4c       	sbci	r31, 0xC6	; 198
    3230:	80 83       	st	Z, r24
    3232:	91 83       	std	Z+1, r25	; 0x01
                if (route[currDepth+1]) {
    3234:	20 91 3e 38 	lds	r18, 0x383E	; 0x80383e <currDepth>
    3238:	30 e0       	ldi	r19, 0x00	; 0
    323a:	2f 5f       	subi	r18, 0xFF	; 255
    323c:	3f 4f       	sbci	r19, 0xFF	; 255
    323e:	22 0f       	add	r18, r18
    3240:	33 1f       	adc	r19, r19
    3242:	f9 01       	movw	r30, r18
    3244:	e3 51       	subi	r30, 0x13	; 19
    3246:	f6 4c       	sbci	r31, 0xC6	; 198
    3248:	80 81       	ld	r24, Z
    324a:	91 81       	ldd	r25, Z+1	; 0x01
    324c:	00 97       	sbiw	r24, 0x00	; 0
    324e:	09 f4       	brne	.+2      	; 0x3252 <ProcessInput+0x5d4>
    3250:	38 c3       	rjmp	.+1648   	; 0x38c2 <ProcessInput+0xc44>
                    if ((route[currDepth+1] == inventory[0])||(route[currDepth+1] == inventory[1])) {
    3252:	40 91 4e 38 	lds	r20, 0x384E	; 0x80384e <inventory>
    3256:	50 91 4f 38 	lds	r21, 0x384F	; 0x80384f <inventory+0x1>
    325a:	84 17       	cp	r24, r20
    325c:	95 07       	cpc	r25, r21
    325e:	39 f0       	breq	.+14     	; 0x326e <ProcessInput+0x5f0>
    3260:	40 91 50 38 	lds	r20, 0x3850	; 0x803850 <inventory+0x2>
    3264:	50 91 51 38 	lds	r21, 0x3851	; 0x803851 <inventory+0x3>
    3268:	84 17       	cp	r24, r20
    326a:	95 07       	cpc	r25, r21
    326c:	c1 f4       	brne	.+48     	; 0x329e <ProcessInput+0x620>
    return 0;
}

//
void SetResponse(uint8_t number, uint16_t address, uint16_t length, uint8_t type){
    reactStr[0][number]=address;
    326e:	82 ee       	ldi	r24, 0xE2	; 226
    3270:	97 e7       	ldi	r25, 0x77	; 119
    3272:	80 93 2f 39 	sts	0x392F, r24	; 0x80392f <reactStr+0x2>
    3276:	90 93 30 39 	sts	0x3930, r25	; 0x803930 <reactStr+0x3>
    reactStr[1][number]=length;
    327a:	85 e2       	ldi	r24, 0x25	; 37
    327c:	90 e0       	ldi	r25, 0x00	; 0
    327e:	80 93 6f 39 	sts	0x396F, r24	; 0x80396f <reactStr+0x42>
    3282:	90 93 70 39 	sts	0x3970, r25	; 0x803970 <reactStr+0x43>
    reactStr[2][number]=type;
    3286:	81 e0       	ldi	r24, 0x01	; 1
    3288:	90 e0       	ldi	r25, 0x00	; 0
    328a:	80 93 af 39 	sts	0x39AF, r24	; 0x8039af <reactStr+0x82>
    328e:	90 93 b0 39 	sts	0x39B0, r25	; 0x8039b0 <reactStr+0x83>
            } else {
                route[currDepth+1] = FindChild(route[currDepth], data[1], 0);
                if (route[currDepth+1]) {
                    if ((route[currDepth+1] == inventory[0])||(route[currDepth+1] == inventory[1])) {
                        SetResponse(elements++, A_ALREADYCARRYING, L_ALREADYCARRYING, TEASER);
                        route[currDepth+1] = 0;
    3292:	f9 01       	movw	r30, r18
    3294:	e3 51       	subi	r30, 0x13	; 19
    3296:	f6 4c       	sbci	r31, 0xC6	; 198
    3298:	10 82       	st	Z, r1
    329a:	11 82       	std	Z+1, r1	; 0x01
                    } else {
                        //Put item in the inventory if possible
                        PopulateObject(route[currDepth+1], &actObj1);  
    329c:	c2 cd       	rjmp	.-1148   	; 0x2e22 <ProcessInput+0x1a4>
    329e:	6c ee       	ldi	r22, 0xEC	; 236
    32a0:	78 e3       	ldi	r23, 0x38	; 56
    32a2:	ab d8       	rcall	.-3754   	; 0x23fa <PopulateObject>
                        if (CheckState(actObj1.byteField[ACTION_ACL])) {
    32a4:	80 91 f3 38 	lds	r24, 0x38F3	; 0x8038f3 <actObj1.3956+0x7>
    32a8:	0e 94 6a 09 	call	0x12d4	; 0x12d4 <CheckState>
    32ac:	88 23       	and	r24, r24
    32ae:	09 f4       	brne	.+2      	; 0x32b2 <ProcessInput+0x634>
    32b0:	e3 c2       	rjmp	.+1478   	; 0x3878 <ProcessInput+0xbfa>
                            if (actObj1.byteField[ITEM_NR]) {
    32b2:	80 91 f7 38 	lds	r24, 0x38F7	; 0x8038f7 <actObj1.3956+0xb>
    32b6:	88 23       	and	r24, r24
    32b8:	09 f4       	brne	.+2      	; 0x32bc <ProcessInput+0x63e>
    32ba:	14 cd       	rjmp	.-1496   	; 0x2ce4 <ProcessInput+0x66>
                                if (inventory[0]) {
    32bc:	80 91 4e 38 	lds	r24, 0x384E	; 0x80384e <inventory>
    32c0:	90 91 4f 38 	lds	r25, 0x384F	; 0x80384f <inventory+0x1>
    32c4:	e0 91 3e 38 	lds	r30, 0x383E	; 0x80383e <currDepth>
                                    inventory[1] = route[currDepth+1];
    32c8:	f0 e0       	ldi	r31, 0x00	; 0
    32ca:	ee 0f       	add	r30, r30
    32cc:	ff 1f       	adc	r31, r31
    32ce:	e1 51       	subi	r30, 0x11	; 17
    32d0:	f6 4c       	sbci	r31, 0xC6	; 198
                    } else {
                        //Put item in the inventory if possible
                        PopulateObject(route[currDepth+1], &actObj1);  
                        if (CheckState(actObj1.byteField[ACTION_ACL])) {
                            if (actObj1.byteField[ITEM_NR]) {
                                if (inventory[0]) {
    32d2:	89 2b       	or	r24, r25
    32d4:	39 f0       	breq	.+14     	; 0x32e4 <ProcessInput+0x666>
                                    inventory[1] = route[currDepth+1];
    32d6:	80 81       	ld	r24, Z
    32d8:	91 81       	ldd	r25, Z+1	; 0x01
    32da:	80 93 50 38 	sts	0x3850, r24	; 0x803850 <inventory+0x2>
    32de:	90 93 51 38 	sts	0x3851, r25	; 0x803851 <inventory+0x3>
    32e2:	06 c0       	rjmp	.+12     	; 0x32f0 <ProcessInput+0x672>
                                } else {
                                    inventory[0] = route[currDepth+1];
    32e4:	80 81       	ld	r24, Z
    32e6:	91 81       	ldd	r25, Z+1	; 0x01
    32e8:	80 93 4e 38 	sts	0x384E, r24	; 0x80384e <inventory>
    32ec:	90 93 4f 38 	sts	0x384F, r25	; 0x80384f <inventory+0x1>
                                }
                                UpdateState(actObj1.byteField[ACTION_STATE]);
    32f0:	80 91 f6 38 	lds	r24, 0x38F6	; 0x8038f6 <actObj1.3956+0xa>
    32f4:	0e 94 49 09 	call	0x1292	; 0x1292 <UpdateState>
    32f8:	2b c0       	rjmp	.+86     	; 0x3350 <ProcessInput+0x6d2>
                } else SetResponse(elements++, A_NOSUCHOBJECT, L_NOSUCHOBJECT, TEASER);
            }
        } else

        //Drop item if in inventory
        if (data[0] == 'd') {
    32fa:	84 36       	cpi	r24, 0x64	; 100
    32fc:	d9 f4       	brne	.+54     	; 0x3334 <ProcessInput+0x6b6>
            if ((inventory[0] == 0)&&(inventory[1] == 0)){
    32fe:	80 91 4e 38 	lds	r24, 0x384E	; 0x80384e <inventory>
    3302:	90 91 4f 38 	lds	r25, 0x384F	; 0x80384f <inventory+0x1>
    3306:	00 97       	sbiw	r24, 0x00	; 0
    3308:	09 f0       	breq	.+2      	; 0x330c <ProcessInput+0x68e>
    330a:	3c c4       	rjmp	.+2168   	; 0x3b84 <ProcessInput+0xf06>
    330c:	80 91 50 38 	lds	r24, 0x3850	; 0x803850 <inventory+0x2>
    3310:	90 91 51 38 	lds	r25, 0x3851	; 0x803851 <inventory+0x3>
    3314:	89 2b       	or	r24, r25
    3316:	49 f4       	brne	.+18     	; 0x332a <ProcessInput+0x6ac>
    return 0;
}

//
void SetResponse(uint8_t number, uint16_t address, uint16_t length, uint8_t type){
    reactStr[0][number]=address;
    3318:	86 ea       	ldi	r24, 0xA6	; 166
    331a:	97 e7       	ldi	r25, 0x77	; 119
    331c:	80 93 2f 39 	sts	0x392F, r24	; 0x80392f <reactStr+0x2>
    3320:	90 93 30 39 	sts	0x3930, r25	; 0x803930 <reactStr+0x3>
    reactStr[1][number]=length;
    3324:	86 e2       	ldi	r24, 0x26	; 38
    3326:	90 e0       	ldi	r25, 0x00	; 0
    3328:	72 cd       	rjmp	.-1308   	; 0x2e0e <ProcessInput+0x190>

        //Drop item if in inventory
        if (data[0] == 'd') {
            if ((inventory[0] == 0)&&(inventory[1] == 0)){
                SetResponse(elements++, A_EMPTYHANDS, L_EMPTYHANDS, TEASER);
            } else if (inputLen != 2) {
    332a:	b2 e0       	ldi	r27, 0x02	; 2
    332c:	fb 16       	cp	r15, r27
    332e:	09 f4       	brne	.+2      	; 0x3332 <ProcessInput+0x6b4>
    3330:	8b c4       	rjmp	.+2326   	; 0x3c48 <ProcessInput+0xfca>
    3332:	d8 cc       	rjmp	.-1616   	; 0x2ce4 <ProcessInput+0x66>
                }
            }
        } 

        //Inventory list
        else if (data[0] == 'i') {
    3334:	89 36       	cpi	r24, 0x69	; 105
            if ((inventory[0] == 0)&&(inventory[1] == 0)){
    3336:	81 f4       	brne	.+32     	; 0x3358 <ProcessInput+0x6da>
    3338:	80 91 4e 38 	lds	r24, 0x384E	; 0x80384e <inventory>
    333c:	90 91 4f 38 	lds	r25, 0x384F	; 0x80384f <inventory+0x1>
    3340:	89 2b       	or	r24, r25
    3342:	31 f4       	brne	.+12     	; 0x3350 <ProcessInput+0x6d2>
    3344:	80 91 50 38 	lds	r24, 0x3850	; 0x803850 <inventory+0x2>
    3348:	90 91 51 38 	lds	r25, 0x3851	; 0x803851 <inventory+0x3>
    334c:	89 2b       	or	r24, r25
                SetResponse(elements++, A_EMPTYHANDS, L_EMPTYHANDS, TEASER);
                } else {
                    elements = ShowInventory(elements);
    334e:	21 f3       	breq	.-56     	; 0x3318 <ProcessInput+0x69a>
    3350:	81 e0       	ldi	r24, 0x01	; 1
    3352:	1a dc       	rcall	.-1996   	; 0x2b88 <ShowInventory>
    3354:	18 2f       	mov	r17, r24
    3356:	fe c3       	rjmp	.+2044   	; 0x3b54 <ProcessInput+0xed6>
                }        
        
        //Talk, use, give, read
        } else if ((data[0] == 't')||(data[0] == 'u')||(data[0] == 'g')||(data[0] == 'r')) {
    3358:	9c e8       	ldi	r25, 0x8C	; 140
    335a:	98 0f       	add	r25, r24
    335c:	92 30       	cpi	r25, 0x02	; 2
    335e:	28 f0       	brcs	.+10     	; 0x336a <ProcessInput+0x6ec>
    3360:	87 36       	cpi	r24, 0x67	; 103
    3362:	19 f0       	breq	.+6      	; 0x336a <ProcessInput+0x6ec>
    3364:	82 37       	cpi	r24, 0x72	; 114
    3366:	09 f0       	breq	.+2      	; 0x336a <ProcessInput+0x6ec>
    3368:	b5 c2       	rjmp	.+1386   	; 0x38d4 <ProcessInput+0xc56>
            if ((inputLen<2)||(inputLen>3)) {
    336a:	8e ef       	ldi	r24, 0xFE	; 254
    336c:	8f 0d       	add	r24, r15
    336e:	82 30       	cpi	r24, 0x02	; 2
    3370:	08 f0       	brcs	.+2      	; 0x3374 <ProcessInput+0x6f6>
    3372:	b8 cc       	rjmp	.-1680   	; 0x2ce4 <ProcessInput+0x66>
                SetResponse(elements++, A_NOTPOSSIBLE, L_NOTPOSSIBLE, TEASER);                
            
            //Check for visible person or object first
            } else {
                route[currDepth+1] = FindChild(route[currDepth], data[inputLen-1], 0);
    3374:	e0 91 3e 38 	lds	r30, 0x383E	; 0x80383e <currDepth>
    3378:	0e 2f       	mov	r16, r30
    337a:	10 e0       	ldi	r17, 0x00	; 0
    337c:	d3 01       	movw	r26, r6
    337e:	af 0d       	add	r26, r15
    3380:	b1 1d       	adc	r27, r1
    3382:	11 97       	sbiw	r26, 0x01	; 1
    3384:	f8 01       	movw	r30, r16
    3386:	ee 0f       	add	r30, r30
    3388:	ff 1f       	adc	r31, r31
    338a:	e3 51       	subi	r30, 0x13	; 19
    338c:	f6 4c       	sbci	r31, 0xC6	; 198
    338e:	40 e0       	ldi	r20, 0x00	; 0
    3390:	50 e0       	ldi	r21, 0x00	; 0
    3392:	6c 91       	ld	r22, X
    3394:	80 81       	ld	r24, Z
    3396:	91 81       	ldd	r25, Z+1	; 0x01
    3398:	f0 d8       	rcall	.-3616   	; 0x257a <FindChild>
    339a:	f8 01       	movw	r30, r16
    339c:	ee 0f       	add	r30, r30
    339e:	ff 1f       	adc	r31, r31
    33a0:	e1 51       	subi	r30, 0x11	; 17
    33a2:	f6 4c       	sbci	r31, 0xC6	; 198
    33a4:	80 83       	st	Z, r24
    33a6:	91 83       	std	Z+1, r25	; 0x01
                if (route[currDepth+1]) {
    33a8:	e0 91 3e 38 	lds	r30, 0x383E	; 0x80383e <currDepth>
    33ac:	f0 e0       	ldi	r31, 0x00	; 0
    33ae:	ee 0f       	add	r30, r30
    33b0:	ff 1f       	adc	r31, r31
    33b2:	e1 51       	subi	r30, 0x11	; 17
    33b4:	f6 4c       	sbci	r31, 0xC6	; 198
    33b6:	80 81       	ld	r24, Z
    33b8:	91 81       	ldd	r25, Z+1	; 0x01
    33ba:	00 97       	sbiw	r24, 0x00	; 0
    33bc:	09 f4       	brne	.+2      	; 0x33c0 <ProcessInput+0x742>
    33be:	78 c2       	rjmp	.+1264   	; 0x38b0 <ProcessInput+0xc32>
                    
                    //Give item to person / use item on object 
                    if ((inputLen == 3)&&((data[0] == 'u')||(data[0] == 'g'))) {
    33c0:	f3 e0       	ldi	r31, 0x03	; 3
    33c2:	ff 12       	cpse	r15, r31
    33c4:	60 c1       	rjmp	.+704    	; 0x3686 <ProcessInput+0xa08>
    33c6:	d3 01       	movw	r26, r6
    33c8:	2c 91       	ld	r18, X
    33ca:	25 37       	cpi	r18, 0x75	; 117
    33cc:	19 f0       	breq	.+6      	; 0x33d4 <ProcessInput+0x756>
    33ce:	27 36       	cpi	r18, 0x67	; 103
    33d0:	09 f0       	breq	.+2      	; 0x33d4 <ProcessInput+0x756>
    33d2:	59 c1       	rjmp	.+690    	; 0x3686 <ProcessInput+0xa08>
    33d4:	00 e0       	ldi	r16, 0x00	; 0
    33d6:	11 e0       	ldi	r17, 0x01	; 1
    return 0;
}

//
void SetResponse(uint8_t number, uint16_t address, uint16_t length, uint8_t type){
    reactStr[0][number]=address;
    33d8:	41 e6       	ldi	r20, 0x61	; 97
    33da:	c4 2e       	mov	r12, r20
    33dc:	49 e7       	ldi	r20, 0x79	; 121
    33de:	d4 2e       	mov	r13, r20
    reactStr[1][number]=length;
    33e0:	51 e2       	ldi	r21, 0x21	; 33
    33e2:	a5 2e       	mov	r10, r21
    33e4:	b1 2c       	mov	r11, r1
    reactStr[2][number]=type;
    33e6:	88 24       	eor	r8, r8
    33e8:	83 94       	inc	r8
                if (route[currDepth+1]) {
                    
                    //Give item to person / use item on object 
                    if ((inputLen == 3)&&((data[0] == 'u')||(data[0] == 'g'))) {
                        for (uint8_t x=0; x<2; ++x) {
                            if (inventory[x]) { 
    33ea:	91 2c       	mov	r9, r1
    33ec:	e0 2e       	mov	r14, r16
    33ee:	f1 2c       	mov	r15, r1
    33f0:	c7 01       	movw	r24, r14
    33f2:	88 0f       	add	r24, r24
    33f4:	99 1f       	adc	r25, r25
    33f6:	fc 01       	movw	r30, r24
    33f8:	e2 5b       	subi	r30, 0xB2	; 178
    33fa:	f7 4c       	sbci	r31, 0xC7	; 199
    33fc:	7f 01       	movw	r14, r30
    33fe:	80 81       	ld	r24, Z
    3400:	91 81       	ldd	r25, Z+1	; 0x01
    3402:	00 97       	sbiw	r24, 0x00	; 0
                                if (CheckLetter(inventory[x], data[1])) {
    3404:	79 f0       	breq	.+30     	; 0x3424 <ProcessInput+0x7a6>
    3406:	d3 01       	movw	r26, r6
    3408:	11 96       	adiw	r26, 0x01	; 1
    340a:	6c 91       	ld	r22, X
    340c:	6f d8       	rcall	.-3874   	; 0x24ec <CheckLetter>
    340e:	88 23       	and	r24, r24
    3410:	49 f0       	breq	.+18     	; 0x3424 <ProcessInput+0x7a6>
                                    PopulateObject(inventory[x], &actObj2);
    3412:	61 ec       	ldi	r22, 0xC1	; 193
    3414:	78 e3       	ldi	r23, 0x38	; 56
    3416:	f7 01       	movw	r30, r14
    3418:	80 81       	ld	r24, Z
    341a:	91 81       	ldd	r25, Z+1	; 0x01
    341c:	0e 94 fd 11 	call	0x23fa	; 0x23fa <PopulateObject>
                                    x = 2;
    3420:	02 e0       	ldi	r16, 0x02	; 2
    3422:	1d c0       	rjmp	.+58     	; 0x345e <ProcessInput+0x7e0>
                                }
                            }
                            if (x == 1) { 
    3424:	01 30       	cpi	r16, 0x01	; 1
    3426:	d1 f4       	brne	.+52     	; 0x345c <ProcessInput+0x7de>
    return 0;
}

//
void SetResponse(uint8_t number, uint16_t address, uint16_t length, uint8_t type){
    reactStr[0][number]=address;
    3428:	e1 2f       	mov	r30, r17
    342a:	f0 e0       	ldi	r31, 0x00	; 0
    342c:	df 01       	movw	r26, r30
    342e:	aa 0f       	add	r26, r26
    3430:	bb 1f       	adc	r27, r27
    3432:	a3 5d       	subi	r26, 0xD3	; 211
    3434:	b6 4c       	sbci	r27, 0xC6	; 198
    3436:	cd 92       	st	X+, r12
    3438:	dc 92       	st	X, r13
    reactStr[1][number]=length;
    343a:	df 01       	movw	r26, r30
    343c:	aa 0f       	add	r26, r26
    343e:	bb 1f       	adc	r27, r27
    3440:	a3 59       	subi	r26, 0x93	; 147
    3442:	b6 4c       	sbci	r27, 0xC6	; 198
    3444:	ad 92       	st	X+, r10
    3446:	bc 92       	st	X, r11
    reactStr[2][number]=type;
    3448:	ee 0f       	add	r30, r30
    344a:	ff 1f       	adc	r31, r31
    344c:	e3 55       	subi	r30, 0x53	; 83
    344e:	f6 4c       	sbci	r31, 0xC6	; 198
    3450:	80 82       	st	Z, r8
    3452:	91 82       	std	Z+1, r9	; 0x01
                                    x = 2;
                                }
                            }
                            if (x == 1) { 
                                SetResponse(elements++, A_NOTCARRYING, L_NOTCARRYING, TEASER);
                                data[0] = 0;
    3454:	d3 01       	movw	r26, r6
    3456:	1c 92       	st	X, r1
                                    PopulateObject(inventory[x], &actObj2);
                                    x = 2;
                                }
                            }
                            if (x == 1) { 
                                SetResponse(elements++, A_NOTCARRYING, L_NOTCARRYING, TEASER);
    3458:	1f 5f       	subi	r17, 0xFF	; 255
    345a:	01 c0       	rjmp	.+2      	; 0x345e <ProcessInput+0x7e0>
    345c:	00 e0       	ldi	r16, 0x00	; 0
                route[currDepth+1] = FindChild(route[currDepth], data[inputLen-1], 0);
                if (route[currDepth+1]) {
                    
                    //Give item to person / use item on object 
                    if ((inputLen == 3)&&((data[0] == 'u')||(data[0] == 'g'))) {
                        for (uint8_t x=0; x<2; ++x) {
    345e:	0f 5f       	subi	r16, 0xFF	; 255
    3460:	01 30       	cpi	r16, 0x01	; 1
    3462:	21 f2       	breq	.-120    	; 0x33ec <ProcessInput+0x76e>
                                data[0] = 0;
                            }
                        }

                        //Both the item and person/object are found, check if action is legit
                        if (data[0]){
    3464:	f3 01       	movw	r30, r6
    3466:	80 81       	ld	r24, Z
    3468:	88 23       	and	r24, r24
    346a:	09 f4       	brne	.+2      	; 0x346e <ProcessInput+0x7f0>
    346c:	73 c3       	rjmp	.+1766   	; 0x3b54 <ProcessInput+0xed6>
                            PopulateObject(route[currDepth+1], &actObj1);
    346e:	e0 91 3e 38 	lds	r30, 0x383E	; 0x80383e <currDepth>
    3472:	f0 e0       	ldi	r31, 0x00	; 0
    3474:	ee 0f       	add	r30, r30
    3476:	ff 1f       	adc	r31, r31
    3478:	e1 51       	subi	r30, 0x11	; 17
    347a:	f6 4c       	sbci	r31, 0xC6	; 198
    347c:	6c ee       	ldi	r22, 0xEC	; 236
    347e:	78 e3       	ldi	r23, 0x38	; 56
    3480:	80 81       	ld	r24, Z
    3482:	91 81       	ldd	r25, Z+1	; 0x01
    3484:	0e 94 fd 11 	call	0x23fa	; 0x23fa <PopulateObject>

                            //Special game
                            if (actObj1.lenStr[ACTION_STR1] == 1) {
    3488:	e0 90 0a 39 	lds	r14, 0x390A	; 0x80390a <actObj1.3956+0x1e>
    348c:	f0 90 0b 39 	lds	r15, 0x390B	; 0x80390b <actObj1.3956+0x1f>
    3490:	f1 e0       	ldi	r31, 0x01	; 1
    3492:	ef 16       	cp	r14, r31
    3494:	f1 04       	cpc	r15, r1
    3496:	09 f0       	breq	.+2      	; 0x349a <ProcessInput+0x81c>
    3498:	89 c0       	rjmp	.+274    	; 0x35ac <ProcessInput+0x92e>
                                ExtEERead(actObj1.addrStr[ACTION_STR1], 1, GAME, &data[2]);
    349a:	93 01       	movw	r18, r6
    349c:	2e 5f       	subi	r18, 0xFE	; 254
    349e:	3f 4f       	sbci	r19, 0xFF	; 255
    34a0:	40 e0       	ldi	r20, 0x00	; 0
    34a2:	61 e0       	ldi	r22, 0x01	; 1
    34a4:	80 91 fc 38 	lds	r24, 0x38FC	; 0x8038fc <actObj1.3956+0x10>
    34a8:	90 91 fd 38 	lds	r25, 0x38FD	; 0x8038fd <actObj1.3956+0x11>
    34ac:	0e 94 b3 07 	call	0xf66	; 0xf66 <ExtEERead>
                                if (data[2] == '1') {
    34b0:	d3 01       	movw	r26, r6
    34b2:	12 96       	adiw	r26, 0x02	; 2
    34b4:	3c 91       	ld	r19, X
    34b6:	31 33       	cpi	r19, 0x31	; 49
    34b8:	09 f0       	breq	.+2      	; 0x34bc <ProcessInput+0x83e>
    34ba:	4c c3       	rjmp	.+1688   	; 0x3b54 <ProcessInput+0xed6>
                                    uint8_t item = actObj2.byteField[ITEM_NR];
    34bc:	20 91 cc 38 	lds	r18, 0x38CC	; 0x8038cc <actObj2.3957+0xb>
                                    if ((item < 31)||(item > 34)) {
    34c0:	51 ee       	ldi	r21, 0xE1	; 225
    34c2:	52 0f       	add	r21, r18
    34c4:	41 e0       	ldi	r20, 0x01	; 1
    34c6:	41 0f       	add	r20, r17
    34c8:	81 2f       	mov	r24, r17
    34ca:	90 e0       	ldi	r25, 0x00	; 0
    return 0;
}

//
void SetResponse(uint8_t number, uint16_t address, uint16_t length, uint8_t type){
    reactStr[0][number]=address;
    34cc:	fc 01       	movw	r30, r24
    34ce:	ee 0f       	add	r30, r30
    34d0:	ff 1f       	adc	r31, r31
    34d2:	e3 5d       	subi	r30, 0xD3	; 211
    34d4:	f6 4c       	sbci	r31, 0xC6	; 198
                            //Special game
                            if (actObj1.lenStr[ACTION_STR1] == 1) {
                                ExtEERead(actObj1.addrStr[ACTION_STR1], 1, GAME, &data[2]);
                                if (data[2] == '1') {
                                    uint8_t item = actObj2.byteField[ITEM_NR];
                                    if ((item < 31)||(item > 34)) {
    34d6:	54 30       	cpi	r21, 0x04	; 4
    34d8:	b0 f0       	brcs	.+44     	; 0x3506 <ProcessInput+0x888>
    return 0;
}

//
void SetResponse(uint8_t number, uint16_t address, uint16_t length, uint8_t type){
    reactStr[0][number]=address;
    34da:	21 e0       	ldi	r18, 0x01	; 1
    34dc:	39 e7       	ldi	r19, 0x79	; 121
    34de:	20 83       	st	Z, r18
    34e0:	31 83       	std	Z+1, r19	; 0x01
    reactStr[1][number]=length;
    34e2:	fc 01       	movw	r30, r24
    34e4:	ee 0f       	add	r30, r30
    34e6:	ff 1f       	adc	r31, r31
    34e8:	e3 59       	subi	r30, 0x93	; 147
    34ea:	f6 4c       	sbci	r31, 0xC6	; 198
    34ec:	2a e1       	ldi	r18, 0x1A	; 26
    34ee:	30 e0       	ldi	r19, 0x00	; 0
    34f0:	20 83       	st	Z, r18
    34f2:	31 83       	std	Z+1, r19	; 0x01
    reactStr[2][number]=type;
    34f4:	88 0f       	add	r24, r24
    34f6:	99 1f       	adc	r25, r25
    34f8:	fc 01       	movw	r30, r24
    34fa:	e3 55       	subi	r30, 0x53	; 83
    34fc:	f6 4c       	sbci	r31, 0xC6	; 198
    34fe:	e0 82       	st	Z, r14
    3500:	f1 82       	std	Z+1, r15	; 0x01
                            if (actObj1.lenStr[ACTION_STR1] == 1) {
                                ExtEERead(actObj1.addrStr[ACTION_STR1], 1, GAME, &data[2]);
                                if (data[2] == '1') {
                                    uint8_t item = actObj2.byteField[ITEM_NR];
                                    if ((item < 31)||(item > 34)) {
                                        SetResponse(elements++, A_CANTUSE, L_CANTUSE, TEASER);
    3502:	14 2f       	mov	r17, r20
    3504:	27 c3       	rjmp	.+1614   	; 0x3b54 <ProcessInput+0xed6>
    return 0;
}

//
void SetResponse(uint8_t number, uint16_t address, uint16_t length, uint8_t type){
    reactStr[0][number]=address;
    3506:	60 e5       	ldi	r22, 0x50	; 80
    3508:	75 e7       	ldi	r23, 0x75	; 117
    350a:	60 83       	st	Z, r22
    350c:	71 83       	std	Z+1, r23	; 0x01
    reactStr[1][number]=length;
    350e:	fc 01       	movw	r30, r24
    3510:	ee 0f       	add	r30, r30
    3512:	ff 1f       	adc	r31, r31
    3514:	e3 59       	subi	r30, 0x93	; 147
    3516:	f6 4c       	sbci	r31, 0xC6	; 198
    3518:	62 eb       	ldi	r22, 0xB2	; 178
    351a:	70 e0       	ldi	r23, 0x00	; 0
    351c:	60 83       	st	Z, r22
    351e:	71 83       	std	Z+1, r23	; 0x01
    reactStr[2][number]=type;
    3520:	88 0f       	add	r24, r24
    3522:	99 1f       	adc	r25, r25
    3524:	fc 01       	movw	r30, r24
    3526:	e3 55       	subi	r30, 0x53	; 83
    3528:	f6 4c       	sbci	r31, 0xC6	; 198
    352a:	e0 82       	st	Z, r14
    352c:	f1 82       	std	Z+1, r15	; 0x01
    return 0;
}

//
void SetResponse(uint8_t number, uint16_t address, uint16_t length, uint8_t type){
    reactStr[0][number]=address;
    352e:	84 2f       	mov	r24, r20
    3530:	90 e0       	ldi	r25, 0x00	; 0
    3532:	fc 01       	movw	r30, r24
    3534:	ee 0f       	add	r30, r30
    3536:	ff 1f       	adc	r31, r31
    3538:	e3 5d       	subi	r30, 0xD3	; 211
    353a:	f6 4c       	sbci	r31, 0xC6	; 198
    353c:	49 e5       	ldi	r20, 0x59	; 89
    353e:	5a e7       	ldi	r21, 0x7A	; 122
    3540:	40 83       	st	Z, r20
    3542:	51 83       	std	Z+1, r21	; 0x01
    reactStr[1][number]=length;
    3544:	fc 01       	movw	r30, r24
    3546:	ee 0f       	add	r30, r30
    3548:	ff 1f       	adc	r31, r31
    354a:	e3 59       	subi	r30, 0x93	; 147
    354c:	f6 4c       	sbci	r31, 0xC6	; 198
    354e:	42 e0       	ldi	r20, 0x02	; 2
    3550:	50 e0       	ldi	r21, 0x00	; 0
    3552:	40 83       	st	Z, r20
    3554:	51 83       	std	Z+1, r21	; 0x01
    reactStr[2][number]=type;
    3556:	88 0f       	add	r24, r24
    3558:	99 1f       	adc	r25, r25
    355a:	fc 01       	movw	r30, r24
    355c:	e3 55       	subi	r30, 0x53	; 83
    355e:	f6 4c       	sbci	r31, 0xC6	; 198
    3560:	e0 82       	st	Z, r14
    3562:	f1 82       	std	Z+1, r15	; 0x01
    return 0;
}

//
void SetResponse(uint8_t number, uint16_t address, uint16_t length, uint8_t type){
    reactStr[0][number]=address;
    3564:	82 e0       	ldi	r24, 0x02	; 2
    3566:	81 0f       	add	r24, r17
    3568:	90 e0       	ldi	r25, 0x00	; 0
    356a:	1d 5f       	subi	r17, 0xFD	; 253
    356c:	fc 01       	movw	r30, r24
    356e:	ee 0f       	add	r30, r30
    3570:	ff 1f       	adc	r31, r31
    3572:	e3 5d       	subi	r30, 0xD3	; 211
    3574:	f6 4c       	sbci	r31, 0xC6	; 198
    3576:	4d ea       	ldi	r20, 0xAD	; 173
    3578:	58 e7       	ldi	r21, 0x78	; 120
    357a:	40 83       	st	Z, r20
    357c:	51 83       	std	Z+1, r21	; 0x01
    reactStr[1][number]=length;
    357e:	fc 01       	movw	r30, r24
    3580:	ee 0f       	add	r30, r30
    3582:	ff 1f       	adc	r31, r31
    3584:	e3 59       	subi	r30, 0x93	; 147
    3586:	f6 4c       	sbci	r31, 0xC6	; 198
    3588:	42 e1       	ldi	r20, 0x12	; 18
    358a:	50 e0       	ldi	r21, 0x00	; 0
    358c:	40 83       	st	Z, r20
    358e:	51 83       	std	Z+1, r21	; 0x01
    reactStr[2][number]=type;
    3590:	88 0f       	add	r24, r24
    3592:	99 1f       	adc	r25, r25
    3594:	fc 01       	movw	r30, r24
    3596:	e3 55       	subi	r30, 0x53	; 83
    3598:	f6 4c       	sbci	r31, 0xC6	; 198
    359a:	e0 82       	st	Z, r14
    359c:	f1 82       	std	Z+1, r15	; 0x01
                                        SetResponse(elements++, A_CANTUSE, L_CANTUSE, TEASER);
                                    } else {
                                        SetResponse(elements++, A_PRIEST, L_PRIEST, TEASER);
                                        SetResponse(elements++, A_LF, 2, TEASER);
                                        SetResponse(elements++, A_RESPONSE, L_RESPONSE, TEASER);
                                        specialInput[0] = '1';
    359e:	30 93 1c 39 	sts	0x391C, r19	; 0x80391c <specialInput>
                                        specialInput[1] = item;
    35a2:	20 93 1d 39 	sts	0x391D, r18	; 0x80391d <specialInput+0x1>
                                        specialInput[2] = 0;
    35a6:	10 92 1e 39 	sts	0x391E, r1	; 0x80391e <specialInput+0x2>
    35aa:	d4 c2       	rjmp	.+1448   	; 0x3b54 <ProcessInput+0xed6>
                                    }
                                }

                            //Normal "use ... on ..." or "give ... to ..." action
                            } else if (actObj1.byteField[ACTION_ITEM] == actObj2.byteField[ITEM_NR]) {
    35ac:	90 91 f5 38 	lds	r25, 0x38F5	; 0x8038f5 <actObj1.3956+0x9>
    35b0:	80 91 cc 38 	lds	r24, 0x38CC	; 0x8038cc <actObj2.3957+0xb>
    35b4:	98 13       	cpse	r25, r24
    35b6:	2e c0       	rjmp	.+92     	; 0x3614 <ProcessInput+0x996>
                                SetResponse(elements++, actObj1.addrStr[ACTION_MSG], actObj1.lenStr[ACTION_MSG], GAME);
    35b8:	20 91 12 39 	lds	r18, 0x3912	; 0x803912 <actObj1.3956+0x26>
    35bc:	30 91 13 39 	lds	r19, 0x3913	; 0x803913 <actObj1.3956+0x27>
    35c0:	01 e0       	ldi	r16, 0x01	; 1
    35c2:	01 0f       	add	r16, r17
    return 0;
}

//
void SetResponse(uint8_t number, uint16_t address, uint16_t length, uint8_t type){
    reactStr[0][number]=address;
    35c4:	81 2f       	mov	r24, r17
    35c6:	90 e0       	ldi	r25, 0x00	; 0
    35c8:	fc 01       	movw	r30, r24
    35ca:	ee 0f       	add	r30, r30
    35cc:	ff 1f       	adc	r31, r31
    35ce:	e3 5d       	subi	r30, 0xD3	; 211
    35d0:	f6 4c       	sbci	r31, 0xC6	; 198
    35d2:	40 91 04 39 	lds	r20, 0x3904	; 0x803904 <actObj1.3956+0x18>
    35d6:	50 91 05 39 	lds	r21, 0x3905	; 0x803905 <actObj1.3956+0x19>
    35da:	40 83       	st	Z, r20
    35dc:	51 83       	std	Z+1, r21	; 0x01
    reactStr[1][number]=length;
    35de:	fc 01       	movw	r30, r24
    35e0:	ee 0f       	add	r30, r30
    35e2:	ff 1f       	adc	r31, r31
    35e4:	e3 59       	subi	r30, 0x93	; 147
    35e6:	f6 4c       	sbci	r31, 0xC6	; 198
    35e8:	20 83       	st	Z, r18
    35ea:	31 83       	std	Z+1, r19	; 0x01
    reactStr[2][number]=type;
    35ec:	88 0f       	add	r24, r24
    35ee:	99 1f       	adc	r25, r25
    35f0:	fc 01       	movw	r30, r24
    35f2:	e3 55       	subi	r30, 0x53	; 83
    35f4:	f6 4c       	sbci	r31, 0xC6	; 198
    35f6:	10 82       	st	Z, r1
    35f8:	11 82       	std	Z+1, r1	; 0x01
                                }

                            //Normal "use ... on ..." or "give ... to ..." action
                            } else if (actObj1.byteField[ACTION_ITEM] == actObj2.byteField[ITEM_NR]) {
                                SetResponse(elements++, actObj1.addrStr[ACTION_MSG], actObj1.lenStr[ACTION_MSG], GAME);
                                effect = actObj1.effect[2];
    35fa:	80 91 16 39 	lds	r24, 0x3916	; 0x803916 <actObj1.3956+0x2a>
    35fe:	90 e0       	ldi	r25, 0x00	; 0
    3600:	80 93 4a 38 	sts	0x384A, r24	; 0x80384a <effect>
    3604:	90 93 4b 38 	sts	0x384B, r25	; 0x80384b <effect+0x1>
                                UpdateState(actObj1.byteField[ACTION_STATE]);
    3608:	80 91 f6 38 	lds	r24, 0x38F6	; 0x8038f6 <actObj1.3956+0xa>
    360c:	0e 94 49 09 	call	0x1292	; 0x1292 <UpdateState>
                                    }
                                }

                            //Normal "use ... on ..." or "give ... to ..." action
                            } else if (actObj1.byteField[ACTION_ITEM] == actObj2.byteField[ITEM_NR]) {
                                SetResponse(elements++, actObj1.addrStr[ACTION_MSG], actObj1.lenStr[ACTION_MSG], GAME);
    3610:	10 2f       	mov	r17, r16
    3612:	a0 c2       	rjmp	.+1344   	; 0x3b54 <ProcessInput+0xed6>
                                effect = actObj1.effect[2];
                                UpdateState(actObj1.byteField[ACTION_STATE]);
                                
                            } else {
                                if (data[0] == 'u') {
    3614:	f3 01       	movw	r30, r6
    3616:	80 81       	ld	r24, Z
    3618:	85 37       	cpi	r24, 0x75	; 117
    361a:	99 f4       	brne	.+38     	; 0x3642 <ProcessInput+0x9c4>
    return 0;
}

//
void SetResponse(uint8_t number, uint16_t address, uint16_t length, uint8_t type){
    reactStr[0][number]=address;
    361c:	81 2f       	mov	r24, r17
    361e:	90 e0       	ldi	r25, 0x00	; 0
    3620:	fc 01       	movw	r30, r24
    3622:	ee 0f       	add	r30, r30
    3624:	ff 1f       	adc	r31, r31
    3626:	e3 5d       	subi	r30, 0xD3	; 211
    3628:	f6 4c       	sbci	r31, 0xC6	; 198
    362a:	21 e0       	ldi	r18, 0x01	; 1
    362c:	39 e7       	ldi	r19, 0x79	; 121
    362e:	20 83       	st	Z, r18
    3630:	31 83       	std	Z+1, r19	; 0x01
    reactStr[1][number]=length;
    3632:	fc 01       	movw	r30, r24
    3634:	ee 0f       	add	r30, r30
    3636:	ff 1f       	adc	r31, r31
    3638:	e3 59       	subi	r30, 0x93	; 147
    363a:	f6 4c       	sbci	r31, 0xC6	; 198
    363c:	2a e1       	ldi	r18, 0x1A	; 26
    363e:	30 e0       	ldi	r19, 0x00	; 0
    3640:	15 c0       	rjmp	.+42     	; 0x366c <ProcessInput+0x9ee>
                                UpdateState(actObj1.byteField[ACTION_STATE]);
                                
                            } else {
                                if (data[0] == 'u') {
                                    SetResponse(elements++, A_CANTUSE, L_CANTUSE, TEASER);
                                } else if (data[0] == 'g') {
    3642:	87 36       	cpi	r24, 0x67	; 103
    3644:	09 f0       	breq	.+2      	; 0x3648 <ProcessInput+0x9ca>
    3646:	86 c2       	rjmp	.+1292   	; 0x3b54 <ProcessInput+0xed6>
    return 0;
}

//
void SetResponse(uint8_t number, uint16_t address, uint16_t length, uint8_t type){
    reactStr[0][number]=address;
    3648:	81 2f       	mov	r24, r17
    364a:	90 e0       	ldi	r25, 0x00	; 0
    364c:	fc 01       	movw	r30, r24
    364e:	ee 0f       	add	r30, r30
    3650:	ff 1f       	adc	r31, r31
    3652:	e3 5d       	subi	r30, 0xD3	; 211
    3654:	f6 4c       	sbci	r31, 0xC6	; 198
    3656:	2f e9       	ldi	r18, 0x9F	; 159
    3658:	36 e7       	ldi	r19, 0x76	; 118
    365a:	20 83       	st	Z, r18
    365c:	31 83       	std	Z+1, r19	; 0x01
    reactStr[1][number]=length;
    365e:	fc 01       	movw	r30, r24
    3660:	ee 0f       	add	r30, r30
    3662:	ff 1f       	adc	r31, r31
    3664:	e3 59       	subi	r30, 0x93	; 147
    3666:	f6 4c       	sbci	r31, 0xC6	; 198
    3668:	28 e2       	ldi	r18, 0x28	; 40
    366a:	30 e0       	ldi	r19, 0x00	; 0
    366c:	20 83       	st	Z, r18
    366e:	31 83       	std	Z+1, r19	; 0x01
    reactStr[2][number]=type;
    3670:	88 0f       	add	r24, r24
    3672:	99 1f       	adc	r25, r25
    3674:	fc 01       	movw	r30, r24
    3676:	e3 55       	subi	r30, 0x53	; 83
    3678:	f6 4c       	sbci	r31, 0xC6	; 198
    367a:	81 e0       	ldi	r24, 0x01	; 1
    367c:	90 e0       	ldi	r25, 0x00	; 0
    367e:	80 83       	st	Z, r24
    3680:	91 83       	std	Z+1, r25	; 0x01
                                
                            } else {
                                if (data[0] == 'u') {
                                    SetResponse(elements++, A_CANTUSE, L_CANTUSE, TEASER);
                                } else if (data[0] == 'g') {
                                    SetResponse(elements++, A_CANTGIVE, L_CANTGIVE, TEASER);                                    
    3682:	1f 5f       	subi	r17, 0xFF	; 255
    3684:	67 c2       	rjmp	.+1230   	; 0x3b54 <ProcessInput+0xed6>
                            }
                        }
                    
                    //Talk to person, read or use object (without item)                          
                    } else {
                        PopulateObject(route[currDepth+1], &actObj1);
    3686:	6c ee       	ldi	r22, 0xEC	; 236
    3688:	78 e3       	ldi	r23, 0x38	; 56
    368a:	0e 94 fd 11 	call	0x23fa	; 0x23fa <PopulateObject>
                        if ((data[0] == 't')&&((actObj1.byteField[ACTION_MASK]&TALK) == 0)) {
    368e:	d3 01       	movw	r26, r6
    3690:	8c 91       	ld	r24, X
    3692:	84 37       	cpi	r24, 0x74	; 116
    3694:	61 f5       	brne	.+88     	; 0x36ee <ProcessInput+0xa70>
    3696:	80 91 f4 38 	lds	r24, 0x38F4	; 0x8038f4 <actObj1.3956+0x8>
    369a:	83 fd       	sbrc	r24, 3
    369c:	43 c0       	rjmp	.+134    	; 0x3724 <ProcessInput+0xaa6>
    return 0;
}

//
void SetResponse(uint8_t number, uint16_t address, uint16_t length, uint8_t type){
    reactStr[0][number]=address;
    369e:	8b e1       	ldi	r24, 0x1B	; 27
    36a0:	99 e7       	ldi	r25, 0x79	; 121
    36a2:	80 93 2f 39 	sts	0x392F, r24	; 0x80392f <reactStr+0x2>
    36a6:	90 93 30 39 	sts	0x3930, r25	; 0x803930 <reactStr+0x3>
    reactStr[1][number]=length;
    36aa:	8e e1       	ldi	r24, 0x1E	; 30
    36ac:	90 e0       	ldi	r25, 0x00	; 0
    36ae:	80 93 6f 39 	sts	0x396F, r24	; 0x80396f <reactStr+0x42>
    36b2:	90 93 70 39 	sts	0x3970, r25	; 0x803970 <reactStr+0x43>
    reactStr[2][number]=type;
    36b6:	81 e0       	ldi	r24, 0x01	; 1
    36b8:	90 e0       	ldi	r25, 0x00	; 0
    36ba:	80 93 af 39 	sts	0x39AF, r24	; 0x8039af <reactStr+0x82>
    36be:	90 93 b0 39 	sts	0x39B0, r25	; 0x8039b0 <reactStr+0x83>
                    //Talk to person, read or use object (without item)                          
                    } else {
                        PopulateObject(route[currDepth+1], &actObj1);
                        if ((data[0] == 't')&&((actObj1.byteField[ACTION_MASK]&TALK) == 0)) {
                            SetResponse(elements++, A_WHYTALK, L_WHYTALK, TEASER);
                            SetResponse(elements++, actObj1.addrStr[NAME], actObj1.lenStr[NAME], GAME);
    36c2:	80 91 06 39 	lds	r24, 0x3906	; 0x803906 <actObj1.3956+0x1a>
    36c6:	90 91 07 39 	lds	r25, 0x3907	; 0x803907 <actObj1.3956+0x1b>
    return 0;
}

//
void SetResponse(uint8_t number, uint16_t address, uint16_t length, uint8_t type){
    reactStr[0][number]=address;
    36ca:	20 91 f8 38 	lds	r18, 0x38F8	; 0x8038f8 <actObj1.3956+0xc>
    36ce:	30 91 f9 38 	lds	r19, 0x38F9	; 0x8038f9 <actObj1.3956+0xd>
    36d2:	20 93 31 39 	sts	0x3931, r18	; 0x803931 <reactStr+0x4>
    36d6:	30 93 32 39 	sts	0x3932, r19	; 0x803932 <reactStr+0x5>
    reactStr[1][number]=length;
    36da:	80 93 71 39 	sts	0x3971, r24	; 0x803971 <reactStr+0x44>
    36de:	90 93 72 39 	sts	0x3972, r25	; 0x803972 <reactStr+0x45>
    reactStr[2][number]=type;
    36e2:	10 92 b1 39 	sts	0x39B1, r1	; 0x8039b1 <reactStr+0x84>
    36e6:	10 92 b2 39 	sts	0x39B2, r1	; 0x8039b2 <reactStr+0x85>
                    //Talk to person, read or use object (without item)                          
                    } else {
                        PopulateObject(route[currDepth+1], &actObj1);
                        if ((data[0] == 't')&&((actObj1.byteField[ACTION_MASK]&TALK) == 0)) {
                            SetResponse(elements++, A_WHYTALK, L_WHYTALK, TEASER);
                            SetResponse(elements++, actObj1.addrStr[NAME], actObj1.lenStr[NAME], GAME);
    36ea:	13 e0       	ldi	r17, 0x03	; 3
    36ec:	33 c2       	rjmp	.+1126   	; 0x3b54 <ProcessInput+0xed6>
                        } else if ((data[0] == 'u')&&((actObj1.byteField[ACTION_MASK]&USE) == 0)) {
    36ee:	85 37       	cpi	r24, 0x75	; 117
    36f0:	39 f4       	brne	.+14     	; 0x3700 <ProcessInput+0xa82>
    36f2:	80 91 f4 38 	lds	r24, 0x38F4	; 0x8038f4 <actObj1.3956+0x8>
    36f6:	84 fd       	sbrc	r24, 4
    36f8:	15 c0       	rjmp	.+42     	; 0x3724 <ProcessInput+0xaa6>
    return 0;
}

//
void SetResponse(uint8_t number, uint16_t address, uint16_t length, uint8_t type){
    reactStr[0][number]=address;
    36fa:	81 e0       	ldi	r24, 0x01	; 1
    36fc:	99 e7       	ldi	r25, 0x79	; 121
    36fe:	3b c2       	rjmp	.+1142   	; 0x3b76 <ProcessInput+0xef8>
                        if ((data[0] == 't')&&((actObj1.byteField[ACTION_MASK]&TALK) == 0)) {
                            SetResponse(elements++, A_WHYTALK, L_WHYTALK, TEASER);
                            SetResponse(elements++, actObj1.addrStr[NAME], actObj1.lenStr[NAME], GAME);
                        } else if ((data[0] == 'u')&&((actObj1.byteField[ACTION_MASK]&USE) == 0)) {
                            SetResponse(elements++, A_CANTUSE, L_CANTUSE, TEASER);
                        } else if ((data[0] == 'r')&&((actObj1.byteField[ACTION_MASK]&READ) == 0)) {
    3700:	82 37       	cpi	r24, 0x72	; 114
    3702:	69 f4       	brne	.+26     	; 0x371e <ProcessInput+0xaa0>
    3704:	80 91 f4 38 	lds	r24, 0x38F4	; 0x8038f4 <actObj1.3956+0x8>
    3708:	85 fd       	sbrc	r24, 5
    370a:	0c c0       	rjmp	.+24     	; 0x3724 <ProcessInput+0xaa6>
    return 0;
}

//
void SetResponse(uint8_t number, uint16_t address, uint16_t length, uint8_t type){
    reactStr[0][number]=address;
    370c:	86 ee       	ldi	r24, 0xE6	; 230
    370e:	98 e7       	ldi	r25, 0x78	; 120
    3710:	80 93 2f 39 	sts	0x392F, r24	; 0x80392f <reactStr+0x2>
    3714:	90 93 30 39 	sts	0x3930, r25	; 0x803930 <reactStr+0x3>
    reactStr[1][number]=length;
    3718:	8b e1       	ldi	r24, 0x1B	; 27
    371a:	90 e0       	ldi	r25, 0x00	; 0
    371c:	78 cb       	rjmp	.-2320   	; 0x2e0e <ProcessInput+0x190>
                            SetResponse(elements++, actObj1.addrStr[NAME], actObj1.lenStr[NAME], GAME);
                        } else if ((data[0] == 'u')&&((actObj1.byteField[ACTION_MASK]&USE) == 0)) {
                            SetResponse(elements++, A_CANTUSE, L_CANTUSE, TEASER);
                        } else if ((data[0] == 'r')&&((actObj1.byteField[ACTION_MASK]&READ) == 0)) {
                            SetResponse(elements++, A_CANTREAD, L_CANTREAD, TEASER);
                        } else if (data[0] == 'g'){ 
    371e:	87 36       	cpi	r24, 0x67	; 103
    3720:	09 f4       	brne	.+2      	; 0x3724 <ProcessInput+0xaa6>
    3722:	e0 ca       	rjmp	.-2624   	; 0x2ce4 <ProcessInput+0x66>
                            SetResponse(elements++, A_NOTPOSSIBLE, L_NOTPOSSIBLE, TEASER);  
                        } else {

                            //Special game, not enough characters
                            if (actObj1.lenStr[ACTION_STR1] == 1) {
    3724:	00 91 0a 39 	lds	r16, 0x390A	; 0x80390a <actObj1.3956+0x1e>
    3728:	10 91 0b 39 	lds	r17, 0x390B	; 0x80390b <actObj1.3956+0x1f>
    372c:	01 30       	cpi	r16, 0x01	; 1
    372e:	11 05       	cpc	r17, r1
    3730:	09 f5       	brne	.+66     	; 0x3774 <ProcessInput+0xaf6>
                                ExtEERead(actObj1.addrStr[ACTION_STR1], 1, GAME, &data[2]);
    3732:	93 01       	movw	r18, r6
    3734:	2e 5f       	subi	r18, 0xFE	; 254
    3736:	3f 4f       	sbci	r19, 0xFF	; 255
    3738:	40 e0       	ldi	r20, 0x00	; 0
    373a:	61 e0       	ldi	r22, 0x01	; 1
    373c:	80 91 fc 38 	lds	r24, 0x38FC	; 0x8038fc <actObj1.3956+0x10>
    3740:	90 91 fd 38 	lds	r25, 0x38FD	; 0x8038fd <actObj1.3956+0x11>
    3744:	0e 94 b3 07 	call	0xf66	; 0xf66 <ExtEERead>
                                if (data[2] == '1') {
    3748:	f3 01       	movw	r30, r6
    374a:	82 81       	ldd	r24, Z+2	; 0x02
    374c:	81 33       	cpi	r24, 0x31	; 49
    374e:	09 f0       	breq	.+2      	; 0x3752 <ProcessInput+0xad4>
    3750:	13 cd       	rjmp	.-1498   	; 0x3178 <ProcessInput+0x4fa>
    return 0;
}

//
void SetResponse(uint8_t number, uint16_t address, uint16_t length, uint8_t type){
    reactStr[0][number]=address;
    3752:	85 e2       	ldi	r24, 0x25	; 37
    3754:	95 e7       	ldi	r25, 0x75	; 117
    3756:	80 93 2f 39 	sts	0x392F, r24	; 0x80392f <reactStr+0x2>
    375a:	90 93 30 39 	sts	0x3930, r25	; 0x803930 <reactStr+0x3>
    reactStr[1][number]=length;
    375e:	8b e2       	ldi	r24, 0x2B	; 43
    3760:	90 e0       	ldi	r25, 0x00	; 0
    3762:	80 93 6f 39 	sts	0x396F, r24	; 0x80396f <reactStr+0x42>
    3766:	90 93 70 39 	sts	0x3970, r25	; 0x803970 <reactStr+0x43>
    reactStr[2][number]=type;
    376a:	00 93 af 39 	sts	0x39AF, r16	; 0x8039af <reactStr+0x82>
    376e:	10 93 b0 39 	sts	0x39B0, r17	; 0x8039b0 <reactStr+0x83>
    3772:	57 cb       	rjmp	.-2386   	; 0x2e22 <ProcessInput+0x1a4>
                                if (data[2] == '1') {
                                    SetResponse(elements++, A_PLEASEOFFER, L_PLEASEOFFER, TEASER);
                                }

                            //General request
                            } else if (actObj1.lenStr[ACTION_STR1]) {
    3774:	01 15       	cp	r16, r1
    3776:	11 05       	cpc	r17, r1
    3778:	09 f4       	brne	.+2      	; 0x377c <ProcessInput+0xafe>
    377a:	58 c0       	rjmp	.+176    	; 0x382c <ProcessInput+0xbae>
    return 0;
}

//
void SetResponse(uint8_t number, uint16_t address, uint16_t length, uint8_t type){
    reactStr[0][number]=address;
    377c:	80 91 fc 38 	lds	r24, 0x38FC	; 0x8038fc <actObj1.3956+0x10>
    3780:	90 91 fd 38 	lds	r25, 0x38FD	; 0x8038fd <actObj1.3956+0x11>
    3784:	80 93 2f 39 	sts	0x392F, r24	; 0x80392f <reactStr+0x2>
    3788:	90 93 30 39 	sts	0x3930, r25	; 0x803930 <reactStr+0x3>
    reactStr[1][number]=length;
    378c:	00 93 6f 39 	sts	0x396F, r16	; 0x80396f <reactStr+0x42>
    3790:	10 93 70 39 	sts	0x3970, r17	; 0x803970 <reactStr+0x43>
    reactStr[2][number]=type;
    3794:	10 92 af 39 	sts	0x39AF, r1	; 0x8039af <reactStr+0x82>
    3798:	10 92 b0 39 	sts	0x39B0, r1	; 0x8039b0 <reactStr+0x83>
    return 0;
}

//
void SetResponse(uint8_t number, uint16_t address, uint16_t length, uint8_t type){
    reactStr[0][number]=address;
    379c:	89 e5       	ldi	r24, 0x59	; 89
    379e:	9a e7       	ldi	r25, 0x7A	; 122
    37a0:	80 93 31 39 	sts	0x3931, r24	; 0x803931 <reactStr+0x4>
    37a4:	90 93 32 39 	sts	0x3932, r25	; 0x803932 <reactStr+0x5>
    reactStr[1][number]=length;
    37a8:	82 e0       	ldi	r24, 0x02	; 2
    37aa:	90 e0       	ldi	r25, 0x00	; 0
    37ac:	80 93 71 39 	sts	0x3971, r24	; 0x803971 <reactStr+0x44>
    37b0:	90 93 72 39 	sts	0x3972, r25	; 0x803972 <reactStr+0x45>
    reactStr[2][number]=type;
    37b4:	81 e0       	ldi	r24, 0x01	; 1
    37b6:	90 e0       	ldi	r25, 0x00	; 0
    37b8:	80 93 b1 39 	sts	0x39B1, r24	; 0x8039b1 <reactStr+0x84>
    37bc:	90 93 b2 39 	sts	0x39B2, r25	; 0x8039b2 <reactStr+0x85>
    return 0;
}

//
void SetResponse(uint8_t number, uint16_t address, uint16_t length, uint8_t type){
    reactStr[0][number]=address;
    37c0:	2d ea       	ldi	r18, 0xAD	; 173
    37c2:	38 e7       	ldi	r19, 0x78	; 120
    37c4:	20 93 33 39 	sts	0x3933, r18	; 0x803933 <reactStr+0x6>
    37c8:	30 93 34 39 	sts	0x3934, r19	; 0x803934 <reactStr+0x7>
    reactStr[1][number]=length;
    37cc:	22 e1       	ldi	r18, 0x12	; 18
    37ce:	30 e0       	ldi	r19, 0x00	; 0
    37d0:	20 93 73 39 	sts	0x3973, r18	; 0x803973 <reactStr+0x46>
    37d4:	30 93 74 39 	sts	0x3974, r19	; 0x803974 <reactStr+0x47>
    reactStr[2][number]=type;
    37d8:	80 93 b3 39 	sts	0x39B3, r24	; 0x8039b3 <reactStr+0x86>
    37dc:	90 93 b4 39 	sts	0x39B4, r25	; 0x8039b4 <reactStr+0x87>
                            //General request
                            } else if (actObj1.lenStr[ACTION_STR1]) {
                                SetResponse(elements++, actObj1.addrStr[ACTION_STR1], actObj1.lenStr[ACTION_STR1], GAME);
                                SetResponse(elements++, A_LF, 2, TEASER);
                                SetResponse(elements++, A_RESPONSE, L_RESPONSE, TEASER);
                                if (actObj1.lenStr[ACTION_STR2]>(INP_LENGTH-1)) actObj1.lenStr[ACTION_STR2] = (INP_LENGTH-1);
    37e0:	80 91 0c 39 	lds	r24, 0x390C	; 0x80390c <actObj1.3956+0x20>
    37e4:	90 91 0d 39 	lds	r25, 0x390D	; 0x80390d <actObj1.3956+0x21>
    37e8:	40 97       	sbiw	r24, 0x10	; 16
    37ea:	30 f0       	brcs	.+12     	; 0x37f8 <ProcessInput+0xb7a>
    37ec:	8f e0       	ldi	r24, 0x0F	; 15
    37ee:	90 e0       	ldi	r25, 0x00	; 0
    37f0:	80 93 0c 39 	sts	0x390C, r24	; 0x80390c <actObj1.3956+0x20>
    37f4:	90 93 0d 39 	sts	0x390D, r25	; 0x80390d <actObj1.3956+0x21>
                                ExtEERead(actObj1.addrStr[ACTION_STR2], actObj1.lenStr[ACTION_STR2], GAME, (uint8_t *)&specialInput[0]);
    37f8:	2c e1       	ldi	r18, 0x1C	; 28
    37fa:	39 e3       	ldi	r19, 0x39	; 57
    37fc:	40 e0       	ldi	r20, 0x00	; 0
    37fe:	60 91 0c 39 	lds	r22, 0x390C	; 0x80390c <actObj1.3956+0x20>
    3802:	80 91 fe 38 	lds	r24, 0x38FE	; 0x8038fe <actObj1.3956+0x12>
    3806:	90 91 ff 38 	lds	r25, 0x38FF	; 0x8038ff <actObj1.3956+0x13>
    380a:	0e 94 b3 07 	call	0xf66	; 0xf66 <ExtEERead>
                                UnflipData(actObj1.lenStr[ACTION_STR2], (uint8_t *)&specialInput[0]);
    380e:	6c e1       	ldi	r22, 0x1C	; 28
    3810:	79 e3       	ldi	r23, 0x39	; 57
    3812:	80 91 0c 39 	lds	r24, 0x390C	; 0x80390c <actObj1.3956+0x20>
    3816:	0e 94 13 11 	call	0x2226	; 0x2226 <UnflipData>
                                specialInput[actObj1.lenStr[ACTION_STR2]] = 0;
    381a:	e0 91 0c 39 	lds	r30, 0x390C	; 0x80390c <actObj1.3956+0x20>
    381e:	f0 91 0d 39 	lds	r31, 0x390D	; 0x80390d <actObj1.3956+0x21>
    3822:	e4 5e       	subi	r30, 0xE4	; 228
    3824:	f6 4c       	sbci	r31, 0xC6	; 198
    3826:	10 82       	st	Z, r1

                            //General request
                            } else if (actObj1.lenStr[ACTION_STR1]) {
                                SetResponse(elements++, actObj1.addrStr[ACTION_STR1], actObj1.lenStr[ACTION_STR1], GAME);
                                SetResponse(elements++, A_LF, 2, TEASER);
                                SetResponse(elements++, A_RESPONSE, L_RESPONSE, TEASER);
    3828:	14 e0       	ldi	r17, 0x04	; 4
    382a:	94 c1       	rjmp	.+808    	; 0x3b54 <ProcessInput+0xed6>
                                ExtEERead(actObj1.addrStr[ACTION_STR2], actObj1.lenStr[ACTION_STR2], GAME, (uint8_t *)&specialInput[0]);
                                UnflipData(actObj1.lenStr[ACTION_STR2], (uint8_t *)&specialInput[0]);
                                specialInput[actObj1.lenStr[ACTION_STR2]] = 0;
                            
                            //Normal action    
                            } else if (CheckState(actObj1.byteField[ACTION_ACL])){
    382c:	80 91 f3 38 	lds	r24, 0x38F3	; 0x8038f3 <actObj1.3956+0x7>
    3830:	0e 94 6a 09 	call	0x12d4	; 0x12d4 <CheckState>
    3834:	88 23       	and	r24, r24
    3836:	01 f1       	breq	.+64     	; 0x3878 <ProcessInput+0xbfa>
                                SetResponse(elements++, actObj1.addrStr[ACTION_MSG], actObj1.lenStr[ACTION_MSG], GAME);
    3838:	80 91 12 39 	lds	r24, 0x3912	; 0x803912 <actObj1.3956+0x26>
    383c:	90 91 13 39 	lds	r25, 0x3913	; 0x803913 <actObj1.3956+0x27>
    return 0;
}

//
void SetResponse(uint8_t number, uint16_t address, uint16_t length, uint8_t type){
    reactStr[0][number]=address;
    3840:	20 91 04 39 	lds	r18, 0x3904	; 0x803904 <actObj1.3956+0x18>
    3844:	30 91 05 39 	lds	r19, 0x3905	; 0x803905 <actObj1.3956+0x19>
    3848:	20 93 2f 39 	sts	0x392F, r18	; 0x80392f <reactStr+0x2>
    384c:	30 93 30 39 	sts	0x3930, r19	; 0x803930 <reactStr+0x3>
    reactStr[1][number]=length;
    3850:	80 93 6f 39 	sts	0x396F, r24	; 0x80396f <reactStr+0x42>
    3854:	90 93 70 39 	sts	0x3970, r25	; 0x803970 <reactStr+0x43>
    reactStr[2][number]=type;
    3858:	10 92 af 39 	sts	0x39AF, r1	; 0x8039af <reactStr+0x82>
    385c:	10 92 b0 39 	sts	0x39B0, r1	; 0x8039b0 <reactStr+0x83>
                                specialInput[actObj1.lenStr[ACTION_STR2]] = 0;
                            
                            //Normal action    
                            } else if (CheckState(actObj1.byteField[ACTION_ACL])){
                                SetResponse(elements++, actObj1.addrStr[ACTION_MSG], actObj1.lenStr[ACTION_MSG], GAME);
                                effect = actObj1.effect[2];
    3860:	80 91 16 39 	lds	r24, 0x3916	; 0x803916 <actObj1.3956+0x2a>
    3864:	90 e0       	ldi	r25, 0x00	; 0
    3866:	80 93 4a 38 	sts	0x384A, r24	; 0x80384a <effect>
    386a:	90 93 4b 38 	sts	0x384B, r25	; 0x80384b <effect+0x1>
                                UpdateState(actObj1.byteField[ACTION_STATE]);
    386e:	80 91 f6 38 	lds	r24, 0x38F6	; 0x8038f6 <actObj1.3956+0xa>
    3872:	0e 94 49 09 	call	0x1292	; 0x1292 <UpdateState>
    3876:	d5 ca       	rjmp	.-2646   	; 0x2e22 <ProcessInput+0x1a4>
                            } else {
                                SetResponse(elements++, actObj1.addrStr[ACTION_ACL_MSG], actObj1.lenStr[ACTION_ACL_MSG], GAME);
    3878:	80 91 10 39 	lds	r24, 0x3910	; 0x803910 <actObj1.3956+0x24>
    387c:	90 91 11 39 	lds	r25, 0x3911	; 0x803911 <actObj1.3956+0x25>
    return 0;
}

//
void SetResponse(uint8_t number, uint16_t address, uint16_t length, uint8_t type){
    reactStr[0][number]=address;
    3880:	20 91 02 39 	lds	r18, 0x3902	; 0x803902 <actObj1.3956+0x16>
    3884:	30 91 03 39 	lds	r19, 0x3903	; 0x803903 <actObj1.3956+0x17>
    3888:	20 93 2f 39 	sts	0x392F, r18	; 0x80392f <reactStr+0x2>
    388c:	30 93 30 39 	sts	0x3930, r19	; 0x803930 <reactStr+0x3>
    reactStr[1][number]=length;
    3890:	80 93 6f 39 	sts	0x396F, r24	; 0x80396f <reactStr+0x42>
    3894:	90 93 70 39 	sts	0x3970, r25	; 0x803970 <reactStr+0x43>
    reactStr[2][number]=type;
    3898:	10 92 af 39 	sts	0x39AF, r1	; 0x8039af <reactStr+0x82>
    389c:	10 92 b0 39 	sts	0x39B0, r1	; 0x8039b0 <reactStr+0x83>
                                SetResponse(elements++, actObj1.addrStr[ACTION_MSG], actObj1.lenStr[ACTION_MSG], GAME);
                                effect = actObj1.effect[2];
                                UpdateState(actObj1.byteField[ACTION_STATE]);
                            } else {
                                SetResponse(elements++, actObj1.addrStr[ACTION_ACL_MSG], actObj1.lenStr[ACTION_ACL_MSG], GAME);
                                effect = actObj1.effect[1];
    38a0:	80 91 15 39 	lds	r24, 0x3915	; 0x803915 <actObj1.3956+0x29>
    38a4:	90 e0       	ldi	r25, 0x00	; 0
    38a6:	80 93 4a 38 	sts	0x384A, r24	; 0x80384a <effect>
    38aa:	90 93 4b 38 	sts	0x384B, r25	; 0x80384b <effect+0x1>
    38ae:	b9 ca       	rjmp	.-2702   	; 0x2e22 <ProcessInput+0x1a4>
                        }
                    }

                //Person or object not found
                } else {
                    if ((data[0] == 't')||(data[0] == 'g')){
    38b0:	d3 01       	movw	r26, r6
    38b2:	8c 91       	ld	r24, X
    38b4:	84 37       	cpi	r24, 0x74	; 116
    38b6:	11 f0       	breq	.+4      	; 0x38bc <ProcessInput+0xc3e>
    38b8:	87 36       	cpi	r24, 0x67	; 103
    38ba:	19 f4       	brne	.+6      	; 0x38c2 <ProcessInput+0xc44>
    return 0;
}

//
void SetResponse(uint8_t number, uint16_t address, uint16_t length, uint8_t type){
    reactStr[0][number]=address;
    38bc:	89 e3       	ldi	r24, 0x39	; 57
    38be:	99 e7       	ldi	r25, 0x79	; 121
    38c0:	02 c0       	rjmp	.+4      	; 0x38c6 <ProcessInput+0xc48>
    38c2:	8d e4       	ldi	r24, 0x4D	; 77
    38c4:	99 e7       	ldi	r25, 0x79	; 121
    38c6:	80 93 2f 39 	sts	0x392F, r24	; 0x80392f <reactStr+0x2>
    38ca:	90 93 30 39 	sts	0x3930, r25	; 0x803930 <reactStr+0x3>
    reactStr[1][number]=length;
    38ce:	84 e1       	ldi	r24, 0x14	; 20
    38d0:	90 e0       	ldi	r25, 0x00	; 0
    38d2:	9d ca       	rjmp	.-2758   	; 0x2e0e <ProcessInput+0x190>
                    }
                }
            }
        
        //Special answer given
        } else if (data[0] == 'a'){
    38d4:	81 36       	cpi	r24, 0x61	; 97
    38d6:	09 f0       	breq	.+2      	; 0x38da <ProcessInput+0xc5c>
    38d8:	4f cc       	rjmp	.-1890   	; 0x3178 <ProcessInput+0x4fa>
            
            //Priest offerings
            if (specialPassed >= 2) {
    38da:	80 91 1b 39 	lds	r24, 0x391B	; 0x80391b <specialPassed>
    38de:	82 30       	cpi	r24, 0x02	; 2
    38e0:	08 f4       	brcc	.+2      	; 0x38e4 <ProcessInput+0xc66>
    38e2:	c7 c0       	rjmp	.+398    	; 0x3a72 <ProcessInput+0xdf4>
                if (data[1] > 0) {
    38e4:	f3 01       	movw	r30, r6
    38e6:	21 81       	ldd	r18, Z+1	; 0x01
    38e8:	22 23       	and	r18, r18
    38ea:	09 f4       	brne	.+2      	; 0x38ee <ProcessInput+0xc70>
    38ec:	af c0       	rjmp	.+350    	; 0x3a4c <ProcessInput+0xdce>

                    //uint8_t  digit[10] = {0, 0, 0, 0, 0, 0, 0, 0, 0, 0};
                    uint8_t  digit[8] = {0, 0, 0, 0, 0, 0, 0, 0};
    38ee:	ce 01       	movw	r24, r28
    38f0:	01 96       	adiw	r24, 0x01	; 1
    38f2:	7c 01       	movw	r14, r24
    38f4:	88 e0       	ldi	r24, 0x08	; 8
    38f6:	d7 01       	movw	r26, r14
    38f8:	1d 92       	st	X+, r1
    38fa:	8a 95       	dec	r24
    38fc:	e9 f7       	brne	.-6      	; 0x38f8 <ProcessInput+0xc7a>
                        answer = ((offering  & 2) << 19) + ((offering  & 1) << 8) + \
                        ((element   & 2) << 15) + ((element   & 1) << 4) + \
                        ((kneelings & 2) << 11) + ((kneelings & 1))
                        answer = answer << (3-person)
                    */
                    data[1]-='0'; // item 31 needs to become something that results in 0 when doing %4
    38fe:	20 53       	subi	r18, 0x30	; 48
    3900:	21 83       	std	Z+1, r18	; 0x01
                    data[2]-='1';
    3902:	32 81       	ldd	r19, Z+2	; 0x02
    3904:	31 53       	subi	r19, 0x31	; 49
    3906:	32 83       	std	Z+2, r19	; 0x02
                    if (data[3] == 'a') data[3] = 1;
    3908:	83 81       	ldd	r24, Z+3	; 0x03
    390a:	81 36       	cpi	r24, 0x61	; 97
    390c:	11 f4       	brne	.+4      	; 0x3912 <ProcessInput+0xc94>
    390e:	81 e0       	ldi	r24, 0x01	; 1
    3910:	0c c0       	rjmp	.+24     	; 0x392a <ProcessInput+0xcac>
                    else if (data[3] == 'e') data[3] = 0;
    3912:	85 36       	cpi	r24, 0x65	; 101
    3914:	19 f4       	brne	.+6      	; 0x391c <ProcessInput+0xc9e>
    3916:	f3 01       	movw	r30, r6
    3918:	13 82       	std	Z+3, r1	; 0x03
    391a:	08 c0       	rjmp	.+16     	; 0x392c <ProcessInput+0xcae>
                    else if (data[3] == 'f') data[3] = 3;
    391c:	86 36       	cpi	r24, 0x66	; 102
    391e:	19 f4       	brne	.+6      	; 0x3926 <ProcessInput+0xca8>
    3920:	83 e0       	ldi	r24, 0x03	; 3
    3922:	83 83       	std	Z+3, r24	; 0x03
    3924:	03 c0       	rjmp	.+6      	; 0x392c <ProcessInput+0xcae>
                    else data[3] = 2;
    3926:	82 e0       	ldi	r24, 0x02	; 2
    3928:	f3 01       	movw	r30, r6
    392a:	83 83       	std	Z+3, r24	; 0x03

                    if (data[1] & 2) answer += (1UL << 20);
    392c:	21 fd       	sbrc	r18, 1
    392e:	04 c0       	rjmp	.+8      	; 0x3938 <ProcessInput+0xcba>
            if (specialPassed >= 2) {
                if (data[1] > 0) {

                    //uint8_t  digit[10] = {0, 0, 0, 0, 0, 0, 0, 0, 0, 0};
                    uint8_t  digit[8] = {0, 0, 0, 0, 0, 0, 0, 0};
                    uint32_t answer = 0;
    3930:	80 e0       	ldi	r24, 0x00	; 0
    3932:	90 e0       	ldi	r25, 0x00	; 0
    3934:	dc 01       	movw	r26, r24
    3936:	04 c0       	rjmp	.+8      	; 0x3940 <ProcessInput+0xcc2>
                    if (data[3] == 'a') data[3] = 1;
                    else if (data[3] == 'e') data[3] = 0;
                    else if (data[3] == 'f') data[3] = 3;
                    else data[3] = 2;

                    if (data[1] & 2) answer += (1UL << 20);
    3938:	80 e0       	ldi	r24, 0x00	; 0
    393a:	90 e0       	ldi	r25, 0x00	; 0
    393c:	a0 e1       	ldi	r26, 0x10	; 16
    393e:	b0 e0       	ldi	r27, 0x00	; 0
                    if (data[1] & 1) answer += (1 << 8);
    3940:	20 ff       	sbrs	r18, 0
    3942:	03 c0       	rjmp	.+6      	; 0x394a <ProcessInput+0xccc>
    3944:	9f 5f       	subi	r25, 0xFF	; 255
    3946:	af 4f       	sbci	r26, 0xFF	; 255
    3948:	bf 4f       	sbci	r27, 0xFF	; 255
                    if (data[3] & 2) answer += (1UL << 16);
    394a:	f3 01       	movw	r30, r6
    394c:	23 81       	ldd	r18, Z+3	; 0x03
    394e:	21 fd       	sbrc	r18, 1
    3950:	11 96       	adiw	r26, 0x01	; 1
                    if (data[3] & 1) answer += (1 << 4);
    3952:	20 ff       	sbrs	r18, 0
    3954:	03 c0       	rjmp	.+6      	; 0x395c <ProcessInput+0xcde>
    3956:	40 96       	adiw	r24, 0x10	; 16
    3958:	a1 1d       	adc	r26, r1
    395a:	b1 1d       	adc	r27, r1
                    if (data[2] & 2) answer += (1 << 12);
    395c:	31 ff       	sbrs	r19, 1
    395e:	03 c0       	rjmp	.+6      	; 0x3966 <ProcessInput+0xce8>
    3960:	90 5f       	subi	r25, 0xF0	; 240
    3962:	af 4f       	sbci	r26, 0xFF	; 255
    3964:	bf 4f       	sbci	r27, 0xFF	; 255
                    if (data[2] & 1) answer += 1;
    3966:	30 ff       	sbrs	r19, 0
    3968:	03 c0       	rjmp	.+6      	; 0x3970 <ProcessInput+0xcf2>
    396a:	01 96       	adiw	r24, 0x01	; 1
    396c:	a1 1d       	adc	r26, r1
    396e:	b1 1d       	adc	r27, r1
                    answer <<= (4 - whoami);            
    3970:	40 91 4d 38 	lds	r20, 0x384D	; 0x80384d <whoami>
    3974:	24 e0       	ldi	r18, 0x04	; 4
    3976:	30 e0       	ldi	r19, 0x00	; 0
    3978:	24 1b       	sub	r18, r20
    397a:	31 09       	sbc	r19, r1
    397c:	04 c0       	rjmp	.+8      	; 0x3986 <ProcessInput+0xd08>
    397e:	88 0f       	add	r24, r24
    3980:	99 1f       	adc	r25, r25
    3982:	aa 1f       	adc	r26, r26
    3984:	bb 1f       	adc	r27, r27
    3986:	2a 95       	dec	r18
    3988:	d2 f7       	brpl	.-12     	; 0x397e <ProcessInput+0xd00>
    return 0;
}

//
void SetResponse(uint8_t number, uint16_t address, uint16_t length, uint8_t type){
    reactStr[0][number]=address;
    398a:	28 ec       	ldi	r18, 0xC8	; 200
    398c:	34 e7       	ldi	r19, 0x74	; 116
    398e:	20 93 2f 39 	sts	0x392F, r18	; 0x80392f <reactStr+0x2>
    3992:	30 93 30 39 	sts	0x3930, r19	; 0x803930 <reactStr+0x3>
    reactStr[1][number]=length;
    3996:	20 e2       	ldi	r18, 0x20	; 32
    3998:	30 e0       	ldi	r19, 0x00	; 0
    399a:	20 93 6f 39 	sts	0x396F, r18	; 0x80396f <reactStr+0x42>
    399e:	30 93 70 39 	sts	0x3970, r19	; 0x803970 <reactStr+0x43>
    reactStr[2][number]=type;
    39a2:	21 e0       	ldi	r18, 0x01	; 1
    39a4:	30 e0       	ldi	r19, 0x00	; 0
    39a6:	20 93 af 39 	sts	0x39AF, r18	; 0x8039af <reactStr+0x82>
    39aa:	30 93 b0 39 	sts	0x39B0, r19	; 0x8039b0 <reactStr+0x83>
    return 0;
}

//
void SetResponse(uint8_t number, uint16_t address, uint16_t length, uint8_t type){
    reactStr[0][number]=address;
    39ae:	4d e9       	ldi	r20, 0x9D	; 157
    39b0:	54 e7       	ldi	r21, 0x74	; 116
    39b2:	40 93 31 39 	sts	0x3931, r20	; 0x803931 <reactStr+0x4>
    39b6:	50 93 32 39 	sts	0x3932, r21	; 0x803932 <reactStr+0x5>
    reactStr[1][number]=length;
    39ba:	42 e0       	ldi	r20, 0x02	; 2
    39bc:	50 e0       	ldi	r21, 0x00	; 0
    39be:	40 93 71 39 	sts	0x3971, r20	; 0x803971 <reactStr+0x44>
    39c2:	50 93 72 39 	sts	0x3972, r21	; 0x803972 <reactStr+0x45>
    reactStr[2][number]=type;
    39c6:	20 93 b1 39 	sts	0x39B1, r18	; 0x8039b1 <reactStr+0x84>
    39ca:	30 93 b2 39 	sts	0x39B2, r19	; 0x8039b2 <reactStr+0x85>

                    SetResponse(elements++, A_YOURPART, L_YOURPART, TEASER);
                    SetResponse(elements++, A_HEXPREFIX, L_HEXPREFIX, TEASER);
                    
                    //Set up sending out number
                    for (n=7; n>=0; --n) {
    39ce:	07 e0       	ldi	r16, 0x07	; 7
                        digit[n] = answer % 16;
    39d0:	f7 01       	movw	r30, r14
    39d2:	e0 0f       	add	r30, r16
    39d4:	f1 1d       	adc	r31, r1
    39d6:	28 2f       	mov	r18, r24
    39d8:	2f 70       	andi	r18, 0x0F	; 15
    39da:	20 83       	st	Z, r18
                        answer /= 16;
    39dc:	44 e0       	ldi	r20, 0x04	; 4
    39de:	b6 95       	lsr	r27
    39e0:	a7 95       	ror	r26
    39e2:	97 95       	ror	r25
    39e4:	87 95       	ror	r24
    39e6:	4a 95       	dec	r20
    39e8:	d1 f7       	brne	.-12     	; 0x39de <ProcessInput+0xd60>
                        if (answer == 0) break;
    39ea:	00 97       	sbiw	r24, 0x00	; 0
    39ec:	a1 05       	cpc	r26, r1
    39ee:	b1 05       	cpc	r27, r1
    39f0:	49 f4       	brne	.+18     	; 0x3a04 <ProcessInput+0xd86>
    39f2:	2d e2       	ldi	r18, 0x2D	; 45
    39f4:	c2 2e       	mov	r12, r18
    39f6:	29 e3       	ldi	r18, 0x39	; 57
    39f8:	d2 2e       	mov	r13, r18
    39fa:	13 e0       	ldi	r17, 0x03	; 3
}

//
void SetResponse(uint8_t number, uint16_t address, uint16_t length, uint8_t type){
    reactStr[0][number]=address;
    reactStr[1][number]=length;
    39fc:	aa 24       	eor	r10, r10
    39fe:	a3 94       	inc	r10
    3a00:	b1 2c       	mov	r11, r1
    3a02:	02 c0       	rjmp	.+4      	; 0x3a08 <ProcessInput+0xd8a>

                    SetResponse(elements++, A_YOURPART, L_YOURPART, TEASER);
                    SetResponse(elements++, A_HEXPREFIX, L_HEXPREFIX, TEASER);
                    
                    //Set up sending out number
                    for (n=7; n>=0; --n) {
    3a04:	01 50       	subi	r16, 0x01	; 1
                        digit[n] = answer % 16;
                        answer /= 16;
                        if (answer == 0) break;
                    }
    3a06:	e4 cf       	rjmp	.-56     	; 0x39d0 <ProcessInput+0xd52>
    3a08:	b2 e0       	ldi	r27, 0x02	; 2
    3a0a:	cb 0e       	add	r12, r27
    3a0c:	d1 1c       	adc	r13, r1

                    for (; n<8; ++n) {
    3a0e:	08 30       	cpi	r16, 0x08	; 8
    3a10:	08 f0       	brcs	.+2      	; 0x3a14 <ProcessInput+0xd96>
    3a12:	9e c0       	rjmp	.+316    	; 0x3b50 <ProcessInput+0xed2>
                        SetResponse(elements++, A_DIGITS+digit[n], 1, TEASER);
    3a14:	1f 5f       	subi	r17, 0xFF	; 255
    3a16:	f7 01       	movw	r30, r14
    3a18:	e0 0f       	add	r30, r16
    3a1a:	f1 1d       	adc	r31, r1
    return 0;
}

//
void SetResponse(uint8_t number, uint16_t address, uint16_t length, uint8_t type){
    reactStr[0][number]=address;
    3a1c:	80 81       	ld	r24, Z
    3a1e:	90 e0       	ldi	r25, 0x00	; 0
    3a20:	83 57       	subi	r24, 0x73	; 115
    3a22:	9b 48       	sbci	r25, 0x8B	; 139
    3a24:	d6 01       	movw	r26, r12
    3a26:	14 96       	adiw	r26, 0x04	; 4
    3a28:	8d 93       	st	X+, r24
    3a2a:	9c 93       	st	X, r25
    3a2c:	15 97       	sbiw	r26, 0x05	; 5
    reactStr[1][number]=length;
    3a2e:	f6 01       	movw	r30, r12
    3a30:	ec 5b       	subi	r30, 0xBC	; 188
    3a32:	ff 4f       	sbci	r31, 0xFF	; 255
    3a34:	a0 82       	st	Z, r10
    3a36:	b1 82       	std	Z+1, r11	; 0x01
    reactStr[2][number]=type;
    3a38:	e0 5c       	subi	r30, 0xC0	; 192
    3a3a:	ff 4f       	sbci	r31, 0xFF	; 255
    3a3c:	a0 82       	st	Z, r10
    3a3e:	b1 82       	std	Z+1, r11	; 0x01
                        if (answer == 0) break;
                    }

                    for (; n<8; ++n) {
                        SetResponse(elements++, A_DIGITS+digit[n], 1, TEASER);
                        UpdateState(actObj1.byteField[ACTION_STATE]);
    3a40:	80 91 f6 38 	lds	r24, 0x38F6	; 0x8038f6 <actObj1.3956+0xa>
    3a44:	0e 94 49 09 	call	0x1292	; 0x1292 <UpdateState>
                        digit[n] = answer % 16;
                        answer /= 16;
                        if (answer == 0) break;
                    }

                    for (; n<8; ++n) {
    3a48:	0f 5f       	subi	r16, 0xFF	; 255
    3a4a:	de cf       	rjmp	.-68     	; 0x3a08 <ProcessInput+0xd8a>
    return 0;
}

//
void SetResponse(uint8_t number, uint16_t address, uint16_t length, uint8_t type){
    reactStr[0][number]=address;
    3a4c:	88 ee       	ldi	r24, 0xE8	; 232
    3a4e:	94 e7       	ldi	r25, 0x74	; 116
    3a50:	80 93 2f 39 	sts	0x392F, r24	; 0x80392f <reactStr+0x2>
    3a54:	90 93 30 39 	sts	0x3930, r25	; 0x803930 <reactStr+0x3>
    reactStr[1][number]=length;
    3a58:	8d e3       	ldi	r24, 0x3D	; 61
    3a5a:	90 e0       	ldi	r25, 0x00	; 0
    3a5c:	80 93 6f 39 	sts	0x396F, r24	; 0x80396f <reactStr+0x42>
    3a60:	90 93 70 39 	sts	0x3970, r25	; 0x803970 <reactStr+0x43>
    reactStr[2][number]=type;
    3a64:	81 e0       	ldi	r24, 0x01	; 1
    3a66:	90 e0       	ldi	r25, 0x00	; 0
    3a68:	80 93 af 39 	sts	0x39AF, r24	; 0x8039af <reactStr+0x82>
    3a6c:	90 93 b0 39 	sts	0x39B0, r25	; 0x8039b0 <reactStr+0x83>
    3a70:	6e c0       	rjmp	.+220    	; 0x3b4e <ProcessInput+0xed0>
    3a72:	e0 91 3e 38 	lds	r30, 0x383E	; 0x80383e <currDepth>
                    SetResponse(elements++, A_BADOFFERING, L_BADOFFERING, TEASER);
                }
            
            //Other questions    
            } else if (specialPassed == 1) {
                PopulateObject(route[currDepth+1], &actObj1);
    3a76:	f0 e0       	ldi	r31, 0x00	; 0
    3a78:	ee 0f       	add	r30, r30
    3a7a:	ff 1f       	adc	r31, r31
    3a7c:	e1 51       	subi	r30, 0x11	; 17
    3a7e:	f6 4c       	sbci	r31, 0xC6	; 198
    3a80:	6c ee       	ldi	r22, 0xEC	; 236
    3a82:	78 e3       	ldi	r23, 0x38	; 56
                } else {
                    SetResponse(elements++, A_BADOFFERING, L_BADOFFERING, TEASER);
                }
            
            //Other questions    
            } else if (specialPassed == 1) {
    3a84:	81 30       	cpi	r24, 0x01	; 1
    3a86:	09 f0       	breq	.+2      	; 0x3a8a <ProcessInput+0xe0c>
    3a88:	46 c0       	rjmp	.+140    	; 0x3b16 <ProcessInput+0xe98>
                PopulateObject(route[currDepth+1], &actObj1);
    3a8a:	80 81       	ld	r24, Z
    3a8c:	91 81       	ldd	r25, Z+1	; 0x01
    3a8e:	0e 94 fd 11 	call	0x23fa	; 0x23fa <PopulateObject>
                if (CheckState(actObj1.byteField[ACTION_ACL])){
    3a92:	80 91 f3 38 	lds	r24, 0x38F3	; 0x8038f3 <actObj1.3956+0x7>
    3a96:	0e 94 6a 09 	call	0x12d4	; 0x12d4 <CheckState>
    3a9a:	88 23       	and	r24, r24
    3a9c:	01 f1       	breq	.+64     	; 0x3ade <ProcessInput+0xe60>
                    SetResponse(elements++, actObj1.addrStr[ACTION_MSG], actObj1.lenStr[ACTION_MSG], GAME);
    3a9e:	80 91 12 39 	lds	r24, 0x3912	; 0x803912 <actObj1.3956+0x26>
    3aa2:	90 91 13 39 	lds	r25, 0x3913	; 0x803913 <actObj1.3956+0x27>
    return 0;
}

//
void SetResponse(uint8_t number, uint16_t address, uint16_t length, uint8_t type){
    reactStr[0][number]=address;
    3aa6:	20 91 04 39 	lds	r18, 0x3904	; 0x803904 <actObj1.3956+0x18>
    3aaa:	30 91 05 39 	lds	r19, 0x3905	; 0x803905 <actObj1.3956+0x19>
    3aae:	20 93 2f 39 	sts	0x392F, r18	; 0x80392f <reactStr+0x2>
    3ab2:	30 93 30 39 	sts	0x3930, r19	; 0x803930 <reactStr+0x3>
    reactStr[1][number]=length;
    3ab6:	80 93 6f 39 	sts	0x396F, r24	; 0x80396f <reactStr+0x42>
    3aba:	90 93 70 39 	sts	0x3970, r25	; 0x803970 <reactStr+0x43>
    reactStr[2][number]=type;
    3abe:	10 92 af 39 	sts	0x39AF, r1	; 0x8039af <reactStr+0x82>
    3ac2:	10 92 b0 39 	sts	0x39B0, r1	; 0x8039b0 <reactStr+0x83>
            //Other questions    
            } else if (specialPassed == 1) {
                PopulateObject(route[currDepth+1], &actObj1);
                if (CheckState(actObj1.byteField[ACTION_ACL])){
                    SetResponse(elements++, actObj1.addrStr[ACTION_MSG], actObj1.lenStr[ACTION_MSG], GAME);
                    effect = actObj1.effect[2];
    3ac6:	80 91 16 39 	lds	r24, 0x3916	; 0x803916 <actObj1.3956+0x2a>
    3aca:	90 e0       	ldi	r25, 0x00	; 0
    3acc:	80 93 4a 38 	sts	0x384A, r24	; 0x80384a <effect>
    3ad0:	90 93 4b 38 	sts	0x384B, r25	; 0x80384b <effect+0x1>
                    UpdateState(actObj1.byteField[ACTION_STATE]);
    3ad4:	80 91 f6 38 	lds	r24, 0x38F6	; 0x8038f6 <actObj1.3956+0xa>
    3ad8:	0e 94 49 09 	call	0x1292	; 0x1292 <UpdateState>
    3adc:	38 c0       	rjmp	.+112    	; 0x3b4e <ProcessInput+0xed0>
                } else {
                    SetResponse(elements++, actObj1.addrStr[ACTION_ACL_MSG], actObj1.lenStr[ACTION_ACL_MSG], GAME);
    3ade:	80 91 10 39 	lds	r24, 0x3910	; 0x803910 <actObj1.3956+0x24>
    3ae2:	90 91 11 39 	lds	r25, 0x3911	; 0x803911 <actObj1.3956+0x25>
    return 0;
}

//
void SetResponse(uint8_t number, uint16_t address, uint16_t length, uint8_t type){
    reactStr[0][number]=address;
    3ae6:	20 91 02 39 	lds	r18, 0x3902	; 0x803902 <actObj1.3956+0x16>
    3aea:	30 91 03 39 	lds	r19, 0x3903	; 0x803903 <actObj1.3956+0x17>
    3aee:	20 93 2f 39 	sts	0x392F, r18	; 0x80392f <reactStr+0x2>
    3af2:	30 93 30 39 	sts	0x3930, r19	; 0x803930 <reactStr+0x3>
    reactStr[1][number]=length;
    3af6:	80 93 6f 39 	sts	0x396F, r24	; 0x80396f <reactStr+0x42>
    3afa:	90 93 70 39 	sts	0x3970, r25	; 0x803970 <reactStr+0x43>
    reactStr[2][number]=type;
    3afe:	10 92 af 39 	sts	0x39AF, r1	; 0x8039af <reactStr+0x82>
    3b02:	10 92 b0 39 	sts	0x39B0, r1	; 0x8039b0 <reactStr+0x83>
                    SetResponse(elements++, actObj1.addrStr[ACTION_MSG], actObj1.lenStr[ACTION_MSG], GAME);
                    effect = actObj1.effect[2];
                    UpdateState(actObj1.byteField[ACTION_STATE]);
                } else {
                    SetResponse(elements++, actObj1.addrStr[ACTION_ACL_MSG], actObj1.lenStr[ACTION_ACL_MSG], GAME);
                    effect = actObj1.effect[1];
    3b06:	80 91 15 39 	lds	r24, 0x3915	; 0x803915 <actObj1.3956+0x29>
    3b0a:	90 e0       	ldi	r25, 0x00	; 0
    3b0c:	80 93 4a 38 	sts	0x384A, r24	; 0x80384a <effect>
    3b10:	90 93 4b 38 	sts	0x384B, r25	; 0x80384b <effect+0x1>
    3b14:	1c c0       	rjmp	.+56     	; 0x3b4e <ProcessInput+0xed0>
                }

            } else {
                PopulateObject(route[currDepth+1], &actObj1);
    3b16:	80 81       	ld	r24, Z
    3b18:	91 81       	ldd	r25, Z+1	; 0x01
    3b1a:	0e 94 fd 11 	call	0x23fa	; 0x23fa <PopulateObject>
    return 0;
}

//
void SetResponse(uint8_t number, uint16_t address, uint16_t length, uint8_t type){
    reactStr[0][number]=address;
    3b1e:	80 e6       	ldi	r24, 0x60	; 96
    3b20:	98 e7       	ldi	r25, 0x78	; 120
    3b22:	80 93 2f 39 	sts	0x392F, r24	; 0x80392f <reactStr+0x2>
    3b26:	90 93 30 39 	sts	0x3930, r25	; 0x803930 <reactStr+0x3>
    reactStr[1][number]=length;
    3b2a:	8d e4       	ldi	r24, 0x4D	; 77
    3b2c:	90 e0       	ldi	r25, 0x00	; 0
    3b2e:	80 93 6f 39 	sts	0x396F, r24	; 0x80396f <reactStr+0x42>
    3b32:	90 93 70 39 	sts	0x3970, r25	; 0x803970 <reactStr+0x43>
    reactStr[2][number]=type;
    3b36:	81 e0       	ldi	r24, 0x01	; 1
    3b38:	90 e0       	ldi	r25, 0x00	; 0
    3b3a:	80 93 af 39 	sts	0x39AF, r24	; 0x8039af <reactStr+0x82>
    3b3e:	90 93 b0 39 	sts	0x39B0, r25	; 0x8039b0 <reactStr+0x83>
                }

            } else {
                PopulateObject(route[currDepth+1], &actObj1);
                SetResponse(elements++, A_INCORRECT, L_INCORRECT, TEASER);
                PunishmentTime = getClock();
    3b42:	0e 94 56 0e 	call	0x1cac	; 0x1cac <getClock>
    3b46:	80 93 19 39 	sts	0x3919, r24	; 0x803919 <PunishmentTime>
    3b4a:	90 93 1a 39 	sts	0x391A, r25	; 0x80391a <PunishmentTime+0x1>
                    effect = actObj1.effect[1];
                }

            } else {
                PopulateObject(route[currDepth+1], &actObj1);
                SetResponse(elements++, A_INCORRECT, L_INCORRECT, TEASER);
    3b4e:	12 e0       	ldi	r17, 0x02	; 2
                PunishmentTime = getClock();
            }
            specialInput[0] = 0;
    3b50:	10 92 1c 39 	sts	0x391C, r1	; 0x80391c <specialInput>

        }
                    
        //Input handled
        if (specialInput[0]) responseList = elements; else responseList = SetStandardResponse(elements);
    3b54:	80 91 1c 39 	lds	r24, 0x391C	; 0x80391c <specialInput>
    3b58:	88 23       	and	r24, r24
    3b5a:	19 f0       	breq	.+6      	; 0x3b62 <ProcessInput+0xee4>
    3b5c:	10 93 2c 39 	sts	0x392C, r17	; 0x80392c <responseList>
    3b60:	8b c0       	rjmp	.+278    	; 0x3c78 <ProcessInput+0xffa>
    3b62:	81 2f       	mov	r24, r17
    3b64:	01 c0       	rjmp	.+2      	; 0x3b68 <ProcessInput+0xeea>

    } else {

        responseList = SetStandardResponse(1);
    3b66:	81 e0       	ldi	r24, 0x01	; 1
    3b68:	0e 94 81 11 	call	0x2302	; 0x2302 <SetStandardResponse>
    3b6c:	80 93 2c 39 	sts	0x392C, r24	; 0x80392c <responseList>
    3b70:	83 c0       	rjmp	.+262    	; 0x3c78 <ProcessInput+0xffa>
    return 0;
}

//
void SetResponse(uint8_t number, uint16_t address, uint16_t length, uint8_t type){
    reactStr[0][number]=address;
    3b72:	81 ed       	ldi	r24, 0xD1	; 209
    3b74:	99 e7       	ldi	r25, 0x79	; 121
    3b76:	80 93 2f 39 	sts	0x392F, r24	; 0x80392f <reactStr+0x2>
    3b7a:	90 93 30 39 	sts	0x3930, r25	; 0x803930 <reactStr+0x3>
    reactStr[1][number]=length;
    3b7e:	8a e1       	ldi	r24, 0x1A	; 26
    3b80:	90 e0       	ldi	r25, 0x00	; 0
    3b82:	45 c9       	rjmp	.-3446   	; 0x2e0e <ProcessInput+0x190>

        //Drop item if in inventory
        if (data[0] == 'd') {
            if ((inventory[0] == 0)&&(inventory[1] == 0)){
                SetResponse(elements++, A_EMPTYHANDS, L_EMPTYHANDS, TEASER);
            } else if (inputLen != 2) {
    3b84:	f2 e0       	ldi	r31, 0x02	; 2
    3b86:	ff 12       	cpse	r15, r31
    3b88:	ad c8       	rjmp	.-3750   	; 0x2ce4 <ProcessInput+0x66>
                SetResponse(elements++, A_NOTPOSSIBLE, L_NOTPOSSIBLE, TEASER);
            } else {
                for (uint8_t x=0; x<2; ++x) {
                    if (inventory[x]) {
                        if (CheckLetter(inventory[x], data[1])) {
    3b8a:	f3 01       	movw	r30, r6
    3b8c:	61 81       	ldd	r22, Z+1	; 0x01
    3b8e:	0e 94 76 12 	call	0x24ec	; 0x24ec <CheckLetter>
    3b92:	88 23       	and	r24, r24
    3b94:	09 f4       	brne	.+2      	; 0x3b98 <ProcessInput+0xf1a>
    3b96:	58 c0       	rjmp	.+176    	; 0x3c48 <ProcessInput+0xfca>
                SetResponse(elements++, A_EMPTYHANDS, L_EMPTYHANDS, TEASER);
            } else if (inputLen != 2) {
                SetResponse(elements++, A_NOTPOSSIBLE, L_NOTPOSSIBLE, TEASER);
            } else {
                for (uint8_t x=0; x<2; ++x) {
                    if (inventory[x]) {
    3b98:	00 e0       	ldi	r16, 0x00	; 0
    3b9a:	10 e0       	ldi	r17, 0x00	; 0
                        if (CheckLetter(inventory[x], data[1])) {
                            PopulateObject(inventory[x], &actObj1);
    3b9c:	00 0f       	add	r16, r16
    3b9e:	11 1f       	adc	r17, r17
    3ba0:	02 5b       	subi	r16, 0xB2	; 178
    3ba2:	17 4c       	sbci	r17, 0xC7	; 199
    3ba4:	6c ee       	ldi	r22, 0xEC	; 236
    3ba6:	78 e3       	ldi	r23, 0x38	; 56
    3ba8:	d8 01       	movw	r26, r16
    3baa:	8d 91       	ld	r24, X+
    3bac:	9c 91       	ld	r25, X
    3bae:	0e 94 fd 11 	call	0x23fa	; 0x23fa <PopulateObject>
    return 0;
}

//
void SetResponse(uint8_t number, uint16_t address, uint16_t length, uint8_t type){
    reactStr[0][number]=address;
    3bb2:	86 e9       	ldi	r24, 0x96	; 150
    3bb4:	97 e7       	ldi	r25, 0x77	; 119
    3bb6:	80 93 2f 39 	sts	0x392F, r24	; 0x80392f <reactStr+0x2>
    3bba:	90 93 30 39 	sts	0x3930, r25	; 0x803930 <reactStr+0x3>
    reactStr[1][number]=length;
    3bbe:	80 e1       	ldi	r24, 0x10	; 16
    3bc0:	90 e0       	ldi	r25, 0x00	; 0
    3bc2:	80 93 6f 39 	sts	0x396F, r24	; 0x80396f <reactStr+0x42>
    3bc6:	90 93 70 39 	sts	0x3970, r25	; 0x803970 <reactStr+0x43>
    reactStr[2][number]=type;
    3bca:	81 e0       	ldi	r24, 0x01	; 1
    3bcc:	90 e0       	ldi	r25, 0x00	; 0
    3bce:	80 93 af 39 	sts	0x39AF, r24	; 0x8039af <reactStr+0x82>
    3bd2:	90 93 b0 39 	sts	0x39B0, r25	; 0x8039b0 <reactStr+0x83>
                for (uint8_t x=0; x<2; ++x) {
                    if (inventory[x]) {
                        if (CheckLetter(inventory[x], data[1])) {
                            PopulateObject(inventory[x], &actObj1);
                            SetResponse(elements++, A_DROPPING, L_DROPPING, TEASER);
                            SetResponse(elements++, actObj1.addrStr[NAME], actObj1.lenStr[NAME], GAME);
    3bd6:	20 91 06 39 	lds	r18, 0x3906	; 0x803906 <actObj1.3956+0x1a>
    3bda:	30 91 07 39 	lds	r19, 0x3907	; 0x803907 <actObj1.3956+0x1b>
    return 0;
}

//
void SetResponse(uint8_t number, uint16_t address, uint16_t length, uint8_t type){
    reactStr[0][number]=address;
    3bde:	40 91 f8 38 	lds	r20, 0x38F8	; 0x8038f8 <actObj1.3956+0xc>
    3be2:	50 91 f9 38 	lds	r21, 0x38F9	; 0x8038f9 <actObj1.3956+0xd>
    3be6:	40 93 31 39 	sts	0x3931, r20	; 0x803931 <reactStr+0x4>
    3bea:	50 93 32 39 	sts	0x3932, r21	; 0x803932 <reactStr+0x5>
    reactStr[1][number]=length;
    3bee:	20 93 71 39 	sts	0x3971, r18	; 0x803971 <reactStr+0x44>
    3bf2:	30 93 72 39 	sts	0x3972, r19	; 0x803972 <reactStr+0x45>
    reactStr[2][number]=type;
    3bf6:	10 92 b1 39 	sts	0x39B1, r1	; 0x8039b1 <reactStr+0x84>
    3bfa:	10 92 b2 39 	sts	0x39B2, r1	; 0x8039b2 <reactStr+0x85>
    return 0;
}

//
void SetResponse(uint8_t number, uint16_t address, uint16_t length, uint8_t type){
    reactStr[0][number]=address;
    3bfe:	29 e5       	ldi	r18, 0x59	; 89
    3c00:	3a e7       	ldi	r19, 0x7A	; 122
    3c02:	20 93 33 39 	sts	0x3933, r18	; 0x803933 <reactStr+0x6>
    3c06:	30 93 34 39 	sts	0x3934, r19	; 0x803934 <reactStr+0x7>
    reactStr[1][number]=length;
    3c0a:	22 e0       	ldi	r18, 0x02	; 2
    3c0c:	30 e0       	ldi	r19, 0x00	; 0
    3c0e:	20 93 73 39 	sts	0x3973, r18	; 0x803973 <reactStr+0x46>
    3c12:	30 93 74 39 	sts	0x3974, r19	; 0x803974 <reactStr+0x47>
    reactStr[2][number]=type;
    3c16:	80 93 b3 39 	sts	0x39B3, r24	; 0x8039b3 <reactStr+0x86>
    3c1a:	90 93 b4 39 	sts	0x39B4, r25	; 0x8039b4 <reactStr+0x87>
    return 0;
}

//
void SetResponse(uint8_t number, uint16_t address, uint16_t length, uint8_t type){
    reactStr[0][number]=address;
    3c1e:	29 e5       	ldi	r18, 0x59	; 89
    3c20:	37 e7       	ldi	r19, 0x77	; 119
    3c22:	20 93 35 39 	sts	0x3935, r18	; 0x803935 <reactStr+0x8>
    3c26:	30 93 36 39 	sts	0x3936, r19	; 0x803936 <reactStr+0x9>
    reactStr[1][number]=length;
    3c2a:	2d e3       	ldi	r18, 0x3D	; 61
    3c2c:	30 e0       	ldi	r19, 0x00	; 0
    3c2e:	20 93 75 39 	sts	0x3975, r18	; 0x803975 <reactStr+0x48>
    3c32:	30 93 76 39 	sts	0x3976, r19	; 0x803976 <reactStr+0x49>
    reactStr[2][number]=type;
    3c36:	80 93 b5 39 	sts	0x39B5, r24	; 0x8039b5 <reactStr+0x88>
    3c3a:	90 93 b6 39 	sts	0x39B6, r25	; 0x8039b6 <reactStr+0x89>
                            PopulateObject(inventory[x], &actObj1);
                            SetResponse(elements++, A_DROPPING, L_DROPPING, TEASER);
                            SetResponse(elements++, actObj1.addrStr[NAME], actObj1.lenStr[NAME], GAME);
                            SetResponse(elements++, A_LF, 2, TEASER);
                            SetResponse(elements++, A_RETURNING, L_RETURNING, TEASER);
                            inventory[x] = 0;
    3c3e:	f8 01       	movw	r30, r16
    3c40:	10 82       	st	Z, r1
    3c42:	11 82       	std	Z+1, r1	; 0x01
                        if (CheckLetter(inventory[x], data[1])) {
                            PopulateObject(inventory[x], &actObj1);
                            SetResponse(elements++, A_DROPPING, L_DROPPING, TEASER);
                            SetResponse(elements++, actObj1.addrStr[NAME], actObj1.lenStr[NAME], GAME);
                            SetResponse(elements++, A_LF, 2, TEASER);
                            SetResponse(elements++, A_RETURNING, L_RETURNING, TEASER);
    3c44:	15 e0       	ldi	r17, 0x05	; 5
                            inventory[x] = 0;
                            break;
    3c46:	86 cf       	rjmp	.-244    	; 0x3b54 <ProcessInput+0xed6>
                SetResponse(elements++, A_EMPTYHANDS, L_EMPTYHANDS, TEASER);
            } else if (inputLen != 2) {
                SetResponse(elements++, A_NOTPOSSIBLE, L_NOTPOSSIBLE, TEASER);
            } else {
                for (uint8_t x=0; x<2; ++x) {
                    if (inventory[x]) {
    3c48:	80 91 50 38 	lds	r24, 0x3850	; 0x803850 <inventory+0x2>
    3c4c:	90 91 51 38 	lds	r25, 0x3851	; 0x803851 <inventory+0x3>
    3c50:	00 97       	sbiw	r24, 0x00	; 0
    3c52:	49 f0       	breq	.+18     	; 0x3c66 <ProcessInput+0xfe8>
                        if (CheckLetter(inventory[x], data[1])) {
    3c54:	f3 01       	movw	r30, r6
    3c56:	61 81       	ldd	r22, Z+1	; 0x01
    3c58:	0e 94 76 12 	call	0x24ec	; 0x24ec <CheckLetter>
    3c5c:	88 23       	and	r24, r24
    3c5e:	19 f0       	breq	.+6      	; 0x3c66 <ProcessInput+0xfe8>
                SetResponse(elements++, A_EMPTYHANDS, L_EMPTYHANDS, TEASER);
            } else if (inputLen != 2) {
                SetResponse(elements++, A_NOTPOSSIBLE, L_NOTPOSSIBLE, TEASER);
            } else {
                for (uint8_t x=0; x<2; ++x) {
                    if (inventory[x]) {
    3c60:	01 e0       	ldi	r16, 0x01	; 1
    3c62:	10 e0       	ldi	r17, 0x00	; 0
    return 0;
}

//
void SetResponse(uint8_t number, uint16_t address, uint16_t length, uint8_t type){
    reactStr[0][number]=address;
    3c64:	9b cf       	rjmp	.-202    	; 0x3b9c <ProcessInput+0xf1e>
    3c66:	81 e6       	ldi	r24, 0x61	; 97
    3c68:	99 e7       	ldi	r25, 0x79	; 121
    3c6a:	80 93 2f 39 	sts	0x392F, r24	; 0x80392f <reactStr+0x2>
    3c6e:	90 93 30 39 	sts	0x3930, r25	; 0x803930 <reactStr+0x3>
    reactStr[1][number]=length;
    3c72:	81 e2       	ldi	r24, 0x21	; 33
    3c74:	90 e0       	ldi	r25, 0x00	; 0
    } else {

        responseList = SetStandardResponse(1);
    }

    data[0] = 0;
    3c76:	cb c8       	rjmp	.-3690   	; 0x2e0e <ProcessInput+0x190>
    3c78:	f3 01       	movw	r30, r6
    serRxDone = 0;
    3c7a:	10 82       	st	Z, r1
    3c7c:	10 92 55 38 	sts	0x3855, r1	; 0x803855 <serRxDone>
    RXCNT = 0;    
    return 0;
}
    3c80:	1d ba       	out	0x1d, r1	; 29
    3c82:	80 e0       	ldi	r24, 0x00	; 0
    3c84:	28 96       	adiw	r28, 0x08	; 8
    3c86:	ee e0       	ldi	r30, 0x0E	; 14
    3c88:	37 c1       	rjmp	.+622    	; 0x3ef8 <__epilogue_restores__+0x8>

00003c8a <TextAdventure>:


//MAIN GAME STRUCTURE
uint8_t TextAdventure(){
    3c8a:	cf 93       	push	r28
    static uint8_t serInput[RXLEN];
    uint16_t PunishmentCount;
    
    /* Count down PunishmentTime on WING LEDs */
    if (PunishmentTime != 0) {
    3c8c:	80 91 19 39 	lds	r24, 0x3919	; 0x803919 <PunishmentTime>
    3c90:	90 91 1a 39 	lds	r25, 0x391A	; 0x80391a <PunishmentTime+0x1>
    3c94:	89 2b       	or	r24, r25
    3c96:	09 f1       	breq	.+66     	; 0x3cda <TextAdventure+0x50>
        PunishmentCount = getClock();
    3c98:	0e 94 56 0e 	call	0x1cac	; 0x1cac <getClock>
        if (PunishmentCount < PunishmentTime)
    3c9c:	20 91 19 39 	lds	r18, 0x3919	; 0x803919 <PunishmentTime>
    3ca0:	30 91 1a 39 	lds	r19, 0x391A	; 0x80391a <PunishmentTime+0x1>
    3ca4:	82 17       	cp	r24, r18
    3ca6:	93 07       	cpc	r25, r19
    3ca8:	08 f4       	brcc	.+2      	; 0x3cac <TextAdventure+0x22>
            PunishmentCount += 256 * 60;
    3caa:	94 5c       	subi	r25, 0xC4	; 196
        PunishmentCount -= PunishmentTime;
    3cac:	ac 01       	movw	r20, r24
    3cae:	42 1b       	sub	r20, r18
    3cb0:	53 0b       	sbc	r21, r19
    3cb2:	9a 01       	movw	r18, r20
        if (PunishmentCount > 10) {
    3cb4:	4b 30       	cpi	r20, 0x0B	; 11
    3cb6:	51 05       	cpc	r21, r1
    3cb8:	30 f0       	brcs	.+12     	; 0x3cc6 <TextAdventure+0x3c>
            PunishmentTime = 0;
    3cba:	10 92 19 39 	sts	0x3919, r1	; 0x803919 <PunishmentTime>
    3cbe:	10 92 1a 39 	sts	0x391A, r1	; 0x80391a <PunishmentTime+0x1>
            PunishmentCount = 10;
    3cc2:	2a e0       	ldi	r18, 0x0A	; 10
    3cc4:	30 e0       	ldi	r19, 0x00	; 0
        }
        if (gameNow == TEXT ) {
    3cc6:	80 91 4c 38 	lds	r24, 0x384C	; 0x80384c <gameNow>
    3cca:	81 11       	cpse	r24, r1
    3ccc:	06 c0       	rjmp	.+12     	; 0x3cda <TextAdventure+0x50>
            WingBar(10-PunishmentCount,5-PunishmentCount);
    3cce:	65 e0       	ldi	r22, 0x05	; 5
    3cd0:	62 1b       	sub	r22, r18
    3cd2:	8a e0       	ldi	r24, 0x0A	; 10
    3cd4:	82 1b       	sub	r24, r18
    3cd6:	0e 94 65 0a 	call	0x14ca	; 0x14ca <WingBar>
        }
    }

    //Still sending data to serial?
    if (CheckSend()) return 1;
    3cda:	0e 94 4e 13 	call	0x269c	; 0x269c <CheckSend>
    3cde:	88 23       	and	r24, r24
    3ce0:	11 f0       	breq	.+4      	; 0x3ce6 <TextAdventure+0x5c>
    3ce2:	c1 e0       	ldi	r28, 0x01	; 1
    3ce4:	18 c0       	rjmp	.+48     	; 0x3d16 <TextAdventure+0x8c>

    //Not sending? Process next response part to send, if any.
    if (CheckResponse()) return 1;        
    3ce6:	0e 94 a4 13 	call	0x2748	; 0x2748 <CheckResponse>
    3cea:	c8 2f       	mov	r28, r24
    3cec:	81 11       	cpse	r24, r1
    3cee:	f9 cf       	rjmp	.-14     	; 0x3ce2 <TextAdventure+0x58>

    if (PunishmentTime == 0) {
    3cf0:	80 91 19 39 	lds	r24, 0x3919	; 0x803919 <PunishmentTime>
    3cf4:	90 91 1a 39 	lds	r25, 0x391A	; 0x80391a <PunishmentTime+0x1>
    3cf8:	89 2b       	or	r24, r25
    3cfa:	69 f4       	brne	.+26     	; 0x3d16 <TextAdventure+0x8c>
        //No responses to send, check if there is user input.
        if (CheckInput(&serInput[0])) return 2; 
    3cfc:	80 e8       	ldi	r24, 0x80	; 128
    3cfe:	98 e3       	ldi	r25, 0x38	; 56
    3d00:	0e 94 e4 13 	call	0x27c8	; 0x27c8 <CheckInput>
    3d04:	c8 2f       	mov	r28, r24
    3d06:	81 11       	cpse	r24, r1
    3d08:	05 c0       	rjmp	.+10     	; 0x3d14 <TextAdventure+0x8a>

        //Input found, process and save (changes only)
        ProcessInput(&serInput[0]);
    3d0a:	80 e8       	ldi	r24, 0x80	; 128
    3d0c:	98 e3       	ldi	r25, 0x38	; 56
    3d0e:	0e 94 3f 16 	call	0x2c7e	; 0x2c7e <ProcessInput>
    3d12:	01 c0       	rjmp	.+2      	; 0x3d16 <TextAdventure+0x8c>
    //Not sending? Process next response part to send, if any.
    if (CheckResponse()) return 1;        

    if (PunishmentTime == 0) {
        //No responses to send, check if there is user input.
        if (CheckInput(&serInput[0])) return 2; 
    3d14:	c2 e0       	ldi	r28, 0x02	; 2
        //Input found, process and save (changes only)
        ProcessInput(&serInput[0]);
    }

    return 0;
}
    3d16:	8c 2f       	mov	r24, r28
    3d18:	cf 91       	pop	r28
    3d1a:	08 95       	ret

00003d1c <main>:


//This is where it begins, inits first and main program in while(1) loop.
int main(void)
{
    Setup();
    3d1c:	0e 94 93 03 	call	0x726	; 0x726 <Setup>
    LoadGameState();
    3d20:	0e 94 c5 09 	call	0x138a	; 0x138a <LoadGameState>
    gameState[0]|=1;
    3d24:	80 91 73 3a 	lds	r24, 0x3A73	; 0x803a73 <gameState>
    3d28:	81 60       	ori	r24, 0x01	; 1
    3d2a:	80 93 73 3a 	sts	0x3A73, r24	; 0x803a73 <gameState>

    //Check if fine
    if (SelfTest()) {
    3d2e:	0e 94 7d 0e 	call	0x1cfa	; 0x1cfa <SelfTest>
    3d32:	88 23       	and	r24, r24
    3d34:	21 f0       	breq	.+8      	; 0x3d3e <main+0x22>
        WipeAfterBoot(1);
    3d36:	81 e0       	ldi	r24, 0x01	; 1
    3d38:	0e 94 89 09 	call	0x1312	; 0x1312 <WipeAfterBoot>
    3d3c:	ff cf       	rjmp	.-2      	; 0x3d3c <main+0x20>
    3d3e:	c0 91 40 bf 	lds	r28, 0xBF40	; 0x80bf40 <__bss_end+0x8419>
                if (buttonState != 0xff) {
                    iLED[CAT] = dimValue;
                    if ((effect & 0xffe0)==0)
                        effect = 0x13f + (buttonState << 5);
                } else {
                    iLED[CAT] = 0;
    3d42:	d0 e0       	ldi	r29, 0x00	; 0
    3d44:	c8 52       	subi	r28, 0x28	; 40
    3d46:	d5 4c       	sbci	r29, 0xC5	; 197
                if (lightsensorSum>>6 < 128) {
                    dimValue = lightsensorSum>>5;
                    if (dimValue < 8)
                        dimValue = 8;
                } else {
                    dimValue = 255;
    3d48:	1f ef       	ldi	r17, 0xFF	; 255
                lightsensorSum -= (lightsensorSum>>6);
                lightsensorSum += adcPhot>>4;
                if (lightsensorSum>>6 < 128) {
                    dimValue = lightsensorSum>>5;
                    if (dimValue < 8)
                        dimValue = 8;
    3d4a:	08 e0       	ldi	r16, 0x08	; 8

    //Startup
    } else {

        while (TRUE) {
            if (GenerateAudio()) {
    3d4c:	0e 94 6f 0c 	call	0x18de	; 0x18de <GenerateAudio>
    3d50:	88 23       	and	r24, r24
    3d52:	e1 f3       	breq	.-8      	; 0x3d4c <main+0x30>

                //Some sound effects and button readout 
                lastButtonState = buttonState;
    3d54:	80 91 08 38 	lds	r24, 0x3808	; 0x803808 <buttonState>
    3d58:	80 93 07 38 	sts	0x3807, r24	; 0x803807 <lastButtonState>
                buttonState = CheckButtons();
    3d5c:	0e 94 15 08 	call	0x102a	; 0x102a <CheckButtons>
    3d60:	80 93 08 38 	sts	0x3808, r24	; 0x803808 <buttonState>
                if (buttonState != 0xff) {
    3d64:	8f 3f       	cpi	r24, 0xFF	; 255
    3d66:	a9 f0       	breq	.+42     	; 0x3d92 <main+0x76>
                    iLED[CAT] = dimValue;
    3d68:	90 91 0c 38 	lds	r25, 0x380C	; 0x80380c <dimValue>
    3d6c:	98 83       	st	Y, r25
                    if ((effect & 0xffe0)==0)
    3d6e:	20 91 4a 38 	lds	r18, 0x384A	; 0x80384a <effect>
    3d72:	30 91 4b 38 	lds	r19, 0x384B	; 0x80384b <effect+0x1>
    3d76:	20 7e       	andi	r18, 0xE0	; 224
    3d78:	23 2b       	or	r18, r19
    3d7a:	61 f4       	brne	.+24     	; 0x3d94 <main+0x78>
                        effect = 0x13f + (buttonState << 5);
    3d7c:	20 e2       	ldi	r18, 0x20	; 32
    3d7e:	82 9f       	mul	r24, r18
    3d80:	c0 01       	movw	r24, r0
    3d82:	11 24       	eor	r1, r1
    3d84:	81 5c       	subi	r24, 0xC1	; 193
    3d86:	9e 4f       	sbci	r25, 0xFE	; 254
    3d88:	80 93 4a 38 	sts	0x384A, r24	; 0x80384a <effect>
    3d8c:	90 93 4b 38 	sts	0x384B, r25	; 0x80384b <effect+0x1>
    3d90:	01 c0       	rjmp	.+2      	; 0x3d94 <main+0x78>
                } else {
                    iLED[CAT] = 0;
    3d92:	18 82       	st	Y, r1
                }
                --buttonMark;
    3d94:	80 91 52 38 	lds	r24, 0x3852	; 0x803852 <buttonMark>
    3d98:	81 50       	subi	r24, 0x01	; 1
    3d9a:	80 93 52 38 	sts	0x3852, r24	; 0x803852 <buttonMark>

                //Switch between audio port input (badge to badge comms) and onboard temperature sensor
                if (VREF_CTRLA == 0x12) SelectAuIn(); else SelectTSens();
    3d9e:	80 91 a0 00 	lds	r24, 0x00A0	; 0x8000a0 <__TEXT_REGION_LENGTH__+0x7000a0>
    3da2:	82 31       	cpi	r24, 0x12	; 18
    3da4:	19 f4       	brne	.+6      	; 0x3dac <main+0x90>
    3da6:	0e 94 06 08 	call	0x100c	; 0x100c <SelectAuIn>
    3daa:	02 c0       	rjmp	.+4      	; 0x3db0 <main+0x94>
    3dac:	0e 94 f7 07 	call	0xfee	; 0xfee <SelectTSens>

                //Victory dance when the game is completed
                if ((gameNow == TEXT) &&
    3db0:	80 91 4c 38 	lds	r24, 0x384C	; 0x80384c <gameNow>
    3db4:	81 11       	cpse	r24, r1
    3db6:	19 c0       	rjmp	.+50     	; 0x3dea <main+0xce>
    3db8:	80 91 7d 3a 	lds	r24, 0x3A7D	; 0x803a7d <gameState+0xa>
    3dbc:	81 11       	cpse	r24, r1
    3dbe:	15 c0       	rjmp	.+42     	; 0x3dea <main+0xce>
                     (gameState[10] == 0) &&    // No "all ones" EEPROM failure (due to glitching etc.) detected
                     CheckState(122) &&         // Finished BastetDictates
    3dc0:	8a e7       	ldi	r24, 0x7A	; 122
    3dc2:	0e 94 6a 09 	call	0x12d4	; 0x12d4 <CheckState>
                //Switch between audio port input (badge to badge comms) and onboard temperature sensor
                if (VREF_CTRLA == 0x12) SelectAuIn(); else SelectTSens();

                //Victory dance when the game is completed
                if ((gameNow == TEXT) &&
                     (gameState[10] == 0) &&    // No "all ones" EEPROM failure (due to glitching etc.) detected
    3dc6:	88 23       	and	r24, r24
    3dc8:	81 f0       	breq	.+32     	; 0x3dea <main+0xce>
                     CheckState(122) &&         // Finished BastetDictates
                     CheckState(123) &&         // Finished Lanyard
    3dca:	8b e7       	ldi	r24, 0x7B	; 123
    3dcc:	0e 94 6a 09 	call	0x12d4	; 0x12d4 <CheckState>
                if (VREF_CTRLA == 0x12) SelectAuIn(); else SelectTSens();

                //Victory dance when the game is completed
                if ((gameNow == TEXT) &&
                     (gameState[10] == 0) &&    // No "all ones" EEPROM failure (due to glitching etc.) detected
                     CheckState(122) &&         // Finished BastetDictates
    3dd0:	88 23       	and	r24, r24
    3dd2:	59 f0       	breq	.+22     	; 0x3dea <main+0xce>
                     CheckState(123) &&         // Finished Lanyard
                     CheckState(124) &&         // Connected to 3 others
    3dd4:	8c e7       	ldi	r24, 0x7C	; 124
    3dd6:	0e 94 6a 09 	call	0x12d4	; 0x12d4 <CheckState>

                //Victory dance when the game is completed
                if ((gameNow == TEXT) &&
                     (gameState[10] == 0) &&    // No "all ones" EEPROM failure (due to glitching etc.) detected
                     CheckState(122) &&         // Finished BastetDictates
                     CheckState(123) &&         // Finished Lanyard
    3dda:	88 23       	and	r24, r24
    3ddc:	31 f0       	breq	.+12     	; 0x3dea <main+0xce>
                     CheckState(124) &&         // Connected to 3 others
                     CheckState(127)) {         // Finished the text adventure (implies state 125 and 126)
    3dde:	8f e7       	ldi	r24, 0x7F	; 127
    3de0:	0e 94 6a 09 	call	0x12d4	; 0x12d4 <CheckState>
                //Victory dance when the game is completed
                if ((gameNow == TEXT) &&
                     (gameState[10] == 0) &&    // No "all ones" EEPROM failure (due to glitching etc.) detected
                     CheckState(122) &&         // Finished BastetDictates
                     CheckState(123) &&         // Finished Lanyard
                     CheckState(124) &&         // Connected to 3 others
    3de4:	81 11       	cpse	r24, r1
                     CheckState(127)) {         // Finished the text adventure (implies state 125 and 126)
                
                    //Completed!!!
                    VictoryDance();
    3de6:	0e 94 b6 0a 	call	0x156c	; 0x156c <VictoryDance>
                }

                //Light effects
                GenerateBlinks();
    3dea:	0e 94 df 0a 	call	0x15be	; 0x15be <GenerateBlinks>

                //Main game, to complete: Finish sub-game MagnetMaze and MakeFriends too.
                TextAdventure();
    3dee:	4d df       	rcall	.-358    	; 0x3c8a <TextAdventure>

                //Other games & user interaction checks
                MagnetMaze();
    3df0:	0e 94 96 02 	call	0x52c	; 0x52c <MagnetMaze>
                LanyardCode();
    3df4:	0e 94 99 01 	call	0x332	; 0x332 <LanyardCode>
                BastetDictates();
    3df8:	0e 94 5e 0f 	call	0x1ebc	; 0x1ebc <BastetDictates>
                MakeFriends();
    3dfc:	0e 94 8d 00 	call	0x11a	; 0x11a <MakeFriends>

                //Save progress
                SaveGameState();
    3e00:	0e 94 c2 08 	call	0x1184	; 0x1184 <SaveGameState>

                //Check light sensor status (added hysteresis to preserve writing cycles to internal EEPROM)
                if (adcPhot < 10) UpdateState(116);
    3e04:	80 91 d1 3a 	lds	r24, 0x3AD1	; 0x803ad1 <adcPhot>
    3e08:	90 91 d2 3a 	lds	r25, 0x3AD2	; 0x803ad2 <adcPhot+0x1>
    3e0c:	0a 97       	sbiw	r24, 0x0a	; 10
    3e0e:	18 f4       	brcc	.+6      	; 0x3e16 <main+0xfa>
    3e10:	84 e7       	ldi	r24, 0x74	; 116
    3e12:	0e 94 49 09 	call	0x1292	; 0x1292 <UpdateState>
                if (adcPhot > 100) UpdateState(128+116);
    3e16:	80 91 d1 3a 	lds	r24, 0x3AD1	; 0x803ad1 <adcPhot>
    3e1a:	90 91 d2 3a 	lds	r25, 0x3AD2	; 0x803ad2 <adcPhot+0x1>
    3e1e:	85 36       	cpi	r24, 0x65	; 101
    3e20:	91 05       	cpc	r25, r1
    3e22:	18 f0       	brcs	.+6      	; 0x3e2a <main+0x10e>
    3e24:	84 ef       	ldi	r24, 0xF4	; 244
    3e26:	0e 94 49 09 	call	0x1292	; 0x1292 <UpdateState>

                lightsensorSum -= (lightsensorSum>>6);
    3e2a:	20 91 0a 38 	lds	r18, 0x380A	; 0x80380a <lightsensorSum>
    3e2e:	30 91 0b 38 	lds	r19, 0x380B	; 0x80380b <lightsensorSum+0x1>
    3e32:	80 91 0a 38 	lds	r24, 0x380A	; 0x80380a <lightsensorSum>
    3e36:	90 91 0b 38 	lds	r25, 0x380B	; 0x80380b <lightsensorSum+0x1>
    3e3a:	46 e0       	ldi	r20, 0x06	; 6
    3e3c:	36 95       	lsr	r19
    3e3e:	27 95       	ror	r18
    3e40:	4a 95       	dec	r20
    3e42:	e1 f7       	brne	.-8      	; 0x3e3c <main+0x120>
    3e44:	82 1b       	sub	r24, r18
    3e46:	93 0b       	sbc	r25, r19
    3e48:	80 93 0a 38 	sts	0x380A, r24	; 0x80380a <lightsensorSum>
    3e4c:	90 93 0b 38 	sts	0x380B, r25	; 0x80380b <lightsensorSum+0x1>
                lightsensorSum += adcPhot>>4;
    3e50:	80 91 d1 3a 	lds	r24, 0x3AD1	; 0x803ad1 <adcPhot>
    3e54:	90 91 d2 3a 	lds	r25, 0x3AD2	; 0x803ad2 <adcPhot+0x1>
    3e58:	20 91 0a 38 	lds	r18, 0x380A	; 0x80380a <lightsensorSum>
    3e5c:	30 91 0b 38 	lds	r19, 0x380B	; 0x80380b <lightsensorSum+0x1>
    3e60:	54 e0       	ldi	r21, 0x04	; 4
    3e62:	96 95       	lsr	r25
    3e64:	87 95       	ror	r24
    3e66:	5a 95       	dec	r21
    3e68:	e1 f7       	brne	.-8      	; 0x3e62 <main+0x146>
    3e6a:	82 0f       	add	r24, r18
    3e6c:	93 1f       	adc	r25, r19
    3e6e:	80 93 0a 38 	sts	0x380A, r24	; 0x80380a <lightsensorSum>
    3e72:	90 93 0b 38 	sts	0x380B, r25	; 0x80380b <lightsensorSum+0x1>
                if (lightsensorSum>>6 < 128) {
    3e76:	80 91 0a 38 	lds	r24, 0x380A	; 0x80380a <lightsensorSum>
    3e7a:	90 91 0b 38 	lds	r25, 0x380B	; 0x80380b <lightsensorSum+0x1>
    3e7e:	81 15       	cp	r24, r1
    3e80:	90 42       	sbci	r25, 0x20	; 32
    3e82:	90 f4       	brcc	.+36     	; 0x3ea8 <main+0x18c>
                    dimValue = lightsensorSum>>5;
    3e84:	80 91 0a 38 	lds	r24, 0x380A	; 0x80380a <lightsensorSum>
    3e88:	90 91 0b 38 	lds	r25, 0x380B	; 0x80380b <lightsensorSum+0x1>
    3e8c:	25 e0       	ldi	r18, 0x05	; 5
    3e8e:	96 95       	lsr	r25
    3e90:	87 95       	ror	r24
    3e92:	2a 95       	dec	r18
    3e94:	e1 f7       	brne	.-8      	; 0x3e8e <main+0x172>
    3e96:	80 93 0c 38 	sts	0x380C, r24	; 0x80380c <dimValue>
                    if (dimValue < 8)
    3e9a:	80 91 0c 38 	lds	r24, 0x380C	; 0x80380c <dimValue>
    3e9e:	88 30       	cpi	r24, 0x08	; 8
    3ea0:	28 f4       	brcc	.+10     	; 0x3eac <main+0x190>
                        dimValue = 8;
    3ea2:	00 93 0c 38 	sts	0x380C, r16	; 0x80380c <dimValue>
    3ea6:	02 c0       	rjmp	.+4      	; 0x3eac <main+0x190>
                } else {
                    dimValue = 255;
    3ea8:	10 93 0c 38 	sts	0x380C, r17	; 0x80380c <dimValue>
                }

                //Check temperature
                HotSummer();
    3eac:	0e 94 03 0a 	call	0x1406	; 0x1406 <HotSummer>
    3eb0:	4d cf       	rjmp	.-358    	; 0x3d4c <main+0x30>

00003eb2 <__tablejump2__>:
    3eb2:	ee 0f       	add	r30, r30
    3eb4:	ff 1f       	adc	r31, r31
    3eb6:	05 90       	lpm	r0, Z+
    3eb8:	f4 91       	lpm	r31, Z
    3eba:	e0 2d       	mov	r30, r0
    3ebc:	09 94       	ijmp

00003ebe <__prologue_saves__>:
    3ebe:	2f 92       	push	r2
    3ec0:	3f 92       	push	r3
    3ec2:	4f 92       	push	r4
    3ec4:	5f 92       	push	r5
    3ec6:	6f 92       	push	r6
    3ec8:	7f 92       	push	r7
    3eca:	8f 92       	push	r8
    3ecc:	9f 92       	push	r9
    3ece:	af 92       	push	r10
    3ed0:	bf 92       	push	r11
    3ed2:	cf 92       	push	r12
    3ed4:	df 92       	push	r13
    3ed6:	ef 92       	push	r14
    3ed8:	ff 92       	push	r15
    3eda:	0f 93       	push	r16
    3edc:	1f 93       	push	r17
    3ede:	cf 93       	push	r28
    3ee0:	df 93       	push	r29
    3ee2:	cd b7       	in	r28, 0x3d	; 61
    3ee4:	de b7       	in	r29, 0x3e	; 62
    3ee6:	ca 1b       	sub	r28, r26
    3ee8:	db 0b       	sbc	r29, r27
    3eea:	cd bf       	out	0x3d, r28	; 61
    3eec:	de bf       	out	0x3e, r29	; 62
    3eee:	09 94       	ijmp

00003ef0 <__epilogue_restores__>:
    3ef0:	2a 88       	ldd	r2, Y+18	; 0x12
    3ef2:	39 88       	ldd	r3, Y+17	; 0x11
    3ef4:	48 88       	ldd	r4, Y+16	; 0x10
    3ef6:	5f 84       	ldd	r5, Y+15	; 0x0f
    3ef8:	6e 84       	ldd	r6, Y+14	; 0x0e
    3efa:	7d 84       	ldd	r7, Y+13	; 0x0d
    3efc:	8c 84       	ldd	r8, Y+12	; 0x0c
    3efe:	9b 84       	ldd	r9, Y+11	; 0x0b
    3f00:	aa 84       	ldd	r10, Y+10	; 0x0a
    3f02:	b9 84       	ldd	r11, Y+9	; 0x09
    3f04:	c8 84       	ldd	r12, Y+8	; 0x08
    3f06:	df 80       	ldd	r13, Y+7	; 0x07
    3f08:	ee 80       	ldd	r14, Y+6	; 0x06
    3f0a:	fd 80       	ldd	r15, Y+5	; 0x05
    3f0c:	0c 81       	ldd	r16, Y+4	; 0x04
    3f0e:	1b 81       	ldd	r17, Y+3	; 0x03
    3f10:	aa 81       	ldd	r26, Y+2	; 0x02
    3f12:	b9 81       	ldd	r27, Y+1	; 0x01
    3f14:	ce 0f       	add	r28, r30
    3f16:	d1 1d       	adc	r29, r1
    3f18:	cd bf       	out	0x3d, r28	; 61
    3f1a:	de bf       	out	0x3e, r29	; 62
    3f1c:	ed 01       	movw	r28, r26
    3f1e:	08 95       	ret

00003f20 <_exit>:
    3f20:	f8 94       	cli

00003f22 <__stop_program>:
    3f22:	ff cf       	rjmp	.-2      	; 0x3f22 <__stop_program>
