
ISR_IO.elf:     file format elf32-avr

Sections:
Idx Name          Size      VMA       LMA       File off  Algn
  0 .data         00000032  00803800  00003fbe  00004072  2**0
                  CONTENTS, ALLOC, LOAD, DATA
  1 .text         00003f02  00000000  00000000  000000b4  2**1
                  CONTENTS, ALLOC, LOAD, READONLY, CODE
  2 .rodata       000000bc  0000bf02  00003f02  00003fb6  2**0
                  CONTENTS, ALLOC, LOAD, READONLY, DATA
  3 .bss          000002e2  00803832  00803832  000040a4  2**0
                  ALLOC
  4 .comment      00000030  00000000  00000000  000040a4  2**0
                  CONTENTS, READONLY
  5 .note.gnu.avr.deviceinfo 00000040  00000000  00000000  000040d4  2**2
                  CONTENTS, READONLY
  6 .debug_aranges 00000338  00000000  00000000  00004114  2**0
                  CONTENTS, READONLY, DEBUGGING
  7 .debug_info   00006c3d  00000000  00000000  0000444c  2**0
                  CONTENTS, READONLY, DEBUGGING
  8 .debug_abbrev 000028a2  00000000  00000000  0000b089  2**0
                  CONTENTS, READONLY, DEBUGGING
  9 .debug_line   00003d97  00000000  00000000  0000d92b  2**0
                  CONTENTS, READONLY, DEBUGGING
 10 .debug_frame  000009f8  00000000  00000000  000116c4  2**2
                  CONTENTS, READONLY, DEBUGGING
 11 .debug_str    00001a8f  00000000  00000000  000120bc  2**0
                  CONTENTS, READONLY, DEBUGGING
 12 .debug_loc    00004178  00000000  00000000  00013b4b  2**0
                  CONTENTS, READONLY, DEBUGGING
 13 .debug_ranges 000003a8  00000000  00000000  00017cc3  2**0
                  CONTENTS, READONLY, DEBUGGING

Disassembly of section .text:

00000000 <__vectors>:
       0:	46 c0       	rjmp	.+140    	; 0x8e <__ctors_end>
       2:	00 00       	nop
       4:	61 c0       	rjmp	.+194    	; 0xc8 <__bad_interrupt>
       6:	00 00       	nop
       8:	5f c0       	rjmp	.+190    	; 0xc8 <__bad_interrupt>
       a:	00 00       	nop
       c:	5d c0       	rjmp	.+186    	; 0xc8 <__bad_interrupt>
       e:	00 00       	nop
      10:	5b c0       	rjmp	.+182    	; 0xc8 <__bad_interrupt>
      12:	00 00       	nop
      14:	59 c0       	rjmp	.+178    	; 0xc8 <__bad_interrupt>
      16:	00 00       	nop
      18:	86 c7       	rjmp	.+3852   	; 0xf26 <__vector_6>
      1a:	00 00       	nop
      1c:	db c7       	rjmp	.+4022   	; 0xfd4 <__vector_7>
      1e:	00 00       	nop
      20:	c3 c5       	rjmp	.+2950   	; 0xba8 <__vector_8>
      22:	00 00       	nop
      24:	51 c0       	rjmp	.+162    	; 0xc8 <__bad_interrupt>
      26:	00 00       	nop
      28:	4f c0       	rjmp	.+158    	; 0xc8 <__bad_interrupt>
      2a:	00 00       	nop
      2c:	4d c0       	rjmp	.+154    	; 0xc8 <__bad_interrupt>
      2e:	00 00       	nop
      30:	4b c0       	rjmp	.+150    	; 0xc8 <__bad_interrupt>
      32:	00 00       	nop
      34:	0a c6       	rjmp	.+3092   	; 0xc4a <__vector_13>
      36:	00 00       	nop
      38:	3b c6       	rjmp	.+3190   	; 0xcb0 <__vector_14>
      3a:	00 00       	nop
      3c:	45 c0       	rjmp	.+138    	; 0xc8 <__bad_interrupt>
      3e:	00 00       	nop
      40:	43 c0       	rjmp	.+134    	; 0xc8 <__bad_interrupt>
      42:	00 00       	nop
      44:	41 c0       	rjmp	.+130    	; 0xc8 <__bad_interrupt>
      46:	00 00       	nop
      48:	3f c0       	rjmp	.+126    	; 0xc8 <__bad_interrupt>
      4a:	00 00       	nop
      4c:	3d c0       	rjmp	.+122    	; 0xc8 <__bad_interrupt>
      4e:	00 00       	nop
      50:	f6 c6       	rjmp	.+3564   	; 0xe3e <__vector_20>
      52:	00 00       	nop
      54:	39 c0       	rjmp	.+114    	; 0xc8 <__bad_interrupt>
      56:	00 00       	nop
      58:	1e c7       	rjmp	.+3644   	; 0xe96 <__vector_22>
      5a:	00 00       	nop
      5c:	35 c0       	rjmp	.+106    	; 0xc8 <__bad_interrupt>
      5e:	00 00       	nop
      60:	33 c0       	rjmp	.+102    	; 0xc8 <__bad_interrupt>
      62:	00 00       	nop
      64:	31 c0       	rjmp	.+98     	; 0xc8 <__bad_interrupt>
      66:	00 00       	nop
      68:	2f c0       	rjmp	.+94     	; 0xc8 <__bad_interrupt>
      6a:	00 00       	nop
      6c:	71 c6       	rjmp	.+3298   	; 0xd50 <__vector_27>
      6e:	00 00       	nop
      70:	ca c6       	rjmp	.+3476   	; 0xe06 <__vector_28>
      72:	00 00       	nop
      74:	29 c0       	rjmp	.+82     	; 0xc8 <__bad_interrupt>
      76:	00 00       	nop
      78:	27 c0       	rjmp	.+78     	; 0xc8 <__bad_interrupt>
      7a:	00 00       	nop
      7c:	b0 0b       	sbc	r27, r16
      7e:	de 0b       	sbc	r29, r30
      80:	e5 0b       	sbc	r30, r21
      82:	ae 0c       	add	r10, r14
      84:	ae 0c       	add	r10, r14
      86:	fb 0b       	sbc	r31, r27
      88:	0f 0c       	add	r0, r15
      8a:	4d 0c       	add	r4, r13
      8c:	74 0c       	add	r7, r4

0000008e <__ctors_end>:
      8e:	11 24       	eor	r1, r1
      90:	1f be       	out	0x3f, r1	; 63
      92:	cf ef       	ldi	r28, 0xFF	; 255
      94:	cd bf       	out	0x3d, r28	; 61
      96:	df e3       	ldi	r29, 0x3F	; 63
      98:	de bf       	out	0x3e, r29	; 62

0000009a <__do_copy_data>:
      9a:	18 e3       	ldi	r17, 0x38	; 56
      9c:	a0 e0       	ldi	r26, 0x00	; 0
      9e:	b8 e3       	ldi	r27, 0x38	; 56
      a0:	ee eb       	ldi	r30, 0xBE	; 190
      a2:	ff e3       	ldi	r31, 0x3F	; 63
      a4:	02 c0       	rjmp	.+4      	; 0xaa <__do_copy_data+0x10>
      a6:	05 90       	lpm	r0, Z+
      a8:	0d 92       	st	X+, r0
      aa:	a2 33       	cpi	r26, 0x32	; 50
      ac:	b1 07       	cpc	r27, r17
      ae:	d9 f7       	brne	.-10     	; 0xa6 <__do_copy_data+0xc>

000000b0 <__do_clear_bss>:
      b0:	2b e3       	ldi	r18, 0x3B	; 59
      b2:	a2 e3       	ldi	r26, 0x32	; 50
      b4:	b8 e3       	ldi	r27, 0x38	; 56
      b6:	01 c0       	rjmp	.+2      	; 0xba <.do_clear_bss_start>

000000b8 <.do_clear_bss_loop>:
      b8:	1d 92       	st	X+, r1

000000ba <.do_clear_bss_start>:
      ba:	a4 31       	cpi	r26, 0x14	; 20
      bc:	b2 07       	cpc	r27, r18
      be:	e1 f7       	brne	.-8      	; 0xb8 <.do_clear_bss_loop>
      c0:	0e 94 f2 1e 	call	0x3de4	; 0x3de4 <main>
      c4:	0c 94 7f 1f 	jmp	0x3efe	; 0x3efe <_exit>

000000c8 <__bad_interrupt>:
      c8:	9b cf       	rjmp	.-202    	; 0x0 <__vectors>

000000ca <chkVolt250>:
#include <main_def.h>
#include <resources.h>
#include <I2C.h>

//Returns measured voltage * 4 (2V returns 8) if it is in the expected range (DELTA)
uint8_t chkVolt250(){
      ca:	28 ed       	ldi	r18, 0xD8	; 216
      cc:	30 e0       	ldi	r19, 0x00	; 0
    uint8_t avgVolt = 9;
      ce:	89 e0       	ldi	r24, 0x09	; 9
        
    for (uint8_t x=225; x>24; x-=25) {
        if ((auIn > (x-DELTA)) && (auIn < (x+DELTA))) {
      d0:	40 91 c4 3a 	lds	r20, 0x3AC4	; 0x803ac4 <auIn>
      d4:	50 e0       	ldi	r21, 0x00	; 0
      d6:	42 17       	cp	r20, r18
      d8:	53 07       	cpc	r21, r19
      da:	4c f0       	brlt	.+18     	; 0xee <chkVolt250+0x24>
      dc:	40 91 c4 3a 	lds	r20, 0x3AC4	; 0x803ac4 <auIn>
      e0:	50 e0       	ldi	r21, 0x00	; 0
      e2:	b9 01       	movw	r22, r18
      e4:	6e 5e       	subi	r22, 0xEE	; 238
      e6:	7f 4f       	sbci	r23, 0xFF	; 255
      e8:	64 17       	cp	r22, r20
      ea:	75 07       	cpc	r23, r21
      ec:	2c f4       	brge	.+10     	; 0xf8 <chkVolt250+0x2e>
            break;
        }
        --avgVolt;
      ee:	81 50       	subi	r24, 0x01	; 1
      f0:	29 51       	subi	r18, 0x19	; 25
      f2:	31 09       	sbc	r19, r1

//Returns measured voltage * 4 (2V returns 8) if it is in the expected range (DELTA)
uint8_t chkVolt250(){
    uint8_t avgVolt = 9;
        
    for (uint8_t x=225; x>24; x-=25) {
      f4:	81 11       	cpse	r24, r1
      f6:	ec cf       	rjmp	.-40     	; 0xd0 <chkVolt250+0x6>
            break;
        }
        --avgVolt;
    }
    return avgVolt;
}
      f8:	08 95       	ret

000000fa <MakeFriends>:

// Main game loop
uint8_t MakeFriends(){
      fa:	cf 93       	push	r28
      fc:	df 93       	push	r29
    static uint8_t setDAC[2] = {255, 0};
    static uint8_t chkTmr = 0;
    static uint8_t jackIn = 0;
    static uint8_t candidate = 0;

    ++chkTmr;
      fe:	80 91 35 38 	lds	r24, 0x3835	; 0x803835 <chkTmr.3790>
     102:	8f 5f       	subi	r24, 0xFF	; 255
     104:	80 93 35 38 	sts	0x3835, r24	; 0x803835 <chkTmr.3790>
     108:	c4 e6       	ldi	r28, 0x64	; 100

    //Check if badge has found 3 friends
    uint8_t foundAll = 1;
     10a:	d1 e0       	ldi	r29, 0x01	; 1
    for (uint8_t x=0; x<4; ++x){
        if (CheckState(100+x) == 0) foundAll = 0;
     10c:	8c 2f       	mov	r24, r28
     10e:	0e 94 18 0a 	call	0x1430	; 0x1430 <CheckState>
     112:	81 11       	cpse	r24, r1
     114:	01 c0       	rjmp	.+2      	; 0x118 <MakeFriends+0x1e>
     116:	d0 e0       	ldi	r29, 0x00	; 0
     118:	cf 5f       	subi	r28, 0xFF	; 255

    ++chkTmr;

    //Check if badge has found 3 friends
    uint8_t foundAll = 1;
    for (uint8_t x=0; x<4; ++x){
     11a:	c8 36       	cpi	r28, 0x68	; 104
     11c:	b9 f7       	brne	.-18     	; 0x10c <MakeFriends+0x12>
        if (CheckState(100+x) == 0) foundAll = 0;
    }
    if (foundAll) UpdateState(124);
     11e:	dd 23       	and	r29, r29
     120:	19 f0       	breq	.+6      	; 0x128 <MakeFriends+0x2e>
     122:	8c e7       	ldi	r24, 0x7C	; 124
     124:	0e 94 f7 09 	call	0x13ee	; 0x13ee <UpdateState>

    //Set game state, must be able to hijack from other games.
    if (progress > FIRST_CONTACT) { 
     128:	80 91 34 38 	lds	r24, 0x3834	; 0x803834 <progress.3788>
     12c:	82 30       	cpi	r24, 0x02	; 2
     12e:	20 f0       	brcs	.+8      	; 0x138 <MakeFriends+0x3e>
        gameNow = FRIENDS; 
     130:	94 e0       	ldi	r25, 0x04	; 4
     132:	90 93 3e 38 	sts	0x383E, r25	; 0x80383e <gameNow>
     136:	0d c0       	rjmp	.+26     	; 0x152 <MakeFriends+0x58>
    }
    
    //Clear game state if not communicating properly or headphones detected
    if (((progress == NO_OTHER) || detHdPh) && (gameNow == FRIENDS)) {
     138:	81 11       	cpse	r24, r1
     13a:	0b c0       	rjmp	.+22     	; 0x152 <MakeFriends+0x58>
     13c:	90 91 3e 38 	lds	r25, 0x383E	; 0x80383e <gameNow>
     140:	94 30       	cpi	r25, 0x04	; 4
     142:	61 f4       	brne	.+24     	; 0x15c <MakeFriends+0x62>
        gameNow = TEXT; 
     144:	10 92 3e 38 	sts	0x383E, r1	; 0x80383e <gameNow>
        effect = 0;
     148:	10 92 3c 38 	sts	0x383C, r1	; 0x80383c <effect>
     14c:	10 92 3d 38 	sts	0x383D, r1	; 0x80383d <effect+0x1>
     150:	05 c0       	rjmp	.+10     	; 0x15c <MakeFriends+0x62>
    if (progress > FIRST_CONTACT) { 
        gameNow = FRIENDS; 
    }
    
    //Clear game state if not communicating properly or headphones detected
    if (((progress == NO_OTHER) || detHdPh) && (gameNow == FRIENDS)) {
     152:	90 91 c1 3a 	lds	r25, 0x3AC1	; 0x803ac1 <detHdPh>
     156:	91 11       	cpse	r25, r1
     158:	f1 cf       	rjmp	.-30     	; 0x13c <MakeFriends+0x42>
     15a:	18 c0       	rjmp	.+48     	; 0x18c <MakeFriends+0x92>
        gameNow = TEXT; 
        effect = 0;
    }

    //Audio off, set voltage level (setDAC[0]*10mV)
    if ((progress == NO_OTHER) && (detHdPh == 0)) {
     15c:	81 11       	cpse	r24, r1
     15e:	16 c0       	rjmp	.+44     	; 0x18c <MakeFriends+0x92>
     160:	90 91 c1 3a 	lds	r25, 0x3AC1	; 0x803ac1 <detHdPh>
     164:	91 11       	cpse	r25, r1
     166:	12 c0       	rjmp	.+36     	; 0x18c <MakeFriends+0x92>
        setDAC[0] = whoami * 51;
     168:	80 91 3f 38 	lds	r24, 0x383F	; 0x80383f <whoami>
     16c:	93 e3       	ldi	r25, 0x33	; 51
     16e:	89 9f       	mul	r24, r25
     170:	80 2d       	mov	r24, r0
     172:	11 24       	eor	r1, r1
     174:	80 93 00 38 	sts	0x3800, r24	; 0x803800 <__data_start>
        auRepAddr = &setDAC[0];
     178:	80 e0       	ldi	r24, 0x00	; 0
     17a:	98 e3       	ldi	r25, 0x38	; 56
     17c:	80 93 03 38 	sts	0x3803, r24	; 0x803803 <auRepAddr>
     180:	90 93 04 38 	sts	0x3804, r25	; 0x803804 <auRepAddr+0x1>
        auVolume = 255;
     184:	8f ef       	ldi	r24, 0xFF	; 255
     186:	80 93 b8 3a 	sts	0x3AB8, r24	; 0x803ab8 <auVolume>
     18a:	09 c0       	rjmp	.+18     	; 0x19e <MakeFriends+0xa4>
    } else {
        if (progress & NEXT){
     18c:	98 2f       	mov	r25, r24
     18e:	90 7f       	andi	r25, 0xF0	; 240
     190:	31 f0       	breq	.+12     	; 0x19e <MakeFriends+0xa4>
            progress++;
            progress&=0x0f;
     192:	8f 5f       	subi	r24, 0xFF	; 255
     194:	8f 70       	andi	r24, 0x0F	; 15
     196:	80 93 34 38 	sts	0x3834, r24	; 0x803834 <progress.3788>
            chkTmr = 0;
     19a:	10 92 35 38 	sts	0x3835, r1	; 0x803835 <chkTmr.3790>
        }
    }

    //Check for other badges ()
    if ((auIn < (setDAC[0] - DELTA)) || (auIn > (setDAC[0] + DELTA)) || (progress > FIRST_CONTACT)) {
     19e:	40 91 c4 3a 	lds	r20, 0x3AC4	; 0x803ac4 <auIn>
     1a2:	20 91 00 38 	lds	r18, 0x3800	; 0x803800 <__data_start>
     1a6:	30 e0       	ldi	r19, 0x00	; 0
     1a8:	50 e0       	ldi	r21, 0x00	; 0
     1aa:	b9 01       	movw	r22, r18
     1ac:	6a 50       	subi	r22, 0x0A	; 10
     1ae:	71 09       	sbc	r23, r1
     1b0:	80 91 34 38 	lds	r24, 0x3834	; 0x803834 <progress.3788>
     1b4:	46 17       	cp	r20, r22
     1b6:	57 07       	cpc	r21, r23
     1b8:	5c f0       	brlt	.+22     	; 0x1d0 <MakeFriends+0xd6>
     1ba:	40 91 c4 3a 	lds	r20, 0x3AC4	; 0x803ac4 <auIn>
     1be:	50 e0       	ldi	r21, 0x00	; 0
     1c0:	26 5f       	subi	r18, 0xF6	; 246
     1c2:	3f 4f       	sbci	r19, 0xFF	; 255
     1c4:	24 17       	cp	r18, r20
     1c6:	35 07       	cpc	r19, r21
     1c8:	1c f0       	brlt	.+6      	; 0x1d0 <MakeFriends+0xd6>
     1ca:	82 30       	cpi	r24, 0x02	; 2
     1cc:	08 f4       	brcc	.+2      	; 0x1d0 <MakeFriends+0xd6>
     1ce:	43 c0       	rjmp	.+134    	; 0x256 <MakeFriends+0x15c>
        if ((progress == NO_OTHER) && (detHdPh == 0)) {
     1d0:	81 11       	cpse	r24, r1
     1d2:	0b c0       	rjmp	.+22     	; 0x1ea <MakeFriends+0xf0>
     1d4:	80 91 c1 3a 	lds	r24, 0x3AC1	; 0x803ac1 <detHdPh>
     1d8:	81 11       	cpse	r24, r1
     1da:	96 c0       	rjmp	.+300    	; 0x308 <MakeFriends+0x20e>
            if (chkTmr >= 8) {
     1dc:	80 91 35 38 	lds	r24, 0x3835	; 0x803835 <chkTmr.3790>
     1e0:	88 30       	cpi	r24, 0x08	; 8
     1e2:	08 f4       	brcc	.+2      	; 0x1e6 <MakeFriends+0xec>
     1e4:	91 c0       	rjmp	.+290    	; 0x308 <MakeFriends+0x20e>
                progress |= NEXT;
     1e6:	80 ef       	ldi	r24, 0xF0	; 240
     1e8:	64 c0       	rjmp	.+200    	; 0x2b2 <MakeFriends+0x1b8>
            }
        }

        //Candidate found, check ranges
        else if (progress == FIRST_CONTACT) {
     1ea:	81 30       	cpi	r24, 0x01	; 1
     1ec:	41 f5       	brne	.+80     	; 0x23e <MakeFriends+0x144>
            jackIn = chkVolt250();
     1ee:	6d df       	rcall	.-294    	; 0xca <chkVolt250>
     1f0:	80 93 33 38 	sts	0x3833, r24	; 0x803833 <jackIn.3791>
            if (jackIn) {
     1f4:	88 23       	and	r24, r24
     1f6:	79 f1       	breq	.+94     	; 0x256 <MakeFriends+0x15c>
                if (chkTmr >= SHORT_WAIT){
     1f8:	90 91 35 38 	lds	r25, 0x3835	; 0x803835 <chkTmr.3790>
     1fc:	98 30       	cpi	r25, 0x08	; 8
     1fe:	08 f4       	brcc	.+2      	; 0x202 <MakeFriends+0x108>
     200:	83 c0       	rjmp	.+262    	; 0x308 <MakeFriends+0x20e>
                    if (   ((whoami == 1)&&((jackIn >= 3)&&(jackIn <= 5))) 
     202:	90 91 3f 38 	lds	r25, 0x383F	; 0x80383f <whoami>
     206:	91 30       	cpi	r25, 0x01	; 1
     208:	11 f4       	brne	.+4      	; 0x20e <MakeFriends+0x114>
     20a:	83 50       	subi	r24, 0x03	; 3
     20c:	14 c0       	rjmp	.+40     	; 0x236 <MakeFriends+0x13c>
                    || ((whoami == 2)&&((jackIn == 3)||(jackIn == 5)||(jackIn == 6)))  
     20e:	92 30       	cpi	r25, 0x02	; 2
     210:	31 f4       	brne	.+12     	; 0x21e <MakeFriends+0x124>
     212:	83 30       	cpi	r24, 0x03	; 3
     214:	91 f0       	breq	.+36     	; 0x23a <MakeFriends+0x140>
     216:	85 50       	subi	r24, 0x05	; 5
     218:	82 30       	cpi	r24, 0x02	; 2
     21a:	e8 f4       	brcc	.+58     	; 0x256 <MakeFriends+0x15c>
     21c:	0e c0       	rjmp	.+28     	; 0x23a <MakeFriends+0x140>
                    || ((whoami == 3)&&((jackIn == 4)||(jackIn == 5)||(jackIn == 7))) 
     21e:	93 30       	cpi	r25, 0x03	; 3
     220:	39 f4       	brne	.+14     	; 0x230 <MakeFriends+0x136>
     222:	9c ef       	ldi	r25, 0xFC	; 252
     224:	98 0f       	add	r25, r24
     226:	92 30       	cpi	r25, 0x02	; 2
     228:	40 f0       	brcs	.+16     	; 0x23a <MakeFriends+0x140>
     22a:	87 30       	cpi	r24, 0x07	; 7
     22c:	a1 f4       	brne	.+40     	; 0x256 <MakeFriends+0x15c>
     22e:	05 c0       	rjmp	.+10     	; 0x23a <MakeFriends+0x140>
                    || ((whoami == 4)&&((jackIn >= 5)&&(jackIn <= 7)))   ) {
     230:	94 30       	cpi	r25, 0x04	; 4
     232:	89 f4       	brne	.+34     	; 0x256 <MakeFriends+0x15c>
     234:	85 50       	subi	r24, 0x05	; 5
     236:	83 30       	cpi	r24, 0x03	; 3
     238:	70 f4       	brcc	.+28     	; 0x256 <MakeFriends+0x15c>
                        progress |= NEXT;
     23a:	81 ef       	ldi	r24, 0xF1	; 241
     23c:	3a c0       	rjmp	.+116    	; 0x2b2 <MakeFriends+0x1b8>
                progress = NO_OTHER;
            }
        }

        //Wait for the other badge (and a bit longer for effect)
        else if (progress == SECOND_LOVE){
     23e:	82 30       	cpi	r24, 0x02	; 2
     240:	69 f0       	breq	.+26     	; 0x25c <MakeFriends+0x162>
                progress |= NEXT;
            }
        } 
        
        //Wait a bit, check Voltage again, if ok show who you connected with and your own number, save, exit
        else if (progress == THIRD_KISS) {
     242:	83 30       	cpi	r24, 0x03	; 3
     244:	c9 f1       	breq	.+114    	; 0x2b8 <MakeFriends+0x1be>
                    progress |= NEXT;
                } else progress = NO_OTHER;                
            }

        //Wait for quit
        } else if (progress == FOURTH_BASE) {
     246:	84 30       	cpi	r24, 0x04	; 4
     248:	09 f0       	breq	.+2      	; 0x24c <MakeFriends+0x152>
     24a:	5e c0       	rjmp	.+188    	; 0x308 <MakeFriends+0x20e>
            if (chkTmr >= (SHORT_WAIT<<3)) {
     24c:	80 91 35 38 	lds	r24, 0x3835	; 0x803835 <chkTmr.3790>
     250:	80 34       	cpi	r24, 0x40	; 64
     252:	08 f4       	brcc	.+2      	; 0x256 <MakeFriends+0x15c>
     254:	59 c0       	rjmp	.+178    	; 0x308 <MakeFriends+0x20e>
                    if (   ((whoami == 1)&&((jackIn >= 3)&&(jackIn <= 5))) 
                    || ((whoami == 2)&&((jackIn == 3)||(jackIn == 5)||(jackIn == 6)))  
                    || ((whoami == 3)&&((jackIn == 4)||(jackIn == 5)||(jackIn == 7))) 
                    || ((whoami == 4)&&((jackIn >= 5)&&(jackIn <= 7)))   ) {
                        progress |= NEXT;
                    } else progress = NO_OTHER;
     256:	10 92 34 38 	sts	0x3834, r1	; 0x803834 <progress.3788>
     25a:	56 c0       	rjmp	.+172    	; 0x308 <MakeFriends+0x20e>
        }

        //Wait for the other badge (and a bit longer for effect)
        else if (progress == SECOND_LOVE){
            
            effect = 7;
     25c:	87 e0       	ldi	r24, 0x07	; 7
     25e:	90 e0       	ldi	r25, 0x00	; 0
     260:	80 93 3c 38 	sts	0x383C, r24	; 0x80383c <effect>
     264:	90 93 3d 38 	sts	0x383D, r25	; 0x80383d <effect+0x1>
            if (chkTmr >= SHORT_WAIT) {
     268:	80 91 35 38 	lds	r24, 0x3835	; 0x803835 <chkTmr.3790>
     26c:	88 30       	cpi	r24, 0x08	; 8
     26e:	40 f0       	brcs	.+16     	; 0x280 <MakeFriends+0x186>
                setDAC[0] = floatAround(0x80, 8, 100, 255); 
     270:	2f ef       	ldi	r18, 0xFF	; 255
     272:	44 e6       	ldi	r20, 0x64	; 100
     274:	68 e0       	ldi	r22, 0x08	; 8
     276:	80 e8       	ldi	r24, 0x80	; 128
     278:	0e 94 3e 09 	call	0x127c	; 0x127c <floatAround>
     27c:	80 93 00 38 	sts	0x3800, r24	; 0x803800 <__data_start>
            }

            //The badge with the lowest voltage will now go to 2.5V (impedance check, for people tricking the things with a power supply)
            if (chkTmr >= LONG_WAIT){
     280:	80 91 35 38 	lds	r24, 0x3835	; 0x803835 <chkTmr.3790>
     284:	8a 3f       	cpi	r24, 0xFA	; 250
     286:	08 f4       	brcc	.+2      	; 0x28a <MakeFriends+0x190>
     288:	3f c0       	rjmp	.+126    	; 0x308 <MakeFriends+0x20e>
                candidate = jackIn-whoami;
     28a:	80 91 3f 38 	lds	r24, 0x383F	; 0x80383f <whoami>
     28e:	90 91 33 38 	lds	r25, 0x3833	; 0x803833 <jackIn.3791>
     292:	98 1b       	sub	r25, r24
     294:	90 93 32 38 	sts	0x3832, r25	; 0x803832 <__data_end>
                if (candidate > whoami) {
     298:	89 17       	cp	r24, r25
     29a:	10 f4       	brcc	.+4      	; 0x2a0 <MakeFriends+0x1a6>
                    setDAC[0] = 249;
     29c:	89 ef       	ldi	r24, 0xF9	; 249
     29e:	04 c0       	rjmp	.+8      	; 0x2a8 <MakeFriends+0x1ae>
                } else {
                    setDAC[0] = whoami * 51;
     2a0:	93 e3       	ldi	r25, 0x33	; 51
     2a2:	89 9f       	mul	r24, r25
     2a4:	80 2d       	mov	r24, r0
     2a6:	11 24       	eor	r1, r1
     2a8:	80 93 00 38 	sts	0x3800, r24	; 0x803800 <__data_start>
                }
                progress |= NEXT;
     2ac:	80 91 34 38 	lds	r24, 0x3834	; 0x803834 <progress.3788>
     2b0:	80 6f       	ori	r24, 0xF0	; 240
     2b2:	80 93 34 38 	sts	0x3834, r24	; 0x803834 <progress.3788>
     2b6:	28 c0       	rjmp	.+80     	; 0x308 <MakeFriends+0x20e>
            }
        } 
        
        //Wait a bit, check Voltage again, if ok show who you connected with and your own number, save, exit
        else if (progress == THIRD_KISS) {
            if (chkTmr >= SHORT_WAIT) {
     2b8:	80 91 35 38 	lds	r24, 0x3835	; 0x803835 <chkTmr.3790>
     2bc:	88 30       	cpi	r24, 0x08	; 8
                jackIn = chkVolt250();
     2be:	20 f1       	brcs	.+72     	; 0x308 <MakeFriends+0x20e>
     2c0:	04 df       	rcall	.-504    	; 0xca <chkVolt250>
     2c2:	80 93 33 38 	sts	0x3833, r24	; 0x803833 <jackIn.3791>
                if (jackIn == (((candidate > whoami)?candidate:whoami) + 5)) {
     2c6:	90 91 32 38 	lds	r25, 0x3832	; 0x803832 <__data_end>
     2ca:	48 2f       	mov	r20, r24
     2cc:	50 e0       	ldi	r21, 0x00	; 0
     2ce:	20 91 3f 38 	lds	r18, 0x383F	; 0x80383f <whoami>
     2d2:	29 17       	cp	r18, r25
     2d4:	08 f4       	brcc	.+2      	; 0x2d8 <MakeFriends+0x1de>
     2d6:	29 2f       	mov	r18, r25
     2d8:	30 e0       	ldi	r19, 0x00	; 0
     2da:	2b 5f       	subi	r18, 0xFB	; 251
     2dc:	3f 4f       	sbci	r19, 0xFF	; 255
     2de:	42 17       	cp	r20, r18
     2e0:	53 07       	cpc	r21, r19
     2e2:	09 f0       	breq	.+2      	; 0x2e6 <MakeFriends+0x1ec>
     2e4:	b8 cf       	rjmp	.-144    	; 0x256 <MakeFriends+0x15c>
                    UpdateState(99+candidate);
     2e6:	83 e6       	ldi	r24, 0x63	; 99
     2e8:	89 0f       	add	r24, r25
     2ea:	0e 94 f7 09 	call	0x13ee	; 0x13ee <UpdateState>
                 
                    effect = 31;
     2ee:	8f e1       	ldi	r24, 0x1F	; 31
     2f0:	90 e0       	ldi	r25, 0x00	; 0
     2f2:	80 93 3c 38 	sts	0x383C, r24	; 0x80383c <effect>
     2f6:	90 93 3d 38 	sts	0x383D, r25	; 0x80383d <effect+0x1>
                    WingBar(candidate, whoami);
     2fa:	60 91 3f 38 	lds	r22, 0x383F	; 0x80383f <whoami>
     2fe:	80 91 32 38 	lds	r24, 0x3832	; 0x803832 <__data_end>
     302:	0e 94 e7 0a 	call	0x15ce	; 0x15ce <WingBar>
     306:	d2 cf       	rjmp	.-92     	; 0x2ac <MakeFriends+0x1b2>
    } else {
        progress = NO_OTHER;
    }
      
    return 0;
}
     308:	80 e0       	ldi	r24, 0x00	; 0
     30a:	df 91       	pop	r29
     30c:	cf 91       	pop	r28
     30e:	08 95       	ret

00000310 <I2C_init>:
// the Atmel device documentation mentions a special command for repeated start TWI_MCMD_REPSTART_gc,
// but this is not used in Atmel's demo code, so we don't use it either

void I2C_rep_start(uint8_t shifted_addr)						    // send repeated start, device_addr + LSB set if READ
{
	TWI0.MADDR = shifted_addr;	
     310:	81 e0       	ldi	r24, 0x01	; 1
     312:	80 93 22 04 	sts	0x0422, r24	; 0x800422 <__TEXT_REGION_LENGTH__+0x700422>
     316:	e6 e2       	ldi	r30, 0x26	; 38
     318:	f4 e0       	ldi	r31, 0x04	; 4
     31a:	80 83       	st	Z, r24
     31c:	10 92 30 04 	sts	0x0430, r1	; 0x800430 <__TEXT_REGION_LENGTH__+0x700430>
     320:	a1 e2       	ldi	r26, 0x21	; 33
     322:	b4 e0       	ldi	r27, 0x04	; 4
     324:	92 e0       	ldi	r25, 0x02	; 2
     326:	9c 93       	st	X, r25
     328:	90 83       	st	Z, r25
     32a:	10 92 31 04 	sts	0x0431, r1	; 0x800431 <__TEXT_REGION_LENGTH__+0x700431>
     32e:	e0 e1       	ldi	r30, 0x10	; 16
     330:	f8 e0       	ldi	r31, 0x08	; 8
     332:	97 e0       	ldi	r25, 0x07	; 7
     334:	96 83       	std	Z+6, r25	; 0x06
     336:	98 e0       	ldi	r25, 0x08	; 8
     338:	94 83       	std	Z+4, r25	; 0x04
     33a:	83 83       	std	Z+3, r24	; 0x03
     33c:	8c 93       	st	X, r24
     33e:	85 81       	ldd	r24, Z+5	; 0x05
     340:	81 60       	ori	r24, 0x01	; 1
     342:	85 83       	std	Z+5, r24	; 0x05
     344:	85 81       	ldd	r24, Z+5	; 0x05
     346:	84 6c       	ori	r24, 0xC4	; 196
     348:	85 83       	std	Z+5, r24	; 0x05
     34a:	08 95       	ret

0000034c <I2C_recover>:
     34c:	80 91 14 08 	lds	r24, 0x0814	; 0x800814 <__TEXT_REGION_LENGTH__+0x700814>
     350:	88 60       	ori	r24, 0x08	; 8
     352:	80 93 14 08 	sts	0x0814, r24	; 0x800814 <__TEXT_REGION_LENGTH__+0x700814>
     356:	10 92 13 08 	sts	0x0813, r1	; 0x800813 <__TEXT_REGION_LENGTH__+0x700813>
     35a:	82 e0       	ldi	r24, 0x02	; 2
     35c:	80 93 22 04 	sts	0x0422, r24	; 0x800422 <__TEXT_REGION_LENGTH__+0x700422>
     360:	99 e0       	ldi	r25, 0x09	; 9
     362:	21 e0       	ldi	r18, 0x01	; 1
     364:	81 e0       	ldi	r24, 0x01	; 1
     366:	20 93 21 04 	sts	0x0421, r18	; 0x800421 <__TEXT_REGION_LENGTH__+0x700421>
     36a:	30 e1       	ldi	r19, 0x10	; 16
     36c:	3a 95       	dec	r19
     36e:	f1 f7       	brne	.-4      	; 0x36c <I2C_recover+0x20>
     370:	00 c0       	rjmp	.+0      	; 0x372 <I2C_recover+0x26>
     372:	20 93 22 04 	sts	0x0422, r18	; 0x800422 <__TEXT_REGION_LENGTH__+0x700422>
     376:	30 e1       	ldi	r19, 0x10	; 16
     378:	3a 95       	dec	r19
     37a:	f1 f7       	brne	.-4      	; 0x378 <I2C_recover+0x2c>
     37c:	00 c0       	rjmp	.+0      	; 0x37e <I2C_recover+0x32>
     37e:	91 50       	subi	r25, 0x01	; 1
     380:	89 f7       	brne	.-30     	; 0x364 <I2C_recover+0x18>
     382:	28 e0       	ldi	r18, 0x08	; 8
     384:	20 93 14 08 	sts	0x0814, r18	; 0x800814 <__TEXT_REGION_LENGTH__+0x700814>
     388:	80 93 13 08 	sts	0x0813, r24	; 0x800813 <__TEXT_REGION_LENGTH__+0x700813>
     38c:	92 e0       	ldi	r25, 0x02	; 2
     38e:	90 93 21 04 	sts	0x0421, r25	; 0x800421 <__TEXT_REGION_LENGTH__+0x700421>
     392:	90 91 15 08 	lds	r25, 0x0815	; 0x800815 <__TEXT_REGION_LENGTH__+0x700815>
     396:	91 60       	ori	r25, 0x01	; 1
     398:	90 93 15 08 	sts	0x0815, r25	; 0x800815 <__TEXT_REGION_LENGTH__+0x700815>
     39c:	90 91 15 08 	lds	r25, 0x0815	; 0x800815 <__TEXT_REGION_LENGTH__+0x700815>
     3a0:	94 6c       	ori	r25, 0xC4	; 196
     3a2:	90 93 15 08 	sts	0x0815, r25	; 0x800815 <__TEXT_REGION_LENGTH__+0x700815>
     3a6:	20 93 14 08 	sts	0x0814, r18	; 0x800814 <__TEXT_REGION_LENGTH__+0x700814>
     3aa:	80 93 13 08 	sts	0x0813, r24	; 0x800813 <__TEXT_REGION_LENGTH__+0x700813>
     3ae:	80 93 21 04 	sts	0x0421, r24	; 0x800421 <__TEXT_REGION_LENGTH__+0x700421>
     3b2:	80 91 15 08 	lds	r24, 0x0815	; 0x800815 <__TEXT_REGION_LENGTH__+0x700815>
     3b6:	81 60       	ori	r24, 0x01	; 1
     3b8:	80 93 15 08 	sts	0x0815, r24	; 0x800815 <__TEXT_REGION_LENGTH__+0x700815>
     3bc:	80 91 15 08 	lds	r24, 0x0815	; 0x800815 <__TEXT_REGION_LENGTH__+0x700815>
     3c0:	84 6c       	ori	r24, 0xC4	; 196
     3c2:	80 93 15 08 	sts	0x0815, r24	; 0x800815 <__TEXT_REGION_LENGTH__+0x700815>
     3c6:	08 95       	ret

000003c8 <I2C_start>:
     3c8:	28 2f       	mov	r18, r24
     3ca:	90 91 15 08 	lds	r25, 0x0815	; 0x800815 <__TEXT_REGION_LENGTH__+0x700815>
     3ce:	90 6c       	ori	r25, 0xC0	; 192
     3d0:	90 93 15 08 	sts	0x0815, r25	; 0x800815 <__TEXT_REGION_LENGTH__+0x700815>
     3d4:	90 91 15 08 	lds	r25, 0x0815	; 0x800815 <__TEXT_REGION_LENGTH__+0x700815>
     3d8:	89 2f       	mov	r24, r25
     3da:	84 70       	andi	r24, 0x04	; 4
     3dc:	92 fd       	sbrc	r25, 2
     3de:	03 c0       	rjmp	.+6      	; 0x3e6 <I2C_start+0x1e>
     3e0:	20 93 17 08 	sts	0x0817, r18	; 0x800817 <__TEXT_REGION_LENGTH__+0x700817>
     3e4:	08 95       	ret
     3e6:	84 e0       	ldi	r24, 0x04	; 4
     3e8:	08 95       	ret

000003ea <I2C_wait_ACK>:
     3ea:	8c e0       	ldi	r24, 0x0C	; 12
     3ec:	80 93 62 3a 	sts	0x3A62, r24	; 0x803a62 <timeout_I2C>
     3f0:	80 91 15 08 	lds	r24, 0x0815	; 0x800815 <__TEXT_REGION_LENGTH__+0x700815>
     3f4:	87 fd       	sbrc	r24, 7
     3f6:	0a c0       	rjmp	.+20     	; 0x40c <__LOCK_REGION_LENGTH__+0xc>
     3f8:	80 91 15 08 	lds	r24, 0x0815	; 0x800815 <__TEXT_REGION_LENGTH__+0x700815>
     3fc:	86 fd       	sbrc	r24, 6
     3fe:	06 c0       	rjmp	.+12     	; 0x40c <__LOCK_REGION_LENGTH__+0xc>
     400:	80 91 62 3a 	lds	r24, 0x3A62	; 0x803a62 <timeout_I2C>
     404:	81 11       	cpse	r24, r1
     406:	f4 cf       	rjmp	.-24     	; 0x3f0 <I2C_wait_ACK+0x6>
     408:	8f ef       	ldi	r24, 0xFF	; 255
     40a:	08 95       	ret
     40c:	80 91 15 08 	lds	r24, 0x0815	; 0x800815 <__TEXT_REGION_LENGTH__+0x700815>
     410:	80 6c       	ori	r24, 0xC0	; 192
     412:	80 93 15 08 	sts	0x0815, r24	; 0x800815 <__TEXT_REGION_LENGTH__+0x700815>
     416:	80 91 15 08 	lds	r24, 0x0815	; 0x800815 <__TEXT_REGION_LENGTH__+0x700815>
     41a:	82 fd       	sbrc	r24, 2
     41c:	09 c0       	rjmp	.+18     	; 0x430 <__LOCK_REGION_LENGTH__+0x30>
     41e:	80 91 15 08 	lds	r24, 0x0815	; 0x800815 <__TEXT_REGION_LENGTH__+0x700815>
     422:	83 fd       	sbrc	r24, 3
     424:	07 c0       	rjmp	.+14     	; 0x434 <__LOCK_REGION_LENGTH__+0x34>
     426:	80 91 15 08 	lds	r24, 0x0815	; 0x800815 <__TEXT_REGION_LENGTH__+0x700815>
     42a:	82 95       	swap	r24
     42c:	81 70       	andi	r24, 0x01	; 1
     42e:	08 95       	ret
     430:	84 e0       	ldi	r24, 0x04	; 4
     432:	08 95       	ret
     434:	82 e0       	ldi	r24, 0x02	; 2
     436:	08 95       	ret

00000438 <I2C_read>:
}

uint8_t	I2C_read(uint8_t *data, uint8_t ack_flag)					// read data, ack_flag 0: send ACK, 1: send NACK, returns status
{
     438:	fc 01       	movw	r30, r24
	timeout_I2C = READ_TIMEOUT;										// reset timeout counter, will be decremented by LED matrix interrupt
     43a:	8c e0       	ldi	r24, 0x0C	; 12
     43c:	80 93 62 3a 	sts	0x3A62, r24	; 0x803a62 <timeout_I2C>
	if ((TWI0.MSTATUS & TWI_BUSSTATE_gm) == TWI_BUSSTATE_OWNER_gc)	// if master controls bus
     440:	90 91 15 08 	lds	r25, 0x0815	; 0x800815 <__TEXT_REGION_LENGTH__+0x700815>
     444:	89 2f       	mov	r24, r25
     446:	83 70       	andi	r24, 0x03	; 3
     448:	82 30       	cpi	r24, 0x02	; 2
     44a:	11 f0       	breq	.+4      	; 0x450 <I2C_read+0x18>
		else		TWI0.MCTRLB |= TWI_ACKACT_NACK_gc;				// setup NACK (last byte read)
		*data = TWI0.MDATA;
		if (ack_flag == 0) TWI0.MCTRLB |= TWI_MCMD_RECVTRANS_gc;	// send ACK, more bytes to follow					
		return 0;
	}
	else return 8;													// master does not control bus
     44c:	88 e0       	ldi	r24, 0x08	; 8
     44e:	08 95       	ret
uint8_t	I2C_read(uint8_t *data, uint8_t ack_flag)					// read data, ack_flag 0: send ACK, 1: send NACK, returns status
{
	timeout_I2C = READ_TIMEOUT;										// reset timeout counter, will be decremented by LED matrix interrupt
	if ((TWI0.MSTATUS & TWI_BUSSTATE_gm) == TWI_BUSSTATE_OWNER_gc)	// if master controls bus
	{		
		while (!(TWI0.MSTATUS & TWI_RIF_bm))						// wait for RIF set (data byte received)
     450:	90 91 15 08 	lds	r25, 0x0815	; 0x800815 <__TEXT_REGION_LENGTH__+0x700815>
     454:	97 fd       	sbrc	r25, 7
     456:	06 c0       	rjmp	.+12     	; 0x464 <I2C_read+0x2c>
		{
			if (!(timeout_I2C)) return 0xff;			            // return timeout error
     458:	90 91 62 3a 	lds	r25, 0x3A62	; 0x803a62 <timeout_I2C>
     45c:	91 11       	cpse	r25, r1
     45e:	f8 cf       	rjmp	.-16     	; 0x450 <I2C_read+0x18>
     460:	8f ef       	ldi	r24, 0xFF	; 255
     462:	08 95       	ret
		}
		TWI0.MSTATUS |= (TWI_RIF_bm | TWI_WIF_bm);					// clear Read and Write interrupt flags	
     464:	90 91 15 08 	lds	r25, 0x0815	; 0x800815 <__TEXT_REGION_LENGTH__+0x700815>
     468:	90 6c       	ori	r25, 0xC0	; 192
     46a:	90 93 15 08 	sts	0x0815, r25	; 0x800815 <__TEXT_REGION_LENGTH__+0x700815>
		if (TWI0.MSTATUS & TWI_BUSERR_bm) return 4;					// Bus Error, abort
     46e:	90 91 15 08 	lds	r25, 0x0815	; 0x800815 <__TEXT_REGION_LENGTH__+0x700815>
     472:	92 fd       	sbrc	r25, 2
     474:	1e c0       	rjmp	.+60     	; 0x4b2 <I2C_read+0x7a>
		if (TWI0.MSTATUS & TWI_ARBLOST_bm) return 2;				// Arbitration Lost, abort
     476:	90 91 15 08 	lds	r25, 0x0815	; 0x800815 <__TEXT_REGION_LENGTH__+0x700815>
     47a:	93 fd       	sbrc	r25, 3
     47c:	1d c0       	rjmp	.+58     	; 0x4b8 <I2C_read+0x80>
		if (TWI0.MSTATUS & TWI_RXACK_bm) return 1;					// Slave replied with NACK, abort				
     47e:	90 91 15 08 	lds	r25, 0x0815	; 0x800815 <__TEXT_REGION_LENGTH__+0x700815>
     482:	89 2f       	mov	r24, r25
     484:	80 71       	andi	r24, 0x10	; 16
     486:	94 fd       	sbrc	r25, 4
     488:	16 c0       	rjmp	.+44     	; 0x4b6 <I2C_read+0x7e>
		if (ack_flag == 0) TWI0.MCTRLB &= ~(1 << TWI_ACKACT_bp);	// setup ACK
     48a:	90 91 14 08 	lds	r25, 0x0814	; 0x800814 <__TEXT_REGION_LENGTH__+0x700814>
     48e:	61 11       	cpse	r22, r1
     490:	02 c0       	rjmp	.+4      	; 0x496 <I2C_read+0x5e>
     492:	9b 7f       	andi	r25, 0xFB	; 251
     494:	01 c0       	rjmp	.+2      	; 0x498 <I2C_read+0x60>
		else		TWI0.MCTRLB |= TWI_ACKACT_NACK_gc;				// setup NACK (last byte read)
     496:	94 60       	ori	r25, 0x04	; 4
     498:	90 93 14 08 	sts	0x0814, r25	; 0x800814 <__TEXT_REGION_LENGTH__+0x700814>
		*data = TWI0.MDATA;
     49c:	90 91 18 08 	lds	r25, 0x0818	; 0x800818 <__TEXT_REGION_LENGTH__+0x700818>
     4a0:	90 83       	st	Z, r25
		if (ack_flag == 0) TWI0.MCTRLB |= TWI_MCMD_RECVTRANS_gc;	// send ACK, more bytes to follow					
     4a2:	61 11       	cpse	r22, r1
     4a4:	09 c0       	rjmp	.+18     	; 0x4b8 <I2C_read+0x80>
     4a6:	90 91 14 08 	lds	r25, 0x0814	; 0x800814 <__TEXT_REGION_LENGTH__+0x700814>
     4aa:	92 60       	ori	r25, 0x02	; 2
     4ac:	90 93 14 08 	sts	0x0814, r25	; 0x800814 <__TEXT_REGION_LENGTH__+0x700814>
     4b0:	08 95       	ret
		while (!(TWI0.MSTATUS & TWI_RIF_bm))						// wait for RIF set (data byte received)
		{
			if (!(timeout_I2C)) return 0xff;			            // return timeout error
		}
		TWI0.MSTATUS |= (TWI_RIF_bm | TWI_WIF_bm);					// clear Read and Write interrupt flags	
		if (TWI0.MSTATUS & TWI_BUSERR_bm) return 4;					// Bus Error, abort
     4b2:	84 e0       	ldi	r24, 0x04	; 4
     4b4:	08 95       	ret
		if (TWI0.MSTATUS & TWI_ARBLOST_bm) return 2;				// Arbitration Lost, abort
		if (TWI0.MSTATUS & TWI_RXACK_bm) return 1;					// Slave replied with NACK, abort				
     4b6:	81 e0       	ldi	r24, 0x01	; 1
		*data = TWI0.MDATA;
		if (ack_flag == 0) TWI0.MCTRLB |= TWI_MCMD_RECVTRANS_gc;	// send ACK, more bytes to follow					
		return 0;
	}
	else return 8;													// master does not control bus
}
     4b8:	08 95       	ret

000004ba <I2C_write>:

uint8_t I2C_write(uint8_t *data)									// write data, return status
{
     4ba:	fc 01       	movw	r30, r24
	timeout_I2C = WRITE_TIMEOUT;									// reset timeout counter, will be decremented by LED matrix interrupt
     4bc:	8c e0       	ldi	r24, 0x0C	; 12
     4be:	80 93 62 3a 	sts	0x3A62, r24	; 0x803a62 <timeout_I2C>
	if ((TWI0.MSTATUS & TWI_BUSSTATE_gm) == TWI_BUSSTATE_OWNER_gc)	// if master controls bus
     4c2:	90 91 15 08 	lds	r25, 0x0815	; 0x800815 <__TEXT_REGION_LENGTH__+0x700815>
     4c6:	93 70       	andi	r25, 0x03	; 3
     4c8:	92 30       	cpi	r25, 0x02	; 2
     4ca:	b1 f4       	brne	.+44     	; 0x4f8 <I2C_write+0x3e>
	{
		TWI0.MDATA = *data;		
     4cc:	80 81       	ld	r24, Z
     4ce:	80 93 18 08 	sts	0x0818, r24	; 0x800818 <__TEXT_REGION_LENGTH__+0x700818>
		while (!(TWI0.MSTATUS & TWI_WIF_bm))						// wait until WIF set, status register contains ACK/NACK bit
     4d2:	80 91 15 08 	lds	r24, 0x0815	; 0x800815 <__TEXT_REGION_LENGTH__+0x700815>
     4d6:	86 fd       	sbrc	r24, 6
     4d8:	06 c0       	rjmp	.+12     	; 0x4e6 <I2C_write+0x2c>
		{
			if (!(timeout_I2C)) return 0xff;			            // return timeout error
     4da:	80 91 62 3a 	lds	r24, 0x3A62	; 0x803a62 <timeout_I2C>
     4de:	81 11       	cpse	r24, r1
     4e0:	f8 cf       	rjmp	.-16     	; 0x4d2 <I2C_write+0x18>
     4e2:	8f ef       	ldi	r24, 0xFF	; 255
     4e4:	08 95       	ret
		}
		if (TWI0.MSTATUS & TWI_BUSERR_bm) return 4;					// Bus Error, abort
     4e6:	80 91 15 08 	lds	r24, 0x0815	; 0x800815 <__TEXT_REGION_LENGTH__+0x700815>
     4ea:	82 fd       	sbrc	r24, 2
     4ec:	07 c0       	rjmp	.+14     	; 0x4fc <I2C_write+0x42>
		if (TWI0.MSTATUS & TWI_RXACK_bm) return 1;					// Slave replied with NACK, abort
     4ee:	80 91 15 08 	lds	r24, 0x0815	; 0x800815 <__TEXT_REGION_LENGTH__+0x700815>
	if ((TWI0.MSTATUS & TWI_BUSSTATE_gm) == TWI_BUSSTATE_OWNER_gc)	// if master controls bus
	{
		TWI0.MDATA = *data;		
		while (!(TWI0.MSTATUS & TWI_WIF_bm))						// wait until WIF set, status register contains ACK/NACK bit
		{
			if (!(timeout_I2C)) return 0xff;			            // return timeout error
     4f2:	82 95       	swap	r24
     4f4:	81 70       	andi	r24, 0x01	; 1
     4f6:	08 95       	ret
		}
		if (TWI0.MSTATUS & TWI_BUSERR_bm) return 4;					// Bus Error, abort
		if (TWI0.MSTATUS & TWI_RXACK_bm) return 1;					// Slave replied with NACK, abort
		return 0;													// no error	
	}
	else return 8;													// master does not control bus
     4f8:	88 e0       	ldi	r24, 0x08	; 8
     4fa:	08 95       	ret
		TWI0.MDATA = *data;		
		while (!(TWI0.MSTATUS & TWI_WIF_bm))						// wait until WIF set, status register contains ACK/NACK bit
		{
			if (!(timeout_I2C)) return 0xff;			            // return timeout error
		}
		if (TWI0.MSTATUS & TWI_BUSERR_bm) return 4;					// Bus Error, abort
     4fc:	84 e0       	ldi	r24, 0x04	; 4
		if (TWI0.MSTATUS & TWI_RXACK_bm) return 1;					// Slave replied with NACK, abort
		return 0;													// no error	
	}
	else return 8;													// master does not control bus
}
     4fe:	08 95       	ret

00000500 <I2C_stop>:

void I2C_stop()
{
	TWI0.MCTRLB |= TWI_MCMD_STOP_gc;
     500:	e0 e1       	ldi	r30, 0x10	; 16
     502:	f8 e0       	ldi	r31, 0x08	; 8
     504:	84 81       	ldd	r24, Z+4	; 0x04
     506:	83 60       	ori	r24, 0x03	; 3
     508:	84 83       	std	Z+4, r24	; 0x04
     50a:	08 95       	ret

0000050c <I2C_read_bytes>:
// addr_ptr		address of first array element to transfer
// slave reg	starting slave register
// num_bytes	number of bytes to transfer

uint8_t	I2C_read_bytes(uint8_t slave_addr, uint8_t *reg_ptr, uint8_t reg_len, uint8_t *dat_ptr, uint8_t dat_len)
{
     50c:	cf 92       	push	r12
     50e:	df 92       	push	r13
     510:	ff 92       	push	r15
     512:	0f 93       	push	r16
     514:	1f 93       	push	r17
     516:	cf 93       	push	r28
     518:	df 93       	push	r29
     51a:	6b 01       	movw	r12, r22
     51c:	f4 2e       	mov	r15, r20
     51e:	e9 01       	movw	r28, r18
	uint8_t status;
	if (dat_len > MAX_LEN) dat_len = MAX_LEN;
	status = I2C_start(slave_addr << 1);							// slave write address, LSB 0
     520:	18 2f       	mov	r17, r24
     522:	11 0f       	add	r17, r17
     524:	81 2f       	mov	r24, r17
     526:	50 df       	rcall	.-352    	; 0x3c8 <I2C_start>
	if (status != 0) goto error;
     528:	81 11       	cpse	r24, r1
	status = I2C_wait_ACK();										// wait for slave ACK
     52a:	2b c0       	rjmp	.+86     	; 0x582 <I2C_read_bytes+0x76>
     52c:	5e df       	rcall	.-324    	; 0x3ea <I2C_wait_ACK>
	if (status == 1) {
     52e:	81 30       	cpi	r24, 0x01	; 1
		I2C_stop();													// NACK, abort
     530:	19 f4       	brne	.+6      	; 0x538 <I2C_read_bytes+0x2c>
     532:	e6 df       	rcall	.-52     	; 0x500 <I2C_stop>
		return 1;
     534:	81 e0       	ldi	r24, 0x01	; 1
     536:	27 c0       	rjmp	.+78     	; 0x586 <I2C_read_bytes+0x7a>
	}
	if (status != 0) goto error;
     538:	81 11       	cpse	r24, r1
     53a:	23 c0       	rjmp	.+70     	; 0x582 <I2C_read_bytes+0x76>
    while(reg_len > 0){
     53c:	ff 20       	and	r15, r15
	    status = I2C_write(reg_ptr);    							// send slave start register
     53e:	49 f0       	breq	.+18     	; 0x552 <I2C_read_bytes+0x46>
     540:	c6 01       	movw	r24, r12
     542:	bb df       	rcall	.-138    	; 0x4ba <I2C_write>
	    if (status != 0) goto error;
     544:	81 11       	cpse	r24, r1
     546:	1d c0       	rjmp	.+58     	; 0x582 <I2C_read_bytes+0x76>
        ++reg_ptr;
     548:	8f ef       	ldi	r24, 0xFF	; 255
     54a:	c8 1a       	sub	r12, r24
     54c:	d8 0a       	sbc	r13, r24
        --reg_len;
     54e:	fa 94       	dec	r15
     550:	f5 cf       	rjmp	.-22     	; 0x53c <I2C_read_bytes+0x30>
     552:	01 34       	cpi	r16, 0x41	; 65
     554:	08 f0       	brcs	.+2      	; 0x558 <I2C_read_bytes+0x4c>
     556:	00 e4       	ldi	r16, 0x40	; 64
    }
	I2C_rep_start((slave_addr << 1) + 1);							// slave read address, LSB 1
     558:	1f 5f       	subi	r17, 0xFF	; 255
// the Atmel device documentation mentions a special command for repeated start TWI_MCMD_REPSTART_gc,
// but this is not used in Atmel's demo code, so we don't use it either

void I2C_rep_start(uint8_t shifted_addr)						    // send repeated start, device_addr + LSB set if READ
{
	TWI0.MADDR = shifted_addr;	
     55a:	10 93 17 08 	sts	0x0817, r17	; 0x800817 <__TEXT_REGION_LENGTH__+0x700817>
	    if (status != 0) goto error;
        ++reg_ptr;
        --reg_len;
    }
	I2C_rep_start((slave_addr << 1) + 1);							// slave read address, LSB 1
	while (dat_len > 1) {
     55e:	02 30       	cpi	r16, 0x02	; 2
		status = I2C_read(dat_ptr, 0);								// first bytes, send ACK
     560:	40 f0       	brcs	.+16     	; 0x572 <I2C_read_bytes+0x66>
     562:	60 e0       	ldi	r22, 0x00	; 0
     564:	ce 01       	movw	r24, r28
     566:	68 df       	rcall	.-304    	; 0x438 <I2C_read>
		if (status != 0) goto error;
     568:	81 11       	cpse	r24, r1
     56a:	0b c0       	rjmp	.+22     	; 0x582 <I2C_read_bytes+0x76>
		++dat_ptr;
		--dat_len;
     56c:	21 96       	adiw	r28, 0x01	; 1
     56e:	01 50       	subi	r16, 0x01	; 1
	}
	status = I2C_read(dat_ptr, 1);									// single or last byte, send NACK
     570:	f6 cf       	rjmp	.-20     	; 0x55e <I2C_read_bytes+0x52>
     572:	61 e0       	ldi	r22, 0x01	; 1
     574:	ce 01       	movw	r24, r28
	if (status != 0) goto error;
     576:	60 df       	rcall	.-320    	; 0x438 <I2C_read>
     578:	81 11       	cpse	r24, r1
	I2C_stop();
     57a:	03 c0       	rjmp	.+6      	; 0x582 <I2C_read_bytes+0x76>
     57c:	c1 df       	rcall	.-126    	; 0x500 <I2C_stop>
	return 0;
     57e:	80 e0       	ldi	r24, 0x00	; 0
     580:	02 c0       	rjmp	.+4      	; 0x586 <I2C_read_bytes+0x7a>
	
error:
	I2C_recover();													// clock out possibly stuck slave, reset master
     582:	e4 de       	rcall	.-568    	; 0x34c <I2C_recover>
     584:	8f ef       	ldi	r24, 0xFF	; 255
	return 0xff;													// flag error
     586:	df 91       	pop	r29
}
     588:	cf 91       	pop	r28
     58a:	1f 91       	pop	r17
     58c:	0f 91       	pop	r16
     58e:	ff 90       	pop	r15
     590:	df 90       	pop	r13
     592:	cf 90       	pop	r12
     594:	08 95       	ret

00000596 <initLanyard>:
uint8_t         lanyardCnt = 0;
uint8_t         lanyardState = TRUE;
uint16_t        lanyardLastActive = 0;

void initLanyard() {
    lanyardPos      = 0;
     596:	10 92 39 38 	sts	0x3839, r1	; 0x803839 <lanyardPos>
    lanyardCnt      = 0;
     59a:	10 92 38 38 	sts	0x3838, r1	; 0x803838 <lanyardCnt>
    lanyardState    = TRUE;
     59e:	81 e0       	ldi	r24, 0x01	; 1
     5a0:	80 93 02 38 	sts	0x3802, r24	; 0x803802 <lanyardState>
    ClearHackerLeds();
     5a4:	0c 94 25 0b 	jmp	0x164a	; 0x164a <ClearHackerLeds>

000005a8 <LanyardCode>:
}

// Main game loop
uint8_t LanyardCode(){
     5a8:	cf 93       	push	r28
    if (gameNow == LANYARD && idleTimeout(lanyardLastActive,LANYARD_MAX_IDLE)) {
     5aa:	80 91 3e 38 	lds	r24, 0x383E	; 0x80383e <gameNow>
     5ae:	83 30       	cpi	r24, 0x03	; 3
     5b0:	91 f4       	brne	.+36     	; 0x5d6 <LanyardCode+0x2e>
     5b2:	6a e0       	ldi	r22, 0x0A	; 10
     5b4:	70 e0       	ldi	r23, 0x00	; 0
     5b6:	80 91 36 38 	lds	r24, 0x3836	; 0x803836 <lanyardLastActive>
     5ba:	90 91 37 38 	lds	r25, 0x3837	; 0x803837 <lanyardLastActive+0x1>
     5be:	0e 94 35 0e 	call	0x1c6a	; 0x1c6a <idleTimeout>
     5c2:	88 23       	and	r24, r24
     5c4:	41 f0       	breq	.+16     	; 0x5d6 <LanyardCode+0x2e>
        /* clean up maze game and go back to text game */
        initLanyard();
     5c6:	e7 df       	rcall	.-50     	; 0x596 <initLanyard>
        gameNow = TEXT;
     5c8:	10 92 3e 38 	sts	0x383E, r1	; 0x80383e <gameNow>
        effect = 0;
     5cc:	10 92 3c 38 	sts	0x383C, r1	; 0x80383c <effect>
     5d0:	10 92 3d 38 	sts	0x383D, r1	; 0x80383d <effect+0x1>
        return 0;
     5d4:	9b c0       	rjmp	.+310    	; 0x70c <LanyardCode+0x164>
    }

    if (CheckState(LANYARD_COMPLETED))
     5d6:	8b e7       	ldi	r24, 0x7B	; 123
     5d8:	2b d7       	rcall	.+3670   	; 0x1430 <CheckState>
     5da:	81 11       	cpse	r24, r1
     5dc:	97 c0       	rjmp	.+302    	; 0x70c <LanyardCode+0x164>
        return 0;

    if ( gameNow != TEXT && gameNow != LANYARD )
     5de:	80 91 3e 38 	lds	r24, 0x383E	; 0x80383e <gameNow>
     5e2:	88 23       	and	r24, r24
     5e4:	19 f0       	breq	.+6      	; 0x5ec <LanyardCode+0x44>
     5e6:	83 30       	cpi	r24, 0x03	; 3
     5e8:	09 f0       	breq	.+2      	; 0x5ec <LanyardCode+0x44>
     5ea:	90 c0       	rjmp	.+288    	; 0x70c <LanyardCode+0x164>
        return 0;

    /* activate led for buttonstate */
    iLED[CAT] = (buttonState==0xff ? 0 : dimValue);
     5ec:	c0 91 2a bf 	lds	r28, 0xBF2A	; 0x80bf2a <__bss_end+0x8416>
     5f0:	ec 2f       	mov	r30, r28
     5f2:	f0 e0       	ldi	r31, 0x00	; 0
     5f4:	80 91 08 38 	lds	r24, 0x3808	; 0x803808 <buttonState>
     5f8:	8f 3f       	cpi	r24, 0xFF	; 255
     5fa:	19 f0       	breq	.+6      	; 0x602 <LanyardCode+0x5a>
     5fc:	90 91 0c 38 	lds	r25, 0x380C	; 0x80380c <dimValue>
     600:	01 c0       	rjmp	.+2      	; 0x604 <LanyardCode+0x5c>
     602:	90 e0       	ldi	r25, 0x00	; 0
     604:	eb 53       	subi	r30, 0x3B	; 59
     606:	f5 4c       	sbci	r31, 0xC5	; 197
     608:	90 83       	st	Z, r25

    if (buttonState == 0xff)
     60a:	8f 3f       	cpi	r24, 0xFF	; 255
     60c:	09 f4       	brne	.+2      	; 0x610 <LanyardCode+0x68>
     60e:	7e c0       	rjmp	.+252    	; 0x70c <LanyardCode+0x164>
        return 0;

    if (buttonState == lastButtonState)
     610:	90 91 07 38 	lds	r25, 0x3807	; 0x803807 <lastButtonState>
     614:	89 17       	cp	r24, r25
     616:	09 f4       	brne	.+2      	; 0x61a <LanyardCode+0x72>
     618:	79 c0       	rjmp	.+242    	; 0x70c <LanyardCode+0x164>
        return 0;

    lanyardLastActive = getClock();
     61a:	0e 94 26 0e 	call	0x1c4c	; 0x1c4c <getClock>
     61e:	80 93 36 38 	sts	0x3836, r24	; 0x803836 <lanyardLastActive>
     622:	90 93 37 38 	sts	0x3837, r25	; 0x803837 <lanyardLastActive+0x1>

    if (lastButtonState == 0xff){
     626:	80 91 07 38 	lds	r24, 0x3807	; 0x803807 <lastButtonState>
     62a:	8f 3f       	cpi	r24, 0xFF	; 255
     62c:	09 f0       	breq	.+2      	; 0x630 <LanyardCode+0x88>
     62e:	6e c0       	rjmp	.+220    	; 0x70c <LanyardCode+0x164>
        effect = 0x13f + (buttonState << 5);
     630:	80 91 08 38 	lds	r24, 0x3808	; 0x803808 <buttonState>
     634:	20 e2       	ldi	r18, 0x20	; 32
     636:	82 9f       	mul	r24, r18
     638:	c0 01       	movw	r24, r0
     63a:	11 24       	eor	r1, r1
     63c:	81 5c       	subi	r24, 0xC1	; 193
     63e:	9e 4f       	sbci	r25, 0xFE	; 254
     640:	80 93 3c 38 	sts	0x383C, r24	; 0x80383c <effect>
     644:	90 93 3d 38 	sts	0x383D, r25	; 0x80383d <effect+0x1>

        if (gameNow != LANYARD)
     648:	80 91 3e 38 	lds	r24, 0x383E	; 0x80383e <gameNow>
     64c:	83 30       	cpi	r24, 0x03	; 3
            initLanyard();
     64e:	09 f0       	breq	.+2      	; 0x652 <LanyardCode+0xaa>
     650:	a2 df       	rcall	.-188    	; 0x596 <initLanyard>
        gameNow = LANYARD;
     652:	83 e0       	ldi	r24, 0x03	; 3
     654:	80 93 3e 38 	sts	0x383E, r24	; 0x80383e <gameNow>

        if (buttonState == lanyardCode[lanyardPos]) {
     658:	80 91 39 38 	lds	r24, 0x3839	; 0x803839 <lanyardPos>
     65c:	e8 2f       	mov	r30, r24
     65e:	f0 e0       	ldi	r31, 0x00	; 0
     660:	ee 5e       	subi	r30, 0xEE	; 238
     662:	f0 44       	sbci	r31, 0x40	; 64
     664:	20 81       	ld	r18, Z
     666:	90 91 08 38 	lds	r25, 0x3808	; 0x803808 <buttonState>
     66a:	29 13       	cpse	r18, r25
     66c:	12 c0       	rjmp	.+36     	; 0x692 <LanyardCode+0xea>
            lanyardState &= TRUE;
     66e:	90 91 02 38 	lds	r25, 0x3802	; 0x803802 <lanyardState>
     672:	91 70       	andi	r25, 0x01	; 1
     674:	90 93 02 38 	sts	0x3802, r25	; 0x803802 <lanyardState>
            iLED[EYE[R][L]] = 0;
     678:	e0 91 39 bf 	lds	r30, 0xBF39	; 0x80bf39 <__bss_end+0x8425>
     67c:	f0 e0       	ldi	r31, 0x00	; 0
     67e:	eb 53       	subi	r30, 0x3B	; 59
     680:	f5 4c       	sbci	r31, 0xC5	; 197
     682:	10 82       	st	Z, r1
            iLED[EYE[R][R]] = 0;
     684:	e0 91 38 bf 	lds	r30, 0xBF38	; 0x80bf38 <__bss_end+0x8424>
     688:	f0 e0       	ldi	r31, 0x00	; 0
     68a:	eb 53       	subi	r30, 0x3B	; 59
     68c:	f5 4c       	sbci	r31, 0xC5	; 197
     68e:	10 82       	st	Z, r1
     690:	09 c0       	rjmp	.+18     	; 0x6a4 <LanyardCode+0xfc>
        } else {
            lanyardState = FALSE;
     692:	10 92 02 38 	sts	0x3802, r1	; 0x803802 <lanyardState>
            if (lanyardPos < 4 ) {
     696:	84 30       	cpi	r24, 0x04	; 4
                initLanyard();
     698:	28 f4       	brcc	.+10     	; 0x6a4 <LanyardCode+0xfc>
     69a:	7d df       	rcall	.-262    	; 0x596 <initLanyard>
                gameNow         = BASTET;
     69c:	82 e0       	ldi	r24, 0x02	; 2
     69e:	80 93 3e 38 	sts	0x383E, r24	; 0x80383e <gameNow>
                return 0;
     6a2:	34 c0       	rjmp	.+104    	; 0x70c <LanyardCode+0x164>
            }
        }
        lanyardPos++;
     6a4:	8f 5f       	subi	r24, 0xFF	; 255
     6a6:	80 93 39 38 	sts	0x3839, r24	; 0x803839 <lanyardPos>
        lanyardCnt++;            
     6aa:	90 91 38 38 	lds	r25, 0x3838	; 0x803838 <lanyardCnt>
     6ae:	9f 5f       	subi	r25, 0xFF	; 255
        if (lanyardCnt >= 4) {
     6b0:	94 30       	cpi	r25, 0x04	; 4
     6b2:	18 f4       	brcc	.+6      	; 0x6ba <LanyardCode+0x112>
                gameNow         = BASTET;
                return 0;
            }
        }
        lanyardPos++;
        lanyardCnt++;            
     6b4:	90 93 38 38 	sts	0x3838, r25	; 0x803838 <lanyardCnt>
     6b8:	29 c0       	rjmp	.+82     	; 0x70c <LanyardCode+0x164>
        if (lanyardCnt >= 4) {
            lanyardCnt = 0;
     6ba:	10 92 38 38 	sts	0x3838, r1	; 0x803838 <lanyardCnt>
            if (lanyardState == TRUE) {
     6be:	90 91 02 38 	lds	r25, 0x3802	; 0x803802 <lanyardState>
     6c2:	91 30       	cpi	r25, 0x01	; 1
     6c4:	e1 f4       	brne	.+56     	; 0x6fe <LanyardCode+0x156>
                if ((lanyardPos % 4) == 0) {
     6c6:	98 2f       	mov	r25, r24
     6c8:	93 70       	andi	r25, 0x03	; 3
     6ca:	69 f4       	brne	.+26     	; 0x6e6 <LanyardCode+0x13e>
                    iLED[HCKR[G][(lanyardPos>>2)-1]] = dimValue;
     6cc:	e8 2f       	mov	r30, r24
     6ce:	e6 95       	lsr	r30
     6d0:	e6 95       	lsr	r30
     6d2:	f0 e0       	ldi	r31, 0x00	; 0
     6d4:	e4 5c       	subi	r30, 0xC4	; 196
     6d6:	f0 44       	sbci	r31, 0x40	; 64
     6d8:	e5 81       	ldd	r30, Z+5	; 0x05
     6da:	f0 e0       	ldi	r31, 0x00	; 0
     6dc:	90 91 0c 38 	lds	r25, 0x380C	; 0x80380c <dimValue>
     6e0:	eb 53       	subi	r30, 0x3B	; 59
     6e2:	f5 4c       	sbci	r31, 0xC5	; 197
                }
                if (lanyardPos == sizeof(lanyardCode)) {
     6e4:	90 83       	st	Z, r25
     6e6:	88 31       	cpi	r24, 0x18	; 24
                    UpdateState(LANYARD_COMPLETED);
     6e8:	89 f4       	brne	.+34     	; 0x70c <LanyardCode+0x164>
     6ea:	8b e7       	ldi	r24, 0x7B	; 123
     6ec:	80 d6       	rcall	.+3328   	; 0x13ee <UpdateState>
                    iLED[CAT]       = 0;
     6ee:	ec 2f       	mov	r30, r28
     6f0:	f0 e0       	ldi	r31, 0x00	; 0
     6f2:	eb 53       	subi	r30, 0x3B	; 59
     6f4:	f5 4c       	sbci	r31, 0xC5	; 197
                    effect = 0x42;
     6f6:	10 82       	st	Z, r1
     6f8:	82 e4       	ldi	r24, 0x42	; 66
     6fa:	90 e0       	ldi	r25, 0x00	; 0
                    /*TODO state = STATE_MUSIC;*/
                }
            } else {
                initLanyard();
     6fc:	03 c0       	rjmp	.+6      	; 0x704 <LanyardCode+0x15c>
     6fe:	4b df       	rcall	.-362    	; 0x596 <initLanyard>
                effect = 0x21;
     700:	81 e2       	ldi	r24, 0x21	; 33
     702:	90 e0       	ldi	r25, 0x00	; 0
     704:	80 93 3c 38 	sts	0x383C, r24	; 0x80383c <effect>
     708:	90 93 3d 38 	sts	0x383D, r25	; 0x80383d <effect+0x1>
            }
        }
    }

    return 0;
}
     70c:	80 e0       	ldi	r24, 0x00	; 0
     70e:	cf 91       	pop	r28
     710:	08 95       	ret

00000712 <initMaze>:
uint8_t         mazeState = TRUE;
uint8_t         inverted  = FALSE;
uint16_t        mazeLastActive = 0;

void initMaze() {
    mazeHckrPos = 0;
     712:	10 92 4b 38 	sts	0x384B, r1	; 0x80384b <mazeHckrPos>
    mazePos = 0;
     716:	10 92 4c 38 	sts	0x384C, r1	; 0x80384c <mazePos>
    mazeCnt = 0;
     71a:	10 92 4a 38 	sts	0x384A, r1	; 0x80384a <mazeCnt>
    mazeState = TRUE;
     71e:	81 e0       	ldi	r24, 0x01	; 1
     720:	80 93 0d 38 	sts	0x380D, r24	; 0x80380d <mazeState>
    inverted  = FALSE;
     724:	10 92 49 38 	sts	0x3849, r1	; 0x803849 <inverted>
    ClearHackerLeds();
     728:	90 c7       	rjmp	.+3872   	; 0x164a <ClearHackerLeds>

0000072a <showFieldStrength>:
}

void showFieldStrength(int16_t val) {
    int16_t field;
 
    field = abs(val);
     72a:	97 ff       	sbrs	r25, 7
     72c:	03 c0       	rjmp	.+6      	; 0x734 <showFieldStrength+0xa>
     72e:	91 95       	neg	r25
     730:	81 95       	neg	r24
     732:	91 09       	sbc	r25, r1
 
    if ( field > HALL_FIELD_0 )
     734:	8d 33       	cpi	r24, 0x3D	; 61
     736:	91 05       	cpc	r25, r1
     738:	1c f0       	brlt	.+6      	; 0x740 <showFieldStrength+0x16>
         gameNow = MAZE;
     73a:	21 e0       	ldi	r18, 0x01	; 1
     73c:	20 93 3e 38 	sts	0x383E, r18	; 0x80383e <gameNow>

    if (gameNow == MAZE) {
     740:	20 91 3e 38 	lds	r18, 0x383E	; 0x80383e <gameNow>
     744:	21 30       	cpi	r18, 0x01	; 1
     746:	09 f5       	brne	.+66     	; 0x78a <showFieldStrength+0x60>
        if ( field < HALL_FIELD_0 )
     748:	8c 33       	cpi	r24, 0x3C	; 60
     74a:	91 05       	cpc	r25, r1
     74c:	1c f4       	brge	.+6      	; 0x754 <showFieldStrength+0x2a>
            WingBar(0,0);
     74e:	60 e0       	ldi	r22, 0x00	; 0
     750:	80 e0       	ldi	r24, 0x00	; 0
     752:	1a c0       	rjmp	.+52     	; 0x788 <showFieldStrength+0x5e>
        else if ( field < HALL_FIELD_1 )
     754:	88 37       	cpi	r24, 0x78	; 120
     756:	91 05       	cpc	r25, r1
     758:	1c f4       	brge	.+6      	; 0x760 <showFieldStrength+0x36>
            WingBar(1,1);
     75a:	61 e0       	ldi	r22, 0x01	; 1
     75c:	81 e0       	ldi	r24, 0x01	; 1
     75e:	14 c0       	rjmp	.+40     	; 0x788 <showFieldStrength+0x5e>
        else if ( field < HALL_FIELD_2 )
     760:	86 39       	cpi	r24, 0x96	; 150
     762:	91 05       	cpc	r25, r1
     764:	1c f4       	brge	.+6      	; 0x76c <showFieldStrength+0x42>
            WingBar(2,2);
     766:	62 e0       	ldi	r22, 0x02	; 2
     768:	82 e0       	ldi	r24, 0x02	; 2
     76a:	0e c0       	rjmp	.+28     	; 0x788 <showFieldStrength+0x5e>
        else if ( field < HALL_FIELD_3 )
     76c:	88 3c       	cpi	r24, 0xC8	; 200
     76e:	91 05       	cpc	r25, r1
     770:	1c f4       	brge	.+6      	; 0x778 <showFieldStrength+0x4e>
            WingBar(3,3);
     772:	63 e0       	ldi	r22, 0x03	; 3
     774:	83 e0       	ldi	r24, 0x03	; 3
     776:	08 c0       	rjmp	.+16     	; 0x788 <showFieldStrength+0x5e>
        else if ( field < HALL_FIELD_4 )
     778:	8c 32       	cpi	r24, 0x2C	; 44
     77a:	91 40       	sbci	r25, 0x01	; 1
     77c:	1c f4       	brge	.+6      	; 0x784 <showFieldStrength+0x5a>
            WingBar(4,4);
     77e:	64 e0       	ldi	r22, 0x04	; 4
     780:	84 e0       	ldi	r24, 0x04	; 4
     782:	02 c0       	rjmp	.+4      	; 0x788 <showFieldStrength+0x5e>
        else
            WingBar(5,5);
     784:	65 e0       	ldi	r22, 0x05	; 5
     786:	85 e0       	ldi	r24, 0x05	; 5
     788:	22 c7       	rjmp	.+3652   	; 0x15ce <WingBar>
     78a:	08 95       	ret

0000078c <MagnetMaze>:
    }
}

// Main game loop
uint8_t MagnetMaze(){
     78c:	cf 93       	push	r28
     78e:	df 93       	push	r29
    if (gameNow == MAZE && idleTimeout(mazeLastActive,MAZE_MAX_IDLE)) {
     790:	80 91 3e 38 	lds	r24, 0x383E	; 0x80383e <gameNow>
     794:	81 30       	cpi	r24, 0x01	; 1
     796:	71 f4       	brne	.+28     	; 0x7b4 <MagnetMaze+0x28>
     798:	6a e0       	ldi	r22, 0x0A	; 10
     79a:	70 e0       	ldi	r23, 0x00	; 0
     79c:	80 91 47 38 	lds	r24, 0x3847	; 0x803847 <mazeLastActive>
     7a0:	90 91 48 38 	lds	r25, 0x3848	; 0x803848 <mazeLastActive+0x1>
     7a4:	0e 94 35 0e 	call	0x1c6a	; 0x1c6a <idleTimeout>
     7a8:	88 23       	and	r24, r24
     7aa:	21 f0       	breq	.+8      	; 0x7b4 <MagnetMaze+0x28>
        /* clean up maze game and go back to text game */
        initMaze();
     7ac:	b2 df       	rcall	.-156    	; 0x712 <initMaze>
        gameNow = TEXT;
     7ae:	10 92 3e 38 	sts	0x383E, r1	; 0x80383e <gameNow>
        return 0;
     7b2:	e5 c0       	rjmp	.+458    	; 0x97e <MagnetMaze+0x1f2>
    }
        
    if (CheckState(MAZE_INACTIVE))
     7b4:	87 ef       	ldi	r24, 0xF7	; 247
     7b6:	3c d6       	rcall	.+3192   	; 0x1430 <CheckState>
     7b8:	81 11       	cpse	r24, r1
     7ba:	e1 c0       	rjmp	.+450    	; 0x97e <MagnetMaze+0x1f2>
        return 0;

    if (CheckState(MAZE_COMPLETED))
     7bc:	8d e7       	ldi	r24, 0x7D	; 125
     7be:	38 d6       	rcall	.+3184   	; 0x1430 <CheckState>
     7c0:	81 11       	cpse	r24, r1
     7c2:	dd c0       	rjmp	.+442    	; 0x97e <MagnetMaze+0x1f2>
     7c4:	80 91 3e 38 	lds	r24, 0x383E	; 0x80383e <gameNow>
        return 0;

    if ( (gameNow != TEXT) && (gameNow != MAZE) )
     7c8:	82 30       	cpi	r24, 0x02	; 2
     7ca:	08 f0       	brcs	.+2      	; 0x7ce <MagnetMaze+0x42>
     7cc:	d8 c0       	rjmp	.+432    	; 0x97e <MagnetMaze+0x1f2>
     7ce:	80 91 ed 3a 	lds	r24, 0x3AED	; 0x803aed <calHall>
        return 0;

    if (calHall == 0)
     7d2:	90 91 ee 3a 	lds	r25, 0x3AEE	; 0x803aee <calHall+0x1>
     7d6:	89 2b       	or	r24, r25
     7d8:	41 f4       	brne	.+16     	; 0x7ea <MagnetMaze+0x5e>
     7da:	80 91 bd 3a 	lds	r24, 0x3ABD	; 0x803abd <adcHall>
        calHall = adcHall;
     7de:	90 91 be 3a 	lds	r25, 0x3ABE	; 0x803abe <adcHall+0x1>
     7e2:	80 93 ed 3a 	sts	0x3AED, r24	; 0x803aed <calHall>
     7e6:	90 93 ee 3a 	sts	0x3AEE, r25	; 0x803aee <calHall+0x1>
     7ea:	c0 91 bd 3a 	lds	r28, 0x3ABD	; 0x803abd <adcHall>

    int16_t valHall = adcHall - calHall;
     7ee:	d0 91 be 3a 	lds	r29, 0x3ABE	; 0x803abe <adcHall+0x1>
     7f2:	80 91 ed 3a 	lds	r24, 0x3AED	; 0x803aed <calHall>
     7f6:	90 91 ee 3a 	lds	r25, 0x3AEE	; 0x803aee <calHall+0x1>
     7fa:	c8 1b       	sub	r28, r24
     7fc:	d9 0b       	sbc	r29, r25
    showFieldStrength(valHall);
     7fe:	ce 01       	movw	r24, r28
     800:	94 df       	rcall	.-216    	; 0x72a <showFieldStrength>
     802:	80 91 4e 38 	lds	r24, 0x384E	; 0x80384e <curHallState>

    switch (curHallState) {
     806:	81 30       	cpi	r24, 0x01	; 1
     808:	89 f0       	breq	.+34     	; 0x82c <MagnetMaze+0xa0>
     80a:	18 f0       	brcs	.+6      	; 0x812 <MagnetMaze+0x86>
     80c:	82 30       	cpi	r24, 0x02	; 2
     80e:	c1 f0       	breq	.+48     	; 0x840 <MagnetMaze+0xb4>
     810:	1f c0       	rjmp	.+62     	; 0x850 <MagnetMaze+0xc4>
     812:	c4 3d       	cpi	r28, 0xD4	; 212
        case 0:
            if ( valHall + HALL_HIGH < 0 ) {
     814:	9e ef       	ldi	r25, 0xFE	; 254
     816:	d9 07       	cpc	r29, r25
     818:	14 f4       	brge	.+4      	; 0x81e <MagnetMaze+0x92>
     81a:	91 e0       	ldi	r25, 0x01	; 1
                newHallState = 1;
     81c:	04 c0       	rjmp	.+8      	; 0x826 <MagnetMaze+0x9a>
     81e:	cd 32       	cpi	r28, 0x2D	; 45
            } else if ( valHall - HALL_HIGH > 0 ) {
     820:	d1 40       	sbci	r29, 0x01	; 1
     822:	5c f0       	brlt	.+22     	; 0x83a <MagnetMaze+0xae>
     824:	92 e0       	ldi	r25, 0x02	; 2
                newHallState = 2;
     826:	90 93 4d 38 	sts	0x384D, r25	; 0x80384d <newHallState>
     82a:	12 c0       	rjmp	.+36     	; 0x850 <MagnetMaze+0xc4>
     82c:	cd 32       	cpi	r28, 0x2D	; 45
                newHallState = 0;
            }
            break;
        
        case 1:
            if ( valHall - HALL_HIGH > 0 ) {
     82e:	91 e0       	ldi	r25, 0x01	; 1
     830:	d9 07       	cpc	r29, r25
     832:	c4 f7       	brge	.-16     	; 0x824 <MagnetMaze+0x98>
     834:	c9 38       	cpi	r28, 0x89	; 137
                newHallState = 2;
            } else if ( valHall + HALL_LOW > 0 ) {
     836:	df 4f       	sbci	r29, 0xFF	; 255
     838:	84 f3       	brlt	.-32     	; 0x81a <MagnetMaze+0x8e>
     83a:	10 92 4d 38 	sts	0x384D, r1	; 0x80384d <newHallState>
            if ( valHall + HALL_HIGH < 0 ) {
                newHallState = 1;
            } else if ( valHall - HALL_HIGH > 0 ) {
                newHallState = 2;
            } else {
                newHallState = 0;
     83e:	08 c0       	rjmp	.+16     	; 0x850 <MagnetMaze+0xc4>
     840:	c4 3d       	cpi	r28, 0xD4	; 212
                newHallState = 1;
            }
            break;
        
        case 2:
            if ( valHall + HALL_HIGH < 0 ) {
     842:	9e ef       	ldi	r25, 0xFE	; 254
     844:	d9 07       	cpc	r29, r25
     846:	4c f3       	brlt	.-46     	; 0x81a <MagnetMaze+0x8e>
     848:	c8 37       	cpi	r28, 0x78	; 120
                newHallState = 1;
            } else if ( valHall - HALL_LOW < 0 ) {
     84a:	d1 05       	cpc	r29, r1
     84c:	b4 f3       	brlt	.-20     	; 0x83a <MagnetMaze+0xae>
     84e:	ea cf       	rjmp	.-44     	; 0x824 <MagnetMaze+0x98>
     850:	c0 91 2a bf 	lds	r28, 0xBF2A	; 0x80bf2a <__bss_end+0x8416>
            }
            break;
    }

    /* Indicate that the magnet was read succesfully */
    iLED[CAT] = (newHallState ? dimValue : 0);
     854:	ec 2f       	mov	r30, r28
     856:	f0 e0       	ldi	r31, 0x00	; 0
     858:	90 91 4d 38 	lds	r25, 0x384D	; 0x80384d <newHallState>
     85c:	99 23       	and	r25, r25
     85e:	19 f0       	breq	.+6      	; 0x866 <MagnetMaze+0xda>
     860:	20 91 0c 38 	lds	r18, 0x380C	; 0x80380c <dimValue>
     864:	01 c0       	rjmp	.+2      	; 0x868 <MagnetMaze+0xdc>
     866:	20 e0       	ldi	r18, 0x00	; 0
     868:	eb 53       	subi	r30, 0x3B	; 59
     86a:	f5 4c       	sbci	r31, 0xC5	; 197
     86c:	20 83       	st	Z, r18
     86e:	2f e9       	ldi	r18, 0x9F	; 159
    effect = 0x19f;
     870:	31 e0       	ldi	r19, 0x01	; 1
     872:	20 93 3c 38 	sts	0x383C, r18	; 0x80383c <effect>
     876:	30 93 3d 38 	sts	0x383D, r19	; 0x80383d <effect+0x1>
     87a:	89 17       	cp	r24, r25

    if (newHallState != curHallState) {
     87c:	09 f4       	brne	.+2      	; 0x880 <MagnetMaze+0xf4>
     87e:	7f c0       	rjmp	.+254    	; 0x97e <MagnetMaze+0x1f2>
     880:	0e 94 26 0e 	call	0x1c4c	; 0x1c4c <getClock>
        /* keep track of time to enable an idle timeout to exit the game */
        mazeLastActive = getClock();
     884:	80 93 47 38 	sts	0x3847, r24	; 0x803847 <mazeLastActive>
     888:	90 93 48 38 	sts	0x3848, r25	; 0x803848 <mazeLastActive+0x1>
     88c:	90 91 4c 38 	lds	r25, 0x384C	; 0x80384c <mazePos>

        /* Make the maze work regardless of badge orientation */
        if ((mazePos == 0) && (newHallState != 0))
     890:	80 91 4d 38 	lds	r24, 0x384D	; 0x80384d <newHallState>
     894:	91 11       	cpse	r25, r1
     896:	08 c0       	rjmp	.+16     	; 0x8a8 <MagnetMaze+0x11c>
     898:	88 23       	and	r24, r24
     89a:	31 f0       	breq	.+12     	; 0x8a8 <MagnetMaze+0x11c>
     89c:	91 e0       	ldi	r25, 0x01	; 1
            inverted = (newHallState != mazeCode[0]) ? TRUE : FALSE;
     89e:	81 30       	cpi	r24, 0x01	; 1
     8a0:	09 f4       	brne	.+2      	; 0x8a4 <MagnetMaze+0x118>
     8a2:	90 e0       	ldi	r25, 0x00	; 0
     8a4:	90 93 49 38 	sts	0x3849, r25	; 0x803849 <inverted>
     8a8:	80 93 4e 38 	sts	0x384E, r24	; 0x80384e <curHallState>

        curHallState = newHallState;
     8ac:	88 23       	and	r24, r24
        
        if (curHallState != 0) {
     8ae:	09 f4       	brne	.+2      	; 0x8b2 <MagnetMaze+0x126>
     8b0:	66 c0       	rjmp	.+204    	; 0x97e <MagnetMaze+0x1f2>
     8b2:	80 91 3e 38 	lds	r24, 0x383E	; 0x80383e <gameNow>
            if (gameNow == TEXT)
     8b6:	81 11       	cpse	r24, r1
     8b8:	01 c0       	rjmp	.+2      	; 0x8bc <MagnetMaze+0x130>
                initMaze();
     8ba:	2b df       	rcall	.-426    	; 0x712 <initMaze>
     8bc:	81 e0       	ldi	r24, 0x01	; 1
            gameNow = MAZE;
     8be:	80 93 3e 38 	sts	0x383E, r24	; 0x80383e <gameNow>
     8c2:	80 91 49 38 	lds	r24, 0x3849	; 0x803849 <inverted>

            if ( (inverted ? curHallState^3 : curHallState) == mazeCode[mazePos]) {
     8c6:	20 91 4e 38 	lds	r18, 0x384E	; 0x80384e <curHallState>
     8ca:	88 23       	and	r24, r24
     8cc:	11 f0       	breq	.+4      	; 0x8d2 <MagnetMaze+0x146>
     8ce:	83 e0       	ldi	r24, 0x03	; 3
     8d0:	28 27       	eor	r18, r24
     8d2:	30 e0       	ldi	r19, 0x00	; 0
     8d4:	80 91 4c 38 	lds	r24, 0x384C	; 0x80384c <mazePos>
     8d8:	e8 2f       	mov	r30, r24
     8da:	f0 e0       	ldi	r31, 0x00	; 0
     8dc:	e8 58       	subi	r30, 0x88	; 136
     8de:	f0 44       	sbci	r31, 0x40	; 64
     8e0:	40 81       	ld	r20, Z
     8e2:	50 e0       	ldi	r21, 0x00	; 0
     8e4:	24 17       	cp	r18, r20
     8e6:	35 07       	cpc	r19, r21
     8e8:	91 f4       	brne	.+36     	; 0x90e <MagnetMaze+0x182>
     8ea:	90 91 0d 38 	lds	r25, 0x380D	; 0x80380d <mazeState>
                mazeState &= TRUE;
     8ee:	91 70       	andi	r25, 0x01	; 1
     8f0:	90 93 0d 38 	sts	0x380D, r25	; 0x80380d <mazeState>
     8f4:	e0 91 39 bf 	lds	r30, 0xBF39	; 0x80bf39 <__bss_end+0x8425>
                iLED[EYE[R][L]] = 0;
     8f8:	f0 e0       	ldi	r31, 0x00	; 0
     8fa:	eb 53       	subi	r30, 0x3B	; 59
     8fc:	f5 4c       	sbci	r31, 0xC5	; 197
     8fe:	10 82       	st	Z, r1
     900:	e0 91 38 bf 	lds	r30, 0xBF38	; 0x80bf38 <__bss_end+0x8424>
                iLED[EYE[R][R]] = 0;
     904:	f0 e0       	ldi	r31, 0x00	; 0
     906:	eb 53       	subi	r30, 0x3B	; 59
     908:	f5 4c       	sbci	r31, 0xC5	; 197
     90a:	10 82       	st	Z, r1
     90c:	02 c0       	rjmp	.+4      	; 0x912 <MagnetMaze+0x186>
     90e:	10 92 0d 38 	sts	0x380D, r1	; 0x80380d <mazeState>
            } else {
                mazeState = FALSE;
     912:	8f 5f       	subi	r24, 0xFF	; 255
            }
            mazePos++;
     914:	80 93 4c 38 	sts	0x384C, r24	; 0x80384c <mazePos>
     918:	90 91 4a 38 	lds	r25, 0x384A	; 0x80384a <mazeCnt>
            mazeCnt++;            
     91c:	9f 5f       	subi	r25, 0xFF	; 255
     91e:	93 30       	cpi	r25, 0x03	; 3
            if (mazeCnt >= 3) {
     920:	18 f4       	brcc	.+6      	; 0x928 <MagnetMaze+0x19c>
     922:	90 93 4a 38 	sts	0x384A, r25	; 0x80384a <mazeCnt>
                iLED[EYE[R][R]] = 0;
            } else {
                mazeState = FALSE;
            }
            mazePos++;
            mazeCnt++;            
     926:	2b c0       	rjmp	.+86     	; 0x97e <MagnetMaze+0x1f2>
     928:	10 92 4a 38 	sts	0x384A, r1	; 0x80384a <mazeCnt>
            if (mazeCnt >= 3) {
                mazeCnt = 0;
     92c:	90 91 0d 38 	lds	r25, 0x380D	; 0x80380d <mazeState>
                if (mazeState == TRUE) {
     930:	91 30       	cpi	r25, 0x01	; 1
     932:	e1 f4       	brne	.+56     	; 0x96c <MagnetMaze+0x1e0>
     934:	90 91 4b 38 	lds	r25, 0x384B	; 0x80384b <mazeHckrPos>
                    iLED[HCKR[G][mazeHckrPos]] = dimValue;
     938:	e9 2f       	mov	r30, r25
     93a:	f0 e0       	ldi	r31, 0x00	; 0
     93c:	e4 5c       	subi	r30, 0xC4	; 196
     93e:	f0 44       	sbci	r31, 0x40	; 64
     940:	e6 81       	ldd	r30, Z+6	; 0x06
     942:	f0 e0       	ldi	r31, 0x00	; 0
     944:	20 91 0c 38 	lds	r18, 0x380C	; 0x80380c <dimValue>
     948:	eb 53       	subi	r30, 0x3B	; 59
     94a:	f5 4c       	sbci	r31, 0xC5	; 197
     94c:	20 83       	st	Z, r18
     94e:	9f 5f       	subi	r25, 0xFF	; 255
                    mazeHckrPos++;
     950:	90 93 4b 38 	sts	0x384B, r25	; 0x80384b <mazeHckrPos>
                    if (mazePos == sizeof(mazeCode)) {
     954:	82 31       	cpi	r24, 0x12	; 18
     956:	99 f4       	brne	.+38     	; 0x97e <MagnetMaze+0x1f2>
                        UpdateState(MAZE_COMPLETED);
     958:	8d e7       	ldi	r24, 0x7D	; 125
     95a:	49 d5       	rcall	.+2706   	; 0x13ee <UpdateState>
     95c:	ec 2f       	mov	r30, r28
                        iLED[CAT]       = 0;
     95e:	f0 e0       	ldi	r31, 0x00	; 0
     960:	eb 53       	subi	r30, 0x3B	; 59
     962:	f5 4c       	sbci	r31, 0xC5	; 197
     964:	10 82       	st	Z, r1
                        effect = 0x42;
     966:	82 e4       	ldi	r24, 0x42	; 66
     968:	90 e0       	ldi	r25, 0x00	; 0
     96a:	05 c0       	rjmp	.+10     	; 0x976 <MagnetMaze+0x1ea>
                        /*TODO state = STATE_MUSIC;*/
                    }
                } else {
                    initMaze();
     96c:	d2 de       	rcall	.-604    	; 0x712 <initMaze>
     96e:	10 92 3e 38 	sts	0x383E, r1	; 0x80383e <gameNow>
                    gameNow   = TEXT;
     972:	81 e2       	ldi	r24, 0x21	; 33
                    effect = 0x21;
     974:	90 e0       	ldi	r25, 0x00	; 0
     976:	80 93 3c 38 	sts	0x383C, r24	; 0x80383c <effect>
     97a:	90 93 3d 38 	sts	0x383D, r25	; 0x80383d <effect+0x1>
     97e:	80 e0       	ldi	r24, 0x00	; 0
                }
            }
        }
    }
    return 0;
}
     980:	df 91       	pop	r29
     982:	cf 91       	pop	r28
     984:	08 95       	ret

00000986 <Setup>:
     986:	cf 93       	push	r28
volatile uint16_t tmp16bit;    
volatile uint8_t mask[8] = {0x01, 0x03, 0x07, 0x0f, 0x1f, 0x3f, 0x7f, 0xff};
uint8_t HeartCount = 0;
uint8_t LedCount = 0;

void Setup(){
     988:	df 93       	push	r29
    cli();
     98a:	f8 94       	cli

    //Set up clock at 10MHz
    CCP = CCP_IOREG_gc;
     98c:	88 ed       	ldi	r24, 0xD8	; 216
     98e:	84 bf       	out	0x34, r24	; 52
    CLKCTRL_MCLKCTRLB = 0x01;
     990:	c1 e0       	ldi	r28, 0x01	; 1
     992:	c0 93 61 00 	sts	0x0061, r28	; 0x800061 <__TEXT_REGION_LENGTH__+0x700061>

    //Set I/O direction registers
    PORTA_DIR = 0b01001010;
     996:	8a e4       	ldi	r24, 0x4A	; 74
     998:	80 93 00 04 	sts	0x0400, r24	; 0x800400 <__TEXT_REGION_LENGTH__+0x700400>
    PORTB_DIR = 0b01111100;
     99c:	8c e7       	ldi	r24, 0x7C	; 124
     99e:	80 93 20 04 	sts	0x0420, r24	; 0x800420 <__TEXT_REGION_LENGTH__+0x700420>
    PORTC_DIR = 0b00111111;
     9a2:	9f e3       	ldi	r25, 0x3F	; 63
     9a4:	90 93 40 04 	sts	0x0440, r25	; 0x800440 <__TEXT_REGION_LENGTH__+0x700440>

    //Invert some pins for correcting LED reversal error
    PORTC_PIN3CTRL |= 0x80;
     9a8:	80 91 53 04 	lds	r24, 0x0453	; 0x800453 <__TEXT_REGION_LENGTH__+0x700453>
     9ac:	80 68       	ori	r24, 0x80	; 128
     9ae:	80 93 53 04 	sts	0x0453, r24	; 0x800453 <__TEXT_REGION_LENGTH__+0x700453>
    PORTC_PIN4CTRL |= 0x80;
     9b2:	80 91 54 04 	lds	r24, 0x0454	; 0x800454 <__TEXT_REGION_LENGTH__+0x700454>
     9b6:	80 68       	ori	r24, 0x80	; 128
     9b8:	80 93 54 04 	sts	0x0454, r24	; 0x800454 <__TEXT_REGION_LENGTH__+0x700454>
    PORTC_PIN5CTRL |= 0x80;
     9bc:	80 91 55 04 	lds	r24, 0x0455	; 0x800455 <__TEXT_REGION_LENGTH__+0x700455>
     9c0:	80 68       	ori	r24, 0x80	; 128
     9c2:	80 93 55 04 	sts	0x0455, r24	; 0x800455 <__TEXT_REGION_LENGTH__+0x700455>
    PORTB_PIN3CTRL |= 0x80;
     9c6:	80 91 33 04 	lds	r24, 0x0433	; 0x800433 <__TEXT_REGION_LENGTH__+0x700433>
     9ca:	80 68       	ori	r24, 0x80	; 128
     9cc:	80 93 33 04 	sts	0x0433, r24	; 0x800433 <__TEXT_REGION_LENGTH__+0x700433>
    PORTB_PIN4CTRL |= 0x80;
     9d0:	80 91 34 04 	lds	r24, 0x0434	; 0x800434 <__TEXT_REGION_LENGTH__+0x700434>
     9d4:	80 68       	ori	r24, 0x80	; 128
     9d6:	80 93 34 04 	sts	0x0434, r24	; 0x800434 <__TEXT_REGION_LENGTH__+0x700434>
    PORTB_PIN5CTRL |= 0x80;
     9da:	80 91 35 04 	lds	r24, 0x0435	; 0x800435 <__TEXT_REGION_LENGTH__+0x700435>
     9de:	80 68       	ori	r24, 0x80	; 128
     9e0:	80 93 35 04 	sts	0x0435, r24	; 0x800435 <__TEXT_REGION_LENGTH__+0x700435>
    PORTB_PIN2CTRL |= 0x80;
    PORTB_PIN6CTRL |= 0x80;
    */

    //UART (Alternative pins PA1=TxD, PA2=RxD, baudrate 9600, 8n1, RX and Buffer empty interrupts on)
    PORTMUX_CTRLB = 0x01;
     9e4:	c0 93 01 02 	sts	0x0201, r28	; 0x800201 <__TEXT_REGION_LENGTH__+0x700201>
    PORTA_OUTSET = 0x02;
     9e8:	d2 e0       	ldi	r29, 0x02	; 2
     9ea:	d0 93 05 04 	sts	0x0405, r29	; 0x800405 <__TEXT_REGION_LENGTH__+0x700405>
    USART0_BAUD = (uint16_t)USART0_BAUD_RATE(115200);
     9ee:	2b e5       	ldi	r18, 0x5B	; 91
     9f0:	31 e0       	ldi	r19, 0x01	; 1
     9f2:	20 93 08 08 	sts	0x0808, r18	; 0x800808 <__TEXT_REGION_LENGTH__+0x700808>
     9f6:	30 93 09 08 	sts	0x0809, r19	; 0x800809 <__TEXT_REGION_LENGTH__+0x700809>
    USART0_CTRLA = 0xA0; //Interrupts on
     9fa:	80 ea       	ldi	r24, 0xA0	; 160
     9fc:	80 93 05 08 	sts	0x0805, r24	; 0x800805 <__TEXT_REGION_LENGTH__+0x700805>
    USART0_CTRLB = 0xC0; //RX and TX on
     a00:	80 ec       	ldi	r24, 0xC0	; 192
     a02:	80 93 06 08 	sts	0x0806, r24	; 0x800806 <__TEXT_REGION_LENGTH__+0x700806>
    USART0_CTRLC = 0x03; //8 bits data, no parity, 1 stop bit
     a06:	83 e0       	ldi	r24, 0x03	; 3
     a08:	80 93 07 08 	sts	0x0807, r24	; 0x800807 <__TEXT_REGION_LENGTH__+0x700807>
     
    //GPIO registers 0..3 can be used for global variables used in ISR routines (ASM capability: IN, OUT, SBI, CBI, SBIS, SBIC)
    L_COL = 0;     //Used in LED array to hold currently driven column value
     a0c:	1c ba       	out	0x1c, r1	; 28
    RXCNT = 0;     //Used as UART receive counter
     a0e:	1d ba       	out	0x1d, r1	; 29
    GPIOR3 = 0;    //
     a10:	1f ba       	out	0x1f, r1	; 31

    //Init TCA (split mode, f_CLK/16, PWM on 6 alternative pins, underflow int enabled, synced and started)
    TCA0_SPLIT_CTRLD = 1;
     a12:	c0 93 03 0a 	sts	0x0A03, r28	; 0x800a03 <__TEXT_REGION_LENGTH__+0x700a03>
    TCA0_SPLIT_CTRLA = (0x4)<<1;
     a16:	88 e0       	ldi	r24, 0x08	; 8
     a18:	80 93 00 0a 	sts	0x0A00, r24	; 0x800a00 <__TEXT_REGION_LENGTH__+0x700a00>
    PORTMUX_CTRLC = 0x3F;
     a1c:	90 93 02 02 	sts	0x0202, r25	; 0x800202 <__TEXT_REGION_LENGTH__+0x700202>
    TCA0_SPLIT_CTRLB = 0x77;
     a20:	87 e7       	ldi	r24, 0x77	; 119
     a22:	80 93 01 0a 	sts	0x0A01, r24	; 0x800a01 <__TEXT_REGION_LENGTH__+0x700a01>
    TCA0_SPLIT_INTCTRL = 0x1;
     a26:	c0 93 0a 0a 	sts	0x0A0A, r28	; 0x800a0a <__TEXT_REGION_LENGTH__+0x700a0a>
    TCA0_SPLIT_CTRLESET = ((0x2)<<2)|0x3;
     a2a:	8b e0       	ldi	r24, 0x0B	; 11
     a2c:	80 93 05 0a 	sts	0x0A05, r24	; 0x800a05 <__TEXT_REGION_LENGTH__+0x700a05>
    TCA0_SPLIT_CTRLA |= 1;
     a30:	80 91 00 0a 	lds	r24, 0x0A00	; 0x800a00 <__TEXT_REGION_LENGTH__+0x700a00>
     a34:	81 60       	ori	r24, 0x01	; 1
     a36:	80 93 00 0a 	sts	0x0A00, r24	; 0x800a00 <__TEXT_REGION_LENGTH__+0x700a00>
     
    //Init TCB0 (compare value sets serial Tx pause between characters, uses TCA0 prescaler, enabled, interrupt disabled)
    TCB0_CTRLA = ((0x02)<<1)|0x01;
     a3a:	85 e0       	ldi	r24, 0x05	; 5
     a3c:	80 93 40 0a 	sts	0x0A40, r24	; 0x800a40 <__TEXT_REGION_LENGTH__+0x700a40>
    TCB0_CTRLB = 0;
     a40:	10 92 41 0a 	sts	0x0A41, r1	; 0x800a41 <__TEXT_REGION_LENGTH__+0x700a41>
    TCB0_CCMP = 0x01FF;
     a44:	8f ef       	ldi	r24, 0xFF	; 255
     a46:	91 e0       	ldi	r25, 0x01	; 1
     a48:	80 93 4c 0a 	sts	0x0A4C, r24	; 0x800a4c <__TEXT_REGION_LENGTH__+0x700a4c>
     a4c:	90 93 4d 0a 	sts	0x0A4D, r25	; 0x800a4d <__TEXT_REGION_LENGTH__+0x700a4d>
    TCB0_INTCTRL = 0x00;     
     a50:	10 92 45 0a 	sts	0x0A45, r1	; 0x800a45 <__TEXT_REGION_LENGTH__+0x700a45>
     
    //Init TCB1 (compare value sets audio sample rate (0x038B = 11025sps), enabled, interrupt enabled)
    TCB1_CTRLA = 0x01;
     a54:	c0 93 50 0a 	sts	0x0A50, r28	; 0x800a50 <__TEXT_REGION_LENGTH__+0x700a50>
    TCB1_CTRLB = 0;
     a58:	10 92 51 0a 	sts	0x0A51, r1	; 0x800a51 <__TEXT_REGION_LENGTH__+0x700a51>
    TCB1_CCMP = 0x038B;
     a5c:	8b e8       	ldi	r24, 0x8B	; 139
     a5e:	93 e0       	ldi	r25, 0x03	; 3
     a60:	80 93 5c 0a 	sts	0x0A5C, r24	; 0x800a5c <__TEXT_REGION_LENGTH__+0x700a5c>
     a64:	90 93 5d 0a 	sts	0x0A5D, r25	; 0x800a5d <__TEXT_REGION_LENGTH__+0x700a5d>
    TCB1_INTCTRL = 0x01;
     a68:	c0 93 55 0a 	sts	0x0A55, r28	; 0x800a55 <__TEXT_REGION_LENGTH__+0x700a55>

    //Init I2C (100kHz)
    I2C_init();
     a6c:	51 dc       	rcall	.-1886   	; 0x310 <I2C_init>

    //VREF (DAC, ADC's)
    VREF_CTRLA   = 0x12;    //0x22 for audio in/out (2.5V), 0x12 for temperature in, audio out (1.1V/2.5V)
     a6e:	82 e1       	ldi	r24, 0x12	; 18
     a70:	80 93 a0 00 	sts	0x00A0, r24	; 0x8000a0 <__TEXT_REGION_LENGTH__+0x7000a0>
    VREF_CTRLC   = 0x20;    //ADC1 reference at 2.5V
     a74:	80 e2       	ldi	r24, 0x20	; 32
     a76:	80 93 a2 00 	sts	0x00A2, r24	; 0x8000a2 <__TEXT_REGION_LENGTH__+0x7000a2>
    VREF_CTRLB   = 0x01;    //DAC0 ref forced enabled
     a7a:	c0 93 a1 00 	sts	0x00A1, r28	; 0x8000a1 <__TEXT_REGION_LENGTH__+0x7000a1>

    //Init ADC0 (audio in, also controls DAC output rate, internal temperature?)
    ADC0_CTRLA   = 0x02;    //10 bit resolution, free running
     a7e:	d0 93 00 06 	sts	0x0600, r29	; 0x800600 <__TEXT_REGION_LENGTH__+0x700600>
    ADC0_CTRLC   = 0x44;    //Reduced sample capacitor, internal reference, clock/32 => 24038sps
     a82:	84 e4       	ldi	r24, 0x44	; 68
     a84:	80 93 02 06 	sts	0x0602, r24	; 0x800602 <__TEXT_REGION_LENGTH__+0x700602>
    ADC0_MUXPOS  = 0x1E;    //Audio in: AIN7 at (0x07), Temperature: Internal sensor at (0x1E)
     a88:	8e e1       	ldi	r24, 0x1E	; 30
     a8a:	80 93 06 06 	sts	0x0606, r24	; 0x800606 <__TEXT_REGION_LENGTH__+0x700606>
    ADC0_INTCTRL = 0x01;    //Result ready interrupt enabled
     a8e:	c0 93 0a 06 	sts	0x060A, r28	; 0x80060a <__TEXT_REGION_LENGTH__+0x70060a>
    ADC0_CTRLA  |= 0x01;    //ADC0 enabled
     a92:	80 91 00 06 	lds	r24, 0x0600	; 0x800600 <__TEXT_REGION_LENGTH__+0x700600>
     a96:	81 60       	ori	r24, 0x01	; 1
     a98:	80 93 00 06 	sts	0x0600, r24	; 0x800600 <__TEXT_REGION_LENGTH__+0x700600>
    ADC0_COMMAND = 0x01;    //Start first conversion, after that it will run periodically.
     a9c:	c0 93 08 06 	sts	0x0608, r28	; 0x800608 <__TEXT_REGION_LENGTH__+0x700608>

    //Init ADC1 (buttons and sensors: CH0=Photo transistor, CH1=Hall, CH4=Buttons)
    ADC1_CTRLA   = 0;
     aa0:	10 92 40 06 	sts	0x0640, r1	; 0x800640 <__TEXT_REGION_LENGTH__+0x700640>
    ADC1_CTRLB   = 0x02;    //4 results automatically accumulated
     aa4:	d0 93 41 06 	sts	0x0641, r29	; 0x800641 <__TEXT_REGION_LENGTH__+0x700641>
    ADC1_CTRLC   = 0x52;    //Reduced sample capacitor, VDD as reference, clock/8
     aa8:	82 e5       	ldi	r24, 0x52	; 82
     aaa:	80 93 42 06 	sts	0x0642, r24	; 0x800642 <__TEXT_REGION_LENGTH__+0x700642>
    ADC1_SAMPCTRL= 0x04;    //Extend sampling time with 4 cycles (6 total)
     aae:	84 e0       	ldi	r24, 0x04	; 4
     ab0:	80 93 45 06 	sts	0x0645, r24	; 0x800645 <__TEXT_REGION_LENGTH__+0x700645>
    ADC1_MUXPOS  = 0x04;    //Start with Buttons, for sensors, activate sensor power first.
     ab4:	80 93 46 06 	sts	0x0646, r24	; 0x800646 <__TEXT_REGION_LENGTH__+0x700646>
    ADC1_INTCTRL = 0x01;    //Result ready interrupt enabled
     ab8:	c0 93 4a 06 	sts	0x064A, r28	; 0x80064a <__TEXT_REGION_LENGTH__+0x70064a>
    ADC1_CTRLA  |= 0x01;    //ADC0 enabled
     abc:	80 91 40 06 	lds	r24, 0x0640	; 0x800640 <__TEXT_REGION_LENGTH__+0x700640>
     ac0:	81 60       	ori	r24, 0x01	; 1
     ac2:	80 93 40 06 	sts	0x0640, r24	; 0x800640 <__TEXT_REGION_LENGTH__+0x700640>
    ADC1_COMMAND = 0x01;    //Start single conversion
     ac6:	c0 93 48 06 	sts	0x0648, r28	; 0x800648 <__TEXT_REGION_LENGTH__+0x700648>

    //Init DAC0
    DAC0_CTRLA = 0x40;     //Enable output buffer (connect to pin)
     aca:	80 e4       	ldi	r24, 0x40	; 64
     acc:	80 93 a0 06 	sts	0x06A0, r24	; 0x8006a0 <__TEXT_REGION_LENGTH__+0x7006a0>
    DAC0_DATA = 0x80;      //Data value at half point (about 1.25V)
     ad0:	80 e8       	ldi	r24, 0x80	; 128
     ad2:	80 93 a1 06 	sts	0x06A1, r24	; 0x8006a1 <__TEXT_REGION_LENGTH__+0x7006a1>
    DAC0_CTRLA |= 0x01;    //Enable DAC
     ad6:	80 91 a0 06 	lds	r24, 0x06A0	; 0x8006a0 <__TEXT_REGION_LENGTH__+0x7006a0>
     ada:	81 60       	ori	r24, 0x01	; 1
     adc:	80 93 a0 06 	sts	0x06A0, r24	; 0x8006a0 <__TEXT_REGION_LENGTH__+0x7006a0>
     
    //PIT and RTC interrupts
    while(RTC_STATUS & RTC_CTRLABUSY_bm);
     ae0:	80 91 41 01 	lds	r24, 0x0141	; 0x800141 <__TEXT_REGION_LENGTH__+0x700141>
     ae4:	80 fd       	sbrc	r24, 0
     ae6:	fc cf       	rjmp	.-8      	; 0xae0 <Setup+0x15a>
    RTC_CTRLA          = (0x6)<<3;                         //Prescaler: /64
     ae8:	80 e3       	ldi	r24, 0x30	; 48
     aea:	80 93 40 01 	sts	0x0140, r24	; 0x800140 <__TEXT_REGION_LENGTH__+0x700140>
    RTC_CLKSEL         = 0;                                //Clock source: internal 32768Hz clock
     aee:	10 92 47 01 	sts	0x0147, r1	; 0x800147 <__TEXT_REGION_LENGTH__+0x700147>
    while(RTC_STATUS & RTC_PERBUSY_bm);
     af2:	80 91 41 01 	lds	r24, 0x0141	; 0x800141 <__TEXT_REGION_LENGTH__+0x700141>
     af6:	82 fd       	sbrc	r24, 2
     af8:	fc cf       	rjmp	.-8      	; 0xaf2 <Setup+0x16c>
    RTC_PER            = 512*60;                           //60 second period (for clocking how long the device has been running?)
     afa:	80 e0       	ldi	r24, 0x00	; 0
     afc:	98 e7       	ldi	r25, 0x78	; 120
     afe:	80 93 4a 01 	sts	0x014A, r24	; 0x80014a <__TEXT_REGION_LENGTH__+0x70014a>
     b02:	90 93 4b 01 	sts	0x014B, r25	; 0x80014b <__TEXT_REGION_LENGTH__+0x70014b>
    tmp16bit = (RTC_CNT + BTN_TMR);
     b06:	80 91 48 01 	lds	r24, 0x0148	; 0x800148 <__TEXT_REGION_LENGTH__+0x700148>
     b0a:	90 91 49 01 	lds	r25, 0x0149	; 0x800149 <__TEXT_REGION_LENGTH__+0x700149>
     b0e:	82 96       	adiw	r24, 0x22	; 34
     b10:	80 93 f1 3a 	sts	0x3AF1, r24	; 0x803af1 <tmp16bit>
     b14:	90 93 f2 3a 	sts	0x3AF2, r25	; 0x803af2 <tmp16bit+0x1>
    if (tmp16bit > RTC_PER) tmp16bit -= RTC_PER;
     b18:	20 91 4a 01 	lds	r18, 0x014A	; 0x80014a <__TEXT_REGION_LENGTH__+0x70014a>
     b1c:	30 91 4b 01 	lds	r19, 0x014B	; 0x80014b <__TEXT_REGION_LENGTH__+0x70014b>
     b20:	80 91 f1 3a 	lds	r24, 0x3AF1	; 0x803af1 <tmp16bit>
     b24:	90 91 f2 3a 	lds	r25, 0x3AF2	; 0x803af2 <tmp16bit+0x1>
     b28:	28 17       	cp	r18, r24
     b2a:	39 07       	cpc	r19, r25
     b2c:	70 f4       	brcc	.+28     	; 0xb4a <Setup+0x1c4>
     b2e:	20 91 4a 01 	lds	r18, 0x014A	; 0x80014a <__TEXT_REGION_LENGTH__+0x70014a>
     b32:	30 91 4b 01 	lds	r19, 0x014B	; 0x80014b <__TEXT_REGION_LENGTH__+0x70014b>
     b36:	80 91 f1 3a 	lds	r24, 0x3AF1	; 0x803af1 <tmp16bit>
     b3a:	90 91 f2 3a 	lds	r25, 0x3AF2	; 0x803af2 <tmp16bit+0x1>
     b3e:	82 1b       	sub	r24, r18
     b40:	93 0b       	sbc	r25, r19
     b42:	80 93 f1 3a 	sts	0x3AF1, r24	; 0x803af1 <tmp16bit>
     b46:	90 93 f2 3a 	sts	0x3AF2, r25	; 0x803af2 <tmp16bit+0x1>
    while(RTC_STATUS & RTC_CMPBUSY_bm);
     b4a:	80 91 41 01 	lds	r24, 0x0141	; 0x800141 <__TEXT_REGION_LENGTH__+0x700141>
     b4e:	83 fd       	sbrc	r24, 3
     b50:	fc cf       	rjmp	.-8      	; 0xb4a <Setup+0x1c4>
    RTC_CMP            = tmp16bit;                         //Button timing
     b52:	80 91 f1 3a 	lds	r24, 0x3AF1	; 0x803af1 <tmp16bit>
     b56:	90 91 f2 3a 	lds	r25, 0x3AF2	; 0x803af2 <tmp16bit+0x1>
     b5a:	80 93 4c 01 	sts	0x014C, r24	; 0x80014c <__TEXT_REGION_LENGTH__+0x70014c>
     b5e:	90 93 4d 01 	sts	0x014D, r25	; 0x80014d <__TEXT_REGION_LENGTH__+0x70014d>
    RTC_INTCTRL        = 0x03;                             //RTC overflow interrupt enabled
     b62:	83 e0       	ldi	r24, 0x03	; 3
     b64:	80 93 42 01 	sts	0x0142, r24	; 0x800142 <__TEXT_REGION_LENGTH__+0x700142>
    RTC_PITINTCTRL     = 0x01;                             //PIT interrupt enabled
     b68:	81 e0       	ldi	r24, 0x01	; 1
     b6a:	80 93 52 01 	sts	0x0152, r24	; 0x800152 <__TEXT_REGION_LENGTH__+0x700152>
    RTC_PITCTRLA       = (0x1)<<3;                         //Interrupt fires after 4 RTC clock cycles Rate=(RTCCLK/(PRESC*PERIOD)) 32768/256=128Hz
     b6e:	88 e0       	ldi	r24, 0x08	; 8
     b70:	80 93 50 01 	sts	0x0150, r24	; 0x800150 <__TEXT_REGION_LENGTH__+0x700150>
    while(RTC_STATUS & RTC_CTRLABUSY_bm);      
     b74:	80 91 41 01 	lds	r24, 0x0141	; 0x800141 <__TEXT_REGION_LENGTH__+0x700141>
     b78:	80 fd       	sbrc	r24, 0
     b7a:	fc cf       	rjmp	.-8      	; 0xb74 <Setup+0x1ee>
    RTC_CTRLA          |= 0x01;                            //Enable RTC
     b7c:	80 91 40 01 	lds	r24, 0x0140	; 0x800140 <__TEXT_REGION_LENGTH__+0x700140>
     b80:	81 60       	ori	r24, 0x01	; 1
     b82:	80 93 40 01 	sts	0x0140, r24	; 0x800140 <__TEXT_REGION_LENGTH__+0x700140>
    RTC_PITCTRLA       |= 0x01;                            //Enable PIT
     b86:	80 91 50 01 	lds	r24, 0x0150	; 0x800150 <__TEXT_REGION_LENGTH__+0x700150>
     b8a:	81 60       	ori	r24, 0x01	; 1
     b8c:	80 93 50 01 	sts	0x0150, r24	; 0x800150 <__TEXT_REGION_LENGTH__+0x700150>
     
    //Other inits
    serRx[0] = 0;           // Empty Rx buffer (first char is enough)
     b90:	10 92 77 3a 	sts	0x3A77, r1	; 0x803a77 <serRx>
    serTxAddr = &serRx[0];  // Point to first address of the Rx buffer
     b94:	87 e7       	ldi	r24, 0x77	; 119
     b96:	9a e3       	ldi	r25, 0x3A	; 58
     b98:	80 93 bb 3a 	sts	0x3ABB, r24	; 0x803abb <serTxAddr>
     b9c:	90 93 bc 3a 	sts	0x3ABC, r25	; 0x803abc <serTxAddr+0x1>

    sei();
     ba0:	78 94       	sei
}
     ba2:	df 91       	pop	r29
     ba4:	cf 91       	pop	r28
     ba6:	08 95       	ret

00000ba8 <__vector_8>:

// TCA0 is used for driving the LED matrix at 488Hz (* 5 columns = 2440Hz). The lower 8 bit underflow interrupt is used to load new values and shift between columns.
ISR(TCA0_LUNF_vect){
     ba8:	1f 92       	push	r1
     baa:	0f 92       	push	r0
     bac:	0f b6       	in	r0, 0x3f	; 63
     bae:	0f 92       	push	r0
     bb0:	11 24       	eor	r1, r1
     bb2:	8f 93       	push	r24
     bb4:	9f 93       	push	r25
     bb6:	af 93       	push	r26
     bb8:	bf 93       	push	r27
     bba:	ef 93       	push	r30
     bbc:	ff 93       	push	r31
    //Turn off all columns
    PORTC_OUTCLR = 0x07;
     bbe:	87 e0       	ldi	r24, 0x07	; 7
     bc0:	80 93 46 04 	sts	0x0446, r24	; 0x800446 <__TEXT_REGION_LENGTH__+0x700446>
    PORTB_OUTCLR = 0x44;
     bc4:	84 e4       	ldi	r24, 0x44	; 68
     bc6:	80 93 26 04 	sts	0x0426, r24	; 0x800426 <__TEXT_REGION_LENGTH__+0x700426>
    "ldi r25, 6        \n"
    "ld r24, %a[arr]+  \n"
    "st %a[wo]+, r24   \n"
    "dec r25           \n"
    "brne .-8          \n"
    :: [wo] "e" (&TCA0_SPLIT_LCMP0), [arr] "e" (&iLED[(L_COL<<3)]) : "r25", "r24", "cc", "memory");
     bca:	ec b3       	in	r30, 0x1c	; 28
     bcc:	88 e0       	ldi	r24, 0x08	; 8
     bce:	e8 9f       	mul	r30, r24
     bd0:	f0 01       	movw	r30, r0
     bd2:	11 24       	eor	r1, r1
     bd4:	eb 53       	subi	r30, 0x3B	; 59
     bd6:	f5 4c       	sbci	r31, 0xC5	; 197
    //Turn off all columns
    PORTC_OUTCLR = 0x07;
    PORTB_OUTCLR = 0x44;

    //Write all of the compare registers of TCA0 with PWM values in array (rows)
    asm(
     bd8:	a8 e2       	ldi	r26, 0x28	; 40
     bda:	ba e0       	ldi	r27, 0x0A	; 10
     bdc:	96 e0       	ldi	r25, 0x06	; 6
     bde:	81 91       	ld	r24, Z+
     be0:	8d 93       	st	X+, r24
     be2:	9a 95       	dec	r25
     be4:	e1 f7       	brne	.-8      	; 0xbde <__vector_8+0x36>
    "st %a[wo]+, r24   \n"
    "dec r25           \n"
    "brne .-8          \n"
    :: [wo] "e" (&TCA0_SPLIT_LCMP0), [arr] "e" (&iLED[(L_COL<<3)]) : "r25", "r24", "cc", "memory");

    TCA0_SPLIT_CTRLESET = ((0x2)<<2)|0x3; //Sync timers: Moved this below the PWM value loading to fix the data shifting in asm above.
     be6:	8b e0       	ldi	r24, 0x0B	; 11
     be8:	80 93 05 0a 	sts	0x0A05, r24	; 0x800a05 <__TEXT_REGION_LENGTH__+0x700a05>

    //Turn on the right column
    if (L_COL<3) {
     bec:	8c b3       	in	r24, 0x1c	; 28
     bee:	83 30       	cpi	r24, 0x03	; 3
     bf0:	58 f4       	brcc	.+22     	; 0xc08 <__vector_8+0x60>
        asm(
     bf2:	8c b3       	in	r24, 0x1c	; 28
     bf4:	91 e0       	ldi	r25, 0x01	; 1
     bf6:	01 c0       	rjmp	.+2      	; 0xbfa <__vector_8+0x52>
     bf8:	99 0f       	add	r25, r25
     bfa:	8a 95       	dec	r24
     bfc:	ea f7       	brpl	.-6      	; 0xbf8 <__vector_8+0x50>
     bfe:	99 b9       	out	0x09, r25	; 9
     c00:	8c b3       	in	r24, 0x1c	; 28
     c02:	83 95       	inc	r24
     c04:	8c bb       	out	0x1c, r24	; 28
     c06:	0a c0       	rjmp	.+20     	; 0xc1c <__vector_8+0x74>
        "in r24, %[io0]  \n"
        "inc r24         \n"
        "out %[io0], r24 \n"
        :: [io0] "I" (&L_COL), [vpc] "I" (&VPORTC_OUT) : "r24", "r25", "cc");
        } else {
        asm(
     c08:	8c b3       	in	r24, 0x1c	; 28
     c0a:	83 30       	cpi	r24, 0x03	; 3
     c0c:	21 f4       	brne	.+8      	; 0xc16 <__vector_8+0x6e>
     c0e:	2a 9a       	sbi	0x05, 2	; 5
     c10:	83 95       	inc	r24
     c12:	8c bb       	out	0x1c, r24	; 28
     c14:	03 c0       	rjmp	.+6      	; 0xc1c <__vector_8+0x74>
     c16:	2e 9a       	sbi	0x05, 6	; 5
     c18:	88 27       	eor	r24, r24
     c1a:	8c bb       	out	0x1c, r24	; 28
        "clr r24         \n"
        "out %[io0], r24 \n"
        :: [io0] "I" (&L_COL), [vpb] "I" (&VPORTB_OUT) : "r24", "cc");
    }
    
    if(timeout_I2C) --timeout_I2C;
     c1c:	80 91 62 3a 	lds	r24, 0x3A62	; 0x803a62 <timeout_I2C>
     c20:	88 23       	and	r24, r24
     c22:	29 f0       	breq	.+10     	; 0xc2e <__vector_8+0x86>
     c24:	80 91 62 3a 	lds	r24, 0x3A62	; 0x803a62 <timeout_I2C>
     c28:	81 50       	subi	r24, 0x01	; 1
     c2a:	80 93 62 3a 	sts	0x3A62, r24	; 0x803a62 <timeout_I2C>
    TCA0_SPLIT_INTFLAGS = 0xFF;
     c2e:	8f ef       	ldi	r24, 0xFF	; 255
     c30:	80 93 0b 0a 	sts	0x0A0B, r24	; 0x800a0b <__TEXT_REGION_LENGTH__+0x700a0b>
}
     c34:	ff 91       	pop	r31
     c36:	ef 91       	pop	r30
     c38:	bf 91       	pop	r27
     c3a:	af 91       	pop	r26
     c3c:	9f 91       	pop	r25
     c3e:	8f 91       	pop	r24
     c40:	0f 90       	pop	r0
     c42:	0f be       	out	0x3f, r0	; 63
     c44:	0f 90       	pop	r0
     c46:	1f 90       	pop	r1
     c48:	18 95       	reti

00000c4a <__vector_13>:

// TCB0 is used for (slowly) sending serial characters. A 0x00 character code is needed to terminate sending or it will leak memory to serial. It's a feature, honest! 
ISR(TCB0_INT_vect){
     c4a:	1f 92       	push	r1
     c4c:	0f 92       	push	r0
     c4e:	0f b6       	in	r0, 0x3f	; 63
     c50:	0f 92       	push	r0
     c52:	11 24       	eor	r1, r1
     c54:	8f 93       	push	r24
     c56:	9f 93       	push	r25
     c58:	ef 93       	push	r30
     c5a:	ff 93       	push	r31
    if (*serTxAddr) {
     c5c:	e0 91 bb 3a 	lds	r30, 0x3ABB	; 0x803abb <serTxAddr>
     c60:	f0 91 bc 3a 	lds	r31, 0x3ABC	; 0x803abc <serTxAddr+0x1>
     c64:	80 81       	ld	r24, Z
     c66:	88 23       	and	r24, r24
     c68:	91 f0       	breq	.+36     	; 0xc8e <__vector_13+0x44>
        USART0_TXDATAL = *serTxAddr;
     c6a:	80 81       	ld	r24, Z
     c6c:	80 93 02 08 	sts	0x0802, r24	; 0x800802 <__TEXT_REGION_LENGTH__+0x700802>
        serTxAddr++;
     c70:	80 91 bb 3a 	lds	r24, 0x3ABB	; 0x803abb <serTxAddr>
     c74:	90 91 bc 3a 	lds	r25, 0x3ABC	; 0x803abc <serTxAddr+0x1>
     c78:	01 96       	adiw	r24, 0x01	; 1
     c7a:	80 93 bb 3a 	sts	0x3ABB, r24	; 0x803abb <serTxAddr>
     c7e:	90 93 bc 3a 	sts	0x3ABC, r25	; 0x803abc <serTxAddr+0x1>
        USART0_CTRLA |= USART_DREIE_bm;
     c82:	80 91 05 08 	lds	r24, 0x0805	; 0x800805 <__TEXT_REGION_LENGTH__+0x700805>
     c86:	80 62       	ori	r24, 0x20	; 32
     c88:	80 93 05 08 	sts	0x0805, r24	; 0x800805 <__TEXT_REGION_LENGTH__+0x700805>
     c8c:	05 c0       	rjmp	.+10     	; 0xc98 <__vector_13+0x4e>
    } else {
        serTxDone = 1;
     c8e:	81 e0       	ldi	r24, 0x01	; 1
     c90:	80 93 09 38 	sts	0x3809, r24	; 0x803809 <serTxDone>
        TCB0_INTCTRL = 0x00;
     c94:	10 92 45 0a 	sts	0x0A45, r1	; 0x800a45 <__TEXT_REGION_LENGTH__+0x700a45>
    }
    TCB0_INTFLAGS = TCB_CAPT_bm;
     c98:	81 e0       	ldi	r24, 0x01	; 1
     c9a:	80 93 46 0a 	sts	0x0A46, r24	; 0x800a46 <__TEXT_REGION_LENGTH__+0x700a46>
}
     c9e:	ff 91       	pop	r31
     ca0:	ef 91       	pop	r30
     ca2:	9f 91       	pop	r25
     ca4:	8f 91       	pop	r24
     ca6:	0f 90       	pop	r0
     ca8:	0f be       	out	0x3f, r0	; 63
     caa:	0f 90       	pop	r0
     cac:	1f 90       	pop	r1
     cae:	18 95       	reti

00000cb0 <__vector_14>:

// TCB1 is used for audio generation. Keeps playing "data" until 0 is reached. Audio sample data can contain 0x01 to 0xFF, centered around 0x80
ISR(TCB1_INT_vect){
     cb0:	1f 92       	push	r1
     cb2:	0f 92       	push	r0
     cb4:	0f b6       	in	r0, 0x3f	; 63
     cb6:	0f 92       	push	r0
     cb8:	11 24       	eor	r1, r1
     cba:	2f 93       	push	r18
     cbc:	3f 93       	push	r19
     cbe:	4f 93       	push	r20
     cc0:	8f 93       	push	r24
     cc2:	9f 93       	push	r25
     cc4:	ef 93       	push	r30
     cc6:	ff 93       	push	r31
    int16_t volCtrl;
    if (*auSmpAddr == 0) auSmpAddr = auRepAddr;
     cc8:	e0 91 05 38 	lds	r30, 0x3805	; 0x803805 <auSmpAddr>
     ccc:	f0 91 06 38 	lds	r31, 0x3806	; 0x803806 <auSmpAddr+0x1>
     cd0:	80 81       	ld	r24, Z
     cd2:	81 11       	cpse	r24, r1
     cd4:	08 c0       	rjmp	.+16     	; 0xce6 <__vector_14+0x36>
     cd6:	80 91 03 38 	lds	r24, 0x3803	; 0x803803 <auRepAddr>
     cda:	90 91 04 38 	lds	r25, 0x3804	; 0x803804 <auRepAddr+0x1>
     cde:	80 93 05 38 	sts	0x3805, r24	; 0x803805 <auSmpAddr>
     ce2:	90 93 06 38 	sts	0x3806, r25	; 0x803806 <auSmpAddr+0x1>
    if (*auSmpAddr) {
     ce6:	e0 91 05 38 	lds	r30, 0x3805	; 0x803805 <auSmpAddr>
     cea:	f0 91 06 38 	lds	r31, 0x3806	; 0x803806 <auSmpAddr+0x1>
     cee:	80 81       	ld	r24, Z
     cf0:	88 23       	and	r24, r24
     cf2:	e1 f0       	breq	.+56     	; 0xd2c <__vector_14+0x7c>
        volCtrl = ((((int16_t)(*auSmpAddr) - 0x7f) * auVolume) >> 8) + 0x80;
     cf4:	20 81       	ld	r18, Z
     cf6:	40 91 b8 3a 	lds	r20, 0x3AB8	; 0x803ab8 <auVolume>
        DAC0_DATA = (uint8_t)(volCtrl);
     cfa:	30 e0       	ldi	r19, 0x00	; 0
     cfc:	2f 57       	subi	r18, 0x7F	; 127
     cfe:	31 09       	sbc	r19, r1
     d00:	42 9f       	mul	r20, r18
     d02:	c0 01       	movw	r24, r0
     d04:	43 9f       	mul	r20, r19
     d06:	90 0d       	add	r25, r0
     d08:	11 24       	eor	r1, r1
     d0a:	89 2f       	mov	r24, r25
     d0c:	99 0f       	add	r25, r25
     d0e:	99 0b       	sbc	r25, r25
     d10:	80 58       	subi	r24, 0x80	; 128
     d12:	9f 4f       	sbci	r25, 0xFF	; 255
     d14:	80 93 a1 06 	sts	0x06A1, r24	; 0x8006a1 <__TEXT_REGION_LENGTH__+0x7006a1>
        ++auSmpAddr;
     d18:	80 91 05 38 	lds	r24, 0x3805	; 0x803805 <auSmpAddr>
     d1c:	90 91 06 38 	lds	r25, 0x3806	; 0x803806 <auSmpAddr+0x1>
     d20:	01 96       	adiw	r24, 0x01	; 1
     d22:	80 93 05 38 	sts	0x3805, r24	; 0x803805 <auSmpAddr>
     d26:	90 93 06 38 	sts	0x3806, r25	; 0x803806 <auSmpAddr+0x1>
     d2a:	03 c0       	rjmp	.+6      	; 0xd32 <__vector_14+0x82>
    } else {
        DAC0_DATA = 0x80;
     d2c:	80 e8       	ldi	r24, 0x80	; 128
     d2e:	80 93 a1 06 	sts	0x06A1, r24	; 0x8006a1 <__TEXT_REGION_LENGTH__+0x7006a1>
    }
    TCB1_INTFLAGS = TCB_CAPT_bm;
     d32:	81 e0       	ldi	r24, 0x01	; 1
     d34:	80 93 56 0a 	sts	0x0A56, r24	; 0x800a56 <__TEXT_REGION_LENGTH__+0x700a56>
}
     d38:	ff 91       	pop	r31
     d3a:	ef 91       	pop	r30
     d3c:	9f 91       	pop	r25
     d3e:	8f 91       	pop	r24
     d40:	4f 91       	pop	r20
     d42:	3f 91       	pop	r19
     d44:	2f 91       	pop	r18
     d46:	0f 90       	pop	r0
     d48:	0f be       	out	0x3f, r0	; 63
     d4a:	0f 90       	pop	r0
     d4c:	1f 90       	pop	r1
     d4e:	18 95       	reti

00000d50 <__vector_27>:

// Reads up to RXLEN characters until LF is found, LF sets the serRxDone flag and writes 0 instead of LF.
ISR(USART0_RXC_vect){
     d50:	1f 92       	push	r1
     d52:	0f 92       	push	r0
     d54:	0f b6       	in	r0, 0x3f	; 63
     d56:	0f 92       	push	r0
     d58:	11 24       	eor	r1, r1
     d5a:	8f 93       	push	r24
     d5c:	ef 93       	push	r30
     d5e:	ff 93       	push	r31
    if (serRxDone == 0){
     d60:	80 91 46 38 	lds	r24, 0x3846	; 0x803846 <serRxDone>
     d64:	81 11       	cpse	r24, r1
     d66:	44 c0       	rjmp	.+136    	; 0xdf0 <__vector_27+0xa0>
        serRx[RXCNT] = USART0.RXDATAL;
     d68:	ed b3       	in	r30, 0x1d	; 29
     d6a:	f0 e0       	ldi	r31, 0x00	; 0
     d6c:	80 91 00 08 	lds	r24, 0x0800	; 0x800800 <__TEXT_REGION_LENGTH__+0x700800>
     d70:	e9 58       	subi	r30, 0x89	; 137
     d72:	f5 4c       	sbci	r31, 0xC5	; 197
     d74:	80 83       	st	Z, r24
        USART0_TXDATAL = serRx[RXCNT];
     d76:	ed b3       	in	r30, 0x1d	; 29
     d78:	f0 e0       	ldi	r31, 0x00	; 0
     d7a:	e9 58       	subi	r30, 0x89	; 137
     d7c:	f5 4c       	sbci	r31, 0xC5	; 197
     d7e:	80 81       	ld	r24, Z
     d80:	80 93 02 08 	sts	0x0802, r24	; 0x800802 <__TEXT_REGION_LENGTH__+0x700802>
        if ((serRx[RXCNT] == 0x0A)||(serRx[RXCNT] == 0x0D)){
     d84:	ed b3       	in	r30, 0x1d	; 29
     d86:	f0 e0       	ldi	r31, 0x00	; 0
     d88:	e9 58       	subi	r30, 0x89	; 137
     d8a:	f5 4c       	sbci	r31, 0xC5	; 197
     d8c:	80 81       	ld	r24, Z
     d8e:	8a 30       	cpi	r24, 0x0A	; 10
     d90:	39 f0       	breq	.+14     	; 0xda0 <__vector_27+0x50>
     d92:	ed b3       	in	r30, 0x1d	; 29
     d94:	f0 e0       	ldi	r31, 0x00	; 0
     d96:	e9 58       	subi	r30, 0x89	; 137
     d98:	f5 4c       	sbci	r31, 0xC5	; 197
     d9a:	80 81       	ld	r24, Z
     d9c:	8d 30       	cpi	r24, 0x0D	; 13
     d9e:	49 f4       	brne	.+18     	; 0xdb2 <__vector_27+0x62>
            serRx[RXCNT] = 0;
     da0:	ed b3       	in	r30, 0x1d	; 29
     da2:	f0 e0       	ldi	r31, 0x00	; 0
     da4:	e9 58       	subi	r30, 0x89	; 137
     da6:	f5 4c       	sbci	r31, 0xC5	; 197
     da8:	10 82       	st	Z, r1
            serRxDone = 1;
     daa:	81 e0       	ldi	r24, 0x01	; 1
     dac:	80 93 46 38 	sts	0x3846, r24	; 0x803846 <serRxDone>
     db0:	1f c0       	rjmp	.+62     	; 0xdf0 <__vector_27+0xa0>
        } else if (((serRx[RXCNT] == 0x08)||(serRx[RXCNT] == 0x7F))&&(RXCNT > 0)) {
     db2:	ed b3       	in	r30, 0x1d	; 29
     db4:	f0 e0       	ldi	r31, 0x00	; 0
     db6:	e9 58       	subi	r30, 0x89	; 137
     db8:	f5 4c       	sbci	r31, 0xC5	; 197
     dba:	80 81       	ld	r24, Z
     dbc:	88 30       	cpi	r24, 0x08	; 8
     dbe:	39 f0       	breq	.+14     	; 0xdce <__vector_27+0x7e>
     dc0:	ed b3       	in	r30, 0x1d	; 29
     dc2:	f0 e0       	ldi	r31, 0x00	; 0
     dc4:	e9 58       	subi	r30, 0x89	; 137
     dc6:	f5 4c       	sbci	r31, 0xC5	; 197
     dc8:	80 81       	ld	r24, Z
     dca:	8f 37       	cpi	r24, 0x7F	; 127
     dcc:	59 f4       	brne	.+22     	; 0xde4 <__vector_27+0x94>
     dce:	8d b3       	in	r24, 0x1d	; 29
     dd0:	88 23       	and	r24, r24
     dd2:	41 f0       	breq	.+16     	; 0xde4 <__vector_27+0x94>
            serRx[RXCNT] = 0;
     dd4:	ed b3       	in	r30, 0x1d	; 29
     dd6:	f0 e0       	ldi	r31, 0x00	; 0
     dd8:	e9 58       	subi	r30, 0x89	; 137
     dda:	f5 4c       	sbci	r31, 0xC5	; 197
     ddc:	10 82       	st	Z, r1
            --RXCNT;
     dde:	8d b3       	in	r24, 0x1d	; 29
     de0:	81 50       	subi	r24, 0x01	; 1
     de2:	05 c0       	rjmp	.+10     	; 0xdee <__vector_27+0x9e>
        } else if (RXCNT < (RXLEN-1)) ++RXCNT;
     de4:	8d b3       	in	r24, 0x1d	; 29
     de6:	80 34       	cpi	r24, 0x40	; 64
     de8:	18 f4       	brcc	.+6      	; 0xdf0 <__vector_27+0xa0>
     dea:	8d b3       	in	r24, 0x1d	; 29
     dec:	8f 5f       	subi	r24, 0xFF	; 255
     dee:	8d bb       	out	0x1d, r24	; 29
    }
    USART0_STATUS = USART_RXCIF_bm;
     df0:	80 e8       	ldi	r24, 0x80	; 128
     df2:	80 93 04 08 	sts	0x0804, r24	; 0x800804 <__TEXT_REGION_LENGTH__+0x700804>
};
     df6:	ff 91       	pop	r31
     df8:	ef 91       	pop	r30
     dfa:	8f 91       	pop	r24
     dfc:	0f 90       	pop	r0
     dfe:	0f be       	out	0x3f, r0	; 63
     e00:	0f 90       	pop	r0
     e02:	1f 90       	pop	r1
     e04:	18 95       	reti

00000e06 <__vector_28>:

// Trigger new data write and turn off DRE interrupt.
ISR(USART0_DRE_vect){
     e06:	1f 92       	push	r1
     e08:	0f 92       	push	r0
     e0a:	0f b6       	in	r0, 0x3f	; 63
     e0c:	0f 92       	push	r0
     e0e:	11 24       	eor	r1, r1
     e10:	8f 93       	push	r24
     e12:	ef 93       	push	r30
     e14:	ff 93       	push	r31
    TCB0_CNT = 0;
     e16:	10 92 4a 0a 	sts	0x0A4A, r1	; 0x800a4a <__TEXT_REGION_LENGTH__+0x700a4a>
     e1a:	10 92 4b 0a 	sts	0x0A4B, r1	; 0x800a4b <__TEXT_REGION_LENGTH__+0x700a4b>
    TCB0_INTCTRL = 0x01;
     e1e:	81 e0       	ldi	r24, 0x01	; 1
     e20:	80 93 45 0a 	sts	0x0A45, r24	; 0x800a45 <__TEXT_REGION_LENGTH__+0x700a45>
    USART0_CTRLA &= ~(USART_DREIE_bm);
     e24:	e5 e0       	ldi	r30, 0x05	; 5
     e26:	f8 e0       	ldi	r31, 0x08	; 8
     e28:	80 81       	ld	r24, Z
     e2a:	8f 7d       	andi	r24, 0xDF	; 223
     e2c:	80 83       	st	Z, r24
};
     e2e:	ff 91       	pop	r31
     e30:	ef 91       	pop	r30
     e32:	8f 91       	pop	r24
     e34:	0f 90       	pop	r0
     e36:	0f be       	out	0x3f, r0	; 63
     e38:	0f 90       	pop	r0
     e3a:	1f 90       	pop	r1
     e3c:	18 95       	reti

00000e3e <__vector_20>:

// ADC used for audio input and temperature sensor.
ISR(ADC0_RESRDY_vect){
     e3e:	1f 92       	push	r1
     e40:	0f 92       	push	r0
     e42:	0f b6       	in	r0, 0x3f	; 63
     e44:	0f 92       	push	r0
     e46:	11 24       	eor	r1, r1
     e48:	8f 93       	push	r24
     e4a:	9f 93       	push	r25
    //If just switched reference, discard first few samples
    if (adc0Chg == 0){
     e4c:	80 91 3a 38 	lds	r24, 0x383A	; 0x80383a <adc0Chg>
     e50:	81 11       	cpse	r24, r1
     e52:	12 c0       	rjmp	.+36     	; 0xe78 <__vector_20+0x3a>
        if (ADC0_MUXPOS == 0x1E) adcTemp = ADC0_RES; else auIn=ADC0_RESL;
     e54:	80 91 06 06 	lds	r24, 0x0606	; 0x800606 <__TEXT_REGION_LENGTH__+0x700606>
     e58:	8e 31       	cpi	r24, 0x1E	; 30
     e5a:	49 f4       	brne	.+18     	; 0xe6e <__vector_20+0x30>
     e5c:	80 91 10 06 	lds	r24, 0x0610	; 0x800610 <__TEXT_REGION_LENGTH__+0x700610>
     e60:	90 91 11 06 	lds	r25, 0x0611	; 0x800611 <__TEXT_REGION_LENGTH__+0x700611>
     e64:	80 93 ef 3a 	sts	0x3AEF, r24	; 0x803aef <adcTemp>
     e68:	90 93 f0 3a 	sts	0x3AF0, r25	; 0x803af0 <adcTemp+0x1>
     e6c:	0a c0       	rjmp	.+20     	; 0xe82 <__vector_20+0x44>
     e6e:	80 91 10 06 	lds	r24, 0x0610	; 0x800610 <__TEXT_REGION_LENGTH__+0x700610>
     e72:	80 93 c4 3a 	sts	0x3AC4, r24	; 0x803ac4 <auIn>
     e76:	05 c0       	rjmp	.+10     	; 0xe82 <__vector_20+0x44>
    } else --adc0Chg;
     e78:	80 91 3a 38 	lds	r24, 0x383A	; 0x80383a <adc0Chg>
     e7c:	81 50       	subi	r24, 0x01	; 1
     e7e:	80 93 3a 38 	sts	0x383A, r24	; 0x80383a <adc0Chg>
    ADC0_INTFLAGS = ADC_RESRDY_bm;
     e82:	81 e0       	ldi	r24, 0x01	; 1
     e84:	80 93 0b 06 	sts	0x060B, r24	; 0x80060b <__TEXT_REGION_LENGTH__+0x70060b>
}
     e88:	9f 91       	pop	r25
     e8a:	8f 91       	pop	r24
     e8c:	0f 90       	pop	r0
     e8e:	0f be       	out	0x3f, r0	; 63
     e90:	0f 90       	pop	r0
     e92:	1f 90       	pop	r1
     e94:	18 95       	reti

00000e96 <__vector_22>:

// Reads out sensors at 8Hz and buttons at 42Hz (timed by PIT), power for the sensors is on 1/8th of the time to save power.
ISR(ADC1_RESRDY_vect){
     e96:	1f 92       	push	r1
     e98:	0f 92       	push	r0
     e9a:	0f b6       	in	r0, 0x3f	; 63
     e9c:	0f 92       	push	r0
     e9e:	11 24       	eor	r1, r1
     ea0:	8f 93       	push	r24
     ea2:	9f 93       	push	r25
    if (ADC1_MUXPOS == 0) {
     ea4:	80 91 46 06 	lds	r24, 0x0646	; 0x800646 <__TEXT_REGION_LENGTH__+0x700646>
     ea8:	81 11       	cpse	r24, r1
     eaa:	0a c0       	rjmp	.+20     	; 0xec0 <__vector_22+0x2a>
        adcPhot = ADC1_RES;
     eac:	80 91 50 06 	lds	r24, 0x0650	; 0x800650 <__TEXT_REGION_LENGTH__+0x700650>
     eb0:	90 91 51 06 	lds	r25, 0x0651	; 0x800651 <__TEXT_REGION_LENGTH__+0x700651>
     eb4:	80 93 bf 3a 	sts	0x3ABF, r24	; 0x803abf <adcPhot>
     eb8:	90 93 c0 3a 	sts	0x3AC0, r25	; 0x803ac0 <adcPhot+0x1>
        ADC1_MUXPOS = 0x01;             //Select Hall sensor
     ebc:	81 e0       	ldi	r24, 0x01	; 1
     ebe:	10 c0       	rjmp	.+32     	; 0xee0 <__vector_22+0x4a>
    } else if (ADC1_MUXPOS == 1){
     ec0:	80 91 46 06 	lds	r24, 0x0646	; 0x800646 <__TEXT_REGION_LENGTH__+0x700646>
     ec4:	81 30       	cpi	r24, 0x01	; 1
     ec6:	79 f4       	brne	.+30     	; 0xee6 <__vector_22+0x50>
        PORTA_OUTCLR = 0b00001000;      //Turn off sensor power
     ec8:	88 e0       	ldi	r24, 0x08	; 8
     eca:	80 93 06 04 	sts	0x0406, r24	; 0x800406 <__TEXT_REGION_LENGTH__+0x700406>
        adcHall = ADC1_RES;
     ece:	80 91 50 06 	lds	r24, 0x0650	; 0x800650 <__TEXT_REGION_LENGTH__+0x700650>
     ed2:	90 91 51 06 	lds	r25, 0x0651	; 0x800651 <__TEXT_REGION_LENGTH__+0x700651>
     ed6:	80 93 bd 3a 	sts	0x3ABD, r24	; 0x803abd <adcHall>
     eda:	90 93 be 3a 	sts	0x3ABE, r25	; 0x803abe <adcHall+0x1>
        ADC1_MUXPOS = 0x04;             //select buttons
     ede:	84 e0       	ldi	r24, 0x04	; 4
     ee0:	80 93 46 06 	sts	0x0646, r24	; 0x800646 <__TEXT_REGION_LENGTH__+0x700646>
     ee4:	10 c0       	rjmp	.+32     	; 0xf06 <__vector_22+0x70>
    } else {
        adcBtns = ADC1_RES;
     ee6:	80 91 50 06 	lds	r24, 0x0650	; 0x800650 <__TEXT_REGION_LENGTH__+0x700650>
     eea:	90 91 51 06 	lds	r25, 0x0651	; 0x800651 <__TEXT_REGION_LENGTH__+0x700651>
     eee:	80 93 b9 3a 	sts	0x3AB9, r24	; 0x803ab9 <adcBtns>
     ef2:	90 93 ba 3a 	sts	0x3ABA, r25	; 0x803aba <adcBtns+0x1>
        if (A1CNT == 15){
     ef6:	8f b3       	in	r24, 0x1f	; 31
     ef8:	8f 30       	cpi	r24, 0x0F	; 15
     efa:	29 f4       	brne	.+10     	; 0xf06 <__vector_22+0x70>
            ADC1_MUXPOS = 0x00;         //Select photo transistor
     efc:	10 92 46 06 	sts	0x0646, r1	; 0x800646 <__TEXT_REGION_LENGTH__+0x700646>
            PORTA_OUTSET = 0b00001000;  //Turn on sensor power
     f00:	88 e0       	ldi	r24, 0x08	; 8
     f02:	80 93 05 04 	sts	0x0405, r24	; 0x800405 <__TEXT_REGION_LENGTH__+0x700405>
        }
    }

    A1CNT=(A1CNT+1)%16;        
     f06:	8f b3       	in	r24, 0x1f	; 31
     f08:	90 e0       	ldi	r25, 0x00	; 0
     f0a:	01 96       	adiw	r24, 0x01	; 1
     f0c:	8f 70       	andi	r24, 0x0F	; 15
     f0e:	99 27       	eor	r25, r25
     f10:	8f bb       	out	0x1f, r24	; 31
    ADC1_INTFLAGS = ADC_RESRDY_bm;
     f12:	81 e0       	ldi	r24, 0x01	; 1
     f14:	80 93 4b 06 	sts	0x064B, r24	; 0x80064b <__TEXT_REGION_LENGTH__+0x70064b>
}
     f18:	9f 91       	pop	r25
     f1a:	8f 91       	pop	r24
     f1c:	0f 90       	pop	r0
     f1e:	0f be       	out	0x3f, r0	; 63
     f20:	0f 90       	pop	r0
     f22:	1f 90       	pop	r1
     f24:	18 95       	reti

00000f26 <__vector_6>:

// RTC compare interrupt, triggers at 512/BTN_TMR rate, also RTC overflow interrupt, triggers once a minute
ISR(RTC_CNT_vect) {
     f26:	1f 92       	push	r1
     f28:	0f 92       	push	r0
     f2a:	0f b6       	in	r0, 0x3f	; 63
     f2c:	0f 92       	push	r0
     f2e:	11 24       	eor	r1, r1
     f30:	2f 93       	push	r18
     f32:	3f 93       	push	r19
     f34:	8f 93       	push	r24
     f36:	9f 93       	push	r25
    if (RTC_INTFLAGS & RTC_CMP_bm){
     f38:	80 91 43 01 	lds	r24, 0x0143	; 0x800143 <__TEXT_REGION_LENGTH__+0x700143>
     f3c:	81 ff       	sbrs	r24, 1
     f3e:	39 c0       	rjmp	.+114    	; 0xfb2 <__vector_6+0x8c>
        if (buttonMark<0xff) buttonMark++;   // For button timing purposes
     f40:	80 91 44 38 	lds	r24, 0x3844	; 0x803844 <buttonMark>
     f44:	8f 3f       	cpi	r24, 0xFF	; 255
     f46:	29 f0       	breq	.+10     	; 0xf52 <__vector_6+0x2c>
     f48:	80 91 44 38 	lds	r24, 0x3844	; 0x803844 <buttonMark>
     f4c:	8f 5f       	subi	r24, 0xFF	; 255
     f4e:	80 93 44 38 	sts	0x3844, r24	; 0x803844 <buttonMark>
        //tmp16bit = (RTC_CNT + BTN_TMR)%RTC_PER;
        tmp16bit = (RTC_CNT + BTN_TMR);
     f52:	80 91 48 01 	lds	r24, 0x0148	; 0x800148 <__TEXT_REGION_LENGTH__+0x700148>
     f56:	90 91 49 01 	lds	r25, 0x0149	; 0x800149 <__TEXT_REGION_LENGTH__+0x700149>
     f5a:	82 96       	adiw	r24, 0x22	; 34
     f5c:	80 93 f1 3a 	sts	0x3AF1, r24	; 0x803af1 <tmp16bit>
     f60:	90 93 f2 3a 	sts	0x3AF2, r25	; 0x803af2 <tmp16bit+0x1>
        if (tmp16bit > RTC_PER) tmp16bit -= RTC_PER;
     f64:	20 91 4a 01 	lds	r18, 0x014A	; 0x80014a <__TEXT_REGION_LENGTH__+0x70014a>
     f68:	30 91 4b 01 	lds	r19, 0x014B	; 0x80014b <__TEXT_REGION_LENGTH__+0x70014b>
     f6c:	80 91 f1 3a 	lds	r24, 0x3AF1	; 0x803af1 <tmp16bit>
     f70:	90 91 f2 3a 	lds	r25, 0x3AF2	; 0x803af2 <tmp16bit+0x1>
     f74:	28 17       	cp	r18, r24
     f76:	39 07       	cpc	r19, r25
     f78:	70 f4       	brcc	.+28     	; 0xf96 <__vector_6+0x70>
     f7a:	20 91 4a 01 	lds	r18, 0x014A	; 0x80014a <__TEXT_REGION_LENGTH__+0x70014a>
     f7e:	30 91 4b 01 	lds	r19, 0x014B	; 0x80014b <__TEXT_REGION_LENGTH__+0x70014b>
     f82:	80 91 f1 3a 	lds	r24, 0x3AF1	; 0x803af1 <tmp16bit>
     f86:	90 91 f2 3a 	lds	r25, 0x3AF2	; 0x803af2 <tmp16bit+0x1>
     f8a:	82 1b       	sub	r24, r18
     f8c:	93 0b       	sbc	r25, r19
     f8e:	80 93 f1 3a 	sts	0x3AF1, r24	; 0x803af1 <tmp16bit>
     f92:	90 93 f2 3a 	sts	0x3AF2, r25	; 0x803af2 <tmp16bit+0x1>
        while(RTC_STATUS & RTC_CMPBUSY_bm);
     f96:	80 91 41 01 	lds	r24, 0x0141	; 0x800141 <__TEXT_REGION_LENGTH__+0x700141>
     f9a:	83 fd       	sbrc	r24, 3
     f9c:	fc cf       	rjmp	.-8      	; 0xf96 <__vector_6+0x70>
        RTC_CMP = tmp16bit;                 // Button timing: next interrupt set
     f9e:	80 91 f1 3a 	lds	r24, 0x3AF1	; 0x803af1 <tmp16bit>
     fa2:	90 91 f2 3a 	lds	r25, 0x3AF2	; 0x803af2 <tmp16bit+0x1>
     fa6:	80 93 4c 01 	sts	0x014C, r24	; 0x80014c <__TEXT_REGION_LENGTH__+0x70014c>
     faa:	90 93 4d 01 	sts	0x014D, r25	; 0x80014d <__TEXT_REGION_LENGTH__+0x70014d>
        RTC_INTFLAGS = RTC_CMP_bm;		    // clear interrupt flag
     fae:	82 e0       	ldi	r24, 0x02	; 2
     fb0:	06 c0       	rjmp	.+12     	; 0xfbe <__vector_6+0x98>
    } else {
        minuteMark++;                       // For very slow timing purposes, overflows to 0
     fb2:	80 91 45 38 	lds	r24, 0x3845	; 0x803845 <minuteMark>
     fb6:	8f 5f       	subi	r24, 0xFF	; 255
     fb8:	80 93 45 38 	sts	0x3845, r24	; 0x803845 <minuteMark>
        RTC_INTFLAGS = RTC_OVF_bm;		    // clear interrupt flag
     fbc:	81 e0       	ldi	r24, 0x01	; 1
     fbe:	80 93 43 01 	sts	0x0143, r24	; 0x800143 <__TEXT_REGION_LENGTH__+0x700143>
    }
}
     fc2:	9f 91       	pop	r25
     fc4:	8f 91       	pop	r24
     fc6:	3f 91       	pop	r19
     fc8:	2f 91       	pop	r18
     fca:	0f 90       	pop	r0
     fcc:	0f be       	out	0x3f, r0	; 63
     fce:	0f 90       	pop	r0
     fd0:	1f 90       	pop	r1
     fd2:	18 95       	reti

00000fd4 <__vector_7>:

// PIT interrupt (timing of ADC1: sensor values)
ISR(RTC_PIT_vect) {						// PIT interrupt handling code
     fd4:	1f 92       	push	r1
     fd6:	0f 92       	push	r0
     fd8:	0f b6       	in	r0, 0x3f	; 63
     fda:	0f 92       	push	r0
     fdc:	11 24       	eor	r1, r1
     fde:	8f 93       	push	r24
    ADC1_COMMAND = 0x01;
     fe0:	81 e0       	ldi	r24, 0x01	; 1
     fe2:	80 93 48 06 	sts	0x0648, r24	; 0x800648 <__TEXT_REGION_LENGTH__+0x700648>
    RTC_PITINTFLAGS = RTC_PI_bm;		// clear interrupt flag
     fe6:	80 93 53 01 	sts	0x0153, r24	; 0x800153 <__TEXT_REGION_LENGTH__+0x700153>
}
     fea:	8f 91       	pop	r24
     fec:	0f 90       	pop	r0
     fee:	0f be       	out	0x3f, r0	; 63
     ff0:	0f 90       	pop	r0
     ff2:	1f 90       	pop	r1
     ff4:	18 95       	reti

00000ff6 <EERead>:

// Read bytes from EEPROM
void EERead(uint8_t eeAddr, uint8_t *eeValues, uint8_t size)
{
    while(NVMCTRL_STATUS & NVMCTRL_EEBUSY_bm);              // Wait until any write operation has finished
     ff6:	90 91 02 10 	lds	r25, 0x1002	; 0x801002 <__TEXT_REGION_LENGTH__+0x701002>
     ffa:	91 fd       	sbrc	r25, 1
     ffc:	fc cf       	rjmp	.-8      	; 0xff6 <EERead>
     ffe:	fb 01       	movw	r30, r22
    1000:	48 0f       	add	r20, r24

    while(size){
    1002:	84 17       	cp	r24, r20
    1004:	39 f0       	breq	.+14     	; 0x1014 <EERead+0x1e>
        *eeValues++ = *(uint8_t *)(EEPROM_START+eeAddr++);  // Read data from buffer
    1006:	a8 2f       	mov	r26, r24
    1008:	b0 e0       	ldi	r27, 0x00	; 0
    100a:	bc 5e       	subi	r27, 0xEC	; 236
    100c:	9c 91       	ld	r25, X
    100e:	91 93       	st	Z+, r25
    1010:	8f 5f       	subi	r24, 0xFF	; 255
    1012:	f7 cf       	rjmp	.-18     	; 0x1002 <EERead+0xc>
        --size;
    }
}
    1014:	08 95       	ret

00001016 <EEWrite>:
{
    uint8_t lastByteOfPage;
    while(size){
        lastByteOfPage = 0;
        while(NVMCTRL_STATUS & NVMCTRL_EEBUSY_bm);              // Wait until any write operation has finished
        CCP = CCP_SPM_gc;                                       // Gain access to NVMCTRL_CTRLA
    1016:	9d e9       	ldi	r25, 0x9D	; 157
        NVMCTRL_CTRLA = NVMCTRL_CMD_PAGEBUFCLR_gc;              // Clear page buffer
    1018:	24 e0       	ldi	r18, 0x04	; 4
            if ((eeAddr % EEPROM_PAGE_SIZE) == (EEPROM_PAGE_SIZE-1)) lastByteOfPage = 1;
            *(uint8_t *)(EEPROM_START+eeAddr++) = *eeValues++;  // Write data to buffer
            --size;
        }
        CCP = CCP_SPM_gc;
        NVMCTRL_CTRLA = NVMCTRL_CMD_PAGEERASEWRITE_gc;          // Erase old data and write new data to EEPROM
    101a:	33 e0       	ldi	r19, 0x03	; 3

// Write bytes to the EEPROM, if address exceeds EEPROM space data wraps around
uint8_t EEWrite(uint8_t eeAddr, uint8_t *eeValues, uint8_t size)
{
    uint8_t lastByteOfPage;
    while(size){
    101c:	44 23       	and	r20, r20
    101e:	09 f1       	breq	.+66     	; 0x1062 <EEWrite+0x4c>
        lastByteOfPage = 0;
        while(NVMCTRL_STATUS & NVMCTRL_EEBUSY_bm);              // Wait until any write operation has finished
    1020:	50 91 02 10 	lds	r21, 0x1002	; 0x801002 <__TEXT_REGION_LENGTH__+0x701002>
    1024:	51 fd       	sbrc	r21, 1
    1026:	fc cf       	rjmp	.-8      	; 0x1020 <EEWrite+0xa>
        CCP = CCP_SPM_gc;                                       // Gain access to NVMCTRL_CTRLA
    1028:	94 bf       	out	0x34, r25	; 52
        NVMCTRL_CTRLA = NVMCTRL_CMD_PAGEBUFCLR_gc;              // Clear page buffer
    102a:	20 93 00 10 	sts	0x1000, r18	; 0x801000 <__TEXT_REGION_LENGTH__+0x701000>
    102e:	e8 2f       	mov	r30, r24
        while((size) && (lastByteOfPage == 0)){
            if ((eeAddr % EEPROM_PAGE_SIZE) == (EEPROM_PAGE_SIZE-1)) lastByteOfPage = 1;
    1030:	58 2f       	mov	r21, r24
    1032:	5f 71       	andi	r21, 0x1F	; 31
            *(uint8_t *)(EEPROM_START+eeAddr++) = *eeValues++;  // Write data to buffer
    1034:	8f 5f       	subi	r24, 0xFF	; 255
    1036:	6f 5f       	subi	r22, 0xFF	; 255
    1038:	7f 4f       	sbci	r23, 0xFF	; 255
    103a:	db 01       	movw	r26, r22
    103c:	11 97       	sbiw	r26, 0x01	; 1
    103e:	ac 91       	ld	r26, X
    1040:	f0 e0       	ldi	r31, 0x00	; 0
    1042:	fc 5e       	subi	r31, 0xEC	; 236
    1044:	a0 83       	st	Z, r26
            --size;
    1046:	41 50       	subi	r20, 0x01	; 1
    while(size){
        lastByteOfPage = 0;
        while(NVMCTRL_STATUS & NVMCTRL_EEBUSY_bm);              // Wait until any write operation has finished
        CCP = CCP_SPM_gc;                                       // Gain access to NVMCTRL_CTRLA
        NVMCTRL_CTRLA = NVMCTRL_CMD_PAGEBUFCLR_gc;              // Clear page buffer
        while((size) && (lastByteOfPage == 0)){
    1048:	19 f0       	breq	.+6      	; 0x1050 <EEWrite+0x3a>
            if ((eeAddr % EEPROM_PAGE_SIZE) == (EEPROM_PAGE_SIZE-1)) lastByteOfPage = 1;
            *(uint8_t *)(EEPROM_START+eeAddr++) = *eeValues++;  // Write data to buffer
    104a:	e8 2f       	mov	r30, r24
    while(size){
        lastByteOfPage = 0;
        while(NVMCTRL_STATUS & NVMCTRL_EEBUSY_bm);              // Wait until any write operation has finished
        CCP = CCP_SPM_gc;                                       // Gain access to NVMCTRL_CTRLA
        NVMCTRL_CTRLA = NVMCTRL_CMD_PAGEBUFCLR_gc;              // Clear page buffer
        while((size) && (lastByteOfPage == 0)){
    104c:	5f 31       	cpi	r21, 0x1F	; 31
    104e:	81 f7       	brne	.-32     	; 0x1030 <EEWrite+0x1a>
            if ((eeAddr % EEPROM_PAGE_SIZE) == (EEPROM_PAGE_SIZE-1)) lastByteOfPage = 1;
            *(uint8_t *)(EEPROM_START+eeAddr++) = *eeValues++;  // Write data to buffer
            --size;
        }
        CCP = CCP_SPM_gc;
    1050:	94 bf       	out	0x34, r25	; 52
        NVMCTRL_CTRLA = NVMCTRL_CMD_PAGEERASEWRITE_gc;          // Erase old data and write new data to EEPROM
    1052:	30 93 00 10 	sts	0x1000, r19	; 0x801000 <__TEXT_REGION_LENGTH__+0x701000>
        if (NVMCTRL_STATUS & NVMCTRL_WRERROR_bm) return 1;
    1056:	50 91 02 10 	lds	r21, 0x1002	; 0x801002 <__TEXT_REGION_LENGTH__+0x701002>
    105a:	52 ff       	sbrs	r21, 2
    105c:	df cf       	rjmp	.-66     	; 0x101c <EEWrite+0x6>
    105e:	81 e0       	ldi	r24, 0x01	; 1
    }
    return 0;
}
    1060:	08 95       	ret
        }
        CCP = CCP_SPM_gc;
        NVMCTRL_CTRLA = NVMCTRL_CMD_PAGEERASEWRITE_gc;          // Erase old data and write new data to EEPROM
        if (NVMCTRL_STATUS & NVMCTRL_WRERROR_bm) return 1;
    }
    return 0;
    1062:	80 e0       	ldi	r24, 0x00	; 0
    1064:	08 95       	ret

00001066 <DecryptData>:
}

//Decrypts data read from I2C EEPROM, max 255 bytes at a time
void DecryptData(uint16_t offset, uint8_t length, uint8_t type, uint8_t *data){
    1066:	f9 01       	movw	r30, r18
    //offset += L_BOILER;
    while(length){
        *data ^= xor_key[type][(uint8_t)(offset%KEY_LENGTH)];
    1068:	9c 01       	movw	r18, r24
    106a:	2e 1b       	sub	r18, r30
    106c:	3f 0b       	sbc	r19, r31
    106e:	88 e0       	ldi	r24, 0x08	; 8
    1070:	48 9f       	mul	r20, r24
    1072:	a0 01       	movw	r20, r0
    1074:	11 24       	eor	r1, r1
    1076:	48 59       	subi	r20, 0x98	; 152
    1078:	50 44       	sbci	r21, 0x40	; 64
}

//Decrypts data read from I2C EEPROM, max 255 bytes at a time
void DecryptData(uint16_t offset, uint8_t length, uint8_t type, uint8_t *data){
    //offset += L_BOILER;
    while(length){
    107a:	66 23       	and	r22, r22
    107c:	69 f0       	breq	.+26     	; 0x1098 <DecryptData+0x32>
        *data ^= xor_key[type][(uint8_t)(offset%KEY_LENGTH)];
    107e:	df 01       	movw	r26, r30
    1080:	a2 0f       	add	r26, r18
    1082:	b3 1f       	adc	r27, r19
    1084:	a7 70       	andi	r26, 0x07	; 7
    1086:	bb 27       	eor	r27, r27
    1088:	a4 0f       	add	r26, r20
    108a:	b5 1f       	adc	r27, r21
    108c:	80 81       	ld	r24, Z
    108e:	9c 91       	ld	r25, X
    1090:	98 27       	eor	r25, r24
    1092:	91 93       	st	Z+, r25
        ++data;
        ++offset;
        --length;
    1094:	61 50       	subi	r22, 0x01	; 1
    1096:	f1 cf       	rjmp	.-30     	; 0x107a <DecryptData+0x14>
    }
}
    1098:	08 95       	ret

0000109a <ExtEERead>:

//Game data: Read a number of bytes and decrypt
uint8_t ExtEERead(uint16_t offset, uint8_t length, uint8_t type, uint8_t *data){
    109a:	af 92       	push	r10
    109c:	bf 92       	push	r11
    109e:	cf 92       	push	r12
    10a0:	df 92       	push	r13
    10a2:	ef 92       	push	r14
    10a4:	ff 92       	push	r15
    10a6:	0f 93       	push	r16
    10a8:	1f 93       	push	r17
    10aa:	cf 93       	push	r28
    10ac:	df 93       	push	r29
    10ae:	00 d0       	rcall	.+0      	; 0x10b0 <ExtEERead+0x16>
    10b0:	cd b7       	in	r28, 0x3d	; 61
    10b2:	de b7       	in	r29, 0x3e	; 62
    10b4:	d6 2e       	mov	r13, r22
    10b6:	c4 2e       	mov	r12, r20
    10b8:	59 01       	movw	r10, r18
    offset &=EXT_EE_MAX;
    10ba:	7c 01       	movw	r14, r24
    10bc:	e8 94       	clt
    10be:	f7 f8       	bld	r15, 7
    uint8_t reg[2] = {(uint8_t)(offset>>8), (uint8_t)(offset&0xff)};
    10c0:	f9 82       	std	Y+1, r15	; 0x01
    10c2:	ea 82       	std	Y+2, r14	; 0x02
    uint8_t error = (I2C_read_bytes(EE_I2C_ADDR, &reg[0], 2, data, length));
    10c4:	06 2f       	mov	r16, r22
    10c6:	42 e0       	ldi	r20, 0x02	; 2
    10c8:	be 01       	movw	r22, r28
    10ca:	6f 5f       	subi	r22, 0xFF	; 255
    10cc:	7f 4f       	sbci	r23, 0xFF	; 255
    10ce:	80 e5       	ldi	r24, 0x50	; 80
    10d0:	1d da       	rcall	.-3014   	; 0x50c <I2C_read_bytes>
    10d2:	18 2f       	mov	r17, r24
    if (error) return error;
    10d4:	81 11       	cpse	r24, r1
    10d6:	05 c0       	rjmp	.+10     	; 0x10e2 <ExtEERead+0x48>
    DecryptData(offset, length, type, data);
    10d8:	95 01       	movw	r18, r10
    10da:	4c 2d       	mov	r20, r12
    10dc:	6d 2d       	mov	r22, r13
    10de:	c7 01       	movw	r24, r14
    10e0:	c2 df       	rcall	.-124    	; 0x1066 <DecryptData>
    return 0;
}
    10e2:	81 2f       	mov	r24, r17
    10e4:	0f 90       	pop	r0
    10e6:	0f 90       	pop	r0
    10e8:	df 91       	pop	r29
    10ea:	cf 91       	pop	r28
    10ec:	1f 91       	pop	r17
    10ee:	0f 91       	pop	r16
    10f0:	ff 90       	pop	r15
    10f2:	ef 90       	pop	r14
    10f4:	df 90       	pop	r13
    10f6:	cf 90       	pop	r12
    10f8:	bf 90       	pop	r11
    10fa:	af 90       	pop	r10
    10fc:	08 95       	ret

000010fe <SerSend>:

// Sends a set of characters to the serial port, stops only when character value 0 is reached.
uint8_t SerSend(unsigned char *addr){
    if (serTxDone){
    10fe:	20 91 09 38 	lds	r18, 0x3809	; 0x803809 <serTxDone>
    1102:	22 23       	and	r18, r18
    1104:	59 f0       	breq	.+22     	; 0x111c <SerSend+0x1e>
        serTxAddr = addr;
    1106:	80 93 bb 3a 	sts	0x3ABB, r24	; 0x803abb <serTxAddr>
    110a:	90 93 bc 3a 	sts	0x3ABC, r25	; 0x803abc <serTxAddr+0x1>
        serTxDone = 0;
    110e:	10 92 09 38 	sts	0x3809, r1	; 0x803809 <serTxDone>
        TCB0_INTCTRL = 0x01;
    1112:	81 e0       	ldi	r24, 0x01	; 1
    1114:	80 93 45 0a 	sts	0x0A45, r24	; 0x800a45 <__TEXT_REGION_LENGTH__+0x700a45>
        return 0;
    1118:	80 e0       	ldi	r24, 0x00	; 0
    111a:	08 95       	ret
    } else return 1;    //Error: Still sending data
    111c:	81 e0       	ldi	r24, 0x01	; 1
};
    111e:	08 95       	ret

00001120 <SerSpeed>:

// Set serial character output speed, 255-0 (0.8 to 100ms delay between characters)
void SerSpeed(uint8_t serSpd){
    1120:	28 2f       	mov	r18, r24
    if (serSpd<1) serSpd = 1;
    1122:	81 11       	cpse	r24, r1
    1124:	01 c0       	rjmp	.+2      	; 0x1128 <SerSpeed+0x8>
    1126:	21 e0       	ldi	r18, 0x01	; 1
    TCB0_CCMP = ((uint16_t)(0xFF-serSpd)<<8) + 0xFF;
    1128:	8f ef       	ldi	r24, 0xFF	; 255
    112a:	90 e0       	ldi	r25, 0x00	; 0
    112c:	82 1b       	sub	r24, r18
    112e:	91 09       	sbc	r25, r1
    1130:	98 2f       	mov	r25, r24
    1132:	88 27       	eor	r24, r24
    1134:	81 50       	subi	r24, 0x01	; 1
    1136:	9f 4f       	sbci	r25, 0xFF	; 255
    1138:	80 93 4c 0a 	sts	0x0A4C, r24	; 0x800a4c <__TEXT_REGION_LENGTH__+0x700a4c>
    113c:	90 93 4d 0a 	sts	0x0A4D, r25	; 0x800a4d <__TEXT_REGION_LENGTH__+0x700a4d>
    1140:	08 95       	ret

00001142 <SelectTSens>:
};

// Select temperature sensor
void SelectTSens(){
     VREF_CTRLA   = 0x12;    //0x22 for audio in/out (2.5V), 0x12 for temperature in, audio out (1.1V/2.5V)
    1142:	82 e1       	ldi	r24, 0x12	; 18
    1144:	80 93 a0 00 	sts	0x00A0, r24	; 0x8000a0 <__TEXT_REGION_LENGTH__+0x7000a0>
     ADC0_CTRLA   &= ~(ADC_RESSEL_bm);
    1148:	e0 e0       	ldi	r30, 0x00	; 0
    114a:	f6 e0       	ldi	r31, 0x06	; 6
    114c:	80 81       	ld	r24, Z
    114e:	8b 7f       	andi	r24, 0xFB	; 251
    1150:	80 83       	st	Z, r24
     ADC0_MUXPOS  = 0x1E;    //Audio in: AIN7 at (0x07), Temperature: Internal sensor at (0x1E)
    1152:	8e e1       	ldi	r24, 0x1E	; 30
    1154:	80 93 06 06 	sts	0x0606, r24	; 0x800606 <__TEXT_REGION_LENGTH__+0x700606>
     adc0Chg = 3;
    1158:	83 e0       	ldi	r24, 0x03	; 3
    115a:	80 93 3a 38 	sts	0x383A, r24	; 0x80383a <adc0Chg>
    115e:	08 95       	ret

00001160 <SelectAuIn>:
};

// Select "audio" input (0-2.5V)
void SelectAuIn(){
     VREF_CTRLA   = 0x22;    //0x22 for audio in/out (2.5V), 0x12 for temperature in, audio out (1.1V/2.5V)
    1160:	82 e2       	ldi	r24, 0x22	; 34
    1162:	80 93 a0 00 	sts	0x00A0, r24	; 0x8000a0 <__TEXT_REGION_LENGTH__+0x7000a0>
     ADC0_CTRLA   |= ADC_RESSEL_bm;
    1166:	e0 e0       	ldi	r30, 0x00	; 0
    1168:	f6 e0       	ldi	r31, 0x06	; 6
    116a:	80 81       	ld	r24, Z
    116c:	84 60       	ori	r24, 0x04	; 4
    116e:	80 83       	st	Z, r24
     ADC0_MUXPOS  = 0x07;    //Audio in: AIN7 at (0x07), Temperature: Internal sensor at (0x1E)
    1170:	87 e0       	ldi	r24, 0x07	; 7
    1172:	80 93 06 06 	sts	0x0606, r24	; 0x800606 <__TEXT_REGION_LENGTH__+0x700606>
     adc0Chg = 3;
    1176:	83 e0       	ldi	r24, 0x03	; 3
    1178:	80 93 3a 38 	sts	0x383A, r24	; 0x80383a <adc0Chg>
    117c:	08 95       	ret

0000117e <CheckButtons>:
};

// Returns button combination (4LSB) and number of consecutive times this combination is detected. First read should always be ignored! 
uint8_t CheckButtons(){
    static uint8_t previousValue = 0xFF;
    uint8_t bADC = (uint8_t)(adcBtns>>4);
    117e:	80 91 b9 3a 	lds	r24, 0x3AB9	; 0x803ab9 <adcBtns>
    1182:	90 91 ba 3a 	lds	r25, 0x3ABA	; 0x803aba <adcBtns+0x1>
    uint8_t button = 0xFF;     //FF = released or error

        switch(bADC){
    1186:	24 e0       	ldi	r18, 0x04	; 4
    1188:	96 95       	lsr	r25
    118a:	87 95       	ror	r24
    118c:	2a 95       	dec	r18
    118e:	e1 f7       	brne	.-8      	; 0x1188 <CheckButtons+0xa>
    1190:	99 27       	eor	r25, r25
    1192:	80 36       	cpi	r24, 0x60	; 96
    1194:	91 05       	cpc	r25, r1
    1196:	40 f4       	brcc	.+16     	; 0x11a8 <CheckButtons+0x2a>
    1198:	8f 34       	cpi	r24, 0x4F	; 79
    119a:	91 05       	cpc	r25, r1
    119c:	88 f4       	brcc	.+34     	; 0x11c0 <CheckButtons+0x42>
    119e:	c0 97       	sbiw	r24, 0x30	; 48
    11a0:	09 97       	sbiw	r24, 0x09	; 9
    11a2:	90 f4       	brcc	.+36     	; 0x11c8 <CheckButtons+0x4a>

            case 48 ... 56:          //52: Bottom left (+/-4)
            button = 2;
    11a4:	92 e0       	ldi	r25, 0x02	; 2
    11a6:	11 c0       	rjmp	.+34     	; 0x11ca <CheckButtons+0x4c>
uint8_t CheckButtons(){
    static uint8_t previousValue = 0xFF;
    uint8_t bADC = (uint8_t)(adcBtns>>4);
    uint8_t button = 0xFF;     //FF = released or error

        switch(bADC){
    11a8:	85 37       	cpi	r24, 0x75	; 117
    11aa:	91 05       	cpc	r25, r1
    11ac:	68 f0       	brcs	.+26     	; 0x11c8 <CheckButtons+0x4a>
    11ae:	8e 38       	cpi	r24, 0x8E	; 142
    11b0:	91 05       	cpc	r25, r1
    11b2:	40 f0       	brcs	.+16     	; 0x11c4 <CheckButtons+0x46>
    11b4:	8e 59       	subi	r24, 0x9E	; 158
    11b6:	91 09       	sbc	r25, r1
    11b8:	81 97       	sbiw	r24, 0x21	; 33
    11ba:	30 f4       	brcc	.+12     	; 0x11c8 <CheckButtons+0x4a>
            case 117 ... 141:        //129: Top right (+/- 12)
            button = 1;
            break;

            case 158 ... 190:        //174: Bottom right (+/- 16)
            button = 0;
    11bc:	90 e0       	ldi	r25, 0x00	; 0
            break;
    11be:	05 c0       	rjmp	.+10     	; 0x11ca <CheckButtons+0x4c>
            case 48 ... 56:          //52: Bottom left (+/-4)
            button = 2;
            break;

            case 79 ... 95:          //87: Top left (+/-8)
            button = 3;
    11c0:	93 e0       	ldi	r25, 0x03	; 3
            break;
    11c2:	03 c0       	rjmp	.+6      	; 0x11ca <CheckButtons+0x4c>

            case 117 ... 141:        //129: Top right (+/- 12)
            button = 1;
    11c4:	91 e0       	ldi	r25, 0x01	; 1
            break;
    11c6:	01 c0       	rjmp	.+2      	; 0x11ca <CheckButtons+0x4c>

// Returns button combination (4LSB) and number of consecutive times this combination is detected. First read should always be ignored! 
uint8_t CheckButtons(){
    static uint8_t previousValue = 0xFF;
    uint8_t bADC = (uint8_t)(adcBtns>>4);
    uint8_t button = 0xFF;     //FF = released or error
    11c8:	9f ef       	ldi	r25, 0xFF	; 255
            case 158 ... 190:        //174: Bottom right (+/- 16)
            button = 0;
            break;
        }

        if (((previousValue+1)== 0) || (button != previousValue)) {
    11ca:	80 91 27 38 	lds	r24, 0x3827	; 0x803827 <previousValue.3900>
    11ce:	98 17       	cp	r25, r24
    11d0:	19 f0       	breq	.+6      	; 0x11d8 <CheckButtons+0x5a>
            previousValue = button;
    11d2:	90 93 27 38 	sts	0x3827, r25	; 0x803827 <previousValue.3900>
            return 0xFF;
    11d6:	8f ef       	ldi	r24, 0xFF	; 255
        } else return button;

}
    11d8:	08 95       	ret

000011da <lfsr>:

uint8_t lfsr(){
    static uint16_t state = 0xd401;
    state ^= (state << 13);
    11da:	80 91 25 38 	lds	r24, 0x3825	; 0x803825 <state.3910>
    11de:	90 91 26 38 	lds	r25, 0x3826	; 0x803826 <state.3910+0x1>
    11e2:	9c 01       	movw	r18, r24
    11e4:	32 2f       	mov	r19, r18
    11e6:	22 27       	eor	r18, r18
    11e8:	32 95       	swap	r19
    11ea:	33 0f       	add	r19, r19
    11ec:	30 7e       	andi	r19, 0xE0	; 224
    11ee:	82 27       	eor	r24, r18
    11f0:	93 27       	eor	r25, r19
    state ^= (state >> 9);
    11f2:	9c 01       	movw	r18, r24
    11f4:	23 2f       	mov	r18, r19
    11f6:	33 27       	eor	r19, r19
    11f8:	26 95       	lsr	r18
    11fa:	82 27       	eor	r24, r18
    11fc:	93 27       	eor	r25, r19
    state ^= (state << 7);
    11fe:	9c 01       	movw	r18, r24
    1200:	36 95       	lsr	r19
    1202:	32 2f       	mov	r19, r18
    1204:	22 27       	eor	r18, r18
    1206:	37 95       	ror	r19
    1208:	27 95       	ror	r18
    120a:	82 27       	eor	r24, r18
    120c:	93 27       	eor	r25, r19
    120e:	80 93 25 38 	sts	0x3825, r24	; 0x803825 <state.3910>
    1212:	90 93 26 38 	sts	0x3826, r25	; 0x803826 <state.3910+0x1>
    return (state & 0xff);
}
    1216:	08 95       	ret

00001218 <floatSpeed>:

void floatSpeed(uint8_t bits, uint16_t min, uint16_t max){
    1218:	df 92       	push	r13
    121a:	ef 92       	push	r14
    121c:	ff 92       	push	r15
    121e:	0f 93       	push	r16
    1220:	1f 93       	push	r17
    1222:	cf 93       	push	r28
    1224:	df 93       	push	r29
    1226:	7b 01       	movw	r14, r22
    1228:	8a 01       	movw	r16, r20
    uint16_t val = TCB1_CCMP;
    122a:	c0 91 5c 0a 	lds	r28, 0x0A5C	; 0x800a5c <__TEXT_REGION_LENGTH__+0x700a5c>
    122e:	d0 91 5d 0a 	lds	r29, 0x0A5D	; 0x800a5d <__TEXT_REGION_LENGTH__+0x700a5d>
    bits = mask[(bits-1)&0x07];
    1232:	e8 2f       	mov	r30, r24
    1234:	f0 e0       	ldi	r31, 0x00	; 0
    1236:	31 97       	sbiw	r30, 0x01	; 1
    1238:	e7 70       	andi	r30, 0x07	; 7
    123a:	ff 27       	eor	r31, r31
    123c:	e8 5d       	subi	r30, 0xD8	; 216
    123e:	f7 4c       	sbci	r31, 0xC7	; 199
    1240:	d0 80       	ld	r13, Z
    val += (lfsr()&bits);
    1242:	cb df       	rcall	.-106    	; 0x11da <lfsr>
    1244:	8d 21       	and	r24, r13
    1246:	c8 0f       	add	r28, r24
    1248:	d1 1d       	adc	r29, r1
    val -= (lfsr()&bits);
    124a:	c7 df       	rcall	.-114    	; 0x11da <lfsr>
    124c:	8d 21       	and	r24, r13
    124e:	c8 1b       	sub	r28, r24
    1250:	d1 09       	sbc	r29, r1
    1252:	0c 17       	cp	r16, r28
    1254:	1d 07       	cpc	r17, r29
    1256:	08 f4       	brcc	.+2      	; 0x125a <floatSpeed+0x42>
    1258:	e8 01       	movw	r28, r16
    125a:	c7 01       	movw	r24, r14
    125c:	ec 16       	cp	r14, r28
    125e:	fd 06       	cpc	r15, r29
    1260:	08 f4       	brcc	.+2      	; 0x1264 <floatSpeed+0x4c>
    1262:	ce 01       	movw	r24, r28
    1264:	80 93 5c 0a 	sts	0x0A5C, r24	; 0x800a5c <__TEXT_REGION_LENGTH__+0x700a5c>
    if (val > max) val = max;    
    if (val < min) val = min;  
    TCB1_CCMP = val;
    1268:	90 93 5d 0a 	sts	0x0A5D, r25	; 0x800a5d <__TEXT_REGION_LENGTH__+0x700a5d>
    126c:	df 91       	pop	r29
}
    126e:	cf 91       	pop	r28
    1270:	1f 91       	pop	r17
    1272:	0f 91       	pop	r16
    1274:	ff 90       	pop	r15
    1276:	ef 90       	pop	r14
    1278:	df 90       	pop	r13
    127a:	08 95       	ret

0000127c <floatAround>:
    127c:	0f 93       	push	r16

uint8_t floatAround(uint8_t sample, uint8_t bits, uint8_t min, uint8_t max){
    127e:	1f 93       	push	r17
    1280:	cf 93       	push	r28
    1282:	df 93       	push	r29
    1284:	c8 2f       	mov	r28, r24
    1286:	d4 2f       	mov	r29, r20
    1288:	02 2f       	mov	r16, r18
    bits = mask[(bits-1)&0x07];
    128a:	e6 2f       	mov	r30, r22
    128c:	f0 e0       	ldi	r31, 0x00	; 0
    128e:	31 97       	sbiw	r30, 0x01	; 1
    1290:	e7 70       	andi	r30, 0x07	; 7
    1292:	ff 27       	eor	r31, r31
    1294:	e8 5d       	subi	r30, 0xD8	; 216
    1296:	f7 4c       	sbci	r31, 0xC7	; 199
    1298:	10 81       	ld	r17, Z
    sample += lfsr()&bits;
    129a:	9f df       	rcall	.-194    	; 0x11da <lfsr>
    129c:	81 23       	and	r24, r17
    129e:	c8 0f       	add	r28, r24
    sample -= lfsr()&bits;
    12a0:	9c df       	rcall	.-200    	; 0x11da <lfsr>
    12a2:	81 23       	and	r24, r17
    12a4:	c8 1b       	sub	r28, r24
    12a6:	8c 2f       	mov	r24, r28
    12a8:	00 23       	and	r16, r16
    if (max){
    12aa:	41 f0       	breq	.+16     	; 0x12bc <floatAround+0x40>
    12ac:	9c 2f       	mov	r25, r28
    12ae:	0c 17       	cp	r16, r28
    12b0:	08 f4       	brcc	.+2      	; 0x12b4 <floatAround+0x38>
    12b2:	90 2f       	mov	r25, r16
    12b4:	8d 2f       	mov	r24, r29
    12b6:	d9 17       	cp	r29, r25
    12b8:	08 f4       	brcc	.+2      	; 0x12bc <floatAround+0x40>
    12ba:	89 2f       	mov	r24, r25
    12bc:	41 e0       	ldi	r20, 0x01	; 1
        if (sample > max) sample = max;
        if (sample < min) sample = min;
    }
    if (min & (sample < min)) sample = min;
    12be:	50 e0       	ldi	r21, 0x00	; 0
    12c0:	8d 17       	cp	r24, r29
    12c2:	10 f0       	brcs	.+4      	; 0x12c8 <floatAround+0x4c>
    12c4:	40 e0       	ldi	r20, 0x00	; 0
    12c6:	50 e0       	ldi	r21, 0x00	; 0
    12c8:	2d 2f       	mov	r18, r29
    12ca:	30 e0       	ldi	r19, 0x00	; 0
    12cc:	24 23       	and	r18, r20
    12ce:	35 23       	and	r19, r21
    12d0:	23 2b       	or	r18, r19
    12d2:	09 f0       	breq	.+2      	; 0x12d6 <floatAround+0x5a>
    12d4:	8d 2f       	mov	r24, r29
    12d6:	df 91       	pop	r29

    return sample;
}
    12d8:	cf 91       	pop	r28
    12da:	1f 91       	pop	r17
    12dc:	0f 91       	pop	r16
    12de:	08 95       	ret

000012e0 <SaveGameState>:
    12e0:	cf 92       	push	r12
    inventory[0] = (gameState[INVADDR]<<8|gameState[INVADDR+1]);
    inventory[1] = (gameState[INVADDR+2]<<8|gameState[INVADDR+3]);
}

//Save changed data to EEPROM
uint8_t SaveGameState(){
    12e2:	df 92       	push	r13
    12e4:	ff 92       	push	r15
    12e6:	0f 93       	push	r16
    12e8:	1f 93       	push	r17
    12ea:	cf 93       	push	r28
    12ec:	df 93       	push	r29
    12ee:	cd b7       	in	r28, 0x3d	; 61
    12f0:	de b7       	in	r29, 0x3e	; 62
    12f2:	64 97       	sbiw	r28, 0x14	; 20
    12f4:	cd bf       	out	0x3d, r28	; 61
    12f6:	de bf       	out	0x3e, r29	; 62
    uint8_t gameCheck[BOOTCHK];

    //Read all data up to the boot/check result address from EEPROM
    EERead(0, &gameCheck[0], BOOTCHK);
    12f8:	44 e1       	ldi	r20, 0x14	; 20
    12fa:	be 01       	movw	r22, r28
    12fc:	6f 5f       	subi	r22, 0xFF	; 255
    12fe:	7f 4f       	sbci	r23, 0xFF	; 255
    1300:	80 e0       	ldi	r24, 0x00	; 0
    1302:	79 de       	rcall	.-782    	; 0xff6 <EERead>
    1304:	83 e6       	ldi	r24, 0x63	; 99
    1306:	c8 2e       	mov	r12, r24
    1308:	8a e3       	ldi	r24, 0x3A	; 58
    130a:	d8 2e       	mov	r13, r24
    130c:	8e 01       	movw	r16, r28
    130e:	0f 5f       	subi	r16, 0xFF	; 255
    1310:	1f 4f       	sbci	r17, 0xFF	; 255

    //Check game status bits
    for (uint8_t x=0; x<STATLEN; ++x){
    1312:	f1 2c       	mov	r15, r1
        if (gameState[x] != gameCheck[x]){
    1314:	f8 01       	movw	r30, r16
    1316:	81 91       	ld	r24, Z+
    1318:	8f 01       	movw	r16, r30
    131a:	f6 01       	movw	r30, r12
    131c:	90 81       	ld	r25, Z
    131e:	98 13       	cpse	r25, r24
    1320:	08 c0       	rjmp	.+16     	; 0x1332 <SaveGameState+0x52>

    //Read all data up to the boot/check result address from EEPROM
    EERead(0, &gameCheck[0], BOOTCHK);

    //Check game status bits
    for (uint8_t x=0; x<STATLEN; ++x){
    1322:	f3 94       	inc	r15
    1324:	ff ef       	ldi	r31, 0xFF	; 255
    1326:	cf 1a       	sub	r12, r31
    1328:	df 0a       	sbc	r13, r31
    132a:	80 e1       	ldi	r24, 0x10	; 16
    132c:	f8 12       	cpse	r15, r24
    132e:	f2 cf       	rjmp	.-28     	; 0x1314 <SaveGameState+0x34>
    1330:	08 c0       	rjmp	.+16     	; 0x1342 <SaveGameState+0x62>
        if (gameState[x] != gameCheck[x]){
            if (EEWrite(x, &gameState[x], 1)) return 1;
    1332:	41 e0       	ldi	r20, 0x01	; 1
    1334:	b6 01       	movw	r22, r12
    1336:	8f 2d       	mov	r24, r15
    1338:	6e de       	rcall	.-804    	; 0x1016 <EEWrite>
    133a:	88 23       	and	r24, r24
    133c:	91 f3       	breq	.-28     	; 0x1322 <SaveGameState+0x42>
    133e:	91 e0       	ldi	r25, 0x01	; 1
    1340:	36 c0       	rjmp	.+108    	; 0x13ae <SaveGameState+0xce>
        }
    }

    //Check the inventory too
    gameState[INVADDR] = (uint8_t)(inventory[0]>>8);
    1342:	20 91 40 38 	lds	r18, 0x3840	; 0x803840 <inventory>
    1346:	30 91 41 38 	lds	r19, 0x3841	; 0x803841 <inventory+0x1>
    134a:	30 93 73 3a 	sts	0x3A73, r19	; 0x803a73 <gameState+0x10>
    gameState[INVADDR+1] = (uint8_t)(inventory[0]&0xff);
    134e:	20 93 74 3a 	sts	0x3A74, r18	; 0x803a74 <gameState+0x11>
    gameState[INVADDR+2] = (uint8_t)(inventory[1]>>8);
    1352:	80 91 42 38 	lds	r24, 0x3842	; 0x803842 <inventory+0x2>
    1356:	90 91 43 38 	lds	r25, 0x3843	; 0x803843 <inventory+0x3>
    135a:	90 93 75 3a 	sts	0x3A75, r25	; 0x803a75 <gameState+0x12>
    gameState[INVADDR+3] = (uint8_t)(inventory[1]&0xff);
    135e:	80 93 76 3a 	sts	0x3A76, r24	; 0x803a76 <gameState+0x13>
    if (inventory[0] != (gameCheck[INVADDR]<<8|gameCheck[INVADDR+1])) {
    1362:	89 89       	ldd	r24, Y+17	; 0x11
    1364:	9a 89       	ldd	r25, Y+18	; 0x12
    1366:	98 27       	eor	r25, r24
    1368:	89 27       	eor	r24, r25
    136a:	98 27       	eor	r25, r24
    136c:	28 17       	cp	r18, r24
    136e:	39 07       	cpc	r19, r25
    1370:	69 f4       	brne	.+26     	; 0x138c <SaveGameState+0xac>
        if (EEWrite(INVADDR, &gameState[INVADDR], 2)) return 1;
    }
    if (inventory[1] != (gameCheck[INVADDR+2]<<8|gameCheck[INVADDR+3])) {
    1372:	8b 89       	ldd	r24, Y+19	; 0x13
    1374:	9c 89       	ldd	r25, Y+20	; 0x14
    1376:	98 27       	eor	r25, r24
    1378:	89 27       	eor	r24, r25
    137a:	98 27       	eor	r25, r24
    137c:	20 91 42 38 	lds	r18, 0x3842	; 0x803842 <inventory+0x2>
    1380:	30 91 43 38 	lds	r19, 0x3843	; 0x803843 <inventory+0x3>
    1384:	28 17       	cp	r18, r24
    1386:	39 07       	cpc	r19, r25
    1388:	49 f4       	brne	.+18     	; 0x139c <SaveGameState+0xbc>
    138a:	10 c0       	rjmp	.+32     	; 0x13ac <SaveGameState+0xcc>
    gameState[INVADDR] = (uint8_t)(inventory[0]>>8);
    gameState[INVADDR+1] = (uint8_t)(inventory[0]&0xff);
    gameState[INVADDR+2] = (uint8_t)(inventory[1]>>8);
    gameState[INVADDR+3] = (uint8_t)(inventory[1]&0xff);
    if (inventory[0] != (gameCheck[INVADDR]<<8|gameCheck[INVADDR+1])) {
        if (EEWrite(INVADDR, &gameState[INVADDR], 2)) return 1;
    138c:	42 e0       	ldi	r20, 0x02	; 2
    138e:	63 e7       	ldi	r22, 0x73	; 115
    1390:	7a e3       	ldi	r23, 0x3A	; 58
    1392:	80 e1       	ldi	r24, 0x10	; 16
    1394:	40 de       	rcall	.-896    	; 0x1016 <EEWrite>
    1396:	88 23       	and	r24, r24
    1398:	61 f3       	breq	.-40     	; 0x1372 <SaveGameState+0x92>
    139a:	d1 cf       	rjmp	.-94     	; 0x133e <SaveGameState+0x5e>
    }
    if (inventory[1] != (gameCheck[INVADDR+2]<<8|gameCheck[INVADDR+3])) {
        if (EEWrite(INVADDR+2, &gameState[INVADDR+2], 2)) return 1;
    139c:	42 e0       	ldi	r20, 0x02	; 2
    139e:	65 e7       	ldi	r22, 0x75	; 117
    13a0:	7a e3       	ldi	r23, 0x3A	; 58
    13a2:	82 e1       	ldi	r24, 0x12	; 18
    13a4:	38 de       	rcall	.-912    	; 0x1016 <EEWrite>
    EERead(0, &gameCheck[0], BOOTCHK);

    //Check game status bits
    for (uint8_t x=0; x<STATLEN; ++x){
        if (gameState[x] != gameCheck[x]){
            if (EEWrite(x, &gameState[x], 1)) return 1;
    13a6:	91 e0       	ldi	r25, 0x01	; 1
    13a8:	81 11       	cpse	r24, r1
    13aa:	01 c0       	rjmp	.+2      	; 0x13ae <SaveGameState+0xce>
    13ac:	90 e0       	ldi	r25, 0x00	; 0
    if (inventory[1] != (gameCheck[INVADDR+2]<<8|gameCheck[INVADDR+3])) {
        if (EEWrite(INVADDR+2, &gameState[INVADDR+2], 2)) return 1;
    }

    return 0;
}
    13ae:	89 2f       	mov	r24, r25
    13b0:	64 96       	adiw	r28, 0x14	; 20
    13b2:	cd bf       	out	0x3d, r28	; 61
    13b4:	de bf       	out	0x3e, r29	; 62
    13b6:	df 91       	pop	r29
    13b8:	cf 91       	pop	r28
    13ba:	1f 91       	pop	r17
    13bc:	0f 91       	pop	r16
    13be:	ff 90       	pop	r15
    13c0:	df 90       	pop	r13
    13c2:	cf 90       	pop	r12
    13c4:	08 95       	ret

000013c6 <ReadStatusBit>:

uint8_t ReadStatusBit(uint8_t number){
    number &= 0x7f;
    if (gameState[number>>3] & (1<<(number&7))) return 1; else return 0;
    13c6:	e8 2f       	mov	r30, r24
    13c8:	ef 77       	andi	r30, 0x7F	; 127
    13ca:	e6 95       	lsr	r30
    13cc:	e6 95       	lsr	r30
    13ce:	e6 95       	lsr	r30
    13d0:	f0 e0       	ldi	r31, 0x00	; 0
    13d2:	ed 59       	subi	r30, 0x9D	; 157
    13d4:	f5 4c       	sbci	r31, 0xC5	; 197
    13d6:	20 81       	ld	r18, Z
    13d8:	30 e0       	ldi	r19, 0x00	; 0
    13da:	87 70       	andi	r24, 0x07	; 7
    13dc:	a9 01       	movw	r20, r18
    13de:	02 c0       	rjmp	.+4      	; 0x13e4 <ReadStatusBit+0x1e>
    13e0:	55 95       	asr	r21
    13e2:	47 95       	ror	r20
    13e4:	8a 95       	dec	r24
    13e6:	e2 f7       	brpl	.-8      	; 0x13e0 <ReadStatusBit+0x1a>
    13e8:	ca 01       	movw	r24, r20
}
    13ea:	81 70       	andi	r24, 0x01	; 1
    13ec:	08 95       	ret

000013ee <UpdateState>:

//Update game state: num -> vBBBBbbb v=value(0 is set!), BBBB=Byte number, bbb=bit number
void UpdateState(uint8_t num){
    uint8_t clearBit = num & 0x80;
    num &= 0x7f;
    13ee:	e8 2f       	mov	r30, r24
    13f0:	ef 77       	andi	r30, 0x7F	; 127
    
    if (num) {
    13f2:	e9 f0       	breq	.+58     	; 0x142e <UpdateState+0x40>
    13f4:	e6 95       	lsr	r30
    13f6:	e6 95       	lsr	r30
    13f8:	e6 95       	lsr	r30
    13fa:	28 2f       	mov	r18, r24
    13fc:	27 70       	andi	r18, 0x07	; 7
        if (clearBit) {
            gameState[num>>3] &= ~(1<<(num&7));
    13fe:	f0 e0       	ldi	r31, 0x00	; 0
    1400:	ed 59       	subi	r30, 0x9D	; 157
    1402:	f5 4c       	sbci	r31, 0xC5	; 197
void UpdateState(uint8_t num){
    uint8_t clearBit = num & 0x80;
    num &= 0x7f;
    
    if (num) {
        if (clearBit) {
    1404:	87 ff       	sbrs	r24, 7
    1406:	0a c0       	rjmp	.+20     	; 0x141c <UpdateState+0x2e>
            gameState[num>>3] &= ~(1<<(num&7));
    1408:	81 e0       	ldi	r24, 0x01	; 1
    140a:	90 e0       	ldi	r25, 0x00	; 0
    140c:	01 c0       	rjmp	.+2      	; 0x1410 <UpdateState+0x22>
    140e:	88 0f       	add	r24, r24
    1410:	2a 95       	dec	r18
    1412:	ea f7       	brpl	.-6      	; 0x140e <UpdateState+0x20>
    1414:	80 95       	com	r24
    1416:	90 81       	ld	r25, Z
    1418:	89 23       	and	r24, r25
    141a:	08 c0       	rjmp	.+16     	; 0x142c <UpdateState+0x3e>
        } else {
            gameState[num>>3] |= 1<<(num&7);
    141c:	81 e0       	ldi	r24, 0x01	; 1
    141e:	90 e0       	ldi	r25, 0x00	; 0
    1420:	01 c0       	rjmp	.+2      	; 0x1424 <UpdateState+0x36>
    1422:	88 0f       	add	r24, r24
    1424:	2a 95       	dec	r18
    1426:	ea f7       	brpl	.-6      	; 0x1422 <UpdateState+0x34>
    1428:	90 81       	ld	r25, Z
    142a:	89 2b       	or	r24, r25
    142c:	80 83       	st	Z, r24
    142e:	08 95       	ret

00001430 <CheckState>:
        }
    }
}

//Checks if state of bit BBBBbbb matches with v (inverted) bit
uint8_t CheckState(uint8_t num){
    1430:	cf 93       	push	r28
    1432:	c8 2f       	mov	r28, r24
    uint8_t bitSet = 0;
    if (ReadStatusBit(num & 0x7f)){
    1434:	8f 77       	andi	r24, 0x7F	; 127
    1436:	c7 df       	rcall	.-114    	; 0x13c6 <ReadStatusBit>
    1438:	2c 2f       	mov	r18, r28
    143a:	22 1f       	adc	r18, r18
    143c:	22 27       	eor	r18, r18
    143e:	22 1f       	adc	r18, r18
    1440:	91 e0       	ldi	r25, 0x01	; 1
    1442:	81 11       	cpse	r24, r1
    1444:	01 c0       	rjmp	.+2      	; 0x1448 <CheckState+0x18>
    1446:	90 e0       	ldi	r25, 0x00	; 0
    }
    if (((num & 0x80)>0)^(bitSet>0)){
        return 1;
    }
    return 0;
}
    1448:	82 2f       	mov	r24, r18
    144a:	89 27       	eor	r24, r25
    144c:	cf 91       	pop	r28
    144e:	08 95       	ret

00001450 <getID>:

//Give out a number 0..3, calculated using serial number fields
uint8_t getID(){
    uint8_t id = 0;
    uint8_t *serNum;
    serNum = (uint8_t*)&SIGROW_SERNUM0;
    1450:	e3 e0       	ldi	r30, 0x03	; 3
    1452:	f1 e1       	ldi	r31, 0x11	; 17
    return 0;
}

//Give out a number 0..3, calculated using serial number fields
uint8_t getID(){
    uint8_t id = 0;
    1454:	80 e0       	ldi	r24, 0x00	; 0
    uint8_t *serNum;
    serNum = (uint8_t*)&SIGROW_SERNUM0;

    for (uint8_t x=0; x<10; ++x){
        id += *serNum;
    1456:	91 91       	ld	r25, Z+
    1458:	89 0f       	add	r24, r25
uint8_t getID(){
    uint8_t id = 0;
    uint8_t *serNum;
    serNum = (uint8_t*)&SIGROW_SERNUM0;

    for (uint8_t x=0; x<10; ++x){
    145a:	ed 30       	cpi	r30, 0x0D	; 13
    145c:	91 e1       	ldi	r25, 0x11	; 17
    145e:	f9 07       	cpc	r31, r25
    1460:	d1 f7       	brne	.-12     	; 0x1456 <getID+0x6>
        id += *serNum;
        ++serNum;
    }
    id %= 4;
    1462:	83 70       	andi	r24, 0x03	; 3
    whoami = id+1;
    1464:	91 e0       	ldi	r25, 0x01	; 1
    1466:	98 0f       	add	r25, r24
    1468:	90 93 3f 38 	sts	0x383F, r25	; 0x80383f <whoami>
    return id;
}
    146c:	08 95       	ret

0000146e <Reset>:

void Reset(){
    146e:	cf 93       	push	r28
    1470:	e3 e6       	ldi	r30, 0x63	; 99
    1472:	fa e3       	ldi	r31, 0x3A	; 58
    //# 110   set to 1 by FW if badge UUID mod 4 == 0
    //# 111   set to 1 by FW if badge UUID mod 4 == 1
    //# 112   set to 1 by FW if badge UUID mod 4 == 2
    //# 113   set to 1 by FW if badge UUID mod 4 == 3
    for (uint8_t x=0; x<sizeof(gameState); ++x){
        gameState[x] = 0;
    1474:	11 92       	st	Z+, r1
    //Reset game progress (all zeros) and load some bits:
    //# 110   set to 1 by FW if badge UUID mod 4 == 0
    //# 111   set to 1 by FW if badge UUID mod 4 == 1
    //# 112   set to 1 by FW if badge UUID mod 4 == 2
    //# 113   set to 1 by FW if badge UUID mod 4 == 3
    for (uint8_t x=0; x<sizeof(gameState); ++x){
    1476:	8a e3       	ldi	r24, 0x3A	; 58
    1478:	e7 37       	cpi	r30, 0x77	; 119
    147a:	f8 07       	cpc	r31, r24
    147c:	d9 f7       	brne	.-10     	; 0x1474 <Reset+0x6>
        gameState[x] = 0;
    }

    uint8_t id = getID();
    147e:	e8 df       	rcall	.-48     	; 0x1450 <getID>
    1480:	c8 2f       	mov	r28, r24

    //Write bit in gameState location 110..113
    if (id == 0) UpdateState(110);
    1482:	81 11       	cpse	r24, r1
    1484:	02 c0       	rjmp	.+4      	; 0x148a <Reset+0x1c>
    1486:	8e e6       	ldi	r24, 0x6E	; 110
    1488:	0b c0       	rjmp	.+22     	; 0x14a0 <Reset+0x32>
    else if (id == 1) UpdateState(111);
    148a:	81 30       	cpi	r24, 0x01	; 1
    148c:	11 f4       	brne	.+4      	; 0x1492 <Reset+0x24>
    148e:	8f e6       	ldi	r24, 0x6F	; 111
    1490:	07 c0       	rjmp	.+14     	; 0x14a0 <Reset+0x32>
    else if (id == 2) UpdateState(112);
    1492:	82 30       	cpi	r24, 0x02	; 2
    1494:	11 f4       	brne	.+4      	; 0x149a <Reset+0x2c>
    1496:	80 e7       	ldi	r24, 0x70	; 112
    1498:	03 c0       	rjmp	.+6      	; 0x14a0 <Reset+0x32>
    else if (id == 3) UpdateState(113);
    149a:	83 30       	cpi	r24, 0x03	; 3
    149c:	11 f4       	brne	.+4      	; 0x14a2 <Reset+0x34>
    149e:	81 e7       	ldi	r24, 0x71	; 113
    14a0:	a6 df       	rcall	.-180    	; 0x13ee <UpdateState>
    UpdateState(100+id);
    14a2:	84 e6       	ldi	r24, 0x64	; 100

    //Write bit 0, must always be 1!

}
    14a4:	8c 0f       	add	r24, r28
    //Write bit in gameState location 110..113
    if (id == 0) UpdateState(110);
    else if (id == 1) UpdateState(111);
    else if (id == 2) UpdateState(112);
    else if (id == 3) UpdateState(113);
    UpdateState(100+id);
    14a6:	cf 91       	pop	r28
    14a8:	a2 cf       	rjmp	.-188    	; 0x13ee <UpdateState>

000014aa <LoadGameState>:

    return sample;
}

//Load game status
void LoadGameState(){
    14aa:	cf 93       	push	r28
    14ac:	df 93       	push	r29
    EERead(0, &gameState[0], BOOTCHK);   //Load game status bits from EEPROM
    14ae:	44 e1       	ldi	r20, 0x14	; 20
    14b0:	63 e6       	ldi	r22, 0x63	; 99
    14b2:	7a e3       	ldi	r23, 0x3A	; 58
    14b4:	80 e0       	ldi	r24, 0x00	; 0
    14b6:	9f dd       	rcall	.-1218   	; 0xff6 <EERead>
    14b8:	ce e6       	ldi	r28, 0x6E	; 110

    uint8_t idSet = 0;
    14ba:	d0 e0       	ldi	r29, 0x00	; 0
    for (uint8_t x=0; x<4; ++x){
        idSet += ReadStatusBit(110+x);
    14bc:	8c 2f       	mov	r24, r28
    14be:	83 df       	rcall	.-250    	; 0x13c6 <ReadStatusBit>
    14c0:	d8 0f       	add	r29, r24
    14c2:	cf 5f       	subi	r28, 0xFF	; 255
//Load game status
void LoadGameState(){
    EERead(0, &gameState[0], BOOTCHK);   //Load game status bits from EEPROM

    uint8_t idSet = 0;
    for (uint8_t x=0; x<4; ++x){
    14c4:	c2 37       	cpi	r28, 0x72	; 114
    14c6:	d1 f7       	brne	.-12     	; 0x14bc <LoadGameState+0x12>
        idSet += ReadStatusBit(110+x);
    }

    //Check if badge is reset(0 = cheated!) or new(3) or error(2)
    if (idSet != 1) {
    14c8:	d1 30       	cpi	r29, 0x01	; 1
        Reset();
    14ca:	11 f0       	breq	.+4      	; 0x14d0 <LoadGameState+0x26>
    14cc:	d0 df       	rcall	.-96     	; 0x146e <Reset>
    } else getID();
    14ce:	01 c0       	rjmp	.+2      	; 0x14d2 <LoadGameState+0x28>
    14d0:	bf df       	rcall	.-130    	; 0x1450 <getID>

    inventory[0] = (gameState[INVADDR]<<8|gameState[INVADDR+1]);
    14d2:	80 91 73 3a 	lds	r24, 0x3A73	; 0x803a73 <gameState+0x10>
    14d6:	90 91 74 3a 	lds	r25, 0x3A74	; 0x803a74 <gameState+0x11>
    14da:	98 27       	eor	r25, r24
    14dc:	89 27       	eor	r24, r25
    14de:	98 27       	eor	r25, r24
    14e0:	80 93 40 38 	sts	0x3840, r24	; 0x803840 <inventory>
    14e4:	90 93 41 38 	sts	0x3841, r25	; 0x803841 <inventory+0x1>
    inventory[1] = (gameState[INVADDR+2]<<8|gameState[INVADDR+3]);
    14e8:	80 91 75 3a 	lds	r24, 0x3A75	; 0x803a75 <gameState+0x12>
    14ec:	90 91 76 3a 	lds	r25, 0x3A76	; 0x803a76 <gameState+0x13>
    14f0:	98 27       	eor	r25, r24
    14f2:	89 27       	eor	r24, r25
    14f4:	98 27       	eor	r25, r24
    14f6:	80 93 42 38 	sts	0x3842, r24	; 0x803842 <inventory+0x2>
    14fa:	90 93 43 38 	sts	0x3843, r25	; 0x803843 <inventory+0x3>
}
    14fe:	df 91       	pop	r29
    1500:	cf 91       	pop	r28
    1502:	08 95       	ret

00001504 <HotSummer>:
    //Write bit 0, must always be 1!

}

//Sets specific game bits after the badge is heated for one and two times.
uint8_t HotSummer(){
    1504:	cf 93       	push	r28
    static uint8_t cooledDown = 0;

    if (CheckState(SUMMERS_COMPLETED)){
    1506:	86 e7       	ldi	r24, 0x76	; 118
    1508:	93 df       	rcall	.-218    	; 0x1430 <CheckState>
    150a:	c8 2f       	mov	r28, r24
    150c:	88 23       	and	r24, r24
    150e:	81 f0       	breq	.+32     	; 0x1530 <HotSummer+0x2c>
        iLED[SCARAB[R]] = 0;
    1510:	e0 91 2c bf 	lds	r30, 0xBF2C	; 0x80bf2c <__bss_end+0x8418>
    1514:	f0 e0       	ldi	r31, 0x00	; 0
    1516:	eb 53       	subi	r30, 0x3B	; 59
    1518:	f5 4c       	sbci	r31, 0xC5	; 197
    151a:	10 82       	st	Z, r1
        iLED[SCARAB[G]] = dimValue;
    151c:	e0 91 2d bf 	lds	r30, 0xBF2D	; 0x80bf2d <__bss_end+0x8419>
    1520:	f0 e0       	ldi	r31, 0x00	; 0
    1522:	80 91 0c 38 	lds	r24, 0x380C	; 0x80380c <dimValue>
    1526:	eb 53       	subi	r30, 0x3B	; 59
    1528:	f5 4c       	sbci	r31, 0xC5	; 197
    152a:	80 83       	st	Z, r24
        return 1;
    152c:	c1 e0       	ldi	r28, 0x01	; 1
    152e:	4c c0       	rjmp	.+152    	; 0x15c8 <HotSummer+0xc4>
    }

    if (CheckState(FIRST_SUMMER)) {
    1530:	85 e7       	ldi	r24, 0x75	; 117
    1532:	7e df       	rcall	.-260    	; 0x1430 <CheckState>
    1534:	88 23       	and	r24, r24
    1536:	59 f1       	breq	.+86     	; 0x158e <HotSummer+0x8a>
        iLED[SCARAB[R]] = dimValue;
    1538:	e0 91 2c bf 	lds	r30, 0xBF2C	; 0x80bf2c <__bss_end+0x8418>
    153c:	f0 e0       	ldi	r31, 0x00	; 0
    153e:	80 91 0c 38 	lds	r24, 0x380C	; 0x80380c <dimValue>
    1542:	eb 53       	subi	r30, 0x3B	; 59
    1544:	f5 4c       	sbci	r31, 0xC5	; 197
    1546:	80 83       	st	Z, r24
        if ((cooledDown) && (adcTemp >= (calTemp + 32))) {
    1548:	80 91 5b 38 	lds	r24, 0x385B	; 0x80385b <cooledDown.3965>
    154c:	88 23       	and	r24, r24
    154e:	79 f0       	breq	.+30     	; 0x156e <HotSummer+0x6a>
    1550:	80 91 c2 3a 	lds	r24, 0x3AC2	; 0x803ac2 <calTemp>
    1554:	90 91 c3 3a 	lds	r25, 0x3AC3	; 0x803ac3 <calTemp+0x1>
    1558:	20 91 ef 3a 	lds	r18, 0x3AEF	; 0x803aef <adcTemp>
    155c:	30 91 f0 3a 	lds	r19, 0x3AF0	; 0x803af0 <adcTemp+0x1>
    1560:	80 96       	adiw	r24, 0x20	; 32
    1562:	28 17       	cp	r18, r24
    1564:	39 07       	cpc	r19, r25
            UpdateState(SUMMERS_COMPLETED);
    1566:	18 f0       	brcs	.+6      	; 0x156e <HotSummer+0x6a>
    1568:	86 e7       	ldi	r24, 0x76	; 118
    156a:	41 df       	rcall	.-382    	; 0x13ee <UpdateState>
            return 0;
    156c:	2d c0       	rjmp	.+90     	; 0x15c8 <HotSummer+0xc4>
        }
        if (adcTemp <= (calTemp + 8)) cooledDown = 1;
    156e:	80 91 c2 3a 	lds	r24, 0x3AC2	; 0x803ac2 <calTemp>
    1572:	90 91 c3 3a 	lds	r25, 0x3AC3	; 0x803ac3 <calTemp+0x1>
    1576:	20 91 ef 3a 	lds	r18, 0x3AEF	; 0x803aef <adcTemp>
    157a:	30 91 f0 3a 	lds	r19, 0x3AF0	; 0x803af0 <adcTemp+0x1>
    157e:	08 96       	adiw	r24, 0x08	; 8
    1580:	82 17       	cp	r24, r18
    1582:	93 07       	cpc	r25, r19
    1584:	08 f1       	brcs	.+66     	; 0x15c8 <HotSummer+0xc4>
    1586:	81 e0       	ldi	r24, 0x01	; 1
    1588:	80 93 5b 38 	sts	0x385B, r24	; 0x80385b <cooledDown.3965>
    158c:	1d c0       	rjmp	.+58     	; 0x15c8 <HotSummer+0xc4>
                   
    } else {
        if (calTemp == 0) calTemp = adcTemp;
    158e:	80 91 c2 3a 	lds	r24, 0x3AC2	; 0x803ac2 <calTemp>
    1592:	90 91 c3 3a 	lds	r25, 0x3AC3	; 0x803ac3 <calTemp+0x1>
    1596:	89 2b       	or	r24, r25
    1598:	41 f4       	brne	.+16     	; 0x15aa <HotSummer+0xa6>
    159a:	80 91 ef 3a 	lds	r24, 0x3AEF	; 0x803aef <adcTemp>
    159e:	90 91 f0 3a 	lds	r25, 0x3AF0	; 0x803af0 <adcTemp+0x1>
    15a2:	80 93 c2 3a 	sts	0x3AC2, r24	; 0x803ac2 <calTemp>
    15a6:	90 93 c3 3a 	sts	0x3AC3, r25	; 0x803ac3 <calTemp+0x1>
        if (adcTemp >= (calTemp + 32)) {
    15aa:	80 91 c2 3a 	lds	r24, 0x3AC2	; 0x803ac2 <calTemp>
    15ae:	90 91 c3 3a 	lds	r25, 0x3AC3	; 0x803ac3 <calTemp+0x1>
    15b2:	20 91 ef 3a 	lds	r18, 0x3AEF	; 0x803aef <adcTemp>
    15b6:	30 91 f0 3a 	lds	r19, 0x3AF0	; 0x803af0 <adcTemp+0x1>
    15ba:	80 96       	adiw	r24, 0x20	; 32
    15bc:	28 17       	cp	r18, r24
    15be:	39 07       	cpc	r19, r25
            UpdateState(FIRST_SUMMER);
    15c0:	18 f0       	brcs	.+6      	; 0x15c8 <HotSummer+0xc4>
    15c2:	85 e7       	ldi	r24, 0x75	; 117
    15c4:	14 df       	rcall	.-472    	; 0x13ee <UpdateState>
        }
    }
    return 0;
    15c6:	c0 e0       	ldi	r28, 0x00	; 0
}
    15c8:	8c 2f       	mov	r24, r28
    15ca:	cf 91       	pop	r28
    15cc:	08 95       	ret

000015ce <WingBar>:

void WingBar(int8_t l, int8_t r) {
    15ce:	ee e2       	ldi	r30, 0x2E	; 46
    15d0:	ff eb       	ldi	r31, 0xBF	; 191
    for (int8_t i=0; i<5; i++) {
    15d2:	90 e0       	ldi	r25, 0x00	; 0
        if (i<l)
            iLED[WING[L][i]] = dimValue;
    15d4:	a5 81       	ldd	r26, Z+5	; 0x05
    15d6:	b0 e0       	ldi	r27, 0x00	; 0
    return 0;
}

void WingBar(int8_t l, int8_t r) {
    for (int8_t i=0; i<5; i++) {
        if (i<l)
    15d8:	98 17       	cp	r25, r24
    15da:	34 f4       	brge	.+12     	; 0x15e8 <WingBar+0x1a>
            iLED[WING[L][i]] = dimValue;
    15dc:	20 91 0c 38 	lds	r18, 0x380C	; 0x80380c <dimValue>
    15e0:	ab 53       	subi	r26, 0x3B	; 59
    15e2:	b5 4c       	sbci	r27, 0xC5	; 197
    15e4:	2c 93       	st	X, r18
    15e6:	03 c0       	rjmp	.+6      	; 0x15ee <WingBar+0x20>
        else
            iLED[WING[L][i]] = 0;
    15e8:	ab 53       	subi	r26, 0x3B	; 59
    15ea:	b5 4c       	sbci	r27, 0xC5	; 197
    15ec:	1c 92       	st	X, r1
        if (i<r)
            iLED[WING[R][i]] = dimValue;
    15ee:	a0 81       	ld	r26, Z
    15f0:	b0 e0       	ldi	r27, 0x00	; 0
    for (int8_t i=0; i<5; i++) {
        if (i<l)
            iLED[WING[L][i]] = dimValue;
        else
            iLED[WING[L][i]] = 0;
        if (i<r)
    15f2:	96 17       	cp	r25, r22
    15f4:	34 f4       	brge	.+12     	; 0x1602 <WingBar+0x34>
            iLED[WING[R][i]] = dimValue;
    15f6:	20 91 0c 38 	lds	r18, 0x380C	; 0x80380c <dimValue>
    15fa:	ab 53       	subi	r26, 0x3B	; 59
    15fc:	b5 4c       	sbci	r27, 0xC5	; 197
    15fe:	2c 93       	st	X, r18
    1600:	03 c0       	rjmp	.+6      	; 0x1608 <WingBar+0x3a>
        else
            iLED[WING[R][i]] = 0;
    1602:	ab 53       	subi	r26, 0x3B	; 59
    1604:	b5 4c       	sbci	r27, 0xC5	; 197
    1606:	1c 92       	st	X, r1
    1608:	9f 5f       	subi	r25, 0xFF	; 255
    160a:	31 96       	adiw	r30, 0x01	; 1
    }
    return 0;
}

void WingBar(int8_t l, int8_t r) {
    for (int8_t i=0; i<5; i++) {
    160c:	95 30       	cpi	r25, 0x05	; 5
    160e:	11 f7       	brne	.-60     	; 0x15d4 <WingBar+0x6>
        if (i<r)
            iLED[WING[R][i]] = dimValue;
        else
            iLED[WING[R][i]] = 0;
    }
}
    1610:	08 95       	ret

00001612 <SetBothEyes>:

void SetBothEyes(uint8_t r, uint8_t g) {
    for (uint8_t i=0; i<2; i++) {
        iLED[EYE[R][i]] = r;
    1612:	a8 e3       	ldi	r26, 0x38	; 56
    1614:	bf eb       	ldi	r27, 0xBF	; 191
    1616:	ec 91       	ld	r30, X
    1618:	f0 e0       	ldi	r31, 0x00	; 0
    161a:	eb 53       	subi	r30, 0x3B	; 59
    161c:	f5 4c       	sbci	r31, 0xC5	; 197
    161e:	80 83       	st	Z, r24
        iLED[EYE[G][i]] = g;
    1620:	12 96       	adiw	r26, 0x02	; 2
    1622:	ec 91       	ld	r30, X
    1624:	12 97       	sbiw	r26, 0x02	; 2
    1626:	f0 e0       	ldi	r31, 0x00	; 0
    1628:	eb 53       	subi	r30, 0x3B	; 59
    162a:	f5 4c       	sbci	r31, 0xC5	; 197
    162c:	60 83       	st	Z, r22
    }
}

void SetBothEyes(uint8_t r, uint8_t g) {
    for (uint8_t i=0; i<2; i++) {
        iLED[EYE[R][i]] = r;
    162e:	11 96       	adiw	r26, 0x01	; 1
    1630:	ec 91       	ld	r30, X
    1632:	11 97       	sbiw	r26, 0x01	; 1
    1634:	f0 e0       	ldi	r31, 0x00	; 0
    1636:	eb 53       	subi	r30, 0x3B	; 59
    1638:	f5 4c       	sbci	r31, 0xC5	; 197
    163a:	80 83       	st	Z, r24
        iLED[EYE[G][i]] = g;
    163c:	13 96       	adiw	r26, 0x03	; 3
    163e:	ec 91       	ld	r30, X
    1640:	f0 e0       	ldi	r31, 0x00	; 0
    1642:	eb 53       	subi	r30, 0x3B	; 59
    1644:	f5 4c       	sbci	r31, 0xC5	; 197
    1646:	60 83       	st	Z, r22
    1648:	08 95       	ret

0000164a <ClearHackerLeds>:
    }
}

void ClearHackerLeds() {
    164a:	cf 93       	push	r28
    164c:	df 93       	push	r29
    164e:	ec e3       	ldi	r30, 0x3C	; 60
    1650:	ff eb       	ldi	r31, 0xBF	; 191
    1652:	ef 01       	movw	r28, r30
    for (uint8_t i=0;i<6;i++) {
        iLED[HCKR[G][i]] = 0;
    1654:	a6 81       	ldd	r26, Z+6	; 0x06
    1656:	b0 e0       	ldi	r27, 0x00	; 0
    1658:	ab 53       	subi	r26, 0x3B	; 59
    165a:	b5 4c       	sbci	r27, 0xC5	; 197
    165c:	1c 92       	st	X, r1
    165e:	31 96       	adiw	r30, 0x01	; 1
        iLED[HCKR[R][i]] = 0;
    1660:	a8 81       	ld	r26, Y
    1662:	b0 e0       	ldi	r27, 0x00	; 0
    1664:	ab 53       	subi	r26, 0x3B	; 59
    1666:	b5 4c       	sbci	r27, 0xC5	; 197
    1668:	1c 92       	st	X, r1
        iLED[EYE[G][i]] = g;
    }
}

void ClearHackerLeds() {
    for (uint8_t i=0;i<6;i++) {
    166a:	8f eb       	ldi	r24, 0xBF	; 191
    166c:	e2 34       	cpi	r30, 0x42	; 66
    166e:	f8 07       	cpc	r31, r24
    1670:	81 f7       	brne	.-32     	; 0x1652 <ClearHackerLeds+0x8>
        iLED[HCKR[G][i]] = 0;
        iLED[HCKR[R][i]] = 0;
    }
}
    1672:	df 91       	pop	r29
    1674:	cf 91       	pop	r28
    1676:	08 95       	ret

00001678 <GenerateBlinks>:


void GenerateBlinks(){
    1678:	cf 92       	push	r12
    167a:	df 92       	push	r13
    167c:	ef 92       	push	r14
    167e:	ff 92       	push	r15
    1680:	0f 93       	push	r16
    1682:	1f 93       	push	r17
    1684:	cf 93       	push	r28
    1686:	df 93       	push	r29
    used by the games, the other LEDs can be used by setting 
    effect (or be set directly)
    */

    //Activate HCKR & BADGER leds based on the state-bits
    if (gameNow == TEXT) {
    1688:	80 91 3e 38 	lds	r24, 0x383E	; 0x80383e <gameNow>
    168c:	88 23       	and	r24, r24
    168e:	29 f0       	breq	.+10     	; 0x169a <GenerateBlinks+0x22>
                iLED[HCKR[R][i]] = dimValue;
            }
        }
    }

    if (CheckState(GEM_STATE)) {
    1690:	80 e4       	ldi	r24, 0x40	; 64
    1692:	ce de       	rcall	.-612    	; 0x1430 <CheckState>
    1694:	81 11       	cpse	r24, r1
    1696:	24 c0       	rjmp	.+72     	; 0x16e0 <GenerateBlinks+0x68>
    1698:	50 c0       	rjmp	.+160    	; 0x173a <GenerateBlinks+0xc2>
    169a:	cc e3       	ldi	r28, 0x3C	; 60
    169c:	df eb       	ldi	r29, 0xBF	; 191
    used by the games, the other LEDs can be used by setting 
    effect (or be set directly)
    */

    //Activate HCKR & BADGER leds based on the state-bits
    if (gameNow == TEXT) {
    169e:	1a e7       	ldi	r17, 0x7A	; 122
        for (uint8_t i=0;i<6;i++) {
            if(CheckState(HACKER_STATES + i)) {
    16a0:	81 2f       	mov	r24, r17
    16a2:	c6 de       	rcall	.-628    	; 0x1430 <CheckState>
                iLED[HCKR[G][i]] = dimValue;
    16a4:	ee 81       	ldd	r30, Y+6	; 0x06
    16a6:	f0 e0       	ldi	r31, 0x00	; 0
    */

    //Activate HCKR & BADGER leds based on the state-bits
    if (gameNow == TEXT) {
        for (uint8_t i=0;i<6;i++) {
            if(CheckState(HACKER_STATES + i)) {
    16a8:	88 23       	and	r24, r24
    16aa:	59 f0       	breq	.+22     	; 0x16c2 <GenerateBlinks+0x4a>
                iLED[HCKR[G][i]] = dimValue;
    16ac:	80 91 0c 38 	lds	r24, 0x380C	; 0x80380c <dimValue>
    16b0:	eb 53       	subi	r30, 0x3B	; 59
    16b2:	f5 4c       	sbci	r31, 0xC5	; 197
    16b4:	80 83       	st	Z, r24
                iLED[HCKR[R][i]] = 0;
    16b6:	e8 81       	ld	r30, Y
    16b8:	f0 e0       	ldi	r31, 0x00	; 0
    16ba:	eb 53       	subi	r30, 0x3B	; 59
    16bc:	f5 4c       	sbci	r31, 0xC5	; 197
    16be:	10 82       	st	Z, r1
    16c0:	0a c0       	rjmp	.+20     	; 0x16d6 <GenerateBlinks+0x5e>
            } else {
                iLED[HCKR[G][i]] = 0;
    16c2:	eb 53       	subi	r30, 0x3B	; 59
    16c4:	f5 4c       	sbci	r31, 0xC5	; 197
    16c6:	10 82       	st	Z, r1
                iLED[HCKR[R][i]] = dimValue;
    16c8:	e8 81       	ld	r30, Y
    16ca:	f0 e0       	ldi	r31, 0x00	; 0
    16cc:	80 91 0c 38 	lds	r24, 0x380C	; 0x80380c <dimValue>
    16d0:	eb 53       	subi	r30, 0x3B	; 59
    16d2:	f5 4c       	sbci	r31, 0xC5	; 197
    16d4:	80 83       	st	Z, r24
    16d6:	1f 5f       	subi	r17, 0xFF	; 255
    16d8:	21 96       	adiw	r28, 0x01	; 1
    effect (or be set directly)
    */

    //Activate HCKR & BADGER leds based on the state-bits
    if (gameNow == TEXT) {
        for (uint8_t i=0;i<6;i++) {
    16da:	10 38       	cpi	r17, 0x80	; 128
    16dc:	09 f7       	brne	.-62     	; 0x16a0 <GenerateBlinks+0x28>
    16de:	d8 cf       	rjmp	.-80     	; 0x1690 <GenerateBlinks+0x18>
            }
        }
    }

    if (CheckState(GEM_STATE)) {
        if ( HeartCount == 1 || HeartCount == 3 || HeartCount == 5 )
    16e0:	80 91 5d 38 	lds	r24, 0x385D	; 0x80385d <HeartCount>
    16e4:	98 2f       	mov	r25, r24
    16e6:	9d 7f       	andi	r25, 0xFD	; 253
    16e8:	e0 91 2b bf 	lds	r30, 0xBF2B	; 0x80bf2b <__bss_end+0x8417>
            iLED[BADGER] = dimValue>>1 ;
    16ec:	f0 e0       	ldi	r31, 0x00	; 0
            }
        }
    }

    if (CheckState(GEM_STATE)) {
        if ( HeartCount == 1 || HeartCount == 3 || HeartCount == 5 )
    16ee:	91 30       	cpi	r25, 0x01	; 1
    16f0:	11 f0       	breq	.+4      	; 0x16f6 <GenerateBlinks+0x7e>
    16f2:	85 30       	cpi	r24, 0x05	; 5
    16f4:	21 f4       	brne	.+8      	; 0x16fe <GenerateBlinks+0x86>
            iLED[BADGER] = dimValue>>1 ;
    16f6:	90 91 0c 38 	lds	r25, 0x380C	; 0x80380c <dimValue>
    16fa:	96 95       	lsr	r25
    16fc:	06 c0       	rjmp	.+12     	; 0x170a <GenerateBlinks+0x92>
        else if ( HeartCount == 2 || HeartCount == 4 )
    16fe:	82 30       	cpi	r24, 0x02	; 2
    1700:	11 f0       	breq	.+4      	; 0x1706 <GenerateBlinks+0x8e>
    1702:	84 30       	cpi	r24, 0x04	; 4
    1704:	31 f4       	brne	.+12     	; 0x1712 <GenerateBlinks+0x9a>
            iLED[BADGER] = dimValue;
    1706:	90 91 0c 38 	lds	r25, 0x380C	; 0x80380c <dimValue>
    170a:	eb 53       	subi	r30, 0x3B	; 59
    170c:	f5 4c       	sbci	r31, 0xC5	; 197
    170e:	90 83       	st	Z, r25
    1710:	0c c0       	rjmp	.+24     	; 0x172a <GenerateBlinks+0xb2>
        else if ( HeartCount == 0 || HeartCount == 6 )
    1712:	88 23       	and	r24, r24
    1714:	11 f0       	breq	.+4      	; 0x171a <GenerateBlinks+0xa2>
    1716:	86 30       	cpi	r24, 0x06	; 6
    1718:	29 f4       	brne	.+10     	; 0x1724 <GenerateBlinks+0xac>
            iLED[BADGER] = dimValue>>2;
    171a:	90 91 0c 38 	lds	r25, 0x380C	; 0x80380c <dimValue>
    171e:	96 95       	lsr	r25
    1720:	96 95       	lsr	r25
    1722:	f3 cf       	rjmp	.-26     	; 0x170a <GenerateBlinks+0x92>
        else
            iLED[BADGER] = 0;
    1724:	eb 53       	subi	r30, 0x3B	; 59
    1726:	f5 4c       	sbci	r31, 0xC5	; 197
    1728:	10 82       	st	Z, r1
        if (HeartCount<32)
    172a:	80 32       	cpi	r24, 0x20	; 32
    172c:	20 f4       	brcc	.+8      	; 0x1736 <GenerateBlinks+0xbe>
            HeartCount++;
    172e:	8f 5f       	subi	r24, 0xFF	; 255
    1730:	80 93 5d 38 	sts	0x385D, r24	; 0x80385d <HeartCount>
    1734:	02 c0       	rjmp	.+4      	; 0x173a <GenerateBlinks+0xc2>
        else
            HeartCount = 0;
    1736:	10 92 5d 38 	sts	0x385D, r1	; 0x80385d <HeartCount>
    }

    //LEDs effects for all games
    // Keep a counter for dynamic effects
    LedCount++;
    173a:	90 91 5c 38 	lds	r25, 0x385C	; 0x80385c <LedCount>
    173e:	9f 5f       	subi	r25, 0xFF	; 255
    1740:	90 93 5c 38 	sts	0x385C, r25	; 0x80385c <LedCount>

    switch (effect&0x1f) {
    1744:	e0 91 3c 38 	lds	r30, 0x383C	; 0x80383c <effect>
    1748:	f0 91 3d 38 	lds	r31, 0x383D	; 0x80383d <effect+0x1>
    174c:	ef 71       	andi	r30, 0x1F	; 31
    174e:	ff 27       	eor	r31, r31
    1750:	e9 30       	cpi	r30, 0x09	; 9
    1752:	f1 05       	cpc	r31, r1
    1754:	08 f0       	brcs	.+2      	; 0x1758 <GenerateBlinks+0xe0>
    1756:	02 c1       	rjmp	.+516    	; 0x195c <GenerateBlinks+0x2e4>
    1758:	e2 5c       	subi	r30, 0xC2	; 194
    175a:	ff 4f       	sbci	r31, 0xFF	; 255
    175c:	0c 94 79 1f 	jmp	0x3ef2	; 0x3ef2 <__tablejump2__>
        // All LEDs off
        case 0:
            WingBar(0,0);
    1760:	60 e0       	ldi	r22, 0x00	; 0
    1762:	80 e0       	ldi	r24, 0x00	; 0
    1764:	34 df       	rcall	.-408    	; 0x15ce <WingBar>
            for (uint8_t i=0; i<2; i++) {
                iLED[EYE[R][i]] = 0;
    1766:	e0 91 38 bf 	lds	r30, 0xBF38	; 0x80bf38 <__bss_end+0x8424>
    176a:	f0 e0       	ldi	r31, 0x00	; 0
    176c:	eb 53       	subi	r30, 0x3B	; 59
    176e:	f5 4c       	sbci	r31, 0xC5	; 197
    1770:	10 82       	st	Z, r1
                iLED[EYE[G][i]] = 0; 
    1772:	e0 91 3a bf 	lds	r30, 0xBF3A	; 0x80bf3a <__bss_end+0x8426>
    1776:	f0 e0       	ldi	r31, 0x00	; 0
    1778:	eb 53       	subi	r30, 0x3B	; 59
    177a:	f5 4c       	sbci	r31, 0xC5	; 197
    177c:	10 82       	st	Z, r1
                iLED[SCARAB[i]] = 0;
    177e:	e0 91 2c bf 	lds	r30, 0xBF2C	; 0x80bf2c <__bss_end+0x8418>
    1782:	f0 e0       	ldi	r31, 0x00	; 0
    1784:	eb 53       	subi	r30, 0x3B	; 59
    1786:	f5 4c       	sbci	r31, 0xC5	; 197
    1788:	10 82       	st	Z, r1
    switch (effect&0x1f) {
        // All LEDs off
        case 0:
            WingBar(0,0);
            for (uint8_t i=0; i<2; i++) {
                iLED[EYE[R][i]] = 0;
    178a:	e0 91 39 bf 	lds	r30, 0xBF39	; 0x80bf39 <__bss_end+0x8425>
    178e:	f0 e0       	ldi	r31, 0x00	; 0
    1790:	eb 53       	subi	r30, 0x3B	; 59
    1792:	f5 4c       	sbci	r31, 0xC5	; 197
    1794:	10 82       	st	Z, r1
                iLED[EYE[G][i]] = 0; 
    1796:	e0 91 3b bf 	lds	r30, 0xBF3B	; 0x80bf3b <__bss_end+0x8427>
    179a:	f0 e0       	ldi	r31, 0x00	; 0
    179c:	eb 53       	subi	r30, 0x3B	; 59
    179e:	f5 4c       	sbci	r31, 0xC5	; 197
    17a0:	10 82       	st	Z, r1
                iLED[SCARAB[i]] = 0;
    17a2:	e0 91 2d bf 	lds	r30, 0xBF2D	; 0x80bf2d <__bss_end+0x8419>
    17a6:	f0 e0       	ldi	r31, 0x00	; 0
    17a8:	eb 53       	subi	r30, 0x3B	; 59
    17aa:	f5 4c       	sbci	r31, 0xC5	; 197
    17ac:	10 82       	st	Z, r1
            }
            iLED[CAT] = 0;
    17ae:	e0 91 2a bf 	lds	r30, 0xBF2A	; 0x80bf2a <__bss_end+0x8416>
    17b2:	f0 e0       	ldi	r31, 0x00	; 0
    17b4:	eb 53       	subi	r30, 0x3B	; 59
    17b6:	f5 4c       	sbci	r31, 0xC5	; 197
    17b8:	10 82       	st	Z, r1
            break;
    17ba:	d0 c0       	rjmp	.+416    	; 0x195c <GenerateBlinks+0x2e4>

        //'flashing red eyes',       # 1 can be used when a bad answer is given
        case 1:
            SetBothEyes((LedCount & 1 ? dimValue : 0),0);
    17bc:	89 2f       	mov	r24, r25
    17be:	81 70       	andi	r24, 0x01	; 1
    17c0:	90 fd       	sbrc	r25, 0
    17c2:	80 91 0c 38 	lds	r24, 0x380C	; 0x80380c <dimValue>
    17c6:	60 e0       	ldi	r22, 0x00	; 0
    17c8:	0d c0       	rjmp	.+26     	; 0x17e4 <GenerateBlinks+0x16c>
    17ca:	69 2f       	mov	r22, r25
    17cc:	70 e0       	ldi	r23, 0x00	; 0
            break;

        //'flashing green eyes',     # 2 can be used when a good answer is given
        case 2:
            SetBothEyes(0, 0x1f + (((LedCount & 0x08) ? ((LedCount&0x07)^0x07) : (LedCount&0x07))<<5));
    17ce:	93 ff       	sbrs	r25, 3
    17d0:	02 c0       	rjmp	.+4      	; 0x17d6 <GenerateBlinks+0x15e>
    17d2:	60 95       	com	r22
    17d4:	70 95       	com	r23
    17d6:	95 e0       	ldi	r25, 0x05	; 5
    17d8:	66 0f       	add	r22, r22
    17da:	77 1f       	adc	r23, r23
    17dc:	9a 95       	dec	r25
    17de:	e1 f7       	brne	.-8      	; 0x17d8 <GenerateBlinks+0x160>
    17e0:	61 5e       	subi	r22, 0xE1	; 225
    17e2:	80 e0       	ldi	r24, 0x00	; 0
        // No LED action, game will do it's own LED magic
        case 31:
        default:
            break;
    }
}
    17e4:	df 91       	pop	r29
    17e6:	cf 91       	pop	r28
    17e8:	1f 91       	pop	r17
    17ea:	0f 91       	pop	r16
    17ec:	ff 90       	pop	r15
    17ee:	ef 90       	pop	r14
    17f0:	df 90       	pop	r13
            SetBothEyes((LedCount & 1 ? dimValue : 0),0);
            break;

        //'flashing green eyes',     # 2 can be used when a good answer is given
        case 2:
            SetBothEyes(0, 0x1f + (((LedCount & 0x08) ? ((LedCount&0x07)^0x07) : (LedCount&0x07))<<5));
    17f2:	cf 90       	pop	r12
    17f4:	0e cf       	rjmp	.-484    	; 0x1612 <SetBothEyes>
            break;

        //'flash both wings'
        case 5:
            if ((LedCount & 3) == 0) {
    17f6:	89 2f       	mov	r24, r25
    17f8:	83 70       	andi	r24, 0x03	; 3
    17fa:	09 f0       	breq	.+2      	; 0x17fe <GenerateBlinks+0x186>
    17fc:	af c0       	rjmp	.+350    	; 0x195c <GenerateBlinks+0x2e4>
                if (LedCount & 4)
    17fe:	92 ff       	sbrs	r25, 2
    1800:	03 c0       	rjmp	.+6      	; 0x1808 <GenerateBlinks+0x190>
                    WingBar(5,5);
    1802:	65 e0       	ldi	r22, 0x05	; 5
    1804:	85 e0       	ldi	r24, 0x05	; 5
    1806:	02 c0       	rjmp	.+4      	; 0x180c <GenerateBlinks+0x194>
                else
                    WingBar(0,0);
    1808:	60 e0       	ldi	r22, 0x00	; 0
    180a:	80 e0       	ldi	r24, 0x00	; 0
        // No LED action, game will do it's own LED magic
        case 31:
        default:
            break;
    }
}
    180c:	df 91       	pop	r29
    180e:	cf 91       	pop	r28
    1810:	1f 91       	pop	r17
    1812:	0f 91       	pop	r16
    1814:	ff 90       	pop	r15
    1816:	ef 90       	pop	r14
    1818:	df 90       	pop	r13
        case 5:
            if ((LedCount & 3) == 0) {
                if (LedCount & 4)
                    WingBar(5,5);
                else
                    WingBar(0,0);
    181a:	cf 90       	pop	r12
    181c:	d8 ce       	rjmp	.-592    	; 0x15ce <WingBar>
            }
            break;

        //'circle the wing leds'
        case 6:
            if (LedCount > 4) LedCount = 0;
    181e:	95 30       	cpi	r25, 0x05	; 5
    1820:	10 f0       	brcs	.+4      	; 0x1826 <GenerateBlinks+0x1ae>
    1822:	10 92 5c 38 	sts	0x385C, r1	; 0x80385c <LedCount>
            iLED[WING[L][LedCount]] = 0;
    1826:	40 91 5c 38 	lds	r20, 0x385C	; 0x80385c <LedCount>
    182a:	24 2f       	mov	r18, r20
    182c:	30 e0       	ldi	r19, 0x00	; 0
    182e:	f9 01       	movw	r30, r18
    1830:	e2 5d       	subi	r30, 0xD2	; 210
    1832:	f0 44       	sbci	r31, 0x40	; 64
    1834:	e5 81       	ldd	r30, Z+5	; 0x05
    1836:	f0 e0       	ldi	r31, 0x00	; 0
    1838:	eb 53       	subi	r30, 0x3B	; 59
    183a:	f5 4c       	sbci	r31, 0xC5	; 197
    183c:	10 82       	st	Z, r1
            iLED[WING[L][LedCount == 4 ? 0 : LedCount+1]] = dimValue;
    183e:	44 30       	cpi	r20, 0x04	; 4
    1840:	19 f0       	breq	.+6      	; 0x1848 <GenerateBlinks+0x1d0>
    1842:	c9 01       	movw	r24, r18
    1844:	01 96       	adiw	r24, 0x01	; 1
    1846:	02 c0       	rjmp	.+4      	; 0x184c <GenerateBlinks+0x1d4>
    1848:	80 e0       	ldi	r24, 0x00	; 0
    184a:	90 e0       	ldi	r25, 0x00	; 0
    184c:	fc 01       	movw	r30, r24
    184e:	e2 5d       	subi	r30, 0xD2	; 210
    1850:	f0 44       	sbci	r31, 0x40	; 64
    1852:	e5 81       	ldd	r30, Z+5	; 0x05
    1854:	f0 e0       	ldi	r31, 0x00	; 0
    1856:	80 91 0c 38 	lds	r24, 0x380C	; 0x80380c <dimValue>
    185a:	eb 53       	subi	r30, 0x3B	; 59
    185c:	f5 4c       	sbci	r31, 0xC5	; 197
    185e:	80 83       	st	Z, r24
            iLED[WING[R][4-LedCount]] = 0;
    1860:	e2 e3       	ldi	r30, 0x32	; 50
    1862:	ff eb       	ldi	r31, 0xBF	; 191
    1864:	e2 1b       	sub	r30, r18
    1866:	f3 0b       	sbc	r31, r19
    1868:	e0 81       	ld	r30, Z
    186a:	f0 e0       	ldi	r31, 0x00	; 0
    186c:	eb 53       	subi	r30, 0x3B	; 59
    186e:	f5 4c       	sbci	r31, 0xC5	; 197
    1870:	10 82       	st	Z, r1
            iLED[WING[R][LedCount == 4 ? 4 : 3-LedCount]] = dimValue;
    1872:	44 30       	cpi	r20, 0x04	; 4
    1874:	29 f0       	breq	.+10     	; 0x1880 <GenerateBlinks+0x208>
    1876:	83 e0       	ldi	r24, 0x03	; 3
    1878:	90 e0       	ldi	r25, 0x00	; 0
    187a:	82 1b       	sub	r24, r18
    187c:	93 0b       	sbc	r25, r19
    187e:	02 c0       	rjmp	.+4      	; 0x1884 <GenerateBlinks+0x20c>
    1880:	84 e0       	ldi	r24, 0x04	; 4
    1882:	90 e0       	ldi	r25, 0x00	; 0
    1884:	fc 01       	movw	r30, r24
    1886:	e2 5d       	subi	r30, 0xD2	; 210
    1888:	f0 44       	sbci	r31, 0x40	; 64
    188a:	e0 81       	ld	r30, Z
    188c:	f0 e0       	ldi	r31, 0x00	; 0
    188e:	80 91 0c 38 	lds	r24, 0x380C	; 0x80380c <dimValue>
    1892:	eb 53       	subi	r30, 0x3B	; 59
    1894:	f5 4c       	sbci	r31, 0xC5	; 197
    1896:	80 83       	st	Z, r24
            break;
    1898:	61 c0       	rjmp	.+194    	; 0x195c <GenerateBlinks+0x2e4>
    189a:	ce e2       	ldi	r28, 0x2E	; 46
    189c:	df eb       	ldi	r29, 0xBF	; 191
    189e:	83 e3       	ldi	r24, 0x33	; 51
    18a0:	e8 2e       	mov	r14, r24
    18a2:	8f eb       	ldi	r24, 0xBF	; 191
    18a4:	f8 2e       	mov	r15, r24

        //'random wing leds'
        case 7:
            for (uint8_t x=0; x<5; ++x){
                iLED[WING[L][x]] = (lfsr() > 127)?dimValue:0;
    18a6:	6e 01       	movw	r12, r28
    18a8:	0d 81       	ldd	r16, Y+5	; 0x05
    18aa:	10 e0       	ldi	r17, 0x00	; 0
    18ac:	96 dc       	rcall	.-1748   	; 0x11da <lfsr>
    18ae:	87 ff       	sbrs	r24, 7
    18b0:	03 c0       	rjmp	.+6      	; 0x18b8 <GenerateBlinks+0x240>
    18b2:	80 91 0c 38 	lds	r24, 0x380C	; 0x80380c <dimValue>
    18b6:	01 c0       	rjmp	.+2      	; 0x18ba <GenerateBlinks+0x242>
    18b8:	80 e0       	ldi	r24, 0x00	; 0
    18ba:	f8 01       	movw	r30, r16
    18bc:	eb 53       	subi	r30, 0x3B	; 59
    18be:	f5 4c       	sbci	r31, 0xC5	; 197
    18c0:	80 83       	st	Z, r24
                iLED[WING[R][x]] = (lfsr() > 127)?dimValue:0;
    18c2:	21 96       	adiw	r28, 0x01	; 1
    18c4:	f6 01       	movw	r30, r12
    18c6:	00 81       	ld	r16, Z
    18c8:	10 e0       	ldi	r17, 0x00	; 0
    18ca:	87 dc       	rcall	.-1778   	; 0x11da <lfsr>
    18cc:	87 ff       	sbrs	r24, 7
    18ce:	03 c0       	rjmp	.+6      	; 0x18d6 <GenerateBlinks+0x25e>
    18d0:	80 91 0c 38 	lds	r24, 0x380C	; 0x80380c <dimValue>
    18d4:	01 c0       	rjmp	.+2      	; 0x18d8 <GenerateBlinks+0x260>
    18d6:	80 e0       	ldi	r24, 0x00	; 0
    18d8:	f8 01       	movw	r30, r16
    18da:	eb 53       	subi	r30, 0x3B	; 59
    18dc:	f5 4c       	sbci	r31, 0xC5	; 197
    18de:	80 83       	st	Z, r24
            iLED[WING[R][LedCount == 4 ? 4 : 3-LedCount]] = dimValue;
            break;

        //'random wing leds'
        case 7:
            for (uint8_t x=0; x<5; ++x){
    18e0:	ec 16       	cp	r14, r28
    18e2:	fd 06       	cpc	r15, r29
    18e4:	01 f7       	brne	.-64     	; 0x18a6 <GenerateBlinks+0x22e>
    18e6:	3a c0       	rjmp	.+116    	; 0x195c <GenerateBlinks+0x2e4>
            }
            break;

        //'falling rain'
        case 8:
            if ((LedCount & 1) == 0) {
    18e8:	90 fd       	sbrc	r25, 0
    18ea:	38 c0       	rjmp	.+112    	; 0x195c <GenerateBlinks+0x2e4>
    18ec:	ee e2       	ldi	r30, 0x2E	; 46
    18ee:	ff eb       	ldi	r31, 0xBF	; 191
    18f0:	82 e3       	ldi	r24, 0x32	; 50
    18f2:	9f eb       	ldi	r25, 0xBF	; 191
    18f4:	9f 01       	movw	r18, r30
                for (uint8_t x=0; x<4; ++x){
                    iLED[WING[L][x]] = iLED[WING[L][x+1]];
    18f6:	a5 81       	ldd	r26, Z+5	; 0x05
    18f8:	b0 e0       	ldi	r27, 0x00	; 0
    18fa:	c6 81       	ldd	r28, Z+6	; 0x06
    18fc:	d0 e0       	ldi	r29, 0x00	; 0
    18fe:	cb 53       	subi	r28, 0x3B	; 59
    1900:	d5 4c       	sbci	r29, 0xC5	; 197
    1902:	48 81       	ld	r20, Y
    1904:	ab 53       	subi	r26, 0x3B	; 59
    1906:	b5 4c       	sbci	r27, 0xC5	; 197
    1908:	4c 93       	st	X, r20
    190a:	31 96       	adiw	r30, 0x01	; 1
                    iLED[WING[R][x]] = iLED[WING[R][x+1]];
    190c:	e9 01       	movw	r28, r18
    190e:	a8 81       	ld	r26, Y
    1910:	b0 e0       	ldi	r27, 0x00	; 0
    1912:	c0 81       	ld	r28, Z
    1914:	d0 e0       	ldi	r29, 0x00	; 0
    1916:	cb 53       	subi	r28, 0x3B	; 59
    1918:	d5 4c       	sbci	r29, 0xC5	; 197
    191a:	28 81       	ld	r18, Y
    191c:	ab 53       	subi	r26, 0x3B	; 59
    191e:	b5 4c       	sbci	r27, 0xC5	; 197
            break;

        //'falling rain'
        case 8:
            if ((LedCount & 1) == 0) {
                for (uint8_t x=0; x<4; ++x){
    1920:	2c 93       	st	X, r18
    1922:	8e 17       	cp	r24, r30
    1924:	9f 07       	cpc	r25, r31
                    iLED[WING[L][x]] = iLED[WING[L][x+1]];
                    iLED[WING[R][x]] = iLED[WING[R][x+1]];
                }
                iLED[WING[L][4]] = (lfsr() > 224)?dimValue:0;
    1926:	31 f7       	brne	.-52     	; 0x18f4 <GenerateBlinks+0x27c>
    1928:	c0 91 37 bf 	lds	r28, 0xBF37	; 0x80bf37 <__bss_end+0x8423>
    192c:	d0 e0       	ldi	r29, 0x00	; 0
    192e:	55 dc       	rcall	.-1878   	; 0x11da <lfsr>
    1930:	81 3e       	cpi	r24, 0xE1	; 225
    1932:	18 f0       	brcs	.+6      	; 0x193a <GenerateBlinks+0x2c2>
    1934:	80 91 0c 38 	lds	r24, 0x380C	; 0x80380c <dimValue>
    1938:	01 c0       	rjmp	.+2      	; 0x193c <GenerateBlinks+0x2c4>
    193a:	80 e0       	ldi	r24, 0x00	; 0
    193c:	cb 53       	subi	r28, 0x3B	; 59
    193e:	d5 4c       	sbci	r29, 0xC5	; 197
                iLED[WING[R][4]] = (lfsr() > 224)?dimValue:0;
    1940:	88 83       	st	Y, r24
    1942:	c0 91 32 bf 	lds	r28, 0xBF32	; 0x80bf32 <__bss_end+0x841e>
    1946:	d0 e0       	ldi	r29, 0x00	; 0
    1948:	48 dc       	rcall	.-1904   	; 0x11da <lfsr>
    194a:	81 3e       	cpi	r24, 0xE1	; 225
    194c:	18 f0       	brcs	.+6      	; 0x1954 <GenerateBlinks+0x2dc>
    194e:	80 91 0c 38 	lds	r24, 0x380C	; 0x80380c <dimValue>
    1952:	01 c0       	rjmp	.+2      	; 0x1956 <GenerateBlinks+0x2de>
    1954:	80 e0       	ldi	r24, 0x00	; 0
    1956:	cb 53       	subi	r28, 0x3B	; 59
    1958:	d5 4c       	sbci	r29, 0xC5	; 197
    195a:	88 83       	st	Y, r24
        // No LED action, game will do it's own LED magic
        case 31:
        default:
            break;
    }
}
    195c:	df 91       	pop	r29
    195e:	cf 91       	pop	r28
    1960:	1f 91       	pop	r17
    1962:	0f 91       	pop	r16
    1964:	ff 90       	pop	r15
    1966:	ef 90       	pop	r14
    1968:	df 90       	pop	r13
    196a:	cf 90       	pop	r12
    196c:	08 95       	ret

0000196e <GenerateAudio>:


uint8_t GenerateAudio(){
    196e:	0f 93       	push	r16
    1970:	1f 93       	push	r17
    1972:	cf 93       	push	r28

    if (auIn < HPLVL) {
    1974:	80 91 c4 3a 	lds	r24, 0x3AC4	; 0x803ac4 <auIn>
    1978:	89 31       	cpi	r24, 0x19	; 25
    197a:	08 f0       	brcs	.+2      	; 0x197e <GenerateAudio+0x10>
    197c:	5f c1       	rjmp	.+702    	; 0x1c3c <GenerateAudio+0x2ce>

        detHdPh = 1;
    197e:	c1 e0       	ldi	r28, 0x01	; 1
    1980:	c0 93 c1 3a 	sts	0x3AC1, r28	; 0x803ac1 <detHdPh>

        //Audio for text adventure
        if ((effect&0xff00)==0) {
    1984:	80 91 3c 38 	lds	r24, 0x383C	; 0x80383c <effect>
    1988:	90 91 3d 38 	lds	r25, 0x383D	; 0x80383d <effect+0x1>
    198c:	88 27       	eor	r24, r24
    198e:	89 2b       	or	r24, r25
    1990:	09 f0       	breq	.+2      	; 0x1994 <GenerateAudio+0x26>
    1992:	fe c0       	rjmp	.+508    	; 0x1b90 <GenerateAudio+0x222>

            //Silence
            if ((effect&0xE0)==0){
    1994:	80 91 3c 38 	lds	r24, 0x383C	; 0x80383c <effect>
    1998:	90 91 3d 38 	lds	r25, 0x383D	; 0x80383d <effect+0x1>
    199c:	80 7e       	andi	r24, 0xE0	; 224
    199e:	99 27       	eor	r25, r25
    19a0:	89 2b       	or	r24, r25
    19a2:	31 f4       	brne	.+12     	; 0x19b0 <GenerateAudio+0x42>
                auRepAddr = &zero;
    19a4:	8b e3       	ldi	r24, 0x3B	; 59
    19a6:	98 e3       	ldi	r25, 0x38	; 56
    19a8:	80 93 03 38 	sts	0x3803, r24	; 0x803803 <auRepAddr>
    19ac:	90 93 04 38 	sts	0x3804, r25	; 0x803804 <auRepAddr+0x1>
            }

            //Bad (buzzer)
            if ((effect&0xE0)==32){
    19b0:	80 91 3c 38 	lds	r24, 0x383C	; 0x80383c <effect>
    19b4:	90 91 3d 38 	lds	r25, 0x383D	; 0x80383d <effect+0x1>
    19b8:	80 7e       	andi	r24, 0xE0	; 224
    19ba:	99 27       	eor	r25, r25
    19bc:	80 97       	sbiw	r24, 0x20	; 32
    19be:	09 f0       	breq	.+2      	; 0x19c2 <GenerateAudio+0x54>
    19c0:	51 c0       	rjmp	.+162    	; 0x1a64 <GenerateAudio+0xf6>
                static uint8_t auBuffer[17] = {1, 255, 128, 128, 192, 255, 64, 255, 192, 128, 64, 1, 192, 1, 64, 128, 0}; 
                static uint8_t loudness, duration, start;
                floatSpeed(1, 0x2000, 0x2200);
    19c2:	40 e0       	ldi	r20, 0x00	; 0
    19c4:	52 e2       	ldi	r21, 0x22	; 34
    19c6:	60 e0       	ldi	r22, 0x00	; 0
    19c8:	70 e2       	ldi	r23, 0x20	; 32
    19ca:	81 e0       	ldi	r24, 0x01	; 1
    19cc:	25 dc       	rcall	.-1974   	; 0x1218 <floatSpeed>
                auBuffer[2] = floatAround(0x80, 5, 0x01, 0x00);
    19ce:	20 e0       	ldi	r18, 0x00	; 0
    19d0:	41 e0       	ldi	r20, 0x01	; 1
    19d2:	65 e0       	ldi	r22, 0x05	; 5
    19d4:	80 e8       	ldi	r24, 0x80	; 128
    19d6:	52 dc       	rcall	.-1884   	; 0x127c <floatAround>
    19d8:	80 93 16 38 	sts	0x3816, r24	; 0x803816 <auBuffer.4018+0x2>
                        auVolume = 0xff;
                        start = 0;
                    }
                }*/

                auRepAddr = &auBuffer[0];
    19dc:	84 e1       	ldi	r24, 0x14	; 20
    19de:	98 e3       	ldi	r25, 0x38	; 56
    19e0:	80 93 03 38 	sts	0x3803, r24	; 0x803803 <auRepAddr>
    19e4:	90 93 04 38 	sts	0x3804, r25	; 0x803804 <auRepAddr+0x1>
                if (buttonMark){
    19e8:	80 91 44 38 	lds	r24, 0x3844	; 0x803844 <buttonMark>
    19ec:	88 23       	and	r24, r24
    19ee:	d1 f1       	breq	.+116    	; 0x1a64 <GenerateAudio+0xf6>
                    if (start == 0) {
    19f0:	80 91 5a 38 	lds	r24, 0x385A	; 0x80385a <start.4021>
    19f4:	81 11       	cpse	r24, r1
    19f6:	0f c0       	rjmp	.+30     	; 0x1a16 <GenerateAudio+0xa8>
                        duration = 4;
    19f8:	84 e0       	ldi	r24, 0x04	; 4
    19fa:	80 93 59 38 	sts	0x3859, r24	; 0x803859 <duration.4020>
                        auVolume = 255;
    19fe:	8f ef       	ldi	r24, 0xFF	; 255
    1a00:	80 93 b8 3a 	sts	0x3AB8, r24	; 0x803ab8 <auVolume>
                        TCB1_CCMP = 0x2000;
    1a04:	80 e0       	ldi	r24, 0x00	; 0
    1a06:	90 e2       	ldi	r25, 0x20	; 32
    1a08:	80 93 5c 0a 	sts	0x0A5C, r24	; 0x800a5c <__TEXT_REGION_LENGTH__+0x700a5c>
    1a0c:	90 93 5d 0a 	sts	0x0A5D, r25	; 0x800a5d <__TEXT_REGION_LENGTH__+0x700a5d>
                        start = 1;
    1a10:	81 e0       	ldi	r24, 0x01	; 1
    1a12:	80 93 5a 38 	sts	0x385A, r24	; 0x80385a <start.4021>
                    }
                    
                    TCB1_CCMP -= (0x080<<(effect>64)?2:0);
    1a16:	80 91 3c 38 	lds	r24, 0x383C	; 0x80383c <effect>
    1a1a:	90 91 3d 38 	lds	r25, 0x383D	; 0x80383d <effect+0x1>
    1a1e:	80 91 5c 0a 	lds	r24, 0x0A5C	; 0x800a5c <__TEXT_REGION_LENGTH__+0x700a5c>
    1a22:	90 91 5d 0a 	lds	r25, 0x0A5D	; 0x800a5d <__TEXT_REGION_LENGTH__+0x700a5d>
    1a26:	02 97       	sbiw	r24, 0x02	; 2
    1a28:	80 93 5c 0a 	sts	0x0A5C, r24	; 0x800a5c <__TEXT_REGION_LENGTH__+0x700a5c>
    1a2c:	90 93 5d 0a 	sts	0x0A5D, r25	; 0x800a5d <__TEXT_REGION_LENGTH__+0x700a5d>
                    if ((auVolume)&&(duration == 0)) auVolume -=32; else
    1a30:	80 91 b8 3a 	lds	r24, 0x3AB8	; 0x803ab8 <auVolume>
    1a34:	88 23       	and	r24, r24
    1a36:	51 f0       	breq	.+20     	; 0x1a4c <GenerateAudio+0xde>
    1a38:	80 91 59 38 	lds	r24, 0x3859	; 0x803859 <duration.4020>
    1a3c:	81 11       	cpse	r24, r1
    1a3e:	06 c0       	rjmp	.+12     	; 0x1a4c <GenerateAudio+0xde>
    1a40:	80 91 b8 3a 	lds	r24, 0x3AB8	; 0x803ab8 <auVolume>
    1a44:	80 52       	subi	r24, 0x20	; 32
    1a46:	80 93 b8 3a 	sts	0x3AB8, r24	; 0x803ab8 <auVolume>
    1a4a:	0c c0       	rjmp	.+24     	; 0x1a64 <GenerateAudio+0xf6>
                    {
                        start = 0;
    1a4c:	10 92 5a 38 	sts	0x385A, r1	; 0x80385a <start.4021>
                        auRepAddr = &zero;
    1a50:	8b e3       	ldi	r24, 0x3B	; 59
    1a52:	98 e3       	ldi	r25, 0x38	; 56
    1a54:	80 93 03 38 	sts	0x3803, r24	; 0x803803 <auRepAddr>
    1a58:	90 93 04 38 	sts	0x3804, r25	; 0x803804 <auRepAddr+0x1>
                        effect = 0;
    1a5c:	10 92 3c 38 	sts	0x383C, r1	; 0x80383c <effect>
    1a60:	10 92 3d 38 	sts	0x383D, r1	; 0x80383d <effect+0x1>
                    //F
                }
            }

            //Good (bell)
            if (((effect&0xE0)==64)||((effect&0xE0)==160)){
    1a64:	80 91 3c 38 	lds	r24, 0x383C	; 0x80383c <effect>
    1a68:	90 91 3d 38 	lds	r25, 0x383D	; 0x80383d <effect+0x1>
    1a6c:	80 7e       	andi	r24, 0xE0	; 224
    1a6e:	99 27       	eor	r25, r25
    1a70:	80 34       	cpi	r24, 0x40	; 64
    1a72:	91 05       	cpc	r25, r1
    1a74:	49 f0       	breq	.+18     	; 0x1a88 <GenerateAudio+0x11a>
    1a76:	80 91 3c 38 	lds	r24, 0x383C	; 0x80383c <effect>
    1a7a:	90 91 3d 38 	lds	r25, 0x383D	; 0x80383d <effect+0x1>
    1a7e:	80 7e       	andi	r24, 0xE0	; 224
    1a80:	99 27       	eor	r25, r25
    1a82:	80 3a       	cpi	r24, 0xA0	; 160
    1a84:	91 05       	cpc	r25, r1
    1a86:	e9 f5       	brne	.+122    	; 0x1b02 <GenerateAudio+0x194>
                static uint8_t start, auBuffer[3] = {255, 1, 0};
                
                auRepAddr = &auBuffer[0];
    1a88:	81 e1       	ldi	r24, 0x11	; 17
    1a8a:	98 e3       	ldi	r25, 0x38	; 56
    1a8c:	80 93 03 38 	sts	0x3803, r24	; 0x803803 <auRepAddr>
    1a90:	90 93 04 38 	sts	0x3804, r25	; 0x803804 <auRepAddr+0x1>
                if (buttonMark){
    1a94:	80 91 44 38 	lds	r24, 0x3844	; 0x803844 <buttonMark>
    1a98:	88 23       	and	r24, r24
    1a9a:	99 f1       	breq	.+102    	; 0x1b02 <GenerateAudio+0x194>
                    if (start == 0) {
    1a9c:	80 91 58 38 	lds	r24, 0x3858	; 0x803858 <start.4022>
    1aa0:	81 11       	cpse	r24, r1
    1aa2:	0c c0       	rjmp	.+24     	; 0x1abc <GenerateAudio+0x14e>
                        auVolume = 255;
    1aa4:	8f ef       	ldi	r24, 0xFF	; 255
    1aa6:	80 93 b8 3a 	sts	0x3AB8, r24	; 0x803ab8 <auVolume>
                        TCB1_CCMP = 0x0a00;
    1aaa:	80 e0       	ldi	r24, 0x00	; 0
    1aac:	9a e0       	ldi	r25, 0x0A	; 10
    1aae:	80 93 5c 0a 	sts	0x0A5C, r24	; 0x800a5c <__TEXT_REGION_LENGTH__+0x700a5c>
    1ab2:	90 93 5d 0a 	sts	0x0A5D, r25	; 0x800a5d <__TEXT_REGION_LENGTH__+0x700a5d>
                        start = 1;
    1ab6:	81 e0       	ldi	r24, 0x01	; 1
    1ab8:	80 93 58 38 	sts	0x3858, r24	; 0x803858 <start.4022>
                    }
                     
                    TCB1_CCMP -= (0x080<<(effect>64)?2:0);                    
    1abc:	80 91 3c 38 	lds	r24, 0x383C	; 0x80383c <effect>
    1ac0:	90 91 3d 38 	lds	r25, 0x383D	; 0x80383d <effect+0x1>
    1ac4:	80 91 5c 0a 	lds	r24, 0x0A5C	; 0x800a5c <__TEXT_REGION_LENGTH__+0x700a5c>
    1ac8:	90 91 5d 0a 	lds	r25, 0x0A5D	; 0x800a5d <__TEXT_REGION_LENGTH__+0x700a5d>
    1acc:	02 97       	sbiw	r24, 0x02	; 2
    1ace:	80 93 5c 0a 	sts	0x0A5C, r24	; 0x800a5c <__TEXT_REGION_LENGTH__+0x700a5c>
    1ad2:	90 93 5d 0a 	sts	0x0A5D, r25	; 0x800a5d <__TEXT_REGION_LENGTH__+0x700a5d>
                    if (auVolume > 32) auVolume -=32; else 
    1ad6:	80 91 b8 3a 	lds	r24, 0x3AB8	; 0x803ab8 <auVolume>
    1ada:	81 32       	cpi	r24, 0x21	; 33
    1adc:	30 f0       	brcs	.+12     	; 0x1aea <GenerateAudio+0x17c>
    1ade:	80 91 b8 3a 	lds	r24, 0x3AB8	; 0x803ab8 <auVolume>
    1ae2:	80 52       	subi	r24, 0x20	; 32
    1ae4:	80 93 b8 3a 	sts	0x3AB8, r24	; 0x803ab8 <auVolume>
    1ae8:	0c c0       	rjmp	.+24     	; 0x1b02 <GenerateAudio+0x194>
                    {
                        start = 0;
    1aea:	10 92 58 38 	sts	0x3858, r1	; 0x803858 <start.4022>
                        auRepAddr = &zero;
    1aee:	8b e3       	ldi	r24, 0x3B	; 59
    1af0:	98 e3       	ldi	r25, 0x38	; 56
    1af2:	80 93 03 38 	sts	0x3803, r24	; 0x803803 <auRepAddr>
    1af6:	90 93 04 38 	sts	0x3804, r25	; 0x803804 <auRepAddr+0x1>
                        effect = 0;
    1afa:	10 92 3c 38 	sts	0x383C, r1	; 0x80383c <effect>
    1afe:	10 92 3d 38 	sts	0x383D, r1	; 0x80383d <effect+0x1>
                    }
                }
            }

            //Rain storm with whistling wind
            if ((effect&0xE0)==96){
    1b02:	80 91 3c 38 	lds	r24, 0x383C	; 0x80383c <effect>
    1b06:	90 91 3d 38 	lds	r25, 0x383D	; 0x80383d <effect+0x1>
    1b0a:	80 7e       	andi	r24, 0xE0	; 224
    1b0c:	99 27       	eor	r25, r25
    1b0e:	80 36       	cpi	r24, 0x60	; 96
    1b10:	91 05       	cpc	r25, r1
    1b12:	a9 f5       	brne	.+106    	; 0x1b7e <GenerateAudio+0x210>
                static uint8_t auBuffer[7];
                auBuffer[6]= 0;        
    1b14:	10 92 57 38 	sts	0x3857, r1	; 0x803857 <auBuffer.4024+0x6>
                auRepAddr = &auBuffer[0];
    1b18:	81 e5       	ldi	r24, 0x51	; 81
    1b1a:	98 e3       	ldi	r25, 0x38	; 56
    1b1c:	80 93 03 38 	sts	0x3803, r24	; 0x803803 <auRepAddr>
    1b20:	90 93 04 38 	sts	0x3804, r25	; 0x803804 <auRepAddr+0x1>
    1b24:	8c 01       	movw	r16, r24

                //Noise is to be generated fast, outside of buttonMark loop
                for (uint8_t x=1; x<6; ++x){
    1b26:	c1 e0       	ldi	r28, 0x01	; 1
                    if ((x>0) && (x!=3)) auBuffer[x] = floatAround(0x80, 5, 0x01, 0x00);
    1b28:	c3 30       	cpi	r28, 0x03	; 3
    1b2a:	39 f0       	breq	.+14     	; 0x1b3a <GenerateAudio+0x1cc>
    1b2c:	20 e0       	ldi	r18, 0x00	; 0
    1b2e:	41 e0       	ldi	r20, 0x01	; 1
    1b30:	65 e0       	ldi	r22, 0x05	; 5
    1b32:	80 e8       	ldi	r24, 0x80	; 128
    1b34:	a3 db       	rcall	.-2234   	; 0x127c <floatAround>
    1b36:	f8 01       	movw	r30, r16
    1b38:	81 83       	std	Z+1, r24	; 0x01
                static uint8_t auBuffer[7];
                auBuffer[6]= 0;        
                auRepAddr = &auBuffer[0];

                //Noise is to be generated fast, outside of buttonMark loop
                for (uint8_t x=1; x<6; ++x){
    1b3a:	cf 5f       	subi	r28, 0xFF	; 255
    1b3c:	0f 5f       	subi	r16, 0xFF	; 255
    1b3e:	1f 4f       	sbci	r17, 0xFF	; 255
    1b40:	c6 30       	cpi	r28, 0x06	; 6
    1b42:	91 f7       	brne	.-28     	; 0x1b28 <GenerateAudio+0x1ba>
                    if ((x>0) && (x!=3)) auBuffer[x] = floatAround(0x80, 5, 0x01, 0x00);
                }

                if (buttonMark){
    1b44:	80 91 44 38 	lds	r24, 0x3844	; 0x803844 <buttonMark>
    1b48:	88 23       	and	r24, r24
    1b4a:	c9 f0       	breq	.+50     	; 0x1b7e <GenerateAudio+0x210>
                    //"Floating" speed for howl (and noise, but that's hardly audible)
                    floatSpeed(5, 0x0280, 0x0400);
    1b4c:	40 e0       	ldi	r20, 0x00	; 0
    1b4e:	54 e0       	ldi	r21, 0x04	; 4
    1b50:	60 e8       	ldi	r22, 0x80	; 128
    1b52:	72 e0       	ldi	r23, 0x02	; 2
    1b54:	85 e0       	ldi	r24, 0x05	; 5
    1b56:	60 db       	rcall	.-2368   	; 0x1218 <floatSpeed>
            
                    //"Floating" volume and wind howl during 8 bit rainstorm needs some randomness
                    auVolume = floatAround(auVolume, 2, 0x10, 0xA0);
    1b58:	80 91 b8 3a 	lds	r24, 0x3AB8	; 0x803ab8 <auVolume>
    1b5c:	20 ea       	ldi	r18, 0xA0	; 160
    1b5e:	40 e1       	ldi	r20, 0x10	; 16
    1b60:	62 e0       	ldi	r22, 0x02	; 2
    1b62:	8c db       	rcall	.-2280   	; 0x127c <floatAround>
    1b64:	80 93 b8 3a 	sts	0x3AB8, r24	; 0x803ab8 <auVolume>
                    auBuffer[0] = floatAround(auBuffer[0], 2, 0x70, 0x90);
    1b68:	20 e9       	ldi	r18, 0x90	; 144
    1b6a:	40 e7       	ldi	r20, 0x70	; 112
    1b6c:	62 e0       	ldi	r22, 0x02	; 2
    1b6e:	80 91 51 38 	lds	r24, 0x3851	; 0x803851 <auBuffer.4024>
    1b72:	84 db       	rcall	.-2296   	; 0x127c <floatAround>
    1b74:	80 93 51 38 	sts	0x3851, r24	; 0x803851 <auBuffer.4024>
                    auBuffer[3] = 0xFF-auBuffer[0];  //Inverse value of wind[0] produces a whistle
    1b78:	80 95       	com	r24
    1b7a:	80 93 54 38 	sts	0x3854, r24	; 0x803854 <auBuffer.4024+0x3>
                }
            }

            //Footsteps
            if ((effect&0xE0)==128){
    1b7e:	80 91 3c 38 	lds	r24, 0x383C	; 0x80383c <effect>
    1b82:	90 91 3d 38 	lds	r25, 0x383D	; 0x80383d <effect+0x1>
                    if (auVolume) --auVolume;
                }
            }*/

            //
            if ((effect&0xE0)==192){
    1b86:	80 91 3c 38 	lds	r24, 0x383C	; 0x80383c <effect>
    1b8a:	90 91 3d 38 	lds	r25, 0x383D	; 0x80383d <effect+0x1>
    1b8e:	58 c0       	rjmp	.+176    	; 0x1c40 <GenerateAudio+0x2d2>
            }

            //
            else {
            }
        } else if ((effect&0xff00)==0x0100) {
    1b90:	80 91 3c 38 	lds	r24, 0x383C	; 0x80383c <effect>
    1b94:	90 91 3d 38 	lds	r25, 0x383D	; 0x80383d <effect+0x1>
    1b98:	88 27       	eor	r24, r24
    1b9a:	81 15       	cp	r24, r1
    1b9c:	91 40       	sbci	r25, 0x01	; 1
    1b9e:	09 f0       	breq	.+2      	; 0x1ba2 <GenerateAudio+0x234>
    1ba0:	4f c0       	rjmp	.+158    	; 0x1c40 <GenerateAudio+0x2d2>
            if ((effect&0xE0) <= 0x90) {
    1ba2:	80 91 3c 38 	lds	r24, 0x383C	; 0x80383c <effect>
    1ba6:	90 91 3d 38 	lds	r25, 0x383D	; 0x80383d <effect+0x1>
    1baa:	80 7e       	andi	r24, 0xE0	; 224
    1bac:	99 27       	eor	r25, r25
    1bae:	81 39       	cpi	r24, 0x91	; 145
    1bb0:	91 05       	cpc	r25, r1
    1bb2:	08 f0       	brcs	.+2      	; 0x1bb6 <GenerateAudio+0x248>
    1bb4:	45 c0       	rjmp	.+138    	; 0x1c40 <GenerateAudio+0x2d2>
                
                static uint8_t auBuffer[3] = {255, 1, 0};
                static uint8_t duration, start;
                uint16_t freq = ((effect&0xE0)+1)<<6;
    1bb6:	60 91 3c 38 	lds	r22, 0x383C	; 0x80383c <effect>
    1bba:	70 91 3d 38 	lds	r23, 0x383D	; 0x80383d <effect+0x1>
    1bbe:	60 7e       	andi	r22, 0xE0	; 224
    1bc0:	77 27       	eor	r23, r23
    1bc2:	6f 5f       	subi	r22, 0xFF	; 255
    1bc4:	7f 4f       	sbci	r23, 0xFF	; 255
    1bc6:	86 e0       	ldi	r24, 0x06	; 6
    1bc8:	66 0f       	add	r22, r22
    1bca:	77 1f       	adc	r23, r23
    1bcc:	8a 95       	dec	r24
                floatSpeed(1, freq+0x0200, freq+0x0300);
    1bce:	e1 f7       	brne	.-8      	; 0x1bc8 <GenerateAudio+0x25a>
    1bd0:	ab 01       	movw	r20, r22
    1bd2:	5d 5f       	subi	r21, 0xFD	; 253
    1bd4:	7e 5f       	subi	r23, 0xFE	; 254
    1bd6:	81 e0       	ldi	r24, 0x01	; 1
    1bd8:	1f db       	rcall	.-2498   	; 0x1218 <floatSpeed>
                //auBuffer[] = floatAround(0x80, 5, 0x01, 0x00);

                if (buttonMark) {
    1bda:	80 91 44 38 	lds	r24, 0x3844	; 0x803844 <buttonMark>
    1bde:	88 23       	and	r24, r24
    1be0:	79 f1       	breq	.+94     	; 0x1c40 <GenerateAudio+0x2d2>
                    if (start == 0) {
    1be2:	80 91 50 38 	lds	r24, 0x3850	; 0x803850 <start.4031>
    1be6:	81 11       	cpse	r24, r1
    1be8:	0e c0       	rjmp	.+28     	; 0x1c06 <GenerateAudio+0x298>
                        duration = 3;
    1bea:	83 e0       	ldi	r24, 0x03	; 3
    1bec:	80 93 4f 38 	sts	0x384F, r24	; 0x80384f <duration.4030>
                        auRepAddr = &auBuffer[0];
    1bf0:	8e e0       	ldi	r24, 0x0E	; 14
    1bf2:	98 e3       	ldi	r25, 0x38	; 56
    1bf4:	80 93 03 38 	sts	0x3803, r24	; 0x803803 <auRepAddr>
    1bf8:	90 93 04 38 	sts	0x3804, r25	; 0x803804 <auRepAddr+0x1>
                        auVolume = 255;
    1bfc:	8f ef       	ldi	r24, 0xFF	; 255
    1bfe:	80 93 b8 3a 	sts	0x3AB8, r24	; 0x803ab8 <auVolume>
                        start = 1;
    1c02:	c0 93 50 38 	sts	0x3850, r28	; 0x803850 <start.4031>
                    }   if (duration == 0) {
    1c06:	80 91 4f 38 	lds	r24, 0x384F	; 0x80384f <duration.4030>
    1c0a:	81 11       	cpse	r24, r1
    1c0c:	13 c0       	rjmp	.+38     	; 0x1c34 <GenerateAudio+0x2c6>
                        effect &= 0x1f;
    1c0e:	80 91 3c 38 	lds	r24, 0x383C	; 0x80383c <effect>
    1c12:	90 91 3d 38 	lds	r25, 0x383D	; 0x80383d <effect+0x1>
    1c16:	8f 71       	andi	r24, 0x1F	; 31
    1c18:	99 27       	eor	r25, r25
    1c1a:	80 93 3c 38 	sts	0x383C, r24	; 0x80383c <effect>
    1c1e:	90 93 3d 38 	sts	0x383D, r25	; 0x80383d <effect+0x1>
                        auRepAddr = &zero;
    1c22:	8b e3       	ldi	r24, 0x3B	; 59
    1c24:	98 e3       	ldi	r25, 0x38	; 56
    1c26:	80 93 03 38 	sts	0x3803, r24	; 0x803803 <auRepAddr>
    1c2a:	90 93 04 38 	sts	0x3804, r25	; 0x803804 <auRepAddr+0x1>
                        //auSmpAddr = &zero;
                        //auVolume = 0xff;
                        start = 0;
    1c2e:	10 92 50 38 	sts	0x3850, r1	; 0x803850 <start.4031>
    1c32:	06 c0       	rjmp	.+12     	; 0x1c40 <GenerateAudio+0x2d2>
                    } else duration--;
    1c34:	81 50       	subi	r24, 0x01	; 1
    1c36:	80 93 4f 38 	sts	0x384F, r24	; 0x80384f <duration.4030>
    1c3a:	02 c0       	rjmp	.+4      	; 0x1c40 <GenerateAudio+0x2d2>
                }
            }
        }
    } else {
        detHdPh = 0;
    1c3c:	10 92 c1 3a 	sts	0x3AC1, r1	; 0x803ac1 <detHdPh>
    }
    return buttonMark;
    1c40:	80 91 44 38 	lds	r24, 0x3844	; 0x803844 <buttonMark>
}
    1c44:	cf 91       	pop	r28
    1c46:	1f 91       	pop	r17
    1c48:	0f 91       	pop	r16
    1c4a:	08 95       	ret

00001c4c <getClock>:

uint16_t getClock() {
    return 60 * minuteMark + (RTC_CNT>>9);
    1c4c:	20 91 45 38 	lds	r18, 0x3845	; 0x803845 <minuteMark>
    1c50:	80 91 48 01 	lds	r24, 0x0148	; 0x800148 <__TEXT_REGION_LENGTH__+0x700148>
    1c54:	90 91 49 01 	lds	r25, 0x0149	; 0x800149 <__TEXT_REGION_LENGTH__+0x700149>
    1c58:	89 2f       	mov	r24, r25
    1c5a:	99 27       	eor	r25, r25
    1c5c:	86 95       	lsr	r24
}
    1c5e:	3c e3       	ldi	r19, 0x3C	; 60
    1c60:	23 9f       	mul	r18, r19
    1c62:	80 0d       	add	r24, r0
    1c64:	91 1d       	adc	r25, r1
    1c66:	11 24       	eor	r1, r1
    1c68:	08 95       	ret

00001c6a <idleTimeout>:

uint8_t idleTimeout(uint16_t lastActive, uint16_t maxIdle) {
    1c6a:	0f 93       	push	r16
    1c6c:	1f 93       	push	r17
    1c6e:	cf 93       	push	r28
    1c70:	df 93       	push	r29
    1c72:	8c 01       	movw	r16, r24
    1c74:	eb 01       	movw	r28, r22
    uint16_t curClock;

    curClock = getClock();
    1c76:	ea df       	rcall	.-44     	; 0x1c4c <getClock>
    1c78:	9c 01       	movw	r18, r24
    if (curClock < lastActive)
    1c7a:	80 17       	cp	r24, r16
    1c7c:	91 07       	cpc	r25, r17
    1c7e:	08 f4       	brcc	.+2      	; 0x1c82 <idleTimeout+0x18>
        curClock += 256 * 60;
    1c80:	34 5c       	subi	r19, 0xC4	; 196

    return (curClock > (lastActive + maxIdle));
    1c82:	c0 0f       	add	r28, r16
    1c84:	d1 1f       	adc	r29, r17
    1c86:	81 e0       	ldi	r24, 0x01	; 1
    1c88:	c2 17       	cp	r28, r18
    1c8a:	d3 07       	cpc	r29, r19
    1c8c:	08 f0       	brcs	.+2      	; 0x1c90 <idleTimeout+0x26>
    1c8e:	80 e0       	ldi	r24, 0x00	; 0
}
    1c90:	df 91       	pop	r29
    1c92:	cf 91       	pop	r28
    1c94:	1f 91       	pop	r17
    1c96:	0f 91       	pop	r16
    1c98:	08 95       	ret

00001c9a <SelfTest>:

uint8_t SelfTest(){
    1c9a:	1f 93       	push	r17
    1c9c:	cf 93       	push	r28
    1c9e:	df 93       	push	r29
    1ca0:	00 d0       	rcall	.+0      	; 0x1ca2 <SelfTest+0x8>
    1ca2:	00 d0       	rcall	.+0      	; 0x1ca4 <SelfTest+0xa>
    1ca4:	cd b7       	in	r28, 0x3d	; 61
    1ca6:	de b7       	in	r29, 0x3e	; 62
    uint8_t tstVal[4] = {0x01, 0};
    1ca8:	19 82       	std	Y+1, r1	; 0x01
    1caa:	1a 82       	std	Y+2, r1	; 0x02
    1cac:	1b 82       	std	Y+3, r1	; 0x03
    1cae:	1c 82       	std	Y+4, r1	; 0x04
    1cb0:	ac e3       	ldi	r26, 0x3C	; 60
    1cb2:	bf eb       	ldi	r27, 0xBF	; 191

    //Red HCKR all on 100%
    for (uint8_t x=0; x<6; ++x) {
        iLED[HCKR[R][x]] = 0xff;
    1cb4:	8f ef       	ldi	r24, 0xFF	; 255
    1cb6:	ed 91       	ld	r30, X+
    1cb8:	f0 e0       	ldi	r31, 0x00	; 0
    1cba:	eb 53       	subi	r30, 0x3B	; 59
    1cbc:	f5 4c       	sbci	r31, 0xC5	; 197
    1cbe:	80 83       	st	Z, r24

uint8_t SelfTest(){
    uint8_t tstVal[4] = {0x01, 0};

    //Red HCKR all on 100%
    for (uint8_t x=0; x<6; ++x) {
    1cc0:	2f eb       	ldi	r18, 0xBF	; 191
    1cc2:	a2 34       	cpi	r26, 0x42	; 66
    1cc4:	b2 07       	cpc	r27, r18
    1cc6:	b9 f7       	brne	.-18     	; 0x1cb6 <SelfTest+0x1c>
    iLED[HCKR[R][0]] = 0x00;
    iLED[HCKR[G][0]] = 0xff;
    auRepAddr = &zero;*/

    //Light sensor
    tstVal[0] = adcPhot&0xff;
    1cc8:	80 91 bf 3a 	lds	r24, 0x3ABF	; 0x803abf <adcPhot>
    1ccc:	90 91 c0 3a 	lds	r25, 0x3AC0	; 0x803ac0 <adcPhot+0x1>
    while (tstVal[0] == (adcPhot&0xff)) ;
    1cd0:	99 27       	eor	r25, r25
    1cd2:	20 91 bf 3a 	lds	r18, 0x3ABF	; 0x803abf <adcPhot>
    1cd6:	30 91 c0 3a 	lds	r19, 0x3AC0	; 0x803ac0 <adcPhot+0x1>
    1cda:	33 27       	eor	r19, r19
    1cdc:	28 17       	cp	r18, r24
    1cde:	39 07       	cpc	r19, r25
    1ce0:	c1 f3       	breq	.-16     	; 0x1cd2 <SelfTest+0x38>
    iLED[HCKR[R][1]] = 0x00;
    1ce2:	e0 91 3d bf 	lds	r30, 0xBF3D	; 0x80bf3d <__bss_end+0x8429>
    1ce6:	f0 e0       	ldi	r31, 0x00	; 0
    1ce8:	eb 53       	subi	r30, 0x3B	; 59
    1cea:	f5 4c       	sbci	r31, 0xC5	; 197
    1cec:	10 82       	st	Z, r1
    //iLED[HCKR[G][1]] = 0xff;

    //Magnet
    tstVal[0] = adcHall&0xff;
    1cee:	80 91 bd 3a 	lds	r24, 0x3ABD	; 0x803abd <adcHall>
    1cf2:	90 91 be 3a 	lds	r25, 0x3ABE	; 0x803abe <adcHall+0x1>
    1cf6:	89 83       	std	Y+1, r24	; 0x01
    while (tstVal[0] == (adcHall&0xff)) ;
    1cf8:	99 27       	eor	r25, r25
    1cfa:	20 91 bd 3a 	lds	r18, 0x3ABD	; 0x803abd <adcHall>
    1cfe:	30 91 be 3a 	lds	r19, 0x3ABE	; 0x803abe <adcHall+0x1>
    1d02:	33 27       	eor	r19, r19
    1d04:	28 17       	cp	r18, r24
    1d06:	39 07       	cpc	r19, r25
    1d08:	c1 f3       	breq	.-16     	; 0x1cfa <SelfTest+0x60>
    iLED[HCKR[R][2]] = 0x00;
    1d0a:	e0 91 3e bf 	lds	r30, 0xBF3E	; 0x80bf3e <__bss_end+0x842a>
    1d0e:	f0 e0       	ldi	r31, 0x00	; 0
    1d10:	eb 53       	subi	r30, 0x3B	; 59
    1d12:	f5 4c       	sbci	r31, 0xC5	; 197
    1d14:	10 82       	st	Z, r1
    while (tstVal[0] == (adcTemp&0xff)) ;
    iLED[HCKR[R][3]] = 0x00;*/
    //iLED[HCKR[G][3]] = 0xff;

    //Buttons (none pressed / shorted)
    while ((adcBtns>>4) < 200) ;
    1d16:	80 91 b9 3a 	lds	r24, 0x3AB9	; 0x803ab9 <adcBtns>
    1d1a:	90 91 ba 3a 	lds	r25, 0x3ABA	; 0x803aba <adcBtns+0x1>
    1d1e:	80 38       	cpi	r24, 0x80	; 128
    1d20:	9c 40       	sbci	r25, 0x0C	; 12
    1d22:	c8 f3       	brcs	.-14     	; 0x1d16 <SelfTest+0x7c>
    iLED[HCKR[R][4]] = 0x00;
    1d24:	e0 91 40 bf 	lds	r30, 0xBF40	; 0x80bf40 <__bss_end+0x842c>
    1d28:	f0 e0       	ldi	r31, 0x00	; 0
    1d2a:	eb 53       	subi	r30, 0x3B	; 59
    1d2c:	f5 4c       	sbci	r31, 0xC5	; 197
    1d2e:	10 82       	st	Z, r1
        0x3CCD              Level 6, open_acl=0
        0x3CCE              Level 6, action_acl=192
        0x3CCF              Level 6, action_mask=20
    */
    
    ExtEERead(0x3CCC, 4, 0, (uint8_t *)&tstVal[0]);
    1d30:	9e 01       	movw	r18, r28
    1d32:	2f 5f       	subi	r18, 0xFF	; 255
    1d34:	3f 4f       	sbci	r19, 0xFF	; 255
    1d36:	40 e0       	ldi	r20, 0x00	; 0
    1d38:	64 e0       	ldi	r22, 0x04	; 4
    1d3a:	8c ec       	ldi	r24, 0xCC	; 204
    1d3c:	9c e3       	ldi	r25, 0x3C	; 60
    1d3e:	ad d9       	rcall	.-3238   	; 0x109a <ExtEERead>
    if ((tstVal[0] != 63) || (tstVal[1] != 0) || (tstVal[2] != 192) || (tstVal[3] != 20)){
    1d40:	89 81       	ldd	r24, Y+1	; 0x01
    1d42:	8f 33       	cpi	r24, 0x3F	; 63
    1d44:	49 f4       	brne	.+18     	; 0x1d58 <SelfTest+0xbe>
    1d46:	8a 81       	ldd	r24, Y+2	; 0x02
    1d48:	81 11       	cpse	r24, r1
    1d4a:	06 c0       	rjmp	.+12     	; 0x1d58 <SelfTest+0xbe>
    1d4c:	8b 81       	ldd	r24, Y+3	; 0x03
    1d4e:	80 3c       	cpi	r24, 0xC0	; 192
    1d50:	19 f4       	brne	.+6      	; 0x1d58 <SelfTest+0xbe>
    1d52:	8c 81       	ldd	r24, Y+4	; 0x04
    1d54:	84 31       	cpi	r24, 0x14	; 20
    1d56:	09 f0       	breq	.+2      	; 0x1d5a <SelfTest+0xc0>
    1d58:	ff cf       	rjmp	.-2      	; 0x1d58 <SelfTest+0xbe>
    1d5a:	80 e0       	ldi	r24, 0x00	; 0
    1d5c:	90 e0       	ldi	r25, 0x00	; 0
        while(1);
    }
        //All LEDs off
    for (uint8_t x=0; x<40; ++x) {
        iLED[x]=0;
    1d5e:	fc 01       	movw	r30, r24
    1d60:	eb 53       	subi	r30, 0x3B	; 59
    1d62:	f5 4c       	sbci	r31, 0xC5	; 197
    1d64:	10 82       	st	Z, r1
    1d66:	01 96       	adiw	r24, 0x01	; 1
    ExtEERead(0x3CCC, 4, 0, (uint8_t *)&tstVal[0]);
    if ((tstVal[0] != 63) || (tstVal[1] != 0) || (tstVal[2] != 192) || (tstVal[3] != 20)){
        while(1);
    }
        //All LEDs off
    for (uint8_t x=0; x<40; ++x) {
    1d68:	88 32       	cpi	r24, 0x28	; 40
    1d6a:	91 05       	cpc	r25, r1
    1d6c:	c1 f7       	brne	.-16     	; 0x1d5e <SelfTest+0xc4>
    1d6e:	10 e0       	ldi	r17, 0x00	; 0
        iLED[x]=0;
    }

    for(uint8_t x=0; x<(adcPhot&0x3f); ++x) lfsr();
    1d70:	80 91 bf 3a 	lds	r24, 0x3ABF	; 0x803abf <adcPhot>
    1d74:	90 91 c0 3a 	lds	r25, 0x3AC0	; 0x803ac0 <adcPhot+0x1>
    1d78:	21 2f       	mov	r18, r17
    1d7a:	30 e0       	ldi	r19, 0x00	; 0
    1d7c:	8f 73       	andi	r24, 0x3F	; 63
    1d7e:	99 27       	eor	r25, r25
    1d80:	28 17       	cp	r18, r24
    1d82:	39 07       	cpc	r19, r25
    1d84:	18 f4       	brcc	.+6      	; 0x1d8c <SelfTest+0xf2>
    1d86:	29 da       	rcall	.-2990   	; 0x11da <lfsr>
    1d88:	1f 5f       	subi	r17, 0xFF	; 255
    1d8a:	f2 cf       	rjmp	.-28     	; 0x1d70 <SelfTest+0xd6>

    return 0;
}
    1d8c:	80 e0       	ldi	r24, 0x00	; 0
    1d8e:	24 96       	adiw	r28, 0x04	; 4
    1d90:	cd bf       	out	0x3d, r28	; 61
    1d92:	de bf       	out	0x3e, r29	; 62
    1d94:	df 91       	pop	r29
    1d96:	cf 91       	pop	r28
    1d98:	1f 91       	pop	r17
    1d9a:	08 95       	ret

00001d9c <simonLed>:

/**
 * Set the wing LED blocks to selected option
 * @param val
 */
void simonLed(uint8_t val) {
    1d9c:	cf 93       	push	r28
    1d9e:	df 93       	push	r29
    1da0:	ee e2       	ldi	r30, 0x2E	; 46
    1da2:	ff eb       	ldi	r31, 0xBF	; 191
    1da4:	ef 01       	movw	r28, r30
    for (uint8_t n = 0; n < 5; n++) {
        iLED[WING[L][n]] = 0;
    1da6:	a5 81       	ldd	r26, Z+5	; 0x05
    1da8:	b0 e0       	ldi	r27, 0x00	; 0
    1daa:	ab 53       	subi	r26, 0x3B	; 59
    1dac:	b5 4c       	sbci	r27, 0xC5	; 197
    1dae:	1c 92       	st	X, r1
    1db0:	31 96       	adiw	r30, 0x01	; 1
        iLED[WING[R][n]] = 0;
    1db2:	a8 81       	ld	r26, Y
    1db4:	b0 e0       	ldi	r27, 0x00	; 0
    1db6:	ab 53       	subi	r26, 0x3B	; 59
    1db8:	b5 4c       	sbci	r27, 0xC5	; 197
    1dba:	1c 92       	st	X, r1
/**
 * Set the wing LED blocks to selected option
 * @param val
 */
void simonLed(uint8_t val) {
    for (uint8_t n = 0; n < 5; n++) {
    1dbc:	9f eb       	ldi	r25, 0xBF	; 191
    1dbe:	e3 33       	cpi	r30, 0x33	; 51
    1dc0:	f9 07       	cpc	r31, r25
    1dc2:	81 f7       	brne	.-32     	; 0x1da4 <simonLed+0x8>
        iLED[WING[L][n]] = 0;
        iLED[WING[R][n]] = 0;
    }
    if (val == 3) {         // II
    1dc4:	83 30       	cpi	r24, 0x03	; 3
    1dc6:	d9 f4       	brne	.+54     	; 0x1dfe <simonLed+0x62>
        iLED[WING[L][0]] = dimValue;
    1dc8:	e0 91 33 bf 	lds	r30, 0xBF33	; 0x80bf33 <__bss_end+0x841f>
    1dcc:	f0 e0       	ldi	r31, 0x00	; 0
    1dce:	80 91 0c 38 	lds	r24, 0x380C	; 0x80380c <dimValue>
    1dd2:	eb 53       	subi	r30, 0x3B	; 59
    1dd4:	f5 4c       	sbci	r31, 0xC5	; 197
    1dd6:	80 83       	st	Z, r24
        iLED[WING[L][1]] = dimValue;
    1dd8:	e0 91 34 bf 	lds	r30, 0xBF34	; 0x80bf34 <__bss_end+0x8420>
    1ddc:	f0 e0       	ldi	r31, 0x00	; 0
    1dde:	80 91 0c 38 	lds	r24, 0x380C	; 0x80380c <dimValue>
    1de2:	eb 53       	subi	r30, 0x3B	; 59
    1de4:	f5 4c       	sbci	r31, 0xC5	; 197
    1de6:	80 83       	st	Z, r24
        iLED[WING[L][2]] = dimValue;
    1de8:	e0 91 35 bf 	lds	r30, 0xBF35	; 0x80bf35 <__bss_end+0x8421>
    1dec:	f0 e0       	ldi	r31, 0x00	; 0
    1dee:	80 91 0c 38 	lds	r24, 0x380C	; 0x80380c <dimValue>
    1df2:	eb 53       	subi	r30, 0x3B	; 59
    1df4:	f5 4c       	sbci	r31, 0xC5	; 197
    1df6:	80 83       	st	Z, r24
        effect = 0x013f;
    1df8:	8f e3       	ldi	r24, 0x3F	; 63
    1dfa:	91 e0       	ldi	r25, 0x01	; 1
    1dfc:	46 c0       	rjmp	.+140    	; 0x1e8a <simonLed+0xee>
    } else if (val == 1) {  //
    1dfe:	81 30       	cpi	r24, 0x01	; 1
    1e00:	99 f4       	brne	.+38     	; 0x1e28 <simonLed+0x8c>
        iLED[WING[L][3]] = dimValue;
    1e02:	e0 91 36 bf 	lds	r30, 0xBF36	; 0x80bf36 <__bss_end+0x8422>
    1e06:	f0 e0       	ldi	r31, 0x00	; 0
    1e08:	80 91 0c 38 	lds	r24, 0x380C	; 0x80380c <dimValue>
    1e0c:	eb 53       	subi	r30, 0x3B	; 59
    1e0e:	f5 4c       	sbci	r31, 0xC5	; 197
    1e10:	80 83       	st	Z, r24
        iLED[WING[L][4]] = dimValue;
    1e12:	e0 91 37 bf 	lds	r30, 0xBF37	; 0x80bf37 <__bss_end+0x8423>
    1e16:	f0 e0       	ldi	r31, 0x00	; 0
    1e18:	80 91 0c 38 	lds	r24, 0x380C	; 0x80380c <dimValue>
    1e1c:	eb 53       	subi	r30, 0x3B	; 59
    1e1e:	f5 4c       	sbci	r31, 0xC5	; 197
    1e20:	80 83       	st	Z, r24
        effect = 0x015f;
    1e22:	8f e5       	ldi	r24, 0x5F	; 95
    1e24:	91 e0       	ldi	r25, 0x01	; 1
    1e26:	31 c0       	rjmp	.+98     	; 0x1e8a <simonLed+0xee>
    } else if (val == 4) {  // III
    1e28:	84 30       	cpi	r24, 0x04	; 4
    1e2a:	d9 f4       	brne	.+54     	; 0x1e62 <simonLed+0xc6>
        iLED[WING[R][0]] = dimValue;
    1e2c:	e0 91 2e bf 	lds	r30, 0xBF2E	; 0x80bf2e <__bss_end+0x841a>
    1e30:	f0 e0       	ldi	r31, 0x00	; 0
    1e32:	80 91 0c 38 	lds	r24, 0x380C	; 0x80380c <dimValue>
    1e36:	eb 53       	subi	r30, 0x3B	; 59
    1e38:	f5 4c       	sbci	r31, 0xC5	; 197
    1e3a:	80 83       	st	Z, r24
        iLED[WING[R][1]] = dimValue;
    1e3c:	e0 91 2f bf 	lds	r30, 0xBF2F	; 0x80bf2f <__bss_end+0x841b>
    1e40:	f0 e0       	ldi	r31, 0x00	; 0
    1e42:	80 91 0c 38 	lds	r24, 0x380C	; 0x80380c <dimValue>
    1e46:	eb 53       	subi	r30, 0x3B	; 59
    1e48:	f5 4c       	sbci	r31, 0xC5	; 197
    1e4a:	80 83       	st	Z, r24
        iLED[WING[R][2]] = dimValue;
    1e4c:	e0 91 30 bf 	lds	r30, 0xBF30	; 0x80bf30 <__bss_end+0x841c>
    1e50:	f0 e0       	ldi	r31, 0x00	; 0
    1e52:	80 91 0c 38 	lds	r24, 0x380C	; 0x80380c <dimValue>
    1e56:	eb 53       	subi	r30, 0x3B	; 59
    1e58:	f5 4c       	sbci	r31, 0xC5	; 197
    1e5a:	80 83       	st	Z, r24
        effect = 0x017f;
    1e5c:	8f e7       	ldi	r24, 0x7F	; 127
    1e5e:	91 e0       	ldi	r25, 0x01	; 1
    1e60:	14 c0       	rjmp	.+40     	; 0x1e8a <simonLed+0xee>
    } else if (val == 2) {  // I
    1e62:	82 30       	cpi	r24, 0x02	; 2
    1e64:	b1 f4       	brne	.+44     	; 0x1e92 <simonLed+0xf6>
        iLED[WING[R][3]] = dimValue;
    1e66:	e0 91 31 bf 	lds	r30, 0xBF31	; 0x80bf31 <__bss_end+0x841d>
    1e6a:	f0 e0       	ldi	r31, 0x00	; 0
    1e6c:	80 91 0c 38 	lds	r24, 0x380C	; 0x80380c <dimValue>
    1e70:	eb 53       	subi	r30, 0x3B	; 59
    1e72:	f5 4c       	sbci	r31, 0xC5	; 197
    1e74:	80 83       	st	Z, r24
        iLED[WING[R][4]] = dimValue;
    1e76:	e0 91 32 bf 	lds	r30, 0xBF32	; 0x80bf32 <__bss_end+0x841e>
    1e7a:	f0 e0       	ldi	r31, 0x00	; 0
    1e7c:	80 91 0c 38 	lds	r24, 0x380C	; 0x80380c <dimValue>
    1e80:	eb 53       	subi	r30, 0x3B	; 59
    1e82:	f5 4c       	sbci	r31, 0xC5	; 197
    1e84:	80 83       	st	Z, r24
        effect = 0x019f;
    1e86:	8f e9       	ldi	r24, 0x9F	; 159
    1e88:	91 e0       	ldi	r25, 0x01	; 1
    1e8a:	80 93 3c 38 	sts	0x383C, r24	; 0x80383c <effect>
    1e8e:	90 93 3d 38 	sts	0x383D, r25	; 0x80383d <effect+0x1>
    }
}
    1e92:	df 91       	pop	r29
    1e94:	cf 91       	pop	r28
    1e96:	08 95       	ret

00001e98 <BastetDictates>:

/**
 * Main game loop
 * @return 0
 */
uint8_t BastetDictates() {
    1e98:	cf 93       	push	r28
    1e9a:	df 93       	push	r29
    if ((TEXT != gameNow) && (BASTET != gameNow))
    1e9c:	80 91 3e 38 	lds	r24, 0x383E	; 0x80383e <gameNow>
    1ea0:	8d 7f       	andi	r24, 0xFD	; 253
    1ea2:	09 f0       	breq	.+2      	; 0x1ea6 <BastetDictates+0xe>
    1ea4:	73 c1       	rjmp	.+742    	; 0x218c <BastetDictates+0x2f4>
        return 0;

    if (CheckState(BASTET_COMPLETED)) {
    1ea6:	8a e7       	ldi	r24, 0x7A	; 122
    1ea8:	c3 da       	rcall	.-2682   	; 0x1430 <CheckState>
    1eaa:	88 23       	and	r24, r24
    1eac:	41 f0       	breq	.+16     	; 0x1ebe <BastetDictates+0x26>
        if (BASTET == gameNow) {
    1eae:	80 91 3e 38 	lds	r24, 0x383E	; 0x80383e <gameNow>
    1eb2:	82 30       	cpi	r24, 0x02	; 2
    1eb4:	09 f0       	breq	.+2      	; 0x1eb8 <BastetDictates+0x20>
    1eb6:	6a c1       	rjmp	.+724    	; 0x218c <BastetDictates+0x2f4>
            gameNow = TEXT;
    1eb8:	10 92 3e 38 	sts	0x383E, r1	; 0x80383e <gameNow>
    1ebc:	67 c1       	rjmp	.+718    	; 0x218c <BastetDictates+0x2f4>
        }
        return 0;
    }

    if (CheckState(LANYARD_COMPLETED))
    1ebe:	8b e7       	ldi	r24, 0x7B	; 123
    1ec0:	b7 da       	rcall	.-2706   	; 0x1430 <CheckState>
    1ec2:	90 91 08 38 	lds	r25, 0x3808	; 0x803808 <buttonState>
    1ec6:	88 23       	and	r24, r24
    1ec8:	29 f0       	breq	.+10     	; 0x1ed4 <BastetDictates+0x3c>
        if (buttonState!=0xff)
    1eca:	9f 3f       	cpi	r25, 0xFF	; 255
    1ecc:	19 f0       	breq	.+6      	; 0x1ed4 <BastetDictates+0x3c>
            gameNow = BASTET;
    1ece:	82 e0       	ldi	r24, 0x02	; 2
    1ed0:	80 93 3e 38 	sts	0x383E, r24	; 0x80383e <gameNow>

    iLED[CAT] = (buttonState==0xff ? 0 : dimValue);
    1ed4:	e0 91 2a bf 	lds	r30, 0xBF2A	; 0x80bf2a <__bss_end+0x8416>
    1ed8:	f0 e0       	ldi	r31, 0x00	; 0
    1eda:	9f 3f       	cpi	r25, 0xFF	; 255
    1edc:	19 f0       	breq	.+6      	; 0x1ee4 <BastetDictates+0x4c>
    1ede:	80 91 0c 38 	lds	r24, 0x380C	; 0x80380c <dimValue>
    1ee2:	01 c0       	rjmp	.+2      	; 0x1ee6 <BastetDictates+0x4e>
    1ee4:	80 e0       	ldi	r24, 0x00	; 0
    1ee6:	eb 53       	subi	r30, 0x3B	; 59
    1ee8:	f5 4c       	sbci	r31, 0xC5	; 197
    1eea:	80 83       	st	Z, r24

    if (BASTET_BOOT == simonGameState) {
    1eec:	80 91 5e 38 	lds	r24, 0x385E	; 0x80385e <simonGameState>
    1ef0:	81 11       	cpse	r24, r1
    1ef2:	0c c0       	rjmp	.+24     	; 0x1f0c <BastetDictates+0x74>
    1ef4:	c4 e6       	ldi	r28, 0x64	; 100
        for (uint8_t i = 0; i < BASTET_LENGTH; i++) {
            simonState[i] = (lfsr() % 4);
    1ef6:	d8 e3       	ldi	r29, 0x38	; 56
    1ef8:	70 d9       	rcall	.-3360   	; 0x11da <lfsr>
    1efa:	83 70       	andi	r24, 0x03	; 3
    1efc:	89 93       	st	Y+, r24
            gameNow = BASTET;

    iLED[CAT] = (buttonState==0xff ? 0 : dimValue);

    if (BASTET_BOOT == simonGameState) {
        for (uint8_t i = 0; i < BASTET_LENGTH; i++) {
    1efe:	88 e3       	ldi	r24, 0x38	; 56
    1f00:	c0 37       	cpi	r28, 0x70	; 112
    1f02:	d8 07       	cpc	r29, r24
    1f04:	c9 f7       	brne	.-14     	; 0x1ef8 <BastetDictates+0x60>
            simonState[i] = (lfsr() % 4);
        }
        simonGameState = BASTET_GAME_START;
    1f06:	81 e0       	ldi	r24, 0x01	; 1
    1f08:	80 93 5e 38 	sts	0x385E, r24	; 0x80385e <simonGameState>
    }

    if (BASTET_GAME_START == simonGameState && BASTET == gameNow) {
    1f0c:	80 91 5e 38 	lds	r24, 0x385E	; 0x80385e <simonGameState>
    1f10:	81 30       	cpi	r24, 0x01	; 1
    1f12:	71 f4       	brne	.+28     	; 0x1f30 <BastetDictates+0x98>
    1f14:	80 91 3e 38 	lds	r24, 0x383E	; 0x80383e <gameNow>
    1f18:	82 30       	cpi	r24, 0x02	; 2
    1f1a:	51 f4       	brne	.+20     	; 0x1f30 <BastetDictates+0x98>
        simonGameState = BASTET_GAME_INTRO;
    1f1c:	80 93 5e 38 	sts	0x385E, r24	; 0x80385e <simonGameState>
        simonPos = 0;
    1f20:	10 92 63 38 	sts	0x3863, r1	; 0x803863 <simonPos>
        simonInputPos = 0;
    1f24:	10 92 62 38 	sts	0x3862, r1	; 0x803862 <simonInputPos>
        simonTimer = 0;
    1f28:	10 92 61 38 	sts	0x3861, r1	; 0x803861 <simonTimer>
        simonCounter = 0;
    1f2c:	10 92 5f 38 	sts	0x385F, r1	; 0x80385f <simonCounter>
    }

    if (BASTET_GAME_INTRO == simonGameState) {
    1f30:	80 91 5e 38 	lds	r24, 0x385E	; 0x80385e <simonGameState>
    1f34:	82 30       	cpi	r24, 0x02	; 2
    1f36:	19 f5       	brne	.+70     	; 0x1f7e <BastetDictates+0xe6>
        if (simonTimer > 5) {   // .33 seconds
    1f38:	80 91 61 38 	lds	r24, 0x3861	; 0x803861 <simonTimer>
    1f3c:	86 30       	cpi	r24, 0x06	; 6
    1f3e:	38 f0       	brcs	.+14     	; 0x1f4e <BastetDictates+0xb6>
            simonCounter++;
    1f40:	80 91 5f 38 	lds	r24, 0x385F	; 0x80385f <simonCounter>
    1f44:	8f 5f       	subi	r24, 0xFF	; 255
    1f46:	80 93 5f 38 	sts	0x385F, r24	; 0x80385f <simonCounter>
            simonTimer = 0;
    1f4a:	10 92 61 38 	sts	0x3861, r1	; 0x803861 <simonTimer>
        }
        if (simonCounter > 5) {
    1f4e:	e0 91 5f 38 	lds	r30, 0x385F	; 0x80385f <simonCounter>
    1f52:	e6 30       	cpi	r30, 0x06	; 6
    1f54:	48 f0       	brcs	.+18     	; 0x1f68 <BastetDictates+0xd0>
            simonGameState = BASTET_GAME_SHOW_PATTERN;
    1f56:	83 e0       	ldi	r24, 0x03	; 3
    1f58:	80 93 5e 38 	sts	0x385E, r24	; 0x80385e <simonGameState>
            simonTimer = 0;
    1f5c:	10 92 61 38 	sts	0x3861, r1	; 0x803861 <simonTimer>
            simonCounter = 0;
    1f60:	10 92 5f 38 	sts	0x385F, r1	; 0x80385f <simonCounter>
            ClearHackerLeds();
    1f64:	72 db       	rcall	.-2332   	; 0x164a <ClearHackerLeds>
            return 0;
    1f66:	12 c1       	rjmp	.+548    	; 0x218c <BastetDictates+0x2f4>
        }
        iLED[HCKR[R][simonCounter]] = dimValue;
    1f68:	f0 e0       	ldi	r31, 0x00	; 0
    1f6a:	e4 5c       	subi	r30, 0xC4	; 196
    1f6c:	f0 44       	sbci	r31, 0x40	; 64
    1f6e:	e0 81       	ld	r30, Z
    1f70:	f0 e0       	ldi	r31, 0x00	; 0
    1f72:	80 91 0c 38 	lds	r24, 0x380C	; 0x80380c <dimValue>
    1f76:	eb 53       	subi	r30, 0x3B	; 59
    1f78:	f5 4c       	sbci	r31, 0xC5	; 197
    1f7a:	80 83       	st	Z, r24
    1f7c:	2b c0       	rjmp	.+86     	; 0x1fd4 <BastetDictates+0x13c>
    }

    if (BASTET_GAME_SHOW_PATTERN == simonGameState) {
    1f7e:	83 30       	cpi	r24, 0x03	; 3
    1f80:	49 f5       	brne	.+82     	; 0x1fd4 <BastetDictates+0x13c>
        if (simonTimer > 7) {   // .5 second
    1f82:	80 91 61 38 	lds	r24, 0x3861	; 0x803861 <simonTimer>
    1f86:	88 30       	cpi	r24, 0x08	; 8
    1f88:	38 f0       	brcs	.+14     	; 0x1f98 <BastetDictates+0x100>
            simonCounter++;
    1f8a:	80 91 5f 38 	lds	r24, 0x385F	; 0x80385f <simonCounter>
    1f8e:	8f 5f       	subi	r24, 0xFF	; 255
    1f90:	80 93 5f 38 	sts	0x385F, r24	; 0x80385f <simonCounter>
            simonTimer = 0;
    1f94:	10 92 61 38 	sts	0x3861, r1	; 0x803861 <simonTimer>
        }
        if (simonCounter > simonPos) {
    1f98:	e0 91 5f 38 	lds	r30, 0x385F	; 0x80385f <simonCounter>
    1f9c:	80 91 63 38 	lds	r24, 0x3863	; 0x803863 <simonPos>
    1fa0:	8e 17       	cp	r24, r30
    1fa2:	40 f4       	brcc	.+16     	; 0x1fb4 <BastetDictates+0x11c>
            simonInputPos = 0;
    1fa4:	10 92 62 38 	sts	0x3862, r1	; 0x803862 <simonInputPos>
            simonGameState = BASTET_GAME_INPUT;
    1fa8:	85 e0       	ldi	r24, 0x05	; 5
    1faa:	80 93 5e 38 	sts	0x385E, r24	; 0x80385e <simonGameState>
            simonLed(0);
    1fae:	80 e0       	ldi	r24, 0x00	; 0
    1fb0:	f5 de       	rcall	.-534    	; 0x1d9c <simonLed>
    1fb2:	98 c0       	rjmp	.+304    	; 0x20e4 <BastetDictates+0x24c>
            simonTimer = 0;
            return 0;
        }
        if (simonTimer < 3) {
    1fb4:	80 91 61 38 	lds	r24, 0x3861	; 0x803861 <simonTimer>
    1fb8:	83 30       	cpi	r24, 0x03	; 3
    1fba:	30 f4       	brcc	.+12     	; 0x1fc8 <BastetDictates+0x130>
            simonLed(simonState[simonCounter] + 1);
    1fbc:	f0 e0       	ldi	r31, 0x00	; 0
    1fbe:	ec 59       	subi	r30, 0x9C	; 156
    1fc0:	f7 4c       	sbci	r31, 0xC7	; 199
    1fc2:	80 81       	ld	r24, Z
    1fc4:	8f 5f       	subi	r24, 0xFF	; 255
    1fc6:	ea de       	rcall	.-556    	; 0x1d9c <simonLed>
        }
        if (simonTimer > 6) {
    1fc8:	80 91 61 38 	lds	r24, 0x3861	; 0x803861 <simonTimer>
    1fcc:	87 30       	cpi	r24, 0x07	; 7
    1fce:	10 f0       	brcs	.+4      	; 0x1fd4 <BastetDictates+0x13c>
            simonLed(0);
    1fd0:	80 e0       	ldi	r24, 0x00	; 0
    1fd2:	e4 de       	rcall	.-568    	; 0x1d9c <simonLed>
    1fd4:	c0 91 5e 38 	lds	r28, 0x385E	; 0x80385e <simonGameState>
        }
    }

    if (BASTET_GAME_INPUT == simonGameState) {
    1fd8:	c5 30       	cpi	r28, 0x05	; 5
    1fda:	09 f0       	breq	.+2      	; 0x1fde <BastetDictates+0x146>
    1fdc:	86 c0       	rjmp	.+268    	; 0x20ea <BastetDictates+0x252>
    1fde:	80 91 08 38 	lds	r24, 0x3808	; 0x803808 <buttonState>
        //Button pressed
        if (lastButtonState != buttonState && (buttonState+1) > 0) {
    1fe2:	90 91 07 38 	lds	r25, 0x3807	; 0x803807 <lastButtonState>
    1fe6:	98 17       	cp	r25, r24
    1fe8:	09 f4       	brne	.+2      	; 0x1fec <BastetDictates+0x154>
    1fea:	71 c0       	rjmp	.+226    	; 0x20ce <BastetDictates+0x236>
    1fec:	90 91 60 38 	lds	r25, 0x3860	; 0x803860 <simonWait>
            if (simonWait == 0 && buttonState < 4) {
    1ff0:	91 11       	cpse	r25, r1
    1ff2:	6f c0       	rjmp	.+222    	; 0x20d2 <BastetDictates+0x23a>
    1ff4:	84 30       	cpi	r24, 0x04	; 4
    1ff6:	08 f0       	brcs	.+2      	; 0x1ffa <BastetDictates+0x162>
    1ff8:	6c c0       	rjmp	.+216    	; 0x20d2 <BastetDictates+0x23a>
                simonWait = 1;
    1ffa:	91 e0       	ldi	r25, 0x01	; 1
    1ffc:	90 93 60 38 	sts	0x3860, r25	; 0x803860 <simonWait>
                simonTimer = 0;
    2000:	10 92 61 38 	sts	0x3861, r1	; 0x803861 <simonTimer>
                simonLed(buttonState+1);
    2004:	8f 5f       	subi	r24, 0xFF	; 255
    2006:	ca de       	rcall	.-620    	; 0x1d9c <simonLed>
    2008:	84 e0       	ldi	r24, 0x04	; 4
                simonGameState = BASTET_GAME_WAIT_LEDS;
    200a:	80 93 5e 38 	sts	0x385E, r24	; 0x80385e <simonGameState>
    200e:	c0 93 30 38 	sts	0x3830, r28	; 0x803830 <simonNextGameState>
                simonNextGameState = BASTET_GAME_INPUT;
    2012:	80 91 62 38 	lds	r24, 0x3862	; 0x803862 <simonInputPos>

                if (simonState[simonInputPos] == buttonState) {
    2016:	e8 2f       	mov	r30, r24
    2018:	f0 e0       	ldi	r31, 0x00	; 0
    201a:	ec 59       	subi	r30, 0x9C	; 156
    201c:	f7 4c       	sbci	r31, 0xC7	; 199
    201e:	20 81       	ld	r18, Z
    2020:	90 91 08 38 	lds	r25, 0x3808	; 0x803808 <buttonState>
    2024:	29 13       	cpse	r18, r25
    2026:	1d c0       	rjmp	.+58     	; 0x2062 <BastetDictates+0x1ca>
    2028:	8f 5f       	subi	r24, 0xFF	; 255
                    simonInputPos++;
    202a:	80 93 62 38 	sts	0x3862, r24	; 0x803862 <simonInputPos>
    202e:	e0 91 63 38 	lds	r30, 0x3863	; 0x803863 <simonPos>
                    if (simonInputPos > simonPos) {
    2032:	e8 17       	cp	r30, r24
    2034:	a0 f5       	brcc	.+104    	; 0x209e <BastetDictates+0x206>
    2036:	ef 5f       	subi	r30, 0xFF	; 255
                        simonPos++;
    2038:	e0 93 63 38 	sts	0x3863, r30	; 0x803863 <simonPos>
    203c:	10 92 61 38 	sts	0x3861, r1	; 0x803861 <simonTimer>
                        simonTimer = 0;
    2040:	10 92 5f 38 	sts	0x385F, r1	; 0x80385f <simonCounter>
                        simonCounter = 0;
    2044:	e1 30       	cpi	r30, 0x01	; 1
                        if (simonPos > 1) { // BASTET_LENGTH = 12
    2046:	59 f0       	breq	.+22     	; 0x205e <BastetDictates+0x1c6>
    2048:	e6 95       	lsr	r30
                            iLED[HCKR[G][(simonPos / 2) - 1]] = dimValue;
    204a:	f0 e0       	ldi	r31, 0x00	; 0
    204c:	e4 5c       	subi	r30, 0xC4	; 196
    204e:	f0 44       	sbci	r31, 0x40	; 64
    2050:	e5 81       	ldd	r30, Z+5	; 0x05
    2052:	f0 e0       	ldi	r31, 0x00	; 0
    2054:	80 91 0c 38 	lds	r24, 0x380C	; 0x80380c <dimValue>
    2058:	eb 53       	subi	r30, 0x3B	; 59
    205a:	f5 4c       	sbci	r31, 0xC5	; 197
    205c:	80 83       	st	Z, r24
    205e:	83 e0       	ldi	r24, 0x03	; 3
                        }
                        simonNextGameState = BASTET_GAME_SHOW_PATTERN;
    2060:	1c c0       	rjmp	.+56     	; 0x209a <BastetDictates+0x202>
    2062:	80 e2       	ldi	r24, 0x20	; 32
                    }
                } else {
                    effect = 32;
    2064:	90 e0       	ldi	r25, 0x00	; 0
    2066:	80 93 3c 38 	sts	0x383C, r24	; 0x80383c <effect>
    206a:	90 93 3d 38 	sts	0x383D, r25	; 0x80383d <effect+0x1>
    206e:	ac e3       	ldi	r26, 0x3C	; 60
    2070:	bf eb       	ldi	r27, 0xBF	; 191
    2072:	ed 91       	ld	r30, X+
                    for (uint8_t n=0; n<6; n++){
                        iLED[HCKR[R][n]] = dimValue;
    2074:	f0 e0       	ldi	r31, 0x00	; 0
    2076:	80 91 0c 38 	lds	r24, 0x380C	; 0x80380c <dimValue>
    207a:	eb 53       	subi	r30, 0x3B	; 59
    207c:	f5 4c       	sbci	r31, 0xC5	; 197
    207e:	80 83       	st	Z, r24
    2080:	8f eb       	ldi	r24, 0xBF	; 191
                        }
                        simonNextGameState = BASTET_GAME_SHOW_PATTERN;
                    }
                } else {
                    effect = 32;
                    for (uint8_t n=0; n<6; n++){
    2082:	a2 34       	cpi	r26, 0x42	; 66
    2084:	b8 07       	cpc	r27, r24
    2086:	a9 f7       	brne	.-22     	; 0x2072 <BastetDictates+0x1da>
    2088:	10 92 62 38 	sts	0x3862, r1	; 0x803862 <simonInputPos>
                        iLED[HCKR[R][n]] = dimValue;
                    }
                    simonInputPos = 0;
    208c:	10 92 63 38 	sts	0x3863, r1	; 0x803863 <simonPos>
                    simonPos = 0;
    2090:	10 92 61 38 	sts	0x3861, r1	; 0x803861 <simonTimer>
                    simonTimer = 0;
    2094:	10 92 5f 38 	sts	0x385F, r1	; 0x80385f <simonCounter>
                    simonCounter = 0;
    2098:	86 e0       	ldi	r24, 0x06	; 6
                    simonNextGameState = BASTET_GAME_OUTRO;
    209a:	80 93 30 38 	sts	0x3830, r24	; 0x803830 <simonNextGameState>
    209e:	80 91 62 38 	lds	r24, 0x3862	; 0x803862 <simonInputPos>
                }

                if (simonInputPos >= BASTET_LENGTH || simonPos >= BASTET_LENGTH) { // beetje dubbel
    20a2:	8c 30       	cpi	r24, 0x0C	; 12
    20a4:	20 f4       	brcc	.+8      	; 0x20ae <BastetDictates+0x216>
    20a6:	80 91 63 38 	lds	r24, 0x3863	; 0x803863 <simonPos>
    20aa:	8c 30       	cpi	r24, 0x0C	; 12
    20ac:	90 f0       	brcs	.+36     	; 0x20d2 <BastetDictates+0x23a>
                    effect = 64|2;
    20ae:	82 e4       	ldi	r24, 0x42	; 66
    20b0:	90 e0       	ldi	r25, 0x00	; 0
    20b2:	80 93 3c 38 	sts	0x383C, r24	; 0x80383c <effect>
    20b6:	90 93 3d 38 	sts	0x383D, r25	; 0x80383d <effect+0x1>
                    UpdateState(BASTET_COMPLETED);
    20ba:	8a e7       	ldi	r24, 0x7A	; 122
    20bc:	98 d9       	rcall	.-3280   	; 0x13ee <UpdateState>
    20be:	10 92 61 38 	sts	0x3861, r1	; 0x803861 <simonTimer>
                    simonTimer = 0;
    20c2:	10 92 5f 38 	sts	0x385F, r1	; 0x80385f <simonCounter>
                    simonCounter = 0;
    20c6:	87 e0       	ldi	r24, 0x07	; 7
                    simonNextGameState = BASTET_GAME_OVER;
    20c8:	80 93 30 38 	sts	0x3830, r24	; 0x803830 <simonNextGameState>
    20cc:	02 c0       	rjmp	.+4      	; 0x20d2 <BastetDictates+0x23a>
    20ce:	10 92 60 38 	sts	0x3860, r1	; 0x803860 <simonWait>
                }
            }
        
        //Button released, next or reset!
        } else {
            simonWait = 0;
    20d2:	80 91 61 38 	lds	r24, 0x3861	; 0x803861 <simonTimer>
        }

        if (simonTimer == 200) {    // did you forget about Bastet?
    20d6:	88 3c       	cpi	r24, 0xC8	; 200
    20d8:	41 f4       	brne	.+16     	; 0x20ea <BastetDictates+0x252>
    20da:	83 e0       	ldi	r24, 0x03	; 3
            simonGameState = BASTET_GAME_SHOW_PATTERN;
    20dc:	80 93 5e 38 	sts	0x385E, r24	; 0x80385e <simonGameState>
    20e0:	10 92 5f 38 	sts	0x385F, r1	; 0x80385f <simonCounter>
            simonCounter = 0;
    20e4:	10 92 61 38 	sts	0x3861, r1	; 0x803861 <simonTimer>
            simonTimer = 0;
    20e8:	51 c0       	rjmp	.+162    	; 0x218c <BastetDictates+0x2f4>
            return 0;
    20ea:	80 91 5e 38 	lds	r24, 0x385E	; 0x80385e <simonGameState>
        }
    }

    if (BASTET_GAME_WAIT_LEDS == simonGameState) {
    20ee:	84 30       	cpi	r24, 0x04	; 4
    20f0:	81 f4       	brne	.+32     	; 0x2112 <BastetDictates+0x27a>
        if (simonTimer >= 7) {
    20f2:	80 91 61 38 	lds	r24, 0x3861	; 0x803861 <simonTimer>
    20f6:	87 30       	cpi	r24, 0x07	; 7
    20f8:	60 f0       	brcs	.+24     	; 0x2112 <BastetDictates+0x27a>
            // on to next state after .5 second
            simonLed(0);  // LEDs off
    20fa:	80 e0       	ldi	r24, 0x00	; 0
    20fc:	4f de       	rcall	.-866    	; 0x1d9c <simonLed>
    20fe:	10 92 60 38 	sts	0x3860, r1	; 0x803860 <simonWait>
            simonWait = 0;
    2102:	10 92 61 38 	sts	0x3861, r1	; 0x803861 <simonTimer>
            simonTimer = 0;
    2106:	10 92 5f 38 	sts	0x385F, r1	; 0x80385f <simonCounter>
            simonCounter = 0;
    210a:	80 91 30 38 	lds	r24, 0x3830	; 0x803830 <simonNextGameState>
            simonGameState = simonNextGameState;
    210e:	80 93 5e 38 	sts	0x385E, r24	; 0x80385e <simonGameState>
    2112:	80 91 5e 38 	lds	r24, 0x385E	; 0x80385e <simonGameState>
        }
    }

    if (BASTET_GAME_OUTRO == simonGameState) {
    2116:	86 30       	cpi	r24, 0x06	; 6
    2118:	41 f5       	brne	.+80     	; 0x216a <BastetDictates+0x2d2>
    211a:	80 91 61 38 	lds	r24, 0x3861	; 0x803861 <simonTimer>
        if (simonTimer > 3) {
    211e:	84 30       	cpi	r24, 0x04	; 4
    2120:	38 f0       	brcs	.+14     	; 0x2130 <BastetDictates+0x298>
    2122:	80 91 5f 38 	lds	r24, 0x385F	; 0x80385f <simonCounter>
            simonCounter++;
    2126:	8f 5f       	subi	r24, 0xFF	; 255
    2128:	80 93 5f 38 	sts	0x385F, r24	; 0x80385f <simonCounter>
    212c:	10 92 61 38 	sts	0x3861, r1	; 0x803861 <simonTimer>
            simonTimer = 0;
    2130:	80 91 5f 38 	lds	r24, 0x385F	; 0x80385f <simonCounter>
        }
        if (simonCounter > 5) {
    2134:	86 30       	cpi	r24, 0x06	; 6
    2136:	40 f0       	brcs	.+16     	; 0x2148 <BastetDictates+0x2b0>
    2138:	10 92 61 38 	sts	0x3861, r1	; 0x803861 <simonTimer>
            simonTimer = 0;
    213c:	10 92 5f 38 	sts	0x385F, r1	; 0x80385f <simonCounter>
            simonCounter = 0;
    2140:	87 e0       	ldi	r24, 0x07	; 7
            simonGameState = BASTET_GAME_OVER;
    2142:	80 93 5e 38 	sts	0x385E, r24	; 0x80385e <simonGameState>
    2146:	22 c0       	rjmp	.+68     	; 0x218c <BastetDictates+0x2f4>
            return 0;
    2148:	e5 e0       	ldi	r30, 0x05	; 5
        }
        iLED[HCKR[R][5-simonCounter]] = 0;
    214a:	f0 e0       	ldi	r31, 0x00	; 0
    214c:	e8 1b       	sub	r30, r24
    214e:	f1 09       	sbc	r31, r1
    2150:	e4 5c       	subi	r30, 0xC4	; 196
    2152:	f0 44       	sbci	r31, 0x40	; 64
    2154:	a0 81       	ld	r26, Z
    2156:	b0 e0       	ldi	r27, 0x00	; 0
    2158:	ab 53       	subi	r26, 0x3B	; 59
    215a:	b5 4c       	sbci	r27, 0xC5	; 197
    215c:	1c 92       	st	X, r1
    215e:	e6 81       	ldd	r30, Z+6	; 0x06
        iLED[HCKR[G][5-simonCounter]] = 0;
    2160:	f0 e0       	ldi	r31, 0x00	; 0
    2162:	eb 53       	subi	r30, 0x3B	; 59
    2164:	f5 4c       	sbci	r31, 0xC5	; 197
    2166:	10 82       	st	Z, r1
    2168:	0c c0       	rjmp	.+24     	; 0x2182 <BastetDictates+0x2ea>
    216a:	87 30       	cpi	r24, 0x07	; 7
    }

    if (BASTET_GAME_OVER == simonGameState) {
    216c:	51 f4       	brne	.+20     	; 0x2182 <BastetDictates+0x2ea>
        simonInputPos = 0;
    216e:	10 92 62 38 	sts	0x3862, r1	; 0x803862 <simonInputPos>
        simonPos = 0;
    2172:	10 92 63 38 	sts	0x3863, r1	; 0x803863 <simonPos>
        simonGameState = BASTET_BOOT; // BASTET_GAME_START for stale "field" s
    2176:	10 92 5e 38 	sts	0x385E, r1	; 0x80385e <simonGameState>
        gameNow = TEXT;
    217a:	10 92 3e 38 	sts	0x383E, r1	; 0x80383e <gameNow>
        simonLed(0);
    217e:	80 e0       	ldi	r24, 0x00	; 0
    2180:	0d de       	rcall	.-998    	; 0x1d9c <simonLed>
    2182:	80 91 61 38 	lds	r24, 0x3861	; 0x803861 <simonTimer>
    }

    ++simonTimer;
    2186:	8f 5f       	subi	r24, 0xFF	; 255
    2188:	80 93 61 38 	sts	0x3861, r24	; 0x803861 <simonTimer>
    218c:	80 e0       	ldi	r24, 0x00	; 0
    return 0;
}
    218e:	df 91       	pop	r29
    2190:	cf 91       	pop	r28
    2192:	08 95       	ret

00002194 <Cheat>:
    2194:	1f 93       	push	r17

//
void SetResponse(uint8_t number, uint16_t address, uint16_t length, uint8_t type){
    reactStr[0][number]=address;
    reactStr[1][number]=length;
    reactStr[2][number]=type;
    2196:	cf 93       	push	r28
    2198:	df 93       	push	r29
    219a:	cd b7       	in	r28, 0x3d	; 61
    219c:	de b7       	in	r29, 0x3e	; 62
    219e:	62 97       	sbiw	r28, 0x12	; 18
    21a0:	cd bf       	out	0x3d, r28	; 61
    21a2:	de bf       	out	0x3e, r29	; 62
    21a4:	8a 8b       	std	Y+18, r24	; 0x12
    21a6:	80 e1       	ldi	r24, 0x10	; 16
    21a8:	e2 e0       	ldi	r30, 0x02	; 2
    21aa:	ff eb       	ldi	r31, 0xBF	; 191
    21ac:	de 01       	movw	r26, r28
    21ae:	11 96       	adiw	r26, 0x01	; 1
    21b0:	01 90       	ld	r0, Z+
    21b2:	0d 92       	st	X+, r0
    21b4:	8a 95       	dec	r24
    21b6:	e1 f7       	brne	.-8      	; 0x21b0 <Cheat+0x1c>
    21b8:	fe 01       	movw	r30, r28
    21ba:	31 96       	adiw	r30, 0x01	; 1
    21bc:	90 e0       	ldi	r25, 0x00	; 0
    21be:	8f ef       	ldi	r24, 0xFF	; 255
    21c0:	21 91       	ld	r18, Z+
    21c2:	31 91       	ld	r19, Z+
    21c4:	26 17       	cp	r18, r22
    21c6:	37 07       	cpc	r19, r23
    21c8:	09 f4       	brne	.+2      	; 0x21cc <Cheat+0x38>
    21ca:	89 2f       	mov	r24, r25
    21cc:	9f 5f       	subi	r25, 0xFF	; 255
    21ce:	98 30       	cpi	r25, 0x08	; 8
    21d0:	b9 f7       	brne	.-18     	; 0x21c0 <Cheat+0x2c>
    21d2:	88 30       	cpi	r24, 0x08	; 8
    21d4:	10 f0       	brcs	.+4      	; 0x21da <Cheat+0x46>
    21d6:	80 e0       	ldi	r24, 0x00	; 0
    21d8:	14 c0       	rjmp	.+40     	; 0x2202 <Cheat+0x6e>
    21da:	18 e1       	ldi	r17, 0x18	; 24
    21dc:	18 0f       	add	r17, r24
    21de:	41 e0       	ldi	r20, 0x01	; 1
    21e0:	be 01       	movw	r22, r28
    21e2:	6f 5e       	subi	r22, 0xEF	; 239
    21e4:	7f 4f       	sbci	r23, 0xFF	; 255
    21e6:	81 2f       	mov	r24, r17
    21e8:	0e 94 fb 07 	call	0xff6	; 0xff6 <EERead>
    21ec:	89 89       	ldd	r24, Y+17	; 0x11
    21ee:	8f 3f       	cpi	r24, 0xFF	; 255
    21f0:	91 f7       	brne	.-28     	; 0x21d6 <Cheat+0x42>
    21f2:	41 e0       	ldi	r20, 0x01	; 1
    21f4:	be 01       	movw	r22, r28
    21f6:	6e 5e       	subi	r22, 0xEE	; 238
    21f8:	7f 4f       	sbci	r23, 0xFF	; 255
    21fa:	81 2f       	mov	r24, r17
    21fc:	0e 94 0b 08 	call	0x1016	; 0x1016 <EEWrite>
    2200:	81 e0       	ldi	r24, 0x01	; 1
    2202:	62 96       	adiw	r28, 0x12	; 18
    2204:	cd bf       	out	0x3d, r28	; 61
    2206:	de bf       	out	0x3e, r29	; 62
    2208:	df 91       	pop	r29
    220a:	cf 91       	pop	r28
    220c:	1f 91       	pop	r17
    220e:	08 95       	ret

00002210 <UnflipData>:
    2210:	26 2f       	mov	r18, r22
    2212:	fb 01       	movw	r30, r22
    2214:	35 e5       	ldi	r19, 0x55	; 85
    2216:	9e 2f       	mov	r25, r30
    2218:	92 1b       	sub	r25, r18
    221a:	98 17       	cp	r25, r24
    221c:	28 f4       	brcc	.+10     	; 0x2228 <UnflipData+0x18>
    221e:	90 81       	ld	r25, Z
    2220:	92 95       	swap	r25
    2222:	93 27       	eor	r25, r19
    2224:	91 93       	st	Z+, r25
    2226:	f7 cf       	rjmp	.-18     	; 0x2216 <UnflipData+0x6>
    2228:	08 95       	ret

0000222a <ClearTxAfter>:
    222a:	8f 5f       	subi	r24, 0xFF	; 255
    222c:	88 30       	cpi	r24, 0x08	; 8
    222e:	30 f4       	brcc	.+12     	; 0x223c <ClearTxAfter+0x12>
    2230:	e8 2f       	mov	r30, r24
    2232:	f0 e0       	ldi	r31, 0x00	; 0
    2234:	e6 5b       	subi	r30, 0xB6	; 182
    2236:	f5 4c       	sbci	r31, 0xC5	; 197
    2238:	10 82       	st	Z, r1
    223a:	f7 cf       	rjmp	.-18     	; 0x222a <ClearTxAfter>
    223c:	08 95       	ret

0000223e <StartsWith>:
    223e:	ac 01       	movw	r20, r24
    2240:	90 e0       	ldi	r25, 0x00	; 0
    2242:	e9 2f       	mov	r30, r25
    2244:	f0 e0       	ldi	r31, 0x00	; 0
    2246:	da 01       	movw	r26, r20
    2248:	ae 0f       	add	r26, r30
    224a:	bf 1f       	adc	r27, r31
    224c:	3c 91       	ld	r19, X
    224e:	e6 0f       	add	r30, r22
    2250:	f7 1f       	adc	r31, r23
    2252:	31 11       	cpse	r19, r1
    2254:	05 c0       	rjmp	.+10     	; 0x2260 <StartsWith+0x22>
    2256:	81 e0       	ldi	r24, 0x01	; 1
    2258:	90 81       	ld	r25, Z
    225a:	99 23       	and	r25, r25
    225c:	49 f0       	breq	.+18     	; 0x2270 <StartsWith+0x32>
    225e:	07 c0       	rjmp	.+14     	; 0x226e <StartsWith+0x30>
    2260:	20 81       	ld	r18, Z
    2262:	22 23       	and	r18, r18
    2264:	c1 f3       	breq	.-16     	; 0x2256 <StartsWith+0x18>
    2266:	32 13       	cpse	r19, r18
    2268:	02 c0       	rjmp	.+4      	; 0x226e <StartsWith+0x30>
    226a:	9f 5f       	subi	r25, 0xFF	; 255
    226c:	ea cf       	rjmp	.-44     	; 0x2242 <StartsWith+0x4>
    226e:	80 e0       	ldi	r24, 0x00	; 0
    2270:	08 95       	ret

00002272 <PrepareSending>:
    2272:	cf 93       	push	r28
    2274:	df 93       	push	r29
    2276:	fc 01       	movw	r30, r24
    2278:	61 15       	cp	r22, r1
    227a:	71 05       	cpc	r23, r1
    227c:	59 f1       	breq	.+86     	; 0x22d4 <PrepareSending+0x62>
    227e:	a2 e5       	ldi	r26, 0x52	; 82
    2280:	ba e3       	ldi	r27, 0x3A	; 58
    2282:	ca e4       	ldi	r28, 0x4A	; 74
    2284:	da e3       	ldi	r29, 0x3A	; 58
    2286:	80 e0       	ldi	r24, 0x00	; 0
    2288:	9f ef       	ldi	r25, 0xFF	; 255
    228a:	6f 3f       	cpi	r22, 0xFF	; 255
    228c:	71 05       	cpc	r23, r1
    228e:	69 f0       	breq	.+26     	; 0x22aa <PrepareSending+0x38>
    2290:	60 f0       	brcs	.+24     	; 0x22aa <PrepareSending+0x38>
    2292:	ed 93       	st	X+, r30
    2294:	fd 93       	st	X+, r31
    2296:	99 93       	st	Y+, r25
    2298:	e1 50       	subi	r30, 0x01	; 1
    229a:	ff 4f       	sbci	r31, 0xFF	; 255
    229c:	6f 5f       	subi	r22, 0xFF	; 255
    229e:	71 09       	sbc	r23, r1
    22a0:	8f 5f       	subi	r24, 0xFF	; 255
    22a2:	87 30       	cpi	r24, 0x07	; 7
    22a4:	91 f7       	brne	.-28     	; 0x228a <PrepareSending+0x18>
    22a6:	81 e0       	ldi	r24, 0x01	; 1
    22a8:	1e c0       	rjmp	.+60     	; 0x22e6 <PrepareSending+0x74>
    22aa:	28 2f       	mov	r18, r24
    22ac:	30 e0       	ldi	r19, 0x00	; 0
    22ae:	d9 01       	movw	r26, r18
    22b0:	aa 0f       	add	r26, r26
    22b2:	bb 1f       	adc	r27, r27
    22b4:	ae 5a       	subi	r26, 0xAE	; 174
    22b6:	b5 4c       	sbci	r27, 0xC5	; 197
    22b8:	ed 93       	st	X+, r30
    22ba:	fc 93       	st	X, r31
    22bc:	6f 3f       	cpi	r22, 0xFF	; 255
    22be:	71 05       	cpc	r23, r1
    22c0:	11 f4       	brne	.+4      	; 0x22c6 <PrepareSending+0x54>
    22c2:	6e ef       	ldi	r22, 0xFE	; 254
    22c4:	70 e0       	ldi	r23, 0x00	; 0
    22c6:	f9 01       	movw	r30, r18
    22c8:	e6 5b       	subi	r30, 0xB6	; 182
    22ca:	f5 4c       	sbci	r31, 0xC5	; 197
    22cc:	60 83       	st	Z, r22
    22ce:	40 93 48 3a 	sts	0x3A48, r20	; 0x803a48 <txTypeNow>
    22d2:	05 c0       	rjmp	.+10     	; 0x22de <PrepareSending+0x6c>
    22d4:	10 92 52 3a 	sts	0x3A52, r1	; 0x803a52 <txAddrList>
    22d8:	10 92 53 3a 	sts	0x3A53, r1	; 0x803a53 <txAddrList+0x1>
    22dc:	80 e0       	ldi	r24, 0x00	; 0
    22de:	a5 df       	rcall	.-182    	; 0x222a <ClearTxAfter>
    22e0:	10 92 49 3a 	sts	0x3A49, r1	; 0x803a49 <txAddrNow>
    22e4:	80 e0       	ldi	r24, 0x00	; 0
    22e6:	df 91       	pop	r29
    22e8:	cf 91       	pop	r28
    22ea:	08 95       	ret

000022ec <SetStandardResponse>:
}

//
uint8_t SetStandardResponse(uint8_t custStrEnd){
    22ec:	cf 93       	push	r28
    22ee:	df 93       	push	r29
    return 0;
}

//
void SetResponse(uint8_t number, uint16_t address, uint16_t length, uint8_t type){
    reactStr[0][number]=address;
    22f0:	28 2f       	mov	r18, r24
    22f2:	30 e0       	ldi	r19, 0x00	; 0
    22f4:	f9 01       	movw	r30, r18
    22f6:	ee 0f       	add	r30, r30
    22f8:	ff 1f       	adc	r31, r31
    22fa:	e3 5e       	subi	r30, 0xE3	; 227
    22fc:	f6 4c       	sbci	r31, 0xC6	; 198
    22fe:	a9 e5       	ldi	r26, 0x59	; 89
    2300:	ba e7       	ldi	r27, 0x7A	; 122
    2302:	a0 83       	st	Z, r26
    2304:	b1 83       	std	Z+1, r27	; 0x01
    reactStr[1][number]=length;
    2306:	f9 01       	movw	r30, r18
    2308:	ee 0f       	add	r30, r30
    230a:	ff 1f       	adc	r31, r31
    230c:	e3 5a       	subi	r30, 0xA3	; 163
    230e:	f6 4c       	sbci	r31, 0xC6	; 198
    2310:	62 e0       	ldi	r22, 0x02	; 2
    2312:	70 e0       	ldi	r23, 0x00	; 0
    2314:	60 83       	st	Z, r22
    2316:	71 83       	std	Z+1, r23	; 0x01
    reactStr[2][number]=type;
    2318:	22 0f       	add	r18, r18
    231a:	33 1f       	adc	r19, r19
    231c:	f9 01       	movw	r30, r18
    231e:	e3 56       	subi	r30, 0x63	; 99
    2320:	f6 4c       	sbci	r31, 0xC6	; 198
    2322:	41 e0       	ldi	r20, 0x01	; 1
    2324:	50 e0       	ldi	r21, 0x00	; 0
    2326:	40 83       	st	Z, r20
    2328:	51 83       	std	Z+1, r21	; 0x01
    return 0;
}

//
void SetResponse(uint8_t number, uint16_t address, uint16_t length, uint8_t type){
    reactStr[0][number]=address;
    232a:	21 e0       	ldi	r18, 0x01	; 1
    232c:	28 0f       	add	r18, r24
    232e:	30 e0       	ldi	r19, 0x00	; 0
    2330:	f9 01       	movw	r30, r18
    2332:	ee 0f       	add	r30, r30
    2334:	ff 1f       	adc	r31, r31
    2336:	e3 5e       	subi	r30, 0xE3	; 227
    2338:	f6 4c       	sbci	r31, 0xC6	; 198
    233a:	c2 e6       	ldi	r28, 0x62	; 98
    233c:	da e7       	ldi	r29, 0x7A	; 122
    233e:	c0 83       	st	Z, r28
    2340:	d1 83       	std	Z+1, r29	; 0x01
    reactStr[1][number]=length;
    2342:	f9 01       	movw	r30, r18
    2344:	ee 0f       	add	r30, r30
    2346:	ff 1f       	adc	r31, r31
    2348:	e3 5a       	subi	r30, 0xA3	; 163
    234a:	f6 4c       	sbci	r31, 0xC6	; 198
    234c:	cc e0       	ldi	r28, 0x0C	; 12
    234e:	d0 e0       	ldi	r29, 0x00	; 0
    2350:	c0 83       	st	Z, r28
    2352:	d1 83       	std	Z+1, r29	; 0x01
    reactStr[2][number]=type;
    2354:	22 0f       	add	r18, r18
    2356:	33 1f       	adc	r19, r19
    2358:	f9 01       	movw	r30, r18
    235a:	e3 56       	subi	r30, 0x63	; 99
    235c:	f6 4c       	sbci	r31, 0xC6	; 198
    235e:	40 83       	st	Z, r20
    2360:	51 83       	std	Z+1, r21	; 0x01
//
uint8_t SetStandardResponse(uint8_t custStrEnd){

    SetResponse(custStrEnd++, A_LF, 2, TEASER);
    SetResponse(custStrEnd++, A_LOCATION, L_LOCATION, TEASER);
    reactStr[0][custStrEnd++] = CURR_LOC;
    2362:	e2 e0       	ldi	r30, 0x02	; 2
    2364:	e8 0f       	add	r30, r24
    2366:	f0 e0       	ldi	r31, 0x00	; 0
    2368:	ee 0f       	add	r30, r30
    236a:	ff 1f       	adc	r31, r31
    236c:	e3 5e       	subi	r30, 0xE3	; 227
    236e:	f6 4c       	sbci	r31, 0xC6	; 198
    2370:	20 ef       	ldi	r18, 0xF0	; 240
    2372:	3f ef       	ldi	r19, 0xFF	; 255
    2374:	20 83       	st	Z, r18
    2376:	31 83       	std	Z+1, r19	; 0x01
    return 0;
}

//
void SetResponse(uint8_t number, uint16_t address, uint16_t length, uint8_t type){
    reactStr[0][number]=address;
    2378:	23 e0       	ldi	r18, 0x03	; 3
    237a:	28 0f       	add	r18, r24
    237c:	30 e0       	ldi	r19, 0x00	; 0
    237e:	f9 01       	movw	r30, r18
    2380:	ee 0f       	add	r30, r30
    2382:	ff 1f       	adc	r31, r31
    2384:	e3 5e       	subi	r30, 0xE3	; 227
    2386:	f6 4c       	sbci	r31, 0xC6	; 198
    2388:	a0 83       	st	Z, r26
    238a:	b1 83       	std	Z+1, r27	; 0x01
    reactStr[1][number]=length;
    238c:	f9 01       	movw	r30, r18
    238e:	ee 0f       	add	r30, r30
    2390:	ff 1f       	adc	r31, r31
    2392:	e3 5a       	subi	r30, 0xA3	; 163
    2394:	f6 4c       	sbci	r31, 0xC6	; 198
    2396:	60 83       	st	Z, r22
    2398:	71 83       	std	Z+1, r23	; 0x01
    reactStr[2][number]=type;
    239a:	22 0f       	add	r18, r18
    239c:	33 1f       	adc	r19, r19
    239e:	f9 01       	movw	r30, r18
    23a0:	e3 56       	subi	r30, 0x63	; 99
    23a2:	f6 4c       	sbci	r31, 0xC6	; 198
    23a4:	40 83       	st	Z, r20
    23a6:	51 83       	std	Z+1, r21	; 0x01
    return 0;
}

//
void SetResponse(uint8_t number, uint16_t address, uint16_t length, uint8_t type){
    reactStr[0][number]=address;
    23a8:	24 e0       	ldi	r18, 0x04	; 4
    23aa:	28 0f       	add	r18, r24
    23ac:	30 e0       	ldi	r19, 0x00	; 0
    23ae:	f9 01       	movw	r30, r18
    23b0:	ee 0f       	add	r30, r30
    23b2:	ff 1f       	adc	r31, r31
    23b4:	e3 5e       	subi	r30, 0xE3	; 227
    23b6:	f6 4c       	sbci	r31, 0xC6	; 198
    23b8:	a5 e5       	ldi	r26, 0x55	; 85
    23ba:	ba e7       	ldi	r27, 0x7A	; 122
    23bc:	a0 83       	st	Z, r26
    23be:	b1 83       	std	Z+1, r27	; 0x01
    reactStr[1][number]=length;
    23c0:	f9 01       	movw	r30, r18
    23c2:	ee 0f       	add	r30, r30
    23c4:	ff 1f       	adc	r31, r31
    23c6:	e3 5a       	subi	r30, 0xA3	; 163
    23c8:	f6 4c       	sbci	r31, 0xC6	; 198
    23ca:	60 83       	st	Z, r22
    23cc:	71 83       	std	Z+1, r23	; 0x01
    reactStr[2][number]=type;
    23ce:	22 0f       	add	r18, r18
    23d0:	33 1f       	adc	r19, r19
    23d2:	f9 01       	movw	r30, r18
    23d4:	e3 56       	subi	r30, 0x63	; 99
    23d6:	f6 4c       	sbci	r31, 0xC6	; 198
    23d8:	40 83       	st	Z, r20
    23da:	51 83       	std	Z+1, r21	; 0x01
    reactStr[0][custStrEnd++] = CURR_LOC;
    SetResponse(custStrEnd++, A_LF, 2, TEASER);
    SetResponse(custStrEnd++, A_PROMPT, L_PROMPT, TEASER);

    return custStrEnd;
}
    23dc:	8b 5f       	subi	r24, 0xFB	; 251
    23de:	df 91       	pop	r29
    23e0:	cf 91       	pop	r28
    23e2:	08 95       	ret

000023e4 <PopulateObject>:

//Get all the relevant data and string addresses of an object
void PopulateObject(uint16_t offset, object_model_t *object){
    23e4:	af 92       	push	r10
    23e6:	bf 92       	push	r11
    23e8:	df 92       	push	r13
    23ea:	ef 92       	push	r14
    23ec:	ff 92       	push	r15
    23ee:	0f 93       	push	r16
    23f0:	1f 93       	push	r17
    23f2:	cf 93       	push	r28
    23f4:	df 93       	push	r29
    23f6:	cd b7       	in	r28, 0x3d	; 61
    23f8:	de b7       	in	r29, 0x3e	; 62
    23fa:	2c 97       	sbiw	r28, 0x0c	; 12
    23fc:	cd bf       	out	0x3d, r28	; 61
    23fe:	de bf       	out	0x3e, r29	; 62
    2400:	7c 01       	movw	r14, r24
    2402:	8b 01       	movw	r16, r22
    uint16_t parStr;
    offset += L_BOILER;

    //Fill things with fixed distance to offset
    uint8_t data[OFF_STRINGFLDS];
    ExtEERead(offset, OFF_STRINGFLDS, GAME, &data[0]);
    2404:	9e 01       	movw	r18, r28
    2406:	2f 5f       	subi	r18, 0xFF	; 255
    2408:	3f 4f       	sbci	r19, 0xFF	; 255
    240a:	40 e0       	ldi	r20, 0x00	; 0
    240c:	6c e0       	ldi	r22, 0x0C	; 12
    240e:	80 96       	adiw	r24, 0x20	; 32
    2410:	0e 94 4d 08 	call	0x109a	; 0x109a <ExtEERead>
    object->addrNextObj = (data[OFF_NEXTOBJ]<<8|data[OFF_NEXTOBJ+1])+L_BOILER;
    2414:	89 81       	ldd	r24, Y+1	; 0x01
    2416:	9a 81       	ldd	r25, Y+2	; 0x02
    2418:	98 27       	eor	r25, r24
    241a:	89 27       	eor	r24, r25
    241c:	98 27       	eor	r25, r24
    241e:	80 96       	adiw	r24, 0x20	; 32
    2420:	f8 01       	movw	r30, r16
    2422:	80 83       	st	Z, r24
    2424:	91 83       	std	Z+1, r25	; 0x01
    object->addrNextLvl = (data[OFF_NEXTLVL]<<8|data[OFF_NEXTLVL+1])+L_BOILER;
    2426:	8b 81       	ldd	r24, Y+3	; 0x03
    2428:	9c 81       	ldd	r25, Y+4	; 0x04
    242a:	98 27       	eor	r25, r24
    242c:	89 27       	eor	r24, r25
    242e:	98 27       	eor	r25, r24
    2430:	80 96       	adiw	r24, 0x20	; 32
    2432:	82 83       	std	Z+2, r24	; 0x02
    2434:	93 83       	std	Z+3, r25	; 0x03
    2436:	de 01       	movw	r26, r28
    2438:	15 96       	adiw	r26, 0x05	; 5
    243a:	34 96       	adiw	r30, 0x04	; 4
    243c:	c8 01       	movw	r24, r16
    243e:	0c 96       	adiw	r24, 0x0c	; 12
    for (uint8_t x=0; x<BYTE_FIELDS_LEN; ++x){
        object->byteField[x]=data[x+OFF_BYTEFLDS];
    2440:	2d 91       	ld	r18, X+
    2442:	21 93       	st	Z+, r18
    //Fill things with fixed distance to offset
    uint8_t data[OFF_STRINGFLDS];
    ExtEERead(offset, OFF_STRINGFLDS, GAME, &data[0]);
    object->addrNextObj = (data[OFF_NEXTOBJ]<<8|data[OFF_NEXTOBJ+1])+L_BOILER;
    object->addrNextLvl = (data[OFF_NEXTLVL]<<8|data[OFF_NEXTLVL+1])+L_BOILER;
    for (uint8_t x=0; x<BYTE_FIELDS_LEN; ++x){
    2444:	e8 17       	cp	r30, r24
    2446:	f9 07       	cpc	r31, r25
    2448:	d9 f7       	brne	.-10     	; 0x2440 <PopulateObject+0x5c>
        object->byteField[x]=data[x+OFF_BYTEFLDS];
    }

    //Find out where all of the strings begin and how long they are
    offset += OFF_STRINGFLDS;
    244a:	fc e2       	ldi	r31, 0x2C	; 44
    244c:	ef 0e       	add	r14, r31
    244e:	f1 1c       	adc	r15, r1
    2450:	58 01       	movw	r10, r16
    for(uint8_t x=0; x<STRING_FIELDS_LEN; ++x){
    2452:	d1 2c       	mov	r13, r1
        
        //Determine length
        ExtEERead(offset, 3, GAME, &data[0]);
    2454:	9e 01       	movw	r18, r28
    2456:	2f 5f       	subi	r18, 0xFF	; 255
    2458:	3f 4f       	sbci	r19, 0xFF	; 255
    245a:	40 e0       	ldi	r20, 0x00	; 0
    245c:	63 e0       	ldi	r22, 0x03	; 3
    245e:	c7 01       	movw	r24, r14
    2460:	0e 94 4d 08 	call	0x109a	; 0x109a <ExtEERead>
    2464:	89 81       	ldd	r24, Y+1	; 0x01
    2466:	9a 81       	ldd	r25, Y+2	; 0x02
    2468:	98 27       	eor	r25, r24
    246a:	89 27       	eor	r24, r25
    246c:	98 27       	eor	r25, r24
        parStr = (data[0]<<8|data[1]);
        offset += 2;
    246e:	97 01       	movw	r18, r14
    2470:	2e 5f       	subi	r18, 0xFE	; 254
    2472:	3f 4f       	sbci	r19, 0xFF	; 255
        if (x >= OPEN_ACL_MSG){
    2474:	43 e0       	ldi	r20, 0x03	; 3
    2476:	4d 15       	cp	r20, r13
    2478:	80 f4       	brcc	.+32     	; 0x249a <PopulateObject+0xb6>
            object->lenStr[x]= parStr-1;
    247a:	ac 01       	movw	r20, r24
    247c:	41 50       	subi	r20, 0x01	; 1
    247e:	51 09       	sbc	r21, r1
    2480:	f8 01       	movw	r30, r16
    2482:	42 8f       	std	Z+26, r20	; 0x1a
    2484:	53 8f       	std	Z+27, r21	; 0x1b
            object->addrStr[x]=offset+1;
    2486:	f3 e0       	ldi	r31, 0x03	; 3
    2488:	ef 0e       	add	r14, r31
    248a:	f1 1c       	adc	r15, r1
    248c:	f8 01       	movw	r30, r16
    248e:	e4 86       	std	Z+12, r14	; 0x0c
    2490:	f5 86       	std	Z+13, r15	; 0x0d
            object->effect[x-OPEN_ACL_MSG] = data[2];
    2492:	4b 81       	ldd	r20, Y+3	; 0x03
    2494:	f5 01       	movw	r30, r10
    2496:	44 a3       	std	Z+36, r20	; 0x24
    2498:	05 c0       	rjmp	.+10     	; 0x24a4 <PopulateObject+0xc0>
        } else {
            object->lenStr[x]= parStr;
    249a:	f8 01       	movw	r30, r16
    249c:	82 8f       	std	Z+26, r24	; 0x1a
    249e:	93 8f       	std	Z+27, r25	; 0x1b
            object->addrStr[x]=offset;
    24a0:	24 87       	std	Z+12, r18	; 0x0c
    24a2:	35 87       	std	Z+13, r19	; 0x0d
        }
        
        //Determine string start location for next field
        offset += parStr;
    24a4:	7c 01       	movw	r14, r24
    24a6:	e2 0e       	add	r14, r18
    24a8:	f3 1e       	adc	r15, r19
        object->byteField[x]=data[x+OFF_BYTEFLDS];
    }

    //Find out where all of the strings begin and how long they are
    offset += OFF_STRINGFLDS;
    for(uint8_t x=0; x<STRING_FIELDS_LEN; ++x){
    24aa:	d3 94       	inc	r13
    24ac:	0e 5f       	subi	r16, 0xFE	; 254
    24ae:	1f 4f       	sbci	r17, 0xFF	; 255
    24b0:	ff ef       	ldi	r31, 0xFF	; 255
    24b2:	af 1a       	sub	r10, r31
    24b4:	bf 0a       	sbc	r11, r31
    24b6:	47 e0       	ldi	r20, 0x07	; 7
    24b8:	d4 12       	cpse	r13, r20
    24ba:	cc cf       	rjmp	.-104    	; 0x2454 <PopulateObject+0x70>
        }
        
        //Determine string start location for next field
        offset += parStr;
    }    
}
    24bc:	2c 96       	adiw	r28, 0x0c	; 12
    24be:	cd bf       	out	0x3d, r28	; 61
    24c0:	de bf       	out	0x3e, r29	; 62
    24c2:	df 91       	pop	r29
    24c4:	cf 91       	pop	r28
    24c6:	1f 91       	pop	r17
    24c8:	0f 91       	pop	r16
    24ca:	ff 90       	pop	r15
    24cc:	ef 90       	pop	r14
    24ce:	df 90       	pop	r13
    24d0:	bf 90       	pop	r11
    24d2:	af 90       	pop	r10
    24d4:	08 95       	ret

000024d6 <CheckLetter>:

//Check if the entered letter corresponds with a name
uint8_t CheckLetter(uint16_t object, uint8_t letter){
    24d6:	cf 92       	push	r12
    24d8:	df 92       	push	r13
    24da:	ef 92       	push	r14
    24dc:	ff 92       	push	r15
    24de:	0f 93       	push	r16
    24e0:	1f 93       	push	r17
    24e2:	cf 93       	push	r28
    24e4:	df 93       	push	r29
    24e6:	cd b7       	in	r28, 0x3d	; 61
    24e8:	de b7       	in	r29, 0x3e	; 62
    24ea:	a0 97       	sbiw	r28, 0x20	; 32
    24ec:	cd bf       	out	0x3d, r28	; 61
    24ee:	de bf       	out	0x3e, r29	; 62
    24f0:	c6 2e       	mov	r12, r22
    
    uint8_t found = 0;
    uint8_t data[32];

    object += L_BOILER;
    24f2:	7c 01       	movw	r14, r24
    24f4:	20 e2       	ldi	r18, 0x20	; 32
    24f6:	e2 0e       	add	r14, r18
    24f8:	f1 1c       	adc	r15, r1
    ExtEERead(object+OFF_STRINGFLDS, 2, GAME, &data[0]);
    24fa:	9e 01       	movw	r18, r28
    24fc:	2f 5f       	subi	r18, 0xFF	; 255
    24fe:	3f 4f       	sbci	r19, 0xFF	; 255
    2500:	40 e0       	ldi	r20, 0x00	; 0
    2502:	62 e0       	ldi	r22, 0x02	; 2
    2504:	8c 96       	adiw	r24, 0x2c	; 44
    2506:	0e 94 4d 08 	call	0x109a	; 0x109a <ExtEERead>
    uint8_t x = data[1]; //Assuming a name is not longer than 255 characters.
    250a:	1a 81       	ldd	r17, Y+2	; 0x02
}

//Check if the entered letter corresponds with a name
uint8_t CheckLetter(uint16_t object, uint8_t letter){
    
    uint8_t found = 0;
    250c:	d1 2c       	mov	r13, r1

    object += L_BOILER;
    ExtEERead(object+OFF_STRINGFLDS, 2, GAME, &data[0]);
    uint8_t x = data[1]; //Assuming a name is not longer than 255 characters.

    while (x){
    250e:	11 23       	and	r17, r17
    2510:	59 f1       	breq	.+86     	; 0x2568 <CheckLetter+0x92>
    2512:	01 2f       	mov	r16, r17
    2514:	11 32       	cpi	r17, 0x21	; 33
    2516:	08 f0       	brcs	.+2      	; 0x251a <CheckLetter+0x44>
    2518:	00 e2       	ldi	r16, 0x20	; 32
        uint8_t max;
        if (x>32) max = 32; else max = x;
        ExtEERead(object+OFF_STRINGFLDS+2, max, GAME, &data[0]);
    251a:	9e 01       	movw	r18, r28
    251c:	2f 5f       	subi	r18, 0xFF	; 255
    251e:	3f 4f       	sbci	r19, 0xFF	; 255
    2520:	40 e0       	ldi	r20, 0x00	; 0
    2522:	60 2f       	mov	r22, r16
    2524:	c7 01       	movw	r24, r14
    2526:	0e 96       	adiw	r24, 0x0e	; 14
    2528:	0e 94 4d 08 	call	0x109a	; 0x109a <ExtEERead>
    252c:	fe 01       	movw	r30, r28
    252e:	31 96       	adiw	r30, 0x01	; 1
        for (uint8_t y=0; y<max; ++y){
    2530:	80 e0       	ldi	r24, 0x00	; 0
            if (found){
    2532:	dd 20       	and	r13, r13
    2534:	61 f0       	breq	.+24     	; 0x254e <CheckLetter+0x78>
                if ((data[y]|0x20) == letter) return 1; else return 0;
    2536:	e1 e0       	ldi	r30, 0x01	; 1
    2538:	f0 e0       	ldi	r31, 0x00	; 0
    253a:	ec 0f       	add	r30, r28
    253c:	fd 1f       	adc	r31, r29
    253e:	e8 0f       	add	r30, r24
    2540:	f1 1d       	adc	r31, r1
    2542:	90 81       	ld	r25, Z
    2544:	90 62       	ori	r25, 0x20	; 32
    2546:	81 e0       	ldi	r24, 0x01	; 1
    2548:	9c 11       	cpse	r25, r12
    254a:	0e c0       	rjmp	.+28     	; 0x2568 <CheckLetter+0x92>
    254c:	0e c0       	rjmp	.+28     	; 0x256a <CheckLetter+0x94>
            }
            if (data[y] == '[') found = 1;
    254e:	91 91       	ld	r25, Z+
    2550:	dd 24       	eor	r13, r13
    2552:	d3 94       	inc	r13
    2554:	9b 35       	cpi	r25, 0x5B	; 91
    2556:	09 f0       	breq	.+2      	; 0x255a <CheckLetter+0x84>
    2558:	d1 2c       	mov	r13, r1

    while (x){
        uint8_t max;
        if (x>32) max = 32; else max = x;
        ExtEERead(object+OFF_STRINGFLDS+2, max, GAME, &data[0]);
        for (uint8_t y=0; y<max; ++y){
    255a:	8f 5f       	subi	r24, 0xFF	; 255
    255c:	80 17       	cp	r24, r16
    255e:	48 f3       	brcs	.-46     	; 0x2532 <CheckLetter+0x5c>
            if (found){
                if ((data[y]|0x20) == letter) return 1; else return 0;
            }
            if (data[y] == '[') found = 1;
        }
        object += max;
    2560:	e0 0e       	add	r14, r16
    2562:	f1 1c       	adc	r15, r1
        x -= max;
    2564:	10 1b       	sub	r17, r16
    2566:	d3 cf       	rjmp	.-90     	; 0x250e <CheckLetter+0x38>
    }
    return 0;
    2568:	80 e0       	ldi	r24, 0x00	; 0
}
    256a:	a0 96       	adiw	r28, 0x20	; 32
    256c:	cd bf       	out	0x3d, r28	; 61
    256e:	de bf       	out	0x3e, r29	; 62
    2570:	df 91       	pop	r29
    2572:	cf 91       	pop	r28
    2574:	1f 91       	pop	r17
    2576:	0f 91       	pop	r16
    2578:	ff 90       	pop	r15
    257a:	ef 90       	pop	r14
    257c:	df 90       	pop	r13
    257e:	cf 90       	pop	r12
    2580:	08 95       	ret

00002582 <FindChild>:

//Returns the child's address if the child is visible and the search letter matches
uint16_t FindChild(uint16_t parent, uint8_t letter, uint16_t start){
    2582:	af 92       	push	r10
    2584:	bf 92       	push	r11
    2586:	df 92       	push	r13
    2588:	ef 92       	push	r14
    258a:	ff 92       	push	r15
    258c:	0f 93       	push	r16
    258e:	1f 93       	push	r17
    2590:	cf 93       	push	r28
    2592:	df 93       	push	r29
    2594:	00 d0       	rcall	.+0      	; 0x2596 <FindChild+0x14>
    2596:	00 d0       	rcall	.+0      	; 0x2598 <FindChild+0x16>
    2598:	cd b7       	in	r28, 0x3d	; 61
    259a:	de b7       	in	r29, 0x3e	; 62
    259c:	d6 2e       	mov	r13, r22
    259e:	5a 01       	movw	r10, r20
    
    uint16_t child = parent;
    uint8_t data[4];

    ExtEERead(child+L_BOILER, 4, GAME, &data[0]);
    25a0:	9e 01       	movw	r18, r28
    25a2:	2f 5f       	subi	r18, 0xFF	; 255
    25a4:	3f 4f       	sbci	r19, 0xFF	; 255
    25a6:	40 e0       	ldi	r20, 0x00	; 0
    25a8:	64 e0       	ldi	r22, 0x04	; 4
    25aa:	80 96       	adiw	r24, 0x20	; 32
    25ac:	0e 94 4d 08 	call	0x109a	; 0x109a <ExtEERead>
    25b0:	e9 80       	ldd	r14, Y+1	; 0x01
    25b2:	fa 80       	ldd	r15, Y+2	; 0x02
    25b4:	fe 24       	eor	r15, r14
    25b6:	ef 24       	eor	r14, r15
    25b8:	fe 24       	eor	r15, r14
    25ba:	0b 81       	ldd	r16, Y+3	; 0x03
    25bc:	1c 81       	ldd	r17, Y+4	; 0x04
    25be:	10 27       	eor	r17, r16
    25c0:	01 27       	eor	r16, r17
    25c2:	10 27       	eor	r17, r16
    parent = (data[0]<<8|data[1]);    //Next object on parent level
    child =  (data[2]<<8|data[3]);    //First object on child level

    //As long as the child is within the parent's range
    while (parent>child){
    25c4:	0e 15       	cp	r16, r14
    25c6:	1f 05       	cpc	r17, r15
    25c8:	48 f5       	brcc	.+82     	; 0x261c <FindChild+0x9a>

        //If child's address is higher than the start address, perform search for letter
        if (child>start){
    25ca:	a0 16       	cp	r10, r16
    25cc:	b1 06       	cpc	r11, r17
    25ce:	60 f0       	brcs	.+24     	; 0x25e8 <FindChild+0x66>
                if ((letter == 0)||(CheckLetter(child, letter))) return child;
            }
        }

        //Not visible or name not right
        ExtEERead(child+L_BOILER, 2, GAME, &data[0]);
    25d0:	9e 01       	movw	r18, r28
    25d2:	2f 5f       	subi	r18, 0xFF	; 255
    25d4:	3f 4f       	sbci	r19, 0xFF	; 255
    25d6:	40 e0       	ldi	r20, 0x00	; 0
    25d8:	62 e0       	ldi	r22, 0x02	; 2
    25da:	c8 01       	movw	r24, r16
    25dc:	80 96       	adiw	r24, 0x20	; 32
    25de:	0e 94 4d 08 	call	0x109a	; 0x109a <ExtEERead>
    25e2:	09 81       	ldd	r16, Y+1	; 0x01
    25e4:	1a 81       	ldd	r17, Y+2	; 0x02
    25e6:	eb cf       	rjmp	.-42     	; 0x25be <FindChild+0x3c>
    //As long as the child is within the parent's range
    while (parent>child){

        //If child's address is higher than the start address, perform search for letter
        if (child>start){
            ExtEERead(child+OFF_BYTEFLDS+VISIBLE_ACL+L_BOILER, 1, GAME, &data[0]);
    25e8:	9e 01       	movw	r18, r28
    25ea:	2f 5f       	subi	r18, 0xFF	; 255
    25ec:	3f 4f       	sbci	r19, 0xFF	; 255
    25ee:	40 e0       	ldi	r20, 0x00	; 0
    25f0:	61 e0       	ldi	r22, 0x01	; 1
    25f2:	c8 01       	movw	r24, r16
    25f4:	85 96       	adiw	r24, 0x25	; 37
    25f6:	0e 94 4d 08 	call	0x109a	; 0x109a <ExtEERead>
            if ((data[0] == 0)||(CheckState(data[0]))) {
    25fa:	89 81       	ldd	r24, Y+1	; 0x01
    25fc:	81 11       	cpse	r24, r1
    25fe:	03 c0       	rjmp	.+6      	; 0x2606 <FindChild+0x84>
                if ((letter == 0)||(CheckLetter(child, letter))) return child;
    2600:	d1 10       	cpse	r13, r1
    2602:	06 c0       	rjmp	.+12     	; 0x2610 <FindChild+0x8e>
    2604:	0e c0       	rjmp	.+28     	; 0x2622 <FindChild+0xa0>
    while (parent>child){

        //If child's address is higher than the start address, perform search for letter
        if (child>start){
            ExtEERead(child+OFF_BYTEFLDS+VISIBLE_ACL+L_BOILER, 1, GAME, &data[0]);
            if ((data[0] == 0)||(CheckState(data[0]))) {
    2606:	0e 94 18 0a 	call	0x1430	; 0x1430 <CheckState>
    260a:	81 11       	cpse	r24, r1
    260c:	f9 cf       	rjmp	.-14     	; 0x2600 <FindChild+0x7e>
    260e:	e0 cf       	rjmp	.-64     	; 0x25d0 <FindChild+0x4e>
                if ((letter == 0)||(CheckLetter(child, letter))) return child;
    2610:	6d 2d       	mov	r22, r13
    2612:	c8 01       	movw	r24, r16
    2614:	60 df       	rcall	.-320    	; 0x24d6 <CheckLetter>
    2616:	88 23       	and	r24, r24
    2618:	d9 f2       	breq	.-74     	; 0x25d0 <FindChild+0x4e>
    261a:	03 c0       	rjmp	.+6      	; 0x2622 <FindChild+0xa0>

        //Not visible or name not right
        ExtEERead(child+L_BOILER, 2, GAME, &data[0]);
        child = (data[0]<<8|data[1]);    //Next object on child level
        
    } return 0;
    261c:	80 e0       	ldi	r24, 0x00	; 0
    261e:	90 e0       	ldi	r25, 0x00	; 0
    2620:	01 c0       	rjmp	.+2      	; 0x2624 <FindChild+0xa2>
    2622:	c8 01       	movw	r24, r16
}
    2624:	24 96       	adiw	r28, 0x04	; 4
    2626:	cd bf       	out	0x3d, r28	; 61
    2628:	de bf       	out	0x3e, r29	; 62
    262a:	df 91       	pop	r29
    262c:	cf 91       	pop	r28
    262e:	1f 91       	pop	r17
    2630:	0f 91       	pop	r16
    2632:	ff 90       	pop	r15
    2634:	ef 90       	pop	r14
    2636:	df 90       	pop	r13
    2638:	bf 90       	pop	r11
    263a:	af 90       	pop	r10
    263c:	08 95       	ret

0000263e <InpOkChk>:

//Allow only a(A) to z(Z) and 0 to 9 as input
uint8_t InpOkChk(uint8_t test){
    test |= 0x20;
    263e:	80 62       	ori	r24, 0x20	; 32
    if ((test>='a')&&(test<='z')) return 1;
    2640:	9f e9       	ldi	r25, 0x9F	; 159
    2642:	98 0f       	add	r25, r24
    2644:	9a 31       	cpi	r25, 0x1A	; 26
    2646:	38 f0       	brcs	.+14     	; 0x2656 <InpOkChk+0x18>
    2648:	90 ed       	ldi	r25, 0xD0	; 208
    264a:	98 0f       	add	r25, r24
    264c:	81 e0       	ldi	r24, 0x01	; 1
    264e:	9a 30       	cpi	r25, 0x0A	; 10
    2650:	18 f0       	brcs	.+6      	; 0x2658 <InpOkChk+0x1a>
    2652:	80 e0       	ldi	r24, 0x00	; 0
    2654:	08 95       	ret
    2656:	81 e0       	ldi	r24, 0x01	; 1
    if ((test>='0')&&(test<='9')) return 1;
    return 0;
}
    2658:	08 95       	ret

0000265a <CleanInput>:

//Cleans input of garbage and returns length of cleaned input "o->d2  !\0" becomes "od2\0"
uint8_t CleanInput(uint8_t *data){
    265a:	0f 93       	push	r16
    265c:	1f 93       	push	r17
    265e:	cf 93       	push	r28
    2660:	df 93       	push	r29
    2662:	8c 01       	movw	r16, r24
    uint8_t cnt = 0;
    for (uint8_t x=0; data[x]!=0; ++x){
    2664:	d0 e0       	ldi	r29, 0x00	; 0
    return 0;
}

//Cleans input of garbage and returns length of cleaned input "o->d2  !\0" becomes "od2\0"
uint8_t CleanInput(uint8_t *data){
    uint8_t cnt = 0;
    2666:	c0 e0       	ldi	r28, 0x00	; 0
    for (uint8_t x=0; data[x]!=0; ++x){
    2668:	f8 01       	movw	r30, r16
    266a:	ed 0f       	add	r30, r29
    266c:	f1 1d       	adc	r31, r1
    266e:	20 81       	ld	r18, Z
    2670:	8c 2f       	mov	r24, r28
    2672:	90 e0       	ldi	r25, 0x00	; 0
    2674:	22 23       	and	r18, r18
    2676:	51 f0       	breq	.+20     	; 0x268c <CleanInput+0x32>
        data[cnt] = data[x];
    2678:	d8 01       	movw	r26, r16
    267a:	a8 0f       	add	r26, r24
    267c:	b9 1f       	adc	r27, r25
    267e:	2c 93       	st	X, r18
        if (InpOkChk(data[x])) ++cnt;
    2680:	80 81       	ld	r24, Z
    2682:	dd df       	rcall	.-70     	; 0x263e <InpOkChk>
    2684:	81 11       	cpse	r24, r1
    2686:	cf 5f       	subi	r28, 0xFF	; 255
}

//Cleans input of garbage and returns length of cleaned input "o->d2  !\0" becomes "od2\0"
uint8_t CleanInput(uint8_t *data){
    uint8_t cnt = 0;
    for (uint8_t x=0; data[x]!=0; ++x){
    2688:	df 5f       	subi	r29, 0xFF	; 255
    268a:	ee cf       	rjmp	.-36     	; 0x2668 <CleanInput+0xe>
        data[cnt] = data[x];
        if (InpOkChk(data[x])) ++cnt;
    }
    data[cnt] = 0;
    268c:	f8 01       	movw	r30, r16
    268e:	e8 0f       	add	r30, r24
    2690:	f9 1f       	adc	r31, r25
    2692:	10 82       	st	Z, r1
    return cnt;
}
    2694:	8c 2f       	mov	r24, r28
    2696:	df 91       	pop	r29
    2698:	cf 91       	pop	r28
    269a:	1f 91       	pop	r17
    269c:	0f 91       	pop	r16
    269e:	08 95       	ret

000026a0 <CheckSend>:

//Send routine, optimized for low memory usage
uint8_t CheckSend(){
    26a0:	cf 93       	push	r28
    /*if (effect == 0){
        effect = currObj.byteField[EFFECTS];
    }*/

    //Check if more string(part)s have to be sent to the serial output if previous send operation is completed
    if ((txAddrNow < TXLISTLEN) && serTxDone){
    26a2:	20 91 49 3a 	lds	r18, 0x3A49	; 0x803a49 <txAddrNow>
    26a6:	28 30       	cpi	r18, 0x08	; 8
    26a8:	08 f0       	brcs	.+2      	; 0x26ac <CheckSend+0xc>
    26aa:	49 c0       	rjmp	.+146    	; 0x273e <CheckSend+0x9e>
    26ac:	80 91 09 38 	lds	r24, 0x3809	; 0x803809 <serTxDone>
    26b0:	88 23       	and	r24, r24
    26b2:	09 f4       	brne	.+2      	; 0x26b6 <CheckSend+0x16>
    26b4:	44 c0       	rjmp	.+136    	; 0x273e <CheckSend+0x9e>
        if (txStrLen[txAddrNow] == 0){
    26b6:	82 2f       	mov	r24, r18
    26b8:	90 e0       	ldi	r25, 0x00	; 0
    26ba:	fc 01       	movw	r30, r24
    26bc:	e6 5b       	subi	r30, 0xB6	; 182
    26be:	f5 4c       	sbci	r31, 0xC5	; 197
    26c0:	e0 81       	ld	r30, Z
    26c2:	e1 11       	cpse	r30, r1
    26c4:	06 c0       	rjmp	.+12     	; 0x26d2 <CheckSend+0x32>
            txPart = 0;
    26c6:	10 92 08 39 	sts	0x3908, r1	; 0x803908 <txPart.3937>
            txAddrNow = TXLISTLEN;
    26ca:	88 e0       	ldi	r24, 0x08	; 8
    26cc:	80 93 49 3a 	sts	0x3A49, r24	; 0x803a49 <txAddrNow>
    26d0:	2e c0       	rjmp	.+92     	; 0x272e <CheckSend+0x8e>
        } else if (txPart < txStrLen[txAddrNow]){
    26d2:	50 91 08 39 	lds	r21, 0x3908	; 0x803908 <txPart.3937>
    26d6:	5e 17       	cp	r21, r30
    26d8:	60 f5       	brcc	.+88     	; 0x2732 <CheckSend+0x92>
            EEreadLength = txStrLen[txAddrNow]-txPart;
    26da:	ce 2f       	mov	r28, r30
    26dc:	c5 1b       	sub	r28, r21
    26de:	c1 32       	cpi	r28, 0x21	; 33
    26e0:	08 f0       	brcs	.+2      	; 0x26e4 <CheckSend+0x44>
    26e2:	c0 e2       	ldi	r28, 0x20	; 32
            if (EEreadLength>=TXLEN) EEreadLength = TXLEN-1;
            ExtEERead(txAddrList[txAddrNow]+txPart, EEreadLength, txTypeNow, &txBuffer[0]);
    26e4:	88 0f       	add	r24, r24
    26e6:	99 1f       	adc	r25, r25
    26e8:	fc 01       	movw	r30, r24
    26ea:	ee 5a       	subi	r30, 0xAE	; 174
    26ec:	f5 4c       	sbci	r31, 0xC5	; 197
    26ee:	80 81       	ld	r24, Z
    26f0:	91 81       	ldd	r25, Z+1	; 0x01
    26f2:	23 ef       	ldi	r18, 0xF3	; 243
    26f4:	3a e3       	ldi	r19, 0x3A	; 58
    26f6:	40 91 48 3a 	lds	r20, 0x3A48	; 0x803a48 <txTypeNow>
    26fa:	6c 2f       	mov	r22, r28
    26fc:	85 0f       	add	r24, r21
    26fe:	91 1d       	adc	r25, r1
    2700:	0e 94 4d 08 	call	0x109a	; 0x109a <ExtEERead>
            txPart += EEreadLength;
    2704:	80 91 08 39 	lds	r24, 0x3908	; 0x803908 <txPart.3937>
    2708:	8c 0f       	add	r24, r28
    270a:	80 93 08 39 	sts	0x3908, r24	; 0x803908 <txPart.3937>
            txBuffer[EEreadLength] = 0; //Add string terminator after piece to send to plug memory leak
    270e:	ec 2f       	mov	r30, r28
    2710:	f0 e0       	ldi	r31, 0x00	; 0
    2712:	ed 50       	subi	r30, 0x0D	; 13
    2714:	f5 4c       	sbci	r31, 0xC5	; 197
    2716:	10 82       	st	Z, r1
            if ((txBuffer[0] == 0) && (EEreadLength)) txBuffer[0] = 0xDB; //Block character when data wrong.
    2718:	80 91 f3 3a 	lds	r24, 0x3AF3	; 0x803af3 <txBuffer>
    271c:	81 11       	cpse	r24, r1
    271e:	03 c0       	rjmp	.+6      	; 0x2726 <CheckSend+0x86>
    2720:	8b ed       	ldi	r24, 0xDB	; 219
    2722:	80 93 f3 3a 	sts	0x3AF3, r24	; 0x803af3 <txBuffer>
            SerSend(&txBuffer[0]);
    2726:	83 ef       	ldi	r24, 0xF3	; 243
    2728:	9a e3       	ldi	r25, 0x3A	; 58
    272a:	0e 94 7f 08 	call	0x10fe	; 0x10fe <SerSend>
        } else {
            txPart = 0;
            ++txAddrNow;
        }
    } else if (serTxDone) return 0; //All is sent!
    return 1; //Still sending, do not change the data in the tx variables
    272e:	81 e0       	ldi	r24, 0x01	; 1
    2730:	0b c0       	rjmp	.+22     	; 0x2748 <CheckSend+0xa8>
            txPart += EEreadLength;
            txBuffer[EEreadLength] = 0; //Add string terminator after piece to send to plug memory leak
            if ((txBuffer[0] == 0) && (EEreadLength)) txBuffer[0] = 0xDB; //Block character when data wrong.
            SerSend(&txBuffer[0]);
        } else {
            txPart = 0;
    2732:	10 92 08 39 	sts	0x3908, r1	; 0x803908 <txPart.3937>
            ++txAddrNow;
    2736:	2f 5f       	subi	r18, 0xFF	; 255
    2738:	20 93 49 3a 	sts	0x3A49, r18	; 0x803a49 <txAddrNow>
    273c:	f8 cf       	rjmp	.-16     	; 0x272e <CheckSend+0x8e>
        }
    } else if (serTxDone) return 0; //All is sent!
    273e:	90 91 09 38 	lds	r25, 0x3809	; 0x803809 <serTxDone>
    2742:	81 e0       	ldi	r24, 0x01	; 1
    2744:	91 11       	cpse	r25, r1
    2746:	80 e0       	ldi	r24, 0x00	; 0
    return 1; //Still sending, do not change the data in the tx variables
}
    2748:	cf 91       	pop	r28
    274a:	08 95       	ret

0000274c <CheckResponse>:

//Send another part of the response and play the effect afterwards
uint8_t CheckResponse(){
    274c:	cf 93       	push	r28
    274e:	df 93       	push	r29
    static uint8_t number = 0;
    if (responseList){
    2750:	c0 91 1c 39 	lds	r28, 0x391C	; 0x80391c <responseList>
    2754:	cc 23       	and	r28, r28
    2756:	b1 f1       	breq	.+108    	; 0x27c4 <CheckResponse+0x78>
        --responseList;
    2758:	c1 50       	subi	r28, 0x01	; 1
    275a:	c0 93 1c 39 	sts	0x391C, r28	; 0x80391c <responseList>
        if (reactStr[0][number] == CURR_LOC) {
    275e:	d0 91 07 39 	lds	r29, 0x3907	; 0x803907 <number.3941>
    2762:	2d 2f       	mov	r18, r29
    2764:	30 e0       	ldi	r19, 0x00	; 0
    2766:	f9 01       	movw	r30, r18
    2768:	ee 0f       	add	r30, r30
    276a:	ff 1f       	adc	r31, r31
    276c:	e3 5e       	subi	r30, 0xE3	; 227
    276e:	f6 4c       	sbci	r31, 0xC6	; 198
    2770:	80 81       	ld	r24, Z
    2772:	91 81       	ldd	r25, Z+1	; 0x01
    2774:	80 3f       	cpi	r24, 0xF0	; 240
    2776:	4f ef       	ldi	r20, 0xFF	; 255
    2778:	94 07       	cpc	r25, r20
    277a:	51 f4       	brne	.+20     	; 0x2790 <CheckResponse+0x44>
            PrepareSending(currObj.addrStr[NAME], currObj.lenStr[NAME], GAME);
    277c:	60 91 37 3a 	lds	r22, 0x3A37	; 0x803a37 <currObj+0x1a>
    2780:	70 91 38 3a 	lds	r23, 0x3A38	; 0x803a38 <currObj+0x1b>
    2784:	40 e0       	ldi	r20, 0x00	; 0
    2786:	80 91 29 3a 	lds	r24, 0x3A29	; 0x803a29 <currObj+0xc>
    278a:	90 91 2a 3a 	lds	r25, 0x3A2A	; 0x803a2a <currObj+0xd>
    278e:	0d c0       	rjmp	.+26     	; 0x27aa <CheckResponse+0x5e>
        } else {
            PrepareSending(reactStr[0][number], reactStr[1][number], reactStr[2][number]);
    2790:	d9 01       	movw	r26, r18
    2792:	aa 0f       	add	r26, r26
    2794:	bb 1f       	adc	r27, r27
    2796:	a3 56       	subi	r26, 0x63	; 99
    2798:	b6 4c       	sbci	r27, 0xC6	; 198
    279a:	22 0f       	add	r18, r18
    279c:	33 1f       	adc	r19, r19
    279e:	f9 01       	movw	r30, r18
    27a0:	e3 5a       	subi	r30, 0xA3	; 163
    27a2:	f6 4c       	sbci	r31, 0xC6	; 198
    27a4:	60 81       	ld	r22, Z
    27a6:	71 81       	ldd	r23, Z+1	; 0x01
    27a8:	4c 91       	ld	r20, X
    27aa:	63 dd       	rcall	.-1338   	; 0x2272 <PrepareSending>
        }
        number++;
    27ac:	df 5f       	subi	r29, 0xFF	; 255
    27ae:	d0 93 07 39 	sts	0x3907, r29	; 0x803907 <number.3941>

        if (responseList == 0) {
    27b2:	c1 11       	cpse	r28, r1
    27b4:	06 c0       	rjmp	.+12     	; 0x27c2 <CheckResponse+0x76>
            //effect = currObj.byteField[EFFECTS];
            RXCNT = 0;
    27b6:	1d ba       	out	0x1d, r1	; 29
            serRxDone = 0;
    27b8:	10 92 46 38 	sts	0x3846, r1	; 0x803846 <serRxDone>
            number = 0;
    27bc:	10 92 07 39 	sts	0x3907, r1	; 0x803907 <number.3941>
    27c0:	01 c0       	rjmp	.+2      	; 0x27c4 <CheckResponse+0x78>
            return 0;
        }
        return 1;
    27c2:	c1 e0       	ldi	r28, 0x01	; 1
    }
    return 0;
}
    27c4:	8c 2f       	mov	r24, r28
    27c6:	df 91       	pop	r29
    27c8:	cf 91       	pop	r28
    27ca:	08 95       	ret

000027cc <CheckInput>:

//User input check (and validation)
uint8_t CheckInput(uint8_t *data){
    27cc:	5f 92       	push	r5
    27ce:	6f 92       	push	r6
    27d0:	7f 92       	push	r7
    27d2:	8f 92       	push	r8
    27d4:	9f 92       	push	r9
    27d6:	af 92       	push	r10
    27d8:	bf 92       	push	r11
    27da:	cf 92       	push	r12
    27dc:	df 92       	push	r13
    27de:	ef 92       	push	r14
    27e0:	ff 92       	push	r15
    27e2:	0f 93       	push	r16
    27e4:	1f 93       	push	r17
    27e6:	cf 93       	push	r28
    27e8:	df 93       	push	r29
    27ea:	cd b7       	in	r28, 0x3d	; 61
    27ec:	de b7       	in	r29, 0x3e	; 62
    27ee:	2a 97       	sbiw	r28, 0x0a	; 10
    27f0:	cd bf       	out	0x3d, r28	; 61
    27f2:	de bf       	out	0x3e, r29	; 62
    27f4:	8c 01       	movw	r16, r24
    
    //Load game data after reboot
    if (currDepth == 0xff) {
    27f6:	80 91 31 38 	lds	r24, 0x3831	; 0x803831 <currDepth>
    27fa:	8f 3f       	cpi	r24, 0xFF	; 255
    27fc:	49 f4       	brne	.+18     	; 0x2810 <CheckInput+0x44>
        //Start at first location
        PopulateObject(route[0], &currObj);
    27fe:	6d e1       	ldi	r22, 0x1D	; 29
    2800:	7a e3       	ldi	r23, 0x3A	; 58
    2802:	80 91 dd 39 	lds	r24, 0x39DD	; 0x8039dd <route>
    2806:	90 91 de 39 	lds	r25, 0x39DE	; 0x8039de <route+0x1>
    280a:	ec dd       	rcall	.-1064   	; 0x23e4 <PopulateObject>
        currDepth = 0;
    280c:	10 92 31 38 	sts	0x3831, r1	; 0x803831 <currDepth>
    }

    if (serRxDone){
    2810:	80 91 46 38 	lds	r24, 0x3846	; 0x803846 <serRxDone>
    2814:	88 23       	and	r24, r24
    2816:	09 f4       	brne	.+2      	; 0x281a <CheckInput+0x4e>
    2818:	d4 c1       	rjmp	.+936    	; 0x2bc2 <CheckInput+0x3f6>

        //Special input requested from user by game
        if (specialInput[0]){
    281a:	80 91 0c 39 	lds	r24, 0x390C	; 0x80390c <specialInput>
    281e:	88 23       	and	r24, r24
    2820:	09 f4       	brne	.+2      	; 0x2824 <CheckInput+0x58>
    2822:	4f c0       	rjmp	.+158    	; 0x28c2 <CheckInput+0xf6>
            specialPassed = 0;
    2824:	10 92 0b 39 	sts	0x390B, r1	; 0x80390b <specialPassed>
            data[0] = 'a';
    2828:	81 e6       	ldi	r24, 0x61	; 97
    282a:	f8 01       	movw	r30, r16
    282c:	80 83       	st	Z, r24
            
            //Normal code challenge
            if (StartsWith((uint8_t *)&serRx[0], &specialInput[0])) {
    282e:	6c e0       	ldi	r22, 0x0C	; 12
    2830:	79 e3       	ldi	r23, 0x39	; 57
    2832:	87 e7       	ldi	r24, 0x77	; 119
    2834:	9a e3       	ldi	r25, 0x3A	; 58
    2836:	03 dd       	rcall	.-1530   	; 0x223e <StartsWith>
    2838:	f8 2e       	mov	r15, r24
    283a:	88 23       	and	r24, r24
    283c:	21 f0       	breq	.+8      	; 0x2846 <CheckInput+0x7a>
                specialPassed = 1;
    283e:	81 e0       	ldi	r24, 0x01	; 1
    2840:	80 93 0b 39 	sts	0x390B, r24	; 0x80390b <specialPassed>
    2844:	04 c0       	rjmp	.+8      	; 0x284e <CheckInput+0x82>

            //Special challenge 1
            } else if ((specialInput[0] == '1')&&(specialInput[2] == 0)) {
    2846:	80 91 0c 39 	lds	r24, 0x390C	; 0x80390c <specialInput>
    284a:	81 33       	cpi	r24, 0x31	; 49
    284c:	11 f0       	breq	.+4      	; 0x2852 <CheckInput+0x86>
                responseList = SetStandardResponse((3*MAX_CHEATS));
                return 1;
            }
        } 
        //Data received, but not any of the commands above
        return 0;
    284e:	f1 2c       	mov	r15, r1
    2850:	ba c1       	rjmp	.+884    	; 0x2bc6 <CheckInput+0x3fa>
            //Normal code challenge
            if (StartsWith((uint8_t *)&serRx[0], &specialInput[0])) {
                specialPassed = 1;

            //Special challenge 1
            } else if ((specialInput[0] == '1')&&(specialInput[2] == 0)) {
    2852:	80 91 0e 39 	lds	r24, 0x390E	; 0x80390e <specialInput+0x2>
    2856:	81 11       	cpse	r24, r1
    2858:	fa cf       	rjmp	.-12     	; 0x284e <CheckInput+0x82>
                uint8_t inputLen = CleanInput((uint8_t *)&serRx[0]);
    285a:	87 e7       	ldi	r24, 0x77	; 119
    285c:	9a e3       	ldi	r25, 0x3A	; 58
    285e:	fd de       	rcall	.-518    	; 0x265a <CleanInput>
                specialPassed = 2;
    2860:	92 e0       	ldi	r25, 0x02	; 2
    2862:	90 93 0b 39 	sts	0x390B, r25	; 0x80390b <specialPassed>
                data[1] = 0;
    2866:	f8 01       	movw	r30, r16
    2868:	11 82       	std	Z+1, r1	; 0x01

                if (inputLen >= 2) {
    286a:	82 30       	cpi	r24, 0x02	; 2
    286c:	80 f3       	brcs	.-32     	; 0x284e <CheckInput+0x82>
                    if ((serRx[0] >= '1') && (serRx[0] <= '4')) {
    286e:	80 91 77 3a 	lds	r24, 0x3A77	; 0x803a77 <serRx>
    2872:	81 33       	cpi	r24, 0x31	; 49
    2874:	60 f3       	brcs	.-40     	; 0x284e <CheckInput+0x82>
    2876:	80 91 77 3a 	lds	r24, 0x3A77	; 0x803a77 <serRx>
    287a:	85 33       	cpi	r24, 0x35	; 53
    287c:	40 f7       	brcc	.-48     	; 0x284e <CheckInput+0x82>
                        serRx[1] |= 0x20;
    287e:	80 91 78 3a 	lds	r24, 0x3A78	; 0x803a78 <serRx+0x1>
    2882:	80 62       	ori	r24, 0x20	; 32
    2884:	80 93 78 3a 	sts	0x3A78, r24	; 0x803a78 <serRx+0x1>
                        if ((serRx[1] == 'a')||(serRx[1] == 'e')||(serRx[1] == 'f')||(serRx[1] == 'w')) {
    2888:	80 91 78 3a 	lds	r24, 0x3A78	; 0x803a78 <serRx+0x1>
    288c:	81 36       	cpi	r24, 0x61	; 97
    288e:	61 f0       	breq	.+24     	; 0x28a8 <CheckInput+0xdc>
    2890:	80 91 78 3a 	lds	r24, 0x3A78	; 0x803a78 <serRx+0x1>
    2894:	85 36       	cpi	r24, 0x65	; 101
    2896:	41 f0       	breq	.+16     	; 0x28a8 <CheckInput+0xdc>
    2898:	80 91 78 3a 	lds	r24, 0x3A78	; 0x803a78 <serRx+0x1>
    289c:	86 36       	cpi	r24, 0x66	; 102
    289e:	21 f0       	breq	.+8      	; 0x28a8 <CheckInput+0xdc>
    28a0:	80 91 78 3a 	lds	r24, 0x3A78	; 0x803a78 <serRx+0x1>
    28a4:	87 37       	cpi	r24, 0x77	; 119
    28a6:	99 f6       	brne	.-90     	; 0x284e <CheckInput+0x82>
                            data[1] = specialInput[1]+0x11;
    28a8:	80 91 0d 39 	lds	r24, 0x390D	; 0x80390d <specialInput+0x1>
    28ac:	8f 5e       	subi	r24, 0xEF	; 239
    28ae:	f8 01       	movw	r30, r16
    28b0:	81 83       	std	Z+1, r24	; 0x01
                            data[2] = serRx[0];
    28b2:	80 91 77 3a 	lds	r24, 0x3A77	; 0x803a77 <serRx>
    28b6:	82 83       	std	Z+2, r24	; 0x02
                            data[3] = serRx[1];
    28b8:	80 91 78 3a 	lds	r24, 0x3A78	; 0x803a78 <serRx+0x1>
    28bc:	83 83       	std	Z+3, r24	; 0x03
                            data[4] = 0;
    28be:	14 82       	std	Z+4, r1	; 0x04
    28c0:	82 c1       	rjmp	.+772    	; 0x2bc6 <CheckInput+0x3fa>
        } else {
      
            //SetResponse(0, A_LF, 4, TEASER);

            //Change status bit
            if ((serRx[0] == '#')&&(RXCNT == 6)){
    28c2:	80 91 77 3a 	lds	r24, 0x3A77	; 0x803a77 <serRx>
    28c6:	83 32       	cpi	r24, 0x23	; 35
    28c8:	89 f5       	brne	.+98     	; 0x292c <CheckInput+0x160>
    28ca:	8d b3       	in	r24, 0x1d	; 29
    28cc:	86 30       	cpi	r24, 0x06	; 6
    28ce:	71 f5       	brne	.+92     	; 0x292c <CheckInput+0x160>
    28d0:	81 e0       	ldi	r24, 0x01	; 1
    28d2:	90 e0       	ldi	r25, 0x00	; 0
    28d4:	10 e0       	ldi	r17, 0x00	; 0
                uint8_t bitNr = 0;

                for (uint8_t x=1; x<4; ++x) {
                    serRx[x] -= '0';
    28d6:	fc 01       	movw	r30, r24
    28d8:	e9 58       	subi	r30, 0x89	; 137
    28da:	f5 4c       	sbci	r31, 0xC5	; 197
    28dc:	20 81       	ld	r18, Z
    28de:	20 53       	subi	r18, 0x30	; 48
    28e0:	20 83       	st	Z, r18
                    bitNr *= 10;
    28e2:	11 0f       	add	r17, r17
    28e4:	21 2f       	mov	r18, r17
    28e6:	22 0f       	add	r18, r18
    28e8:	22 0f       	add	r18, r18
    28ea:	12 0f       	add	r17, r18
                    if (serRx[1] > 2) break;
    28ec:	20 91 78 3a 	lds	r18, 0x3A78	; 0x803a78 <serRx+0x1>
    28f0:	23 30       	cpi	r18, 0x03	; 3
    28f2:	48 f4       	brcc	.+18     	; 0x2906 <CheckInput+0x13a>
                    if (serRx[x] < 10) {
    28f4:	20 81       	ld	r18, Z
    28f6:	2a 30       	cpi	r18, 0x0A	; 10
    28f8:	b8 f4       	brcc	.+46     	; 0x2928 <CheckInput+0x15c>
                        bitNr += serRx[x];
    28fa:	20 81       	ld	r18, Z
    28fc:	12 0f       	add	r17, r18
    28fe:	01 96       	adiw	r24, 0x01	; 1

            //Change status bit
            if ((serRx[0] == '#')&&(RXCNT == 6)){
                uint8_t bitNr = 0;

                for (uint8_t x=1; x<4; ++x) {
    2900:	84 30       	cpi	r24, 0x04	; 4
    2902:	91 05       	cpc	r25, r1
    2904:	41 f7       	brne	.-48     	; 0x28d6 <CheckInput+0x10a>
                        continue;
                    }
                    bitNr = 0;
                    break;
                }
                if ((bitNr)&&(bitNr!=128)) {
    2906:	81 2f       	mov	r24, r17
    2908:	8f 77       	andi	r24, 0x7F	; 127
    290a:	71 f0       	breq	.+28     	; 0x2928 <CheckInput+0x15c>
                    if (Cheat(0xff-bitNr, serRx[4]<<8|serRx[5])) UpdateState(bitNr);
    290c:	80 91 7b 3a 	lds	r24, 0x3A7B	; 0x803a7b <serRx+0x4>
    2910:	60 91 7c 3a 	lds	r22, 0x3A7C	; 0x803a7c <serRx+0x5>
    2914:	70 e0       	ldi	r23, 0x00	; 0
    2916:	78 2b       	or	r23, r24
    2918:	81 2f       	mov	r24, r17
    291a:	80 95       	com	r24
    291c:	3b dc       	rcall	.-1930   	; 0x2194 <Cheat>
    291e:	88 23       	and	r24, r24
    2920:	19 f0       	breq	.+6      	; 0x2928 <CheckInput+0x15c>
    2922:	81 2f       	mov	r24, r17
    2924:	0e 94 f7 09 	call	0x13ee	; 0x13ee <UpdateState>
                }
                
                responseList = SetStandardResponse(1);
    2928:	81 e0       	ldi	r24, 0x01	; 1
    292a:	48 c1       	rjmp	.+656    	; 0x2bbc <CheckInput+0x3f0>
    292c:	d8 01       	movw	r26, r16
    292e:	80 e0       	ldi	r24, 0x00	; 0
    2930:	90 e0       	ldi	r25, 0x00	; 0
                return 1;            
            }
            
            //Read up to the \0 character and convert to lower case.
            for (uint8_t x=0; x<RXLEN; ++x){
                if ((serRx[x]<'A')||(serRx[x]>'Z')) data[x]=serRx[x]; else data[x]=serRx[x]|0x20;
    2932:	fc 01       	movw	r30, r24
    2934:	e9 58       	subi	r30, 0x89	; 137
    2936:	f5 4c       	sbci	r31, 0xC5	; 197
    2938:	20 81       	ld	r18, Z
    293a:	21 34       	cpi	r18, 0x41	; 65
    293c:	18 f0       	brcs	.+6      	; 0x2944 <CheckInput+0x178>
    293e:	20 81       	ld	r18, Z
    2940:	2b 35       	cpi	r18, 0x5B	; 91
    2942:	10 f0       	brcs	.+4      	; 0x2948 <CheckInput+0x17c>
    2944:	20 81       	ld	r18, Z
    2946:	02 c0       	rjmp	.+4      	; 0x294c <CheckInput+0x180>
    2948:	20 81       	ld	r18, Z
    294a:	20 62       	ori	r18, 0x20	; 32
    294c:	2c 93       	st	X, r18
                if (serRx[x] == 0) {
    294e:	20 81       	ld	r18, Z
    2950:	21 11       	cpse	r18, r1
    2952:	05 c0       	rjmp	.+10     	; 0x295e <CheckInput+0x192>
                    data[x] = 0;
    2954:	f8 01       	movw	r30, r16
    2956:	e8 0f       	add	r30, r24
    2958:	f1 1d       	adc	r31, r1
    295a:	10 82       	st	Z, r1
                    break;
    295c:	05 c0       	rjmp	.+10     	; 0x2968 <CheckInput+0x19c>
    295e:	01 96       	adiw	r24, 0x01	; 1
    2960:	11 96       	adiw	r26, 0x01	; 1
                
                return 1;            
            }
            
            //Read up to the \0 character and convert to lower case.
            for (uint8_t x=0; x<RXLEN; ++x){
    2962:	81 34       	cpi	r24, 0x41	; 65
    2964:	91 05       	cpc	r25, r1
    2966:	29 f7       	brne	.-54     	; 0x2932 <CheckInput+0x166>
                    break;
                }
            }

            //No text
            if (serRx[0] == 0){
    2968:	80 91 77 3a 	lds	r24, 0x3A77	; 0x803a77 <serRx>
                data[0] = 0;
    296c:	f8 01       	movw	r30, r16
                    break;
                }
            }

            //No text
            if (serRx[0] == 0){
    296e:	81 11       	cpse	r24, r1
    2970:	05 c0       	rjmp	.+10     	; 0x297c <CheckInput+0x1b0>
                data[0] = 0;
    2972:	10 82       	st	Z, r1
                RXCNT = 0;
    2974:	1d ba       	out	0x1d, r1	; 29
                serRxDone = 0;
    2976:	10 92 46 38 	sts	0x3846, r1	; 0x803846 <serRxDone>
    297a:	23 c1       	rjmp	.+582    	; 0x2bc2 <CheckInput+0x3f6>
                return 1;
            }

            //Help text
            if ((data[0] == '?')||(data[0] == 'h')){
    297c:	80 81       	ld	r24, Z
    297e:	8f 33       	cpi	r24, 0x3F	; 63
    2980:	11 f0       	breq	.+4      	; 0x2986 <CheckInput+0x1ba>
    2982:	88 36       	cpi	r24, 0x68	; 104
    2984:	49 f4       	brne	.+18     	; 0x2998 <CheckInput+0x1cc>
    return 0;
}

//
void SetResponse(uint8_t number, uint16_t address, uint16_t length, uint8_t type){
    reactStr[0][number]=address;
    2986:	83 e9       	ldi	r24, 0x93	; 147
    2988:	9b e7       	ldi	r25, 0x7B	; 123
    298a:	80 93 1f 39 	sts	0x391F, r24	; 0x80391f <reactStr+0x2>
    298e:	90 93 20 39 	sts	0x3920, r25	; 0x803920 <reactStr+0x3>
    reactStr[1][number]=length;
    2992:	8d e6       	ldi	r24, 0x6D	; 109
    2994:	94 e0       	ldi	r25, 0x04	; 4
    2996:	0a c0       	rjmp	.+20     	; 0x29ac <CheckInput+0x1e0>
                responseList = SetStandardResponse(2);
                return 1;
            }        
        
            //Alphabet text
            if (data[0] == 'a'){
    2998:	81 36       	cpi	r24, 0x61	; 97
    299a:	a1 f4       	brne	.+40     	; 0x29c4 <CheckInput+0x1f8>
    return 0;
}

//
void SetResponse(uint8_t number, uint16_t address, uint16_t length, uint8_t type){
    reactStr[0][number]=address;
    299c:	8e e6       	ldi	r24, 0x6E	; 110
    299e:	9a e7       	ldi	r25, 0x7A	; 122
    29a0:	80 93 1f 39 	sts	0x391F, r24	; 0x80391f <reactStr+0x2>
    29a4:	90 93 20 39 	sts	0x3920, r25	; 0x803920 <reactStr+0x3>
    reactStr[1][number]=length;
    29a8:	85 e2       	ldi	r24, 0x25	; 37
    29aa:	91 e0       	ldi	r25, 0x01	; 1
    29ac:	80 93 5f 39 	sts	0x395F, r24	; 0x80395f <reactStr+0x42>
    29b0:	90 93 60 39 	sts	0x3960, r25	; 0x803960 <reactStr+0x43>
    reactStr[2][number]=type;
    29b4:	81 e0       	ldi	r24, 0x01	; 1
    29b6:	90 e0       	ldi	r25, 0x00	; 0
    29b8:	80 93 9f 39 	sts	0x399F, r24	; 0x80399f <reactStr+0x82>
    29bc:	90 93 a0 39 	sts	0x39A0, r25	; 0x8039a0 <reactStr+0x83>
            }        
        
            //Alphabet text
            if (data[0] == 'a'){
                SetResponse(1, A_ALPHABET, L_ALPHABET, TEASER);
                responseList = SetStandardResponse(2);
    29c0:	82 e0       	ldi	r24, 0x02	; 2
    29c2:	fc c0       	rjmp	.+504    	; 0x2bbc <CheckInput+0x3f0>
                return 1;
            }

            //Whoami text
            if (data[0] == 'w'){
    29c4:	87 37       	cpi	r24, 0x77	; 119
    29c6:	09 f0       	breq	.+2      	; 0x29ca <CheckInput+0x1fe>
    29c8:	41 c0       	rjmp	.+130    	; 0x2a4c <CheckInput+0x280>
    return 0;
}

//
void SetResponse(uint8_t number, uint16_t address, uint16_t length, uint8_t type){
    reactStr[0][number]=address;
    29ca:	8d e8       	ldi	r24, 0x8D	; 141
    29cc:	96 e7       	ldi	r25, 0x76	; 118
    29ce:	80 93 1f 39 	sts	0x391F, r24	; 0x80391f <reactStr+0x2>
    29d2:	90 93 20 39 	sts	0x3920, r25	; 0x803920 <reactStr+0x3>
    reactStr[1][number]=length;
    29d6:	82 e1       	ldi	r24, 0x12	; 18
    29d8:	90 e0       	ldi	r25, 0x00	; 0
    29da:	80 93 5f 39 	sts	0x395F, r24	; 0x80395f <reactStr+0x42>
    29de:	90 93 60 39 	sts	0x3960, r25	; 0x803960 <reactStr+0x43>
    reactStr[2][number]=type;
    29e2:	21 e0       	ldi	r18, 0x01	; 1
    29e4:	30 e0       	ldi	r19, 0x00	; 0
    29e6:	20 93 9f 39 	sts	0x399F, r18	; 0x80399f <reactStr+0x82>
    29ea:	30 93 a0 39 	sts	0x39A0, r19	; 0x8039a0 <reactStr+0x83>
            }

            //Whoami text
            if (data[0] == 'w'){
                SetResponse(1, A_HELLO, L_HELLO, TEASER);
                SetResponse(2, names[0][whoami-1], names[1][whoami-1], TEASER);
    29ee:	80 91 3f 38 	lds	r24, 0x383F	; 0x80383f <whoami>
    29f2:	90 e0       	ldi	r25, 0x00	; 0
    29f4:	fc 01       	movw	r30, r24
    29f6:	ee 0f       	add	r30, r30
    29f8:	ff 1f       	adc	r31, r31
    29fa:	ec 54       	subi	r30, 0x4C	; 76
    29fc:	f0 44       	sbci	r31, 0x40	; 64
    29fe:	40 81       	ld	r20, Z
    2a00:	51 81       	ldd	r21, Z+1	; 0x01
    2a02:	88 0f       	add	r24, r24
    2a04:	99 1f       	adc	r25, r25
    2a06:	fc 01       	movw	r30, r24
    2a08:	e4 55       	subi	r30, 0x54	; 84
    2a0a:	f0 44       	sbci	r31, 0x40	; 64
    return 0;
}

//
void SetResponse(uint8_t number, uint16_t address, uint16_t length, uint8_t type){
    reactStr[0][number]=address;
    2a0c:	80 81       	ld	r24, Z
    2a0e:	91 81       	ldd	r25, Z+1	; 0x01
    2a10:	80 93 21 39 	sts	0x3921, r24	; 0x803921 <reactStr+0x4>
    2a14:	90 93 22 39 	sts	0x3922, r25	; 0x803922 <reactStr+0x5>
    reactStr[1][number]=length;
    2a18:	40 93 61 39 	sts	0x3961, r20	; 0x803961 <reactStr+0x44>
    2a1c:	50 93 62 39 	sts	0x3962, r21	; 0x803962 <reactStr+0x45>
    reactStr[2][number]=type;
    2a20:	20 93 a1 39 	sts	0x39A1, r18	; 0x8039a1 <reactStr+0x84>
    2a24:	30 93 a2 39 	sts	0x39A2, r19	; 0x8039a2 <reactStr+0x85>
    return 0;
}

//
void SetResponse(uint8_t number, uint16_t address, uint16_t length, uint8_t type){
    reactStr[0][number]=address;
    2a28:	8f e5       	ldi	r24, 0x5F	; 95
    2a2a:	96 e7       	ldi	r25, 0x76	; 118
    2a2c:	80 93 23 39 	sts	0x3923, r24	; 0x803923 <reactStr+0x6>
    2a30:	90 93 24 39 	sts	0x3924, r25	; 0x803924 <reactStr+0x7>
    reactStr[1][number]=length;
    2a34:	8a e1       	ldi	r24, 0x1A	; 26
    2a36:	90 e0       	ldi	r25, 0x00	; 0
    2a38:	80 93 63 39 	sts	0x3963, r24	; 0x803963 <reactStr+0x46>
    2a3c:	90 93 64 39 	sts	0x3964, r25	; 0x803964 <reactStr+0x47>
    reactStr[2][number]=type;
    2a40:	20 93 a3 39 	sts	0x39A3, r18	; 0x8039a3 <reactStr+0x86>
    2a44:	30 93 a4 39 	sts	0x39A4, r19	; 0x8039a4 <reactStr+0x87>
                } else {
                    SetResponse(2, A_ERROR, L_ERROR, TEASER);
                }*/

                SetResponse(3, A_PLEASED, L_PLEASED, TEASER);
                responseList = SetStandardResponse(4);
    2a48:	84 e0       	ldi	r24, 0x04	; 4
                responseList = SetStandardResponse(2);
                return 1;
            }*/

            //Fake cheat = reset badge!
            if (StartsWith(&data[0], "iddqd")){
    2a4a:	b8 c0       	rjmp	.+368    	; 0x2bbc <CheckInput+0x3f0>
    2a4c:	6a e8       	ldi	r22, 0x8A	; 138
    2a4e:	7f eb       	ldi	r23, 0xBF	; 191
    2a50:	c8 01       	movw	r24, r16
    2a52:	f5 db       	rcall	.-2070   	; 0x223e <StartsWith>
    2a54:	88 23       	and	r24, r24
    2a56:	19 f1       	breq	.+70     	; 0x2a9e <CheckInput+0x2d2>
            
                //Reset game data by wiping the UUID bits
                for (uint8_t x=0; x<4; ++x){
                    UpdateState(128+110+x);
    2a58:	8e ee       	ldi	r24, 0xEE	; 238
    2a5a:	0e 94 f7 09 	call	0x13ee	; 0x13ee <UpdateState>
    2a5e:	8f ee       	ldi	r24, 0xEF	; 239
    2a60:	0e 94 f7 09 	call	0x13ee	; 0x13ee <UpdateState>
    2a64:	80 ef       	ldi	r24, 0xF0	; 240
    2a66:	0e 94 f7 09 	call	0x13ee	; 0x13ee <UpdateState>
    2a6a:	81 ef       	ldi	r24, 0xF1	; 241
    2a6c:	0e 94 f7 09 	call	0x13ee	; 0x13ee <UpdateState>
                }
                SaveGameState();
    2a70:	0e 94 70 09 	call	0x12e0	; 0x12e0 <SaveGameState>

                uint8_t cheat[] = "Gotcha! ";
    2a74:	89 e0       	ldi	r24, 0x09	; 9
    2a76:	ed e9       	ldi	r30, 0x9D	; 157
    2a78:	ff eb       	ldi	r31, 0xBF	; 191
    2a7a:	de 01       	movw	r26, r28
    2a7c:	11 96       	adiw	r26, 0x01	; 1
    2a7e:	01 90       	ld	r0, Z+
    2a80:	0d 92       	st	X+, r0
    2a82:	8a 95       	dec	r24
    2a84:	e1 f7       	brne	.-8      	; 0x2a7e <CheckInput+0x2b2>
                SerSpeed(60);
    2a86:	8c e3       	ldi	r24, 0x3C	; 60
    2a88:	0e 94 90 08 	call	0x1120	; 0x1120 <SerSpeed>
                while(1){
                    if (serTxDone) SerSend(&cheat[0]);
    2a8c:	80 91 09 38 	lds	r24, 0x3809	; 0x803809 <serTxDone>
    2a90:	88 23       	and	r24, r24
    2a92:	e1 f3       	breq	.-8      	; 0x2a8c <CheckInput+0x2c0>
    2a94:	ce 01       	movw	r24, r28
    2a96:	01 96       	adiw	r24, 0x01	; 1
    2a98:	0e 94 7f 08 	call	0x10fe	; 0x10fe <SerSend>
                }
            }
            
            //Cheat reset
            if (StartsWith(&data[0], "ikillu")){
    2a9c:	f7 cf       	rjmp	.-18     	; 0x2a8c <CheckInput+0x2c0>
    2a9e:	60 e9       	ldi	r22, 0x90	; 144
    2aa0:	7f eb       	ldi	r23, 0xBF	; 191
    2aa2:	c8 01       	movw	r24, r16
    2aa4:	cc db       	rcall	.-2152   	; 0x223e <StartsWith>
    2aa6:	88 23       	and	r24, r24
    2aa8:	81 f1       	breq	.+96     	; 0x2b0a <CheckInput+0x33e>
                
                //Reset cheat data by resetting the EEPROM bytes
                uint8_t empty=0xff;
    2aaa:	8f ef       	ldi	r24, 0xFF	; 255
    2aac:	8a 87       	std	Y+10, r24	; 0x0a
    2aae:	18 e1       	ldi	r17, 0x18	; 24
                for (uint8_t x=0; x<MAX_CHEATS; ++x){
                    EEWrite(CHEATS+x, &empty, 1);
    2ab0:	41 e0       	ldi	r20, 0x01	; 1
    2ab2:	be 01       	movw	r22, r28
    2ab4:	66 5f       	subi	r22, 0xF6	; 246
    2ab6:	7f 4f       	sbci	r23, 0xFF	; 255
    2ab8:	81 2f       	mov	r24, r17
    2aba:	0e 94 0b 08 	call	0x1016	; 0x1016 <EEWrite>
    2abe:	1f 5f       	subi	r17, 0xFF	; 255
            //Cheat reset
            if (StartsWith(&data[0], "ikillu")){
                
                //Reset cheat data by resetting the EEPROM bytes
                uint8_t empty=0xff;
                for (uint8_t x=0; x<MAX_CHEATS; ++x){
    2ac0:	10 32       	cpi	r17, 0x20	; 32
    2ac2:	b1 f7       	brne	.-20     	; 0x2ab0 <CheckInput+0x2e4>
                    EEWrite(CHEATS+x, &empty, 1);
                }
                //Reset game data by wiping the UUID bits
                for (uint8_t x=0; x<4; ++x){
                    UpdateState(128+110+x);
    2ac4:	8e ee       	ldi	r24, 0xEE	; 238
    2ac6:	0e 94 f7 09 	call	0x13ee	; 0x13ee <UpdateState>
    2aca:	8f ee       	ldi	r24, 0xEF	; 239
    2acc:	0e 94 f7 09 	call	0x13ee	; 0x13ee <UpdateState>
    2ad0:	80 ef       	ldi	r24, 0xF0	; 240
    2ad2:	0e 94 f7 09 	call	0x13ee	; 0x13ee <UpdateState>
    2ad6:	81 ef       	ldi	r24, 0xF1	; 241
    2ad8:	0e 94 f7 09 	call	0x13ee	; 0x13ee <UpdateState>
                }
                
                SaveGameState();
    2adc:	0e 94 70 09 	call	0x12e0	; 0x12e0 <SaveGameState>

                uint8_t cheat[] = "Reset! ";
    2ae0:	88 e0       	ldi	r24, 0x08	; 8
    2ae2:	e6 ea       	ldi	r30, 0xA6	; 166
    2ae4:	ff eb       	ldi	r31, 0xBF	; 191
    2ae6:	de 01       	movw	r26, r28
    2ae8:	11 96       	adiw	r26, 0x01	; 1
    2aea:	01 90       	ld	r0, Z+
    2aec:	0d 92       	st	X+, r0
    2aee:	8a 95       	dec	r24
    2af0:	e1 f7       	brne	.-8      	; 0x2aea <CheckInput+0x31e>
                SerSpeed(60);
    2af2:	8c e3       	ldi	r24, 0x3C	; 60
    2af4:	0e 94 90 08 	call	0x1120	; 0x1120 <SerSpeed>
                while(1){
                    if (serTxDone) SerSend(&cheat[0]);
    2af8:	80 91 09 38 	lds	r24, 0x3809	; 0x803809 <serTxDone>
    2afc:	88 23       	and	r24, r24
    2afe:	e1 f3       	breq	.-8      	; 0x2af8 <CheckInput+0x32c>
    2b00:	ce 01       	movw	r24, r28
    2b02:	01 96       	adiw	r24, 0x01	; 1
    2b04:	0e 94 7f 08 	call	0x10fe	; 0x10fe <SerSend>
                }
            }

            //Show used cheat codes
            if (StartsWith(&data[0], "cheat")){
    2b08:	f7 cf       	rjmp	.-18     	; 0x2af8 <CheckInput+0x32c>
    2b0a:	67 e9       	ldi	r22, 0x97	; 151
    2b0c:	7f eb       	ldi	r23, 0xBF	; 191
    2b0e:	c8 01       	movw	r24, r16
    2b10:	96 db       	rcall	.-2260   	; 0x223e <StartsWith>
    2b12:	88 23       	and	r24, r24
    2b14:	09 f4       	brne	.+2      	; 0x2b18 <CheckInput+0x34c>
    2b16:	9b ce       	rjmp	.-714    	; 0x284e <CheckInput+0x82>
    2b18:	8d e1       	ldi	r24, 0x1D	; 29
    2b1a:	c8 2e       	mov	r12, r24
    2b1c:	89 e3       	ldi	r24, 0x39	; 57
    2b1e:	d8 2e       	mov	r13, r24
    2b20:	9d e5       	ldi	r25, 0x5D	; 93
    2b22:	e9 2e       	mov	r14, r25
    2b24:	99 e3       	ldi	r25, 0x39	; 57
    2b26:	f9 2e       	mov	r15, r25
    2b28:	0d e9       	ldi	r16, 0x9D	; 157
    2b2a:	19 e3       	ldi	r17, 0x39	; 57
    2b2c:	28 e1       	ldi	r18, 0x18	; 24
    2b2e:	52 2e       	mov	r5, r18
}

//
void SetResponse(uint8_t number, uint16_t address, uint16_t length, uint8_t type){
    reactStr[0][number]=address;
    reactStr[1][number]=length;
    2b30:	aa 24       	eor	r10, r10
    2b32:	a3 94       	inc	r10
    2b34:	b1 2c       	mov	r11, r1
    return 0;
}

//
void SetResponse(uint8_t number, uint16_t address, uint16_t length, uint8_t type){
    reactStr[0][number]=address;
    2b36:	47 e5       	ldi	r20, 0x57	; 87
    2b38:	84 2e       	mov	r8, r20
    2b3a:	4a e7       	ldi	r20, 0x7A	; 122
    2b3c:	94 2e       	mov	r9, r20
    reactStr[1][number]=length;
    2b3e:	52 e0       	ldi	r21, 0x02	; 2
    2b40:	65 2e       	mov	r6, r21
    2b42:	71 2c       	mov	r7, r1
            if (StartsWith(&data[0], "cheat")){
                uint8_t bit;
                for (uint8_t x=0; x<MAX_CHEATS; ++x){
                    
                    //Set up sending out number
                    EERead(CHEATS+x, &bit, 1);
    2b44:	41 e0       	ldi	r20, 0x01	; 1
    2b46:	be 01       	movw	r22, r28
    2b48:	6f 5f       	subi	r22, 0xFF	; 255
    2b4a:	7f 4f       	sbci	r23, 0xFF	; 255
    2b4c:	85 2d       	mov	r24, r5
    2b4e:	0e 94 fb 07 	call	0xff6	; 0xff6 <EERead>
                    bit = 0xff-bit;
    2b52:	89 81       	ldd	r24, Y+1	; 0x01
    2b54:	80 95       	com	r24
    2b56:	89 83       	std	Y+1, r24	; 0x01
    return 0;
}

//
void SetResponse(uint8_t number, uint16_t address, uint16_t length, uint8_t type){
    reactStr[0][number]=address;
    2b58:	28 2f       	mov	r18, r24
    2b5a:	22 95       	swap	r18
    2b5c:	2f 70       	andi	r18, 0x0F	; 15
    2b5e:	30 e0       	ldi	r19, 0x00	; 0
    2b60:	23 57       	subi	r18, 0x73	; 115
    2b62:	3b 48       	sbci	r19, 0x8B	; 139
    2b64:	f6 01       	movw	r30, r12
    2b66:	20 83       	st	Z, r18
    2b68:	31 83       	std	Z+1, r19	; 0x01
    reactStr[1][number]=length;
    2b6a:	f7 01       	movw	r30, r14
    2b6c:	a0 82       	st	Z, r10
    2b6e:	b1 82       	std	Z+1, r11	; 0x01
    reactStr[2][number]=type;
    2b70:	f8 01       	movw	r30, r16
    2b72:	a0 82       	st	Z, r10
    2b74:	b1 82       	std	Z+1, r11	; 0x01
    return 0;
}

//
void SetResponse(uint8_t number, uint16_t address, uint16_t length, uint8_t type){
    reactStr[0][number]=address;
    2b76:	8f 70       	andi	r24, 0x0F	; 15
    2b78:	90 e0       	ldi	r25, 0x00	; 0
    2b7a:	83 57       	subi	r24, 0x73	; 115
    2b7c:	9b 48       	sbci	r25, 0x8B	; 139
    2b7e:	f6 01       	movw	r30, r12
    2b80:	82 83       	std	Z+2, r24	; 0x02
    2b82:	93 83       	std	Z+3, r25	; 0x03
    reactStr[1][number]=length;
    2b84:	f7 01       	movw	r30, r14
    2b86:	a2 82       	std	Z+2, r10	; 0x02
    2b88:	b3 82       	std	Z+3, r11	; 0x03
    reactStr[2][number]=type;
    2b8a:	f8 01       	movw	r30, r16
    2b8c:	a2 82       	std	Z+2, r10	; 0x02
    2b8e:	b3 82       	std	Z+3, r11	; 0x03
    return 0;
}

//
void SetResponse(uint8_t number, uint16_t address, uint16_t length, uint8_t type){
    reactStr[0][number]=address;
    2b90:	f6 01       	movw	r30, r12
    2b92:	84 82       	std	Z+4, r8	; 0x04
    2b94:	95 82       	std	Z+5, r9	; 0x05
    reactStr[1][number]=length;
    2b96:	f7 01       	movw	r30, r14
    2b98:	64 82       	std	Z+4, r6	; 0x04
    2b9a:	75 82       	std	Z+5, r7	; 0x05
    reactStr[2][number]=type;
    2b9c:	f8 01       	movw	r30, r16
    2b9e:	a4 82       	std	Z+4, r10	; 0x04
    2ba0:	b5 82       	std	Z+5, r11	; 0x05
    2ba2:	53 94       	inc	r5
    2ba4:	f6 e0       	ldi	r31, 0x06	; 6
    2ba6:	cf 0e       	add	r12, r31
    2ba8:	d1 1c       	adc	r13, r1
    2baa:	86 e0       	ldi	r24, 0x06	; 6
    2bac:	e8 0e       	add	r14, r24
    2bae:	f1 1c       	adc	r15, r1
    2bb0:	0a 5f       	subi	r16, 0xFA	; 250
            }

            //Show used cheat codes
            if (StartsWith(&data[0], "cheat")){
                uint8_t bit;
                for (uint8_t x=0; x<MAX_CHEATS; ++x){
    2bb2:	1f 4f       	sbci	r17, 0xFF	; 255
    2bb4:	e0 e2       	ldi	r30, 0x20	; 32
    2bb6:	5e 12       	cpse	r5, r30
                    //SetResponse(x*4, A_HEXPREFIX, L_HEXPREFIX, TEASER);
                    SetResponse(x*3, A_DIGITS+(bit>>4), 1, TEASER);               
                    SetResponse(x*3+1, A_DIGITS+(bit%16), 1, TEASER);
                    SetResponse(x*3+2, A_COMMA, L_COMMA, TEASER);
                }
                responseList = SetStandardResponse((3*MAX_CHEATS));
    2bb8:	c5 cf       	rjmp	.-118    	; 0x2b44 <CheckInput+0x378>
    2bba:	88 e1       	ldi	r24, 0x18	; 24
    2bbc:	97 db       	rcall	.-2258   	; 0x22ec <SetStandardResponse>
    2bbe:	80 93 1c 39 	sts	0x391C, r24	; 0x80391c <responseList>
        //Data received, but not any of the commands above
        return 0;
    }

    //Serial input not available yet
    return 1;
    2bc2:	ff 24       	eor	r15, r15
    2bc4:	f3 94       	inc	r15
}
    2bc6:	8f 2d       	mov	r24, r15
    2bc8:	2a 96       	adiw	r28, 0x0a	; 10
    2bca:	cd bf       	out	0x3d, r28	; 61
    2bcc:	de bf       	out	0x3e, r29	; 62
    2bce:	df 91       	pop	r29
    2bd0:	cf 91       	pop	r28
    2bd2:	1f 91       	pop	r17
    2bd4:	0f 91       	pop	r16
    2bd6:	ff 90       	pop	r15
    2bd8:	ef 90       	pop	r14
    2bda:	df 90       	pop	r13
    2bdc:	cf 90       	pop	r12
    2bde:	bf 90       	pop	r11
    2be0:	af 90       	pop	r10
    2be2:	9f 90       	pop	r9
    2be4:	8f 90       	pop	r8
    2be6:	7f 90       	pop	r7
    2be8:	6f 90       	pop	r6
    2bea:	5f 90       	pop	r5
    2bec:	08 95       	ret

00002bee <ShowInventory>:

uint8_t ShowInventory(uint8_t elements){
    2bee:	9f 92       	push	r9
    2bf0:	af 92       	push	r10
    2bf2:	bf 92       	push	r11
    2bf4:	cf 92       	push	r12
    2bf6:	df 92       	push	r13
    2bf8:	ef 92       	push	r14
    2bfa:	ff 92       	push	r15
    2bfc:	0f 93       	push	r16
    2bfe:	1f 93       	push	r17
    2c00:	cf 93       	push	r28
    2c02:	df 93       	push	r29
    2c04:	cd b7       	in	r28, 0x3d	; 61
    2c06:	de b7       	in	r29, 0x3e	; 62
    2c08:	ab 97       	sbiw	r28, 0x2b	; 43
    2c0a:	cd bf       	out	0x3d, r28	; 61
    2c0c:	de bf       	out	0x3e, r29	; 62
    object_model_t actObj1;

    SetResponse(elements++, A_NOWCARRING, L_NOWCARRING, TEASER);
    2c0e:	99 24       	eor	r9, r9
    2c10:	93 94       	inc	r9
    2c12:	98 0e       	add	r9, r24
    return 0;
}

//
void SetResponse(uint8_t number, uint16_t address, uint16_t length, uint8_t type){
    reactStr[0][number]=address;
    2c14:	90 e0       	ldi	r25, 0x00	; 0
    2c16:	fc 01       	movw	r30, r24
    2c18:	ee 0f       	add	r30, r30
    2c1a:	ff 1f       	adc	r31, r31
    2c1c:	e3 5e       	subi	r30, 0xE3	; 227
    2c1e:	f6 4c       	sbci	r31, 0xC6	; 198
    2c20:	2c ec       	ldi	r18, 0xCC	; 204
    2c22:	37 e7       	ldi	r19, 0x77	; 119
    2c24:	20 83       	st	Z, r18
    2c26:	31 83       	std	Z+1, r19	; 0x01
    reactStr[1][number]=length;
    2c28:	fc 01       	movw	r30, r24
    2c2a:	ee 0f       	add	r30, r30
    2c2c:	ff 1f       	adc	r31, r31
    2c2e:	e3 5a       	subi	r30, 0xA3	; 163
    2c30:	f6 4c       	sbci	r31, 0xC6	; 198
    2c32:	26 e1       	ldi	r18, 0x16	; 22
    2c34:	30 e0       	ldi	r19, 0x00	; 0
    2c36:	20 83       	st	Z, r18
    2c38:	31 83       	std	Z+1, r19	; 0x01
    reactStr[2][number]=type;
    2c3a:	88 0f       	add	r24, r24
    2c3c:	99 1f       	adc	r25, r25
    2c3e:	fc 01       	movw	r30, r24
    2c40:	e3 56       	subi	r30, 0x63	; 99
    2c42:	f6 4c       	sbci	r31, 0xC6	; 198
    2c44:	81 e0       	ldi	r24, 0x01	; 1
    2c46:	90 e0       	ldi	r25, 0x00	; 0
    2c48:	80 83       	st	Z, r24
    2c4a:	91 83       	std	Z+1, r25	; 0x01
    2c4c:	00 e4       	ldi	r16, 0x40	; 64
    2c4e:	18 e3       	ldi	r17, 0x38	; 56
    return 0;
}

//
void SetResponse(uint8_t number, uint16_t address, uint16_t length, uint8_t type){
    reactStr[0][number]=address;
    2c50:	37 e5       	ldi	r19, 0x57	; 87
    2c52:	e3 2e       	mov	r14, r19
    2c54:	3a e7       	ldi	r19, 0x7A	; 122
    2c56:	f3 2e       	mov	r15, r19
    reactStr[1][number]=length;
    2c58:	42 e0       	ldi	r20, 0x02	; 2
    2c5a:	c4 2e       	mov	r12, r20
    2c5c:	d1 2c       	mov	r13, r1
    reactStr[2][number]=type;
    2c5e:	aa 24       	eor	r10, r10
    2c60:	a3 94       	inc	r10
    2c62:	b1 2c       	mov	r11, r1
    object_model_t actObj1;

    SetResponse(elements++, A_NOWCARRING, L_NOWCARRING, TEASER);

    for (uint8_t x=0; x<2; ++x) {
        if (inventory[x]) {
    2c64:	f8 01       	movw	r30, r16
    2c66:	81 91       	ld	r24, Z+
    2c68:	91 91       	ld	r25, Z+
    2c6a:	8f 01       	movw	r16, r30
    2c6c:	00 97       	sbiw	r24, 0x00	; 0
    2c6e:	c9 f1       	breq	.+114    	; 0x2ce2 <ShowInventory+0xf4>
            PopulateObject(inventory[x], &actObj1);
    2c70:	be 01       	movw	r22, r28
    2c72:	6f 5f       	subi	r22, 0xFF	; 255
    2c74:	7f 4f       	sbci	r23, 0xFF	; 255
    2c76:	b6 db       	rcall	.-2196   	; 0x23e4 <PopulateObject>
            SetResponse(elements++, actObj1.addrStr[NAME], actObj1.lenStr[NAME], GAME);
    2c78:	2b 8d       	ldd	r18, Y+27	; 0x1b
    2c7a:	3c 8d       	ldd	r19, Y+28	; 0x1c
    return 0;
}

//
void SetResponse(uint8_t number, uint16_t address, uint16_t length, uint8_t type){
    reactStr[0][number]=address;
    2c7c:	89 2d       	mov	r24, r9
    2c7e:	90 e0       	ldi	r25, 0x00	; 0
    2c80:	fc 01       	movw	r30, r24
    2c82:	ee 0f       	add	r30, r30
    2c84:	ff 1f       	adc	r31, r31
    2c86:	e3 5e       	subi	r30, 0xE3	; 227
    2c88:	f6 4c       	sbci	r31, 0xC6	; 198
    2c8a:	4d 85       	ldd	r20, Y+13	; 0x0d
    2c8c:	5e 85       	ldd	r21, Y+14	; 0x0e
    2c8e:	40 83       	st	Z, r20
    2c90:	51 83       	std	Z+1, r21	; 0x01
    reactStr[1][number]=length;
    2c92:	fc 01       	movw	r30, r24
    2c94:	ee 0f       	add	r30, r30
    2c96:	ff 1f       	adc	r31, r31
    2c98:	e3 5a       	subi	r30, 0xA3	; 163
    2c9a:	f6 4c       	sbci	r31, 0xC6	; 198
    2c9c:	20 83       	st	Z, r18
    2c9e:	31 83       	std	Z+1, r19	; 0x01
    reactStr[2][number]=type;
    2ca0:	88 0f       	add	r24, r24
    2ca2:	99 1f       	adc	r25, r25
    2ca4:	fc 01       	movw	r30, r24
    2ca6:	e3 56       	subi	r30, 0x63	; 99
    2ca8:	f6 4c       	sbci	r31, 0xC6	; 198
    2caa:	10 82       	st	Z, r1
    2cac:	11 82       	std	Z+1, r1	; 0x01
    return 0;
}

//
void SetResponse(uint8_t number, uint16_t address, uint16_t length, uint8_t type){
    reactStr[0][number]=address;
    2cae:	81 e0       	ldi	r24, 0x01	; 1
    2cb0:	89 0d       	add	r24, r9
    2cb2:	90 e0       	ldi	r25, 0x00	; 0
    2cb4:	93 94       	inc	r9
    2cb6:	93 94       	inc	r9
    2cb8:	fc 01       	movw	r30, r24
    2cba:	ee 0f       	add	r30, r30
    2cbc:	ff 1f       	adc	r31, r31
    2cbe:	e3 5e       	subi	r30, 0xE3	; 227
    2cc0:	f6 4c       	sbci	r31, 0xC6	; 198
    2cc2:	e0 82       	st	Z, r14
    2cc4:	f1 82       	std	Z+1, r15	; 0x01
    reactStr[1][number]=length;
    2cc6:	fc 01       	movw	r30, r24
    2cc8:	ee 0f       	add	r30, r30
    2cca:	ff 1f       	adc	r31, r31
    2ccc:	e3 5a       	subi	r30, 0xA3	; 163
    2cce:	f6 4c       	sbci	r31, 0xC6	; 198
    2cd0:	c0 82       	st	Z, r12
    2cd2:	d1 82       	std	Z+1, r13	; 0x01
    reactStr[2][number]=type;
    2cd4:	88 0f       	add	r24, r24
    2cd6:	99 1f       	adc	r25, r25
    2cd8:	fc 01       	movw	r30, r24
    2cda:	e3 56       	subi	r30, 0x63	; 99
    2cdc:	f6 4c       	sbci	r31, 0xC6	; 198
    2cde:	a0 82       	st	Z, r10
    2ce0:	b1 82       	std	Z+1, r11	; 0x01
uint8_t ShowInventory(uint8_t elements){
    object_model_t actObj1;

    SetResponse(elements++, A_NOWCARRING, L_NOWCARRING, TEASER);

    for (uint8_t x=0; x<2; ++x) {
    2ce2:	f8 e3       	ldi	r31, 0x38	; 56
    2ce4:	04 34       	cpi	r16, 0x44	; 68
    2ce6:	1f 07       	cpc	r17, r31
    2ce8:	09 f0       	breq	.+2      	; 0x2cec <ShowInventory+0xfe>
    2cea:	bc cf       	rjmp	.-136    	; 0x2c64 <ShowInventory+0x76>
        }
    }
    elements -= 1;
            
    return elements;
}
    2cec:	8f ef       	ldi	r24, 0xFF	; 255
    2cee:	89 0d       	add	r24, r9
    2cf0:	ab 96       	adiw	r28, 0x2b	; 43
    2cf2:	cd bf       	out	0x3d, r28	; 61
    2cf4:	de bf       	out	0x3e, r29	; 62
    2cf6:	df 91       	pop	r29
    2cf8:	cf 91       	pop	r28
    2cfa:	1f 91       	pop	r17
    2cfc:	0f 91       	pop	r16
    2cfe:	ff 90       	pop	r15
    2d00:	ef 90       	pop	r14
    2d02:	df 90       	pop	r13
    2d04:	cf 90       	pop	r12
    2d06:	bf 90       	pop	r11
    2d08:	af 90       	pop	r10
    2d0a:	9f 90       	pop	r9
    2d0c:	08 95       	ret

00002d0e <ProcessInput>:

//The game logic!
uint8_t ProcessInput(uint8_t *data){
    2d0e:	6f 92       	push	r6
    2d10:	7f 92       	push	r7
    2d12:	8f 92       	push	r8
    2d14:	9f 92       	push	r9
    2d16:	af 92       	push	r10
    2d18:	bf 92       	push	r11
    2d1a:	cf 92       	push	r12
    2d1c:	df 92       	push	r13
    2d1e:	ef 92       	push	r14
    2d20:	ff 92       	push	r15
    2d22:	0f 93       	push	r16
    2d24:	1f 93       	push	r17
    2d26:	cf 93       	push	r28
    2d28:	df 93       	push	r29
    2d2a:	cd b7       	in	r28, 0x3d	; 61
    2d2c:	de b7       	in	r29, 0x3e	; 62
    2d2e:	28 97       	sbiw	r28, 0x08	; 8
    2d30:	cd bf       	out	0x3d, r28	; 61
    2d32:	de bf       	out	0x3e, r29	; 62
    2d34:	3c 01       	movw	r6, r24
    static object_model_t actObj1, actObj2;
    uint8_t elements = 1;

    CleanInput(&data[0]);
    2d36:	91 dc       	rcall	.-1758   	; 0x265a <CleanInput>
    uint8_t inputLen = CleanInput(&data[0]);
    2d38:	c3 01       	movw	r24, r6
    2d3a:	8f dc       	rcall	.-1762   	; 0x265a <CleanInput>
    2d3c:	f8 2e       	mov	r15, r24
    return 0;
}

//
void SetResponse(uint8_t number, uint16_t address, uint16_t length, uint8_t type){
    reactStr[0][number]=address;
    2d3e:	29 e5       	ldi	r18, 0x59	; 89
    2d40:	3a e7       	ldi	r19, 0x7A	; 122
    2d42:	20 93 1d 39 	sts	0x391D, r18	; 0x80391d <reactStr>
    2d46:	30 93 1e 39 	sts	0x391E, r19	; 0x80391e <reactStr+0x1>
    reactStr[1][number]=length;
    2d4a:	84 e0       	ldi	r24, 0x04	; 4
    2d4c:	90 e0       	ldi	r25, 0x00	; 0
    2d4e:	80 93 5d 39 	sts	0x395D, r24	; 0x80395d <reactStr+0x40>
    2d52:	90 93 5e 39 	sts	0x395E, r25	; 0x80395e <reactStr+0x41>
    reactStr[2][number]=type;
    2d56:	01 e0       	ldi	r16, 0x01	; 1
    2d58:	10 e0       	ldi	r17, 0x00	; 0
    2d5a:	00 93 9d 39 	sts	0x399D, r16	; 0x80399d <reactStr+0x80>
    2d5e:	10 93 9e 39 	sts	0x399E, r17	; 0x80399e <reactStr+0x81>

    CleanInput(&data[0]);
    uint8_t inputLen = CleanInput(&data[0]);
    SetResponse(0, A_LF, 4, TEASER);

    if (inputLen) {
    2d62:	ff 20       	and	r15, r15
    2d64:	09 f4       	brne	.+2      	; 0x2d68 <ProcessInput+0x5a>
    2d66:	54 c7       	rjmp	.+3752   	; 0x3c10 <ProcessInput+0xf02>

        //eXit to previous location
        if (data[0] == 'x'){
    2d68:	d3 01       	movw	r26, r6
    2d6a:	8c 91       	ld	r24, X
    2d6c:	88 37       	cpi	r24, 0x78	; 120
    2d6e:	09 f0       	breq	.+2      	; 0x2d72 <ProcessInput+0x64>
    2d70:	45 c0       	rjmp	.+138    	; 0x2dfc <ProcessInput+0xee>

            //Standing in the Lobby?
            if ((route[currDepth] == 0)||(currDepth == 0)){
    2d72:	80 91 31 38 	lds	r24, 0x3831	; 0x803831 <currDepth>
    2d76:	e8 2f       	mov	r30, r24
    2d78:	f0 e0       	ldi	r31, 0x00	; 0
    2d7a:	ee 0f       	add	r30, r30
    2d7c:	ff 1f       	adc	r31, r31
    2d7e:	e3 52       	subi	r30, 0x23	; 35
    2d80:	f6 4c       	sbci	r31, 0xC6	; 198
    2d82:	20 81       	ld	r18, Z
    2d84:	31 81       	ldd	r19, Z+1	; 0x01
    2d86:	23 2b       	or	r18, r19
    2d88:	11 f0       	breq	.+4      	; 0x2d8e <ProcessInput+0x80>
    2d8a:	81 11       	cpse	r24, r1
    2d8c:	03 c0       	rjmp	.+6      	; 0x2d94 <ProcessInput+0x86>
    return 0;
}

//
void SetResponse(uint8_t number, uint16_t address, uint16_t length, uint8_t type){
    reactStr[0][number]=address;
    2d8e:	84 e4       	ldi	r24, 0x44	; 68
    2d90:	96 e7       	ldi	r25, 0x76	; 118
    2d92:	13 c5       	rjmp	.+2598   	; 0x37ba <ProcessInput+0xaac>
            //Standing in the Lobby?
            if ((route[currDepth] == 0)||(currDepth == 0)){
                SetResponse(elements++, A_NOTPOSSIBLE, L_NOTPOSSIBLE, TEASER);
            
            //Is there a way to go back?
            } else if (CheckState(currObj.byteField[OPEN_ACL])){
    2d94:	80 91 23 3a 	lds	r24, 0x3A23	; 0x803a23 <currObj+0x6>
    2d98:	0e 94 18 0a 	call	0x1430	; 0x1430 <CheckState>
    2d9c:	88 23       	and	r24, r24
    2d9e:	b9 f0       	breq	.+46     	; 0x2dce <ProcessInput+0xc0>
                --currDepth;
    2da0:	e0 91 31 38 	lds	r30, 0x3831	; 0x803831 <currDepth>
    2da4:	e1 50       	subi	r30, 0x01	; 1
    2da6:	e0 93 31 38 	sts	0x3831, r30	; 0x803831 <currDepth>
                PopulateObject(route[currDepth], &currObj);
    2daa:	f0 e0       	ldi	r31, 0x00	; 0
    2dac:	ee 0f       	add	r30, r30
    2dae:	ff 1f       	adc	r31, r31
    2db0:	e3 52       	subi	r30, 0x23	; 35
    2db2:	f6 4c       	sbci	r31, 0xC6	; 198
    2db4:	6d e1       	ldi	r22, 0x1D	; 29
    2db6:	7a e3       	ldi	r23, 0x3A	; 58
    2db8:	80 81       	ld	r24, Z
    2dba:	91 81       	ldd	r25, Z+1	; 0x01
    2dbc:	13 db       	rcall	.-2522   	; 0x23e4 <PopulateObject>
                effect = currObj.byteField[EFFECTS];
    2dbe:	80 91 21 3a 	lds	r24, 0x3A21	; 0x803a21 <currObj+0x4>
    2dc2:	90 e0       	ldi	r25, 0x00	; 0
    2dc4:	80 93 3c 38 	sts	0x383C, r24	; 0x80383c <effect>
    2dc8:	90 93 3d 38 	sts	0x383D, r25	; 0x80383d <effect+0x1>
    2dcc:	2a c2       	rjmp	.+1108   	; 0x3222 <ProcessInput+0x514>
            
            //No way out, print denied message of location
            } else {
                SetResponse(elements++, currObj.addrStr[OPEN_ACL_MSG], currObj.lenStr[OPEN_ACL_MSG], GAME);
    2dce:	80 91 3f 3a 	lds	r24, 0x3A3F	; 0x803a3f <currObj+0x22>
    2dd2:	90 91 40 3a 	lds	r25, 0x3A40	; 0x803a40 <currObj+0x23>
    return 0;
}

//
void SetResponse(uint8_t number, uint16_t address, uint16_t length, uint8_t type){
    reactStr[0][number]=address;
    2dd6:	20 91 31 3a 	lds	r18, 0x3A31	; 0x803a31 <currObj+0x14>
    2dda:	30 91 32 3a 	lds	r19, 0x3A32	; 0x803a32 <currObj+0x15>
    2dde:	20 93 1f 39 	sts	0x391F, r18	; 0x80391f <reactStr+0x2>
    2de2:	30 93 20 39 	sts	0x3920, r19	; 0x803920 <reactStr+0x3>
    reactStr[1][number]=length;
    2de6:	80 93 5f 39 	sts	0x395F, r24	; 0x80395f <reactStr+0x42>
    2dea:	90 93 60 39 	sts	0x3960, r25	; 0x803960 <reactStr+0x43>
    reactStr[2][number]=type;
    2dee:	10 92 9f 39 	sts	0x399F, r1	; 0x80399f <reactStr+0x82>
    2df2:	10 92 a0 39 	sts	0x39A0, r1	; 0x8039a0 <reactStr+0x83>
                effect = currObj.byteField[EFFECTS];
            
            //No way out, print denied message of location
            } else {
                SetResponse(elements++, currObj.addrStr[OPEN_ACL_MSG], currObj.lenStr[OPEN_ACL_MSG], GAME);
                effect = currObj.effect[0];               
    2df6:	80 91 45 3a 	lds	r24, 0x3A45	; 0x803a45 <currObj+0x28>
    2dfa:	a9 c5       	rjmp	.+2898   	; 0x394e <ProcessInput+0xc40>
            }   
        
        //Enter locations or Open objects    
        } else if ((data[0] == 'e')||(data[0] == 'o')) {
    2dfc:	85 36       	cpi	r24, 0x65	; 101
    2dfe:	19 f0       	breq	.+6      	; 0x2e06 <ProcessInput+0xf8>
    2e00:	8f 36       	cpi	r24, 0x6F	; 111
    2e02:	09 f0       	breq	.+2      	; 0x2e06 <ProcessInput+0xf8>
    2e04:	de c0       	rjmp	.+444    	; 0x2fc2 <ProcessInput+0x2b4>
                
            //Not possible, too many/little characters
            if (inputLen != 2){
    2e06:	b2 e0       	ldi	r27, 0x02	; 2
    2e08:	fb 12       	cpse	r15, r27
    2e0a:	c1 cf       	rjmp	.-126    	; 0x2d8e <ProcessInput+0x80>
                SetResponse(elements++, A_NOTPOSSIBLE, L_NOTPOSSIBLE, TEASER);
            } else {
                uint8_t canDo = 0;
                route[currDepth+1] = FindChild(route[currDepth], data[1], 0);
    2e0c:	00 91 31 38 	lds	r16, 0x3831	; 0x803831 <currDepth>
    2e10:	10 e0       	ldi	r17, 0x00	; 0
    2e12:	f8 01       	movw	r30, r16
    2e14:	ee 0f       	add	r30, r30
    2e16:	ff 1f       	adc	r31, r31
    2e18:	e3 52       	subi	r30, 0x23	; 35
    2e1a:	f6 4c       	sbci	r31, 0xC6	; 198
    2e1c:	40 e0       	ldi	r20, 0x00	; 0
    2e1e:	50 e0       	ldi	r21, 0x00	; 0
    2e20:	d3 01       	movw	r26, r6
    2e22:	11 96       	adiw	r26, 0x01	; 1
    2e24:	6c 91       	ld	r22, X
    2e26:	80 81       	ld	r24, Z
    2e28:	91 81       	ldd	r25, Z+1	; 0x01
    2e2a:	ab db       	rcall	.-2218   	; 0x2582 <FindChild>
    2e2c:	00 0f       	add	r16, r16
    2e2e:	11 1f       	adc	r17, r17
    2e30:	f8 01       	movw	r30, r16
    2e32:	e1 52       	subi	r30, 0x21	; 33
    2e34:	f6 4c       	sbci	r31, 0xC6	; 198
    2e36:	80 83       	st	Z, r24
    2e38:	91 83       	std	Z+1, r25	; 0x01
                    
                //Child found?
                if (route[currDepth+1]) {
    2e3a:	90 91 31 38 	lds	r25, 0x3831	; 0x803831 <currDepth>
    2e3e:	29 2f       	mov	r18, r25
    2e40:	30 e0       	ldi	r19, 0x00	; 0
    2e42:	f9 01       	movw	r30, r18
    2e44:	ee 0f       	add	r30, r30
    2e46:	ff 1f       	adc	r31, r31
    2e48:	e1 52       	subi	r30, 0x21	; 33
    2e4a:	f6 4c       	sbci	r31, 0xC6	; 198
    2e4c:	40 81       	ld	r20, Z
    2e4e:	51 81       	ldd	r21, Z+1	; 0x01
    2e50:	41 15       	cp	r20, r1
    2e52:	51 05       	cpc	r21, r1
    2e54:	21 f0       	breq	.+8      	; 0x2e5e <ProcessInput+0x150>
                    PopulateObject(route[currDepth+1], &actObj1);
    2e56:	6c ed       	ldi	r22, 0xDC	; 220
    2e58:	78 e3       	ldi	r23, 0x38	; 56
    2e5a:	ca 01       	movw	r24, r20
    2e5c:	1c c0       	rjmp	.+56     	; 0x2e96 <ProcessInput+0x188>
                    canDo = 1;
                //No child, maybe a step back, letter ok?
                } else if (currDepth) {
    2e5e:	99 23       	and	r25, r25
    2e60:	09 f4       	brne	.+2      	; 0x2e64 <ProcessInput+0x156>
    2e62:	dc c6       	rjmp	.+3512   	; 0x3c1c <ProcessInput+0xf0e>
                    if (CheckLetter(route[currDepth-1], data[1])) {
    2e64:	22 0f       	add	r18, r18
    2e66:	33 1f       	adc	r19, r19
    2e68:	f9 01       	movw	r30, r18
    2e6a:	e5 52       	subi	r30, 0x25	; 37
    2e6c:	f6 4c       	sbci	r31, 0xC6	; 198
    2e6e:	d3 01       	movw	r26, r6
    2e70:	11 96       	adiw	r26, 0x01	; 1
    2e72:	6c 91       	ld	r22, X
    2e74:	80 81       	ld	r24, Z
    2e76:	91 81       	ldd	r25, Z+1	; 0x01
    2e78:	2e db       	rcall	.-2468   	; 0x24d6 <CheckLetter>
    2e7a:	88 23       	and	r24, r24
    2e7c:	09 f4       	brne	.+2      	; 0x2e80 <ProcessInput+0x172>
    2e7e:	ce c6       	rjmp	.+3484   	; 0x3c1c <ProcessInput+0xf0e>
                        PopulateObject(route[currDepth-1], &actObj1);
    2e80:	e0 91 31 38 	lds	r30, 0x3831	; 0x803831 <currDepth>
    2e84:	f0 e0       	ldi	r31, 0x00	; 0
    2e86:	ee 0f       	add	r30, r30
    2e88:	ff 1f       	adc	r31, r31
    2e8a:	e5 52       	subi	r30, 0x25	; 37
    2e8c:	f6 4c       	sbci	r31, 0xC6	; 198
    2e8e:	6c ed       	ldi	r22, 0xDC	; 220
    2e90:	78 e3       	ldi	r23, 0x38	; 56
    2e92:	80 81       	ld	r24, Z
    2e94:	91 81       	ldd	r25, Z+1	; 0x01
    2e96:	a6 da       	rcall	.-2740   	; 0x23e4 <PopulateObject>
                    }
                }

                //The candidate is found! Let's check if the action is legit
                if (canDo) {
                    if ((data[0] == 'e') && ((actObj1.byteField[ACTION_MASK]&ENTER)==0)) {
    2e98:	d3 01       	movw	r26, r6
    2e9a:	8c 91       	ld	r24, X
    2e9c:	85 36       	cpi	r24, 0x65	; 101
    2e9e:	c1 f4       	brne	.+48     	; 0x2ed0 <ProcessInput+0x1c2>
    2ea0:	80 91 e4 38 	lds	r24, 0x38E4	; 0x8038e4 <actObj1.3989+0x8>
    2ea4:	80 fd       	sbrc	r24, 0
    2ea6:	1d c0       	rjmp	.+58     	; 0x2ee2 <ProcessInput+0x1d4>
    return 0;
}

//
void SetResponse(uint8_t number, uint16_t address, uint16_t length, uint8_t type){
    reactStr[0][number]=address;
    2ea8:	8d e9       	ldi	r24, 0x9D	; 157
    2eaa:	99 e7       	ldi	r25, 0x79	; 121
    2eac:	80 93 1f 39 	sts	0x391F, r24	; 0x80391f <reactStr+0x2>
    2eb0:	90 93 20 39 	sts	0x3920, r25	; 0x803920 <reactStr+0x3>
    reactStr[1][number]=length;
    2eb4:	8e e1       	ldi	r24, 0x1E	; 30
    2eb6:	90 e0       	ldi	r25, 0x00	; 0
    2eb8:	80 93 5f 39 	sts	0x395F, r24	; 0x80395f <reactStr+0x42>
    2ebc:	90 93 60 39 	sts	0x3960, r25	; 0x803960 <reactStr+0x43>
    reactStr[2][number]=type;
    2ec0:	81 e0       	ldi	r24, 0x01	; 1
    2ec2:	90 e0       	ldi	r25, 0x00	; 0
    2ec4:	80 93 9f 39 	sts	0x399F, r24	; 0x80399f <reactStr+0x82>
    2ec8:	90 93 a0 39 	sts	0x39A0, r25	; 0x8039a0 <reactStr+0x83>
                }

                //The candidate is found! Let's check if the action is legit
                if (canDo) {
                    if ((data[0] == 'e') && ((actObj1.byteField[ACTION_MASK]&ENTER)==0)) {
                        SetResponse(elements++, A_CANTENTER, L_CANTENTER, TEASER);
    2ecc:	12 e0       	ldi	r17, 0x02	; 2
    2ece:	97 c6       	rjmp	.+3374   	; 0x3bfe <ProcessInput+0xef0>
                    } else if ((data[0] == 'o') && ((actObj1.byteField[ACTION_MASK]&OPEN)==0)) {
    2ed0:	8f 36       	cpi	r24, 0x6F	; 111
    2ed2:	39 f4       	brne	.+14     	; 0x2ee2 <ProcessInput+0x1d4>
    2ed4:	80 91 e4 38 	lds	r24, 0x38E4	; 0x8038e4 <actObj1.3989+0x8>
    2ed8:	81 fd       	sbrc	r24, 1
    2eda:	03 c0       	rjmp	.+6      	; 0x2ee2 <ProcessInput+0x1d4>
    return 0;
}

//
void SetResponse(uint8_t number, uint16_t address, uint16_t length, uint8_t type){
    reactStr[0][number]=address;
    2edc:	82 e8       	ldi	r24, 0x82	; 130
    2ede:	99 e7       	ldi	r25, 0x79	; 121
    2ee0:	6c c4       	rjmp	.+2264   	; 0x37ba <ProcessInput+0xaac>
                        SetResponse(elements++, A_CANTENTER, L_CANTENTER, TEASER);
                    } else if ((data[0] == 'o') && ((actObj1.byteField[ACTION_MASK]&OPEN)==0)) {
                        SetResponse(elements++, A_CANTOPEN, L_CANTOPEN, TEASER);
                    
                    //Action legit, permission granted?
                    } else if (CheckState(actObj1.byteField[OPEN_ACL])) {
    2ee2:	80 91 e2 38 	lds	r24, 0x38E2	; 0x8038e2 <actObj1.3989+0x6>
    2ee6:	0e 94 18 0a 	call	0x1430	; 0x1430 <CheckState>
    2eea:	e0 91 31 38 	lds	r30, 0x3831	; 0x803831 <currDepth>
    2eee:	88 23       	and	r24, r24
    2ef0:	09 f4       	brne	.+2      	; 0x2ef4 <ProcessInput+0x1e6>
    2ef2:	49 c0       	rjmp	.+146    	; 0x2f86 <ProcessInput+0x278>
                            
                        //Yes! Check if we must move forward or backwards.
                        if (route[currDepth+1]) ++currDepth; else --currDepth;
    2ef4:	ae 2f       	mov	r26, r30
    2ef6:	b0 e0       	ldi	r27, 0x00	; 0
    2ef8:	aa 0f       	add	r26, r26
    2efa:	bb 1f       	adc	r27, r27
    2efc:	a1 52       	subi	r26, 0x21	; 33
    2efe:	b6 4c       	sbci	r27, 0xC6	; 198
    2f00:	8d 91       	ld	r24, X+
    2f02:	9c 91       	ld	r25, X
    2f04:	89 2b       	or	r24, r25
    2f06:	11 f0       	breq	.+4      	; 0x2f0c <ProcessInput+0x1fe>
    2f08:	ef 5f       	subi	r30, 0xFF	; 255
    2f0a:	01 c0       	rjmp	.+2      	; 0x2f0e <ProcessInput+0x200>
    2f0c:	e1 50       	subi	r30, 0x01	; 1
    2f0e:	e0 93 31 38 	sts	0x3831, r30	; 0x803831 <currDepth>
                        PopulateObject(route[currDepth], &currObj);
    2f12:	e0 91 31 38 	lds	r30, 0x3831	; 0x803831 <currDepth>
    2f16:	f0 e0       	ldi	r31, 0x00	; 0
    2f18:	ee 0f       	add	r30, r30
    2f1a:	ff 1f       	adc	r31, r31
    2f1c:	e3 52       	subi	r30, 0x23	; 35
    2f1e:	f6 4c       	sbci	r31, 0xC6	; 198
    2f20:	6d e1       	ldi	r22, 0x1D	; 29
    2f22:	7a e3       	ldi	r23, 0x3A	; 58
    2f24:	80 81       	ld	r24, Z
    2f26:	91 81       	ldd	r25, Z+1	; 0x01
    2f28:	5d da       	rcall	.-2886   	; 0x23e4 <PopulateObject>
                        SetResponse(elements++, currObj.addrStr[DESC], currObj.lenStr[DESC],GAME);
    2f2a:	80 91 39 3a 	lds	r24, 0x3A39	; 0x803a39 <currObj+0x1c>
    2f2e:	90 91 3a 3a 	lds	r25, 0x3A3A	; 0x803a3a <currObj+0x1d>
    return 0;
}

//
void SetResponse(uint8_t number, uint16_t address, uint16_t length, uint8_t type){
    reactStr[0][number]=address;
    2f32:	20 91 2b 3a 	lds	r18, 0x3A2B	; 0x803a2b <currObj+0xe>
    2f36:	30 91 2c 3a 	lds	r19, 0x3A2C	; 0x803a2c <currObj+0xf>
    2f3a:	20 93 1f 39 	sts	0x391F, r18	; 0x80391f <reactStr+0x2>
    2f3e:	30 93 20 39 	sts	0x3920, r19	; 0x803920 <reactStr+0x3>
    reactStr[1][number]=length;
    2f42:	80 93 5f 39 	sts	0x395F, r24	; 0x80395f <reactStr+0x42>
    2f46:	90 93 60 39 	sts	0x3960, r25	; 0x803960 <reactStr+0x43>
    reactStr[2][number]=type;
    2f4a:	10 92 9f 39 	sts	0x399F, r1	; 0x80399f <reactStr+0x82>
    2f4e:	10 92 a0 39 	sts	0x39A0, r1	; 0x8039a0 <reactStr+0x83>
    return 0;
}

//
void SetResponse(uint8_t number, uint16_t address, uint16_t length, uint8_t type){
    reactStr[0][number]=address;
    2f52:	89 e5       	ldi	r24, 0x59	; 89
    2f54:	9a e7       	ldi	r25, 0x7A	; 122
    2f56:	80 93 21 39 	sts	0x3921, r24	; 0x803921 <reactStr+0x4>
    2f5a:	90 93 22 39 	sts	0x3922, r25	; 0x803922 <reactStr+0x5>
    reactStr[1][number]=length;
    2f5e:	82 e0       	ldi	r24, 0x02	; 2
    2f60:	90 e0       	ldi	r25, 0x00	; 0
    2f62:	80 93 61 39 	sts	0x3961, r24	; 0x803961 <reactStr+0x44>
    2f66:	90 93 62 39 	sts	0x3962, r25	; 0x803962 <reactStr+0x45>
    reactStr[2][number]=type;
    2f6a:	81 e0       	ldi	r24, 0x01	; 1
    2f6c:	90 e0       	ldi	r25, 0x00	; 0
    2f6e:	80 93 a1 39 	sts	0x39A1, r24	; 0x8039a1 <reactStr+0x84>
    2f72:	90 93 a2 39 	sts	0x39A2, r25	; 0x8039a2 <reactStr+0x85>
                        //Yes! Check if we must move forward or backwards.
                        if (route[currDepth+1]) ++currDepth; else --currDepth;
                        PopulateObject(route[currDepth], &currObj);
                        SetResponse(elements++, currObj.addrStr[DESC], currObj.lenStr[DESC],GAME);
                        SetResponse(elements++, A_LF, 2, TEASER);
                        effect = currObj.byteField[EFFECTS];
    2f76:	80 91 21 3a 	lds	r24, 0x3A21	; 0x803a21 <currObj+0x4>
    2f7a:	90 e0       	ldi	r25, 0x00	; 0
    2f7c:	80 93 3c 38 	sts	0x383C, r24	; 0x80383c <effect>
    2f80:	90 93 3d 38 	sts	0x383D, r25	; 0x80383d <effect+0x1>
    2f84:	07 c4       	rjmp	.+2062   	; 0x3794 <ProcessInput+0xa86>
                                                  
                    //Not granted!
                    } else {
                        route[currDepth+1] = 0;
    2f86:	f0 e0       	ldi	r31, 0x00	; 0
    2f88:	ee 0f       	add	r30, r30
    2f8a:	ff 1f       	adc	r31, r31
    2f8c:	e1 52       	subi	r30, 0x21	; 33
    2f8e:	f6 4c       	sbci	r31, 0xC6	; 198
    2f90:	10 82       	st	Z, r1
    2f92:	11 82       	std	Z+1, r1	; 0x01
                        SetResponse(elements++, actObj1.addrStr[OPEN_ACL_MSG], actObj1.lenStr[OPEN_ACL_MSG], GAME);
    2f94:	80 91 fe 38 	lds	r24, 0x38FE	; 0x8038fe <actObj1.3989+0x22>
    2f98:	90 91 ff 38 	lds	r25, 0x38FF	; 0x8038ff <actObj1.3989+0x23>
    return 0;
}

//
void SetResponse(uint8_t number, uint16_t address, uint16_t length, uint8_t type){
    reactStr[0][number]=address;
    2f9c:	20 91 f0 38 	lds	r18, 0x38F0	; 0x8038f0 <actObj1.3989+0x14>
    2fa0:	30 91 f1 38 	lds	r19, 0x38F1	; 0x8038f1 <actObj1.3989+0x15>
    2fa4:	20 93 1f 39 	sts	0x391F, r18	; 0x80391f <reactStr+0x2>
    2fa8:	30 93 20 39 	sts	0x3920, r19	; 0x803920 <reactStr+0x3>
    reactStr[1][number]=length;
    2fac:	80 93 5f 39 	sts	0x395F, r24	; 0x80395f <reactStr+0x42>
    2fb0:	90 93 60 39 	sts	0x3960, r25	; 0x803960 <reactStr+0x43>
    reactStr[2][number]=type;
    2fb4:	10 92 9f 39 	sts	0x399F, r1	; 0x80399f <reactStr+0x82>
    2fb8:	10 92 a0 39 	sts	0x39A0, r1	; 0x8039a0 <reactStr+0x83>
                                                  
                    //Not granted!
                    } else {
                        route[currDepth+1] = 0;
                        SetResponse(elements++, actObj1.addrStr[OPEN_ACL_MSG], actObj1.lenStr[OPEN_ACL_MSG], GAME);
                        effect = actObj1.effect[0];              
    2fbc:	80 91 04 39 	lds	r24, 0x3904	; 0x803904 <actObj1.3989+0x28>
    2fc0:	c6 c4       	rjmp	.+2444   	; 0x394e <ProcessInput+0xc40>
                    SetResponse(elements++, A_DONTSEE, L_DONTSEE, TEASER);                
                }
            }

        //Look around or at objects
        } else if (data[0] == 'l') {
    2fc2:	8c 36       	cpi	r24, 0x6C	; 108
    2fc4:	09 f0       	breq	.+2      	; 0x2fc8 <ProcessInput+0x2ba>
    2fc6:	59 c1       	rjmp	.+690    	; 0x327a <ProcessInput+0x56c>
    2fc8:	e0 91 31 38 	lds	r30, 0x3831	; 0x803831 <currDepth>
            if (inputLen == 1) {
    2fcc:	b1 e0       	ldi	r27, 0x01	; 1
    2fce:	fb 12       	cpse	r15, r27
    2fd0:	f1 c0       	rjmp	.+482    	; 0x31b4 <ProcessInput+0x4a6>

                //Show info about this area first
                SetResponse(elements++, currObj.addrStr[DESC], currObj.lenStr[DESC],GAME);
    2fd2:	80 91 39 3a 	lds	r24, 0x3A39	; 0x803a39 <currObj+0x1c>
    2fd6:	90 91 3a 3a 	lds	r25, 0x3A3A	; 0x803a3a <currObj+0x1d>
    return 0;
}

//
void SetResponse(uint8_t number, uint16_t address, uint16_t length, uint8_t type){
    reactStr[0][number]=address;
    2fda:	40 91 2b 3a 	lds	r20, 0x3A2B	; 0x803a2b <currObj+0xe>
    2fde:	50 91 2c 3a 	lds	r21, 0x3A2C	; 0x803a2c <currObj+0xf>
    2fe2:	40 93 1f 39 	sts	0x391F, r20	; 0x80391f <reactStr+0x2>
    2fe6:	50 93 20 39 	sts	0x3920, r21	; 0x803920 <reactStr+0x3>
    reactStr[1][number]=length;
    2fea:	80 93 5f 39 	sts	0x395F, r24	; 0x80395f <reactStr+0x42>
    2fee:	90 93 60 39 	sts	0x3960, r25	; 0x803960 <reactStr+0x43>
    reactStr[2][number]=type;
    2ff2:	10 92 9f 39 	sts	0x399F, r1	; 0x80399f <reactStr+0x82>
    2ff6:	10 92 a0 39 	sts	0x39A0, r1	; 0x8039a0 <reactStr+0x83>
    return 0;
}

//
void SetResponse(uint8_t number, uint16_t address, uint16_t length, uint8_t type){
    reactStr[0][number]=address;
    2ffa:	20 93 21 39 	sts	0x3921, r18	; 0x803921 <reactStr+0x4>
    2ffe:	30 93 22 39 	sts	0x3922, r19	; 0x803922 <reactStr+0x5>
    reactStr[1][number]=length;
    3002:	82 e0       	ldi	r24, 0x02	; 2
    3004:	90 e0       	ldi	r25, 0x00	; 0
    3006:	80 93 61 39 	sts	0x3961, r24	; 0x803961 <reactStr+0x44>
    300a:	90 93 62 39 	sts	0x3962, r25	; 0x803962 <reactStr+0x45>
    reactStr[2][number]=type;
    300e:	00 93 a1 39 	sts	0x39A1, r16	; 0x8039a1 <reactStr+0x84>
    3012:	10 93 a2 39 	sts	0x39A2, r17	; 0x8039a2 <reactStr+0x85>
    return 0;
}

//
void SetResponse(uint8_t number, uint16_t address, uint16_t length, uint8_t type){
    reactStr[0][number]=address;
    3016:	8b ee       	ldi	r24, 0xEB	; 235
    3018:	99 e7       	ldi	r25, 0x79	; 121
    301a:	80 93 23 39 	sts	0x3923, r24	; 0x803923 <reactStr+0x6>
    301e:	90 93 24 39 	sts	0x3924, r25	; 0x803924 <reactStr+0x7>
    reactStr[1][number]=length;
    3022:	85 e1       	ldi	r24, 0x15	; 21
    3024:	90 e0       	ldi	r25, 0x00	; 0
    3026:	80 93 63 39 	sts	0x3963, r24	; 0x803963 <reactStr+0x46>
    302a:	90 93 64 39 	sts	0x3964, r25	; 0x803964 <reactStr+0x47>
    reactStr[2][number]=type;
    302e:	00 93 a3 39 	sts	0x39A3, r16	; 0x8039a3 <reactStr+0x86>
    3032:	10 93 a4 39 	sts	0x39A4, r17	; 0x8039a4 <reactStr+0x87>
                SetResponse(elements++, currObj.addrStr[DESC], currObj.lenStr[DESC],GAME);
                SetResponse(elements++, A_LF, 2, TEASER);
                SetResponse(elements++, A_LOOK, L_LOOK, TEASER);

                //Check the visible children first
                route[currDepth+1] = 0;
    3036:	f0 e0       	ldi	r31, 0x00	; 0
    3038:	ee 0f       	add	r30, r30
    303a:	ff 1f       	adc	r31, r31
    303c:	e1 52       	subi	r30, 0x21	; 33
    303e:	f6 4c       	sbci	r31, 0xC6	; 198
    3040:	10 82       	st	Z, r1
    3042:	11 82       	std	Z+1, r1	; 0x01
            if (inputLen == 1) {

                //Show info about this area first
                SetResponse(elements++, currObj.addrStr[DESC], currObj.lenStr[DESC],GAME);
                SetResponse(elements++, A_LF, 2, TEASER);
                SetResponse(elements++, A_LOOK, L_LOOK, TEASER);
    3044:	b4 e0       	ldi	r27, 0x04	; 4
    3046:	9b 2e       	mov	r9, r27
    return 0;
}

//
void SetResponse(uint8_t number, uint16_t address, uint16_t length, uint8_t type){
    reactStr[0][number]=address;
    3048:	17 e5       	ldi	r17, 0x57	; 87
    304a:	e1 2e       	mov	r14, r17
    304c:	1a e7       	ldi	r17, 0x7A	; 122
    304e:	f1 2e       	mov	r15, r17
    reactStr[1][number]=length;
    3050:	02 e0       	ldi	r16, 0x02	; 2
    3052:	c0 2e       	mov	r12, r16
    3054:	d1 2c       	mov	r13, r1
    reactStr[2][number]=type;
    3056:	aa 24       	eor	r10, r10
    3058:	a3 94       	inc	r10
    305a:	b1 2c       	mov	r11, r1
                SetResponse(elements++, A_LOOK, L_LOOK, TEASER);

                //Check the visible children first
                route[currDepth+1] = 0;
                do{
                    route[currDepth+1] = FindChild(route[currDepth], 0, route[currDepth+1]);
    305c:	80 91 31 38 	lds	r24, 0x3831	; 0x803831 <currDepth>
    3060:	90 e0       	ldi	r25, 0x00	; 0
    3062:	8c 01       	movw	r16, r24
    3064:	00 0f       	add	r16, r16
    3066:	11 1f       	adc	r17, r17
    3068:	01 52       	subi	r16, 0x21	; 33
    306a:	16 4c       	sbci	r17, 0xC6	; 198
    306c:	f8 01       	movw	r30, r16
    306e:	40 81       	ld	r20, Z
    3070:	51 81       	ldd	r21, Z+1	; 0x01
    3072:	88 0f       	add	r24, r24
    3074:	99 1f       	adc	r25, r25
    3076:	fc 01       	movw	r30, r24
    3078:	e3 52       	subi	r30, 0x23	; 35
    307a:	f6 4c       	sbci	r31, 0xC6	; 198
    307c:	60 e0       	ldi	r22, 0x00	; 0
    307e:	80 81       	ld	r24, Z
    3080:	91 81       	ldd	r25, Z+1	; 0x01
    3082:	7f da       	rcall	.-2818   	; 0x2582 <FindChild>
    3084:	d8 01       	movw	r26, r16
    3086:	8d 93       	st	X+, r24
    3088:	9c 93       	st	X, r25
                    if (route[currDepth+1]) {
    308a:	e0 91 31 38 	lds	r30, 0x3831	; 0x803831 <currDepth>
    308e:	f0 e0       	ldi	r31, 0x00	; 0
    3090:	ee 0f       	add	r30, r30
    3092:	ff 1f       	adc	r31, r31
    3094:	e1 52       	subi	r30, 0x21	; 33
    3096:	f6 4c       	sbci	r31, 0xC6	; 198
    3098:	80 81       	ld	r24, Z
    309a:	91 81       	ldd	r25, Z+1	; 0x01
    309c:	00 97       	sbiw	r24, 0x00	; 0
    309e:	09 f4       	brne	.+2      	; 0x30a2 <ProcessInput+0x394>
    30a0:	4a c0       	rjmp	.+148    	; 0x3136 <ProcessInput+0x428>
                        if ((route[currDepth+1] != inventory[0])&&(route[currDepth+1] != inventory[1])) {
    30a2:	20 91 40 38 	lds	r18, 0x3840	; 0x803840 <inventory>
    30a6:	30 91 41 38 	lds	r19, 0x3841	; 0x803841 <inventory+0x1>
    30aa:	82 17       	cp	r24, r18
    30ac:	93 07       	cpc	r25, r19
    30ae:	09 f4       	brne	.+2      	; 0x30b2 <ProcessInput+0x3a4>
    30b0:	42 c0       	rjmp	.+132    	; 0x3136 <ProcessInput+0x428>
    30b2:	20 91 42 38 	lds	r18, 0x3842	; 0x803842 <inventory+0x2>
    30b6:	30 91 43 38 	lds	r19, 0x3843	; 0x803843 <inventory+0x3>
    30ba:	82 17       	cp	r24, r18
    30bc:	93 07       	cpc	r25, r19
                            PopulateObject(route[currDepth+1], &actObj1);
    30be:	d9 f1       	breq	.+118    	; 0x3136 <ProcessInput+0x428>
    30c0:	6c ed       	ldi	r22, 0xDC	; 220
    30c2:	78 e3       	ldi	r23, 0x38	; 56
    30c4:	8f d9       	rcall	.-3298   	; 0x23e4 <PopulateObject>
                            SetResponse(elements++, actObj1.addrStr[NAME], actObj1.lenStr[NAME],GAME);
    30c6:	80 91 f6 38 	lds	r24, 0x38F6	; 0x8038f6 <actObj1.3989+0x1a>
    30ca:	90 91 f7 38 	lds	r25, 0x38F7	; 0x8038f7 <actObj1.3989+0x1b>
    return 0;
}

//
void SetResponse(uint8_t number, uint16_t address, uint16_t length, uint8_t type){
    reactStr[0][number]=address;
    30ce:	e9 2d       	mov	r30, r9
    30d0:	f0 e0       	ldi	r31, 0x00	; 0
    30d2:	df 01       	movw	r26, r30
    30d4:	aa 0f       	add	r26, r26
    30d6:	bb 1f       	adc	r27, r27
    30d8:	a3 5e       	subi	r26, 0xE3	; 227
    30da:	b6 4c       	sbci	r27, 0xC6	; 198
    30dc:	20 91 e8 38 	lds	r18, 0x38E8	; 0x8038e8 <actObj1.3989+0xc>
    30e0:	30 91 e9 38 	lds	r19, 0x38E9	; 0x8038e9 <actObj1.3989+0xd>
    30e4:	2d 93       	st	X+, r18
    30e6:	3c 93       	st	X, r19
    reactStr[1][number]=length;
    30e8:	df 01       	movw	r26, r30
    30ea:	aa 0f       	add	r26, r26
    30ec:	bb 1f       	adc	r27, r27
    30ee:	a3 5a       	subi	r26, 0xA3	; 163
    30f0:	b6 4c       	sbci	r27, 0xC6	; 198
    30f2:	8d 93       	st	X+, r24
    30f4:	9c 93       	st	X, r25
    reactStr[2][number]=type;
    30f6:	ee 0f       	add	r30, r30
    30f8:	ff 1f       	adc	r31, r31
    30fa:	e3 56       	subi	r30, 0x63	; 99
    30fc:	f6 4c       	sbci	r31, 0xC6	; 198
    30fe:	10 82       	st	Z, r1
    3100:	11 82       	std	Z+1, r1	; 0x01
    return 0;
}

//
void SetResponse(uint8_t number, uint16_t address, uint16_t length, uint8_t type){
    reactStr[0][number]=address;
    3102:	81 e0       	ldi	r24, 0x01	; 1
    3104:	89 0d       	add	r24, r9
    3106:	90 e0       	ldi	r25, 0x00	; 0
    3108:	93 94       	inc	r9
    310a:	93 94       	inc	r9
    310c:	fc 01       	movw	r30, r24
    310e:	ee 0f       	add	r30, r30
    3110:	ff 1f       	adc	r31, r31
    3112:	e3 5e       	subi	r30, 0xE3	; 227
    3114:	f6 4c       	sbci	r31, 0xC6	; 198
    3116:	e0 82       	st	Z, r14
    3118:	f1 82       	std	Z+1, r15	; 0x01
    reactStr[1][number]=length;
    311a:	fc 01       	movw	r30, r24
    311c:	ee 0f       	add	r30, r30
    311e:	ff 1f       	adc	r31, r31
    3120:	e3 5a       	subi	r30, 0xA3	; 163
    3122:	f6 4c       	sbci	r31, 0xC6	; 198
    3124:	c0 82       	st	Z, r12
    3126:	d1 82       	std	Z+1, r13	; 0x01
    reactStr[2][number]=type;
    3128:	88 0f       	add	r24, r24
    312a:	99 1f       	adc	r25, r25
    312c:	fc 01       	movw	r30, r24
    312e:	e3 56       	subi	r30, 0x63	; 99
    3130:	f6 4c       	sbci	r31, 0xC6	; 198
    3132:	a0 82       	st	Z, r10
    3134:	b1 82       	std	Z+1, r11	; 0x01
                            PopulateObject(route[currDepth+1], &actObj1);
                            SetResponse(elements++, actObj1.addrStr[NAME], actObj1.lenStr[NAME],GAME);
                            SetResponse(elements++, A_COMMA, L_COMMA, TEASER);
                        }
                    }
                }while (route[currDepth+1]);
    3136:	20 91 31 38 	lds	r18, 0x3831	; 0x803831 <currDepth>
    313a:	82 2f       	mov	r24, r18
    313c:	90 e0       	ldi	r25, 0x00	; 0
    313e:	fc 01       	movw	r30, r24
    3140:	ee 0f       	add	r30, r30
    3142:	ff 1f       	adc	r31, r31
    3144:	e1 52       	subi	r30, 0x21	; 33
    3146:	f6 4c       	sbci	r31, 0xC6	; 198
    3148:	40 81       	ld	r20, Z
    314a:	51 81       	ldd	r21, Z+1	; 0x01
    314c:	45 2b       	or	r20, r21
    314e:	09 f0       	breq	.+2      	; 0x3152 <ProcessInput+0x444>
    3150:	85 cf       	rjmp	.-246    	; 0x305c <ProcessInput+0x34e>

                //Look back if not on level 0
                if (currDepth) {
    3152:	22 23       	and	r18, r18
    3154:	61 f1       	breq	.+88     	; 0x31ae <ProcessInput+0x4a0>
                    PopulateObject(route[currDepth-1], &actObj1);
    3156:	88 0f       	add	r24, r24
    3158:	99 1f       	adc	r25, r25
    315a:	fc 01       	movw	r30, r24
    315c:	e5 52       	subi	r30, 0x25	; 37
    315e:	f6 4c       	sbci	r31, 0xC6	; 198
    3160:	6c ed       	ldi	r22, 0xDC	; 220
    3162:	78 e3       	ldi	r23, 0x38	; 56
    3164:	80 81       	ld	r24, Z
    3166:	91 81       	ldd	r25, Z+1	; 0x01
    3168:	3d d9       	rcall	.-3462   	; 0x23e4 <PopulateObject>
                    SetResponse(elements++, actObj1.addrStr[NAME], actObj1.lenStr[NAME],GAME);
    316a:	20 91 f6 38 	lds	r18, 0x38F6	; 0x8038f6 <actObj1.3989+0x1a>
    316e:	30 91 f7 38 	lds	r19, 0x38F7	; 0x8038f7 <actObj1.3989+0x1b>
    3172:	11 e0       	ldi	r17, 0x01	; 1
    3174:	19 0d       	add	r17, r9
    return 0;
}

//
void SetResponse(uint8_t number, uint16_t address, uint16_t length, uint8_t type){
    reactStr[0][number]=address;
    3176:	89 2d       	mov	r24, r9
    3178:	90 e0       	ldi	r25, 0x00	; 0
    317a:	fc 01       	movw	r30, r24
    317c:	ee 0f       	add	r30, r30
    317e:	ff 1f       	adc	r31, r31
    3180:	e3 5e       	subi	r30, 0xE3	; 227
    3182:	f6 4c       	sbci	r31, 0xC6	; 198
    3184:	40 91 e8 38 	lds	r20, 0x38E8	; 0x8038e8 <actObj1.3989+0xc>
    3188:	50 91 e9 38 	lds	r21, 0x38E9	; 0x8038e9 <actObj1.3989+0xd>
    318c:	40 83       	st	Z, r20
    318e:	51 83       	std	Z+1, r21	; 0x01
    reactStr[1][number]=length;
    3190:	fc 01       	movw	r30, r24
    3192:	ee 0f       	add	r30, r30
    3194:	ff 1f       	adc	r31, r31
    3196:	e3 5a       	subi	r30, 0xA3	; 163
    3198:	f6 4c       	sbci	r31, 0xC6	; 198
    319a:	20 83       	st	Z, r18
    319c:	31 83       	std	Z+1, r19	; 0x01
    reactStr[2][number]=type;
    319e:	88 0f       	add	r24, r24
    31a0:	99 1f       	adc	r25, r25
    31a2:	fc 01       	movw	r30, r24
    31a4:	e3 56       	subi	r30, 0x63	; 99
    31a6:	f6 4c       	sbci	r31, 0xC6	; 198
    31a8:	10 82       	st	Z, r1
    31aa:	11 82       	std	Z+1, r1	; 0x01
    31ac:	28 c5       	rjmp	.+2640   	; 0x3bfe <ProcessInput+0xef0>

                //Look back if not on level 0
                if (currDepth) {
                    PopulateObject(route[currDepth-1], &actObj1);
                    SetResponse(elements++, actObj1.addrStr[NAME], actObj1.lenStr[NAME],GAME);
                } else elements-=1;
    31ae:	1f ef       	ldi	r17, 0xFF	; 255
    31b0:	19 0d       	add	r17, r9
    31b2:	25 c5       	rjmp	.+2634   	; 0x3bfe <ProcessInput+0xef0>

            } else {
                route[currDepth+1] = FindChild(route[currDepth], data[1], 0);
    31b4:	ee 2e       	mov	r14, r30
    31b6:	f1 2c       	mov	r15, r1
    31b8:	f7 01       	movw	r30, r14
    31ba:	ee 0f       	add	r30, r30
    31bc:	ff 1f       	adc	r31, r31
    31be:	e3 52       	subi	r30, 0x23	; 35
    31c0:	f6 4c       	sbci	r31, 0xC6	; 198
    31c2:	40 e0       	ldi	r20, 0x00	; 0
    31c4:	50 e0       	ldi	r21, 0x00	; 0
    31c6:	d3 01       	movw	r26, r6
    31c8:	11 96       	adiw	r26, 0x01	; 1
    31ca:	6c 91       	ld	r22, X
    31cc:	80 81       	ld	r24, Z
    31ce:	91 81       	ldd	r25, Z+1	; 0x01
    31d0:	d8 d9       	rcall	.-3152   	; 0x2582 <FindChild>
    31d2:	f7 01       	movw	r30, r14
    31d4:	ee 0f       	add	r30, r30
    31d6:	ff 1f       	adc	r31, r31
    31d8:	e1 52       	subi	r30, 0x21	; 33
    31da:	f6 4c       	sbci	r31, 0xC6	; 198
    31dc:	80 83       	st	Z, r24
    31de:	91 83       	std	Z+1, r25	; 0x01
                if (route[currDepth+1]) {
    31e0:	90 91 31 38 	lds	r25, 0x3831	; 0x803831 <currDepth>
    31e4:	29 2f       	mov	r18, r25
    31e6:	30 e0       	ldi	r19, 0x00	; 0
    31e8:	f9 01       	movw	r30, r18
    31ea:	ee 0f       	add	r30, r30
    31ec:	ff 1f       	adc	r31, r31
    31ee:	e1 52       	subi	r30, 0x21	; 33
    31f0:	f6 4c       	sbci	r31, 0xC6	; 198
    31f2:	40 81       	ld	r20, Z
    31f4:	51 81       	ldd	r21, Z+1	; 0x01
    31f6:	41 15       	cp	r20, r1
    31f8:	51 05       	cpc	r21, r1
    31fa:	21 f0       	breq	.+8      	; 0x3204 <ProcessInput+0x4f6>
                    PopulateObject(route[currDepth+1], &actObj1);
    31fc:	6c ed       	ldi	r22, 0xDC	; 220
    31fe:	78 e3       	ldi	r23, 0x38	; 56
    3200:	ca 01       	movw	r24, r20
    3202:	1c c0       	rjmp	.+56     	; 0x323c <ProcessInput+0x52e>
                    SetResponse(elements++, actObj1.addrStr[DESC], actObj1.lenStr[DESC],GAME);   
                } else if (currDepth) {
    3204:	99 23       	and	r25, r25
                    if (CheckLetter(route[currDepth-1], data[1])) {
    3206:	81 f1       	breq	.+96     	; 0x3268 <ProcessInput+0x55a>
    3208:	22 0f       	add	r18, r18
    320a:	33 1f       	adc	r19, r19
    320c:	f9 01       	movw	r30, r18
    320e:	e5 52       	subi	r30, 0x25	; 37
    3210:	f6 4c       	sbci	r31, 0xC6	; 198
    3212:	d3 01       	movw	r26, r6
    3214:	11 96       	adiw	r26, 0x01	; 1
    3216:	6c 91       	ld	r22, X
    3218:	80 81       	ld	r24, Z
    321a:	91 81       	ldd	r25, Z+1	; 0x01
    321c:	5c d9       	rcall	.-3400   	; 0x24d6 <CheckLetter>
    321e:	81 11       	cpse	r24, r1
    3220:	02 c0       	rjmp	.+4      	; 0x3226 <ProcessInput+0x518>
}

//The game logic!
uint8_t ProcessInput(uint8_t *data){
    static object_model_t actObj1, actObj2;
    uint8_t elements = 1;
    3222:	11 e0       	ldi	r17, 0x01	; 1
                if (route[currDepth+1]) {
                    PopulateObject(route[currDepth+1], &actObj1);
                    SetResponse(elements++, actObj1.addrStr[DESC], actObj1.lenStr[DESC],GAME);   
                } else if (currDepth) {
                    if (CheckLetter(route[currDepth-1], data[1])) {
                        PopulateObject(route[currDepth-1], &actObj1);
    3224:	ec c4       	rjmp	.+2520   	; 0x3bfe <ProcessInput+0xef0>
    3226:	e0 91 31 38 	lds	r30, 0x3831	; 0x803831 <currDepth>
    322a:	f0 e0       	ldi	r31, 0x00	; 0
    322c:	ee 0f       	add	r30, r30
    322e:	ff 1f       	adc	r31, r31
    3230:	e5 52       	subi	r30, 0x25	; 37
    3232:	f6 4c       	sbci	r31, 0xC6	; 198
    3234:	6c ed       	ldi	r22, 0xDC	; 220
    3236:	78 e3       	ldi	r23, 0x38	; 56
    3238:	80 81       	ld	r24, Z
    323a:	91 81       	ldd	r25, Z+1	; 0x01
    323c:	d3 d8       	rcall	.-3674   	; 0x23e4 <PopulateObject>
                        SetResponse(elements++, actObj1.addrStr[DESC], actObj1.lenStr[DESC],GAME);
    323e:	80 91 f8 38 	lds	r24, 0x38F8	; 0x8038f8 <actObj1.3989+0x1c>
    3242:	90 91 f9 38 	lds	r25, 0x38F9	; 0x8038f9 <actObj1.3989+0x1d>
    return 0;
}

//
void SetResponse(uint8_t number, uint16_t address, uint16_t length, uint8_t type){
    reactStr[0][number]=address;
    3246:	20 91 ea 38 	lds	r18, 0x38EA	; 0x8038ea <actObj1.3989+0xe>
    324a:	30 91 eb 38 	lds	r19, 0x38EB	; 0x8038eb <actObj1.3989+0xf>
    324e:	20 93 1f 39 	sts	0x391F, r18	; 0x80391f <reactStr+0x2>
    3252:	30 93 20 39 	sts	0x3920, r19	; 0x803920 <reactStr+0x3>
    reactStr[1][number]=length;
    3256:	80 93 5f 39 	sts	0x395F, r24	; 0x80395f <reactStr+0x42>
    325a:	90 93 60 39 	sts	0x3960, r25	; 0x803960 <reactStr+0x43>
    reactStr[2][number]=type;
    325e:	10 92 9f 39 	sts	0x399F, r1	; 0x80399f <reactStr+0x82>
    3262:	10 92 a0 39 	sts	0x39A0, r1	; 0x8039a0 <reactStr+0x83>
    3266:	32 ce       	rjmp	.-924    	; 0x2ecc <ProcessInput+0x1be>
    return 0;
}

//
void SetResponse(uint8_t number, uint16_t address, uint16_t length, uint8_t type){
    reactStr[0][number]=address;
    3268:	81 ed       	ldi	r24, 0xD1	; 209
    326a:	99 e7       	ldi	r25, 0x79	; 121
    326c:	80 93 1f 39 	sts	0x391F, r24	; 0x80391f <reactStr+0x2>
    3270:	90 93 20 39 	sts	0x3920, r25	; 0x803920 <reactStr+0x3>
    reactStr[1][number]=length;
    3274:	8a e1       	ldi	r24, 0x1A	; 26
    3276:	90 e0       	ldi	r25, 0x00	; 0
    3278:	c9 c2       	rjmp	.+1426   	; 0x380c <ProcessInput+0xafe>
                    SetResponse(elements++, A_DONTSEE, L_DONTSEE, TEASER);
                }
            }
        
        //Pick up an object
        } else if (data[0] == 'p') {
    327a:	80 37       	cpi	r24, 0x70	; 112
    327c:	09 f0       	breq	.+2      	; 0x3280 <ProcessInput+0x572>
    327e:	92 c0       	rjmp	.+292    	; 0x33a4 <ProcessInput+0x696>
            if (inventory[0]&&inventory[1]) {
    3280:	80 91 40 38 	lds	r24, 0x3840	; 0x803840 <inventory>
    3284:	90 91 41 38 	lds	r25, 0x3841	; 0x803841 <inventory+0x1>
    3288:	89 2b       	or	r24, r25
    328a:	79 f0       	breq	.+30     	; 0x32aa <ProcessInput+0x59c>
    328c:	80 91 42 38 	lds	r24, 0x3842	; 0x803842 <inventory+0x2>
    3290:	90 91 43 38 	lds	r25, 0x3843	; 0x803843 <inventory+0x3>
    3294:	89 2b       	or	r24, r25
    3296:	49 f0       	breq	.+18     	; 0x32aa <ProcessInput+0x59c>
    return 0;
}

//
void SetResponse(uint8_t number, uint16_t address, uint16_t length, uint8_t type){
    reactStr[0][number]=address;
    3298:	87 e0       	ldi	r24, 0x07	; 7
    329a:	98 e7       	ldi	r25, 0x78	; 120
    329c:	80 93 1f 39 	sts	0x391F, r24	; 0x80391f <reactStr+0x2>
    32a0:	90 93 20 39 	sts	0x3920, r25	; 0x803920 <reactStr+0x3>
    reactStr[1][number]=length;
    32a4:	89 e5       	ldi	r24, 0x59	; 89
    32a6:	90 e0       	ldi	r25, 0x00	; 0
    32a8:	b1 c2       	rjmp	.+1378   	; 0x380c <ProcessInput+0xafe>
        
        //Pick up an object
        } else if (data[0] == 'p') {
            if (inventory[0]&&inventory[1]) {
                SetResponse(elements++, A_CARRYTWO, L_CARRYTWO, TEASER);
            } else if (inputLen != 2) {
    32aa:	b2 e0       	ldi	r27, 0x02	; 2
    32ac:	fb 12       	cpse	r15, r27
    32ae:	6f cd       	rjmp	.-1314   	; 0x2d8e <ProcessInput+0x80>
                SetResponse(elements++, A_NOTPOSSIBLE, L_NOTPOSSIBLE, TEASER);
            } else {
                route[currDepth+1] = FindChild(route[currDepth], data[1], 0);
    32b0:	00 91 31 38 	lds	r16, 0x3831	; 0x803831 <currDepth>
    32b4:	10 e0       	ldi	r17, 0x00	; 0
    32b6:	f8 01       	movw	r30, r16
    32b8:	ee 0f       	add	r30, r30
    32ba:	ff 1f       	adc	r31, r31
    32bc:	e3 52       	subi	r30, 0x23	; 35
    32be:	f6 4c       	sbci	r31, 0xC6	; 198
    32c0:	40 e0       	ldi	r20, 0x00	; 0
    32c2:	50 e0       	ldi	r21, 0x00	; 0
    32c4:	d3 01       	movw	r26, r6
    32c6:	11 96       	adiw	r26, 0x01	; 1
    32c8:	6c 91       	ld	r22, X
    32ca:	80 81       	ld	r24, Z
    32cc:	91 81       	ldd	r25, Z+1	; 0x01
    32ce:	59 d9       	rcall	.-3406   	; 0x2582 <FindChild>
    32d0:	00 0f       	add	r16, r16
    32d2:	11 1f       	adc	r17, r17
    32d4:	f8 01       	movw	r30, r16
    32d6:	e1 52       	subi	r30, 0x21	; 33
    32d8:	f6 4c       	sbci	r31, 0xC6	; 198
    32da:	80 83       	st	Z, r24
    32dc:	91 83       	std	Z+1, r25	; 0x01
                if (route[currDepth+1]) {
    32de:	20 91 31 38 	lds	r18, 0x3831	; 0x803831 <currDepth>
    32e2:	30 e0       	ldi	r19, 0x00	; 0
    32e4:	2f 5f       	subi	r18, 0xFF	; 255
    32e6:	3f 4f       	sbci	r19, 0xFF	; 255
    32e8:	22 0f       	add	r18, r18
    32ea:	33 1f       	adc	r19, r19
    32ec:	f9 01       	movw	r30, r18
    32ee:	e3 52       	subi	r30, 0x23	; 35
    32f0:	f6 4c       	sbci	r31, 0xC6	; 198
    32f2:	80 81       	ld	r24, Z
    32f4:	91 81       	ldd	r25, Z+1	; 0x01
    32f6:	00 97       	sbiw	r24, 0x00	; 0
    32f8:	09 f4       	brne	.+2      	; 0x32fc <ProcessInput+0x5ee>
    32fa:	38 c3       	rjmp	.+1648   	; 0x396c <ProcessInput+0xc5e>
                    if ((route[currDepth+1] == inventory[0])||(route[currDepth+1] == inventory[1])) {
    32fc:	40 91 40 38 	lds	r20, 0x3840	; 0x803840 <inventory>
    3300:	50 91 41 38 	lds	r21, 0x3841	; 0x803841 <inventory+0x1>
    3304:	84 17       	cp	r24, r20
    3306:	95 07       	cpc	r25, r21
    3308:	39 f0       	breq	.+14     	; 0x3318 <ProcessInput+0x60a>
    330a:	40 91 42 38 	lds	r20, 0x3842	; 0x803842 <inventory+0x2>
    330e:	50 91 43 38 	lds	r21, 0x3843	; 0x803843 <inventory+0x3>
    3312:	84 17       	cp	r24, r20
    3314:	95 07       	cpc	r25, r21
    3316:	c1 f4       	brne	.+48     	; 0x3348 <ProcessInput+0x63a>
    return 0;
}

//
void SetResponse(uint8_t number, uint16_t address, uint16_t length, uint8_t type){
    reactStr[0][number]=address;
    3318:	82 ee       	ldi	r24, 0xE2	; 226
    331a:	97 e7       	ldi	r25, 0x77	; 119
    331c:	80 93 1f 39 	sts	0x391F, r24	; 0x80391f <reactStr+0x2>
    3320:	90 93 20 39 	sts	0x3920, r25	; 0x803920 <reactStr+0x3>
    reactStr[1][number]=length;
    3324:	85 e2       	ldi	r24, 0x25	; 37
    3326:	90 e0       	ldi	r25, 0x00	; 0
    3328:	80 93 5f 39 	sts	0x395F, r24	; 0x80395f <reactStr+0x42>
    332c:	90 93 60 39 	sts	0x3960, r25	; 0x803960 <reactStr+0x43>
    reactStr[2][number]=type;
    3330:	81 e0       	ldi	r24, 0x01	; 1
    3332:	90 e0       	ldi	r25, 0x00	; 0
    3334:	80 93 9f 39 	sts	0x399F, r24	; 0x80399f <reactStr+0x82>
    3338:	90 93 a0 39 	sts	0x39A0, r25	; 0x8039a0 <reactStr+0x83>
            } else {
                route[currDepth+1] = FindChild(route[currDepth], data[1], 0);
                if (route[currDepth+1]) {
                    if ((route[currDepth+1] == inventory[0])||(route[currDepth+1] == inventory[1])) {
                        SetResponse(elements++, A_ALREADYCARRYING, L_ALREADYCARRYING, TEASER);
                        route[currDepth+1] = 0;
    333c:	f9 01       	movw	r30, r18
    333e:	e3 52       	subi	r30, 0x23	; 35
    3340:	f6 4c       	sbci	r31, 0xC6	; 198
    3342:	10 82       	st	Z, r1
    3344:	11 82       	std	Z+1, r1	; 0x01
                    } else {
                        //Put item in the inventory if possible
                        PopulateObject(route[currDepth+1], &actObj1);  
    3346:	c2 cd       	rjmp	.-1148   	; 0x2ecc <ProcessInput+0x1be>
    3348:	6c ed       	ldi	r22, 0xDC	; 220
    334a:	78 e3       	ldi	r23, 0x38	; 56
    334c:	4b d8       	rcall	.-3946   	; 0x23e4 <PopulateObject>
                        if (CheckState(actObj1.byteField[ACTION_ACL])) {
    334e:	80 91 e3 38 	lds	r24, 0x38E3	; 0x8038e3 <actObj1.3989+0x7>
    3352:	0e 94 18 0a 	call	0x1430	; 0x1430 <CheckState>
    3356:	88 23       	and	r24, r24
    3358:	09 f4       	brne	.+2      	; 0x335c <ProcessInput+0x64e>
    335a:	e3 c2       	rjmp	.+1478   	; 0x3922 <ProcessInput+0xc14>
                            if (actObj1.byteField[ITEM_NR]) {
    335c:	80 91 e7 38 	lds	r24, 0x38E7	; 0x8038e7 <actObj1.3989+0xb>
    3360:	88 23       	and	r24, r24
    3362:	09 f4       	brne	.+2      	; 0x3366 <ProcessInput+0x658>
    3364:	14 cd       	rjmp	.-1496   	; 0x2d8e <ProcessInput+0x80>
                                if (inventory[0]) {
    3366:	80 91 40 38 	lds	r24, 0x3840	; 0x803840 <inventory>
    336a:	90 91 41 38 	lds	r25, 0x3841	; 0x803841 <inventory+0x1>
    336e:	e0 91 31 38 	lds	r30, 0x3831	; 0x803831 <currDepth>
                                    inventory[1] = route[currDepth+1];
    3372:	f0 e0       	ldi	r31, 0x00	; 0
    3374:	ee 0f       	add	r30, r30
    3376:	ff 1f       	adc	r31, r31
    3378:	e1 52       	subi	r30, 0x21	; 33
    337a:	f6 4c       	sbci	r31, 0xC6	; 198
                    } else {
                        //Put item in the inventory if possible
                        PopulateObject(route[currDepth+1], &actObj1);  
                        if (CheckState(actObj1.byteField[ACTION_ACL])) {
                            if (actObj1.byteField[ITEM_NR]) {
                                if (inventory[0]) {
    337c:	89 2b       	or	r24, r25
    337e:	39 f0       	breq	.+14     	; 0x338e <ProcessInput+0x680>
                                    inventory[1] = route[currDepth+1];
    3380:	80 81       	ld	r24, Z
    3382:	91 81       	ldd	r25, Z+1	; 0x01
    3384:	80 93 42 38 	sts	0x3842, r24	; 0x803842 <inventory+0x2>
    3388:	90 93 43 38 	sts	0x3843, r25	; 0x803843 <inventory+0x3>
    338c:	06 c0       	rjmp	.+12     	; 0x339a <ProcessInput+0x68c>
                                } else {
                                    inventory[0] = route[currDepth+1];
    338e:	80 81       	ld	r24, Z
    3390:	91 81       	ldd	r25, Z+1	; 0x01
    3392:	80 93 40 38 	sts	0x3840, r24	; 0x803840 <inventory>
    3396:	90 93 41 38 	sts	0x3841, r25	; 0x803841 <inventory+0x1>
                                }
                                UpdateState(actObj1.byteField[ACTION_STATE]);
    339a:	80 91 e6 38 	lds	r24, 0x38E6	; 0x8038e6 <actObj1.3989+0xa>
    339e:	0e 94 f7 09 	call	0x13ee	; 0x13ee <UpdateState>
    33a2:	2b c0       	rjmp	.+86     	; 0x33fa <ProcessInput+0x6ec>
                } else SetResponse(elements++, A_NOSUCHOBJECT, L_NOSUCHOBJECT, TEASER);
            }
        } else

        //Drop item if in inventory
        if (data[0] == 'd') {
    33a4:	84 36       	cpi	r24, 0x64	; 100
    33a6:	d9 f4       	brne	.+54     	; 0x33de <ProcessInput+0x6d0>
            if ((inventory[0] == 0)&&(inventory[1] == 0)){
    33a8:	80 91 40 38 	lds	r24, 0x3840	; 0x803840 <inventory>
    33ac:	90 91 41 38 	lds	r25, 0x3841	; 0x803841 <inventory+0x1>
    33b0:	00 97       	sbiw	r24, 0x00	; 0
    33b2:	09 f0       	breq	.+2      	; 0x33b6 <ProcessInput+0x6a8>
    33b4:	3c c4       	rjmp	.+2168   	; 0x3c2e <ProcessInput+0xf20>
    33b6:	80 91 42 38 	lds	r24, 0x3842	; 0x803842 <inventory+0x2>
    33ba:	90 91 43 38 	lds	r25, 0x3843	; 0x803843 <inventory+0x3>
    33be:	89 2b       	or	r24, r25
    33c0:	49 f4       	brne	.+18     	; 0x33d4 <ProcessInput+0x6c6>
    return 0;
}

//
void SetResponse(uint8_t number, uint16_t address, uint16_t length, uint8_t type){
    reactStr[0][number]=address;
    33c2:	86 ea       	ldi	r24, 0xA6	; 166
    33c4:	97 e7       	ldi	r25, 0x77	; 119
    33c6:	80 93 1f 39 	sts	0x391F, r24	; 0x80391f <reactStr+0x2>
    33ca:	90 93 20 39 	sts	0x3920, r25	; 0x803920 <reactStr+0x3>
    reactStr[1][number]=length;
    33ce:	86 e2       	ldi	r24, 0x26	; 38
    33d0:	90 e0       	ldi	r25, 0x00	; 0
    33d2:	72 cd       	rjmp	.-1308   	; 0x2eb8 <ProcessInput+0x1aa>

        //Drop item if in inventory
        if (data[0] == 'd') {
            if ((inventory[0] == 0)&&(inventory[1] == 0)){
                SetResponse(elements++, A_EMPTYHANDS, L_EMPTYHANDS, TEASER);
            } else if (inputLen != 2) {
    33d4:	b2 e0       	ldi	r27, 0x02	; 2
    33d6:	fb 16       	cp	r15, r27
    33d8:	09 f4       	brne	.+2      	; 0x33dc <ProcessInput+0x6ce>
    33da:	8b c4       	rjmp	.+2326   	; 0x3cf2 <ProcessInput+0xfe4>
    33dc:	d8 cc       	rjmp	.-1616   	; 0x2d8e <ProcessInput+0x80>
                }
            }
        } 

        //Inventory list
        else if (data[0] == 'i') {
    33de:	89 36       	cpi	r24, 0x69	; 105
            if ((inventory[0] == 0)&&(inventory[1] == 0)){
    33e0:	81 f4       	brne	.+32     	; 0x3402 <ProcessInput+0x6f4>
    33e2:	80 91 40 38 	lds	r24, 0x3840	; 0x803840 <inventory>
    33e6:	90 91 41 38 	lds	r25, 0x3841	; 0x803841 <inventory+0x1>
    33ea:	89 2b       	or	r24, r25
    33ec:	31 f4       	brne	.+12     	; 0x33fa <ProcessInput+0x6ec>
    33ee:	80 91 42 38 	lds	r24, 0x3842	; 0x803842 <inventory+0x2>
    33f2:	90 91 43 38 	lds	r25, 0x3843	; 0x803843 <inventory+0x3>
    33f6:	89 2b       	or	r24, r25
                SetResponse(elements++, A_EMPTYHANDS, L_EMPTYHANDS, TEASER);
                } else {
                    elements = ShowInventory(elements);
    33f8:	21 f3       	breq	.-56     	; 0x33c2 <ProcessInput+0x6b4>
    33fa:	81 e0       	ldi	r24, 0x01	; 1
    33fc:	f8 db       	rcall	.-2064   	; 0x2bee <ShowInventory>
    33fe:	18 2f       	mov	r17, r24
    3400:	fe c3       	rjmp	.+2044   	; 0x3bfe <ProcessInput+0xef0>
                }        
        
        //Talk, use, give, read
        } else if ((data[0] == 't')||(data[0] == 'u')||(data[0] == 'g')||(data[0] == 'r')) {
    3402:	9c e8       	ldi	r25, 0x8C	; 140
    3404:	98 0f       	add	r25, r24
    3406:	92 30       	cpi	r25, 0x02	; 2
    3408:	28 f0       	brcs	.+10     	; 0x3414 <ProcessInput+0x706>
    340a:	87 36       	cpi	r24, 0x67	; 103
    340c:	19 f0       	breq	.+6      	; 0x3414 <ProcessInput+0x706>
    340e:	82 37       	cpi	r24, 0x72	; 114
    3410:	09 f0       	breq	.+2      	; 0x3414 <ProcessInput+0x706>
    3412:	b5 c2       	rjmp	.+1386   	; 0x397e <ProcessInput+0xc70>
            if ((inputLen<2)||(inputLen>3)) {
    3414:	8e ef       	ldi	r24, 0xFE	; 254
    3416:	8f 0d       	add	r24, r15
    3418:	82 30       	cpi	r24, 0x02	; 2
    341a:	08 f0       	brcs	.+2      	; 0x341e <ProcessInput+0x710>
    341c:	b8 cc       	rjmp	.-1680   	; 0x2d8e <ProcessInput+0x80>
                SetResponse(elements++, A_NOTPOSSIBLE, L_NOTPOSSIBLE, TEASER);                
            
            //Check for visible person or object first
            } else {
                route[currDepth+1] = FindChild(route[currDepth], data[inputLen-1], 0);
    341e:	e0 91 31 38 	lds	r30, 0x3831	; 0x803831 <currDepth>
    3422:	0e 2f       	mov	r16, r30
    3424:	10 e0       	ldi	r17, 0x00	; 0
    3426:	d3 01       	movw	r26, r6
    3428:	af 0d       	add	r26, r15
    342a:	b1 1d       	adc	r27, r1
    342c:	11 97       	sbiw	r26, 0x01	; 1
    342e:	f8 01       	movw	r30, r16
    3430:	ee 0f       	add	r30, r30
    3432:	ff 1f       	adc	r31, r31
    3434:	e3 52       	subi	r30, 0x23	; 35
    3436:	f6 4c       	sbci	r31, 0xC6	; 198
    3438:	40 e0       	ldi	r20, 0x00	; 0
    343a:	50 e0       	ldi	r21, 0x00	; 0
    343c:	6c 91       	ld	r22, X
    343e:	80 81       	ld	r24, Z
    3440:	91 81       	ldd	r25, Z+1	; 0x01
    3442:	9f d8       	rcall	.-3778   	; 0x2582 <FindChild>
    3444:	f8 01       	movw	r30, r16
    3446:	ee 0f       	add	r30, r30
    3448:	ff 1f       	adc	r31, r31
    344a:	e1 52       	subi	r30, 0x21	; 33
    344c:	f6 4c       	sbci	r31, 0xC6	; 198
    344e:	80 83       	st	Z, r24
    3450:	91 83       	std	Z+1, r25	; 0x01
                if (route[currDepth+1]) {
    3452:	e0 91 31 38 	lds	r30, 0x3831	; 0x803831 <currDepth>
    3456:	f0 e0       	ldi	r31, 0x00	; 0
    3458:	ee 0f       	add	r30, r30
    345a:	ff 1f       	adc	r31, r31
    345c:	e1 52       	subi	r30, 0x21	; 33
    345e:	f6 4c       	sbci	r31, 0xC6	; 198
    3460:	80 81       	ld	r24, Z
    3462:	91 81       	ldd	r25, Z+1	; 0x01
    3464:	00 97       	sbiw	r24, 0x00	; 0
    3466:	09 f4       	brne	.+2      	; 0x346a <ProcessInput+0x75c>
    3468:	78 c2       	rjmp	.+1264   	; 0x395a <ProcessInput+0xc4c>
                    
                    //Give item to person / use item on object 
                    if ((inputLen == 3)&&((data[0] == 'u')||(data[0] == 'g'))) {
    346a:	f3 e0       	ldi	r31, 0x03	; 3
    346c:	ff 12       	cpse	r15, r31
    346e:	60 c1       	rjmp	.+704    	; 0x3730 <ProcessInput+0xa22>
    3470:	d3 01       	movw	r26, r6
    3472:	2c 91       	ld	r18, X
    3474:	25 37       	cpi	r18, 0x75	; 117
    3476:	19 f0       	breq	.+6      	; 0x347e <ProcessInput+0x770>
    3478:	27 36       	cpi	r18, 0x67	; 103
    347a:	09 f0       	breq	.+2      	; 0x347e <ProcessInput+0x770>
    347c:	59 c1       	rjmp	.+690    	; 0x3730 <ProcessInput+0xa22>
    347e:	00 e0       	ldi	r16, 0x00	; 0
    3480:	11 e0       	ldi	r17, 0x01	; 1
    return 0;
}

//
void SetResponse(uint8_t number, uint16_t address, uint16_t length, uint8_t type){
    reactStr[0][number]=address;
    3482:	41 e6       	ldi	r20, 0x61	; 97
    3484:	c4 2e       	mov	r12, r20
    3486:	49 e7       	ldi	r20, 0x79	; 121
    3488:	d4 2e       	mov	r13, r20
    reactStr[1][number]=length;
    348a:	51 e2       	ldi	r21, 0x21	; 33
    348c:	a5 2e       	mov	r10, r21
    348e:	b1 2c       	mov	r11, r1
    reactStr[2][number]=type;
    3490:	88 24       	eor	r8, r8
    3492:	83 94       	inc	r8
                if (route[currDepth+1]) {
                    
                    //Give item to person / use item on object 
                    if ((inputLen == 3)&&((data[0] == 'u')||(data[0] == 'g'))) {
                        for (uint8_t x=0; x<2; x++) {
                            if (inventory[x]) { 
    3494:	91 2c       	mov	r9, r1
    3496:	e0 2e       	mov	r14, r16
    3498:	f1 2c       	mov	r15, r1
    349a:	c7 01       	movw	r24, r14
    349c:	88 0f       	add	r24, r24
    349e:	99 1f       	adc	r25, r25
    34a0:	fc 01       	movw	r30, r24
    34a2:	e0 5c       	subi	r30, 0xC0	; 192
    34a4:	f7 4c       	sbci	r31, 0xC7	; 199
    34a6:	7f 01       	movw	r14, r30
    34a8:	80 81       	ld	r24, Z
    34aa:	91 81       	ldd	r25, Z+1	; 0x01
    34ac:	00 97       	sbiw	r24, 0x00	; 0
                                if (CheckLetter(inventory[x], data[1])) {
    34ae:	79 f0       	breq	.+30     	; 0x34ce <ProcessInput+0x7c0>
    34b0:	d3 01       	movw	r26, r6
    34b2:	11 96       	adiw	r26, 0x01	; 1
    34b4:	6c 91       	ld	r22, X
    34b6:	0f d8       	rcall	.-4066   	; 0x24d6 <CheckLetter>
    34b8:	88 23       	and	r24, r24
    34ba:	49 f0       	breq	.+18     	; 0x34ce <ProcessInput+0x7c0>
                                    PopulateObject(inventory[x], &actObj2);
    34bc:	61 eb       	ldi	r22, 0xB1	; 177
    34be:	78 e3       	ldi	r23, 0x38	; 56
    34c0:	f7 01       	movw	r30, r14
    34c2:	80 81       	ld	r24, Z
    34c4:	91 81       	ldd	r25, Z+1	; 0x01
    34c6:	0e 94 f2 11 	call	0x23e4	; 0x23e4 <PopulateObject>
                                    x = 2;
    34ca:	02 e0       	ldi	r16, 0x02	; 2
    34cc:	1d c0       	rjmp	.+58     	; 0x3508 <ProcessInput+0x7fa>
                                }
                            }
                            if (x == 1) { 
    34ce:	01 30       	cpi	r16, 0x01	; 1
    34d0:	d1 f4       	brne	.+52     	; 0x3506 <ProcessInput+0x7f8>
    return 0;
}

//
void SetResponse(uint8_t number, uint16_t address, uint16_t length, uint8_t type){
    reactStr[0][number]=address;
    34d2:	e1 2f       	mov	r30, r17
    34d4:	f0 e0       	ldi	r31, 0x00	; 0
    34d6:	df 01       	movw	r26, r30
    34d8:	aa 0f       	add	r26, r26
    34da:	bb 1f       	adc	r27, r27
    34dc:	a3 5e       	subi	r26, 0xE3	; 227
    34de:	b6 4c       	sbci	r27, 0xC6	; 198
    34e0:	cd 92       	st	X+, r12
    34e2:	dc 92       	st	X, r13
    reactStr[1][number]=length;
    34e4:	df 01       	movw	r26, r30
    34e6:	aa 0f       	add	r26, r26
    34e8:	bb 1f       	adc	r27, r27
    34ea:	a3 5a       	subi	r26, 0xA3	; 163
    34ec:	b6 4c       	sbci	r27, 0xC6	; 198
    34ee:	ad 92       	st	X+, r10
    34f0:	bc 92       	st	X, r11
    reactStr[2][number]=type;
    34f2:	ee 0f       	add	r30, r30
    34f4:	ff 1f       	adc	r31, r31
    34f6:	e3 56       	subi	r30, 0x63	; 99
    34f8:	f6 4c       	sbci	r31, 0xC6	; 198
    34fa:	80 82       	st	Z, r8
    34fc:	91 82       	std	Z+1, r9	; 0x01
                                    x = 2;
                                }
                            }
                            if (x == 1) { 
                                SetResponse(elements++, A_NOTCARRYING, L_NOTCARRYING, TEASER);
                                data[0] = 0;
    34fe:	d3 01       	movw	r26, r6
    3500:	1c 92       	st	X, r1
                                    PopulateObject(inventory[x], &actObj2);
                                    x = 2;
                                }
                            }
                            if (x == 1) { 
                                SetResponse(elements++, A_NOTCARRYING, L_NOTCARRYING, TEASER);
    3502:	1f 5f       	subi	r17, 0xFF	; 255
    3504:	01 c0       	rjmp	.+2      	; 0x3508 <ProcessInput+0x7fa>
    3506:	00 e0       	ldi	r16, 0x00	; 0
                route[currDepth+1] = FindChild(route[currDepth], data[inputLen-1], 0);
                if (route[currDepth+1]) {
                    
                    //Give item to person / use item on object 
                    if ((inputLen == 3)&&((data[0] == 'u')||(data[0] == 'g'))) {
                        for (uint8_t x=0; x<2; x++) {
    3508:	0f 5f       	subi	r16, 0xFF	; 255
    350a:	01 30       	cpi	r16, 0x01	; 1
    350c:	21 f2       	breq	.-120    	; 0x3496 <ProcessInput+0x788>
                                data[0] = 0;
                            }
                        }

                        //Both the item and person/object are found, check if action is legit
                        if (data[0]){
    350e:	f3 01       	movw	r30, r6
    3510:	80 81       	ld	r24, Z
    3512:	88 23       	and	r24, r24
    3514:	09 f4       	brne	.+2      	; 0x3518 <ProcessInput+0x80a>
    3516:	73 c3       	rjmp	.+1766   	; 0x3bfe <ProcessInput+0xef0>
                            PopulateObject(route[currDepth+1], &actObj1);
    3518:	e0 91 31 38 	lds	r30, 0x3831	; 0x803831 <currDepth>
    351c:	f0 e0       	ldi	r31, 0x00	; 0
    351e:	ee 0f       	add	r30, r30
    3520:	ff 1f       	adc	r31, r31
    3522:	e1 52       	subi	r30, 0x21	; 33
    3524:	f6 4c       	sbci	r31, 0xC6	; 198
    3526:	6c ed       	ldi	r22, 0xDC	; 220
    3528:	78 e3       	ldi	r23, 0x38	; 56
    352a:	80 81       	ld	r24, Z
    352c:	91 81       	ldd	r25, Z+1	; 0x01
    352e:	0e 94 f2 11 	call	0x23e4	; 0x23e4 <PopulateObject>

                            //Special game
                            if (actObj1.lenStr[ACTION_STR1] == 1) {
    3532:	e0 90 fa 38 	lds	r14, 0x38FA	; 0x8038fa <actObj1.3989+0x1e>
    3536:	f0 90 fb 38 	lds	r15, 0x38FB	; 0x8038fb <actObj1.3989+0x1f>
    353a:	f1 e0       	ldi	r31, 0x01	; 1
    353c:	ef 16       	cp	r14, r31
    353e:	f1 04       	cpc	r15, r1
    3540:	09 f0       	breq	.+2      	; 0x3544 <ProcessInput+0x836>
    3542:	89 c0       	rjmp	.+274    	; 0x3656 <ProcessInput+0x948>
                                ExtEERead(actObj1.addrStr[ACTION_STR1], 1, GAME, &data[2]);
    3544:	93 01       	movw	r18, r6
    3546:	2e 5f       	subi	r18, 0xFE	; 254
    3548:	3f 4f       	sbci	r19, 0xFF	; 255
    354a:	40 e0       	ldi	r20, 0x00	; 0
    354c:	61 e0       	ldi	r22, 0x01	; 1
    354e:	80 91 ec 38 	lds	r24, 0x38EC	; 0x8038ec <actObj1.3989+0x10>
    3552:	90 91 ed 38 	lds	r25, 0x38ED	; 0x8038ed <actObj1.3989+0x11>
    3556:	0e 94 4d 08 	call	0x109a	; 0x109a <ExtEERead>
                                if (data[2] == '1') {
    355a:	d3 01       	movw	r26, r6
    355c:	12 96       	adiw	r26, 0x02	; 2
    355e:	3c 91       	ld	r19, X
    3560:	31 33       	cpi	r19, 0x31	; 49
    3562:	09 f0       	breq	.+2      	; 0x3566 <ProcessInput+0x858>
    3564:	4c c3       	rjmp	.+1688   	; 0x3bfe <ProcessInput+0xef0>
                                    uint8_t item = actObj2.byteField[ITEM_NR];
    3566:	20 91 bc 38 	lds	r18, 0x38BC	; 0x8038bc <actObj2.3990+0xb>
                                    if ((item < 31)||(item > 34)) {
    356a:	51 ee       	ldi	r21, 0xE1	; 225
    356c:	52 0f       	add	r21, r18
    356e:	41 e0       	ldi	r20, 0x01	; 1
    3570:	41 0f       	add	r20, r17
    3572:	81 2f       	mov	r24, r17
    3574:	90 e0       	ldi	r25, 0x00	; 0
    return 0;
}

//
void SetResponse(uint8_t number, uint16_t address, uint16_t length, uint8_t type){
    reactStr[0][number]=address;
    3576:	fc 01       	movw	r30, r24
    3578:	ee 0f       	add	r30, r30
    357a:	ff 1f       	adc	r31, r31
    357c:	e3 5e       	subi	r30, 0xE3	; 227
    357e:	f6 4c       	sbci	r31, 0xC6	; 198
                            //Special game
                            if (actObj1.lenStr[ACTION_STR1] == 1) {
                                ExtEERead(actObj1.addrStr[ACTION_STR1], 1, GAME, &data[2]);
                                if (data[2] == '1') {
                                    uint8_t item = actObj2.byteField[ITEM_NR];
                                    if ((item < 31)||(item > 34)) {
    3580:	54 30       	cpi	r21, 0x04	; 4
    3582:	b0 f0       	brcs	.+44     	; 0x35b0 <ProcessInput+0x8a2>
    return 0;
}

//
void SetResponse(uint8_t number, uint16_t address, uint16_t length, uint8_t type){
    reactStr[0][number]=address;
    3584:	21 e0       	ldi	r18, 0x01	; 1
    3586:	39 e7       	ldi	r19, 0x79	; 121
    3588:	20 83       	st	Z, r18
    358a:	31 83       	std	Z+1, r19	; 0x01
    reactStr[1][number]=length;
    358c:	fc 01       	movw	r30, r24
    358e:	ee 0f       	add	r30, r30
    3590:	ff 1f       	adc	r31, r31
    3592:	e3 5a       	subi	r30, 0xA3	; 163
    3594:	f6 4c       	sbci	r31, 0xC6	; 198
    3596:	2a e1       	ldi	r18, 0x1A	; 26
    3598:	30 e0       	ldi	r19, 0x00	; 0
    359a:	20 83       	st	Z, r18
    359c:	31 83       	std	Z+1, r19	; 0x01
    reactStr[2][number]=type;
    359e:	88 0f       	add	r24, r24
    35a0:	99 1f       	adc	r25, r25
    35a2:	fc 01       	movw	r30, r24
    35a4:	e3 56       	subi	r30, 0x63	; 99
    35a6:	f6 4c       	sbci	r31, 0xC6	; 198
    35a8:	e0 82       	st	Z, r14
    35aa:	f1 82       	std	Z+1, r15	; 0x01
                            if (actObj1.lenStr[ACTION_STR1] == 1) {
                                ExtEERead(actObj1.addrStr[ACTION_STR1], 1, GAME, &data[2]);
                                if (data[2] == '1') {
                                    uint8_t item = actObj2.byteField[ITEM_NR];
                                    if ((item < 31)||(item > 34)) {
                                        SetResponse(elements++, A_CANTUSE, L_CANTUSE, TEASER);
    35ac:	14 2f       	mov	r17, r20
    35ae:	27 c3       	rjmp	.+1614   	; 0x3bfe <ProcessInput+0xef0>
    return 0;
}

//
void SetResponse(uint8_t number, uint16_t address, uint16_t length, uint8_t type){
    reactStr[0][number]=address;
    35b0:	60 e5       	ldi	r22, 0x50	; 80
    35b2:	75 e7       	ldi	r23, 0x75	; 117
    35b4:	60 83       	st	Z, r22
    35b6:	71 83       	std	Z+1, r23	; 0x01
    reactStr[1][number]=length;
    35b8:	fc 01       	movw	r30, r24
    35ba:	ee 0f       	add	r30, r30
    35bc:	ff 1f       	adc	r31, r31
    35be:	e3 5a       	subi	r30, 0xA3	; 163
    35c0:	f6 4c       	sbci	r31, 0xC6	; 198
    35c2:	62 eb       	ldi	r22, 0xB2	; 178
    35c4:	70 e0       	ldi	r23, 0x00	; 0
    35c6:	60 83       	st	Z, r22
    35c8:	71 83       	std	Z+1, r23	; 0x01
    reactStr[2][number]=type;
    35ca:	88 0f       	add	r24, r24
    35cc:	99 1f       	adc	r25, r25
    35ce:	fc 01       	movw	r30, r24
    35d0:	e3 56       	subi	r30, 0x63	; 99
    35d2:	f6 4c       	sbci	r31, 0xC6	; 198
    35d4:	e0 82       	st	Z, r14
    35d6:	f1 82       	std	Z+1, r15	; 0x01
    return 0;
}

//
void SetResponse(uint8_t number, uint16_t address, uint16_t length, uint8_t type){
    reactStr[0][number]=address;
    35d8:	84 2f       	mov	r24, r20
    35da:	90 e0       	ldi	r25, 0x00	; 0
    35dc:	fc 01       	movw	r30, r24
    35de:	ee 0f       	add	r30, r30
    35e0:	ff 1f       	adc	r31, r31
    35e2:	e3 5e       	subi	r30, 0xE3	; 227
    35e4:	f6 4c       	sbci	r31, 0xC6	; 198
    35e6:	49 e5       	ldi	r20, 0x59	; 89
    35e8:	5a e7       	ldi	r21, 0x7A	; 122
    35ea:	40 83       	st	Z, r20
    35ec:	51 83       	std	Z+1, r21	; 0x01
    reactStr[1][number]=length;
    35ee:	fc 01       	movw	r30, r24
    35f0:	ee 0f       	add	r30, r30
    35f2:	ff 1f       	adc	r31, r31
    35f4:	e3 5a       	subi	r30, 0xA3	; 163
    35f6:	f6 4c       	sbci	r31, 0xC6	; 198
    35f8:	42 e0       	ldi	r20, 0x02	; 2
    35fa:	50 e0       	ldi	r21, 0x00	; 0
    35fc:	40 83       	st	Z, r20
    35fe:	51 83       	std	Z+1, r21	; 0x01
    reactStr[2][number]=type;
    3600:	88 0f       	add	r24, r24
    3602:	99 1f       	adc	r25, r25
    3604:	fc 01       	movw	r30, r24
    3606:	e3 56       	subi	r30, 0x63	; 99
    3608:	f6 4c       	sbci	r31, 0xC6	; 198
    360a:	e0 82       	st	Z, r14
    360c:	f1 82       	std	Z+1, r15	; 0x01
    return 0;
}

//
void SetResponse(uint8_t number, uint16_t address, uint16_t length, uint8_t type){
    reactStr[0][number]=address;
    360e:	82 e0       	ldi	r24, 0x02	; 2
    3610:	81 0f       	add	r24, r17
    3612:	90 e0       	ldi	r25, 0x00	; 0
    3614:	1d 5f       	subi	r17, 0xFD	; 253
    3616:	fc 01       	movw	r30, r24
    3618:	ee 0f       	add	r30, r30
    361a:	ff 1f       	adc	r31, r31
    361c:	e3 5e       	subi	r30, 0xE3	; 227
    361e:	f6 4c       	sbci	r31, 0xC6	; 198
    3620:	4d ea       	ldi	r20, 0xAD	; 173
    3622:	58 e7       	ldi	r21, 0x78	; 120
    3624:	40 83       	st	Z, r20
    3626:	51 83       	std	Z+1, r21	; 0x01
    reactStr[1][number]=length;
    3628:	fc 01       	movw	r30, r24
    362a:	ee 0f       	add	r30, r30
    362c:	ff 1f       	adc	r31, r31
    362e:	e3 5a       	subi	r30, 0xA3	; 163
    3630:	f6 4c       	sbci	r31, 0xC6	; 198
    3632:	42 e1       	ldi	r20, 0x12	; 18
    3634:	50 e0       	ldi	r21, 0x00	; 0
    3636:	40 83       	st	Z, r20
    3638:	51 83       	std	Z+1, r21	; 0x01
    reactStr[2][number]=type;
    363a:	88 0f       	add	r24, r24
    363c:	99 1f       	adc	r25, r25
    363e:	fc 01       	movw	r30, r24
    3640:	e3 56       	subi	r30, 0x63	; 99
    3642:	f6 4c       	sbci	r31, 0xC6	; 198
    3644:	e0 82       	st	Z, r14
    3646:	f1 82       	std	Z+1, r15	; 0x01
                                        SetResponse(elements++, A_CANTUSE, L_CANTUSE, TEASER);
                                    } else {
                                        SetResponse(elements++, A_PRIEST, L_PRIEST, TEASER);
                                        SetResponse(elements++, A_LF, 2, TEASER);
                                        SetResponse(elements++, A_RESPONSE, L_RESPONSE, TEASER);
                                        specialInput[0] = '1';
    3648:	30 93 0c 39 	sts	0x390C, r19	; 0x80390c <specialInput>
                                        specialInput[1] = item;
    364c:	20 93 0d 39 	sts	0x390D, r18	; 0x80390d <specialInput+0x1>
                                        specialInput[2] = 0;
    3650:	10 92 0e 39 	sts	0x390E, r1	; 0x80390e <specialInput+0x2>
    3654:	d4 c2       	rjmp	.+1448   	; 0x3bfe <ProcessInput+0xef0>
                                    }
                                }

                            //Normal "use ... on ..." or "give ... to ..." action
                            } else if (actObj1.byteField[ACTION_ITEM] == actObj2.byteField[ITEM_NR]) {
    3656:	90 91 e5 38 	lds	r25, 0x38E5	; 0x8038e5 <actObj1.3989+0x9>
    365a:	80 91 bc 38 	lds	r24, 0x38BC	; 0x8038bc <actObj2.3990+0xb>
    365e:	98 13       	cpse	r25, r24
    3660:	2e c0       	rjmp	.+92     	; 0x36be <ProcessInput+0x9b0>
                                SetResponse(elements++, actObj1.addrStr[ACTION_MSG], actObj1.lenStr[ACTION_MSG], GAME);
    3662:	20 91 02 39 	lds	r18, 0x3902	; 0x803902 <actObj1.3989+0x26>
    3666:	30 91 03 39 	lds	r19, 0x3903	; 0x803903 <actObj1.3989+0x27>
    366a:	01 e0       	ldi	r16, 0x01	; 1
    366c:	01 0f       	add	r16, r17
    return 0;
}

//
void SetResponse(uint8_t number, uint16_t address, uint16_t length, uint8_t type){
    reactStr[0][number]=address;
    366e:	81 2f       	mov	r24, r17
    3670:	90 e0       	ldi	r25, 0x00	; 0
    3672:	fc 01       	movw	r30, r24
    3674:	ee 0f       	add	r30, r30
    3676:	ff 1f       	adc	r31, r31
    3678:	e3 5e       	subi	r30, 0xE3	; 227
    367a:	f6 4c       	sbci	r31, 0xC6	; 198
    367c:	40 91 f4 38 	lds	r20, 0x38F4	; 0x8038f4 <actObj1.3989+0x18>
    3680:	50 91 f5 38 	lds	r21, 0x38F5	; 0x8038f5 <actObj1.3989+0x19>
    3684:	40 83       	st	Z, r20
    3686:	51 83       	std	Z+1, r21	; 0x01
    reactStr[1][number]=length;
    3688:	fc 01       	movw	r30, r24
    368a:	ee 0f       	add	r30, r30
    368c:	ff 1f       	adc	r31, r31
    368e:	e3 5a       	subi	r30, 0xA3	; 163
    3690:	f6 4c       	sbci	r31, 0xC6	; 198
    3692:	20 83       	st	Z, r18
    3694:	31 83       	std	Z+1, r19	; 0x01
    reactStr[2][number]=type;
    3696:	88 0f       	add	r24, r24
    3698:	99 1f       	adc	r25, r25
    369a:	fc 01       	movw	r30, r24
    369c:	e3 56       	subi	r30, 0x63	; 99
    369e:	f6 4c       	sbci	r31, 0xC6	; 198
    36a0:	10 82       	st	Z, r1
    36a2:	11 82       	std	Z+1, r1	; 0x01
                                }

                            //Normal "use ... on ..." or "give ... to ..." action
                            } else if (actObj1.byteField[ACTION_ITEM] == actObj2.byteField[ITEM_NR]) {
                                SetResponse(elements++, actObj1.addrStr[ACTION_MSG], actObj1.lenStr[ACTION_MSG], GAME);
                                effect = actObj1.effect[2];
    36a4:	80 91 06 39 	lds	r24, 0x3906	; 0x803906 <actObj1.3989+0x2a>
    36a8:	90 e0       	ldi	r25, 0x00	; 0
    36aa:	80 93 3c 38 	sts	0x383C, r24	; 0x80383c <effect>
    36ae:	90 93 3d 38 	sts	0x383D, r25	; 0x80383d <effect+0x1>
                                UpdateState(actObj1.byteField[ACTION_STATE]);
    36b2:	80 91 e6 38 	lds	r24, 0x38E6	; 0x8038e6 <actObj1.3989+0xa>
    36b6:	0e 94 f7 09 	call	0x13ee	; 0x13ee <UpdateState>
                                    }
                                }

                            //Normal "use ... on ..." or "give ... to ..." action
                            } else if (actObj1.byteField[ACTION_ITEM] == actObj2.byteField[ITEM_NR]) {
                                SetResponse(elements++, actObj1.addrStr[ACTION_MSG], actObj1.lenStr[ACTION_MSG], GAME);
    36ba:	10 2f       	mov	r17, r16
    36bc:	a0 c2       	rjmp	.+1344   	; 0x3bfe <ProcessInput+0xef0>
                                effect = actObj1.effect[2];
                                UpdateState(actObj1.byteField[ACTION_STATE]);
                                
                            } else {
                                if (data[0] == 'u') {
    36be:	f3 01       	movw	r30, r6
    36c0:	80 81       	ld	r24, Z
    36c2:	85 37       	cpi	r24, 0x75	; 117
    36c4:	99 f4       	brne	.+38     	; 0x36ec <ProcessInput+0x9de>
    return 0;
}

//
void SetResponse(uint8_t number, uint16_t address, uint16_t length, uint8_t type){
    reactStr[0][number]=address;
    36c6:	81 2f       	mov	r24, r17
    36c8:	90 e0       	ldi	r25, 0x00	; 0
    36ca:	fc 01       	movw	r30, r24
    36cc:	ee 0f       	add	r30, r30
    36ce:	ff 1f       	adc	r31, r31
    36d0:	e3 5e       	subi	r30, 0xE3	; 227
    36d2:	f6 4c       	sbci	r31, 0xC6	; 198
    36d4:	21 e0       	ldi	r18, 0x01	; 1
    36d6:	39 e7       	ldi	r19, 0x79	; 121
    36d8:	20 83       	st	Z, r18
    36da:	31 83       	std	Z+1, r19	; 0x01
    reactStr[1][number]=length;
    36dc:	fc 01       	movw	r30, r24
    36de:	ee 0f       	add	r30, r30
    36e0:	ff 1f       	adc	r31, r31
    36e2:	e3 5a       	subi	r30, 0xA3	; 163
    36e4:	f6 4c       	sbci	r31, 0xC6	; 198
    36e6:	2a e1       	ldi	r18, 0x1A	; 26
    36e8:	30 e0       	ldi	r19, 0x00	; 0
    36ea:	15 c0       	rjmp	.+42     	; 0x3716 <ProcessInput+0xa08>
                                UpdateState(actObj1.byteField[ACTION_STATE]);
                                
                            } else {
                                if (data[0] == 'u') {
                                    SetResponse(elements++, A_CANTUSE, L_CANTUSE, TEASER);
                                } else if (data[0] == 'g') {
    36ec:	87 36       	cpi	r24, 0x67	; 103
    36ee:	09 f0       	breq	.+2      	; 0x36f2 <ProcessInput+0x9e4>
    36f0:	86 c2       	rjmp	.+1292   	; 0x3bfe <ProcessInput+0xef0>
    return 0;
}

//
void SetResponse(uint8_t number, uint16_t address, uint16_t length, uint8_t type){
    reactStr[0][number]=address;
    36f2:	81 2f       	mov	r24, r17
    36f4:	90 e0       	ldi	r25, 0x00	; 0
    36f6:	fc 01       	movw	r30, r24
    36f8:	ee 0f       	add	r30, r30
    36fa:	ff 1f       	adc	r31, r31
    36fc:	e3 5e       	subi	r30, 0xE3	; 227
    36fe:	f6 4c       	sbci	r31, 0xC6	; 198
    3700:	2f e9       	ldi	r18, 0x9F	; 159
    3702:	36 e7       	ldi	r19, 0x76	; 118
    3704:	20 83       	st	Z, r18
    3706:	31 83       	std	Z+1, r19	; 0x01
    reactStr[1][number]=length;
    3708:	fc 01       	movw	r30, r24
    370a:	ee 0f       	add	r30, r30
    370c:	ff 1f       	adc	r31, r31
    370e:	e3 5a       	subi	r30, 0xA3	; 163
    3710:	f6 4c       	sbci	r31, 0xC6	; 198
    3712:	28 e2       	ldi	r18, 0x28	; 40
    3714:	30 e0       	ldi	r19, 0x00	; 0
    3716:	20 83       	st	Z, r18
    3718:	31 83       	std	Z+1, r19	; 0x01
    reactStr[2][number]=type;
    371a:	88 0f       	add	r24, r24
    371c:	99 1f       	adc	r25, r25
    371e:	fc 01       	movw	r30, r24
    3720:	e3 56       	subi	r30, 0x63	; 99
    3722:	f6 4c       	sbci	r31, 0xC6	; 198
    3724:	81 e0       	ldi	r24, 0x01	; 1
    3726:	90 e0       	ldi	r25, 0x00	; 0
    3728:	80 83       	st	Z, r24
    372a:	91 83       	std	Z+1, r25	; 0x01
                                
                            } else {
                                if (data[0] == 'u') {
                                    SetResponse(elements++, A_CANTUSE, L_CANTUSE, TEASER);
                                } else if (data[0] == 'g') {
                                    SetResponse(elements++, A_CANTGIVE, L_CANTGIVE, TEASER);                                    
    372c:	1f 5f       	subi	r17, 0xFF	; 255
    372e:	67 c2       	rjmp	.+1230   	; 0x3bfe <ProcessInput+0xef0>
                            }
                        }
                    
                    //Talk to person, read or use object (without item)                          
                    } else {
                        PopulateObject(route[currDepth+1], &actObj1);
    3730:	6c ed       	ldi	r22, 0xDC	; 220
    3732:	78 e3       	ldi	r23, 0x38	; 56
    3734:	0e 94 f2 11 	call	0x23e4	; 0x23e4 <PopulateObject>
                        if ((data[0] == 't')&&((actObj1.byteField[ACTION_MASK]&TALK) == 0)) {
    3738:	d3 01       	movw	r26, r6
    373a:	8c 91       	ld	r24, X
    373c:	84 37       	cpi	r24, 0x74	; 116
    373e:	61 f5       	brne	.+88     	; 0x3798 <ProcessInput+0xa8a>
    3740:	80 91 e4 38 	lds	r24, 0x38E4	; 0x8038e4 <actObj1.3989+0x8>
    3744:	83 fd       	sbrc	r24, 3
    3746:	43 c0       	rjmp	.+134    	; 0x37ce <ProcessInput+0xac0>
    return 0;
}

//
void SetResponse(uint8_t number, uint16_t address, uint16_t length, uint8_t type){
    reactStr[0][number]=address;
    3748:	8b e1       	ldi	r24, 0x1B	; 27
    374a:	99 e7       	ldi	r25, 0x79	; 121
    374c:	80 93 1f 39 	sts	0x391F, r24	; 0x80391f <reactStr+0x2>
    3750:	90 93 20 39 	sts	0x3920, r25	; 0x803920 <reactStr+0x3>
    reactStr[1][number]=length;
    3754:	8e e1       	ldi	r24, 0x1E	; 30
    3756:	90 e0       	ldi	r25, 0x00	; 0
    3758:	80 93 5f 39 	sts	0x395F, r24	; 0x80395f <reactStr+0x42>
    375c:	90 93 60 39 	sts	0x3960, r25	; 0x803960 <reactStr+0x43>
    reactStr[2][number]=type;
    3760:	81 e0       	ldi	r24, 0x01	; 1
    3762:	90 e0       	ldi	r25, 0x00	; 0
    3764:	80 93 9f 39 	sts	0x399F, r24	; 0x80399f <reactStr+0x82>
    3768:	90 93 a0 39 	sts	0x39A0, r25	; 0x8039a0 <reactStr+0x83>
                    //Talk to person, read or use object (without item)                          
                    } else {
                        PopulateObject(route[currDepth+1], &actObj1);
                        if ((data[0] == 't')&&((actObj1.byteField[ACTION_MASK]&TALK) == 0)) {
                            SetResponse(elements++, A_WHYTALK, L_WHYTALK, TEASER);
                            SetResponse(elements++, actObj1.addrStr[NAME], actObj1.lenStr[NAME], GAME);
    376c:	80 91 f6 38 	lds	r24, 0x38F6	; 0x8038f6 <actObj1.3989+0x1a>
    3770:	90 91 f7 38 	lds	r25, 0x38F7	; 0x8038f7 <actObj1.3989+0x1b>
    return 0;
}

//
void SetResponse(uint8_t number, uint16_t address, uint16_t length, uint8_t type){
    reactStr[0][number]=address;
    3774:	20 91 e8 38 	lds	r18, 0x38E8	; 0x8038e8 <actObj1.3989+0xc>
    3778:	30 91 e9 38 	lds	r19, 0x38E9	; 0x8038e9 <actObj1.3989+0xd>
    377c:	20 93 21 39 	sts	0x3921, r18	; 0x803921 <reactStr+0x4>
    3780:	30 93 22 39 	sts	0x3922, r19	; 0x803922 <reactStr+0x5>
    reactStr[1][number]=length;
    3784:	80 93 61 39 	sts	0x3961, r24	; 0x803961 <reactStr+0x44>
    3788:	90 93 62 39 	sts	0x3962, r25	; 0x803962 <reactStr+0x45>
    reactStr[2][number]=type;
    378c:	10 92 a1 39 	sts	0x39A1, r1	; 0x8039a1 <reactStr+0x84>
    3790:	10 92 a2 39 	sts	0x39A2, r1	; 0x8039a2 <reactStr+0x85>
                    //Talk to person, read or use object (without item)                          
                    } else {
                        PopulateObject(route[currDepth+1], &actObj1);
                        if ((data[0] == 't')&&((actObj1.byteField[ACTION_MASK]&TALK) == 0)) {
                            SetResponse(elements++, A_WHYTALK, L_WHYTALK, TEASER);
                            SetResponse(elements++, actObj1.addrStr[NAME], actObj1.lenStr[NAME], GAME);
    3794:	13 e0       	ldi	r17, 0x03	; 3
    3796:	33 c2       	rjmp	.+1126   	; 0x3bfe <ProcessInput+0xef0>
                        } else if ((data[0] == 'u')&&((actObj1.byteField[ACTION_MASK]&USE) == 0)) {
    3798:	85 37       	cpi	r24, 0x75	; 117
    379a:	39 f4       	brne	.+14     	; 0x37aa <ProcessInput+0xa9c>
    379c:	80 91 e4 38 	lds	r24, 0x38E4	; 0x8038e4 <actObj1.3989+0x8>
    37a0:	84 fd       	sbrc	r24, 4
    37a2:	15 c0       	rjmp	.+42     	; 0x37ce <ProcessInput+0xac0>
    return 0;
}

//
void SetResponse(uint8_t number, uint16_t address, uint16_t length, uint8_t type){
    reactStr[0][number]=address;
    37a4:	81 e0       	ldi	r24, 0x01	; 1
    37a6:	99 e7       	ldi	r25, 0x79	; 121
    37a8:	3b c2       	rjmp	.+1142   	; 0x3c20 <ProcessInput+0xf12>
                        if ((data[0] == 't')&&((actObj1.byteField[ACTION_MASK]&TALK) == 0)) {
                            SetResponse(elements++, A_WHYTALK, L_WHYTALK, TEASER);
                            SetResponse(elements++, actObj1.addrStr[NAME], actObj1.lenStr[NAME], GAME);
                        } else if ((data[0] == 'u')&&((actObj1.byteField[ACTION_MASK]&USE) == 0)) {
                            SetResponse(elements++, A_CANTUSE, L_CANTUSE, TEASER);
                        } else if ((data[0] == 'r')&&((actObj1.byteField[ACTION_MASK]&READ) == 0)) {
    37aa:	82 37       	cpi	r24, 0x72	; 114
    37ac:	69 f4       	brne	.+26     	; 0x37c8 <ProcessInput+0xaba>
    37ae:	80 91 e4 38 	lds	r24, 0x38E4	; 0x8038e4 <actObj1.3989+0x8>
    37b2:	85 fd       	sbrc	r24, 5
    37b4:	0c c0       	rjmp	.+24     	; 0x37ce <ProcessInput+0xac0>
    return 0;
}

//
void SetResponse(uint8_t number, uint16_t address, uint16_t length, uint8_t type){
    reactStr[0][number]=address;
    37b6:	86 ee       	ldi	r24, 0xE6	; 230
    37b8:	98 e7       	ldi	r25, 0x78	; 120
    37ba:	80 93 1f 39 	sts	0x391F, r24	; 0x80391f <reactStr+0x2>
    37be:	90 93 20 39 	sts	0x3920, r25	; 0x803920 <reactStr+0x3>
    reactStr[1][number]=length;
    37c2:	8b e1       	ldi	r24, 0x1B	; 27
    37c4:	90 e0       	ldi	r25, 0x00	; 0
    37c6:	78 cb       	rjmp	.-2320   	; 0x2eb8 <ProcessInput+0x1aa>
                            SetResponse(elements++, actObj1.addrStr[NAME], actObj1.lenStr[NAME], GAME);
                        } else if ((data[0] == 'u')&&((actObj1.byteField[ACTION_MASK]&USE) == 0)) {
                            SetResponse(elements++, A_CANTUSE, L_CANTUSE, TEASER);
                        } else if ((data[0] == 'r')&&((actObj1.byteField[ACTION_MASK]&READ) == 0)) {
                            SetResponse(elements++, A_CANTREAD, L_CANTREAD, TEASER);
                        } else if (data[0] == 'g'){ 
    37c8:	87 36       	cpi	r24, 0x67	; 103
    37ca:	09 f4       	brne	.+2      	; 0x37ce <ProcessInput+0xac0>
    37cc:	e0 ca       	rjmp	.-2624   	; 0x2d8e <ProcessInput+0x80>
                            SetResponse(elements++, A_NOTPOSSIBLE, L_NOTPOSSIBLE, TEASER);  
                        } else {

                            //Special game, not enough characters
                            if (actObj1.lenStr[ACTION_STR1] == 1) {
    37ce:	00 91 fa 38 	lds	r16, 0x38FA	; 0x8038fa <actObj1.3989+0x1e>
    37d2:	10 91 fb 38 	lds	r17, 0x38FB	; 0x8038fb <actObj1.3989+0x1f>
    37d6:	01 30       	cpi	r16, 0x01	; 1
    37d8:	11 05       	cpc	r17, r1
    37da:	09 f5       	brne	.+66     	; 0x381e <ProcessInput+0xb10>
                                ExtEERead(actObj1.addrStr[ACTION_STR1], 1, GAME, &data[2]);
    37dc:	93 01       	movw	r18, r6
    37de:	2e 5f       	subi	r18, 0xFE	; 254
    37e0:	3f 4f       	sbci	r19, 0xFF	; 255
    37e2:	40 e0       	ldi	r20, 0x00	; 0
    37e4:	61 e0       	ldi	r22, 0x01	; 1
    37e6:	80 91 ec 38 	lds	r24, 0x38EC	; 0x8038ec <actObj1.3989+0x10>
    37ea:	90 91 ed 38 	lds	r25, 0x38ED	; 0x8038ed <actObj1.3989+0x11>
    37ee:	0e 94 4d 08 	call	0x109a	; 0x109a <ExtEERead>
                                if (data[2] == '1') {
    37f2:	f3 01       	movw	r30, r6
    37f4:	82 81       	ldd	r24, Z+2	; 0x02
    37f6:	81 33       	cpi	r24, 0x31	; 49
    37f8:	09 f0       	breq	.+2      	; 0x37fc <ProcessInput+0xaee>
    37fa:	13 cd       	rjmp	.-1498   	; 0x3222 <ProcessInput+0x514>
    return 0;
}

//
void SetResponse(uint8_t number, uint16_t address, uint16_t length, uint8_t type){
    reactStr[0][number]=address;
    37fc:	85 e2       	ldi	r24, 0x25	; 37
    37fe:	95 e7       	ldi	r25, 0x75	; 117
    3800:	80 93 1f 39 	sts	0x391F, r24	; 0x80391f <reactStr+0x2>
    3804:	90 93 20 39 	sts	0x3920, r25	; 0x803920 <reactStr+0x3>
    reactStr[1][number]=length;
    3808:	8b e2       	ldi	r24, 0x2B	; 43
    380a:	90 e0       	ldi	r25, 0x00	; 0
    380c:	80 93 5f 39 	sts	0x395F, r24	; 0x80395f <reactStr+0x42>
    3810:	90 93 60 39 	sts	0x3960, r25	; 0x803960 <reactStr+0x43>
    reactStr[2][number]=type;
    3814:	00 93 9f 39 	sts	0x399F, r16	; 0x80399f <reactStr+0x82>
    3818:	10 93 a0 39 	sts	0x39A0, r17	; 0x8039a0 <reactStr+0x83>
    381c:	57 cb       	rjmp	.-2386   	; 0x2ecc <ProcessInput+0x1be>
                                if (data[2] == '1') {
                                    SetResponse(elements++, A_PLEASEOFFER, L_PLEASEOFFER, TEASER);
                                }

                            //General request
                            } else if (actObj1.lenStr[ACTION_STR1]) {
    381e:	01 15       	cp	r16, r1
    3820:	11 05       	cpc	r17, r1
    3822:	09 f4       	brne	.+2      	; 0x3826 <ProcessInput+0xb18>
    3824:	58 c0       	rjmp	.+176    	; 0x38d6 <ProcessInput+0xbc8>
    return 0;
}

//
void SetResponse(uint8_t number, uint16_t address, uint16_t length, uint8_t type){
    reactStr[0][number]=address;
    3826:	80 91 ec 38 	lds	r24, 0x38EC	; 0x8038ec <actObj1.3989+0x10>
    382a:	90 91 ed 38 	lds	r25, 0x38ED	; 0x8038ed <actObj1.3989+0x11>
    382e:	80 93 1f 39 	sts	0x391F, r24	; 0x80391f <reactStr+0x2>
    3832:	90 93 20 39 	sts	0x3920, r25	; 0x803920 <reactStr+0x3>
    reactStr[1][number]=length;
    3836:	00 93 5f 39 	sts	0x395F, r16	; 0x80395f <reactStr+0x42>
    383a:	10 93 60 39 	sts	0x3960, r17	; 0x803960 <reactStr+0x43>
    reactStr[2][number]=type;
    383e:	10 92 9f 39 	sts	0x399F, r1	; 0x80399f <reactStr+0x82>
    3842:	10 92 a0 39 	sts	0x39A0, r1	; 0x8039a0 <reactStr+0x83>
    return 0;
}

//
void SetResponse(uint8_t number, uint16_t address, uint16_t length, uint8_t type){
    reactStr[0][number]=address;
    3846:	89 e5       	ldi	r24, 0x59	; 89
    3848:	9a e7       	ldi	r25, 0x7A	; 122
    384a:	80 93 21 39 	sts	0x3921, r24	; 0x803921 <reactStr+0x4>
    384e:	90 93 22 39 	sts	0x3922, r25	; 0x803922 <reactStr+0x5>
    reactStr[1][number]=length;
    3852:	82 e0       	ldi	r24, 0x02	; 2
    3854:	90 e0       	ldi	r25, 0x00	; 0
    3856:	80 93 61 39 	sts	0x3961, r24	; 0x803961 <reactStr+0x44>
    385a:	90 93 62 39 	sts	0x3962, r25	; 0x803962 <reactStr+0x45>
    reactStr[2][number]=type;
    385e:	81 e0       	ldi	r24, 0x01	; 1
    3860:	90 e0       	ldi	r25, 0x00	; 0
    3862:	80 93 a1 39 	sts	0x39A1, r24	; 0x8039a1 <reactStr+0x84>
    3866:	90 93 a2 39 	sts	0x39A2, r25	; 0x8039a2 <reactStr+0x85>
    return 0;
}

//
void SetResponse(uint8_t number, uint16_t address, uint16_t length, uint8_t type){
    reactStr[0][number]=address;
    386a:	2d ea       	ldi	r18, 0xAD	; 173
    386c:	38 e7       	ldi	r19, 0x78	; 120
    386e:	20 93 23 39 	sts	0x3923, r18	; 0x803923 <reactStr+0x6>
    3872:	30 93 24 39 	sts	0x3924, r19	; 0x803924 <reactStr+0x7>
    reactStr[1][number]=length;
    3876:	22 e1       	ldi	r18, 0x12	; 18
    3878:	30 e0       	ldi	r19, 0x00	; 0
    387a:	20 93 63 39 	sts	0x3963, r18	; 0x803963 <reactStr+0x46>
    387e:	30 93 64 39 	sts	0x3964, r19	; 0x803964 <reactStr+0x47>
    reactStr[2][number]=type;
    3882:	80 93 a3 39 	sts	0x39A3, r24	; 0x8039a3 <reactStr+0x86>
    3886:	90 93 a4 39 	sts	0x39A4, r25	; 0x8039a4 <reactStr+0x87>
                            //General request
                            } else if (actObj1.lenStr[ACTION_STR1]) {
                                SetResponse(elements++, actObj1.addrStr[ACTION_STR1], actObj1.lenStr[ACTION_STR1], GAME);
                                SetResponse(elements++, A_LF, 2, TEASER);
                                SetResponse(elements++, A_RESPONSE, L_RESPONSE, TEASER);
                                if (actObj1.lenStr[ACTION_STR2]>(INP_LENGTH-1)) actObj1.lenStr[ACTION_STR2] = (INP_LENGTH-1);
    388a:	80 91 fc 38 	lds	r24, 0x38FC	; 0x8038fc <actObj1.3989+0x20>
    388e:	90 91 fd 38 	lds	r25, 0x38FD	; 0x8038fd <actObj1.3989+0x21>
    3892:	40 97       	sbiw	r24, 0x10	; 16
    3894:	30 f0       	brcs	.+12     	; 0x38a2 <ProcessInput+0xb94>
    3896:	8f e0       	ldi	r24, 0x0F	; 15
    3898:	90 e0       	ldi	r25, 0x00	; 0
    389a:	80 93 fc 38 	sts	0x38FC, r24	; 0x8038fc <actObj1.3989+0x20>
    389e:	90 93 fd 38 	sts	0x38FD, r25	; 0x8038fd <actObj1.3989+0x21>
                                ExtEERead(actObj1.addrStr[ACTION_STR2], actObj1.lenStr[ACTION_STR2], GAME, (uint8_t *)&specialInput[0]);
    38a2:	2c e0       	ldi	r18, 0x0C	; 12
    38a4:	39 e3       	ldi	r19, 0x39	; 57
    38a6:	40 e0       	ldi	r20, 0x00	; 0
    38a8:	60 91 fc 38 	lds	r22, 0x38FC	; 0x8038fc <actObj1.3989+0x20>
    38ac:	80 91 ee 38 	lds	r24, 0x38EE	; 0x8038ee <actObj1.3989+0x12>
    38b0:	90 91 ef 38 	lds	r25, 0x38EF	; 0x8038ef <actObj1.3989+0x13>
    38b4:	0e 94 4d 08 	call	0x109a	; 0x109a <ExtEERead>
                                UnflipData(actObj1.lenStr[ACTION_STR2], (uint8_t *)&specialInput[0]);
    38b8:	6c e0       	ldi	r22, 0x0C	; 12
    38ba:	79 e3       	ldi	r23, 0x39	; 57
    38bc:	80 91 fc 38 	lds	r24, 0x38FC	; 0x8038fc <actObj1.3989+0x20>
    38c0:	0e 94 08 11 	call	0x2210	; 0x2210 <UnflipData>
                                specialInput[actObj1.lenStr[ACTION_STR2]] = 0;
    38c4:	e0 91 fc 38 	lds	r30, 0x38FC	; 0x8038fc <actObj1.3989+0x20>
    38c8:	f0 91 fd 38 	lds	r31, 0x38FD	; 0x8038fd <actObj1.3989+0x21>
    38cc:	e4 5f       	subi	r30, 0xF4	; 244
    38ce:	f6 4c       	sbci	r31, 0xC6	; 198
    38d0:	10 82       	st	Z, r1

                            //General request
                            } else if (actObj1.lenStr[ACTION_STR1]) {
                                SetResponse(elements++, actObj1.addrStr[ACTION_STR1], actObj1.lenStr[ACTION_STR1], GAME);
                                SetResponse(elements++, A_LF, 2, TEASER);
                                SetResponse(elements++, A_RESPONSE, L_RESPONSE, TEASER);
    38d2:	14 e0       	ldi	r17, 0x04	; 4
    38d4:	94 c1       	rjmp	.+808    	; 0x3bfe <ProcessInput+0xef0>
                                ExtEERead(actObj1.addrStr[ACTION_STR2], actObj1.lenStr[ACTION_STR2], GAME, (uint8_t *)&specialInput[0]);
                                UnflipData(actObj1.lenStr[ACTION_STR2], (uint8_t *)&specialInput[0]);
                                specialInput[actObj1.lenStr[ACTION_STR2]] = 0;
                            
                            //Normal action    
                            } else if (CheckState(actObj1.byteField[ACTION_ACL])){
    38d6:	80 91 e3 38 	lds	r24, 0x38E3	; 0x8038e3 <actObj1.3989+0x7>
    38da:	0e 94 18 0a 	call	0x1430	; 0x1430 <CheckState>
    38de:	88 23       	and	r24, r24
    38e0:	01 f1       	breq	.+64     	; 0x3922 <ProcessInput+0xc14>
                                SetResponse(elements++, actObj1.addrStr[ACTION_MSG], actObj1.lenStr[ACTION_MSG], GAME);
    38e2:	80 91 02 39 	lds	r24, 0x3902	; 0x803902 <actObj1.3989+0x26>
    38e6:	90 91 03 39 	lds	r25, 0x3903	; 0x803903 <actObj1.3989+0x27>
    return 0;
}

//
void SetResponse(uint8_t number, uint16_t address, uint16_t length, uint8_t type){
    reactStr[0][number]=address;
    38ea:	20 91 f4 38 	lds	r18, 0x38F4	; 0x8038f4 <actObj1.3989+0x18>
    38ee:	30 91 f5 38 	lds	r19, 0x38F5	; 0x8038f5 <actObj1.3989+0x19>
    38f2:	20 93 1f 39 	sts	0x391F, r18	; 0x80391f <reactStr+0x2>
    38f6:	30 93 20 39 	sts	0x3920, r19	; 0x803920 <reactStr+0x3>
    reactStr[1][number]=length;
    38fa:	80 93 5f 39 	sts	0x395F, r24	; 0x80395f <reactStr+0x42>
    38fe:	90 93 60 39 	sts	0x3960, r25	; 0x803960 <reactStr+0x43>
    reactStr[2][number]=type;
    3902:	10 92 9f 39 	sts	0x399F, r1	; 0x80399f <reactStr+0x82>
    3906:	10 92 a0 39 	sts	0x39A0, r1	; 0x8039a0 <reactStr+0x83>
                                specialInput[actObj1.lenStr[ACTION_STR2]] = 0;
                            
                            //Normal action    
                            } else if (CheckState(actObj1.byteField[ACTION_ACL])){
                                SetResponse(elements++, actObj1.addrStr[ACTION_MSG], actObj1.lenStr[ACTION_MSG], GAME);
                                effect = actObj1.effect[2];
    390a:	80 91 06 39 	lds	r24, 0x3906	; 0x803906 <actObj1.3989+0x2a>
    390e:	90 e0       	ldi	r25, 0x00	; 0
    3910:	80 93 3c 38 	sts	0x383C, r24	; 0x80383c <effect>
    3914:	90 93 3d 38 	sts	0x383D, r25	; 0x80383d <effect+0x1>
                                UpdateState(actObj1.byteField[ACTION_STATE]);
    3918:	80 91 e6 38 	lds	r24, 0x38E6	; 0x8038e6 <actObj1.3989+0xa>
    391c:	0e 94 f7 09 	call	0x13ee	; 0x13ee <UpdateState>
    3920:	d5 ca       	rjmp	.-2646   	; 0x2ecc <ProcessInput+0x1be>
                            } else {
                                SetResponse(elements++, actObj1.addrStr[ACTION_ACL_MSG], actObj1.lenStr[ACTION_ACL_MSG], GAME);
    3922:	80 91 00 39 	lds	r24, 0x3900	; 0x803900 <actObj1.3989+0x24>
    3926:	90 91 01 39 	lds	r25, 0x3901	; 0x803901 <actObj1.3989+0x25>
    return 0;
}

//
void SetResponse(uint8_t number, uint16_t address, uint16_t length, uint8_t type){
    reactStr[0][number]=address;
    392a:	20 91 f2 38 	lds	r18, 0x38F2	; 0x8038f2 <actObj1.3989+0x16>
    392e:	30 91 f3 38 	lds	r19, 0x38F3	; 0x8038f3 <actObj1.3989+0x17>
    3932:	20 93 1f 39 	sts	0x391F, r18	; 0x80391f <reactStr+0x2>
    3936:	30 93 20 39 	sts	0x3920, r19	; 0x803920 <reactStr+0x3>
    reactStr[1][number]=length;
    393a:	80 93 5f 39 	sts	0x395F, r24	; 0x80395f <reactStr+0x42>
    393e:	90 93 60 39 	sts	0x3960, r25	; 0x803960 <reactStr+0x43>
    reactStr[2][number]=type;
    3942:	10 92 9f 39 	sts	0x399F, r1	; 0x80399f <reactStr+0x82>
    3946:	10 92 a0 39 	sts	0x39A0, r1	; 0x8039a0 <reactStr+0x83>
                                SetResponse(elements++, actObj1.addrStr[ACTION_MSG], actObj1.lenStr[ACTION_MSG], GAME);
                                effect = actObj1.effect[2];
                                UpdateState(actObj1.byteField[ACTION_STATE]);
                            } else {
                                SetResponse(elements++, actObj1.addrStr[ACTION_ACL_MSG], actObj1.lenStr[ACTION_ACL_MSG], GAME);
                                effect = actObj1.effect[1];
    394a:	80 91 05 39 	lds	r24, 0x3905	; 0x803905 <actObj1.3989+0x29>
    394e:	90 e0       	ldi	r25, 0x00	; 0
    3950:	80 93 3c 38 	sts	0x383C, r24	; 0x80383c <effect>
    3954:	90 93 3d 38 	sts	0x383D, r25	; 0x80383d <effect+0x1>
    3958:	b9 ca       	rjmp	.-2702   	; 0x2ecc <ProcessInput+0x1be>
                        }
                    }

                //Person or object not found
                } else {
                    if ((data[0] == 't')||(data[0] == 'g')){
    395a:	d3 01       	movw	r26, r6
    395c:	8c 91       	ld	r24, X
    395e:	84 37       	cpi	r24, 0x74	; 116
    3960:	11 f0       	breq	.+4      	; 0x3966 <ProcessInput+0xc58>
    3962:	87 36       	cpi	r24, 0x67	; 103
    3964:	19 f4       	brne	.+6      	; 0x396c <ProcessInput+0xc5e>
    return 0;
}

//
void SetResponse(uint8_t number, uint16_t address, uint16_t length, uint8_t type){
    reactStr[0][number]=address;
    3966:	89 e3       	ldi	r24, 0x39	; 57
    3968:	99 e7       	ldi	r25, 0x79	; 121
    396a:	02 c0       	rjmp	.+4      	; 0x3970 <ProcessInput+0xc62>
    396c:	8d e4       	ldi	r24, 0x4D	; 77
    396e:	99 e7       	ldi	r25, 0x79	; 121
    3970:	80 93 1f 39 	sts	0x391F, r24	; 0x80391f <reactStr+0x2>
    3974:	90 93 20 39 	sts	0x3920, r25	; 0x803920 <reactStr+0x3>
    reactStr[1][number]=length;
    3978:	84 e1       	ldi	r24, 0x14	; 20
    397a:	90 e0       	ldi	r25, 0x00	; 0
    397c:	9d ca       	rjmp	.-2758   	; 0x2eb8 <ProcessInput+0x1aa>
                    }
                }
            }
        
        //Special answer given
        } else if (data[0] == 'a'){
    397e:	81 36       	cpi	r24, 0x61	; 97
    3980:	09 f0       	breq	.+2      	; 0x3984 <ProcessInput+0xc76>
    3982:	4f cc       	rjmp	.-1890   	; 0x3222 <ProcessInput+0x514>
            
            //Priest offerings
            if (specialPassed >= 2) {
    3984:	80 91 0b 39 	lds	r24, 0x390B	; 0x80390b <specialPassed>
    3988:	82 30       	cpi	r24, 0x02	; 2
    398a:	08 f4       	brcc	.+2      	; 0x398e <ProcessInput+0xc80>
    398c:	c7 c0       	rjmp	.+398    	; 0x3b1c <ProcessInput+0xe0e>
                if (data[1] > 0) {
    398e:	f3 01       	movw	r30, r6
    3990:	21 81       	ldd	r18, Z+1	; 0x01
    3992:	22 23       	and	r18, r18
    3994:	09 f4       	brne	.+2      	; 0x3998 <ProcessInput+0xc8a>
    3996:	af c0       	rjmp	.+350    	; 0x3af6 <ProcessInput+0xde8>

                    //uint8_t  digit[10] = {0, 0, 0, 0, 0, 0, 0, 0, 0, 0};
                    uint8_t  digit[8] = {0, 0, 0, 0, 0, 0, 0, 0};
    3998:	ce 01       	movw	r24, r28
    399a:	01 96       	adiw	r24, 0x01	; 1
    399c:	7c 01       	movw	r14, r24
    399e:	88 e0       	ldi	r24, 0x08	; 8
    39a0:	d7 01       	movw	r26, r14
    39a2:	1d 92       	st	X+, r1
    39a4:	8a 95       	dec	r24
    39a6:	e9 f7       	brne	.-6      	; 0x39a2 <ProcessInput+0xc94>
                        answer = ((offering  & 2) << 19) + ((offering  & 1) << 8) + \
                        ((element   & 2) << 15) + ((element   & 1) << 4) + \
                        ((kneelings & 2) << 11) + ((kneelings & 1))
                        answer = answer << (3-person)
                    */
                    data[1]-='0'; // item 31 needs to become something that results in 0 when doing %4
    39a8:	20 53       	subi	r18, 0x30	; 48
    39aa:	21 83       	std	Z+1, r18	; 0x01
                    data[2]-='1';
    39ac:	32 81       	ldd	r19, Z+2	; 0x02
    39ae:	31 53       	subi	r19, 0x31	; 49
    39b0:	32 83       	std	Z+2, r19	; 0x02
                    if (data[3] == 'a') data[3] = 1;
    39b2:	83 81       	ldd	r24, Z+3	; 0x03
    39b4:	81 36       	cpi	r24, 0x61	; 97
    39b6:	11 f4       	brne	.+4      	; 0x39bc <ProcessInput+0xcae>
    39b8:	81 e0       	ldi	r24, 0x01	; 1
    39ba:	0c c0       	rjmp	.+24     	; 0x39d4 <ProcessInput+0xcc6>
                    else if (data[3] == 'e') data[3] = 0;
    39bc:	85 36       	cpi	r24, 0x65	; 101
    39be:	19 f4       	brne	.+6      	; 0x39c6 <ProcessInput+0xcb8>
    39c0:	f3 01       	movw	r30, r6
    39c2:	13 82       	std	Z+3, r1	; 0x03
    39c4:	08 c0       	rjmp	.+16     	; 0x39d6 <ProcessInput+0xcc8>
                    else if (data[3] == 'f') data[3] = 3;
    39c6:	86 36       	cpi	r24, 0x66	; 102
    39c8:	19 f4       	brne	.+6      	; 0x39d0 <ProcessInput+0xcc2>
    39ca:	83 e0       	ldi	r24, 0x03	; 3
    39cc:	83 83       	std	Z+3, r24	; 0x03
    39ce:	03 c0       	rjmp	.+6      	; 0x39d6 <ProcessInput+0xcc8>
                    else data[3] = 2;
    39d0:	82 e0       	ldi	r24, 0x02	; 2
    39d2:	f3 01       	movw	r30, r6
    39d4:	83 83       	std	Z+3, r24	; 0x03

                    if (data[1] & 2) answer += (1UL << 20);
    39d6:	21 fd       	sbrc	r18, 1
    39d8:	04 c0       	rjmp	.+8      	; 0x39e2 <ProcessInput+0xcd4>
            if (specialPassed >= 2) {
                if (data[1] > 0) {

                    //uint8_t  digit[10] = {0, 0, 0, 0, 0, 0, 0, 0, 0, 0};
                    uint8_t  digit[8] = {0, 0, 0, 0, 0, 0, 0, 0};
                    uint32_t answer = 0;
    39da:	80 e0       	ldi	r24, 0x00	; 0
    39dc:	90 e0       	ldi	r25, 0x00	; 0
    39de:	dc 01       	movw	r26, r24
    39e0:	04 c0       	rjmp	.+8      	; 0x39ea <ProcessInput+0xcdc>
                    if (data[3] == 'a') data[3] = 1;
                    else if (data[3] == 'e') data[3] = 0;
                    else if (data[3] == 'f') data[3] = 3;
                    else data[3] = 2;

                    if (data[1] & 2) answer += (1UL << 20);
    39e2:	80 e0       	ldi	r24, 0x00	; 0
    39e4:	90 e0       	ldi	r25, 0x00	; 0
    39e6:	a0 e1       	ldi	r26, 0x10	; 16
    39e8:	b0 e0       	ldi	r27, 0x00	; 0
                    if (data[1] & 1) answer += (1 << 8);
    39ea:	20 ff       	sbrs	r18, 0
    39ec:	03 c0       	rjmp	.+6      	; 0x39f4 <ProcessInput+0xce6>
    39ee:	9f 5f       	subi	r25, 0xFF	; 255
    39f0:	af 4f       	sbci	r26, 0xFF	; 255
    39f2:	bf 4f       	sbci	r27, 0xFF	; 255
                    if (data[3] & 2) answer += (1UL << 16);
    39f4:	f3 01       	movw	r30, r6
    39f6:	23 81       	ldd	r18, Z+3	; 0x03
    39f8:	21 fd       	sbrc	r18, 1
    39fa:	11 96       	adiw	r26, 0x01	; 1
                    if (data[3] & 1) answer += (1 << 4);
    39fc:	20 ff       	sbrs	r18, 0
    39fe:	03 c0       	rjmp	.+6      	; 0x3a06 <ProcessInput+0xcf8>
    3a00:	40 96       	adiw	r24, 0x10	; 16
    3a02:	a1 1d       	adc	r26, r1
    3a04:	b1 1d       	adc	r27, r1
                    if (data[2] & 2) answer += (1 << 12);
    3a06:	31 ff       	sbrs	r19, 1
    3a08:	03 c0       	rjmp	.+6      	; 0x3a10 <ProcessInput+0xd02>
    3a0a:	90 5f       	subi	r25, 0xF0	; 240
    3a0c:	af 4f       	sbci	r26, 0xFF	; 255
    3a0e:	bf 4f       	sbci	r27, 0xFF	; 255
                    if (data[2] & 1) answer += 1;
    3a10:	30 ff       	sbrs	r19, 0
    3a12:	03 c0       	rjmp	.+6      	; 0x3a1a <ProcessInput+0xd0c>
    3a14:	01 96       	adiw	r24, 0x01	; 1
    3a16:	a1 1d       	adc	r26, r1
    3a18:	b1 1d       	adc	r27, r1
                    answer <<= (4 - whoami);            
    3a1a:	40 91 3f 38 	lds	r20, 0x383F	; 0x80383f <whoami>
    3a1e:	24 e0       	ldi	r18, 0x04	; 4
    3a20:	30 e0       	ldi	r19, 0x00	; 0
    3a22:	24 1b       	sub	r18, r20
    3a24:	31 09       	sbc	r19, r1
    3a26:	04 c0       	rjmp	.+8      	; 0x3a30 <ProcessInput+0xd22>
    3a28:	88 0f       	add	r24, r24
    3a2a:	99 1f       	adc	r25, r25
    3a2c:	aa 1f       	adc	r26, r26
    3a2e:	bb 1f       	adc	r27, r27
    3a30:	2a 95       	dec	r18
    3a32:	d2 f7       	brpl	.-12     	; 0x3a28 <ProcessInput+0xd1a>
    return 0;
}

//
void SetResponse(uint8_t number, uint16_t address, uint16_t length, uint8_t type){
    reactStr[0][number]=address;
    3a34:	28 ec       	ldi	r18, 0xC8	; 200
    3a36:	34 e7       	ldi	r19, 0x74	; 116
    3a38:	20 93 1f 39 	sts	0x391F, r18	; 0x80391f <reactStr+0x2>
    3a3c:	30 93 20 39 	sts	0x3920, r19	; 0x803920 <reactStr+0x3>
    reactStr[1][number]=length;
    3a40:	20 e2       	ldi	r18, 0x20	; 32
    3a42:	30 e0       	ldi	r19, 0x00	; 0
    3a44:	20 93 5f 39 	sts	0x395F, r18	; 0x80395f <reactStr+0x42>
    3a48:	30 93 60 39 	sts	0x3960, r19	; 0x803960 <reactStr+0x43>
    reactStr[2][number]=type;
    3a4c:	21 e0       	ldi	r18, 0x01	; 1
    3a4e:	30 e0       	ldi	r19, 0x00	; 0
    3a50:	20 93 9f 39 	sts	0x399F, r18	; 0x80399f <reactStr+0x82>
    3a54:	30 93 a0 39 	sts	0x39A0, r19	; 0x8039a0 <reactStr+0x83>
    return 0;
}

//
void SetResponse(uint8_t number, uint16_t address, uint16_t length, uint8_t type){
    reactStr[0][number]=address;
    3a58:	4d e9       	ldi	r20, 0x9D	; 157
    3a5a:	54 e7       	ldi	r21, 0x74	; 116
    3a5c:	40 93 21 39 	sts	0x3921, r20	; 0x803921 <reactStr+0x4>
    3a60:	50 93 22 39 	sts	0x3922, r21	; 0x803922 <reactStr+0x5>
    reactStr[1][number]=length;
    3a64:	42 e0       	ldi	r20, 0x02	; 2
    3a66:	50 e0       	ldi	r21, 0x00	; 0
    3a68:	40 93 61 39 	sts	0x3961, r20	; 0x803961 <reactStr+0x44>
    3a6c:	50 93 62 39 	sts	0x3962, r21	; 0x803962 <reactStr+0x45>
    reactStr[2][number]=type;
    3a70:	20 93 a1 39 	sts	0x39A1, r18	; 0x8039a1 <reactStr+0x84>
    3a74:	30 93 a2 39 	sts	0x39A2, r19	; 0x8039a2 <reactStr+0x85>

                    SetResponse(elements++, A_YOURPART, L_YOURPART, TEASER);
                    SetResponse(elements++, A_HEXPREFIX, L_HEXPREFIX, TEASER);
                    
                    //Set up sending out number
                    for (n=7; n>=0; --n) {
    3a78:	07 e0       	ldi	r16, 0x07	; 7
                        digit[n] = answer % 16;
    3a7a:	f7 01       	movw	r30, r14
    3a7c:	e0 0f       	add	r30, r16
    3a7e:	f1 1d       	adc	r31, r1
    3a80:	28 2f       	mov	r18, r24
    3a82:	2f 70       	andi	r18, 0x0F	; 15
    3a84:	20 83       	st	Z, r18
                        answer /= 16;
    3a86:	44 e0       	ldi	r20, 0x04	; 4
    3a88:	b6 95       	lsr	r27
    3a8a:	a7 95       	ror	r26
    3a8c:	97 95       	ror	r25
    3a8e:	87 95       	ror	r24
    3a90:	4a 95       	dec	r20
    3a92:	d1 f7       	brne	.-12     	; 0x3a88 <ProcessInput+0xd7a>
                        if (answer == 0) break;
    3a94:	00 97       	sbiw	r24, 0x00	; 0
    3a96:	a1 05       	cpc	r26, r1
    3a98:	b1 05       	cpc	r27, r1
    3a9a:	49 f4       	brne	.+18     	; 0x3aae <ProcessInput+0xda0>
    3a9c:	2d e1       	ldi	r18, 0x1D	; 29
    3a9e:	c2 2e       	mov	r12, r18
    3aa0:	29 e3       	ldi	r18, 0x39	; 57
    3aa2:	d2 2e       	mov	r13, r18
    3aa4:	13 e0       	ldi	r17, 0x03	; 3
}

//
void SetResponse(uint8_t number, uint16_t address, uint16_t length, uint8_t type){
    reactStr[0][number]=address;
    reactStr[1][number]=length;
    3aa6:	aa 24       	eor	r10, r10
    3aa8:	a3 94       	inc	r10
    3aaa:	b1 2c       	mov	r11, r1
    3aac:	02 c0       	rjmp	.+4      	; 0x3ab2 <ProcessInput+0xda4>

                    SetResponse(elements++, A_YOURPART, L_YOURPART, TEASER);
                    SetResponse(elements++, A_HEXPREFIX, L_HEXPREFIX, TEASER);
                    
                    //Set up sending out number
                    for (n=7; n>=0; --n) {
    3aae:	01 50       	subi	r16, 0x01	; 1
                        digit[n] = answer % 16;
                        answer /= 16;
                        if (answer == 0) break;
                    }
    3ab0:	e4 cf       	rjmp	.-56     	; 0x3a7a <ProcessInput+0xd6c>
    3ab2:	b2 e0       	ldi	r27, 0x02	; 2
    3ab4:	cb 0e       	add	r12, r27
    3ab6:	d1 1c       	adc	r13, r1

                    for (; n<8; ++n) {
    3ab8:	08 30       	cpi	r16, 0x08	; 8
    3aba:	08 f0       	brcs	.+2      	; 0x3abe <ProcessInput+0xdb0>
    3abc:	9e c0       	rjmp	.+316    	; 0x3bfa <ProcessInput+0xeec>
                        SetResponse(elements++, A_DIGITS+digit[n], 1, TEASER);
    3abe:	1f 5f       	subi	r17, 0xFF	; 255
    3ac0:	f7 01       	movw	r30, r14
    3ac2:	e0 0f       	add	r30, r16
    3ac4:	f1 1d       	adc	r31, r1
    return 0;
}

//
void SetResponse(uint8_t number, uint16_t address, uint16_t length, uint8_t type){
    reactStr[0][number]=address;
    3ac6:	80 81       	ld	r24, Z
    3ac8:	90 e0       	ldi	r25, 0x00	; 0
    3aca:	83 57       	subi	r24, 0x73	; 115
    3acc:	9b 48       	sbci	r25, 0x8B	; 139
    3ace:	d6 01       	movw	r26, r12
    3ad0:	14 96       	adiw	r26, 0x04	; 4
    3ad2:	8d 93       	st	X+, r24
    3ad4:	9c 93       	st	X, r25
    3ad6:	15 97       	sbiw	r26, 0x05	; 5
    reactStr[1][number]=length;
    3ad8:	f6 01       	movw	r30, r12
    3ada:	ec 5b       	subi	r30, 0xBC	; 188
    3adc:	ff 4f       	sbci	r31, 0xFF	; 255
    3ade:	a0 82       	st	Z, r10
    3ae0:	b1 82       	std	Z+1, r11	; 0x01
    reactStr[2][number]=type;
    3ae2:	e0 5c       	subi	r30, 0xC0	; 192
    3ae4:	ff 4f       	sbci	r31, 0xFF	; 255
    3ae6:	a0 82       	st	Z, r10
    3ae8:	b1 82       	std	Z+1, r11	; 0x01
                        if (answer == 0) break;
                    }

                    for (; n<8; ++n) {
                        SetResponse(elements++, A_DIGITS+digit[n], 1, TEASER);
                        UpdateState(actObj1.byteField[ACTION_STATE]);
    3aea:	80 91 e6 38 	lds	r24, 0x38E6	; 0x8038e6 <actObj1.3989+0xa>
    3aee:	0e 94 f7 09 	call	0x13ee	; 0x13ee <UpdateState>
                        digit[n] = answer % 16;
                        answer /= 16;
                        if (answer == 0) break;
                    }

                    for (; n<8; ++n) {
    3af2:	0f 5f       	subi	r16, 0xFF	; 255
    3af4:	de cf       	rjmp	.-68     	; 0x3ab2 <ProcessInput+0xda4>
    return 0;
}

//
void SetResponse(uint8_t number, uint16_t address, uint16_t length, uint8_t type){
    reactStr[0][number]=address;
    3af6:	88 ee       	ldi	r24, 0xE8	; 232
    3af8:	94 e7       	ldi	r25, 0x74	; 116
    3afa:	80 93 1f 39 	sts	0x391F, r24	; 0x80391f <reactStr+0x2>
    3afe:	90 93 20 39 	sts	0x3920, r25	; 0x803920 <reactStr+0x3>
    reactStr[1][number]=length;
    3b02:	8d e3       	ldi	r24, 0x3D	; 61
    3b04:	90 e0       	ldi	r25, 0x00	; 0
    3b06:	80 93 5f 39 	sts	0x395F, r24	; 0x80395f <reactStr+0x42>
    3b0a:	90 93 60 39 	sts	0x3960, r25	; 0x803960 <reactStr+0x43>
    reactStr[2][number]=type;
    3b0e:	81 e0       	ldi	r24, 0x01	; 1
    3b10:	90 e0       	ldi	r25, 0x00	; 0
    3b12:	80 93 9f 39 	sts	0x399F, r24	; 0x80399f <reactStr+0x82>
    3b16:	90 93 a0 39 	sts	0x39A0, r25	; 0x8039a0 <reactStr+0x83>
    3b1a:	6e c0       	rjmp	.+220    	; 0x3bf8 <ProcessInput+0xeea>
    3b1c:	e0 91 31 38 	lds	r30, 0x3831	; 0x803831 <currDepth>
                    SetResponse(elements++, A_BADOFFERING, L_BADOFFERING, TEASER);
                }
            
            //Other questions    
            } else if (specialPassed == 1) {
                PopulateObject(route[currDepth+1], &actObj1);
    3b20:	f0 e0       	ldi	r31, 0x00	; 0
    3b22:	ee 0f       	add	r30, r30
    3b24:	ff 1f       	adc	r31, r31
    3b26:	e1 52       	subi	r30, 0x21	; 33
    3b28:	f6 4c       	sbci	r31, 0xC6	; 198
    3b2a:	6c ed       	ldi	r22, 0xDC	; 220
    3b2c:	78 e3       	ldi	r23, 0x38	; 56
                } else {
                    SetResponse(elements++, A_BADOFFERING, L_BADOFFERING, TEASER);
                }
            
            //Other questions    
            } else if (specialPassed == 1) {
    3b2e:	81 30       	cpi	r24, 0x01	; 1
    3b30:	09 f0       	breq	.+2      	; 0x3b34 <ProcessInput+0xe26>
    3b32:	46 c0       	rjmp	.+140    	; 0x3bc0 <ProcessInput+0xeb2>
                PopulateObject(route[currDepth+1], &actObj1);
    3b34:	80 81       	ld	r24, Z
    3b36:	91 81       	ldd	r25, Z+1	; 0x01
    3b38:	0e 94 f2 11 	call	0x23e4	; 0x23e4 <PopulateObject>
                if (CheckState(actObj1.byteField[ACTION_ACL])){
    3b3c:	80 91 e3 38 	lds	r24, 0x38E3	; 0x8038e3 <actObj1.3989+0x7>
    3b40:	0e 94 18 0a 	call	0x1430	; 0x1430 <CheckState>
    3b44:	88 23       	and	r24, r24
    3b46:	01 f1       	breq	.+64     	; 0x3b88 <ProcessInput+0xe7a>
                    SetResponse(elements++, actObj1.addrStr[ACTION_MSG], actObj1.lenStr[ACTION_MSG], GAME);
    3b48:	80 91 02 39 	lds	r24, 0x3902	; 0x803902 <actObj1.3989+0x26>
    3b4c:	90 91 03 39 	lds	r25, 0x3903	; 0x803903 <actObj1.3989+0x27>
    return 0;
}

//
void SetResponse(uint8_t number, uint16_t address, uint16_t length, uint8_t type){
    reactStr[0][number]=address;
    3b50:	20 91 f4 38 	lds	r18, 0x38F4	; 0x8038f4 <actObj1.3989+0x18>
    3b54:	30 91 f5 38 	lds	r19, 0x38F5	; 0x8038f5 <actObj1.3989+0x19>
    3b58:	20 93 1f 39 	sts	0x391F, r18	; 0x80391f <reactStr+0x2>
    3b5c:	30 93 20 39 	sts	0x3920, r19	; 0x803920 <reactStr+0x3>
    reactStr[1][number]=length;
    3b60:	80 93 5f 39 	sts	0x395F, r24	; 0x80395f <reactStr+0x42>
    3b64:	90 93 60 39 	sts	0x3960, r25	; 0x803960 <reactStr+0x43>
    reactStr[2][number]=type;
    3b68:	10 92 9f 39 	sts	0x399F, r1	; 0x80399f <reactStr+0x82>
    3b6c:	10 92 a0 39 	sts	0x39A0, r1	; 0x8039a0 <reactStr+0x83>
            //Other questions    
            } else if (specialPassed == 1) {
                PopulateObject(route[currDepth+1], &actObj1);
                if (CheckState(actObj1.byteField[ACTION_ACL])){
                    SetResponse(elements++, actObj1.addrStr[ACTION_MSG], actObj1.lenStr[ACTION_MSG], GAME);
                    effect = actObj1.effect[2];
    3b70:	80 91 06 39 	lds	r24, 0x3906	; 0x803906 <actObj1.3989+0x2a>
    3b74:	90 e0       	ldi	r25, 0x00	; 0
    3b76:	80 93 3c 38 	sts	0x383C, r24	; 0x80383c <effect>
    3b7a:	90 93 3d 38 	sts	0x383D, r25	; 0x80383d <effect+0x1>
                    UpdateState(actObj1.byteField[ACTION_STATE]);
    3b7e:	80 91 e6 38 	lds	r24, 0x38E6	; 0x8038e6 <actObj1.3989+0xa>
    3b82:	0e 94 f7 09 	call	0x13ee	; 0x13ee <UpdateState>
    3b86:	38 c0       	rjmp	.+112    	; 0x3bf8 <ProcessInput+0xeea>
                } else {
                    SetResponse(elements++, actObj1.addrStr[ACTION_ACL_MSG], actObj1.lenStr[ACTION_ACL_MSG], GAME);
    3b88:	80 91 00 39 	lds	r24, 0x3900	; 0x803900 <actObj1.3989+0x24>
    3b8c:	90 91 01 39 	lds	r25, 0x3901	; 0x803901 <actObj1.3989+0x25>
    return 0;
}

//
void SetResponse(uint8_t number, uint16_t address, uint16_t length, uint8_t type){
    reactStr[0][number]=address;
    3b90:	20 91 f2 38 	lds	r18, 0x38F2	; 0x8038f2 <actObj1.3989+0x16>
    3b94:	30 91 f3 38 	lds	r19, 0x38F3	; 0x8038f3 <actObj1.3989+0x17>
    3b98:	20 93 1f 39 	sts	0x391F, r18	; 0x80391f <reactStr+0x2>
    3b9c:	30 93 20 39 	sts	0x3920, r19	; 0x803920 <reactStr+0x3>
    reactStr[1][number]=length;
    3ba0:	80 93 5f 39 	sts	0x395F, r24	; 0x80395f <reactStr+0x42>
    3ba4:	90 93 60 39 	sts	0x3960, r25	; 0x803960 <reactStr+0x43>
    reactStr[2][number]=type;
    3ba8:	10 92 9f 39 	sts	0x399F, r1	; 0x80399f <reactStr+0x82>
    3bac:	10 92 a0 39 	sts	0x39A0, r1	; 0x8039a0 <reactStr+0x83>
                    SetResponse(elements++, actObj1.addrStr[ACTION_MSG], actObj1.lenStr[ACTION_MSG], GAME);
                    effect = actObj1.effect[2];
                    UpdateState(actObj1.byteField[ACTION_STATE]);
                } else {
                    SetResponse(elements++, actObj1.addrStr[ACTION_ACL_MSG], actObj1.lenStr[ACTION_ACL_MSG], GAME);
                    effect = actObj1.effect[1];
    3bb0:	80 91 05 39 	lds	r24, 0x3905	; 0x803905 <actObj1.3989+0x29>
    3bb4:	90 e0       	ldi	r25, 0x00	; 0
    3bb6:	80 93 3c 38 	sts	0x383C, r24	; 0x80383c <effect>
    3bba:	90 93 3d 38 	sts	0x383D, r25	; 0x80383d <effect+0x1>
    3bbe:	1c c0       	rjmp	.+56     	; 0x3bf8 <ProcessInput+0xeea>
                }

            } else {
                PopulateObject(route[currDepth+1], &actObj1);
    3bc0:	80 81       	ld	r24, Z
    3bc2:	91 81       	ldd	r25, Z+1	; 0x01
    3bc4:	0e 94 f2 11 	call	0x23e4	; 0x23e4 <PopulateObject>
    return 0;
}

//
void SetResponse(uint8_t number, uint16_t address, uint16_t length, uint8_t type){
    reactStr[0][number]=address;
    3bc8:	80 e6       	ldi	r24, 0x60	; 96
    3bca:	98 e7       	ldi	r25, 0x78	; 120
    3bcc:	80 93 1f 39 	sts	0x391F, r24	; 0x80391f <reactStr+0x2>
    3bd0:	90 93 20 39 	sts	0x3920, r25	; 0x803920 <reactStr+0x3>
    reactStr[1][number]=length;
    3bd4:	8d e4       	ldi	r24, 0x4D	; 77
    3bd6:	90 e0       	ldi	r25, 0x00	; 0
    3bd8:	80 93 5f 39 	sts	0x395F, r24	; 0x80395f <reactStr+0x42>
    3bdc:	90 93 60 39 	sts	0x3960, r25	; 0x803960 <reactStr+0x43>
    reactStr[2][number]=type;
    3be0:	81 e0       	ldi	r24, 0x01	; 1
    3be2:	90 e0       	ldi	r25, 0x00	; 0
    3be4:	80 93 9f 39 	sts	0x399F, r24	; 0x80399f <reactStr+0x82>
    3be8:	90 93 a0 39 	sts	0x39A0, r25	; 0x8039a0 <reactStr+0x83>
                }

            } else {
                PopulateObject(route[currDepth+1], &actObj1);
                SetResponse(elements++, A_INCORRECT, L_INCORRECT, TEASER);
                PunishmentTime = getClock();
    3bec:	0e 94 26 0e 	call	0x1c4c	; 0x1c4c <getClock>
    3bf0:	80 93 09 39 	sts	0x3909, r24	; 0x803909 <PunishmentTime>
    3bf4:	90 93 0a 39 	sts	0x390A, r25	; 0x80390a <PunishmentTime+0x1>
                    effect = actObj1.effect[1];
                }

            } else {
                PopulateObject(route[currDepth+1], &actObj1);
                SetResponse(elements++, A_INCORRECT, L_INCORRECT, TEASER);
    3bf8:	12 e0       	ldi	r17, 0x02	; 2
                PunishmentTime = getClock();
            }
            specialInput[0] = 0;
    3bfa:	10 92 0c 39 	sts	0x390C, r1	; 0x80390c <specialInput>

        }
                    
        //Input handled
        if (specialInput[0]) responseList = elements; else responseList = SetStandardResponse(elements);
    3bfe:	80 91 0c 39 	lds	r24, 0x390C	; 0x80390c <specialInput>
    3c02:	88 23       	and	r24, r24
    3c04:	19 f0       	breq	.+6      	; 0x3c0c <ProcessInput+0xefe>
    3c06:	10 93 1c 39 	sts	0x391C, r17	; 0x80391c <responseList>
    3c0a:	8b c0       	rjmp	.+278    	; 0x3d22 <ProcessInput+0x1014>
    3c0c:	81 2f       	mov	r24, r17
    3c0e:	01 c0       	rjmp	.+2      	; 0x3c12 <ProcessInput+0xf04>

    } else {

        responseList = SetStandardResponse(1);
    3c10:	81 e0       	ldi	r24, 0x01	; 1
    3c12:	0e 94 76 11 	call	0x22ec	; 0x22ec <SetStandardResponse>
    3c16:	80 93 1c 39 	sts	0x391C, r24	; 0x80391c <responseList>
    3c1a:	83 c0       	rjmp	.+262    	; 0x3d22 <ProcessInput+0x1014>
    return 0;
}

//
void SetResponse(uint8_t number, uint16_t address, uint16_t length, uint8_t type){
    reactStr[0][number]=address;
    3c1c:	81 ed       	ldi	r24, 0xD1	; 209
    3c1e:	99 e7       	ldi	r25, 0x79	; 121
    3c20:	80 93 1f 39 	sts	0x391F, r24	; 0x80391f <reactStr+0x2>
    3c24:	90 93 20 39 	sts	0x3920, r25	; 0x803920 <reactStr+0x3>
    reactStr[1][number]=length;
    3c28:	8a e1       	ldi	r24, 0x1A	; 26
    3c2a:	90 e0       	ldi	r25, 0x00	; 0
    3c2c:	45 c9       	rjmp	.-3446   	; 0x2eb8 <ProcessInput+0x1aa>

        //Drop item if in inventory
        if (data[0] == 'd') {
            if ((inventory[0] == 0)&&(inventory[1] == 0)){
                SetResponse(elements++, A_EMPTYHANDS, L_EMPTYHANDS, TEASER);
            } else if (inputLen != 2) {
    3c2e:	f2 e0       	ldi	r31, 0x02	; 2
    3c30:	ff 12       	cpse	r15, r31
    3c32:	ad c8       	rjmp	.-3750   	; 0x2d8e <ProcessInput+0x80>
                SetResponse(elements++, A_NOTPOSSIBLE, L_NOTPOSSIBLE, TEASER);
            } else {
                for (uint8_t x=0; x<2; ++x) {
                    if (inventory[x]) {
                        if (CheckLetter(inventory[x], data[1])) {
    3c34:	f3 01       	movw	r30, r6
    3c36:	61 81       	ldd	r22, Z+1	; 0x01
    3c38:	0e 94 6b 12 	call	0x24d6	; 0x24d6 <CheckLetter>
    3c3c:	88 23       	and	r24, r24
    3c3e:	09 f4       	brne	.+2      	; 0x3c42 <ProcessInput+0xf34>
    3c40:	58 c0       	rjmp	.+176    	; 0x3cf2 <ProcessInput+0xfe4>
                SetResponse(elements++, A_EMPTYHANDS, L_EMPTYHANDS, TEASER);
            } else if (inputLen != 2) {
                SetResponse(elements++, A_NOTPOSSIBLE, L_NOTPOSSIBLE, TEASER);
            } else {
                for (uint8_t x=0; x<2; ++x) {
                    if (inventory[x]) {
    3c42:	00 e0       	ldi	r16, 0x00	; 0
    3c44:	10 e0       	ldi	r17, 0x00	; 0
                        if (CheckLetter(inventory[x], data[1])) {
                            PopulateObject(inventory[x], &actObj1);
    3c46:	00 0f       	add	r16, r16
    3c48:	11 1f       	adc	r17, r17
    3c4a:	00 5c       	subi	r16, 0xC0	; 192
    3c4c:	17 4c       	sbci	r17, 0xC7	; 199
    3c4e:	6c ed       	ldi	r22, 0xDC	; 220
    3c50:	78 e3       	ldi	r23, 0x38	; 56
    3c52:	d8 01       	movw	r26, r16
    3c54:	8d 91       	ld	r24, X+
    3c56:	9c 91       	ld	r25, X
    3c58:	0e 94 f2 11 	call	0x23e4	; 0x23e4 <PopulateObject>
    return 0;
}

//
void SetResponse(uint8_t number, uint16_t address, uint16_t length, uint8_t type){
    reactStr[0][number]=address;
    3c5c:	86 e9       	ldi	r24, 0x96	; 150
    3c5e:	97 e7       	ldi	r25, 0x77	; 119
    3c60:	80 93 1f 39 	sts	0x391F, r24	; 0x80391f <reactStr+0x2>
    3c64:	90 93 20 39 	sts	0x3920, r25	; 0x803920 <reactStr+0x3>
    reactStr[1][number]=length;
    3c68:	80 e1       	ldi	r24, 0x10	; 16
    3c6a:	90 e0       	ldi	r25, 0x00	; 0
    3c6c:	80 93 5f 39 	sts	0x395F, r24	; 0x80395f <reactStr+0x42>
    3c70:	90 93 60 39 	sts	0x3960, r25	; 0x803960 <reactStr+0x43>
    reactStr[2][number]=type;
    3c74:	81 e0       	ldi	r24, 0x01	; 1
    3c76:	90 e0       	ldi	r25, 0x00	; 0
    3c78:	80 93 9f 39 	sts	0x399F, r24	; 0x80399f <reactStr+0x82>
    3c7c:	90 93 a0 39 	sts	0x39A0, r25	; 0x8039a0 <reactStr+0x83>
                for (uint8_t x=0; x<2; ++x) {
                    if (inventory[x]) {
                        if (CheckLetter(inventory[x], data[1])) {
                            PopulateObject(inventory[x], &actObj1);
                            SetResponse(elements++, A_DROPPING, L_DROPPING, TEASER);
                            SetResponse(elements++, actObj1.addrStr[NAME], actObj1.lenStr[NAME], GAME);
    3c80:	20 91 f6 38 	lds	r18, 0x38F6	; 0x8038f6 <actObj1.3989+0x1a>
    3c84:	30 91 f7 38 	lds	r19, 0x38F7	; 0x8038f7 <actObj1.3989+0x1b>
    return 0;
}

//
void SetResponse(uint8_t number, uint16_t address, uint16_t length, uint8_t type){
    reactStr[0][number]=address;
    3c88:	40 91 e8 38 	lds	r20, 0x38E8	; 0x8038e8 <actObj1.3989+0xc>
    3c8c:	50 91 e9 38 	lds	r21, 0x38E9	; 0x8038e9 <actObj1.3989+0xd>
    3c90:	40 93 21 39 	sts	0x3921, r20	; 0x803921 <reactStr+0x4>
    3c94:	50 93 22 39 	sts	0x3922, r21	; 0x803922 <reactStr+0x5>
    reactStr[1][number]=length;
    3c98:	20 93 61 39 	sts	0x3961, r18	; 0x803961 <reactStr+0x44>
    3c9c:	30 93 62 39 	sts	0x3962, r19	; 0x803962 <reactStr+0x45>
    reactStr[2][number]=type;
    3ca0:	10 92 a1 39 	sts	0x39A1, r1	; 0x8039a1 <reactStr+0x84>
    3ca4:	10 92 a2 39 	sts	0x39A2, r1	; 0x8039a2 <reactStr+0x85>
    return 0;
}

//
void SetResponse(uint8_t number, uint16_t address, uint16_t length, uint8_t type){
    reactStr[0][number]=address;
    3ca8:	29 e5       	ldi	r18, 0x59	; 89
    3caa:	3a e7       	ldi	r19, 0x7A	; 122
    3cac:	20 93 23 39 	sts	0x3923, r18	; 0x803923 <reactStr+0x6>
    3cb0:	30 93 24 39 	sts	0x3924, r19	; 0x803924 <reactStr+0x7>
    reactStr[1][number]=length;
    3cb4:	22 e0       	ldi	r18, 0x02	; 2
    3cb6:	30 e0       	ldi	r19, 0x00	; 0
    3cb8:	20 93 63 39 	sts	0x3963, r18	; 0x803963 <reactStr+0x46>
    3cbc:	30 93 64 39 	sts	0x3964, r19	; 0x803964 <reactStr+0x47>
    reactStr[2][number]=type;
    3cc0:	80 93 a3 39 	sts	0x39A3, r24	; 0x8039a3 <reactStr+0x86>
    3cc4:	90 93 a4 39 	sts	0x39A4, r25	; 0x8039a4 <reactStr+0x87>
    return 0;
}

//
void SetResponse(uint8_t number, uint16_t address, uint16_t length, uint8_t type){
    reactStr[0][number]=address;
    3cc8:	29 e5       	ldi	r18, 0x59	; 89
    3cca:	37 e7       	ldi	r19, 0x77	; 119
    3ccc:	20 93 25 39 	sts	0x3925, r18	; 0x803925 <reactStr+0x8>
    3cd0:	30 93 26 39 	sts	0x3926, r19	; 0x803926 <reactStr+0x9>
    reactStr[1][number]=length;
    3cd4:	2d e3       	ldi	r18, 0x3D	; 61
    3cd6:	30 e0       	ldi	r19, 0x00	; 0
    3cd8:	20 93 65 39 	sts	0x3965, r18	; 0x803965 <reactStr+0x48>
    3cdc:	30 93 66 39 	sts	0x3966, r19	; 0x803966 <reactStr+0x49>
    reactStr[2][number]=type;
    3ce0:	80 93 a5 39 	sts	0x39A5, r24	; 0x8039a5 <reactStr+0x88>
    3ce4:	90 93 a6 39 	sts	0x39A6, r25	; 0x8039a6 <reactStr+0x89>
                            PopulateObject(inventory[x], &actObj1);
                            SetResponse(elements++, A_DROPPING, L_DROPPING, TEASER);
                            SetResponse(elements++, actObj1.addrStr[NAME], actObj1.lenStr[NAME], GAME);
                            SetResponse(elements++, A_LF, 2, TEASER);
                            SetResponse(elements++, A_RETURNING, L_RETURNING, TEASER);
                            inventory[x] = 0;
    3ce8:	f8 01       	movw	r30, r16
    3cea:	10 82       	st	Z, r1
    3cec:	11 82       	std	Z+1, r1	; 0x01
                        if (CheckLetter(inventory[x], data[1])) {
                            PopulateObject(inventory[x], &actObj1);
                            SetResponse(elements++, A_DROPPING, L_DROPPING, TEASER);
                            SetResponse(elements++, actObj1.addrStr[NAME], actObj1.lenStr[NAME], GAME);
                            SetResponse(elements++, A_LF, 2, TEASER);
                            SetResponse(elements++, A_RETURNING, L_RETURNING, TEASER);
    3cee:	15 e0       	ldi	r17, 0x05	; 5
                            inventory[x] = 0;
                            break;
    3cf0:	86 cf       	rjmp	.-244    	; 0x3bfe <ProcessInput+0xef0>
                SetResponse(elements++, A_EMPTYHANDS, L_EMPTYHANDS, TEASER);
            } else if (inputLen != 2) {
                SetResponse(elements++, A_NOTPOSSIBLE, L_NOTPOSSIBLE, TEASER);
            } else {
                for (uint8_t x=0; x<2; ++x) {
                    if (inventory[x]) {
    3cf2:	80 91 42 38 	lds	r24, 0x3842	; 0x803842 <inventory+0x2>
    3cf6:	90 91 43 38 	lds	r25, 0x3843	; 0x803843 <inventory+0x3>
    3cfa:	00 97       	sbiw	r24, 0x00	; 0
    3cfc:	49 f0       	breq	.+18     	; 0x3d10 <ProcessInput+0x1002>
                        if (CheckLetter(inventory[x], data[1])) {
    3cfe:	f3 01       	movw	r30, r6
    3d00:	61 81       	ldd	r22, Z+1	; 0x01
    3d02:	0e 94 6b 12 	call	0x24d6	; 0x24d6 <CheckLetter>
    3d06:	88 23       	and	r24, r24
    3d08:	19 f0       	breq	.+6      	; 0x3d10 <ProcessInput+0x1002>
                SetResponse(elements++, A_EMPTYHANDS, L_EMPTYHANDS, TEASER);
            } else if (inputLen != 2) {
                SetResponse(elements++, A_NOTPOSSIBLE, L_NOTPOSSIBLE, TEASER);
            } else {
                for (uint8_t x=0; x<2; ++x) {
                    if (inventory[x]) {
    3d0a:	01 e0       	ldi	r16, 0x01	; 1
    3d0c:	10 e0       	ldi	r17, 0x00	; 0
    3d0e:	9b cf       	rjmp	.-202    	; 0x3c46 <ProcessInput+0xf38>
    return 0;
}

//
void SetResponse(uint8_t number, uint16_t address, uint16_t length, uint8_t type){
    reactStr[0][number]=address;
    3d10:	81 e6       	ldi	r24, 0x61	; 97
    3d12:	99 e7       	ldi	r25, 0x79	; 121
    3d14:	80 93 1f 39 	sts	0x391F, r24	; 0x80391f <reactStr+0x2>
    3d18:	90 93 20 39 	sts	0x3920, r25	; 0x803920 <reactStr+0x3>
    reactStr[1][number]=length;
    3d1c:	81 e2       	ldi	r24, 0x21	; 33
    3d1e:	90 e0       	ldi	r25, 0x00	; 0
    3d20:	cb c8       	rjmp	.-3690   	; 0x2eb8 <ProcessInput+0x1aa>
    } else {

        responseList = SetStandardResponse(1);
    }

    data[0] = 0;
    3d22:	f3 01       	movw	r30, r6
    3d24:	10 82       	st	Z, r1
    serRxDone = 0;
    3d26:	10 92 46 38 	sts	0x3846, r1	; 0x803846 <serRxDone>
    RXCNT = 0;    
    3d2a:	1d ba       	out	0x1d, r1	; 29
    return 0;
}
    3d2c:	80 e0       	ldi	r24, 0x00	; 0
    3d2e:	28 96       	adiw	r28, 0x08	; 8
    3d30:	cd bf       	out	0x3d, r28	; 61
    3d32:	de bf       	out	0x3e, r29	; 62
    3d34:	df 91       	pop	r29
    3d36:	cf 91       	pop	r28
    3d38:	1f 91       	pop	r17
    3d3a:	0f 91       	pop	r16
    3d3c:	ff 90       	pop	r15
    3d3e:	ef 90       	pop	r14
    3d40:	df 90       	pop	r13
    3d42:	cf 90       	pop	r12
    3d44:	bf 90       	pop	r11
    3d46:	af 90       	pop	r10
    3d48:	9f 90       	pop	r9
    3d4a:	8f 90       	pop	r8
    3d4c:	7f 90       	pop	r7
    3d4e:	6f 90       	pop	r6
    3d50:	08 95       	ret

00003d52 <TextAdventure>:


//MAIN GAME STRUCTURE
uint8_t TextAdventure(){
    3d52:	cf 93       	push	r28
    static uint8_t serInput[RXLEN];
    uint16_t PunishmentCount;
    
    /* Count down PunishmentTime on WING LEDs */
    if (PunishmentTime != 0) {
    3d54:	80 91 09 39 	lds	r24, 0x3909	; 0x803909 <PunishmentTime>
    3d58:	90 91 0a 39 	lds	r25, 0x390A	; 0x80390a <PunishmentTime+0x1>
    3d5c:	89 2b       	or	r24, r25
    3d5e:	09 f1       	breq	.+66     	; 0x3da2 <TextAdventure+0x50>
        PunishmentCount = getClock();
    3d60:	0e 94 26 0e 	call	0x1c4c	; 0x1c4c <getClock>
        if (PunishmentCount < PunishmentTime)
    3d64:	20 91 09 39 	lds	r18, 0x3909	; 0x803909 <PunishmentTime>
    3d68:	30 91 0a 39 	lds	r19, 0x390A	; 0x80390a <PunishmentTime+0x1>
    3d6c:	82 17       	cp	r24, r18
    3d6e:	93 07       	cpc	r25, r19
    3d70:	08 f4       	brcc	.+2      	; 0x3d74 <TextAdventure+0x22>
            PunishmentCount += 256 * 60;
    3d72:	94 5c       	subi	r25, 0xC4	; 196
        PunishmentCount -= PunishmentTime;
    3d74:	ac 01       	movw	r20, r24
    3d76:	42 1b       	sub	r20, r18
    3d78:	53 0b       	sbc	r21, r19
    3d7a:	9a 01       	movw	r18, r20
        if (PunishmentCount > 10) {
    3d7c:	4b 30       	cpi	r20, 0x0B	; 11
    3d7e:	51 05       	cpc	r21, r1
    3d80:	30 f0       	brcs	.+12     	; 0x3d8e <TextAdventure+0x3c>
            PunishmentTime = 0;
    3d82:	10 92 09 39 	sts	0x3909, r1	; 0x803909 <PunishmentTime>
    3d86:	10 92 0a 39 	sts	0x390A, r1	; 0x80390a <PunishmentTime+0x1>
            PunishmentCount = 10;
    3d8a:	2a e0       	ldi	r18, 0x0A	; 10
    3d8c:	30 e0       	ldi	r19, 0x00	; 0
        }
        if (gameNow == TEXT ) {
    3d8e:	80 91 3e 38 	lds	r24, 0x383E	; 0x80383e <gameNow>
    3d92:	81 11       	cpse	r24, r1
    3d94:	06 c0       	rjmp	.+12     	; 0x3da2 <TextAdventure+0x50>
            WingBar(10-PunishmentCount,5-PunishmentCount);
    3d96:	65 e0       	ldi	r22, 0x05	; 5
    3d98:	62 1b       	sub	r22, r18
    3d9a:	8a e0       	ldi	r24, 0x0A	; 10
    3d9c:	82 1b       	sub	r24, r18
    3d9e:	0e 94 e7 0a 	call	0x15ce	; 0x15ce <WingBar>
        }
    }

    //Still sending data to serial?
    if (CheckSend()) return 1;
    3da2:	0e 94 50 13 	call	0x26a0	; 0x26a0 <CheckSend>
    3da6:	88 23       	and	r24, r24
    3da8:	11 f0       	breq	.+4      	; 0x3dae <TextAdventure+0x5c>
    3daa:	c1 e0       	ldi	r28, 0x01	; 1
    3dac:	18 c0       	rjmp	.+48     	; 0x3dde <TextAdventure+0x8c>

    //Not sending? Process next response part to send, if any.
    if (CheckResponse()) return 1;        
    3dae:	0e 94 a6 13 	call	0x274c	; 0x274c <CheckResponse>
    3db2:	c8 2f       	mov	r28, r24
    3db4:	81 11       	cpse	r24, r1
    3db6:	f9 cf       	rjmp	.-14     	; 0x3daa <TextAdventure+0x58>

    if (PunishmentTime == 0) {
    3db8:	80 91 09 39 	lds	r24, 0x3909	; 0x803909 <PunishmentTime>
    3dbc:	90 91 0a 39 	lds	r25, 0x390A	; 0x80390a <PunishmentTime+0x1>
    3dc0:	89 2b       	or	r24, r25
    3dc2:	69 f4       	brne	.+26     	; 0x3dde <TextAdventure+0x8c>
        //No responses to send, check if there is user input.
        if (CheckInput(&serInput[0])) return 2; 
    3dc4:	80 e7       	ldi	r24, 0x70	; 112
    3dc6:	98 e3       	ldi	r25, 0x38	; 56
    3dc8:	0e 94 e6 13 	call	0x27cc	; 0x27cc <CheckInput>
    3dcc:	c8 2f       	mov	r28, r24
    3dce:	81 11       	cpse	r24, r1
    3dd0:	05 c0       	rjmp	.+10     	; 0x3ddc <TextAdventure+0x8a>

        //Input found, process and save (changes only)
        ProcessInput(&serInput[0]);
    3dd2:	80 e7       	ldi	r24, 0x70	; 112
    3dd4:	98 e3       	ldi	r25, 0x38	; 56
    3dd6:	0e 94 87 16 	call	0x2d0e	; 0x2d0e <ProcessInput>
    3dda:	01 c0       	rjmp	.+2      	; 0x3dde <TextAdventure+0x8c>
    //Not sending? Process next response part to send, if any.
    if (CheckResponse()) return 1;        

    if (PunishmentTime == 0) {
        //No responses to send, check if there is user input.
        if (CheckInput(&serInput[0])) return 2; 
    3ddc:	c2 e0       	ldi	r28, 0x02	; 2
        //Input found, process and save (changes only)
        ProcessInput(&serInput[0]);
    }

    return 0;
}
    3dde:	8c 2f       	mov	r24, r28
    3de0:	cf 91       	pop	r28
    3de2:	08 95       	ret

00003de4 <main>:


//This is where it begins, inits first and main program in while(1) loop.
int main(void)
{
    Setup();
    3de4:	0e 94 c3 04 	call	0x986	; 0x986 <Setup>
    LoadGameState();
    3de8:	0e 94 55 0a 	call	0x14aa	; 0x14aa <LoadGameState>
    gameState[0]|=1;
    3dec:	80 91 63 3a 	lds	r24, 0x3A63	; 0x803a63 <gameState>
    3df0:	81 60       	ori	r24, 0x01	; 1
    3df2:	80 93 63 3a 	sts	0x3A63, r24	; 0x803a63 <gameState>
    SelfTest();
    3df6:	0e 94 4d 0e 	call	0x1c9a	; 0x1c9a <SelfTest>
            if (adcPhot < 10) UpdateState(116);
            if (adcPhot > 100) UpdateState(128+116);

            dimValueSum -= (dimValueSum>>6);
            dimValueSum += 256;
            dimValueSum -= QSINE[31-(adcPhot>>7)];
    3dfa:	cf e1       	ldi	r28, 0x1F	; 31
    3dfc:	d0 e0       	ldi	r29, 0x00	; 0
    LoadGameState();
    gameState[0]|=1;
    SelfTest();

    while (TRUE) {
        if (GenerateAudio()) {
    3dfe:	0e 94 b7 0c 	call	0x196e	; 0x196e <GenerateAudio>
    3e02:	88 23       	and	r24, r24
    3e04:	e1 f3       	breq	.-8      	; 0x3dfe <main+0x1a>
            lastButtonState = buttonState;
    3e06:	80 91 08 38 	lds	r24, 0x3808	; 0x803808 <buttonState>
    3e0a:	80 93 07 38 	sts	0x3807, r24	; 0x803807 <lastButtonState>
            buttonState = CheckButtons();
    3e0e:	0e 94 bf 08 	call	0x117e	; 0x117e <CheckButtons>
    3e12:	80 93 08 38 	sts	0x3808, r24	; 0x803808 <buttonState>
            buttonMark = 0;
    3e16:	10 92 44 38 	sts	0x3844, r1	; 0x803844 <buttonMark>

            if (VREF_CTRLA == 0x12) SelectAuIn(); else SelectTSens();
    3e1a:	80 91 a0 00 	lds	r24, 0x00A0	; 0x8000a0 <__TEXT_REGION_LENGTH__+0x7000a0>
    3e1e:	82 31       	cpi	r24, 0x12	; 18
    3e20:	19 f4       	brne	.+6      	; 0x3e28 <main+0x44>
    3e22:	0e 94 b0 08 	call	0x1160	; 0x1160 <SelectAuIn>
    3e26:	02 c0       	rjmp	.+4      	; 0x3e2c <main+0x48>
    3e28:	0e 94 a1 08 	call	0x1142	; 0x1142 <SelectTSens>

            GenerateBlinks();
    3e2c:	0e 94 3c 0b 	call	0x1678	; 0x1678 <GenerateBlinks>

            //Main game, to complete: Finish sub-game MagnetMaze and MakeFriends too.
            TextAdventure();
    3e30:	90 df       	rcall	.-224    	; 0x3d52 <TextAdventure>

            //Other games & user interaction checks
            MagnetMaze();
    3e32:	0e 94 c6 03 	call	0x78c	; 0x78c <MagnetMaze>
            LanyardCode();
    3e36:	0e 94 d4 02 	call	0x5a8	; 0x5a8 <LanyardCode>
            BastetDictates();
    3e3a:	0e 94 4c 0f 	call	0x1e98	; 0x1e98 <BastetDictates>
            MakeFriends();
    3e3e:	0e 94 7d 00 	call	0xfa	; 0xfa <MakeFriends>

            //Save progress
            SaveGameState();
    3e42:	0e 94 70 09 	call	0x12e0	; 0x12e0 <SaveGameState>

            //Check light sensor status (added hysteresis to preserve writing cycles to internal EEPROM)
            if (adcPhot < 10) UpdateState(116);
    3e46:	80 91 bf 3a 	lds	r24, 0x3ABF	; 0x803abf <adcPhot>
    3e4a:	90 91 c0 3a 	lds	r25, 0x3AC0	; 0x803ac0 <adcPhot+0x1>
    3e4e:	0a 97       	sbiw	r24, 0x0a	; 10
    3e50:	18 f4       	brcc	.+6      	; 0x3e58 <main+0x74>
    3e52:	84 e7       	ldi	r24, 0x74	; 116
    3e54:	0e 94 f7 09 	call	0x13ee	; 0x13ee <UpdateState>
            if (adcPhot > 100) UpdateState(128+116);
    3e58:	80 91 bf 3a 	lds	r24, 0x3ABF	; 0x803abf <adcPhot>
    3e5c:	90 91 c0 3a 	lds	r25, 0x3AC0	; 0x803ac0 <adcPhot+0x1>
    3e60:	85 36       	cpi	r24, 0x65	; 101
    3e62:	91 05       	cpc	r25, r1
    3e64:	18 f0       	brcs	.+6      	; 0x3e6c <main+0x88>
    3e66:	84 ef       	ldi	r24, 0xF4	; 244
    3e68:	0e 94 f7 09 	call	0x13ee	; 0x13ee <UpdateState>

            dimValueSum -= (dimValueSum>>6);
    3e6c:	20 91 0a 38 	lds	r18, 0x380A	; 0x80380a <dimValueSum>
    3e70:	30 91 0b 38 	lds	r19, 0x380B	; 0x80380b <dimValueSum+0x1>
    3e74:	80 91 0a 38 	lds	r24, 0x380A	; 0x80380a <dimValueSum>
    3e78:	90 91 0b 38 	lds	r25, 0x380B	; 0x80380b <dimValueSum+0x1>
    3e7c:	46 e0       	ldi	r20, 0x06	; 6
    3e7e:	36 95       	lsr	r19
    3e80:	27 95       	ror	r18
    3e82:	4a 95       	dec	r20
    3e84:	e1 f7       	brne	.-8      	; 0x3e7e <main+0x9a>
    3e86:	82 1b       	sub	r24, r18
    3e88:	93 0b       	sbc	r25, r19
    3e8a:	80 93 0a 38 	sts	0x380A, r24	; 0x80380a <dimValueSum>
    3e8e:	90 93 0b 38 	sts	0x380B, r25	; 0x80380b <dimValueSum+0x1>
            dimValueSum += 256;
    3e92:	80 91 0a 38 	lds	r24, 0x380A	; 0x80380a <dimValueSum>
    3e96:	90 91 0b 38 	lds	r25, 0x380B	; 0x80380b <dimValueSum+0x1>
    3e9a:	93 95       	inc	r25
    3e9c:	80 93 0a 38 	sts	0x380A, r24	; 0x80380a <dimValueSum>
    3ea0:	90 93 0b 38 	sts	0x380B, r25	; 0x80380b <dimValueSum+0x1>
            dimValueSum -= QSINE[31-(adcPhot>>7)];
    3ea4:	20 91 bf 3a 	lds	r18, 0x3ABF	; 0x803abf <adcPhot>
    3ea8:	30 91 c0 3a 	lds	r19, 0x3AC0	; 0x803ac0 <adcPhot+0x1>
    3eac:	80 91 0a 38 	lds	r24, 0x380A	; 0x80380a <dimValueSum>
    3eb0:	90 91 0b 38 	lds	r25, 0x380B	; 0x80380b <dimValueSum+0x1>
    3eb4:	22 0f       	add	r18, r18
    3eb6:	23 2f       	mov	r18, r19
    3eb8:	22 1f       	adc	r18, r18
    3eba:	33 0b       	sbc	r19, r19
    3ebc:	31 95       	neg	r19
    3ebe:	fe 01       	movw	r30, r28
    3ec0:	e2 1b       	sub	r30, r18
    3ec2:	f3 0b       	sbc	r31, r19
    3ec4:	e8 5b       	subi	r30, 0xB8	; 184
    3ec6:	f0 44       	sbci	r31, 0x40	; 64
    3ec8:	20 81       	ld	r18, Z
    3eca:	82 1b       	sub	r24, r18
    3ecc:	91 09       	sbc	r25, r1
    3ece:	80 93 0a 38 	sts	0x380A, r24	; 0x80380a <dimValueSum>
    3ed2:	90 93 0b 38 	sts	0x380B, r25	; 0x80380b <dimValueSum+0x1>
            dimValue     = dimValueSum>>6;
    3ed6:	80 91 0a 38 	lds	r24, 0x380A	; 0x80380a <dimValueSum>
    3eda:	90 91 0b 38 	lds	r25, 0x380B	; 0x80380b <dimValueSum+0x1>
    3ede:	66 e0       	ldi	r22, 0x06	; 6
    3ee0:	96 95       	lsr	r25
    3ee2:	87 95       	ror	r24
    3ee4:	6a 95       	dec	r22
    3ee6:	e1 f7       	brne	.-8      	; 0x3ee0 <main+0xfc>
    3ee8:	80 93 0c 38 	sts	0x380C, r24	; 0x80380c <dimValue>

            //Check temperature
            HotSummer();
    3eec:	0e 94 82 0a 	call	0x1504	; 0x1504 <HotSummer>
    3ef0:	86 cf       	rjmp	.-244    	; 0x3dfe <main+0x1a>

00003ef2 <__tablejump2__>:
    3ef2:	ee 0f       	add	r30, r30
    3ef4:	ff 1f       	adc	r31, r31
    3ef6:	05 90       	lpm	r0, Z+
    3ef8:	f4 91       	lpm	r31, Z
    3efa:	e0 2d       	mov	r30, r0
    3efc:	09 94       	ijmp

00003efe <_exit>:
    3efe:	f8 94       	cli

00003f00 <__stop_program>:
    3f00:	ff cf       	rjmp	.-2      	; 0x3f00 <__stop_program>
