
ISR_IO.elf:     file format elf32-avr

Sections:
Idx Name          Size      VMA       LMA       File off  Algn
  0 .data         00000028  00803800  00003672  00003726  2**0
                  CONTENTS, ALLOC, LOAD, DATA
  1 .text         00003598  00000000  00000000  000000b4  2**1
                  CONTENTS, ALLOC, LOAD, READONLY, CODE
  2 .rodata       000000da  0000b598  00003598  0000364c  2**0
                  CONTENTS, ALLOC, LOAD, READONLY, DATA
  3 .bss          000002cb  00803828  00803828  0000374e  2**0
                  ALLOC
  4 .comment      00000030  00000000  00000000  0000374e  2**0
                  CONTENTS, READONLY
  5 .note.gnu.avr.deviceinfo 00000040  00000000  00000000  00003780  2**2
                  CONTENTS, READONLY
  6 .debug_aranges 000002c0  00000000  00000000  000037c0  2**0
                  CONTENTS, READONLY, DEBUGGING
  7 .debug_info   000062bd  00000000  00000000  00003a80  2**0
                  CONTENTS, READONLY, DEBUGGING
  8 .debug_abbrev 000025df  00000000  00000000  00009d3d  2**0
                  CONTENTS, READONLY, DEBUGGING
  9 .debug_line   000032e7  00000000  00000000  0000c31c  2**0
                  CONTENTS, READONLY, DEBUGGING
 10 .debug_frame  00000888  00000000  00000000  0000f604  2**2
                  CONTENTS, READONLY, DEBUGGING
 11 .debug_str    000018bd  00000000  00000000  0000fe8c  2**0
                  CONTENTS, READONLY, DEBUGGING
 12 .debug_loc    000040b0  00000000  00000000  00011749  2**0
                  CONTENTS, READONLY, DEBUGGING
 13 .debug_ranges 00000340  00000000  00000000  000157f9  2**0
                  CONTENTS, READONLY, DEBUGGING

Disassembly of section .text:

00000000 <__vectors>:
       0:	3d c0       	rjmp	.+122    	; 0x7c <__ctors_end>
       2:	00 00       	nop
       4:	58 c0       	rjmp	.+176    	; 0xb6 <__bad_interrupt>
       6:	00 00       	nop
       8:	56 c0       	rjmp	.+172    	; 0xb6 <__bad_interrupt>
       a:	00 00       	nop
       c:	54 c0       	rjmp	.+168    	; 0xb6 <__bad_interrupt>
       e:	00 00       	nop
      10:	52 c0       	rjmp	.+164    	; 0xb6 <__bad_interrupt>
      12:	00 00       	nop
      14:	50 c0       	rjmp	.+160    	; 0xb6 <__bad_interrupt>
      16:	00 00       	nop
      18:	9e c6       	rjmp	.+3388   	; 0xd56 <__vector_6>
      1a:	00 00       	nop
      1c:	e6 c6       	rjmp	.+3532   	; 0xdea <__vector_7>
      1e:	00 00       	nop
      20:	ce c4       	rjmp	.+2460   	; 0x9be <__vector_8>
      22:	00 00       	nop
      24:	48 c0       	rjmp	.+144    	; 0xb6 <__bad_interrupt>
      26:	00 00       	nop
      28:	46 c0       	rjmp	.+140    	; 0xb6 <__bad_interrupt>
      2a:	00 00       	nop
      2c:	44 c0       	rjmp	.+136    	; 0xb6 <__bad_interrupt>
      2e:	00 00       	nop
      30:	42 c0       	rjmp	.+132    	; 0xb6 <__bad_interrupt>
      32:	00 00       	nop
      34:	15 c5       	rjmp	.+2602   	; 0xa60 <__vector_13>
      36:	00 00       	nop
      38:	46 c5       	rjmp	.+2700   	; 0xac6 <__vector_14>
      3a:	00 00       	nop
      3c:	3c c0       	rjmp	.+120    	; 0xb6 <__bad_interrupt>
      3e:	00 00       	nop
      40:	3a c0       	rjmp	.+116    	; 0xb6 <__bad_interrupt>
      42:	00 00       	nop
      44:	38 c0       	rjmp	.+112    	; 0xb6 <__bad_interrupt>
      46:	00 00       	nop
      48:	36 c0       	rjmp	.+108    	; 0xb6 <__bad_interrupt>
      4a:	00 00       	nop
      4c:	34 c0       	rjmp	.+104    	; 0xb6 <__bad_interrupt>
      4e:	00 00       	nop
      50:	04 c6       	rjmp	.+3080   	; 0xc5a <__vector_20>
      52:	00 00       	nop
      54:	30 c0       	rjmp	.+96     	; 0xb6 <__bad_interrupt>
      56:	00 00       	nop
      58:	36 c6       	rjmp	.+3180   	; 0xcc6 <__vector_22>
      5a:	00 00       	nop
      5c:	2c c0       	rjmp	.+88     	; 0xb6 <__bad_interrupt>
      5e:	00 00       	nop
      60:	2a c0       	rjmp	.+84     	; 0xb6 <__bad_interrupt>
      62:	00 00       	nop
      64:	28 c0       	rjmp	.+80     	; 0xb6 <__bad_interrupt>
      66:	00 00       	nop
      68:	26 c0       	rjmp	.+76     	; 0xb6 <__bad_interrupt>
      6a:	00 00       	nop
      6c:	7f c5       	rjmp	.+2814   	; 0xb6c <__vector_27>
      6e:	00 00       	nop
      70:	d8 c5       	rjmp	.+2992   	; 0xc22 <__vector_28>
      72:	00 00       	nop
      74:	20 c0       	rjmp	.+64     	; 0xb6 <__bad_interrupt>
      76:	00 00       	nop
      78:	1e c0       	rjmp	.+60     	; 0xb6 <__bad_interrupt>
	...

0000007c <__ctors_end>:
      7c:	11 24       	eor	r1, r1
      7e:	1f be       	out	0x3f, r1	; 63
      80:	cf ef       	ldi	r28, 0xFF	; 255
      82:	cd bf       	out	0x3d, r28	; 61
      84:	df e3       	ldi	r29, 0x3F	; 63
      86:	de bf       	out	0x3e, r29	; 62

00000088 <__do_copy_data>:
      88:	18 e3       	ldi	r17, 0x38	; 56
      8a:	a0 e0       	ldi	r26, 0x00	; 0
      8c:	b8 e3       	ldi	r27, 0x38	; 56
      8e:	e2 e7       	ldi	r30, 0x72	; 114
      90:	f6 e3       	ldi	r31, 0x36	; 54
      92:	02 c0       	rjmp	.+4      	; 0x98 <__do_copy_data+0x10>
      94:	05 90       	lpm	r0, Z+
      96:	0d 92       	st	X+, r0
      98:	a8 32       	cpi	r26, 0x28	; 40
      9a:	b1 07       	cpc	r27, r17
      9c:	d9 f7       	brne	.-10     	; 0x94 <__do_copy_data+0xc>

0000009e <__do_clear_bss>:
      9e:	2a e3       	ldi	r18, 0x3A	; 58
      a0:	a8 e2       	ldi	r26, 0x28	; 40
      a2:	b8 e3       	ldi	r27, 0x38	; 56
      a4:	01 c0       	rjmp	.+2      	; 0xa8 <.do_clear_bss_start>

000000a6 <.do_clear_bss_loop>:
      a6:	1d 92       	st	X+, r1

000000a8 <.do_clear_bss_start>:
      a8:	a3 3f       	cpi	r26, 0xF3	; 243
      aa:	b2 07       	cpc	r27, r18
      ac:	e1 f7       	brne	.-8      	; 0xa6 <.do_clear_bss_loop>
      ae:	0e 94 df 19 	call	0x33be	; 0x33be <main>
      b2:	0c 94 ca 1a 	jmp	0x3594	; 0x3594 <_exit>

000000b6 <__bad_interrupt>:
      b6:	a4 cf       	rjmp	.-184    	; 0x0 <__vectors>

000000b8 <I2C_init>:
// the Atmel device documentation mentions a special command for repeated start TWI_MCMD_REPSTART_gc,
// but this is not used in Atmel's demo code, so we don't use it either

void I2C_rep_start(uint8_t shifted_addr)						    // send repeated start, device_addr + LSB set if READ
{
	TWI0.MADDR = shifted_addr;	
      b8:	81 e0       	ldi	r24, 0x01	; 1
      ba:	80 93 22 04 	sts	0x0422, r24	; 0x800422 <__TEXT_REGION_LENGTH__+0x700422>
      be:	e6 e2       	ldi	r30, 0x26	; 38
      c0:	f4 e0       	ldi	r31, 0x04	; 4
      c2:	80 83       	st	Z, r24
      c4:	10 92 30 04 	sts	0x0430, r1	; 0x800430 <__TEXT_REGION_LENGTH__+0x700430>
      c8:	a1 e2       	ldi	r26, 0x21	; 33
      ca:	b4 e0       	ldi	r27, 0x04	; 4
      cc:	92 e0       	ldi	r25, 0x02	; 2
      ce:	9c 93       	st	X, r25
      d0:	90 83       	st	Z, r25
      d2:	10 92 31 04 	sts	0x0431, r1	; 0x800431 <__TEXT_REGION_LENGTH__+0x700431>
      d6:	e0 e1       	ldi	r30, 0x10	; 16
      d8:	f8 e0       	ldi	r31, 0x08	; 8
      da:	97 e0       	ldi	r25, 0x07	; 7
      dc:	96 83       	std	Z+6, r25	; 0x06
      de:	98 e0       	ldi	r25, 0x08	; 8
      e0:	94 83       	std	Z+4, r25	; 0x04
      e2:	83 83       	std	Z+3, r24	; 0x03
      e4:	8c 93       	st	X, r24
      e6:	85 81       	ldd	r24, Z+5	; 0x05
      e8:	81 60       	ori	r24, 0x01	; 1
      ea:	85 83       	std	Z+5, r24	; 0x05
      ec:	85 81       	ldd	r24, Z+5	; 0x05
      ee:	84 6c       	ori	r24, 0xC4	; 196
      f0:	85 83       	std	Z+5, r24	; 0x05
      f2:	08 95       	ret

000000f4 <I2C_recover>:
      f4:	80 91 14 08 	lds	r24, 0x0814	; 0x800814 <__TEXT_REGION_LENGTH__+0x700814>
      f8:	88 60       	ori	r24, 0x08	; 8
      fa:	80 93 14 08 	sts	0x0814, r24	; 0x800814 <__TEXT_REGION_LENGTH__+0x700814>
      fe:	10 92 13 08 	sts	0x0813, r1	; 0x800813 <__TEXT_REGION_LENGTH__+0x700813>
     102:	82 e0       	ldi	r24, 0x02	; 2
     104:	80 93 22 04 	sts	0x0422, r24	; 0x800422 <__TEXT_REGION_LENGTH__+0x700422>
     108:	99 e0       	ldi	r25, 0x09	; 9
     10a:	21 e0       	ldi	r18, 0x01	; 1
     10c:	81 e0       	ldi	r24, 0x01	; 1
     10e:	20 93 21 04 	sts	0x0421, r18	; 0x800421 <__TEXT_REGION_LENGTH__+0x700421>
     112:	30 e1       	ldi	r19, 0x10	; 16
     114:	3a 95       	dec	r19
     116:	f1 f7       	brne	.-4      	; 0x114 <I2C_recover+0x20>
     118:	00 c0       	rjmp	.+0      	; 0x11a <I2C_recover+0x26>
     11a:	20 93 22 04 	sts	0x0422, r18	; 0x800422 <__TEXT_REGION_LENGTH__+0x700422>
     11e:	30 e1       	ldi	r19, 0x10	; 16
     120:	3a 95       	dec	r19
     122:	f1 f7       	brne	.-4      	; 0x120 <I2C_recover+0x2c>
     124:	00 c0       	rjmp	.+0      	; 0x126 <I2C_recover+0x32>
     126:	91 50       	subi	r25, 0x01	; 1
     128:	89 f7       	brne	.-30     	; 0x10c <I2C_recover+0x18>
     12a:	28 e0       	ldi	r18, 0x08	; 8
     12c:	20 93 14 08 	sts	0x0814, r18	; 0x800814 <__TEXT_REGION_LENGTH__+0x700814>
     130:	80 93 13 08 	sts	0x0813, r24	; 0x800813 <__TEXT_REGION_LENGTH__+0x700813>
     134:	92 e0       	ldi	r25, 0x02	; 2
     136:	90 93 21 04 	sts	0x0421, r25	; 0x800421 <__TEXT_REGION_LENGTH__+0x700421>
     13a:	90 91 15 08 	lds	r25, 0x0815	; 0x800815 <__TEXT_REGION_LENGTH__+0x700815>
     13e:	91 60       	ori	r25, 0x01	; 1
     140:	90 93 15 08 	sts	0x0815, r25	; 0x800815 <__TEXT_REGION_LENGTH__+0x700815>
     144:	90 91 15 08 	lds	r25, 0x0815	; 0x800815 <__TEXT_REGION_LENGTH__+0x700815>
     148:	94 6c       	ori	r25, 0xC4	; 196
     14a:	90 93 15 08 	sts	0x0815, r25	; 0x800815 <__TEXT_REGION_LENGTH__+0x700815>
     14e:	20 93 14 08 	sts	0x0814, r18	; 0x800814 <__TEXT_REGION_LENGTH__+0x700814>
     152:	80 93 13 08 	sts	0x0813, r24	; 0x800813 <__TEXT_REGION_LENGTH__+0x700813>
     156:	80 93 21 04 	sts	0x0421, r24	; 0x800421 <__TEXT_REGION_LENGTH__+0x700421>
     15a:	80 91 15 08 	lds	r24, 0x0815	; 0x800815 <__TEXT_REGION_LENGTH__+0x700815>
     15e:	81 60       	ori	r24, 0x01	; 1
     160:	80 93 15 08 	sts	0x0815, r24	; 0x800815 <__TEXT_REGION_LENGTH__+0x700815>
     164:	80 91 15 08 	lds	r24, 0x0815	; 0x800815 <__TEXT_REGION_LENGTH__+0x700815>
     168:	84 6c       	ori	r24, 0xC4	; 196
     16a:	80 93 15 08 	sts	0x0815, r24	; 0x800815 <__TEXT_REGION_LENGTH__+0x700815>
     16e:	08 95       	ret

00000170 <I2C_start>:
     170:	28 2f       	mov	r18, r24
     172:	90 91 15 08 	lds	r25, 0x0815	; 0x800815 <__TEXT_REGION_LENGTH__+0x700815>
     176:	90 6c       	ori	r25, 0xC0	; 192
     178:	90 93 15 08 	sts	0x0815, r25	; 0x800815 <__TEXT_REGION_LENGTH__+0x700815>
     17c:	90 91 15 08 	lds	r25, 0x0815	; 0x800815 <__TEXT_REGION_LENGTH__+0x700815>
     180:	89 2f       	mov	r24, r25
     182:	84 70       	andi	r24, 0x04	; 4
     184:	92 fd       	sbrc	r25, 2
     186:	03 c0       	rjmp	.+6      	; 0x18e <I2C_start+0x1e>
     188:	20 93 17 08 	sts	0x0817, r18	; 0x800817 <__TEXT_REGION_LENGTH__+0x700817>
     18c:	08 95       	ret
     18e:	84 e0       	ldi	r24, 0x04	; 4
     190:	08 95       	ret

00000192 <I2C_wait_ACK>:
     192:	8c e0       	ldi	r24, 0x0C	; 12
     194:	80 93 39 3a 	sts	0x3A39, r24	; 0x803a39 <timeout_I2C>
     198:	80 91 15 08 	lds	r24, 0x0815	; 0x800815 <__TEXT_REGION_LENGTH__+0x700815>
     19c:	87 fd       	sbrc	r24, 7
     19e:	0a c0       	rjmp	.+20     	; 0x1b4 <I2C_wait_ACK+0x22>
     1a0:	80 91 15 08 	lds	r24, 0x0815	; 0x800815 <__TEXT_REGION_LENGTH__+0x700815>
     1a4:	86 fd       	sbrc	r24, 6
     1a6:	06 c0       	rjmp	.+12     	; 0x1b4 <I2C_wait_ACK+0x22>
     1a8:	80 91 39 3a 	lds	r24, 0x3A39	; 0x803a39 <timeout_I2C>
     1ac:	81 11       	cpse	r24, r1
     1ae:	f4 cf       	rjmp	.-24     	; 0x198 <I2C_wait_ACK+0x6>
     1b0:	8f ef       	ldi	r24, 0xFF	; 255
     1b2:	08 95       	ret
     1b4:	80 91 15 08 	lds	r24, 0x0815	; 0x800815 <__TEXT_REGION_LENGTH__+0x700815>
     1b8:	80 6c       	ori	r24, 0xC0	; 192
     1ba:	80 93 15 08 	sts	0x0815, r24	; 0x800815 <__TEXT_REGION_LENGTH__+0x700815>
     1be:	80 91 15 08 	lds	r24, 0x0815	; 0x800815 <__TEXT_REGION_LENGTH__+0x700815>
     1c2:	82 fd       	sbrc	r24, 2
     1c4:	09 c0       	rjmp	.+18     	; 0x1d8 <I2C_wait_ACK+0x46>
     1c6:	80 91 15 08 	lds	r24, 0x0815	; 0x800815 <__TEXT_REGION_LENGTH__+0x700815>
     1ca:	83 fd       	sbrc	r24, 3
     1cc:	07 c0       	rjmp	.+14     	; 0x1dc <I2C_wait_ACK+0x4a>
     1ce:	80 91 15 08 	lds	r24, 0x0815	; 0x800815 <__TEXT_REGION_LENGTH__+0x700815>
     1d2:	82 95       	swap	r24
     1d4:	81 70       	andi	r24, 0x01	; 1
     1d6:	08 95       	ret
     1d8:	84 e0       	ldi	r24, 0x04	; 4
     1da:	08 95       	ret
     1dc:	82 e0       	ldi	r24, 0x02	; 2
     1de:	08 95       	ret

000001e0 <I2C_read>:
}

uint8_t	I2C_read(uint8_t *data, uint8_t ack_flag)					// read data, ack_flag 0: send ACK, 1: send NACK, returns status
{
     1e0:	fc 01       	movw	r30, r24
	timeout_I2C = READ_TIMEOUT;										// reset timeout counter, will be decremented by LED matrix interrupt
     1e2:	8c e0       	ldi	r24, 0x0C	; 12
     1e4:	80 93 39 3a 	sts	0x3A39, r24	; 0x803a39 <timeout_I2C>
	if ((TWI0.MSTATUS & TWI_BUSSTATE_gm) == TWI_BUSSTATE_OWNER_gc)	// if master controls bus
     1e8:	90 91 15 08 	lds	r25, 0x0815	; 0x800815 <__TEXT_REGION_LENGTH__+0x700815>
     1ec:	89 2f       	mov	r24, r25
     1ee:	83 70       	andi	r24, 0x03	; 3
     1f0:	82 30       	cpi	r24, 0x02	; 2
     1f2:	11 f0       	breq	.+4      	; 0x1f8 <I2C_read+0x18>
		else		TWI0.MCTRLB |= TWI_ACKACT_NACK_gc;				// setup NACK (last byte read)
		*data = TWI0.MDATA;
		if (ack_flag == 0) TWI0.MCTRLB |= TWI_MCMD_RECVTRANS_gc;	// send ACK, more bytes to follow					
		return 0;
	}
	else return 8;													// master does not control bus
     1f4:	88 e0       	ldi	r24, 0x08	; 8
     1f6:	08 95       	ret
uint8_t	I2C_read(uint8_t *data, uint8_t ack_flag)					// read data, ack_flag 0: send ACK, 1: send NACK, returns status
{
	timeout_I2C = READ_TIMEOUT;										// reset timeout counter, will be decremented by LED matrix interrupt
	if ((TWI0.MSTATUS & TWI_BUSSTATE_gm) == TWI_BUSSTATE_OWNER_gc)	// if master controls bus
	{		
		while (!(TWI0.MSTATUS & TWI_RIF_bm))						// wait for RIF set (data byte received)
     1f8:	90 91 15 08 	lds	r25, 0x0815	; 0x800815 <__TEXT_REGION_LENGTH__+0x700815>
     1fc:	97 fd       	sbrc	r25, 7
     1fe:	06 c0       	rjmp	.+12     	; 0x20c <I2C_read+0x2c>
		{
			if (!(timeout_I2C)) return 0xff;			            // return timeout error
     200:	90 91 39 3a 	lds	r25, 0x3A39	; 0x803a39 <timeout_I2C>
     204:	91 11       	cpse	r25, r1
     206:	f8 cf       	rjmp	.-16     	; 0x1f8 <I2C_read+0x18>
     208:	8f ef       	ldi	r24, 0xFF	; 255
     20a:	08 95       	ret
		}
		TWI0.MSTATUS |= (TWI_RIF_bm | TWI_WIF_bm);					// clear Read and Write interrupt flags	
     20c:	90 91 15 08 	lds	r25, 0x0815	; 0x800815 <__TEXT_REGION_LENGTH__+0x700815>
     210:	90 6c       	ori	r25, 0xC0	; 192
     212:	90 93 15 08 	sts	0x0815, r25	; 0x800815 <__TEXT_REGION_LENGTH__+0x700815>
		if (TWI0.MSTATUS & TWI_BUSERR_bm) return 4;					// Bus Error, abort
     216:	90 91 15 08 	lds	r25, 0x0815	; 0x800815 <__TEXT_REGION_LENGTH__+0x700815>
     21a:	92 fd       	sbrc	r25, 2
     21c:	1e c0       	rjmp	.+60     	; 0x25a <I2C_read+0x7a>
		if (TWI0.MSTATUS & TWI_ARBLOST_bm) return 2;				// Arbitration Lost, abort
     21e:	90 91 15 08 	lds	r25, 0x0815	; 0x800815 <__TEXT_REGION_LENGTH__+0x700815>
     222:	93 fd       	sbrc	r25, 3
     224:	1d c0       	rjmp	.+58     	; 0x260 <I2C_read+0x80>
		if (TWI0.MSTATUS & TWI_RXACK_bm) return 1;					// Slave replied with NACK, abort				
     226:	90 91 15 08 	lds	r25, 0x0815	; 0x800815 <__TEXT_REGION_LENGTH__+0x700815>
     22a:	89 2f       	mov	r24, r25
     22c:	80 71       	andi	r24, 0x10	; 16
     22e:	94 fd       	sbrc	r25, 4
     230:	16 c0       	rjmp	.+44     	; 0x25e <I2C_read+0x7e>
		if (ack_flag == 0) TWI0.MCTRLB &= ~(1 << TWI_ACKACT_bp);	// setup ACK
     232:	90 91 14 08 	lds	r25, 0x0814	; 0x800814 <__TEXT_REGION_LENGTH__+0x700814>
     236:	61 11       	cpse	r22, r1
     238:	02 c0       	rjmp	.+4      	; 0x23e <I2C_read+0x5e>
     23a:	9b 7f       	andi	r25, 0xFB	; 251
     23c:	01 c0       	rjmp	.+2      	; 0x240 <I2C_read+0x60>
		else		TWI0.MCTRLB |= TWI_ACKACT_NACK_gc;				// setup NACK (last byte read)
     23e:	94 60       	ori	r25, 0x04	; 4
     240:	90 93 14 08 	sts	0x0814, r25	; 0x800814 <__TEXT_REGION_LENGTH__+0x700814>
		*data = TWI0.MDATA;
     244:	90 91 18 08 	lds	r25, 0x0818	; 0x800818 <__TEXT_REGION_LENGTH__+0x700818>
     248:	90 83       	st	Z, r25
		if (ack_flag == 0) TWI0.MCTRLB |= TWI_MCMD_RECVTRANS_gc;	// send ACK, more bytes to follow					
     24a:	61 11       	cpse	r22, r1
     24c:	09 c0       	rjmp	.+18     	; 0x260 <I2C_read+0x80>
     24e:	90 91 14 08 	lds	r25, 0x0814	; 0x800814 <__TEXT_REGION_LENGTH__+0x700814>
     252:	92 60       	ori	r25, 0x02	; 2
     254:	90 93 14 08 	sts	0x0814, r25	; 0x800814 <__TEXT_REGION_LENGTH__+0x700814>
     258:	08 95       	ret
		while (!(TWI0.MSTATUS & TWI_RIF_bm))						// wait for RIF set (data byte received)
		{
			if (!(timeout_I2C)) return 0xff;			            // return timeout error
		}
		TWI0.MSTATUS |= (TWI_RIF_bm | TWI_WIF_bm);					// clear Read and Write interrupt flags	
		if (TWI0.MSTATUS & TWI_BUSERR_bm) return 4;					// Bus Error, abort
     25a:	84 e0       	ldi	r24, 0x04	; 4
     25c:	08 95       	ret
		if (TWI0.MSTATUS & TWI_ARBLOST_bm) return 2;				// Arbitration Lost, abort
		if (TWI0.MSTATUS & TWI_RXACK_bm) return 1;					// Slave replied with NACK, abort				
     25e:	81 e0       	ldi	r24, 0x01	; 1
		*data = TWI0.MDATA;
		if (ack_flag == 0) TWI0.MCTRLB |= TWI_MCMD_RECVTRANS_gc;	// send ACK, more bytes to follow					
		return 0;
	}
	else return 8;													// master does not control bus
}
     260:	08 95       	ret

00000262 <I2C_write>:

uint8_t I2C_write(uint8_t *data)									// write data, return status
{
     262:	fc 01       	movw	r30, r24
	timeout_I2C = WRITE_TIMEOUT;									// reset timeout counter, will be decremented by LED matrix interrupt
     264:	8c e0       	ldi	r24, 0x0C	; 12
     266:	80 93 39 3a 	sts	0x3A39, r24	; 0x803a39 <timeout_I2C>
	if ((TWI0.MSTATUS & TWI_BUSSTATE_gm) == TWI_BUSSTATE_OWNER_gc)	// if master controls bus
     26a:	90 91 15 08 	lds	r25, 0x0815	; 0x800815 <__TEXT_REGION_LENGTH__+0x700815>
     26e:	93 70       	andi	r25, 0x03	; 3
     270:	92 30       	cpi	r25, 0x02	; 2
     272:	b1 f4       	brne	.+44     	; 0x2a0 <I2C_write+0x3e>
	{
		TWI0.MDATA = *data;		
     274:	80 81       	ld	r24, Z
     276:	80 93 18 08 	sts	0x0818, r24	; 0x800818 <__TEXT_REGION_LENGTH__+0x700818>
		while (!(TWI0.MSTATUS & TWI_WIF_bm))						// wait until WIF set, status register contains ACK/NACK bit
     27a:	80 91 15 08 	lds	r24, 0x0815	; 0x800815 <__TEXT_REGION_LENGTH__+0x700815>
     27e:	86 fd       	sbrc	r24, 6
     280:	06 c0       	rjmp	.+12     	; 0x28e <I2C_write+0x2c>
		{
			if (!(timeout_I2C)) return 0xff;			            // return timeout error
     282:	80 91 39 3a 	lds	r24, 0x3A39	; 0x803a39 <timeout_I2C>
     286:	81 11       	cpse	r24, r1
     288:	f8 cf       	rjmp	.-16     	; 0x27a <I2C_write+0x18>
     28a:	8f ef       	ldi	r24, 0xFF	; 255
     28c:	08 95       	ret
		}
		if (TWI0.MSTATUS & TWI_BUSERR_bm) return 4;					// Bus Error, abort
     28e:	80 91 15 08 	lds	r24, 0x0815	; 0x800815 <__TEXT_REGION_LENGTH__+0x700815>
     292:	82 fd       	sbrc	r24, 2
     294:	07 c0       	rjmp	.+14     	; 0x2a4 <I2C_write+0x42>
		if (TWI0.MSTATUS & TWI_RXACK_bm) return 1;					// Slave replied with NACK, abort
     296:	80 91 15 08 	lds	r24, 0x0815	; 0x800815 <__TEXT_REGION_LENGTH__+0x700815>
	if ((TWI0.MSTATUS & TWI_BUSSTATE_gm) == TWI_BUSSTATE_OWNER_gc)	// if master controls bus
	{
		TWI0.MDATA = *data;		
		while (!(TWI0.MSTATUS & TWI_WIF_bm))						// wait until WIF set, status register contains ACK/NACK bit
		{
			if (!(timeout_I2C)) return 0xff;			            // return timeout error
     29a:	82 95       	swap	r24
     29c:	81 70       	andi	r24, 0x01	; 1
     29e:	08 95       	ret
		}
		if (TWI0.MSTATUS & TWI_BUSERR_bm) return 4;					// Bus Error, abort
		if (TWI0.MSTATUS & TWI_RXACK_bm) return 1;					// Slave replied with NACK, abort
		return 0;													// no error	
	}
	else return 8;													// master does not control bus
     2a0:	88 e0       	ldi	r24, 0x08	; 8
     2a2:	08 95       	ret
		TWI0.MDATA = *data;		
		while (!(TWI0.MSTATUS & TWI_WIF_bm))						// wait until WIF set, status register contains ACK/NACK bit
		{
			if (!(timeout_I2C)) return 0xff;			            // return timeout error
		}
		if (TWI0.MSTATUS & TWI_BUSERR_bm) return 4;					// Bus Error, abort
     2a4:	84 e0       	ldi	r24, 0x04	; 4
		if (TWI0.MSTATUS & TWI_RXACK_bm) return 1;					// Slave replied with NACK, abort
		return 0;													// no error	
	}
	else return 8;													// master does not control bus
}
     2a6:	08 95       	ret

000002a8 <I2C_stop>:

void I2C_stop()
{
	TWI0.MCTRLB |= TWI_MCMD_STOP_gc;
     2a8:	e0 e1       	ldi	r30, 0x10	; 16
     2aa:	f8 e0       	ldi	r31, 0x08	; 8
     2ac:	84 81       	ldd	r24, Z+4	; 0x04
     2ae:	83 60       	ori	r24, 0x03	; 3
     2b0:	84 83       	std	Z+4, r24	; 0x04
     2b2:	08 95       	ret

000002b4 <I2C_read_bytes>:
// addr_ptr		address of first array element to transfer
// slave reg	starting slave register
// num_bytes	number of bytes to transfer

uint8_t	I2C_read_bytes(uint8_t slave_addr, uint8_t *reg_ptr, uint8_t reg_len, uint8_t *dat_ptr, uint8_t dat_len)
{
     2b4:	cf 92       	push	r12
     2b6:	df 92       	push	r13
     2b8:	ff 92       	push	r15
     2ba:	0f 93       	push	r16
     2bc:	1f 93       	push	r17
     2be:	cf 93       	push	r28
     2c0:	df 93       	push	r29
     2c2:	6b 01       	movw	r12, r22
     2c4:	f4 2e       	mov	r15, r20
     2c6:	e9 01       	movw	r28, r18
	uint8_t status;
	if (dat_len > MAX_LEN) dat_len = MAX_LEN;
	status = I2C_start(slave_addr << 1);							// slave write address, LSB 0
     2c8:	18 2f       	mov	r17, r24
     2ca:	11 0f       	add	r17, r17
     2cc:	81 2f       	mov	r24, r17
     2ce:	50 df       	rcall	.-352    	; 0x170 <I2C_start>
	if (status != 0) goto error;
     2d0:	81 11       	cpse	r24, r1
	status = I2C_wait_ACK();										// wait for slave ACK
     2d2:	2b c0       	rjmp	.+86     	; 0x32a <I2C_read_bytes+0x76>
     2d4:	5e df       	rcall	.-324    	; 0x192 <I2C_wait_ACK>
	if (status == 1) {
     2d6:	81 30       	cpi	r24, 0x01	; 1
		I2C_stop();													// NACK, abort
     2d8:	19 f4       	brne	.+6      	; 0x2e0 <I2C_read_bytes+0x2c>
     2da:	e6 df       	rcall	.-52     	; 0x2a8 <I2C_stop>
		return 1;
     2dc:	81 e0       	ldi	r24, 0x01	; 1
     2de:	27 c0       	rjmp	.+78     	; 0x32e <I2C_read_bytes+0x7a>
	}
	if (status != 0) goto error;
     2e0:	81 11       	cpse	r24, r1
     2e2:	23 c0       	rjmp	.+70     	; 0x32a <I2C_read_bytes+0x76>
    while(reg_len > 0){
     2e4:	ff 20       	and	r15, r15
	    status = I2C_write(reg_ptr);    							// send slave start register
     2e6:	49 f0       	breq	.+18     	; 0x2fa <I2C_read_bytes+0x46>
     2e8:	c6 01       	movw	r24, r12
     2ea:	bb df       	rcall	.-138    	; 0x262 <I2C_write>
	    if (status != 0) goto error;
     2ec:	81 11       	cpse	r24, r1
     2ee:	1d c0       	rjmp	.+58     	; 0x32a <I2C_read_bytes+0x76>
        ++reg_ptr;
     2f0:	8f ef       	ldi	r24, 0xFF	; 255
     2f2:	c8 1a       	sub	r12, r24
     2f4:	d8 0a       	sbc	r13, r24
        --reg_len;
     2f6:	fa 94       	dec	r15
     2f8:	f5 cf       	rjmp	.-22     	; 0x2e4 <I2C_read_bytes+0x30>
     2fa:	01 34       	cpi	r16, 0x41	; 65
     2fc:	08 f0       	brcs	.+2      	; 0x300 <I2C_read_bytes+0x4c>
     2fe:	00 e4       	ldi	r16, 0x40	; 64
    }
	I2C_rep_start((slave_addr << 1) + 1);							// slave read address, LSB 1
     300:	1f 5f       	subi	r17, 0xFF	; 255
// the Atmel device documentation mentions a special command for repeated start TWI_MCMD_REPSTART_gc,
// but this is not used in Atmel's demo code, so we don't use it either

void I2C_rep_start(uint8_t shifted_addr)						    // send repeated start, device_addr + LSB set if READ
{
	TWI0.MADDR = shifted_addr;	
     302:	10 93 17 08 	sts	0x0817, r17	; 0x800817 <__TEXT_REGION_LENGTH__+0x700817>
	    if (status != 0) goto error;
        ++reg_ptr;
        --reg_len;
    }
	I2C_rep_start((slave_addr << 1) + 1);							// slave read address, LSB 1
	while (dat_len > 1) {
     306:	02 30       	cpi	r16, 0x02	; 2
		status = I2C_read(dat_ptr, 0);								// first bytes, send ACK
     308:	40 f0       	brcs	.+16     	; 0x31a <I2C_read_bytes+0x66>
     30a:	60 e0       	ldi	r22, 0x00	; 0
     30c:	ce 01       	movw	r24, r28
     30e:	68 df       	rcall	.-304    	; 0x1e0 <I2C_read>
		if (status != 0) goto error;
     310:	81 11       	cpse	r24, r1
     312:	0b c0       	rjmp	.+22     	; 0x32a <I2C_read_bytes+0x76>
		++dat_ptr;
		--dat_len;
     314:	21 96       	adiw	r28, 0x01	; 1
     316:	01 50       	subi	r16, 0x01	; 1
	}
	status = I2C_read(dat_ptr, 1);									// single or last byte, send NACK
     318:	f6 cf       	rjmp	.-20     	; 0x306 <I2C_read_bytes+0x52>
     31a:	61 e0       	ldi	r22, 0x01	; 1
     31c:	ce 01       	movw	r24, r28
	if (status != 0) goto error;
     31e:	60 df       	rcall	.-320    	; 0x1e0 <I2C_read>
     320:	81 11       	cpse	r24, r1
	I2C_stop();
     322:	03 c0       	rjmp	.+6      	; 0x32a <I2C_read_bytes+0x76>
     324:	c1 df       	rcall	.-126    	; 0x2a8 <I2C_stop>
	return 0;
     326:	80 e0       	ldi	r24, 0x00	; 0
     328:	02 c0       	rjmp	.+4      	; 0x32e <I2C_read_bytes+0x7a>
	
error:
	I2C_recover();													// clock out possibly stuck slave, reset master
     32a:	e4 de       	rcall	.-568    	; 0xf4 <I2C_recover>
     32c:	8f ef       	ldi	r24, 0xFF	; 255
	return 0xff;													// flag error
     32e:	df 91       	pop	r29
}
     330:	cf 91       	pop	r28
     332:	1f 91       	pop	r17
     334:	0f 91       	pop	r16
     336:	ff 90       	pop	r15
     338:	df 90       	pop	r13
     33a:	cf 90       	pop	r12
     33c:	08 95       	ret

0000033e <LanyardCode>:
     33e:	cf 93       	push	r28
uint8_t         lastButtonState = 0xff;
uint8_t         digit = 0xff;

// Main game loop
uint8_t LanyardCode(){
    if (CheckState(LANYARD_COMPLETED)) {
     340:	8b e7       	ldi	r24, 0x7B	; 123
     342:	66 d7       	rcall	.+3788   	; 0x1210 <CheckState>
     344:	81 11       	cpse	r24, r1
     346:	f0 c0       	rjmp	.+480    	; 0x528 <__LOCK_REGION_LENGTH__+0x128>
        }
        */
        return 0;
    }

    if ( gameNow != TEXT && gameNow != LANYARD )
     348:	80 91 2f 38 	lds	r24, 0x382F	; 0x80382f <gameNow>
     34c:	88 23       	and	r24, r24
     34e:	19 f0       	breq	.+6      	; 0x356 <LanyardCode+0x18>
     350:	83 30       	cpi	r24, 0x03	; 3
     352:	09 f0       	breq	.+2      	; 0x356 <LanyardCode+0x18>
     354:	e9 c0       	rjmp	.+466    	; 0x528 <__LOCK_REGION_LENGTH__+0x128>
        return 0;

    /* activate led for buttonstate */
    iLED[SCARAB[G]] = (buttonState==0xff ? 0 : dimValue);
     356:	c0 91 c3 b5 	lds	r28, 0xB5C3	; 0x80b5c3 <__bss_end+0x7ad0>
     35a:	ec 2f       	mov	r30, r28
     35c:	f0 e0       	ldi	r31, 0x00	; 0
     35e:	80 91 07 38 	lds	r24, 0x3807	; 0x803807 <buttonState>
     362:	8f 3f       	cpi	r24, 0xFF	; 255
     364:	19 f0       	breq	.+6      	; 0x36c <LanyardCode+0x2e>
     366:	90 91 09 38 	lds	r25, 0x3809	; 0x803809 <dimValue>
     36a:	01 c0       	rjmp	.+2      	; 0x36e <LanyardCode+0x30>
     36c:	90 e0       	ldi	r25, 0x00	; 0
     36e:	ed 55       	subi	r30, 0x5D	; 93
     370:	f5 4c       	sbci	r31, 0xC5	; 197
     372:	90 83       	st	Z, r25

    if ( (buttonState & 0xf0) == 0)
     374:	98 2f       	mov	r25, r24
     376:	90 7f       	andi	r25, 0xF0	; 240
     378:	09 f4       	brne	.+2      	; 0x37c <LanyardCode+0x3e>
     37a:	d6 c0       	rjmp	.+428    	; 0x528 <__LOCK_REGION_LENGTH__+0x128>
        return 0;

    if ((buttonState&0x0f) == (lastButtonState&0x0f))
     37c:	20 91 01 38 	lds	r18, 0x3801	; 0x803801 <lastButtonState>
     380:	98 2f       	mov	r25, r24
     382:	92 27       	eor	r25, r18
     384:	9f 70       	andi	r25, 0x0F	; 15
     386:	09 f4       	brne	.+2      	; 0x38a <LanyardCode+0x4c>
     388:	cf c0       	rjmp	.+414    	; 0x528 <__LOCK_REGION_LENGTH__+0x128>
        return 0;

    if (lastButtonState == 0xff){
     38a:	2f 3f       	cpi	r18, 0xFF	; 255
     38c:	09 f0       	breq	.+2      	; 0x390 <LanyardCode+0x52>
     38e:	c8 c0       	rjmp	.+400    	; 0x520 <__LOCK_REGION_LENGTH__+0x120>
        switch (buttonState & 0x0f) {
     390:	8f 70       	andi	r24, 0x0F	; 15
     392:	82 30       	cpi	r24, 0x02	; 2
     394:	61 f0       	breq	.+24     	; 0x3ae <LanyardCode+0x70>
     396:	28 f4       	brcc	.+10     	; 0x3a2 <LanyardCode+0x64>
     398:	81 30       	cpi	r24, 0x01	; 1
     39a:	69 f4       	brne	.+26     	; 0x3b6 <LanyardCode+0x78>
            case 0b0001: {
                digit = 0;
     39c:	10 92 00 38 	sts	0x3800, r1	; 0x803800 <__data_start>
                break;
     3a0:	0d c0       	rjmp	.+26     	; 0x3bc <LanyardCode+0x7e>

    if ((buttonState&0x0f) == (lastButtonState&0x0f))
        return 0;

    if (lastButtonState == 0xff){
        switch (buttonState & 0x0f) {
     3a2:	84 30       	cpi	r24, 0x04	; 4
     3a4:	31 f0       	breq	.+12     	; 0x3b2 <LanyardCode+0x74>
     3a6:	88 30       	cpi	r24, 0x08	; 8
     3a8:	31 f4       	brne	.+12     	; 0x3b6 <LanyardCode+0x78>
                digit = 3;
                break;
            }

            case 0b1000: {
                digit = 2;
     3aa:	82 e0       	ldi	r24, 0x02	; 2
     3ac:	05 c0       	rjmp	.+10     	; 0x3b8 <LanyardCode+0x7a>
                digit = 0;
                break;
            }

            case 0b0010: {
                digit = 1;
     3ae:	81 e0       	ldi	r24, 0x01	; 1
     3b0:	03 c0       	rjmp	.+6      	; 0x3b8 <LanyardCode+0x7a>
                break;
            }

            case 0b0100: {
                digit = 3;
     3b2:	83 e0       	ldi	r24, 0x03	; 3
     3b4:	01 c0       	rjmp	.+2      	; 0x3b8 <LanyardCode+0x7a>
                digit = 2;
                break;
            }

            default: {
                digit = 0xff;
     3b6:	8f ef       	ldi	r24, 0xFF	; 255
     3b8:	80 93 00 38 	sts	0x3800, r24	; 0x803800 <__data_start>
                break;
            }
        }
        gameNow = LANYARD;
     3bc:	83 e0       	ldi	r24, 0x03	; 3
     3be:	80 93 2f 38 	sts	0x382F, r24	; 0x80382f <gameNow>
        /* play tone for button */

        if (digit == lanyardCode[lanyardPos]) {
     3c2:	80 91 29 38 	lds	r24, 0x3829	; 0x803829 <lanyardPos>
     3c6:	e8 2f       	mov	r30, r24
     3c8:	f0 e0       	ldi	r31, 0x00	; 0
     3ca:	e8 55       	subi	r30, 0x58	; 88
     3cc:	fa 44       	sbci	r31, 0x4A	; 74
     3ce:	20 81       	ld	r18, Z
     3d0:	90 91 00 38 	lds	r25, 0x3800	; 0x803800 <__data_start>
     3d4:	e0 91 c0 b5 	lds	r30, 0xB5C0	; 0x80b5c0 <__bss_end+0x7acd>
     3d8:	29 13       	cpse	r18, r25
     3da:	17 c0       	rjmp	.+46     	; 0x40a <__LOCK_REGION_LENGTH__+0xa>
            lanyardState &= TRUE;
     3dc:	90 91 02 38 	lds	r25, 0x3802	; 0x803802 <lanyardState>
     3e0:	91 70       	andi	r25, 0x01	; 1
     3e2:	90 93 02 38 	sts	0x3802, r25	; 0x803802 <lanyardState>
            iLED[CAT]       = 128;
     3e6:	f0 e0       	ldi	r31, 0x00	; 0
     3e8:	ed 55       	subi	r30, 0x5D	; 93
     3ea:	f5 4c       	sbci	r31, 0xC5	; 197
     3ec:	90 e8       	ldi	r25, 0x80	; 128
     3ee:	90 83       	st	Z, r25
            iLED[EYE[R][L]] = 0;
     3f0:	e0 91 cf b5 	lds	r30, 0xB5CF	; 0x80b5cf <__bss_end+0x7adc>
     3f4:	f0 e0       	ldi	r31, 0x00	; 0
     3f6:	ed 55       	subi	r30, 0x5D	; 93
     3f8:	f5 4c       	sbci	r31, 0xC5	; 197
     3fa:	10 82       	st	Z, r1
            iLED[EYE[R][R]] = 0;
     3fc:	e0 91 ce b5 	lds	r30, 0xB5CE	; 0x80b5ce <__bss_end+0x7adb>
     400:	f0 e0       	ldi	r31, 0x00	; 0
     402:	ed 55       	subi	r30, 0x5D	; 93
     404:	f5 4c       	sbci	r31, 0xC5	; 197
     406:	10 82       	st	Z, r1
     408:	13 c0       	rjmp	.+38     	; 0x430 <__LOCK_REGION_LENGTH__+0x30>
        } else {
            lanyardState = FALSE;
     40a:	10 92 02 38 	sts	0x3802, r1	; 0x803802 <lanyardState>
            iLED[CAT]       = 0;
     40e:	f0 e0       	ldi	r31, 0x00	; 0
     410:	ed 55       	subi	r30, 0x5D	; 93
     412:	f5 4c       	sbci	r31, 0xC5	; 197
     414:	10 82       	st	Z, r1
            if (lanyardPos < 4 ) {
     416:	84 30       	cpi	r24, 0x04	; 4
     418:	58 f4       	brcc	.+22     	; 0x430 <__LOCK_REGION_LENGTH__+0x30>
                /*gameNow         = BASTET;*/
                gameNow         = TEXT;
     41a:	10 92 2f 38 	sts	0x382F, r1	; 0x80382f <gameNow>
                lanyardPos      = 0;
     41e:	10 92 29 38 	sts	0x3829, r1	; 0x803829 <lanyardPos>
                lanyardCnt      = 0;
     422:	10 92 28 38 	sts	0x3828, r1	; 0x803828 <__data_end>
                lanyardState    = TRUE;
     426:	81 e0       	ldi	r24, 0x01	; 1
     428:	80 93 02 38 	sts	0x3802, r24	; 0x803802 <lanyardState>
                lastButtonState = 0xff;
     42c:	8f ef       	ldi	r24, 0xFF	; 255
     42e:	7a c0       	rjmp	.+244    	; 0x524 <__LOCK_REGION_LENGTH__+0x124>
                return 0;
            }
        }
        lanyardPos++;
     430:	8f 5f       	subi	r24, 0xFF	; 255
     432:	80 93 29 38 	sts	0x3829, r24	; 0x803829 <lanyardPos>
        lanyardCnt++;            
     436:	90 91 28 38 	lds	r25, 0x3828	; 0x803828 <__data_end>
     43a:	9f 5f       	subi	r25, 0xFF	; 255
        if (lanyardCnt >= 4) {
     43c:	94 30       	cpi	r25, 0x04	; 4
     43e:	18 f4       	brcc	.+6      	; 0x446 <__LOCK_REGION_LENGTH__+0x46>
                lastButtonState = 0xff;
                return 0;
            }
        }
        lanyardPos++;
        lanyardCnt++;            
     440:	90 93 28 38 	sts	0x3828, r25	; 0x803828 <__data_end>
     444:	6d c0       	rjmp	.+218    	; 0x520 <__LOCK_REGION_LENGTH__+0x120>
        if (lanyardCnt >= 4) {
            lanyardCnt = 0;
     446:	10 92 28 38 	sts	0x3828, r1	; 0x803828 <__data_end>
            if (lanyardState == TRUE) {
     44a:	90 91 02 38 	lds	r25, 0x3802	; 0x803802 <lanyardState>
     44e:	91 30       	cpi	r25, 0x01	; 1
     450:	a1 f5       	brne	.+104    	; 0x4ba <__LOCK_REGION_LENGTH__+0xba>
                iLED[HCKR[G][(lanyardPos/4)-1]] = dimValue;
     452:	e8 2f       	mov	r30, r24
     454:	e6 95       	lsr	r30
     456:	e6 95       	lsr	r30
     458:	f0 e0       	ldi	r31, 0x00	; 0
     45a:	ee 52       	subi	r30, 0x2E	; 46
     45c:	fa 44       	sbci	r31, 0x4A	; 74
     45e:	e5 81       	ldd	r30, Z+5	; 0x05
     460:	f0 e0       	ldi	r31, 0x00	; 0
     462:	90 91 09 38 	lds	r25, 0x3809	; 0x803809 <dimValue>
     466:	ed 55       	subi	r30, 0x5D	; 93
     468:	f5 4c       	sbci	r31, 0xC5	; 197
     46a:	90 83       	st	Z, r25
                if (lanyardPos == sizeof(lanyardCode)) {
     46c:	88 31       	cpi	r24, 0x18	; 24
     46e:	09 f0       	breq	.+2      	; 0x472 <__LOCK_REGION_LENGTH__+0x72>
     470:	57 c0       	rjmp	.+174    	; 0x520 <__LOCK_REGION_LENGTH__+0x120>
                    UpdateState(LANYARD_COMPLETED);
     472:	8b e7       	ldi	r24, 0x7B	; 123
     474:	c3 d6       	rcall	.+3462   	; 0x11fc <UpdateState>
                    iLED[SCARAB[G]] = 0;
     476:	ec 2f       	mov	r30, r28
     478:	f0 e0       	ldi	r31, 0x00	; 0
     47a:	ed 55       	subi	r30, 0x5D	; 93
     47c:	f5 4c       	sbci	r31, 0xC5	; 197
     47e:	10 82       	st	Z, r1
                    iLED[EYE[R][L]] = 0;
     480:	e0 91 cf b5 	lds	r30, 0xB5CF	; 0x80b5cf <__bss_end+0x7adc>
     484:	f0 e0       	ldi	r31, 0x00	; 0
     486:	ed 55       	subi	r30, 0x5D	; 93
     488:	f5 4c       	sbci	r31, 0xC5	; 197
     48a:	10 82       	st	Z, r1
                    iLED[EYE[R][R]] = 0;
     48c:	e0 91 ce b5 	lds	r30, 0xB5CE	; 0x80b5ce <__bss_end+0x7adb>
     490:	f0 e0       	ldi	r31, 0x00	; 0
     492:	ed 55       	subi	r30, 0x5D	; 93
     494:	f5 4c       	sbci	r31, 0xC5	; 197
     496:	10 82       	st	Z, r1
                    iLED[EYE[G][L]] = dimValue;
     498:	e0 91 d1 b5 	lds	r30, 0xB5D1	; 0x80b5d1 <__bss_end+0x7ade>
     49c:	f0 e0       	ldi	r31, 0x00	; 0
     49e:	80 91 09 38 	lds	r24, 0x3809	; 0x803809 <dimValue>
     4a2:	ed 55       	subi	r30, 0x5D	; 93
     4a4:	f5 4c       	sbci	r31, 0xC5	; 197
     4a6:	80 83       	st	Z, r24
                    iLED[EYE[G][R]] = dimValue;
     4a8:	e0 91 d0 b5 	lds	r30, 0xB5D0	; 0x80b5d0 <__bss_end+0x7add>
     4ac:	f0 e0       	ldi	r31, 0x00	; 0
     4ae:	80 91 09 38 	lds	r24, 0x3809	; 0x803809 <dimValue>
     4b2:	ed 55       	subi	r30, 0x5D	; 93
     4b4:	f5 4c       	sbci	r31, 0xC5	; 197
     4b6:	80 83       	st	Z, r24
     4b8:	33 c0       	rjmp	.+102    	; 0x520 <__LOCK_REGION_LENGTH__+0x120>
                    /*state = STATE_MUSIC;*/
                }
            } else {
                gameNow         = TEXT;
     4ba:	10 92 2f 38 	sts	0x382F, r1	; 0x80382f <gameNow>
                lanyardPos      = 0;
     4be:	10 92 29 38 	sts	0x3829, r1	; 0x803829 <lanyardPos>
                lanyardState    = TRUE;
     4c2:	81 e0       	ldi	r24, 0x01	; 1
     4c4:	80 93 02 38 	sts	0x3802, r24	; 0x803802 <lanyardState>
                lastButtonState = 0xff;
                iLED[SCARAB[G]] = 0;
     4c8:	ec 2f       	mov	r30, r28
     4ca:	f0 e0       	ldi	r31, 0x00	; 0
     4cc:	ed 55       	subi	r30, 0x5D	; 93
     4ce:	f5 4c       	sbci	r31, 0xC5	; 197
     4d0:	10 82       	st	Z, r1
                iLED[EYE[G][L]] = 0;
     4d2:	e0 91 d1 b5 	lds	r30, 0xB5D1	; 0x80b5d1 <__bss_end+0x7ade>
     4d6:	f0 e0       	ldi	r31, 0x00	; 0
     4d8:	ed 55       	subi	r30, 0x5D	; 93
     4da:	f5 4c       	sbci	r31, 0xC5	; 197
     4dc:	10 82       	st	Z, r1
                iLED[EYE[G][R]] = 0;
     4de:	e0 91 d0 b5 	lds	r30, 0xB5D0	; 0x80b5d0 <__bss_end+0x7add>
     4e2:	f0 e0       	ldi	r31, 0x00	; 0
     4e4:	ed 55       	subi	r30, 0x5D	; 93
     4e6:	f5 4c       	sbci	r31, 0xC5	; 197
     4e8:	10 82       	st	Z, r1
                iLED[EYE[R][L]] = dimValue;
     4ea:	e0 91 cf b5 	lds	r30, 0xB5CF	; 0x80b5cf <__bss_end+0x7adc>
     4ee:	f0 e0       	ldi	r31, 0x00	; 0
     4f0:	80 91 09 38 	lds	r24, 0x3809	; 0x803809 <dimValue>
     4f4:	ed 55       	subi	r30, 0x5D	; 93
     4f6:	f5 4c       	sbci	r31, 0xC5	; 197
     4f8:	80 83       	st	Z, r24
                iLED[EYE[R][R]] = dimValue;
     4fa:	e0 91 ce b5 	lds	r30, 0xB5CE	; 0x80b5ce <__bss_end+0x7adb>
     4fe:	f0 e0       	ldi	r31, 0x00	; 0
     500:	80 91 09 38 	lds	r24, 0x3809	; 0x803809 <dimValue>
     504:	ed 55       	subi	r30, 0x5D	; 93
     506:	f5 4c       	sbci	r31, 0xC5	; 197
     508:	80 83       	st	Z, r24
     50a:	a8 ed       	ldi	r26, 0xD8	; 216
     50c:	b5 eb       	ldi	r27, 0xB5	; 181
                for (int i=0; i<6; i++ )
                    iLED[HCKR[G][i]] = 0;
     50e:	ed 91       	ld	r30, X+
     510:	f0 e0       	ldi	r31, 0x00	; 0
     512:	ed 55       	subi	r30, 0x5D	; 93
     514:	f5 4c       	sbci	r31, 0xC5	; 197
     516:	10 82       	st	Z, r1
                iLED[SCARAB[G]] = 0;
                iLED[EYE[G][L]] = 0;
                iLED[EYE[G][R]] = 0;
                iLED[EYE[R][L]] = dimValue;
                iLED[EYE[R][R]] = dimValue;
                for (int i=0; i<6; i++ )
     518:	85 eb       	ldi	r24, 0xB5	; 181
     51a:	ae 3d       	cpi	r26, 0xDE	; 222
     51c:	b8 07       	cpc	r27, r24
     51e:	b9 f7       	brne	.-18     	; 0x50e <__LOCK_REGION_LENGTH__+0x10e>
                    iLED[HCKR[G][i]] = 0;
            }
        }
    }

    lastButtonState = buttonState;
     520:	80 91 07 38 	lds	r24, 0x3807	; 0x803807 <buttonState>
     524:	80 93 01 38 	sts	0x3801, r24	; 0x803801 <lastButtonState>
    return 0;
}
     528:	80 e0       	ldi	r24, 0x00	; 0
     52a:	cf 91       	pop	r28
     52c:	08 95       	ret

0000052e <MagnetMaze>:
uint8_t         mazeCnt = 0;
uint8_t         mazeState = TRUE;
uint8_t         inverted  = FALSE;

// Main game loop
uint8_t MagnetMaze(){
     52e:	cf 93       	push	r28
     530:	df 93       	push	r29
    if (CheckState(MAZE_INACTIVE))
     532:	87 ef       	ldi	r24, 0xF7	; 247
     534:	6d d6       	rcall	.+3290   	; 0x1210 <CheckState>
     536:	81 11       	cpse	r24, r1
     538:	3e c1       	rjmp	.+636    	; 0x7b6 <MagnetMaze+0x288>
        return 0;

    if (CheckState(MAZE_COMPLETED))
     53a:	8d e7       	ldi	r24, 0x7D	; 125
     53c:	69 d6       	rcall	.+3282   	; 0x1210 <CheckState>
     53e:	81 11       	cpse	r24, r1
     540:	3a c1       	rjmp	.+628    	; 0x7b6 <MagnetMaze+0x288>
        return 0;

    if ( (gameNow != TEXT) && (gameNow != MAZE) )
     542:	80 91 2f 38 	lds	r24, 0x382F	; 0x80382f <gameNow>
     546:	82 30       	cpi	r24, 0x02	; 2
     548:	08 f0       	brcs	.+2      	; 0x54c <MagnetMaze+0x1e>
     54a:	35 c1       	rjmp	.+618    	; 0x7b6 <MagnetMaze+0x288>
        return 0;

    if (calHall == 0)
     54c:	80 91 cc 3a 	lds	r24, 0x3ACC	; 0x803acc <calHall>
     550:	90 91 cd 3a 	lds	r25, 0x3ACD	; 0x803acd <calHall+0x1>
     554:	89 2b       	or	r24, r25
     556:	41 f4       	brne	.+16     	; 0x568 <MagnetMaze+0x3a>
        calHall = adcHall;
     558:	80 91 94 3a 	lds	r24, 0x3A94	; 0x803a94 <adcHall>
     55c:	90 91 95 3a 	lds	r25, 0x3A95	; 0x803a95 <adcHall+0x1>
     560:	80 93 cc 3a 	sts	0x3ACC, r24	; 0x803acc <calHall>
     564:	90 93 cd 3a 	sts	0x3ACD, r25	; 0x803acd <calHall+0x1>

    int16_t valHall = adcHall - calHall;
     568:	80 91 94 3a 	lds	r24, 0x3A94	; 0x803a94 <adcHall>
     56c:	90 91 95 3a 	lds	r25, 0x3A95	; 0x803a95 <adcHall+0x1>
     570:	20 91 cc 3a 	lds	r18, 0x3ACC	; 0x803acc <calHall>
     574:	30 91 cd 3a 	lds	r19, 0x3ACD	; 0x803acd <calHall+0x1>
     578:	82 1b       	sub	r24, r18
     57a:	93 0b       	sbc	r25, r19
    switch (curHallState) {
     57c:	30 91 3c 38 	lds	r19, 0x383C	; 0x80383c <curHallState>
     580:	31 30       	cpi	r19, 0x01	; 1
     582:	89 f0       	breq	.+34     	; 0x5a6 <MagnetMaze+0x78>
     584:	18 f0       	brcs	.+6      	; 0x58c <MagnetMaze+0x5e>
     586:	32 30       	cpi	r19, 0x02	; 2
     588:	c1 f0       	breq	.+48     	; 0x5ba <MagnetMaze+0x8c>
     58a:	1f c0       	rjmp	.+62     	; 0x5ca <MagnetMaze+0x9c>
        case 0: {
            if ( valHall + HALL_HIGH < 0 ) {
     58c:	84 3d       	cpi	r24, 0xD4	; 212
     58e:	2e ef       	ldi	r18, 0xFE	; 254
     590:	92 07       	cpc	r25, r18
     592:	14 f4       	brge	.+4      	; 0x598 <MagnetMaze+0x6a>
                newHallState = 1;
     594:	81 e0       	ldi	r24, 0x01	; 1
     596:	04 c0       	rjmp	.+8      	; 0x5a0 <MagnetMaze+0x72>
            } else if ( valHall - HALL_HIGH > 0 ) {
     598:	8d 32       	cpi	r24, 0x2D	; 45
     59a:	91 40       	sbci	r25, 0x01	; 1
     59c:	5c f0       	brlt	.+22     	; 0x5b4 <MagnetMaze+0x86>
                newHallState = 2;
     59e:	82 e0       	ldi	r24, 0x02	; 2
     5a0:	80 93 3b 38 	sts	0x383B, r24	; 0x80383b <newHallState>
     5a4:	12 c0       	rjmp	.+36     	; 0x5ca <MagnetMaze+0x9c>
            }
            break;
        }
        
        case 1: {
            if ( valHall - HALL_HIGH > 0 ) {
     5a6:	8d 32       	cpi	r24, 0x2D	; 45
     5a8:	21 e0       	ldi	r18, 0x01	; 1
     5aa:	92 07       	cpc	r25, r18
     5ac:	c4 f7       	brge	.-16     	; 0x59e <MagnetMaze+0x70>
                newHallState = 2;
            } else if ( valHall + HALL_LOW > 0 ) {
     5ae:	89 38       	cpi	r24, 0x89	; 137
     5b0:	9f 4f       	sbci	r25, 0xFF	; 255
     5b2:	84 f3       	brlt	.-32     	; 0x594 <MagnetMaze+0x66>
            if ( valHall + HALL_HIGH < 0 ) {
                newHallState = 1;
            } else if ( valHall - HALL_HIGH > 0 ) {
                newHallState = 2;
            } else {
                newHallState = 0;
     5b4:	10 92 3b 38 	sts	0x383B, r1	; 0x80383b <newHallState>
     5b8:	08 c0       	rjmp	.+16     	; 0x5ca <MagnetMaze+0x9c>
            }
            break;
        }
        
        case 2: {
            if ( valHall + HALL_HIGH < 0 ) {
     5ba:	84 3d       	cpi	r24, 0xD4	; 212
     5bc:	2e ef       	ldi	r18, 0xFE	; 254
     5be:	92 07       	cpc	r25, r18
     5c0:	4c f3       	brlt	.-46     	; 0x594 <MagnetMaze+0x66>
                newHallState = 1;
            } else if ( valHall - HALL_LOW < 0 ) {
     5c2:	88 37       	cpi	r24, 0x78	; 120
     5c4:	91 05       	cpc	r25, r1
     5c6:	b4 f3       	brlt	.-20     	; 0x5b4 <MagnetMaze+0x86>
     5c8:	ea cf       	rjmp	.-44     	; 0x59e <MagnetMaze+0x70>
            break;
        }
    }

    /* activate led for hallstate */
    iLED[SCARAB[G]] = (newHallState ? dimValue : 0);
     5ca:	c0 91 c3 b5 	lds	r28, 0xB5C3	; 0x80b5c3 <__bss_end+0x7ad0>
     5ce:	ec 2f       	mov	r30, r28
     5d0:	f0 e0       	ldi	r31, 0x00	; 0
     5d2:	80 91 3b 38 	lds	r24, 0x383B	; 0x80383b <newHallState>
     5d6:	88 23       	and	r24, r24
     5d8:	19 f0       	breq	.+6      	; 0x5e0 <MagnetMaze+0xb2>
     5da:	90 91 09 38 	lds	r25, 0x3809	; 0x803809 <dimValue>
     5de:	01 c0       	rjmp	.+2      	; 0x5e2 <MagnetMaze+0xb4>
     5e0:	90 e0       	ldi	r25, 0x00	; 0
     5e2:	ed 55       	subi	r30, 0x5D	; 93
     5e4:	f5 4c       	sbci	r31, 0xC5	; 197
     5e6:	90 83       	st	Z, r25


    /* Make the maze work regardless of badge orientation */
    if (newHallState != 0 && mazePos == 0 )
     5e8:	88 23       	and	r24, r24
     5ea:	59 f0       	breq	.+22     	; 0x602 <MagnetMaze+0xd4>
     5ec:	20 91 3a 38 	lds	r18, 0x383A	; 0x80383a <mazePos>
     5f0:	21 11       	cpse	r18, r1
     5f2:	3d c0       	rjmp	.+122    	; 0x66e <MagnetMaze+0x140>
        inverted = (newHallState != mazeCode[0]) ? TRUE : FALSE;
     5f4:	91 e0       	ldi	r25, 0x01	; 1
     5f6:	81 30       	cpi	r24, 0x01	; 1
     5f8:	09 f4       	brne	.+2      	; 0x5fc <MagnetMaze+0xce>
     5fa:	90 e0       	ldi	r25, 0x00	; 0
     5fc:	90 93 38 38 	sts	0x3838, r25	; 0x803838 <inverted>
     600:	36 c0       	rjmp	.+108    	; 0x66e <MagnetMaze+0x140>

    if (newHallState != curHallState) {
     602:	33 23       	and	r19, r19
     604:	09 f4       	brne	.+2      	; 0x608 <MagnetMaze+0xda>
     606:	d7 c0       	rjmp	.+430    	; 0x7b6 <MagnetMaze+0x288>
        curHallState = newHallState;
     608:	10 92 3c 38 	sts	0x383C, r1	; 0x80383c <curHallState>
                    for (int i=0; i<6; i++ )
                        iLED[HCKR[G][i]] = 0;
                }
            }
        } else {
            if (mazePos == sizeof(mazeCode)) {
     60c:	80 91 3a 38 	lds	r24, 0x383A	; 0x80383a <mazePos>
     610:	82 31       	cpi	r24, 0x12	; 18
     612:	09 f0       	breq	.+2      	; 0x616 <MagnetMaze+0xe8>
     614:	d0 c0       	rjmp	.+416    	; 0x7b6 <MagnetMaze+0x288>
                gameNow   = TEXT;
     616:	10 92 2f 38 	sts	0x382F, r1	; 0x80382f <gameNow>
                mazePos   = 0;
     61a:	10 92 3a 38 	sts	0x383A, r1	; 0x80383a <mazePos>
                mazeState = TRUE;
     61e:	81 e0       	ldi	r24, 0x01	; 1
     620:	80 93 0a 38 	sts	0x380A, r24	; 0x80380a <mazeState>
                iLED[SCARAB[G]]    = 0;
     624:	10 82       	st	Z, r1
                iLED[EYE[G][L]] = 0;
     626:	e0 91 d1 b5 	lds	r30, 0xB5D1	; 0x80b5d1 <__bss_end+0x7ade>
     62a:	f0 e0       	ldi	r31, 0x00	; 0
     62c:	ed 55       	subi	r30, 0x5D	; 93
     62e:	f5 4c       	sbci	r31, 0xC5	; 197
     630:	10 82       	st	Z, r1
                iLED[EYE[G][R]] = 0;
     632:	e0 91 d0 b5 	lds	r30, 0xB5D0	; 0x80b5d0 <__bss_end+0x7add>
     636:	f0 e0       	ldi	r31, 0x00	; 0
     638:	ed 55       	subi	r30, 0x5D	; 93
     63a:	f5 4c       	sbci	r31, 0xC5	; 197
     63c:	10 82       	st	Z, r1
                iLED[EYE[R][L]] = 0;
     63e:	e0 91 cf b5 	lds	r30, 0xB5CF	; 0x80b5cf <__bss_end+0x7adc>
     642:	f0 e0       	ldi	r31, 0x00	; 0
     644:	ed 55       	subi	r30, 0x5D	; 93
     646:	f5 4c       	sbci	r31, 0xC5	; 197
     648:	10 82       	st	Z, r1
                iLED[EYE[R][R]] = 0;
     64a:	e0 91 ce b5 	lds	r30, 0xB5CE	; 0x80b5ce <__bss_end+0x7adb>
     64e:	f0 e0       	ldi	r31, 0x00	; 0
     650:	ed 55       	subi	r30, 0x5D	; 93
     652:	f5 4c       	sbci	r31, 0xC5	; 197
     654:	10 82       	st	Z, r1
     656:	a8 ed       	ldi	r26, 0xD8	; 216
     658:	b5 eb       	ldi	r27, 0xB5	; 181
                for (int i=0; i<6; i++ )
                    iLED[HCKR[G][i]] = 0;
     65a:	ed 91       	ld	r30, X+
     65c:	f0 e0       	ldi	r31, 0x00	; 0
     65e:	ed 55       	subi	r30, 0x5D	; 93
     660:	f5 4c       	sbci	r31, 0xC5	; 197
     662:	10 82       	st	Z, r1
                iLED[SCARAB[G]]    = 0;
                iLED[EYE[G][L]] = 0;
                iLED[EYE[G][R]] = 0;
                iLED[EYE[R][L]] = 0;
                iLED[EYE[R][R]] = 0;
                for (int i=0; i<6; i++ )
     664:	25 eb       	ldi	r18, 0xB5	; 181
     666:	ae 3d       	cpi	r26, 0xDE	; 222
     668:	b2 07       	cpc	r27, r18
     66a:	b9 f7       	brne	.-18     	; 0x65a <MagnetMaze+0x12c>
     66c:	a4 c0       	rjmp	.+328    	; 0x7b6 <MagnetMaze+0x288>

    /* Make the maze work regardless of badge orientation */
    if (newHallState != 0 && mazePos == 0 )
        inverted = (newHallState != mazeCode[0]) ? TRUE : FALSE;

    if (newHallState != curHallState) {
     66e:	38 17       	cp	r19, r24
     670:	09 f4       	brne	.+2      	; 0x674 <MagnetMaze+0x146>
     672:	a1 c0       	rjmp	.+322    	; 0x7b6 <MagnetMaze+0x288>
        curHallState = newHallState;
     674:	80 93 3c 38 	sts	0x383C, r24	; 0x80383c <curHallState>
        
        if (curHallState != 0) {
            gameNow = MAZE;
     678:	91 e0       	ldi	r25, 0x01	; 1
     67a:	90 93 2f 38 	sts	0x382F, r25	; 0x80382f <gameNow>
            if ( (inverted ? curHallState^3 : curHallState) == mazeCode[mazePos]) {
     67e:	90 91 38 38 	lds	r25, 0x3838	; 0x803838 <inverted>
     682:	99 23       	and	r25, r25
     684:	11 f0       	breq	.+4      	; 0x68a <MagnetMaze+0x15c>
     686:	93 e0       	ldi	r25, 0x03	; 3
     688:	89 27       	eor	r24, r25
     68a:	90 e0       	ldi	r25, 0x00	; 0
     68c:	e2 2f       	mov	r30, r18
     68e:	f0 e0       	ldi	r31, 0x00	; 0
     690:	e2 52       	subi	r30, 0x22	; 34
     692:	fa 44       	sbci	r31, 0x4A	; 74
     694:	40 81       	ld	r20, Z
     696:	50 e0       	ldi	r21, 0x00	; 0
     698:	84 17       	cp	r24, r20
     69a:	95 07       	cpc	r25, r21
     69c:	91 f4       	brne	.+36     	; 0x6c2 <MagnetMaze+0x194>
                mazeState &= TRUE;
     69e:	80 91 0a 38 	lds	r24, 0x380A	; 0x80380a <mazeState>
     6a2:	81 70       	andi	r24, 0x01	; 1
     6a4:	80 93 0a 38 	sts	0x380A, r24	; 0x80380a <mazeState>
                iLED[EYE[R][L]] = 0;
     6a8:	e0 91 cf b5 	lds	r30, 0xB5CF	; 0x80b5cf <__bss_end+0x7adc>
     6ac:	f0 e0       	ldi	r31, 0x00	; 0
     6ae:	ed 55       	subi	r30, 0x5D	; 93
     6b0:	f5 4c       	sbci	r31, 0xC5	; 197
     6b2:	10 82       	st	Z, r1
                iLED[EYE[R][R]] = 0;
     6b4:	e0 91 ce b5 	lds	r30, 0xB5CE	; 0x80b5ce <__bss_end+0x7adb>
     6b8:	f0 e0       	ldi	r31, 0x00	; 0
     6ba:	ed 55       	subi	r30, 0x5D	; 93
     6bc:	f5 4c       	sbci	r31, 0xC5	; 197
     6be:	10 82       	st	Z, r1
     6c0:	02 c0       	rjmp	.+4      	; 0x6c6 <MagnetMaze+0x198>
            } else {
                mazeState = FALSE;
     6c2:	10 92 0a 38 	sts	0x380A, r1	; 0x80380a <mazeState>
                /* play tone BAD */
            }
            mazePos++;
     6c6:	2f 5f       	subi	r18, 0xFF	; 255
     6c8:	20 93 3a 38 	sts	0x383A, r18	; 0x80383a <mazePos>
            mazeCnt++;            
     6cc:	80 91 39 38 	lds	r24, 0x3839	; 0x803839 <mazeCnt>
     6d0:	8f 5f       	subi	r24, 0xFF	; 255
            if (mazeCnt >= 3) {
     6d2:	83 30       	cpi	r24, 0x03	; 3
     6d4:	18 f4       	brcc	.+6      	; 0x6dc <MagnetMaze+0x1ae>
            } else {
                mazeState = FALSE;
                /* play tone BAD */
            }
            mazePos++;
            mazeCnt++;            
     6d6:	80 93 39 38 	sts	0x3839, r24	; 0x803839 <mazeCnt>
     6da:	6d c0       	rjmp	.+218    	; 0x7b6 <MagnetMaze+0x288>
            if (mazeCnt >= 3) {
                mazeCnt = 0;
     6dc:	10 92 39 38 	sts	0x3839, r1	; 0x803839 <mazeCnt>
                if (mazeState == TRUE) {
     6e0:	80 91 0a 38 	lds	r24, 0x380A	; 0x80380a <mazeState>
     6e4:	81 30       	cpi	r24, 0x01	; 1
     6e6:	a9 f5       	brne	.+106    	; 0x752 <MagnetMaze+0x224>
                    /* play tone GOOD */
                    iLED[HCKR[G][(mazePos/3)-1]] = dimValue;
     6e8:	eb ea       	ldi	r30, 0xAB	; 171
     6ea:	2e 9f       	mul	r18, r30
     6ec:	e1 2d       	mov	r30, r1
     6ee:	11 24       	eor	r1, r1
     6f0:	e6 95       	lsr	r30
     6f2:	f0 e0       	ldi	r31, 0x00	; 0
     6f4:	ee 52       	subi	r30, 0x2E	; 46
     6f6:	fa 44       	sbci	r31, 0x4A	; 74
     6f8:	e5 81       	ldd	r30, Z+5	; 0x05
     6fa:	f0 e0       	ldi	r31, 0x00	; 0
     6fc:	80 91 09 38 	lds	r24, 0x3809	; 0x803809 <dimValue>
     700:	ed 55       	subi	r30, 0x5D	; 93
     702:	f5 4c       	sbci	r31, 0xC5	; 197
     704:	80 83       	st	Z, r24
                    if (mazePos == sizeof(mazeCode)) {
     706:	22 31       	cpi	r18, 0x12	; 18
     708:	09 f0       	breq	.+2      	; 0x70c <MagnetMaze+0x1de>
                        UpdateState(MAZE_COMPLETED);
     70a:	55 c0       	rjmp	.+170    	; 0x7b6 <MagnetMaze+0x288>
     70c:	8d e7       	ldi	r24, 0x7D	; 125
     70e:	76 d5       	rcall	.+2796   	; 0x11fc <UpdateState>
                        iLED[SCARAB[G]]    = 0;
     710:	d0 e0       	ldi	r29, 0x00	; 0
     712:	cd 55       	subi	r28, 0x5D	; 93
     714:	d5 4c       	sbci	r29, 0xC5	; 197
     716:	18 82       	st	Y, r1
                        iLED[EYE[R][L]] = 0;
     718:	e0 91 cf b5 	lds	r30, 0xB5CF	; 0x80b5cf <__bss_end+0x7adc>
     71c:	f0 e0       	ldi	r31, 0x00	; 0
     71e:	ed 55       	subi	r30, 0x5D	; 93
     720:	f5 4c       	sbci	r31, 0xC5	; 197
     722:	10 82       	st	Z, r1
                        iLED[EYE[R][R]] = 0;
     724:	e0 91 ce b5 	lds	r30, 0xB5CE	; 0x80b5ce <__bss_end+0x7adb>
     728:	f0 e0       	ldi	r31, 0x00	; 0
     72a:	ed 55       	subi	r30, 0x5D	; 93
     72c:	f5 4c       	sbci	r31, 0xC5	; 197
     72e:	10 82       	st	Z, r1
                        iLED[EYE[G][L]] = dimValue;
     730:	e0 91 d1 b5 	lds	r30, 0xB5D1	; 0x80b5d1 <__bss_end+0x7ade>
     734:	f0 e0       	ldi	r31, 0x00	; 0
     736:	80 91 09 38 	lds	r24, 0x3809	; 0x803809 <dimValue>
     73a:	ed 55       	subi	r30, 0x5D	; 93
     73c:	f5 4c       	sbci	r31, 0xC5	; 197
     73e:	80 83       	st	Z, r24
                        iLED[EYE[G][R]] = dimValue;
     740:	e0 91 d0 b5 	lds	r30, 0xB5D0	; 0x80b5d0 <__bss_end+0x7add>
     744:	f0 e0       	ldi	r31, 0x00	; 0
     746:	80 91 09 38 	lds	r24, 0x3809	; 0x803809 <dimValue>
     74a:	ed 55       	subi	r30, 0x5D	; 93
     74c:	f5 4c       	sbci	r31, 0xC5	; 197
     74e:	80 83       	st	Z, r24
     750:	32 c0       	rjmp	.+100    	; 0x7b6 <MagnetMaze+0x288>
                        /*state = STATE_MUSIC;*/
                    }
                } else {
                    gameNow   = TEXT;
     752:	10 92 2f 38 	sts	0x382F, r1	; 0x80382f <gameNow>
                    mazePos   = 0;
     756:	10 92 3a 38 	sts	0x383A, r1	; 0x80383a <mazePos>
                    mazeState = TRUE;
     75a:	81 e0       	ldi	r24, 0x01	; 1
     75c:	80 93 0a 38 	sts	0x380A, r24	; 0x80380a <mazeState>
                    iLED[SCARAB[G]]    = 0;
     760:	d0 e0       	ldi	r29, 0x00	; 0
     762:	cd 55       	subi	r28, 0x5D	; 93
     764:	d5 4c       	sbci	r29, 0xC5	; 197
     766:	18 82       	st	Y, r1
                    iLED[EYE[G][L]] = 0;
     768:	e0 91 d1 b5 	lds	r30, 0xB5D1	; 0x80b5d1 <__bss_end+0x7ade>
     76c:	f0 e0       	ldi	r31, 0x00	; 0
     76e:	ed 55       	subi	r30, 0x5D	; 93
     770:	f5 4c       	sbci	r31, 0xC5	; 197
     772:	10 82       	st	Z, r1
                    iLED[EYE[G][R]] = 0;
     774:	e0 91 d0 b5 	lds	r30, 0xB5D0	; 0x80b5d0 <__bss_end+0x7add>
     778:	f0 e0       	ldi	r31, 0x00	; 0
     77a:	ed 55       	subi	r30, 0x5D	; 93
     77c:	f5 4c       	sbci	r31, 0xC5	; 197
     77e:	10 82       	st	Z, r1
                    iLED[EYE[R][L]] = dimValue;
     780:	e0 91 cf b5 	lds	r30, 0xB5CF	; 0x80b5cf <__bss_end+0x7adc>
     784:	f0 e0       	ldi	r31, 0x00	; 0
     786:	80 91 09 38 	lds	r24, 0x3809	; 0x803809 <dimValue>
     78a:	ed 55       	subi	r30, 0x5D	; 93
     78c:	f5 4c       	sbci	r31, 0xC5	; 197
     78e:	80 83       	st	Z, r24
                    iLED[EYE[R][R]] = dimValue;
     790:	e0 91 ce b5 	lds	r30, 0xB5CE	; 0x80b5ce <__bss_end+0x7adb>
     794:	f0 e0       	ldi	r31, 0x00	; 0
     796:	80 91 09 38 	lds	r24, 0x3809	; 0x803809 <dimValue>
     79a:	ed 55       	subi	r30, 0x5D	; 93
     79c:	f5 4c       	sbci	r31, 0xC5	; 197
     79e:	80 83       	st	Z, r24
     7a0:	a8 ed       	ldi	r26, 0xD8	; 216
     7a2:	b5 eb       	ldi	r27, 0xB5	; 181
                    for (int i=0; i<6; i++ )
                        iLED[HCKR[G][i]] = 0;
     7a4:	ed 91       	ld	r30, X+
     7a6:	f0 e0       	ldi	r31, 0x00	; 0
     7a8:	ed 55       	subi	r30, 0x5D	; 93
     7aa:	f5 4c       	sbci	r31, 0xC5	; 197
     7ac:	10 82       	st	Z, r1
                    iLED[SCARAB[G]]    = 0;
                    iLED[EYE[G][L]] = 0;
                    iLED[EYE[G][R]] = 0;
                    iLED[EYE[R][L]] = dimValue;
                    iLED[EYE[R][R]] = dimValue;
                    for (int i=0; i<6; i++ )
     7ae:	85 eb       	ldi	r24, 0xB5	; 181
     7b0:	ae 3d       	cpi	r26, 0xDE	; 222
     7b2:	b8 07       	cpc	r27, r24
     7b4:	b9 f7       	brne	.-18     	; 0x7a4 <MagnetMaze+0x276>
                    iLED[HCKR[G][i]] = 0;
            }
        }
    }
    return 0;
}
     7b6:	80 e0       	ldi	r24, 0x00	; 0
     7b8:	df 91       	pop	r29
     7ba:	cf 91       	pop	r28
     7bc:	08 95       	ret

000007be <Setup>:
#include <I2C.h>                //Fixed a semi-crappy lib found on internet, replace with interrupt driven one? If so, check hardware errata pdf!

volatile uint16_t tmp16bit;    
volatile uint8_t mask[8] = {0x01, 0x03, 0x07, 0x0f, 0x1f, 0x3f, 0x7f, 0xff};

void Setup(){
     7be:	cf 93       	push	r28
     7c0:	df 93       	push	r29
    cli();
     7c2:	f8 94       	cli

    //Set up clock at 10MHz
    CCP = CCP_IOREG_gc;
     7c4:	88 ed       	ldi	r24, 0xD8	; 216
     7c6:	84 bf       	out	0x34, r24	; 52
    CLKCTRL_MCLKCTRLB = 0x01;
     7c8:	c1 e0       	ldi	r28, 0x01	; 1
     7ca:	c0 93 61 00 	sts	0x0061, r28	; 0x800061 <__TEXT_REGION_LENGTH__+0x700061>

    //Set I/O direction registers
    PORTA_DIR = 0b01001010;
     7ce:	8a e4       	ldi	r24, 0x4A	; 74
     7d0:	80 93 00 04 	sts	0x0400, r24	; 0x800400 <__TEXT_REGION_LENGTH__+0x700400>
    PORTB_DIR = 0b01111100;
     7d4:	8c e7       	ldi	r24, 0x7C	; 124
     7d6:	80 93 20 04 	sts	0x0420, r24	; 0x800420 <__TEXT_REGION_LENGTH__+0x700420>
    PORTC_DIR = 0b00111111;
     7da:	9f e3       	ldi	r25, 0x3F	; 63
     7dc:	90 93 40 04 	sts	0x0440, r25	; 0x800440 <__TEXT_REGION_LENGTH__+0x700440>

    //Invert some pins for correcting LED reversal error
    PORTC_PIN3CTRL |= 0x80;
     7e0:	80 91 53 04 	lds	r24, 0x0453	; 0x800453 <__TEXT_REGION_LENGTH__+0x700453>
     7e4:	80 68       	ori	r24, 0x80	; 128
     7e6:	80 93 53 04 	sts	0x0453, r24	; 0x800453 <__TEXT_REGION_LENGTH__+0x700453>
    PORTC_PIN4CTRL |= 0x80;
     7ea:	80 91 54 04 	lds	r24, 0x0454	; 0x800454 <__TEXT_REGION_LENGTH__+0x700454>
     7ee:	80 68       	ori	r24, 0x80	; 128
     7f0:	80 93 54 04 	sts	0x0454, r24	; 0x800454 <__TEXT_REGION_LENGTH__+0x700454>
    PORTC_PIN5CTRL |= 0x80;
     7f4:	80 91 55 04 	lds	r24, 0x0455	; 0x800455 <__TEXT_REGION_LENGTH__+0x700455>
     7f8:	80 68       	ori	r24, 0x80	; 128
     7fa:	80 93 55 04 	sts	0x0455, r24	; 0x800455 <__TEXT_REGION_LENGTH__+0x700455>
    PORTB_PIN3CTRL |= 0x80;
     7fe:	80 91 33 04 	lds	r24, 0x0433	; 0x800433 <__TEXT_REGION_LENGTH__+0x700433>
     802:	80 68       	ori	r24, 0x80	; 128
     804:	80 93 33 04 	sts	0x0433, r24	; 0x800433 <__TEXT_REGION_LENGTH__+0x700433>
    PORTB_PIN4CTRL |= 0x80;
     808:	80 91 34 04 	lds	r24, 0x0434	; 0x800434 <__TEXT_REGION_LENGTH__+0x700434>
     80c:	80 68       	ori	r24, 0x80	; 128
     80e:	80 93 34 04 	sts	0x0434, r24	; 0x800434 <__TEXT_REGION_LENGTH__+0x700434>
    PORTB_PIN5CTRL |= 0x80;
     812:	80 91 35 04 	lds	r24, 0x0435	; 0x800435 <__TEXT_REGION_LENGTH__+0x700435>
     816:	80 68       	ori	r24, 0x80	; 128
     818:	80 93 35 04 	sts	0x0435, r24	; 0x800435 <__TEXT_REGION_LENGTH__+0x700435>
    PORTB_PIN2CTRL |= 0x80;
    PORTB_PIN6CTRL |= 0x80;
    */

    //UART (Alternative pins PA1=TxD, PA2=RxD, baudrate 9600, 8n1, RX and Buffer empty interrupts on)
    PORTMUX_CTRLB = 0x01;
     81c:	c0 93 01 02 	sts	0x0201, r28	; 0x800201 <__TEXT_REGION_LENGTH__+0x700201>
    PORTA_OUTSET = 0x02;
     820:	d2 e0       	ldi	r29, 0x02	; 2
     822:	d0 93 05 04 	sts	0x0405, r29	; 0x800405 <__TEXT_REGION_LENGTH__+0x700405>
    USART0_BAUD = (uint16_t)USART0_BAUD_RATE(115200);
     826:	2b e5       	ldi	r18, 0x5B	; 91
     828:	31 e0       	ldi	r19, 0x01	; 1
     82a:	20 93 08 08 	sts	0x0808, r18	; 0x800808 <__TEXT_REGION_LENGTH__+0x700808>
     82e:	30 93 09 08 	sts	0x0809, r19	; 0x800809 <__TEXT_REGION_LENGTH__+0x700809>
    USART0_CTRLA = 0xA0; //Interrupts on
     832:	80 ea       	ldi	r24, 0xA0	; 160
     834:	80 93 05 08 	sts	0x0805, r24	; 0x800805 <__TEXT_REGION_LENGTH__+0x700805>
    USART0_CTRLB = 0xC0; //RX and TX on
     838:	80 ec       	ldi	r24, 0xC0	; 192
     83a:	80 93 06 08 	sts	0x0806, r24	; 0x800806 <__TEXT_REGION_LENGTH__+0x700806>
    USART0_CTRLC = 0x03; //8 bits data, no parity, 1 stop bit
     83e:	83 e0       	ldi	r24, 0x03	; 3
     840:	80 93 07 08 	sts	0x0807, r24	; 0x800807 <__TEXT_REGION_LENGTH__+0x700807>
     
    //GPIO registers 0..3 can be used for global variables used in ISR routines (ASM capability: IN, OUT, SBI, CBI, SBIS, SBIC)
    L_COL = 0;     //Used in LED array to hold currently driven column value
     844:	1c ba       	out	0x1c, r1	; 28
    RXCNT = 0;     //Used as UART receive counter
     846:	1d ba       	out	0x1d, r1	; 29
    AUPOS = 0;     //Used as audio input/output buffer counter
     848:	1e ba       	out	0x1e, r1	; 30
    GPIOR3 = 0;    //
     84a:	1f ba       	out	0x1f, r1	; 31

    //Init TCA (split mode, f_CLK/16, PWM on 6 alternative pins, underflow int enabled, synced and started)
    TCA0_SPLIT_CTRLD = 1;
     84c:	c0 93 03 0a 	sts	0x0A03, r28	; 0x800a03 <__TEXT_REGION_LENGTH__+0x700a03>
    TCA0_SPLIT_CTRLA = (0x4)<<1;
     850:	88 e0       	ldi	r24, 0x08	; 8
     852:	80 93 00 0a 	sts	0x0A00, r24	; 0x800a00 <__TEXT_REGION_LENGTH__+0x700a00>
    PORTMUX_CTRLC = 0x3F;
     856:	90 93 02 02 	sts	0x0202, r25	; 0x800202 <__TEXT_REGION_LENGTH__+0x700202>
    TCA0_SPLIT_CTRLB = 0x77;
     85a:	87 e7       	ldi	r24, 0x77	; 119
     85c:	80 93 01 0a 	sts	0x0A01, r24	; 0x800a01 <__TEXT_REGION_LENGTH__+0x700a01>
    TCA0_SPLIT_INTCTRL = 0x1;
     860:	c0 93 0a 0a 	sts	0x0A0A, r28	; 0x800a0a <__TEXT_REGION_LENGTH__+0x700a0a>
    TCA0_SPLIT_CTRLESET = ((0x2)<<2)|0x3;
     864:	8b e0       	ldi	r24, 0x0B	; 11
     866:	80 93 05 0a 	sts	0x0A05, r24	; 0x800a05 <__TEXT_REGION_LENGTH__+0x700a05>
    TCA0_SPLIT_CTRLA |= 1;
     86a:	80 91 00 0a 	lds	r24, 0x0A00	; 0x800a00 <__TEXT_REGION_LENGTH__+0x700a00>
     86e:	81 60       	ori	r24, 0x01	; 1
     870:	80 93 00 0a 	sts	0x0A00, r24	; 0x800a00 <__TEXT_REGION_LENGTH__+0x700a00>
     
    //Init TCB0 (compare value sets serial Tx pause between characters, uses TCA0 prescaler, enabled, interrupt disabled)
    TCB0_CTRLA = ((0x02)<<1)|0x01;
     874:	85 e0       	ldi	r24, 0x05	; 5
     876:	80 93 40 0a 	sts	0x0A40, r24	; 0x800a40 <__TEXT_REGION_LENGTH__+0x700a40>
    TCB0_CTRLB = 0;
     87a:	10 92 41 0a 	sts	0x0A41, r1	; 0x800a41 <__TEXT_REGION_LENGTH__+0x700a41>
    TCB0_CCMP = 0x01FF;
     87e:	8f ef       	ldi	r24, 0xFF	; 255
     880:	91 e0       	ldi	r25, 0x01	; 1
     882:	80 93 4c 0a 	sts	0x0A4C, r24	; 0x800a4c <__TEXT_REGION_LENGTH__+0x700a4c>
     886:	90 93 4d 0a 	sts	0x0A4D, r25	; 0x800a4d <__TEXT_REGION_LENGTH__+0x700a4d>
    TCB0_INTCTRL = 0x00;     
     88a:	10 92 45 0a 	sts	0x0A45, r1	; 0x800a45 <__TEXT_REGION_LENGTH__+0x700a45>
     
    //Init TCB1 (compare value sets audio sample rate (0x038B = 11025sps), enabled, interrupt enabled)
    TCB1_CTRLA = 0x01;
     88e:	c0 93 50 0a 	sts	0x0A50, r28	; 0x800a50 <__TEXT_REGION_LENGTH__+0x700a50>
    TCB1_CTRLB = 0;
     892:	10 92 51 0a 	sts	0x0A51, r1	; 0x800a51 <__TEXT_REGION_LENGTH__+0x700a51>
    TCB1_CCMP = 0x038B;
     896:	8b e8       	ldi	r24, 0x8B	; 139
     898:	93 e0       	ldi	r25, 0x03	; 3
     89a:	80 93 5c 0a 	sts	0x0A5C, r24	; 0x800a5c <__TEXT_REGION_LENGTH__+0x700a5c>
     89e:	90 93 5d 0a 	sts	0x0A5D, r25	; 0x800a5d <__TEXT_REGION_LENGTH__+0x700a5d>
    TCB1_INTCTRL = 0x01;
     8a2:	c0 93 55 0a 	sts	0x0A55, r28	; 0x800a55 <__TEXT_REGION_LENGTH__+0x700a55>

    //Init I2C (100kHz)
    I2C_init();
     8a6:	08 dc       	rcall	.-2032   	; 0xb8 <I2C_init>

    //VREF (DAC, ADC's)
    VREF_CTRLA   = 0x12;    //0x22 for audio in/out (2.5V), 0x12 for temperature in, audio out (1.1V/2.5V)
     8a8:	82 e1       	ldi	r24, 0x12	; 18
     8aa:	80 93 a0 00 	sts	0x00A0, r24	; 0x8000a0 <__TEXT_REGION_LENGTH__+0x7000a0>
    VREF_CTRLC   = 0x20;    //ADC1 reference at 2.5V
     8ae:	80 e2       	ldi	r24, 0x20	; 32
     8b0:	80 93 a2 00 	sts	0x00A2, r24	; 0x8000a2 <__TEXT_REGION_LENGTH__+0x7000a2>
    VREF_CTRLB   = 0x01;    //DAC0 ref forced enabled
     8b4:	c0 93 a1 00 	sts	0x00A1, r28	; 0x8000a1 <__TEXT_REGION_LENGTH__+0x7000a1>

    //Init ADC0 (audio in, also controls DAC output rate, internal temperature?)
    ADC0_CTRLA   = 0x06;    //8 bit resolution, free running
     8b8:	86 e0       	ldi	r24, 0x06	; 6
     8ba:	80 93 00 06 	sts	0x0600, r24	; 0x800600 <__TEXT_REGION_LENGTH__+0x700600>
    ADC0_CTRLC   = 0x44;    //Reduced sample capacitor, internal reference, clock/32 => 24038sps
     8be:	84 e4       	ldi	r24, 0x44	; 68
     8c0:	80 93 02 06 	sts	0x0602, r24	; 0x800602 <__TEXT_REGION_LENGTH__+0x700602>
    ADC0_MUXPOS  = 0x1E;    //Audio in: AIN7 at (0x07), Temperature: Internal sensor at (0x1E)
     8c4:	8e e1       	ldi	r24, 0x1E	; 30
     8c6:	80 93 06 06 	sts	0x0606, r24	; 0x800606 <__TEXT_REGION_LENGTH__+0x700606>
    ADC0_INTCTRL = 0x01;    //Result ready interrupt enabled
     8ca:	c0 93 0a 06 	sts	0x060A, r28	; 0x80060a <__TEXT_REGION_LENGTH__+0x70060a>
    ADC0_CTRLA  |= 0x01;    //ADC0 enabled
     8ce:	80 91 00 06 	lds	r24, 0x0600	; 0x800600 <__TEXT_REGION_LENGTH__+0x700600>
     8d2:	81 60       	ori	r24, 0x01	; 1
     8d4:	80 93 00 06 	sts	0x0600, r24	; 0x800600 <__TEXT_REGION_LENGTH__+0x700600>
    ADC0_COMMAND = 0x01;    //Start first conversion, after that it will run periodically.
     8d8:	c0 93 08 06 	sts	0x0608, r28	; 0x800608 <__TEXT_REGION_LENGTH__+0x700608>

    //Init ADC1 (buttons and sensors: CH0=Photo transistor, CH1=Hall, CH4=Buttons)
    ADC1_CTRLA   = 0;
     8dc:	10 92 40 06 	sts	0x0640, r1	; 0x800640 <__TEXT_REGION_LENGTH__+0x700640>
    ADC1_CTRLB   = 0x02;    //4 results automatically accumulated
     8e0:	d0 93 41 06 	sts	0x0641, r29	; 0x800641 <__TEXT_REGION_LENGTH__+0x700641>
    ADC1_CTRLC   = 0x52;    //Reduced sample capacitor, VDD as reference, clock/8
     8e4:	82 e5       	ldi	r24, 0x52	; 82
     8e6:	80 93 42 06 	sts	0x0642, r24	; 0x800642 <__TEXT_REGION_LENGTH__+0x700642>
    ADC1_SAMPCTRL= 0x04;    //Extend sampling time with 4 cycles (6 total)
     8ea:	84 e0       	ldi	r24, 0x04	; 4
     8ec:	80 93 45 06 	sts	0x0645, r24	; 0x800645 <__TEXT_REGION_LENGTH__+0x700645>
    ADC1_MUXPOS  = 0x04;    //Start with Buttons, for sensors, activate sensor power first.
     8f0:	80 93 46 06 	sts	0x0646, r24	; 0x800646 <__TEXT_REGION_LENGTH__+0x700646>
    ADC1_INTCTRL = 0x01;    //Result ready interrupt enabled
     8f4:	c0 93 4a 06 	sts	0x064A, r28	; 0x80064a <__TEXT_REGION_LENGTH__+0x70064a>
    ADC1_CTRLA  |= 0x01;    //ADC0 enabled
     8f8:	80 91 40 06 	lds	r24, 0x0640	; 0x800640 <__TEXT_REGION_LENGTH__+0x700640>
     8fc:	81 60       	ori	r24, 0x01	; 1
     8fe:	80 93 40 06 	sts	0x0640, r24	; 0x800640 <__TEXT_REGION_LENGTH__+0x700640>
    ADC1_COMMAND = 0x01;    //Start single conversion
     902:	c0 93 48 06 	sts	0x0648, r28	; 0x800648 <__TEXT_REGION_LENGTH__+0x700648>

    //Init DAC0
    DAC0_CTRLA = 0x40;     //Enable output buffer (connect to pin)
     906:	80 e4       	ldi	r24, 0x40	; 64
     908:	80 93 a0 06 	sts	0x06A0, r24	; 0x8006a0 <__TEXT_REGION_LENGTH__+0x7006a0>
    DAC0_DATA = 0x80;      //Data value at half point (about 1.25V)
     90c:	80 e8       	ldi	r24, 0x80	; 128
     90e:	80 93 a1 06 	sts	0x06A1, r24	; 0x8006a1 <__TEXT_REGION_LENGTH__+0x7006a1>
    DAC0_CTRLA |= 0x01;    //Enable DAC
     912:	80 91 a0 06 	lds	r24, 0x06A0	; 0x8006a0 <__TEXT_REGION_LENGTH__+0x7006a0>
     916:	81 60       	ori	r24, 0x01	; 1
     918:	80 93 a0 06 	sts	0x06A0, r24	; 0x8006a0 <__TEXT_REGION_LENGTH__+0x7006a0>
     
    //PIT and RTC interrupts
    while(RTC_STATUS & RTC_CTRLABUSY_bm);
     91c:	80 91 41 01 	lds	r24, 0x0141	; 0x800141 <__TEXT_REGION_LENGTH__+0x700141>
     920:	80 fd       	sbrc	r24, 0
     922:	fc cf       	rjmp	.-8      	; 0x91c <Setup+0x15e>
    RTC_CTRLA          = (0x6)<<3;                         //Prescaler: /64
     924:	80 e3       	ldi	r24, 0x30	; 48
     926:	80 93 40 01 	sts	0x0140, r24	; 0x800140 <__TEXT_REGION_LENGTH__+0x700140>
    RTC_CLKSEL         = 0;                                //Clock source: internal 32768Hz clock
     92a:	10 92 47 01 	sts	0x0147, r1	; 0x800147 <__TEXT_REGION_LENGTH__+0x700147>
    while(RTC_STATUS & RTC_PERBUSY_bm);
     92e:	80 91 41 01 	lds	r24, 0x0141	; 0x800141 <__TEXT_REGION_LENGTH__+0x700141>
     932:	82 fd       	sbrc	r24, 2
     934:	fc cf       	rjmp	.-8      	; 0x92e <Setup+0x170>
    RTC_PER            = 512*60;                           //60 second period (for clocking how long the device has been running?)
     936:	80 e0       	ldi	r24, 0x00	; 0
     938:	98 e7       	ldi	r25, 0x78	; 120
     93a:	80 93 4a 01 	sts	0x014A, r24	; 0x80014a <__TEXT_REGION_LENGTH__+0x70014a>
     93e:	90 93 4b 01 	sts	0x014B, r25	; 0x80014b <__TEXT_REGION_LENGTH__+0x70014b>
    tmp16bit = (RTC_CNT + BTN_TMR)%RTC_PER;
     942:	80 91 48 01 	lds	r24, 0x0148	; 0x800148 <__TEXT_REGION_LENGTH__+0x700148>
     946:	90 91 49 01 	lds	r25, 0x0149	; 0x800149 <__TEXT_REGION_LENGTH__+0x700149>
     94a:	60 91 4a 01 	lds	r22, 0x014A	; 0x80014a <__TEXT_REGION_LENGTH__+0x70014a>
     94e:	70 91 4b 01 	lds	r23, 0x014B	; 0x80014b <__TEXT_REGION_LENGTH__+0x70014b>
     952:	82 96       	adiw	r24, 0x22	; 34
     954:	0e 94 81 1a 	call	0x3502	; 0x3502 <__udivmodhi4>
     958:	80 93 d0 3a 	sts	0x3AD0, r24	; 0x803ad0 <tmp16bit>
     95c:	90 93 d1 3a 	sts	0x3AD1, r25	; 0x803ad1 <tmp16bit+0x1>
    while(RTC_STATUS & RTC_CMPBUSY_bm);
     960:	80 91 41 01 	lds	r24, 0x0141	; 0x800141 <__TEXT_REGION_LENGTH__+0x700141>
     964:	83 fd       	sbrc	r24, 3
     966:	fc cf       	rjmp	.-8      	; 0x960 <Setup+0x1a2>
    RTC_CMP            = tmp16bit;                         //Button timing
     968:	80 91 d0 3a 	lds	r24, 0x3AD0	; 0x803ad0 <tmp16bit>
     96c:	90 91 d1 3a 	lds	r25, 0x3AD1	; 0x803ad1 <tmp16bit+0x1>
     970:	80 93 4c 01 	sts	0x014C, r24	; 0x80014c <__TEXT_REGION_LENGTH__+0x70014c>
     974:	90 93 4d 01 	sts	0x014D, r25	; 0x80014d <__TEXT_REGION_LENGTH__+0x70014d>
    RTC_INTCTRL        = 0x03;                             //RTC overflow interrupt enabled
     978:	83 e0       	ldi	r24, 0x03	; 3
     97a:	80 93 42 01 	sts	0x0142, r24	; 0x800142 <__TEXT_REGION_LENGTH__+0x700142>
    RTC_PITINTCTRL     = 0x01;                             //PIT interrupt enabled
     97e:	81 e0       	ldi	r24, 0x01	; 1
     980:	80 93 52 01 	sts	0x0152, r24	; 0x800152 <__TEXT_REGION_LENGTH__+0x700152>
    RTC_PITCTRLA       = (0x1)<<3;                         //Interrupt fires after 4 RTC clock cycles Rate=(RTCCLK/(PRESC*PERIOD)) 32768/256=128Hz
     984:	88 e0       	ldi	r24, 0x08	; 8
     986:	80 93 50 01 	sts	0x0150, r24	; 0x800150 <__TEXT_REGION_LENGTH__+0x700150>
    while(RTC_STATUS & RTC_CTRLABUSY_bm);      
     98a:	80 91 41 01 	lds	r24, 0x0141	; 0x800141 <__TEXT_REGION_LENGTH__+0x700141>
     98e:	80 fd       	sbrc	r24, 0
     990:	fc cf       	rjmp	.-8      	; 0x98a <Setup+0x1cc>
    RTC_CTRLA          |= 0x01;                            //Enable RTC
     992:	80 91 40 01 	lds	r24, 0x0140	; 0x800140 <__TEXT_REGION_LENGTH__+0x700140>
     996:	81 60       	ori	r24, 0x01	; 1
     998:	80 93 40 01 	sts	0x0140, r24	; 0x800140 <__TEXT_REGION_LENGTH__+0x700140>
    RTC_PITCTRLA       |= 0x01;                            //Enable PIT
     99c:	80 91 50 01 	lds	r24, 0x0150	; 0x800150 <__TEXT_REGION_LENGTH__+0x700150>
     9a0:	81 60       	ori	r24, 0x01	; 1
     9a2:	80 93 50 01 	sts	0x0150, r24	; 0x800150 <__TEXT_REGION_LENGTH__+0x700150>
     
    //Other inits
    serRx[0] = 0;           // Empty Rx buffer (first char is enough)
     9a6:	10 92 4e 3a 	sts	0x3A4E, r1	; 0x803a4e <serRx>
    serTxAddr = &serRx[0];  // Point to first address of the Rx buffer
     9aa:	8e e4       	ldi	r24, 0x4E	; 78
     9ac:	9a e3       	ldi	r25, 0x3A	; 58
     9ae:	80 93 92 3a 	sts	0x3A92, r24	; 0x803a92 <serTxAddr>
     9b2:	90 93 93 3a 	sts	0x3A93, r25	; 0x803a93 <serTxAddr+0x1>

    sei();
     9b6:	78 94       	sei
}
     9b8:	df 91       	pop	r29
     9ba:	cf 91       	pop	r28
     9bc:	08 95       	ret

000009be <__vector_8>:

// TCA0 is used for driving the LED matrix at 488Hz (* 5 columns = 2440Hz). The lower 8 bit underflow interrupt is used to load new values and shift between columns.
ISR(TCA0_LUNF_vect){
     9be:	1f 92       	push	r1
     9c0:	0f 92       	push	r0
     9c2:	0f b6       	in	r0, 0x3f	; 63
     9c4:	0f 92       	push	r0
     9c6:	11 24       	eor	r1, r1
     9c8:	8f 93       	push	r24
     9ca:	9f 93       	push	r25
     9cc:	af 93       	push	r26
     9ce:	bf 93       	push	r27
     9d0:	ef 93       	push	r30
     9d2:	ff 93       	push	r31
    //Turn off all columns
    PORTC_OUTCLR = 0x07;
     9d4:	87 e0       	ldi	r24, 0x07	; 7
     9d6:	80 93 46 04 	sts	0x0446, r24	; 0x800446 <__TEXT_REGION_LENGTH__+0x700446>
    PORTB_OUTCLR = 0x44;
     9da:	84 e4       	ldi	r24, 0x44	; 68
     9dc:	80 93 26 04 	sts	0x0426, r24	; 0x800426 <__TEXT_REGION_LENGTH__+0x700426>
    "ldi r25, 6        \n"
    "ld r24, %a[arr]+  \n"
    "st %a[wo]+, r24   \n"
    "dec r25           \n"
    "brne .-8          \n"
    :: [wo] "e" (&TCA0_SPLIT_LCMP0), [arr] "e" (&iLED[(L_COL<<3)]) : "r25", "r24", "cc", "memory");
     9e0:	ec b3       	in	r30, 0x1c	; 28
     9e2:	88 e0       	ldi	r24, 0x08	; 8
     9e4:	e8 9f       	mul	r30, r24
     9e6:	f0 01       	movw	r30, r0
     9e8:	11 24       	eor	r1, r1
     9ea:	ed 55       	subi	r30, 0x5D	; 93
     9ec:	f5 4c       	sbci	r31, 0xC5	; 197
    //Turn off all columns
    PORTC_OUTCLR = 0x07;
    PORTB_OUTCLR = 0x44;

    //Write all of the compare registers of TCA0 with PWM values in array (rows)
    asm(
     9ee:	a8 e2       	ldi	r26, 0x28	; 40
     9f0:	ba e0       	ldi	r27, 0x0A	; 10
     9f2:	96 e0       	ldi	r25, 0x06	; 6
     9f4:	81 91       	ld	r24, Z+
     9f6:	8d 93       	st	X+, r24
     9f8:	9a 95       	dec	r25
     9fa:	e1 f7       	brne	.-8      	; 0x9f4 <__vector_8+0x36>
    "st %a[wo]+, r24   \n"
    "dec r25           \n"
    "brne .-8          \n"
    :: [wo] "e" (&TCA0_SPLIT_LCMP0), [arr] "e" (&iLED[(L_COL<<3)]) : "r25", "r24", "cc", "memory");

    TCA0_SPLIT_CTRLESET = ((0x2)<<2)|0x3; //Sync timers: Moved this below the PWM value loading to fix the data shifting in asm above.
     9fc:	8b e0       	ldi	r24, 0x0B	; 11
     9fe:	80 93 05 0a 	sts	0x0A05, r24	; 0x800a05 <__TEXT_REGION_LENGTH__+0x700a05>

    //Turn on the right column
    if (L_COL<3) {
     a02:	8c b3       	in	r24, 0x1c	; 28
     a04:	83 30       	cpi	r24, 0x03	; 3
     a06:	58 f4       	brcc	.+22     	; 0xa1e <__vector_8+0x60>
        asm(
     a08:	8c b3       	in	r24, 0x1c	; 28
     a0a:	91 e0       	ldi	r25, 0x01	; 1
     a0c:	01 c0       	rjmp	.+2      	; 0xa10 <__vector_8+0x52>
     a0e:	99 0f       	add	r25, r25
     a10:	8a 95       	dec	r24
     a12:	ea f7       	brpl	.-6      	; 0xa0e <__vector_8+0x50>
     a14:	99 b9       	out	0x09, r25	; 9
     a16:	8c b3       	in	r24, 0x1c	; 28
     a18:	83 95       	inc	r24
     a1a:	8c bb       	out	0x1c, r24	; 28
     a1c:	0a c0       	rjmp	.+20     	; 0xa32 <__vector_8+0x74>
        "in r24, %[io0]  \n"
        "inc r24         \n"
        "out %[io0], r24 \n"
        :: [io0] "I" (&L_COL), [vpc] "I" (&VPORTC_OUT) : "r24", "r25", "cc");
        } else {
        asm(
     a1e:	8c b3       	in	r24, 0x1c	; 28
     a20:	83 30       	cpi	r24, 0x03	; 3
     a22:	21 f4       	brne	.+8      	; 0xa2c <__vector_8+0x6e>
     a24:	2a 9a       	sbi	0x05, 2	; 5
     a26:	83 95       	inc	r24
     a28:	8c bb       	out	0x1c, r24	; 28
     a2a:	03 c0       	rjmp	.+6      	; 0xa32 <__vector_8+0x74>
     a2c:	2e 9a       	sbi	0x05, 6	; 5
     a2e:	88 27       	eor	r24, r24
     a30:	8c bb       	out	0x1c, r24	; 28
        "clr r24         \n"
        "out %[io0], r24 \n"
        :: [io0] "I" (&L_COL), [vpb] "I" (&VPORTB_OUT) : "r24", "cc");
    }
    
    if(timeout_I2C) --timeout_I2C;
     a32:	80 91 39 3a 	lds	r24, 0x3A39	; 0x803a39 <timeout_I2C>
     a36:	88 23       	and	r24, r24
     a38:	29 f0       	breq	.+10     	; 0xa44 <__vector_8+0x86>
     a3a:	80 91 39 3a 	lds	r24, 0x3A39	; 0x803a39 <timeout_I2C>
     a3e:	81 50       	subi	r24, 0x01	; 1
     a40:	80 93 39 3a 	sts	0x3A39, r24	; 0x803a39 <timeout_I2C>
    TCA0_SPLIT_INTFLAGS = 0xFF;
     a44:	8f ef       	ldi	r24, 0xFF	; 255
     a46:	80 93 0b 0a 	sts	0x0A0B, r24	; 0x800a0b <__TEXT_REGION_LENGTH__+0x700a0b>
}
     a4a:	ff 91       	pop	r31
     a4c:	ef 91       	pop	r30
     a4e:	bf 91       	pop	r27
     a50:	af 91       	pop	r26
     a52:	9f 91       	pop	r25
     a54:	8f 91       	pop	r24
     a56:	0f 90       	pop	r0
     a58:	0f be       	out	0x3f, r0	; 63
     a5a:	0f 90       	pop	r0
     a5c:	1f 90       	pop	r1
     a5e:	18 95       	reti

00000a60 <__vector_13>:

// TCB0 is used for (slowly) sending serial characters. A 0x00 character code is needed to terminate sending or it will leak memory to serial. It's a feature, honest! 
ISR(TCB0_INT_vect){
     a60:	1f 92       	push	r1
     a62:	0f 92       	push	r0
     a64:	0f b6       	in	r0, 0x3f	; 63
     a66:	0f 92       	push	r0
     a68:	11 24       	eor	r1, r1
     a6a:	8f 93       	push	r24
     a6c:	9f 93       	push	r25
     a6e:	ef 93       	push	r30
     a70:	ff 93       	push	r31
    if (*serTxAddr) {
     a72:	e0 91 92 3a 	lds	r30, 0x3A92	; 0x803a92 <serTxAddr>
     a76:	f0 91 93 3a 	lds	r31, 0x3A93	; 0x803a93 <serTxAddr+0x1>
     a7a:	80 81       	ld	r24, Z
     a7c:	88 23       	and	r24, r24
     a7e:	91 f0       	breq	.+36     	; 0xaa4 <__vector_13+0x44>
        USART0_TXDATAL = *serTxAddr;
     a80:	80 81       	ld	r24, Z
     a82:	80 93 02 08 	sts	0x0802, r24	; 0x800802 <__TEXT_REGION_LENGTH__+0x700802>
        serTxAddr++;
     a86:	80 91 92 3a 	lds	r24, 0x3A92	; 0x803a92 <serTxAddr>
     a8a:	90 91 93 3a 	lds	r25, 0x3A93	; 0x803a93 <serTxAddr+0x1>
     a8e:	01 96       	adiw	r24, 0x01	; 1
     a90:	80 93 92 3a 	sts	0x3A92, r24	; 0x803a92 <serTxAddr>
     a94:	90 93 93 3a 	sts	0x3A93, r25	; 0x803a93 <serTxAddr+0x1>
        USART0_CTRLA |= USART_DREIE_bm;
     a98:	80 91 05 08 	lds	r24, 0x0805	; 0x800805 <__TEXT_REGION_LENGTH__+0x700805>
     a9c:	80 62       	ori	r24, 0x20	; 32
     a9e:	80 93 05 08 	sts	0x0805, r24	; 0x800805 <__TEXT_REGION_LENGTH__+0x700805>
     aa2:	05 c0       	rjmp	.+10     	; 0xaae <__vector_13+0x4e>
    } else {
        serTxDone = 1;
     aa4:	81 e0       	ldi	r24, 0x01	; 1
     aa6:	80 93 08 38 	sts	0x3808, r24	; 0x803808 <serTxDone>
        TCB0_INTCTRL = 0x00;
     aaa:	10 92 45 0a 	sts	0x0A45, r1	; 0x800a45 <__TEXT_REGION_LENGTH__+0x700a45>
    }
    TCB0_INTFLAGS = TCB_CAPT_bm;
     aae:	81 e0       	ldi	r24, 0x01	; 1
     ab0:	80 93 46 0a 	sts	0x0A46, r24	; 0x800a46 <__TEXT_REGION_LENGTH__+0x700a46>
}
     ab4:	ff 91       	pop	r31
     ab6:	ef 91       	pop	r30
     ab8:	9f 91       	pop	r25
     aba:	8f 91       	pop	r24
     abc:	0f 90       	pop	r0
     abe:	0f be       	out	0x3f, r0	; 63
     ac0:	0f 90       	pop	r0
     ac2:	1f 90       	pop	r1
     ac4:	18 95       	reti

00000ac6 <__vector_14>:

// TCB1 is used for audio generation. Keeps playing "data" until 0 is reached. Audio sample data can contain 0x01 to 0xFF, centered around 0x80
ISR(TCB1_INT_vect){
     ac6:	1f 92       	push	r1
     ac8:	0f 92       	push	r0
     aca:	0f b6       	in	r0, 0x3f	; 63
     acc:	0f 92       	push	r0
     ace:	11 24       	eor	r1, r1
     ad0:	2f 93       	push	r18
     ad2:	3f 93       	push	r19
     ad4:	4f 93       	push	r20
     ad6:	8f 93       	push	r24
     ad8:	9f 93       	push	r25
     ada:	ef 93       	push	r30
     adc:	ff 93       	push	r31
    int16_t volCtrl;
    if (*auSmpAddr == 0) auSmpAddr = auRepAddr;
     ade:	e0 91 05 38 	lds	r30, 0x3805	; 0x803805 <auSmpAddr>
     ae2:	f0 91 06 38 	lds	r31, 0x3806	; 0x803806 <auSmpAddr+0x1>
     ae6:	80 81       	ld	r24, Z
     ae8:	81 11       	cpse	r24, r1
     aea:	08 c0       	rjmp	.+16     	; 0xafc <__vector_14+0x36>
     aec:	80 91 03 38 	lds	r24, 0x3803	; 0x803803 <auRepAddr>
     af0:	90 91 04 38 	lds	r25, 0x3804	; 0x803804 <auRepAddr+0x1>
     af4:	80 93 05 38 	sts	0x3805, r24	; 0x803805 <auSmpAddr>
     af8:	90 93 06 38 	sts	0x3806, r25	; 0x803806 <auSmpAddr+0x1>
    if (*auSmpAddr) {
     afc:	e0 91 05 38 	lds	r30, 0x3805	; 0x803805 <auSmpAddr>
     b00:	f0 91 06 38 	lds	r31, 0x3806	; 0x803806 <auSmpAddr+0x1>
     b04:	80 81       	ld	r24, Z
     b06:	88 23       	and	r24, r24
     b08:	e1 f0       	breq	.+56     	; 0xb42 <__vector_14+0x7c>
        volCtrl = ((((int16_t)(*auSmpAddr) - 0x7f) * auVolume) >> 8) + 0x80;
     b0a:	20 81       	ld	r18, Z
     b0c:	40 91 8f 3a 	lds	r20, 0x3A8F	; 0x803a8f <auVolume>
        DAC0_DATA = (uint8_t)(volCtrl);
     b10:	30 e0       	ldi	r19, 0x00	; 0
     b12:	2f 57       	subi	r18, 0x7F	; 127
     b14:	31 09       	sbc	r19, r1
     b16:	42 9f       	mul	r20, r18
     b18:	c0 01       	movw	r24, r0
     b1a:	43 9f       	mul	r20, r19
     b1c:	90 0d       	add	r25, r0
     b1e:	11 24       	eor	r1, r1
     b20:	89 2f       	mov	r24, r25
     b22:	99 0f       	add	r25, r25
     b24:	99 0b       	sbc	r25, r25
     b26:	80 58       	subi	r24, 0x80	; 128
     b28:	9f 4f       	sbci	r25, 0xFF	; 255
     b2a:	80 93 a1 06 	sts	0x06A1, r24	; 0x8006a1 <__TEXT_REGION_LENGTH__+0x7006a1>
        ++auSmpAddr;
     b2e:	80 91 05 38 	lds	r24, 0x3805	; 0x803805 <auSmpAddr>
     b32:	90 91 06 38 	lds	r25, 0x3806	; 0x803806 <auSmpAddr+0x1>
     b36:	01 96       	adiw	r24, 0x01	; 1
     b38:	80 93 05 38 	sts	0x3805, r24	; 0x803805 <auSmpAddr>
     b3c:	90 93 06 38 	sts	0x3806, r25	; 0x803806 <auSmpAddr+0x1>
     b40:	06 c0       	rjmp	.+12     	; 0xb4e <__vector_14+0x88>
    } else {
        DAC0_DATA = 0x80;
     b42:	80 e8       	ldi	r24, 0x80	; 128
     b44:	80 93 a1 06 	sts	0x06A1, r24	; 0x8006a1 <__TEXT_REGION_LENGTH__+0x7006a1>
        auPlayDone = 1;
     b48:	81 e0       	ldi	r24, 0x01	; 1
     b4a:	80 93 cb 3a 	sts	0x3ACB, r24	; 0x803acb <auPlayDone>
    }
    TCB1_INTFLAGS = TCB_CAPT_bm;
     b4e:	81 e0       	ldi	r24, 0x01	; 1
     b50:	80 93 56 0a 	sts	0x0A56, r24	; 0x800a56 <__TEXT_REGION_LENGTH__+0x700a56>
}
     b54:	ff 91       	pop	r31
     b56:	ef 91       	pop	r30
     b58:	9f 91       	pop	r25
     b5a:	8f 91       	pop	r24
     b5c:	4f 91       	pop	r20
     b5e:	3f 91       	pop	r19
     b60:	2f 91       	pop	r18
     b62:	0f 90       	pop	r0
     b64:	0f be       	out	0x3f, r0	; 63
     b66:	0f 90       	pop	r0
     b68:	1f 90       	pop	r1
     b6a:	18 95       	reti

00000b6c <__vector_27>:

// Reads up to RXLEN characters until LF is found, LF sets the serRxDone flag and writes 0 instead of LF.
ISR(USART0_RXC_vect){
     b6c:	1f 92       	push	r1
     b6e:	0f 92       	push	r0
     b70:	0f b6       	in	r0, 0x3f	; 63
     b72:	0f 92       	push	r0
     b74:	11 24       	eor	r1, r1
     b76:	8f 93       	push	r24
     b78:	ef 93       	push	r30
     b7a:	ff 93       	push	r31
    if (serRxDone == 0){
     b7c:	80 91 37 38 	lds	r24, 0x3837	; 0x803837 <serRxDone>
     b80:	81 11       	cpse	r24, r1
     b82:	44 c0       	rjmp	.+136    	; 0xc0c <__vector_27+0xa0>
        serRx[RXCNT] = USART0.RXDATAL;
     b84:	ed b3       	in	r30, 0x1d	; 29
     b86:	f0 e0       	ldi	r31, 0x00	; 0
     b88:	80 91 00 08 	lds	r24, 0x0800	; 0x800800 <__TEXT_REGION_LENGTH__+0x700800>
     b8c:	e2 5b       	subi	r30, 0xB2	; 178
     b8e:	f5 4c       	sbci	r31, 0xC5	; 197
     b90:	80 83       	st	Z, r24
        USART0_TXDATAL = serRx[RXCNT];
     b92:	ed b3       	in	r30, 0x1d	; 29
     b94:	f0 e0       	ldi	r31, 0x00	; 0
     b96:	e2 5b       	subi	r30, 0xB2	; 178
     b98:	f5 4c       	sbci	r31, 0xC5	; 197
     b9a:	80 81       	ld	r24, Z
     b9c:	80 93 02 08 	sts	0x0802, r24	; 0x800802 <__TEXT_REGION_LENGTH__+0x700802>
        if ((serRx[RXCNT] == 0x0A)||(serRx[RXCNT] == 0x0D)){
     ba0:	ed b3       	in	r30, 0x1d	; 29
     ba2:	f0 e0       	ldi	r31, 0x00	; 0
     ba4:	e2 5b       	subi	r30, 0xB2	; 178
     ba6:	f5 4c       	sbci	r31, 0xC5	; 197
     ba8:	80 81       	ld	r24, Z
     baa:	8a 30       	cpi	r24, 0x0A	; 10
     bac:	39 f0       	breq	.+14     	; 0xbbc <__vector_27+0x50>
     bae:	ed b3       	in	r30, 0x1d	; 29
     bb0:	f0 e0       	ldi	r31, 0x00	; 0
     bb2:	e2 5b       	subi	r30, 0xB2	; 178
     bb4:	f5 4c       	sbci	r31, 0xC5	; 197
     bb6:	80 81       	ld	r24, Z
     bb8:	8d 30       	cpi	r24, 0x0D	; 13
     bba:	49 f4       	brne	.+18     	; 0xbce <__vector_27+0x62>
            serRx[RXCNT] = 0;
     bbc:	ed b3       	in	r30, 0x1d	; 29
     bbe:	f0 e0       	ldi	r31, 0x00	; 0
     bc0:	e2 5b       	subi	r30, 0xB2	; 178
     bc2:	f5 4c       	sbci	r31, 0xC5	; 197
     bc4:	10 82       	st	Z, r1
            serRxDone = 1;
     bc6:	81 e0       	ldi	r24, 0x01	; 1
     bc8:	80 93 37 38 	sts	0x3837, r24	; 0x803837 <serRxDone>
     bcc:	1f c0       	rjmp	.+62     	; 0xc0c <__vector_27+0xa0>
        } else if (((serRx[RXCNT] == 0x08)||(serRx[RXCNT] == 0x7F))&&(RXCNT > 0)) {
     bce:	ed b3       	in	r30, 0x1d	; 29
     bd0:	f0 e0       	ldi	r31, 0x00	; 0
     bd2:	e2 5b       	subi	r30, 0xB2	; 178
     bd4:	f5 4c       	sbci	r31, 0xC5	; 197
     bd6:	80 81       	ld	r24, Z
     bd8:	88 30       	cpi	r24, 0x08	; 8
     bda:	39 f0       	breq	.+14     	; 0xbea <__vector_27+0x7e>
     bdc:	ed b3       	in	r30, 0x1d	; 29
     bde:	f0 e0       	ldi	r31, 0x00	; 0
     be0:	e2 5b       	subi	r30, 0xB2	; 178
     be2:	f5 4c       	sbci	r31, 0xC5	; 197
     be4:	80 81       	ld	r24, Z
     be6:	8f 37       	cpi	r24, 0x7F	; 127
     be8:	59 f4       	brne	.+22     	; 0xc00 <__vector_27+0x94>
     bea:	8d b3       	in	r24, 0x1d	; 29
     bec:	88 23       	and	r24, r24
     bee:	41 f0       	breq	.+16     	; 0xc00 <__vector_27+0x94>
            serRx[RXCNT] = 0;
     bf0:	ed b3       	in	r30, 0x1d	; 29
     bf2:	f0 e0       	ldi	r31, 0x00	; 0
     bf4:	e2 5b       	subi	r30, 0xB2	; 178
     bf6:	f5 4c       	sbci	r31, 0xC5	; 197
     bf8:	10 82       	st	Z, r1
            --RXCNT;
     bfa:	8d b3       	in	r24, 0x1d	; 29
     bfc:	81 50       	subi	r24, 0x01	; 1
     bfe:	05 c0       	rjmp	.+10     	; 0xc0a <__vector_27+0x9e>
        } else if (RXCNT < (RXLEN-1)) ++RXCNT;
     c00:	8d b3       	in	r24, 0x1d	; 29
     c02:	80 34       	cpi	r24, 0x40	; 64
     c04:	18 f4       	brcc	.+6      	; 0xc0c <__vector_27+0xa0>
     c06:	8d b3       	in	r24, 0x1d	; 29
     c08:	8f 5f       	subi	r24, 0xFF	; 255
     c0a:	8d bb       	out	0x1d, r24	; 29
    }
    USART0_STATUS = USART_RXCIF_bm;
     c0c:	80 e8       	ldi	r24, 0x80	; 128
     c0e:	80 93 04 08 	sts	0x0804, r24	; 0x800804 <__TEXT_REGION_LENGTH__+0x700804>
};
     c12:	ff 91       	pop	r31
     c14:	ef 91       	pop	r30
     c16:	8f 91       	pop	r24
     c18:	0f 90       	pop	r0
     c1a:	0f be       	out	0x3f, r0	; 63
     c1c:	0f 90       	pop	r0
     c1e:	1f 90       	pop	r1
     c20:	18 95       	reti

00000c22 <__vector_28>:

// Trigger new data write and turn off DRE interrupt.
ISR(USART0_DRE_vect){
     c22:	1f 92       	push	r1
     c24:	0f 92       	push	r0
     c26:	0f b6       	in	r0, 0x3f	; 63
     c28:	0f 92       	push	r0
     c2a:	11 24       	eor	r1, r1
     c2c:	8f 93       	push	r24
     c2e:	ef 93       	push	r30
     c30:	ff 93       	push	r31
    TCB0_CNT = 0;
     c32:	10 92 4a 0a 	sts	0x0A4A, r1	; 0x800a4a <__TEXT_REGION_LENGTH__+0x700a4a>
     c36:	10 92 4b 0a 	sts	0x0A4B, r1	; 0x800a4b <__TEXT_REGION_LENGTH__+0x700a4b>
    TCB0_INTCTRL = 0x01;
     c3a:	81 e0       	ldi	r24, 0x01	; 1
     c3c:	80 93 45 0a 	sts	0x0A45, r24	; 0x800a45 <__TEXT_REGION_LENGTH__+0x700a45>
    USART0_CTRLA &= ~(USART_DREIE_bm);
     c40:	e5 e0       	ldi	r30, 0x05	; 5
     c42:	f8 e0       	ldi	r31, 0x08	; 8
     c44:	80 81       	ld	r24, Z
     c46:	8f 7d       	andi	r24, 0xDF	; 223
     c48:	80 83       	st	Z, r24
};
     c4a:	ff 91       	pop	r31
     c4c:	ef 91       	pop	r30
     c4e:	8f 91       	pop	r24
     c50:	0f 90       	pop	r0
     c52:	0f be       	out	0x3f, r0	; 63
     c54:	0f 90       	pop	r0
     c56:	1f 90       	pop	r1
     c58:	18 95       	reti

00000c5a <__vector_20>:

// ADC used for audio input and temperature sensor.
ISR(ADC0_RESRDY_vect){
     c5a:	1f 92       	push	r1
     c5c:	0f 92       	push	r0
     c5e:	0f b6       	in	r0, 0x3f	; 63
     c60:	0f 92       	push	r0
     c62:	11 24       	eor	r1, r1
     c64:	8f 93       	push	r24
     c66:	9f 93       	push	r25
     c68:	ef 93       	push	r30
     c6a:	ff 93       	push	r31
    //If just switched reference, discard first few samples
    if (adc0Chg == 0){
     c6c:	80 91 2a 38 	lds	r24, 0x382A	; 0x80382a <adc0Chg>
     c70:	81 11       	cpse	r24, r1
     c72:	18 c0       	rjmp	.+48     	; 0xca4 <__vector_20+0x4a>
        AUPOS = (AUPOS+1)&(AULEN-1);
     c74:	8e b3       	in	r24, 0x1e	; 30
     c76:	8f 5f       	subi	r24, 0xFF	; 255
     c78:	87 70       	andi	r24, 0x07	; 7
     c7a:	8e bb       	out	0x1e, r24	; 30
        if (ADC0_MUXPOS == 0x1E) adcTemp = ADC0_RESL; else auIn[AUPOS]=ADC0_RESL;
     c7c:	80 91 06 06 	lds	r24, 0x0606	; 0x800606 <__TEXT_REGION_LENGTH__+0x700606>
     c80:	8e 31       	cpi	r24, 0x1E	; 30
     c82:	41 f4       	brne	.+16     	; 0xc94 <__vector_20+0x3a>
     c84:	80 91 10 06 	lds	r24, 0x0610	; 0x800610 <__TEXT_REGION_LENGTH__+0x700610>
     c88:	90 e0       	ldi	r25, 0x00	; 0
     c8a:	80 93 ce 3a 	sts	0x3ACE, r24	; 0x803ace <adcTemp>
     c8e:	90 93 cf 3a 	sts	0x3ACF, r25	; 0x803acf <adcTemp+0x1>
     c92:	0d c0       	rjmp	.+26     	; 0xcae <__vector_20+0x54>
     c94:	ee b3       	in	r30, 0x1e	; 30
     c96:	f0 e0       	ldi	r31, 0x00	; 0
     c98:	80 91 10 06 	lds	r24, 0x0610	; 0x800610 <__TEXT_REGION_LENGTH__+0x700610>
     c9c:	e5 56       	subi	r30, 0x65	; 101
     c9e:	f5 4c       	sbci	r31, 0xC5	; 197
     ca0:	80 83       	st	Z, r24
     ca2:	05 c0       	rjmp	.+10     	; 0xcae <__vector_20+0x54>
    } else --adc0Chg;
     ca4:	80 91 2a 38 	lds	r24, 0x382A	; 0x80382a <adc0Chg>
     ca8:	81 50       	subi	r24, 0x01	; 1
     caa:	80 93 2a 38 	sts	0x382A, r24	; 0x80382a <adc0Chg>
    ADC0_INTFLAGS = ADC_RESRDY_bm;
     cae:	81 e0       	ldi	r24, 0x01	; 1
     cb0:	80 93 0b 06 	sts	0x060B, r24	; 0x80060b <__TEXT_REGION_LENGTH__+0x70060b>
}
     cb4:	ff 91       	pop	r31
     cb6:	ef 91       	pop	r30
     cb8:	9f 91       	pop	r25
     cba:	8f 91       	pop	r24
     cbc:	0f 90       	pop	r0
     cbe:	0f be       	out	0x3f, r0	; 63
     cc0:	0f 90       	pop	r0
     cc2:	1f 90       	pop	r1
     cc4:	18 95       	reti

00000cc6 <__vector_22>:

// Reads out sensors at 8Hz and buttons at 42Hz (timed by PIT), power for the sensors is on 1/8th of the time to save power.
ISR(ADC1_RESRDY_vect){
     cc6:	1f 92       	push	r1
     cc8:	0f 92       	push	r0
     cca:	0f b6       	in	r0, 0x3f	; 63
     ccc:	0f 92       	push	r0
     cce:	11 24       	eor	r1, r1
     cd0:	8f 93       	push	r24
     cd2:	9f 93       	push	r25
    if (ADC1_MUXPOS == 0) {
     cd4:	80 91 46 06 	lds	r24, 0x0646	; 0x800646 <__TEXT_REGION_LENGTH__+0x700646>
     cd8:	81 11       	cpse	r24, r1
     cda:	0a c0       	rjmp	.+20     	; 0xcf0 <__vector_22+0x2a>
        adcPhot = ADC1_RES;
     cdc:	80 91 50 06 	lds	r24, 0x0650	; 0x800650 <__TEXT_REGION_LENGTH__+0x700650>
     ce0:	90 91 51 06 	lds	r25, 0x0651	; 0x800651 <__TEXT_REGION_LENGTH__+0x700651>
     ce4:	80 93 96 3a 	sts	0x3A96, r24	; 0x803a96 <adcPhot>
     ce8:	90 93 97 3a 	sts	0x3A97, r25	; 0x803a97 <adcPhot+0x1>
        ADC1_MUXPOS = 0x01;             //Select Hall sensor
     cec:	81 e0       	ldi	r24, 0x01	; 1
     cee:	10 c0       	rjmp	.+32     	; 0xd10 <__vector_22+0x4a>
    } else if (ADC1_MUXPOS == 1){
     cf0:	80 91 46 06 	lds	r24, 0x0646	; 0x800646 <__TEXT_REGION_LENGTH__+0x700646>
     cf4:	81 30       	cpi	r24, 0x01	; 1
     cf6:	79 f4       	brne	.+30     	; 0xd16 <__vector_22+0x50>
        PORTA_OUTCLR = 0b00001000;      //Turn off sensor power
     cf8:	88 e0       	ldi	r24, 0x08	; 8
     cfa:	80 93 06 04 	sts	0x0406, r24	; 0x800406 <__TEXT_REGION_LENGTH__+0x700406>
        adcHall = ADC1_RES;
     cfe:	80 91 50 06 	lds	r24, 0x0650	; 0x800650 <__TEXT_REGION_LENGTH__+0x700650>
     d02:	90 91 51 06 	lds	r25, 0x0651	; 0x800651 <__TEXT_REGION_LENGTH__+0x700651>
     d06:	80 93 94 3a 	sts	0x3A94, r24	; 0x803a94 <adcHall>
     d0a:	90 93 95 3a 	sts	0x3A95, r25	; 0x803a95 <adcHall+0x1>
        ADC1_MUXPOS = 0x04;             //select buttons
     d0e:	84 e0       	ldi	r24, 0x04	; 4
     d10:	80 93 46 06 	sts	0x0646, r24	; 0x800646 <__TEXT_REGION_LENGTH__+0x700646>
     d14:	10 c0       	rjmp	.+32     	; 0xd36 <__vector_22+0x70>
    } else {
        adcBtns = ADC1_RES;
     d16:	80 91 50 06 	lds	r24, 0x0650	; 0x800650 <__TEXT_REGION_LENGTH__+0x700650>
     d1a:	90 91 51 06 	lds	r25, 0x0651	; 0x800651 <__TEXT_REGION_LENGTH__+0x700651>
     d1e:	80 93 90 3a 	sts	0x3A90, r24	; 0x803a90 <adcBtns>
     d22:	90 93 91 3a 	sts	0x3A91, r25	; 0x803a91 <adcBtns+0x1>
        if (A1CNT == 15){
     d26:	8f b3       	in	r24, 0x1f	; 31
     d28:	8f 30       	cpi	r24, 0x0F	; 15
     d2a:	29 f4       	brne	.+10     	; 0xd36 <__vector_22+0x70>
            ADC1_MUXPOS = 0x00;         //Select photo transistor
     d2c:	10 92 46 06 	sts	0x0646, r1	; 0x800646 <__TEXT_REGION_LENGTH__+0x700646>
            PORTA_OUTSET = 0b00001000;  //Turn on sensor power
     d30:	88 e0       	ldi	r24, 0x08	; 8
     d32:	80 93 05 04 	sts	0x0405, r24	; 0x800405 <__TEXT_REGION_LENGTH__+0x700405>
        }
    }

    A1CNT=(A1CNT+1)%16;        
     d36:	8f b3       	in	r24, 0x1f	; 31
     d38:	90 e0       	ldi	r25, 0x00	; 0
     d3a:	01 96       	adiw	r24, 0x01	; 1
     d3c:	8f 70       	andi	r24, 0x0F	; 15
     d3e:	99 27       	eor	r25, r25
     d40:	8f bb       	out	0x1f, r24	; 31
    ADC1_INTFLAGS = ADC_RESRDY_bm;
     d42:	81 e0       	ldi	r24, 0x01	; 1
     d44:	80 93 4b 06 	sts	0x064B, r24	; 0x80064b <__TEXT_REGION_LENGTH__+0x70064b>
}
     d48:	9f 91       	pop	r25
     d4a:	8f 91       	pop	r24
     d4c:	0f 90       	pop	r0
     d4e:	0f be       	out	0x3f, r0	; 63
     d50:	0f 90       	pop	r0
     d52:	1f 90       	pop	r1
     d54:	18 95       	reti

00000d56 <__vector_6>:

// RTC compare interrupt, triggers at 512/BTN_TMR rate, also RTC overflow interrupt, triggers once a minute
ISR(RTC_CNT_vect) {
     d56:	1f 92       	push	r1
     d58:	0f 92       	push	r0
     d5a:	0f b6       	in	r0, 0x3f	; 63
     d5c:	0f 92       	push	r0
     d5e:	11 24       	eor	r1, r1
     d60:	5f 93       	push	r21
     d62:	6f 93       	push	r22
     d64:	7f 93       	push	r23
     d66:	8f 93       	push	r24
     d68:	9f 93       	push	r25
     d6a:	af 93       	push	r26
     d6c:	bf 93       	push	r27
    if (RTC_INTFLAGS & RTC_CMP_bm){
     d6e:	80 91 43 01 	lds	r24, 0x0143	; 0x800143 <__TEXT_REGION_LENGTH__+0x700143>
     d72:	81 ff       	sbrs	r24, 1
     d74:	26 c0       	rjmp	.+76     	; 0xdc2 <__vector_6+0x6c>
        if (buttonMark<0xff) buttonMark++;   // For button timing purposes
     d76:	80 91 35 38 	lds	r24, 0x3835	; 0x803835 <buttonMark>
     d7a:	8f 3f       	cpi	r24, 0xFF	; 255
     d7c:	29 f0       	breq	.+10     	; 0xd88 <__vector_6+0x32>
     d7e:	80 91 35 38 	lds	r24, 0x3835	; 0x803835 <buttonMark>
     d82:	8f 5f       	subi	r24, 0xFF	; 255
     d84:	80 93 35 38 	sts	0x3835, r24	; 0x803835 <buttonMark>
        tmp16bit = (RTC_CNT + BTN_TMR)%RTC_PER;
     d88:	80 91 48 01 	lds	r24, 0x0148	; 0x800148 <__TEXT_REGION_LENGTH__+0x700148>
     d8c:	90 91 49 01 	lds	r25, 0x0149	; 0x800149 <__TEXT_REGION_LENGTH__+0x700149>
     d90:	60 91 4a 01 	lds	r22, 0x014A	; 0x80014a <__TEXT_REGION_LENGTH__+0x70014a>
     d94:	70 91 4b 01 	lds	r23, 0x014B	; 0x80014b <__TEXT_REGION_LENGTH__+0x70014b>
     d98:	82 96       	adiw	r24, 0x22	; 34
     d9a:	0e 94 81 1a 	call	0x3502	; 0x3502 <__udivmodhi4>
     d9e:	80 93 d0 3a 	sts	0x3AD0, r24	; 0x803ad0 <tmp16bit>
     da2:	90 93 d1 3a 	sts	0x3AD1, r25	; 0x803ad1 <tmp16bit+0x1>
        while(RTC_STATUS & RTC_CMPBUSY_bm);
     da6:	80 91 41 01 	lds	r24, 0x0141	; 0x800141 <__TEXT_REGION_LENGTH__+0x700141>
     daa:	83 fd       	sbrc	r24, 3
     dac:	fc cf       	rjmp	.-8      	; 0xda6 <__vector_6+0x50>
        RTC_CMP = tmp16bit;                 // Button timing: next interrupt set
     dae:	80 91 d0 3a 	lds	r24, 0x3AD0	; 0x803ad0 <tmp16bit>
     db2:	90 91 d1 3a 	lds	r25, 0x3AD1	; 0x803ad1 <tmp16bit+0x1>
     db6:	80 93 4c 01 	sts	0x014C, r24	; 0x80014c <__TEXT_REGION_LENGTH__+0x70014c>
     dba:	90 93 4d 01 	sts	0x014D, r25	; 0x80014d <__TEXT_REGION_LENGTH__+0x70014d>
        RTC_INTFLAGS = RTC_CMP_bm;		    // clear interrupt flag
     dbe:	82 e0       	ldi	r24, 0x02	; 2
     dc0:	06 c0       	rjmp	.+12     	; 0xdce <__vector_6+0x78>
    } else {
        minuteMark++;                       // For very slow timing purposes, overflows to 0
     dc2:	80 91 36 38 	lds	r24, 0x3836	; 0x803836 <minuteMark>
     dc6:	8f 5f       	subi	r24, 0xFF	; 255
     dc8:	80 93 36 38 	sts	0x3836, r24	; 0x803836 <minuteMark>
        RTC_INTFLAGS = RTC_OVF_bm;		    // clear interrupt flag
     dcc:	81 e0       	ldi	r24, 0x01	; 1
     dce:	80 93 43 01 	sts	0x0143, r24	; 0x800143 <__TEXT_REGION_LENGTH__+0x700143>
    }
}
     dd2:	bf 91       	pop	r27
     dd4:	af 91       	pop	r26
     dd6:	9f 91       	pop	r25
     dd8:	8f 91       	pop	r24
     dda:	7f 91       	pop	r23
     ddc:	6f 91       	pop	r22
     dde:	5f 91       	pop	r21
     de0:	0f 90       	pop	r0
     de2:	0f be       	out	0x3f, r0	; 63
     de4:	0f 90       	pop	r0
     de6:	1f 90       	pop	r1
     de8:	18 95       	reti

00000dea <__vector_7>:

// PIT interrupt (timing of ADC1: sensor values)
ISR(RTC_PIT_vect) {						// PIT interrupt handling code
     dea:	1f 92       	push	r1
     dec:	0f 92       	push	r0
     dee:	0f b6       	in	r0, 0x3f	; 63
     df0:	0f 92       	push	r0
     df2:	11 24       	eor	r1, r1
     df4:	8f 93       	push	r24
    ADC1_COMMAND = 0x01;
     df6:	81 e0       	ldi	r24, 0x01	; 1
     df8:	80 93 48 06 	sts	0x0648, r24	; 0x800648 <__TEXT_REGION_LENGTH__+0x700648>
    RTC_PITINTFLAGS = RTC_PI_bm;		// clear interrupt flag
     dfc:	80 93 53 01 	sts	0x0153, r24	; 0x800153 <__TEXT_REGION_LENGTH__+0x700153>
}
     e00:	8f 91       	pop	r24
     e02:	0f 90       	pop	r0
     e04:	0f be       	out	0x3f, r0	; 63
     e06:	0f 90       	pop	r0
     e08:	1f 90       	pop	r1
     e0a:	18 95       	reti

00000e0c <EERead>:

// Read bytes from EEPROM
void EERead(uint8_t eeAddr, uint8_t *eeValues, uint8_t size)
{
    while(NVMCTRL_STATUS & NVMCTRL_EEBUSY_bm);              // Wait until any write operation has finished
     e0c:	90 91 02 10 	lds	r25, 0x1002	; 0x801002 <__TEXT_REGION_LENGTH__+0x701002>
     e10:	91 fd       	sbrc	r25, 1
     e12:	fc cf       	rjmp	.-8      	; 0xe0c <EERead>
     e14:	fb 01       	movw	r30, r22
     e16:	48 0f       	add	r20, r24

    while(size){
     e18:	84 17       	cp	r24, r20
     e1a:	39 f0       	breq	.+14     	; 0xe2a <EERead+0x1e>
        *eeValues++ = *(uint8_t *)(EEPROM_START+eeAddr++);  // Read data from buffer
     e1c:	a8 2f       	mov	r26, r24
     e1e:	b0 e0       	ldi	r27, 0x00	; 0
     e20:	bc 5e       	subi	r27, 0xEC	; 236
     e22:	9c 91       	ld	r25, X
     e24:	91 93       	st	Z+, r25
     e26:	8f 5f       	subi	r24, 0xFF	; 255
     e28:	f7 cf       	rjmp	.-18     	; 0xe18 <EERead+0xc>
        --size;
    }
}
     e2a:	08 95       	ret

00000e2c <EEWrite>:
{
    uint8_t lastByteOfPage;
    while(size){
        lastByteOfPage = 0;
        while(NVMCTRL_STATUS & NVMCTRL_EEBUSY_bm);              // Wait until any write operation has finished
        CCP = CCP_SPM_gc;                                       // Gain access to NVMCTRL_CTRLA
     e2c:	9d e9       	ldi	r25, 0x9D	; 157
        NVMCTRL_CTRLA = NVMCTRL_CMD_PAGEBUFCLR_gc;              // Clear page buffer
     e2e:	24 e0       	ldi	r18, 0x04	; 4
            if ((eeAddr % EEPROM_PAGE_SIZE) == (EEPROM_PAGE_SIZE-1)) lastByteOfPage = 1;
            *(uint8_t *)(EEPROM_START+eeAddr++) = *eeValues++;  // Write data to buffer
            --size;
        }
        CCP = CCP_SPM_gc;
        NVMCTRL_CTRLA = NVMCTRL_CMD_PAGEERASEWRITE_gc;          // Erase old data and write new data to EEPROM
     e30:	33 e0       	ldi	r19, 0x03	; 3

// Write bytes to the EEPROM, if address exceeds EEPROM space data wraps around
uint8_t EEWrite(uint8_t eeAddr, uint8_t *eeValues, uint8_t size)
{
    uint8_t lastByteOfPage;
    while(size){
     e32:	44 23       	and	r20, r20
     e34:	09 f1       	breq	.+66     	; 0xe78 <EEWrite+0x4c>
        lastByteOfPage = 0;
        while(NVMCTRL_STATUS & NVMCTRL_EEBUSY_bm);              // Wait until any write operation has finished
     e36:	50 91 02 10 	lds	r21, 0x1002	; 0x801002 <__TEXT_REGION_LENGTH__+0x701002>
     e3a:	51 fd       	sbrc	r21, 1
     e3c:	fc cf       	rjmp	.-8      	; 0xe36 <EEWrite+0xa>
        CCP = CCP_SPM_gc;                                       // Gain access to NVMCTRL_CTRLA
     e3e:	94 bf       	out	0x34, r25	; 52
        NVMCTRL_CTRLA = NVMCTRL_CMD_PAGEBUFCLR_gc;              // Clear page buffer
     e40:	20 93 00 10 	sts	0x1000, r18	; 0x801000 <__TEXT_REGION_LENGTH__+0x701000>
     e44:	e8 2f       	mov	r30, r24
        while((size) && (lastByteOfPage == 0)){
            if ((eeAddr % EEPROM_PAGE_SIZE) == (EEPROM_PAGE_SIZE-1)) lastByteOfPage = 1;
     e46:	58 2f       	mov	r21, r24
     e48:	5f 71       	andi	r21, 0x1F	; 31
            *(uint8_t *)(EEPROM_START+eeAddr++) = *eeValues++;  // Write data to buffer
     e4a:	8f 5f       	subi	r24, 0xFF	; 255
     e4c:	6f 5f       	subi	r22, 0xFF	; 255
     e4e:	7f 4f       	sbci	r23, 0xFF	; 255
     e50:	db 01       	movw	r26, r22
     e52:	11 97       	sbiw	r26, 0x01	; 1
     e54:	ac 91       	ld	r26, X
     e56:	f0 e0       	ldi	r31, 0x00	; 0
     e58:	fc 5e       	subi	r31, 0xEC	; 236
     e5a:	a0 83       	st	Z, r26
            --size;
     e5c:	41 50       	subi	r20, 0x01	; 1
    while(size){
        lastByteOfPage = 0;
        while(NVMCTRL_STATUS & NVMCTRL_EEBUSY_bm);              // Wait until any write operation has finished
        CCP = CCP_SPM_gc;                                       // Gain access to NVMCTRL_CTRLA
        NVMCTRL_CTRLA = NVMCTRL_CMD_PAGEBUFCLR_gc;              // Clear page buffer
        while((size) && (lastByteOfPage == 0)){
     e5e:	19 f0       	breq	.+6      	; 0xe66 <EEWrite+0x3a>
            if ((eeAddr % EEPROM_PAGE_SIZE) == (EEPROM_PAGE_SIZE-1)) lastByteOfPage = 1;
            *(uint8_t *)(EEPROM_START+eeAddr++) = *eeValues++;  // Write data to buffer
     e60:	e8 2f       	mov	r30, r24
    while(size){
        lastByteOfPage = 0;
        while(NVMCTRL_STATUS & NVMCTRL_EEBUSY_bm);              // Wait until any write operation has finished
        CCP = CCP_SPM_gc;                                       // Gain access to NVMCTRL_CTRLA
        NVMCTRL_CTRLA = NVMCTRL_CMD_PAGEBUFCLR_gc;              // Clear page buffer
        while((size) && (lastByteOfPage == 0)){
     e62:	5f 31       	cpi	r21, 0x1F	; 31
     e64:	81 f7       	brne	.-32     	; 0xe46 <EEWrite+0x1a>
            if ((eeAddr % EEPROM_PAGE_SIZE) == (EEPROM_PAGE_SIZE-1)) lastByteOfPage = 1;
            *(uint8_t *)(EEPROM_START+eeAddr++) = *eeValues++;  // Write data to buffer
            --size;
        }
        CCP = CCP_SPM_gc;
     e66:	94 bf       	out	0x34, r25	; 52
        NVMCTRL_CTRLA = NVMCTRL_CMD_PAGEERASEWRITE_gc;          // Erase old data and write new data to EEPROM
     e68:	30 93 00 10 	sts	0x1000, r19	; 0x801000 <__TEXT_REGION_LENGTH__+0x701000>
        if (NVMCTRL_STATUS & NVMCTRL_WRERROR_bm) return 1;
     e6c:	50 91 02 10 	lds	r21, 0x1002	; 0x801002 <__TEXT_REGION_LENGTH__+0x701002>
     e70:	52 ff       	sbrs	r21, 2
     e72:	df cf       	rjmp	.-66     	; 0xe32 <EEWrite+0x6>
     e74:	81 e0       	ldi	r24, 0x01	; 1
    }
    return 0;
}
     e76:	08 95       	ret
        }
        CCP = CCP_SPM_gc;
        NVMCTRL_CTRLA = NVMCTRL_CMD_PAGEERASEWRITE_gc;          // Erase old data and write new data to EEPROM
        if (NVMCTRL_STATUS & NVMCTRL_WRERROR_bm) return 1;
    }
    return 0;
     e78:	80 e0       	ldi	r24, 0x00	; 0
     e7a:	08 95       	ret

00000e7c <SerSend>:
}

// Sends a set of characters to the serial port, stops only when character value 0 is reached.
uint8_t SerSend(unsigned char *addr){
    if (serTxDone){
     e7c:	20 91 08 38 	lds	r18, 0x3808	; 0x803808 <serTxDone>
     e80:	22 23       	and	r18, r18
     e82:	59 f0       	breq	.+22     	; 0xe9a <SerSend+0x1e>
        serTxAddr = addr;
     e84:	80 93 92 3a 	sts	0x3A92, r24	; 0x803a92 <serTxAddr>
     e88:	90 93 93 3a 	sts	0x3A93, r25	; 0x803a93 <serTxAddr+0x1>
        serTxDone = 0;
     e8c:	10 92 08 38 	sts	0x3808, r1	; 0x803808 <serTxDone>
        TCB0_INTCTRL = 0x01;
     e90:	81 e0       	ldi	r24, 0x01	; 1
     e92:	80 93 45 0a 	sts	0x0A45, r24	; 0x800a45 <__TEXT_REGION_LENGTH__+0x700a45>
        return 0;
     e96:	80 e0       	ldi	r24, 0x00	; 0
     e98:	08 95       	ret
    } else return 1;    //Error: Still sending data
     e9a:	81 e0       	ldi	r24, 0x01	; 1
};
     e9c:	08 95       	ret

00000e9e <SerSpeed>:

// Set serial character output speed, 255-0 (0.8 to 100ms delay between characters)
void SerSpeed(uint8_t serSpd){
     e9e:	28 2f       	mov	r18, r24
    if (serSpd<1) serSpd = 1;
     ea0:	81 11       	cpse	r24, r1
     ea2:	01 c0       	rjmp	.+2      	; 0xea6 <SerSpeed+0x8>
     ea4:	21 e0       	ldi	r18, 0x01	; 1
    TCB0_CCMP = ((uint16_t)(0xFF-serSpd)<<8) + 0xFF;
     ea6:	8f ef       	ldi	r24, 0xFF	; 255
     ea8:	90 e0       	ldi	r25, 0x00	; 0
     eaa:	82 1b       	sub	r24, r18
     eac:	91 09       	sbc	r25, r1
     eae:	98 2f       	mov	r25, r24
     eb0:	88 27       	eor	r24, r24
     eb2:	81 50       	subi	r24, 0x01	; 1
     eb4:	9f 4f       	sbci	r25, 0xFF	; 255
     eb6:	80 93 4c 0a 	sts	0x0A4C, r24	; 0x800a4c <__TEXT_REGION_LENGTH__+0x700a4c>
     eba:	90 93 4d 0a 	sts	0x0A4D, r25	; 0x800a4d <__TEXT_REGION_LENGTH__+0x700a4d>
     ebe:	08 95       	ret

00000ec0 <SelectTSens>:
};

// Select temperature sensor
void SelectTSens(){
     VREF_CTRLA   = 0x12;    //0x22 for audio in/out (2.5V), 0x12 for temperature in, audio out (1.1V/2.5V)
     ec0:	82 e1       	ldi	r24, 0x12	; 18
     ec2:	80 93 a0 00 	sts	0x00A0, r24	; 0x8000a0 <__TEXT_REGION_LENGTH__+0x7000a0>
     ADC0_CTRLA   |= ADC_RESSEL_bm;
     ec6:	e0 e0       	ldi	r30, 0x00	; 0
     ec8:	f6 e0       	ldi	r31, 0x06	; 6
     eca:	80 81       	ld	r24, Z
     ecc:	84 60       	ori	r24, 0x04	; 4
     ece:	80 83       	st	Z, r24
     ADC0_MUXPOS  = 0x1E;    //Audio in: AIN7 at (0x07), Temperature: Internal sensor at (0x1E)
     ed0:	8e e1       	ldi	r24, 0x1E	; 30
     ed2:	80 93 06 06 	sts	0x0606, r24	; 0x800606 <__TEXT_REGION_LENGTH__+0x700606>
     adc0Chg = 3;
     ed6:	83 e0       	ldi	r24, 0x03	; 3
     ed8:	80 93 2a 38 	sts	0x382A, r24	; 0x80382a <adc0Chg>
     edc:	08 95       	ret

00000ede <SelectAuIn>:
};

// Select "audio" input (0-2.5V)
void SelectAuIn(){
     VREF_CTRLA   = 0x22;    //0x22 for audio in/out (2.5V), 0x12 for temperature in, audio out (1.1V/2.5V)
     ede:	82 e2       	ldi	r24, 0x22	; 34
     ee0:	80 93 a0 00 	sts	0x00A0, r24	; 0x8000a0 <__TEXT_REGION_LENGTH__+0x7000a0>
     ADC0_CTRLA   &= ~(ADC_RESSEL_bm);
     ee4:	e0 e0       	ldi	r30, 0x00	; 0
     ee6:	f6 e0       	ldi	r31, 0x06	; 6
     ee8:	80 81       	ld	r24, Z
     eea:	8b 7f       	andi	r24, 0xFB	; 251
     eec:	80 83       	st	Z, r24
     ADC0_MUXPOS  = 0x07;    //Audio in: AIN7 at (0x07), Temperature: Internal sensor at (0x1E)
     eee:	87 e0       	ldi	r24, 0x07	; 7
     ef0:	80 93 06 06 	sts	0x0606, r24	; 0x800606 <__TEXT_REGION_LENGTH__+0x700606>
     adc0Chg = 3;
     ef4:	83 e0       	ldi	r24, 0x03	; 3
     ef6:	80 93 2a 38 	sts	0x382A, r24	; 0x80382a <adc0Chg>
     efa:	08 95       	ret

00000efc <CheckButtons>:
};

// Returns button combination (4LSB) and number of consecutive times this combination is detected. First read should always be ignored! 
uint8_t CheckButtons(uint8_t previousValue){
    uint8_t bADC = (uint8_t)(adcBtns>>4);
     efc:	20 91 90 3a 	lds	r18, 0x3A90	; 0x803a90 <adcBtns>
     f00:	30 91 91 3a 	lds	r19, 0x3A91	; 0x803a91 <adcBtns+0x1>
    uint8_t bNibble = 0x0F;     //MSB to LSB: Bottom left, top left, top right, bottom right, 0F is error
    
    switch(bADC){
     f04:	94 e0       	ldi	r25, 0x04	; 4
     f06:	36 95       	lsr	r19
     f08:	27 95       	ror	r18
     f0a:	9a 95       	dec	r25
     f0c:	e1 f7       	brne	.-8      	; 0xf06 <CheckButtons+0xa>
     f0e:	33 27       	eor	r19, r19
     f10:	2c 35       	cpi	r18, 0x5C	; 92
     f12:	31 05       	cpc	r19, r1
     f14:	d0 f4       	brcc	.+52     	; 0xf4a <CheckButtons+0x4e>
     f16:	23 35       	cpi	r18, 0x53	; 83
     f18:	31 05       	cpc	r19, r1
     f1a:	a8 f5       	brcc	.+106    	; 0xf86 <CheckButtons+0x8a>
     f1c:	22 33       	cpi	r18, 0x32	; 50
     f1e:	31 05       	cpc	r19, r1
     f20:	50 f4       	brcc	.+20     	; 0xf36 <CheckButtons+0x3a>
     f22:	2d 32       	cpi	r18, 0x2D	; 45
     f24:	31 05       	cpc	r19, r1
     f26:	58 f5       	brcc	.+86     	; 0xf7e <CheckButtons+0x82>
     f28:	23 52       	subi	r18, 0x23	; 35
     f2a:	31 09       	sbc	r19, r1
     f2c:	25 30       	cpi	r18, 0x05	; 5
     f2e:	31 05       	cpc	r19, r1
     f30:	80 f5       	brcc	.+96     	; 0xf92 <CheckButtons+0x96>

        case 35 ... 39:          //37: Both left
        bNibble = 0b1100;
     f32:	9c e0       	ldi	r25, 0x0C	; 12
     f34:	2f c0       	rjmp	.+94     	; 0xf94 <CheckButtons+0x98>
// Returns button combination (4LSB) and number of consecutive times this combination is detected. First read should always be ignored! 
uint8_t CheckButtons(uint8_t previousValue){
    uint8_t bADC = (uint8_t)(adcBtns>>4);
    uint8_t bNibble = 0x0F;     //MSB to LSB: Bottom left, top left, top right, bottom right, 0F is error
    
    switch(bADC){
     f36:	27 33       	cpi	r18, 0x37	; 55
     f38:	31 05       	cpc	r19, r1
     f3a:	18 f1       	brcs	.+70     	; 0xf82 <CheckButtons+0x86>
     f3c:	2e 53       	subi	r18, 0x3E	; 62
     f3e:	31 09       	sbc	r19, r1
     f40:	27 30       	cpi	r18, 0x07	; 7
     f42:	31 05       	cpc	r19, r1
     f44:	30 f5       	brcc	.+76     	; 0xf92 <CheckButtons+0x96>
        case 50 ... 54:          //52: Bottom left
        bNibble = 0b1000;
        break;

        case 62 ... 68:          //65: Both top
        bNibble = 0b0110;
     f46:	96 e0       	ldi	r25, 0x06	; 6
        break;
     f48:	25 c0       	rjmp	.+74     	; 0xf94 <CheckButtons+0x98>
// Returns button combination (4LSB) and number of consecutive times this combination is detected. First read should always be ignored! 
uint8_t CheckButtons(uint8_t previousValue){
    uint8_t bADC = (uint8_t)(adcBtns>>4);
    uint8_t bNibble = 0x0F;     //MSB to LSB: Bottom left, top left, top right, bottom right, 0F is error
    
    switch(bADC){
     f4a:	2a 38       	cpi	r18, 0x8A	; 138
     f4c:	31 05       	cpc	r19, r1
     f4e:	50 f4       	brcc	.+20     	; 0xf64 <CheckButtons+0x68>
     f50:	29 37       	cpi	r18, 0x79	; 121
     f52:	31 05       	cpc	r19, r1
     f54:	d0 f4       	brcc	.+52     	; 0xf8a <CheckButtons+0x8e>
     f56:	23 56       	subi	r18, 0x63	; 99
     f58:	31 09       	sbc	r19, r1
     f5a:	2b 30       	cpi	r18, 0x0B	; 11
     f5c:	31 05       	cpc	r19, r1
     f5e:	c8 f4       	brcc	.+50     	; 0xf92 <CheckButtons+0x96>
        case 83 ... 91:          //87: Top left
        bNibble = 0b0100;
        break;

        case 99 ... 109:         //104: Both right
        bNibble = 0b0011;
     f60:	93 e0       	ldi	r25, 0x03	; 3
        break;
     f62:	18 c0       	rjmp	.+48     	; 0xf94 <CheckButtons+0x98>
// Returns button combination (4LSB) and number of consecutive times this combination is detected. First read should always be ignored! 
uint8_t CheckButtons(uint8_t previousValue){
    uint8_t bADC = (uint8_t)(adcBtns>>4);
    uint8_t bNibble = 0x0F;     //MSB to LSB: Bottom left, top left, top right, bottom right, 0F is error
    
    switch(bADC){
     f64:	22 3a       	cpi	r18, 0xA2	; 162
     f66:	31 05       	cpc	r19, r1
     f68:	a0 f0       	brcs	.+40     	; 0xf92 <CheckButtons+0x96>
     f6a:	2b 3b       	cpi	r18, 0xBB	; 187
     f6c:	31 05       	cpc	r19, r1
     f6e:	78 f0       	brcs	.+30     	; 0xf8e <CheckButtons+0x92>
     f70:	20 5f       	subi	r18, 0xF0	; 240
     f72:	31 09       	sbc	r19, r1
     f74:	20 31       	cpi	r18, 0x10	; 16
     f76:	31 05       	cpc	r19, r1
     f78:	60 f4       	brcc	.+24     	; 0xf92 <CheckButtons+0x96>
        case 162 ... 186:        //174: Bottom right
        bNibble = 0b0001;
        break;

        case 240 ... 255:        //255: No button pressed
        bNibble = 0b0000;
     f7a:	90 e0       	ldi	r25, 0x00	; 0
        break;
     f7c:	0b c0       	rjmp	.+22     	; 0xf94 <CheckButtons+0x98>
        case 35 ... 39:          //37: Both left
        bNibble = 0b1100;
        break;

        case 45 ... 49:          //47: Both bottom
        bNibble = 0b1001;
     f7e:	99 e0       	ldi	r25, 0x09	; 9
        break;
     f80:	09 c0       	rjmp	.+18     	; 0xf94 <CheckButtons+0x98>

        case 50 ... 54:          //52: Bottom left
        bNibble = 0b1000;
     f82:	98 e0       	ldi	r25, 0x08	; 8
        break;
     f84:	07 c0       	rjmp	.+14     	; 0xf94 <CheckButtons+0x98>
        case 62 ... 68:          //65: Both top
        bNibble = 0b0110;
        break;

        case 83 ... 91:          //87: Top left
        bNibble = 0b0100;
     f86:	94 e0       	ldi	r25, 0x04	; 4
        break;
     f88:	05 c0       	rjmp	.+10     	; 0xf94 <CheckButtons+0x98>
        case 99 ... 109:         //104: Both right
        bNibble = 0b0011;
        break;

        case 121 ... 137:        //129: Top right
        bNibble = 0b0010;
     f8a:	92 e0       	ldi	r25, 0x02	; 2
        break;
     f8c:	03 c0       	rjmp	.+6      	; 0xf94 <CheckButtons+0x98>

        case 162 ... 186:        //174: Bottom right
        bNibble = 0b0001;
     f8e:	91 e0       	ldi	r25, 0x01	; 1
        break;
     f90:	01 c0       	rjmp	.+2      	; 0xf94 <CheckButtons+0x98>
};

// Returns button combination (4LSB) and number of consecutive times this combination is detected. First read should always be ignored! 
uint8_t CheckButtons(uint8_t previousValue){
    uint8_t bADC = (uint8_t)(adcBtns>>4);
    uint8_t bNibble = 0x0F;     //MSB to LSB: Bottom left, top left, top right, bottom right, 0F is error
     f92:	9f e0       	ldi	r25, 0x0F	; 15
        case 240 ... 255:        //255: No button pressed
        bNibble = 0b0000;
        break;
    }

    if ((previousValue&0x0F)==bNibble){
     f94:	28 2f       	mov	r18, r24
     f96:	2f 70       	andi	r18, 0x0F	; 15
     f98:	92 13       	cpse	r25, r18
     f9a:	06 c0       	rjmp	.+12     	; 0xfa8 <CheckButtons+0xac>
        if ((previousValue&0xF0) < 0xF0) previousValue += 0x10; //Same value? Increase time nibble
     f9c:	98 2f       	mov	r25, r24
     f9e:	90 7f       	andi	r25, 0xF0	; 240
     fa0:	90 3f       	cpi	r25, 0xF0	; 240
     fa2:	39 f0       	breq	.+14     	; 0xfb2 <CheckButtons+0xb6>
     fa4:	80 5f       	subi	r24, 0xF0	; 240
     fa6:	08 95       	ret
        return previousValue;       
    } else if (bNibble == 0) return 0xFF; //Buttons released, 0xFF triggers readout, previousValue holds last button value.
     fa8:	99 23       	and	r25, r25
     faa:	11 f0       	breq	.+4      	; 0xfb0 <CheckButtons+0xb4>
     fac:	89 2f       	mov	r24, r25
     fae:	08 95       	ret
     fb0:	8f ef       	ldi	r24, 0xFF	; 255
              else return bNibble;  //New value  
}
     fb2:	08 95       	ret

00000fb4 <lfsr>:

uint8_t lfsr(){
    static uint16_t state = 0xd401;
    state ^= (state << 13);
     fb4:	80 91 1c 38 	lds	r24, 0x381C	; 0x80381c <state.3879>
     fb8:	90 91 1d 38 	lds	r25, 0x381D	; 0x80381d <state.3879+0x1>
     fbc:	9c 01       	movw	r18, r24
     fbe:	32 2f       	mov	r19, r18
     fc0:	22 27       	eor	r18, r18
     fc2:	32 95       	swap	r19
     fc4:	33 0f       	add	r19, r19
     fc6:	30 7e       	andi	r19, 0xE0	; 224
     fc8:	82 27       	eor	r24, r18
     fca:	93 27       	eor	r25, r19
    state ^= (state >> 9);
     fcc:	9c 01       	movw	r18, r24
     fce:	23 2f       	mov	r18, r19
     fd0:	33 27       	eor	r19, r19
     fd2:	26 95       	lsr	r18
     fd4:	82 27       	eor	r24, r18
     fd6:	93 27       	eor	r25, r19
    state ^= (state << 7);
     fd8:	9c 01       	movw	r18, r24
     fda:	36 95       	lsr	r19
     fdc:	32 2f       	mov	r19, r18
     fde:	22 27       	eor	r18, r18
     fe0:	37 95       	ror	r19
     fe2:	27 95       	ror	r18
     fe4:	82 27       	eor	r24, r18
     fe6:	93 27       	eor	r25, r19
     fe8:	80 93 1c 38 	sts	0x381C, r24	; 0x80381c <state.3879>
     fec:	90 93 1d 38 	sts	0x381D, r25	; 0x80381d <state.3879+0x1>
    return (state & 0xff);
}
     ff0:	08 95       	ret

00000ff2 <floatSpeed>:

void floatSpeed(uint8_t bits, uint16_t min, uint16_t max){
     ff2:	df 92       	push	r13
     ff4:	ef 92       	push	r14
     ff6:	ff 92       	push	r15
     ff8:	0f 93       	push	r16
     ffa:	1f 93       	push	r17
     ffc:	cf 93       	push	r28
     ffe:	df 93       	push	r29
    1000:	7b 01       	movw	r14, r22
    1002:	8a 01       	movw	r16, r20
    uint16_t val = TCB1_CCMP;
    1004:	c0 91 5c 0a 	lds	r28, 0x0A5C	; 0x800a5c <__TEXT_REGION_LENGTH__+0x700a5c>
    1008:	d0 91 5d 0a 	lds	r29, 0x0A5D	; 0x800a5d <__TEXT_REGION_LENGTH__+0x700a5d>
    bits = mask[(bits-1)&0x07];
    100c:	e8 2f       	mov	r30, r24
    100e:	f0 e0       	ldi	r31, 0x00	; 0
    1010:	31 97       	sbiw	r30, 0x01	; 1
    1012:	e7 70       	andi	r30, 0x07	; 7
    1014:	ff 27       	eor	r31, r31
    1016:	e2 5e       	subi	r30, 0xE2	; 226
    1018:	f7 4c       	sbci	r31, 0xC7	; 199
    101a:	d0 80       	ld	r13, Z
    val += (lfsr()&bits);
    101c:	cb df       	rcall	.-106    	; 0xfb4 <lfsr>
    101e:	8d 21       	and	r24, r13
    1020:	c8 0f       	add	r28, r24
    1022:	d1 1d       	adc	r29, r1
    val -= (lfsr()&bits);
    1024:	c7 df       	rcall	.-114    	; 0xfb4 <lfsr>
    1026:	8d 21       	and	r24, r13
    1028:	c8 1b       	sub	r28, r24
    102a:	d1 09       	sbc	r29, r1
    102c:	0c 17       	cp	r16, r28
    102e:	1d 07       	cpc	r17, r29
    1030:	08 f4       	brcc	.+2      	; 0x1034 <floatSpeed+0x42>
    1032:	e8 01       	movw	r28, r16
    1034:	c7 01       	movw	r24, r14
    1036:	ec 16       	cp	r14, r28
    1038:	fd 06       	cpc	r15, r29
    103a:	08 f4       	brcc	.+2      	; 0x103e <floatSpeed+0x4c>
    103c:	ce 01       	movw	r24, r28
    103e:	80 93 5c 0a 	sts	0x0A5C, r24	; 0x800a5c <__TEXT_REGION_LENGTH__+0x700a5c>
    if (val > max) val = max;    
    if (val < min) val = min;  
    TCB1_CCMP = val;
    1042:	90 93 5d 0a 	sts	0x0A5D, r25	; 0x800a5d <__TEXT_REGION_LENGTH__+0x700a5d>
    1046:	df 91       	pop	r29
}
    1048:	cf 91       	pop	r28
    104a:	1f 91       	pop	r17
    104c:	0f 91       	pop	r16
    104e:	ff 90       	pop	r15
    1050:	ef 90       	pop	r14
    1052:	df 90       	pop	r13
    1054:	08 95       	ret

00001056 <floatAround>:
    1056:	0f 93       	push	r16

uint8_t floatAround(uint8_t sample, uint8_t bits, uint8_t min, uint8_t max){
    1058:	1f 93       	push	r17
    105a:	cf 93       	push	r28
    105c:	df 93       	push	r29
    105e:	c8 2f       	mov	r28, r24
    1060:	d4 2f       	mov	r29, r20
    1062:	02 2f       	mov	r16, r18
    bits = mask[(bits-1)&0x07];
    1064:	e6 2f       	mov	r30, r22
    1066:	f0 e0       	ldi	r31, 0x00	; 0
    1068:	31 97       	sbiw	r30, 0x01	; 1
    106a:	e7 70       	andi	r30, 0x07	; 7
    106c:	ff 27       	eor	r31, r31
    106e:	e2 5e       	subi	r30, 0xE2	; 226
    1070:	f7 4c       	sbci	r31, 0xC7	; 199
    1072:	10 81       	ld	r17, Z
    sample += lfsr()&bits;
    1074:	9f df       	rcall	.-194    	; 0xfb4 <lfsr>
    1076:	81 23       	and	r24, r17
    1078:	c8 0f       	add	r28, r24
    sample -= lfsr()&bits;
    107a:	9c df       	rcall	.-200    	; 0xfb4 <lfsr>
    107c:	81 23       	and	r24, r17
    107e:	c8 1b       	sub	r28, r24
    1080:	8c 2f       	mov	r24, r28
    1082:	00 23       	and	r16, r16
    if (max){
    1084:	41 f0       	breq	.+16     	; 0x1096 <floatAround+0x40>
    1086:	9c 2f       	mov	r25, r28
    1088:	0c 17       	cp	r16, r28
    108a:	08 f4       	brcc	.+2      	; 0x108e <floatAround+0x38>
    108c:	90 2f       	mov	r25, r16
    108e:	8d 2f       	mov	r24, r29
    1090:	d9 17       	cp	r29, r25
    1092:	08 f4       	brcc	.+2      	; 0x1096 <floatAround+0x40>
    1094:	89 2f       	mov	r24, r25
    1096:	41 e0       	ldi	r20, 0x01	; 1
        if (sample > max) sample = max;
        if (sample < min) sample = min;
    }
    if (min & (sample < min)) sample = min;
    1098:	50 e0       	ldi	r21, 0x00	; 0
    109a:	8d 17       	cp	r24, r29
    109c:	10 f0       	brcs	.+4      	; 0x10a2 <floatAround+0x4c>
    109e:	40 e0       	ldi	r20, 0x00	; 0
    10a0:	50 e0       	ldi	r21, 0x00	; 0
    10a2:	2d 2f       	mov	r18, r29
    10a4:	30 e0       	ldi	r19, 0x00	; 0
    10a6:	24 23       	and	r18, r20
    10a8:	35 23       	and	r19, r21
    10aa:	23 2b       	or	r18, r19
    10ac:	09 f0       	breq	.+2      	; 0x10b0 <floatAround+0x5a>
    10ae:	8d 2f       	mov	r24, r29
    10b0:	df 91       	pop	r29

    return sample;
}
    10b2:	cf 91       	pop	r28
    10b4:	1f 91       	pop	r17
    10b6:	0f 91       	pop	r16
    10b8:	08 95       	ret

000010ba <SaveGameState>:
    10ba:	cf 92       	push	r12
    inventory[0] = (gameState[INVADDR]<<8|gameState[INVADDR+1]);
    inventory[1] = (gameState[INVADDR+2]<<8|gameState[INVADDR+3]);
}

//Save changed data to EEPROM
uint8_t SaveGameState(){
    10bc:	df 92       	push	r13
    10be:	ff 92       	push	r15
    10c0:	0f 93       	push	r16
    10c2:	1f 93       	push	r17
    10c4:	cf 93       	push	r28
    10c6:	df 93       	push	r29
    10c8:	cd b7       	in	r28, 0x3d	; 61
    10ca:	de b7       	in	r29, 0x3e	; 62
    10cc:	64 97       	sbiw	r28, 0x14	; 20
    10ce:	cd bf       	out	0x3d, r28	; 61
    10d0:	de bf       	out	0x3e, r29	; 62
    uint8_t gameCheck[BOOTCHK];

    //Read all data up to the boot/check result address from EEPROM
    EERead(0, &gameCheck[0], BOOTCHK);
    10d2:	44 e1       	ldi	r20, 0x14	; 20
    10d4:	be 01       	movw	r22, r28
    10d6:	6f 5f       	subi	r22, 0xFF	; 255
    10d8:	7f 4f       	sbci	r23, 0xFF	; 255
    10da:	80 e0       	ldi	r24, 0x00	; 0
    10dc:	97 de       	rcall	.-722    	; 0xe0c <EERead>
    10de:	8a e3       	ldi	r24, 0x3A	; 58
    10e0:	c8 2e       	mov	r12, r24
    10e2:	8a e3       	ldi	r24, 0x3A	; 58
    10e4:	d8 2e       	mov	r13, r24
    10e6:	8e 01       	movw	r16, r28
    10e8:	0f 5f       	subi	r16, 0xFF	; 255
    10ea:	1f 4f       	sbci	r17, 0xFF	; 255

    //Check game status bits
    for (uint8_t x=0; x<STATLEN; ++x){
    10ec:	f1 2c       	mov	r15, r1
        if (gameState[x] != gameCheck[x]){
    10ee:	f8 01       	movw	r30, r16
    10f0:	81 91       	ld	r24, Z+
    10f2:	8f 01       	movw	r16, r30
    10f4:	f6 01       	movw	r30, r12
    10f6:	90 81       	ld	r25, Z
    10f8:	98 13       	cpse	r25, r24
    10fa:	08 c0       	rjmp	.+16     	; 0x110c <SaveGameState+0x52>

    //Read all data up to the boot/check result address from EEPROM
    EERead(0, &gameCheck[0], BOOTCHK);

    //Check game status bits
    for (uint8_t x=0; x<STATLEN; ++x){
    10fc:	f3 94       	inc	r15
    10fe:	ff ef       	ldi	r31, 0xFF	; 255
    1100:	cf 1a       	sub	r12, r31
    1102:	df 0a       	sbc	r13, r31
    1104:	80 e1       	ldi	r24, 0x10	; 16
    1106:	f8 12       	cpse	r15, r24
    1108:	f2 cf       	rjmp	.-28     	; 0x10ee <SaveGameState+0x34>
    110a:	08 c0       	rjmp	.+16     	; 0x111c <SaveGameState+0x62>
        if (gameState[x] != gameCheck[x]){
            if (EEWrite(x, &gameState[x], 1)) return 1;
    110c:	41 e0       	ldi	r20, 0x01	; 1
    110e:	b6 01       	movw	r22, r12
    1110:	8f 2d       	mov	r24, r15
    1112:	8c de       	rcall	.-744    	; 0xe2c <EEWrite>
    1114:	88 23       	and	r24, r24
    1116:	91 f3       	breq	.-28     	; 0x10fc <SaveGameState+0x42>
    1118:	91 e0       	ldi	r25, 0x01	; 1
    111a:	36 c0       	rjmp	.+108    	; 0x1188 <SaveGameState+0xce>
        }
    }

    //Check the inventory too
    gameState[INVADDR] = (uint8_t)(inventory[0]>>8);
    111c:	20 91 31 38 	lds	r18, 0x3831	; 0x803831 <inventory>
    1120:	30 91 32 38 	lds	r19, 0x3832	; 0x803832 <inventory+0x1>
    1124:	30 93 4a 3a 	sts	0x3A4A, r19	; 0x803a4a <gameState+0x10>
    gameState[INVADDR+1] = (uint8_t)(inventory[0]&0xff);
    1128:	20 93 4b 3a 	sts	0x3A4B, r18	; 0x803a4b <gameState+0x11>
    gameState[INVADDR+2] = (uint8_t)(inventory[1]>>8);
    112c:	80 91 33 38 	lds	r24, 0x3833	; 0x803833 <inventory+0x2>
    1130:	90 91 34 38 	lds	r25, 0x3834	; 0x803834 <inventory+0x3>
    1134:	90 93 4c 3a 	sts	0x3A4C, r25	; 0x803a4c <gameState+0x12>
    gameState[INVADDR+3] = (uint8_t)(inventory[1]&0xff);
    1138:	80 93 4d 3a 	sts	0x3A4D, r24	; 0x803a4d <gameState+0x13>
    if (inventory[0] != (gameCheck[INVADDR]<<8|gameCheck[INVADDR+1])) {
    113c:	89 89       	ldd	r24, Y+17	; 0x11
    113e:	9a 89       	ldd	r25, Y+18	; 0x12
    1140:	98 27       	eor	r25, r24
    1142:	89 27       	eor	r24, r25
    1144:	98 27       	eor	r25, r24
    1146:	28 17       	cp	r18, r24
    1148:	39 07       	cpc	r19, r25
    114a:	69 f4       	brne	.+26     	; 0x1166 <SaveGameState+0xac>
        if (EEWrite(INVADDR, &gameState[INVADDR], 2)) return 1;
    }
    if (inventory[1] != (gameCheck[INVADDR+2]<<8|gameCheck[INVADDR+3])) {
    114c:	8b 89       	ldd	r24, Y+19	; 0x13
    114e:	9c 89       	ldd	r25, Y+20	; 0x14
    1150:	98 27       	eor	r25, r24
    1152:	89 27       	eor	r24, r25
    1154:	98 27       	eor	r25, r24
    1156:	20 91 33 38 	lds	r18, 0x3833	; 0x803833 <inventory+0x2>
    115a:	30 91 34 38 	lds	r19, 0x3834	; 0x803834 <inventory+0x3>
    115e:	28 17       	cp	r18, r24
    1160:	39 07       	cpc	r19, r25
    1162:	49 f4       	brne	.+18     	; 0x1176 <SaveGameState+0xbc>
    1164:	10 c0       	rjmp	.+32     	; 0x1186 <SaveGameState+0xcc>
    gameState[INVADDR] = (uint8_t)(inventory[0]>>8);
    gameState[INVADDR+1] = (uint8_t)(inventory[0]&0xff);
    gameState[INVADDR+2] = (uint8_t)(inventory[1]>>8);
    gameState[INVADDR+3] = (uint8_t)(inventory[1]&0xff);
    if (inventory[0] != (gameCheck[INVADDR]<<8|gameCheck[INVADDR+1])) {
        if (EEWrite(INVADDR, &gameState[INVADDR], 2)) return 1;
    1166:	42 e0       	ldi	r20, 0x02	; 2
    1168:	6a e4       	ldi	r22, 0x4A	; 74
    116a:	7a e3       	ldi	r23, 0x3A	; 58
    116c:	80 e1       	ldi	r24, 0x10	; 16
    116e:	5e de       	rcall	.-836    	; 0xe2c <EEWrite>
    1170:	88 23       	and	r24, r24
    1172:	61 f3       	breq	.-40     	; 0x114c <SaveGameState+0x92>
    1174:	d1 cf       	rjmp	.-94     	; 0x1118 <SaveGameState+0x5e>
    }
    if (inventory[1] != (gameCheck[INVADDR+2]<<8|gameCheck[INVADDR+3])) {
        if (EEWrite(INVADDR+2, &gameState[INVADDR+2], 2)) return 1;
    1176:	42 e0       	ldi	r20, 0x02	; 2
    1178:	6c e4       	ldi	r22, 0x4C	; 76
    117a:	7a e3       	ldi	r23, 0x3A	; 58
    117c:	82 e1       	ldi	r24, 0x12	; 18
    117e:	56 de       	rcall	.-852    	; 0xe2c <EEWrite>
    EERead(0, &gameCheck[0], BOOTCHK);

    //Check game status bits
    for (uint8_t x=0; x<STATLEN; ++x){
        if (gameState[x] != gameCheck[x]){
            if (EEWrite(x, &gameState[x], 1)) return 1;
    1180:	91 e0       	ldi	r25, 0x01	; 1
    1182:	81 11       	cpse	r24, r1
    1184:	01 c0       	rjmp	.+2      	; 0x1188 <SaveGameState+0xce>
    1186:	90 e0       	ldi	r25, 0x00	; 0
    if (inventory[1] != (gameCheck[INVADDR+2]<<8|gameCheck[INVADDR+3])) {
        if (EEWrite(INVADDR+2, &gameState[INVADDR+2], 2)) return 1;
    }

    return 0;
}
    1188:	89 2f       	mov	r24, r25
    118a:	64 96       	adiw	r28, 0x14	; 20
    118c:	cd bf       	out	0x3d, r28	; 61
    118e:	de bf       	out	0x3e, r29	; 62
    1190:	df 91       	pop	r29
    1192:	cf 91       	pop	r28
    1194:	1f 91       	pop	r17
    1196:	0f 91       	pop	r16
    1198:	ff 90       	pop	r15
    119a:	df 90       	pop	r13
    119c:	cf 90       	pop	r12
    119e:	08 95       	ret

000011a0 <ReadStatusBit>:

uint8_t ReadStatusBit(uint8_t number){
    number &= 0x7f;
    if (gameState[number>>3] & (1<<(number&7))) return 1; else return 0;
    11a0:	e8 2f       	mov	r30, r24
    11a2:	ef 77       	andi	r30, 0x7F	; 127
    11a4:	e6 95       	lsr	r30
    11a6:	e6 95       	lsr	r30
    11a8:	e6 95       	lsr	r30
    11aa:	f0 e0       	ldi	r31, 0x00	; 0
    11ac:	e6 5c       	subi	r30, 0xC6	; 198
    11ae:	f5 4c       	sbci	r31, 0xC5	; 197
    11b0:	20 81       	ld	r18, Z
    11b2:	30 e0       	ldi	r19, 0x00	; 0
    11b4:	87 70       	andi	r24, 0x07	; 7
    11b6:	a9 01       	movw	r20, r18
    11b8:	02 c0       	rjmp	.+4      	; 0x11be <ReadStatusBit+0x1e>
    11ba:	55 95       	asr	r21
    11bc:	47 95       	ror	r20
    11be:	8a 95       	dec	r24
    11c0:	e2 f7       	brpl	.-8      	; 0x11ba <ReadStatusBit+0x1a>
    11c2:	ca 01       	movw	r24, r20
}
    11c4:	81 70       	andi	r24, 0x01	; 1
    11c6:	08 95       	ret

000011c8 <WriteStatusBit>:

void WriteStatusBit(uint8_t number, uint8_t state){
    number &= 0x7f;
    11c8:	e8 2f       	mov	r30, r24
    11ca:	ef 77       	andi	r30, 0x7F	; 127
    11cc:	e6 95       	lsr	r30
    11ce:	e6 95       	lsr	r30
    11d0:	e6 95       	lsr	r30
    11d2:	28 2f       	mov	r18, r24
    11d4:	27 70       	andi	r18, 0x07	; 7
    if (state) gameState[number>>3] |= 1<<(number&7);
    11d6:	f0 e0       	ldi	r31, 0x00	; 0
    11d8:	e6 5c       	subi	r30, 0xC6	; 198
    11da:	f5 4c       	sbci	r31, 0xC5	; 197
    11dc:	81 e0       	ldi	r24, 0x01	; 1
    11de:	90 e0       	ldi	r25, 0x00	; 0
    11e0:	01 c0       	rjmp	.+2      	; 0x11e4 <WriteStatusBit+0x1c>
    11e2:	88 0f       	add	r24, r24
    11e4:	2a 95       	dec	r18
    11e6:	ea f7       	brpl	.-6      	; 0x11e2 <WriteStatusBit+0x1a>
    11e8:	66 23       	and	r22, r22
    11ea:	19 f0       	breq	.+6      	; 0x11f2 <WriteStatusBit+0x2a>
    11ec:	90 81       	ld	r25, Z
    11ee:	89 2b       	or	r24, r25
    11f0:	03 c0       	rjmp	.+6      	; 0x11f8 <WriteStatusBit+0x30>
    else gameState[number>>3] &= ~(1<<(number&7));
    11f2:	80 95       	com	r24
    11f4:	90 81       	ld	r25, Z
    11f6:	89 23       	and	r24, r25
    11f8:	80 83       	st	Z, r24
    11fa:	08 95       	ret

000011fc <UpdateState>:
}

//Update game state: num -> vBBBBbbb v=value(0 is set!), BBBB=Byte number, bbb=bit number
void UpdateState(uint8_t num){
    11fc:	98 2f       	mov	r25, r24
    uint8_t clearBit = num & 0x80;
    num &= 0x7f;
    11fe:	8f 77       	andi	r24, 0x7F	; 127
    if (num) {
    1200:	31 f0       	breq	.+12     	; 0x120e <UpdateState+0x12>
        if (clearBit) {
    1202:	97 ff       	sbrs	r25, 7
    1204:	02 c0       	rjmp	.+4      	; 0x120a <UpdateState+0xe>
            WriteStatusBit(num, 0);
    1206:	60 e0       	ldi	r22, 0x00	; 0
    1208:	01 c0       	rjmp	.+2      	; 0x120c <UpdateState+0x10>
        } else {
            WriteStatusBit(num, 1);
    120a:	61 e0       	ldi	r22, 0x01	; 1
    120c:	dd cf       	rjmp	.-70     	; 0x11c8 <WriteStatusBit>
    120e:	08 95       	ret

00001210 <CheckState>:
        }
    }
}

//Checks if state of bit BBBBbbb matches with v (inverted) bit
uint8_t CheckState(uint8_t num){
    1210:	cf 93       	push	r28
    1212:	c8 2f       	mov	r28, r24
    uint8_t bitSet = 0;
    if (ReadStatusBit(num & 0x7f)){
    1214:	8f 77       	andi	r24, 0x7F	; 127
    1216:	c4 df       	rcall	.-120    	; 0x11a0 <ReadStatusBit>
    1218:	2c 2f       	mov	r18, r28
    121a:	22 1f       	adc	r18, r18
    121c:	22 27       	eor	r18, r18
    121e:	22 1f       	adc	r18, r18
    1220:	91 e0       	ldi	r25, 0x01	; 1
    1222:	81 11       	cpse	r24, r1
    1224:	01 c0       	rjmp	.+2      	; 0x1228 <CheckState+0x18>
    1226:	90 e0       	ldi	r25, 0x00	; 0
    }
    if (((num & 0x80)>0)^(bitSet>0)){
        return 1;
    }
    return 0;
}
    1228:	82 2f       	mov	r24, r18
    122a:	89 27       	eor	r24, r25
    122c:	cf 91       	pop	r28
    122e:	08 95       	ret

00001230 <getID>:

//Give out a number 0..3, calculated using serial number fields
uint8_t getID(){
    uint8_t id = 0;
    uint8_t *serNum;
    serNum = (uint8_t*)&SIGROW_SERNUM0;
    1230:	e3 e0       	ldi	r30, 0x03	; 3
    1232:	f1 e1       	ldi	r31, 0x11	; 17
    return 0;
}

//Give out a number 0..3, calculated using serial number fields
uint8_t getID(){
    uint8_t id = 0;
    1234:	80 e0       	ldi	r24, 0x00	; 0
    uint8_t *serNum;
    serNum = (uint8_t*)&SIGROW_SERNUM0;

    for (uint8_t x=0; x<10; ++x){
        id += *serNum;
    1236:	91 91       	ld	r25, Z+
    1238:	89 0f       	add	r24, r25
uint8_t getID(){
    uint8_t id = 0;
    uint8_t *serNum;
    serNum = (uint8_t*)&SIGROW_SERNUM0;

    for (uint8_t x=0; x<10; ++x){
    123a:	ed 30       	cpi	r30, 0x0D	; 13
    123c:	91 e1       	ldi	r25, 0x11	; 17
    123e:	f9 07       	cpc	r31, r25
    1240:	d1 f7       	brne	.-12     	; 0x1236 <getID+0x6>
        id += *serNum;
        ++serNum;
    }
    id %= 4;
    whoami = id+1;
    1242:	83 70       	andi	r24, 0x03	; 3
    1244:	8f 5f       	subi	r24, 0xFF	; 255
    1246:	80 93 30 38 	sts	0x3830, r24	; 0x803830 <whoami>
    return whoami;
}
    124a:	08 95       	ret

0000124c <Reset>:

void Reset(){
    124c:	ea e3       	ldi	r30, 0x3A	; 58
    124e:	fa e3       	ldi	r31, 0x3A	; 58
    //# 110   set to 1 by FW if badge UUID mod 4 == 0
    //# 111   set to 1 by FW if badge UUID mod 4 == 1
    //# 112   set to 1 by FW if badge UUID mod 4 == 2
    //# 113   set to 1 by FW if badge UUID mod 4 == 3
    for (uint8_t x=0; x<sizeof(gameState); ++x){
        gameState[x] = 0;
    1250:	11 92       	st	Z+, r1
    //Reset game progress (all zeroes) and load some bits:
    //# 110   set to 1 by FW if badge UUID mod 4 == 0
    //# 111   set to 1 by FW if badge UUID mod 4 == 1
    //# 112   set to 1 by FW if badge UUID mod 4 == 2
    //# 113   set to 1 by FW if badge UUID mod 4 == 3
    for (uint8_t x=0; x<sizeof(gameState); ++x){
    1252:	8a e3       	ldi	r24, 0x3A	; 58
    1254:	ee 34       	cpi	r30, 0x4E	; 78
    1256:	f8 07       	cpc	r31, r24
    1258:	d9 f7       	brne	.-10     	; 0x1250 <Reset+0x4>
        gameState[x] = 0;
    }

    uint8_t id = getID();
    125a:	ea df       	rcall	.-44     	; 0x1230 <getID>

    //Write bit in gameState location 110..113
    if (id == 0) WriteStatusBit(110, 1);
    125c:	81 11       	cpse	r24, r1
    125e:	04 c0       	rjmp	.+8      	; 0x1268 <Reset+0x1c>
    if (gameState[number>>3] & (1<<(number&7))) return 1; else return 0;
}

void WriteStatusBit(uint8_t number, uint8_t state){
    number &= 0x7f;
    if (state) gameState[number>>3] |= 1<<(number&7);
    1260:	80 91 47 3a 	lds	r24, 0x3A47	; 0x803a47 <gameState+0xd>
    1264:	80 64       	ori	r24, 0x40	; 64
    1266:	05 c0       	rjmp	.+10     	; 0x1272 <Reset+0x26>

    uint8_t id = getID();

    //Write bit in gameState location 110..113
    if (id == 0) WriteStatusBit(110, 1);
    else if (id == 1) WriteStatusBit(111, 1);
    1268:	81 30       	cpi	r24, 0x01	; 1
    126a:	31 f4       	brne	.+12     	; 0x1278 <Reset+0x2c>
    if (gameState[number>>3] & (1<<(number&7))) return 1; else return 0;
}

void WriteStatusBit(uint8_t number, uint8_t state){
    number &= 0x7f;
    if (state) gameState[number>>3] |= 1<<(number&7);
    126c:	80 91 47 3a 	lds	r24, 0x3A47	; 0x803a47 <gameState+0xd>
    1270:	80 68       	ori	r24, 0x80	; 128
    1272:	80 93 47 3a 	sts	0x3A47, r24	; 0x803a47 <gameState+0xd>
    1276:	0d c0       	rjmp	.+26     	; 0x1292 <Reset+0x46>
    uint8_t id = getID();

    //Write bit in gameState location 110..113
    if (id == 0) WriteStatusBit(110, 1);
    else if (id == 1) WriteStatusBit(111, 1);
    else if (id == 2) WriteStatusBit(112, 1);
    1278:	82 30       	cpi	r24, 0x02	; 2
    127a:	21 f4       	brne	.+8      	; 0x1284 <Reset+0x38>
    if (gameState[number>>3] & (1<<(number&7))) return 1; else return 0;
}

void WriteStatusBit(uint8_t number, uint8_t state){
    number &= 0x7f;
    if (state) gameState[number>>3] |= 1<<(number&7);
    127c:	80 91 48 3a 	lds	r24, 0x3A48	; 0x803a48 <gameState+0xe>
    1280:	81 60       	ori	r24, 0x01	; 1
    1282:	05 c0       	rjmp	.+10     	; 0x128e <Reset+0x42>

    //Write bit in gameState location 110..113
    if (id == 0) WriteStatusBit(110, 1);
    else if (id == 1) WriteStatusBit(111, 1);
    else if (id == 2) WriteStatusBit(112, 1);
    else if (id == 3) WriteStatusBit(113, 1);
    1284:	83 30       	cpi	r24, 0x03	; 3
    1286:	29 f4       	brne	.+10     	; 0x1292 <Reset+0x46>
    if (gameState[number>>3] & (1<<(number&7))) return 1; else return 0;
}

void WriteStatusBit(uint8_t number, uint8_t state){
    number &= 0x7f;
    if (state) gameState[number>>3] |= 1<<(number&7);
    1288:	80 91 48 3a 	lds	r24, 0x3A48	; 0x803a48 <gameState+0xe>
    128c:	82 60       	ori	r24, 0x02	; 2
    128e:	80 93 48 3a 	sts	0x3A48, r24	; 0x803a48 <gameState+0xe>
    1292:	80 91 3a 3a 	lds	r24, 0x3A3A	; 0x803a3a <gameState>
    1296:	81 60       	ori	r24, 0x01	; 1
    1298:	80 93 3a 3a 	sts	0x3A3A, r24	; 0x803a3a <gameState>
    129c:	08 95       	ret

0000129e <LoadGameState>:

    return sample;
}

//Load game status
void LoadGameState(){
    129e:	cf 93       	push	r28
    12a0:	df 93       	push	r29
    EERead(0, &gameState[0], BOOTCHK);   //Load game status bits from EEPROM
    12a2:	44 e1       	ldi	r20, 0x14	; 20
    12a4:	6a e3       	ldi	r22, 0x3A	; 58
    12a6:	7a e3       	ldi	r23, 0x3A	; 58
    12a8:	80 e0       	ldi	r24, 0x00	; 0
    12aa:	b0 dd       	rcall	.-1184   	; 0xe0c <EERead>
    12ac:	ce e6       	ldi	r28, 0x6E	; 110

    uint8_t idSet = 0;
    12ae:	d0 e0       	ldi	r29, 0x00	; 0
    for (uint8_t x=0; x<4; ++x){
        idSet += ReadStatusBit(110+x);
    12b0:	8c 2f       	mov	r24, r28
    12b2:	76 df       	rcall	.-276    	; 0x11a0 <ReadStatusBit>
    12b4:	d8 0f       	add	r29, r24
    12b6:	cf 5f       	subi	r28, 0xFF	; 255
//Load game status
void LoadGameState(){
    EERead(0, &gameState[0], BOOTCHK);   //Load game status bits from EEPROM

    uint8_t idSet = 0;
    for (uint8_t x=0; x<4; ++x){
    12b8:	c2 37       	cpi	r28, 0x72	; 114
    12ba:	d1 f7       	brne	.-12     	; 0x12b0 <LoadGameState+0x12>
        idSet += ReadStatusBit(110+x);
    }

    //Check if badge is reset(0 = cheated!) or new(3) or error(2)
    if (idSet != 1) {
    12bc:	d1 30       	cpi	r29, 0x01	; 1
        Reset();
    12be:	11 f0       	breq	.+4      	; 0x12c4 <LoadGameState+0x26>
    12c0:	c5 df       	rcall	.-118    	; 0x124c <Reset>
    } else getID();
    12c2:	01 c0       	rjmp	.+2      	; 0x12c6 <LoadGameState+0x28>
    12c4:	b5 df       	rcall	.-150    	; 0x1230 <getID>

    inventory[0] = (gameState[INVADDR]<<8|gameState[INVADDR+1]);
    12c6:	80 91 4a 3a 	lds	r24, 0x3A4A	; 0x803a4a <gameState+0x10>
    12ca:	90 91 4b 3a 	lds	r25, 0x3A4B	; 0x803a4b <gameState+0x11>
    12ce:	98 27       	eor	r25, r24
    12d0:	89 27       	eor	r24, r25
    12d2:	98 27       	eor	r25, r24
    12d4:	80 93 31 38 	sts	0x3831, r24	; 0x803831 <inventory>
    12d8:	90 93 32 38 	sts	0x3832, r25	; 0x803832 <inventory+0x1>
    inventory[1] = (gameState[INVADDR+2]<<8|gameState[INVADDR+3]);
    12dc:	80 91 4c 3a 	lds	r24, 0x3A4C	; 0x803a4c <gameState+0x12>
    12e0:	90 91 4d 3a 	lds	r25, 0x3A4D	; 0x803a4d <gameState+0x13>
    12e4:	98 27       	eor	r25, r24
    12e6:	89 27       	eor	r24, r25
    12e8:	98 27       	eor	r25, r24
    12ea:	80 93 33 38 	sts	0x3833, r24	; 0x803833 <inventory+0x2>
    12ee:	90 93 34 38 	sts	0x3834, r25	; 0x803834 <inventory+0x3>
}
    12f2:	df 91       	pop	r29
    12f4:	cf 91       	pop	r28
    12f6:	08 95       	ret

000012f8 <HotSummer>:
    //Write bit 0, must always be 1!
    WriteStatusBit(0, 1);
}

//Sets specific game bits after the badge is heated for one and two times.
uint8_t HotSummer(){
    12f8:	cf 93       	push	r28
    static uint8_t cooledDown = 0;

    if (CheckState(SUMMERS_COMPLETED)){
    12fa:	86 e7       	ldi	r24, 0x76	; 118
    12fc:	89 df       	rcall	.-238    	; 0x1210 <CheckState>
    12fe:	c8 2f       	mov	r28, r24
    1300:	88 23       	and	r24, r24
    1302:	81 f0       	breq	.+32     	; 0x1324 <HotSummer+0x2c>
        iLED[SCARAB[G]] = 0;
    1304:	e0 91 c3 b5 	lds	r30, 0xB5C3	; 0x80b5c3 <__bss_end+0x7ad0>
    1308:	f0 e0       	ldi	r31, 0x00	; 0
    130a:	ed 55       	subi	r30, 0x5D	; 93
    130c:	f5 4c       	sbci	r31, 0xC5	; 197
    130e:	10 82       	st	Z, r1
        iLED[SCARAB[R]] = dimValue;
    1310:	e0 91 c2 b5 	lds	r30, 0xB5C2	; 0x80b5c2 <__bss_end+0x7acf>
    1314:	f0 e0       	ldi	r31, 0x00	; 0
    1316:	80 91 09 38 	lds	r24, 0x3809	; 0x803809 <dimValue>
    131a:	ed 55       	subi	r30, 0x5D	; 93
    131c:	f5 4c       	sbci	r31, 0xC5	; 197
    131e:	80 83       	st	Z, r24
        return 1;
    1320:	c1 e0       	ldi	r28, 0x01	; 1
    1322:	4c c0       	rjmp	.+152    	; 0x13bc <HotSummer+0xc4>
    }

    if (CheckState(FIRST_SUMMER)) {
    1324:	85 e7       	ldi	r24, 0x75	; 117
    1326:	74 df       	rcall	.-280    	; 0x1210 <CheckState>
    1328:	88 23       	and	r24, r24
    132a:	59 f1       	breq	.+86     	; 0x1382 <HotSummer+0x8a>
        iLED[SCARAB[G]] = dimValue;
    132c:	e0 91 c3 b5 	lds	r30, 0xB5C3	; 0x80b5c3 <__bss_end+0x7ad0>
    1330:	f0 e0       	ldi	r31, 0x00	; 0
    1332:	80 91 09 38 	lds	r24, 0x3809	; 0x803809 <dimValue>
    1336:	ed 55       	subi	r30, 0x5D	; 93
    1338:	f5 4c       	sbci	r31, 0xC5	; 197
    133a:	80 83       	st	Z, r24
        if ((cooledDown) && (adcTemp >= (calTemp + 8))) {
    133c:	80 91 48 38 	lds	r24, 0x3848	; 0x803848 <cooledDown.3938>
    1340:	88 23       	and	r24, r24
    1342:	79 f0       	breq	.+30     	; 0x1362 <HotSummer+0x6a>
    1344:	80 91 99 3a 	lds	r24, 0x3A99	; 0x803a99 <calTemp>
    1348:	90 91 9a 3a 	lds	r25, 0x3A9A	; 0x803a9a <calTemp+0x1>
    134c:	20 91 ce 3a 	lds	r18, 0x3ACE	; 0x803ace <adcTemp>
    1350:	30 91 cf 3a 	lds	r19, 0x3ACF	; 0x803acf <adcTemp+0x1>
    1354:	08 96       	adiw	r24, 0x08	; 8
    1356:	28 17       	cp	r18, r24
    1358:	39 07       	cpc	r19, r25
            UpdateState(SUMMERS_COMPLETED);
    135a:	18 f0       	brcs	.+6      	; 0x1362 <HotSummer+0x6a>
    135c:	86 e7       	ldi	r24, 0x76	; 118
    135e:	4e df       	rcall	.-356    	; 0x11fc <UpdateState>
            return 0;
    1360:	2d c0       	rjmp	.+90     	; 0x13bc <HotSummer+0xc4>
        }
        if (adcTemp <= (calTemp + 2)) cooledDown = 1;
    1362:	80 91 99 3a 	lds	r24, 0x3A99	; 0x803a99 <calTemp>
    1366:	90 91 9a 3a 	lds	r25, 0x3A9A	; 0x803a9a <calTemp+0x1>
    136a:	20 91 ce 3a 	lds	r18, 0x3ACE	; 0x803ace <adcTemp>
    136e:	30 91 cf 3a 	lds	r19, 0x3ACF	; 0x803acf <adcTemp+0x1>
    1372:	02 96       	adiw	r24, 0x02	; 2
    1374:	82 17       	cp	r24, r18
    1376:	93 07       	cpc	r25, r19
    1378:	08 f1       	brcs	.+66     	; 0x13bc <HotSummer+0xc4>
    137a:	81 e0       	ldi	r24, 0x01	; 1
    137c:	80 93 48 38 	sts	0x3848, r24	; 0x803848 <cooledDown.3938>
    1380:	1d c0       	rjmp	.+58     	; 0x13bc <HotSummer+0xc4>
                   
    } else {
        if (calTemp == 0) calTemp = adcTemp;
    1382:	80 91 99 3a 	lds	r24, 0x3A99	; 0x803a99 <calTemp>
    1386:	90 91 9a 3a 	lds	r25, 0x3A9A	; 0x803a9a <calTemp+0x1>
    138a:	89 2b       	or	r24, r25
    138c:	41 f4       	brne	.+16     	; 0x139e <HotSummer+0xa6>
    138e:	80 91 ce 3a 	lds	r24, 0x3ACE	; 0x803ace <adcTemp>
    1392:	90 91 cf 3a 	lds	r25, 0x3ACF	; 0x803acf <adcTemp+0x1>
    1396:	80 93 99 3a 	sts	0x3A99, r24	; 0x803a99 <calTemp>
    139a:	90 93 9a 3a 	sts	0x3A9A, r25	; 0x803a9a <calTemp+0x1>
        if (adcTemp >= (calTemp + 8)) {
    139e:	80 91 99 3a 	lds	r24, 0x3A99	; 0x803a99 <calTemp>
    13a2:	90 91 9a 3a 	lds	r25, 0x3A9A	; 0x803a9a <calTemp+0x1>
    13a6:	20 91 ce 3a 	lds	r18, 0x3ACE	; 0x803ace <adcTemp>
    13aa:	30 91 cf 3a 	lds	r19, 0x3ACF	; 0x803acf <adcTemp+0x1>
    13ae:	08 96       	adiw	r24, 0x08	; 8
    13b0:	28 17       	cp	r18, r24
    13b2:	39 07       	cpc	r19, r25
            UpdateState(FIRST_SUMMER);
    13b4:	18 f0       	brcs	.+6      	; 0x13bc <HotSummer+0xc4>
    13b6:	85 e7       	ldi	r24, 0x75	; 117
    13b8:	21 df       	rcall	.-446    	; 0x11fc <UpdateState>
        }
    }
    return 0;
    13ba:	c0 e0       	ldi	r28, 0x00	; 0
}
    13bc:	8c 2f       	mov	r24, r28
    13be:	cf 91       	pop	r28
    13c0:	08 95       	ret

000013c2 <GenerateBlinks>:

void GenerateBlinks(){
    13c2:	cf 93       	push	r28
    13c4:	df 93       	push	r29
    static uint8_t test = 0;
    iLED[WING[L][test%5]] = 0;
    13c6:	20 91 47 38 	lds	r18, 0x3847	; 0x803847 <test.3941>
    13ca:	82 2f       	mov	r24, r18
    13cc:	65 e0       	ldi	r22, 0x05	; 5
    13ce:	0e 94 75 1a 	call	0x34ea	; 0x34ea <__udivmodqi4>
    13d2:	e9 2f       	mov	r30, r25
    13d4:	f0 e0       	ldi	r31, 0x00	; 0
    13d6:	ec 53       	subi	r30, 0x3C	; 60
    13d8:	fa 44       	sbci	r31, 0x4A	; 74
    13da:	e5 81       	ldd	r30, Z+5	; 0x05
    13dc:	f0 e0       	ldi	r31, 0x00	; 0
    13de:	ed 55       	subi	r30, 0x5D	; 93
    13e0:	f5 4c       	sbci	r31, 0xC5	; 197
    13e2:	10 82       	st	Z, r1
    iLED[WING[L][(test+1)%5]] = dimValue;
    13e4:	82 2f       	mov	r24, r18
    13e6:	90 e0       	ldi	r25, 0x00	; 0
    13e8:	01 96       	adiw	r24, 0x01	; 1
    13ea:	65 e0       	ldi	r22, 0x05	; 5
    13ec:	70 e0       	ldi	r23, 0x00	; 0
    13ee:	0e 94 95 1a 	call	0x352a	; 0x352a <__divmodhi4>
    13f2:	fc 01       	movw	r30, r24
    13f4:	ec 53       	subi	r30, 0x3C	; 60
    13f6:	fa 44       	sbci	r31, 0x4A	; 74
    13f8:	e5 81       	ldd	r30, Z+5	; 0x05
    13fa:	f0 e0       	ldi	r31, 0x00	; 0
    13fc:	80 91 09 38 	lds	r24, 0x3809	; 0x803809 <dimValue>
    1400:	ed 55       	subi	r30, 0x5D	; 93
    1402:	f5 4c       	sbci	r31, 0xC5	; 197
    1404:	80 83       	st	Z, r24
    ++test;
    1406:	2f 5f       	subi	r18, 0xFF	; 255
    1408:	20 93 47 38 	sts	0x3847, r18	; 0x803847 <test.3941>
    140c:	84 ec       	ldi	r24, 0xC4	; 196
    140e:	95 eb       	ldi	r25, 0xB5	; 181
    1410:	ce ec       	ldi	r28, 0xCE	; 206
    1412:	d5 eb       	ldi	r29, 0xB5	; 181

    for (uint8_t x=0; x<5; ++x){
        iLED[WING[R][x]] = iLED[WING[L][4-x]];
    1414:	dc 01       	movw	r26, r24
    1416:	ed 91       	ld	r30, X+
    1418:	cd 01       	movw	r24, r26
    141a:	f0 e0       	ldi	r31, 0x00	; 0
    141c:	aa 91       	ld	r26, -Y
    141e:	b0 e0       	ldi	r27, 0x00	; 0
    1420:	ad 55       	subi	r26, 0x5D	; 93
    1422:	b5 4c       	sbci	r27, 0xC5	; 197
    1424:	2c 91       	ld	r18, X
    1426:	ed 55       	subi	r30, 0x5D	; 93
    1428:	f5 4c       	sbci	r31, 0xC5	; 197
    142a:	20 83       	st	Z, r18
    static uint8_t test = 0;
    iLED[WING[L][test%5]] = 0;
    iLED[WING[L][(test+1)%5]] = dimValue;
    ++test;

    for (uint8_t x=0; x<5; ++x){
    142c:	b5 eb       	ldi	r27, 0xB5	; 181
    142e:	c9 3c       	cpi	r28, 0xC9	; 201
    1430:	db 07       	cpc	r29, r27
    1432:	81 f7       	brne	.-32     	; 0x1414 <GenerateBlinks+0x52>
        iLED[WING[R][x]] = iLED[WING[L][4-x]];
    }
}
    1434:	df 91       	pop	r29
    1436:	cf 91       	pop	r28
    1438:	08 95       	ret

0000143a <GenerateAudio>:


uint8_t GenerateAudio(){
    143a:	0f 93       	push	r16
    143c:	1f 93       	push	r17
    143e:	cf 93       	push	r28
    1440:	df 93       	push	r29

    if (auIn[AULEN>>1] < HPLVL) {
    1442:	80 91 9f 3a 	lds	r24, 0x3A9F	; 0x803a9f <auIn+0x4>
    1446:	89 31       	cpi	r24, 0x19	; 25
    1448:	08 f0       	brcs	.+2      	; 0x144c <GenerateAudio+0x12>
    144a:	cf c0       	rjmp	.+414    	; 0x15ea <GenerateAudio+0x1b0>

        detHdPh = 1;
    144c:	81 e0       	ldi	r24, 0x01	; 1
    144e:	80 93 98 3a 	sts	0x3A98, r24	; 0x803a98 <detHdPh>

        //Audio for text adventure
        if ((effect&0xff00)==0) {
    1452:	80 91 2d 38 	lds	r24, 0x382D	; 0x80382d <effect>
    1456:	90 91 2e 38 	lds	r25, 0x382E	; 0x80382e <effect+0x1>
    145a:	88 27       	eor	r24, r24
    145c:	89 2b       	or	r24, r25
    145e:	09 f0       	breq	.+2      	; 0x1462 <GenerateAudio+0x28>
    1460:	c6 c0       	rjmp	.+396    	; 0x15ee <GenerateAudio+0x1b4>

            //Silence
            if ((effect&0xE0)==0){
    1462:	80 91 2d 38 	lds	r24, 0x382D	; 0x80382d <effect>
    1466:	90 91 2e 38 	lds	r25, 0x382E	; 0x80382e <effect+0x1>
    146a:	80 7e       	andi	r24, 0xE0	; 224
    146c:	99 27       	eor	r25, r25
    146e:	89 2b       	or	r24, r25
    1470:	31 f4       	brne	.+12     	; 0x147e <GenerateAudio+0x44>
                auRepAddr = &zero;
    1472:	8b e2       	ldi	r24, 0x2B	; 43
    1474:	98 e3       	ldi	r25, 0x38	; 56
    1476:	80 93 03 38 	sts	0x3803, r24	; 0x803803 <auRepAddr>
    147a:	90 93 04 38 	sts	0x3804, r25	; 0x803804 <auRepAddr+0x1>
            }

            //Bad (buzzer)
            if ((effect&0xE0)==32){
    147e:	80 91 2d 38 	lds	r24, 0x382D	; 0x80382d <effect>
    1482:	90 91 2e 38 	lds	r25, 0x382E	; 0x80382e <effect+0x1>
    1486:	80 7e       	andi	r24, 0xE0	; 224
    1488:	99 27       	eor	r25, r25
    148a:	80 97       	sbiw	r24, 0x20	; 32
    148c:	09 f0       	breq	.+2      	; 0x1490 <GenerateAudio+0x56>
    148e:	59 c0       	rjmp	.+178    	; 0x1542 <GenerateAudio+0x108>
                static uint8_t auBuffer[17] = {1, 255, 128, 128, 192, 255, 64, 255, 192, 128, 64, 1, 192, 1, 64, 128, 0}; 
                static uint8_t loudness, duration, start;
                floatSpeed(1, 0x2000, 0x2200);
    1490:	40 e0       	ldi	r20, 0x00	; 0
    1492:	52 e2       	ldi	r21, 0x22	; 34
    1494:	60 e0       	ldi	r22, 0x00	; 0
    1496:	70 e2       	ldi	r23, 0x20	; 32
    1498:	81 e0       	ldi	r24, 0x01	; 1
    149a:	ab dd       	rcall	.-1194   	; 0xff2 <floatSpeed>
                auBuffer[2] = floatAround(0x80, 5, 0x01, 0x00);
    149c:	20 e0       	ldi	r18, 0x00	; 0
    149e:	41 e0       	ldi	r20, 0x01	; 1
    14a0:	65 e0       	ldi	r22, 0x05	; 5
    14a2:	80 e8       	ldi	r24, 0x80	; 128
    14a4:	d8 dd       	rcall	.-1104   	; 0x1056 <floatAround>
    14a6:	80 93 0d 38 	sts	0x380D, r24	; 0x80380d <auBuffer.3948+0x2>

                if (buttonMark) {
    14aa:	80 91 35 38 	lds	r24, 0x3835	; 0x803835 <buttonMark>
    14ae:	88 23       	and	r24, r24
    14b0:	09 f4       	brne	.+2      	; 0x14b4 <GenerateAudio+0x7a>
    14b2:	47 c0       	rjmp	.+142    	; 0x1542 <GenerateAudio+0x108>
                    if (start == 0) {
    14b4:	80 91 46 38 	lds	r24, 0x3846	; 0x803846 <start.3951>
    14b8:	81 11       	cpse	r24, r1
    14ba:	15 c0       	rjmp	.+42     	; 0x14e6 <GenerateAudio+0xac>
                        duration = 4;
    14bc:	84 e0       	ldi	r24, 0x04	; 4
    14be:	80 93 45 38 	sts	0x3845, r24	; 0x803845 <duration.3950>
                        loudness = 0xff;
    14c2:	8f ef       	ldi	r24, 0xFF	; 255
    14c4:	80 93 44 38 	sts	0x3844, r24	; 0x803844 <loudness.3949>
                        TCB1_CCMP = 0x2000;
    14c8:	80 e0       	ldi	r24, 0x00	; 0
    14ca:	90 e2       	ldi	r25, 0x20	; 32
    14cc:	80 93 5c 0a 	sts	0x0A5C, r24	; 0x800a5c <__TEXT_REGION_LENGTH__+0x700a5c>
    14d0:	90 93 5d 0a 	sts	0x0A5D, r25	; 0x800a5d <__TEXT_REGION_LENGTH__+0x700a5d>
                        auRepAddr = &auBuffer[0];
    14d4:	8b e0       	ldi	r24, 0x0B	; 11
    14d6:	98 e3       	ldi	r25, 0x38	; 56
    14d8:	80 93 03 38 	sts	0x3803, r24	; 0x803803 <auRepAddr>
    14dc:	90 93 04 38 	sts	0x3804, r25	; 0x803804 <auRepAddr+0x1>
                        start = 1;
    14e0:	81 e0       	ldi	r24, 0x01	; 1
    14e2:	80 93 46 38 	sts	0x3846, r24	; 0x803846 <start.3951>
                    }

                    if (loudness) {
    14e6:	80 91 44 38 	lds	r24, 0x3844	; 0x803844 <loudness.3949>
    14ea:	88 23       	and	r24, r24
    14ec:	69 f0       	breq	.+26     	; 0x1508 <GenerateAudio+0xce>
                        auVolume = loudness;
    14ee:	80 93 8f 3a 	sts	0x3A8F, r24	; 0x803a8f <auVolume>
                        if (duration) duration--; else loudness >>= 1;
    14f2:	90 91 45 38 	lds	r25, 0x3845	; 0x803845 <duration.3950>
    14f6:	99 23       	and	r25, r25
    14f8:	21 f0       	breq	.+8      	; 0x1502 <GenerateAudio+0xc8>
    14fa:	91 50       	subi	r25, 0x01	; 1
    14fc:	90 93 45 38 	sts	0x3845, r25	; 0x803845 <duration.3950>
    1500:	03 c0       	rjmp	.+6      	; 0x1508 <GenerateAudio+0xce>
    1502:	86 95       	lsr	r24
    1504:	80 93 44 38 	sts	0x3844, r24	; 0x803844 <loudness.3949>
                    } 

                    if (loudness == 0) {
    1508:	80 91 44 38 	lds	r24, 0x3844	; 0x803844 <loudness.3949>
    150c:	81 11       	cpse	r24, r1
    150e:	19 c0       	rjmp	.+50     	; 0x1542 <GenerateAudio+0x108>
                        effect &= 0x10;
    1510:	80 91 2d 38 	lds	r24, 0x382D	; 0x80382d <effect>
    1514:	90 91 2e 38 	lds	r25, 0x382E	; 0x80382e <effect+0x1>
    1518:	80 71       	andi	r24, 0x10	; 16
    151a:	99 27       	eor	r25, r25
    151c:	80 93 2d 38 	sts	0x382D, r24	; 0x80382d <effect>
    1520:	90 93 2e 38 	sts	0x382E, r25	; 0x80382e <effect+0x1>
                        auRepAddr = &zero;
    1524:	8b e2       	ldi	r24, 0x2B	; 43
    1526:	98 e3       	ldi	r25, 0x38	; 56
    1528:	80 93 03 38 	sts	0x3803, r24	; 0x803803 <auRepAddr>
    152c:	90 93 04 38 	sts	0x3804, r25	; 0x803804 <auRepAddr+0x1>
                        auSmpAddr = &zero;
    1530:	80 93 05 38 	sts	0x3805, r24	; 0x803805 <auSmpAddr>
    1534:	90 93 06 38 	sts	0x3806, r25	; 0x803806 <auSmpAddr+0x1>
                        auVolume = 0xff;
    1538:	8f ef       	ldi	r24, 0xFF	; 255
    153a:	80 93 8f 3a 	sts	0x3A8F, r24	; 0x803a8f <auVolume>
                        start = 0;
    153e:	10 92 46 38 	sts	0x3846, r1	; 0x803846 <start.3951>
                    }
                }
            }

            //Good (bell)
            if ((effect&0xE0)==64){
    1542:	80 91 2d 38 	lds	r24, 0x382D	; 0x80382d <effect>
    1546:	90 91 2e 38 	lds	r25, 0x382E	; 0x80382e <effect+0x1>
                //auBuffer = 
            }

            //Rain storm with whistling wind
            if ((effect&0xE0)==96){
    154a:	80 91 2d 38 	lds	r24, 0x382D	; 0x80382d <effect>
    154e:	90 91 2e 38 	lds	r25, 0x382E	; 0x80382e <effect+0x1>
    1552:	80 7e       	andi	r24, 0xE0	; 224
    1554:	99 27       	eor	r25, r25
    1556:	80 36       	cpi	r24, 0x60	; 96
    1558:	91 05       	cpc	r25, r1
    155a:	d1 f5       	brne	.+116    	; 0x15d0 <GenerateAudio+0x196>
                static uint8_t auBuffer[7];
                auBuffer[6]= 0;        
    155c:	10 92 43 38 	sts	0x3843, r1	; 0x803843 <auBuffer.3952+0x6>
                auRepAddr = &auBuffer[0];
    1560:	8d e3       	ldi	r24, 0x3D	; 61
    1562:	98 e3       	ldi	r25, 0x38	; 56
    1564:	80 93 03 38 	sts	0x3803, r24	; 0x803803 <auRepAddr>
    1568:	90 93 04 38 	sts	0x3804, r25	; 0x803804 <auRepAddr+0x1>
    156c:	8c 01       	movw	r16, r24

                //Noise is to be generated fast, outside of buttonMark loop
                for (uint8_t x=1; x<6; ++x){
    156e:	c1 e0       	ldi	r28, 0x01	; 1
                    if (x%3) auBuffer[x] = floatAround(0x80, 5, 0x01, 0x00);
    1570:	d3 e0       	ldi	r29, 0x03	; 3
    1572:	8c 2f       	mov	r24, r28
    1574:	6d 2f       	mov	r22, r29
    1576:	0e 94 75 1a 	call	0x34ea	; 0x34ea <__udivmodqi4>
    157a:	99 23       	and	r25, r25
    157c:	39 f0       	breq	.+14     	; 0x158c <GenerateAudio+0x152>
    157e:	20 e0       	ldi	r18, 0x00	; 0
    1580:	41 e0       	ldi	r20, 0x01	; 1
    1582:	65 e0       	ldi	r22, 0x05	; 5
    1584:	80 e8       	ldi	r24, 0x80	; 128
    1586:	67 dd       	rcall	.-1330   	; 0x1056 <floatAround>
    1588:	f8 01       	movw	r30, r16
    158a:	81 83       	std	Z+1, r24	; 0x01
                static uint8_t auBuffer[7];
                auBuffer[6]= 0;        
                auRepAddr = &auBuffer[0];

                //Noise is to be generated fast, outside of buttonMark loop
                for (uint8_t x=1; x<6; ++x){
    158c:	cf 5f       	subi	r28, 0xFF	; 255
    158e:	0f 5f       	subi	r16, 0xFF	; 255
    1590:	1f 4f       	sbci	r17, 0xFF	; 255
    1592:	c6 30       	cpi	r28, 0x06	; 6
    1594:	71 f7       	brne	.-36     	; 0x1572 <GenerateAudio+0x138>
                    if (x%3) auBuffer[x] = floatAround(0x80, 5, 0x01, 0x00);
                }

                if (buttonMark){
    1596:	80 91 35 38 	lds	r24, 0x3835	; 0x803835 <buttonMark>
    159a:	88 23       	and	r24, r24
    159c:	c9 f0       	breq	.+50     	; 0x15d0 <GenerateAudio+0x196>
                    //"Floating" speed for howl (and noise, but that's hardly audible)
                    floatSpeed(5, 0x0280, 0x0400);
    159e:	40 e0       	ldi	r20, 0x00	; 0
    15a0:	54 e0       	ldi	r21, 0x04	; 4
    15a2:	60 e8       	ldi	r22, 0x80	; 128
    15a4:	72 e0       	ldi	r23, 0x02	; 2
    15a6:	85 e0       	ldi	r24, 0x05	; 5
    15a8:	24 dd       	rcall	.-1464   	; 0xff2 <floatSpeed>
            
                    //"Floating" volume and wind howl during 8 bit rainstorm needs some randomness
                    auVolume = floatAround(auVolume, 2, 0x10, 0xA0);
    15aa:	80 91 8f 3a 	lds	r24, 0x3A8F	; 0x803a8f <auVolume>
    15ae:	20 ea       	ldi	r18, 0xA0	; 160
    15b0:	40 e1       	ldi	r20, 0x10	; 16
    15b2:	62 e0       	ldi	r22, 0x02	; 2
    15b4:	50 dd       	rcall	.-1376   	; 0x1056 <floatAround>
    15b6:	80 93 8f 3a 	sts	0x3A8F, r24	; 0x803a8f <auVolume>
                    auBuffer[0] = floatAround(auBuffer[0], 2, 0x70, 0x90);
    15ba:	20 e9       	ldi	r18, 0x90	; 144
    15bc:	40 e7       	ldi	r20, 0x70	; 112
    15be:	62 e0       	ldi	r22, 0x02	; 2
    15c0:	80 91 3d 38 	lds	r24, 0x383D	; 0x80383d <auBuffer.3952>
    15c4:	48 dd       	rcall	.-1392   	; 0x1056 <floatAround>
    15c6:	80 93 3d 38 	sts	0x383D, r24	; 0x80383d <auBuffer.3952>
                    auBuffer[3] = 0xFF-auBuffer[0];  //Inverse value of wind[0] produces a whistle
    15ca:	80 95       	com	r24
    15cc:	80 93 40 38 	sts	0x3840, r24	; 0x803840 <auBuffer.3952+0x3>
                }
            }

            //Footsteps
            if ((effect&0xE0)==128){
    15d0:	80 91 2d 38 	lds	r24, 0x382D	; 0x80382d <effect>
    15d4:	90 91 2e 38 	lds	r25, 0x382E	; 0x80382e <effect+0x1>

            }

            //
            if ((effect&0xE0)==160){
    15d8:	80 91 2d 38 	lds	r24, 0x382D	; 0x80382d <effect>
    15dc:	90 91 2e 38 	lds	r25, 0x382E	; 0x80382e <effect+0x1>

            }

            //
            if ((effect&0xE0)==192){
    15e0:	80 91 2d 38 	lds	r24, 0x382D	; 0x80382d <effect>
    15e4:	90 91 2e 38 	lds	r25, 0x382E	; 0x80382e <effect+0x1>
    15e8:	02 c0       	rjmp	.+4      	; 0x15ee <GenerateAudio+0x1b4>
            //
            else {
            }
        }
    } else {
        detHdPh = 0;
    15ea:	10 92 98 3a 	sts	0x3A98, r1	; 0x803a98 <detHdPh>
    }
    return buttonMark;
    15ee:	80 91 35 38 	lds	r24, 0x3835	; 0x803835 <buttonMark>
    15f2:	df 91       	pop	r29
    15f4:	cf 91       	pop	r28
    15f6:	1f 91       	pop	r17
    15f8:	0f 91       	pop	r16
    15fa:	08 95       	ret

000015fc <BastetDictates>:

// Main game loop
uint8_t BastetDictates(){
  
    return 0;
}
    15fc:	80 e0       	ldi	r24, 0x00	; 0
    15fe:	08 95       	ret

00001600 <Cheat>:

//
void SetResponse(uint8_t number, uint16_t address, uint16_t length, uint8_t type){
    reactStr[0][number]=address;
    reactStr[1][number]=length;
    reactStr[2][number]=type;
    1600:	1f 93       	push	r17
    1602:	cf 93       	push	r28
    1604:	df 93       	push	r29
    1606:	cd b7       	in	r28, 0x3d	; 61
    1608:	de b7       	in	r29, 0x3e	; 62
    160a:	62 97       	sbiw	r28, 0x12	; 18
    160c:	cd bf       	out	0x3d, r28	; 61
    160e:	de bf       	out	0x3e, r29	; 62
    1610:	8a 8b       	std	Y+18, r24	; 0x12
    1612:	80 e1       	ldi	r24, 0x10	; 16
    1614:	e8 e9       	ldi	r30, 0x98	; 152
    1616:	f5 eb       	ldi	r31, 0xB5	; 181
    1618:	de 01       	movw	r26, r28
    161a:	11 96       	adiw	r26, 0x01	; 1
    161c:	01 90       	ld	r0, Z+
    161e:	0d 92       	st	X+, r0
    1620:	8a 95       	dec	r24
    1622:	e1 f7       	brne	.-8      	; 0x161c <Cheat+0x1c>
    1624:	fe 01       	movw	r30, r28
    1626:	31 96       	adiw	r30, 0x01	; 1
    1628:	90 e0       	ldi	r25, 0x00	; 0
    162a:	8f ef       	ldi	r24, 0xFF	; 255
    162c:	21 91       	ld	r18, Z+
    162e:	31 91       	ld	r19, Z+
    1630:	26 17       	cp	r18, r22
    1632:	37 07       	cpc	r19, r23
    1634:	09 f4       	brne	.+2      	; 0x1638 <Cheat+0x38>
    1636:	89 2f       	mov	r24, r25
    1638:	9f 5f       	subi	r25, 0xFF	; 255
    163a:	98 30       	cpi	r25, 0x08	; 8
    163c:	b9 f7       	brne	.-18     	; 0x162c <Cheat+0x2c>
    163e:	88 30       	cpi	r24, 0x08	; 8
    1640:	10 f0       	brcs	.+4      	; 0x1646 <Cheat+0x46>
    1642:	80 e0       	ldi	r24, 0x00	; 0
    1644:	12 c0       	rjmp	.+36     	; 0x166a <Cheat+0x6a>
    1646:	18 e1       	ldi	r17, 0x18	; 24
    1648:	18 0f       	add	r17, r24
    164a:	41 e0       	ldi	r20, 0x01	; 1
    164c:	be 01       	movw	r22, r28
    164e:	6f 5e       	subi	r22, 0xEF	; 239
    1650:	7f 4f       	sbci	r23, 0xFF	; 255
    1652:	81 2f       	mov	r24, r17
    1654:	db db       	rcall	.-2122   	; 0xe0c <EERead>
    1656:	89 89       	ldd	r24, Y+17	; 0x11
    1658:	8f 3f       	cpi	r24, 0xFF	; 255
    165a:	99 f7       	brne	.-26     	; 0x1642 <Cheat+0x42>
    165c:	41 e0       	ldi	r20, 0x01	; 1
    165e:	be 01       	movw	r22, r28
    1660:	6e 5e       	subi	r22, 0xEE	; 238
    1662:	7f 4f       	sbci	r23, 0xFF	; 255
    1664:	81 2f       	mov	r24, r17
    1666:	e2 db       	rcall	.-2108   	; 0xe2c <EEWrite>
    1668:	81 e0       	ldi	r24, 0x01	; 1
    166a:	62 96       	adiw	r28, 0x12	; 18
    166c:	cd bf       	out	0x3d, r28	; 61
    166e:	de bf       	out	0x3e, r29	; 62
    1670:	df 91       	pop	r29
    1672:	cf 91       	pop	r28
    1674:	1f 91       	pop	r17
    1676:	08 95       	ret

00001678 <DecryptData>:
    1678:	f9 01       	movw	r30, r18
    167a:	9c 01       	movw	r18, r24
    167c:	2e 1b       	sub	r18, r30
    167e:	3f 0b       	sbc	r19, r31
    1680:	88 e0       	ldi	r24, 0x08	; 8
    1682:	48 9f       	mul	r20, r24
    1684:	a0 01       	movw	r20, r0
    1686:	11 24       	eor	r1, r1
    1688:	4e 59       	subi	r20, 0x9E	; 158
    168a:	59 44       	sbci	r21, 0x49	; 73
    168c:	66 23       	and	r22, r22
    168e:	69 f0       	breq	.+26     	; 0x16aa <DecryptData+0x32>
    1690:	df 01       	movw	r26, r30
    1692:	a2 0f       	add	r26, r18
    1694:	b3 1f       	adc	r27, r19
    1696:	a7 70       	andi	r26, 0x07	; 7
    1698:	bb 27       	eor	r27, r27
    169a:	a4 0f       	add	r26, r20
    169c:	b5 1f       	adc	r27, r21
    169e:	80 81       	ld	r24, Z
    16a0:	9c 91       	ld	r25, X
    16a2:	98 27       	eor	r25, r24
    16a4:	91 93       	st	Z+, r25
    16a6:	61 50       	subi	r22, 0x01	; 1
    16a8:	f1 cf       	rjmp	.-30     	; 0x168c <DecryptData+0x14>
    16aa:	08 95       	ret

000016ac <UnflipData>:
    16ac:	26 2f       	mov	r18, r22
    16ae:	fb 01       	movw	r30, r22
    16b0:	35 e5       	ldi	r19, 0x55	; 85
    16b2:	9e 2f       	mov	r25, r30
    16b4:	92 1b       	sub	r25, r18
    16b6:	98 17       	cp	r25, r24
    16b8:	28 f4       	brcc	.+10     	; 0x16c4 <UnflipData+0x18>
    16ba:	90 81       	ld	r25, Z
    16bc:	92 95       	swap	r25
    16be:	93 27       	eor	r25, r19
    16c0:	91 93       	st	Z+, r25
    16c2:	f7 cf       	rjmp	.-18     	; 0x16b2 <UnflipData+0x6>
    16c4:	08 95       	ret

000016c6 <ExtEERead>:
    16c6:	af 92       	push	r10
    16c8:	bf 92       	push	r11
    16ca:	cf 92       	push	r12
    16cc:	df 92       	push	r13
    16ce:	ef 92       	push	r14
    16d0:	ff 92       	push	r15
    16d2:	0f 93       	push	r16
    16d4:	1f 93       	push	r17
    16d6:	cf 93       	push	r28
    16d8:	df 93       	push	r29
    16da:	00 d0       	rcall	.+0      	; 0x16dc <ExtEERead+0x16>
    16dc:	cd b7       	in	r28, 0x3d	; 61
    16de:	de b7       	in	r29, 0x3e	; 62
    16e0:	d6 2e       	mov	r13, r22
    16e2:	c4 2e       	mov	r12, r20
    16e4:	59 01       	movw	r10, r18
    16e6:	7c 01       	movw	r14, r24
    16e8:	e8 94       	clt
    16ea:	f7 f8       	bld	r15, 7
    16ec:	f9 82       	std	Y+1, r15	; 0x01
    16ee:	ea 82       	std	Y+2, r14	; 0x02
    16f0:	06 2f       	mov	r16, r22
    16f2:	42 e0       	ldi	r20, 0x02	; 2
    16f4:	be 01       	movw	r22, r28
    16f6:	6f 5f       	subi	r22, 0xFF	; 255
    16f8:	7f 4f       	sbci	r23, 0xFF	; 255
    16fa:	80 e5       	ldi	r24, 0x50	; 80
    16fc:	0e 94 5a 01 	call	0x2b4	; 0x2b4 <I2C_read_bytes>
    1700:	18 2f       	mov	r17, r24
    1702:	81 11       	cpse	r24, r1
    1704:	05 c0       	rjmp	.+10     	; 0x1710 <ExtEERead+0x4a>
    1706:	95 01       	movw	r18, r10
    1708:	4c 2d       	mov	r20, r12
    170a:	6d 2d       	mov	r22, r13
    170c:	c7 01       	movw	r24, r14
    170e:	b4 df       	rcall	.-152    	; 0x1678 <DecryptData>
    1710:	81 2f       	mov	r24, r17
    1712:	0f 90       	pop	r0
    1714:	0f 90       	pop	r0
    1716:	df 91       	pop	r29
    1718:	cf 91       	pop	r28
    171a:	1f 91       	pop	r17
    171c:	0f 91       	pop	r16
    171e:	ff 90       	pop	r15
    1720:	ef 90       	pop	r14
    1722:	df 90       	pop	r13
    1724:	cf 90       	pop	r12
    1726:	bf 90       	pop	r11
    1728:	af 90       	pop	r10
    172a:	08 95       	ret

0000172c <ClearTxAfter>:
    172c:	8f 5f       	subi	r24, 0xFF	; 255
    172e:	88 30       	cpi	r24, 0x08	; 8
    1730:	30 f4       	brcc	.+12     	; 0x173e <ClearTxAfter+0x12>
    1732:	e8 2f       	mov	r30, r24
    1734:	f0 e0       	ldi	r31, 0x00	; 0
    1736:	ef 5d       	subi	r30, 0xDF	; 223
    1738:	f5 4c       	sbci	r31, 0xC5	; 197
    173a:	10 82       	st	Z, r1
    173c:	f7 cf       	rjmp	.-18     	; 0x172c <ClearTxAfter>
    173e:	08 95       	ret

00001740 <StartsWith>:
    1740:	ac 01       	movw	r20, r24
    1742:	90 e0       	ldi	r25, 0x00	; 0
    1744:	e9 2f       	mov	r30, r25
    1746:	f0 e0       	ldi	r31, 0x00	; 0
    1748:	da 01       	movw	r26, r20
    174a:	ae 0f       	add	r26, r30
    174c:	bf 1f       	adc	r27, r31
    174e:	3c 91       	ld	r19, X
    1750:	e6 0f       	add	r30, r22
    1752:	f7 1f       	adc	r31, r23
    1754:	31 11       	cpse	r19, r1
    1756:	05 c0       	rjmp	.+10     	; 0x1762 <StartsWith+0x22>
    1758:	81 e0       	ldi	r24, 0x01	; 1
    175a:	90 81       	ld	r25, Z
    175c:	99 23       	and	r25, r25
    175e:	49 f0       	breq	.+18     	; 0x1772 <StartsWith+0x32>
    1760:	07 c0       	rjmp	.+14     	; 0x1770 <StartsWith+0x30>
    1762:	20 81       	ld	r18, Z
    1764:	22 23       	and	r18, r18
    1766:	c1 f3       	breq	.-16     	; 0x1758 <StartsWith+0x18>
    1768:	32 13       	cpse	r19, r18
    176a:	02 c0       	rjmp	.+4      	; 0x1770 <StartsWith+0x30>
    176c:	9f 5f       	subi	r25, 0xFF	; 255
    176e:	ea cf       	rjmp	.-44     	; 0x1744 <StartsWith+0x4>
    1770:	80 e0       	ldi	r24, 0x00	; 0
    1772:	08 95       	ret

00001774 <PrepareSending>:
    1774:	61 15       	cp	r22, r1
    1776:	71 05       	cpc	r23, r1
    1778:	51 f1       	breq	.+84     	; 0x17ce <PrepareSending+0x5a>
    177a:	e9 e2       	ldi	r30, 0x29	; 41
    177c:	fa e3       	ldi	r31, 0x3A	; 58
    177e:	a1 e2       	ldi	r26, 0x21	; 33
    1780:	ba e3       	ldi	r27, 0x3A	; 58
    1782:	20 e0       	ldi	r18, 0x00	; 0
    1784:	3f ef       	ldi	r19, 0xFF	; 255
    1786:	6f 3f       	cpi	r22, 0xFF	; 255
    1788:	71 05       	cpc	r23, r1
    178a:	69 f0       	breq	.+26     	; 0x17a6 <PrepareSending+0x32>
    178c:	60 f0       	brcs	.+24     	; 0x17a6 <PrepareSending+0x32>
    178e:	81 93       	st	Z+, r24
    1790:	91 93       	st	Z+, r25
    1792:	3d 93       	st	X+, r19
    1794:	81 50       	subi	r24, 0x01	; 1
    1796:	9f 4f       	sbci	r25, 0xFF	; 255
    1798:	6f 5f       	subi	r22, 0xFF	; 255
    179a:	71 09       	sbc	r23, r1
    179c:	2f 5f       	subi	r18, 0xFF	; 255
    179e:	27 30       	cpi	r18, 0x07	; 7
    17a0:	91 f7       	brne	.-28     	; 0x1786 <PrepareSending+0x12>
    17a2:	81 e0       	ldi	r24, 0x01	; 1
    17a4:	08 95       	ret
    17a6:	e2 2f       	mov	r30, r18
    17a8:	f0 e0       	ldi	r31, 0x00	; 0
    17aa:	df 01       	movw	r26, r30
    17ac:	aa 0f       	add	r26, r26
    17ae:	bb 1f       	adc	r27, r27
    17b0:	a7 5d       	subi	r26, 0xD7	; 215
    17b2:	b5 4c       	sbci	r27, 0xC5	; 197
    17b4:	8d 93       	st	X+, r24
    17b6:	9c 93       	st	X, r25
    17b8:	ef 5d       	subi	r30, 0xDF	; 223
    17ba:	f5 4c       	sbci	r31, 0xC5	; 197
    17bc:	cb 01       	movw	r24, r22
    17be:	6f ef       	ldi	r22, 0xFF	; 255
    17c0:	70 e0       	ldi	r23, 0x00	; 0
    17c2:	0e 94 81 1a 	call	0x3502	; 0x3502 <__udivmodhi4>
    17c6:	80 83       	st	Z, r24
    17c8:	40 93 1f 3a 	sts	0x3A1F, r20	; 0x803a1f <txTypeNow>
    17cc:	05 c0       	rjmp	.+10     	; 0x17d8 <PrepareSending+0x64>
    17ce:	10 92 29 3a 	sts	0x3A29, r1	; 0x803a29 <txAddrList>
    17d2:	10 92 2a 3a 	sts	0x3A2A, r1	; 0x803a2a <txAddrList+0x1>
    17d6:	20 e0       	ldi	r18, 0x00	; 0
    17d8:	82 2f       	mov	r24, r18
    17da:	a8 df       	rcall	.-176    	; 0x172c <ClearTxAfter>
    17dc:	10 92 20 3a 	sts	0x3A20, r1	; 0x803a20 <txAddrNow>
    17e0:	80 e0       	ldi	r24, 0x00	; 0
    17e2:	08 95       	ret

000017e4 <SetStandardResponse>:
}

//
uint8_t SetStandardResponse(uint8_t custStrEnd){
    17e4:	cf 93       	push	r28
    17e6:	df 93       	push	r29
    return 0;
}

//
void SetResponse(uint8_t number, uint16_t address, uint16_t length, uint8_t type){
    reactStr[0][number]=address;
    17e8:	28 2f       	mov	r18, r24
    17ea:	30 e0       	ldi	r19, 0x00	; 0
    17ec:	f9 01       	movw	r30, r18
    17ee:	ee 0f       	add	r30, r30
    17f0:	ff 1f       	adc	r31, r31
    17f2:	ec 50       	subi	r30, 0x0C	; 12
    17f4:	f7 4c       	sbci	r31, 0xC7	; 199
    17f6:	ab e5       	ldi	r26, 0x5B	; 91
    17f8:	ba e7       	ldi	r27, 0x7A	; 122
    17fa:	a0 83       	st	Z, r26
    17fc:	b1 83       	std	Z+1, r27	; 0x01
    reactStr[1][number]=length;
    17fe:	f9 01       	movw	r30, r18
    1800:	ee 0f       	add	r30, r30
    1802:	ff 1f       	adc	r31, r31
    1804:	ec 5c       	subi	r30, 0xCC	; 204
    1806:	f6 4c       	sbci	r31, 0xC6	; 198
    1808:	62 e0       	ldi	r22, 0x02	; 2
    180a:	70 e0       	ldi	r23, 0x00	; 0
    180c:	60 83       	st	Z, r22
    180e:	71 83       	std	Z+1, r23	; 0x01
    reactStr[2][number]=type;
    1810:	22 0f       	add	r18, r18
    1812:	33 1f       	adc	r19, r19
    1814:	f9 01       	movw	r30, r18
    1816:	ec 58       	subi	r30, 0x8C	; 140
    1818:	f6 4c       	sbci	r31, 0xC6	; 198
    181a:	41 e0       	ldi	r20, 0x01	; 1
    181c:	50 e0       	ldi	r21, 0x00	; 0
    181e:	40 83       	st	Z, r20
    1820:	51 83       	std	Z+1, r21	; 0x01
    return 0;
}

//
void SetResponse(uint8_t number, uint16_t address, uint16_t length, uint8_t type){
    reactStr[0][number]=address;
    1822:	21 e0       	ldi	r18, 0x01	; 1
    1824:	28 0f       	add	r18, r24
    1826:	30 e0       	ldi	r19, 0x00	; 0
    1828:	f9 01       	movw	r30, r18
    182a:	ee 0f       	add	r30, r30
    182c:	ff 1f       	adc	r31, r31
    182e:	ec 50       	subi	r30, 0x0C	; 12
    1830:	f7 4c       	sbci	r31, 0xC7	; 199
    1832:	c4 e6       	ldi	r28, 0x64	; 100
    1834:	da e7       	ldi	r29, 0x7A	; 122
    1836:	c0 83       	st	Z, r28
    1838:	d1 83       	std	Z+1, r29	; 0x01
    reactStr[1][number]=length;
    183a:	f9 01       	movw	r30, r18
    183c:	ee 0f       	add	r30, r30
    183e:	ff 1f       	adc	r31, r31
    1840:	ec 5c       	subi	r30, 0xCC	; 204
    1842:	f6 4c       	sbci	r31, 0xC6	; 198
    1844:	ca e0       	ldi	r28, 0x0A	; 10
    1846:	d0 e0       	ldi	r29, 0x00	; 0
    1848:	c0 83       	st	Z, r28
    184a:	d1 83       	std	Z+1, r29	; 0x01
    reactStr[2][number]=type;
    184c:	22 0f       	add	r18, r18
    184e:	33 1f       	adc	r19, r19
    1850:	f9 01       	movw	r30, r18
    1852:	ec 58       	subi	r30, 0x8C	; 140
    1854:	f6 4c       	sbci	r31, 0xC6	; 198
    1856:	40 83       	st	Z, r20
    1858:	51 83       	std	Z+1, r21	; 0x01
uint8_t SetStandardResponse(uint8_t custStrEnd){

    SetResponse(custStrEnd++, A_LF, 2, TEASER);
    SetResponse(custStrEnd++, A_LOCATION, L_LOCATION, TEASER);
    //SetResponse(custStrEnd++, A_SPACE, L_SPACE, TEASER);
    reactStr[0][custStrEnd++] = CURR_LOC;
    185a:	e2 e0       	ldi	r30, 0x02	; 2
    185c:	e8 0f       	add	r30, r24
    185e:	f0 e0       	ldi	r31, 0x00	; 0
    1860:	ee 0f       	add	r30, r30
    1862:	ff 1f       	adc	r31, r31
    1864:	ec 50       	subi	r30, 0x0C	; 12
    1866:	f7 4c       	sbci	r31, 0xC7	; 199
    1868:	20 ef       	ldi	r18, 0xF0	; 240
    186a:	3f ef       	ldi	r19, 0xFF	; 255
    186c:	20 83       	st	Z, r18
    186e:	31 83       	std	Z+1, r19	; 0x01
    return 0;
}

//
void SetResponse(uint8_t number, uint16_t address, uint16_t length, uint8_t type){
    reactStr[0][number]=address;
    1870:	23 e0       	ldi	r18, 0x03	; 3
    1872:	28 0f       	add	r18, r24
    1874:	30 e0       	ldi	r19, 0x00	; 0
    1876:	f9 01       	movw	r30, r18
    1878:	ee 0f       	add	r30, r30
    187a:	ff 1f       	adc	r31, r31
    187c:	ec 50       	subi	r30, 0x0C	; 12
    187e:	f7 4c       	sbci	r31, 0xC7	; 199
    1880:	a0 83       	st	Z, r26
    1882:	b1 83       	std	Z+1, r27	; 0x01
    reactStr[1][number]=length;
    1884:	f9 01       	movw	r30, r18
    1886:	ee 0f       	add	r30, r30
    1888:	ff 1f       	adc	r31, r31
    188a:	ec 5c       	subi	r30, 0xCC	; 204
    188c:	f6 4c       	sbci	r31, 0xC6	; 198
    188e:	60 83       	st	Z, r22
    1890:	71 83       	std	Z+1, r23	; 0x01
    reactStr[2][number]=type;
    1892:	22 0f       	add	r18, r18
    1894:	33 1f       	adc	r19, r19
    1896:	f9 01       	movw	r30, r18
    1898:	ec 58       	subi	r30, 0x8C	; 140
    189a:	f6 4c       	sbci	r31, 0xC6	; 198
    189c:	40 83       	st	Z, r20
    189e:	51 83       	std	Z+1, r21	; 0x01
    return 0;
}

//
void SetResponse(uint8_t number, uint16_t address, uint16_t length, uint8_t type){
    reactStr[0][number]=address;
    18a0:	24 e0       	ldi	r18, 0x04	; 4
    18a2:	28 0f       	add	r18, r24
    18a4:	30 e0       	ldi	r19, 0x00	; 0
    18a6:	f9 01       	movw	r30, r18
    18a8:	ee 0f       	add	r30, r30
    18aa:	ff 1f       	adc	r31, r31
    18ac:	ec 50       	subi	r30, 0x0C	; 12
    18ae:	f7 4c       	sbci	r31, 0xC7	; 199
    18b0:	a7 e5       	ldi	r26, 0x57	; 87
    18b2:	ba e7       	ldi	r27, 0x7A	; 122
    18b4:	a0 83       	st	Z, r26
    18b6:	b1 83       	std	Z+1, r27	; 0x01
    reactStr[1][number]=length;
    18b8:	f9 01       	movw	r30, r18
    18ba:	ee 0f       	add	r30, r30
    18bc:	ff 1f       	adc	r31, r31
    18be:	ec 5c       	subi	r30, 0xCC	; 204
    18c0:	f6 4c       	sbci	r31, 0xC6	; 198
    18c2:	60 83       	st	Z, r22
    18c4:	71 83       	std	Z+1, r23	; 0x01
    reactStr[2][number]=type;
    18c6:	22 0f       	add	r18, r18
    18c8:	33 1f       	adc	r19, r19
    18ca:	f9 01       	movw	r30, r18
    18cc:	ec 58       	subi	r30, 0x8C	; 140
    18ce:	f6 4c       	sbci	r31, 0xC6	; 198
    18d0:	40 83       	st	Z, r20
    18d2:	51 83       	std	Z+1, r21	; 0x01
    SetResponse(custStrEnd++, A_LF, 2, TEASER);
    SetResponse(custStrEnd++, A_PROMPT, L_PROMPT, TEASER);
    //SetResponse(custStrEnd++, A_SPACE, L_SPACE, TEASER);

    return custStrEnd;
}
    18d4:	8b 5f       	subi	r24, 0xFB	; 251
    18d6:	df 91       	pop	r29
    18d8:	cf 91       	pop	r28
    18da:	08 95       	ret

000018dc <PopulateObject>:

//Get all the relevant data and string addresses of an object
void PopulateObject(uint16_t offset, object_model_t *object){
    18dc:	af 92       	push	r10
    18de:	bf 92       	push	r11
    18e0:	df 92       	push	r13
    18e2:	ef 92       	push	r14
    18e4:	ff 92       	push	r15
    18e6:	0f 93       	push	r16
    18e8:	1f 93       	push	r17
    18ea:	cf 93       	push	r28
    18ec:	df 93       	push	r29
    18ee:	cd b7       	in	r28, 0x3d	; 61
    18f0:	de b7       	in	r29, 0x3e	; 62
    18f2:	2c 97       	sbiw	r28, 0x0c	; 12
    18f4:	cd bf       	out	0x3d, r28	; 61
    18f6:	de bf       	out	0x3e, r29	; 62
    18f8:	7c 01       	movw	r14, r24
    18fa:	8b 01       	movw	r16, r22
    uint16_t parStr;
    offset += L_BOILER;

    //Fill things with fixed distance to offset
    uint8_t data[OFF_STRINGFLDS];
    ExtEERead(offset, OFF_STRINGFLDS, GAME, &data[0]);
    18fc:	9e 01       	movw	r18, r28
    18fe:	2f 5f       	subi	r18, 0xFF	; 255
    1900:	3f 4f       	sbci	r19, 0xFF	; 255
    1902:	40 e0       	ldi	r20, 0x00	; 0
    1904:	6c e0       	ldi	r22, 0x0C	; 12
    1906:	80 96       	adiw	r24, 0x20	; 32
    1908:	de de       	rcall	.-580    	; 0x16c6 <ExtEERead>
    object->addrNextObj = (data[OFF_NEXTOBJ]<<8|data[OFF_NEXTOBJ+1])+L_BOILER;
    190a:	89 81       	ldd	r24, Y+1	; 0x01
    190c:	9a 81       	ldd	r25, Y+2	; 0x02
    190e:	98 27       	eor	r25, r24
    1910:	89 27       	eor	r24, r25
    1912:	98 27       	eor	r25, r24
    1914:	80 96       	adiw	r24, 0x20	; 32
    1916:	f8 01       	movw	r30, r16
    1918:	80 83       	st	Z, r24
    191a:	91 83       	std	Z+1, r25	; 0x01
    object->addrNextLvl = (data[OFF_NEXTLVL]<<8|data[OFF_NEXTLVL+1])+L_BOILER;
    191c:	8b 81       	ldd	r24, Y+3	; 0x03
    191e:	9c 81       	ldd	r25, Y+4	; 0x04
    1920:	98 27       	eor	r25, r24
    1922:	89 27       	eor	r24, r25
    1924:	98 27       	eor	r25, r24
    1926:	80 96       	adiw	r24, 0x20	; 32
    1928:	82 83       	std	Z+2, r24	; 0x02
    192a:	93 83       	std	Z+3, r25	; 0x03
    192c:	de 01       	movw	r26, r28
    192e:	15 96       	adiw	r26, 0x05	; 5
    1930:	34 96       	adiw	r30, 0x04	; 4
    1932:	c8 01       	movw	r24, r16
    1934:	0c 96       	adiw	r24, 0x0c	; 12
    for (uint8_t x=0; x<BYTE_FIELDS_LEN; ++x){
        object->byteField[x]=data[x+OFF_BYTEFLDS];
    1936:	2d 91       	ld	r18, X+
    1938:	21 93       	st	Z+, r18
    //Fill things with fixed distance to offset
    uint8_t data[OFF_STRINGFLDS];
    ExtEERead(offset, OFF_STRINGFLDS, GAME, &data[0]);
    object->addrNextObj = (data[OFF_NEXTOBJ]<<8|data[OFF_NEXTOBJ+1])+L_BOILER;
    object->addrNextLvl = (data[OFF_NEXTLVL]<<8|data[OFF_NEXTLVL+1])+L_BOILER;
    for (uint8_t x=0; x<BYTE_FIELDS_LEN; ++x){
    193a:	e8 17       	cp	r30, r24
    193c:	f9 07       	cpc	r31, r25
    193e:	d9 f7       	brne	.-10     	; 0x1936 <PopulateObject+0x5a>
        object->byteField[x]=data[x+OFF_BYTEFLDS];
    }

    //Find out where all of the strings begin and how long they are
    offset += OFF_STRINGFLDS;
    1940:	fc e2       	ldi	r31, 0x2C	; 44
    1942:	ef 0e       	add	r14, r31
    1944:	f1 1c       	adc	r15, r1
    1946:	58 01       	movw	r10, r16
    for(uint8_t x=0; x<STRING_FIELDS_LEN; ++x){
    1948:	d1 2c       	mov	r13, r1
        
        //Determine length
        ExtEERead(offset, 3, GAME, &data[0]);
    194a:	9e 01       	movw	r18, r28
    194c:	2f 5f       	subi	r18, 0xFF	; 255
    194e:	3f 4f       	sbci	r19, 0xFF	; 255
    1950:	40 e0       	ldi	r20, 0x00	; 0
    1952:	63 e0       	ldi	r22, 0x03	; 3
    1954:	c7 01       	movw	r24, r14
    1956:	b7 de       	rcall	.-658    	; 0x16c6 <ExtEERead>
    1958:	89 81       	ldd	r24, Y+1	; 0x01
    195a:	9a 81       	ldd	r25, Y+2	; 0x02
    195c:	98 27       	eor	r25, r24
    195e:	89 27       	eor	r24, r25
    1960:	98 27       	eor	r25, r24
        parStr = (data[0]<<8|data[1]);
        offset += 2;
    1962:	97 01       	movw	r18, r14
    1964:	2e 5f       	subi	r18, 0xFE	; 254
    1966:	3f 4f       	sbci	r19, 0xFF	; 255
        if (x >= OPEN_ACL_MSG){
    1968:	43 e0       	ldi	r20, 0x03	; 3
    196a:	4d 15       	cp	r20, r13
    196c:	80 f4       	brcc	.+32     	; 0x198e <PopulateObject+0xb2>
            object->lenStr[x]= parStr-1;
    196e:	ac 01       	movw	r20, r24
    1970:	41 50       	subi	r20, 0x01	; 1
    1972:	51 09       	sbc	r21, r1
    1974:	f8 01       	movw	r30, r16
    1976:	42 8f       	std	Z+26, r20	; 0x1a
    1978:	53 8f       	std	Z+27, r21	; 0x1b
            object->addrStr[x]=offset+1;
    197a:	f3 e0       	ldi	r31, 0x03	; 3
    197c:	ef 0e       	add	r14, r31
    197e:	f1 1c       	adc	r15, r1
    1980:	f8 01       	movw	r30, r16
    1982:	e4 86       	std	Z+12, r14	; 0x0c
    1984:	f5 86       	std	Z+13, r15	; 0x0d
            object->effect[x-OPEN_ACL_MSG] = data[2];
    1986:	4b 81       	ldd	r20, Y+3	; 0x03
    1988:	f5 01       	movw	r30, r10
    198a:	44 a3       	std	Z+36, r20	; 0x24
    198c:	05 c0       	rjmp	.+10     	; 0x1998 <PopulateObject+0xbc>
        } else {
            object->lenStr[x]= parStr;
    198e:	f8 01       	movw	r30, r16
    1990:	82 8f       	std	Z+26, r24	; 0x1a
    1992:	93 8f       	std	Z+27, r25	; 0x1b
            object->addrStr[x]=offset;
    1994:	24 87       	std	Z+12, r18	; 0x0c
    1996:	35 87       	std	Z+13, r19	; 0x0d
        }
        
        //Determine string start location for next field
        offset += parStr;
    1998:	7c 01       	movw	r14, r24
    199a:	e2 0e       	add	r14, r18
    199c:	f3 1e       	adc	r15, r19
        object->byteField[x]=data[x+OFF_BYTEFLDS];
    }

    //Find out where all of the strings begin and how long they are
    offset += OFF_STRINGFLDS;
    for(uint8_t x=0; x<STRING_FIELDS_LEN; ++x){
    199e:	d3 94       	inc	r13
    19a0:	0e 5f       	subi	r16, 0xFE	; 254
    19a2:	1f 4f       	sbci	r17, 0xFF	; 255
    19a4:	ff ef       	ldi	r31, 0xFF	; 255
    19a6:	af 1a       	sub	r10, r31
    19a8:	bf 0a       	sbc	r11, r31
    19aa:	47 e0       	ldi	r20, 0x07	; 7
    19ac:	d4 12       	cpse	r13, r20
    19ae:	cd cf       	rjmp	.-102    	; 0x194a <PopulateObject+0x6e>
        }
        
        //Determine string start location for next field
        offset += parStr;
    }    
}
    19b0:	2c 96       	adiw	r28, 0x0c	; 12
    19b2:	cd bf       	out	0x3d, r28	; 61
    19b4:	de bf       	out	0x3e, r29	; 62
    19b6:	df 91       	pop	r29
    19b8:	cf 91       	pop	r28
    19ba:	1f 91       	pop	r17
    19bc:	0f 91       	pop	r16
    19be:	ff 90       	pop	r15
    19c0:	ef 90       	pop	r14
    19c2:	df 90       	pop	r13
    19c4:	bf 90       	pop	r11
    19c6:	af 90       	pop	r10
    19c8:	08 95       	ret

000019ca <CheckLetter>:

//Check if the entered letter corresponds with a name
uint8_t CheckLetter(uint16_t object, uint8_t letter){
    19ca:	cf 92       	push	r12
    19cc:	df 92       	push	r13
    19ce:	ef 92       	push	r14
    19d0:	ff 92       	push	r15
    19d2:	0f 93       	push	r16
    19d4:	1f 93       	push	r17
    19d6:	cf 93       	push	r28
    19d8:	df 93       	push	r29
    19da:	cd b7       	in	r28, 0x3d	; 61
    19dc:	de b7       	in	r29, 0x3e	; 62
    19de:	a0 97       	sbiw	r28, 0x20	; 32
    19e0:	cd bf       	out	0x3d, r28	; 61
    19e2:	de bf       	out	0x3e, r29	; 62
    19e4:	c6 2e       	mov	r12, r22
    
    uint8_t found = 0;
    uint8_t data[32];

    object += L_BOILER;
    19e6:	7c 01       	movw	r14, r24
    19e8:	20 e2       	ldi	r18, 0x20	; 32
    19ea:	e2 0e       	add	r14, r18
    19ec:	f1 1c       	adc	r15, r1
    ExtEERead(object+OFF_STRINGFLDS, 2, GAME, &data[0]);
    19ee:	9e 01       	movw	r18, r28
    19f0:	2f 5f       	subi	r18, 0xFF	; 255
    19f2:	3f 4f       	sbci	r19, 0xFF	; 255
    19f4:	40 e0       	ldi	r20, 0x00	; 0
    19f6:	62 e0       	ldi	r22, 0x02	; 2
    19f8:	8c 96       	adiw	r24, 0x2c	; 44
    19fa:	65 de       	rcall	.-822    	; 0x16c6 <ExtEERead>
    uint8_t x = data[1]; //Assuming a name is not longer than 255 characters.
    19fc:	1a 81       	ldd	r17, Y+2	; 0x02
}

//Check if the entered letter corresponds with a name
uint8_t CheckLetter(uint16_t object, uint8_t letter){
    
    uint8_t found = 0;
    19fe:	d1 2c       	mov	r13, r1

    object += L_BOILER;
    ExtEERead(object+OFF_STRINGFLDS, 2, GAME, &data[0]);
    uint8_t x = data[1]; //Assuming a name is not longer than 255 characters.

    while (x){
    1a00:	11 23       	and	r17, r17
    1a02:	51 f1       	breq	.+84     	; 0x1a58 <CheckLetter+0x8e>
    1a04:	01 2f       	mov	r16, r17
    1a06:	11 32       	cpi	r17, 0x21	; 33
    1a08:	08 f0       	brcs	.+2      	; 0x1a0c <CheckLetter+0x42>
    1a0a:	00 e2       	ldi	r16, 0x20	; 32
        uint8_t max;
        if (x>32) max = 32; else max = x;
        ExtEERead(object+OFF_STRINGFLDS+2, max, GAME, &data[0]);
    1a0c:	9e 01       	movw	r18, r28
    1a0e:	2f 5f       	subi	r18, 0xFF	; 255
    1a10:	3f 4f       	sbci	r19, 0xFF	; 255
    1a12:	40 e0       	ldi	r20, 0x00	; 0
    1a14:	60 2f       	mov	r22, r16
    1a16:	c7 01       	movw	r24, r14
    1a18:	0e 96       	adiw	r24, 0x0e	; 14
    1a1a:	55 de       	rcall	.-854    	; 0x16c6 <ExtEERead>
    1a1c:	fe 01       	movw	r30, r28
    1a1e:	31 96       	adiw	r30, 0x01	; 1
        for (uint8_t y=0; y<max; ++y){
    1a20:	80 e0       	ldi	r24, 0x00	; 0
            if (found){
    1a22:	dd 20       	and	r13, r13
    1a24:	61 f0       	breq	.+24     	; 0x1a3e <CheckLetter+0x74>
                if ((data[y]|0x20) == letter) return 1; else return 0;
    1a26:	e1 e0       	ldi	r30, 0x01	; 1
    1a28:	f0 e0       	ldi	r31, 0x00	; 0
    1a2a:	ec 0f       	add	r30, r28
    1a2c:	fd 1f       	adc	r31, r29
    1a2e:	e8 0f       	add	r30, r24
    1a30:	f1 1d       	adc	r31, r1
    1a32:	90 81       	ld	r25, Z
    1a34:	90 62       	ori	r25, 0x20	; 32
    1a36:	81 e0       	ldi	r24, 0x01	; 1
    1a38:	9c 11       	cpse	r25, r12
    1a3a:	0e c0       	rjmp	.+28     	; 0x1a58 <CheckLetter+0x8e>
    1a3c:	0e c0       	rjmp	.+28     	; 0x1a5a <CheckLetter+0x90>
            }
            if (data[y] == '[') found = 1;
    1a3e:	91 91       	ld	r25, Z+
    1a40:	dd 24       	eor	r13, r13
    1a42:	d3 94       	inc	r13
    1a44:	9b 35       	cpi	r25, 0x5B	; 91
    1a46:	09 f0       	breq	.+2      	; 0x1a4a <CheckLetter+0x80>
    1a48:	d1 2c       	mov	r13, r1

    while (x){
        uint8_t max;
        if (x>32) max = 32; else max = x;
        ExtEERead(object+OFF_STRINGFLDS+2, max, GAME, &data[0]);
        for (uint8_t y=0; y<max; ++y){
    1a4a:	8f 5f       	subi	r24, 0xFF	; 255
    1a4c:	80 17       	cp	r24, r16
    1a4e:	48 f3       	brcs	.-46     	; 0x1a22 <CheckLetter+0x58>
            if (found){
                if ((data[y]|0x20) == letter) return 1; else return 0;
            }
            if (data[y] == '[') found = 1;
        }
        object += max;
    1a50:	e0 0e       	add	r14, r16
    1a52:	f1 1c       	adc	r15, r1
        x -= max;
    1a54:	10 1b       	sub	r17, r16
    1a56:	d4 cf       	rjmp	.-88     	; 0x1a00 <CheckLetter+0x36>
    }
    return 0;
    1a58:	80 e0       	ldi	r24, 0x00	; 0
}
    1a5a:	a0 96       	adiw	r28, 0x20	; 32
    1a5c:	cd bf       	out	0x3d, r28	; 61
    1a5e:	de bf       	out	0x3e, r29	; 62
    1a60:	df 91       	pop	r29
    1a62:	cf 91       	pop	r28
    1a64:	1f 91       	pop	r17
    1a66:	0f 91       	pop	r16
    1a68:	ff 90       	pop	r15
    1a6a:	ef 90       	pop	r14
    1a6c:	df 90       	pop	r13
    1a6e:	cf 90       	pop	r12
    1a70:	08 95       	ret

00001a72 <FindChild>:

//Returns the child's address if the child is visible and the search letter matches
uint16_t FindChild(uint16_t parent, uint8_t letter, uint16_t start){
    1a72:	af 92       	push	r10
    1a74:	bf 92       	push	r11
    1a76:	df 92       	push	r13
    1a78:	ef 92       	push	r14
    1a7a:	ff 92       	push	r15
    1a7c:	0f 93       	push	r16
    1a7e:	1f 93       	push	r17
    1a80:	cf 93       	push	r28
    1a82:	df 93       	push	r29
    1a84:	00 d0       	rcall	.+0      	; 0x1a86 <FindChild+0x14>
    1a86:	00 d0       	rcall	.+0      	; 0x1a88 <FindChild+0x16>
    1a88:	cd b7       	in	r28, 0x3d	; 61
    1a8a:	de b7       	in	r29, 0x3e	; 62
    1a8c:	d6 2e       	mov	r13, r22
    1a8e:	5a 01       	movw	r10, r20
    
    uint16_t child = parent;
    uint8_t data[4];

    ExtEERead(child+L_BOILER, 4, GAME, &data[0]);
    1a90:	9e 01       	movw	r18, r28
    1a92:	2f 5f       	subi	r18, 0xFF	; 255
    1a94:	3f 4f       	sbci	r19, 0xFF	; 255
    1a96:	40 e0       	ldi	r20, 0x00	; 0
    1a98:	64 e0       	ldi	r22, 0x04	; 4
    1a9a:	80 96       	adiw	r24, 0x20	; 32
    1a9c:	14 de       	rcall	.-984    	; 0x16c6 <ExtEERead>
    1a9e:	e9 80       	ldd	r14, Y+1	; 0x01
    1aa0:	fa 80       	ldd	r15, Y+2	; 0x02
    1aa2:	fe 24       	eor	r15, r14
    1aa4:	ef 24       	eor	r14, r15
    1aa6:	fe 24       	eor	r15, r14
    1aa8:	0b 81       	ldd	r16, Y+3	; 0x03
    1aaa:	1c 81       	ldd	r17, Y+4	; 0x04
    1aac:	10 27       	eor	r17, r16
    1aae:	01 27       	eor	r16, r17
    1ab0:	10 27       	eor	r17, r16
    parent = (data[0]<<8|data[1]);    //Next object on parent level
    child =  (data[2]<<8|data[3]);    //First object on child level

    //As long as the child is within the parent's range
    while (parent>child){
    1ab2:	0e 15       	cp	r16, r14
    1ab4:	1f 05       	cpc	r17, r15
    1ab6:	30 f5       	brcc	.+76     	; 0x1b04 <FindChild+0x92>

        //If child's address is higher than the start address, perform search for letter
        if (child>start){
    1ab8:	a0 16       	cp	r10, r16
    1aba:	b1 06       	cpc	r11, r17
    1abc:	58 f0       	brcs	.+22     	; 0x1ad4 <FindChild+0x62>
                if ((letter == 0)||(CheckLetter(child, letter))) return child;
            }
        }

        //Not visible or name not right
        ExtEERead(child+L_BOILER, 2, GAME, &data[0]);
    1abe:	9e 01       	movw	r18, r28
    1ac0:	2f 5f       	subi	r18, 0xFF	; 255
    1ac2:	3f 4f       	sbci	r19, 0xFF	; 255
    1ac4:	40 e0       	ldi	r20, 0x00	; 0
    1ac6:	62 e0       	ldi	r22, 0x02	; 2
    1ac8:	c8 01       	movw	r24, r16
    1aca:	80 96       	adiw	r24, 0x20	; 32
    1acc:	fc dd       	rcall	.-1032   	; 0x16c6 <ExtEERead>
    1ace:	09 81       	ldd	r16, Y+1	; 0x01
    1ad0:	1a 81       	ldd	r17, Y+2	; 0x02
    1ad2:	ec cf       	rjmp	.-40     	; 0x1aac <FindChild+0x3a>
    //As long as the child is within the parent's range
    while (parent>child){

        //If child's address is higher than the start address, perform search for letter
        if (child>start){
            ExtEERead(child+OFF_BYTEFLDS+VISIBLE_ACL+L_BOILER, 1, GAME, &data[0]);
    1ad4:	9e 01       	movw	r18, r28
    1ad6:	2f 5f       	subi	r18, 0xFF	; 255
    1ad8:	3f 4f       	sbci	r19, 0xFF	; 255
    1ada:	40 e0       	ldi	r20, 0x00	; 0
    1adc:	61 e0       	ldi	r22, 0x01	; 1
    1ade:	c8 01       	movw	r24, r16
    1ae0:	85 96       	adiw	r24, 0x25	; 37
    1ae2:	f1 dd       	rcall	.-1054   	; 0x16c6 <ExtEERead>
            if ((data[0] == 0)||(CheckState(data[0]))) {
    1ae4:	89 81       	ldd	r24, Y+1	; 0x01
    1ae6:	81 11       	cpse	r24, r1
    1ae8:	03 c0       	rjmp	.+6      	; 0x1af0 <FindChild+0x7e>
                if ((letter == 0)||(CheckLetter(child, letter))) return child;
    1aea:	d1 10       	cpse	r13, r1
    1aec:	05 c0       	rjmp	.+10     	; 0x1af8 <FindChild+0x86>
    while (parent>child){

        //If child's address is higher than the start address, perform search for letter
        if (child>start){
            ExtEERead(child+OFF_BYTEFLDS+VISIBLE_ACL+L_BOILER, 1, GAME, &data[0]);
            if ((data[0] == 0)||(CheckState(data[0]))) {
    1aee:	0d c0       	rjmp	.+26     	; 0x1b0a <FindChild+0x98>
    1af0:	8f db       	rcall	.-2274   	; 0x1210 <CheckState>
    1af2:	81 11       	cpse	r24, r1
    1af4:	fa cf       	rjmp	.-12     	; 0x1aea <FindChild+0x78>
                if ((letter == 0)||(CheckLetter(child, letter))) return child;
    1af6:	e3 cf       	rjmp	.-58     	; 0x1abe <FindChild+0x4c>
    1af8:	6d 2d       	mov	r22, r13
    1afa:	c8 01       	movw	r24, r16
    1afc:	66 df       	rcall	.-308    	; 0x19ca <CheckLetter>
    1afe:	88 23       	and	r24, r24
    1b00:	f1 f2       	breq	.-68     	; 0x1abe <FindChild+0x4c>
    1b02:	03 c0       	rjmp	.+6      	; 0x1b0a <FindChild+0x98>

        //Not visible or name not right
        ExtEERead(child+L_BOILER, 2, GAME, &data[0]);
        child = (data[0]<<8|data[1]);    //Next object on child level
        
    } return 0;
    1b04:	80 e0       	ldi	r24, 0x00	; 0
    1b06:	90 e0       	ldi	r25, 0x00	; 0
    1b08:	01 c0       	rjmp	.+2      	; 0x1b0c <FindChild+0x9a>
    1b0a:	c8 01       	movw	r24, r16
}
    1b0c:	24 96       	adiw	r28, 0x04	; 4
    1b0e:	cd bf       	out	0x3d, r28	; 61
    1b10:	de bf       	out	0x3e, r29	; 62
    1b12:	df 91       	pop	r29
    1b14:	cf 91       	pop	r28
    1b16:	1f 91       	pop	r17
    1b18:	0f 91       	pop	r16
    1b1a:	ff 90       	pop	r15
    1b1c:	ef 90       	pop	r14
    1b1e:	df 90       	pop	r13
    1b20:	bf 90       	pop	r11
    1b22:	af 90       	pop	r10
    1b24:	08 95       	ret

00001b26 <InpOkChk>:

//Allow only a(A) to z(Z) and 0 to 9 as input
uint8_t InpOkChk(uint8_t test){
    test |= 0x20;
    1b26:	80 62       	ori	r24, 0x20	; 32
    if ((test>='a')&&(test<='z')) return 1;
    1b28:	9f e9       	ldi	r25, 0x9F	; 159
    1b2a:	98 0f       	add	r25, r24
    1b2c:	9a 31       	cpi	r25, 0x1A	; 26
    1b2e:	38 f0       	brcs	.+14     	; 0x1b3e <InpOkChk+0x18>
    1b30:	90 ed       	ldi	r25, 0xD0	; 208
    1b32:	98 0f       	add	r25, r24
    1b34:	81 e0       	ldi	r24, 0x01	; 1
    1b36:	9a 30       	cpi	r25, 0x0A	; 10
    1b38:	18 f0       	brcs	.+6      	; 0x1b40 <InpOkChk+0x1a>
    1b3a:	80 e0       	ldi	r24, 0x00	; 0
    1b3c:	08 95       	ret
    1b3e:	81 e0       	ldi	r24, 0x01	; 1
    if ((test>='0')&&(test<='9')) return 1;
    return 0;
}
    1b40:	08 95       	ret

00001b42 <CleanInput>:

//Cleans input of garbage and returns length of cleaned input "o->d2  !\0" becomes "od2\0"
uint8_t CleanInput(uint8_t *data){
    1b42:	0f 93       	push	r16
    1b44:	1f 93       	push	r17
    1b46:	cf 93       	push	r28
    1b48:	df 93       	push	r29
    1b4a:	8c 01       	movw	r16, r24
    uint8_t cnt = 0;
    for (uint8_t x=0; data[x]!=0; ++x){
    1b4c:	d0 e0       	ldi	r29, 0x00	; 0
    return 0;
}

//Cleans input of garbage and returns length of cleaned input "o->d2  !\0" becomes "od2\0"
uint8_t CleanInput(uint8_t *data){
    uint8_t cnt = 0;
    1b4e:	c0 e0       	ldi	r28, 0x00	; 0
    for (uint8_t x=0; data[x]!=0; ++x){
    1b50:	f8 01       	movw	r30, r16
    1b52:	ed 0f       	add	r30, r29
    1b54:	f1 1d       	adc	r31, r1
    1b56:	20 81       	ld	r18, Z
    1b58:	8c 2f       	mov	r24, r28
    1b5a:	90 e0       	ldi	r25, 0x00	; 0
    1b5c:	22 23       	and	r18, r18
    1b5e:	51 f0       	breq	.+20     	; 0x1b74 <CleanInput+0x32>
        data[cnt] = data[x];
    1b60:	d8 01       	movw	r26, r16
    1b62:	a8 0f       	add	r26, r24
    1b64:	b9 1f       	adc	r27, r25
    1b66:	2c 93       	st	X, r18
        if (InpOkChk(data[x])) ++cnt;
    1b68:	80 81       	ld	r24, Z
    1b6a:	dd df       	rcall	.-70     	; 0x1b26 <InpOkChk>
    1b6c:	81 11       	cpse	r24, r1
    1b6e:	cf 5f       	subi	r28, 0xFF	; 255
}

//Cleans input of garbage and returns length of cleaned input "o->d2  !\0" becomes "od2\0"
uint8_t CleanInput(uint8_t *data){
    uint8_t cnt = 0;
    for (uint8_t x=0; data[x]!=0; ++x){
    1b70:	df 5f       	subi	r29, 0xFF	; 255
    1b72:	ee cf       	rjmp	.-36     	; 0x1b50 <CleanInput+0xe>
        data[cnt] = data[x];
        if (InpOkChk(data[x])) ++cnt;
    }
    data[cnt] = 0;
    1b74:	f8 01       	movw	r30, r16
    1b76:	e8 0f       	add	r30, r24
    1b78:	f9 1f       	adc	r31, r25
    1b7a:	10 82       	st	Z, r1
    return cnt;
}
    1b7c:	8c 2f       	mov	r24, r28
    1b7e:	df 91       	pop	r29
    1b80:	cf 91       	pop	r28
    1b82:	1f 91       	pop	r17
    1b84:	0f 91       	pop	r16
    1b86:	08 95       	ret

00001b88 <CheckSend>:

//Send routine, optimized for low memory usage
uint8_t CheckSend(){
    1b88:	cf 93       	push	r28
    static uint8_t txPart;
    uint8_t EEreadLength=0;

    //Play effects if available and not already playing
    if (effect == 0){
    1b8a:	80 91 2d 38 	lds	r24, 0x382D	; 0x80382d <effect>
    1b8e:	90 91 2e 38 	lds	r25, 0x382E	; 0x80382e <effect+0x1>
    1b92:	89 2b       	or	r24, r25
    1b94:	99 f4       	brne	.+38     	; 0x1bbc <CheckSend+0x34>
        effect = currObj.byteField[EFFECTS];
    1b96:	80 91 f8 39 	lds	r24, 0x39F8	; 0x8039f8 <currObj+0x4>
    1b9a:	90 e0       	ldi	r25, 0x00	; 0
    1b9c:	80 93 2d 38 	sts	0x382D, r24	; 0x80382d <effect>
    1ba0:	90 93 2e 38 	sts	0x382E, r25	; 0x80382e <effect+0x1>
        auStart = ((effect&0xE0)>0);
    1ba4:	80 91 2d 38 	lds	r24, 0x382D	; 0x80382d <effect>
    1ba8:	90 91 2e 38 	lds	r25, 0x382E	; 0x80382e <effect+0x1>
    1bac:	80 7e       	andi	r24, 0xE0	; 224
    1bae:	99 27       	eor	r25, r25
    1bb0:	21 e0       	ldi	r18, 0x01	; 1
    1bb2:	89 2b       	or	r24, r25
    1bb4:	09 f4       	brne	.+2      	; 0x1bb8 <CheckSend+0x30>
    1bb6:	20 e0       	ldi	r18, 0x00	; 0
    1bb8:	20 93 2c 38 	sts	0x382C, r18	; 0x80382c <auStart>
    }

    //Check if more string(part)s have to be sent to the serial output if previous send operation is completed
    if ((txAddrNow < TXLISTLEN) && serTxDone){
    1bbc:	20 91 20 3a 	lds	r18, 0x3A20	; 0x803a20 <txAddrNow>
    1bc0:	28 30       	cpi	r18, 0x08	; 8
    1bc2:	08 f0       	brcs	.+2      	; 0x1bc6 <CheckSend+0x3e>
    1bc4:	47 c0       	rjmp	.+142    	; 0x1c54 <CheckSend+0xcc>
    1bc6:	80 91 08 38 	lds	r24, 0x3808	; 0x803808 <serTxDone>
    1bca:	88 23       	and	r24, r24
    1bcc:	09 f4       	brne	.+2      	; 0x1bd0 <CheckSend+0x48>
    1bce:	42 c0       	rjmp	.+132    	; 0x1c54 <CheckSend+0xcc>
        if (txStrLen[txAddrNow] == 0){
    1bd0:	82 2f       	mov	r24, r18
    1bd2:	90 e0       	ldi	r25, 0x00	; 0
    1bd4:	fc 01       	movw	r30, r24
    1bd6:	ef 5d       	subi	r30, 0xDF	; 223
    1bd8:	f5 4c       	sbci	r31, 0xC5	; 197
    1bda:	e0 81       	ld	r30, Z
    1bdc:	e1 11       	cpse	r30, r1
    1bde:	06 c0       	rjmp	.+12     	; 0x1bec <CheckSend+0x64>
            txPart = 0;
    1be0:	10 92 e1 38 	sts	0x38E1, r1	; 0x8038e1 <txPart.3937>
            txAddrNow = TXLISTLEN;
    1be4:	88 e0       	ldi	r24, 0x08	; 8
    1be6:	80 93 20 3a 	sts	0x3A20, r24	; 0x803a20 <txAddrNow>
    1bea:	2c c0       	rjmp	.+88     	; 0x1c44 <CheckSend+0xbc>
        } else if (txPart < txStrLen[txAddrNow]){
    1bec:	50 91 e1 38 	lds	r21, 0x38E1	; 0x8038e1 <txPart.3937>
    1bf0:	5e 17       	cp	r21, r30
    1bf2:	50 f5       	brcc	.+84     	; 0x1c48 <CheckSend+0xc0>
            EEreadLength = txStrLen[txAddrNow]-txPart;
    1bf4:	ce 2f       	mov	r28, r30
    1bf6:	c5 1b       	sub	r28, r21
    1bf8:	c1 32       	cpi	r28, 0x21	; 33
    1bfa:	08 f0       	brcs	.+2      	; 0x1bfe <CheckSend+0x76>
    1bfc:	c0 e2       	ldi	r28, 0x20	; 32
            if (EEreadLength>=TXLEN) EEreadLength = TXLEN-1;
            ExtEERead(txAddrList[txAddrNow]+txPart, EEreadLength, txTypeNow, &txBuffer[0]);
    1bfe:	88 0f       	add	r24, r24
    1c00:	99 1f       	adc	r25, r25
    1c02:	fc 01       	movw	r30, r24
    1c04:	e7 5d       	subi	r30, 0xD7	; 215
    1c06:	f5 4c       	sbci	r31, 0xC5	; 197
    1c08:	80 81       	ld	r24, Z
    1c0a:	91 81       	ldd	r25, Z+1	; 0x01
    1c0c:	22 ed       	ldi	r18, 0xD2	; 210
    1c0e:	3a e3       	ldi	r19, 0x3A	; 58
    1c10:	40 91 1f 3a 	lds	r20, 0x3A1F	; 0x803a1f <txTypeNow>
    1c14:	6c 2f       	mov	r22, r28
    1c16:	85 0f       	add	r24, r21
    1c18:	91 1d       	adc	r25, r1
    1c1a:	55 dd       	rcall	.-1366   	; 0x16c6 <ExtEERead>
            txPart += EEreadLength;
    1c1c:	80 91 e1 38 	lds	r24, 0x38E1	; 0x8038e1 <txPart.3937>
    1c20:	8c 0f       	add	r24, r28
    1c22:	80 93 e1 38 	sts	0x38E1, r24	; 0x8038e1 <txPart.3937>
            txBuffer[EEreadLength] = 0; //Add string terminator after piece to send to plug memory leak
    1c26:	ec 2f       	mov	r30, r28
    1c28:	f0 e0       	ldi	r31, 0x00	; 0
    1c2a:	ee 52       	subi	r30, 0x2E	; 46
    1c2c:	f5 4c       	sbci	r31, 0xC5	; 197
    1c2e:	10 82       	st	Z, r1
            if ((txBuffer[0] == 0) && (EEreadLength)) txBuffer[0] = 0xDB; //Block character when data wrong.
    1c30:	80 91 d2 3a 	lds	r24, 0x3AD2	; 0x803ad2 <txBuffer>
    1c34:	81 11       	cpse	r24, r1
    1c36:	03 c0       	rjmp	.+6      	; 0x1c3e <CheckSend+0xb6>
    1c38:	8b ed       	ldi	r24, 0xDB	; 219
    1c3a:	80 93 d2 3a 	sts	0x3AD2, r24	; 0x803ad2 <txBuffer>
            SerSend(&txBuffer[0]);
    1c3e:	82 ed       	ldi	r24, 0xD2	; 210
    1c40:	9a e3       	ldi	r25, 0x3A	; 58
    1c42:	1c d9       	rcall	.-3528   	; 0xe7c <SerSend>
        } else {
            txPart = 0;
            ++txAddrNow;
        }
    } else if (serTxDone) return 0; //All is sent!
    return 1; //Still sending, do not change the data in the tx variables
    1c44:	81 e0       	ldi	r24, 0x01	; 1
    1c46:	0b c0       	rjmp	.+22     	; 0x1c5e <CheckSend+0xd6>
            txPart += EEreadLength;
            txBuffer[EEreadLength] = 0; //Add string terminator after piece to send to plug memory leak
            if ((txBuffer[0] == 0) && (EEreadLength)) txBuffer[0] = 0xDB; //Block character when data wrong.
            SerSend(&txBuffer[0]);
        } else {
            txPart = 0;
    1c48:	10 92 e1 38 	sts	0x38E1, r1	; 0x8038e1 <txPart.3937>
            ++txAddrNow;
    1c4c:	2f 5f       	subi	r18, 0xFF	; 255
    1c4e:	20 93 20 3a 	sts	0x3A20, r18	; 0x803a20 <txAddrNow>
    1c52:	f8 cf       	rjmp	.-16     	; 0x1c44 <CheckSend+0xbc>
        }
    } else if (serTxDone) return 0; //All is sent!
    1c54:	90 91 08 38 	lds	r25, 0x3808	; 0x803808 <serTxDone>
    1c58:	81 e0       	ldi	r24, 0x01	; 1
    1c5a:	91 11       	cpse	r25, r1
    1c5c:	80 e0       	ldi	r24, 0x00	; 0
    return 1; //Still sending, do not change the data in the tx variables
}
    1c5e:	cf 91       	pop	r28
    1c60:	08 95       	ret

00001c62 <CheckResponse>:

//Send another part of the response and play the effect afterwards
uint8_t CheckResponse(){
    1c62:	cf 93       	push	r28
    1c64:	df 93       	push	r29
    static uint8_t number = 0;
    if (responseList){
    1c66:	c0 91 f3 38 	lds	r28, 0x38F3	; 0x8038f3 <responseList>
    1c6a:	cc 23       	and	r28, r28
    1c6c:	e9 f1       	breq	.+122    	; 0x1ce8 <CheckResponse+0x86>
        --responseList;
    1c6e:	c1 50       	subi	r28, 0x01	; 1
    1c70:	c0 93 f3 38 	sts	0x38F3, r28	; 0x8038f3 <responseList>
        if (reactStr[0][number] == CURR_LOC) {
    1c74:	d0 91 e0 38 	lds	r29, 0x38E0	; 0x8038e0 <number.3941>
    1c78:	2d 2f       	mov	r18, r29
    1c7a:	30 e0       	ldi	r19, 0x00	; 0
    1c7c:	f9 01       	movw	r30, r18
    1c7e:	ee 0f       	add	r30, r30
    1c80:	ff 1f       	adc	r31, r31
    1c82:	ec 50       	subi	r30, 0x0C	; 12
    1c84:	f7 4c       	sbci	r31, 0xC7	; 199
    1c86:	80 81       	ld	r24, Z
    1c88:	91 81       	ldd	r25, Z+1	; 0x01
    1c8a:	80 3f       	cpi	r24, 0xF0	; 240
    1c8c:	4f ef       	ldi	r20, 0xFF	; 255
    1c8e:	94 07       	cpc	r25, r20
    1c90:	51 f4       	brne	.+20     	; 0x1ca6 <CheckResponse+0x44>
            PrepareSending(currObj.addrStr[NAME], currObj.lenStr[NAME], GAME);
    1c92:	60 91 0e 3a 	lds	r22, 0x3A0E	; 0x803a0e <currObj+0x1a>
    1c96:	70 91 0f 3a 	lds	r23, 0x3A0F	; 0x803a0f <currObj+0x1b>
    1c9a:	40 e0       	ldi	r20, 0x00	; 0
    1c9c:	80 91 00 3a 	lds	r24, 0x3A00	; 0x803a00 <currObj+0xc>
    1ca0:	90 91 01 3a 	lds	r25, 0x3A01	; 0x803a01 <currObj+0xd>
    1ca4:	0d c0       	rjmp	.+26     	; 0x1cc0 <CheckResponse+0x5e>
        } else {
            PrepareSending(reactStr[0][number], reactStr[1][number], reactStr[2][number]);
    1ca6:	d9 01       	movw	r26, r18
    1ca8:	aa 0f       	add	r26, r26
    1caa:	bb 1f       	adc	r27, r27
    1cac:	ac 58       	subi	r26, 0x8C	; 140
    1cae:	b6 4c       	sbci	r27, 0xC6	; 198
    1cb0:	22 0f       	add	r18, r18
    1cb2:	33 1f       	adc	r19, r19
    1cb4:	f9 01       	movw	r30, r18
    1cb6:	ec 5c       	subi	r30, 0xCC	; 204
    1cb8:	f6 4c       	sbci	r31, 0xC6	; 198
    1cba:	60 81       	ld	r22, Z
    1cbc:	71 81       	ldd	r23, Z+1	; 0x01
    1cbe:	4c 91       	ld	r20, X
    1cc0:	59 dd       	rcall	.-1358   	; 0x1774 <PrepareSending>
        }
        ++number;
    1cc2:	df 5f       	subi	r29, 0xFF	; 255
    1cc4:	d0 93 e0 38 	sts	0x38E0, r29	; 0x8038e0 <number.3941>

        if (responseList == 0) {
    1cc8:	c1 11       	cpse	r28, r1
    1cca:	0d c0       	rjmp	.+26     	; 0x1ce6 <CheckResponse+0x84>
            effect = currObj.byteField[EFFECTS];
    1ccc:	80 91 f8 39 	lds	r24, 0x39F8	; 0x8039f8 <currObj+0x4>
    1cd0:	90 e0       	ldi	r25, 0x00	; 0
    1cd2:	80 93 2d 38 	sts	0x382D, r24	; 0x80382d <effect>
    1cd6:	90 93 2e 38 	sts	0x382E, r25	; 0x80382e <effect+0x1>
            RXCNT = 0;
    1cda:	1d ba       	out	0x1d, r1	; 29
            serRxDone = 0;
    1cdc:	10 92 37 38 	sts	0x3837, r1	; 0x803837 <serRxDone>
            number = 0;
    1ce0:	10 92 e0 38 	sts	0x38E0, r1	; 0x8038e0 <number.3941>
    1ce4:	01 c0       	rjmp	.+2      	; 0x1ce8 <CheckResponse+0x86>
            return 0;
        }
        return 1;
    1ce6:	c1 e0       	ldi	r28, 0x01	; 1
    }
    return 0;
}
    1ce8:	8c 2f       	mov	r24, r28
    1cea:	df 91       	pop	r29
    1cec:	cf 91       	pop	r28
    1cee:	08 95       	ret

00001cf0 <CheckInput>:

//User input check (and validation)
uint8_t CheckInput(uint8_t *data){
    1cf0:	4f 92       	push	r4
    1cf2:	5f 92       	push	r5
    1cf4:	6f 92       	push	r6
    1cf6:	7f 92       	push	r7
    1cf8:	8f 92       	push	r8
    1cfa:	9f 92       	push	r9
    1cfc:	af 92       	push	r10
    1cfe:	bf 92       	push	r11
    1d00:	cf 92       	push	r12
    1d02:	df 92       	push	r13
    1d04:	ef 92       	push	r14
    1d06:	ff 92       	push	r15
    1d08:	0f 93       	push	r16
    1d0a:	1f 93       	push	r17
    1d0c:	cf 93       	push	r28
    1d0e:	df 93       	push	r29
    1d10:	cd b7       	in	r28, 0x3d	; 61
    1d12:	de b7       	in	r29, 0x3e	; 62
    1d14:	a1 97       	sbiw	r28, 0x21	; 33
    1d16:	cd bf       	out	0x3d, r28	; 61
    1d18:	de bf       	out	0x3e, r29	; 62
    1d1a:	8c 01       	movw	r16, r24
    
    //Load game data after reboot
    if (currDepth == 0xff) {
    1d1c:	80 91 26 38 	lds	r24, 0x3826	; 0x803826 <currDepth>
    1d20:	8f 3f       	cpi	r24, 0xFF	; 255
    1d22:	49 f4       	brne	.+18     	; 0x1d36 <CheckInput+0x46>
        //Start at first location
        PopulateObject(route[0], &currObj);
    1d24:	64 ef       	ldi	r22, 0xF4	; 244
    1d26:	79 e3       	ldi	r23, 0x39	; 57
    1d28:	80 91 b4 39 	lds	r24, 0x39B4	; 0x8039b4 <route>
    1d2c:	90 91 b5 39 	lds	r25, 0x39B5	; 0x8039b5 <route+0x1>
    1d30:	d5 dd       	rcall	.-1110   	; 0x18dc <PopulateObject>
        currDepth = 0;
    1d32:	10 92 26 38 	sts	0x3826, r1	; 0x803826 <currDepth>
    }

    if (serRxDone){
    1d36:	80 91 37 38 	lds	r24, 0x3837	; 0x803837 <serRxDone>
    1d3a:	88 23       	and	r24, r24
    1d3c:	09 f4       	brne	.+2      	; 0x1d40 <CheckInput+0x50>
    1d3e:	60 c2       	rjmp	.+1216   	; 0x2200 <CheckInput+0x510>

        //Special input requested from user by game
        if (specialInput[0]){
    1d40:	80 91 e3 38 	lds	r24, 0x38E3	; 0x8038e3 <specialInput>
    1d44:	88 23       	and	r24, r24
    1d46:	09 f4       	brne	.+2      	; 0x1d4a <CheckInput+0x5a>
    1d48:	57 c0       	rjmp	.+174    	; 0x1df8 <CheckInput+0x108>
            specialPassed = 0;
    1d4a:	10 92 e2 38 	sts	0x38E2, r1	; 0x8038e2 <specialPassed>
            data[0] = 'a';
    1d4e:	81 e6       	ldi	r24, 0x61	; 97
    1d50:	f8 01       	movw	r30, r16
    1d52:	80 83       	st	Z, r24
            
            //Normal code challenge
            if (StartsWith((uint8_t *)&serRx[0], &specialInput[0])) {
    1d54:	63 ee       	ldi	r22, 0xE3	; 227
    1d56:	78 e3       	ldi	r23, 0x38	; 56
    1d58:	8e e4       	ldi	r24, 0x4E	; 78
    1d5a:	9a e3       	ldi	r25, 0x3A	; 58
    1d5c:	f1 dc       	rcall	.-1566   	; 0x1740 <StartsWith>
    1d5e:	f8 2e       	mov	r15, r24
    1d60:	88 23       	and	r24, r24
    1d62:	21 f0       	breq	.+8      	; 0x1d6c <CheckInput+0x7c>
                specialPassed = 1;
    1d64:	81 e0       	ldi	r24, 0x01	; 1
    1d66:	80 93 e2 38 	sts	0x38E2, r24	; 0x8038e2 <specialPassed>
    1d6a:	04 c0       	rjmp	.+8      	; 0x1d74 <CheckInput+0x84>
                //specialInput[0] = 0;
                //data[1] = 0;

            //Special challenge 1
            } else if ((specialInput[0] == '1')&&(specialInput[2] == 0)) {
    1d6c:	80 91 e3 38 	lds	r24, 0x38E3	; 0x8038e3 <specialInput>
    1d70:	81 33       	cpi	r24, 0x31	; 49
    1d72:	11 f0       	breq	.+4      	; 0x1d78 <CheckInput+0x88>
                responseList = 32;
                return 1;
            }
        } 
        //Data received, but not any of the commands above
        return 0;
    1d74:	f1 2c       	mov	r15, r1
    1d76:	46 c2       	rjmp	.+1164   	; 0x2204 <CheckInput+0x514>
                specialPassed = 1;
                //specialInput[0] = 0;
                //data[1] = 0;

            //Special challenge 1
            } else if ((specialInput[0] == '1')&&(specialInput[2] == 0)) {
    1d78:	80 91 e5 38 	lds	r24, 0x38E5	; 0x8038e5 <specialInput+0x2>
    1d7c:	81 11       	cpse	r24, r1
    1d7e:	fa cf       	rjmp	.-12     	; 0x1d74 <CheckInput+0x84>
                uint8_t inputLen = CleanInput((uint8_t *)&serRx[0]);
    1d80:	8e e4       	ldi	r24, 0x4E	; 78
    1d82:	9a e3       	ldi	r25, 0x3A	; 58
    1d84:	de de       	rcall	.-580    	; 0x1b42 <CleanInput>
                specialPassed = 2;
    1d86:	92 e0       	ldi	r25, 0x02	; 2
    1d88:	90 93 e2 38 	sts	0x38E2, r25	; 0x8038e2 <specialPassed>
                data[1] = 0;
    1d8c:	f8 01       	movw	r30, r16
    1d8e:	11 82       	std	Z+1, r1	; 0x01

                if (inputLen >= 2) {
    1d90:	82 30       	cpi	r24, 0x02	; 2
    1d92:	80 f3       	brcs	.-32     	; 0x1d74 <CheckInput+0x84>
                    if ((serRx[0] == '1')||(serRx[0] == '2')||(serRx[0] == '3')||(serRx[0] == '4')) {
    1d94:	80 91 4e 3a 	lds	r24, 0x3A4E	; 0x803a4e <serRx>
    1d98:	81 33       	cpi	r24, 0x31	; 49
    1d9a:	61 f0       	breq	.+24     	; 0x1db4 <CheckInput+0xc4>
    1d9c:	80 91 4e 3a 	lds	r24, 0x3A4E	; 0x803a4e <serRx>
    1da0:	82 33       	cpi	r24, 0x32	; 50
    1da2:	41 f0       	breq	.+16     	; 0x1db4 <CheckInput+0xc4>
    1da4:	80 91 4e 3a 	lds	r24, 0x3A4E	; 0x803a4e <serRx>
    1da8:	83 33       	cpi	r24, 0x33	; 51
    1daa:	21 f0       	breq	.+8      	; 0x1db4 <CheckInput+0xc4>
    1dac:	80 91 4e 3a 	lds	r24, 0x3A4E	; 0x803a4e <serRx>
    1db0:	84 33       	cpi	r24, 0x34	; 52
    1db2:	01 f7       	brne	.-64     	; 0x1d74 <CheckInput+0x84>
                        serRx[1] |= 0x20;
    1db4:	80 91 4f 3a 	lds	r24, 0x3A4F	; 0x803a4f <serRx+0x1>
    1db8:	80 62       	ori	r24, 0x20	; 32
    1dba:	80 93 4f 3a 	sts	0x3A4F, r24	; 0x803a4f <serRx+0x1>
                        if ((serRx[1] == 'a')||(serRx[1] == 'e')||(serRx[1] == 'f')||(serRx[1] == 'w')) {
    1dbe:	80 91 4f 3a 	lds	r24, 0x3A4F	; 0x803a4f <serRx+0x1>
    1dc2:	81 36       	cpi	r24, 0x61	; 97
    1dc4:	61 f0       	breq	.+24     	; 0x1dde <CheckInput+0xee>
    1dc6:	80 91 4f 3a 	lds	r24, 0x3A4F	; 0x803a4f <serRx+0x1>
    1dca:	85 36       	cpi	r24, 0x65	; 101
    1dcc:	41 f0       	breq	.+16     	; 0x1dde <CheckInput+0xee>
    1dce:	80 91 4f 3a 	lds	r24, 0x3A4F	; 0x803a4f <serRx+0x1>
    1dd2:	86 36       	cpi	r24, 0x66	; 102
    1dd4:	21 f0       	breq	.+8      	; 0x1dde <CheckInput+0xee>
    1dd6:	80 91 4f 3a 	lds	r24, 0x3A4F	; 0x803a4f <serRx+0x1>
    1dda:	87 37       	cpi	r24, 0x77	; 119
    1ddc:	59 f6       	brne	.-106    	; 0x1d74 <CheckInput+0x84>
                            data[1] = specialInput[1]+0x11;
    1dde:	80 91 e4 38 	lds	r24, 0x38E4	; 0x8038e4 <specialInput+0x1>
    1de2:	8f 5e       	subi	r24, 0xEF	; 239
    1de4:	f8 01       	movw	r30, r16
    1de6:	81 83       	std	Z+1, r24	; 0x01
                            data[2] = serRx[0];
    1de8:	80 91 4e 3a 	lds	r24, 0x3A4E	; 0x803a4e <serRx>
    1dec:	82 83       	std	Z+2, r24	; 0x02
                            data[3] = serRx[1];
    1dee:	80 91 4f 3a 	lds	r24, 0x3A4F	; 0x803a4f <serRx+0x1>
    1df2:	83 83       	std	Z+3, r24	; 0x03
                            data[4] = 0;
    1df4:	14 82       	std	Z+4, r1	; 0x04
    1df6:	06 c2       	rjmp	.+1036   	; 0x2204 <CheckInput+0x514>
        
        //Normal input
        } else {

            //Change status bit
            if ((serRx[0] == '#')&&(RXCNT == 6)){
    1df8:	80 91 4e 3a 	lds	r24, 0x3A4E	; 0x803a4e <serRx>
    1dfc:	83 32       	cpi	r24, 0x23	; 35
    1dfe:	81 f5       	brne	.+96     	; 0x1e60 <CheckInput+0x170>
    1e00:	8d b3       	in	r24, 0x1d	; 29
    1e02:	86 30       	cpi	r24, 0x06	; 6
    1e04:	69 f5       	brne	.+90     	; 0x1e60 <CheckInput+0x170>
    1e06:	81 e0       	ldi	r24, 0x01	; 1
    1e08:	90 e0       	ldi	r25, 0x00	; 0
    1e0a:	10 e0       	ldi	r17, 0x00	; 0
                uint8_t bitNr = 0;

                for (uint8_t x=1; x<4; ++x) {
                    serRx[x] -= '0';
    1e0c:	fc 01       	movw	r30, r24
    1e0e:	e2 5b       	subi	r30, 0xB2	; 178
    1e10:	f5 4c       	sbci	r31, 0xC5	; 197
    1e12:	20 81       	ld	r18, Z
    1e14:	20 53       	subi	r18, 0x30	; 48
    1e16:	20 83       	st	Z, r18
                    bitNr *= 10;
    1e18:	11 0f       	add	r17, r17
    1e1a:	21 2f       	mov	r18, r17
    1e1c:	22 0f       	add	r18, r18
    1e1e:	22 0f       	add	r18, r18
    1e20:	12 0f       	add	r17, r18
                    if (serRx[1] > 2) break;
    1e22:	20 91 4f 3a 	lds	r18, 0x3A4F	; 0x803a4f <serRx+0x1>
    1e26:	23 30       	cpi	r18, 0x03	; 3
    1e28:	48 f4       	brcc	.+18     	; 0x1e3c <CheckInput+0x14c>
                    if (serRx[x] < 10) {
    1e2a:	20 81       	ld	r18, Z
    1e2c:	2a 30       	cpi	r18, 0x0A	; 10
    1e2e:	b0 f4       	brcc	.+44     	; 0x1e5c <CheckInput+0x16c>
                        bitNr += serRx[x];
    1e30:	20 81       	ld	r18, Z
    1e32:	12 0f       	add	r17, r18
    1e34:	01 96       	adiw	r24, 0x01	; 1

            //Change status bit
            if ((serRx[0] == '#')&&(RXCNT == 6)){
                uint8_t bitNr = 0;

                for (uint8_t x=1; x<4; ++x) {
    1e36:	84 30       	cpi	r24, 0x04	; 4
    1e38:	91 05       	cpc	r25, r1
    1e3a:	41 f7       	brne	.-48     	; 0x1e0c <CheckInput+0x11c>
                        continue;
                    }
                    bitNr = 0;
                    break;
                }
                if ((bitNr)&&(bitNr!=128)) {
    1e3c:	81 2f       	mov	r24, r17
    1e3e:	8f 77       	andi	r24, 0x7F	; 127
    1e40:	69 f0       	breq	.+26     	; 0x1e5c <CheckInput+0x16c>
                    if (Cheat(0xff-bitNr, serRx[4]<<8|serRx[5])) UpdateState(bitNr);
    1e42:	80 91 52 3a 	lds	r24, 0x3A52	; 0x803a52 <serRx+0x4>
    1e46:	60 91 53 3a 	lds	r22, 0x3A53	; 0x803a53 <serRx+0x5>
    1e4a:	70 e0       	ldi	r23, 0x00	; 0
    1e4c:	78 2b       	or	r23, r24
    1e4e:	81 2f       	mov	r24, r17
    1e50:	80 95       	com	r24
    1e52:	d6 db       	rcall	.-2132   	; 0x1600 <Cheat>
    1e54:	88 23       	and	r24, r24
    1e56:	11 f0       	breq	.+4      	; 0x1e5c <CheckInput+0x16c>
    1e58:	81 2f       	mov	r24, r17
    1e5a:	d0 d9       	rcall	.-3168   	; 0x11fc <UpdateState>
                }
                responseList = SetStandardResponse(0);
    1e5c:	80 e0       	ldi	r24, 0x00	; 0
    1e5e:	50 c0       	rjmp	.+160    	; 0x1f00 <CheckInput+0x210>
    1e60:	d8 01       	movw	r26, r16
    1e62:	80 e0       	ldi	r24, 0x00	; 0
    1e64:	90 e0       	ldi	r25, 0x00	; 0
                return 1;            
            }
            
            //Read up to the \0 character and convert to lower case.
            for (uint8_t x=0; x<RXLEN; ++x){
                if ((serRx[x]<'A')||(serRx[x]>'Z')) data[x]=serRx[x]; else data[x]=serRx[x]|0x20;
    1e66:	fc 01       	movw	r30, r24
    1e68:	e2 5b       	subi	r30, 0xB2	; 178
    1e6a:	f5 4c       	sbci	r31, 0xC5	; 197
    1e6c:	20 81       	ld	r18, Z
    1e6e:	21 34       	cpi	r18, 0x41	; 65
    1e70:	18 f0       	brcs	.+6      	; 0x1e78 <CheckInput+0x188>
    1e72:	20 81       	ld	r18, Z
    1e74:	2b 35       	cpi	r18, 0x5B	; 91
    1e76:	10 f0       	brcs	.+4      	; 0x1e7c <CheckInput+0x18c>
    1e78:	20 81       	ld	r18, Z
    1e7a:	02 c0       	rjmp	.+4      	; 0x1e80 <CheckInput+0x190>
    1e7c:	20 81       	ld	r18, Z
    1e7e:	20 62       	ori	r18, 0x20	; 32
    1e80:	2c 93       	st	X, r18
                if (serRx[x] == 0) {
    1e82:	20 81       	ld	r18, Z
    1e84:	21 11       	cpse	r18, r1
    1e86:	05 c0       	rjmp	.+10     	; 0x1e92 <CheckInput+0x1a2>
                    data[x] = 0;
    1e88:	f8 01       	movw	r30, r16
    1e8a:	e8 0f       	add	r30, r24
    1e8c:	f1 1d       	adc	r31, r1
    1e8e:	10 82       	st	Z, r1
                    break;
    1e90:	05 c0       	rjmp	.+10     	; 0x1e9c <CheckInput+0x1ac>
    1e92:	01 96       	adiw	r24, 0x01	; 1
    1e94:	11 96       	adiw	r26, 0x01	; 1
                responseList = SetStandardResponse(0);
                return 1;            
            }
            
            //Read up to the \0 character and convert to lower case.
            for (uint8_t x=0; x<RXLEN; ++x){
    1e96:	81 34       	cpi	r24, 0x41	; 65
    1e98:	91 05       	cpc	r25, r1
    1e9a:	29 f7       	brne	.-54     	; 0x1e66 <CheckInput+0x176>
                    break;
                }
            }

            //No text
            if (serRx[0] == 0){
    1e9c:	80 91 4e 3a 	lds	r24, 0x3A4E	; 0x803a4e <serRx>
                data[0] = 0;
    1ea0:	f8 01       	movw	r30, r16
                    break;
                }
            }

            //No text
            if (serRx[0] == 0){
    1ea2:	81 11       	cpse	r24, r1
    1ea4:	05 c0       	rjmp	.+10     	; 0x1eb0 <CheckInput+0x1c0>
                data[0] = 0;
    1ea6:	10 82       	st	Z, r1
                RXCNT = 0;
    1ea8:	1d ba       	out	0x1d, r1	; 29
                serRxDone = 0;
    1eaa:	10 92 37 38 	sts	0x3837, r1	; 0x803837 <serRxDone>
    1eae:	a8 c1       	rjmp	.+848    	; 0x2200 <CheckInput+0x510>
                return 1;
            }

            //Help text
            if ((data[0] == '?')||(data[0] == 'h')){
    1eb0:	80 81       	ld	r24, Z
    1eb2:	8f 33       	cpi	r24, 0x3F	; 63
    1eb4:	11 f0       	breq	.+4      	; 0x1eba <CheckInput+0x1ca>
    1eb6:	88 36       	cpi	r24, 0x68	; 104
    1eb8:	39 f5       	brne	.+78     	; 0x1f08 <CheckInput+0x218>
    return 0;
}

//
void SetResponse(uint8_t number, uint16_t address, uint16_t length, uint8_t type){
    reactStr[0][number]=address;
    1eba:	8b e5       	ldi	r24, 0x5B	; 91
    1ebc:	9a e7       	ldi	r25, 0x7A	; 122
    1ebe:	80 93 f4 38 	sts	0x38F4, r24	; 0x8038f4 <reactStr>
    1ec2:	90 93 f5 38 	sts	0x38F5, r25	; 0x8038f5 <reactStr+0x1>
    reactStr[1][number]=length;
    1ec6:	84 e0       	ldi	r24, 0x04	; 4
    1ec8:	90 e0       	ldi	r25, 0x00	; 0
    1eca:	80 93 34 39 	sts	0x3934, r24	; 0x803934 <reactStr+0x40>
    1ece:	90 93 35 39 	sts	0x3935, r25	; 0x803935 <reactStr+0x41>
    reactStr[2][number]=type;
    1ed2:	81 e0       	ldi	r24, 0x01	; 1
    1ed4:	90 e0       	ldi	r25, 0x00	; 0
    1ed6:	80 93 74 39 	sts	0x3974, r24	; 0x803974 <reactStr+0x80>
    1eda:	90 93 75 39 	sts	0x3975, r25	; 0x803975 <reactStr+0x81>
    return 0;
}

//
void SetResponse(uint8_t number, uint16_t address, uint16_t length, uint8_t type){
    reactStr[0][number]=address;
    1ede:	23 e9       	ldi	r18, 0x93	; 147
    1ee0:	3b e7       	ldi	r19, 0x7B	; 123
    1ee2:	20 93 f6 38 	sts	0x38F6, r18	; 0x8038f6 <reactStr+0x2>
    1ee6:	30 93 f7 38 	sts	0x38F7, r19	; 0x8038f7 <reactStr+0x3>
    reactStr[1][number]=length;
    1eea:	2d e6       	ldi	r18, 0x6D	; 109
    1eec:	34 e0       	ldi	r19, 0x04	; 4
    1eee:	20 93 36 39 	sts	0x3936, r18	; 0x803936 <reactStr+0x42>
    1ef2:	30 93 37 39 	sts	0x3937, r19	; 0x803937 <reactStr+0x43>
    reactStr[2][number]=type;
    1ef6:	80 93 76 39 	sts	0x3976, r24	; 0x803976 <reactStr+0x82>
    1efa:	90 93 77 39 	sts	0x3977, r25	; 0x803977 <reactStr+0x83>

            //Help text
            if ((data[0] == '?')||(data[0] == 'h')){
                SetResponse(0, A_LF, 4, TEASER);
                SetResponse(1, A_HELP, L_HELP, TEASER);
                responseList = SetStandardResponse(2);
    1efe:	82 e0       	ldi	r24, 0x02	; 2
    1f00:	71 dc       	rcall	.-1822   	; 0x17e4 <SetStandardResponse>
    1f02:	80 93 f3 38 	sts	0x38F3, r24	; 0x8038f3 <responseList>
    1f06:	7c c1       	rjmp	.+760    	; 0x2200 <CheckInput+0x510>
                return 1;
            }        
        
            //Alphabet text
            if (data[0] == 'a'){
    1f08:	81 36       	cpi	r24, 0x61	; 97
    1f0a:	d9 f4       	brne	.+54     	; 0x1f42 <CheckInput+0x252>
    return 0;
}

//
void SetResponse(uint8_t number, uint16_t address, uint16_t length, uint8_t type){
    reactStr[0][number]=address;
    1f0c:	8b e5       	ldi	r24, 0x5B	; 91
    1f0e:	9a e7       	ldi	r25, 0x7A	; 122
    1f10:	80 93 f4 38 	sts	0x38F4, r24	; 0x8038f4 <reactStr>
    1f14:	90 93 f5 38 	sts	0x38F5, r25	; 0x8038f5 <reactStr+0x1>
    reactStr[1][number]=length;
    1f18:	84 e0       	ldi	r24, 0x04	; 4
    1f1a:	90 e0       	ldi	r25, 0x00	; 0
    1f1c:	80 93 34 39 	sts	0x3934, r24	; 0x803934 <reactStr+0x40>
    1f20:	90 93 35 39 	sts	0x3935, r25	; 0x803935 <reactStr+0x41>
    reactStr[2][number]=type;
    1f24:	81 e0       	ldi	r24, 0x01	; 1
    1f26:	90 e0       	ldi	r25, 0x00	; 0
    1f28:	80 93 74 39 	sts	0x3974, r24	; 0x803974 <reactStr+0x80>
    1f2c:	90 93 75 39 	sts	0x3975, r25	; 0x803975 <reactStr+0x81>
    return 0;
}

//
void SetResponse(uint8_t number, uint16_t address, uint16_t length, uint8_t type){
    reactStr[0][number]=address;
    1f30:	2e e6       	ldi	r18, 0x6E	; 110
    1f32:	3a e7       	ldi	r19, 0x7A	; 122
    1f34:	20 93 f6 38 	sts	0x38F6, r18	; 0x8038f6 <reactStr+0x2>
    1f38:	30 93 f7 38 	sts	0x38F7, r19	; 0x8038f7 <reactStr+0x3>
    reactStr[1][number]=length;
    1f3c:	25 e2       	ldi	r18, 0x25	; 37
    1f3e:	31 e0       	ldi	r19, 0x01	; 1
    1f40:	d6 cf       	rjmp	.-84     	; 0x1eee <CheckInput+0x1fe>
                responseList = SetStandardResponse(2);
                return 1;
            }

            //Whoami text
            if (data[0] == 'w'){
    1f42:	87 37       	cpi	r24, 0x77	; 119
    1f44:	09 f0       	breq	.+2      	; 0x1f48 <CheckInput+0x258>
    1f46:	6e c0       	rjmp	.+220    	; 0x2024 <CheckInput+0x334>
    return 0;
}

//
void SetResponse(uint8_t number, uint16_t address, uint16_t length, uint8_t type){
    reactStr[0][number]=address;
    1f48:	8b e5       	ldi	r24, 0x5B	; 91
    1f4a:	9a e7       	ldi	r25, 0x7A	; 122
    1f4c:	80 93 f4 38 	sts	0x38F4, r24	; 0x8038f4 <reactStr>
    1f50:	90 93 f5 38 	sts	0x38F5, r25	; 0x8038f5 <reactStr+0x1>
    reactStr[1][number]=length;
    1f54:	84 e0       	ldi	r24, 0x04	; 4
    1f56:	90 e0       	ldi	r25, 0x00	; 0
    1f58:	80 93 34 39 	sts	0x3934, r24	; 0x803934 <reactStr+0x40>
    1f5c:	90 93 35 39 	sts	0x3935, r25	; 0x803935 <reactStr+0x41>
    reactStr[2][number]=type;
    1f60:	21 e0       	ldi	r18, 0x01	; 1
    1f62:	30 e0       	ldi	r19, 0x00	; 0
    1f64:	20 93 74 39 	sts	0x3974, r18	; 0x803974 <reactStr+0x80>
    1f68:	30 93 75 39 	sts	0x3975, r19	; 0x803975 <reactStr+0x81>
    return 0;
}

//
void SetResponse(uint8_t number, uint16_t address, uint16_t length, uint8_t type){
    reactStr[0][number]=address;
    1f6c:	8b ec       	ldi	r24, 0xCB	; 203
    1f6e:	96 e7       	ldi	r25, 0x76	; 118
    1f70:	80 93 f6 38 	sts	0x38F6, r24	; 0x8038f6 <reactStr+0x2>
    1f74:	90 93 f7 38 	sts	0x38F7, r25	; 0x8038f7 <reactStr+0x3>
    reactStr[1][number]=length;
    1f78:	82 e1       	ldi	r24, 0x12	; 18
    1f7a:	90 e0       	ldi	r25, 0x00	; 0
    1f7c:	80 93 36 39 	sts	0x3936, r24	; 0x803936 <reactStr+0x42>
    1f80:	90 93 37 39 	sts	0x3937, r25	; 0x803937 <reactStr+0x43>
    reactStr[2][number]=type;
    1f84:	20 93 76 39 	sts	0x3976, r18	; 0x803976 <reactStr+0x82>
    1f88:	30 93 77 39 	sts	0x3977, r19	; 0x803977 <reactStr+0x83>

            //Whoami text
            if (data[0] == 'w'){
                SetResponse(0, A_LF, 4, TEASER);
                SetResponse(1, A_HELLO, L_HELLO, TEASER);
                if (whoami == 1) {
    1f8c:	80 91 30 38 	lds	r24, 0x3830	; 0x803830 <whoami>
    1f90:	81 30       	cpi	r24, 0x01	; 1
    1f92:	19 f4       	brne	.+6      	; 0x1f9a <CheckInput+0x2aa>
    return 0;
}

//
void SetResponse(uint8_t number, uint16_t address, uint16_t length, uint8_t type){
    reactStr[0][number]=address;
    1f94:	85 ec       	ldi	r24, 0xC5	; 197
    1f96:	96 e7       	ldi	r25, 0x76	; 118
    1f98:	0f c0       	rjmp	.+30     	; 0x1fb8 <CheckInput+0x2c8>
            if (data[0] == 'w'){
                SetResponse(0, A_LF, 4, TEASER);
                SetResponse(1, A_HELLO, L_HELLO, TEASER);
                if (whoami == 1) {
                    SetResponse(2, A_ANUBIS, L_ANUBIS, TEASER);
                } else if (whoami == 2) {
    1f9a:	82 30       	cpi	r24, 0x02	; 2
    1f9c:	49 f4       	brne	.+18     	; 0x1fb0 <CheckInput+0x2c0>
    return 0;
}

//
void SetResponse(uint8_t number, uint16_t address, uint16_t length, uint8_t type){
    reactStr[0][number]=address;
    1f9e:	82 ec       	ldi	r24, 0xC2	; 194
    1fa0:	96 e7       	ldi	r25, 0x76	; 118
    1fa2:	80 93 f8 38 	sts	0x38F8, r24	; 0x8038f8 <reactStr+0x4>
    1fa6:	90 93 f9 38 	sts	0x38F9, r25	; 0x8038f9 <reactStr+0x5>
    reactStr[1][number]=length;
    1faa:	83 e0       	ldi	r24, 0x03	; 3
    1fac:	90 e0       	ldi	r25, 0x00	; 0
    1fae:	1e c0       	rjmp	.+60     	; 0x1fec <CheckInput+0x2fc>
                SetResponse(1, A_HELLO, L_HELLO, TEASER);
                if (whoami == 1) {
                    SetResponse(2, A_ANUBIS, L_ANUBIS, TEASER);
                } else if (whoami == 2) {
                    SetResponse(2, A_BES, L_BES, TEASER);
                } else if (whoami == 3) {
    1fb0:	83 30       	cpi	r24, 0x03	; 3
    1fb2:	49 f4       	brne	.+18     	; 0x1fc6 <CheckInput+0x2d6>
    return 0;
}

//
void SetResponse(uint8_t number, uint16_t address, uint16_t length, uint8_t type){
    reactStr[0][number]=address;
    1fb4:	8c eb       	ldi	r24, 0xBC	; 188
    1fb6:	96 e7       	ldi	r25, 0x76	; 118
    1fb8:	80 93 f8 38 	sts	0x38F8, r24	; 0x8038f8 <reactStr+0x4>
    1fbc:	90 93 f9 38 	sts	0x38F9, r25	; 0x8038f9 <reactStr+0x5>
    reactStr[1][number]=length;
    1fc0:	86 e0       	ldi	r24, 0x06	; 6
    1fc2:	90 e0       	ldi	r25, 0x00	; 0
    1fc4:	13 c0       	rjmp	.+38     	; 0x1fec <CheckInput+0x2fc>
                    SetResponse(2, A_ANUBIS, L_ANUBIS, TEASER);
                } else if (whoami == 2) {
                    SetResponse(2, A_BES, L_BES, TEASER);
                } else if (whoami == 3) {
                    SetResponse(2, A_KHONSU, L_KHONSU, TEASER);
                } else if (whoami == 4) {
    1fc6:	84 30       	cpi	r24, 0x04	; 4
    1fc8:	49 f4       	brne	.+18     	; 0x1fdc <CheckInput+0x2ec>
    return 0;
}

//
void SetResponse(uint8_t number, uint16_t address, uint16_t length, uint8_t type){
    reactStr[0][number]=address;
    1fca:	87 eb       	ldi	r24, 0xB7	; 183
    1fcc:	96 e7       	ldi	r25, 0x76	; 118
    1fce:	80 93 f8 38 	sts	0x38F8, r24	; 0x8038f8 <reactStr+0x4>
    1fd2:	90 93 f9 38 	sts	0x38F9, r25	; 0x8038f9 <reactStr+0x5>
    reactStr[1][number]=length;
    1fd6:	85 e0       	ldi	r24, 0x05	; 5
    1fd8:	90 e0       	ldi	r25, 0x00	; 0
    1fda:	08 c0       	rjmp	.+16     	; 0x1fec <CheckInput+0x2fc>
    return 0;
}

//
void SetResponse(uint8_t number, uint16_t address, uint16_t length, uint8_t type){
    reactStr[0][number]=address;
    1fdc:	80 e4       	ldi	r24, 0x40	; 64
    1fde:	96 e7       	ldi	r25, 0x76	; 118
    1fe0:	80 93 f8 38 	sts	0x38F8, r24	; 0x8038f8 <reactStr+0x4>
    1fe4:	90 93 f9 38 	sts	0x38F9, r25	; 0x8038f9 <reactStr+0x5>
    reactStr[1][number]=length;
    1fe8:	82 e4       	ldi	r24, 0x42	; 66
    1fea:	90 e0       	ldi	r25, 0x00	; 0
    1fec:	80 93 38 39 	sts	0x3938, r24	; 0x803938 <reactStr+0x44>
    1ff0:	90 93 39 39 	sts	0x3939, r25	; 0x803939 <reactStr+0x45>
    reactStr[2][number]=type;
    1ff4:	20 93 78 39 	sts	0x3978, r18	; 0x803978 <reactStr+0x84>
    1ff8:	30 93 79 39 	sts	0x3979, r19	; 0x803979 <reactStr+0x85>
    return 0;
}

//
void SetResponse(uint8_t number, uint16_t address, uint16_t length, uint8_t type){
    reactStr[0][number]=address;
    1ffc:	8d e9       	ldi	r24, 0x9D	; 157
    1ffe:	96 e7       	ldi	r25, 0x76	; 118
    2000:	80 93 fa 38 	sts	0x38FA, r24	; 0x8038fa <reactStr+0x6>
    2004:	90 93 fb 38 	sts	0x38FB, r25	; 0x8038fb <reactStr+0x7>
    reactStr[1][number]=length;
    2008:	8a e1       	ldi	r24, 0x1A	; 26
    200a:	90 e0       	ldi	r25, 0x00	; 0
    200c:	80 93 3a 39 	sts	0x393A, r24	; 0x80393a <reactStr+0x46>
    2010:	90 93 3b 39 	sts	0x393B, r25	; 0x80393b <reactStr+0x47>
    reactStr[2][number]=type;
    2014:	81 e0       	ldi	r24, 0x01	; 1
    2016:	90 e0       	ldi	r25, 0x00	; 0
    2018:	80 93 7a 39 	sts	0x397A, r24	; 0x80397a <reactStr+0x86>
    201c:	90 93 7b 39 	sts	0x397B, r25	; 0x80397b <reactStr+0x87>
                    SetResponse(2, A_THOTH, L_THOTH, TEASER);
                } else {
                    SetResponse(2, A_ERROR, L_ERROR, TEASER);
                }
                SetResponse(3, A_PLEASED, L_PLEASED, TEASER);
                responseList = SetStandardResponse(4);
    2020:	84 e0       	ldi	r24, 0x04	; 4
    2022:	6e cf       	rjmp	.-292    	; 0x1f00 <CheckInput+0x210>
                return 1;
            }

            //Quit text
            if (data[0] == 'q'){
    2024:	81 37       	cpi	r24, 0x71	; 113
    2026:	d9 f4       	brne	.+54     	; 0x205e <CheckInput+0x36e>
    return 0;
}

//
void SetResponse(uint8_t number, uint16_t address, uint16_t length, uint8_t type){
    reactStr[0][number]=address;
    2028:	8b e5       	ldi	r24, 0x5B	; 91
    202a:	9a e7       	ldi	r25, 0x7A	; 122
    202c:	80 93 f4 38 	sts	0x38F4, r24	; 0x8038f4 <reactStr>
    2030:	90 93 f5 38 	sts	0x38F5, r25	; 0x8038f5 <reactStr+0x1>
    reactStr[1][number]=length;
    2034:	84 e0       	ldi	r24, 0x04	; 4
    2036:	90 e0       	ldi	r25, 0x00	; 0
    2038:	80 93 34 39 	sts	0x3934, r24	; 0x803934 <reactStr+0x40>
    203c:	90 93 35 39 	sts	0x3935, r25	; 0x803935 <reactStr+0x41>
    reactStr[2][number]=type;
    2040:	81 e0       	ldi	r24, 0x01	; 1
    2042:	90 e0       	ldi	r25, 0x00	; 0
    2044:	80 93 74 39 	sts	0x3974, r24	; 0x803974 <reactStr+0x80>
    2048:	90 93 75 39 	sts	0x3975, r25	; 0x803975 <reactStr+0x81>
    return 0;
}

//
void SetResponse(uint8_t number, uint16_t address, uint16_t length, uint8_t type){
    reactStr[0][number]=address;
    204c:	23 e0       	ldi	r18, 0x03	; 3
    204e:	3a e7       	ldi	r19, 0x7A	; 122
    2050:	20 93 f6 38 	sts	0x38F6, r18	; 0x8038f6 <reactStr+0x2>
    2054:	30 93 f7 38 	sts	0x38F7, r19	; 0x8038f7 <reactStr+0x3>
    reactStr[1][number]=length;
    2058:	24 e5       	ldi	r18, 0x54	; 84
    205a:	30 e0       	ldi	r19, 0x00	; 0
                responseList = SetStandardResponse(2);
                return 1;
            }

            //Fake cheat = reset badge!
            if (StartsWith(&data[0], "iddqd")){
    205c:	48 cf       	rjmp	.-368    	; 0x1eee <CheckInput+0x1fe>
    205e:	60 ef       	ldi	r22, 0xF0	; 240
    2060:	75 eb       	ldi	r23, 0xB5	; 181
    2062:	c8 01       	movw	r24, r16
    2064:	6d db       	rcall	.-2342   	; 0x1740 <StartsWith>
    2066:	88 23       	and	r24, r24
    2068:	e9 f0       	breq	.+58     	; 0x20a4 <CheckInput+0x3b4>
            
                //Reset game data by wiping the UUID bits
                for (uint8_t x=0; x<4; ++x){
                    WriteStatusBit(110+x, 0);
    206a:	1e e6       	ldi	r17, 0x6E	; 110
    206c:	60 e0       	ldi	r22, 0x00	; 0
    206e:	81 2f       	mov	r24, r17
    2070:	ab d8       	rcall	.-3754   	; 0x11c8 <WriteStatusBit>
    2072:	1f 5f       	subi	r17, 0xFF	; 255

            //Fake cheat = reset badge!
            if (StartsWith(&data[0], "iddqd")){
            
                //Reset game data by wiping the UUID bits
                for (uint8_t x=0; x<4; ++x){
    2074:	12 37       	cpi	r17, 0x72	; 114
    2076:	d1 f7       	brne	.-12     	; 0x206c <CheckInput+0x37c>
                    WriteStatusBit(110+x, 0);
                }
                SaveGameState();
    2078:	20 d8       	rcall	.-4032   	; 0x10ba <SaveGameState>
    207a:	80 e2       	ldi	r24, 0x20	; 32

                uint8_t cheat[] = "Cheater! Contact badge team... ";
    207c:	e3 e3       	ldi	r30, 0x33	; 51
    207e:	f6 eb       	ldi	r31, 0xB6	; 182
    2080:	de 01       	movw	r26, r28
    2082:	11 96       	adiw	r26, 0x01	; 1
    2084:	01 90       	ld	r0, Z+
    2086:	0d 92       	st	X+, r0
    2088:	8a 95       	dec	r24
    208a:	e1 f7       	brne	.-8      	; 0x2084 <CheckInput+0x394>
    208c:	8c e3       	ldi	r24, 0x3C	; 60
                SerSpeed(60);
    208e:	0e 94 4f 07 	call	0xe9e	; 0xe9e <SerSpeed>
    2092:	80 91 08 38 	lds	r24, 0x3808	; 0x803808 <serTxDone>
                while(1){
                    if (serTxDone) SerSend(&cheat[0]);
    2096:	88 23       	and	r24, r24
    2098:	e1 f3       	breq	.-8      	; 0x2092 <CheckInput+0x3a2>
    209a:	ce 01       	movw	r24, r28
    209c:	01 96       	adiw	r24, 0x01	; 1
    209e:	0e 94 3e 07 	call	0xe7c	; 0xe7c <SerSend>
    20a2:	f7 cf       	rjmp	.-18     	; 0x2092 <CheckInput+0x3a2>
                }
            }
            
            //Cheat reset (Quote from: Donald E. Westlake)
            if (StartsWith(&data[0], "the trouble with real life is, there's no reset button")){
    20a4:	66 ef       	ldi	r22, 0xF6	; 246
    20a6:	75 eb       	ldi	r23, 0xB5	; 181
    20a8:	c8 01       	movw	r24, r16
    20aa:	4a db       	rcall	.-2412   	; 0x1740 <StartsWith>
    20ac:	68 2e       	mov	r6, r24
    20ae:	88 23       	and	r24, r24
    20b0:	59 f1       	breq	.+86     	; 0x2108 <CheckInput+0x418>
    20b2:	8f ef       	ldi	r24, 0xFF	; 255
                
                //Reset cheat data by resetting the EEPROM bytes
                uint8_t empty=0xff;
    20b4:	89 a3       	std	Y+33, r24	; 0x21
    20b6:	18 e1       	ldi	r17, 0x18	; 24
    20b8:	41 e0       	ldi	r20, 0x01	; 1
                for (uint8_t x=0; x<MAX_CHEATS; ++x){
                    EEWrite(CHEATS+x, &empty, 1);
    20ba:	be 01       	movw	r22, r28
    20bc:	6f 5d       	subi	r22, 0xDF	; 223
    20be:	7f 4f       	sbci	r23, 0xFF	; 255
    20c0:	81 2f       	mov	r24, r17
    20c2:	0e 94 16 07 	call	0xe2c	; 0xe2c <EEWrite>
    20c6:	1f 5f       	subi	r17, 0xFF	; 255
            //Cheat reset (Quote from: Donald E. Westlake)
            if (StartsWith(&data[0], "the trouble with real life is, there's no reset button")){
                
                //Reset cheat data by resetting the EEPROM bytes
                uint8_t empty=0xff;
                for (uint8_t x=0; x<MAX_CHEATS; ++x){
    20c8:	10 32       	cpi	r17, 0x20	; 32
    20ca:	b1 f7       	brne	.-20     	; 0x20b8 <CheckInput+0x3c8>
    20cc:	1e e6       	ldi	r17, 0x6E	; 110
                    EEWrite(CHEATS+x, &empty, 1);
                }
                //Reset game data by wiping the UUID bits
                for (uint8_t x=0; x<4; ++x){
                    WriteStatusBit(110+x, 0);
    20ce:	60 e0       	ldi	r22, 0x00	; 0
    20d0:	81 2f       	mov	r24, r17
    20d2:	7a d8       	rcall	.-3852   	; 0x11c8 <WriteStatusBit>
    20d4:	1f 5f       	subi	r17, 0xFF	; 255
    20d6:	12 37       	cpi	r17, 0x72	; 114
                uint8_t empty=0xff;
                for (uint8_t x=0; x<MAX_CHEATS; ++x){
                    EEWrite(CHEATS+x, &empty, 1);
                }
                //Reset game data by wiping the UUID bits
                for (uint8_t x=0; x<4; ++x){
    20d8:	d1 f7       	brne	.-12     	; 0x20ce <CheckInput+0x3de>
    20da:	0e 94 5d 08 	call	0x10ba	; 0x10ba <SaveGameState>
                    WriteStatusBit(110+x, 0);
                }
                
                SaveGameState();
    20de:	8f e0       	ldi	r24, 0x0F	; 15

                uint8_t cheat[] = "Reset please! ";
    20e0:	e3 e5       	ldi	r30, 0x53	; 83
    20e2:	f6 eb       	ldi	r31, 0xB6	; 182
    20e4:	de 01       	movw	r26, r28
    20e6:	11 96       	adiw	r26, 0x01	; 1
    20e8:	01 90       	ld	r0, Z+
    20ea:	0d 92       	st	X+, r0
    20ec:	8a 95       	dec	r24
    20ee:	e1 f7       	brne	.-8      	; 0x20e8 <CheckInput+0x3f8>
    20f0:	8c e3       	ldi	r24, 0x3C	; 60
                SerSpeed(60);
    20f2:	0e 94 4f 07 	call	0xe9e	; 0xe9e <SerSpeed>
    20f6:	80 91 08 38 	lds	r24, 0x3808	; 0x803808 <serTxDone>
                while(1){
                    if (serTxDone) SerSend(&cheat[0]);
    20fa:	88 23       	and	r24, r24
    20fc:	e1 f3       	breq	.-8      	; 0x20f6 <CheckInput+0x406>
    20fe:	ce 01       	movw	r24, r28
    2100:	01 96       	adiw	r24, 0x01	; 1
    2102:	0e 94 3e 07 	call	0xe7c	; 0xe7c <SerSend>
    2106:	f7 cf       	rjmp	.-18     	; 0x20f6 <CheckInput+0x406>
                }
            }
            if (StartsWith(&data[0], "cheat")){
    2108:	6d e2       	ldi	r22, 0x2D	; 45
    210a:	76 eb       	ldi	r23, 0xB6	; 182
    210c:	c8 01       	movw	r24, r16
    210e:	18 db       	rcall	.-2512   	; 0x1740 <StartsWith>
    2110:	88 23       	and	r24, r24
    2112:	09 f4       	brne	.+2      	; 0x2116 <CheckInput+0x426>
    2114:	2f ce       	rjmp	.-930    	; 0x1d74 <CheckInput+0x84>
    2116:	04 ef       	ldi	r16, 0xF4	; 244
    2118:	18 e3       	ldi	r17, 0x38	; 56
    211a:	78 e1       	ldi	r23, 0x18	; 24
    211c:	77 2e       	mov	r7, r23
    211e:	ea e0       	ldi	r30, 0x0A	; 10
                    
                    //Set up sending out number
                    EERead(CHEATS+x, &bit, 1);
                    bit = 0xff-bit;
                    for (n=2; n>=0; --n) {
                        digit[n] = bit % 10;
    2120:	5e 2e       	mov	r5, r30
    2122:	f4 e6       	ldi	r31, 0x64	; 100
                        bit /= 10;
    2124:	4f 2e       	mov	r4, r31
    2126:	ee 24       	eor	r14, r14
}

//
void SetResponse(uint8_t number, uint16_t address, uint16_t length, uint8_t type){
    reactStr[0][number]=address;
    reactStr[1][number]=length;
    2128:	e3 94       	inc	r14
    212a:	f1 2c       	mov	r15, r1
    212c:	cc 24       	eor	r12, r12
    212e:	c3 94       	inc	r12
    2130:	d1 2c       	mov	r13, r1
    2132:	89 e5       	ldi	r24, 0x59	; 89
    return 0;
}

//
void SetResponse(uint8_t number, uint16_t address, uint16_t length, uint8_t type){
    reactStr[0][number]=address;
    2134:	88 2e       	mov	r8, r24
    2136:	8a e7       	ldi	r24, 0x7A	; 122
    2138:	98 2e       	mov	r9, r24
    213a:	92 e0       	ldi	r25, 0x02	; 2
    reactStr[1][number]=length;
    213c:	a9 2e       	mov	r10, r25
    213e:	b1 2c       	mov	r11, r1
    2140:	41 e0       	ldi	r20, 0x01	; 1
                uint8_t bit, digit[3];

                for (uint8_t x=0; x<MAX_CHEATS; ++x){
                    
                    //Set up sending out number
                    EERead(CHEATS+x, &bit, 1);
    2142:	be 01       	movw	r22, r28
    2144:	6f 5d       	subi	r22, 0xDF	; 223
    2146:	7f 4f       	sbci	r23, 0xFF	; 255
    2148:	87 2d       	mov	r24, r7
    214a:	0e 94 06 07 	call	0xe0c	; 0xe0c <EERead>
    214e:	29 a1       	ldd	r18, Y+33	; 0x21
                    bit = 0xff-bit;
    2150:	20 95       	com	r18
    2152:	82 2f       	mov	r24, r18
                    for (n=2; n>=0; --n) {
                        digit[n] = bit % 10;
    2154:	65 2d       	mov	r22, r5
    2156:	0e 94 75 1a 	call	0x34ea	; 0x34ea <__udivmodqi4>
    215a:	9b 83       	std	Y+3, r25	; 0x03
    215c:	0e 94 75 1a 	call	0x34ea	; 0x34ea <__udivmodqi4>
    2160:	9a 83       	std	Y+2, r25	; 0x02
    2162:	82 2f       	mov	r24, r18
                        bit /= 10;
    2164:	64 2d       	mov	r22, r4
    2166:	0e 94 75 1a 	call	0x34ea	; 0x34ea <__udivmodqi4>
    216a:	89 83       	std	Y+1, r24	; 0x01
                    
                    //Set up sending out number
                    EERead(CHEATS+x, &bit, 1);
                    bit = 0xff-bit;
                    for (n=2; n>=0; --n) {
                        digit[n] = bit % 10;
    216c:	19 a2       	std	Y+33, r1	; 0x21
    216e:	de 01       	movw	r26, r28
    2170:	11 96       	adiw	r26, 0x01	; 1
    2172:	40 e0       	ldi	r20, 0x00	; 0
    2174:	2d 91       	ld	r18, X+
                        bit /= 10;
                    }

                    for (n=0; n<3; ++n) {
                        SetResponse(x*4+n, A_DIGITS+digit[n], 1, TEASER);
    2176:	86 2d       	mov	r24, r6
    return 0;
}

//
void SetResponse(uint8_t number, uint16_t address, uint16_t length, uint8_t type){
    reactStr[0][number]=address;
    2178:	84 0f       	add	r24, r20
    217a:	90 e0       	ldi	r25, 0x00	; 0
    217c:	fc 01       	movw	r30, r24
    217e:	ee 0f       	add	r30, r30
    2180:	ff 1f       	adc	r31, r31
    2182:	ec 50       	subi	r30, 0x0C	; 12
    2184:	f7 4c       	sbci	r31, 0xC7	; 199
    2186:	30 e0       	ldi	r19, 0x00	; 0
    2188:	2d 52       	subi	r18, 0x2D	; 45
    218a:	3b 48       	sbci	r19, 0x8B	; 139
    218c:	20 83       	st	Z, r18
    218e:	31 83       	std	Z+1, r19	; 0x01
    2190:	fc 01       	movw	r30, r24
    reactStr[1][number]=length;
    2192:	ee 0f       	add	r30, r30
    2194:	ff 1f       	adc	r31, r31
    2196:	ec 5c       	subi	r30, 0xCC	; 204
    2198:	f6 4c       	sbci	r31, 0xC6	; 198
    219a:	e0 82       	st	Z, r14
    219c:	f1 82       	std	Z+1, r15	; 0x01
    219e:	88 0f       	add	r24, r24
    reactStr[2][number]=type;
    21a0:	99 1f       	adc	r25, r25
    21a2:	fc 01       	movw	r30, r24
    21a4:	ec 58       	subi	r30, 0x8C	; 140
    21a6:	f6 4c       	sbci	r31, 0xC6	; 198
    21a8:	e0 82       	st	Z, r14
    21aa:	f1 82       	std	Z+1, r15	; 0x01
    21ac:	4f 5f       	subi	r20, 0xFF	; 255
    21ae:	43 30       	cpi	r20, 0x03	; 3
                    for (n=2; n>=0; --n) {
                        digit[n] = bit % 10;
                        bit /= 10;
                    }

                    for (n=0; n<3; ++n) {
    21b0:	09 f7       	brne	.-62     	; 0x2174 <CheckInput+0x484>
    21b2:	f8 01       	movw	r30, r16
    return 0;
}

//
void SetResponse(uint8_t number, uint16_t address, uint16_t length, uint8_t type){
    reactStr[0][number]=address;
    21b4:	86 82       	std	Z+6, r8	; 0x06
    21b6:	97 82       	std	Z+7, r9	; 0x07
    21b8:	ea 5b       	subi	r30, 0xBA	; 186
    reactStr[1][number]=length;
    21ba:	ff 4f       	sbci	r31, 0xFF	; 255
    21bc:	a0 82       	st	Z, r10
    21be:	b1 82       	std	Z+1, r11	; 0x01
    21c0:	e0 5c       	subi	r30, 0xC0	; 192
    reactStr[2][number]=type;
    21c2:	ff 4f       	sbci	r31, 0xFF	; 255
    21c4:	c0 82       	st	Z, r12
    21c6:	d1 82       	std	Z+1, r13	; 0x01
    21c8:	73 94       	inc	r7
    21ca:	08 5f       	subi	r16, 0xF8	; 248
    21cc:	1f 4f       	sbci	r17, 0xFF	; 255
    21ce:	f4 e0       	ldi	r31, 0x04	; 4
    21d0:	6f 0e       	add	r6, r31
    21d2:	80 e2       	ldi	r24, 0x20	; 32
            }
            if (StartsWith(&data[0], "cheat")){
                int8_t n;
                uint8_t bit, digit[3];

                for (uint8_t x=0; x<MAX_CHEATS; ++x){
    21d4:	78 12       	cpse	r7, r24
    21d6:	b4 cf       	rjmp	.-152    	; 0x2140 <CheckInput+0x450>
    21d8:	8b e5       	ldi	r24, 0x5B	; 91
    return 0;
}

//
void SetResponse(uint8_t number, uint16_t address, uint16_t length, uint8_t type){
    reactStr[0][number]=address;
    21da:	9a e7       	ldi	r25, 0x7A	; 122
    21dc:	80 93 32 39 	sts	0x3932, r24	; 0x803932 <reactStr+0x3e>
    21e0:	90 93 33 39 	sts	0x3933, r25	; 0x803933 <reactStr+0x3f>
    21e4:	84 e0       	ldi	r24, 0x04	; 4
    reactStr[1][number]=length;
    21e6:	90 e0       	ldi	r25, 0x00	; 0
    21e8:	80 93 72 39 	sts	0x3972, r24	; 0x803972 <reactStr+0x7e>
    21ec:	90 93 73 39 	sts	0x3973, r25	; 0x803973 <reactStr+0x7f>
    21f0:	81 e0       	ldi	r24, 0x01	; 1
    reactStr[2][number]=type;
    21f2:	90 e0       	ldi	r25, 0x00	; 0
    21f4:	80 93 b2 39 	sts	0x39B2, r24	; 0x8039b2 <reactStr+0xbe>
    21f8:	90 93 b3 39 	sts	0x39B3, r25	; 0x8039b3 <reactStr+0xbf>
    21fc:	70 92 f3 38 	sts	0x38F3, r7	; 0x8038f3 <responseList>
                        SetResponse(x*4+n, A_DIGITS+digit[n], 1, TEASER);
                    }                
                    SetResponse(x*4+3, A_COMMA, L_COMMA, TEASER);
                }
                SetResponse((4*MAX_CHEATS)-1, A_LF, 4, TEASER);
                responseList = 32;
    2200:	ff 24       	eor	r15, r15
        //Data received, but not any of the commands above
        return 0;
    }

    //Serial input not available yet
    return 1;
    2202:	f3 94       	inc	r15
    2204:	8f 2d       	mov	r24, r15
}
    2206:	a1 96       	adiw	r28, 0x21	; 33
    2208:	cd bf       	out	0x3d, r28	; 61
    220a:	de bf       	out	0x3e, r29	; 62
    220c:	df 91       	pop	r29
    220e:	cf 91       	pop	r28
    2210:	1f 91       	pop	r17
    2212:	0f 91       	pop	r16
    2214:	ff 90       	pop	r15
    2216:	ef 90       	pop	r14
    2218:	df 90       	pop	r13
    221a:	cf 90       	pop	r12
    221c:	bf 90       	pop	r11
    221e:	af 90       	pop	r10
    2220:	9f 90       	pop	r9
    2222:	8f 90       	pop	r8
    2224:	7f 90       	pop	r7
    2226:	6f 90       	pop	r6
    2228:	5f 90       	pop	r5
    222a:	4f 90       	pop	r4
    222c:	08 95       	ret

0000222e <ProcessInput>:
    222e:	4f 92       	push	r4

//The game logic!
uint8_t ProcessInput(uint8_t *data){
    2230:	5f 92       	push	r5
    2232:	6f 92       	push	r6
    2234:	7f 92       	push	r7
    2236:	8f 92       	push	r8
    2238:	9f 92       	push	r9
    223a:	af 92       	push	r10
    223c:	bf 92       	push	r11
    223e:	cf 92       	push	r12
    2240:	df 92       	push	r13
    2242:	ef 92       	push	r14
    2244:	ff 92       	push	r15
    2246:	0f 93       	push	r16
    2248:	1f 93       	push	r17
    224a:	cf 93       	push	r28
    224c:	df 93       	push	r29
    224e:	cd b7       	in	r28, 0x3d	; 61
    2250:	de b7       	in	r29, 0x3e	; 62
    2252:	2a 97       	sbiw	r28, 0x0a	; 10
    2254:	cd bf       	out	0x3d, r28	; 61
    2256:	de bf       	out	0x3e, r29	; 62
    2258:	8c 01       	movw	r16, r24
    static object_model_t actObj1, actObj2;
    uint8_t elements = 1;

    CleanInput(&data[0]);
    225a:	73 dc       	rcall	.-1818   	; 0x1b42 <CleanInput>
    uint8_t inputLen = CleanInput(&data[0]);
    225c:	c8 01       	movw	r24, r16
    225e:	71 dc       	rcall	.-1822   	; 0x1b42 <CleanInput>
    2260:	f8 2e       	mov	r15, r24

    if (inputLen) {
    2262:	88 23       	and	r24, r24
    2264:	09 f4       	brne	.+2      	; 0x2268 <ProcessInput+0x3a>
    2266:	de c7       	rjmp	.+4028   	; 0x3224 <ProcessInput+0xff6>

        //eXit to previous location
        if (data[0] == 'x'){
    2268:	d8 01       	movw	r26, r16
    226a:	8c 91       	ld	r24, X
    226c:	88 37       	cpi	r24, 0x78	; 120
    226e:	09 f0       	breq	.+2      	; 0x2272 <ProcessInput+0x44>
    2270:	45 c0       	rjmp	.+138    	; 0x22fc <ProcessInput+0xce>

            //Standing in the Lobby?
            if ((route[currDepth] == 0)||(currDepth == 0)){
    2272:	80 91 26 38 	lds	r24, 0x3826	; 0x803826 <currDepth>
    2276:	e8 2f       	mov	r30, r24
    2278:	f0 e0       	ldi	r31, 0x00	; 0
    227a:	ee 0f       	add	r30, r30
    227c:	ff 1f       	adc	r31, r31
    227e:	ec 54       	subi	r30, 0x4C	; 76
    2280:	f6 4c       	sbci	r31, 0xC6	; 198
    2282:	20 81       	ld	r18, Z
    2284:	31 81       	ldd	r19, Z+1	; 0x01
    2286:	23 2b       	or	r18, r19
    2288:	11 f0       	breq	.+4      	; 0x228e <ProcessInput+0x60>
    228a:	81 11       	cpse	r24, r1
    228c:	03 c0       	rjmp	.+6      	; 0x2294 <ProcessInput+0x66>
    return 0;
}

//
void SetResponse(uint8_t number, uint16_t address, uint16_t length, uint8_t type){
    reactStr[0][number]=address;
    228e:	82 e8       	ldi	r24, 0x82	; 130
    2290:	96 e7       	ldi	r25, 0x76	; 118
    2292:	a1 c5       	rjmp	.+2882   	; 0x2dd6 <ProcessInput+0xba8>
            //Standing in the Lobby?
            if ((route[currDepth] == 0)||(currDepth == 0)){
                SetResponse(elements++, A_NOTPOSSIBLE, L_NOTPOSSIBLE, TEASER);
            
            //Is there a way to go back?
            } else if (CheckState(currObj.byteField[OPEN_ACL])){
    2294:	80 91 fa 39 	lds	r24, 0x39FA	; 0x8039fa <currObj+0x6>
    2298:	0e 94 08 09 	call	0x1210	; 0x1210 <CheckState>
    229c:	88 23       	and	r24, r24
    229e:	b9 f0       	breq	.+46     	; 0x22ce <ProcessInput+0xa0>
                --currDepth;
    22a0:	e0 91 26 38 	lds	r30, 0x3826	; 0x803826 <currDepth>
    22a4:	e1 50       	subi	r30, 0x01	; 1
    22a6:	e0 93 26 38 	sts	0x3826, r30	; 0x803826 <currDepth>
                PopulateObject(route[currDepth], &currObj);
    22aa:	f0 e0       	ldi	r31, 0x00	; 0
    22ac:	ee 0f       	add	r30, r30
    22ae:	ff 1f       	adc	r31, r31
    22b0:	ec 54       	subi	r30, 0x4C	; 76
    22b2:	f6 4c       	sbci	r31, 0xC6	; 198
    22b4:	64 ef       	ldi	r22, 0xF4	; 244
    22b6:	79 e3       	ldi	r23, 0x39	; 57
    22b8:	80 81       	ld	r24, Z
    22ba:	91 81       	ldd	r25, Z+1	; 0x01
    22bc:	0f db       	rcall	.-2530   	; 0x18dc <PopulateObject>
                effect = currObj.byteField[EFFECTS];
    22be:	80 91 f8 39 	lds	r24, 0x39F8	; 0x8039f8 <currObj+0x4>
    22c2:	90 e0       	ldi	r25, 0x00	; 0
    22c4:	80 93 2d 38 	sts	0x382D, r24	; 0x80382d <effect>
    22c8:	90 93 2e 38 	sts	0x382E, r25	; 0x80382e <effect+0x1>
    22cc:	31 c2       	rjmp	.+1122   	; 0x2730 <ProcessInput+0x502>
            
            //No way out, print denied message of location
            } else {
                SetResponse(elements++, currObj.addrStr[OPEN_ACL_MSG], currObj.lenStr[OPEN_ACL_MSG], GAME);
    22ce:	80 91 16 3a 	lds	r24, 0x3A16	; 0x803a16 <currObj+0x22>
    22d2:	90 91 17 3a 	lds	r25, 0x3A17	; 0x803a17 <currObj+0x23>
    return 0;
}

//
void SetResponse(uint8_t number, uint16_t address, uint16_t length, uint8_t type){
    reactStr[0][number]=address;
    22d6:	20 91 08 3a 	lds	r18, 0x3A08	; 0x803a08 <currObj+0x14>
    22da:	30 91 09 3a 	lds	r19, 0x3A09	; 0x803a09 <currObj+0x15>
    22de:	20 93 f6 38 	sts	0x38F6, r18	; 0x8038f6 <reactStr+0x2>
    22e2:	30 93 f7 38 	sts	0x38F7, r19	; 0x8038f7 <reactStr+0x3>
    reactStr[1][number]=length;
    22e6:	80 93 36 39 	sts	0x3936, r24	; 0x803936 <reactStr+0x42>
    22ea:	90 93 37 39 	sts	0x3937, r25	; 0x803937 <reactStr+0x43>
    reactStr[2][number]=type;
    22ee:	10 92 76 39 	sts	0x3976, r1	; 0x803976 <reactStr+0x82>
    22f2:	10 92 77 39 	sts	0x3977, r1	; 0x803977 <reactStr+0x83>
                effect = currObj.byteField[EFFECTS];
            
            //No way out, print denied message of location
            } else {
                SetResponse(elements++, currObj.addrStr[OPEN_ACL_MSG], currObj.lenStr[OPEN_ACL_MSG], GAME);
                effect = currObj.effect[0];               
    22f6:	80 91 1c 3a 	lds	r24, 0x3A1C	; 0x803a1c <currObj+0x28>
    22fa:	3a c6       	rjmp	.+3188   	; 0x2f70 <ProcessInput+0xd42>
            }   
        
        //Enter locations or Open objects    
        } else if ((data[0] == 'e')||(data[0] == 'o')) {
    22fc:	85 36       	cpi	r24, 0x65	; 101
    22fe:	19 f0       	breq	.+6      	; 0x2306 <ProcessInput+0xd8>
    2300:	8f 36       	cpi	r24, 0x6F	; 111
    2302:	09 f0       	breq	.+2      	; 0x2306 <ProcessInput+0xd8>
    2304:	df c0       	rjmp	.+446    	; 0x24c4 <ProcessInput+0x296>
                
            //Not possible, too many/little characters
            if (inputLen != 2){
    2306:	b2 e0       	ldi	r27, 0x02	; 2
    2308:	fb 12       	cpse	r15, r27
    230a:	c1 cf       	rjmp	.-126    	; 0x228e <ProcessInput+0x60>
                SetResponse(elements++, A_NOTPOSSIBLE, L_NOTPOSSIBLE, TEASER);
            } else {
                uint8_t canDo = 0;
                route[currDepth+1] = FindChild(route[currDepth], data[1], 0);
    230c:	e0 90 26 38 	lds	r14, 0x3826	; 0x803826 <currDepth>
    2310:	f1 2c       	mov	r15, r1
    2312:	f7 01       	movw	r30, r14
    2314:	ee 0f       	add	r30, r30
    2316:	ff 1f       	adc	r31, r31
    2318:	ec 54       	subi	r30, 0x4C	; 76
    231a:	f6 4c       	sbci	r31, 0xC6	; 198
    231c:	40 e0       	ldi	r20, 0x00	; 0
    231e:	50 e0       	ldi	r21, 0x00	; 0
    2320:	d8 01       	movw	r26, r16
    2322:	11 96       	adiw	r26, 0x01	; 1
    2324:	6c 91       	ld	r22, X
    2326:	80 81       	ld	r24, Z
    2328:	91 81       	ldd	r25, Z+1	; 0x01
    232a:	a3 db       	rcall	.-2234   	; 0x1a72 <FindChild>
    232c:	f7 01       	movw	r30, r14
    232e:	ee 0f       	add	r30, r30
    2330:	ff 1f       	adc	r31, r31
    2332:	ea 54       	subi	r30, 0x4A	; 74
    2334:	f6 4c       	sbci	r31, 0xC6	; 198
    2336:	80 83       	st	Z, r24
    2338:	91 83       	std	Z+1, r25	; 0x01
                    
                //Child found?
                if (route[currDepth+1]) {
    233a:	90 91 26 38 	lds	r25, 0x3826	; 0x803826 <currDepth>
    233e:	29 2f       	mov	r18, r25
    2340:	30 e0       	ldi	r19, 0x00	; 0
    2342:	f9 01       	movw	r30, r18
    2344:	ee 0f       	add	r30, r30
    2346:	ff 1f       	adc	r31, r31
    2348:	ea 54       	subi	r30, 0x4A	; 74
    234a:	f6 4c       	sbci	r31, 0xC6	; 198
    234c:	40 81       	ld	r20, Z
    234e:	51 81       	ldd	r21, Z+1	; 0x01
    2350:	41 15       	cp	r20, r1
    2352:	51 05       	cpc	r21, r1
    2354:	21 f0       	breq	.+8      	; 0x235e <ProcessInput+0x130>
                    PopulateObject(route[currDepth+1], &actObj1);
    2356:	65 eb       	ldi	r22, 0xB5	; 181
    2358:	78 e3       	ldi	r23, 0x38	; 56
    235a:	ca 01       	movw	r24, r20
    235c:	1c c0       	rjmp	.+56     	; 0x2396 <ProcessInput+0x168>
                    canDo = 1;
                //No child, maybe a step back, letter ok?
                } else if (currDepth) {
    235e:	99 23       	and	r25, r25
    2360:	09 f4       	brne	.+2      	; 0x2364 <ProcessInput+0x136>
    2362:	77 c7       	rjmp	.+3822   	; 0x3252 <ProcessInput+0x1024>
                    if (CheckLetter(route[currDepth-1], data[1])) {
    2364:	22 0f       	add	r18, r18
    2366:	33 1f       	adc	r19, r19
    2368:	f9 01       	movw	r30, r18
    236a:	ee 54       	subi	r30, 0x4E	; 78
    236c:	f6 4c       	sbci	r31, 0xC6	; 198
    236e:	d8 01       	movw	r26, r16
    2370:	11 96       	adiw	r26, 0x01	; 1
    2372:	6c 91       	ld	r22, X
    2374:	80 81       	ld	r24, Z
    2376:	91 81       	ldd	r25, Z+1	; 0x01
    2378:	28 db       	rcall	.-2480   	; 0x19ca <CheckLetter>
    237a:	88 23       	and	r24, r24
    237c:	09 f4       	brne	.+2      	; 0x2380 <ProcessInput+0x152>
    237e:	69 c7       	rjmp	.+3794   	; 0x3252 <ProcessInput+0x1024>
                        PopulateObject(route[currDepth-1], &actObj1);
    2380:	e0 91 26 38 	lds	r30, 0x3826	; 0x803826 <currDepth>
    2384:	f0 e0       	ldi	r31, 0x00	; 0
    2386:	ee 0f       	add	r30, r30
    2388:	ff 1f       	adc	r31, r31
    238a:	ee 54       	subi	r30, 0x4E	; 78
    238c:	f6 4c       	sbci	r31, 0xC6	; 198
    238e:	65 eb       	ldi	r22, 0xB5	; 181
    2390:	78 e3       	ldi	r23, 0x38	; 56
    2392:	80 81       	ld	r24, Z
    2394:	91 81       	ldd	r25, Z+1	; 0x01
    2396:	a2 da       	rcall	.-2748   	; 0x18dc <PopulateObject>
                    }
                }

                //The candidate is found! Let's check if the action is legit
                if (canDo) {
                    if ((data[0] == 'e') && ((actObj1.byteField[ACTION_MASK]&ENTER)==0)) {
    2398:	f8 01       	movw	r30, r16
    239a:	80 81       	ld	r24, Z
    239c:	85 36       	cpi	r24, 0x65	; 101
    239e:	c9 f4       	brne	.+50     	; 0x23d2 <ProcessInput+0x1a4>
    23a0:	80 91 bd 38 	lds	r24, 0x38BD	; 0x8038bd <actObj1.3989+0x8>
    23a4:	80 fd       	sbrc	r24, 0
    23a6:	1e c0       	rjmp	.+60     	; 0x23e4 <ProcessInput+0x1b6>
    return 0;
}

//
void SetResponse(uint8_t number, uint16_t address, uint16_t length, uint8_t type){
    reactStr[0][number]=address;
    23a8:	80 ea       	ldi	r24, 0xA0	; 160
    23aa:	99 e7       	ldi	r25, 0x79	; 121
    23ac:	80 93 f6 38 	sts	0x38F6, r24	; 0x8038f6 <reactStr+0x2>
    23b0:	90 93 f7 38 	sts	0x38F7, r25	; 0x8038f7 <reactStr+0x3>
    reactStr[1][number]=length;
    23b4:	8e e1       	ldi	r24, 0x1E	; 30
    23b6:	90 e0       	ldi	r25, 0x00	; 0
    23b8:	80 93 36 39 	sts	0x3936, r24	; 0x803936 <reactStr+0x42>
    23bc:	90 93 37 39 	sts	0x3937, r25	; 0x803937 <reactStr+0x43>
    reactStr[2][number]=type;
    23c0:	81 e0       	ldi	r24, 0x01	; 1
    23c2:	90 e0       	ldi	r25, 0x00	; 0
    23c4:	80 93 76 39 	sts	0x3976, r24	; 0x803976 <reactStr+0x82>
    23c8:	90 93 77 39 	sts	0x3977, r25	; 0x803977 <reactStr+0x83>
                }

                //The candidate is found! Let's check if the action is legit
                if (canDo) {
                    if ((data[0] == 'e') && ((actObj1.byteField[ACTION_MASK]&ENTER)==0)) {
                        SetResponse(elements++, A_CANTENTER, L_CANTENTER, TEASER);
    23cc:	72 e0       	ldi	r23, 0x02	; 2
    23ce:	77 2e       	mov	r7, r23
    23d0:	0e c7       	rjmp	.+3612   	; 0x31ee <ProcessInput+0xfc0>
                    } else if ((data[0] == 'o') && ((actObj1.byteField[ACTION_MASK]&OPEN)==0)) {
    23d2:	8f 36       	cpi	r24, 0x6F	; 111
    23d4:	39 f4       	brne	.+14     	; 0x23e4 <ProcessInput+0x1b6>
    23d6:	80 91 bd 38 	lds	r24, 0x38BD	; 0x8038bd <actObj1.3989+0x8>
    23da:	81 fd       	sbrc	r24, 1
    23dc:	03 c0       	rjmp	.+6      	; 0x23e4 <ProcessInput+0x1b6>
    return 0;
}

//
void SetResponse(uint8_t number, uint16_t address, uint16_t length, uint8_t type){
    reactStr[0][number]=address;
    23de:	85 e8       	ldi	r24, 0x85	; 133
    23e0:	99 e7       	ldi	r25, 0x79	; 121
    23e2:	f9 c4       	rjmp	.+2546   	; 0x2dd6 <ProcessInput+0xba8>
                        SetResponse(elements++, A_CANTENTER, L_CANTENTER, TEASER);
                    } else if ((data[0] == 'o') && ((actObj1.byteField[ACTION_MASK]&OPEN)==0)) {
                        SetResponse(elements++, A_CANTOPEN, L_CANTOPEN, TEASER);
                    
                    //Action legit, permission granted?
                    } else if (CheckState(actObj1.byteField[OPEN_ACL])) {
    23e4:	80 91 bb 38 	lds	r24, 0x38BB	; 0x8038bb <actObj1.3989+0x6>
    23e8:	0e 94 08 09 	call	0x1210	; 0x1210 <CheckState>
    23ec:	e0 91 26 38 	lds	r30, 0x3826	; 0x803826 <currDepth>
    23f0:	88 23       	and	r24, r24
    23f2:	09 f4       	brne	.+2      	; 0x23f6 <ProcessInput+0x1c8>
    23f4:	49 c0       	rjmp	.+146    	; 0x2488 <ProcessInput+0x25a>
                            
                        //Yes! Check if we must move forward or backwards.
                        if (route[currDepth+1]) ++currDepth; else --currDepth;
    23f6:	ae 2f       	mov	r26, r30
    23f8:	b0 e0       	ldi	r27, 0x00	; 0
    23fa:	aa 0f       	add	r26, r26
    23fc:	bb 1f       	adc	r27, r27
    23fe:	aa 54       	subi	r26, 0x4A	; 74
    2400:	b6 4c       	sbci	r27, 0xC6	; 198
    2402:	8d 91       	ld	r24, X+
    2404:	9c 91       	ld	r25, X
    2406:	89 2b       	or	r24, r25
    2408:	11 f0       	breq	.+4      	; 0x240e <ProcessInput+0x1e0>
    240a:	ef 5f       	subi	r30, 0xFF	; 255
    240c:	01 c0       	rjmp	.+2      	; 0x2410 <ProcessInput+0x1e2>
    240e:	e1 50       	subi	r30, 0x01	; 1
    2410:	e0 93 26 38 	sts	0x3826, r30	; 0x803826 <currDepth>
                        PopulateObject(route[currDepth], &currObj);
    2414:	e0 91 26 38 	lds	r30, 0x3826	; 0x803826 <currDepth>
    2418:	f0 e0       	ldi	r31, 0x00	; 0
    241a:	ee 0f       	add	r30, r30
    241c:	ff 1f       	adc	r31, r31
    241e:	ec 54       	subi	r30, 0x4C	; 76
    2420:	f6 4c       	sbci	r31, 0xC6	; 198
    2422:	64 ef       	ldi	r22, 0xF4	; 244
    2424:	79 e3       	ldi	r23, 0x39	; 57
    2426:	80 81       	ld	r24, Z
    2428:	91 81       	ldd	r25, Z+1	; 0x01
    242a:	58 da       	rcall	.-2896   	; 0x18dc <PopulateObject>
                        SetResponse(elements++, currObj.addrStr[DESC], currObj.lenStr[DESC],GAME);
    242c:	80 91 10 3a 	lds	r24, 0x3A10	; 0x803a10 <currObj+0x1c>
    2430:	90 91 11 3a 	lds	r25, 0x3A11	; 0x803a11 <currObj+0x1d>
    return 0;
}

//
void SetResponse(uint8_t number, uint16_t address, uint16_t length, uint8_t type){
    reactStr[0][number]=address;
    2434:	20 91 02 3a 	lds	r18, 0x3A02	; 0x803a02 <currObj+0xe>
    2438:	30 91 03 3a 	lds	r19, 0x3A03	; 0x803a03 <currObj+0xf>
    243c:	20 93 f6 38 	sts	0x38F6, r18	; 0x8038f6 <reactStr+0x2>
    2440:	30 93 f7 38 	sts	0x38F7, r19	; 0x8038f7 <reactStr+0x3>
    reactStr[1][number]=length;
    2444:	80 93 36 39 	sts	0x3936, r24	; 0x803936 <reactStr+0x42>
    2448:	90 93 37 39 	sts	0x3937, r25	; 0x803937 <reactStr+0x43>
    reactStr[2][number]=type;
    244c:	10 92 76 39 	sts	0x3976, r1	; 0x803976 <reactStr+0x82>
    2450:	10 92 77 39 	sts	0x3977, r1	; 0x803977 <reactStr+0x83>
    return 0;
}

//
void SetResponse(uint8_t number, uint16_t address, uint16_t length, uint8_t type){
    reactStr[0][number]=address;
    2454:	8b e5       	ldi	r24, 0x5B	; 91
    2456:	9a e7       	ldi	r25, 0x7A	; 122
    2458:	80 93 f8 38 	sts	0x38F8, r24	; 0x8038f8 <reactStr+0x4>
    245c:	90 93 f9 38 	sts	0x38F9, r25	; 0x8038f9 <reactStr+0x5>
    reactStr[1][number]=length;
    2460:	82 e0       	ldi	r24, 0x02	; 2
    2462:	90 e0       	ldi	r25, 0x00	; 0
    2464:	80 93 38 39 	sts	0x3938, r24	; 0x803938 <reactStr+0x44>
    2468:	90 93 39 39 	sts	0x3939, r25	; 0x803939 <reactStr+0x45>
    reactStr[2][number]=type;
    246c:	81 e0       	ldi	r24, 0x01	; 1
    246e:	90 e0       	ldi	r25, 0x00	; 0
    2470:	80 93 78 39 	sts	0x3978, r24	; 0x803978 <reactStr+0x84>
    2474:	90 93 79 39 	sts	0x3979, r25	; 0x803979 <reactStr+0x85>
                        //Yes! Check if we must move forward or backwards.
                        if (route[currDepth+1]) ++currDepth; else --currDepth;
                        PopulateObject(route[currDepth], &currObj);
                        SetResponse(elements++, currObj.addrStr[DESC], currObj.lenStr[DESC],GAME);
                        SetResponse(elements++, A_LF, 2, TEASER);
                        effect = currObj.byteField[EFFECTS];
    2478:	80 91 f8 39 	lds	r24, 0x39F8	; 0x8039f8 <currObj+0x4>
    247c:	90 e0       	ldi	r25, 0x00	; 0
    247e:	80 93 2d 38 	sts	0x382D, r24	; 0x80382d <effect>
    2482:	90 93 2e 38 	sts	0x382E, r25	; 0x80382e <effect+0x1>
    2486:	8d c4       	rjmp	.+2330   	; 0x2da2 <ProcessInput+0xb74>
                                                  
                    //Not granted!
                    } else {
                        route[currDepth+1] = 0;
    2488:	f0 e0       	ldi	r31, 0x00	; 0
    248a:	ee 0f       	add	r30, r30
    248c:	ff 1f       	adc	r31, r31
    248e:	ea 54       	subi	r30, 0x4A	; 74
    2490:	f6 4c       	sbci	r31, 0xC6	; 198
    2492:	10 82       	st	Z, r1
    2494:	11 82       	std	Z+1, r1	; 0x01
                        SetResponse(elements++, actObj1.addrStr[OPEN_ACL_MSG], actObj1.lenStr[OPEN_ACL_MSG], GAME);
    2496:	80 91 d7 38 	lds	r24, 0x38D7	; 0x8038d7 <actObj1.3989+0x22>
    249a:	90 91 d8 38 	lds	r25, 0x38D8	; 0x8038d8 <actObj1.3989+0x23>
    return 0;
}

//
void SetResponse(uint8_t number, uint16_t address, uint16_t length, uint8_t type){
    reactStr[0][number]=address;
    249e:	20 91 c9 38 	lds	r18, 0x38C9	; 0x8038c9 <actObj1.3989+0x14>
    24a2:	30 91 ca 38 	lds	r19, 0x38CA	; 0x8038ca <actObj1.3989+0x15>
    24a6:	20 93 f6 38 	sts	0x38F6, r18	; 0x8038f6 <reactStr+0x2>
    24aa:	30 93 f7 38 	sts	0x38F7, r19	; 0x8038f7 <reactStr+0x3>
    reactStr[1][number]=length;
    24ae:	80 93 36 39 	sts	0x3936, r24	; 0x803936 <reactStr+0x42>
    24b2:	90 93 37 39 	sts	0x3937, r25	; 0x803937 <reactStr+0x43>
    reactStr[2][number]=type;
    24b6:	10 92 76 39 	sts	0x3976, r1	; 0x803976 <reactStr+0x82>
    24ba:	10 92 77 39 	sts	0x3977, r1	; 0x803977 <reactStr+0x83>
                                                  
                    //Not granted!
                    } else {
                        route[currDepth+1] = 0;
                        SetResponse(elements++, actObj1.addrStr[OPEN_ACL_MSG], actObj1.lenStr[OPEN_ACL_MSG], GAME);
                        effect = actObj1.effect[0];              
    24be:	80 91 dd 38 	lds	r24, 0x38DD	; 0x8038dd <actObj1.3989+0x28>
    24c2:	56 c5       	rjmp	.+2732   	; 0x2f70 <ProcessInput+0xd42>
                    SetResponse(elements++, A_DONTSEE, L_DONTSEE, TEASER);                
                }
            }

        //Look around or at objects
        } else if (data[0] == 'l') {
    24c4:	8c 36       	cpi	r24, 0x6C	; 108
    24c6:	09 f0       	breq	.+2      	; 0x24ca <ProcessInput+0x29c>
    24c8:	57 c1       	rjmp	.+686    	; 0x2778 <ProcessInput+0x54a>
    24ca:	e0 91 26 38 	lds	r30, 0x3826	; 0x803826 <currDepth>
            if (inputLen == 1) {
    24ce:	b1 e0       	ldi	r27, 0x01	; 1
    24d0:	fb 12       	cpse	r15, r27
    24d2:	f6 c0       	rjmp	.+492    	; 0x26c0 <ProcessInput+0x492>

                //Show info about this area first
                SetResponse(elements++, currObj.addrStr[DESC], currObj.lenStr[DESC],GAME);
    24d4:	80 91 10 3a 	lds	r24, 0x3A10	; 0x803a10 <currObj+0x1c>
    24d8:	90 91 11 3a 	lds	r25, 0x3A11	; 0x803a11 <currObj+0x1d>
    return 0;
}

//
void SetResponse(uint8_t number, uint16_t address, uint16_t length, uint8_t type){
    reactStr[0][number]=address;
    24dc:	20 91 02 3a 	lds	r18, 0x3A02	; 0x803a02 <currObj+0xe>
    24e0:	30 91 03 3a 	lds	r19, 0x3A03	; 0x803a03 <currObj+0xf>
    24e4:	20 93 f6 38 	sts	0x38F6, r18	; 0x8038f6 <reactStr+0x2>
    24e8:	30 93 f7 38 	sts	0x38F7, r19	; 0x8038f7 <reactStr+0x3>
    reactStr[1][number]=length;
    24ec:	80 93 36 39 	sts	0x3936, r24	; 0x803936 <reactStr+0x42>
    24f0:	90 93 37 39 	sts	0x3937, r25	; 0x803937 <reactStr+0x43>
    reactStr[2][number]=type;
    24f4:	10 92 76 39 	sts	0x3976, r1	; 0x803976 <reactStr+0x82>
    24f8:	10 92 77 39 	sts	0x3977, r1	; 0x803977 <reactStr+0x83>
    return 0;
}

//
void SetResponse(uint8_t number, uint16_t address, uint16_t length, uint8_t type){
    reactStr[0][number]=address;
    24fc:	8b e5       	ldi	r24, 0x5B	; 91
    24fe:	9a e7       	ldi	r25, 0x7A	; 122
    2500:	80 93 f8 38 	sts	0x38F8, r24	; 0x8038f8 <reactStr+0x4>
    2504:	90 93 f9 38 	sts	0x38F9, r25	; 0x8038f9 <reactStr+0x5>
    reactStr[1][number]=length;
    2508:	82 e0       	ldi	r24, 0x02	; 2
    250a:	90 e0       	ldi	r25, 0x00	; 0
    250c:	80 93 38 39 	sts	0x3938, r24	; 0x803938 <reactStr+0x44>
    2510:	90 93 39 39 	sts	0x3939, r25	; 0x803939 <reactStr+0x45>
    reactStr[2][number]=type;
    2514:	81 e0       	ldi	r24, 0x01	; 1
    2516:	90 e0       	ldi	r25, 0x00	; 0
    2518:	80 93 78 39 	sts	0x3978, r24	; 0x803978 <reactStr+0x84>
    251c:	90 93 79 39 	sts	0x3979, r25	; 0x803979 <reactStr+0x85>
    return 0;
}

//
void SetResponse(uint8_t number, uint16_t address, uint16_t length, uint8_t type){
    reactStr[0][number]=address;
    2520:	2e ee       	ldi	r18, 0xEE	; 238
    2522:	39 e7       	ldi	r19, 0x79	; 121
    2524:	20 93 fa 38 	sts	0x38FA, r18	; 0x8038fa <reactStr+0x6>
    2528:	30 93 fb 38 	sts	0x38FB, r19	; 0x8038fb <reactStr+0x7>
    reactStr[1][number]=length;
    252c:	25 e1       	ldi	r18, 0x15	; 21
    252e:	30 e0       	ldi	r19, 0x00	; 0
    2530:	20 93 3a 39 	sts	0x393A, r18	; 0x80393a <reactStr+0x46>
    2534:	30 93 3b 39 	sts	0x393B, r19	; 0x80393b <reactStr+0x47>
    reactStr[2][number]=type;
    2538:	80 93 7a 39 	sts	0x397A, r24	; 0x80397a <reactStr+0x86>
    253c:	90 93 7b 39 	sts	0x397B, r25	; 0x80397b <reactStr+0x87>
                SetResponse(elements++, currObj.addrStr[DESC], currObj.lenStr[DESC],GAME);
                SetResponse(elements++, A_LF, 2, TEASER);
                SetResponse(elements++, A_LOOK, L_LOOK, TEASER);

                //Check the visible children first
                route[currDepth+1] = 0;
    2540:	f0 e0       	ldi	r31, 0x00	; 0
    2542:	ee 0f       	add	r30, r30
    2544:	ff 1f       	adc	r31, r31
    2546:	ea 54       	subi	r30, 0x4A	; 74
    2548:	f6 4c       	sbci	r31, 0xC6	; 198
    254a:	10 82       	st	Z, r1
    254c:	11 82       	std	Z+1, r1	; 0x01
            if (inputLen == 1) {

                //Show info about this area first
                SetResponse(elements++, currObj.addrStr[DESC], currObj.lenStr[DESC],GAME);
                SetResponse(elements++, A_LF, 2, TEASER);
                SetResponse(elements++, A_LOOK, L_LOOK, TEASER);
    254e:	84 e0       	ldi	r24, 0x04	; 4
    2550:	68 2e       	mov	r6, r24
    return 0;
}

//
void SetResponse(uint8_t number, uint16_t address, uint16_t length, uint8_t type){
    reactStr[0][number]=address;
    2552:	99 e5       	ldi	r25, 0x59	; 89
    2554:	c9 2e       	mov	r12, r25
    2556:	9a e7       	ldi	r25, 0x7A	; 122
    2558:	d9 2e       	mov	r13, r25
    reactStr[1][number]=length;
    255a:	22 e0       	ldi	r18, 0x02	; 2
    255c:	a2 2e       	mov	r10, r18
    255e:	b1 2c       	mov	r11, r1
    reactStr[2][number]=type;
    2560:	88 24       	eor	r8, r8
    2562:	83 94       	inc	r8
    2564:	91 2c       	mov	r9, r1
                SetResponse(elements++, A_LOOK, L_LOOK, TEASER);

                //Check the visible children first
                route[currDepth+1] = 0;
                do{
                    route[currDepth+1] = FindChild(route[currDepth], 0, route[currDepth+1]);
    2566:	80 91 26 38 	lds	r24, 0x3826	; 0x803826 <currDepth>
    256a:	90 e0       	ldi	r25, 0x00	; 0
    256c:	9c 01       	movw	r18, r24
    256e:	22 0f       	add	r18, r18
    2570:	33 1f       	adc	r19, r19
    2572:	f9 01       	movw	r30, r18
    2574:	ea 54       	subi	r30, 0x4A	; 74
    2576:	f6 4c       	sbci	r31, 0xC6	; 198
    2578:	7f 01       	movw	r14, r30
    257a:	40 81       	ld	r20, Z
    257c:	51 81       	ldd	r21, Z+1	; 0x01
    257e:	f9 01       	movw	r30, r18
    2580:	ec 54       	subi	r30, 0x4C	; 76
    2582:	f6 4c       	sbci	r31, 0xC6	; 198
    2584:	60 e0       	ldi	r22, 0x00	; 0
    2586:	80 81       	ld	r24, Z
    2588:	91 81       	ldd	r25, Z+1	; 0x01
    258a:	73 da       	rcall	.-2842   	; 0x1a72 <FindChild>
    258c:	d7 01       	movw	r26, r14
    258e:	8d 93       	st	X+, r24
    2590:	9c 93       	st	X, r25
                    if (route[currDepth+1]) {
    2592:	e0 91 26 38 	lds	r30, 0x3826	; 0x803826 <currDepth>
    2596:	f0 e0       	ldi	r31, 0x00	; 0
    2598:	ee 0f       	add	r30, r30
    259a:	ff 1f       	adc	r31, r31
    259c:	ea 54       	subi	r30, 0x4A	; 74
    259e:	f6 4c       	sbci	r31, 0xC6	; 198
    25a0:	80 81       	ld	r24, Z
    25a2:	91 81       	ldd	r25, Z+1	; 0x01
    25a4:	00 97       	sbiw	r24, 0x00	; 0
    25a6:	09 f4       	brne	.+2      	; 0x25aa <ProcessInput+0x37c>
    25a8:	4a c0       	rjmp	.+148    	; 0x263e <ProcessInput+0x410>
                        if ((route[currDepth+1] != inventory[0])&&(route[currDepth+1] != inventory[1])) {
    25aa:	20 91 31 38 	lds	r18, 0x3831	; 0x803831 <inventory>
    25ae:	30 91 32 38 	lds	r19, 0x3832	; 0x803832 <inventory+0x1>
    25b2:	82 17       	cp	r24, r18
    25b4:	93 07       	cpc	r25, r19
    25b6:	09 f4       	brne	.+2      	; 0x25ba <ProcessInput+0x38c>
    25b8:	42 c0       	rjmp	.+132    	; 0x263e <ProcessInput+0x410>
    25ba:	20 91 33 38 	lds	r18, 0x3833	; 0x803833 <inventory+0x2>
    25be:	30 91 34 38 	lds	r19, 0x3834	; 0x803834 <inventory+0x3>
    25c2:	82 17       	cp	r24, r18
    25c4:	93 07       	cpc	r25, r19
                            PopulateObject(route[currDepth+1], &actObj1);
    25c6:	d9 f1       	breq	.+118    	; 0x263e <ProcessInput+0x410>
    25c8:	65 eb       	ldi	r22, 0xB5	; 181
    25ca:	78 e3       	ldi	r23, 0x38	; 56
    25cc:	87 d9       	rcall	.-3314   	; 0x18dc <PopulateObject>
                            SetResponse(elements++, actObj1.addrStr[NAME], actObj1.lenStr[NAME],GAME);
    25ce:	80 91 cf 38 	lds	r24, 0x38CF	; 0x8038cf <actObj1.3989+0x1a>
    25d2:	90 91 d0 38 	lds	r25, 0x38D0	; 0x8038d0 <actObj1.3989+0x1b>
    return 0;
}

//
void SetResponse(uint8_t number, uint16_t address, uint16_t length, uint8_t type){
    reactStr[0][number]=address;
    25d6:	e6 2d       	mov	r30, r6
    25d8:	f0 e0       	ldi	r31, 0x00	; 0
    25da:	df 01       	movw	r26, r30
    25dc:	aa 0f       	add	r26, r26
    25de:	bb 1f       	adc	r27, r27
    25e0:	ac 50       	subi	r26, 0x0C	; 12
    25e2:	b7 4c       	sbci	r27, 0xC7	; 199
    25e4:	20 91 c1 38 	lds	r18, 0x38C1	; 0x8038c1 <actObj1.3989+0xc>
    25e8:	30 91 c2 38 	lds	r19, 0x38C2	; 0x8038c2 <actObj1.3989+0xd>
    25ec:	2d 93       	st	X+, r18
    25ee:	3c 93       	st	X, r19
    reactStr[1][number]=length;
    25f0:	df 01       	movw	r26, r30
    25f2:	aa 0f       	add	r26, r26
    25f4:	bb 1f       	adc	r27, r27
    25f6:	ac 5c       	subi	r26, 0xCC	; 204
    25f8:	b6 4c       	sbci	r27, 0xC6	; 198
    25fa:	8d 93       	st	X+, r24
    25fc:	9c 93       	st	X, r25
    reactStr[2][number]=type;
    25fe:	ee 0f       	add	r30, r30
    2600:	ff 1f       	adc	r31, r31
    2602:	ec 58       	subi	r30, 0x8C	; 140
    2604:	f6 4c       	sbci	r31, 0xC6	; 198
    2606:	10 82       	st	Z, r1
    2608:	11 82       	std	Z+1, r1	; 0x01
    return 0;
}

//
void SetResponse(uint8_t number, uint16_t address, uint16_t length, uint8_t type){
    reactStr[0][number]=address;
    260a:	81 e0       	ldi	r24, 0x01	; 1
    260c:	86 0d       	add	r24, r6
    260e:	90 e0       	ldi	r25, 0x00	; 0
    2610:	63 94       	inc	r6
    2612:	63 94       	inc	r6
    2614:	fc 01       	movw	r30, r24
    2616:	ee 0f       	add	r30, r30
    2618:	ff 1f       	adc	r31, r31
    261a:	ec 50       	subi	r30, 0x0C	; 12
    261c:	f7 4c       	sbci	r31, 0xC7	; 199
    261e:	c0 82       	st	Z, r12
    2620:	d1 82       	std	Z+1, r13	; 0x01
    reactStr[1][number]=length;
    2622:	fc 01       	movw	r30, r24
    2624:	ee 0f       	add	r30, r30
    2626:	ff 1f       	adc	r31, r31
    2628:	ec 5c       	subi	r30, 0xCC	; 204
    262a:	f6 4c       	sbci	r31, 0xC6	; 198
    262c:	a0 82       	st	Z, r10
    262e:	b1 82       	std	Z+1, r11	; 0x01
    reactStr[2][number]=type;
    2630:	88 0f       	add	r24, r24
    2632:	99 1f       	adc	r25, r25
    2634:	fc 01       	movw	r30, r24
    2636:	ec 58       	subi	r30, 0x8C	; 140
    2638:	f6 4c       	sbci	r31, 0xC6	; 198
    263a:	80 82       	st	Z, r8
    263c:	91 82       	std	Z+1, r9	; 0x01
                            PopulateObject(route[currDepth+1], &actObj1);
                            SetResponse(elements++, actObj1.addrStr[NAME], actObj1.lenStr[NAME],GAME);
                            SetResponse(elements++, A_COMMA, L_COMMA, TEASER);
                        }
                    }
                }while (route[currDepth+1]);
    263e:	20 91 26 38 	lds	r18, 0x3826	; 0x803826 <currDepth>
    2642:	82 2f       	mov	r24, r18
    2644:	90 e0       	ldi	r25, 0x00	; 0
    2646:	fc 01       	movw	r30, r24
    2648:	ee 0f       	add	r30, r30
    264a:	ff 1f       	adc	r31, r31
    264c:	ea 54       	subi	r30, 0x4A	; 74
    264e:	f6 4c       	sbci	r31, 0xC6	; 198
    2650:	40 81       	ld	r20, Z
    2652:	51 81       	ldd	r21, Z+1	; 0x01
    2654:	45 2b       	or	r20, r21
    2656:	09 f0       	breq	.+2      	; 0x265a <ProcessInput+0x42c>
    2658:	86 cf       	rjmp	.-244    	; 0x2566 <ProcessInput+0x338>

                //Look back if not on level 0
                if (currDepth) {
    265a:	22 23       	and	r18, r18
    265c:	69 f1       	breq	.+90     	; 0x26b8 <ProcessInput+0x48a>
                    PopulateObject(route[currDepth-1], &actObj1);
    265e:	88 0f       	add	r24, r24
    2660:	99 1f       	adc	r25, r25
    2662:	fc 01       	movw	r30, r24
    2664:	ee 54       	subi	r30, 0x4E	; 78
    2666:	f6 4c       	sbci	r31, 0xC6	; 198
    2668:	65 eb       	ldi	r22, 0xB5	; 181
    266a:	78 e3       	ldi	r23, 0x38	; 56
    266c:	80 81       	ld	r24, Z
    266e:	91 81       	ldd	r25, Z+1	; 0x01
    2670:	35 d9       	rcall	.-3478   	; 0x18dc <PopulateObject>
                    SetResponse(elements++, actObj1.addrStr[NAME], actObj1.lenStr[NAME],GAME);
    2672:	20 91 cf 38 	lds	r18, 0x38CF	; 0x8038cf <actObj1.3989+0x1a>
    2676:	30 91 d0 38 	lds	r19, 0x38D0	; 0x8038d0 <actObj1.3989+0x1b>
    267a:	77 24       	eor	r7, r7
    267c:	73 94       	inc	r7
    267e:	76 0c       	add	r7, r6
    return 0;
}

//
void SetResponse(uint8_t number, uint16_t address, uint16_t length, uint8_t type){
    reactStr[0][number]=address;
    2680:	86 2d       	mov	r24, r6
    2682:	90 e0       	ldi	r25, 0x00	; 0
    2684:	fc 01       	movw	r30, r24
    2686:	ee 0f       	add	r30, r30
    2688:	ff 1f       	adc	r31, r31
    268a:	ec 50       	subi	r30, 0x0C	; 12
    268c:	f7 4c       	sbci	r31, 0xC7	; 199
    268e:	40 91 c1 38 	lds	r20, 0x38C1	; 0x8038c1 <actObj1.3989+0xc>
    2692:	50 91 c2 38 	lds	r21, 0x38C2	; 0x8038c2 <actObj1.3989+0xd>
    2696:	40 83       	st	Z, r20
    2698:	51 83       	std	Z+1, r21	; 0x01
    reactStr[1][number]=length;
    269a:	fc 01       	movw	r30, r24
    269c:	ee 0f       	add	r30, r30
    269e:	ff 1f       	adc	r31, r31
    26a0:	ec 5c       	subi	r30, 0xCC	; 204
    26a2:	f6 4c       	sbci	r31, 0xC6	; 198
    26a4:	20 83       	st	Z, r18
    26a6:	31 83       	std	Z+1, r19	; 0x01
    reactStr[2][number]=type;
    26a8:	88 0f       	add	r24, r24
    26aa:	99 1f       	adc	r25, r25
    26ac:	fc 01       	movw	r30, r24
    26ae:	ec 58       	subi	r30, 0x8C	; 140
    26b0:	f6 4c       	sbci	r31, 0xC6	; 198
    26b2:	10 82       	st	Z, r1
    26b4:	11 82       	std	Z+1, r1	; 0x01
    26b6:	9b c5       	rjmp	.+2870   	; 0x31ee <ProcessInput+0xfc0>

                //Look back if not on level 0
                if (currDepth) {
                    PopulateObject(route[currDepth-1], &actObj1);
                    SetResponse(elements++, actObj1.addrStr[NAME], actObj1.lenStr[NAME],GAME);
                } else elements-=1;
    26b8:	77 24       	eor	r7, r7
    26ba:	7a 94       	dec	r7
    26bc:	76 0c       	add	r7, r6
    26be:	97 c5       	rjmp	.+2862   	; 0x31ee <ProcessInput+0xfc0>

            } else {
                route[currDepth+1] = FindChild(route[currDepth], data[1], 0);
    26c0:	ee 2e       	mov	r14, r30
    26c2:	f1 2c       	mov	r15, r1
    26c4:	f7 01       	movw	r30, r14
    26c6:	ee 0f       	add	r30, r30
    26c8:	ff 1f       	adc	r31, r31
    26ca:	ec 54       	subi	r30, 0x4C	; 76
    26cc:	f6 4c       	sbci	r31, 0xC6	; 198
    26ce:	40 e0       	ldi	r20, 0x00	; 0
    26d0:	50 e0       	ldi	r21, 0x00	; 0
    26d2:	d8 01       	movw	r26, r16
    26d4:	11 96       	adiw	r26, 0x01	; 1
    26d6:	6c 91       	ld	r22, X
    26d8:	80 81       	ld	r24, Z
    26da:	91 81       	ldd	r25, Z+1	; 0x01
    26dc:	ca d9       	rcall	.-3180   	; 0x1a72 <FindChild>
    26de:	f7 01       	movw	r30, r14
    26e0:	ee 0f       	add	r30, r30
    26e2:	ff 1f       	adc	r31, r31
    26e4:	ea 54       	subi	r30, 0x4A	; 74
    26e6:	f6 4c       	sbci	r31, 0xC6	; 198
    26e8:	80 83       	st	Z, r24
    26ea:	91 83       	std	Z+1, r25	; 0x01
                if (route[currDepth+1]) {
    26ec:	90 91 26 38 	lds	r25, 0x3826	; 0x803826 <currDepth>
    26f0:	29 2f       	mov	r18, r25
    26f2:	30 e0       	ldi	r19, 0x00	; 0
    26f4:	f9 01       	movw	r30, r18
    26f6:	ee 0f       	add	r30, r30
    26f8:	ff 1f       	adc	r31, r31
    26fa:	ea 54       	subi	r30, 0x4A	; 74
    26fc:	f6 4c       	sbci	r31, 0xC6	; 198
    26fe:	40 81       	ld	r20, Z
    2700:	51 81       	ldd	r21, Z+1	; 0x01
    2702:	41 15       	cp	r20, r1
    2704:	51 05       	cpc	r21, r1
    2706:	21 f0       	breq	.+8      	; 0x2710 <ProcessInput+0x4e2>
                    PopulateObject(route[currDepth+1], &actObj1);
    2708:	65 eb       	ldi	r22, 0xB5	; 181
    270a:	78 e3       	ldi	r23, 0x38	; 56
    270c:	ca 01       	movw	r24, r20
    270e:	1e c0       	rjmp	.+60     	; 0x274c <ProcessInput+0x51e>
//TODO: CHECKSTATE -> A_CANTLOOK item
                    SetResponse(elements++, actObj1.addrStr[DESC], actObj1.lenStr[DESC],GAME);   
                } else if (currDepth) {
    2710:	99 23       	and	r25, r25
    2712:	09 f4       	brne	.+2      	; 0x2716 <ProcessInput+0x4e8>
                    if (CheckLetter(route[currDepth-1], data[1])) {
    2714:	9e c5       	rjmp	.+2876   	; 0x3252 <ProcessInput+0x1024>
    2716:	22 0f       	add	r18, r18
    2718:	33 1f       	adc	r19, r19
    271a:	f9 01       	movw	r30, r18
    271c:	ee 54       	subi	r30, 0x4E	; 78
    271e:	f6 4c       	sbci	r31, 0xC6	; 198
    2720:	d8 01       	movw	r26, r16
    2722:	11 96       	adiw	r26, 0x01	; 1
    2724:	6c 91       	ld	r22, X
    2726:	80 81       	ld	r24, Z
    2728:	91 81       	ldd	r25, Z+1	; 0x01
    272a:	4f d9       	rcall	.-3426   	; 0x19ca <CheckLetter>
    272c:	81 11       	cpse	r24, r1
    272e:	03 c0       	rjmp	.+6      	; 0x2736 <ProcessInput+0x508>
}

//The game logic!
uint8_t ProcessInput(uint8_t *data){
    static object_model_t actObj1, actObj2;
    uint8_t elements = 1;
    2730:	77 24       	eor	r7, r7
    2732:	73 94       	inc	r7
                    PopulateObject(route[currDepth+1], &actObj1);
//TODO: CHECKSTATE -> A_CANTLOOK item
                    SetResponse(elements++, actObj1.addrStr[DESC], actObj1.lenStr[DESC],GAME);   
                } else if (currDepth) {
                    if (CheckLetter(route[currDepth-1], data[1])) {
                        PopulateObject(route[currDepth-1], &actObj1);
    2734:	5c c5       	rjmp	.+2744   	; 0x31ee <ProcessInput+0xfc0>
    2736:	e0 91 26 38 	lds	r30, 0x3826	; 0x803826 <currDepth>
    273a:	f0 e0       	ldi	r31, 0x00	; 0
    273c:	ee 0f       	add	r30, r30
    273e:	ff 1f       	adc	r31, r31
    2740:	ee 54       	subi	r30, 0x4E	; 78
    2742:	f6 4c       	sbci	r31, 0xC6	; 198
    2744:	65 eb       	ldi	r22, 0xB5	; 181
    2746:	78 e3       	ldi	r23, 0x38	; 56
    2748:	80 81       	ld	r24, Z
    274a:	91 81       	ldd	r25, Z+1	; 0x01
    274c:	c7 d8       	rcall	.-3698   	; 0x18dc <PopulateObject>
                        SetResponse(elements++, actObj1.addrStr[DESC], actObj1.lenStr[DESC],GAME);
    274e:	80 91 d1 38 	lds	r24, 0x38D1	; 0x8038d1 <actObj1.3989+0x1c>
    2752:	90 91 d2 38 	lds	r25, 0x38D2	; 0x8038d2 <actObj1.3989+0x1d>
    return 0;
}

//
void SetResponse(uint8_t number, uint16_t address, uint16_t length, uint8_t type){
    reactStr[0][number]=address;
    2756:	20 91 c3 38 	lds	r18, 0x38C3	; 0x8038c3 <actObj1.3989+0xe>
    275a:	30 91 c4 38 	lds	r19, 0x38C4	; 0x8038c4 <actObj1.3989+0xf>
    275e:	20 93 f6 38 	sts	0x38F6, r18	; 0x8038f6 <reactStr+0x2>
    2762:	30 93 f7 38 	sts	0x38F7, r19	; 0x8038f7 <reactStr+0x3>
    reactStr[1][number]=length;
    2766:	80 93 36 39 	sts	0x3936, r24	; 0x803936 <reactStr+0x42>
    276a:	90 93 37 39 	sts	0x3937, r25	; 0x803937 <reactStr+0x43>
    reactStr[2][number]=type;
    276e:	10 92 76 39 	sts	0x3976, r1	; 0x803976 <reactStr+0x82>
    2772:	10 92 77 39 	sts	0x3977, r1	; 0x803977 <reactStr+0x83>
    2776:	2a ce       	rjmp	.-940    	; 0x23cc <ProcessInput+0x19e>
                    SetResponse(elements++, A_DONTSEE, L_DONTSEE, TEASER);
                }
            }
        
        //Pick up an object
        } else if (data[0] == 'p') {
    2778:	80 37       	cpi	r24, 0x70	; 112
    277a:	09 f0       	breq	.+2      	; 0x277e <ProcessInput+0x550>
    277c:	96 c0       	rjmp	.+300    	; 0x28aa <ProcessInput+0x67c>
            if (inventory[0]&&inventory[1]) {
    277e:	80 91 31 38 	lds	r24, 0x3831	; 0x803831 <inventory>
    2782:	90 91 32 38 	lds	r25, 0x3832	; 0x803832 <inventory+0x1>
    2786:	89 2b       	or	r24, r25
    2788:	79 f0       	breq	.+30     	; 0x27a8 <ProcessInput+0x57a>
    278a:	80 91 33 38 	lds	r24, 0x3833	; 0x803833 <inventory+0x2>
    278e:	90 91 34 38 	lds	r25, 0x3834	; 0x803834 <inventory+0x3>
    2792:	89 2b       	or	r24, r25
    2794:	49 f0       	breq	.+18     	; 0x27a8 <ProcessInput+0x57a>
    return 0;
}

//
void SetResponse(uint8_t number, uint16_t address, uint16_t length, uint8_t type){
    reactStr[0][number]=address;
    2796:	85 e4       	ldi	r24, 0x45	; 69
    2798:	98 e7       	ldi	r25, 0x78	; 120
    279a:	80 93 f6 38 	sts	0x38F6, r24	; 0x8038f6 <reactStr+0x2>
    279e:	90 93 f7 38 	sts	0x38F7, r25	; 0x8038f7 <reactStr+0x3>
    reactStr[1][number]=length;
    27a2:	89 e5       	ldi	r24, 0x59	; 89
    27a4:	90 e0       	ldi	r25, 0x00	; 0
    27a6:	08 ce       	rjmp	.-1008   	; 0x23b8 <ProcessInput+0x18a>
        
        //Pick up an object
        } else if (data[0] == 'p') {
            if (inventory[0]&&inventory[1]) {
                SetResponse(elements++, A_CARRYTWO, L_CARRYTWO, TEASER);
            } else if (inputLen != 2) {
    27a8:	b2 e0       	ldi	r27, 0x02	; 2
    27aa:	fb 12       	cpse	r15, r27
    27ac:	70 cd       	rjmp	.-1312   	; 0x228e <ProcessInput+0x60>
                SetResponse(elements++, A_NOTPOSSIBLE, L_NOTPOSSIBLE, TEASER);
            } else {
                route[currDepth+1] = FindChild(route[currDepth], data[1], 0);
    27ae:	e0 90 26 38 	lds	r14, 0x3826	; 0x803826 <currDepth>
    27b2:	f1 2c       	mov	r15, r1
    27b4:	f7 01       	movw	r30, r14
    27b6:	ee 0f       	add	r30, r30
    27b8:	ff 1f       	adc	r31, r31
    27ba:	ec 54       	subi	r30, 0x4C	; 76
    27bc:	f6 4c       	sbci	r31, 0xC6	; 198
    27be:	40 e0       	ldi	r20, 0x00	; 0
    27c0:	50 e0       	ldi	r21, 0x00	; 0
    27c2:	d8 01       	movw	r26, r16
    27c4:	11 96       	adiw	r26, 0x01	; 1
    27c6:	6c 91       	ld	r22, X
    27c8:	80 81       	ld	r24, Z
    27ca:	91 81       	ldd	r25, Z+1	; 0x01
    27cc:	52 d9       	rcall	.-3420   	; 0x1a72 <FindChild>
    27ce:	f7 01       	movw	r30, r14
    27d0:	ee 0f       	add	r30, r30
    27d2:	ff 1f       	adc	r31, r31
    27d4:	ea 54       	subi	r30, 0x4A	; 74
    27d6:	f6 4c       	sbci	r31, 0xC6	; 198
    27d8:	80 83       	st	Z, r24
    27da:	91 83       	std	Z+1, r25	; 0x01
                if (route[currDepth+1]) {
    27dc:	20 91 26 38 	lds	r18, 0x3826	; 0x803826 <currDepth>
    27e0:	30 e0       	ldi	r19, 0x00	; 0
    27e2:	2f 5f       	subi	r18, 0xFF	; 255
    27e4:	3f 4f       	sbci	r19, 0xFF	; 255
    27e6:	22 0f       	add	r18, r18
    27e8:	33 1f       	adc	r19, r19
    27ea:	f9 01       	movw	r30, r18
    27ec:	ec 54       	subi	r30, 0x4C	; 76
    27ee:	f6 4c       	sbci	r31, 0xC6	; 198
    27f0:	80 81       	ld	r24, Z
    27f2:	91 81       	ldd	r25, Z+1	; 0x01
    27f4:	00 97       	sbiw	r24, 0x00	; 0
    27f6:	09 f4       	brne	.+2      	; 0x27fa <ProcessInput+0x5cc>
    27f8:	ca c3       	rjmp	.+1940   	; 0x2f8e <ProcessInput+0xd60>
                    if ((route[currDepth+1] == inventory[0])||(route[currDepth+1] == inventory[1])) {
    27fa:	40 91 31 38 	lds	r20, 0x3831	; 0x803831 <inventory>
    27fe:	50 91 32 38 	lds	r21, 0x3832	; 0x803832 <inventory+0x1>
    2802:	84 17       	cp	r24, r20
    2804:	95 07       	cpc	r25, r21
    2806:	39 f0       	breq	.+14     	; 0x2816 <ProcessInput+0x5e8>
    2808:	40 91 33 38 	lds	r20, 0x3833	; 0x803833 <inventory+0x2>
    280c:	50 91 34 38 	lds	r21, 0x3834	; 0x803834 <inventory+0x3>
    2810:	84 17       	cp	r24, r20
    2812:	95 07       	cpc	r25, r21
    2814:	c1 f4       	brne	.+48     	; 0x2846 <ProcessInput+0x618>
    return 0;
}

//
void SetResponse(uint8_t number, uint16_t address, uint16_t length, uint8_t type){
    reactStr[0][number]=address;
    2816:	80 e2       	ldi	r24, 0x20	; 32
    2818:	98 e7       	ldi	r25, 0x78	; 120
    281a:	80 93 f6 38 	sts	0x38F6, r24	; 0x8038f6 <reactStr+0x2>
    281e:	90 93 f7 38 	sts	0x38F7, r25	; 0x8038f7 <reactStr+0x3>
    reactStr[1][number]=length;
    2822:	85 e2       	ldi	r24, 0x25	; 37
    2824:	90 e0       	ldi	r25, 0x00	; 0
    2826:	80 93 36 39 	sts	0x3936, r24	; 0x803936 <reactStr+0x42>
    282a:	90 93 37 39 	sts	0x3937, r25	; 0x803937 <reactStr+0x43>
    reactStr[2][number]=type;
    282e:	81 e0       	ldi	r24, 0x01	; 1
    2830:	90 e0       	ldi	r25, 0x00	; 0
    2832:	80 93 76 39 	sts	0x3976, r24	; 0x803976 <reactStr+0x82>
    2836:	90 93 77 39 	sts	0x3977, r25	; 0x803977 <reactStr+0x83>
            } else {
                route[currDepth+1] = FindChild(route[currDepth], data[1], 0);
                if (route[currDepth+1]) {
                    if ((route[currDepth+1] == inventory[0])||(route[currDepth+1] == inventory[1])) {
                        SetResponse(elements++, A_ALREADYCARRYING, L_ALREADYCARRYING, TEASER);
                        route[currDepth+1] = 0;
    283a:	f9 01       	movw	r30, r18
    283c:	ec 54       	subi	r30, 0x4C	; 76
    283e:	f6 4c       	sbci	r31, 0xC6	; 198
    2840:	10 82       	st	Z, r1
    2842:	11 82       	std	Z+1, r1	; 0x01
                    } else {
                        //Put item in the inventory if possible
                        PopulateObject(route[currDepth+1], &actObj1);  
    2844:	c3 cd       	rjmp	.-1146   	; 0x23cc <ProcessInput+0x19e>
    2846:	65 eb       	ldi	r22, 0xB5	; 181
    2848:	78 e3       	ldi	r23, 0x38	; 56
    284a:	48 d8       	rcall	.-3952   	; 0x18dc <PopulateObject>
                        if (CheckState(actObj1.byteField[ACTION_ACL])) {
    284c:	80 91 bc 38 	lds	r24, 0x38BC	; 0x8038bc <actObj1.3989+0x7>
    2850:	0e 94 08 09 	call	0x1210	; 0x1210 <CheckState>
    2854:	88 23       	and	r24, r24
    2856:	09 f4       	brne	.+2      	; 0x285a <ProcessInput+0x62c>
    2858:	75 c3       	rjmp	.+1770   	; 0x2f44 <ProcessInput+0xd16>
                            if (actObj1.byteField[ITEM_NR]) {
    285a:	80 91 c0 38 	lds	r24, 0x38C0	; 0x8038c0 <actObj1.3989+0xb>
    285e:	88 23       	and	r24, r24
    2860:	09 f4       	brne	.+2      	; 0x2864 <ProcessInput+0x636>
    2862:	15 cd       	rjmp	.-1494   	; 0x228e <ProcessInput+0x60>
                                if (inventory[0]) {
    2864:	80 91 31 38 	lds	r24, 0x3831	; 0x803831 <inventory>
    2868:	90 91 32 38 	lds	r25, 0x3832	; 0x803832 <inventory+0x1>
    286c:	e0 91 26 38 	lds	r30, 0x3826	; 0x803826 <currDepth>
                                    inventory[1] = route[currDepth+1];
    2870:	f0 e0       	ldi	r31, 0x00	; 0
    2872:	ee 0f       	add	r30, r30
    2874:	ff 1f       	adc	r31, r31
    2876:	ea 54       	subi	r30, 0x4A	; 74
    2878:	f6 4c       	sbci	r31, 0xC6	; 198
                    } else {
                        //Put item in the inventory if possible
                        PopulateObject(route[currDepth+1], &actObj1);  
                        if (CheckState(actObj1.byteField[ACTION_ACL])) {
                            if (actObj1.byteField[ITEM_NR]) {
                                if (inventory[0]) {
    287a:	89 2b       	or	r24, r25
    287c:	39 f0       	breq	.+14     	; 0x288c <ProcessInput+0x65e>
                                    inventory[1] = route[currDepth+1];
    287e:	80 81       	ld	r24, Z
    2880:	91 81       	ldd	r25, Z+1	; 0x01
    2882:	80 93 33 38 	sts	0x3833, r24	; 0x803833 <inventory+0x2>
    2886:	90 93 34 38 	sts	0x3834, r25	; 0x803834 <inventory+0x3>
    288a:	06 c0       	rjmp	.+12     	; 0x2898 <ProcessInput+0x66a>
                                } else {
                                    inventory[0] = route[currDepth+1];
    288c:	80 81       	ld	r24, Z
    288e:	91 81       	ldd	r25, Z+1	; 0x01
    2890:	80 93 31 38 	sts	0x3831, r24	; 0x803831 <inventory>
    2894:	90 93 32 38 	sts	0x3832, r25	; 0x803832 <inventory+0x1>
    return 0;
}

//
void SetResponse(uint8_t number, uint16_t address, uint16_t length, uint8_t type){
    reactStr[0][number]=address;
    2898:	8a e0       	ldi	r24, 0x0A	; 10
    289a:	98 e7       	ldi	r25, 0x78	; 120
    289c:	80 93 f6 38 	sts	0x38F6, r24	; 0x8038f6 <reactStr+0x2>
    28a0:	90 93 f7 38 	sts	0x38F7, r25	; 0x8038f7 <reactStr+0x3>
    reactStr[1][number]=length;
    28a4:	86 e1       	ldi	r24, 0x16	; 22
    28a6:	90 e0       	ldi	r25, 0x00	; 0
    28a8:	5e c2       	rjmp	.+1212   	; 0x2d66 <ProcessInput+0xb38>
                } else SetResponse(elements++, A_NOSUCHOBJECT, L_NOSUCHOBJECT, TEASER);
            }
        } else

        //Drop item if in inventory
        if (data[0] == 'd') {
    28aa:	84 36       	cpi	r24, 0x64	; 100
    28ac:	d9 f4       	brne	.+54     	; 0x28e4 <ProcessInput+0x6b6>
            if ((inventory[0] == 0)&&(inventory[1] == 0)){
    28ae:	80 91 31 38 	lds	r24, 0x3831	; 0x803831 <inventory>
    28b2:	90 91 32 38 	lds	r25, 0x3832	; 0x803832 <inventory+0x1>
    28b6:	00 97       	sbiw	r24, 0x00	; 0
    28b8:	09 f0       	breq	.+2      	; 0x28bc <ProcessInput+0x68e>
    28ba:	ce c4       	rjmp	.+2460   	; 0x3258 <ProcessInput+0x102a>
    28bc:	80 91 33 38 	lds	r24, 0x3833	; 0x803833 <inventory+0x2>
    28c0:	90 91 34 38 	lds	r25, 0x3834	; 0x803834 <inventory+0x3>
    28c4:	89 2b       	or	r24, r25
    28c6:	49 f4       	brne	.+18     	; 0x28da <ProcessInput+0x6ac>
    return 0;
}

//
void SetResponse(uint8_t number, uint16_t address, uint16_t length, uint8_t type){
    reactStr[0][number]=address;
    28c8:	84 ee       	ldi	r24, 0xE4	; 228
    28ca:	97 e7       	ldi	r25, 0x77	; 119
    28cc:	80 93 f6 38 	sts	0x38F6, r24	; 0x8038f6 <reactStr+0x2>
    28d0:	90 93 f7 38 	sts	0x38F7, r25	; 0x8038f7 <reactStr+0x3>
    reactStr[1][number]=length;
    28d4:	86 e2       	ldi	r24, 0x26	; 38
    28d6:	90 e0       	ldi	r25, 0x00	; 0
    28d8:	6f cd       	rjmp	.-1314   	; 0x23b8 <ProcessInput+0x18a>

        //Drop item if in inventory
        if (data[0] == 'd') {
            if ((inventory[0] == 0)&&(inventory[1] == 0)){
                SetResponse(elements++, A_EMPTYHANDS, L_EMPTYHANDS, TEASER);
            } else if (inputLen != 2) {
    28da:	b2 e0       	ldi	r27, 0x02	; 2
    28dc:	fb 16       	cp	r15, r27
    28de:	09 f4       	brne	.+2      	; 0x28e2 <ProcessInput+0x6b4>
    28e0:	21 c5       	rjmp	.+2626   	; 0x3324 <ProcessInput+0x10f6>
    28e2:	d5 cc       	rjmp	.-1622   	; 0x228e <ProcessInput+0x60>
                    if (x) SetResponse(elements++, A_NOTCARRYING, L_NOTCARRYING, TEASER);
                }
            }

        //Inventory list
        } else if (data[0] == 'i') {
    28e4:	89 36       	cpi	r24, 0x69	; 105
    28e6:	09 f0       	breq	.+2      	; 0x28ea <ProcessInput+0x6bc>
    28e8:	7b c0       	rjmp	.+246    	; 0x29e0 <ProcessInput+0x7b2>
            if ((inventory[0] == 0)&&(inventory[1] == 0)){
    28ea:	80 91 31 38 	lds	r24, 0x3831	; 0x803831 <inventory>
    28ee:	90 91 32 38 	lds	r25, 0x3832	; 0x803832 <inventory+0x1>
    28f2:	89 2b       	or	r24, r25
    28f4:	31 f4       	brne	.+12     	; 0x2902 <ProcessInput+0x6d4>
    28f6:	80 91 33 38 	lds	r24, 0x3833	; 0x803833 <inventory+0x2>
    28fa:	90 91 34 38 	lds	r25, 0x3834	; 0x803834 <inventory+0x3>
    28fe:	89 2b       	or	r24, r25
    2900:	19 f3       	breq	.-58     	; 0x28c8 <ProcessInput+0x69a>
    return 0;
}

//
void SetResponse(uint8_t number, uint16_t address, uint16_t length, uint8_t type){
    reactStr[0][number]=address;
    2902:	8a e0       	ldi	r24, 0x0A	; 10
    2904:	98 e7       	ldi	r25, 0x78	; 120
    2906:	80 93 f6 38 	sts	0x38F6, r24	; 0x8038f6 <reactStr+0x2>
    290a:	90 93 f7 38 	sts	0x38F7, r25	; 0x8038f7 <reactStr+0x3>
    reactStr[1][number]=length;
    290e:	86 e1       	ldi	r24, 0x16	; 22
    2910:	90 e0       	ldi	r25, 0x00	; 0
    2912:	80 93 36 39 	sts	0x3936, r24	; 0x803936 <reactStr+0x42>
    2916:	90 93 37 39 	sts	0x3937, r25	; 0x803937 <reactStr+0x43>
    reactStr[2][number]=type;
    291a:	81 e0       	ldi	r24, 0x01	; 1
    291c:	90 e0       	ldi	r25, 0x00	; 0
    291e:	80 93 76 39 	sts	0x3976, r24	; 0x803976 <reactStr+0x82>
    2922:	90 93 77 39 	sts	0x3977, r25	; 0x803977 <reactStr+0x83>
    2926:	21 e3       	ldi	r18, 0x31	; 49
    2928:	e2 2e       	mov	r14, r18
    292a:	28 e3       	ldi	r18, 0x38	; 56
    292c:	f2 2e       	mov	r15, r18
    292e:	35 e3       	ldi	r19, 0x35	; 53
    2930:	63 2e       	mov	r6, r19
    2932:	38 e3       	ldi	r19, 0x38	; 56
    2934:	73 2e       	mov	r7, r19
        //Inventory list
        } else if (data[0] == 'i') {
            if ((inventory[0] == 0)&&(inventory[1] == 0)){
                SetResponse(elements++, A_EMPTYHANDS, L_EMPTYHANDS, TEASER);
            } else {
                SetResponse(elements++, A_NOWCARRING, L_NOWCARRING, TEASER);
    2936:	42 e0       	ldi	r20, 0x02	; 2
    2938:	54 2e       	mov	r5, r20
    return 0;
}

//
void SetResponse(uint8_t number, uint16_t address, uint16_t length, uint8_t type){
    reactStr[0][number]=address;
    293a:	59 e5       	ldi	r21, 0x59	; 89
    293c:	c5 2e       	mov	r12, r21
    293e:	5a e7       	ldi	r21, 0x7A	; 122
    2940:	d5 2e       	mov	r13, r21
    reactStr[1][number]=length;
    2942:	62 e0       	ldi	r22, 0x02	; 2
    2944:	a6 2e       	mov	r10, r22
    2946:	b1 2c       	mov	r11, r1
    reactStr[2][number]=type;
    2948:	88 24       	eor	r8, r8
    294a:	83 94       	inc	r8
    294c:	91 2c       	mov	r9, r1
            } else {
                SetResponse(elements++, A_NOWCARRING, L_NOWCARRING, TEASER);
                //SetResponse(elements++, A_SPACE, L_SPACE, TEASER);
                
                for (uint8_t x=0; x<2; ++x) {
                    if (inventory[x]) {
    294e:	d7 01       	movw	r26, r14
    2950:	8d 91       	ld	r24, X+
    2952:	9d 91       	ld	r25, X+
    2954:	7d 01       	movw	r14, r26
    2956:	00 97       	sbiw	r24, 0x00	; 0
    2958:	d9 f1       	breq	.+118    	; 0x29d0 <ProcessInput+0x7a2>
                        PopulateObject(inventory[x], &actObj1);
    295a:	65 eb       	ldi	r22, 0xB5	; 181
    295c:	78 e3       	ldi	r23, 0x38	; 56
    295e:	0e 94 6e 0c 	call	0x18dc	; 0x18dc <PopulateObject>
                        SetResponse(elements++, actObj1.addrStr[NAME], actObj1.lenStr[NAME], GAME);
    2962:	80 91 cf 38 	lds	r24, 0x38CF	; 0x8038cf <actObj1.3989+0x1a>
    2966:	90 91 d0 38 	lds	r25, 0x38D0	; 0x8038d0 <actObj1.3989+0x1b>
    return 0;
}

//
void SetResponse(uint8_t number, uint16_t address, uint16_t length, uint8_t type){
    reactStr[0][number]=address;
    296a:	e5 2d       	mov	r30, r5
    296c:	f0 e0       	ldi	r31, 0x00	; 0
    296e:	df 01       	movw	r26, r30
    2970:	aa 0f       	add	r26, r26
    2972:	bb 1f       	adc	r27, r27
    2974:	ac 50       	subi	r26, 0x0C	; 12
    2976:	b7 4c       	sbci	r27, 0xC7	; 199
    2978:	20 91 c1 38 	lds	r18, 0x38C1	; 0x8038c1 <actObj1.3989+0xc>
    297c:	30 91 c2 38 	lds	r19, 0x38C2	; 0x8038c2 <actObj1.3989+0xd>
    2980:	2d 93       	st	X+, r18
    2982:	3c 93       	st	X, r19
    reactStr[1][number]=length;
    2984:	df 01       	movw	r26, r30
    2986:	aa 0f       	add	r26, r26
    2988:	bb 1f       	adc	r27, r27
    298a:	ac 5c       	subi	r26, 0xCC	; 204
    298c:	b6 4c       	sbci	r27, 0xC6	; 198
    298e:	8d 93       	st	X+, r24
    2990:	9c 93       	st	X, r25
    reactStr[2][number]=type;
    2992:	ee 0f       	add	r30, r30
    2994:	ff 1f       	adc	r31, r31
    2996:	ec 58       	subi	r30, 0x8C	; 140
    2998:	f6 4c       	sbci	r31, 0xC6	; 198
    299a:	10 82       	st	Z, r1
    299c:	11 82       	std	Z+1, r1	; 0x01
    return 0;
}

//
void SetResponse(uint8_t number, uint16_t address, uint16_t length, uint8_t type){
    reactStr[0][number]=address;
    299e:	e1 e0       	ldi	r30, 0x01	; 1
    29a0:	e5 0d       	add	r30, r5
    29a2:	f0 e0       	ldi	r31, 0x00	; 0
    29a4:	53 94       	inc	r5
    29a6:	53 94       	inc	r5
    29a8:	df 01       	movw	r26, r30
    29aa:	aa 0f       	add	r26, r26
    29ac:	bb 1f       	adc	r27, r27
    29ae:	ac 50       	subi	r26, 0x0C	; 12
    29b0:	b7 4c       	sbci	r27, 0xC7	; 199
    29b2:	cd 92       	st	X+, r12
    29b4:	dc 92       	st	X, r13
    reactStr[1][number]=length;
    29b6:	df 01       	movw	r26, r30
    29b8:	aa 0f       	add	r26, r26
    29ba:	bb 1f       	adc	r27, r27
    29bc:	ac 5c       	subi	r26, 0xCC	; 204
    29be:	b6 4c       	sbci	r27, 0xC6	; 198
    29c0:	ad 92       	st	X+, r10
    29c2:	bc 92       	st	X, r11
    reactStr[2][number]=type;
    29c4:	ee 0f       	add	r30, r30
    29c6:	ff 1f       	adc	r31, r31
    29c8:	ec 58       	subi	r30, 0x8C	; 140
    29ca:	f6 4c       	sbci	r31, 0xC6	; 198
    29cc:	80 82       	st	Z, r8
    29ce:	91 82       	std	Z+1, r9	; 0x01
                SetResponse(elements++, A_EMPTYHANDS, L_EMPTYHANDS, TEASER);
            } else {
                SetResponse(elements++, A_NOWCARRING, L_NOWCARRING, TEASER);
                //SetResponse(elements++, A_SPACE, L_SPACE, TEASER);
                
                for (uint8_t x=0; x<2; ++x) {
    29d0:	6e 14       	cp	r6, r14
    29d2:	7f 04       	cpc	r7, r15
    29d4:	09 f0       	breq	.+2      	; 0x29d8 <ProcessInput+0x7aa>
    29d6:	bb cf       	rjmp	.-138    	; 0x294e <ProcessInput+0x720>
                        SetResponse(elements++, actObj1.addrStr[NAME], actObj1.lenStr[NAME], GAME);
                        SetResponse(elements++, A_COMMA, L_COMMA, TEASER);
                        //SetResponse(elements++, A_SPACE, L_SPACE, TEASER);
                    }
                }
                elements -= 1;
    29d8:	77 24       	eor	r7, r7
    29da:	7a 94       	dec	r7
    29dc:	75 0c       	add	r7, r5
    29de:	07 c4       	rjmp	.+2062   	; 0x31ee <ProcessInput+0xfc0>
            }            
        
        //Talk, use, give, read
        } else if ((data[0] == 't')||(data[0] == 'u')||(data[0] == 'g')||(data[0] == 'r')) {
    29e0:	9c e8       	ldi	r25, 0x8C	; 140
    29e2:	98 0f       	add	r25, r24
    29e4:	92 30       	cpi	r25, 0x02	; 2
    29e6:	28 f0       	brcs	.+10     	; 0x29f2 <ProcessInput+0x7c4>
    29e8:	87 36       	cpi	r24, 0x67	; 103
    29ea:	19 f0       	breq	.+6      	; 0x29f2 <ProcessInput+0x7c4>
    29ec:	82 37       	cpi	r24, 0x72	; 114
    29ee:	09 f0       	breq	.+2      	; 0x29f2 <ProcessInput+0x7c4>
    29f0:	d7 c2       	rjmp	.+1454   	; 0x2fa0 <ProcessInput+0xd72>
            if ((inputLen<2)||(inputLen>3)) {
    29f2:	8e ef       	ldi	r24, 0xFE	; 254
    29f4:	8f 0d       	add	r24, r15
    29f6:	82 30       	cpi	r24, 0x02	; 2
    29f8:	08 f0       	brcs	.+2      	; 0x29fc <ProcessInput+0x7ce>
    29fa:	49 cc       	rjmp	.-1902   	; 0x228e <ProcessInput+0x60>
                SetResponse(elements++, A_NOTPOSSIBLE, L_NOTPOSSIBLE, TEASER);                
            
            //Check for visible person or object first
            } else {
                route[currDepth+1] = FindChild(route[currDepth], data[inputLen-1], 0);
    29fc:	e0 91 26 38 	lds	r30, 0x3826	; 0x803826 <currDepth>
    2a00:	ce 2e       	mov	r12, r30
    2a02:	d1 2c       	mov	r13, r1
    2a04:	d8 01       	movw	r26, r16
    2a06:	af 0d       	add	r26, r15
    2a08:	b1 1d       	adc	r27, r1
    2a0a:	11 97       	sbiw	r26, 0x01	; 1
    2a0c:	f6 01       	movw	r30, r12
    2a0e:	ee 0f       	add	r30, r30
    2a10:	ff 1f       	adc	r31, r31
    2a12:	ec 54       	subi	r30, 0x4C	; 76
    2a14:	f6 4c       	sbci	r31, 0xC6	; 198
    2a16:	40 e0       	ldi	r20, 0x00	; 0
    2a18:	50 e0       	ldi	r21, 0x00	; 0
    2a1a:	6c 91       	ld	r22, X
    2a1c:	80 81       	ld	r24, Z
    2a1e:	91 81       	ldd	r25, Z+1	; 0x01
    2a20:	28 d8       	rcall	.-4016   	; 0x1a72 <FindChild>
    2a22:	f6 01       	movw	r30, r12
    2a24:	ee 0f       	add	r30, r30
    2a26:	ff 1f       	adc	r31, r31
    2a28:	ea 54       	subi	r30, 0x4A	; 74
    2a2a:	f6 4c       	sbci	r31, 0xC6	; 198
    2a2c:	80 83       	st	Z, r24
    2a2e:	91 83       	std	Z+1, r25	; 0x01
                if (route[currDepth+1]) {
    2a30:	e0 91 26 38 	lds	r30, 0x3826	; 0x803826 <currDepth>
    2a34:	f0 e0       	ldi	r31, 0x00	; 0
    2a36:	ee 0f       	add	r30, r30
    2a38:	ff 1f       	adc	r31, r31
    2a3a:	ea 54       	subi	r30, 0x4A	; 74
    2a3c:	f6 4c       	sbci	r31, 0xC6	; 198
    2a3e:	80 81       	ld	r24, Z
    2a40:	91 81       	ldd	r25, Z+1	; 0x01
    2a42:	00 97       	sbiw	r24, 0x00	; 0
    2a44:	09 f4       	brne	.+2      	; 0x2a48 <ProcessInput+0x81a>
    2a46:	9a c2       	rjmp	.+1332   	; 0x2f7c <ProcessInput+0xd4e>
                    
                    //Give item to person / use item on object 
                    if ((inputLen == 3)&&((data[0] == 'u')||(data[0] == 'g'))) {
    2a48:	b3 e0       	ldi	r27, 0x03	; 3
    2a4a:	fb 12       	cpse	r15, r27
    2a4c:	78 c1       	rjmp	.+752    	; 0x2d3e <ProcessInput+0xb10>
    2a4e:	f8 01       	movw	r30, r16
    2a50:	20 81       	ld	r18, Z
    2a52:	25 37       	cpi	r18, 0x75	; 117
    2a54:	19 f0       	breq	.+6      	; 0x2a5c <ProcessInput+0x82e>
    2a56:	27 36       	cpi	r18, 0x67	; 103
    2a58:	09 f0       	breq	.+2      	; 0x2a5c <ProcessInput+0x82e>
    2a5a:	71 c1       	rjmp	.+738    	; 0x2d3e <ProcessInput+0xb10>
    2a5c:	61 2c       	mov	r6, r1
    2a5e:	77 24       	eor	r7, r7
    2a60:	73 94       	inc	r7
    return 0;
}

//
void SetResponse(uint8_t number, uint16_t address, uint16_t length, uint8_t type){
    reactStr[0][number]=address;
    2a62:	54 e6       	ldi	r21, 0x64	; 100
    2a64:	c5 2e       	mov	r12, r21
    2a66:	59 e7       	ldi	r21, 0x79	; 121
    2a68:	d5 2e       	mov	r13, r21
    reactStr[1][number]=length;
    2a6a:	61 e2       	ldi	r22, 0x21	; 33
    2a6c:	a6 2e       	mov	r10, r22
    2a6e:	b1 2c       	mov	r11, r1
    reactStr[2][number]=type;
    2a70:	88 24       	eor	r8, r8
    2a72:	83 94       	inc	r8
    2a74:	91 2c       	mov	r9, r1
                if (route[currDepth+1]) {
                    
                    //Give item to person / use item on object 
                    if ((inputLen == 3)&&((data[0] == 'u')||(data[0] == 'g'))) {
                        for (uint8_t x=0; x<2; x++) {
                            if (inventory[x]) { 
    2a76:	e6 2c       	mov	r14, r6
    2a78:	f1 2c       	mov	r15, r1
    2a7a:	c7 01       	movw	r24, r14
    2a7c:	88 0f       	add	r24, r24
    2a7e:	99 1f       	adc	r25, r25
    2a80:	9c 01       	movw	r18, r24
    2a82:	2f 5c       	subi	r18, 0xCF	; 207
    2a84:	37 4c       	sbci	r19, 0xC7	; 199
    2a86:	79 01       	movw	r14, r18
    2a88:	d9 01       	movw	r26, r18
    2a8a:	8d 91       	ld	r24, X+
    2a8c:	9c 91       	ld	r25, X
    2a8e:	00 97       	sbiw	r24, 0x00	; 0
    2a90:	81 f0       	breq	.+32     	; 0x2ab2 <ProcessInput+0x884>
                                if (CheckLetter(inventory[x], data[1])) {
    2a92:	f8 01       	movw	r30, r16
    2a94:	61 81       	ldd	r22, Z+1	; 0x01
    2a96:	0e 94 e5 0c 	call	0x19ca	; 0x19ca <CheckLetter>
    2a9a:	88 23       	and	r24, r24
    2a9c:	51 f0       	breq	.+20     	; 0x2ab2 <ProcessInput+0x884>
                                    PopulateObject(inventory[x], &actObj2);
    2a9e:	6a e8       	ldi	r22, 0x8A	; 138
    2aa0:	78 e3       	ldi	r23, 0x38	; 56
    2aa2:	d7 01       	movw	r26, r14
    2aa4:	8d 91       	ld	r24, X+
    2aa6:	9c 91       	ld	r25, X
    2aa8:	0e 94 6e 0c 	call	0x18dc	; 0x18dc <PopulateObject>
                                    x = 2;
    2aac:	32 e0       	ldi	r19, 0x02	; 2
    2aae:	63 2e       	mov	r6, r19
    2ab0:	1e c0       	rjmp	.+60     	; 0x2aee <ProcessInput+0x8c0>
                                }
                            }
                            if (x == 1) { 
    2ab2:	b1 e0       	ldi	r27, 0x01	; 1
    2ab4:	6b 12       	cpse	r6, r27
    2ab6:	1a c0       	rjmp	.+52     	; 0x2aec <ProcessInput+0x8be>
    return 0;
}

//
void SetResponse(uint8_t number, uint16_t address, uint16_t length, uint8_t type){
    reactStr[0][number]=address;
    2ab8:	e7 2d       	mov	r30, r7
    2aba:	f0 e0       	ldi	r31, 0x00	; 0
    2abc:	df 01       	movw	r26, r30
    2abe:	aa 0f       	add	r26, r26
    2ac0:	bb 1f       	adc	r27, r27
    2ac2:	ac 50       	subi	r26, 0x0C	; 12
    2ac4:	b7 4c       	sbci	r27, 0xC7	; 199
    2ac6:	cd 92       	st	X+, r12
    2ac8:	dc 92       	st	X, r13
    reactStr[1][number]=length;
    2aca:	df 01       	movw	r26, r30
    2acc:	aa 0f       	add	r26, r26
    2ace:	bb 1f       	adc	r27, r27
    2ad0:	ac 5c       	subi	r26, 0xCC	; 204
    2ad2:	b6 4c       	sbci	r27, 0xC6	; 198
    2ad4:	ad 92       	st	X+, r10
    2ad6:	bc 92       	st	X, r11
    reactStr[2][number]=type;
    2ad8:	ee 0f       	add	r30, r30
    2ada:	ff 1f       	adc	r31, r31
    2adc:	ec 58       	subi	r30, 0x8C	; 140
    2ade:	f6 4c       	sbci	r31, 0xC6	; 198
    2ae0:	80 82       	st	Z, r8
    2ae2:	91 82       	std	Z+1, r9	; 0x01
                                    x = 2;
                                }
                            }
                            if (x == 1) { 
                                SetResponse(elements++, A_NOTCARRYING, L_NOTCARRYING, TEASER);
                                data[0] = 0;
    2ae4:	f8 01       	movw	r30, r16
    2ae6:	10 82       	st	Z, r1
                                    PopulateObject(inventory[x], &actObj2);
                                    x = 2;
                                }
                            }
                            if (x == 1) { 
                                SetResponse(elements++, A_NOTCARRYING, L_NOTCARRYING, TEASER);
    2ae8:	73 94       	inc	r7
    2aea:	01 c0       	rjmp	.+2      	; 0x2aee <ProcessInput+0x8c0>
    2aec:	61 2c       	mov	r6, r1
                route[currDepth+1] = FindChild(route[currDepth], data[inputLen-1], 0);
                if (route[currDepth+1]) {
                    
                    //Give item to person / use item on object 
                    if ((inputLen == 3)&&((data[0] == 'u')||(data[0] == 'g'))) {
                        for (uint8_t x=0; x<2; x++) {
    2aee:	63 94       	inc	r6
    2af0:	f1 e0       	ldi	r31, 0x01	; 1
    2af2:	6f 16       	cp	r6, r31
    2af4:	09 f4       	brne	.+2      	; 0x2af8 <ProcessInput+0x8ca>
    2af6:	bf cf       	rjmp	.-130    	; 0x2a76 <ProcessInput+0x848>
                                data[0] = 0;
                            }
                        }

                        //Both the item and person/object are found, check if action is legit
                        if (data[0]){
    2af8:	d8 01       	movw	r26, r16
    2afa:	8c 91       	ld	r24, X
    2afc:	88 23       	and	r24, r24
    2afe:	09 f4       	brne	.+2      	; 0x2b02 <ProcessInput+0x8d4>
    2b00:	76 c3       	rjmp	.+1772   	; 0x31ee <ProcessInput+0xfc0>
                            PopulateObject(route[currDepth+1], &actObj1);
    2b02:	e0 91 26 38 	lds	r30, 0x3826	; 0x803826 <currDepth>
    2b06:	f0 e0       	ldi	r31, 0x00	; 0
    2b08:	ee 0f       	add	r30, r30
    2b0a:	ff 1f       	adc	r31, r31
    2b0c:	ea 54       	subi	r30, 0x4A	; 74
    2b0e:	f6 4c       	sbci	r31, 0xC6	; 198
    2b10:	65 eb       	ldi	r22, 0xB5	; 181
    2b12:	78 e3       	ldi	r23, 0x38	; 56
    2b14:	80 81       	ld	r24, Z
    2b16:	91 81       	ldd	r25, Z+1	; 0x01
    2b18:	0e 94 6e 0c 	call	0x18dc	; 0x18dc <PopulateObject>

                            //Special game
                            if (actObj1.lenStr[ACTION_STR1] == 1) {
    2b1c:	e0 90 d3 38 	lds	r14, 0x38D3	; 0x8038d3 <actObj1.3989+0x1e>
    2b20:	f0 90 d4 38 	lds	r15, 0x38D4	; 0x8038d4 <actObj1.3989+0x1f>
    2b24:	b1 e0       	ldi	r27, 0x01	; 1
    2b26:	eb 16       	cp	r14, r27
    2b28:	f1 04       	cpc	r15, r1
    2b2a:	09 f0       	breq	.+2      	; 0x2b2e <ProcessInput+0x900>
    2b2c:	9a c0       	rjmp	.+308    	; 0x2c62 <ProcessInput+0xa34>
                                ExtEERead(actObj1.addrStr[ACTION_STR1], 1, GAME, &data[2]);
    2b2e:	98 01       	movw	r18, r16
    2b30:	2e 5f       	subi	r18, 0xFE	; 254
    2b32:	3f 4f       	sbci	r19, 0xFF	; 255
    2b34:	40 e0       	ldi	r20, 0x00	; 0
    2b36:	61 e0       	ldi	r22, 0x01	; 1
    2b38:	80 91 c5 38 	lds	r24, 0x38C5	; 0x8038c5 <actObj1.3989+0x10>
    2b3c:	90 91 c6 38 	lds	r25, 0x38C6	; 0x8038c6 <actObj1.3989+0x11>
    2b40:	0e 94 63 0b 	call	0x16c6	; 0x16c6 <ExtEERead>
                                if (data[2] == '1') {
    2b44:	f8 01       	movw	r30, r16
    2b46:	42 81       	ldd	r20, Z+2	; 0x02
    2b48:	21 e0       	ldi	r18, 0x01	; 1
    2b4a:	27 0d       	add	r18, r7
    2b4c:	87 2d       	mov	r24, r7
    2b4e:	90 e0       	ldi	r25, 0x00	; 0
    2b50:	41 33       	cpi	r20, 0x31	; 49
    2b52:	09 f0       	breq	.+2      	; 0x2b56 <ProcessInput+0x928>
    2b54:	6b c0       	rjmp	.+214    	; 0x2c2c <ProcessInput+0x9fe>
                                    uint8_t item = actObj2.byteField[ITEM_NR];
    2b56:	30 91 95 38 	lds	r19, 0x3895	; 0x803895 <actObj2.3990+0xb>
                                    if ((item < 31)||(item > 34)) {
    2b5a:	51 ee       	ldi	r21, 0xE1	; 225
    2b5c:	53 0f       	add	r21, r19
    return 0;
}

//
void SetResponse(uint8_t number, uint16_t address, uint16_t length, uint8_t type){
    reactStr[0][number]=address;
    2b5e:	fc 01       	movw	r30, r24
    2b60:	ee 0f       	add	r30, r30
    2b62:	ff 1f       	adc	r31, r31
    2b64:	ec 50       	subi	r30, 0x0C	; 12
    2b66:	f7 4c       	sbci	r31, 0xC7	; 199
                            //Special game
                            if (actObj1.lenStr[ACTION_STR1] == 1) {
                                ExtEERead(actObj1.addrStr[ACTION_STR1], 1, GAME, &data[2]);
                                if (data[2] == '1') {
                                    uint8_t item = actObj2.byteField[ITEM_NR];
                                    if ((item < 31)||(item > 34)) {
    2b68:	54 30       	cpi	r21, 0x04	; 4
    2b6a:	60 f0       	brcs	.+24     	; 0x2b84 <ProcessInput+0x956>
    return 0;
}

//
void SetResponse(uint8_t number, uint16_t address, uint16_t length, uint8_t type){
    reactStr[0][number]=address;
    2b6c:	44 e0       	ldi	r20, 0x04	; 4
    2b6e:	59 e7       	ldi	r21, 0x79	; 121
    2b70:	40 83       	st	Z, r20
    2b72:	51 83       	std	Z+1, r21	; 0x01
    reactStr[1][number]=length;
    2b74:	fc 01       	movw	r30, r24
    2b76:	ee 0f       	add	r30, r30
    2b78:	ff 1f       	adc	r31, r31
    2b7a:	ec 5c       	subi	r30, 0xCC	; 204
    2b7c:	f6 4c       	sbci	r31, 0xC6	; 198
    2b7e:	4a e1       	ldi	r20, 0x1A	; 26
    2b80:	50 e0       	ldi	r21, 0x00	; 0
    2b82:	64 c0       	rjmp	.+200    	; 0x2c4c <ProcessInput+0xa1e>
    return 0;
}

//
void SetResponse(uint8_t number, uint16_t address, uint16_t length, uint8_t type){
    reactStr[0][number]=address;
    2b84:	6e e8       	ldi	r22, 0x8E	; 142
    2b86:	75 e7       	ldi	r23, 0x75	; 117
    2b88:	60 83       	st	Z, r22
    2b8a:	71 83       	std	Z+1, r23	; 0x01
    reactStr[1][number]=length;
    2b8c:	fc 01       	movw	r30, r24
    2b8e:	ee 0f       	add	r30, r30
    2b90:	ff 1f       	adc	r31, r31
    2b92:	ec 5c       	subi	r30, 0xCC	; 204
    2b94:	f6 4c       	sbci	r31, 0xC6	; 198
    2b96:	62 eb       	ldi	r22, 0xB2	; 178
    2b98:	70 e0       	ldi	r23, 0x00	; 0
    2b9a:	60 83       	st	Z, r22
    2b9c:	71 83       	std	Z+1, r23	; 0x01
    reactStr[2][number]=type;
    2b9e:	88 0f       	add	r24, r24
    2ba0:	99 1f       	adc	r25, r25
    2ba2:	fc 01       	movw	r30, r24
    2ba4:	ec 58       	subi	r30, 0x8C	; 140
    2ba6:	f6 4c       	sbci	r31, 0xC6	; 198
    2ba8:	e0 82       	st	Z, r14
    2baa:	f1 82       	std	Z+1, r15	; 0x01
    return 0;
}

//
void SetResponse(uint8_t number, uint16_t address, uint16_t length, uint8_t type){
    reactStr[0][number]=address;
    2bac:	82 2f       	mov	r24, r18
    2bae:	90 e0       	ldi	r25, 0x00	; 0
    2bb0:	fc 01       	movw	r30, r24
    2bb2:	ee 0f       	add	r30, r30
    2bb4:	ff 1f       	adc	r31, r31
    2bb6:	ec 50       	subi	r30, 0x0C	; 12
    2bb8:	f7 4c       	sbci	r31, 0xC7	; 199
    2bba:	6b e5       	ldi	r22, 0x5B	; 91
    2bbc:	7a e7       	ldi	r23, 0x7A	; 122
    2bbe:	60 83       	st	Z, r22
    2bc0:	71 83       	std	Z+1, r23	; 0x01
    reactStr[1][number]=length;
    2bc2:	fc 01       	movw	r30, r24
    2bc4:	ee 0f       	add	r30, r30
    2bc6:	ff 1f       	adc	r31, r31
    2bc8:	ec 5c       	subi	r30, 0xCC	; 204
    2bca:	f6 4c       	sbci	r31, 0xC6	; 198
    2bcc:	62 e0       	ldi	r22, 0x02	; 2
    2bce:	70 e0       	ldi	r23, 0x00	; 0
    2bd0:	60 83       	st	Z, r22
    2bd2:	71 83       	std	Z+1, r23	; 0x01
    reactStr[2][number]=type;
    2bd4:	88 0f       	add	r24, r24
    2bd6:	99 1f       	adc	r25, r25
    2bd8:	fc 01       	movw	r30, r24
    2bda:	ec 58       	subi	r30, 0x8C	; 140
    2bdc:	f6 4c       	sbci	r31, 0xC6	; 198
    2bde:	e0 82       	st	Z, r14
    2be0:	f1 82       	std	Z+1, r15	; 0x01
    return 0;
}

//
void SetResponse(uint8_t number, uint16_t address, uint16_t length, uint8_t type){
    reactStr[0][number]=address;
    2be2:	82 e0       	ldi	r24, 0x02	; 2
    2be4:	87 0d       	add	r24, r7
    2be6:	90 e0       	ldi	r25, 0x00	; 0
    2be8:	f3 e0       	ldi	r31, 0x03	; 3
    2bea:	7f 0e       	add	r7, r31
    2bec:	fc 01       	movw	r30, r24
    2bee:	ee 0f       	add	r30, r30
    2bf0:	ff 1f       	adc	r31, r31
    2bf2:	ec 50       	subi	r30, 0x0C	; 12
    2bf4:	f7 4c       	sbci	r31, 0xC7	; 199
    2bf6:	60 eb       	ldi	r22, 0xB0	; 176
    2bf8:	78 e7       	ldi	r23, 0x78	; 120
    2bfa:	60 83       	st	Z, r22
    2bfc:	71 83       	std	Z+1, r23	; 0x01
    reactStr[1][number]=length;
    2bfe:	fc 01       	movw	r30, r24
    2c00:	ee 0f       	add	r30, r30
    2c02:	ff 1f       	adc	r31, r31
    2c04:	ec 5c       	subi	r30, 0xCC	; 204
    2c06:	f6 4c       	sbci	r31, 0xC6	; 198
    2c08:	62 e1       	ldi	r22, 0x12	; 18
    2c0a:	70 e0       	ldi	r23, 0x00	; 0
    2c0c:	60 83       	st	Z, r22
    2c0e:	71 83       	std	Z+1, r23	; 0x01
    reactStr[2][number]=type;
    2c10:	88 0f       	add	r24, r24
    2c12:	99 1f       	adc	r25, r25
    2c14:	fc 01       	movw	r30, r24
    2c16:	ec 58       	subi	r30, 0x8C	; 140
    2c18:	f6 4c       	sbci	r31, 0xC6	; 198
    2c1a:	e0 82       	st	Z, r14
    2c1c:	f1 82       	std	Z+1, r15	; 0x01
                                        SetResponse(elements++, A_CANTUSE, L_CANTUSE, TEASER);
                                    } else {
                                        SetResponse(elements++, A_PRIEST, L_PRIEST, TEASER);
                                        SetResponse(elements++, A_LF, 2, TEASER);
                                        SetResponse(elements++, A_RESPONSE, L_RESPONSE, TEASER);
                                        specialInput[0] = '1';
    2c1e:	40 93 e3 38 	sts	0x38E3, r20	; 0x8038e3 <specialInput>
                                        specialInput[1] = item;
    2c22:	30 93 e4 38 	sts	0x38E4, r19	; 0x8038e4 <specialInput+0x1>
                                        specialInput[2] = 0;
    2c26:	10 92 e5 38 	sts	0x38E5, r1	; 0x8038e5 <specialInput+0x2>
    2c2a:	e1 c2       	rjmp	.+1474   	; 0x31ee <ProcessInput+0xfc0>
    return 0;
}

//
void SetResponse(uint8_t number, uint16_t address, uint16_t length, uint8_t type){
    reactStr[0][number]=address;
    2c2c:	fc 01       	movw	r30, r24
    2c2e:	ee 0f       	add	r30, r30
    2c30:	ff 1f       	adc	r31, r31
    2c32:	ec 50       	subi	r30, 0x0C	; 12
    2c34:	f7 4c       	sbci	r31, 0xC7	; 199
    2c36:	40 e4       	ldi	r20, 0x40	; 64
    2c38:	56 e7       	ldi	r21, 0x76	; 118
    2c3a:	40 83       	st	Z, r20
    2c3c:	51 83       	std	Z+1, r21	; 0x01
    reactStr[1][number]=length;
    2c3e:	fc 01       	movw	r30, r24
    2c40:	ee 0f       	add	r30, r30
    2c42:	ff 1f       	adc	r31, r31
    2c44:	ec 5c       	subi	r30, 0xCC	; 204
    2c46:	f6 4c       	sbci	r31, 0xC6	; 198
    2c48:	42 e4       	ldi	r20, 0x42	; 66
    2c4a:	50 e0       	ldi	r21, 0x00	; 0
    2c4c:	40 83       	st	Z, r20
    2c4e:	51 83       	std	Z+1, r21	; 0x01
    reactStr[2][number]=type;
    2c50:	88 0f       	add	r24, r24
    2c52:	99 1f       	adc	r25, r25
    2c54:	fc 01       	movw	r30, r24
    2c56:	ec 58       	subi	r30, 0x8C	; 140
    2c58:	f6 4c       	sbci	r31, 0xC6	; 198
    2c5a:	e0 82       	st	Z, r14
    2c5c:	f1 82       	std	Z+1, r15	; 0x01
                                        specialInput[2] = 0;
                                    }

                                //There should not be another special
                                } else {
                                    SetResponse(elements++, A_ERROR, L_ERROR, TEASER);
    2c5e:	72 2e       	mov	r7, r18
    2c60:	c6 c2       	rjmp	.+1420   	; 0x31ee <ProcessInput+0xfc0>
                                }

                            //Normal "use ... on ..." or "give ... to ..." action
                            } else if (actObj1.byteField[ACTION_ITEM] == actObj2.byteField[ITEM_NR]) {
    2c62:	90 91 be 38 	lds	r25, 0x38BE	; 0x8038be <actObj1.3989+0x9>
    2c66:	80 91 95 38 	lds	r24, 0x3895	; 0x803895 <actObj2.3990+0xb>
    2c6a:	98 13       	cpse	r25, r24
    2c6c:	2f c0       	rjmp	.+94     	; 0x2ccc <ProcessInput+0xa9e>
                                SetResponse(elements++, actObj1.addrStr[ACTION_MSG], actObj1.lenStr[ACTION_MSG], GAME);
    2c6e:	20 91 db 38 	lds	r18, 0x38DB	; 0x8038db <actObj1.3989+0x26>
    2c72:	30 91 dc 38 	lds	r19, 0x38DC	; 0x8038dc <actObj1.3989+0x27>
    2c76:	ff 24       	eor	r15, r15
    2c78:	f3 94       	inc	r15
    2c7a:	f7 0c       	add	r15, r7
    return 0;
}

//
void SetResponse(uint8_t number, uint16_t address, uint16_t length, uint8_t type){
    reactStr[0][number]=address;
    2c7c:	87 2d       	mov	r24, r7
    2c7e:	90 e0       	ldi	r25, 0x00	; 0
    2c80:	fc 01       	movw	r30, r24
    2c82:	ee 0f       	add	r30, r30
    2c84:	ff 1f       	adc	r31, r31
    2c86:	ec 50       	subi	r30, 0x0C	; 12
    2c88:	f7 4c       	sbci	r31, 0xC7	; 199
    2c8a:	40 91 cd 38 	lds	r20, 0x38CD	; 0x8038cd <actObj1.3989+0x18>
    2c8e:	50 91 ce 38 	lds	r21, 0x38CE	; 0x8038ce <actObj1.3989+0x19>
    2c92:	40 83       	st	Z, r20
    2c94:	51 83       	std	Z+1, r21	; 0x01
    reactStr[1][number]=length;
    2c96:	fc 01       	movw	r30, r24
    2c98:	ee 0f       	add	r30, r30
    2c9a:	ff 1f       	adc	r31, r31
    2c9c:	ec 5c       	subi	r30, 0xCC	; 204
    2c9e:	f6 4c       	sbci	r31, 0xC6	; 198
    2ca0:	20 83       	st	Z, r18
    2ca2:	31 83       	std	Z+1, r19	; 0x01
    reactStr[2][number]=type;
    2ca4:	88 0f       	add	r24, r24
    2ca6:	99 1f       	adc	r25, r25
    2ca8:	fc 01       	movw	r30, r24
    2caa:	ec 58       	subi	r30, 0x8C	; 140
    2cac:	f6 4c       	sbci	r31, 0xC6	; 198
    2cae:	10 82       	st	Z, r1
    2cb0:	11 82       	std	Z+1, r1	; 0x01
                                }

                            //Normal "use ... on ..." or "give ... to ..." action
                            } else if (actObj1.byteField[ACTION_ITEM] == actObj2.byteField[ITEM_NR]) {
                                SetResponse(elements++, actObj1.addrStr[ACTION_MSG], actObj1.lenStr[ACTION_MSG], GAME);
                                effect = actObj1.effect[2];
    2cb2:	80 91 df 38 	lds	r24, 0x38DF	; 0x8038df <actObj1.3989+0x2a>
    2cb6:	90 e0       	ldi	r25, 0x00	; 0
    2cb8:	80 93 2d 38 	sts	0x382D, r24	; 0x80382d <effect>
    2cbc:	90 93 2e 38 	sts	0x382E, r25	; 0x80382e <effect+0x1>
                                UpdateState(actObj1.byteField[ACTION_STATE]);
    2cc0:	80 91 bf 38 	lds	r24, 0x38BF	; 0x8038bf <actObj1.3989+0xa>
    2cc4:	0e 94 fe 08 	call	0x11fc	; 0x11fc <UpdateState>
                                    SetResponse(elements++, A_ERROR, L_ERROR, TEASER);
                                }

                            //Normal "use ... on ..." or "give ... to ..." action
                            } else if (actObj1.byteField[ACTION_ITEM] == actObj2.byteField[ITEM_NR]) {
                                SetResponse(elements++, actObj1.addrStr[ACTION_MSG], actObj1.lenStr[ACTION_MSG], GAME);
    2cc8:	7f 2c       	mov	r7, r15
    2cca:	91 c2       	rjmp	.+1314   	; 0x31ee <ProcessInput+0xfc0>
                                effect = actObj1.effect[2];
                                UpdateState(actObj1.byteField[ACTION_STATE]);
                                
                            } else {
                                if (data[0] == 'u') {
    2ccc:	d8 01       	movw	r26, r16
    2cce:	8c 91       	ld	r24, X
    2cd0:	85 37       	cpi	r24, 0x75	; 117
    2cd2:	99 f4       	brne	.+38     	; 0x2cfa <ProcessInput+0xacc>
    return 0;
}

//
void SetResponse(uint8_t number, uint16_t address, uint16_t length, uint8_t type){
    reactStr[0][number]=address;
    2cd4:	87 2d       	mov	r24, r7
    2cd6:	90 e0       	ldi	r25, 0x00	; 0
    2cd8:	fc 01       	movw	r30, r24
    2cda:	ee 0f       	add	r30, r30
    2cdc:	ff 1f       	adc	r31, r31
    2cde:	ec 50       	subi	r30, 0x0C	; 12
    2ce0:	f7 4c       	sbci	r31, 0xC7	; 199
    2ce2:	24 e0       	ldi	r18, 0x04	; 4
    2ce4:	39 e7       	ldi	r19, 0x79	; 121
    2ce6:	20 83       	st	Z, r18
    2ce8:	31 83       	std	Z+1, r19	; 0x01
    reactStr[1][number]=length;
    2cea:	fc 01       	movw	r30, r24
    2cec:	ee 0f       	add	r30, r30
    2cee:	ff 1f       	adc	r31, r31
    2cf0:	ec 5c       	subi	r30, 0xCC	; 204
    2cf2:	f6 4c       	sbci	r31, 0xC6	; 198
    2cf4:	2a e1       	ldi	r18, 0x1A	; 26
    2cf6:	30 e0       	ldi	r19, 0x00	; 0
    2cf8:	15 c0       	rjmp	.+42     	; 0x2d24 <ProcessInput+0xaf6>
                                UpdateState(actObj1.byteField[ACTION_STATE]);
                                
                            } else {
                                if (data[0] == 'u') {
                                    SetResponse(elements++, A_CANTUSE, L_CANTUSE, TEASER);
                                } else if (data[0] == 'g') {
    2cfa:	87 36       	cpi	r24, 0x67	; 103
    2cfc:	09 f0       	breq	.+2      	; 0x2d00 <ProcessInput+0xad2>
    2cfe:	77 c2       	rjmp	.+1262   	; 0x31ee <ProcessInput+0xfc0>
    return 0;
}

//
void SetResponse(uint8_t number, uint16_t address, uint16_t length, uint8_t type){
    reactStr[0][number]=address;
    2d00:	87 2d       	mov	r24, r7
    2d02:	90 e0       	ldi	r25, 0x00	; 0
    2d04:	fc 01       	movw	r30, r24
    2d06:	ee 0f       	add	r30, r30
    2d08:	ff 1f       	adc	r31, r31
    2d0a:	ec 50       	subi	r30, 0x0C	; 12
    2d0c:	f7 4c       	sbci	r31, 0xC7	; 199
    2d0e:	2d ed       	ldi	r18, 0xDD	; 221
    2d10:	36 e7       	ldi	r19, 0x76	; 118
    2d12:	20 83       	st	Z, r18
    2d14:	31 83       	std	Z+1, r19	; 0x01
    reactStr[1][number]=length;
    2d16:	fc 01       	movw	r30, r24
    2d18:	ee 0f       	add	r30, r30
    2d1a:	ff 1f       	adc	r31, r31
    2d1c:	ec 5c       	subi	r30, 0xCC	; 204
    2d1e:	f6 4c       	sbci	r31, 0xC6	; 198
    2d20:	28 e2       	ldi	r18, 0x28	; 40
    2d22:	30 e0       	ldi	r19, 0x00	; 0
    2d24:	20 83       	st	Z, r18
    2d26:	31 83       	std	Z+1, r19	; 0x01
    reactStr[2][number]=type;
    2d28:	88 0f       	add	r24, r24
    2d2a:	99 1f       	adc	r25, r25
    2d2c:	fc 01       	movw	r30, r24
    2d2e:	ec 58       	subi	r30, 0x8C	; 140
    2d30:	f6 4c       	sbci	r31, 0xC6	; 198
    2d32:	81 e0       	ldi	r24, 0x01	; 1
    2d34:	90 e0       	ldi	r25, 0x00	; 0
    2d36:	80 83       	st	Z, r24
    2d38:	91 83       	std	Z+1, r25	; 0x01
                                
                            } else {
                                if (data[0] == 'u') {
                                    SetResponse(elements++, A_CANTUSE, L_CANTUSE, TEASER);
                                } else if (data[0] == 'g') {
                                    SetResponse(elements++, A_CANTGIVE, L_CANTGIVE, TEASER);                                    
    2d3a:	73 94       	inc	r7
    2d3c:	58 c2       	rjmp	.+1200   	; 0x31ee <ProcessInput+0xfc0>
                            }
                        }
                    
                    //Talk to person, read or use object (without item)                          
                    } else {
                        PopulateObject(route[currDepth+1], &actObj1);
    2d3e:	65 eb       	ldi	r22, 0xB5	; 181
    2d40:	78 e3       	ldi	r23, 0x38	; 56
    2d42:	0e 94 6e 0c 	call	0x18dc	; 0x18dc <PopulateObject>
                        if ((data[0] == 't')&&((actObj1.byteField[ACTION_MASK]&TALK) == 0)) {
    2d46:	f8 01       	movw	r30, r16
    2d48:	80 81       	ld	r24, Z
    2d4a:	84 37       	cpi	r24, 0x74	; 116
    2d4c:	69 f5       	brne	.+90     	; 0x2da8 <ProcessInput+0xb7a>
    2d4e:	80 91 bd 38 	lds	r24, 0x38BD	; 0x8038bd <actObj1.3989+0x8>
    2d52:	83 fd       	sbrc	r24, 3
    2d54:	4a c0       	rjmp	.+148    	; 0x2dea <ProcessInput+0xbbc>
    return 0;
}

//
void SetResponse(uint8_t number, uint16_t address, uint16_t length, uint8_t type){
    reactStr[0][number]=address;
    2d56:	8e e1       	ldi	r24, 0x1E	; 30
    2d58:	99 e7       	ldi	r25, 0x79	; 121
    2d5a:	80 93 f6 38 	sts	0x38F6, r24	; 0x8038f6 <reactStr+0x2>
    2d5e:	90 93 f7 38 	sts	0x38F7, r25	; 0x8038f7 <reactStr+0x3>
    reactStr[1][number]=length;
    2d62:	8e e1       	ldi	r24, 0x1E	; 30
    2d64:	90 e0       	ldi	r25, 0x00	; 0
    2d66:	80 93 36 39 	sts	0x3936, r24	; 0x803936 <reactStr+0x42>
    2d6a:	90 93 37 39 	sts	0x3937, r25	; 0x803937 <reactStr+0x43>
    reactStr[2][number]=type;
    2d6e:	81 e0       	ldi	r24, 0x01	; 1
    2d70:	90 e0       	ldi	r25, 0x00	; 0
    2d72:	80 93 76 39 	sts	0x3976, r24	; 0x803976 <reactStr+0x82>
    2d76:	90 93 77 39 	sts	0x3977, r25	; 0x803977 <reactStr+0x83>
                    //Talk to person, read or use object (without item)                          
                    } else {
                        PopulateObject(route[currDepth+1], &actObj1);
                        if ((data[0] == 't')&&((actObj1.byteField[ACTION_MASK]&TALK) == 0)) {
                            SetResponse(elements++, A_WHYTALK, L_WHYTALK, TEASER);
                            SetResponse(elements++, actObj1.addrStr[NAME], actObj1.lenStr[NAME], GAME);
    2d7a:	80 91 cf 38 	lds	r24, 0x38CF	; 0x8038cf <actObj1.3989+0x1a>
    2d7e:	90 91 d0 38 	lds	r25, 0x38D0	; 0x8038d0 <actObj1.3989+0x1b>
    return 0;
}

//
void SetResponse(uint8_t number, uint16_t address, uint16_t length, uint8_t type){
    reactStr[0][number]=address;
    2d82:	20 91 c1 38 	lds	r18, 0x38C1	; 0x8038c1 <actObj1.3989+0xc>
    2d86:	30 91 c2 38 	lds	r19, 0x38C2	; 0x8038c2 <actObj1.3989+0xd>
    2d8a:	20 93 f8 38 	sts	0x38F8, r18	; 0x8038f8 <reactStr+0x4>
    2d8e:	30 93 f9 38 	sts	0x38F9, r19	; 0x8038f9 <reactStr+0x5>
    reactStr[1][number]=length;
    2d92:	80 93 38 39 	sts	0x3938, r24	; 0x803938 <reactStr+0x44>
    2d96:	90 93 39 39 	sts	0x3939, r25	; 0x803939 <reactStr+0x45>
    reactStr[2][number]=type;
    2d9a:	10 92 78 39 	sts	0x3978, r1	; 0x803978 <reactStr+0x84>
    2d9e:	10 92 79 39 	sts	0x3979, r1	; 0x803979 <reactStr+0x85>
                    //Talk to person, read or use object (without item)                          
                    } else {
                        PopulateObject(route[currDepth+1], &actObj1);
                        if ((data[0] == 't')&&((actObj1.byteField[ACTION_MASK]&TALK) == 0)) {
                            SetResponse(elements++, A_WHYTALK, L_WHYTALK, TEASER);
                            SetResponse(elements++, actObj1.addrStr[NAME], actObj1.lenStr[NAME], GAME);
    2da2:	a3 e0       	ldi	r26, 0x03	; 3
    2da4:	7a 2e       	mov	r7, r26
    2da6:	23 c2       	rjmp	.+1094   	; 0x31ee <ProcessInput+0xfc0>
                        } else if ((data[0] == 'u')&&((actObj1.byteField[ACTION_MASK]&USE) == 0)) {
    2da8:	85 37       	cpi	r24, 0x75	; 117
    2daa:	69 f4       	brne	.+26     	; 0x2dc6 <ProcessInput+0xb98>
    2dac:	80 91 bd 38 	lds	r24, 0x38BD	; 0x8038bd <actObj1.3989+0x8>
    2db0:	84 fd       	sbrc	r24, 4
    2db2:	1b c0       	rjmp	.+54     	; 0x2dea <ProcessInput+0xbbc>
    return 0;
}

//
void SetResponse(uint8_t number, uint16_t address, uint16_t length, uint8_t type){
    reactStr[0][number]=address;
    2db4:	84 e0       	ldi	r24, 0x04	; 4
    2db6:	99 e7       	ldi	r25, 0x79	; 121
    2db8:	80 93 f6 38 	sts	0x38F6, r24	; 0x8038f6 <reactStr+0x2>
    2dbc:	90 93 f7 38 	sts	0x38F7, r25	; 0x8038f7 <reactStr+0x3>
    reactStr[1][number]=length;
    2dc0:	8a e1       	ldi	r24, 0x1A	; 26
    2dc2:	90 e0       	ldi	r25, 0x00	; 0
    2dc4:	f9 ca       	rjmp	.-2574   	; 0x23b8 <ProcessInput+0x18a>
                        if ((data[0] == 't')&&((actObj1.byteField[ACTION_MASK]&TALK) == 0)) {
                            SetResponse(elements++, A_WHYTALK, L_WHYTALK, TEASER);
                            SetResponse(elements++, actObj1.addrStr[NAME], actObj1.lenStr[NAME], GAME);
                        } else if ((data[0] == 'u')&&((actObj1.byteField[ACTION_MASK]&USE) == 0)) {
                            SetResponse(elements++, A_CANTUSE, L_CANTUSE, TEASER);
                        } else if ((data[0] == 'r')&&((actObj1.byteField[ACTION_MASK]&READ) == 0)) {
    2dc6:	82 37       	cpi	r24, 0x72	; 114
    2dc8:	69 f4       	brne	.+26     	; 0x2de4 <ProcessInput+0xbb6>
    2dca:	80 91 bd 38 	lds	r24, 0x38BD	; 0x8038bd <actObj1.3989+0x8>
    2dce:	85 fd       	sbrc	r24, 5
    2dd0:	0c c0       	rjmp	.+24     	; 0x2dea <ProcessInput+0xbbc>
    return 0;
}

//
void SetResponse(uint8_t number, uint16_t address, uint16_t length, uint8_t type){
    reactStr[0][number]=address;
    2dd2:	89 ee       	ldi	r24, 0xE9	; 233
    2dd4:	98 e7       	ldi	r25, 0x78	; 120
    2dd6:	80 93 f6 38 	sts	0x38F6, r24	; 0x8038f6 <reactStr+0x2>
    2dda:	90 93 f7 38 	sts	0x38F7, r25	; 0x8038f7 <reactStr+0x3>
    reactStr[1][number]=length;
    2dde:	8b e1       	ldi	r24, 0x1B	; 27
    2de0:	90 e0       	ldi	r25, 0x00	; 0
    2de2:	ea ca       	rjmp	.-2604   	; 0x23b8 <ProcessInput+0x18a>
                            SetResponse(elements++, actObj1.addrStr[NAME], actObj1.lenStr[NAME], GAME);
                        } else if ((data[0] == 'u')&&((actObj1.byteField[ACTION_MASK]&USE) == 0)) {
                            SetResponse(elements++, A_CANTUSE, L_CANTUSE, TEASER);
                        } else if ((data[0] == 'r')&&((actObj1.byteField[ACTION_MASK]&READ) == 0)) {
                            SetResponse(elements++, A_CANTREAD, L_CANTREAD, TEASER);
                        } else if (data[0] == 'g'){ 
    2de4:	87 36       	cpi	r24, 0x67	; 103
    2de6:	09 f4       	brne	.+2      	; 0x2dea <ProcessInput+0xbbc>
    2de8:	52 ca       	rjmp	.-2908   	; 0x228e <ProcessInput+0x60>
                            SetResponse(elements++, A_NOTPOSSIBLE, L_NOTPOSSIBLE, TEASER);  
                        } else {

                            //Special game, not enough characters
                            if (actObj1.lenStr[ACTION_STR1] == 1) {
    2dea:	e0 90 d3 38 	lds	r14, 0x38D3	; 0x8038d3 <actObj1.3989+0x1e>
    2dee:	f0 90 d4 38 	lds	r15, 0x38D4	; 0x8038d4 <actObj1.3989+0x1f>
    2df2:	f1 e0       	ldi	r31, 0x01	; 1
    2df4:	ef 16       	cp	r14, r31
    2df6:	f1 04       	cpc	r15, r1
    2df8:	11 f5       	brne	.+68     	; 0x2e3e <ProcessInput+0xc10>
                                ExtEERead(actObj1.addrStr[ACTION_STR1], 1, GAME, &data[2]);
    2dfa:	98 01       	movw	r18, r16
    2dfc:	2e 5f       	subi	r18, 0xFE	; 254
    2dfe:	3f 4f       	sbci	r19, 0xFF	; 255
    2e00:	40 e0       	ldi	r20, 0x00	; 0
    2e02:	61 e0       	ldi	r22, 0x01	; 1
    2e04:	80 91 c5 38 	lds	r24, 0x38C5	; 0x8038c5 <actObj1.3989+0x10>
    2e08:	90 91 c6 38 	lds	r25, 0x38C6	; 0x8038c6 <actObj1.3989+0x11>
    2e0c:	0e 94 63 0b 	call	0x16c6	; 0x16c6 <ExtEERead>
                                if (data[2] == '1') {
    2e10:	d8 01       	movw	r26, r16
    2e12:	12 96       	adiw	r26, 0x02	; 2
    2e14:	8c 91       	ld	r24, X
    2e16:	81 33       	cpi	r24, 0x31	; 49
    2e18:	09 f0       	breq	.+2      	; 0x2e1c <ProcessInput+0xbee>
    2e1a:	8a cc       	rjmp	.-1772   	; 0x2730 <ProcessInput+0x502>
    return 0;
}

//
void SetResponse(uint8_t number, uint16_t address, uint16_t length, uint8_t type){
    reactStr[0][number]=address;
    2e1c:	83 e6       	ldi	r24, 0x63	; 99
    2e1e:	95 e7       	ldi	r25, 0x75	; 117
    2e20:	80 93 f6 38 	sts	0x38F6, r24	; 0x8038f6 <reactStr+0x2>
    2e24:	90 93 f7 38 	sts	0x38F7, r25	; 0x8038f7 <reactStr+0x3>
    reactStr[1][number]=length;
    2e28:	8b e2       	ldi	r24, 0x2B	; 43
    2e2a:	90 e0       	ldi	r25, 0x00	; 0
    2e2c:	80 93 36 39 	sts	0x3936, r24	; 0x803936 <reactStr+0x42>
    2e30:	90 93 37 39 	sts	0x3937, r25	; 0x803937 <reactStr+0x43>
    reactStr[2][number]=type;
    2e34:	e0 92 76 39 	sts	0x3976, r14	; 0x803976 <reactStr+0x82>
    2e38:	f0 92 77 39 	sts	0x3977, r15	; 0x803977 <reactStr+0x83>
    2e3c:	c7 ca       	rjmp	.-2674   	; 0x23cc <ProcessInput+0x19e>
                                if (data[2] == '1') {
                                    SetResponse(elements++, A_PLEASEOFFER, L_PLEASEOFFER, TEASER);
                                }

                            //General request
                            } else if (actObj1.lenStr[ACTION_STR1]) {
    2e3e:	e1 14       	cp	r14, r1
    2e40:	f1 04       	cpc	r15, r1
    2e42:	09 f4       	brne	.+2      	; 0x2e46 <ProcessInput+0xc18>
    2e44:	59 c0       	rjmp	.+178    	; 0x2ef8 <ProcessInput+0xcca>
    return 0;
}

//
void SetResponse(uint8_t number, uint16_t address, uint16_t length, uint8_t type){
    reactStr[0][number]=address;
    2e46:	80 91 c5 38 	lds	r24, 0x38C5	; 0x8038c5 <actObj1.3989+0x10>
    2e4a:	90 91 c6 38 	lds	r25, 0x38C6	; 0x8038c6 <actObj1.3989+0x11>
    2e4e:	80 93 f6 38 	sts	0x38F6, r24	; 0x8038f6 <reactStr+0x2>
    2e52:	90 93 f7 38 	sts	0x38F7, r25	; 0x8038f7 <reactStr+0x3>
    reactStr[1][number]=length;
    2e56:	e0 92 36 39 	sts	0x3936, r14	; 0x803936 <reactStr+0x42>
    2e5a:	f0 92 37 39 	sts	0x3937, r15	; 0x803937 <reactStr+0x43>
    reactStr[2][number]=type;
    2e5e:	10 92 76 39 	sts	0x3976, r1	; 0x803976 <reactStr+0x82>
    2e62:	10 92 77 39 	sts	0x3977, r1	; 0x803977 <reactStr+0x83>
    return 0;
}

//
void SetResponse(uint8_t number, uint16_t address, uint16_t length, uint8_t type){
    reactStr[0][number]=address;
    2e66:	8b e5       	ldi	r24, 0x5B	; 91
    2e68:	9a e7       	ldi	r25, 0x7A	; 122
    2e6a:	80 93 f8 38 	sts	0x38F8, r24	; 0x8038f8 <reactStr+0x4>
    2e6e:	90 93 f9 38 	sts	0x38F9, r25	; 0x8038f9 <reactStr+0x5>
    reactStr[1][number]=length;
    2e72:	82 e0       	ldi	r24, 0x02	; 2
    2e74:	90 e0       	ldi	r25, 0x00	; 0
    2e76:	80 93 38 39 	sts	0x3938, r24	; 0x803938 <reactStr+0x44>
    2e7a:	90 93 39 39 	sts	0x3939, r25	; 0x803939 <reactStr+0x45>
    reactStr[2][number]=type;
    2e7e:	81 e0       	ldi	r24, 0x01	; 1
    2e80:	90 e0       	ldi	r25, 0x00	; 0
    2e82:	80 93 78 39 	sts	0x3978, r24	; 0x803978 <reactStr+0x84>
    2e86:	90 93 79 39 	sts	0x3979, r25	; 0x803979 <reactStr+0x85>
    return 0;
}

//
void SetResponse(uint8_t number, uint16_t address, uint16_t length, uint8_t type){
    reactStr[0][number]=address;
    2e8a:	20 eb       	ldi	r18, 0xB0	; 176
    2e8c:	38 e7       	ldi	r19, 0x78	; 120
    2e8e:	20 93 fa 38 	sts	0x38FA, r18	; 0x8038fa <reactStr+0x6>
    2e92:	30 93 fb 38 	sts	0x38FB, r19	; 0x8038fb <reactStr+0x7>
    reactStr[1][number]=length;
    2e96:	22 e1       	ldi	r18, 0x12	; 18
    2e98:	30 e0       	ldi	r19, 0x00	; 0
    2e9a:	20 93 3a 39 	sts	0x393A, r18	; 0x80393a <reactStr+0x46>
    2e9e:	30 93 3b 39 	sts	0x393B, r19	; 0x80393b <reactStr+0x47>
    reactStr[2][number]=type;
    2ea2:	80 93 7a 39 	sts	0x397A, r24	; 0x80397a <reactStr+0x86>
    2ea6:	90 93 7b 39 	sts	0x397B, r25	; 0x80397b <reactStr+0x87>
                            //General request
                            } else if (actObj1.lenStr[ACTION_STR1]) {
                                SetResponse(elements++, actObj1.addrStr[ACTION_STR1], actObj1.lenStr[ACTION_STR1], GAME);
                                SetResponse(elements++, A_LF, 2, TEASER);
                                SetResponse(elements++, A_RESPONSE, L_RESPONSE, TEASER);
                                if (actObj1.lenStr[ACTION_STR2]>(INP_LENGTH-1)) actObj1.lenStr[ACTION_STR2] = (INP_LENGTH-1);
    2eaa:	80 91 d5 38 	lds	r24, 0x38D5	; 0x8038d5 <actObj1.3989+0x20>
    2eae:	90 91 d6 38 	lds	r25, 0x38D6	; 0x8038d6 <actObj1.3989+0x21>
    2eb2:	40 97       	sbiw	r24, 0x10	; 16
    2eb4:	30 f0       	brcs	.+12     	; 0x2ec2 <ProcessInput+0xc94>
    2eb6:	8f e0       	ldi	r24, 0x0F	; 15
    2eb8:	90 e0       	ldi	r25, 0x00	; 0
    2eba:	80 93 d5 38 	sts	0x38D5, r24	; 0x8038d5 <actObj1.3989+0x20>
    2ebe:	90 93 d6 38 	sts	0x38D6, r25	; 0x8038d6 <actObj1.3989+0x21>
                                ExtEERead(actObj1.addrStr[ACTION_STR2], actObj1.lenStr[ACTION_STR2], GAME, (uint8_t *)&specialInput[0]);
    2ec2:	23 ee       	ldi	r18, 0xE3	; 227
    2ec4:	38 e3       	ldi	r19, 0x38	; 56
    2ec6:	40 e0       	ldi	r20, 0x00	; 0
    2ec8:	60 91 d5 38 	lds	r22, 0x38D5	; 0x8038d5 <actObj1.3989+0x20>
    2ecc:	80 91 c7 38 	lds	r24, 0x38C7	; 0x8038c7 <actObj1.3989+0x12>
    2ed0:	90 91 c8 38 	lds	r25, 0x38C8	; 0x8038c8 <actObj1.3989+0x13>
    2ed4:	0e 94 63 0b 	call	0x16c6	; 0x16c6 <ExtEERead>
                                UnflipData(actObj1.lenStr[ACTION_STR2], (uint8_t *)&specialInput[0]);
    2ed8:	63 ee       	ldi	r22, 0xE3	; 227
    2eda:	78 e3       	ldi	r23, 0x38	; 56
    2edc:	80 91 d5 38 	lds	r24, 0x38D5	; 0x8038d5 <actObj1.3989+0x20>
    2ee0:	0e 94 56 0b 	call	0x16ac	; 0x16ac <UnflipData>
                                specialInput[actObj1.lenStr[ACTION_STR2]] = 0;
    2ee4:	e0 91 d5 38 	lds	r30, 0x38D5	; 0x8038d5 <actObj1.3989+0x20>
    2ee8:	f0 91 d6 38 	lds	r31, 0x38D6	; 0x8038d6 <actObj1.3989+0x21>
    2eec:	ed 51       	subi	r30, 0x1D	; 29
    2eee:	f7 4c       	sbci	r31, 0xC7	; 199
    2ef0:	10 82       	st	Z, r1

                            //General request
                            } else if (actObj1.lenStr[ACTION_STR1]) {
                                SetResponse(elements++, actObj1.addrStr[ACTION_STR1], actObj1.lenStr[ACTION_STR1], GAME);
                                SetResponse(elements++, A_LF, 2, TEASER);
                                SetResponse(elements++, A_RESPONSE, L_RESPONSE, TEASER);
    2ef2:	f4 e0       	ldi	r31, 0x04	; 4
    2ef4:	7f 2e       	mov	r7, r31
    2ef6:	7b c1       	rjmp	.+758    	; 0x31ee <ProcessInput+0xfc0>
                                ExtEERead(actObj1.addrStr[ACTION_STR2], actObj1.lenStr[ACTION_STR2], GAME, (uint8_t *)&specialInput[0]);
                                UnflipData(actObj1.lenStr[ACTION_STR2], (uint8_t *)&specialInput[0]);
                                specialInput[actObj1.lenStr[ACTION_STR2]] = 0;
                            
                            //Normal action    
                            } else if (CheckState(actObj1.byteField[ACTION_ACL])){
    2ef8:	80 91 bc 38 	lds	r24, 0x38BC	; 0x8038bc <actObj1.3989+0x7>
    2efc:	0e 94 08 09 	call	0x1210	; 0x1210 <CheckState>
    2f00:	88 23       	and	r24, r24
    2f02:	01 f1       	breq	.+64     	; 0x2f44 <ProcessInput+0xd16>
                                SetResponse(elements++, actObj1.addrStr[ACTION_MSG], actObj1.lenStr[ACTION_MSG], GAME);
    2f04:	80 91 db 38 	lds	r24, 0x38DB	; 0x8038db <actObj1.3989+0x26>
    2f08:	90 91 dc 38 	lds	r25, 0x38DC	; 0x8038dc <actObj1.3989+0x27>
    return 0;
}

//
void SetResponse(uint8_t number, uint16_t address, uint16_t length, uint8_t type){
    reactStr[0][number]=address;
    2f0c:	20 91 cd 38 	lds	r18, 0x38CD	; 0x8038cd <actObj1.3989+0x18>
    2f10:	30 91 ce 38 	lds	r19, 0x38CE	; 0x8038ce <actObj1.3989+0x19>
    2f14:	20 93 f6 38 	sts	0x38F6, r18	; 0x8038f6 <reactStr+0x2>
    2f18:	30 93 f7 38 	sts	0x38F7, r19	; 0x8038f7 <reactStr+0x3>
    reactStr[1][number]=length;
    2f1c:	80 93 36 39 	sts	0x3936, r24	; 0x803936 <reactStr+0x42>
    2f20:	90 93 37 39 	sts	0x3937, r25	; 0x803937 <reactStr+0x43>
    reactStr[2][number]=type;
    2f24:	10 92 76 39 	sts	0x3976, r1	; 0x803976 <reactStr+0x82>
    2f28:	10 92 77 39 	sts	0x3977, r1	; 0x803977 <reactStr+0x83>
                                specialInput[actObj1.lenStr[ACTION_STR2]] = 0;
                            
                            //Normal action    
                            } else if (CheckState(actObj1.byteField[ACTION_ACL])){
                                SetResponse(elements++, actObj1.addrStr[ACTION_MSG], actObj1.lenStr[ACTION_MSG], GAME);
                                effect = actObj1.effect[2];
    2f2c:	80 91 df 38 	lds	r24, 0x38DF	; 0x8038df <actObj1.3989+0x2a>
    2f30:	90 e0       	ldi	r25, 0x00	; 0
    2f32:	80 93 2d 38 	sts	0x382D, r24	; 0x80382d <effect>
    2f36:	90 93 2e 38 	sts	0x382E, r25	; 0x80382e <effect+0x1>
                                UpdateState(actObj1.byteField[ACTION_STATE]);
    2f3a:	80 91 bf 38 	lds	r24, 0x38BF	; 0x8038bf <actObj1.3989+0xa>
    2f3e:	0e 94 fe 08 	call	0x11fc	; 0x11fc <UpdateState>
    2f42:	44 ca       	rjmp	.-2936   	; 0x23cc <ProcessInput+0x19e>
                            } else {
                                SetResponse(elements++, actObj1.addrStr[ACTION_ACL_MSG], actObj1.lenStr[ACTION_ACL_MSG], GAME);
    2f44:	80 91 d9 38 	lds	r24, 0x38D9	; 0x8038d9 <actObj1.3989+0x24>
    2f48:	90 91 da 38 	lds	r25, 0x38DA	; 0x8038da <actObj1.3989+0x25>
    return 0;
}

//
void SetResponse(uint8_t number, uint16_t address, uint16_t length, uint8_t type){
    reactStr[0][number]=address;
    2f4c:	20 91 cb 38 	lds	r18, 0x38CB	; 0x8038cb <actObj1.3989+0x16>
    2f50:	30 91 cc 38 	lds	r19, 0x38CC	; 0x8038cc <actObj1.3989+0x17>
    2f54:	20 93 f6 38 	sts	0x38F6, r18	; 0x8038f6 <reactStr+0x2>
    2f58:	30 93 f7 38 	sts	0x38F7, r19	; 0x8038f7 <reactStr+0x3>
    reactStr[1][number]=length;
    2f5c:	80 93 36 39 	sts	0x3936, r24	; 0x803936 <reactStr+0x42>
    2f60:	90 93 37 39 	sts	0x3937, r25	; 0x803937 <reactStr+0x43>
    reactStr[2][number]=type;
    2f64:	10 92 76 39 	sts	0x3976, r1	; 0x803976 <reactStr+0x82>
    2f68:	10 92 77 39 	sts	0x3977, r1	; 0x803977 <reactStr+0x83>
                                SetResponse(elements++, actObj1.addrStr[ACTION_MSG], actObj1.lenStr[ACTION_MSG], GAME);
                                effect = actObj1.effect[2];
                                UpdateState(actObj1.byteField[ACTION_STATE]);
                            } else {
                                SetResponse(elements++, actObj1.addrStr[ACTION_ACL_MSG], actObj1.lenStr[ACTION_ACL_MSG], GAME);
                                effect = actObj1.effect[1];
    2f6c:	80 91 de 38 	lds	r24, 0x38DE	; 0x8038de <actObj1.3989+0x29>
    2f70:	90 e0       	ldi	r25, 0x00	; 0
    2f72:	80 93 2d 38 	sts	0x382D, r24	; 0x80382d <effect>
    2f76:	90 93 2e 38 	sts	0x382E, r25	; 0x80382e <effect+0x1>
    2f7a:	28 ca       	rjmp	.-2992   	; 0x23cc <ProcessInput+0x19e>
                        }
                    }

                //Person or object not found
                } else {
                    if ((data[0] == 't')||(data[0] == 'g')){
    2f7c:	f8 01       	movw	r30, r16
    2f7e:	80 81       	ld	r24, Z
    2f80:	84 37       	cpi	r24, 0x74	; 116
    2f82:	11 f0       	breq	.+4      	; 0x2f88 <ProcessInput+0xd5a>
    2f84:	87 36       	cpi	r24, 0x67	; 103
    2f86:	19 f4       	brne	.+6      	; 0x2f8e <ProcessInput+0xd60>
    return 0;
}

//
void SetResponse(uint8_t number, uint16_t address, uint16_t length, uint8_t type){
    reactStr[0][number]=address;
    2f88:	8c e3       	ldi	r24, 0x3C	; 60
    2f8a:	99 e7       	ldi	r25, 0x79	; 121
    2f8c:	02 c0       	rjmp	.+4      	; 0x2f92 <ProcessInput+0xd64>
    2f8e:	80 e5       	ldi	r24, 0x50	; 80
    2f90:	99 e7       	ldi	r25, 0x79	; 121
    2f92:	80 93 f6 38 	sts	0x38F6, r24	; 0x8038f6 <reactStr+0x2>
    2f96:	90 93 f7 38 	sts	0x38F7, r25	; 0x8038f7 <reactStr+0x3>
    reactStr[1][number]=length;
    2f9a:	84 e1       	ldi	r24, 0x14	; 20
    2f9c:	90 e0       	ldi	r25, 0x00	; 0
    2f9e:	0c ca       	rjmp	.-3048   	; 0x23b8 <ProcessInput+0x18a>
                    }
                }
            }
        
        //Special answer given
        } else if (data[0] == 'a'){
    2fa0:	81 36       	cpi	r24, 0x61	; 97
    2fa2:	09 f0       	breq	.+2      	; 0x2fa6 <ProcessInput+0xd78>
    2fa4:	c5 cb       	rjmp	.-2166   	; 0x2730 <ProcessInput+0x502>
            
            //Priest offerings
            if (specialPassed >= 2) {
    2fa6:	80 91 e2 38 	lds	r24, 0x38E2	; 0x8038e2 <specialPassed>
    2faa:	82 30       	cpi	r24, 0x02	; 2
    2fac:	08 f4       	brcc	.+2      	; 0x2fb0 <ProcessInput+0xd82>
    2fae:	b3 c0       	rjmp	.+358    	; 0x3116 <ProcessInput+0xee8>
                if (data[1] > 0) {
    2fb0:	d8 01       	movw	r26, r16
    2fb2:	11 96       	adiw	r26, 0x01	; 1
    2fb4:	2c 91       	ld	r18, X
    2fb6:	22 23       	and	r18, r18
    2fb8:	09 f4       	brne	.+2      	; 0x2fbc <ProcessInput+0xd8e>
    2fba:	a4 c0       	rjmp	.+328    	; 0x3104 <ProcessInput+0xed6>

                    uint8_t  digit[10] = {0, 0, 0, 0, 0, 0, 0, 0, 0, 0};
    2fbc:	fe 01       	movw	r30, r28
    2fbe:	31 96       	adiw	r30, 0x01	; 1
    2fc0:	7f 01       	movw	r14, r30
    2fc2:	8a e0       	ldi	r24, 0x0A	; 10
    2fc4:	df 01       	movw	r26, r30
    2fc6:	1d 92       	st	X+, r1
    2fc8:	8a 95       	dec	r24
    2fca:	e9 f7       	brne	.-6      	; 0x2fc6 <ProcessInput+0xd98>
                        answer = ((offering  & 2) << 19) + ((offering  & 1) << 8) + \
                        ((element   & 2) << 15) + ((element   & 1) << 4) + \
                        ((kneelings & 2) << 11) + ((kneelings & 1))
                        answer = answer << (3-person)
                    */
                    data[1]-='1';
    2fcc:	21 53       	subi	r18, 0x31	; 49
    2fce:	f8 01       	movw	r30, r16
    2fd0:	21 83       	std	Z+1, r18	; 0x01
                    data[2]-='1';
    2fd2:	32 81       	ldd	r19, Z+2	; 0x02
    2fd4:	31 53       	subi	r19, 0x31	; 49
    2fd6:	32 83       	std	Z+2, r19	; 0x02
                    if (data[3] == 'a') data[3] = 1;
    2fd8:	83 81       	ldd	r24, Z+3	; 0x03
    2fda:	81 36       	cpi	r24, 0x61	; 97
    2fdc:	11 f4       	brne	.+4      	; 0x2fe2 <ProcessInput+0xdb4>
    2fde:	81 e0       	ldi	r24, 0x01	; 1
    2fe0:	08 c0       	rjmp	.+16     	; 0x2ff2 <ProcessInput+0xdc4>
                    else if (data[3] == 'e') data[3] = 0;
    2fe2:	85 36       	cpi	r24, 0x65	; 101
    2fe4:	11 f4       	brne	.+4      	; 0x2fea <ProcessInput+0xdbc>
    2fe6:	13 82       	std	Z+3, r1	; 0x03
    2fe8:	08 c0       	rjmp	.+16     	; 0x2ffa <ProcessInput+0xdcc>
                    else if (data[3] == 'f') data[3] = 3;
    2fea:	86 36       	cpi	r24, 0x66	; 102
    2fec:	21 f4       	brne	.+8      	; 0x2ff6 <ProcessInput+0xdc8>
    2fee:	83 e0       	ldi	r24, 0x03	; 3
    2ff0:	f8 01       	movw	r30, r16
    2ff2:	83 83       	std	Z+3, r24	; 0x03
    2ff4:	02 c0       	rjmp	.+4      	; 0x2ffa <ProcessInput+0xdcc>
                    else data[3] = 2;
    2ff6:	82 e0       	ldi	r24, 0x02	; 2
    2ff8:	83 83       	std	Z+3, r24	; 0x03

                    if (data[1] & 2) answer += (1UL << 20);
    2ffa:	21 fd       	sbrc	r18, 1
    2ffc:	04 c0       	rjmp	.+8      	; 0x3006 <ProcessInput+0xdd8>
            //Priest offerings
            if (specialPassed >= 2) {
                if (data[1] > 0) {

                    uint8_t  digit[10] = {0, 0, 0, 0, 0, 0, 0, 0, 0, 0};
                    uint32_t answer = 0;
    2ffe:	80 e0       	ldi	r24, 0x00	; 0
    3000:	90 e0       	ldi	r25, 0x00	; 0
    3002:	dc 01       	movw	r26, r24
    3004:	04 c0       	rjmp	.+8      	; 0x300e <ProcessInput+0xde0>
                    if (data[3] == 'a') data[3] = 1;
                    else if (data[3] == 'e') data[3] = 0;
                    else if (data[3] == 'f') data[3] = 3;
                    else data[3] = 2;

                    if (data[1] & 2) answer += (1UL << 20);
    3006:	80 e0       	ldi	r24, 0x00	; 0
    3008:	90 e0       	ldi	r25, 0x00	; 0
    300a:	a0 e1       	ldi	r26, 0x10	; 16
    300c:	b0 e0       	ldi	r27, 0x00	; 0
                    if (data[1] & 1) answer += (1 << 8);
    300e:	20 ff       	sbrs	r18, 0
    3010:	03 c0       	rjmp	.+6      	; 0x3018 <ProcessInput+0xdea>
    3012:	9f 5f       	subi	r25, 0xFF	; 255
    3014:	af 4f       	sbci	r26, 0xFF	; 255
    3016:	bf 4f       	sbci	r27, 0xFF	; 255
                    if (data[3] & 2) answer += (1UL << 16);
    3018:	f8 01       	movw	r30, r16
    301a:	23 81       	ldd	r18, Z+3	; 0x03
    301c:	21 fd       	sbrc	r18, 1
    301e:	11 96       	adiw	r26, 0x01	; 1
                    if (data[3] & 1) answer += (1 << 4);
    3020:	20 ff       	sbrs	r18, 0
    3022:	03 c0       	rjmp	.+6      	; 0x302a <ProcessInput+0xdfc>
    3024:	40 96       	adiw	r24, 0x10	; 16
    3026:	a1 1d       	adc	r26, r1
    3028:	b1 1d       	adc	r27, r1
                    if (data[2] & 2) answer += (1 << 12);
    302a:	31 ff       	sbrs	r19, 1
    302c:	03 c0       	rjmp	.+6      	; 0x3034 <ProcessInput+0xe06>
    302e:	90 5f       	subi	r25, 0xF0	; 240
    3030:	af 4f       	sbci	r26, 0xFF	; 255
    3032:	bf 4f       	sbci	r27, 0xFF	; 255
                    if (data[2] & 1) answer += 1;
    3034:	30 ff       	sbrs	r19, 0
    3036:	03 c0       	rjmp	.+6      	; 0x303e <ProcessInput+0xe10>
    3038:	01 96       	adiw	r24, 0x01	; 1
    303a:	a1 1d       	adc	r26, r1
    303c:	b1 1d       	adc	r27, r1
                    answer <<= (4 - whoami);            
    303e:	40 91 30 38 	lds	r20, 0x3830	; 0x803830 <whoami>
    3042:	24 e0       	ldi	r18, 0x04	; 4
    3044:	30 e0       	ldi	r19, 0x00	; 0
    3046:	24 1b       	sub	r18, r20
    3048:	31 09       	sbc	r19, r1
    304a:	bc 01       	movw	r22, r24
    304c:	cd 01       	movw	r24, r26
    304e:	04 c0       	rjmp	.+8      	; 0x3058 <ProcessInput+0xe2a>
    3050:	66 0f       	add	r22, r22
    3052:	77 1f       	adc	r23, r23
    3054:	88 1f       	adc	r24, r24
    3056:	99 1f       	adc	r25, r25
    3058:	2a 95       	dec	r18
    305a:	d2 f7       	brpl	.-12     	; 0x3050 <ProcessInput+0xe22>
    return 0;
}

//
void SetResponse(uint8_t number, uint16_t address, uint16_t length, uint8_t type){
    reactStr[0][number]=address;
    305c:	26 e0       	ldi	r18, 0x06	; 6
    305e:	35 e7       	ldi	r19, 0x75	; 117
    3060:	20 93 f6 38 	sts	0x38F6, r18	; 0x8038f6 <reactStr+0x2>
    3064:	30 93 f7 38 	sts	0x38F7, r19	; 0x8038f7 <reactStr+0x3>
    reactStr[1][number]=length;
    3068:	20 e2       	ldi	r18, 0x20	; 32
    306a:	30 e0       	ldi	r19, 0x00	; 0
    306c:	20 93 36 39 	sts	0x3936, r18	; 0x803936 <reactStr+0x42>
    3070:	30 93 37 39 	sts	0x3937, r19	; 0x803937 <reactStr+0x43>
    reactStr[2][number]=type;
    3074:	21 e0       	ldi	r18, 0x01	; 1
    3076:	30 e0       	ldi	r19, 0x00	; 0
    3078:	20 93 76 39 	sts	0x3976, r18	; 0x803976 <reactStr+0x82>
    307c:	30 93 77 39 	sts	0x3977, r19	; 0x803977 <reactStr+0x83>
                    answer <<= (4 - whoami);            

                    SetResponse(elements++, A_YOURPART, L_YOURPART, TEASER);
                    
                    //Set up sending out number
                    for (n=9; n>=0; --n) {
    3080:	59 e0       	ldi	r21, 0x09	; 9
                        digit[n] = answer % 10;
    3082:	b5 2e       	mov	r11, r21
    3084:	ea e0       	ldi	r30, 0x0A	; 10
    3086:	4e 2e       	mov	r4, r30
    3088:	51 2c       	mov	r5, r1
    308a:	61 2c       	mov	r6, r1
    308c:	71 2c       	mov	r7, r1
    308e:	67 01       	movw	r12, r14
    3090:	cb 0c       	add	r12, r11
    3092:	d1 1c       	adc	r13, r1
    3094:	a3 01       	movw	r20, r6
    3096:	92 01       	movw	r18, r4
    3098:	5b d2       	rcall	.+1206   	; 0x3550 <__udivmodsi4>
    309a:	d6 01       	movw	r26, r12
    309c:	6c 93       	st	X, r22
                        answer /= 10;
    309e:	b9 01       	movw	r22, r18
    30a0:	ca 01       	movw	r24, r20
                        if (answer == 0) break;
    30a2:	61 15       	cp	r22, r1
    30a4:	71 05       	cpc	r23, r1
    30a6:	81 05       	cpc	r24, r1
    30a8:	91 05       	cpc	r25, r1
    30aa:	51 f4       	brne	.+20     	; 0x30c0 <ProcessInput+0xe92>
    30ac:	24 ef       	ldi	r18, 0xF4	; 244
    30ae:	c2 2e       	mov	r12, r18
    30b0:	28 e3       	ldi	r18, 0x38	; 56
    30b2:	d2 2e       	mov	r13, r18
    30b4:	32 e0       	ldi	r19, 0x02	; 2
    30b6:	73 2e       	mov	r7, r19
}

//
void SetResponse(uint8_t number, uint16_t address, uint16_t length, uint8_t type){
    reactStr[0][number]=address;
    reactStr[1][number]=length;
    30b8:	88 24       	eor	r8, r8
    30ba:	83 94       	inc	r8
    30bc:	91 2c       	mov	r9, r1
    30be:	02 c0       	rjmp	.+4      	; 0x30c4 <ProcessInput+0xe96>
                    answer <<= (4 - whoami);            

                    SetResponse(elements++, A_YOURPART, L_YOURPART, TEASER);
                    
                    //Set up sending out number
                    for (n=9; n>=0; --n) {
    30c0:	ba 94       	dec	r11
                        digit[n] = answer % 10;
                        answer /= 10;
                        if (answer == 0) break;
                    }
    30c2:	e5 cf       	rjmp	.-54     	; 0x308e <ProcessInput+0xe60>
    30c4:	f2 e0       	ldi	r31, 0x02	; 2
    30c6:	cf 0e       	add	r12, r31
    30c8:	d1 1c       	adc	r13, r1
                    for (; n<10; ++n) {
    30ca:	29 e0       	ldi	r18, 0x09	; 9
    30cc:	2b 15       	cp	r18, r11
    30ce:	08 f4       	brcc	.+2      	; 0x30d2 <ProcessInput+0xea4>
    30d0:	8c c0       	rjmp	.+280    	; 0x31ea <ProcessInput+0xfbc>
                        SetResponse(elements++, A_DIGITS+digit[n], 1, TEASER);
    30d2:	73 94       	inc	r7
    30d4:	f7 01       	movw	r30, r14
    30d6:	eb 0d       	add	r30, r11
    30d8:	f1 1d       	adc	r31, r1
    return 0;
}

//
void SetResponse(uint8_t number, uint16_t address, uint16_t length, uint8_t type){
    reactStr[0][number]=address;
    30da:	80 81       	ld	r24, Z
    30dc:	90 e0       	ldi	r25, 0x00	; 0
    30de:	8d 52       	subi	r24, 0x2D	; 45
    30e0:	9b 48       	sbci	r25, 0x8B	; 139
    30e2:	f6 01       	movw	r30, r12
    30e4:	82 83       	std	Z+2, r24	; 0x02
    30e6:	93 83       	std	Z+3, r25	; 0x03
    reactStr[1][number]=length;
    30e8:	ee 5b       	subi	r30, 0xBE	; 190
    30ea:	ff 4f       	sbci	r31, 0xFF	; 255
    30ec:	80 82       	st	Z, r8
    30ee:	91 82       	std	Z+1, r9	; 0x01
    reactStr[2][number]=type;
    30f0:	e0 5c       	subi	r30, 0xC0	; 192
    30f2:	ff 4f       	sbci	r31, 0xFF	; 255
    30f4:	80 82       	st	Z, r8
    30f6:	91 82       	std	Z+1, r9	; 0x01
                        answer /= 10;
                        if (answer == 0) break;
                    }
                    for (; n<10; ++n) {
                        SetResponse(elements++, A_DIGITS+digit[n], 1, TEASER);
                        UpdateState(actObj1.byteField[ACTION_STATE]);
    30f8:	80 91 bf 38 	lds	r24, 0x38BF	; 0x8038bf <actObj1.3989+0xa>
    30fc:	0e 94 fe 08 	call	0x11fc	; 0x11fc <UpdateState>
                    for (n=9; n>=0; --n) {
                        digit[n] = answer % 10;
                        answer /= 10;
                        if (answer == 0) break;
                    }
                    for (; n<10; ++n) {
    3100:	b3 94       	inc	r11
    3102:	e0 cf       	rjmp	.-64     	; 0x30c4 <ProcessInput+0xe96>
    return 0;
}

//
void SetResponse(uint8_t number, uint16_t address, uint16_t length, uint8_t type){
    reactStr[0][number]=address;
    3104:	86 e2       	ldi	r24, 0x26	; 38
    3106:	95 e7       	ldi	r25, 0x75	; 117
    3108:	80 93 f6 38 	sts	0x38F6, r24	; 0x8038f6 <reactStr+0x2>
    310c:	90 93 f7 38 	sts	0x38F7, r25	; 0x8038f7 <reactStr+0x3>
    reactStr[1][number]=length;
    3110:	8d e3       	ldi	r24, 0x3D	; 61
    3112:	90 e0       	ldi	r25, 0x00	; 0
    3114:	5e c0       	rjmp	.+188    	; 0x31d2 <ProcessInput+0xfa4>
    3116:	e0 91 26 38 	lds	r30, 0x3826	; 0x803826 <currDepth>
                    SetResponse(elements++, A_BADOFFERING, L_BADOFFERING, TEASER);
                }
            
            //Other questions    
            } else if (specialPassed == 1) {
                PopulateObject(route[currDepth+1], &actObj1);
    311a:	f0 e0       	ldi	r31, 0x00	; 0
    311c:	ee 0f       	add	r30, r30
    311e:	ff 1f       	adc	r31, r31
    3120:	ea 54       	subi	r30, 0x4A	; 74
    3122:	f6 4c       	sbci	r31, 0xC6	; 198
    3124:	65 eb       	ldi	r22, 0xB5	; 181
    3126:	78 e3       	ldi	r23, 0x38	; 56
                } else {
                    SetResponse(elements++, A_BADOFFERING, L_BADOFFERING, TEASER);
                }
            
            //Other questions    
            } else if (specialPassed == 1) {
    3128:	81 30       	cpi	r24, 0x01	; 1
    312a:	09 f0       	breq	.+2      	; 0x312e <ProcessInput+0xf00>
    312c:	46 c0       	rjmp	.+140    	; 0x31ba <ProcessInput+0xf8c>
                PopulateObject(route[currDepth+1], &actObj1);
    312e:	80 81       	ld	r24, Z
    3130:	91 81       	ldd	r25, Z+1	; 0x01
    3132:	0e 94 6e 0c 	call	0x18dc	; 0x18dc <PopulateObject>
                if (CheckState(actObj1.byteField[ACTION_ACL])){
    3136:	80 91 bc 38 	lds	r24, 0x38BC	; 0x8038bc <actObj1.3989+0x7>
    313a:	0e 94 08 09 	call	0x1210	; 0x1210 <CheckState>
    313e:	88 23       	and	r24, r24
    3140:	01 f1       	breq	.+64     	; 0x3182 <ProcessInput+0xf54>
                    SetResponse(elements++, actObj1.addrStr[ACTION_MSG], actObj1.lenStr[ACTION_MSG], GAME);
    3142:	80 91 db 38 	lds	r24, 0x38DB	; 0x8038db <actObj1.3989+0x26>
    3146:	90 91 dc 38 	lds	r25, 0x38DC	; 0x8038dc <actObj1.3989+0x27>
    return 0;
}

//
void SetResponse(uint8_t number, uint16_t address, uint16_t length, uint8_t type){
    reactStr[0][number]=address;
    314a:	20 91 cd 38 	lds	r18, 0x38CD	; 0x8038cd <actObj1.3989+0x18>
    314e:	30 91 ce 38 	lds	r19, 0x38CE	; 0x8038ce <actObj1.3989+0x19>
    3152:	20 93 f6 38 	sts	0x38F6, r18	; 0x8038f6 <reactStr+0x2>
    3156:	30 93 f7 38 	sts	0x38F7, r19	; 0x8038f7 <reactStr+0x3>
    reactStr[1][number]=length;
    315a:	80 93 36 39 	sts	0x3936, r24	; 0x803936 <reactStr+0x42>
    315e:	90 93 37 39 	sts	0x3937, r25	; 0x803937 <reactStr+0x43>
    reactStr[2][number]=type;
    3162:	10 92 76 39 	sts	0x3976, r1	; 0x803976 <reactStr+0x82>
    3166:	10 92 77 39 	sts	0x3977, r1	; 0x803977 <reactStr+0x83>
            //Other questions    
            } else if (specialPassed == 1) {
                PopulateObject(route[currDepth+1], &actObj1);
                if (CheckState(actObj1.byteField[ACTION_ACL])){
                    SetResponse(elements++, actObj1.addrStr[ACTION_MSG], actObj1.lenStr[ACTION_MSG], GAME);
                    effect = actObj1.effect[2];
    316a:	80 91 df 38 	lds	r24, 0x38DF	; 0x8038df <actObj1.3989+0x2a>
    316e:	90 e0       	ldi	r25, 0x00	; 0
    3170:	80 93 2d 38 	sts	0x382D, r24	; 0x80382d <effect>
    3174:	90 93 2e 38 	sts	0x382E, r25	; 0x80382e <effect+0x1>
                    UpdateState(actObj1.byteField[ACTION_STATE]);
    3178:	80 91 bf 38 	lds	r24, 0x38BF	; 0x8038bf <actObj1.3989+0xa>
    317c:	0e 94 fe 08 	call	0x11fc	; 0x11fc <UpdateState>
    3180:	32 c0       	rjmp	.+100    	; 0x31e6 <ProcessInput+0xfb8>
                } else {
                    SetResponse(elements++, actObj1.addrStr[ACTION_ACL_MSG], actObj1.lenStr[ACTION_ACL_MSG], GAME);
    3182:	80 91 d9 38 	lds	r24, 0x38D9	; 0x8038d9 <actObj1.3989+0x24>
    3186:	90 91 da 38 	lds	r25, 0x38DA	; 0x8038da <actObj1.3989+0x25>
    return 0;
}

//
void SetResponse(uint8_t number, uint16_t address, uint16_t length, uint8_t type){
    reactStr[0][number]=address;
    318a:	20 91 cb 38 	lds	r18, 0x38CB	; 0x8038cb <actObj1.3989+0x16>
    318e:	30 91 cc 38 	lds	r19, 0x38CC	; 0x8038cc <actObj1.3989+0x17>
    3192:	20 93 f6 38 	sts	0x38F6, r18	; 0x8038f6 <reactStr+0x2>
    3196:	30 93 f7 38 	sts	0x38F7, r19	; 0x8038f7 <reactStr+0x3>
    reactStr[1][number]=length;
    319a:	80 93 36 39 	sts	0x3936, r24	; 0x803936 <reactStr+0x42>
    319e:	90 93 37 39 	sts	0x3937, r25	; 0x803937 <reactStr+0x43>
    reactStr[2][number]=type;
    31a2:	10 92 76 39 	sts	0x3976, r1	; 0x803976 <reactStr+0x82>
    31a6:	10 92 77 39 	sts	0x3977, r1	; 0x803977 <reactStr+0x83>
                    SetResponse(elements++, actObj1.addrStr[ACTION_MSG], actObj1.lenStr[ACTION_MSG], GAME);
                    effect = actObj1.effect[2];
                    UpdateState(actObj1.byteField[ACTION_STATE]);
                } else {
                    SetResponse(elements++, actObj1.addrStr[ACTION_ACL_MSG], actObj1.lenStr[ACTION_ACL_MSG], GAME);
                    effect = actObj1.effect[1];
    31aa:	80 91 de 38 	lds	r24, 0x38DE	; 0x8038de <actObj1.3989+0x29>
    31ae:	90 e0       	ldi	r25, 0x00	; 0
    31b0:	80 93 2d 38 	sts	0x382D, r24	; 0x80382d <effect>
    31b4:	90 93 2e 38 	sts	0x382E, r25	; 0x80382e <effect+0x1>
    31b8:	16 c0       	rjmp	.+44     	; 0x31e6 <ProcessInput+0xfb8>
                }

            } else {
                PopulateObject(route[currDepth+1], &actObj1);
    31ba:	80 81       	ld	r24, Z
    31bc:	91 81       	ldd	r25, Z+1	; 0x01
    31be:	0e 94 6e 0c 	call	0x18dc	; 0x18dc <PopulateObject>
    return 0;
}

//
void SetResponse(uint8_t number, uint16_t address, uint16_t length, uint8_t type){
    reactStr[0][number]=address;
    31c2:	8e e9       	ldi	r24, 0x9E	; 158
    31c4:	98 e7       	ldi	r25, 0x78	; 120
    31c6:	80 93 f6 38 	sts	0x38F6, r24	; 0x8038f6 <reactStr+0x2>
    31ca:	90 93 f7 38 	sts	0x38F7, r25	; 0x8038f7 <reactStr+0x3>
    reactStr[1][number]=length;
    31ce:	82 e1       	ldi	r24, 0x12	; 18
    31d0:	90 e0       	ldi	r25, 0x00	; 0
    31d2:	80 93 36 39 	sts	0x3936, r24	; 0x803936 <reactStr+0x42>
    31d6:	90 93 37 39 	sts	0x3937, r25	; 0x803937 <reactStr+0x43>
    reactStr[2][number]=type;
    31da:	81 e0       	ldi	r24, 0x01	; 1
    31dc:	90 e0       	ldi	r25, 0x00	; 0
    31de:	80 93 76 39 	sts	0x3976, r24	; 0x803976 <reactStr+0x82>
    31e2:	90 93 77 39 	sts	0x3977, r25	; 0x803977 <reactStr+0x83>
                    effect = actObj1.effect[1];
                }

            } else {
                PopulateObject(route[currDepth+1], &actObj1);
                SetResponse(elements++, A_INCORRECT, L_INCORRECT, TEASER);
    31e6:	82 e0       	ldi	r24, 0x02	; 2
    31e8:	78 2e       	mov	r7, r24
            }
            specialInput[0] = 0;
    31ea:	10 92 e3 38 	sts	0x38E3, r1	; 0x8038e3 <specialInput>
    return 0;
}

//
void SetResponse(uint8_t number, uint16_t address, uint16_t length, uint8_t type){
    reactStr[0][number]=address;
    31ee:	8b e5       	ldi	r24, 0x5B	; 91
    31f0:	9a e7       	ldi	r25, 0x7A	; 122
    31f2:	80 93 f4 38 	sts	0x38F4, r24	; 0x8038f4 <reactStr>
    31f6:	90 93 f5 38 	sts	0x38F5, r25	; 0x8038f5 <reactStr+0x1>
    reactStr[1][number]=length;
    31fa:	82 e0       	ldi	r24, 0x02	; 2
    31fc:	90 e0       	ldi	r25, 0x00	; 0
    31fe:	80 93 34 39 	sts	0x3934, r24	; 0x803934 <reactStr+0x40>
    3202:	90 93 35 39 	sts	0x3935, r25	; 0x803935 <reactStr+0x41>
    reactStr[2][number]=type;
    3206:	81 e0       	ldi	r24, 0x01	; 1
    3208:	90 e0       	ldi	r25, 0x00	; 0
    320a:	80 93 74 39 	sts	0x3974, r24	; 0x803974 <reactStr+0x80>
    320e:	90 93 75 39 	sts	0x3975, r25	; 0x803975 <reactStr+0x81>
               
        }
            
        //Input handled
        SetResponse(0, A_LF, 2, TEASER);
        if (specialInput[0]) responseList = elements; else responseList = SetStandardResponse(elements);
    3212:	80 91 e3 38 	lds	r24, 0x38E3	; 0x8038e3 <specialInput>
    3216:	88 23       	and	r24, r24
    3218:	19 f0       	breq	.+6      	; 0x3220 <ProcessInput+0xff2>
    321a:	70 92 f3 38 	sts	0x38F3, r7	; 0x8038f3 <responseList>
    321e:	9a c0       	rjmp	.+308    	; 0x3354 <ProcessInput+0x1126>
    3220:	87 2d       	mov	r24, r7
    3222:	12 c0       	rjmp	.+36     	; 0x3248 <ProcessInput+0x101a>
    return 0;
}

//
void SetResponse(uint8_t number, uint16_t address, uint16_t length, uint8_t type){
    reactStr[0][number]=address;
    3224:	8b e5       	ldi	r24, 0x5B	; 91
    3226:	9a e7       	ldi	r25, 0x7A	; 122
    3228:	80 93 f4 38 	sts	0x38F4, r24	; 0x8038f4 <reactStr>
    322c:	90 93 f5 38 	sts	0x38F5, r25	; 0x8038f5 <reactStr+0x1>
    reactStr[1][number]=length;
    3230:	82 e0       	ldi	r24, 0x02	; 2
    3232:	90 e0       	ldi	r25, 0x00	; 0
    3234:	80 93 34 39 	sts	0x3934, r24	; 0x803934 <reactStr+0x40>
    3238:	90 93 35 39 	sts	0x3935, r25	; 0x803935 <reactStr+0x41>
    reactStr[2][number]=type;
    323c:	81 e0       	ldi	r24, 0x01	; 1
    323e:	90 e0       	ldi	r25, 0x00	; 0
    3240:	80 93 74 39 	sts	0x3974, r24	; 0x803974 <reactStr+0x80>
    3244:	90 93 75 39 	sts	0x3975, r25	; 0x803975 <reactStr+0x81>
        SetResponse(0, A_LF, 2, TEASER);
        if (specialInput[0]) responseList = elements; else responseList = SetStandardResponse(elements);

    } else {
        SetResponse(0, A_LF, 2, TEASER);
        responseList = SetStandardResponse(1);
    3248:	0e 94 f2 0b 	call	0x17e4	; 0x17e4 <SetStandardResponse>
    324c:	80 93 f3 38 	sts	0x38F3, r24	; 0x8038f3 <responseList>
    3250:	81 c0       	rjmp	.+258    	; 0x3354 <ProcessInput+0x1126>
    return 0;
}

//
void SetResponse(uint8_t number, uint16_t address, uint16_t length, uint8_t type){
    reactStr[0][number]=address;
    3252:	84 ed       	ldi	r24, 0xD4	; 212
    3254:	99 e7       	ldi	r25, 0x79	; 121
    3256:	b0 cd       	rjmp	.-1184   	; 0x2db8 <ProcessInput+0xb8a>

        //Drop item if in inventory
        if (data[0] == 'd') {
            if ((inventory[0] == 0)&&(inventory[1] == 0)){
                SetResponse(elements++, A_EMPTYHANDS, L_EMPTYHANDS, TEASER);
            } else if (inputLen != 2) {
    3258:	b2 e0       	ldi	r27, 0x02	; 2
    325a:	fb 12       	cpse	r15, r27
    325c:	18 c8       	rjmp	.-4048   	; 0x228e <ProcessInput+0x60>
                SetResponse(elements++, A_NOTPOSSIBLE, L_NOTPOSSIBLE, TEASER);
            } else {
                for (uint8_t x=0; x<2; ++x) {
                    if (inventory[x]) {
                        if (CheckLetter(inventory[x], data[1])) {
    325e:	d8 01       	movw	r26, r16
    3260:	11 96       	adiw	r26, 0x01	; 1
    3262:	6c 91       	ld	r22, X
    3264:	0e 94 e5 0c 	call	0x19ca	; 0x19ca <CheckLetter>
    3268:	88 23       	and	r24, r24
    326a:	09 f4       	brne	.+2      	; 0x326e <ProcessInput+0x1040>
    326c:	5b c0       	rjmp	.+182    	; 0x3324 <ProcessInput+0x10f6>
                SetResponse(elements++, A_EMPTYHANDS, L_EMPTYHANDS, TEASER);
            } else if (inputLen != 2) {
                SetResponse(elements++, A_NOTPOSSIBLE, L_NOTPOSSIBLE, TEASER);
            } else {
                for (uint8_t x=0; x<2; ++x) {
                    if (inventory[x]) {
    326e:	80 e0       	ldi	r24, 0x00	; 0
    3270:	90 e0       	ldi	r25, 0x00	; 0
                        if (CheckLetter(inventory[x], data[1])) {
                            PopulateObject(inventory[x], &actObj1);
    3272:	88 0f       	add	r24, r24
    3274:	99 1f       	adc	r25, r25
    3276:	9c 01       	movw	r18, r24
    3278:	2f 5c       	subi	r18, 0xCF	; 207
    327a:	37 4c       	sbci	r19, 0xC7	; 199
    327c:	79 01       	movw	r14, r18
    327e:	65 eb       	ldi	r22, 0xB5	; 181
    3280:	78 e3       	ldi	r23, 0x38	; 56
    3282:	d9 01       	movw	r26, r18
    3284:	8d 91       	ld	r24, X+
    3286:	9c 91       	ld	r25, X
    3288:	0e 94 6e 0c 	call	0x18dc	; 0x18dc <PopulateObject>
    return 0;
}

//
void SetResponse(uint8_t number, uint16_t address, uint16_t length, uint8_t type){
    reactStr[0][number]=address;
    328c:	84 ed       	ldi	r24, 0xD4	; 212
    328e:	97 e7       	ldi	r25, 0x77	; 119
    3290:	80 93 f6 38 	sts	0x38F6, r24	; 0x8038f6 <reactStr+0x2>
    3294:	90 93 f7 38 	sts	0x38F7, r25	; 0x8038f7 <reactStr+0x3>
    reactStr[1][number]=length;
    3298:	80 e1       	ldi	r24, 0x10	; 16
    329a:	90 e0       	ldi	r25, 0x00	; 0
    329c:	80 93 36 39 	sts	0x3936, r24	; 0x803936 <reactStr+0x42>
    32a0:	90 93 37 39 	sts	0x3937, r25	; 0x803937 <reactStr+0x43>
    reactStr[2][number]=type;
    32a4:	81 e0       	ldi	r24, 0x01	; 1
    32a6:	90 e0       	ldi	r25, 0x00	; 0
    32a8:	80 93 76 39 	sts	0x3976, r24	; 0x803976 <reactStr+0x82>
    32ac:	90 93 77 39 	sts	0x3977, r25	; 0x803977 <reactStr+0x83>
                for (uint8_t x=0; x<2; ++x) {
                    if (inventory[x]) {
                        if (CheckLetter(inventory[x], data[1])) {
                            PopulateObject(inventory[x], &actObj1);
                            SetResponse(elements++, A_DROPPING, L_DROPPING, TEASER);
                            SetResponse(elements++, actObj1.addrStr[NAME], actObj1.lenStr[NAME], GAME);
    32b0:	20 91 cf 38 	lds	r18, 0x38CF	; 0x8038cf <actObj1.3989+0x1a>
    32b4:	30 91 d0 38 	lds	r19, 0x38D0	; 0x8038d0 <actObj1.3989+0x1b>
    return 0;
}

//
void SetResponse(uint8_t number, uint16_t address, uint16_t length, uint8_t type){
    reactStr[0][number]=address;
    32b8:	40 91 c1 38 	lds	r20, 0x38C1	; 0x8038c1 <actObj1.3989+0xc>
    32bc:	50 91 c2 38 	lds	r21, 0x38C2	; 0x8038c2 <actObj1.3989+0xd>
    32c0:	40 93 f8 38 	sts	0x38F8, r20	; 0x8038f8 <reactStr+0x4>
    32c4:	50 93 f9 38 	sts	0x38F9, r21	; 0x8038f9 <reactStr+0x5>
    reactStr[1][number]=length;
    32c8:	20 93 38 39 	sts	0x3938, r18	; 0x803938 <reactStr+0x44>
    32cc:	30 93 39 39 	sts	0x3939, r19	; 0x803939 <reactStr+0x45>
    reactStr[2][number]=type;
    32d0:	10 92 78 39 	sts	0x3978, r1	; 0x803978 <reactStr+0x84>
    32d4:	10 92 79 39 	sts	0x3979, r1	; 0x803979 <reactStr+0x85>
    return 0;
}

//
void SetResponse(uint8_t number, uint16_t address, uint16_t length, uint8_t type){
    reactStr[0][number]=address;
    32d8:	2b e5       	ldi	r18, 0x5B	; 91
    32da:	3a e7       	ldi	r19, 0x7A	; 122
    32dc:	20 93 fa 38 	sts	0x38FA, r18	; 0x8038fa <reactStr+0x6>
    32e0:	30 93 fb 38 	sts	0x38FB, r19	; 0x8038fb <reactStr+0x7>
    reactStr[1][number]=length;
    32e4:	22 e0       	ldi	r18, 0x02	; 2
    32e6:	30 e0       	ldi	r19, 0x00	; 0
    32e8:	20 93 3a 39 	sts	0x393A, r18	; 0x80393a <reactStr+0x46>
    32ec:	30 93 3b 39 	sts	0x393B, r19	; 0x80393b <reactStr+0x47>
    reactStr[2][number]=type;
    32f0:	80 93 7a 39 	sts	0x397A, r24	; 0x80397a <reactStr+0x86>
    32f4:	90 93 7b 39 	sts	0x397B, r25	; 0x80397b <reactStr+0x87>
    return 0;
}

//
void SetResponse(uint8_t number, uint16_t address, uint16_t length, uint8_t type){
    reactStr[0][number]=address;
    32f8:	27 e9       	ldi	r18, 0x97	; 151
    32fa:	37 e7       	ldi	r19, 0x77	; 119
    32fc:	20 93 fc 38 	sts	0x38FC, r18	; 0x8038fc <reactStr+0x8>
    3300:	30 93 fd 38 	sts	0x38FD, r19	; 0x8038fd <reactStr+0x9>
    reactStr[1][number]=length;
    3304:	2d e3       	ldi	r18, 0x3D	; 61
    3306:	30 e0       	ldi	r19, 0x00	; 0
    3308:	20 93 3c 39 	sts	0x393C, r18	; 0x80393c <reactStr+0x48>
    330c:	30 93 3d 39 	sts	0x393D, r19	; 0x80393d <reactStr+0x49>
    reactStr[2][number]=type;
    3310:	80 93 7c 39 	sts	0x397C, r24	; 0x80397c <reactStr+0x88>
    3314:	90 93 7d 39 	sts	0x397D, r25	; 0x80397d <reactStr+0x89>
                            PopulateObject(inventory[x], &actObj1);
                            SetResponse(elements++, A_DROPPING, L_DROPPING, TEASER);
                            SetResponse(elements++, actObj1.addrStr[NAME], actObj1.lenStr[NAME], GAME);
                            SetResponse(elements++, A_LF, 2, TEASER);
                            SetResponse(elements++, A_RETURNING, L_RETURNING, TEASER);
                            inventory[x] = 0;
    3318:	f7 01       	movw	r30, r14
    331a:	10 82       	st	Z, r1
    331c:	11 82       	std	Z+1, r1	; 0x01
                        if (CheckLetter(inventory[x], data[1])) {
                            PopulateObject(inventory[x], &actObj1);
                            SetResponse(elements++, A_DROPPING, L_DROPPING, TEASER);
                            SetResponse(elements++, actObj1.addrStr[NAME], actObj1.lenStr[NAME], GAME);
                            SetResponse(elements++, A_LF, 2, TEASER);
                            SetResponse(elements++, A_RETURNING, L_RETURNING, TEASER);
    331e:	f5 e0       	ldi	r31, 0x05	; 5
    3320:	7f 2e       	mov	r7, r31
                            inventory[x] = 0;
                            break;
    3322:	65 cf       	rjmp	.-310    	; 0x31ee <ProcessInput+0xfc0>
                SetResponse(elements++, A_EMPTYHANDS, L_EMPTYHANDS, TEASER);
            } else if (inputLen != 2) {
                SetResponse(elements++, A_NOTPOSSIBLE, L_NOTPOSSIBLE, TEASER);
            } else {
                for (uint8_t x=0; x<2; ++x) {
                    if (inventory[x]) {
    3324:	80 91 33 38 	lds	r24, 0x3833	; 0x803833 <inventory+0x2>
    3328:	90 91 34 38 	lds	r25, 0x3834	; 0x803834 <inventory+0x3>
    332c:	00 97       	sbiw	r24, 0x00	; 0
    332e:	49 f0       	breq	.+18     	; 0x3342 <ProcessInput+0x1114>
                        if (CheckLetter(inventory[x], data[1])) {
    3330:	f8 01       	movw	r30, r16
    3332:	61 81       	ldd	r22, Z+1	; 0x01
    3334:	0e 94 e5 0c 	call	0x19ca	; 0x19ca <CheckLetter>
    3338:	88 23       	and	r24, r24
    333a:	19 f0       	breq	.+6      	; 0x3342 <ProcessInput+0x1114>
                SetResponse(elements++, A_EMPTYHANDS, L_EMPTYHANDS, TEASER);
            } else if (inputLen != 2) {
                SetResponse(elements++, A_NOTPOSSIBLE, L_NOTPOSSIBLE, TEASER);
            } else {
                for (uint8_t x=0; x<2; ++x) {
                    if (inventory[x]) {
    333c:	81 e0       	ldi	r24, 0x01	; 1
    333e:	90 e0       	ldi	r25, 0x00	; 0
    3340:	98 cf       	rjmp	.-208    	; 0x3272 <ProcessInput+0x1044>
    return 0;
}

//
void SetResponse(uint8_t number, uint16_t address, uint16_t length, uint8_t type){
    reactStr[0][number]=address;
    3342:	84 e6       	ldi	r24, 0x64	; 100
    3344:	99 e7       	ldi	r25, 0x79	; 121
    3346:	80 93 f6 38 	sts	0x38F6, r24	; 0x8038f6 <reactStr+0x2>
    334a:	90 93 f7 38 	sts	0x38F7, r25	; 0x8038f7 <reactStr+0x3>
    reactStr[1][number]=length;
    334e:	81 e2       	ldi	r24, 0x21	; 33
    3350:	90 e0       	ldi	r25, 0x00	; 0
    3352:	32 c8       	rjmp	.-3996   	; 0x23b8 <ProcessInput+0x18a>
    } else {
        SetResponse(0, A_LF, 2, TEASER);
        responseList = SetStandardResponse(1);
    }

    data[0] = 0;
    3354:	d8 01       	movw	r26, r16
    3356:	1c 92       	st	X, r1
    serRxDone = 0;
    3358:	10 92 37 38 	sts	0x3837, r1	; 0x803837 <serRxDone>
    RXCNT = 0;    
    335c:	1d ba       	out	0x1d, r1	; 29
    return 0;
}
    335e:	80 e0       	ldi	r24, 0x00	; 0
    3360:	2a 96       	adiw	r28, 0x0a	; 10
    3362:	cd bf       	out	0x3d, r28	; 61
    3364:	de bf       	out	0x3e, r29	; 62
    3366:	df 91       	pop	r29
    3368:	cf 91       	pop	r28
    336a:	1f 91       	pop	r17
    336c:	0f 91       	pop	r16
    336e:	ff 90       	pop	r15
    3370:	ef 90       	pop	r14
    3372:	df 90       	pop	r13
    3374:	cf 90       	pop	r12
    3376:	bf 90       	pop	r11
    3378:	af 90       	pop	r10
    337a:	9f 90       	pop	r9
    337c:	8f 90       	pop	r8
    337e:	7f 90       	pop	r7
    3380:	6f 90       	pop	r6
    3382:	5f 90       	pop	r5
    3384:	4f 90       	pop	r4
    3386:	08 95       	ret

00003388 <TextAdventure>:


//MAIN GAME STRUCTURE
uint8_t TextAdventure(){
    3388:	cf 93       	push	r28
    static uint8_t serInput[RXLEN];
    
    //Still sending data to serial?
    if (CheckSend()) return 1;
    338a:	0e 94 c4 0d 	call	0x1b88	; 0x1b88 <CheckSend>
    338e:	88 23       	and	r24, r24
    3390:	11 f0       	breq	.+4      	; 0x3396 <TextAdventure+0xe>
    3392:	c1 e0       	ldi	r28, 0x01	; 1
    3394:	11 c0       	rjmp	.+34     	; 0x33b8 <TextAdventure+0x30>

    //Not sending? Process next response part to send, if any.
    if (CheckResponse()) return 1;        
    3396:	0e 94 31 0e 	call	0x1c62	; 0x1c62 <CheckResponse>
    339a:	81 11       	cpse	r24, r1
    339c:	fa cf       	rjmp	.-12     	; 0x3392 <TextAdventure+0xa>

    //No responses to send, check if there is user input.
    if (CheckInput(&serInput[0])) return 2; 
    339e:	89 e4       	ldi	r24, 0x49	; 73
    33a0:	98 e3       	ldi	r25, 0x38	; 56
    33a2:	0e 94 78 0e 	call	0x1cf0	; 0x1cf0 <CheckInput>
    33a6:	c8 2f       	mov	r28, r24
    33a8:	81 11       	cpse	r24, r1
    33aa:	05 c0       	rjmp	.+10     	; 0x33b6 <TextAdventure+0x2e>

    //Input found, process and save (changes only)
    ProcessInput(&serInput[0]);
    33ac:	89 e4       	ldi	r24, 0x49	; 73
    33ae:	98 e3       	ldi	r25, 0x38	; 56
    33b0:	0e 94 17 11 	call	0x222e	; 0x222e <ProcessInput>

    return 0;
    33b4:	01 c0       	rjmp	.+2      	; 0x33b8 <TextAdventure+0x30>

    //Not sending? Process next response part to send, if any.
    if (CheckResponse()) return 1;        

    //No responses to send, check if there is user input.
    if (CheckInput(&serInput[0])) return 2; 
    33b6:	c2 e0       	ldi	r28, 0x02	; 2

    //Input found, process and save (changes only)
    ProcessInput(&serInput[0]);

    return 0;
    33b8:	8c 2f       	mov	r24, r28
    33ba:	cf 91       	pop	r28
    33bc:	08 95       	ret

000033be <main>:


//This is where it begins, inits first and main program in while(1) loop.
int main(void)
{
    Setup();
    33be:	0e 94 df 03 	call	0x7be	; 0x7be <Setup>

    SerSpeed(0xff);
    33c2:	8f ef       	ldi	r24, 0xFF	; 255
    33c4:	0e 94 4f 07 	call	0xe9e	; 0xe9e <SerSpeed>
    33c8:	a2 ed       	ldi	r26, 0xD2	; 210
    33ca:	b5 eb       	ldi	r27, 0xB5	; 181
    ////Turn on LEDs on low setting to check for interrupt glitches

    //"Hacker"
    for (uint8_t n=0; n<6; n++){
        iLED[HCKR[R][n]] = 1;
    33cc:	81 e0       	ldi	r24, 0x01	; 1
    33ce:	ed 91       	ld	r30, X+
    33d0:	f0 e0       	ldi	r31, 0x00	; 0
    33d2:	ed 55       	subi	r30, 0x5D	; 93
    33d4:	f5 4c       	sbci	r31, 0xC5	; 197
    33d6:	80 83       	st	Z, r24
        iLED[HCKR[G][n]] = 1;
    33d8:	15 96       	adiw	r26, 0x05	; 5
    33da:	ec 91       	ld	r30, X
    33dc:	15 97       	sbiw	r26, 0x05	; 5
    33de:	f0 e0       	ldi	r31, 0x00	; 0
    33e0:	ed 55       	subi	r30, 0x5D	; 93
    33e2:	f5 4c       	sbci	r31, 0xC5	; 197
    33e4:	80 83       	st	Z, r24

    SerSpeed(0xff);
    ////Turn on LEDs on low setting to check for interrupt glitches

    //"Hacker"
    for (uint8_t n=0; n<6; n++){
    33e6:	25 eb       	ldi	r18, 0xB5	; 181
    33e8:	a8 3d       	cpi	r26, 0xD8	; 216
    33ea:	b2 07       	cpc	r27, r18
    33ec:	81 f7       	brne	.-32     	; 0x33ce <main+0x10>
    33ee:	e4 ec       	ldi	r30, 0xC4	; 196
    33f0:	f5 eb       	ldi	r31, 0xB5	; 181
        iLED[HCKR[G][n]] = 1;
    }

    //"Wings"
    for (uint8_t n=0; n<5; n++){
        iLED[WING[L][n]] = 1;
    33f2:	91 e0       	ldi	r25, 0x01	; 1
    33f4:	ef 01       	movw	r28, r30
    33f6:	a5 81       	ldd	r26, Z+5	; 0x05
    33f8:	b0 e0       	ldi	r27, 0x00	; 0
    33fa:	ad 55       	subi	r26, 0x5D	; 93
    33fc:	b5 4c       	sbci	r27, 0xC5	; 197
    33fe:	81 e0       	ldi	r24, 0x01	; 1
    3400:	9c 93       	st	X, r25
    3402:	31 96       	adiw	r30, 0x01	; 1
        iLED[WING[R][n]] = 1;
    3404:	a8 81       	ld	r26, Y
    3406:	b0 e0       	ldi	r27, 0x00	; 0
    3408:	ad 55       	subi	r26, 0x5D	; 93
    340a:	b5 4c       	sbci	r27, 0xC5	; 197
    340c:	9c 93       	st	X, r25
        iLED[HCKR[R][n]] = 1;
        iLED[HCKR[G][n]] = 1;
    }

    //"Wings"
    for (uint8_t n=0; n<5; n++){
    340e:	25 eb       	ldi	r18, 0xB5	; 181
    3410:	e9 3c       	cpi	r30, 0xC9	; 201
    3412:	f2 07       	cpc	r31, r18
    3414:	79 f7       	brne	.-34     	; 0x33f4 <main+0x36>
        iLED[WING[L][n]] = 1;
        iLED[WING[R][n]] = 1;
    }    

    //"Others"
    iLED[EYE[G][R]] = 1;
    3416:	e0 91 d0 b5 	lds	r30, 0xB5D0	; 0x80b5d0 <__bss_end+0x7add>
    341a:	f0 e0       	ldi	r31, 0x00	; 0
    341c:	ed 55       	subi	r30, 0x5D	; 93
    341e:	f5 4c       	sbci	r31, 0xC5	; 197
    3420:	80 83       	st	Z, r24
    iLED[EYE[G][L]] = 1;
    3422:	e0 91 d1 b5 	lds	r30, 0xB5D1	; 0x80b5d1 <__bss_end+0x7ade>
    3426:	f0 e0       	ldi	r31, 0x00	; 0
    3428:	ed 55       	subi	r30, 0x5D	; 93
    342a:	f5 4c       	sbci	r31, 0xC5	; 197
    342c:	80 83       	st	Z, r24
    iLED[EYE[R][R]] = 1;
    342e:	e0 91 ce b5 	lds	r30, 0xB5CE	; 0x80b5ce <__bss_end+0x7adb>
    3432:	f0 e0       	ldi	r31, 0x00	; 0
    3434:	ed 55       	subi	r30, 0x5D	; 93
    3436:	f5 4c       	sbci	r31, 0xC5	; 197
    3438:	80 83       	st	Z, r24
    iLED[EYE[R][L]] = 1;
    343a:	e0 91 cf b5 	lds	r30, 0xB5CF	; 0x80b5cf <__bss_end+0x7adc>
    343e:	f0 e0       	ldi	r31, 0x00	; 0
    3440:	ed 55       	subi	r30, 0x5D	; 93
    3442:	f5 4c       	sbci	r31, 0xC5	; 197
    3444:	80 83       	st	Z, r24
    iLED[SCARAB[R]] = 1;
    3446:	e0 91 c2 b5 	lds	r30, 0xB5C2	; 0x80b5c2 <__bss_end+0x7acf>
    344a:	f0 e0       	ldi	r31, 0x00	; 0
    344c:	ed 55       	subi	r30, 0x5D	; 93
    344e:	f5 4c       	sbci	r31, 0xC5	; 197
    3450:	80 83       	st	Z, r24
    iLED[SCARAB[G]] = 1;
    3452:	e0 91 c3 b5 	lds	r30, 0xB5C3	; 0x80b5c3 <__bss_end+0x7ad0>
    3456:	f0 e0       	ldi	r31, 0x00	; 0
    3458:	ed 55       	subi	r30, 0x5D	; 93
    345a:	f5 4c       	sbci	r31, 0xC5	; 197
    345c:	80 83       	st	Z, r24
    iLED[BADGER] = 1;
    345e:	e0 91 c1 b5 	lds	r30, 0xB5C1	; 0x80b5c1 <__bss_end+0x7ace>
    3462:	f0 e0       	ldi	r31, 0x00	; 0
    3464:	ed 55       	subi	r30, 0x5D	; 93
    3466:	f5 4c       	sbci	r31, 0xC5	; 197
    3468:	80 83       	st	Z, r24
    iLED[CAT] = 1;
    346a:	e0 91 c0 b5 	lds	r30, 0xB5C0	; 0x80b5c0 <__bss_end+0x7acd>
    346e:	f0 e0       	ldi	r31, 0x00	; 0
    3470:	ed 55       	subi	r30, 0x5D	; 93
    3472:	f5 4c       	sbci	r31, 0xC5	; 197
    3474:	80 83       	st	Z, r24

    LoadGameState();
    3476:	0e 94 4f 09 	call	0x129e	; 0x129e <LoadGameState>

    while (TRUE) {
        if (GenerateAudio()) {
    347a:	0e 94 1d 0a 	call	0x143a	; 0x143a <GenerateAudio>
    347e:	88 23       	and	r24, r24
    3480:	e1 f3       	breq	.-8      	; 0x347a <main+0xbc>
            buttonState = CheckButtons(buttonState);
    3482:	80 91 07 38 	lds	r24, 0x3807	; 0x803807 <buttonState>
    3486:	0e 94 7e 07 	call	0xefc	; 0xefc <CheckButtons>
    348a:	80 93 07 38 	sts	0x3807, r24	; 0x803807 <buttonState>
            buttonMark = 0;
    348e:	10 92 35 38 	sts	0x3835, r1	; 0x803835 <buttonMark>

            if (VREF_CTRLA == 0x12) SelectAuIn(); else SelectTSens();
    3492:	80 91 a0 00 	lds	r24, 0x00A0	; 0x8000a0 <__TEXT_REGION_LENGTH__+0x7000a0>
    3496:	82 31       	cpi	r24, 0x12	; 18
    3498:	19 f4       	brne	.+6      	; 0x34a0 <main+0xe2>
    349a:	0e 94 6f 07 	call	0xede	; 0xede <SelectAuIn>
    349e:	02 c0       	rjmp	.+4      	; 0x34a4 <main+0xe6>
    34a0:	0e 94 60 07 	call	0xec0	; 0xec0 <SelectTSens>

            GenerateBlinks();           
    34a4:	0e 94 e1 09 	call	0x13c2	; 0x13c2 <GenerateBlinks>
            
            //Main game, to complete: Finish sub-game MagnetMaze and MakeFriends too.
            TextAdventure();
    34a8:	6f df       	rcall	.-290    	; 0x3388 <TextAdventure>
          
            //Other games & user interaction checks
            MagnetMaze();
    34aa:	0e 94 97 02 	call	0x52e	; 0x52e <MagnetMaze>
            BastetDictates();
    34ae:	0e 94 fe 0a 	call	0x15fc	; 0x15fc <BastetDictates>
            LanyardCode();
    34b2:	0e 94 9f 01 	call	0x33e	; 0x33e <LanyardCode>
            //MakeFriends();

            //Save progress
            SaveGameState(); 
    34b6:	0e 94 5d 08 	call	0x10ba	; 0x10ba <SaveGameState>
            
            //Check light sensor status (added hysteresis to preserve writing cycles to internal EEPROM)
            if (adcPhot < 10) WriteStatusBit(116, 1);
    34ba:	80 91 96 3a 	lds	r24, 0x3A96	; 0x803a96 <adcPhot>
    34be:	90 91 97 3a 	lds	r25, 0x3A97	; 0x803a97 <adcPhot+0x1>
    34c2:	0a 97       	sbiw	r24, 0x0a	; 10
    34c4:	20 f4       	brcc	.+8      	; 0x34ce <main+0x110>
    34c6:	61 e0       	ldi	r22, 0x01	; 1
    34c8:	84 e7       	ldi	r24, 0x74	; 116
    34ca:	0e 94 e4 08 	call	0x11c8	; 0x11c8 <WriteStatusBit>
            if (adcPhot > 100) WriteStatusBit(116, 0);
    34ce:	80 91 96 3a 	lds	r24, 0x3A96	; 0x803a96 <adcPhot>
    34d2:	90 91 97 3a 	lds	r25, 0x3A97	; 0x803a97 <adcPhot+0x1>
    34d6:	85 36       	cpi	r24, 0x65	; 101
    34d8:	91 05       	cpc	r25, r1
    34da:	20 f0       	brcs	.+8      	; 0x34e4 <main+0x126>
    34dc:	60 e0       	ldi	r22, 0x00	; 0
    34de:	84 e7       	ldi	r24, 0x74	; 116
    34e0:	0e 94 e4 08 	call	0x11c8	; 0x11c8 <WriteStatusBit>

            //Check temperature 
            HotSummer();
    34e4:	0e 94 7c 09 	call	0x12f8	; 0x12f8 <HotSummer>
    34e8:	c8 cf       	rjmp	.-112    	; 0x347a <main+0xbc>

000034ea <__udivmodqi4>:
    34ea:	99 1b       	sub	r25, r25
    34ec:	79 e0       	ldi	r23, 0x09	; 9
    34ee:	04 c0       	rjmp	.+8      	; 0x34f8 <__udivmodqi4_ep>

000034f0 <__udivmodqi4_loop>:
    34f0:	99 1f       	adc	r25, r25
    34f2:	96 17       	cp	r25, r22
    34f4:	08 f0       	brcs	.+2      	; 0x34f8 <__udivmodqi4_ep>
    34f6:	96 1b       	sub	r25, r22

000034f8 <__udivmodqi4_ep>:
    34f8:	88 1f       	adc	r24, r24
    34fa:	7a 95       	dec	r23
    34fc:	c9 f7       	brne	.-14     	; 0x34f0 <__udivmodqi4_loop>
    34fe:	80 95       	com	r24
    3500:	08 95       	ret

00003502 <__udivmodhi4>:
    3502:	aa 1b       	sub	r26, r26
    3504:	bb 1b       	sub	r27, r27
    3506:	51 e1       	ldi	r21, 0x11	; 17
    3508:	07 c0       	rjmp	.+14     	; 0x3518 <__udivmodhi4_ep>

0000350a <__udivmodhi4_loop>:
    350a:	aa 1f       	adc	r26, r26
    350c:	bb 1f       	adc	r27, r27
    350e:	a6 17       	cp	r26, r22
    3510:	b7 07       	cpc	r27, r23
    3512:	10 f0       	brcs	.+4      	; 0x3518 <__udivmodhi4_ep>
    3514:	a6 1b       	sub	r26, r22
    3516:	b7 0b       	sbc	r27, r23

00003518 <__udivmodhi4_ep>:
    3518:	88 1f       	adc	r24, r24
    351a:	99 1f       	adc	r25, r25
    351c:	5a 95       	dec	r21
    351e:	a9 f7       	brne	.-22     	; 0x350a <__udivmodhi4_loop>
    3520:	80 95       	com	r24
    3522:	90 95       	com	r25
    3524:	bc 01       	movw	r22, r24
    3526:	cd 01       	movw	r24, r26
    3528:	08 95       	ret

0000352a <__divmodhi4>:
    352a:	97 fb       	bst	r25, 7
    352c:	07 2e       	mov	r0, r23
    352e:	16 f4       	brtc	.+4      	; 0x3534 <__divmodhi4+0xa>
    3530:	00 94       	com	r0
    3532:	06 d0       	rcall	.+12     	; 0x3540 <__divmodhi4_neg1>
    3534:	77 fd       	sbrc	r23, 7
    3536:	08 d0       	rcall	.+16     	; 0x3548 <__divmodhi4_neg2>
    3538:	e4 df       	rcall	.-56     	; 0x3502 <__udivmodhi4>
    353a:	07 fc       	sbrc	r0, 7
    353c:	05 d0       	rcall	.+10     	; 0x3548 <__divmodhi4_neg2>
    353e:	3e f4       	brtc	.+14     	; 0x354e <__divmodhi4_exit>

00003540 <__divmodhi4_neg1>:
    3540:	90 95       	com	r25
    3542:	81 95       	neg	r24
    3544:	9f 4f       	sbci	r25, 0xFF	; 255
    3546:	08 95       	ret

00003548 <__divmodhi4_neg2>:
    3548:	70 95       	com	r23
    354a:	61 95       	neg	r22
    354c:	7f 4f       	sbci	r23, 0xFF	; 255

0000354e <__divmodhi4_exit>:
    354e:	08 95       	ret

00003550 <__udivmodsi4>:
    3550:	a1 e2       	ldi	r26, 0x21	; 33
    3552:	1a 2e       	mov	r1, r26
    3554:	aa 1b       	sub	r26, r26
    3556:	bb 1b       	sub	r27, r27
    3558:	fd 01       	movw	r30, r26
    355a:	0d c0       	rjmp	.+26     	; 0x3576 <__udivmodsi4_ep>

0000355c <__udivmodsi4_loop>:
    355c:	aa 1f       	adc	r26, r26
    355e:	bb 1f       	adc	r27, r27
    3560:	ee 1f       	adc	r30, r30
    3562:	ff 1f       	adc	r31, r31
    3564:	a2 17       	cp	r26, r18
    3566:	b3 07       	cpc	r27, r19
    3568:	e4 07       	cpc	r30, r20
    356a:	f5 07       	cpc	r31, r21
    356c:	20 f0       	brcs	.+8      	; 0x3576 <__udivmodsi4_ep>
    356e:	a2 1b       	sub	r26, r18
    3570:	b3 0b       	sbc	r27, r19
    3572:	e4 0b       	sbc	r30, r20
    3574:	f5 0b       	sbc	r31, r21

00003576 <__udivmodsi4_ep>:
    3576:	66 1f       	adc	r22, r22
    3578:	77 1f       	adc	r23, r23
    357a:	88 1f       	adc	r24, r24
    357c:	99 1f       	adc	r25, r25
    357e:	1a 94       	dec	r1
    3580:	69 f7       	brne	.-38     	; 0x355c <__udivmodsi4_loop>
    3582:	60 95       	com	r22
    3584:	70 95       	com	r23
    3586:	80 95       	com	r24
    3588:	90 95       	com	r25
    358a:	9b 01       	movw	r18, r22
    358c:	ac 01       	movw	r20, r24
    358e:	bd 01       	movw	r22, r26
    3590:	cf 01       	movw	r24, r30
    3592:	08 95       	ret

00003594 <_exit>:
    3594:	f8 94       	cli

00003596 <__stop_program>:
    3596:	ff cf       	rjmp	.-2      	; 0x3596 <__stop_program>
