
ISR_IO.elf:     file format elf32-avr

Sections:
Idx Name          Size      VMA       LMA       File off  Algn
  0 .data         00000090  00803800  00002514  000025c8  2**0
                  CONTENTS, ALLOC, LOAD, DATA
  1 .text         000024d6  00000000  00000000  000000b4  2**1
                  CONTENTS, ALLOC, LOAD, READONLY, CODE
  2 .rodata       0000003e  0000a4d6  000024d6  0000258a  2**0
                  CONTENTS, ALLOC, LOAD, READONLY, DATA
  3 .bss          000002c2  00803890  00803890  00002658  2**0
                  ALLOC
  4 .comment      00000030  00000000  00000000  00002658  2**0
                  CONTENTS, READONLY
  5 .note.gnu.avr.deviceinfo 00000040  00000000  00000000  00002688  2**2
                  CONTENTS, READONLY
  6 .debug_aranges 00000260  00000000  00000000  000026c8  2**0
                  CONTENTS, READONLY, DEBUGGING
  7 .debug_info   00004fc3  00000000  00000000  00002928  2**0
                  CONTENTS, READONLY, DEBUGGING
  8 .debug_abbrev 0000221d  00000000  00000000  000078eb  2**0
                  CONTENTS, READONLY, DEBUGGING
  9 .debug_line   00002462  00000000  00000000  00009b08  2**0
                  CONTENTS, READONLY, DEBUGGING
 10 .debug_frame  00000738  00000000  00000000  0000bf6c  2**2
                  CONTENTS, READONLY, DEBUGGING
 11 .debug_str    0000172a  00000000  00000000  0000c6a4  2**0
                  CONTENTS, READONLY, DEBUGGING
 12 .debug_loc    0000224a  00000000  00000000  0000ddce  2**0
                  CONTENTS, READONLY, DEBUGGING
 13 .debug_ranges 00000330  00000000  00000000  00010018  2**0
                  CONTENTS, READONLY, DEBUGGING

Disassembly of section .text:

00000000 <__vectors>:
       0:	3d c0       	rjmp	.+122    	; 0x7c <__ctors_end>
       2:	00 00       	nop
       4:	58 c0       	rjmp	.+176    	; 0xb6 <__bad_interrupt>
       6:	00 00       	nop
       8:	56 c0       	rjmp	.+172    	; 0xb6 <__bad_interrupt>
       a:	00 00       	nop
       c:	54 c0       	rjmp	.+168    	; 0xb6 <__bad_interrupt>
       e:	00 00       	nop
      10:	52 c0       	rjmp	.+164    	; 0xb6 <__bad_interrupt>
      12:	00 00       	nop
      14:	50 c0       	rjmp	.+160    	; 0xb6 <__bad_interrupt>
      16:	00 00       	nop
      18:	62 c4       	rjmp	.+2244   	; 0x8de <__vector_6>
      1a:	00 00       	nop
      1c:	b0 c4       	rjmp	.+2400   	; 0x97e <__vector_7>
      1e:	00 00       	nop
      20:	af c2       	rjmp	.+1374   	; 0x580 <__vector_8>
      22:	00 00       	nop
      24:	48 c0       	rjmp	.+144    	; 0xb6 <__bad_interrupt>
      26:	00 00       	nop
      28:	46 c0       	rjmp	.+140    	; 0xb6 <__bad_interrupt>
      2a:	00 00       	nop
      2c:	44 c0       	rjmp	.+136    	; 0xb6 <__bad_interrupt>
      2e:	00 00       	nop
      30:	42 c0       	rjmp	.+132    	; 0xb6 <__bad_interrupt>
      32:	00 00       	nop
      34:	f9 c2       	rjmp	.+1522   	; 0x628 <__vector_13>
      36:	00 00       	nop
      38:	2a c3       	rjmp	.+1620   	; 0x68e <__vector_14>
      3a:	00 00       	nop
      3c:	3c c0       	rjmp	.+120    	; 0xb6 <__bad_interrupt>
      3e:	00 00       	nop
      40:	3a c0       	rjmp	.+116    	; 0xb6 <__bad_interrupt>
      42:	00 00       	nop
      44:	38 c0       	rjmp	.+112    	; 0xb6 <__bad_interrupt>
      46:	00 00       	nop
      48:	36 c0       	rjmp	.+108    	; 0xb6 <__bad_interrupt>
      4a:	00 00       	nop
      4c:	34 c0       	rjmp	.+104    	; 0xb6 <__bad_interrupt>
      4e:	00 00       	nop
      50:	c8 c3       	rjmp	.+1936   	; 0x7e2 <__vector_20>
      52:	00 00       	nop
      54:	30 c0       	rjmp	.+96     	; 0xb6 <__bad_interrupt>
      56:	00 00       	nop
      58:	f2 c3       	rjmp	.+2020   	; 0x83e <__vector_22>
      5a:	00 00       	nop
      5c:	2c c0       	rjmp	.+88     	; 0xb6 <__bad_interrupt>
      5e:	00 00       	nop
      60:	2a c0       	rjmp	.+84     	; 0xb6 <__bad_interrupt>
      62:	00 00       	nop
      64:	28 c0       	rjmp	.+80     	; 0xb6 <__bad_interrupt>
      66:	00 00       	nop
      68:	26 c0       	rjmp	.+76     	; 0xb6 <__bad_interrupt>
      6a:	00 00       	nop
      6c:	63 c3       	rjmp	.+1734   	; 0x734 <__vector_27>
      6e:	00 00       	nop
      70:	9c c3       	rjmp	.+1848   	; 0x7aa <__vector_28>
      72:	00 00       	nop
      74:	20 c0       	rjmp	.+64     	; 0xb6 <__bad_interrupt>
      76:	00 00       	nop
      78:	1e c0       	rjmp	.+60     	; 0xb6 <__bad_interrupt>
	...

0000007c <__ctors_end>:
      7c:	11 24       	eor	r1, r1
      7e:	1f be       	out	0x3f, r1	; 63
      80:	cf ef       	ldi	r28, 0xFF	; 255
      82:	cd bf       	out	0x3d, r28	; 61
      84:	df e3       	ldi	r29, 0x3F	; 63
      86:	de bf       	out	0x3e, r29	; 62

00000088 <__do_copy_data>:
      88:	18 e3       	ldi	r17, 0x38	; 56
      8a:	a0 e0       	ldi	r26, 0x00	; 0
      8c:	b8 e3       	ldi	r27, 0x38	; 56
      8e:	e4 e1       	ldi	r30, 0x14	; 20
      90:	f5 e2       	ldi	r31, 0x25	; 37
      92:	02 c0       	rjmp	.+4      	; 0x98 <__do_copy_data+0x10>
      94:	05 90       	lpm	r0, Z+
      96:	0d 92       	st	X+, r0
      98:	a0 39       	cpi	r26, 0x90	; 144
      9a:	b1 07       	cpc	r27, r17
      9c:	d9 f7       	brne	.-10     	; 0x94 <__do_copy_data+0xc>

0000009e <__do_clear_bss>:
      9e:	2b e3       	ldi	r18, 0x3B	; 59
      a0:	a0 e9       	ldi	r26, 0x90	; 144
      a2:	b8 e3       	ldi	r27, 0x38	; 56
      a4:	01 c0       	rjmp	.+2      	; 0xa8 <.do_clear_bss_start>

000000a6 <.do_clear_bss_loop>:
      a6:	1d 92       	st	X+, r1

000000a8 <.do_clear_bss_start>:
      a8:	a2 35       	cpi	r26, 0x52	; 82
      aa:	b2 07       	cpc	r27, r18
      ac:	e1 f7       	brne	.-8      	; 0xa6 <.do_clear_bss_loop>
      ae:	0e 94 ba 11 	call	0x2374	; 0x2374 <main>
      b2:	0c 94 69 12 	jmp	0x24d2	; 0x24d2 <_exit>

000000b6 <__bad_interrupt>:
      b6:	a4 cf       	rjmp	.-184    	; 0x0 <__vectors>

000000b8 <I2C_init>:

#define NOP() asm volatile(" nop \r\n")

void I2C_init(void)
{
	PORTB_DIRCLR = 0b00000001;	                                    // SCL = PB0, tri-stated high, avoids glitch
      b8:	81 e0       	ldi	r24, 0x01	; 1
      ba:	80 93 22 04 	sts	0x0422, r24	; 0x800422 <__TEXT_REGION_LENGTH__+0x700422>
    PORTB_OUTCLR = 0b00000001;							
      be:	e6 e2       	ldi	r30, 0x26	; 38
      c0:	f4 e0       	ldi	r31, 0x04	; 4
      c2:	80 83       	st	Z, r24
    PORTB_PIN0CTRL = 0;
      c4:	10 92 30 04 	sts	0x0430, r1	; 0x800430 <__TEXT_REGION_LENGTH__+0x700430>
	PORTB_DIRSET = 0b00000010;                                      // SDA = PB1
      c8:	a1 e2       	ldi	r26, 0x21	; 33
      ca:	b4 e0       	ldi	r27, 0x04	; 4
      cc:	92 e0       	ldi	r25, 0x02	; 2
      ce:	9c 93       	st	X, r25
	PORTB_OUTCLR = 0b00000010;
      d0:	90 83       	st	Z, r25
    PORTB_PIN1CTRL = 0;
      d2:	10 92 31 04 	sts	0x0431, r1	; 0x800431 <__TEXT_REGION_LENGTH__+0x700431>

	
	TWI0.MBAUD = (uint8_t) TWI0_BAUD(100000, 0);					// set MBAUD register, TWI0_BAUD macro calculates parameter for 100 kHz
      d6:	e0 e1       	ldi	r30, 0x10	; 16
      d8:	f8 e0       	ldi	r31, 0x08	; 8
      da:	9d e2       	ldi	r25, 0x2D	; 45
      dc:	96 83       	std	Z+6, r25	; 0x06
	TWI0.MCTRLB = TWI_FLUSH_bm;										// clear the internal state of the master
      de:	98 e0       	ldi	r25, 0x08	; 8
      e0:	94 83       	std	Z+4, r25	; 0x04
	TWI0.MCTRLA =	  1 << TWI_ENABLE_bp							// Enable TWI Master: enabled
      e2:	83 83       	std	Z+3, r24	; 0x03
					| 0 << TWI_RIEN_bp								// Read Interrupt Enable: disabled
					| 0 << TWI_SMEN_bp								// Smart Mode Enable: disabled
					| TWI_TIMEOUT_DISABLED_gc						// Bus Timeout Disabled (inoperative, see errata)
					| 0 << TWI_WIEN_bp;								// Write Interrupt Enable: disabled

	PORTB_DIRSET = 0b00000001;	
      e4:	8c 93       	st	X, r24
	
	TWI0.MSTATUS |= TWI_BUSSTATE_IDLE_gc;							// force bus idle
      e6:	85 81       	ldd	r24, Z+5	; 0x05
      e8:	81 60       	ori	r24, 0x01	; 1
      ea:	85 83       	std	Z+5, r24	; 0x05
	TWI0.MSTATUS |= (TWI_RIF_bm | TWI_WIF_bm | TWI_BUSERR_bm);		// clear flags	
      ec:	85 81       	ldd	r24, Z+5	; 0x05
      ee:	84 6c       	ori	r24, 0xC4	; 196
      f0:	85 83       	std	Z+5, r24	; 0x05
      f2:	08 95       	ret

000000f4 <I2C_recover>:
}

void I2C_recover(void)												// clock out I2C bus if in invalid state (e.g. after incomplete transaction)
{
	uint8_t	i;
	TWI0.MCTRLB |= TWI_FLUSH_bm;									// clear the internal state of the master
      f4:	e0 e1       	ldi	r30, 0x10	; 16
      f6:	f8 e0       	ldi	r31, 0x08	; 8
      f8:	84 81       	ldd	r24, Z+4	; 0x04
      fa:	88 60       	ori	r24, 0x08	; 8
      fc:	84 83       	std	Z+4, r24	; 0x04
	TWI0.MCTRLA = 0;												// disable TWI Master
      fe:	13 82       	std	Z+3, r1	; 0x03
	PORTB_DIRCLR = 0b00000010;      								// SDA tri-stated high
     100:	82 e0       	ldi	r24, 0x02	; 2
     102:	80 93 22 04 	sts	0x0422, r24	; 0x800422 <__TEXT_REGION_LENGTH__+0x700422>
	for (i = 0; i < 9; i++)											// SCL, 9 x bit-banging
     106:	80 e0       	ldi	r24, 0x00	; 0
     108:	0e c0       	rjmp	.+28     	; 0x126 <I2C_recover+0x32>
	{
		PORTB_DIRSET = 0b00000001;			        				// 5 us low
     10a:	91 e0       	ldi	r25, 0x01	; 1
     10c:	90 93 21 04 	sts	0x0421, r25	; 0x800421 <__TEXT_REGION_LENGTH__+0x700421>
	#else
		//round up by default
		__ticks_dc = (uint32_t)(ceil(fabs(__tmp)));
	#endif

	__builtin_avr_delay_cycles(__ticks_dc);
     110:	20 e1       	ldi	r18, 0x10	; 16
     112:	2a 95       	dec	r18
     114:	f1 f7       	brne	.-4      	; 0x112 <I2C_recover+0x1e>
     116:	00 c0       	rjmp	.+0      	; 0x118 <I2C_recover+0x24>
		_delay_us(5);
		PORTB_DIRCLR = 0b00000001;      							// 5 us tri-stated high
     118:	90 93 22 04 	sts	0x0422, r25	; 0x800422 <__TEXT_REGION_LENGTH__+0x700422>
     11c:	90 e1       	ldi	r25, 0x10	; 16
     11e:	9a 95       	dec	r25
     120:	f1 f7       	brne	.-4      	; 0x11e <I2C_recover+0x2a>
     122:	00 c0       	rjmp	.+0      	; 0x124 <I2C_recover+0x30>
{
	uint8_t	i;
	TWI0.MCTRLB |= TWI_FLUSH_bm;									// clear the internal state of the master
	TWI0.MCTRLA = 0;												// disable TWI Master
	PORTB_DIRCLR = 0b00000010;      								// SDA tri-stated high
	for (i = 0; i < 9; i++)											// SCL, 9 x bit-banging
     124:	8f 5f       	subi	r24, 0xFF	; 255
     126:	89 30       	cpi	r24, 0x09	; 9
     128:	80 f3       	brcs	.-32     	; 0x10a <I2C_recover+0x16>
	
// re-enable master twice
// for unknown reasons the master might get stuck if re-enabled only once
// second re-enable will fail if SDA not enabled beforehand

	TWI0.MCTRLB = TWI_FLUSH_bm;										// clear the internal state of the master
     12a:	e0 e1       	ldi	r30, 0x10	; 16
     12c:	f8 e0       	ldi	r31, 0x08	; 8
     12e:	28 e0       	ldi	r18, 0x08	; 8
     130:	24 83       	std	Z+4, r18	; 0x04
	TWI0.MCTRLA =	  1 << TWI_ENABLE_bp							// Enable TWI Master: enabled
     132:	81 e0       	ldi	r24, 0x01	; 1
     134:	83 83       	std	Z+3, r24	; 0x03
					| 0 << TWI_RIEN_bp								// Read Interrupt Enable: disabled
					| 0 << TWI_SMEN_bp								// Smart Mode Enable: disabled
					| TWI_TIMEOUT_DISABLED_gc						// Bus Timeout Disabled (inoperative, see errata)
					| 0 << TWI_WIEN_bp;								// Write Interrupt Enable: disabled			

	PORTB_DIRSET = 0b00000010;	
     136:	a1 e2       	ldi	r26, 0x21	; 33
     138:	b4 e0       	ldi	r27, 0x04	; 4
     13a:	92 e0       	ldi	r25, 0x02	; 2
     13c:	9c 93       	st	X, r25

	TWI0.MSTATUS |= TWI_BUSSTATE_IDLE_gc;							// force bus idle
     13e:	95 81       	ldd	r25, Z+5	; 0x05
     140:	91 60       	ori	r25, 0x01	; 1
     142:	95 83       	std	Z+5, r25	; 0x05
	TWI0.MSTATUS |= (TWI_RIF_bm | TWI_WIF_bm | TWI_BUSERR_bm);		// clear flags
     144:	95 81       	ldd	r25, Z+5	; 0x05
     146:	94 6c       	ori	r25, 0xC4	; 196
     148:	95 83       	std	Z+5, r25	; 0x05

	TWI0.MCTRLB = TWI_FLUSH_bm;										// clear the internal state of the master (glitch on SDA)
     14a:	24 83       	std	Z+4, r18	; 0x04
	TWI0.MCTRLA =	  1 << TWI_ENABLE_bp							// Enable TWI Master: enabled
     14c:	83 83       	std	Z+3, r24	; 0x03
					| 0 << TWI_RIEN_bp								// Read Interrupt Enable: disabled
					| 0 << TWI_SMEN_bp								// Smart Mode Enable: disabled
					| TWI_TIMEOUT_DISABLED_gc						// Bus Timeout Disabled (inoperative, see errata)
					| 0 << TWI_WIEN_bp;								// Write Interrupt Enable: disabled

	PORTB_DIRSET = 0b00000001;
     14e:	8c 93       	st	X, r24

	TWI0.MSTATUS |= TWI_BUSSTATE_IDLE_gc;							// force bus idle
     150:	85 81       	ldd	r24, Z+5	; 0x05
     152:	81 60       	ori	r24, 0x01	; 1
     154:	85 83       	std	Z+5, r24	; 0x05
	TWI0.MSTATUS |= (TWI_RIF_bm | TWI_WIF_bm | TWI_BUSERR_bm);		// clear flags
     156:	85 81       	ldd	r24, Z+5	; 0x05
     158:	84 6c       	ori	r24, 0xC4	; 196
     15a:	85 83       	std	Z+5, r24	; 0x05
     15c:	08 95       	ret

0000015e <I2C_start>:
}

uint8_t I2C_start(uint8_t shifted_addr)								// device_addr + LSB set if READ
{
     15e:	28 2f       	mov	r18, r24
	TWI0.MSTATUS |= (TWI_RIF_bm | TWI_WIF_bm);						// clear Read and Write interrupt flags
     160:	e0 e1       	ldi	r30, 0x10	; 16
     162:	f8 e0       	ldi	r31, 0x08	; 8
     164:	95 81       	ldd	r25, Z+5	; 0x05
     166:	90 6c       	ori	r25, 0xC0	; 192
     168:	95 83       	std	Z+5, r25	; 0x05
	if (TWI0.MSTATUS & TWI_BUSERR_bm) return 4;						// Bus Error, abort
     16a:	95 81       	ldd	r25, Z+5	; 0x05
     16c:	89 2f       	mov	r24, r25
     16e:	84 70       	andi	r24, 0x04	; 4
     170:	92 fd       	sbrc	r25, 2
     172:	03 c0       	rjmp	.+6      	; 0x17a <I2C_start+0x1c>
	TWI0.MADDR = shifted_addr;
     174:	20 93 17 08 	sts	0x0817, r18	; 0x800817 <__TEXT_REGION_LENGTH__+0x700817>
	return 0;
     178:	08 95       	ret
}

uint8_t I2C_start(uint8_t shifted_addr)								// device_addr + LSB set if READ
{
	TWI0.MSTATUS |= (TWI_RIF_bm | TWI_WIF_bm);						// clear Read and Write interrupt flags
	if (TWI0.MSTATUS & TWI_BUSERR_bm) return 4;						// Bus Error, abort
     17a:	84 e0       	ldi	r24, 0x04	; 4
	TWI0.MADDR = shifted_addr;
	return 0;
}
     17c:	08 95       	ret

0000017e <I2C_wait_ACK>:

uint8_t I2C_wait_ACK(void)											// wait for slave response after start of Master Write
{
	timeout_I2C = ADDR_TIMEOUT;												// reset timeout counter, will be decremented by LED matrix interrupt
     17e:	8c e0       	ldi	r24, 0x0C	; 12
     180:	80 93 85 3a 	sts	0x3A85, r24	; 0x803a85 <timeout_I2C>
	while (!(TWI0.MSTATUS & TWI_RIF_bm) && !(TWI0.MSTATUS & TWI_WIF_bm))	// wait for RIF or WIF set
     184:	04 c0       	rjmp	.+8      	; 0x18e <I2C_wait_ACK+0x10>
	{
		if (!(timeout_I2C)) return 0xff;				            // return timeout error
     186:	80 91 85 3a 	lds	r24, 0x3A85	; 0x803a85 <timeout_I2C>
     18a:	88 23       	and	r24, r24
     18c:	e1 f0       	breq	.+56     	; 0x1c6 <I2C_wait_ACK+0x48>
}

uint8_t I2C_wait_ACK(void)											// wait for slave response after start of Master Write
{
	timeout_I2C = ADDR_TIMEOUT;												// reset timeout counter, will be decremented by LED matrix interrupt
	while (!(TWI0.MSTATUS & TWI_RIF_bm) && !(TWI0.MSTATUS & TWI_WIF_bm))	// wait for RIF or WIF set
     18e:	80 91 15 08 	lds	r24, 0x0815	; 0x800815 <__TEXT_REGION_LENGTH__+0x700815>
     192:	88 23       	and	r24, r24
     194:	24 f0       	brlt	.+8      	; 0x19e <I2C_wait_ACK+0x20>
     196:	80 91 15 08 	lds	r24, 0x0815	; 0x800815 <__TEXT_REGION_LENGTH__+0x700815>
     19a:	86 ff       	sbrs	r24, 6
     19c:	f4 cf       	rjmp	.-24     	; 0x186 <I2C_wait_ACK+0x8>
	{
		if (!(timeout_I2C)) return 0xff;				            // return timeout error
	}
	TWI0.MSTATUS |= (TWI_RIF_bm | TWI_WIF_bm);						// clear Read and Write interrupt flags
     19e:	e0 e1       	ldi	r30, 0x10	; 16
     1a0:	f8 e0       	ldi	r31, 0x08	; 8
     1a2:	85 81       	ldd	r24, Z+5	; 0x05
     1a4:	80 6c       	ori	r24, 0xC0	; 192
     1a6:	85 83       	std	Z+5, r24	; 0x05
	if (TWI0.MSTATUS & TWI_BUSERR_bm) return 4;						// Bus Error, abort
     1a8:	85 81       	ldd	r24, Z+5	; 0x05
     1aa:	82 fd       	sbrc	r24, 2
     1ac:	0e c0       	rjmp	.+28     	; 0x1ca <I2C_wait_ACK+0x4c>
	if (TWI0.MSTATUS & TWI_ARBLOST_bm) return 2;					// Arbitration Lost, abort
     1ae:	80 91 15 08 	lds	r24, 0x0815	; 0x800815 <__TEXT_REGION_LENGTH__+0x700815>
     1b2:	83 fd       	sbrc	r24, 3
     1b4:	0c c0       	rjmp	.+24     	; 0x1ce <I2C_wait_ACK+0x50>
	if (TWI0.MSTATUS & TWI_RXACK_bm) return 1;						// Slave replied with NACK, abort
     1b6:	90 91 15 08 	lds	r25, 0x0815	; 0x800815 <__TEXT_REGION_LENGTH__+0x700815>
     1ba:	89 2f       	mov	r24, r25
     1bc:	80 71       	andi	r24, 0x10	; 16
     1be:	94 ff       	sbrs	r25, 4
     1c0:	07 c0       	rjmp	.+14     	; 0x1d0 <I2C_wait_ACK+0x52>
     1c2:	81 e0       	ldi	r24, 0x01	; 1
     1c4:	08 95       	ret
uint8_t I2C_wait_ACK(void)											// wait for slave response after start of Master Write
{
	timeout_I2C = ADDR_TIMEOUT;												// reset timeout counter, will be decremented by LED matrix interrupt
	while (!(TWI0.MSTATUS & TWI_RIF_bm) && !(TWI0.MSTATUS & TWI_WIF_bm))	// wait for RIF or WIF set
	{
		if (!(timeout_I2C)) return 0xff;				            // return timeout error
     1c6:	8f ef       	ldi	r24, 0xFF	; 255
     1c8:	08 95       	ret
	}
	TWI0.MSTATUS |= (TWI_RIF_bm | TWI_WIF_bm);						// clear Read and Write interrupt flags
	if (TWI0.MSTATUS & TWI_BUSERR_bm) return 4;						// Bus Error, abort
     1ca:	84 e0       	ldi	r24, 0x04	; 4
     1cc:	08 95       	ret
	if (TWI0.MSTATUS & TWI_ARBLOST_bm) return 2;					// Arbitration Lost, abort
     1ce:	82 e0       	ldi	r24, 0x02	; 2
	if (TWI0.MSTATUS & TWI_RXACK_bm) return 1;						// Slave replied with NACK, abort
	return 0;														// no error
}
     1d0:	08 95       	ret

000001d2 <I2C_rep_start>:
// the Atmel device documentation mentions a special command for repeated start TWI_MCMD_REPSTART_gc,
// but this is not used in Atmel's demo code, so we don't use it either

void I2C_rep_start(uint8_t shifted_addr)						    // send repeated start, device_addr + LSB set if READ
{
	TWI0.MADDR = shifted_addr;	
     1d2:	80 93 17 08 	sts	0x0817, r24	; 0x800817 <__TEXT_REGION_LENGTH__+0x700817>
     1d6:	08 95       	ret

000001d8 <I2C_read>:
}

uint8_t	I2C_read(uint8_t *data, uint8_t ack_flag)					// read data, ack_flag 0: send ACK, 1: send NACK, returns status
{
     1d8:	fc 01       	movw	r30, r24
	timeout_I2C = READ_TIMEOUT;										// reset timeout counter, will be decremented by LED matrix interrupt
     1da:	9c e0       	ldi	r25, 0x0C	; 12
     1dc:	90 93 85 3a 	sts	0x3A85, r25	; 0x803a85 <timeout_I2C>
	if ((TWI0.MSTATUS & TWI_BUSSTATE_gm) == TWI_BUSSTATE_OWNER_gc)	// if master controls bus
     1e0:	90 91 15 08 	lds	r25, 0x0815	; 0x800815 <__TEXT_REGION_LENGTH__+0x700815>
     1e4:	89 2f       	mov	r24, r25
     1e6:	83 70       	andi	r24, 0x03	; 3
     1e8:	82 30       	cpi	r24, 0x02	; 2
     1ea:	31 f0       	breq	.+12     	; 0x1f8 <I2C_read+0x20>
		else		TWI0.MCTRLB |= TWI_ACKACT_NACK_gc;				// setup NACK (last byte read)
		*data = TWI0.MDATA;
		if (ack_flag == 0) TWI0.MCTRLB |= TWI_MCMD_RECVTRANS_gc;	// send ACK, more bytes to follow					
		return 0;
	}
	else return 8;													// master does not control bus
     1ec:	88 e0       	ldi	r24, 0x08	; 8
     1ee:	08 95       	ret
	timeout_I2C = READ_TIMEOUT;										// reset timeout counter, will be decremented by LED matrix interrupt
	if ((TWI0.MSTATUS & TWI_BUSSTATE_gm) == TWI_BUSSTATE_OWNER_gc)	// if master controls bus
	{		
		while (!(TWI0.MSTATUS & TWI_RIF_bm))						// wait for RIF set (data byte received)
		{
			if (!(timeout_I2C)) return 0xff;			            // return timeout error
     1f0:	90 91 85 3a 	lds	r25, 0x3A85	; 0x803a85 <timeout_I2C>
     1f4:	99 23       	and	r25, r25
     1f6:	c1 f1       	breq	.+112    	; 0x268 <I2C_read+0x90>
uint8_t	I2C_read(uint8_t *data, uint8_t ack_flag)					// read data, ack_flag 0: send ACK, 1: send NACK, returns status
{
	timeout_I2C = READ_TIMEOUT;										// reset timeout counter, will be decremented by LED matrix interrupt
	if ((TWI0.MSTATUS & TWI_BUSSTATE_gm) == TWI_BUSSTATE_OWNER_gc)	// if master controls bus
	{		
		while (!(TWI0.MSTATUS & TWI_RIF_bm))						// wait for RIF set (data byte received)
     1f8:	90 91 15 08 	lds	r25, 0x0815	; 0x800815 <__TEXT_REGION_LENGTH__+0x700815>
     1fc:	99 23       	and	r25, r25
     1fe:	c4 f7       	brge	.-16     	; 0x1f0 <I2C_read+0x18>
		{
			if (!(timeout_I2C)) return 0xff;			            // return timeout error
		}
		TWI0.MSTATUS |= (TWI_RIF_bm | TWI_WIF_bm);					// clear Read and Write interrupt flags	
     200:	a0 e1       	ldi	r26, 0x10	; 16
     202:	b8 e0       	ldi	r27, 0x08	; 8
     204:	15 96       	adiw	r26, 0x05	; 5
     206:	9c 91       	ld	r25, X
     208:	15 97       	sbiw	r26, 0x05	; 5
     20a:	90 6c       	ori	r25, 0xC0	; 192
     20c:	15 96       	adiw	r26, 0x05	; 5
     20e:	9c 93       	st	X, r25
     210:	15 97       	sbiw	r26, 0x05	; 5
		if (TWI0.MSTATUS & TWI_BUSERR_bm) return 4;					// Bus Error, abort
     212:	15 96       	adiw	r26, 0x05	; 5
     214:	9c 91       	ld	r25, X
     216:	15 97       	sbiw	r26, 0x05	; 5
     218:	92 fd       	sbrc	r25, 2
     21a:	28 c0       	rjmp	.+80     	; 0x26c <I2C_read+0x94>
		if (TWI0.MSTATUS & TWI_ARBLOST_bm) return 2;				// Arbitration Lost, abort
     21c:	90 91 15 08 	lds	r25, 0x0815	; 0x800815 <__TEXT_REGION_LENGTH__+0x700815>
     220:	93 fd       	sbrc	r25, 3
     222:	27 c0       	rjmp	.+78     	; 0x272 <I2C_read+0x9a>
		if (TWI0.MSTATUS & TWI_RXACK_bm) return 1;					// Slave replied with NACK, abort				
     224:	90 91 15 08 	lds	r25, 0x0815	; 0x800815 <__TEXT_REGION_LENGTH__+0x700815>
     228:	89 2f       	mov	r24, r25
     22a:	80 71       	andi	r24, 0x10	; 16
     22c:	94 fd       	sbrc	r25, 4
     22e:	20 c0       	rjmp	.+64     	; 0x270 <I2C_read+0x98>
		if (ack_flag == 0) TWI0.MCTRLB &= ~(1 << TWI_ACKACT_bp);	// setup ACK
     230:	61 11       	cpse	r22, r1
     232:	07 c0       	rjmp	.+14     	; 0x242 <I2C_read+0x6a>
     234:	14 96       	adiw	r26, 0x04	; 4
     236:	9c 91       	ld	r25, X
     238:	14 97       	sbiw	r26, 0x04	; 4
     23a:	9b 7f       	andi	r25, 0xFB	; 251
     23c:	14 96       	adiw	r26, 0x04	; 4
     23e:	9c 93       	st	X, r25
     240:	08 c0       	rjmp	.+16     	; 0x252 <I2C_read+0x7a>
		else		TWI0.MCTRLB |= TWI_ACKACT_NACK_gc;				// setup NACK (last byte read)
     242:	a0 e1       	ldi	r26, 0x10	; 16
     244:	b8 e0       	ldi	r27, 0x08	; 8
     246:	14 96       	adiw	r26, 0x04	; 4
     248:	9c 91       	ld	r25, X
     24a:	14 97       	sbiw	r26, 0x04	; 4
     24c:	94 60       	ori	r25, 0x04	; 4
     24e:	14 96       	adiw	r26, 0x04	; 4
     250:	9c 93       	st	X, r25
		*data = TWI0.MDATA;
     252:	90 91 18 08 	lds	r25, 0x0818	; 0x800818 <__TEXT_REGION_LENGTH__+0x700818>
     256:	90 83       	st	Z, r25
		if (ack_flag == 0) TWI0.MCTRLB |= TWI_MCMD_RECVTRANS_gc;	// send ACK, more bytes to follow					
     258:	61 11       	cpse	r22, r1
     25a:	0b c0       	rjmp	.+22     	; 0x272 <I2C_read+0x9a>
     25c:	e0 e1       	ldi	r30, 0x10	; 16
     25e:	f8 e0       	ldi	r31, 0x08	; 8
     260:	94 81       	ldd	r25, Z+4	; 0x04
     262:	92 60       	ori	r25, 0x02	; 2
     264:	94 83       	std	Z+4, r25	; 0x04
     266:	08 95       	ret
	timeout_I2C = READ_TIMEOUT;										// reset timeout counter, will be decremented by LED matrix interrupt
	if ((TWI0.MSTATUS & TWI_BUSSTATE_gm) == TWI_BUSSTATE_OWNER_gc)	// if master controls bus
	{		
		while (!(TWI0.MSTATUS & TWI_RIF_bm))						// wait for RIF set (data byte received)
		{
			if (!(timeout_I2C)) return 0xff;			            // return timeout error
     268:	8f ef       	ldi	r24, 0xFF	; 255
     26a:	08 95       	ret
		}
		TWI0.MSTATUS |= (TWI_RIF_bm | TWI_WIF_bm);					// clear Read and Write interrupt flags	
		if (TWI0.MSTATUS & TWI_BUSERR_bm) return 4;					// Bus Error, abort
     26c:	84 e0       	ldi	r24, 0x04	; 4
     26e:	08 95       	ret
		if (TWI0.MSTATUS & TWI_ARBLOST_bm) return 2;				// Arbitration Lost, abort
		if (TWI0.MSTATUS & TWI_RXACK_bm) return 1;					// Slave replied with NACK, abort				
     270:	81 e0       	ldi	r24, 0x01	; 1
		*data = TWI0.MDATA;
		if (ack_flag == 0) TWI0.MCTRLB |= TWI_MCMD_RECVTRANS_gc;	// send ACK, more bytes to follow					
		return 0;
	}
	else return 8;													// master does not control bus
}
     272:	08 95       	ret

00000274 <I2C_write>:

uint8_t I2C_write(uint8_t *data)									// write data, return status
{
     274:	fc 01       	movw	r30, r24
	timeout_I2C = WRITE_TIMEOUT;									// reset timeout counter, will be decremented by LED matrix interrupt
     276:	9c e0       	ldi	r25, 0x0C	; 12
     278:	90 93 85 3a 	sts	0x3A85, r25	; 0x803a85 <timeout_I2C>
	if ((TWI0.MSTATUS & TWI_BUSSTATE_gm) == TWI_BUSSTATE_OWNER_gc)	// if master controls bus
     27c:	90 91 15 08 	lds	r25, 0x0815	; 0x800815 <__TEXT_REGION_LENGTH__+0x700815>
     280:	93 70       	andi	r25, 0x03	; 3
     282:	92 30       	cpi	r25, 0x02	; 2
     284:	c1 f4       	brne	.+48     	; 0x2b6 <I2C_write+0x42>
	{
		TWI0.MDATA = *data;		
     286:	80 81       	ld	r24, Z
     288:	80 93 18 08 	sts	0x0818, r24	; 0x800818 <__TEXT_REGION_LENGTH__+0x700818>
		while (!(TWI0.MSTATUS & TWI_WIF_bm))						// wait until WIF set, status register contains ACK/NACK bit
     28c:	04 c0       	rjmp	.+8      	; 0x296 <I2C_write+0x22>
		{
			if (!(timeout_I2C)) return 0xff;			            // return timeout error
     28e:	80 91 85 3a 	lds	r24, 0x3A85	; 0x803a85 <timeout_I2C>
     292:	88 23       	and	r24, r24
     294:	91 f0       	breq	.+36     	; 0x2ba <I2C_write+0x46>
{
	timeout_I2C = WRITE_TIMEOUT;									// reset timeout counter, will be decremented by LED matrix interrupt
	if ((TWI0.MSTATUS & TWI_BUSSTATE_gm) == TWI_BUSSTATE_OWNER_gc)	// if master controls bus
	{
		TWI0.MDATA = *data;		
		while (!(TWI0.MSTATUS & TWI_WIF_bm))						// wait until WIF set, status register contains ACK/NACK bit
     296:	80 91 15 08 	lds	r24, 0x0815	; 0x800815 <__TEXT_REGION_LENGTH__+0x700815>
     29a:	86 ff       	sbrs	r24, 6
     29c:	f8 cf       	rjmp	.-16     	; 0x28e <I2C_write+0x1a>
		{
			if (!(timeout_I2C)) return 0xff;			            // return timeout error
		}
		if (TWI0.MSTATUS & TWI_BUSERR_bm) return 4;					// Bus Error, abort
     29e:	80 91 15 08 	lds	r24, 0x0815	; 0x800815 <__TEXT_REGION_LENGTH__+0x700815>
     2a2:	82 fd       	sbrc	r24, 2
     2a4:	0c c0       	rjmp	.+24     	; 0x2be <I2C_write+0x4a>
		if (TWI0.MSTATUS & TWI_RXACK_bm) return 1;					// Slave replied with NACK, abort
     2a6:	90 91 15 08 	lds	r25, 0x0815	; 0x800815 <__TEXT_REGION_LENGTH__+0x700815>
     2aa:	89 2f       	mov	r24, r25
     2ac:	80 71       	andi	r24, 0x10	; 16
     2ae:	94 ff       	sbrs	r25, 4
     2b0:	07 c0       	rjmp	.+14     	; 0x2c0 <I2C_write+0x4c>
     2b2:	81 e0       	ldi	r24, 0x01	; 1
     2b4:	08 95       	ret
		return 0;													// no error	
	}
	else return 8;													// master does not control bus
     2b6:	88 e0       	ldi	r24, 0x08	; 8
     2b8:	08 95       	ret
	if ((TWI0.MSTATUS & TWI_BUSSTATE_gm) == TWI_BUSSTATE_OWNER_gc)	// if master controls bus
	{
		TWI0.MDATA = *data;		
		while (!(TWI0.MSTATUS & TWI_WIF_bm))						// wait until WIF set, status register contains ACK/NACK bit
		{
			if (!(timeout_I2C)) return 0xff;			            // return timeout error
     2ba:	8f ef       	ldi	r24, 0xFF	; 255
     2bc:	08 95       	ret
		}
		if (TWI0.MSTATUS & TWI_BUSERR_bm) return 4;					// Bus Error, abort
     2be:	84 e0       	ldi	r24, 0x04	; 4
		if (TWI0.MSTATUS & TWI_RXACK_bm) return 1;					// Slave replied with NACK, abort
		return 0;													// no error	
	}
	else return 8;													// master does not control bus
}
     2c0:	08 95       	ret

000002c2 <I2C_stop>:

void I2C_stop()
{
	TWI0.MCTRLB |= TWI_MCMD_STOP_gc;
     2c2:	e0 e1       	ldi	r30, 0x10	; 16
     2c4:	f8 e0       	ldi	r31, 0x08	; 8
     2c6:	84 81       	ldd	r24, Z+4	; 0x04
     2c8:	83 60       	ori	r24, 0x03	; 3
     2ca:	84 83       	std	Z+4, r24	; 0x04
     2cc:	08 95       	ret

000002ce <I2C_read_bytes>:
// addr_ptr		address of first array element to transfer
// slave reg	starting slave register
// num_bytes	number of bytes to transfer

uint8_t	I2C_read_bytes(uint8_t slave_addr, uint8_t *reg_ptr, uint8_t reg_len, uint8_t *dat_ptr, uint8_t dat_len)
{
     2ce:	cf 92       	push	r12
     2d0:	df 92       	push	r13
     2d2:	ef 92       	push	r14
     2d4:	ff 92       	push	r15
     2d6:	0f 93       	push	r16
     2d8:	cf 93       	push	r28
     2da:	df 93       	push	r29
     2dc:	7b 01       	movw	r14, r22
     2de:	c4 2f       	mov	r28, r20
     2e0:	69 01       	movw	r12, r18
	uint8_t status;
	if (dat_len > MAX_LEN) dat_len = MAX_LEN;
     2e2:	01 34       	cpi	r16, 0x41	; 65
     2e4:	08 f0       	brcs	.+2      	; 0x2e8 <I2C_read_bytes+0x1a>
     2e6:	00 e4       	ldi	r16, 0x40	; 64
	status = I2C_start(slave_addr << 1);							// slave write address, LSB 0
     2e8:	d8 2f       	mov	r29, r24
     2ea:	dd 0f       	add	r29, r29
     2ec:	8d 2f       	mov	r24, r29
     2ee:	37 df       	rcall	.-402    	; 0x15e <I2C_start>
	if (status != 0) goto error;
     2f0:	81 11       	cpse	r24, r1
	status = I2C_wait_ACK();										// wait for slave ACK
     2f2:	2a c0       	rjmp	.+84     	; 0x348 <I2C_read_bytes+0x7a>
     2f4:	44 df       	rcall	.-376    	; 0x17e <I2C_wait_ACK>
	if (status == 1) {
     2f6:	81 30       	cpi	r24, 0x01	; 1
		I2C_stop();													// NACK, abort
     2f8:	19 f4       	brne	.+6      	; 0x300 <I2C_read_bytes+0x32>
     2fa:	e3 df       	rcall	.-58     	; 0x2c2 <I2C_stop>
		return 1;
     2fc:	81 e0       	ldi	r24, 0x01	; 1
     2fe:	26 c0       	rjmp	.+76     	; 0x34c <I2C_read_bytes+0x7e>
	}
	if (status != 0) goto error;
     300:	81 11       	cpse	r24, r1
     302:	22 c0       	rjmp	.+68     	; 0x348 <I2C_read_bytes+0x7a>
    while(reg_len > 0){
	    status = I2C_write(reg_ptr);    							// send slave start register
     304:	08 c0       	rjmp	.+16     	; 0x316 <I2C_read_bytes+0x48>
     306:	c7 01       	movw	r24, r14
     308:	b5 df       	rcall	.-150    	; 0x274 <I2C_write>
	    if (status != 0) goto error;
     30a:	81 11       	cpse	r24, r1
     30c:	1d c0       	rjmp	.+58     	; 0x348 <I2C_read_bytes+0x7a>
        ++reg_ptr;
     30e:	8f ef       	ldi	r24, 0xFF	; 255
     310:	e8 1a       	sub	r14, r24
     312:	f8 0a       	sbc	r15, r24
        --reg_len;
     314:	c1 50       	subi	r28, 0x01	; 1
	if (status == 1) {
		I2C_stop();													// NACK, abort
		return 1;
	}
	if (status != 0) goto error;
    while(reg_len > 0){
     316:	c1 11       	cpse	r28, r1
	    status = I2C_write(reg_ptr);    							// send slave start register
	    if (status != 0) goto error;
        ++reg_ptr;
        --reg_len;
    }
	I2C_rep_start((slave_addr << 1) + 1);							// slave read address, LSB 1
     318:	f6 cf       	rjmp	.-20     	; 0x306 <I2C_read_bytes+0x38>
     31a:	81 e0       	ldi	r24, 0x01	; 1
     31c:	8d 0f       	add	r24, r29
	while (dat_len > 1) {
     31e:	59 df       	rcall	.-334    	; 0x1d2 <I2C_rep_start>
		status = I2C_read(dat_ptr, 0);								// first bytes, send ACK
     320:	09 c0       	rjmp	.+18     	; 0x334 <I2C_read_bytes+0x66>
     322:	60 e0       	ldi	r22, 0x00	; 0
     324:	c6 01       	movw	r24, r12
     326:	58 df       	rcall	.-336    	; 0x1d8 <I2C_read>
		if (status != 0) goto error;
     328:	81 11       	cpse	r24, r1
     32a:	0e c0       	rjmp	.+28     	; 0x348 <I2C_read_bytes+0x7a>
		++dat_ptr;
     32c:	8f ef       	ldi	r24, 0xFF	; 255
     32e:	c8 1a       	sub	r12, r24
		--dat_len;
     330:	d8 0a       	sbc	r13, r24
	    if (status != 0) goto error;
        ++reg_ptr;
        --reg_len;
    }
	I2C_rep_start((slave_addr << 1) + 1);							// slave read address, LSB 1
	while (dat_len > 1) {
     332:	01 50       	subi	r16, 0x01	; 1
		status = I2C_read(dat_ptr, 0);								// first bytes, send ACK
		if (status != 0) goto error;
		++dat_ptr;
		--dat_len;
	}
	status = I2C_read(dat_ptr, 1);									// single or last byte, send NACK
     334:	02 30       	cpi	r16, 0x02	; 2
     336:	a8 f7       	brcc	.-22     	; 0x322 <I2C_read_bytes+0x54>
     338:	61 e0       	ldi	r22, 0x01	; 1
	if (status != 0) goto error;
     33a:	c6 01       	movw	r24, r12
     33c:	4d df       	rcall	.-358    	; 0x1d8 <I2C_read>
	I2C_stop();
     33e:	81 11       	cpse	r24, r1
     340:	03 c0       	rjmp	.+6      	; 0x348 <I2C_read_bytes+0x7a>
	return 0;
     342:	bf df       	rcall	.-130    	; 0x2c2 <I2C_stop>
     344:	80 e0       	ldi	r24, 0x00	; 0
	
error:
	I2C_recover();													// clock out possibly stuck slave, reset master
     346:	02 c0       	rjmp	.+4      	; 0x34c <I2C_read_bytes+0x7e>
     348:	d5 de       	rcall	.-598    	; 0xf4 <I2C_recover>
	return 0xff;													// flag error
     34a:	8f ef       	ldi	r24, 0xFF	; 255
}
     34c:	df 91       	pop	r29
     34e:	cf 91       	pop	r28
     350:	0f 91       	pop	r16
     352:	ff 90       	pop	r15
     354:	ef 90       	pop	r14
     356:	df 90       	pop	r13
     358:	cf 90       	pop	r12
     35a:	08 95       	ret

0000035c <Setup>:
// Select "audio" input (0-2.5V)
void SelectAuIn(){
     VREF_CTRLA   = 0x22;    //0x22 for audio in/out (2.5V), 0x12 for temperature in, audio out (1.1V/2.5V)
     ADC0_CTRLA   &= ~(ADC_RESSEL_bm);
     ADC0_MUXPOS  = 0x07;    //Audio in: AIN7 at (0x07), Temperature: Internal sensor at (0x1E)
     adc0Chg = 1;
     35c:	cf 93       	push	r28
     35e:	df 93       	push	r29
     360:	f8 94       	cli
     362:	88 ed       	ldi	r24, 0xD8	; 216
     364:	84 bf       	out	0x34, r24	; 52
     366:	c1 e0       	ldi	r28, 0x01	; 1
     368:	c0 93 61 00 	sts	0x0061, r28	; 0x800061 <__TEXT_REGION_LENGTH__+0x700061>
     36c:	8a e4       	ldi	r24, 0x4A	; 74
     36e:	80 93 00 04 	sts	0x0400, r24	; 0x800400 <__TEXT_REGION_LENGTH__+0x700400>
     372:	8c e7       	ldi	r24, 0x7C	; 124
     374:	80 93 20 04 	sts	0x0420, r24	; 0x800420 <__TEXT_REGION_LENGTH__+0x700420>
     378:	9f e3       	ldi	r25, 0x3F	; 63
     37a:	90 93 40 04 	sts	0x0440, r25	; 0x800440 <__TEXT_REGION_LENGTH__+0x700440>
     37e:	e0 e5       	ldi	r30, 0x50	; 80
     380:	f4 e0       	ldi	r31, 0x04	; 4
     382:	80 81       	ld	r24, Z
     384:	80 68       	ori	r24, 0x80	; 128
     386:	80 83       	st	Z, r24
     388:	e1 e5       	ldi	r30, 0x51	; 81
     38a:	f4 e0       	ldi	r31, 0x04	; 4
     38c:	80 81       	ld	r24, Z
     38e:	80 68       	ori	r24, 0x80	; 128
     390:	80 83       	st	Z, r24
     392:	e2 e5       	ldi	r30, 0x52	; 82
     394:	f4 e0       	ldi	r31, 0x04	; 4
     396:	80 81       	ld	r24, Z
     398:	80 68       	ori	r24, 0x80	; 128
     39a:	80 83       	st	Z, r24
     39c:	e3 e5       	ldi	r30, 0x53	; 83
     39e:	f4 e0       	ldi	r31, 0x04	; 4
     3a0:	80 81       	ld	r24, Z
     3a2:	80 68       	ori	r24, 0x80	; 128
     3a4:	80 83       	st	Z, r24
     3a6:	e4 e5       	ldi	r30, 0x54	; 84
     3a8:	f4 e0       	ldi	r31, 0x04	; 4
     3aa:	80 81       	ld	r24, Z
     3ac:	80 68       	ori	r24, 0x80	; 128
     3ae:	80 83       	st	Z, r24
     3b0:	e5 e5       	ldi	r30, 0x55	; 85
     3b2:	f4 e0       	ldi	r31, 0x04	; 4
     3b4:	80 81       	ld	r24, Z
     3b6:	80 68       	ori	r24, 0x80	; 128
     3b8:	80 83       	st	Z, r24
     3ba:	e2 e3       	ldi	r30, 0x32	; 50
     3bc:	f4 e0       	ldi	r31, 0x04	; 4
     3be:	80 81       	ld	r24, Z
     3c0:	80 68       	ori	r24, 0x80	; 128
     3c2:	80 83       	st	Z, r24
     3c4:	e3 e3       	ldi	r30, 0x33	; 51
     3c6:	f4 e0       	ldi	r31, 0x04	; 4
     3c8:	80 81       	ld	r24, Z
     3ca:	80 68       	ori	r24, 0x80	; 128
     3cc:	80 83       	st	Z, r24
     3ce:	e4 e3       	ldi	r30, 0x34	; 52
     3d0:	f4 e0       	ldi	r31, 0x04	; 4
     3d2:	80 81       	ld	r24, Z
     3d4:	80 68       	ori	r24, 0x80	; 128
     3d6:	80 83       	st	Z, r24
     3d8:	e5 e3       	ldi	r30, 0x35	; 53
     3da:	f4 e0       	ldi	r31, 0x04	; 4
     3dc:	80 81       	ld	r24, Z
     3de:	80 68       	ori	r24, 0x80	; 128
     3e0:	80 83       	st	Z, r24
     3e2:	e6 e3       	ldi	r30, 0x36	; 54
     3e4:	f4 e0       	ldi	r31, 0x04	; 4
     3e6:	80 81       	ld	r24, Z
     3e8:	80 68       	ori	r24, 0x80	; 128
     3ea:	80 83       	st	Z, r24
     3ec:	c0 93 01 02 	sts	0x0201, r28	; 0x800201 <__TEXT_REGION_LENGTH__+0x700201>
     3f0:	d2 e0       	ldi	r29, 0x02	; 2
     3f2:	d0 93 05 04 	sts	0x0405, r29	; 0x800405 <__TEXT_REGION_LENGTH__+0x700405>
     3f6:	2b e5       	ldi	r18, 0x5B	; 91
     3f8:	31 e0       	ldi	r19, 0x01	; 1
     3fa:	20 93 08 08 	sts	0x0808, r18	; 0x800808 <__TEXT_REGION_LENGTH__+0x700808>
     3fe:	30 93 09 08 	sts	0x0809, r19	; 0x800809 <__TEXT_REGION_LENGTH__+0x700809>
     402:	80 ea       	ldi	r24, 0xA0	; 160
     404:	80 93 05 08 	sts	0x0805, r24	; 0x800805 <__TEXT_REGION_LENGTH__+0x700805>
     408:	80 ec       	ldi	r24, 0xC0	; 192
     40a:	80 93 06 08 	sts	0x0806, r24	; 0x800806 <__TEXT_REGION_LENGTH__+0x700806>
     40e:	83 e0       	ldi	r24, 0x03	; 3
     410:	80 93 07 08 	sts	0x0807, r24	; 0x800807 <__TEXT_REGION_LENGTH__+0x700807>
     414:	1c ba       	out	0x1c, r1	; 28
     416:	1d ba       	out	0x1d, r1	; 29
     418:	1e ba       	out	0x1e, r1	; 30
     41a:	1f ba       	out	0x1f, r1	; 31
     41c:	c0 93 03 0a 	sts	0x0A03, r28	; 0x800a03 <__TEXT_REGION_LENGTH__+0x700a03>
     420:	e0 e0       	ldi	r30, 0x00	; 0
     422:	fa e0       	ldi	r31, 0x0A	; 10
     424:	88 e0       	ldi	r24, 0x08	; 8
     426:	80 83       	st	Z, r24
     428:	90 93 02 02 	sts	0x0202, r25	; 0x800202 <__TEXT_REGION_LENGTH__+0x700202>
     42c:	87 e7       	ldi	r24, 0x77	; 119
     42e:	80 93 01 0a 	sts	0x0A01, r24	; 0x800a01 <__TEXT_REGION_LENGTH__+0x700a01>
     432:	c0 93 0a 0a 	sts	0x0A0A, r28	; 0x800a0a <__TEXT_REGION_LENGTH__+0x700a0a>
     436:	8b e0       	ldi	r24, 0x0B	; 11
     438:	80 93 05 0a 	sts	0x0A05, r24	; 0x800a05 <__TEXT_REGION_LENGTH__+0x700a05>
     43c:	80 81       	ld	r24, Z
     43e:	81 60       	ori	r24, 0x01	; 1
     440:	80 83       	st	Z, r24
     442:	85 e0       	ldi	r24, 0x05	; 5
     444:	80 93 40 0a 	sts	0x0A40, r24	; 0x800a40 <__TEXT_REGION_LENGTH__+0x700a40>
     448:	10 92 41 0a 	sts	0x0A41, r1	; 0x800a41 <__TEXT_REGION_LENGTH__+0x700a41>
     44c:	8f ef       	ldi	r24, 0xFF	; 255
     44e:	91 e0       	ldi	r25, 0x01	; 1
     450:	80 93 4c 0a 	sts	0x0A4C, r24	; 0x800a4c <__TEXT_REGION_LENGTH__+0x700a4c>
     454:	90 93 4d 0a 	sts	0x0A4D, r25	; 0x800a4d <__TEXT_REGION_LENGTH__+0x700a4d>
     458:	10 92 45 0a 	sts	0x0A45, r1	; 0x800a45 <__TEXT_REGION_LENGTH__+0x700a45>
     45c:	c0 93 50 0a 	sts	0x0A50, r28	; 0x800a50 <__TEXT_REGION_LENGTH__+0x700a50>
     460:	10 92 51 0a 	sts	0x0A51, r1	; 0x800a51 <__TEXT_REGION_LENGTH__+0x700a51>
     464:	8b e8       	ldi	r24, 0x8B	; 139
     466:	93 e0       	ldi	r25, 0x03	; 3
     468:	80 93 5c 0a 	sts	0x0A5C, r24	; 0x800a5c <__TEXT_REGION_LENGTH__+0x700a5c>
     46c:	90 93 5d 0a 	sts	0x0A5D, r25	; 0x800a5d <__TEXT_REGION_LENGTH__+0x700a5d>
     470:	c0 93 55 0a 	sts	0x0A55, r28	; 0x800a55 <__TEXT_REGION_LENGTH__+0x700a55>
     474:	21 de       	rcall	.-958    	; 0xb8 <I2C_init>
     476:	82 e1       	ldi	r24, 0x12	; 18
     478:	80 93 a0 00 	sts	0x00A0, r24	; 0x8000a0 <__TEXT_REGION_LENGTH__+0x7000a0>
     47c:	80 e2       	ldi	r24, 0x20	; 32
     47e:	80 93 a2 00 	sts	0x00A2, r24	; 0x8000a2 <__TEXT_REGION_LENGTH__+0x7000a2>
     482:	c0 93 a1 00 	sts	0x00A1, r28	; 0x8000a1 <__TEXT_REGION_LENGTH__+0x7000a1>
     486:	e0 e0       	ldi	r30, 0x00	; 0
     488:	f6 e0       	ldi	r31, 0x06	; 6
     48a:	86 e0       	ldi	r24, 0x06	; 6
     48c:	80 83       	st	Z, r24
     48e:	84 e4       	ldi	r24, 0x44	; 68
     490:	80 93 02 06 	sts	0x0602, r24	; 0x800602 <__TEXT_REGION_LENGTH__+0x700602>
     494:	8e e1       	ldi	r24, 0x1E	; 30
     496:	80 93 06 06 	sts	0x0606, r24	; 0x800606 <__TEXT_REGION_LENGTH__+0x700606>
     49a:	c0 93 0a 06 	sts	0x060A, r28	; 0x80060a <__TEXT_REGION_LENGTH__+0x70060a>
     49e:	80 81       	ld	r24, Z
     4a0:	81 60       	ori	r24, 0x01	; 1
     4a2:	80 83       	st	Z, r24
     4a4:	c0 93 08 06 	sts	0x0608, r28	; 0x800608 <__TEXT_REGION_LENGTH__+0x700608>
     4a8:	e0 e4       	ldi	r30, 0x40	; 64
     4aa:	f6 e0       	ldi	r31, 0x06	; 6
     4ac:	10 82       	st	Z, r1
     4ae:	d0 93 41 06 	sts	0x0641, r29	; 0x800641 <__TEXT_REGION_LENGTH__+0x700641>
     4b2:	82 e5       	ldi	r24, 0x52	; 82
     4b4:	80 93 42 06 	sts	0x0642, r24	; 0x800642 <__TEXT_REGION_LENGTH__+0x700642>
     4b8:	84 e0       	ldi	r24, 0x04	; 4
     4ba:	80 93 45 06 	sts	0x0645, r24	; 0x800645 <__TEXT_REGION_LENGTH__+0x700645>
     4be:	80 93 46 06 	sts	0x0646, r24	; 0x800646 <__TEXT_REGION_LENGTH__+0x700646>
     4c2:	c0 93 4a 06 	sts	0x064A, r28	; 0x80064a <__TEXT_REGION_LENGTH__+0x70064a>
     4c6:	80 81       	ld	r24, Z
     4c8:	81 60       	ori	r24, 0x01	; 1
     4ca:	80 83       	st	Z, r24
     4cc:	c0 93 48 06 	sts	0x0648, r28	; 0x800648 <__TEXT_REGION_LENGTH__+0x700648>
     4d0:	e0 ea       	ldi	r30, 0xA0	; 160
     4d2:	f6 e0       	ldi	r31, 0x06	; 6
     4d4:	80 e4       	ldi	r24, 0x40	; 64
     4d6:	80 83       	st	Z, r24
     4d8:	80 e8       	ldi	r24, 0x80	; 128
     4da:	80 93 a1 06 	sts	0x06A1, r24	; 0x8006a1 <__TEXT_REGION_LENGTH__+0x7006a1>
     4de:	80 81       	ld	r24, Z
     4e0:	81 60       	ori	r24, 0x01	; 1
     4e2:	80 83       	st	Z, r24
     4e4:	80 91 41 01 	lds	r24, 0x0141	; 0x800141 <__TEXT_REGION_LENGTH__+0x700141>
     4e8:	80 fd       	sbrc	r24, 0
     4ea:	fc cf       	rjmp	.-8      	; 0x4e4 <__LOCK_REGION_LENGTH__+0xe4>
     4ec:	80 e3       	ldi	r24, 0x30	; 48
     4ee:	80 93 40 01 	sts	0x0140, r24	; 0x800140 <__TEXT_REGION_LENGTH__+0x700140>
     4f2:	10 92 47 01 	sts	0x0147, r1	; 0x800147 <__TEXT_REGION_LENGTH__+0x700147>
     4f6:	80 91 41 01 	lds	r24, 0x0141	; 0x800141 <__TEXT_REGION_LENGTH__+0x700141>
     4fa:	82 fd       	sbrc	r24, 2
     4fc:	fc cf       	rjmp	.-8      	; 0x4f6 <__LOCK_REGION_LENGTH__+0xf6>
     4fe:	ea e4       	ldi	r30, 0x4A	; 74
     500:	f1 e0       	ldi	r31, 0x01	; 1
     502:	80 e0       	ldi	r24, 0x00	; 0
     504:	98 e7       	ldi	r25, 0x78	; 120
     506:	80 83       	st	Z, r24
     508:	91 83       	std	Z+1, r25	; 0x01
     50a:	80 91 48 01 	lds	r24, 0x0148	; 0x800148 <__TEXT_REGION_LENGTH__+0x700148>
     50e:	90 91 49 01 	lds	r25, 0x0149	; 0x800149 <__TEXT_REGION_LENGTH__+0x700149>
     512:	82 96       	adiw	r24, 0x22	; 34
     514:	60 81       	ld	r22, Z
     516:	71 81       	ldd	r23, Z+1	; 0x01
     518:	0e 94 46 12 	call	0x248c	; 0x248c <__udivmodhi4>
     51c:	80 93 2f 3b 	sts	0x3B2F, r24	; 0x803b2f <tmp16bit>
     520:	90 93 30 3b 	sts	0x3B30, r25	; 0x803b30 <tmp16bit+0x1>
     524:	80 91 41 01 	lds	r24, 0x0141	; 0x800141 <__TEXT_REGION_LENGTH__+0x700141>
     528:	83 fd       	sbrc	r24, 3
     52a:	fc cf       	rjmp	.-8      	; 0x524 <__LOCK_REGION_LENGTH__+0x124>
     52c:	80 91 2f 3b 	lds	r24, 0x3B2F	; 0x803b2f <tmp16bit>
     530:	90 91 30 3b 	lds	r25, 0x3B30	; 0x803b30 <tmp16bit+0x1>
     534:	80 93 4c 01 	sts	0x014C, r24	; 0x80014c <__TEXT_REGION_LENGTH__+0x70014c>
     538:	90 93 4d 01 	sts	0x014D, r25	; 0x80014d <__TEXT_REGION_LENGTH__+0x70014d>
     53c:	83 e0       	ldi	r24, 0x03	; 3
     53e:	80 93 42 01 	sts	0x0142, r24	; 0x800142 <__TEXT_REGION_LENGTH__+0x700142>
     542:	81 e0       	ldi	r24, 0x01	; 1
     544:	80 93 52 01 	sts	0x0152, r24	; 0x800152 <__TEXT_REGION_LENGTH__+0x700152>
     548:	88 e0       	ldi	r24, 0x08	; 8
     54a:	80 93 50 01 	sts	0x0150, r24	; 0x800150 <__TEXT_REGION_LENGTH__+0x700150>
     54e:	80 91 41 01 	lds	r24, 0x0141	; 0x800141 <__TEXT_REGION_LENGTH__+0x700141>
     552:	80 fd       	sbrc	r24, 0
     554:	fc cf       	rjmp	.-8      	; 0x54e <__LOCK_REGION_LENGTH__+0x14e>
     556:	e0 e4       	ldi	r30, 0x40	; 64
     558:	f1 e0       	ldi	r31, 0x01	; 1
     55a:	80 81       	ld	r24, Z
     55c:	81 60       	ori	r24, 0x01	; 1
     55e:	80 83       	st	Z, r24
     560:	e0 e5       	ldi	r30, 0x50	; 80
     562:	f1 e0       	ldi	r31, 0x01	; 1
     564:	80 81       	ld	r24, Z
     566:	81 60       	ori	r24, 0x01	; 1
     568:	80 83       	st	Z, r24
     56a:	ea e9       	ldi	r30, 0x9A	; 154
     56c:	fa e3       	ldi	r31, 0x3A	; 58
     56e:	10 82       	st	Z, r1
     570:	e0 93 de 3a 	sts	0x3ADE, r30	; 0x803ade <serTxAddr>
     574:	f0 93 df 3a 	sts	0x3ADF, r31	; 0x803adf <serTxAddr+0x1>
     578:	78 94       	sei
     57a:	df 91       	pop	r29
     57c:	cf 91       	pop	r28
     57e:	08 95       	ret

00000580 <__vector_8>:
     580:	1f 92       	push	r1
     582:	0f 92       	push	r0
     584:	0f b6       	in	r0, 0x3f	; 63
     586:	0f 92       	push	r0
     588:	11 24       	eor	r1, r1
     58a:	8f 93       	push	r24
     58c:	9f 93       	push	r25
     58e:	af 93       	push	r26
     590:	bf 93       	push	r27
     592:	ef 93       	push	r30
     594:	ff 93       	push	r31
     596:	87 e0       	ldi	r24, 0x07	; 7
     598:	80 93 46 04 	sts	0x0446, r24	; 0x800446 <__TEXT_REGION_LENGTH__+0x700446>
     59c:	84 e4       	ldi	r24, 0x44	; 68
     59e:	80 93 26 04 	sts	0x0426, r24	; 0x800426 <__TEXT_REGION_LENGTH__+0x700426>
     5a2:	ec b3       	in	r30, 0x1c	; 28
     5a4:	f0 e0       	ldi	r31, 0x00	; 0
     5a6:	ee 0f       	add	r30, r30
     5a8:	ff 1f       	adc	r31, r31
     5aa:	ee 0f       	add	r30, r30
     5ac:	ff 1f       	adc	r31, r31
     5ae:	ee 0f       	add	r30, r30
     5b0:	ff 1f       	adc	r31, r31
     5b2:	eb 5f       	subi	r30, 0xFB	; 251
     5b4:	f4 4c       	sbci	r31, 0xC4	; 196
     5b6:	a8 e2       	ldi	r26, 0x28	; 40
     5b8:	ba e0       	ldi	r27, 0x0A	; 10
     5ba:	96 e0       	ldi	r25, 0x06	; 6
     5bc:	81 91       	ld	r24, Z+
     5be:	8d 93       	st	X+, r24
     5c0:	9a 95       	dec	r25
     5c2:	e1 f7       	brne	.-8      	; 0x5bc <__vector_8+0x3c>
     5c4:	8b e0       	ldi	r24, 0x0B	; 11
     5c6:	80 93 05 0a 	sts	0x0A05, r24	; 0x800a05 <__TEXT_REGION_LENGTH__+0x700a05>
     5ca:	8c b3       	in	r24, 0x1c	; 28
     5cc:	83 30       	cpi	r24, 0x03	; 3
     5ce:	58 f4       	brcc	.+22     	; 0x5e6 <__vector_8+0x66>
     5d0:	8c b3       	in	r24, 0x1c	; 28
     5d2:	91 e0       	ldi	r25, 0x01	; 1
     5d4:	01 c0       	rjmp	.+2      	; 0x5d8 <__vector_8+0x58>
     5d6:	99 0f       	add	r25, r25
     5d8:	8a 95       	dec	r24
     5da:	ea f7       	brpl	.-6      	; 0x5d6 <__vector_8+0x56>
     5dc:	99 b9       	out	0x09, r25	; 9
     5de:	8c b3       	in	r24, 0x1c	; 28
     5e0:	83 95       	inc	r24
     5e2:	8c bb       	out	0x1c, r24	; 28
     5e4:	0a c0       	rjmp	.+20     	; 0x5fa <__vector_8+0x7a>
     5e6:	8c b3       	in	r24, 0x1c	; 28
     5e8:	83 30       	cpi	r24, 0x03	; 3
     5ea:	21 f4       	brne	.+8      	; 0x5f4 <__vector_8+0x74>
     5ec:	2a 9a       	sbi	0x05, 2	; 5
     5ee:	83 95       	inc	r24
     5f0:	8c bb       	out	0x1c, r24	; 28
     5f2:	03 c0       	rjmp	.+6      	; 0x5fa <__vector_8+0x7a>
     5f4:	2e 9a       	sbi	0x05, 6	; 5
     5f6:	88 27       	eor	r24, r24
     5f8:	8c bb       	out	0x1c, r24	; 28
     5fa:	80 91 85 3a 	lds	r24, 0x3A85	; 0x803a85 <timeout_I2C>
     5fe:	88 23       	and	r24, r24
     600:	29 f0       	breq	.+10     	; 0x60c <__vector_8+0x8c>
     602:	80 91 85 3a 	lds	r24, 0x3A85	; 0x803a85 <timeout_I2C>
     606:	81 50       	subi	r24, 0x01	; 1
     608:	80 93 85 3a 	sts	0x3A85, r24	; 0x803a85 <timeout_I2C>
     60c:	8f ef       	ldi	r24, 0xFF	; 255
     60e:	80 93 0b 0a 	sts	0x0A0B, r24	; 0x800a0b <__TEXT_REGION_LENGTH__+0x700a0b>
     612:	ff 91       	pop	r31
     614:	ef 91       	pop	r30
     616:	bf 91       	pop	r27
     618:	af 91       	pop	r26
     61a:	9f 91       	pop	r25
     61c:	8f 91       	pop	r24
     61e:	0f 90       	pop	r0
     620:	0f be       	out	0x3f, r0	; 63
     622:	0f 90       	pop	r0
     624:	1f 90       	pop	r1
     626:	18 95       	reti

00000628 <__vector_13>:
     628:	1f 92       	push	r1
     62a:	0f 92       	push	r0
     62c:	0f b6       	in	r0, 0x3f	; 63
     62e:	0f 92       	push	r0
     630:	11 24       	eor	r1, r1
     632:	8f 93       	push	r24
     634:	9f 93       	push	r25
     636:	ef 93       	push	r30
     638:	ff 93       	push	r31
     63a:	e0 91 de 3a 	lds	r30, 0x3ADE	; 0x803ade <serTxAddr>
     63e:	f0 91 df 3a 	lds	r31, 0x3ADF	; 0x803adf <serTxAddr+0x1>
     642:	80 81       	ld	r24, Z
     644:	88 23       	and	r24, r24
     646:	91 f0       	breq	.+36     	; 0x66c <__vector_13+0x44>
     648:	80 81       	ld	r24, Z
     64a:	80 93 02 08 	sts	0x0802, r24	; 0x800802 <__TEXT_REGION_LENGTH__+0x700802>
     64e:	80 91 de 3a 	lds	r24, 0x3ADE	; 0x803ade <serTxAddr>
     652:	90 91 df 3a 	lds	r25, 0x3ADF	; 0x803adf <serTxAddr+0x1>
     656:	01 96       	adiw	r24, 0x01	; 1
     658:	80 93 de 3a 	sts	0x3ADE, r24	; 0x803ade <serTxAddr>
     65c:	90 93 df 3a 	sts	0x3ADF, r25	; 0x803adf <serTxAddr+0x1>
     660:	e5 e0       	ldi	r30, 0x05	; 5
     662:	f8 e0       	ldi	r31, 0x08	; 8
     664:	80 81       	ld	r24, Z
     666:	80 62       	ori	r24, 0x20	; 32
     668:	80 83       	st	Z, r24
     66a:	05 c0       	rjmp	.+10     	; 0x676 <__vector_13+0x4e>
     66c:	81 e0       	ldi	r24, 0x01	; 1
     66e:	80 93 04 38 	sts	0x3804, r24	; 0x803804 <serTxDone>
     672:	10 92 45 0a 	sts	0x0A45, r1	; 0x800a45 <__TEXT_REGION_LENGTH__+0x700a45>
     676:	81 e0       	ldi	r24, 0x01	; 1
     678:	80 93 46 0a 	sts	0x0A46, r24	; 0x800a46 <__TEXT_REGION_LENGTH__+0x700a46>
     67c:	ff 91       	pop	r31
     67e:	ef 91       	pop	r30
     680:	9f 91       	pop	r25
     682:	8f 91       	pop	r24
     684:	0f 90       	pop	r0
     686:	0f be       	out	0x3f, r0	; 63
     688:	0f 90       	pop	r0
     68a:	1f 90       	pop	r1
     68c:	18 95       	reti

0000068e <__vector_14>:
     68e:	1f 92       	push	r1
     690:	0f 92       	push	r0
     692:	0f b6       	in	r0, 0x3f	; 63
     694:	0f 92       	push	r0
     696:	11 24       	eor	r1, r1
     698:	2f 93       	push	r18
     69a:	3f 93       	push	r19
     69c:	4f 93       	push	r20
     69e:	8f 93       	push	r24
     6a0:	9f 93       	push	r25
     6a2:	ef 93       	push	r30
     6a4:	ff 93       	push	r31
     6a6:	e0 91 02 38 	lds	r30, 0x3802	; 0x803802 <auSmpAddr>
     6aa:	f0 91 03 38 	lds	r31, 0x3803	; 0x803803 <auSmpAddr+0x1>
     6ae:	80 81       	ld	r24, Z
     6b0:	81 11       	cpse	r24, r1
     6b2:	08 c0       	rjmp	.+16     	; 0x6c4 <__vector_14+0x36>
     6b4:	80 91 00 38 	lds	r24, 0x3800	; 0x803800 <__data_start>
     6b8:	90 91 01 38 	lds	r25, 0x3801	; 0x803801 <__data_start+0x1>
     6bc:	80 93 02 38 	sts	0x3802, r24	; 0x803802 <auSmpAddr>
     6c0:	90 93 03 38 	sts	0x3803, r25	; 0x803803 <auSmpAddr+0x1>
     6c4:	e0 91 02 38 	lds	r30, 0x3802	; 0x803802 <auSmpAddr>
     6c8:	f0 91 03 38 	lds	r31, 0x3803	; 0x803803 <auSmpAddr+0x1>
     6cc:	80 81       	ld	r24, Z
     6ce:	88 23       	and	r24, r24
     6d0:	e1 f0       	breq	.+56     	; 0x70a <__vector_14+0x7c>
     6d2:	20 81       	ld	r18, Z
     6d4:	30 e0       	ldi	r19, 0x00	; 0
     6d6:	2f 57       	subi	r18, 0x7F	; 127
     6d8:	31 09       	sbc	r19, r1
     6da:	40 91 db 3a 	lds	r20, 0x3ADB	; 0x803adb <auVolume>
     6de:	42 9f       	mul	r20, r18
     6e0:	c0 01       	movw	r24, r0
     6e2:	43 9f       	mul	r20, r19
     6e4:	90 0d       	add	r25, r0
     6e6:	11 24       	eor	r1, r1
     6e8:	89 2f       	mov	r24, r25
     6ea:	99 0f       	add	r25, r25
     6ec:	99 0b       	sbc	r25, r25
     6ee:	80 58       	subi	r24, 0x80	; 128
     6f0:	9f 4f       	sbci	r25, 0xFF	; 255
     6f2:	80 93 a1 06 	sts	0x06A1, r24	; 0x8006a1 <__TEXT_REGION_LENGTH__+0x7006a1>
     6f6:	80 91 02 38 	lds	r24, 0x3802	; 0x803802 <auSmpAddr>
     6fa:	90 91 03 38 	lds	r25, 0x3803	; 0x803803 <auSmpAddr+0x1>
     6fe:	01 96       	adiw	r24, 0x01	; 1
     700:	80 93 02 38 	sts	0x3802, r24	; 0x803802 <auSmpAddr>
     704:	90 93 03 38 	sts	0x3803, r25	; 0x803803 <auSmpAddr+0x1>
     708:	06 c0       	rjmp	.+12     	; 0x716 <__vector_14+0x88>
     70a:	80 e8       	ldi	r24, 0x80	; 128
     70c:	80 93 a1 06 	sts	0x06A1, r24	; 0x8006a1 <__TEXT_REGION_LENGTH__+0x7006a1>
     710:	81 e0       	ldi	r24, 0x01	; 1
     712:	80 93 2d 3b 	sts	0x3B2D, r24	; 0x803b2d <auPlayDone>
     716:	81 e0       	ldi	r24, 0x01	; 1
     718:	80 93 56 0a 	sts	0x0A56, r24	; 0x800a56 <__TEXT_REGION_LENGTH__+0x700a56>
     71c:	ff 91       	pop	r31
     71e:	ef 91       	pop	r30
     720:	9f 91       	pop	r25
     722:	8f 91       	pop	r24
     724:	4f 91       	pop	r20
     726:	3f 91       	pop	r19
     728:	2f 91       	pop	r18
     72a:	0f 90       	pop	r0
     72c:	0f be       	out	0x3f, r0	; 63
     72e:	0f 90       	pop	r0
     730:	1f 90       	pop	r1
     732:	18 95       	reti

00000734 <__vector_27>:
     734:	1f 92       	push	r1
     736:	0f 92       	push	r0
     738:	0f b6       	in	r0, 0x3f	; 63
     73a:	0f 92       	push	r0
     73c:	11 24       	eor	r1, r1
     73e:	8f 93       	push	r24
     740:	ef 93       	push	r30
     742:	ff 93       	push	r31
     744:	80 91 9c 38 	lds	r24, 0x389C	; 0x80389c <serRxDone>
     748:	81 11       	cpse	r24, r1
     74a:	24 c0       	rjmp	.+72     	; 0x794 <__vector_27+0x60>
     74c:	ed b3       	in	r30, 0x1d	; 29
     74e:	f0 e0       	ldi	r31, 0x00	; 0
     750:	80 91 00 08 	lds	r24, 0x0800	; 0x800800 <__TEXT_REGION_LENGTH__+0x700800>
     754:	e6 56       	subi	r30, 0x66	; 102
     756:	f5 4c       	sbci	r31, 0xC5	; 197
     758:	80 83       	st	Z, r24
     75a:	ed b3       	in	r30, 0x1d	; 29
     75c:	f0 e0       	ldi	r31, 0x00	; 0
     75e:	e6 56       	subi	r30, 0x66	; 102
     760:	f5 4c       	sbci	r31, 0xC5	; 197
     762:	80 81       	ld	r24, Z
     764:	80 93 02 08 	sts	0x0802, r24	; 0x800802 <__TEXT_REGION_LENGTH__+0x700802>
     768:	ed b3       	in	r30, 0x1d	; 29
     76a:	f0 e0       	ldi	r31, 0x00	; 0
     76c:	e6 56       	subi	r30, 0x66	; 102
     76e:	f5 4c       	sbci	r31, 0xC5	; 197
     770:	80 81       	ld	r24, Z
     772:	8a 30       	cpi	r24, 0x0A	; 10
     774:	49 f4       	brne	.+18     	; 0x788 <__vector_27+0x54>
     776:	ed b3       	in	r30, 0x1d	; 29
     778:	f0 e0       	ldi	r31, 0x00	; 0
     77a:	e6 56       	subi	r30, 0x66	; 102
     77c:	f5 4c       	sbci	r31, 0xC5	; 197
     77e:	10 82       	st	Z, r1
     780:	81 e0       	ldi	r24, 0x01	; 1
     782:	80 93 9c 38 	sts	0x389C, r24	; 0x80389c <serRxDone>
     786:	06 c0       	rjmp	.+12     	; 0x794 <__vector_27+0x60>
     788:	8d b3       	in	r24, 0x1d	; 29
     78a:	80 34       	cpi	r24, 0x40	; 64
     78c:	18 f4       	brcc	.+6      	; 0x794 <__vector_27+0x60>
     78e:	8d b3       	in	r24, 0x1d	; 29
     790:	8f 5f       	subi	r24, 0xFF	; 255
     792:	8d bb       	out	0x1d, r24	; 29
     794:	80 e8       	ldi	r24, 0x80	; 128
     796:	80 93 04 08 	sts	0x0804, r24	; 0x800804 <__TEXT_REGION_LENGTH__+0x700804>
     79a:	ff 91       	pop	r31
     79c:	ef 91       	pop	r30
     79e:	8f 91       	pop	r24
     7a0:	0f 90       	pop	r0
     7a2:	0f be       	out	0x3f, r0	; 63
     7a4:	0f 90       	pop	r0
     7a6:	1f 90       	pop	r1
     7a8:	18 95       	reti

000007aa <__vector_28>:
     7aa:	1f 92       	push	r1
     7ac:	0f 92       	push	r0
     7ae:	0f b6       	in	r0, 0x3f	; 63
     7b0:	0f 92       	push	r0
     7b2:	11 24       	eor	r1, r1
     7b4:	8f 93       	push	r24
     7b6:	ef 93       	push	r30
     7b8:	ff 93       	push	r31
     7ba:	10 92 4a 0a 	sts	0x0A4A, r1	; 0x800a4a <__TEXT_REGION_LENGTH__+0x700a4a>
     7be:	10 92 4b 0a 	sts	0x0A4B, r1	; 0x800a4b <__TEXT_REGION_LENGTH__+0x700a4b>
     7c2:	81 e0       	ldi	r24, 0x01	; 1
     7c4:	80 93 45 0a 	sts	0x0A45, r24	; 0x800a45 <__TEXT_REGION_LENGTH__+0x700a45>
     7c8:	e5 e0       	ldi	r30, 0x05	; 5
     7ca:	f8 e0       	ldi	r31, 0x08	; 8
     7cc:	80 81       	ld	r24, Z
     7ce:	8f 7d       	andi	r24, 0xDF	; 223
     7d0:	80 83       	st	Z, r24
     7d2:	ff 91       	pop	r31
     7d4:	ef 91       	pop	r30
     7d6:	8f 91       	pop	r24
     7d8:	0f 90       	pop	r0
     7da:	0f be       	out	0x3f, r0	; 63
     7dc:	0f 90       	pop	r0
     7de:	1f 90       	pop	r1
     7e0:	18 95       	reti

000007e2 <__vector_20>:
     7e2:	1f 92       	push	r1
     7e4:	0f 92       	push	r0
     7e6:	0f b6       	in	r0, 0x3f	; 63
     7e8:	0f 92       	push	r0
     7ea:	11 24       	eor	r1, r1
     7ec:	8f 93       	push	r24
     7ee:	ef 93       	push	r30
     7f0:	ff 93       	push	r31
     7f2:	80 91 90 38 	lds	r24, 0x3890	; 0x803890 <__data_end>
     7f6:	81 11       	cpse	r24, r1
     7f8:	15 c0       	rjmp	.+42     	; 0x824 <__vector_20+0x42>
     7fa:	8e b3       	in	r24, 0x1e	; 30
     7fc:	8f 5f       	subi	r24, 0xFF	; 255
     7fe:	8f 71       	andi	r24, 0x1F	; 31
     800:	8e bb       	out	0x1e, r24	; 30
     802:	80 91 06 06 	lds	r24, 0x0606	; 0x800606 <__TEXT_REGION_LENGTH__+0x700606>
     806:	8e 31       	cpi	r24, 0x1E	; 30
     808:	29 f4       	brne	.+10     	; 0x814 <__vector_20+0x32>
     80a:	80 91 10 06 	lds	r24, 0x0610	; 0x800610 <__TEXT_REGION_LENGTH__+0x700610>
     80e:	80 93 2e 3b 	sts	0x3B2E, r24	; 0x803b2e <adcTemp>
     812:	0a c0       	rjmp	.+20     	; 0x828 <__vector_20+0x46>
     814:	ee b3       	in	r30, 0x1e	; 30
     816:	f0 e0       	ldi	r31, 0x00	; 0
     818:	80 91 10 06 	lds	r24, 0x0610	; 0x800610 <__TEXT_REGION_LENGTH__+0x700610>
     81c:	eb 51       	subi	r30, 0x1B	; 27
     81e:	f5 4c       	sbci	r31, 0xC5	; 197
     820:	80 83       	st	Z, r24
     822:	02 c0       	rjmp	.+4      	; 0x828 <__vector_20+0x46>
     824:	10 92 90 38 	sts	0x3890, r1	; 0x803890 <__data_end>
     828:	81 e0       	ldi	r24, 0x01	; 1
     82a:	80 93 0b 06 	sts	0x060B, r24	; 0x80060b <__TEXT_REGION_LENGTH__+0x70060b>
     82e:	ff 91       	pop	r31
     830:	ef 91       	pop	r30
     832:	8f 91       	pop	r24
     834:	0f 90       	pop	r0
     836:	0f be       	out	0x3f, r0	; 63
     838:	0f 90       	pop	r0
     83a:	1f 90       	pop	r1
     83c:	18 95       	reti

0000083e <__vector_22>:
     83e:	1f 92       	push	r1
     840:	0f 92       	push	r0
     842:	0f b6       	in	r0, 0x3f	; 63
     844:	0f 92       	push	r0
     846:	11 24       	eor	r1, r1
     848:	8f 93       	push	r24
     84a:	9f 93       	push	r25
     84c:	80 91 46 06 	lds	r24, 0x0646	; 0x800646 <__TEXT_REGION_LENGTH__+0x700646>
     850:	81 11       	cpse	r24, r1
     852:	0c c0       	rjmp	.+24     	; 0x86c <__vector_22+0x2e>
     854:	80 91 50 06 	lds	r24, 0x0650	; 0x800650 <__TEXT_REGION_LENGTH__+0x700650>
     858:	90 91 51 06 	lds	r25, 0x0651	; 0x800651 <__TEXT_REGION_LENGTH__+0x700651>
     85c:	80 93 e2 3a 	sts	0x3AE2, r24	; 0x803ae2 <adcPhot>
     860:	90 93 e3 3a 	sts	0x3AE3, r25	; 0x803ae3 <adcPhot+0x1>
     864:	81 e0       	ldi	r24, 0x01	; 1
     866:	80 93 46 06 	sts	0x0646, r24	; 0x800646 <__TEXT_REGION_LENGTH__+0x700646>
     86a:	23 c0       	rjmp	.+70     	; 0x8b2 <__vector_22+0x74>
     86c:	80 91 46 06 	lds	r24, 0x0646	; 0x800646 <__TEXT_REGION_LENGTH__+0x700646>
     870:	81 30       	cpi	r24, 0x01	; 1
     872:	79 f4       	brne	.+30     	; 0x892 <__vector_22+0x54>
     874:	88 e0       	ldi	r24, 0x08	; 8
     876:	80 93 06 04 	sts	0x0406, r24	; 0x800406 <__TEXT_REGION_LENGTH__+0x700406>
     87a:	80 91 50 06 	lds	r24, 0x0650	; 0x800650 <__TEXT_REGION_LENGTH__+0x700650>
     87e:	90 91 51 06 	lds	r25, 0x0651	; 0x800651 <__TEXT_REGION_LENGTH__+0x700651>
     882:	80 93 e0 3a 	sts	0x3AE0, r24	; 0x803ae0 <adcHall>
     886:	90 93 e1 3a 	sts	0x3AE1, r25	; 0x803ae1 <adcHall+0x1>
     88a:	84 e0       	ldi	r24, 0x04	; 4
     88c:	80 93 46 06 	sts	0x0646, r24	; 0x800646 <__TEXT_REGION_LENGTH__+0x700646>
     890:	10 c0       	rjmp	.+32     	; 0x8b2 <__vector_22+0x74>
     892:	80 91 50 06 	lds	r24, 0x0650	; 0x800650 <__TEXT_REGION_LENGTH__+0x700650>
     896:	90 91 51 06 	lds	r25, 0x0651	; 0x800651 <__TEXT_REGION_LENGTH__+0x700651>
     89a:	80 93 dc 3a 	sts	0x3ADC, r24	; 0x803adc <adcBtns>
     89e:	90 93 dd 3a 	sts	0x3ADD, r25	; 0x803add <adcBtns+0x1>
     8a2:	8f b3       	in	r24, 0x1f	; 31
     8a4:	8f 30       	cpi	r24, 0x0F	; 15
     8a6:	29 f4       	brne	.+10     	; 0x8b2 <__vector_22+0x74>
     8a8:	10 92 46 06 	sts	0x0646, r1	; 0x800646 <__TEXT_REGION_LENGTH__+0x700646>
     8ac:	88 e0       	ldi	r24, 0x08	; 8
     8ae:	80 93 05 04 	sts	0x0405, r24	; 0x800405 <__TEXT_REGION_LENGTH__+0x700405>
     8b2:	8f b3       	in	r24, 0x1f	; 31
     8b4:	90 e0       	ldi	r25, 0x00	; 0
     8b6:	01 96       	adiw	r24, 0x01	; 1
     8b8:	8f 70       	andi	r24, 0x0F	; 15
     8ba:	90 78       	andi	r25, 0x80	; 128
     8bc:	99 23       	and	r25, r25
     8be:	24 f4       	brge	.+8      	; 0x8c8 <__vector_22+0x8a>
     8c0:	01 97       	sbiw	r24, 0x01	; 1
     8c2:	80 6f       	ori	r24, 0xF0	; 240
     8c4:	9f 6f       	ori	r25, 0xFF	; 255
     8c6:	01 96       	adiw	r24, 0x01	; 1
     8c8:	8f bb       	out	0x1f, r24	; 31
     8ca:	81 e0       	ldi	r24, 0x01	; 1
     8cc:	80 93 4b 06 	sts	0x064B, r24	; 0x80064b <__TEXT_REGION_LENGTH__+0x70064b>
     8d0:	9f 91       	pop	r25
     8d2:	8f 91       	pop	r24
     8d4:	0f 90       	pop	r0
     8d6:	0f be       	out	0x3f, r0	; 63
     8d8:	0f 90       	pop	r0
     8da:	1f 90       	pop	r1
     8dc:	18 95       	reti

000008de <__vector_6>:
     8de:	1f 92       	push	r1
     8e0:	0f 92       	push	r0
     8e2:	0f b6       	in	r0, 0x3f	; 63
     8e4:	0f 92       	push	r0
     8e6:	11 24       	eor	r1, r1
     8e8:	5f 93       	push	r21
     8ea:	6f 93       	push	r22
     8ec:	7f 93       	push	r23
     8ee:	8f 93       	push	r24
     8f0:	9f 93       	push	r25
     8f2:	af 93       	push	r26
     8f4:	bf 93       	push	r27
     8f6:	80 91 43 01 	lds	r24, 0x0143	; 0x800143 <__TEXT_REGION_LENGTH__+0x700143>
     8fa:	81 ff       	sbrs	r24, 1
     8fc:	28 c0       	rjmp	.+80     	; 0x94e <__vector_6+0x70>
     8fe:	80 91 9a 38 	lds	r24, 0x389A	; 0x80389a <buttonMark>
     902:	8f 3f       	cpi	r24, 0xFF	; 255
     904:	29 f0       	breq	.+10     	; 0x910 <__vector_6+0x32>
     906:	80 91 9a 38 	lds	r24, 0x389A	; 0x80389a <buttonMark>
     90a:	8f 5f       	subi	r24, 0xFF	; 255
     90c:	80 93 9a 38 	sts	0x389A, r24	; 0x80389a <buttonMark>
     910:	80 91 48 01 	lds	r24, 0x0148	; 0x800148 <__TEXT_REGION_LENGTH__+0x700148>
     914:	90 91 49 01 	lds	r25, 0x0149	; 0x800149 <__TEXT_REGION_LENGTH__+0x700149>
     918:	82 96       	adiw	r24, 0x22	; 34
     91a:	60 91 4a 01 	lds	r22, 0x014A	; 0x80014a <__TEXT_REGION_LENGTH__+0x70014a>
     91e:	70 91 4b 01 	lds	r23, 0x014B	; 0x80014b <__TEXT_REGION_LENGTH__+0x70014b>
     922:	0e 94 46 12 	call	0x248c	; 0x248c <__udivmodhi4>
     926:	80 93 2f 3b 	sts	0x3B2F, r24	; 0x803b2f <tmp16bit>
     92a:	90 93 30 3b 	sts	0x3B30, r25	; 0x803b30 <tmp16bit+0x1>
     92e:	80 91 41 01 	lds	r24, 0x0141	; 0x800141 <__TEXT_REGION_LENGTH__+0x700141>
     932:	83 fd       	sbrc	r24, 3
     934:	fc cf       	rjmp	.-8      	; 0x92e <__vector_6+0x50>
     936:	80 91 2f 3b 	lds	r24, 0x3B2F	; 0x803b2f <tmp16bit>
     93a:	90 91 30 3b 	lds	r25, 0x3B30	; 0x803b30 <tmp16bit+0x1>
     93e:	80 93 4c 01 	sts	0x014C, r24	; 0x80014c <__TEXT_REGION_LENGTH__+0x70014c>
     942:	90 93 4d 01 	sts	0x014D, r25	; 0x80014d <__TEXT_REGION_LENGTH__+0x70014d>
     946:	82 e0       	ldi	r24, 0x02	; 2
     948:	80 93 43 01 	sts	0x0143, r24	; 0x800143 <__TEXT_REGION_LENGTH__+0x700143>
     94c:	0c c0       	rjmp	.+24     	; 0x966 <__vector_6+0x88>
     94e:	80 91 9b 38 	lds	r24, 0x389B	; 0x80389b <minuteMark>
     952:	8f 3f       	cpi	r24, 0xFF	; 255
     954:	29 f0       	breq	.+10     	; 0x960 <__vector_6+0x82>
     956:	80 91 9b 38 	lds	r24, 0x389B	; 0x80389b <minuteMark>
     95a:	8f 5f       	subi	r24, 0xFF	; 255
     95c:	80 93 9b 38 	sts	0x389B, r24	; 0x80389b <minuteMark>
     960:	81 e0       	ldi	r24, 0x01	; 1
     962:	80 93 43 01 	sts	0x0143, r24	; 0x800143 <__TEXT_REGION_LENGTH__+0x700143>
     966:	bf 91       	pop	r27
     968:	af 91       	pop	r26
     96a:	9f 91       	pop	r25
     96c:	8f 91       	pop	r24
     96e:	7f 91       	pop	r23
     970:	6f 91       	pop	r22
     972:	5f 91       	pop	r21
     974:	0f 90       	pop	r0
     976:	0f be       	out	0x3f, r0	; 63
     978:	0f 90       	pop	r0
     97a:	1f 90       	pop	r1
     97c:	18 95       	reti

0000097e <__vector_7>:
     97e:	1f 92       	push	r1
     980:	0f 92       	push	r0
     982:	0f b6       	in	r0, 0x3f	; 63
     984:	0f 92       	push	r0
     986:	11 24       	eor	r1, r1
     988:	8f 93       	push	r24
     98a:	81 e0       	ldi	r24, 0x01	; 1
     98c:	80 93 48 06 	sts	0x0648, r24	; 0x800648 <__TEXT_REGION_LENGTH__+0x700648>
     990:	80 93 53 01 	sts	0x0153, r24	; 0x800153 <__TEXT_REGION_LENGTH__+0x700153>
     994:	8f 91       	pop	r24
     996:	0f 90       	pop	r0
     998:	0f be       	out	0x3f, r0	; 63
     99a:	0f 90       	pop	r0
     99c:	1f 90       	pop	r1
     99e:	18 95       	reti

000009a0 <EERead>:
     9a0:	db 01       	movw	r26, r22
     9a2:	90 91 02 10 	lds	r25, 0x1002	; 0x801002 <__TEXT_REGION_LENGTH__+0x701002>
     9a6:	91 fd       	sbrc	r25, 1
     9a8:	fc cf       	rjmp	.-8      	; 0x9a2 <EERead+0x2>
     9aa:	08 c0       	rjmp	.+16     	; 0x9bc <EERead+0x1c>
     9ac:	e8 2f       	mov	r30, r24
     9ae:	f0 e0       	ldi	r31, 0x00	; 0
     9b0:	fc 5e       	subi	r31, 0xEC	; 236
     9b2:	90 81       	ld	r25, Z
     9b4:	9c 93       	st	X, r25
     9b6:	41 50       	subi	r20, 0x01	; 1
     9b8:	11 96       	adiw	r26, 0x01	; 1
     9ba:	8f 5f       	subi	r24, 0xFF	; 255
     9bc:	41 11       	cpse	r20, r1
     9be:	f6 cf       	rjmp	.-20     	; 0x9ac <EERead+0xc>
     9c0:	08 95       	ret

000009c2 <EEWrite>:
     9c2:	db 01       	movw	r26, r22
     9c4:	25 c0       	rjmp	.+74     	; 0xa10 <EEWrite+0x4e>
     9c6:	90 91 02 10 	lds	r25, 0x1002	; 0x801002 <__TEXT_REGION_LENGTH__+0x701002>
     9ca:	91 fd       	sbrc	r25, 1
     9cc:	fc cf       	rjmp	.-8      	; 0x9c6 <EEWrite+0x4>
     9ce:	9d e9       	ldi	r25, 0x9D	; 157
     9d0:	94 bf       	out	0x34, r25	; 52
     9d2:	94 e0       	ldi	r25, 0x04	; 4
     9d4:	90 93 00 10 	sts	0x1000, r25	; 0x801000 <__TEXT_REGION_LENGTH__+0x701000>
     9d8:	20 e0       	ldi	r18, 0x00	; 0
     9da:	0d c0       	rjmp	.+26     	; 0x9f6 <EEWrite+0x34>
     9dc:	98 2f       	mov	r25, r24
     9de:	9f 71       	andi	r25, 0x1F	; 31
     9e0:	9f 31       	cpi	r25, 0x1F	; 31
     9e2:	09 f4       	brne	.+2      	; 0x9e6 <EEWrite+0x24>
     9e4:	21 e0       	ldi	r18, 0x01	; 1
     9e6:	e8 2f       	mov	r30, r24
     9e8:	f0 e0       	ldi	r31, 0x00	; 0
     9ea:	fc 5e       	subi	r31, 0xEC	; 236
     9ec:	9c 91       	ld	r25, X
     9ee:	90 83       	st	Z, r25
     9f0:	41 50       	subi	r20, 0x01	; 1
     9f2:	11 96       	adiw	r26, 0x01	; 1
     9f4:	8f 5f       	subi	r24, 0xFF	; 255
     9f6:	44 23       	and	r20, r20
     9f8:	11 f0       	breq	.+4      	; 0x9fe <EEWrite+0x3c>
     9fa:	22 23       	and	r18, r18
     9fc:	79 f3       	breq	.-34     	; 0x9dc <EEWrite+0x1a>
     9fe:	9d e9       	ldi	r25, 0x9D	; 157
     a00:	94 bf       	out	0x34, r25	; 52
     a02:	93 e0       	ldi	r25, 0x03	; 3
     a04:	90 93 00 10 	sts	0x1000, r25	; 0x801000 <__TEXT_REGION_LENGTH__+0x701000>
     a08:	90 91 02 10 	lds	r25, 0x1002	; 0x801002 <__TEXT_REGION_LENGTH__+0x701002>
     a0c:	92 fd       	sbrc	r25, 2
     a0e:	04 c0       	rjmp	.+8      	; 0xa18 <EEWrite+0x56>
     a10:	41 11       	cpse	r20, r1
     a12:	d9 cf       	rjmp	.-78     	; 0x9c6 <EEWrite+0x4>
     a14:	80 e0       	ldi	r24, 0x00	; 0
     a16:	08 95       	ret
     a18:	81 e0       	ldi	r24, 0x01	; 1
     a1a:	08 95       	ret

00000a1c <SerSend>:
     a1c:	9c 01       	movw	r18, r24
     a1e:	90 91 04 38 	lds	r25, 0x3804	; 0x803804 <serTxDone>
     a22:	99 23       	and	r25, r25
     a24:	59 f0       	breq	.+22     	; 0xa3c <SerSend+0x20>
     a26:	20 93 de 3a 	sts	0x3ADE, r18	; 0x803ade <serTxAddr>
     a2a:	30 93 df 3a 	sts	0x3ADF, r19	; 0x803adf <serTxAddr+0x1>
     a2e:	10 92 04 38 	sts	0x3804, r1	; 0x803804 <serTxDone>
     a32:	81 e0       	ldi	r24, 0x01	; 1
     a34:	80 93 45 0a 	sts	0x0A45, r24	; 0x800a45 <__TEXT_REGION_LENGTH__+0x700a45>
     a38:	80 e0       	ldi	r24, 0x00	; 0
     a3a:	08 95       	ret
     a3c:	81 e0       	ldi	r24, 0x01	; 1
     a3e:	08 95       	ret

00000a40 <SerSpeed>:
     a40:	81 11       	cpse	r24, r1
     a42:	01 c0       	rjmp	.+2      	; 0xa46 <SerSpeed+0x6>
     a44:	81 e0       	ldi	r24, 0x01	; 1
     a46:	20 e0       	ldi	r18, 0x00	; 0
     a48:	30 e0       	ldi	r19, 0x00	; 0
     a4a:	38 2f       	mov	r19, r24
     a4c:	30 95       	com	r19
     a4e:	21 50       	subi	r18, 0x01	; 1
     a50:	3f 4f       	sbci	r19, 0xFF	; 255
     a52:	20 93 4c 0a 	sts	0x0A4C, r18	; 0x800a4c <__TEXT_REGION_LENGTH__+0x700a4c>
     a56:	30 93 4d 0a 	sts	0x0A4D, r19	; 0x800a4d <__TEXT_REGION_LENGTH__+0x700a4d>
     a5a:	08 95       	ret

00000a5c <CheckButtons>:
};

// Returns button combination (4LSB) and number of consecutive times this combination is detected. First read should always be ignored! 
uint8_t CheckButtons(uint8_t previousValue){
    uint8_t bADC = (uint8_t)(adcBtns>>4);
     a5c:	20 91 dc 3a 	lds	r18, 0x3ADC	; 0x803adc <adcBtns>
     a60:	30 91 dd 3a 	lds	r19, 0x3ADD	; 0x803add <adcBtns+0x1>
     a64:	32 95       	swap	r19
     a66:	22 95       	swap	r18
     a68:	2f 70       	andi	r18, 0x0F	; 15
     a6a:	23 27       	eor	r18, r19
     a6c:	3f 70       	andi	r19, 0x0F	; 15
     a6e:	23 27       	eor	r18, r19
    uint8_t bNibble = 0x0F;     //MSB to LSB: Bottom left, top left, top right, bottom right, 0F is error
    
    switch(bADC){
     a70:	33 27       	eor	r19, r19
     a72:	2c 35       	cpi	r18, 0x5C	; 92
     a74:	31 05       	cpc	r19, r1
     a76:	c0 f4       	brcc	.+48     	; 0xaa8 <CheckButtons+0x4c>
     a78:	23 35       	cpi	r18, 0x53	; 83
     a7a:	31 05       	cpc	r19, r1
     a7c:	a0 f5       	brcc	.+104    	; 0xae6 <CheckButtons+0x8a>
     a7e:	22 33       	cpi	r18, 0x32	; 50
     a80:	31 05       	cpc	r19, r1
     a82:	48 f4       	brcc	.+18     	; 0xa96 <CheckButtons+0x3a>
     a84:	2d 32       	cpi	r18, 0x2D	; 45
     a86:	31 05       	cpc	r19, r1
     a88:	40 f5       	brcc	.+80     	; 0xada <CheckButtons+0x7e>
     a8a:	23 52       	subi	r18, 0x23	; 35
     a8c:	31 09       	sbc	r19, r1
     a8e:	25 30       	cpi	r18, 0x05	; 5
     a90:	31 05       	cpc	r19, r1
     a92:	98 f1       	brcs	.+102    	; 0xafa <CheckButtons+0x9e>
     a94:	20 c0       	rjmp	.+64     	; 0xad6 <CheckButtons+0x7a>
     a96:	27 33       	cpi	r18, 0x37	; 55
     a98:	31 05       	cpc	r19, r1
     a9a:	08 f1       	brcs	.+66     	; 0xade <CheckButtons+0x82>
     a9c:	2e 53       	subi	r18, 0x3E	; 62
     a9e:	31 09       	sbc	r19, r1
     aa0:	27 30       	cpi	r18, 0x07	; 7
     aa2:	31 05       	cpc	r19, r1
     aa4:	f0 f0       	brcs	.+60     	; 0xae2 <CheckButtons+0x86>
     aa6:	17 c0       	rjmp	.+46     	; 0xad6 <CheckButtons+0x7a>
     aa8:	2a 38       	cpi	r18, 0x8A	; 138
     aaa:	31 05       	cpc	r19, r1
     aac:	48 f4       	brcc	.+18     	; 0xac0 <CheckButtons+0x64>
     aae:	29 37       	cpi	r18, 0x79	; 121
     ab0:	31 05       	cpc	r19, r1
     ab2:	e8 f4       	brcc	.+58     	; 0xaee <CheckButtons+0x92>
     ab4:	23 56       	subi	r18, 0x63	; 99
     ab6:	31 09       	sbc	r19, r1
     ab8:	2b 30       	cpi	r18, 0x0B	; 11
     aba:	31 05       	cpc	r19, r1
     abc:	b0 f0       	brcs	.+44     	; 0xaea <CheckButtons+0x8e>
     abe:	0b c0       	rjmp	.+22     	; 0xad6 <CheckButtons+0x7a>
     ac0:	22 3a       	cpi	r18, 0xA2	; 162
     ac2:	31 05       	cpc	r19, r1
     ac4:	40 f0       	brcs	.+16     	; 0xad6 <CheckButtons+0x7a>
     ac6:	2b 3b       	cpi	r18, 0xBB	; 187
     ac8:	31 05       	cpc	r19, r1
     aca:	98 f0       	brcs	.+38     	; 0xaf2 <CheckButtons+0x96>
     acc:	20 5f       	subi	r18, 0xF0	; 240
     ace:	31 09       	sbc	r19, r1
     ad0:	20 31       	cpi	r18, 0x10	; 16
     ad2:	31 05       	cpc	r19, r1
     ad4:	80 f0       	brcs	.+32     	; 0xaf6 <CheckButtons+0x9a>
};

// Returns button combination (4LSB) and number of consecutive times this combination is detected. First read should always be ignored! 
uint8_t CheckButtons(uint8_t previousValue){
    uint8_t bADC = (uint8_t)(adcBtns>>4);
    uint8_t bNibble = 0x0F;     //MSB to LSB: Bottom left, top left, top right, bottom right, 0F is error
     ad6:	9f e0       	ldi	r25, 0x0F	; 15
     ad8:	11 c0       	rjmp	.+34     	; 0xafc <CheckButtons+0xa0>
        case 35 ... 39:          //37: Both left
        bNibble = 0b1100;
        break;

        case 45 ... 49:          //47: Both bottom
        bNibble = 0b1001;
     ada:	99 e0       	ldi	r25, 0x09	; 9
        break;
     adc:	0f c0       	rjmp	.+30     	; 0xafc <CheckButtons+0xa0>

        case 50 ... 54:          //52: Bottom left
        bNibble = 0b1000;
     ade:	98 e0       	ldi	r25, 0x08	; 8
        break;
     ae0:	0d c0       	rjmp	.+26     	; 0xafc <CheckButtons+0xa0>

        case 62 ... 68:          //65: Both top
        bNibble = 0b0110;
     ae2:	96 e0       	ldi	r25, 0x06	; 6
        break;
     ae4:	0b c0       	rjmp	.+22     	; 0xafc <CheckButtons+0xa0>

        case 83 ... 91:          //87: Top left
        bNibble = 0b0100;
     ae6:	94 e0       	ldi	r25, 0x04	; 4
        break;
     ae8:	09 c0       	rjmp	.+18     	; 0xafc <CheckButtons+0xa0>

        case 99 ... 109:         //104: Both right
        bNibble = 0b0011;
     aea:	93 e0       	ldi	r25, 0x03	; 3
        break;
     aec:	07 c0       	rjmp	.+14     	; 0xafc <CheckButtons+0xa0>

        case 121 ... 137:        //129: Top right
        bNibble = 0b0010;
     aee:	92 e0       	ldi	r25, 0x02	; 2
        break;
     af0:	05 c0       	rjmp	.+10     	; 0xafc <CheckButtons+0xa0>

        case 162 ... 186:        //174: Bottom right
        bNibble = 0b0001;
     af2:	91 e0       	ldi	r25, 0x01	; 1
        break;
     af4:	03 c0       	rjmp	.+6      	; 0xafc <CheckButtons+0xa0>

        case 240 ... 255:        //255: No button pressed
        bNibble = 0b0000;
     af6:	90 e0       	ldi	r25, 0x00	; 0
        break;
     af8:	01 c0       	rjmp	.+2      	; 0xafc <CheckButtons+0xa0>
        case 28 ... 32:         //30: All buttons pressed
        bNibble = 0b1111;
        break;

        case 35 ... 39:          //37: Both left
        bNibble = 0b1100;
     afa:	9c e0       	ldi	r25, 0x0C	; 12
        case 240 ... 255:        //255: No button pressed
        bNibble = 0b0000;
        break;
    }

    if ((previousValue&0x0F)==bNibble){
     afc:	28 2f       	mov	r18, r24
     afe:	2f 70       	andi	r18, 0x0F	; 15
     b00:	92 13       	cpse	r25, r18
     b02:	08 c0       	rjmp	.+16     	; 0xb14 <CheckButtons+0xb8>
        if ((previousValue&0xF0) < 0xF0) previousValue += 0x10; //Same value? Increase time nibble
     b04:	28 2f       	mov	r18, r24
     b06:	20 7f       	andi	r18, 0xF0	; 240
     b08:	30 e0       	ldi	r19, 0x00	; 0
     b0a:	20 3f       	cpi	r18, 0xF0	; 240
     b0c:	31 05       	cpc	r19, r1
     b0e:	3c f4       	brge	.+14     	; 0xb1e <CheckButtons+0xc2>
     b10:	80 5f       	subi	r24, 0xF0	; 240
     b12:	08 95       	ret
        return previousValue;       
    } else if (bNibble == 0) return 0xFF; //Buttons released, 0xFF triggers readout, previousValue holds last button value.
     b14:	91 11       	cpse	r25, r1
     b16:	02 c0       	rjmp	.+4      	; 0xb1c <CheckButtons+0xc0>
     b18:	8f ef       	ldi	r24, 0xFF	; 255
     b1a:	08 95       	ret
              else return bNibble;  //New value  
     b1c:	89 2f       	mov	r24, r25
}
     b1e:	08 95       	ret

00000b20 <lfsr>:

uint8_t lfsr(){
    static uint16_t state = 0xd401;
    state ^= (state << 13);
     b20:	20 91 85 38 	lds	r18, 0x3885	; 0x803885 <state.3863>
     b24:	30 91 86 38 	lds	r19, 0x3886	; 0x803886 <state.3863+0x1>
     b28:	c9 01       	movw	r24, r18
     b2a:	98 2f       	mov	r25, r24
     b2c:	88 27       	eor	r24, r24
     b2e:	92 95       	swap	r25
     b30:	99 0f       	add	r25, r25
     b32:	90 7e       	andi	r25, 0xE0	; 224
     b34:	82 27       	eor	r24, r18
     b36:	93 27       	eor	r25, r19
    state ^= (state >> 9);
     b38:	9c 01       	movw	r18, r24
     b3a:	23 2f       	mov	r18, r19
     b3c:	33 27       	eor	r19, r19
     b3e:	26 95       	lsr	r18
     b40:	82 27       	eor	r24, r18
     b42:	93 27       	eor	r25, r19
    state ^= (state << 7);
     b44:	9c 01       	movw	r18, r24
     b46:	36 95       	lsr	r19
     b48:	32 2f       	mov	r19, r18
     b4a:	22 27       	eor	r18, r18
     b4c:	37 95       	ror	r19
     b4e:	27 95       	ror	r18
     b50:	82 27       	eor	r24, r18
     b52:	93 27       	eor	r25, r19
     b54:	80 93 85 38 	sts	0x3885, r24	; 0x803885 <state.3863>
     b58:	90 93 86 38 	sts	0x3886, r25	; 0x803886 <state.3863+0x1>
    return (state & 0xff);
}
     b5c:	08 95       	ret

00000b5e <floatSpeed>:

void floatSpeed(uint8_t bits, uint16_t min, uint16_t max){
     b5e:	df 92       	push	r13
     b60:	ef 92       	push	r14
     b62:	ff 92       	push	r15
     b64:	0f 93       	push	r16
     b66:	1f 93       	push	r17
     b68:	cf 93       	push	r28
     b6a:	df 93       	push	r29
     b6c:	8b 01       	movw	r16, r22
     b6e:	7a 01       	movw	r14, r20
    uint16_t val = TCB1_CCMP;
     b70:	c0 91 5c 0a 	lds	r28, 0x0A5C	; 0x800a5c <__TEXT_REGION_LENGTH__+0x700a5c>
     b74:	d0 91 5d 0a 	lds	r29, 0x0A5D	; 0x800a5d <__TEXT_REGION_LENGTH__+0x700a5d>
    bits = mask[(bits-1)&0x07];
     b78:	e8 2f       	mov	r30, r24
     b7a:	f0 e0       	ldi	r31, 0x00	; 0
     b7c:	31 97       	sbiw	r30, 0x01	; 1
     b7e:	e7 70       	andi	r30, 0x07	; 7
     b80:	ff 27       	eor	r31, r31
     b82:	e9 57       	subi	r30, 0x79	; 121
     b84:	f7 4c       	sbci	r31, 0xC7	; 199
     b86:	d0 80       	ld	r13, Z
    val += (lfsr()&bits);
     b88:	cb df       	rcall	.-106    	; 0xb20 <lfsr>
     b8a:	8d 21       	and	r24, r13
     b8c:	c8 0f       	add	r28, r24
     b8e:	d1 1d       	adc	r29, r1
    val -= (lfsr()&bits);
     b90:	c7 df       	rcall	.-114    	; 0xb20 <lfsr>
     b92:	8d 21       	and	r24, r13
     b94:	c8 1b       	sub	r28, r24
     b96:	d1 09       	sbc	r29, r1
     b98:	ec 16       	cp	r14, r28
    if (val > max) val = max;    //0x038B is normal rate, for wind we need to be a bit slower
     b9a:	fd 06       	cpc	r15, r29
     b9c:	08 f0       	brcs	.+2      	; 0xba0 <floatSpeed+0x42>
     b9e:	7e 01       	movw	r14, r28

void floatSpeed(uint8_t bits, uint16_t min, uint16_t max){
    uint16_t val = TCB1_CCMP;
    bits = mask[(bits-1)&0x07];
    val += (lfsr()&bits);
    val -= (lfsr()&bits);
     ba0:	e0 16       	cp	r14, r16
    if (val > max) val = max;    //0x038B is normal rate, for wind we need to be a bit slower
    if (val < min) val = min;  
     ba2:	f1 06       	cpc	r15, r17
     ba4:	08 f4       	brcc	.+2      	; 0xba8 <floatSpeed+0x4a>
     ba6:	78 01       	movw	r14, r16
     ba8:	e0 92 5c 0a 	sts	0x0A5C, r14	; 0x800a5c <__TEXT_REGION_LENGTH__+0x700a5c>
    TCB1_CCMP = val;
     bac:	f0 92 5d 0a 	sts	0x0A5D, r15	; 0x800a5d <__TEXT_REGION_LENGTH__+0x700a5d>
     bb0:	df 91       	pop	r29
}
     bb2:	cf 91       	pop	r28
     bb4:	1f 91       	pop	r17
     bb6:	0f 91       	pop	r16
     bb8:	ff 90       	pop	r15
     bba:	ef 90       	pop	r14
     bbc:	df 90       	pop	r13
     bbe:	08 95       	ret

00000bc0 <floatAround>:
     bc0:	0f 93       	push	r16

uint8_t floatAround(uint8_t sample, uint8_t bits, uint8_t min, uint8_t max){
     bc2:	1f 93       	push	r17
     bc4:	cf 93       	push	r28
     bc6:	df 93       	push	r29
     bc8:	c8 2f       	mov	r28, r24
     bca:	04 2f       	mov	r16, r20
     bcc:	12 2f       	mov	r17, r18
    bits = mask[(bits-1)&0x07];
     bce:	e6 2f       	mov	r30, r22
     bd0:	f0 e0       	ldi	r31, 0x00	; 0
     bd2:	31 97       	sbiw	r30, 0x01	; 1
     bd4:	e7 70       	andi	r30, 0x07	; 7
     bd6:	ff 27       	eor	r31, r31
     bd8:	e9 57       	subi	r30, 0x79	; 121
     bda:	f7 4c       	sbci	r31, 0xC7	; 199
     bdc:	d0 81       	ld	r29, Z
    sample += lfsr()&bits;
     bde:	a0 df       	rcall	.-192    	; 0xb20 <lfsr>
     be0:	8d 23       	and	r24, r29
     be2:	c8 0f       	add	r28, r24
    sample -= lfsr()&bits;
     be4:	9d df       	rcall	.-198    	; 0xb20 <lfsr>
     be6:	8d 23       	and	r24, r29
     be8:	c8 1b       	sub	r28, r24
     bea:	8c 2f       	mov	r24, r28
     bec:	11 23       	and	r17, r17
    if (max){
     bee:	31 f0       	breq	.+12     	; 0xbfc <floatAround+0x3c>
     bf0:	1c 17       	cp	r17, r28
        if (sample > max) sample = max;
     bf2:	08 f4       	brcc	.+2      	; 0xbf6 <floatAround+0x36>
     bf4:	81 2f       	mov	r24, r17
     bf6:	80 17       	cp	r24, r16
        if (sample < min) sample = min;
     bf8:	08 f4       	brcc	.+2      	; 0xbfc <floatAround+0x3c>
     bfa:	80 2f       	mov	r24, r16
     bfc:	df 91       	pop	r29
    }
    return sample;
}
     bfe:	cf 91       	pop	r28
     c00:	1f 91       	pop	r17
     c02:	0f 91       	pop	r16
     c04:	08 95       	ret

00000c06 <SaveGameState>:
     c06:	1f 93       	push	r17

//Save changed data to EEPROM
uint8_t SaveGameState(){
     c08:	cf 93       	push	r28
     c0a:	df 93       	push	r29
     c0c:	cd b7       	in	r28, 0x3d	; 61
     c0e:	de b7       	in	r29, 0x3e	; 62
     c10:	64 97       	sbiw	r28, 0x14	; 20
     c12:	cd bf       	out	0x3d, r28	; 61
     c14:	de bf       	out	0x3e, r29	; 62
    uint8_t gameCheck[BOOTCHK];

    //Read all data up to the boot/check result address from EEPROM
    EERead(0, &gameCheck[0], BOOTCHK);
     c16:	44 e1       	ldi	r20, 0x14	; 20
     c18:	be 01       	movw	r22, r28
     c1a:	6f 5f       	subi	r22, 0xFF	; 255
     c1c:	7f 4f       	sbci	r23, 0xFF	; 255
     c1e:	80 e0       	ldi	r24, 0x00	; 0
     c20:	bf de       	rcall	.-642    	; 0x9a0 <EERead>

    //Check game status bits
    for (uint8_t x=0; x<STATLEN; ++x){
     c22:	10 e0       	ldi	r17, 0x00	; 0
     c24:	17 c0       	rjmp	.+46     	; 0xc54 <SaveGameState+0x4e>
        if (gameState[x] != gameCheck[x]){
     c26:	61 2f       	mov	r22, r17
     c28:	70 e0       	ldi	r23, 0x00	; 0
     c2a:	fb 01       	movw	r30, r22
     c2c:	ea 57       	subi	r30, 0x7A	; 122
     c2e:	f5 4c       	sbci	r31, 0xC5	; 197
     c30:	90 81       	ld	r25, Z
     c32:	e1 e0       	ldi	r30, 0x01	; 1
     c34:	f0 e0       	ldi	r31, 0x00	; 0
     c36:	ec 0f       	add	r30, r28
     c38:	fd 1f       	adc	r31, r29
     c3a:	e6 0f       	add	r30, r22
     c3c:	f7 1f       	adc	r31, r23
     c3e:	80 81       	ld	r24, Z
     c40:	98 17       	cp	r25, r24
     c42:	39 f0       	breq	.+14     	; 0xc52 <SaveGameState+0x4c>
            if (EEWrite(x, &gameState[x], 1)) return 1;
     c44:	6a 57       	subi	r22, 0x7A	; 122
     c46:	75 4c       	sbci	r23, 0xC5	; 197
     c48:	41 e0       	ldi	r20, 0x01	; 1
     c4a:	81 2f       	mov	r24, r17
     c4c:	ba de       	rcall	.-652    	; 0x9c2 <EEWrite>
     c4e:	81 11       	cpse	r24, r1
     c50:	39 c0       	rjmp	.+114    	; 0xcc4 <SaveGameState+0xbe>

    //Read all data up to the boot/check result address from EEPROM
    EERead(0, &gameCheck[0], BOOTCHK);

    //Check game status bits
    for (uint8_t x=0; x<STATLEN; ++x){
     c52:	1f 5f       	subi	r17, 0xFF	; 255
     c54:	10 31       	cpi	r17, 0x10	; 16
     c56:	38 f3       	brcs	.-50     	; 0xc26 <SaveGameState+0x20>
            if (EEWrite(x, &gameState[x], 1)) return 1;
        }
    }

    //Check the inventory too
    gameState[INVADDR] = (uint8_t)(inventory[0]>>8);
     c58:	a6 e9       	ldi	r26, 0x96	; 150
     c5a:	b8 e3       	ldi	r27, 0x38	; 56
     c5c:	2d 91       	ld	r18, X+
     c5e:	3c 91       	ld	r19, X
     c60:	11 97       	sbiw	r26, 0x01	; 1
     c62:	e6 e8       	ldi	r30, 0x86	; 134
     c64:	fa e3       	ldi	r31, 0x3A	; 58
     c66:	30 8b       	std	Z+16, r19	; 0x10
    gameState[INVADDR+1] = (uint8_t)(inventory[0]&0xff);
     c68:	21 8b       	std	Z+17, r18	; 0x11
    gameState[INVADDR+2] = (uint8_t)(inventory[1]>>8);
     c6a:	12 96       	adiw	r26, 0x02	; 2
     c6c:	8c 91       	ld	r24, X
     c6e:	12 97       	sbiw	r26, 0x02	; 2
     c70:	13 96       	adiw	r26, 0x03	; 3
     c72:	9c 91       	ld	r25, X
     c74:	92 8b       	std	Z+18, r25	; 0x12
    gameState[INVADDR+3] = (uint8_t)(inventory[1]&0xff);
     c76:	83 8b       	std	Z+19, r24	; 0x13
    if (inventory[0] != (gameCheck[INVADDR]<<8|gameCheck[INVADDR+1])) {
     c78:	89 89       	ldd	r24, Y+17	; 0x11
     c7a:	90 e0       	ldi	r25, 0x00	; 0
     c7c:	98 2f       	mov	r25, r24
     c7e:	88 27       	eor	r24, r24
     c80:	4a 89       	ldd	r20, Y+18	; 0x12
     c82:	84 2b       	or	r24, r20
     c84:	28 17       	cp	r18, r24
     c86:	39 07       	cpc	r19, r25
     c88:	39 f0       	breq	.+14     	; 0xc98 <SaveGameState+0x92>
        if (EEWrite(INVADDR, &gameState[INVADDR], 2)) return 1;
     c8a:	42 e0       	ldi	r20, 0x02	; 2
     c8c:	66 e9       	ldi	r22, 0x96	; 150
     c8e:	7a e3       	ldi	r23, 0x3A	; 58
     c90:	80 e1       	ldi	r24, 0x10	; 16
     c92:	97 de       	rcall	.-722    	; 0x9c2 <EEWrite>
     c94:	81 11       	cpse	r24, r1
     c96:	18 c0       	rjmp	.+48     	; 0xcc8 <SaveGameState+0xc2>
    }
    if (inventory[1] != (gameCheck[INVADDR+2]<<8|gameCheck[INVADDR+3])) {
     c98:	20 91 98 38 	lds	r18, 0x3898	; 0x803898 <inventory+0x2>
     c9c:	30 91 99 38 	lds	r19, 0x3899	; 0x803899 <inventory+0x3>
     ca0:	8b 89       	ldd	r24, Y+19	; 0x13
     ca2:	90 e0       	ldi	r25, 0x00	; 0
     ca4:	98 2f       	mov	r25, r24
     ca6:	88 27       	eor	r24, r24
     ca8:	4c 89       	ldd	r20, Y+20	; 0x14
     caa:	84 2b       	or	r24, r20
     cac:	28 17       	cp	r18, r24
     cae:	39 07       	cpc	r19, r25
     cb0:	69 f0       	breq	.+26     	; 0xccc <SaveGameState+0xc6>
        if (EEWrite(INVADDR+2, &gameState[INVADDR+2], 2)) return 1;
     cb2:	42 e0       	ldi	r20, 0x02	; 2
     cb4:	68 e9       	ldi	r22, 0x98	; 152
     cb6:	7a e3       	ldi	r23, 0x3A	; 58
     cb8:	82 e1       	ldi	r24, 0x12	; 18
     cba:	83 de       	rcall	.-762    	; 0x9c2 <EEWrite>
     cbc:	88 23       	and	r24, r24
     cbe:	39 f0       	breq	.+14     	; 0xcce <SaveGameState+0xc8>
     cc0:	81 e0       	ldi	r24, 0x01	; 1
     cc2:	05 c0       	rjmp	.+10     	; 0xcce <SaveGameState+0xc8>
    EERead(0, &gameCheck[0], BOOTCHK);

    //Check game status bits
    for (uint8_t x=0; x<STATLEN; ++x){
        if (gameState[x] != gameCheck[x]){
            if (EEWrite(x, &gameState[x], 1)) return 1;
     cc4:	81 e0       	ldi	r24, 0x01	; 1
     cc6:	03 c0       	rjmp	.+6      	; 0xcce <SaveGameState+0xc8>
    gameState[INVADDR] = (uint8_t)(inventory[0]>>8);
    gameState[INVADDR+1] = (uint8_t)(inventory[0]&0xff);
    gameState[INVADDR+2] = (uint8_t)(inventory[1]>>8);
    gameState[INVADDR+3] = (uint8_t)(inventory[1]&0xff);
    if (inventory[0] != (gameCheck[INVADDR]<<8|gameCheck[INVADDR+1])) {
        if (EEWrite(INVADDR, &gameState[INVADDR], 2)) return 1;
     cc8:	81 e0       	ldi	r24, 0x01	; 1
     cca:	01 c0       	rjmp	.+2      	; 0xcce <SaveGameState+0xc8>
    }
    if (inventory[1] != (gameCheck[INVADDR+2]<<8|gameCheck[INVADDR+3])) {
        if (EEWrite(INVADDR+2, &gameState[INVADDR+2], 2)) return 1;
    }

    return 0;
     ccc:	80 e0       	ldi	r24, 0x00	; 0
}
     cce:	64 96       	adiw	r28, 0x14	; 20
     cd0:	cd bf       	out	0x3d, r28	; 61
     cd2:	de bf       	out	0x3e, r29	; 62
     cd4:	df 91       	pop	r29
     cd6:	cf 91       	pop	r28
     cd8:	1f 91       	pop	r17
     cda:	08 95       	ret

00000cdc <ReadStatusBit>:

uint8_t ReadStatusBit(uint8_t number){
    number &= 0x7f;
     cdc:	e8 2f       	mov	r30, r24
     cde:	ef 77       	andi	r30, 0x7F	; 127
    if (gameState[number>>3] & (1<<(number&7))) return 1; else return 0;
     ce0:	e6 95       	lsr	r30
     ce2:	e6 95       	lsr	r30
     ce4:	e6 95       	lsr	r30
     ce6:	f0 e0       	ldi	r31, 0x00	; 0
     ce8:	ea 57       	subi	r30, 0x7A	; 122
     cea:	f5 4c       	sbci	r31, 0xC5	; 197
     cec:	90 81       	ld	r25, Z
     cee:	28 2f       	mov	r18, r24
     cf0:	27 70       	andi	r18, 0x07	; 7
     cf2:	89 2f       	mov	r24, r25
     cf4:	90 e0       	ldi	r25, 0x00	; 0
     cf6:	02 c0       	rjmp	.+4      	; 0xcfc <ReadStatusBit+0x20>
     cf8:	95 95       	asr	r25
     cfa:	87 95       	ror	r24
     cfc:	2a 95       	dec	r18
     cfe:	e2 f7       	brpl	.-8      	; 0xcf8 <ReadStatusBit+0x1c>
     d00:	80 ff       	sbrs	r24, 0
     d02:	02 c0       	rjmp	.+4      	; 0xd08 <ReadStatusBit+0x2c>
     d04:	81 e0       	ldi	r24, 0x01	; 1
     d06:	08 95       	ret
     d08:	80 e0       	ldi	r24, 0x00	; 0
}
     d0a:	08 95       	ret

00000d0c <WriteStatusBit>:

void WriteStatusBit(uint8_t number, uint8_t state){
    number &= 0x7f;
     d0c:	e8 2f       	mov	r30, r24
     d0e:	ef 77       	andi	r30, 0x7F	; 127
    if (state) gameState[number>>3] |= 1<<(number&7);
     d10:	66 23       	and	r22, r22
     d12:	a1 f0       	breq	.+40     	; 0xd3c <WriteStatusBit+0x30>
     d14:	e6 95       	lsr	r30
     d16:	e6 95       	lsr	r30
     d18:	e6 95       	lsr	r30
     d1a:	f0 e0       	ldi	r31, 0x00	; 0
     d1c:	87 70       	andi	r24, 0x07	; 7
     d1e:	21 e0       	ldi	r18, 0x01	; 1
     d20:	30 e0       	ldi	r19, 0x00	; 0
     d22:	a9 01       	movw	r20, r18
     d24:	02 c0       	rjmp	.+4      	; 0xd2a <WriteStatusBit+0x1e>
     d26:	44 0f       	add	r20, r20
     d28:	55 1f       	adc	r21, r21
     d2a:	8a 95       	dec	r24
     d2c:	e2 f7       	brpl	.-8      	; 0xd26 <WriteStatusBit+0x1a>
     d2e:	ca 01       	movw	r24, r20
     d30:	ea 57       	subi	r30, 0x7A	; 122
     d32:	f5 4c       	sbci	r31, 0xC5	; 197
     d34:	90 81       	ld	r25, Z
     d36:	89 2b       	or	r24, r25
     d38:	80 83       	st	Z, r24
     d3a:	08 95       	ret
    else gameState[number>>3] &= ~(1<<(number&7));
     d3c:	e6 95       	lsr	r30
     d3e:	e6 95       	lsr	r30
     d40:	e6 95       	lsr	r30
     d42:	f0 e0       	ldi	r31, 0x00	; 0
     d44:	87 70       	andi	r24, 0x07	; 7
     d46:	21 e0       	ldi	r18, 0x01	; 1
     d48:	30 e0       	ldi	r19, 0x00	; 0
     d4a:	a9 01       	movw	r20, r18
     d4c:	02 c0       	rjmp	.+4      	; 0xd52 <WriteStatusBit+0x46>
     d4e:	44 0f       	add	r20, r20
     d50:	55 1f       	adc	r21, r21
     d52:	8a 95       	dec	r24
     d54:	e2 f7       	brpl	.-8      	; 0xd4e <WriteStatusBit+0x42>
     d56:	ca 01       	movw	r24, r20
     d58:	ea 57       	subi	r30, 0x7A	; 122
     d5a:	f5 4c       	sbci	r31, 0xC5	; 197
     d5c:	80 95       	com	r24
     d5e:	90 81       	ld	r25, Z
     d60:	89 23       	and	r24, r25
     d62:	80 83       	st	Z, r24
     d64:	08 95       	ret

00000d66 <getID>:
    //Give out a number 0..3, calculated using serial number fields
    uint8_t id = 0;
    uint8_t *serNum;
    serNum = (uint8_t*)&SIGROW_SERNUM0;

    for (uint8_t x=0; x<10; ++x){
     d66:	90 e0       	ldi	r25, 0x00	; 0

uint8_t getID(){
    //Give out a number 0..3, calculated using serial number fields
    uint8_t id = 0;
    uint8_t *serNum;
    serNum = (uint8_t*)&SIGROW_SERNUM0;
     d68:	e3 e0       	ldi	r30, 0x03	; 3
     d6a:	f1 e1       	ldi	r31, 0x11	; 17
    else gameState[number>>3] &= ~(1<<(number&7));
}

uint8_t getID(){
    //Give out a number 0..3, calculated using serial number fields
    uint8_t id = 0;
     d6c:	80 e0       	ldi	r24, 0x00	; 0
    uint8_t *serNum;
    serNum = (uint8_t*)&SIGROW_SERNUM0;

    for (uint8_t x=0; x<10; ++x){
     d6e:	03 c0       	rjmp	.+6      	; 0xd76 <getID+0x10>
        id += *serNum;
     d70:	21 91       	ld	r18, Z+
     d72:	82 0f       	add	r24, r18
    //Give out a number 0..3, calculated using serial number fields
    uint8_t id = 0;
    uint8_t *serNum;
    serNum = (uint8_t*)&SIGROW_SERNUM0;

    for (uint8_t x=0; x<10; ++x){
     d74:	9f 5f       	subi	r25, 0xFF	; 255
     d76:	9a 30       	cpi	r25, 0x0A	; 10
     d78:	d8 f3       	brcs	.-10     	; 0xd70 <getID+0xa>
        id += *serNum;
        ++serNum;
    }
    id %= 4;
     d7a:	83 70       	andi	r24, 0x03	; 3
    whoami = id+1;
     d7c:	8f 5f       	subi	r24, 0xFF	; 255
     d7e:	80 93 95 38 	sts	0x3895, r24	; 0x803895 <whoami>
    return whoami;
}
     d82:	08 95       	ret

00000d84 <Reset>:
    //Reset game progress (all zeroes) and load some bits:
    //# 110   set to 1 by FW if badge UUID mod 4 == 0
    //# 111   set to 1 by FW if badge UUID mod 4 == 1
    //# 112   set to 1 by FW if badge UUID mod 4 == 2
    //# 113   set to 1 by FW if badge UUID mod 4 == 3
    for (uint8_t x=0; x<sizeof(gameState); ++x){
     d84:	80 e0       	ldi	r24, 0x00	; 0
     d86:	06 c0       	rjmp	.+12     	; 0xd94 <Reset+0x10>
        gameState[x] = 0;
     d88:	e8 2f       	mov	r30, r24
     d8a:	f0 e0       	ldi	r31, 0x00	; 0
     d8c:	ea 57       	subi	r30, 0x7A	; 122
     d8e:	f5 4c       	sbci	r31, 0xC5	; 197
     d90:	10 82       	st	Z, r1
    //Reset game progress (all zeroes) and load some bits:
    //# 110   set to 1 by FW if badge UUID mod 4 == 0
    //# 111   set to 1 by FW if badge UUID mod 4 == 1
    //# 112   set to 1 by FW if badge UUID mod 4 == 2
    //# 113   set to 1 by FW if badge UUID mod 4 == 3
    for (uint8_t x=0; x<sizeof(gameState); ++x){
     d92:	8f 5f       	subi	r24, 0xFF	; 255
     d94:	84 31       	cpi	r24, 0x14	; 20
     d96:	c0 f3       	brcs	.-16     	; 0xd88 <Reset+0x4>
        gameState[x] = 0;
    }

    uint8_t id = getID();
     d98:	e6 df       	rcall	.-52     	; 0xd66 <getID>

    //Write bit in gameState location 110..113
    if (id == 0) WriteStatusBit(110, 1);
     d9a:	81 11       	cpse	r24, r1
     d9c:	04 c0       	rjmp	.+8      	; 0xda6 <Reset+0x22>
     d9e:	61 e0       	ldi	r22, 0x01	; 1
     da0:	8e e6       	ldi	r24, 0x6E	; 110
     da2:	b4 df       	rcall	.-152    	; 0xd0c <WriteStatusBit>
     da4:	11 c0       	rjmp	.+34     	; 0xdc8 <Reset+0x44>
    else if (id == 1) WriteStatusBit(111, 1);
     da6:	81 30       	cpi	r24, 0x01	; 1
     da8:	21 f4       	brne	.+8      	; 0xdb2 <Reset+0x2e>
     daa:	61 e0       	ldi	r22, 0x01	; 1
     dac:	8f e6       	ldi	r24, 0x6F	; 111
     dae:	ae df       	rcall	.-164    	; 0xd0c <WriteStatusBit>
     db0:	0b c0       	rjmp	.+22     	; 0xdc8 <Reset+0x44>
    else if (id == 2) WriteStatusBit(112, 1);
     db2:	82 30       	cpi	r24, 0x02	; 2
     db4:	21 f4       	brne	.+8      	; 0xdbe <Reset+0x3a>
     db6:	61 e0       	ldi	r22, 0x01	; 1
     db8:	80 e7       	ldi	r24, 0x70	; 112
     dba:	a8 df       	rcall	.-176    	; 0xd0c <WriteStatusBit>
     dbc:	05 c0       	rjmp	.+10     	; 0xdc8 <Reset+0x44>
    else if (id == 3) WriteStatusBit(113, 1);
     dbe:	83 30       	cpi	r24, 0x03	; 3
     dc0:	19 f4       	brne	.+6      	; 0xdc8 <Reset+0x44>
     dc2:	61 e0       	ldi	r22, 0x01	; 1
     dc4:	81 e7       	ldi	r24, 0x71	; 113

    //Write bit 0, must always be 1!
    WriteStatusBit(0, 1);
     dc6:	a2 df       	rcall	.-188    	; 0xd0c <WriteStatusBit>
     dc8:	61 e0       	ldi	r22, 0x01	; 1
     dca:	80 e0       	ldi	r24, 0x00	; 0
     dcc:	9f cf       	rjmp	.-194    	; 0xd0c <WriteStatusBit>
     dce:	08 95       	ret

00000dd0 <GenerateAudio>:
}

//void setupSound(uint8_t number){

void GenerateAudio(){
     dd0:	0f 93       	push	r16
     dd2:	1f 93       	push	r17
     dd4:	cf 93       	push	r28
     dd6:	df 93       	push	r29
    static uint8_t auBuffer[128] = {0x80, 0};
    //auRepAddr = &auBuffer[0];

    //Audio for text adventure
    if ((effect&0xff00)==0) {
     dd8:	80 91 93 38 	lds	r24, 0x3893	; 0x803893 <effect>
     ddc:	90 91 94 38 	lds	r25, 0x3894	; 0x803894 <effect+0x1>
     de0:	88 27       	eor	r24, r24
     de2:	89 2b       	or	r24, r25
     de4:	09 f0       	breq	.+2      	; 0xde8 <GenerateAudio+0x18>
     de6:	69 c0       	rjmp	.+210    	; 0xeba <GenerateAudio+0xea>

        //Silence
        if ((effect&0xE0)==0){
     de8:	80 91 93 38 	lds	r24, 0x3893	; 0x803893 <effect>
     dec:	90 91 94 38 	lds	r25, 0x3894	; 0x803894 <effect+0x1>
     df0:	80 7e       	andi	r24, 0xE0	; 224
     df2:	99 27       	eor	r25, r25
     df4:	89 2b       	or	r24, r25
     df6:	31 f4       	brne	.+12     	; 0xe04 <GenerateAudio+0x34>
            auRepAddr = &zero;
     df8:	81 e9       	ldi	r24, 0x91	; 145
     dfa:	98 e3       	ldi	r25, 0x38	; 56
     dfc:	80 93 00 38 	sts	0x3800, r24	; 0x803800 <__data_start>
     e00:	90 93 01 38 	sts	0x3801, r25	; 0x803801 <__data_start+0x1>
        }

        //Bad (buzzer)
        if ((effect&0xE0)==32){
     e04:	80 91 93 38 	lds	r24, 0x3893	; 0x803893 <effect>
     e08:	90 91 94 38 	lds	r25, 0x3894	; 0x803894 <effect+0x1>

        }

        //Good (bell)
        if ((effect&0xE0)==64){
     e0c:	80 91 93 38 	lds	r24, 0x3893	; 0x803893 <effect>
     e10:	90 91 94 38 	lds	r25, 0x3894	; 0x803894 <effect+0x1>
            //auBuffer = 
        }

        //Rain storm with whistling wind
        if ((effect&0xE0)==96){
     e14:	80 91 93 38 	lds	r24, 0x3893	; 0x803893 <effect>
     e18:	90 91 94 38 	lds	r25, 0x3894	; 0x803894 <effect+0x1>
     e1c:	80 7e       	andi	r24, 0xE0	; 224
     e1e:	99 27       	eor	r25, r25
     e20:	80 36       	cpi	r24, 0x60	; 96
     e22:	91 05       	cpc	r25, r1
     e24:	09 f0       	breq	.+2      	; 0xe28 <GenerateAudio+0x58>
     e26:	3d c0       	rjmp	.+122    	; 0xea2 <GenerateAudio+0xd2>
            auBuffer[6]= 0;        
     e28:	e5 e0       	ldi	r30, 0x05	; 5
     e2a:	f8 e3       	ldi	r31, 0x38	; 56
     e2c:	16 82       	std	Z+6, r1	; 0x06
            auRepAddr = &auBuffer[0];
     e2e:	e0 93 00 38 	sts	0x3800, r30	; 0x803800 <__data_start>
     e32:	f0 93 01 38 	sts	0x3801, r31	; 0x803801 <__data_start+0x1>

            //Noise is to be generated fast, outside of buttonMark loop
            for (uint8_t x=1; x<6; ++x){
     e36:	c1 e0       	ldi	r28, 0x01	; 1
     e38:	16 c0       	rjmp	.+44     	; 0xe66 <GenerateAudio+0x96>
                if (x%3) auBuffer[x] = floatAround(0x80, 5, 0x01, 0x00);
     e3a:	8b ea       	ldi	r24, 0xAB	; 171
     e3c:	c8 9f       	mul	r28, r24
     e3e:	81 2d       	mov	r24, r1
     e40:	11 24       	eor	r1, r1
     e42:	86 95       	lsr	r24
     e44:	98 2f       	mov	r25, r24
     e46:	99 0f       	add	r25, r25
     e48:	89 0f       	add	r24, r25
     e4a:	c8 17       	cp	r28, r24
     e4c:	59 f0       	breq	.+22     	; 0xe64 <GenerateAudio+0x94>
     e4e:	0c 2f       	mov	r16, r28
     e50:	10 e0       	ldi	r17, 0x00	; 0
     e52:	20 e0       	ldi	r18, 0x00	; 0
     e54:	41 e0       	ldi	r20, 0x01	; 1
     e56:	65 e0       	ldi	r22, 0x05	; 5
     e58:	80 e8       	ldi	r24, 0x80	; 128
     e5a:	b2 de       	rcall	.-668    	; 0xbc0 <floatAround>
     e5c:	f8 01       	movw	r30, r16
     e5e:	eb 5f       	subi	r30, 0xFB	; 251
     e60:	f7 4c       	sbci	r31, 0xC7	; 199
     e62:	80 83       	st	Z, r24
        if ((effect&0xE0)==96){
            auBuffer[6]= 0;        
            auRepAddr = &auBuffer[0];

            //Noise is to be generated fast, outside of buttonMark loop
            for (uint8_t x=1; x<6; ++x){
     e64:	cf 5f       	subi	r28, 0xFF	; 255
     e66:	c6 30       	cpi	r28, 0x06	; 6
     e68:	40 f3       	brcs	.-48     	; 0xe3a <GenerateAudio+0x6a>
                if (x%3) auBuffer[x] = floatAround(0x80, 5, 0x01, 0x00);
            }

            if (buttonMark){
     e6a:	80 91 9a 38 	lds	r24, 0x389A	; 0x80389a <buttonMark>
     e6e:	88 23       	and	r24, r24
     e70:	c1 f0       	breq	.+48     	; 0xea2 <GenerateAudio+0xd2>
                //"Floating" speed for howl (and noise, but that's hardly audible)
                floatSpeed(5, 0x0280, 0x0400);
     e72:	40 e0       	ldi	r20, 0x00	; 0
     e74:	54 e0       	ldi	r21, 0x04	; 4
     e76:	60 e8       	ldi	r22, 0x80	; 128
     e78:	72 e0       	ldi	r23, 0x02	; 2
     e7a:	85 e0       	ldi	r24, 0x05	; 5
     e7c:	70 de       	rcall	.-800    	; 0xb5e <floatSpeed>
            
                //"Floating" volume and wind howl during 8 bit rainstorm needs some randomness
                auVolume = floatAround(auVolume, 2, 0x10, 0xA0);
     e7e:	80 91 db 3a 	lds	r24, 0x3ADB	; 0x803adb <auVolume>
     e82:	20 ea       	ldi	r18, 0xA0	; 160
     e84:	40 e1       	ldi	r20, 0x10	; 16
     e86:	62 e0       	ldi	r22, 0x02	; 2
     e88:	9b de       	rcall	.-714    	; 0xbc0 <floatAround>
     e8a:	80 93 db 3a 	sts	0x3ADB, r24	; 0x803adb <auVolume>
                auBuffer[0] = floatAround(auBuffer[0], 2, 0x70, 0x90);
     e8e:	c5 e0       	ldi	r28, 0x05	; 5
     e90:	d8 e3       	ldi	r29, 0x38	; 56
     e92:	20 e9       	ldi	r18, 0x90	; 144
     e94:	40 e7       	ldi	r20, 0x70	; 112
     e96:	62 e0       	ldi	r22, 0x02	; 2
     e98:	88 81       	ld	r24, Y
     e9a:	92 de       	rcall	.-732    	; 0xbc0 <floatAround>
     e9c:	88 83       	st	Y, r24
                auBuffer[3] = 0xFF-auBuffer[0];  //Inverse value of wind[0] produces a whistle
     e9e:	80 95       	com	r24
     ea0:	8b 83       	std	Y+3, r24	; 0x03
            }
        }

        //Footsteps
        if ((effect&0xE0)==128){
     ea2:	80 91 93 38 	lds	r24, 0x3893	; 0x803893 <effect>
     ea6:	90 91 94 38 	lds	r25, 0x3894	; 0x803894 <effect+0x1>

        }

        //Knocking
        if ((effect&0xE0)==160){
     eaa:	80 91 93 38 	lds	r24, 0x3893	; 0x803893 <effect>
     eae:	90 91 94 38 	lds	r25, 0x3894	; 0x803894 <effect+0x1>

        }

        //Scream
        if ((effect&0xE0)==192){
     eb2:	80 91 93 38 	lds	r24, 0x3893	; 0x803893 <effect>
     eb6:	90 91 94 38 	lds	r25, 0x3894	; 0x803894 <effect+0x1>

        //Rain storm with whistling wind
        else {
        }
    }
     eba:	df 91       	pop	r29
     ebc:	cf 91       	pop	r28
     ebe:	1f 91       	pop	r17
     ec0:	0f 91       	pop	r16
     ec2:	08 95       	ret

00000ec4 <BastetDictates>:

// Main game loop
uint8_t BastetDictates(){
  
    return 0;
}
     ec4:	80 e0       	ldi	r24, 0x00	; 0
     ec6:	08 95       	ret

00000ec8 <DecryptData>:
static uint8_t responseList = 0;                    //
static char specialInput[16] = {0};                 //Sometimes a special input is requested by the game. When this is set, input is compared to this string first.
static uint8_t specialPassed = 0;                   //If user input matches specialInput, this is set.

//Decrypts data read from I2C EEPROM, max 255 bytes at a time
void DecryptData(uint16_t offset, uint8_t length, uint8_t type, uint8_t *data){
     ec8:	cf 93       	push	r28
     eca:	df 93       	push	r29
     ecc:	ec 01       	movw	r28, r24
    //offset += L_BOILER;
    while(length){
     ece:	17 c0       	rjmp	.+46     	; 0xefe <DecryptData+0x36>
        *data ^= xor_key[type][(uint8_t)(offset%KEY_LENGTH)];
     ed0:	e4 2f       	mov	r30, r20
     ed2:	f0 e0       	ldi	r31, 0x00	; 0
     ed4:	de 01       	movw	r26, r28
     ed6:	a7 70       	andi	r26, 0x07	; 7
     ed8:	bb 27       	eor	r27, r27
     eda:	ee 0f       	add	r30, r30
     edc:	ff 1f       	adc	r31, r31
     ede:	ee 0f       	add	r30, r30
     ee0:	ff 1f       	adc	r31, r31
     ee2:	ee 0f       	add	r30, r30
     ee4:	ff 1f       	adc	r31, r31
     ee6:	ec 5f       	subi	r30, 0xFC	; 252
     ee8:	fa 45       	sbci	r31, 0x5A	; 90
     eea:	ea 0f       	add	r30, r26
     eec:	fb 1f       	adc	r31, r27
     eee:	90 81       	ld	r25, Z
     ef0:	f9 01       	movw	r30, r18
     ef2:	80 81       	ld	r24, Z
     ef4:	98 27       	eor	r25, r24
     ef6:	91 93       	st	Z+, r25
     ef8:	9f 01       	movw	r18, r30
        ++data;
        ++offset;
     efa:	21 96       	adiw	r28, 0x01	; 1
        --length;
     efc:	61 50       	subi	r22, 0x01	; 1
static uint8_t specialPassed = 0;                   //If user input matches specialInput, this is set.

//Decrypts data read from I2C EEPROM, max 255 bytes at a time
void DecryptData(uint16_t offset, uint8_t length, uint8_t type, uint8_t *data){
    //offset += L_BOILER;
    while(length){
     efe:	61 11       	cpse	r22, r1
     f00:	e7 cf       	rjmp	.-50     	; 0xed0 <DecryptData+0x8>
        *data ^= xor_key[type][(uint8_t)(offset%KEY_LENGTH)];
        ++data;
        ++offset;
        --length;
    }
}
     f02:	df 91       	pop	r29
     f04:	cf 91       	pop	r28
     f06:	08 95       	ret

00000f08 <ExtEERead>:

//Game data: Read a number of bytes and decrypt
uint8_t ExtEERead(uint16_t offset, uint8_t length, uint8_t type, uint8_t *data){
     f08:	bf 92       	push	r11
     f0a:	cf 92       	push	r12
     f0c:	df 92       	push	r13
     f0e:	ef 92       	push	r14
     f10:	ff 92       	push	r15
     f12:	0f 93       	push	r16
     f14:	1f 93       	push	r17
     f16:	cf 93       	push	r28
     f18:	df 93       	push	r29
     f1a:	00 d0       	rcall	.+0      	; 0xf1c <ExtEERead+0x14>
     f1c:	cd b7       	in	r28, 0x3d	; 61
     f1e:	de b7       	in	r29, 0x3e	; 62
     f20:	16 2f       	mov	r17, r22
     f22:	b4 2e       	mov	r11, r20
     f24:	69 01       	movw	r12, r18
    offset &=EXT_EE_MAX;
     f26:	7c 01       	movw	r14, r24
     f28:	e8 94       	clt
     f2a:	f7 f8       	bld	r15, 7
    uint8_t reg[2] = {(uint8_t)(offset>>8), (uint8_t)(offset&0xff)};
     f2c:	f9 82       	std	Y+1, r15	; 0x01
     f2e:	ea 82       	std	Y+2, r14	; 0x02
    uint8_t error = (I2C_read_bytes(EE_I2C_ADDR, &reg[0], 2, data, length));
     f30:	06 2f       	mov	r16, r22
     f32:	42 e0       	ldi	r20, 0x02	; 2
     f34:	be 01       	movw	r22, r28
     f36:	6f 5f       	subi	r22, 0xFF	; 255
     f38:	7f 4f       	sbci	r23, 0xFF	; 255
     f3a:	80 e5       	ldi	r24, 0x50	; 80
     f3c:	c8 d9       	rcall	.-3184   	; 0x2ce <I2C_read_bytes>
    if (error) return error;
     f3e:	81 11       	cpse	r24, r1
     f40:	06 c0       	rjmp	.+12     	; 0xf4e <ExtEERead+0x46>
    DecryptData(offset, length, type, data);
     f42:	96 01       	movw	r18, r12
     f44:	4b 2d       	mov	r20, r11
     f46:	61 2f       	mov	r22, r17
     f48:	c7 01       	movw	r24, r14
     f4a:	be df       	rcall	.-132    	; 0xec8 <DecryptData>
    return 0;
     f4c:	80 e0       	ldi	r24, 0x00	; 0
}
     f4e:	0f 90       	pop	r0
     f50:	0f 90       	pop	r0
     f52:	df 91       	pop	r29
     f54:	cf 91       	pop	r28
     f56:	1f 91       	pop	r17
     f58:	0f 91       	pop	r16
     f5a:	ff 90       	pop	r15
     f5c:	ef 90       	pop	r14
     f5e:	df 90       	pop	r13
     f60:	cf 90       	pop	r12
     f62:	bf 90       	pop	r11
     f64:	08 95       	ret

00000f66 <ClearTxAfter>:

//Empty all other strings
void ClearTxAfter(uint8_t nr){
    for (uint8_t x=(nr+1); x<TXLISTLEN; ++x) txStrLen[x]=0;
     f66:	8f 5f       	subi	r24, 0xFF	; 255
     f68:	06 c0       	rjmp	.+12     	; 0xf76 <ClearTxAfter+0x10>
     f6a:	e8 2f       	mov	r30, r24
     f6c:	f0 e0       	ldi	r31, 0x00	; 0
     f6e:	e4 59       	subi	r30, 0x94	; 148
     f70:	f5 4c       	sbci	r31, 0xC5	; 197
     f72:	10 82       	st	Z, r1
     f74:	8f 5f       	subi	r24, 0xFF	; 255
     f76:	88 30       	cpi	r24, 0x08	; 8
     f78:	c0 f3       	brcs	.-16     	; 0xf6a <ClearTxAfter+0x4>
}
     f7a:	08 95       	ret

00000f7c <StartsWith>:

//Check if an input string starts with compare string
uint8_t StartsWith(uint8_t *data, char *compare){
     f7c:	dc 01       	movw	r26, r24
    uint8_t x=0;
     f7e:	40 e0       	ldi	r20, 0x00	; 0
    while (data[x] && compare[x]){
     f80:	03 c0       	rjmp	.+6      	; 0xf88 <StartsWith+0xc>
        if(data[x] != compare[x]) return 0;
     f82:	95 13       	cpse	r25, r21
     f84:	17 c0       	rjmp	.+46     	; 0xfb4 <StartsWith+0x38>
        ++x;
     f86:	4f 5f       	subi	r20, 0xFF	; 255
}

//Check if an input string starts with compare string
uint8_t StartsWith(uint8_t *data, char *compare){
    uint8_t x=0;
    while (data[x] && compare[x]){
     f88:	24 2f       	mov	r18, r20
     f8a:	30 e0       	ldi	r19, 0x00	; 0
     f8c:	fd 01       	movw	r30, r26
     f8e:	e2 0f       	add	r30, r18
     f90:	f3 1f       	adc	r31, r19
     f92:	90 81       	ld	r25, Z
     f94:	99 23       	and	r25, r25
     f96:	31 f0       	breq	.+12     	; 0xfa4 <StartsWith+0x28>
     f98:	fb 01       	movw	r30, r22
     f9a:	e2 0f       	add	r30, r18
     f9c:	f3 1f       	adc	r31, r19
     f9e:	50 81       	ld	r21, Z
     fa0:	51 11       	cpse	r21, r1
     fa2:	ef cf       	rjmp	.-34     	; 0xf82 <StartsWith+0x6>
        if(data[x] != compare[x]) return 0;
        ++x;
    }
    if (compare[x] > 0) return 0; //Not the entire string found
     fa4:	fb 01       	movw	r30, r22
     fa6:	e2 0f       	add	r30, r18
     fa8:	f3 1f       	adc	r31, r19
     faa:	80 81       	ld	r24, Z
     fac:	88 23       	and	r24, r24
     fae:	21 f0       	breq	.+8      	; 0xfb8 <StartsWith+0x3c>
     fb0:	80 e0       	ldi	r24, 0x00	; 0
     fb2:	08 95       	ret

//Check if an input string starts with compare string
uint8_t StartsWith(uint8_t *data, char *compare){
    uint8_t x=0;
    while (data[x] && compare[x]){
        if(data[x] != compare[x]) return 0;
     fb4:	80 e0       	ldi	r24, 0x00	; 0
     fb6:	08 95       	ret
        ++x;
    }
    if (compare[x] > 0) return 0; //Not the entire string found
    return 1;
     fb8:	81 e0       	ldi	r24, 0x01	; 1
}
     fba:	08 95       	ret

00000fbc <PrepareSending>:

//Put the addresses of text that has to be sent in the address/length lists.
uint8_t PrepareSending(uint16_t address, uint16_t length, uint8_t type){
     fbc:	cf 93       	push	r28
     fbe:	df 93       	push	r29
     fc0:	eb 01       	movw	r28, r22
    uint8_t x=0;
    if (length){
     fc2:	20 97       	sbiw	r28, 0x00	; 0
     fc4:	b9 f4       	brne	.+46     	; 0xff4 <PrepareSending+0x38>
     fc6:	41 c0       	rjmp	.+130    	; 0x104a <PrepareSending+0x8e>
        
        while (length>255) {
            txAddrList[x] = address;
     fc8:	25 2f       	mov	r18, r21
     fca:	30 e0       	ldi	r19, 0x00	; 0
     fcc:	f9 01       	movw	r30, r18
     fce:	ee 0f       	add	r30, r30
     fd0:	ff 1f       	adc	r31, r31
     fd2:	ec 58       	subi	r30, 0x8C	; 140
     fd4:	f5 4c       	sbci	r31, 0xC5	; 197
     fd6:	80 83       	st	Z, r24
     fd8:	91 83       	std	Z+1, r25	; 0x01
            txStrLen[x] = 255;
     fda:	f9 01       	movw	r30, r18
     fdc:	e4 59       	subi	r30, 0x94	; 148
     fde:	f5 4c       	sbci	r31, 0xC5	; 197
     fe0:	6f ef       	ldi	r22, 0xFF	; 255
     fe2:	60 83       	st	Z, r22
            address += 255;
     fe4:	81 50       	subi	r24, 0x01	; 1
     fe6:	9f 4f       	sbci	r25, 0xFF	; 255
            length -= 255;
     fe8:	cf 5f       	subi	r28, 0xFF	; 255
     fea:	d1 09       	sbc	r29, r1
            ++x;
     fec:	5f 5f       	subi	r21, 0xFF	; 255
            if (x==(TXLISTLEN-1)) return 1;
     fee:	57 30       	cpi	r21, 0x07	; 7
     ff0:	11 f4       	brne	.+4      	; 0xff6 <PrepareSending+0x3a>
     ff2:	36 c0       	rjmp	.+108    	; 0x1060 <PrepareSending+0xa4>
     ff4:	50 e0       	ldi	r21, 0x00	; 0
//Put the addresses of text that has to be sent in the address/length lists.
uint8_t PrepareSending(uint16_t address, uint16_t length, uint8_t type){
    uint8_t x=0;
    if (length){
        
        while (length>255) {
     ff6:	cf 3f       	cpi	r28, 0xFF	; 255
     ff8:	d1 05       	cpc	r29, r1
     ffa:	09 f0       	breq	.+2      	; 0xffe <PrepareSending+0x42>
     ffc:	28 f7       	brcc	.-54     	; 0xfc8 <PrepareSending+0xc>
            address += 255;
            length -= 255;
            ++x;
            if (x==(TXLISTLEN-1)) return 1;
        }
        txAddrList[x]=address;
     ffe:	e5 2f       	mov	r30, r21
    1000:	f0 e0       	ldi	r31, 0x00	; 0
    1002:	df 01       	movw	r26, r30
    1004:	aa 0f       	add	r26, r26
    1006:	bb 1f       	adc	r27, r27
    1008:	ac 58       	subi	r26, 0x8C	; 140
    100a:	b5 4c       	sbci	r27, 0xC5	; 197
    100c:	8d 93       	st	X+, r24
    100e:	9c 93       	st	X, r25
        txStrLen[x]=length%255;
    1010:	9e 01       	movw	r18, r28
    1012:	a1 e8       	ldi	r26, 0x81	; 129
    1014:	b0 e8       	ldi	r27, 0x80	; 128
    1016:	0e 94 5a 12 	call	0x24b4	; 0x24b4 <__umulhisi3>
    101a:	88 0f       	add	r24, r24
    101c:	89 2f       	mov	r24, r25
    101e:	88 1f       	adc	r24, r24
    1020:	99 0b       	sbc	r25, r25
    1022:	91 95       	neg	r25
    1024:	6f ef       	ldi	r22, 0xFF	; 255
    1026:	68 9f       	mul	r22, r24
    1028:	90 01       	movw	r18, r0
    102a:	69 9f       	mul	r22, r25
    102c:	30 0d       	add	r19, r0
    102e:	11 24       	eor	r1, r1
    1030:	ce 01       	movw	r24, r28
    1032:	82 1b       	sub	r24, r18
    1034:	93 0b       	sbc	r25, r19
    1036:	e4 59       	subi	r30, 0x94	; 148
    1038:	f5 4c       	sbci	r31, 0xC5	; 197
    103a:	80 83       	st	Z, r24
        if (length>255) return 1; 
    103c:	cf 3f       	cpi	r28, 0xFF	; 255
    103e:	d1 05       	cpc	r29, r1
    1040:	09 f0       	breq	.+2      	; 0x1044 <PrepareSending+0x88>
    1042:	80 f4       	brcc	.+32     	; 0x1064 <PrepareSending+0xa8>
        txTypeNow = type;
    1044:	40 93 6a 3a 	sts	0x3A6A, r20	; 0x803a6a <txTypeNow>
    1048:	05 c0       	rjmp	.+10     	; 0x1054 <PrepareSending+0x98>
    } else {
        txAddrList[0] = 0;
    104a:	10 92 74 3a 	sts	0x3A74, r1	; 0x803a74 <txAddrList>
    104e:	10 92 75 3a 	sts	0x3A75, r1	; 0x803a75 <txAddrList+0x1>
    return 1;
}

//Put the addresses of text that has to be sent in the address/length lists.
uint8_t PrepareSending(uint16_t address, uint16_t length, uint8_t type){
    uint8_t x=0;
    1052:	50 e0       	ldi	r21, 0x00	; 0
    } else {
        txAddrList[0] = 0;
    }

    //Get rid of old data from previous run
    ClearTxAfter(x);
    1054:	85 2f       	mov	r24, r21
    1056:	87 df       	rcall	.-242    	; 0xf66 <ClearTxAfter>

    txAddrNow = 0;  //Start at first pointer, initiates sending in CheckSend
    1058:	10 92 6b 3a 	sts	0x3A6B, r1	; 0x803a6b <txAddrNow>
    return 0;
    105c:	80 e0       	ldi	r24, 0x00	; 0
    105e:	03 c0       	rjmp	.+6      	; 0x1066 <PrepareSending+0xaa>
            txAddrList[x] = address;
            txStrLen[x] = 255;
            address += 255;
            length -= 255;
            ++x;
            if (x==(TXLISTLEN-1)) return 1;
    1060:	81 e0       	ldi	r24, 0x01	; 1
    1062:	01 c0       	rjmp	.+2      	; 0x1066 <PrepareSending+0xaa>
        }
        txAddrList[x]=address;
        txStrLen[x]=length%255;
        if (length>255) return 1; 
    1064:	81 e0       	ldi	r24, 0x01	; 1
    //Get rid of old data from previous run
    ClearTxAfter(x);

    txAddrNow = 0;  //Start at first pointer, initiates sending in CheckSend
    return 0;
}
    1066:	df 91       	pop	r29
    1068:	cf 91       	pop	r28
    106a:	08 95       	ret

0000106c <SetResponse>:

//
void SetResponse(uint8_t number, uint16_t address, uint16_t length, uint8_t type){
    reactStr[0][number]=address;
    106c:	90 e0       	ldi	r25, 0x00	; 0
    106e:	fc 01       	movw	r30, r24
    1070:	ee 0f       	add	r30, r30
    1072:	ff 1f       	adc	r31, r31
    1074:	ee 5b       	subi	r30, 0xBE	; 190
    1076:	f6 4c       	sbci	r31, 0xC6	; 198
    1078:	60 83       	st	Z, r22
    107a:	71 83       	std	Z+1, r23	; 0x01
    reactStr[1][number]=length;
    107c:	fc 01       	movw	r30, r24
    107e:	b0 96       	adiw	r30, 0x20	; 32
    1080:	ee 0f       	add	r30, r30
    1082:	ff 1f       	adc	r31, r31
    1084:	ee 5b       	subi	r30, 0xBE	; 190
    1086:	f6 4c       	sbci	r31, 0xC6	; 198
    1088:	40 83       	st	Z, r20
    108a:	51 83       	std	Z+1, r21	; 0x01
    reactStr[2][number]=type;
    108c:	fc 01       	movw	r30, r24
    108e:	e0 5c       	subi	r30, 0xC0	; 192
    1090:	ff 4f       	sbci	r31, 0xFF	; 255
    1092:	ee 0f       	add	r30, r30
    1094:	ff 1f       	adc	r31, r31
    1096:	ee 5b       	subi	r30, 0xBE	; 190
    1098:	f6 4c       	sbci	r31, 0xC6	; 198
    109a:	30 e0       	ldi	r19, 0x00	; 0
    109c:	20 83       	st	Z, r18
    109e:	31 83       	std	Z+1, r19	; 0x01
    10a0:	08 95       	ret

000010a2 <SetStandardResponse>:
}

//
uint8_t SetStandardResponse(uint8_t custStrEnd){
    10a2:	1f 93       	push	r17
    10a4:	cf 93       	push	r28
    10a6:	df 93       	push	r29
    10a8:	c8 2f       	mov	r28, r24

    SetResponse(custStrEnd++, A_LF, 1, TEASER);
    10aa:	d1 e0       	ldi	r29, 0x01	; 1
    10ac:	d8 0f       	add	r29, r24
    10ae:	21 e0       	ldi	r18, 0x01	; 1
    10b0:	41 e0       	ldi	r20, 0x01	; 1
    10b2:	50 e0       	ldi	r21, 0x00	; 0
    10b4:	66 e8       	ldi	r22, 0x86	; 134
    10b6:	7a e7       	ldi	r23, 0x7A	; 122
    10b8:	d9 df       	rcall	.-78     	; 0x106c <SetResponse>
    SetResponse(custStrEnd++, A_LOCATION, L_LOCATION, TEASER);
    10ba:	12 e0       	ldi	r17, 0x02	; 2
    10bc:	1c 0f       	add	r17, r28
    10be:	21 e0       	ldi	r18, 0x01	; 1
    10c0:	4b e0       	ldi	r20, 0x0B	; 11
    10c2:	50 e0       	ldi	r21, 0x00	; 0
    10c4:	6b e8       	ldi	r22, 0x8B	; 139
    10c6:	7a e7       	ldi	r23, 0x7A	; 122
    10c8:	8d 2f       	mov	r24, r29
    10ca:	d0 df       	rcall	.-96     	; 0x106c <SetResponse>
    SetResponse(custStrEnd++, A_SPACE, L_SPACE, TEASER);
    10cc:	d3 e0       	ldi	r29, 0x03	; 3
    10ce:	dc 0f       	add	r29, r28
    10d0:	21 e0       	ldi	r18, 0x01	; 1
    10d2:	41 e0       	ldi	r20, 0x01	; 1
    10d4:	50 e0       	ldi	r21, 0x00	; 0
    10d6:	6a e8       	ldi	r22, 0x8A	; 138
    10d8:	7a e7       	ldi	r23, 0x7A	; 122
    10da:	81 2f       	mov	r24, r17
    10dc:	c7 df       	rcall	.-114    	; 0x106c <SetResponse>
    reactStr[0][custStrEnd++] = CURR_LOC;
    10de:	ed 2f       	mov	r30, r29
    10e0:	f0 e0       	ldi	r31, 0x00	; 0
    10e2:	ee 0f       	add	r30, r30
    10e4:	ff 1f       	adc	r31, r31
    10e6:	ee 5b       	subi	r30, 0xBE	; 190
    10e8:	f6 4c       	sbci	r31, 0xC6	; 198
    10ea:	80 ef       	ldi	r24, 0xF0	; 240
    10ec:	9f ef       	ldi	r25, 0xFF	; 255
    10ee:	80 83       	st	Z, r24
    10f0:	91 83       	std	Z+1, r25	; 0x01
    SetResponse(custStrEnd++, A_LF, 1, TEASER);
    10f2:	15 e0       	ldi	r17, 0x05	; 5
    10f4:	1c 0f       	add	r17, r28
    10f6:	21 e0       	ldi	r18, 0x01	; 1
    10f8:	41 e0       	ldi	r20, 0x01	; 1
    10fa:	50 e0       	ldi	r21, 0x00	; 0
    10fc:	66 e8       	ldi	r22, 0x86	; 134
    10fe:	7a e7       	ldi	r23, 0x7A	; 122
    1100:	84 e0       	ldi	r24, 0x04	; 4
    1102:	8c 0f       	add	r24, r28
    1104:	b3 df       	rcall	.-154    	; 0x106c <SetResponse>
    SetResponse(custStrEnd++, A_PROMPT, L_PROMPT, TEASER);
    1106:	d6 e0       	ldi	r29, 0x06	; 6
    1108:	dc 0f       	add	r29, r28
    110a:	21 e0       	ldi	r18, 0x01	; 1
    110c:	42 e0       	ldi	r20, 0x02	; 2
    110e:	50 e0       	ldi	r21, 0x00	; 0
    1110:	62 e8       	ldi	r22, 0x82	; 130
    1112:	7a e7       	ldi	r23, 0x7A	; 122
    1114:	81 2f       	mov	r24, r17
    1116:	aa df       	rcall	.-172    	; 0x106c <SetResponse>
    SetResponse(custStrEnd++, A_SPACE, L_SPACE, TEASER);
    1118:	c9 5f       	subi	r28, 0xF9	; 249
    111a:	21 e0       	ldi	r18, 0x01	; 1
    111c:	41 e0       	ldi	r20, 0x01	; 1
    111e:	50 e0       	ldi	r21, 0x00	; 0
    1120:	6a e8       	ldi	r22, 0x8A	; 138
    1122:	7a e7       	ldi	r23, 0x7A	; 122
    1124:	8d 2f       	mov	r24, r29
    1126:	a2 df       	rcall	.-188    	; 0x106c <SetResponse>

    return custStrEnd;
}
    1128:	8c 2f       	mov	r24, r28
    112a:	df 91       	pop	r29
    112c:	cf 91       	pop	r28
    112e:	1f 91       	pop	r17
    1130:	08 95       	ret

00001132 <PopulateObject>:

//Get all the relevant data and string addresses of an object
void PopulateObject(uint16_t offset, object_model_t *object){
    1132:	df 92       	push	r13
    1134:	ef 92       	push	r14
    1136:	ff 92       	push	r15
    1138:	0f 93       	push	r16
    113a:	1f 93       	push	r17
    113c:	cf 93       	push	r28
    113e:	df 93       	push	r29
    1140:	cd b7       	in	r28, 0x3d	; 61
    1142:	de b7       	in	r29, 0x3e	; 62
    1144:	2c 97       	sbiw	r28, 0x0c	; 12
    1146:	cd bf       	out	0x3d, r28	; 61
    1148:	de bf       	out	0x3e, r29	; 62
    114a:	7c 01       	movw	r14, r24
    114c:	8b 01       	movw	r16, r22
    uint16_t parStr;
    offset += L_BOILER;

    //Fill things with fixed distance to offset
    uint8_t data[OFF_STRINGFLDS];
    ExtEERead(offset, OFF_STRINGFLDS, GAME, &data[0]);
    114e:	9e 01       	movw	r18, r28
    1150:	2f 5f       	subi	r18, 0xFF	; 255
    1152:	3f 4f       	sbci	r19, 0xFF	; 255
    1154:	40 e0       	ldi	r20, 0x00	; 0
    1156:	6c e0       	ldi	r22, 0x0C	; 12
    1158:	80 96       	adiw	r24, 0x20	; 32
    115a:	d6 de       	rcall	.-596    	; 0xf08 <ExtEERead>
    object->addrNextObj = (data[OFF_NEXTOBJ]<<8|data[OFF_NEXTOBJ+1])+L_BOILER;
    115c:	89 81       	ldd	r24, Y+1	; 0x01
    115e:	90 e0       	ldi	r25, 0x00	; 0
    1160:	98 2f       	mov	r25, r24
    1162:	88 27       	eor	r24, r24
    1164:	2a 81       	ldd	r18, Y+2	; 0x02
    1166:	82 2b       	or	r24, r18
    1168:	80 96       	adiw	r24, 0x20	; 32
    116a:	f8 01       	movw	r30, r16
    116c:	80 83       	st	Z, r24
    116e:	91 83       	std	Z+1, r25	; 0x01
    object->addrNextLvl = (data[OFF_NEXTLVL]<<8|data[OFF_NEXTLVL+1])+L_BOILER;
    1170:	8b 81       	ldd	r24, Y+3	; 0x03
    1172:	90 e0       	ldi	r25, 0x00	; 0
    1174:	98 2f       	mov	r25, r24
    1176:	88 27       	eor	r24, r24
    1178:	2c 81       	ldd	r18, Y+4	; 0x04
    117a:	82 2b       	or	r24, r18
    117c:	80 96       	adiw	r24, 0x20	; 32
    117e:	82 83       	std	Z+2, r24	; 0x02
    1180:	93 83       	std	Z+3, r25	; 0x03
    for (uint8_t x=0; x<BYTE_FIELDS_LEN; ++x){
    1182:	20 e0       	ldi	r18, 0x00	; 0
    1184:	10 c0       	rjmp	.+32     	; 0x11a6 <PopulateObject+0x74>
        object->byteField[x]=data[x+OFF_BYTEFLDS];
    1186:	82 2f       	mov	r24, r18
    1188:	90 e0       	ldi	r25, 0x00	; 0
    118a:	fc 01       	movw	r30, r24
    118c:	34 96       	adiw	r30, 0x04	; 4
    118e:	41 e0       	ldi	r20, 0x01	; 1
    1190:	50 e0       	ldi	r21, 0x00	; 0
    1192:	4c 0f       	add	r20, r28
    1194:	5d 1f       	adc	r21, r29
    1196:	e4 0f       	add	r30, r20
    1198:	f5 1f       	adc	r31, r21
    119a:	30 81       	ld	r19, Z
    119c:	f8 01       	movw	r30, r16
    119e:	e8 0f       	add	r30, r24
    11a0:	f9 1f       	adc	r31, r25
    11a2:	34 83       	std	Z+4, r19	; 0x04
    //Fill things with fixed distance to offset
    uint8_t data[OFF_STRINGFLDS];
    ExtEERead(offset, OFF_STRINGFLDS, GAME, &data[0]);
    object->addrNextObj = (data[OFF_NEXTOBJ]<<8|data[OFF_NEXTOBJ+1])+L_BOILER;
    object->addrNextLvl = (data[OFF_NEXTLVL]<<8|data[OFF_NEXTLVL+1])+L_BOILER;
    for (uint8_t x=0; x<BYTE_FIELDS_LEN; ++x){
    11a4:	2f 5f       	subi	r18, 0xFF	; 255
    11a6:	28 30       	cpi	r18, 0x08	; 8
    11a8:	70 f3       	brcs	.-36     	; 0x1186 <PopulateObject+0x54>
        object->byteField[x]=data[x+OFF_BYTEFLDS];
    }

    //Find out where all of the strings begin and how long they are
    offset += OFF_STRINGFLDS;
    11aa:	5c e2       	ldi	r21, 0x2C	; 44
    11ac:	e5 0e       	add	r14, r21
    11ae:	f1 1c       	adc	r15, r1
    for(uint8_t x=0; x<STRING_FIELDS_LEN; ++x){
    11b0:	d1 2c       	mov	r13, r1
    11b2:	25 c0       	rjmp	.+74     	; 0x11fe <PopulateObject+0xcc>
        //Determine length
        ExtEERead(offset, 2, GAME, &data[0]);
    11b4:	9e 01       	movw	r18, r28
    11b6:	2f 5f       	subi	r18, 0xFF	; 255
    11b8:	3f 4f       	sbci	r19, 0xFF	; 255
    11ba:	40 e0       	ldi	r20, 0x00	; 0
    11bc:	62 e0       	ldi	r22, 0x02	; 2
    11be:	c7 01       	movw	r24, r14
    11c0:	a3 de       	rcall	.-698    	; 0xf08 <ExtEERead>
        parStr = (data[0]<<8|data[1]);
    11c2:	29 81       	ldd	r18, Y+1	; 0x01
    11c4:	30 e0       	ldi	r19, 0x00	; 0
    11c6:	32 2f       	mov	r19, r18
    11c8:	22 27       	eor	r18, r18
    11ca:	8a 81       	ldd	r24, Y+2	; 0x02
    11cc:	28 2b       	or	r18, r24
        object->lenStr[x]= parStr;
    11ce:	4d 2d       	mov	r20, r13
    11d0:	50 e0       	ldi	r21, 0x00	; 0
    11d2:	fa 01       	movw	r30, r20
    11d4:	3d 96       	adiw	r30, 0x0d	; 13
    11d6:	ee 0f       	add	r30, r30
    11d8:	ff 1f       	adc	r31, r31
    11da:	e0 0f       	add	r30, r16
    11dc:	f1 1f       	adc	r31, r17
    11de:	20 83       	st	Z, r18
    11e0:	31 83       	std	Z+1, r19	; 0x01
        
        //Determine string start location and add length to offset for next field
        offset += 2;
    11e2:	82 e0       	ldi	r24, 0x02	; 2
    11e4:	e8 0e       	add	r14, r24
    11e6:	f1 1c       	adc	r15, r1
        object->addrStr[x]=offset;
    11e8:	fa 01       	movw	r30, r20
    11ea:	36 96       	adiw	r30, 0x06	; 6
    11ec:	ee 0f       	add	r30, r30
    11ee:	ff 1f       	adc	r31, r31
    11f0:	e0 0f       	add	r30, r16
    11f2:	f1 1f       	adc	r31, r17
    11f4:	e0 82       	st	Z, r14
    11f6:	f1 82       	std	Z+1, r15	; 0x01
        offset += parStr;
    11f8:	e2 0e       	add	r14, r18
    11fa:	f3 1e       	adc	r15, r19
        object->byteField[x]=data[x+OFF_BYTEFLDS];
    }

    //Find out where all of the strings begin and how long they are
    offset += OFF_STRINGFLDS;
    for(uint8_t x=0; x<STRING_FIELDS_LEN; ++x){
    11fc:	d3 94       	inc	r13
    11fe:	e6 e0       	ldi	r30, 0x06	; 6
    1200:	ed 15       	cp	r30, r13
    1202:	c0 f6       	brcc	.-80     	; 0x11b4 <PopulateObject+0x82>
        //Determine string start location and add length to offset for next field
        offset += 2;
        object->addrStr[x]=offset;
        offset += parStr;
    }    
}
    1204:	2c 96       	adiw	r28, 0x0c	; 12
    1206:	cd bf       	out	0x3d, r28	; 61
    1208:	de bf       	out	0x3e, r29	; 62
    120a:	df 91       	pop	r29
    120c:	cf 91       	pop	r28
    120e:	1f 91       	pop	r17
    1210:	0f 91       	pop	r16
    1212:	ff 90       	pop	r15
    1214:	ef 90       	pop	r14
    1216:	df 90       	pop	r13
    1218:	08 95       	ret

0000121a <UpdateState>:

//Update game state: num -> vBBBBbbb v=value(0 is set!), BBBB=Byte number, bbb=bit number
void UpdateState(uint8_t num){
    uint8_t clearBit = num & 0x80;
    num &= 0x7f;
    121a:	98 2f       	mov	r25, r24
    121c:	9f 77       	andi	r25, 0x7F	; 127
    if (clearBit) {
    121e:	88 23       	and	r24, r24
    1220:	24 f4       	brge	.+8      	; 0x122a <UpdateState+0x10>
        WriteStatusBit(num, 0);
    1222:	60 e0       	ldi	r22, 0x00	; 0
    1224:	89 2f       	mov	r24, r25
    1226:	72 cd       	rjmp	.-1308   	; 0xd0c <WriteStatusBit>
    1228:	08 95       	ret
    } else {
        WriteStatusBit(num, 1);
    122a:	61 e0       	ldi	r22, 0x01	; 1
    122c:	89 2f       	mov	r24, r25
    122e:	6e cd       	rjmp	.-1316   	; 0xd0c <WriteStatusBit>
    1230:	08 95       	ret

00001232 <GetState>:
    }
}

//Returns the state of the bit on position "num"
uint8_t GetState(uint8_t num){
    if ((num)&&(num<0x80)){
    1232:	18 16       	cp	r1, r24
    1234:	14 f4       	brge	.+4      	; 0x123a <GetState+0x8>
        return ReadStatusBit(num);
    1236:	52 cd       	rjmp	.-1372   	; 0xcdc <ReadStatusBit>
    1238:	08 95       	ret
    }
    return 1;
    123a:	81 e0       	ldi	r24, 0x01	; 1
}
    123c:	08 95       	ret

0000123e <CheckState>:

//Checks if state of bit BBBBbbb matches with v (inverted) bit
uint8_t CheckState(uint8_t num){
    123e:	cf 93       	push	r28
    1240:	c8 2f       	mov	r28, r24
    return (GetState(num&(0x7f)) == (1-((num&0x80)?1:0))); 
    1242:	8f 77       	andi	r24, 0x7F	; 127
    1244:	f6 df       	rcall	.-20     	; 0x1232 <GetState>
    1246:	2c 2f       	mov	r18, r28
    1248:	cc 0f       	add	r28, r28
    124a:	33 0b       	sbc	r19, r19
    124c:	20 95       	com	r18
    124e:	30 95       	com	r19
    1250:	43 2f       	mov	r20, r19
    1252:	44 1f       	adc	r20, r20
    1254:	44 27       	eor	r20, r20
    1256:	44 1f       	adc	r20, r20
    1258:	50 e0       	ldi	r21, 0x00	; 0
    125a:	28 2f       	mov	r18, r24
    125c:	30 e0       	ldi	r19, 0x00	; 0
    125e:	81 e0       	ldi	r24, 0x01	; 1
    1260:	24 17       	cp	r18, r20
    1262:	35 07       	cpc	r19, r21
    1264:	09 f0       	breq	.+2      	; 0x1268 <CheckState+0x2a>
    1266:	80 e0       	ldi	r24, 0x00	; 0
}
    1268:	cf 91       	pop	r28
    126a:	08 95       	ret

0000126c <CheckLetter>:

//Check if the entered letter corresponds with a name
uint8_t CheckLetter(uint16_t object, uint8_t letter){
    126c:	cf 92       	push	r12
    126e:	df 92       	push	r13
    1270:	ef 92       	push	r14
    1272:	ff 92       	push	r15
    1274:	0f 93       	push	r16
    1276:	1f 93       	push	r17
    1278:	cf 93       	push	r28
    127a:	df 93       	push	r29
    127c:	cd b7       	in	r28, 0x3d	; 61
    127e:	de b7       	in	r29, 0x3e	; 62
    1280:	a0 97       	sbiw	r28, 0x20	; 32
    1282:	cd bf       	out	0x3d, r28	; 61
    1284:	de bf       	out	0x3e, r29	; 62
    1286:	e6 2e       	mov	r14, r22
    
    uint8_t found = 0;
    uint8_t data[32];

    object += L_BOILER;
    1288:	6c 01       	movw	r12, r24
    128a:	20 e2       	ldi	r18, 0x20	; 32
    128c:	c2 0e       	add	r12, r18
    128e:	d1 1c       	adc	r13, r1
    ExtEERead(object+OFF_STRINGFLDS, 2, GAME, &data[0]);
    1290:	9e 01       	movw	r18, r28
    1292:	2f 5f       	subi	r18, 0xFF	; 255
    1294:	3f 4f       	sbci	r19, 0xFF	; 255
    1296:	40 e0       	ldi	r20, 0x00	; 0
    1298:	62 e0       	ldi	r22, 0x02	; 2
    129a:	8c 96       	adiw	r24, 0x2c	; 44
    129c:	35 de       	rcall	.-918    	; 0xf08 <ExtEERead>
    uint8_t x = data[1]; //Assuming a name is not longer than 255 characters.
    129e:	fa 80       	ldd	r15, Y+2	; 0x02
}

//Check if the entered letter corresponds with a name
uint8_t CheckLetter(uint16_t object, uint8_t letter){
    
    uint8_t found = 0;
    12a0:	00 e0       	ldi	r16, 0x00	; 0

    object += L_BOILER;
    ExtEERead(object+OFF_STRINGFLDS, 2, GAME, &data[0]);
    uint8_t x = data[1]; //Assuming a name is not longer than 255 characters.

    while (x){
    12a2:	2e c0       	rjmp	.+92     	; 0x1300 <CheckLetter+0x94>
        uint8_t max;
        if (x>32) max = 32; else max = x;
    12a4:	80 e2       	ldi	r24, 0x20	; 32
    12a6:	8f 15       	cp	r24, r15
    12a8:	10 f4       	brcc	.+4      	; 0x12ae <CheckLetter+0x42>
    12aa:	10 e2       	ldi	r17, 0x20	; 32
    12ac:	01 c0       	rjmp	.+2      	; 0x12b0 <CheckLetter+0x44>
    12ae:	1f 2d       	mov	r17, r15
        ExtEERead(object+OFF_STRINGFLDS+2, max, GAME, &data[0]);
    12b0:	9e 01       	movw	r18, r28
    12b2:	2f 5f       	subi	r18, 0xFF	; 255
    12b4:	3f 4f       	sbci	r19, 0xFF	; 255
    12b6:	40 e0       	ldi	r20, 0x00	; 0
    12b8:	61 2f       	mov	r22, r17
    12ba:	c6 01       	movw	r24, r12
    12bc:	0e 96       	adiw	r24, 0x0e	; 14
    12be:	24 de       	rcall	.-952    	; 0xf08 <ExtEERead>
        for (uint8_t y=0; y<max; ++y){
    12c0:	80 e0       	ldi	r24, 0x00	; 0
    12c2:	19 c0       	rjmp	.+50     	; 0x12f6 <CheckLetter+0x8a>
            if (found){
    12c4:	00 23       	and	r16, r16
    12c6:	61 f0       	breq	.+24     	; 0x12e0 <CheckLetter+0x74>
                if ((data[y]|0x20) == letter) return 1; else return 0;
    12c8:	e1 e0       	ldi	r30, 0x01	; 1
    12ca:	f0 e0       	ldi	r31, 0x00	; 0
    12cc:	ec 0f       	add	r30, r28
    12ce:	fd 1f       	adc	r31, r29
    12d0:	e8 0f       	add	r30, r24
    12d2:	f1 1d       	adc	r31, r1
    12d4:	80 81       	ld	r24, Z
    12d6:	80 62       	ori	r24, 0x20	; 32
    12d8:	8e 11       	cpse	r24, r14
    12da:	16 c0       	rjmp	.+44     	; 0x1308 <CheckLetter+0x9c>
    12dc:	81 e0       	ldi	r24, 0x01	; 1
    12de:	15 c0       	rjmp	.+42     	; 0x130a <CheckLetter+0x9e>
            }
            if (data[y] == '[') found = 1;
    12e0:	e1 e0       	ldi	r30, 0x01	; 1
    12e2:	f0 e0       	ldi	r31, 0x00	; 0
    12e4:	ec 0f       	add	r30, r28
    12e6:	fd 1f       	adc	r31, r29
    12e8:	e8 0f       	add	r30, r24
    12ea:	f1 1d       	adc	r31, r1
    12ec:	90 81       	ld	r25, Z
    12ee:	9b 35       	cpi	r25, 0x5B	; 91
    12f0:	09 f4       	brne	.+2      	; 0x12f4 <CheckLetter+0x88>
    12f2:	01 e0       	ldi	r16, 0x01	; 1

    while (x){
        uint8_t max;
        if (x>32) max = 32; else max = x;
        ExtEERead(object+OFF_STRINGFLDS+2, max, GAME, &data[0]);
        for (uint8_t y=0; y<max; ++y){
    12f4:	8f 5f       	subi	r24, 0xFF	; 255
    12f6:	81 17       	cp	r24, r17
    12f8:	28 f3       	brcs	.-54     	; 0x12c4 <CheckLetter+0x58>
            if (found){
                if ((data[y]|0x20) == letter) return 1; else return 0;
            }
            if (data[y] == '[') found = 1;
        }
        object += max;
    12fa:	c1 0e       	add	r12, r17
    12fc:	d1 1c       	adc	r13, r1
        x -= max;
    12fe:	f1 1a       	sub	r15, r17

    object += L_BOILER;
    ExtEERead(object+OFF_STRINGFLDS, 2, GAME, &data[0]);
    uint8_t x = data[1]; //Assuming a name is not longer than 255 characters.

    while (x){
    1300:	f1 10       	cpse	r15, r1
    1302:	d0 cf       	rjmp	.-96     	; 0x12a4 <CheckLetter+0x38>
            if (data[y] == '[') found = 1;
        }
        object += max;
        x -= max;
    }
    return 0;
    1304:	80 e0       	ldi	r24, 0x00	; 0
    1306:	01 c0       	rjmp	.+2      	; 0x130a <CheckLetter+0x9e>
        uint8_t max;
        if (x>32) max = 32; else max = x;
        ExtEERead(object+OFF_STRINGFLDS+2, max, GAME, &data[0]);
        for (uint8_t y=0; y<max; ++y){
            if (found){
                if ((data[y]|0x20) == letter) return 1; else return 0;
    1308:	80 e0       	ldi	r24, 0x00	; 0
        }
        object += max;
        x -= max;
    }
    return 0;
}
    130a:	a0 96       	adiw	r28, 0x20	; 32
    130c:	cd bf       	out	0x3d, r28	; 61
    130e:	de bf       	out	0x3e, r29	; 62
    1310:	df 91       	pop	r29
    1312:	cf 91       	pop	r28
    1314:	1f 91       	pop	r17
    1316:	0f 91       	pop	r16
    1318:	ff 90       	pop	r15
    131a:	ef 90       	pop	r14
    131c:	df 90       	pop	r13
    131e:	cf 90       	pop	r12
    1320:	08 95       	ret

00001322 <FindChild>:

//Returns the child's address if the child is visible and the search letter matches
uint16_t FindChild(uint16_t parent, uint8_t letter, uint16_t start){
    1322:	bf 92       	push	r11
    1324:	cf 92       	push	r12
    1326:	df 92       	push	r13
    1328:	ef 92       	push	r14
    132a:	ff 92       	push	r15
    132c:	0f 93       	push	r16
    132e:	1f 93       	push	r17
    1330:	cf 93       	push	r28
    1332:	df 93       	push	r29
    1334:	00 d0       	rcall	.+0      	; 0x1336 <FindChild+0x14>
    1336:	00 d0       	rcall	.+0      	; 0x1338 <FindChild+0x16>
    1338:	cd b7       	in	r28, 0x3d	; 61
    133a:	de b7       	in	r29, 0x3e	; 62
    133c:	b6 2e       	mov	r11, r22
    133e:	6a 01       	movw	r12, r20
    
    uint16_t child = parent;
    uint8_t data[4];

    ExtEERead(child+L_BOILER, 4, GAME, &data[0]);
    1340:	9e 01       	movw	r18, r28
    1342:	2f 5f       	subi	r18, 0xFF	; 255
    1344:	3f 4f       	sbci	r19, 0xFF	; 255
    1346:	40 e0       	ldi	r20, 0x00	; 0
    1348:	64 e0       	ldi	r22, 0x04	; 4
    134a:	80 96       	adiw	r24, 0x20	; 32
    134c:	dd dd       	rcall	.-1094   	; 0xf08 <ExtEERead>
    parent = (data[0]<<8|data[1]);    //Next object on parent level
    134e:	e9 80       	ldd	r14, Y+1	; 0x01
    1350:	f1 2c       	mov	r15, r1
    1352:	fe 2c       	mov	r15, r14
    1354:	ee 24       	eor	r14, r14
    1356:	8a 81       	ldd	r24, Y+2	; 0x02
    1358:	e8 2a       	or	r14, r24
    child =  (data[2]<<8|data[3]);    //First object on child level
    135a:	0b 81       	ldd	r16, Y+3	; 0x03
    135c:	10 e0       	ldi	r17, 0x00	; 0
    135e:	10 2f       	mov	r17, r16
    1360:	00 27       	eor	r16, r16
    1362:	8c 81       	ldd	r24, Y+4	; 0x04
    1364:	08 2b       	or	r16, r24

    //As long as the child is within the parent's range
    while (parent>child){
    1366:	26 c0       	rjmp	.+76     	; 0x13b4 <FindChild+0x92>

        //If child's address is higher than the start address, perform search for letter
        if (child>start){
    1368:	c0 16       	cp	r12, r16
    136a:	d1 06       	cpc	r13, r17
    136c:	a8 f4       	brcc	.+42     	; 0x1398 <FindChild+0x76>
            ExtEERead(child+OFF_BYTEFLDS+VISIBLE_ACL+L_BOILER, 1, GAME, &data[0]);
    136e:	9e 01       	movw	r18, r28
    1370:	2f 5f       	subi	r18, 0xFF	; 255
    1372:	3f 4f       	sbci	r19, 0xFF	; 255
    1374:	40 e0       	ldi	r20, 0x00	; 0
    1376:	61 e0       	ldi	r22, 0x01	; 1
    1378:	c8 01       	movw	r24, r16
    137a:	85 96       	adiw	r24, 0x25	; 37
    137c:	c5 dd       	rcall	.-1142   	; 0xf08 <ExtEERead>
            if ((data[0] == 0)||(CheckState(data[0]))) {
    137e:	89 81       	ldd	r24, Y+1	; 0x01
    1380:	88 23       	and	r24, r24
    1382:	19 f0       	breq	.+6      	; 0x138a <FindChild+0x68>
    1384:	5c df       	rcall	.-328    	; 0x123e <CheckState>
    1386:	88 23       	and	r24, r24
    1388:	39 f0       	breq	.+14     	; 0x1398 <FindChild+0x76>
                if ((letter == 0)||(CheckLetter(child, letter))) return child;
    138a:	bb 20       	and	r11, r11
    138c:	c9 f0       	breq	.+50     	; 0x13c0 <FindChild+0x9e>
    138e:	6b 2d       	mov	r22, r11
    1390:	c8 01       	movw	r24, r16
    1392:	6c df       	rcall	.-296    	; 0x126c <CheckLetter>
    1394:	81 11       	cpse	r24, r1
    1396:	17 c0       	rjmp	.+46     	; 0x13c6 <FindChild+0xa4>
            }
        }

        //Not visible or name not right
        ExtEERead(child+L_BOILER, 2, GAME, &data[0]);
    1398:	9e 01       	movw	r18, r28
    139a:	2f 5f       	subi	r18, 0xFF	; 255
    139c:	3f 4f       	sbci	r19, 0xFF	; 255
    139e:	40 e0       	ldi	r20, 0x00	; 0
    13a0:	62 e0       	ldi	r22, 0x02	; 2
    13a2:	c8 01       	movw	r24, r16
    13a4:	80 96       	adiw	r24, 0x20	; 32
    13a6:	b0 dd       	rcall	.-1184   	; 0xf08 <ExtEERead>
        child = (data[0]<<8|data[1]);    //Next object on child level
    13a8:	09 81       	ldd	r16, Y+1	; 0x01
    13aa:	10 e0       	ldi	r17, 0x00	; 0
    13ac:	10 2f       	mov	r17, r16
    13ae:	00 27       	eor	r16, r16
    13b0:	8a 81       	ldd	r24, Y+2	; 0x02
    13b2:	08 2b       	or	r16, r24
    ExtEERead(child+L_BOILER, 4, GAME, &data[0]);
    parent = (data[0]<<8|data[1]);    //Next object on parent level
    child =  (data[2]<<8|data[3]);    //First object on child level

    //As long as the child is within the parent's range
    while (parent>child){
    13b4:	0e 15       	cp	r16, r14
    13b6:	1f 05       	cpc	r17, r15
    13b8:	b8 f2       	brcs	.-82     	; 0x1368 <FindChild+0x46>

        //Not visible or name not right
        ExtEERead(child+L_BOILER, 2, GAME, &data[0]);
        child = (data[0]<<8|data[1]);    //Next object on child level
        
    } return 0;
    13ba:	80 e0       	ldi	r24, 0x00	; 0
    13bc:	90 e0       	ldi	r25, 0x00	; 0
    13be:	05 c0       	rjmp	.+10     	; 0x13ca <FindChild+0xa8>

        //If child's address is higher than the start address, perform search for letter
        if (child>start){
            ExtEERead(child+OFF_BYTEFLDS+VISIBLE_ACL+L_BOILER, 1, GAME, &data[0]);
            if ((data[0] == 0)||(CheckState(data[0]))) {
                if ((letter == 0)||(CheckLetter(child, letter))) return child;
    13c0:	80 2f       	mov	r24, r16
    13c2:	91 2f       	mov	r25, r17
    13c4:	02 c0       	rjmp	.+4      	; 0x13ca <FindChild+0xa8>
    13c6:	80 2f       	mov	r24, r16
    13c8:	91 2f       	mov	r25, r17
        //Not visible or name not right
        ExtEERead(child+L_BOILER, 2, GAME, &data[0]);
        child = (data[0]<<8|data[1]);    //Next object on child level
        
    } return 0;
}
    13ca:	24 96       	adiw	r28, 0x04	; 4
    13cc:	cd bf       	out	0x3d, r28	; 61
    13ce:	de bf       	out	0x3e, r29	; 62
    13d0:	df 91       	pop	r29
    13d2:	cf 91       	pop	r28
    13d4:	1f 91       	pop	r17
    13d6:	0f 91       	pop	r16
    13d8:	ff 90       	pop	r15
    13da:	ef 90       	pop	r14
    13dc:	df 90       	pop	r13
    13de:	cf 90       	pop	r12
    13e0:	bf 90       	pop	r11
    13e2:	08 95       	ret

000013e4 <InpOkChk>:

//Allow only a(A) to z(Z) and 0 to 9 as input
uint8_t InpOkChk(uint8_t test){
    if ((test>='a')&&(test<='z')) return 1;
    13e4:	9f e9       	ldi	r25, 0x9F	; 159
    13e6:	98 0f       	add	r25, r24
    13e8:	9a 31       	cpi	r25, 0x1A	; 26
    13ea:	28 f0       	brcs	.+10     	; 0x13f6 <InpOkChk+0x12>
    if ((test>='0')&&(test<='9')) return 1;
    13ec:	80 53       	subi	r24, 0x30	; 48
    13ee:	8a 30       	cpi	r24, 0x0A	; 10
    13f0:	20 f4       	brcc	.+8      	; 0x13fa <InpOkChk+0x16>
    13f2:	81 e0       	ldi	r24, 0x01	; 1
    13f4:	08 95       	ret
    } return 0;
}

//Allow only a(A) to z(Z) and 0 to 9 as input
uint8_t InpOkChk(uint8_t test){
    if ((test>='a')&&(test<='z')) return 1;
    13f6:	81 e0       	ldi	r24, 0x01	; 1
    13f8:	08 95       	ret
    if ((test>='0')&&(test<='9')) return 1;
    return 0;
    13fa:	80 e0       	ldi	r24, 0x00	; 0
}
    13fc:	08 95       	ret

000013fe <CleanInput>:

//Cleans input of garbage and returns length of cleaned input "o->d2  !\0" becomes "od2\0"
uint8_t CleanInput(uint8_t *data){
    13fe:	0f 93       	push	r16
    1400:	1f 93       	push	r17
    1402:	cf 93       	push	r28
    1404:	df 93       	push	r29
    1406:	8c 01       	movw	r16, r24
    uint8_t cnt = 0;
    for (uint8_t x=0; data[x]!=0; ++x){
    1408:	c0 e0       	ldi	r28, 0x00	; 0
    return 0;
}

//Cleans input of garbage and returns length of cleaned input "o->d2  !\0" becomes "od2\0"
uint8_t CleanInput(uint8_t *data){
    uint8_t cnt = 0;
    140a:	d0 e0       	ldi	r29, 0x00	; 0
    for (uint8_t x=0; data[x]!=0; ++x){
    140c:	09 c0       	rjmp	.+18     	; 0x1420 <CleanInput+0x22>
        data[cnt] = data[x];
    140e:	d8 01       	movw	r26, r16
    1410:	ad 0f       	add	r26, r29
    1412:	b1 1d       	adc	r27, r1
    1414:	8c 93       	st	X, r24
        if (InpOkChk(data[x])) ++cnt;
    1416:	80 81       	ld	r24, Z
    1418:	e5 df       	rcall	.-54     	; 0x13e4 <InpOkChk>
    141a:	81 11       	cpse	r24, r1
    141c:	df 5f       	subi	r29, 0xFF	; 255
}

//Cleans input of garbage and returns length of cleaned input "o->d2  !\0" becomes "od2\0"
uint8_t CleanInput(uint8_t *data){
    uint8_t cnt = 0;
    for (uint8_t x=0; data[x]!=0; ++x){
    141e:	cf 5f       	subi	r28, 0xFF	; 255
    1420:	f8 01       	movw	r30, r16
    1422:	ec 0f       	add	r30, r28
    1424:	f1 1d       	adc	r31, r1
    1426:	80 81       	ld	r24, Z
    1428:	81 11       	cpse	r24, r1
    142a:	f1 cf       	rjmp	.-30     	; 0x140e <CleanInput+0x10>
        data[cnt] = data[x];
        if (InpOkChk(data[x])) ++cnt;
    }
    data[cnt] = 0;
    142c:	f8 01       	movw	r30, r16
    142e:	ed 0f       	add	r30, r29
    1430:	f1 1d       	adc	r31, r1
    1432:	10 82       	st	Z, r1
    return cnt;
}
    1434:	8d 2f       	mov	r24, r29
    1436:	df 91       	pop	r29
    1438:	cf 91       	pop	r28
    143a:	1f 91       	pop	r17
    143c:	0f 91       	pop	r16
    143e:	08 95       	ret

00001440 <CheckSend>:

//Send routine, optimized for low memory usage
uint8_t CheckSend(){
    1440:	cf 93       	push	r28
    static uint8_t txPart;
    uint8_t EEreadLength=0;

    //Check if more string(part)s have to be sent to the serial output if previous send operation is completed
    if ((txAddrNow < TXLISTLEN) && serTxDone){
    1442:	80 91 6b 3a 	lds	r24, 0x3A6B	; 0x803a6b <txAddrNow>
    1446:	88 30       	cpi	r24, 0x08	; 8
    1448:	08 f0       	brcs	.+2      	; 0x144c <CheckSend+0xc>
    144a:	4e c0       	rjmp	.+156    	; 0x14e8 <CheckSend+0xa8>
    144c:	90 91 04 38 	lds	r25, 0x3804	; 0x803804 <serTxDone>
    1450:	99 23       	and	r25, r25
    1452:	09 f4       	brne	.+2      	; 0x1456 <CheckSend+0x16>
    1454:	49 c0       	rjmp	.+146    	; 0x14e8 <CheckSend+0xa8>
        if (txStrLen[txAddrNow] == 0){
    1456:	28 2f       	mov	r18, r24
    1458:	30 e0       	ldi	r19, 0x00	; 0
    145a:	f9 01       	movw	r30, r18
    145c:	e4 59       	subi	r30, 0x94	; 148
    145e:	f5 4c       	sbci	r31, 0xC5	; 197
    1460:	60 81       	ld	r22, Z
    1462:	61 11       	cpse	r22, r1
    1464:	07 c0       	rjmp	.+14     	; 0x1474 <CheckSend+0x34>
            txPart = 0;
    1466:	10 92 2f 39 	sts	0x392F, r1	; 0x80392f <txPart.3916>
            txAddrNow = TXLISTLEN;
    146a:	88 e0       	ldi	r24, 0x08	; 8
    146c:	80 93 6b 3a 	sts	0x3A6B, r24	; 0x803a6b <txAddrNow>
        } else {
            txPart = 0;
            ++txAddrNow;
        }
    } else if (serTxDone) return 0; //All is sent!
    return 1; //Still sending, do not change the data in the tx variables
    1470:	81 e0       	ldi	r24, 0x01	; 1
    1472:	41 c0       	rjmp	.+130    	; 0x14f6 <CheckSend+0xb6>
    //Check if more string(part)s have to be sent to the serial output if previous send operation is completed
    if ((txAddrNow < TXLISTLEN) && serTxDone){
        if (txStrLen[txAddrNow] == 0){
            txPart = 0;
            txAddrNow = TXLISTLEN;
        } else if (txPart < txStrLen[txAddrNow]){
    1474:	90 91 2f 39 	lds	r25, 0x392F	; 0x80392f <txPart.3916>
    1478:	96 17       	cp	r25, r22
    147a:	78 f5       	brcc	.+94     	; 0x14da <CheckSend+0x9a>
            EEreadLength = txStrLen[txAddrNow]-txPart;
    147c:	c6 2f       	mov	r28, r22
    147e:	c9 1b       	sub	r28, r25
            if (EEreadLength>=TXLEN) EEreadLength = TXLEN-1;
    1480:	c1 32       	cpi	r28, 0x21	; 33
    1482:	08 f0       	brcs	.+2      	; 0x1486 <CheckSend+0x46>
    1484:	c0 e2       	ldi	r28, 0x20	; 32
            ExtEERead(txAddrList[txAddrNow]+txPart, EEreadLength, txTypeNow, &txBuffer[0]);
    1486:	22 0f       	add	r18, r18
    1488:	33 1f       	adc	r19, r19
    148a:	f9 01       	movw	r30, r18
    148c:	ec 58       	subi	r30, 0x8C	; 140
    148e:	f5 4c       	sbci	r31, 0xC5	; 197
    1490:	01 90       	ld	r0, Z+
    1492:	f0 81       	ld	r31, Z
    1494:	e0 2d       	mov	r30, r0
    1496:	21 e3       	ldi	r18, 0x31	; 49
    1498:	3b e3       	ldi	r19, 0x3B	; 59
    149a:	40 91 6a 3a 	lds	r20, 0x3A6A	; 0x803a6a <txTypeNow>
    149e:	6c 2f       	mov	r22, r28
    14a0:	df 01       	movw	r26, r30
    14a2:	a9 0f       	add	r26, r25
    14a4:	b1 1d       	adc	r27, r1
    14a6:	cd 01       	movw	r24, r26
    14a8:	2f dd       	rcall	.-1442   	; 0xf08 <ExtEERead>
            txPart += EEreadLength;
    14aa:	80 91 2f 39 	lds	r24, 0x392F	; 0x80392f <txPart.3916>
    14ae:	8c 0f       	add	r24, r28
    14b0:	80 93 2f 39 	sts	0x392F, r24	; 0x80392f <txPart.3916>
            txBuffer[EEreadLength] = 0; //Add string terminator after piece to send to plug memory leak
    14b4:	ec 2f       	mov	r30, r28
    14b6:	f0 e0       	ldi	r31, 0x00	; 0
    14b8:	ef 5c       	subi	r30, 0xCF	; 207
    14ba:	f4 4c       	sbci	r31, 0xC4	; 196
    14bc:	10 82       	st	Z, r1
            if ((txBuffer[0] == 0) && (EEreadLength)) txBuffer[0] = 0xDB; //Block character when data wrong.
    14be:	80 91 31 3b 	lds	r24, 0x3B31	; 0x803b31 <txBuffer>
    14c2:	81 11       	cpse	r24, r1
    14c4:	05 c0       	rjmp	.+10     	; 0x14d0 <CheckSend+0x90>
    14c6:	cc 23       	and	r28, r28
    14c8:	19 f0       	breq	.+6      	; 0x14d0 <CheckSend+0x90>
    14ca:	8b ed       	ldi	r24, 0xDB	; 219
    14cc:	80 93 31 3b 	sts	0x3B31, r24	; 0x803b31 <txBuffer>
            SerSend(&txBuffer[0]);
    14d0:	81 e3       	ldi	r24, 0x31	; 49
    14d2:	9b e3       	ldi	r25, 0x3B	; 59
    14d4:	a3 da       	rcall	.-2746   	; 0xa1c <SerSend>
        } else {
            txPart = 0;
            ++txAddrNow;
        }
    } else if (serTxDone) return 0; //All is sent!
    return 1; //Still sending, do not change the data in the tx variables
    14d6:	81 e0       	ldi	r24, 0x01	; 1
    14d8:	0e c0       	rjmp	.+28     	; 0x14f6 <CheckSend+0xb6>
            txPart += EEreadLength;
            txBuffer[EEreadLength] = 0; //Add string terminator after piece to send to plug memory leak
            if ((txBuffer[0] == 0) && (EEreadLength)) txBuffer[0] = 0xDB; //Block character when data wrong.
            SerSend(&txBuffer[0]);
        } else {
            txPart = 0;
    14da:	10 92 2f 39 	sts	0x392F, r1	; 0x80392f <txPart.3916>
            ++txAddrNow;
    14de:	8f 5f       	subi	r24, 0xFF	; 255
    14e0:	80 93 6b 3a 	sts	0x3A6B, r24	; 0x803a6b <txAddrNow>
        }
    } else if (serTxDone) return 0; //All is sent!
    return 1; //Still sending, do not change the data in the tx variables
    14e4:	81 e0       	ldi	r24, 0x01	; 1
    14e6:	07 c0       	rjmp	.+14     	; 0x14f6 <CheckSend+0xb6>
            SerSend(&txBuffer[0]);
        } else {
            txPart = 0;
            ++txAddrNow;
        }
    } else if (serTxDone) return 0; //All is sent!
    14e8:	80 91 04 38 	lds	r24, 0x3804	; 0x803804 <serTxDone>
    14ec:	88 23       	and	r24, r24
    14ee:	11 f0       	breq	.+4      	; 0x14f4 <CheckSend+0xb4>
    14f0:	80 e0       	ldi	r24, 0x00	; 0
    14f2:	01 c0       	rjmp	.+2      	; 0x14f6 <CheckSend+0xb6>
    return 1; //Still sending, do not change the data in the tx variables
    14f4:	81 e0       	ldi	r24, 0x01	; 1
}
    14f6:	cf 91       	pop	r28
    14f8:	08 95       	ret

000014fa <CheckResponse>:

//Send another part of the response and play the effect afterwards
uint8_t CheckResponse(){
    static uint8_t number = 0;
    if (responseList){
    14fa:	80 91 41 39 	lds	r24, 0x3941	; 0x803941 <responseList>
    14fe:	88 23       	and	r24, r24
    1500:	09 f4       	brne	.+2      	; 0x1504 <CheckResponse+0xa>
    1502:	42 c0       	rjmp	.+132    	; 0x1588 <CheckResponse+0x8e>
        --responseList;
    1504:	81 50       	subi	r24, 0x01	; 1
    1506:	80 93 41 39 	sts	0x3941, r24	; 0x803941 <responseList>
        if (reactStr[0][number] == CURR_LOC) {
    150a:	20 91 2e 39 	lds	r18, 0x392E	; 0x80392e <number.3920>
    150e:	30 e0       	ldi	r19, 0x00	; 0
    1510:	f9 01       	movw	r30, r18
    1512:	ee 0f       	add	r30, r30
    1514:	ff 1f       	adc	r31, r31
    1516:	ee 5b       	subi	r30, 0xBE	; 190
    1518:	f6 4c       	sbci	r31, 0xC6	; 198
    151a:	80 81       	ld	r24, Z
    151c:	91 81       	ldd	r25, Z+1	; 0x01
    151e:	80 3f       	cpi	r24, 0xF0	; 240
    1520:	4f ef       	ldi	r20, 0xFF	; 255
    1522:	94 07       	cpc	r25, r20
    1524:	49 f4       	brne	.+18     	; 0x1538 <CheckResponse+0x3e>
            PrepareSending(currObj.addrStr[NAME], currObj.lenStr[NAME], GAME);
    1526:	e2 e4       	ldi	r30, 0x42	; 66
    1528:	fa e3       	ldi	r31, 0x3A	; 58
    152a:	62 8d       	ldd	r22, Z+26	; 0x1a
    152c:	73 8d       	ldd	r23, Z+27	; 0x1b
    152e:	40 e0       	ldi	r20, 0x00	; 0
    1530:	84 85       	ldd	r24, Z+12	; 0x0c
    1532:	95 85       	ldd	r25, Z+13	; 0x0d
    1534:	43 dd       	rcall	.-1402   	; 0xfbc <PrepareSending>
    1536:	11 c0       	rjmp	.+34     	; 0x155a <CheckResponse+0x60>
        } else {
            PrepareSending(reactStr[0][number], reactStr[1][number], reactStr[2][number]);
    1538:	f9 01       	movw	r30, r18
    153a:	e0 5c       	subi	r30, 0xC0	; 192
    153c:	ff 4f       	sbci	r31, 0xFF	; 255
    153e:	ee 0f       	add	r30, r30
    1540:	ff 1f       	adc	r31, r31
    1542:	ee 5b       	subi	r30, 0xBE	; 190
    1544:	f6 4c       	sbci	r31, 0xC6	; 198
    1546:	40 81       	ld	r20, Z
    1548:	f9 01       	movw	r30, r18
    154a:	b0 96       	adiw	r30, 0x20	; 32
    154c:	ee 0f       	add	r30, r30
    154e:	ff 1f       	adc	r31, r31
    1550:	ee 5b       	subi	r30, 0xBE	; 190
    1552:	f6 4c       	sbci	r31, 0xC6	; 198
    1554:	60 81       	ld	r22, Z
    1556:	71 81       	ldd	r23, Z+1	; 0x01
    1558:	31 dd       	rcall	.-1438   	; 0xfbc <PrepareSending>
        }
        ++number;
    155a:	80 91 2e 39 	lds	r24, 0x392E	; 0x80392e <number.3920>
    155e:	8f 5f       	subi	r24, 0xFF	; 255
    1560:	80 93 2e 39 	sts	0x392E, r24	; 0x80392e <number.3920>

        if (responseList == 0) {
    1564:	80 91 41 39 	lds	r24, 0x3941	; 0x803941 <responseList>
    1568:	81 11       	cpse	r24, r1
    156a:	0d c0       	rjmp	.+26     	; 0x1586 <CheckResponse+0x8c>
            effect = currObj.byteField[EFFECTS];
    156c:	20 91 46 3a 	lds	r18, 0x3A46	; 0x803a46 <currObj+0x4>
    1570:	30 e0       	ldi	r19, 0x00	; 0
    1572:	20 93 93 38 	sts	0x3893, r18	; 0x803893 <effect>
    1576:	30 93 94 38 	sts	0x3894, r19	; 0x803894 <effect+0x1>
            RXCNT = 0;
    157a:	1d ba       	out	0x1d, r1	; 29
            serRxDone = 0;
    157c:	10 92 9c 38 	sts	0x389C, r1	; 0x80389c <serRxDone>
            number = 0;
    1580:	10 92 2e 39 	sts	0x392E, r1	; 0x80392e <number.3920>
            return 0;
    1584:	08 95       	ret
        }
        return 1;
    1586:	81 e0       	ldi	r24, 0x01	; 1
    }
    return 0;
}
    1588:	08 95       	ret

0000158a <CheckInput>:

//User input check (and validation)
uint8_t CheckInput(uint8_t *data){
    158a:	ef 92       	push	r14
    158c:	ff 92       	push	r15
    158e:	0f 93       	push	r16
    1590:	1f 93       	push	r17
    1592:	cf 93       	push	r28
    1594:	df 93       	push	r29
    1596:	cd b7       	in	r28, 0x3d	; 61
    1598:	de b7       	in	r29, 0x3e	; 62
    159a:	2a 97       	sbiw	r28, 0x0a	; 10
    159c:	cd bf       	out	0x3d, r28	; 61
    159e:	de bf       	out	0x3e, r29	; 62
    15a0:	8c 01       	movw	r16, r24
    
    //Load game data after reboot
    if (currDepth == 0xff) {
    15a2:	80 91 8f 38 	lds	r24, 0x388F	; 0x80388f <currDepth>
    15a6:	8f 3f       	cpi	r24, 0xFF	; 255
    15a8:	09 f0       	breq	.+2      	; 0x15ac <CheckInput+0x22>
    15aa:	58 c0       	rjmp	.+176    	; 0x165c <CheckInput+0xd2>
        //Load things from EEPROM
        EERead(0, &gameState[0], BOOTCHK);   //Load game status bits from EEPROM
    15ac:	44 e1       	ldi	r20, 0x14	; 20
    15ae:	66 e8       	ldi	r22, 0x86	; 134
    15b0:	7a e3       	ldi	r23, 0x3A	; 58
    15b2:	80 e0       	ldi	r24, 0x00	; 0
    15b4:	f5 d9       	rcall	.-3094   	; 0x9a0 <EERead>

        uint8_t idSet = 0;
        for (uint8_t x=0; x<4; ++x){
    15b6:	f1 2c       	mov	r15, r1
    //Load game data after reboot
    if (currDepth == 0xff) {
        //Load things from EEPROM
        EERead(0, &gameState[0], BOOTCHK);   //Load game status bits from EEPROM

        uint8_t idSet = 0;
    15b8:	e1 2c       	mov	r14, r1
        for (uint8_t x=0; x<4; ++x){
    15ba:	05 c0       	rjmp	.+10     	; 0x15c6 <CheckInput+0x3c>
            idSet += ReadStatusBit(110+x);
    15bc:	8e e6       	ldi	r24, 0x6E	; 110
    15be:	8f 0d       	add	r24, r15
    15c0:	8d db       	rcall	.-2278   	; 0xcdc <ReadStatusBit>
    15c2:	e8 0e       	add	r14, r24
    if (currDepth == 0xff) {
        //Load things from EEPROM
        EERead(0, &gameState[0], BOOTCHK);   //Load game status bits from EEPROM

        uint8_t idSet = 0;
        for (uint8_t x=0; x<4; ++x){
    15c4:	f3 94       	inc	r15
    15c6:	83 e0       	ldi	r24, 0x03	; 3
    15c8:	8f 15       	cp	r24, r15
    15ca:	c0 f7       	brcc	.-16     	; 0x15bc <CheckInput+0x32>
            idSet += ReadStatusBit(110+x);
        }

        //Check if badge is reset (cheated!)
        if (idSet == 0) {
    15cc:	e1 10       	cpse	r14, r1
            Reset();
    15ce:	02 c0       	rjmp	.+4      	; 0x15d4 <CheckInput+0x4a>
    15d0:	d9 db       	rcall	.-2126   	; 0xd84 <Reset>
        } else getID();
    15d2:	01 c0       	rjmp	.+2      	; 0x15d6 <CheckInput+0x4c>
    15d4:	c8 db       	rcall	.-2160   	; 0xd66 <getID>

        inventory[0] = (gameState[INVADDR]<<8|gameState[INVADDR+1]);
    15d6:	e6 e8       	ldi	r30, 0x86	; 134
    15d8:	fa e3       	ldi	r31, 0x3A	; 58
    15da:	80 89       	ldd	r24, Z+16	; 0x10
    15dc:	90 e0       	ldi	r25, 0x00	; 0
    15de:	98 2f       	mov	r25, r24
    15e0:	88 27       	eor	r24, r24
    15e2:	21 89       	ldd	r18, Z+17	; 0x11
    15e4:	82 2b       	or	r24, r18
    15e6:	a6 e9       	ldi	r26, 0x96	; 150
    15e8:	b8 e3       	ldi	r27, 0x38	; 56
    15ea:	8d 93       	st	X+, r24
    15ec:	9c 93       	st	X, r25
    15ee:	11 97       	sbiw	r26, 0x01	; 1
        inventory[1] = (gameState[INVADDR+2]<<8|gameState[INVADDR+3]);
    15f0:	82 89       	ldd	r24, Z+18	; 0x12
    15f2:	90 e0       	ldi	r25, 0x00	; 0
    15f4:	98 2f       	mov	r25, r24
    15f6:	88 27       	eor	r24, r24
    15f8:	23 89       	ldd	r18, Z+19	; 0x13
    15fa:	82 2b       	or	r24, r18
    15fc:	12 96       	adiw	r26, 0x02	; 2
    15fe:	8d 93       	st	X+, r24
    1600:	9c 93       	st	X, r25
        SaveGameState();
    1602:	13 97       	sbiw	r26, 0x03	; 3
    1604:	00 db       	rcall	.-2560   	; 0xc06 <SaveGameState>

        //Start at first location
        PopulateObject(route[0], &currObj);
    1606:	62 e4       	ldi	r22, 0x42	; 66
    1608:	7a e3       	ldi	r23, 0x3A	; 58
    160a:	80 91 02 3a 	lds	r24, 0x3A02	; 0x803a02 <route>
    160e:	90 91 03 3a 	lds	r25, 0x3A03	; 0x803a03 <route+0x1>
    1612:	8f dd       	rcall	.-1250   	; 0x1132 <PopulateObject>
        currDepth = 0;
    1614:	10 92 8f 38 	sts	0x388F, r1	; 0x80388f <currDepth>

        //Play an effect if configured
        if ((effect < 0x0100) && (effect ^ currObj.byteField[EFFECTS])){
    1618:	80 91 93 38 	lds	r24, 0x3893	; 0x803893 <effect>
    161c:	90 91 94 38 	lds	r25, 0x3894	; 0x803894 <effect+0x1>
    1620:	8f 3f       	cpi	r24, 0xFF	; 255
    1622:	91 05       	cpc	r25, r1
    1624:	09 f0       	breq	.+2      	; 0x1628 <CheckInput+0x9e>
    1626:	d0 f4       	brcc	.+52     	; 0x165c <CheckInput+0xd2>
    1628:	80 91 46 3a 	lds	r24, 0x3A46	; 0x803a46 <currObj+0x4>
    162c:	90 e0       	ldi	r25, 0x00	; 0
    162e:	20 91 93 38 	lds	r18, 0x3893	; 0x803893 <effect>
    1632:	30 91 94 38 	lds	r19, 0x3894	; 0x803894 <effect+0x1>
    1636:	82 17       	cp	r24, r18
    1638:	93 07       	cpc	r25, r19
    163a:	81 f0       	breq	.+32     	; 0x165c <CheckInput+0xd2>
            effect = currObj.byteField[EFFECTS];
    163c:	80 93 93 38 	sts	0x3893, r24	; 0x803893 <effect>
    1640:	90 93 94 38 	sts	0x3894, r25	; 0x803894 <effect+0x1>
            auStart = ((effect&0xE0)>0);
    1644:	80 91 93 38 	lds	r24, 0x3893	; 0x803893 <effect>
    1648:	90 91 94 38 	lds	r25, 0x3894	; 0x803894 <effect+0x1>
    164c:	80 7e       	andi	r24, 0xE0	; 224
    164e:	99 27       	eor	r25, r25
    1650:	21 e0       	ldi	r18, 0x01	; 1
    1652:	89 2b       	or	r24, r25
    1654:	09 f4       	brne	.+2      	; 0x1658 <CheckInput+0xce>
    1656:	20 e0       	ldi	r18, 0x00	; 0
    1658:	20 93 92 38 	sts	0x3892, r18	; 0x803892 <auStart>
        }
    }

    if (serRxDone){
    165c:	80 91 9c 38 	lds	r24, 0x389C	; 0x80389c <serRxDone>
    1660:	88 23       	and	r24, r24
    1662:	09 f4       	brne	.+2      	; 0x1666 <CheckInput+0xdc>
    1664:	ff c0       	rjmp	.+510    	; 0x1864 <CheckInput+0x2da>

        //Special input requested from user by game
        if (specialInput[0]){
    1666:	80 91 31 39 	lds	r24, 0x3931	; 0x803931 <specialInput>
    166a:	88 23       	and	r24, r24
    166c:	09 f4       	brne	.+2      	; 0x1670 <CheckInput+0xe6>
    166e:	50 c0       	rjmp	.+160    	; 0x1710 <CheckInput+0x186>
            specialPassed = 0;
    1670:	10 92 30 39 	sts	0x3930, r1	; 0x803930 <specialPassed>
            data[0] = 'a';
    1674:	81 e6       	ldi	r24, 0x61	; 97
    1676:	f8 01       	movw	r30, r16
            
            //Normal code challenge
            if (StartsWith((uint8_t *)&serRx[0], &specialInput[0])) {
    1678:	80 83       	st	Z, r24
    167a:	61 e3       	ldi	r22, 0x31	; 49
    167c:	79 e3       	ldi	r23, 0x39	; 57
    167e:	8a e9       	ldi	r24, 0x9A	; 154
    1680:	9a e3       	ldi	r25, 0x3A	; 58
    1682:	7c dc       	rcall	.-1800   	; 0xf7c <StartsWith>
    1684:	88 23       	and	r24, r24
    1686:	49 f0       	breq	.+18     	; 0x169a <CheckInput+0x110>
                specialPassed = 1;
    1688:	81 e0       	ldi	r24, 0x01	; 1
    168a:	80 93 30 39 	sts	0x3930, r24	; 0x803930 <specialPassed>
                specialInput[0] = 0;
    168e:	10 92 31 39 	sts	0x3931, r1	; 0x803931 <specialInput>
                data[1] = 0;
    1692:	f8 01       	movw	r30, r16
    1694:	11 82       	std	Z+1, r1	; 0x01
                    if (serTxDone) SerSend(&cheat[0]);
                }
            }
        } 
        //Data received, but not any of the commands above
        return 0;
    1696:	80 e0       	ldi	r24, 0x00	; 0
    1698:	e6 c0       	rjmp	.+460    	; 0x1866 <CheckInput+0x2dc>
                specialPassed = 1;
                specialInput[0] = 0;
                data[1] = 0;

            //Special challenge 1
            } else if ((specialInput[0] == '1')&&(specialInput[1] == '\0')) {
    169a:	90 91 31 39 	lds	r25, 0x3931	; 0x803931 <specialInput>
    169e:	91 33       	cpi	r25, 0x31	; 49
    16a0:	29 f4       	brne	.+10     	; 0x16ac <CheckInput+0x122>
    16a2:	90 91 32 39 	lds	r25, 0x3932	; 0x803932 <specialInput+0x1>
    16a6:	99 23       	and	r25, r25
    16a8:	09 f4       	brne	.+2      	; 0x16ac <CheckInput+0x122>
    16aa:	dd c0       	rjmp	.+442    	; 0x1866 <CheckInput+0x2dc>
            
            //Wrong answer
            } else {
                specialInput[0] = 0;
    16ac:	10 92 31 39 	sts	0x3931, r1	; 0x803931 <specialInput>
                data[1] = 0;
    16b0:	f8 01       	movw	r30, r16
    16b2:	11 82       	std	Z+1, r1	; 0x01
    16b4:	d8 c0       	rjmp	.+432    	; 0x1866 <CheckInput+0x2dc>
        
        //Normal input
        } else {
            //Read up to the \0 character and convert to lower case.
            for (uint8_t x=0; x<RXLEN; ++x){
                if ((serRx[x]<'A')||(serRx[x]>'Z')) data[x]=serRx[x]; else data[x]=serRx[x]|0x20;
    16b6:	28 2f       	mov	r18, r24
    16b8:	30 e0       	ldi	r19, 0x00	; 0
    16ba:	f9 01       	movw	r30, r18
    16bc:	e6 56       	subi	r30, 0x66	; 102
    16be:	f5 4c       	sbci	r31, 0xC5	; 197
    16c0:	90 81       	ld	r25, Z
    16c2:	91 34       	cpi	r25, 0x41	; 65
    16c4:	30 f0       	brcs	.+12     	; 0x16d2 <CheckInput+0x148>
    16c6:	f9 01       	movw	r30, r18
    16c8:	e6 56       	subi	r30, 0x66	; 102
    16ca:	f5 4c       	sbci	r31, 0xC5	; 197
    16cc:	90 81       	ld	r25, Z
    16ce:	9b 35       	cpi	r25, 0x5B	; 91
    16d0:	48 f0       	brcs	.+18     	; 0x16e4 <CheckInput+0x15a>
    16d2:	f9 01       	movw	r30, r18
    16d4:	e6 56       	subi	r30, 0x66	; 102
    16d6:	f5 4c       	sbci	r31, 0xC5	; 197
    16d8:	90 81       	ld	r25, Z
    16da:	f8 01       	movw	r30, r16
    16dc:	e8 0f       	add	r30, r24
    16de:	f1 1d       	adc	r31, r1
    16e0:	90 83       	st	Z, r25
    16e2:	09 c0       	rjmp	.+18     	; 0x16f6 <CheckInput+0x16c>
    16e4:	f8 01       	movw	r30, r16
    16e6:	e8 0f       	add	r30, r24
    16e8:	f1 1d       	adc	r31, r1
    16ea:	d9 01       	movw	r26, r18
    16ec:	a6 56       	subi	r26, 0x66	; 102
    16ee:	b5 4c       	sbci	r27, 0xC5	; 197
    16f0:	9c 91       	ld	r25, X
    16f2:	90 62       	ori	r25, 0x20	; 32
    16f4:	90 83       	st	Z, r25
                if (serRx[x] == 0) {
    16f6:	f9 01       	movw	r30, r18
    16f8:	e6 56       	subi	r30, 0x66	; 102
    16fa:	f5 4c       	sbci	r31, 0xC5	; 197
    16fc:	90 81       	ld	r25, Z
    16fe:	91 11       	cpse	r25, r1
    1700:	05 c0       	rjmp	.+10     	; 0x170c <CheckInput+0x182>
                    data[x] = 0;
    1702:	f8 01       	movw	r30, r16
    1704:	e8 0f       	add	r30, r24
    1706:	f1 1d       	adc	r31, r1
    1708:	10 82       	st	Z, r1
                    break;
    170a:	05 c0       	rjmp	.+10     	; 0x1716 <CheckInput+0x18c>
            }
        
        //Normal input
        } else {
            //Read up to the \0 character and convert to lower case.
            for (uint8_t x=0; x<RXLEN; ++x){
    170c:	8f 5f       	subi	r24, 0xFF	; 255
    170e:	01 c0       	rjmp	.+2      	; 0x1712 <CheckInput+0x188>
    1710:	80 e0       	ldi	r24, 0x00	; 0
    1712:	81 34       	cpi	r24, 0x41	; 65
    1714:	80 f2       	brcs	.-96     	; 0x16b6 <CheckInput+0x12c>
                    break;
                }
            }

            //No text
            if (serRx[0] == 0){
    1716:	80 91 9a 3a 	lds	r24, 0x3A9A	; 0x803a9a <serRx>
    171a:	81 11       	cpse	r24, r1
    171c:	07 c0       	rjmp	.+14     	; 0x172c <CheckInput+0x1a2>
                data[0] = 0;
    171e:	f8 01       	movw	r30, r16
    1720:	10 82       	st	Z, r1
                RXCNT = 0;
    1722:	1d ba       	out	0x1d, r1	; 29
                serRxDone = 0;
    1724:	10 92 9c 38 	sts	0x389C, r1	; 0x80389c <serRxDone>
                return 1;
    1728:	81 e0       	ldi	r24, 0x01	; 1
    172a:	9d c0       	rjmp	.+314    	; 0x1866 <CheckInput+0x2dc>
            }

            //Help text
            if ((data[0] == '?')||(data[0] == 'h')){
    172c:	f8 01       	movw	r30, r16
    172e:	80 81       	ld	r24, Z
    1730:	8f 33       	cpi	r24, 0x3F	; 63
    1732:	11 f0       	breq	.+4      	; 0x1738 <CheckInput+0x1ae>
    1734:	88 36       	cpi	r24, 0x68	; 104
                SetResponse(0, A_HELP, L_HELP, TEASER);
    1736:	69 f4       	brne	.+26     	; 0x1752 <CheckInput+0x1c8>
    1738:	21 e0       	ldi	r18, 0x01	; 1
    173a:	4f e4       	ldi	r20, 0x4F	; 79
    173c:	54 e0       	ldi	r21, 0x04	; 4
    173e:	61 eb       	ldi	r22, 0xB1	; 177
    1740:	7b e7       	ldi	r23, 0x7B	; 123
    1742:	80 e0       	ldi	r24, 0x00	; 0
                responseList = SetStandardResponse(1);
    1744:	93 dc       	rcall	.-1754   	; 0x106c <SetResponse>
    1746:	81 e0       	ldi	r24, 0x01	; 1
    1748:	ac dc       	rcall	.-1704   	; 0x10a2 <SetStandardResponse>
    174a:	80 93 41 39 	sts	0x3941, r24	; 0x803941 <responseList>
                return 1;
    174e:	81 e0       	ldi	r24, 0x01	; 1
            }        
        
            //Alphabet text
            if (data[0] == 'a'){
    1750:	8a c0       	rjmp	.+276    	; 0x1866 <CheckInput+0x2dc>
                SetResponse(0, A_ALPHABET, L_ALPHABET, TEASER);
    1752:	81 36       	cpi	r24, 0x61	; 97
    1754:	69 f4       	brne	.+26     	; 0x1770 <CheckInput+0x1e6>
    1756:	21 e0       	ldi	r18, 0x01	; 1
    1758:	4b e1       	ldi	r20, 0x1B	; 27
    175a:	51 e0       	ldi	r21, 0x01	; 1
    175c:	66 e9       	ldi	r22, 0x96	; 150
    175e:	7a e7       	ldi	r23, 0x7A	; 122
    1760:	80 e0       	ldi	r24, 0x00	; 0
                responseList = SetStandardResponse(1);
    1762:	84 dc       	rcall	.-1784   	; 0x106c <SetResponse>
    1764:	81 e0       	ldi	r24, 0x01	; 1
    1766:	9d dc       	rcall	.-1734   	; 0x10a2 <SetStandardResponse>
    1768:	80 93 41 39 	sts	0x3941, r24	; 0x803941 <responseList>
                return 1;
    176c:	81 e0       	ldi	r24, 0x01	; 1
            }

            //Whoami text
            if (data[0] == 'w'){
    176e:	7b c0       	rjmp	.+246    	; 0x1866 <CheckInput+0x2dc>
    1770:	87 37       	cpi	r24, 0x77	; 119
    1772:	09 f0       	breq	.+2      	; 0x1776 <CheckInput+0x1ec>
                SetResponse(0, A_HELLO, L_HELLO, TEASER);
    1774:	44 c0       	rjmp	.+136    	; 0x17fe <CheckInput+0x274>
    1776:	21 e0       	ldi	r18, 0x01	; 1
    1778:	42 e1       	ldi	r20, 0x12	; 18
    177a:	50 e0       	ldi	r21, 0x00	; 0
    177c:	67 ef       	ldi	r22, 0xF7	; 247
    177e:	76 e7       	ldi	r23, 0x76	; 118
    1780:	80 e0       	ldi	r24, 0x00	; 0
                if (whoami == 1) {
    1782:	74 dc       	rcall	.-1816   	; 0x106c <SetResponse>
    1784:	80 91 95 38 	lds	r24, 0x3895	; 0x803895 <whoami>
    1788:	81 30       	cpi	r24, 0x01	; 1
                    SetResponse(1, A_ANUBIS, L_ANUBIS, TEASER);
    178a:	39 f4       	brne	.+14     	; 0x179a <CheckInput+0x210>
    178c:	21 e0       	ldi	r18, 0x01	; 1
    178e:	46 e0       	ldi	r20, 0x06	; 6
    1790:	50 e0       	ldi	r21, 0x00	; 0
    1792:	61 ef       	ldi	r22, 0xF1	; 241
    1794:	76 e7       	ldi	r23, 0x76	; 118
    1796:	6a dc       	rcall	.-1836   	; 0x106c <SetResponse>
                } else if (whoami == 2) {
    1798:	25 c0       	rjmp	.+74     	; 0x17e4 <CheckInput+0x25a>
    179a:	82 30       	cpi	r24, 0x02	; 2
                    SetResponse(1, A_BES, L_BES, TEASER);
    179c:	41 f4       	brne	.+16     	; 0x17ae <CheckInput+0x224>
    179e:	21 e0       	ldi	r18, 0x01	; 1
    17a0:	43 e0       	ldi	r20, 0x03	; 3
    17a2:	50 e0       	ldi	r21, 0x00	; 0
    17a4:	6e ee       	ldi	r22, 0xEE	; 238
    17a6:	76 e7       	ldi	r23, 0x76	; 118
    17a8:	81 e0       	ldi	r24, 0x01	; 1
    17aa:	60 dc       	rcall	.-1856   	; 0x106c <SetResponse>
                } else if (whoami == 3) {
    17ac:	1b c0       	rjmp	.+54     	; 0x17e4 <CheckInput+0x25a>
    17ae:	83 30       	cpi	r24, 0x03	; 3
                    SetResponse(1, A_KHONSU, L_KHONSU, TEASER);
    17b0:	41 f4       	brne	.+16     	; 0x17c2 <CheckInput+0x238>
    17b2:	21 e0       	ldi	r18, 0x01	; 1
    17b4:	46 e0       	ldi	r20, 0x06	; 6
    17b6:	50 e0       	ldi	r21, 0x00	; 0
    17b8:	68 ee       	ldi	r22, 0xE8	; 232
    17ba:	76 e7       	ldi	r23, 0x76	; 118
    17bc:	81 e0       	ldi	r24, 0x01	; 1
    17be:	56 dc       	rcall	.-1876   	; 0x106c <SetResponse>
                } else if (whoami == 4) {
    17c0:	11 c0       	rjmp	.+34     	; 0x17e4 <CheckInput+0x25a>
                    SetResponse(1, A_THOTH, L_THOTH, TEASER);
    17c2:	84 30       	cpi	r24, 0x04	; 4
    17c4:	41 f4       	brne	.+16     	; 0x17d6 <CheckInput+0x24c>
    17c6:	21 e0       	ldi	r18, 0x01	; 1
    17c8:	45 e0       	ldi	r20, 0x05	; 5
    17ca:	50 e0       	ldi	r21, 0x00	; 0
    17cc:	63 ee       	ldi	r22, 0xE3	; 227
    17ce:	76 e7       	ldi	r23, 0x76	; 118
    17d0:	81 e0       	ldi	r24, 0x01	; 1
                } else {
                    SetResponse(1, A_ERROR, L_ERROR, TEASER);
    17d2:	4c dc       	rcall	.-1896   	; 0x106c <SetResponse>
    17d4:	07 c0       	rjmp	.+14     	; 0x17e4 <CheckInput+0x25a>
    17d6:	21 e0       	ldi	r18, 0x01	; 1
    17d8:	42 e4       	ldi	r20, 0x42	; 66
    17da:	50 e0       	ldi	r21, 0x00	; 0
    17dc:	6c e6       	ldi	r22, 0x6C	; 108
    17de:	76 e7       	ldi	r23, 0x76	; 118
    17e0:	81 e0       	ldi	r24, 0x01	; 1
                }
                SetResponse(2, A_PLEASED, L_PLEASED, TEASER);
    17e2:	44 dc       	rcall	.-1912   	; 0x106c <SetResponse>
    17e4:	21 e0       	ldi	r18, 0x01	; 1
    17e6:	4a e1       	ldi	r20, 0x1A	; 26
    17e8:	50 e0       	ldi	r21, 0x00	; 0
    17ea:	69 ec       	ldi	r22, 0xC9	; 201
    17ec:	76 e7       	ldi	r23, 0x76	; 118
                responseList = SetStandardResponse(3);
    17ee:	82 e0       	ldi	r24, 0x02	; 2
    17f0:	3d dc       	rcall	.-1926   	; 0x106c <SetResponse>
    17f2:	83 e0       	ldi	r24, 0x03	; 3
    17f4:	56 dc       	rcall	.-1876   	; 0x10a2 <SetStandardResponse>
    17f6:	80 93 41 39 	sts	0x3941, r24	; 0x803941 <responseList>
                return 1;
            }

            //Quit text
            if (data[0] == 'q'){
    17fa:	81 e0       	ldi	r24, 0x01	; 1
    17fc:	34 c0       	rjmp	.+104    	; 0x1866 <CheckInput+0x2dc>
                SetResponse(0, A_QUIT, L_QUIT, TEASER);
    17fe:	81 37       	cpi	r24, 0x71	; 113
    1800:	69 f4       	brne	.+26     	; 0x181c <CheckInput+0x292>
    1802:	21 e0       	ldi	r18, 0x01	; 1
    1804:	44 e5       	ldi	r20, 0x54	; 84
    1806:	50 e0       	ldi	r21, 0x00	; 0
    1808:	6e e2       	ldi	r22, 0x2E	; 46
    180a:	7a e7       	ldi	r23, 0x7A	; 122
                responseList = SetStandardResponse(1);
    180c:	80 e0       	ldi	r24, 0x00	; 0
    180e:	2e dc       	rcall	.-1956   	; 0x106c <SetResponse>
    1810:	81 e0       	ldi	r24, 0x01	; 1
    1812:	47 dc       	rcall	.-1906   	; 0x10a2 <SetStandardResponse>
                return 1;
    1814:	80 93 41 39 	sts	0x3941, r24	; 0x803941 <responseList>
            }

            //Cheat = reset badge!
            if (StartsWith(&data[0], "iddqd")){
    1818:	81 e0       	ldi	r24, 0x01	; 1
    181a:	25 c0       	rjmp	.+74     	; 0x1866 <CheckInput+0x2dc>
    181c:	64 ef       	ldi	r22, 0xF4	; 244
    181e:	74 ea       	ldi	r23, 0xA4	; 164
    1820:	c8 01       	movw	r24, r16
    1822:	ac db       	rcall	.-2216   	; 0xf7c <StartsWith>
    1824:	81 11       	cpse	r24, r1
            
                //Reset game data by wiping the UUID bits
                for (uint8_t x=0; x<4; ++x){
                    WriteStatusBit(110+x, 0);
    1826:	07 c0       	rjmp	.+14     	; 0x1836 <CheckInput+0x2ac>
    1828:	1e c0       	rjmp	.+60     	; 0x1866 <CheckInput+0x2dc>
    182a:	60 e0       	ldi	r22, 0x00	; 0
    182c:	8e e6       	ldi	r24, 0x6E	; 110
    182e:	81 0f       	add	r24, r17

            //Cheat = reset badge!
            if (StartsWith(&data[0], "iddqd")){
            
                //Reset game data by wiping the UUID bits
                for (uint8_t x=0; x<4; ++x){
    1830:	6d da       	rcall	.-2854   	; 0xd0c <WriteStatusBit>
    1832:	1f 5f       	subi	r17, 0xFF	; 255
    1834:	01 c0       	rjmp	.+2      	; 0x1838 <CheckInput+0x2ae>
    1836:	10 e0       	ldi	r17, 0x00	; 0
                    WriteStatusBit(110+x, 0);
                }
                SaveGameState();
    1838:	14 30       	cpi	r17, 0x04	; 4
    183a:	b8 f3       	brcs	.-18     	; 0x182a <CheckInput+0x2a0>

                uint8_t cheat[] = "Cheater! ";
    183c:	e4 d9       	rcall	.-3128   	; 0xc06 <SaveGameState>
    183e:	8a e0       	ldi	r24, 0x0A	; 10
    1840:	ea ef       	ldi	r30, 0xFA	; 250
    1842:	f4 ea       	ldi	r31, 0xA4	; 164
    1844:	de 01       	movw	r26, r28
    1846:	11 96       	adiw	r26, 0x01	; 1
    1848:	01 90       	ld	r0, Z+
    184a:	0d 92       	st	X+, r0
    184c:	8a 95       	dec	r24
                SerSpeed(60);
    184e:	e1 f7       	brne	.-8      	; 0x1848 <CheckInput+0x2be>
    1850:	8c e3       	ldi	r24, 0x3C	; 60
    1852:	f6 d8       	rcall	.-3604   	; 0xa40 <SerSpeed>
                while(1){
                    if (serTxDone) SerSend(&cheat[0]);
    1854:	80 91 04 38 	lds	r24, 0x3804	; 0x803804 <serTxDone>
    1858:	88 23       	and	r24, r24
    185a:	e1 f3       	breq	.-8      	; 0x1854 <CheckInput+0x2ca>
    185c:	ce 01       	movw	r24, r28
    185e:	01 96       	adiw	r24, 0x01	; 1
    1860:	dd d8       	rcall	.-3654   	; 0xa1c <SerSend>
    1862:	f8 cf       	rjmp	.-16     	; 0x1854 <CheckInput+0x2ca>
    1864:	81 e0       	ldi	r24, 0x01	; 1
        //Data received, but not any of the commands above
        return 0;
    }

    //Serial input not available yet
    return 1;
    1866:	2a 96       	adiw	r28, 0x0a	; 10
}
    1868:	cd bf       	out	0x3d, r28	; 61
    186a:	de bf       	out	0x3e, r29	; 62
    186c:	df 91       	pop	r29
    186e:	cf 91       	pop	r28
    1870:	1f 91       	pop	r17
    1872:	0f 91       	pop	r16
    1874:	ff 90       	pop	r15
    1876:	ef 90       	pop	r14
    1878:	08 95       	ret

0000187a <ProcessInput>:
    187a:	df 92       	push	r13

//The game logic!
uint8_t ProcessInput(uint8_t *data){
    187c:	ef 92       	push	r14
    187e:	ff 92       	push	r15
    1880:	0f 93       	push	r16
    1882:	1f 93       	push	r17
    1884:	cf 93       	push	r28
    1886:	df 93       	push	r29
    1888:	ec 01       	movw	r28, r24
    static object_model_t actObj1, actObj2;
    uint8_t elements = 0;

    CleanInput(&data[0]);
    188a:	b9 dd       	rcall	.-1166   	; 0x13fe <CleanInput>
    uint8_t inputLen = CleanInput(&data[0]);
    188c:	ce 01       	movw	r24, r28
    188e:	b7 dd       	rcall	.-1170   	; 0x13fe <CleanInput>
    1890:	18 2f       	mov	r17, r24

    if (inputLen) {
    1892:	88 23       	and	r24, r24
    1894:	09 f4       	brne	.+2      	; 0x1898 <ProcessInput+0x1e>
    1896:	4a c5       	rjmp	.+2708   	; 0x232c <ProcessInput+0xab2>

        //eXit to previous location
        if (data[0] == 'x'){
    1898:	88 81       	ld	r24, Y
    189a:	88 37       	cpi	r24, 0x78	; 120
    189c:	c1 f5       	brne	.+112    	; 0x190e <ProcessInput+0x94>

            //Standing in the Lobby?
            if ((route[currDepth] == 0)||(currDepth == 0)){
    189e:	80 91 8f 38 	lds	r24, 0x388F	; 0x80388f <currDepth>
    18a2:	e8 2f       	mov	r30, r24
    18a4:	f0 e0       	ldi	r31, 0x00	; 0
    18a6:	ee 0f       	add	r30, r30
    18a8:	ff 1f       	adc	r31, r31
    18aa:	ee 5f       	subi	r30, 0xFE	; 254
    18ac:	f5 4c       	sbci	r31, 0xC5	; 197
    18ae:	20 81       	ld	r18, Z
    18b0:	31 81       	ldd	r19, Z+1	; 0x01
    18b2:	23 2b       	or	r18, r19
    18b4:	11 f0       	breq	.+4      	; 0x18ba <ProcessInput+0x40>
    18b6:	81 11       	cpse	r24, r1
    18b8:	09 c0       	rjmp	.+18     	; 0x18cc <ProcessInput+0x52>
                SetResponse(elements++, A_NOTPOSSIBLE, L_NOTPOSSIBLE, TEASER);
    18ba:	21 e0       	ldi	r18, 0x01	; 1
    18bc:	4b e1       	ldi	r20, 0x1B	; 27
    18be:	50 e0       	ldi	r21, 0x00	; 0
    18c0:	6e ea       	ldi	r22, 0xAE	; 174
    18c2:	76 e7       	ldi	r23, 0x76	; 118
    18c4:	80 e0       	ldi	r24, 0x00	; 0
    18c6:	d2 db       	rcall	.-2140   	; 0x106c <SetResponse>
    18c8:	01 e0       	ldi	r16, 0x01	; 1
    18ca:	20 c5       	rjmp	.+2624   	; 0x230c <ProcessInput+0xa92>
            
            //Is there a way to go back?
            } else if (CheckState(currObj.byteField[OPEN_ACL])){
    18cc:	80 91 48 3a 	lds	r24, 0x3A48	; 0x803a48 <currObj+0x6>
    18d0:	b6 dc       	rcall	.-1684   	; 0x123e <CheckState>
    18d2:	88 23       	and	r24, r24
    18d4:	89 f0       	breq	.+34     	; 0x18f8 <ProcessInput+0x7e>
    18d6:	e0 91 8f 38 	lds	r30, 0x388F	; 0x80388f <currDepth>
                --currDepth;
    18da:	e1 50       	subi	r30, 0x01	; 1
    18dc:	e0 93 8f 38 	sts	0x388F, r30	; 0x80388f <currDepth>
    18e0:	f0 e0       	ldi	r31, 0x00	; 0
                PopulateObject(route[currDepth], &currObj);
    18e2:	ee 0f       	add	r30, r30
    18e4:	ff 1f       	adc	r31, r31
    18e6:	ee 5f       	subi	r30, 0xFE	; 254
    18e8:	f5 4c       	sbci	r31, 0xC5	; 197
    18ea:	62 e4       	ldi	r22, 0x42	; 66
    18ec:	7a e3       	ldi	r23, 0x3A	; 58
    18ee:	80 81       	ld	r24, Z
    18f0:	91 81       	ldd	r25, Z+1	; 0x01
    18f2:	1f dc       	rcall	.-1986   	; 0x1132 <PopulateObject>
    18f4:	00 e0       	ldi	r16, 0x00	; 0
}

//The game logic!
uint8_t ProcessInput(uint8_t *data){
    static object_model_t actObj1, actObj2;
    uint8_t elements = 0;
    18f6:	0a c5       	rjmp	.+2580   	; 0x230c <ProcessInput+0xa92>
    18f8:	e2 e4       	ldi	r30, 0x42	; 66
                --currDepth;
                PopulateObject(route[currDepth], &currObj);
            
            //No way out, print denied message of location
            } else {
                SetResponse(elements++, currObj.addrStr[OPEN_ACL_MSG], currObj.lenStr[OPEN_ACL_MSG], GAME);               
    18fa:	fa e3       	ldi	r31, 0x3A	; 58
    18fc:	42 a1       	ldd	r20, Z+34	; 0x22
    18fe:	53 a1       	ldd	r21, Z+35	; 0x23
    1900:	64 89       	ldd	r22, Z+20	; 0x14
    1902:	75 89       	ldd	r23, Z+21	; 0x15
    1904:	20 e0       	ldi	r18, 0x00	; 0
    1906:	80 e0       	ldi	r24, 0x00	; 0
    1908:	b1 db       	rcall	.-2206   	; 0x106c <SetResponse>
    190a:	01 e0       	ldi	r16, 0x01	; 1
    190c:	ff c4       	rjmp	.+2558   	; 0x230c <ProcessInput+0xa92>
    190e:	85 36       	cpi	r24, 0x65	; 101
            }   
        
        //Enter locations or Open objects    
        } else if ((data[0] == 'e')||(data[0] == 'o')) {
    1910:	19 f0       	breq	.+6      	; 0x1918 <ProcessInput+0x9e>
    1912:	8f 36       	cpi	r24, 0x6F	; 111
    1914:	09 f0       	breq	.+2      	; 0x1918 <ProcessInput+0x9e>
    1916:	bf c0       	rjmp	.+382    	; 0x1a96 <ProcessInput+0x21c>
    1918:	12 30       	cpi	r17, 0x02	; 2
                
            //Not possible, too many/little characters
            if (inputLen != 2){
    191a:	49 f0       	breq	.+18     	; 0x192e <ProcessInput+0xb4>
    191c:	21 e0       	ldi	r18, 0x01	; 1
                SetResponse(elements++, A_NOTPOSSIBLE, L_NOTPOSSIBLE, TEASER);
    191e:	4b e1       	ldi	r20, 0x1B	; 27
    1920:	50 e0       	ldi	r21, 0x00	; 0
    1922:	6e ea       	ldi	r22, 0xAE	; 174
    1924:	76 e7       	ldi	r23, 0x76	; 118
    1926:	80 e0       	ldi	r24, 0x00	; 0
    1928:	a1 db       	rcall	.-2238   	; 0x106c <SetResponse>
    192a:	01 e0       	ldi	r16, 0x01	; 1
    192c:	ef c4       	rjmp	.+2526   	; 0x230c <ProcessInput+0xa92>
    192e:	80 91 8f 38 	lds	r24, 0x388F	; 0x80388f <currDepth>
            } else {
                uint8_t canDo = 0;
                route[currDepth+1] = FindChild(route[currDepth], data[1], 0);
    1932:	90 e0       	ldi	r25, 0x00	; 0
    1934:	8c 01       	movw	r16, r24
    1936:	0f 5f       	subi	r16, 0xFF	; 255
    1938:	1f 4f       	sbci	r17, 0xFF	; 255
    193a:	88 0f       	add	r24, r24
    193c:	99 1f       	adc	r25, r25
    193e:	fc 01       	movw	r30, r24
    1940:	ee 5f       	subi	r30, 0xFE	; 254
    1942:	f5 4c       	sbci	r31, 0xC5	; 197
    1944:	40 e0       	ldi	r20, 0x00	; 0
    1946:	50 e0       	ldi	r21, 0x00	; 0
    1948:	69 81       	ldd	r22, Y+1	; 0x01
    194a:	80 81       	ld	r24, Z
    194c:	91 81       	ldd	r25, Z+1	; 0x01
    194e:	e9 dc       	rcall	.-1582   	; 0x1322 <FindChild>
    1950:	00 0f       	add	r16, r16
    1952:	11 1f       	adc	r17, r17
    1954:	f8 01       	movw	r30, r16
    1956:	ee 5f       	subi	r30, 0xFE	; 254
    1958:	f5 4c       	sbci	r31, 0xC5	; 197
    195a:	80 83       	st	Z, r24
    195c:	91 83       	std	Z+1, r25	; 0x01
    195e:	90 91 8f 38 	lds	r25, 0x388F	; 0x80388f <currDepth>
                    
                //Child found?
                if (route[currDepth+1]) {
    1962:	29 2f       	mov	r18, r25
    1964:	30 e0       	ldi	r19, 0x00	; 0
    1966:	f9 01       	movw	r30, r18
    1968:	31 96       	adiw	r30, 0x01	; 1
    196a:	ee 0f       	add	r30, r30
    196c:	ff 1f       	adc	r31, r31
    196e:	ee 5f       	subi	r30, 0xFE	; 254
    1970:	f5 4c       	sbci	r31, 0xC5	; 197
    1972:	40 81       	ld	r20, Z
    1974:	51 81       	ldd	r21, Z+1	; 0x01
    1976:	41 15       	cp	r20, r1
    1978:	51 05       	cpc	r21, r1
    197a:	31 f0       	breq	.+12     	; 0x1988 <ProcessInput+0x10e>
                    PopulateObject(route[currDepth+1], &actObj1);
    197c:	66 e0       	ldi	r22, 0x06	; 6
    197e:	79 e3       	ldi	r23, 0x39	; 57
    1980:	ca 01       	movw	r24, r20
    1982:	d7 db       	rcall	.-2130   	; 0x1132 <PopulateObject>
    1984:	81 e0       	ldi	r24, 0x01	; 1
                    canDo = 1;
    1986:	20 c0       	rjmp	.+64     	; 0x19c8 <ProcessInput+0x14e>
    1988:	99 23       	and	r25, r25
                //No child, maybe a step back, letter ok?
                } else if (currDepth) {
    198a:	d9 f0       	breq	.+54     	; 0x19c2 <ProcessInput+0x148>
    198c:	f9 01       	movw	r30, r18
                    if (CheckLetter(route[currDepth-1], data[1])) {
    198e:	31 97       	sbiw	r30, 0x01	; 1
    1990:	ee 0f       	add	r30, r30
    1992:	ff 1f       	adc	r31, r31
    1994:	ee 5f       	subi	r30, 0xFE	; 254
    1996:	f5 4c       	sbci	r31, 0xC5	; 197
    1998:	69 81       	ldd	r22, Y+1	; 0x01
    199a:	80 81       	ld	r24, Z
    199c:	91 81       	ldd	r25, Z+1	; 0x01
    199e:	66 dc       	rcall	.-1844   	; 0x126c <CheckLetter>
    19a0:	88 23       	and	r24, r24
    19a2:	89 f0       	breq	.+34     	; 0x19c6 <ProcessInput+0x14c>
    19a4:	e0 91 8f 38 	lds	r30, 0x388F	; 0x80388f <currDepth>
                        PopulateObject(route[currDepth-1], &actObj1);
    19a8:	f0 e0       	ldi	r31, 0x00	; 0
    19aa:	31 97       	sbiw	r30, 0x01	; 1
    19ac:	ee 0f       	add	r30, r30
    19ae:	ff 1f       	adc	r31, r31
    19b0:	ee 5f       	subi	r30, 0xFE	; 254
    19b2:	f5 4c       	sbci	r31, 0xC5	; 197
    19b4:	66 e0       	ldi	r22, 0x06	; 6
    19b6:	79 e3       	ldi	r23, 0x39	; 57
    19b8:	80 81       	ld	r24, Z
    19ba:	91 81       	ldd	r25, Z+1	; 0x01
    19bc:	ba db       	rcall	.-2188   	; 0x1132 <PopulateObject>
    19be:	81 e0       	ldi	r24, 0x01	; 1
                        canDo = 1; 
    19c0:	03 c0       	rjmp	.+6      	; 0x19c8 <ProcessInput+0x14e>
    19c2:	80 e0       	ldi	r24, 0x00	; 0
                
            //Not possible, too many/little characters
            if (inputLen != 2){
                SetResponse(elements++, A_NOTPOSSIBLE, L_NOTPOSSIBLE, TEASER);
            } else {
                uint8_t canDo = 0;
    19c4:	01 c0       	rjmp	.+2      	; 0x19c8 <ProcessInput+0x14e>
    19c6:	80 e0       	ldi	r24, 0x00	; 0
    19c8:	88 23       	and	r24, r24
                        canDo = 1; 
                    }
                }

                //The candidate is found! Let's check if the action is legit
                if (canDo) {
    19ca:	09 f4       	brne	.+2      	; 0x19ce <ProcessInput+0x154>
    19cc:	5b c0       	rjmp	.+182    	; 0x1a84 <ProcessInput+0x20a>
    19ce:	88 81       	ld	r24, Y
                    if ((data[0] == 'e') && ((actObj1.byteField[ACTION_MASK]&ENTER)==0)) {
    19d0:	85 36       	cpi	r24, 0x65	; 101
    19d2:	69 f4       	brne	.+26     	; 0x19ee <ProcessInput+0x174>
    19d4:	90 91 0e 39 	lds	r25, 0x390E	; 0x80390e <actObj1.3942+0x8>
    19d8:	90 fd       	sbrc	r25, 0
    19da:	09 c0       	rjmp	.+18     	; 0x19ee <ProcessInput+0x174>
                        SetResponse(elements++, A_CANTENTER, L_CANTENTER, TEASER);
    19dc:	21 e0       	ldi	r18, 0x01	; 1
    19de:	4e e1       	ldi	r20, 0x1E	; 30
    19e0:	50 e0       	ldi	r21, 0x00	; 0
    19e2:	6a ec       	ldi	r22, 0xCA	; 202
    19e4:	79 e7       	ldi	r23, 0x79	; 121
    19e6:	80 e0       	ldi	r24, 0x00	; 0
    19e8:	41 db       	rcall	.-2430   	; 0x106c <SetResponse>
    19ea:	01 e0       	ldi	r16, 0x01	; 1
    19ec:	8f c4       	rjmp	.+2334   	; 0x230c <ProcessInput+0xa92>
    19ee:	8f 36       	cpi	r24, 0x6F	; 111
                    } else if ((data[0] == 'o') && ((actObj1.byteField[ACTION_MASK]&OPEN)==0)) {
    19f0:	69 f4       	brne	.+26     	; 0x1a0c <ProcessInput+0x192>
    19f2:	80 91 0e 39 	lds	r24, 0x390E	; 0x80390e <actObj1.3942+0x8>
    19f6:	81 fd       	sbrc	r24, 1
                        SetResponse(elements++, A_CANTOPEN, L_CANTOPEN, TEASER);
    19f8:	09 c0       	rjmp	.+18     	; 0x1a0c <ProcessInput+0x192>
    19fa:	21 e0       	ldi	r18, 0x01	; 1
    19fc:	4b e1       	ldi	r20, 0x1B	; 27
    19fe:	50 e0       	ldi	r21, 0x00	; 0
    1a00:	6f ea       	ldi	r22, 0xAF	; 175
    1a02:	79 e7       	ldi	r23, 0x79	; 121
    1a04:	80 e0       	ldi	r24, 0x00	; 0
    1a06:	32 db       	rcall	.-2460   	; 0x106c <SetResponse>
    1a08:	01 e0       	ldi	r16, 0x01	; 1
    1a0a:	80 c4       	rjmp	.+2304   	; 0x230c <ProcessInput+0xa92>
                    
                    //Action legit, permission granted?
                    } else if (CheckState(actObj1.byteField[OPEN_ACL])) {
    1a0c:	80 91 0c 39 	lds	r24, 0x390C	; 0x80390c <actObj1.3942+0x6>
    1a10:	16 dc       	rcall	.-2004   	; 0x123e <CheckState>
    1a12:	88 23       	and	r24, r24
    1a14:	11 f1       	breq	.+68     	; 0x1a5a <ProcessInput+0x1e0>
    1a16:	80 91 8f 38 	lds	r24, 0x388F	; 0x80388f <currDepth>
                            
                        //Yes! Check if we must move forward or backwards.
                        if (route[currDepth+1]) ++currDepth; else --currDepth;
    1a1a:	e8 2f       	mov	r30, r24
    1a1c:	f0 e0       	ldi	r31, 0x00	; 0
    1a1e:	31 96       	adiw	r30, 0x01	; 1
    1a20:	ee 0f       	add	r30, r30
    1a22:	ff 1f       	adc	r31, r31
    1a24:	ee 5f       	subi	r30, 0xFE	; 254
    1a26:	f5 4c       	sbci	r31, 0xC5	; 197
    1a28:	20 81       	ld	r18, Z
    1a2a:	31 81       	ldd	r19, Z+1	; 0x01
    1a2c:	23 2b       	or	r18, r19
    1a2e:	21 f0       	breq	.+8      	; 0x1a38 <ProcessInput+0x1be>
    1a30:	8f 5f       	subi	r24, 0xFF	; 255
    1a32:	80 93 8f 38 	sts	0x388F, r24	; 0x80388f <currDepth>
    1a36:	03 c0       	rjmp	.+6      	; 0x1a3e <ProcessInput+0x1c4>
    1a38:	81 50       	subi	r24, 0x01	; 1
    1a3a:	80 93 8f 38 	sts	0x388F, r24	; 0x80388f <currDepth>
                        PopulateObject(route[currDepth], &currObj);
    1a3e:	e0 91 8f 38 	lds	r30, 0x388F	; 0x80388f <currDepth>
    1a42:	f0 e0       	ldi	r31, 0x00	; 0
    1a44:	ee 0f       	add	r30, r30
    1a46:	ff 1f       	adc	r31, r31
    1a48:	ee 5f       	subi	r30, 0xFE	; 254
    1a4a:	f5 4c       	sbci	r31, 0xC5	; 197
    1a4c:	62 e4       	ldi	r22, 0x42	; 66
    1a4e:	7a e3       	ldi	r23, 0x3A	; 58
    1a50:	80 81       	ld	r24, Z
    1a52:	91 81       	ldd	r25, Z+1	; 0x01
    1a54:	6e db       	rcall	.-2340   	; 0x1132 <PopulateObject>
    1a56:	00 e0       	ldi	r16, 0x00	; 0
}

//The game logic!
uint8_t ProcessInput(uint8_t *data){
    static object_model_t actObj1, actObj2;
    uint8_t elements = 0;
    1a58:	59 c4       	rjmp	.+2226   	; 0x230c <ProcessInput+0xa92>
    1a5a:	e0 91 8f 38 	lds	r30, 0x388F	; 0x80388f <currDepth>
                        if (route[currDepth+1]) ++currDepth; else --currDepth;
                        PopulateObject(route[currDepth], &currObj);
                                                  
                    //Not granted!
                    } else {
                        route[currDepth+1] = 0;
    1a5e:	f0 e0       	ldi	r31, 0x00	; 0
    1a60:	31 96       	adiw	r30, 0x01	; 1
    1a62:	ee 0f       	add	r30, r30
    1a64:	ff 1f       	adc	r31, r31
    1a66:	ee 5f       	subi	r30, 0xFE	; 254
    1a68:	f5 4c       	sbci	r31, 0xC5	; 197
    1a6a:	10 82       	st	Z, r1
    1a6c:	11 82       	std	Z+1, r1	; 0x01
                        SetResponse(elements++, actObj1.addrStr[OPEN_ACL_MSG], actObj1.lenStr[OPEN_ACL_MSG], GAME);                
    1a6e:	e6 e0       	ldi	r30, 0x06	; 6
    1a70:	f9 e3       	ldi	r31, 0x39	; 57
    1a72:	42 a1       	ldd	r20, Z+34	; 0x22
    1a74:	53 a1       	ldd	r21, Z+35	; 0x23
    1a76:	64 89       	ldd	r22, Z+20	; 0x14
    1a78:	75 89       	ldd	r23, Z+21	; 0x15
    1a7a:	20 e0       	ldi	r18, 0x00	; 0
    1a7c:	80 e0       	ldi	r24, 0x00	; 0
    1a7e:	f6 da       	rcall	.-2580   	; 0x106c <SetResponse>
    1a80:	01 e0       	ldi	r16, 0x01	; 1
    1a82:	44 c4       	rjmp	.+2184   	; 0x230c <ProcessInput+0xa92>
                    }

                //No candidate
                } else {
                    SetResponse(elements++, A_DONTSEE, L_DONTSEE, TEASER);                
    1a84:	21 e0       	ldi	r18, 0x01	; 1
    1a86:	4a e1       	ldi	r20, 0x1A	; 26
    1a88:	50 e0       	ldi	r21, 0x00	; 0
    1a8a:	6e ef       	ldi	r22, 0xFE	; 254
    1a8c:	79 e7       	ldi	r23, 0x79	; 121
    1a8e:	80 e0       	ldi	r24, 0x00	; 0
    1a90:	ed da       	rcall	.-2598   	; 0x106c <SetResponse>
    1a92:	01 e0       	ldi	r16, 0x01	; 1
    1a94:	3b c4       	rjmp	.+2166   	; 0x230c <ProcessInput+0xa92>
                }
            }

        //Look around or at objects
        } else if (data[0] == 'l') {
    1a96:	8c 36       	cpi	r24, 0x6C	; 108
    1a98:	09 f0       	breq	.+2      	; 0x1a9c <ProcessInput+0x222>
    1a9a:	05 c1       	rjmp	.+522    	; 0x1ca6 <ProcessInput+0x42c>
            if (inputLen == 1) {
    1a9c:	11 30       	cpi	r17, 0x01	; 1
    1a9e:	09 f0       	breq	.+2      	; 0x1aa2 <ProcessInput+0x228>

                //Show info about this area first
                SetResponse(elements++, currObj.addrStr[DESC], currObj.lenStr[DESC],GAME);
    1aa0:	9c c0       	rjmp	.+312    	; 0x1bda <ProcessInput+0x360>
    1aa2:	e2 e4       	ldi	r30, 0x42	; 66
    1aa4:	fa e3       	ldi	r31, 0x3A	; 58
    1aa6:	44 8d       	ldd	r20, Z+28	; 0x1c
    1aa8:	55 8d       	ldd	r21, Z+29	; 0x1d
    1aaa:	66 85       	ldd	r22, Z+14	; 0x0e
    1aac:	77 85       	ldd	r23, Z+15	; 0x0f
    1aae:	20 e0       	ldi	r18, 0x00	; 0
    1ab0:	80 e0       	ldi	r24, 0x00	; 0
                SetResponse(elements++, A_LF, 1, TEASER);
    1ab2:	dc da       	rcall	.-2632   	; 0x106c <SetResponse>
    1ab4:	21 e0       	ldi	r18, 0x01	; 1
    1ab6:	41 e0       	ldi	r20, 0x01	; 1
    1ab8:	50 e0       	ldi	r21, 0x00	; 0
    1aba:	66 e8       	ldi	r22, 0x86	; 134
    1abc:	7a e7       	ldi	r23, 0x7A	; 122
    1abe:	81 e0       	ldi	r24, 0x01	; 1
    1ac0:	d5 da       	rcall	.-2646   	; 0x106c <SetResponse>
                SetResponse(elements++, A_LOOK, L_LOOK, TEASER);
    1ac2:	21 e0       	ldi	r18, 0x01	; 1
    1ac4:	46 e1       	ldi	r20, 0x16	; 22
    1ac6:	50 e0       	ldi	r21, 0x00	; 0
    1ac8:	68 e1       	ldi	r22, 0x18	; 24
    1aca:	7a e7       	ldi	r23, 0x7A	; 122
    1acc:	82 e0       	ldi	r24, 0x02	; 2
    1ace:	ce da       	rcall	.-2660   	; 0x106c <SetResponse>
    1ad0:	e0 91 8f 38 	lds	r30, 0x388F	; 0x80388f <currDepth>
                //SetResponse(elements++, A_SPACE, L_SPACE, TEASER);

                //Check the visible children first
                route[currDepth+1] = 0;
    1ad4:	f0 e0       	ldi	r31, 0x00	; 0
    1ad6:	31 96       	adiw	r30, 0x01	; 1
    1ad8:	ee 0f       	add	r30, r30
    1ada:	ff 1f       	adc	r31, r31
    1adc:	ee 5f       	subi	r30, 0xFE	; 254
    1ade:	f5 4c       	sbci	r31, 0xC5	; 197
    1ae0:	10 82       	st	Z, r1
    1ae2:	11 82       	std	Z+1, r1	; 0x01
    1ae4:	0f 2e       	mov	r0, r31
            if (inputLen == 1) {

                //Show info about this area first
                SetResponse(elements++, currObj.addrStr[DESC], currObj.lenStr[DESC],GAME);
                SetResponse(elements++, A_LF, 1, TEASER);
                SetResponse(elements++, A_LOOK, L_LOOK, TEASER);
    1ae6:	f3 e0       	ldi	r31, 0x03	; 3
    1ae8:	df 2e       	mov	r13, r31
    1aea:	f0 2d       	mov	r31, r0
    1aec:	80 91 8f 38 	lds	r24, 0x388F	; 0x80388f <currDepth>
                //SetResponse(elements++, A_SPACE, L_SPACE, TEASER);

                //Check the visible children first
                route[currDepth+1] = 0;
                do{
                    route[currDepth+1] = FindChild(route[currDepth], 0, route[currDepth+1]);
    1af0:	90 e0       	ldi	r25, 0x00	; 0
    1af2:	7c 01       	movw	r14, r24
    1af4:	2f ef       	ldi	r18, 0xFF	; 255
    1af6:	e2 1a       	sub	r14, r18
    1af8:	f2 0a       	sbc	r15, r18
    1afa:	97 01       	movw	r18, r14
    1afc:	22 0f       	add	r18, r18
    1afe:	33 1f       	adc	r19, r19
    1b00:	89 01       	movw	r16, r18
    1b02:	0e 5f       	subi	r16, 0xFE	; 254
    1b04:	15 4c       	sbci	r17, 0xC5	; 197
    1b06:	f8 01       	movw	r30, r16
    1b08:	40 81       	ld	r20, Z
    1b0a:	51 81       	ldd	r21, Z+1	; 0x01
    1b0c:	88 0f       	add	r24, r24
    1b0e:	99 1f       	adc	r25, r25
    1b10:	fc 01       	movw	r30, r24
    1b12:	ee 5f       	subi	r30, 0xFE	; 254
    1b14:	f5 4c       	sbci	r31, 0xC5	; 197
    1b16:	60 e0       	ldi	r22, 0x00	; 0
    1b18:	80 81       	ld	r24, Z
    1b1a:	91 81       	ldd	r25, Z+1	; 0x01
    1b1c:	02 dc       	rcall	.-2044   	; 0x1322 <FindChild>
    1b1e:	f8 01       	movw	r30, r16
    1b20:	80 83       	st	Z, r24
    1b22:	91 83       	std	Z+1, r25	; 0x01
    1b24:	e0 91 8f 38 	lds	r30, 0x388F	; 0x80388f <currDepth>
                    if (route[currDepth+1]) {
    1b28:	f0 e0       	ldi	r31, 0x00	; 0
    1b2a:	31 96       	adiw	r30, 0x01	; 1
    1b2c:	ee 0f       	add	r30, r30
    1b2e:	ff 1f       	adc	r31, r31
    1b30:	ee 5f       	subi	r30, 0xFE	; 254
    1b32:	f5 4c       	sbci	r31, 0xC5	; 197
    1b34:	80 81       	ld	r24, Z
    1b36:	91 81       	ldd	r25, Z+1	; 0x01
    1b38:	00 97       	sbiw	r24, 0x00	; 0
    1b3a:	21 f1       	breq	.+72     	; 0x1b84 <ProcessInput+0x30a>
                        if ((route[currDepth+1] != inventory[0])&&(route[currDepth+1] != inventory[1])) {
    1b3c:	20 91 96 38 	lds	r18, 0x3896	; 0x803896 <inventory>
    1b40:	30 91 97 38 	lds	r19, 0x3897	; 0x803897 <inventory+0x1>
    1b44:	82 17       	cp	r24, r18
    1b46:	93 07       	cpc	r25, r19
    1b48:	e9 f0       	breq	.+58     	; 0x1b84 <ProcessInput+0x30a>
    1b4a:	20 91 98 38 	lds	r18, 0x3898	; 0x803898 <inventory+0x2>
    1b4e:	30 91 99 38 	lds	r19, 0x3899	; 0x803899 <inventory+0x3>
    1b52:	82 17       	cp	r24, r18
    1b54:	93 07       	cpc	r25, r19
                            PopulateObject(route[currDepth+1], &actObj1);
    1b56:	b1 f0       	breq	.+44     	; 0x1b84 <ProcessInput+0x30a>
    1b58:	66 e0       	ldi	r22, 0x06	; 6
    1b5a:	79 e3       	ldi	r23, 0x39	; 57
                            SetResponse(elements++, actObj1.addrStr[NAME], actObj1.lenStr[NAME],GAME);
    1b5c:	ea da       	rcall	.-2604   	; 0x1132 <PopulateObject>
    1b5e:	e6 e0       	ldi	r30, 0x06	; 6
    1b60:	f9 e3       	ldi	r31, 0x39	; 57
    1b62:	42 8d       	ldd	r20, Z+26	; 0x1a
    1b64:	53 8d       	ldd	r21, Z+27	; 0x1b
    1b66:	64 85       	ldd	r22, Z+12	; 0x0c
    1b68:	75 85       	ldd	r23, Z+13	; 0x0d
    1b6a:	20 e0       	ldi	r18, 0x00	; 0
    1b6c:	8d 2d       	mov	r24, r13
    1b6e:	7e da       	rcall	.-2820   	; 0x106c <SetResponse>
                            SetResponse(elements++, A_COMMA, L_COMMA, TEASER);
    1b70:	21 e0       	ldi	r18, 0x01	; 1
    1b72:	42 e0       	ldi	r20, 0x02	; 2
    1b74:	50 e0       	ldi	r21, 0x00	; 0
    1b76:	64 e8       	ldi	r22, 0x84	; 132
    1b78:	7a e7       	ldi	r23, 0x7A	; 122
    1b7a:	81 e0       	ldi	r24, 0x01	; 1
    1b7c:	8d 0d       	add	r24, r13
    1b7e:	d3 94       	inc	r13
    1b80:	d3 94       	inc	r13
    1b82:	74 da       	rcall	.-2840   	; 0x106c <SetResponse>
    1b84:	20 91 8f 38 	lds	r18, 0x388F	; 0x80388f <currDepth>
                            //SetResponse(elements++, A_SPACE, L_SPACE, TEASER);
                        }
                    }
                }while (route[currDepth+1]);
    1b88:	82 2f       	mov	r24, r18
    1b8a:	90 e0       	ldi	r25, 0x00	; 0
    1b8c:	fc 01       	movw	r30, r24
    1b8e:	31 96       	adiw	r30, 0x01	; 1
    1b90:	ee 0f       	add	r30, r30
    1b92:	ff 1f       	adc	r31, r31
    1b94:	ee 5f       	subi	r30, 0xFE	; 254
    1b96:	f5 4c       	sbci	r31, 0xC5	; 197
    1b98:	40 81       	ld	r20, Z
    1b9a:	51 81       	ldd	r21, Z+1	; 0x01
    1b9c:	45 2b       	or	r20, r21
    1b9e:	09 f0       	breq	.+2      	; 0x1ba2 <ProcessInput+0x328>
    1ba0:	a5 cf       	rjmp	.-182    	; 0x1aec <ProcessInput+0x272>

                //Look back if not on level 0
                if (currDepth) {
    1ba2:	22 23       	and	r18, r18
    1ba4:	b9 f0       	breq	.+46     	; 0x1bd4 <ProcessInput+0x35a>
                    PopulateObject(route[currDepth-1], &actObj1);
    1ba6:	fc 01       	movw	r30, r24
    1ba8:	31 97       	sbiw	r30, 0x01	; 1
    1baa:	ee 0f       	add	r30, r30
    1bac:	ff 1f       	adc	r31, r31
    1bae:	ee 5f       	subi	r30, 0xFE	; 254
    1bb0:	f5 4c       	sbci	r31, 0xC5	; 197
    1bb2:	66 e0       	ldi	r22, 0x06	; 6
    1bb4:	79 e3       	ldi	r23, 0x39	; 57
    1bb6:	80 81       	ld	r24, Z
    1bb8:	91 81       	ldd	r25, Z+1	; 0x01
    1bba:	bb da       	rcall	.-2698   	; 0x1132 <PopulateObject>
    1bbc:	01 e0       	ldi	r16, 0x01	; 1
                    SetResponse(elements++, actObj1.addrStr[NAME], actObj1.lenStr[NAME],GAME);
    1bbe:	0d 0d       	add	r16, r13
    1bc0:	e6 e0       	ldi	r30, 0x06	; 6
    1bc2:	f9 e3       	ldi	r31, 0x39	; 57
    1bc4:	42 8d       	ldd	r20, Z+26	; 0x1a
    1bc6:	53 8d       	ldd	r21, Z+27	; 0x1b
    1bc8:	64 85       	ldd	r22, Z+12	; 0x0c
    1bca:	75 85       	ldd	r23, Z+13	; 0x0d
    1bcc:	20 e0       	ldi	r18, 0x00	; 0
    1bce:	8d 2d       	mov	r24, r13
    1bd0:	4d da       	rcall	.-2918   	; 0x106c <SetResponse>
    1bd2:	9c c3       	rjmp	.+1848   	; 0x230c <ProcessInput+0xa92>
    1bd4:	0e ef       	ldi	r16, 0xFE	; 254
                } else elements-=2;
    1bd6:	0d 0d       	add	r16, r13
    1bd8:	99 c3       	rjmp	.+1842   	; 0x230c <ProcessInput+0xa92>
    1bda:	80 91 8f 38 	lds	r24, 0x388F	; 0x80388f <currDepth>

            } else {
                route[currDepth+1] = FindChild(route[currDepth], data[1], 0);
    1bde:	90 e0       	ldi	r25, 0x00	; 0
    1be0:	8c 01       	movw	r16, r24
    1be2:	0f 5f       	subi	r16, 0xFF	; 255
    1be4:	1f 4f       	sbci	r17, 0xFF	; 255
    1be6:	88 0f       	add	r24, r24
    1be8:	99 1f       	adc	r25, r25
    1bea:	fc 01       	movw	r30, r24
    1bec:	ee 5f       	subi	r30, 0xFE	; 254
    1bee:	f5 4c       	sbci	r31, 0xC5	; 197
    1bf0:	40 e0       	ldi	r20, 0x00	; 0
    1bf2:	50 e0       	ldi	r21, 0x00	; 0
    1bf4:	69 81       	ldd	r22, Y+1	; 0x01
    1bf6:	80 81       	ld	r24, Z
    1bf8:	91 81       	ldd	r25, Z+1	; 0x01
    1bfa:	93 db       	rcall	.-2266   	; 0x1322 <FindChild>
    1bfc:	00 0f       	add	r16, r16
    1bfe:	11 1f       	adc	r17, r17
    1c00:	f8 01       	movw	r30, r16
    1c02:	ee 5f       	subi	r30, 0xFE	; 254
    1c04:	f5 4c       	sbci	r31, 0xC5	; 197
    1c06:	80 83       	st	Z, r24
    1c08:	91 83       	std	Z+1, r25	; 0x01
    1c0a:	90 91 8f 38 	lds	r25, 0x388F	; 0x80388f <currDepth>
                if (route[currDepth+1]) {
    1c0e:	29 2f       	mov	r18, r25
    1c10:	30 e0       	ldi	r19, 0x00	; 0
    1c12:	f9 01       	movw	r30, r18
    1c14:	31 96       	adiw	r30, 0x01	; 1
    1c16:	ee 0f       	add	r30, r30
    1c18:	ff 1f       	adc	r31, r31
    1c1a:	ee 5f       	subi	r30, 0xFE	; 254
    1c1c:	f5 4c       	sbci	r31, 0xC5	; 197
    1c1e:	40 81       	ld	r20, Z
    1c20:	51 81       	ldd	r21, Z+1	; 0x01
    1c22:	41 15       	cp	r20, r1
    1c24:	51 05       	cpc	r21, r1
    1c26:	79 f0       	breq	.+30     	; 0x1c46 <ProcessInput+0x3cc>
                    PopulateObject(route[currDepth+1], &actObj1);
    1c28:	66 e0       	ldi	r22, 0x06	; 6
    1c2a:	79 e3       	ldi	r23, 0x39	; 57
    1c2c:	ca 01       	movw	r24, r20
    1c2e:	81 da       	rcall	.-2814   	; 0x1132 <PopulateObject>
    1c30:	e6 e0       	ldi	r30, 0x06	; 6
                    SetResponse(elements++, actObj1.addrStr[DESC], actObj1.lenStr[DESC],GAME);   
    1c32:	f9 e3       	ldi	r31, 0x39	; 57
    1c34:	44 8d       	ldd	r20, Z+28	; 0x1c
    1c36:	55 8d       	ldd	r21, Z+29	; 0x1d
    1c38:	66 85       	ldd	r22, Z+14	; 0x0e
    1c3a:	77 85       	ldd	r23, Z+15	; 0x0f
    1c3c:	20 e0       	ldi	r18, 0x00	; 0
    1c3e:	80 e0       	ldi	r24, 0x00	; 0
    1c40:	15 da       	rcall	.-3030   	; 0x106c <SetResponse>
    1c42:	01 e0       	ldi	r16, 0x01	; 1
    1c44:	63 c3       	rjmp	.+1734   	; 0x230c <ProcessInput+0xa92>
    1c46:	99 23       	and	r25, r25
                } else if (currDepth) {
    1c48:	29 f1       	breq	.+74     	; 0x1c94 <ProcessInput+0x41a>
    1c4a:	f9 01       	movw	r30, r18
                    if (CheckLetter(route[currDepth-1], data[1])) {
    1c4c:	31 97       	sbiw	r30, 0x01	; 1
    1c4e:	ee 0f       	add	r30, r30
    1c50:	ff 1f       	adc	r31, r31
    1c52:	ee 5f       	subi	r30, 0xFE	; 254
    1c54:	f5 4c       	sbci	r31, 0xC5	; 197
    1c56:	69 81       	ldd	r22, Y+1	; 0x01
    1c58:	80 81       	ld	r24, Z
    1c5a:	91 81       	ldd	r25, Z+1	; 0x01
    1c5c:	07 db       	rcall	.-2546   	; 0x126c <CheckLetter>
    1c5e:	88 23       	and	r24, r24
    1c60:	09 f4       	brne	.+2      	; 0x1c64 <ProcessInput+0x3ea>
    1c62:	4b c3       	rjmp	.+1686   	; 0x22fa <ProcessInput+0xa80>
    1c64:	e0 91 8f 38 	lds	r30, 0x388F	; 0x80388f <currDepth>
                        PopulateObject(route[currDepth-1], &actObj1);
    1c68:	f0 e0       	ldi	r31, 0x00	; 0
    1c6a:	31 97       	sbiw	r30, 0x01	; 1
    1c6c:	ee 0f       	add	r30, r30
    1c6e:	ff 1f       	adc	r31, r31
    1c70:	ee 5f       	subi	r30, 0xFE	; 254
    1c72:	f5 4c       	sbci	r31, 0xC5	; 197
    1c74:	66 e0       	ldi	r22, 0x06	; 6
    1c76:	79 e3       	ldi	r23, 0x39	; 57
    1c78:	80 81       	ld	r24, Z
    1c7a:	91 81       	ldd	r25, Z+1	; 0x01
    1c7c:	5a da       	rcall	.-2892   	; 0x1132 <PopulateObject>
    1c7e:	e6 e0       	ldi	r30, 0x06	; 6
                        SetResponse(elements++, actObj1.addrStr[DESC], actObj1.lenStr[DESC],GAME);
    1c80:	f9 e3       	ldi	r31, 0x39	; 57
    1c82:	44 8d       	ldd	r20, Z+28	; 0x1c
    1c84:	55 8d       	ldd	r21, Z+29	; 0x1d
    1c86:	66 85       	ldd	r22, Z+14	; 0x0e
    1c88:	77 85       	ldd	r23, Z+15	; 0x0f
    1c8a:	20 e0       	ldi	r18, 0x00	; 0
    1c8c:	80 e0       	ldi	r24, 0x00	; 0
    1c8e:	ee d9       	rcall	.-3108   	; 0x106c <SetResponse>
    1c90:	01 e0       	ldi	r16, 0x01	; 1
    1c92:	3c c3       	rjmp	.+1656   	; 0x230c <ProcessInput+0xa92>
    1c94:	21 e0       	ldi	r18, 0x01	; 1
                    }
                } else {
                    SetResponse(elements++, A_DONTSEE, L_DONTSEE, TEASER);
    1c96:	4a e1       	ldi	r20, 0x1A	; 26
    1c98:	50 e0       	ldi	r21, 0x00	; 0
    1c9a:	6e ef       	ldi	r22, 0xFE	; 254
    1c9c:	79 e7       	ldi	r23, 0x79	; 121
    1c9e:	80 e0       	ldi	r24, 0x00	; 0
    1ca0:	e5 d9       	rcall	.-3126   	; 0x106c <SetResponse>
    1ca2:	01 e0       	ldi	r16, 0x01	; 1
    1ca4:	33 c3       	rjmp	.+1638   	; 0x230c <ProcessInput+0xa92>
    1ca6:	80 37       	cpi	r24, 0x70	; 112
                }
            }
        
        //Pick up an object
        } else if (data[0] == 'p') {
    1ca8:	09 f0       	breq	.+2      	; 0x1cac <ProcessInput+0x432>
    1caa:	bd c0       	rjmp	.+378    	; 0x1e26 <ProcessInput+0x5ac>
    1cac:	80 91 96 38 	lds	r24, 0x3896	; 0x803896 <inventory>
            if (inventory[0]&&inventory[1]) {
    1cb0:	90 91 97 38 	lds	r25, 0x3897	; 0x803897 <inventory+0x1>
    1cb4:	89 2b       	or	r24, r25
    1cb6:	79 f0       	breq	.+30     	; 0x1cd6 <ProcessInput+0x45c>
    1cb8:	80 91 98 38 	lds	r24, 0x3898	; 0x803898 <inventory+0x2>
    1cbc:	90 91 99 38 	lds	r25, 0x3899	; 0x803899 <inventory+0x3>
    1cc0:	89 2b       	or	r24, r25
    1cc2:	49 f0       	breq	.+18     	; 0x1cd6 <ProcessInput+0x45c>
    1cc4:	21 e0       	ldi	r18, 0x01	; 1
                SetResponse(elements++, A_CARRYTWO, L_CARRYTWO, TEASER);
    1cc6:	48 e5       	ldi	r20, 0x58	; 88
    1cc8:	50 e0       	ldi	r21, 0x00	; 0
    1cca:	60 e7       	ldi	r22, 0x70	; 112
    1ccc:	78 e7       	ldi	r23, 0x78	; 120
    1cce:	80 e0       	ldi	r24, 0x00	; 0
    1cd0:	cd d9       	rcall	.-3174   	; 0x106c <SetResponse>
    1cd2:	01 e0       	ldi	r16, 0x01	; 1
    1cd4:	1b c3       	rjmp	.+1590   	; 0x230c <ProcessInput+0xa92>
    1cd6:	12 30       	cpi	r17, 0x02	; 2
            } else if (inputLen != 2) {
    1cd8:	49 f0       	breq	.+18     	; 0x1cec <ProcessInput+0x472>
    1cda:	21 e0       	ldi	r18, 0x01	; 1
                SetResponse(elements++, A_NOTPOSSIBLE, L_NOTPOSSIBLE, TEASER);
    1cdc:	4b e1       	ldi	r20, 0x1B	; 27
    1cde:	50 e0       	ldi	r21, 0x00	; 0
    1ce0:	6e ea       	ldi	r22, 0xAE	; 174
    1ce2:	76 e7       	ldi	r23, 0x76	; 118
    1ce4:	80 e0       	ldi	r24, 0x00	; 0
    1ce6:	c2 d9       	rcall	.-3196   	; 0x106c <SetResponse>
    1ce8:	01 e0       	ldi	r16, 0x01	; 1
    1cea:	10 c3       	rjmp	.+1568   	; 0x230c <ProcessInput+0xa92>
    1cec:	80 91 8f 38 	lds	r24, 0x388F	; 0x80388f <currDepth>
            } else {
                route[currDepth+1] = FindChild(route[currDepth], data[1], route[currDepth+1]);
    1cf0:	90 e0       	ldi	r25, 0x00	; 0
    1cf2:	8c 01       	movw	r16, r24
    1cf4:	0f 5f       	subi	r16, 0xFF	; 255
    1cf6:	1f 4f       	sbci	r17, 0xFF	; 255
    1cf8:	00 0f       	add	r16, r16
    1cfa:	11 1f       	adc	r17, r17
    1cfc:	0e 5f       	subi	r16, 0xFE	; 254
    1cfe:	15 4c       	sbci	r17, 0xC5	; 197
    1d00:	f8 01       	movw	r30, r16
    1d02:	40 81       	ld	r20, Z
    1d04:	51 81       	ldd	r21, Z+1	; 0x01
    1d06:	88 0f       	add	r24, r24
    1d08:	99 1f       	adc	r25, r25
    1d0a:	fc 01       	movw	r30, r24
    1d0c:	ee 5f       	subi	r30, 0xFE	; 254
    1d0e:	f5 4c       	sbci	r31, 0xC5	; 197
    1d10:	69 81       	ldd	r22, Y+1	; 0x01
    1d12:	80 81       	ld	r24, Z
    1d14:	91 81       	ldd	r25, Z+1	; 0x01
    1d16:	05 db       	rcall	.-2550   	; 0x1322 <FindChild>
    1d18:	f8 01       	movw	r30, r16
    1d1a:	80 83       	st	Z, r24
    1d1c:	91 83       	std	Z+1, r25	; 0x01
    1d1e:	e0 91 8f 38 	lds	r30, 0x388F	; 0x80388f <currDepth>
                if (route[currDepth+1]) {
    1d22:	f0 e0       	ldi	r31, 0x00	; 0
    1d24:	31 96       	adiw	r30, 0x01	; 1
    1d26:	ee 0f       	add	r30, r30
    1d28:	ff 1f       	adc	r31, r31
    1d2a:	ee 5f       	subi	r30, 0xFE	; 254
    1d2c:	f5 4c       	sbci	r31, 0xC5	; 197
    1d2e:	80 81       	ld	r24, Z
    1d30:	91 81       	ldd	r25, Z+1	; 0x01
    1d32:	00 97       	sbiw	r24, 0x00	; 0
    1d34:	09 f4       	brne	.+2      	; 0x1d38 <ProcessInput+0x4be>
    1d36:	6e c0       	rjmp	.+220    	; 0x1e14 <ProcessInput+0x59a>
    1d38:	20 91 96 38 	lds	r18, 0x3896	; 0x803896 <inventory>
                    if ((route[currDepth+1] == inventory[0])||(route[currDepth+1] == inventory[1])) {
    1d3c:	30 91 97 38 	lds	r19, 0x3897	; 0x803897 <inventory+0x1>
    1d40:	82 17       	cp	r24, r18
    1d42:	93 07       	cpc	r25, r19
    1d44:	39 f0       	breq	.+14     	; 0x1d54 <ProcessInput+0x4da>
    1d46:	20 91 98 38 	lds	r18, 0x3898	; 0x803898 <inventory+0x2>
    1d4a:	30 91 99 38 	lds	r19, 0x3899	; 0x803899 <inventory+0x3>
    1d4e:	82 17       	cp	r24, r18
    1d50:	93 07       	cpc	r25, r19
    1d52:	99 f4       	brne	.+38     	; 0x1d7a <ProcessInput+0x500>
    1d54:	21 e0       	ldi	r18, 0x01	; 1
                        SetResponse(elements++, A_ALREADYCARRYING, L_ALREADYCARRYING, TEASER);
    1d56:	45 e2       	ldi	r20, 0x25	; 37
    1d58:	50 e0       	ldi	r21, 0x00	; 0
    1d5a:	6b e4       	ldi	r22, 0x4B	; 75
    1d5c:	78 e7       	ldi	r23, 0x78	; 120
    1d5e:	80 e0       	ldi	r24, 0x00	; 0
    1d60:	85 d9       	rcall	.-3318   	; 0x106c <SetResponse>
    1d62:	e0 91 8f 38 	lds	r30, 0x388F	; 0x80388f <currDepth>
                        route[currDepth+1] = 0;
    1d66:	f0 e0       	ldi	r31, 0x00	; 0
    1d68:	31 96       	adiw	r30, 0x01	; 1
    1d6a:	ee 0f       	add	r30, r30
    1d6c:	ff 1f       	adc	r31, r31
    1d6e:	ee 5f       	subi	r30, 0xFE	; 254
    1d70:	f5 4c       	sbci	r31, 0xC5	; 197
    1d72:	10 82       	st	Z, r1
    1d74:	11 82       	std	Z+1, r1	; 0x01
    1d76:	01 e0       	ldi	r16, 0x01	; 1
    1d78:	c9 c2       	rjmp	.+1426   	; 0x230c <ProcessInput+0xa92>
                SetResponse(elements++, A_NOTPOSSIBLE, L_NOTPOSSIBLE, TEASER);
            } else {
                route[currDepth+1] = FindChild(route[currDepth], data[1], route[currDepth+1]);
                if (route[currDepth+1]) {
                    if ((route[currDepth+1] == inventory[0])||(route[currDepth+1] == inventory[1])) {
                        SetResponse(elements++, A_ALREADYCARRYING, L_ALREADYCARRYING, TEASER);
    1d7a:	66 e0       	ldi	r22, 0x06	; 6
                        route[currDepth+1] = 0;
    1d7c:	79 e3       	ldi	r23, 0x39	; 57
                    } else {
                        //Put item in the inventory if possible
                        PopulateObject(route[currDepth+1], &actObj1);                      
    1d7e:	d9 d9       	rcall	.-3150   	; 0x1132 <PopulateObject>
    1d80:	80 91 11 39 	lds	r24, 0x3911	; 0x803911 <actObj1.3942+0xb>
    1d84:	88 23       	and	r24, r24
                        if (actObj1.byteField[ITEM_NR]) {
    1d86:	09 f4       	brne	.+2      	; 0x1d8a <ProcessInput+0x510>
    1d88:	3c c0       	rjmp	.+120    	; 0x1e02 <ProcessInput+0x588>
    1d8a:	80 91 96 38 	lds	r24, 0x3896	; 0x803896 <inventory>
    1d8e:	90 91 97 38 	lds	r25, 0x3897	; 0x803897 <inventory+0x1>
                            if (inventory[0]) {
    1d92:	89 2b       	or	r24, r25
    1d94:	79 f0       	breq	.+30     	; 0x1db4 <ProcessInput+0x53a>
    1d96:	e0 91 8f 38 	lds	r30, 0x388F	; 0x80388f <currDepth>
                                inventory[1] = route[currDepth+1];
    1d9a:	f0 e0       	ldi	r31, 0x00	; 0
    1d9c:	31 96       	adiw	r30, 0x01	; 1
    1d9e:	ee 0f       	add	r30, r30
    1da0:	ff 1f       	adc	r31, r31
    1da2:	ee 5f       	subi	r30, 0xFE	; 254
    1da4:	f5 4c       	sbci	r31, 0xC5	; 197
    1da6:	80 81       	ld	r24, Z
    1da8:	91 81       	ldd	r25, Z+1	; 0x01
    1daa:	80 93 98 38 	sts	0x3898, r24	; 0x803898 <inventory+0x2>
    1dae:	90 93 99 38 	sts	0x3899, r25	; 0x803899 <inventory+0x3>
    1db2:	0e c0       	rjmp	.+28     	; 0x1dd0 <ProcessInput+0x556>
                            } else {
                                inventory[0] = route[currDepth+1];
    1db4:	e0 91 8f 38 	lds	r30, 0x388F	; 0x80388f <currDepth>
    1db8:	f0 e0       	ldi	r31, 0x00	; 0
    1dba:	31 96       	adiw	r30, 0x01	; 1
    1dbc:	ee 0f       	add	r30, r30
    1dbe:	ff 1f       	adc	r31, r31
    1dc0:	ee 5f       	subi	r30, 0xFE	; 254
    1dc2:	f5 4c       	sbci	r31, 0xC5	; 197
    1dc4:	80 81       	ld	r24, Z
    1dc6:	91 81       	ldd	r25, Z+1	; 0x01
    1dc8:	80 93 96 38 	sts	0x3896, r24	; 0x803896 <inventory>
    1dcc:	90 93 97 38 	sts	0x3897, r25	; 0x803897 <inventory+0x1>
                            }
                            SetResponse(elements++, A_NOWCARRING, L_NOWCARRING, TEASER);
    1dd0:	21 e0       	ldi	r18, 0x01	; 1
    1dd2:	46 e1       	ldi	r20, 0x16	; 22
    1dd4:	50 e0       	ldi	r21, 0x00	; 0
    1dd6:	65 e3       	ldi	r22, 0x35	; 53
    1dd8:	78 e7       	ldi	r23, 0x78	; 120
    1dda:	80 e0       	ldi	r24, 0x00	; 0
                            SetResponse(elements++, A_SPACE, L_SPACE, TEASER);
    1ddc:	47 d9       	rcall	.-3442   	; 0x106c <SetResponse>
    1dde:	21 e0       	ldi	r18, 0x01	; 1
    1de0:	41 e0       	ldi	r20, 0x01	; 1
    1de2:	50 e0       	ldi	r21, 0x00	; 0
    1de4:	6a e8       	ldi	r22, 0x8A	; 138
    1de6:	7a e7       	ldi	r23, 0x7A	; 122
    1de8:	81 e0       	ldi	r24, 0x01	; 1
    1dea:	40 d9       	rcall	.-3456   	; 0x106c <SetResponse>
                            SetResponse(elements++, actObj1.addrStr[NAME], actObj1.lenStr[NAME], GAME);
    1dec:	e6 e0       	ldi	r30, 0x06	; 6
    1dee:	f9 e3       	ldi	r31, 0x39	; 57
    1df0:	42 8d       	ldd	r20, Z+26	; 0x1a
    1df2:	53 8d       	ldd	r21, Z+27	; 0x1b
    1df4:	64 85       	ldd	r22, Z+12	; 0x0c
    1df6:	75 85       	ldd	r23, Z+13	; 0x0d
    1df8:	20 e0       	ldi	r18, 0x00	; 0
    1dfa:	82 e0       	ldi	r24, 0x02	; 2
    1dfc:	37 d9       	rcall	.-3474   	; 0x106c <SetResponse>
    1dfe:	03 e0       	ldi	r16, 0x03	; 3
    1e00:	85 c2       	rjmp	.+1290   	; 0x230c <ProcessInput+0xa92>
                        } else {
                            SetResponse(elements++, A_NOTPOSSIBLE, L_NOTPOSSIBLE, TEASER);
    1e02:	21 e0       	ldi	r18, 0x01	; 1
    1e04:	4b e1       	ldi	r20, 0x1B	; 27
    1e06:	50 e0       	ldi	r21, 0x00	; 0
    1e08:	6e ea       	ldi	r22, 0xAE	; 174
    1e0a:	76 e7       	ldi	r23, 0x76	; 118
    1e0c:	80 e0       	ldi	r24, 0x00	; 0
    1e0e:	2e d9       	rcall	.-3492   	; 0x106c <SetResponse>
    1e10:	01 e0       	ldi	r16, 0x01	; 1
    1e12:	7c c2       	rjmp	.+1272   	; 0x230c <ProcessInput+0xa92>
    1e14:	21 e0       	ldi	r18, 0x01	; 1
                        }
                    }
                } else SetResponse(elements++, A_NOSUCHOBJECT, L_NOSUCHOBJECT, TEASER);
    1e16:	44 e1       	ldi	r20, 0x14	; 20
    1e18:	50 e0       	ldi	r21, 0x00	; 0
    1e1a:	6a e7       	ldi	r22, 0x7A	; 122
    1e1c:	79 e7       	ldi	r23, 0x79	; 121
    1e1e:	80 e0       	ldi	r24, 0x00	; 0
    1e20:	25 d9       	rcall	.-3510   	; 0x106c <SetResponse>
    1e22:	01 e0       	ldi	r16, 0x01	; 1
    1e24:	73 c2       	rjmp	.+1254   	; 0x230c <ProcessInput+0xa92>
    1e26:	84 36       	cpi	r24, 0x64	; 100
            }
        } else

        //Drop item if in inventory
        if (data[0] == 'd') {
    1e28:	09 f0       	breq	.+2      	; 0x1e2c <ProcessInput+0x5b2>
    1e2a:	7c c0       	rjmp	.+248    	; 0x1f24 <ProcessInput+0x6aa>
    1e2c:	80 91 96 38 	lds	r24, 0x3896	; 0x803896 <inventory>
            if ((inventory[0] == 0)&&(inventory[1] == 0)){
    1e30:	90 91 97 38 	lds	r25, 0x3897	; 0x803897 <inventory+0x1>
    1e34:	89 2b       	or	r24, r25
    1e36:	79 f4       	brne	.+30     	; 0x1e56 <ProcessInput+0x5dc>
    1e38:	80 91 98 38 	lds	r24, 0x3898	; 0x803898 <inventory+0x2>
    1e3c:	90 91 99 38 	lds	r25, 0x3899	; 0x803899 <inventory+0x3>
    1e40:	89 2b       	or	r24, r25
    1e42:	49 f4       	brne	.+18     	; 0x1e56 <ProcessInput+0x5dc>
                SetResponse(elements++, A_EMPTYHANDS, L_EMPTYHANDS, TEASER);
    1e44:	21 e0       	ldi	r18, 0x01	; 1
    1e46:	46 e2       	ldi	r20, 0x26	; 38
    1e48:	50 e0       	ldi	r21, 0x00	; 0
    1e4a:	6f e0       	ldi	r22, 0x0F	; 15
    1e4c:	78 e7       	ldi	r23, 0x78	; 120
    1e4e:	80 e0       	ldi	r24, 0x00	; 0
    1e50:	0d d9       	rcall	.-3558   	; 0x106c <SetResponse>
    1e52:	01 e0       	ldi	r16, 0x01	; 1
    1e54:	5b c2       	rjmp	.+1206   	; 0x230c <ProcessInput+0xa92>
            } else if (inputLen != 2) {
    1e56:	12 30       	cpi	r17, 0x02	; 2
    1e58:	09 f4       	brne	.+2      	; 0x1e5c <ProcessInput+0x5e2>
    1e5a:	5e c0       	rjmp	.+188    	; 0x1f18 <ProcessInput+0x69e>
                SetResponse(elements++, A_NOTPOSSIBLE, L_NOTPOSSIBLE, TEASER);
    1e5c:	21 e0       	ldi	r18, 0x01	; 1
    1e5e:	4b e1       	ldi	r20, 0x1B	; 27
    1e60:	50 e0       	ldi	r21, 0x00	; 0
    1e62:	6e ea       	ldi	r22, 0xAE	; 174
    1e64:	76 e7       	ldi	r23, 0x76	; 118
    1e66:	80 e0       	ldi	r24, 0x00	; 0
    1e68:	01 d9       	rcall	.-3582   	; 0x106c <SetResponse>
    1e6a:	01 e0       	ldi	r16, 0x01	; 1
    1e6c:	4f c2       	rjmp	.+1182   	; 0x230c <ProcessInput+0xa92>
            } else {
                for (uint8_t x=0; x<2; ++x) {
                    if (inventory[x]) {
    1e6e:	e1 2e       	mov	r14, r17
    1e70:	f1 2c       	mov	r15, r1
    1e72:	f7 01       	movw	r30, r14
    1e74:	ee 0f       	add	r30, r30
    1e76:	ff 1f       	adc	r31, r31
    1e78:	ea 56       	subi	r30, 0x6A	; 106
    1e7a:	f7 4c       	sbci	r31, 0xC7	; 199
    1e7c:	80 81       	ld	r24, Z
    1e7e:	91 81       	ldd	r25, Z+1	; 0x01
    1e80:	00 97       	sbiw	r24, 0x00	; 0
    1e82:	09 f4       	brne	.+2      	; 0x1e86 <ProcessInput+0x60c>
                        if (CheckLetter(inventory[x], data[1])) {
    1e84:	3a c0       	rjmp	.+116    	; 0x1efa <ProcessInput+0x680>
    1e86:	69 81       	ldd	r22, Y+1	; 0x01
    1e88:	f1 d9       	rcall	.-3102   	; 0x126c <CheckLetter>
    1e8a:	88 23       	and	r24, r24
    1e8c:	b1 f1       	breq	.+108    	; 0x1efa <ProcessInput+0x680>
                            PopulateObject(inventory[x], &actObj1);
    1e8e:	c7 01       	movw	r24, r14
    1e90:	88 0f       	add	r24, r24
    1e92:	99 1f       	adc	r25, r25
    1e94:	9c 01       	movw	r18, r24
    1e96:	2a 56       	subi	r18, 0x6A	; 106
    1e98:	37 4c       	sbci	r19, 0xC7	; 199
    1e9a:	79 01       	movw	r14, r18
    1e9c:	66 e0       	ldi	r22, 0x06	; 6
    1e9e:	79 e3       	ldi	r23, 0x39	; 57
    1ea0:	f9 01       	movw	r30, r18
    1ea2:	80 81       	ld	r24, Z
    1ea4:	91 81       	ldd	r25, Z+1	; 0x01
    1ea6:	45 d9       	rcall	.-3446   	; 0x1132 <PopulateObject>
                            SetResponse(elements++, A_DROPPING, L_DROPPING, TEASER);
    1ea8:	dd 24       	eor	r13, r13
    1eaa:	d3 94       	inc	r13
    1eac:	d0 0e       	add	r13, r16
    1eae:	21 e0       	ldi	r18, 0x01	; 1
    1eb0:	40 e1       	ldi	r20, 0x10	; 16
    1eb2:	50 e0       	ldi	r21, 0x00	; 0
    1eb4:	6f ef       	ldi	r22, 0xFF	; 255
    1eb6:	77 e7       	ldi	r23, 0x77	; 119
    1eb8:	80 2f       	mov	r24, r16
    1eba:	d8 d8       	rcall	.-3664   	; 0x106c <SetResponse>
                            SetResponse(elements++, actObj1.addrStr[NAME], actObj1.lenStr[NAME], GAME);
    1ebc:	12 e0       	ldi	r17, 0x02	; 2
    1ebe:	10 0f       	add	r17, r16
    1ec0:	e6 e0       	ldi	r30, 0x06	; 6
    1ec2:	f9 e3       	ldi	r31, 0x39	; 57
    1ec4:	42 8d       	ldd	r20, Z+26	; 0x1a
    1ec6:	53 8d       	ldd	r21, Z+27	; 0x1b
    1ec8:	64 85       	ldd	r22, Z+12	; 0x0c
    1eca:	75 85       	ldd	r23, Z+13	; 0x0d
    1ecc:	20 e0       	ldi	r18, 0x00	; 0
    1ece:	8d 2d       	mov	r24, r13
    1ed0:	cd d8       	rcall	.-3686   	; 0x106c <SetResponse>
    1ed2:	21 e0       	ldi	r18, 0x01	; 1
                            SetResponse(elements++, A_LF, 1, TEASER);
    1ed4:	41 e0       	ldi	r20, 0x01	; 1
    1ed6:	50 e0       	ldi	r21, 0x00	; 0
    1ed8:	66 e8       	ldi	r22, 0x86	; 134
    1eda:	7a e7       	ldi	r23, 0x7A	; 122
    1edc:	81 2f       	mov	r24, r17
    1ede:	c6 d8       	rcall	.-3700   	; 0x106c <SetResponse>
    1ee0:	21 e0       	ldi	r18, 0x01	; 1
    1ee2:	4d e3       	ldi	r20, 0x3D	; 61
                            SetResponse(elements++, A_RETURNING, L_RETURNING, TEASER);
    1ee4:	50 e0       	ldi	r21, 0x00	; 0
    1ee6:	62 ec       	ldi	r22, 0xC2	; 194
    1ee8:	77 e7       	ldi	r23, 0x77	; 119
    1eea:	83 e0       	ldi	r24, 0x03	; 3
    1eec:	80 0f       	add	r24, r16
    1eee:	0c 5f       	subi	r16, 0xFC	; 252
    1ef0:	bd d8       	rcall	.-3718   	; 0x106c <SetResponse>
    1ef2:	f7 01       	movw	r30, r14
    1ef4:	10 82       	st	Z, r1
                            inventory[x] = 0;
    1ef6:	11 82       	std	Z+1, r1	; 0x01
    1ef8:	09 c2       	rjmp	.+1042   	; 0x230c <ProcessInput+0xa92>
    1efa:	11 23       	and	r17, r17
                            break;
    1efc:	59 f0       	breq	.+22     	; 0x1f14 <ProcessInput+0x69a>
                        }
                    }
                    if (x) SetResponse(elements++, A_NOTCARRYING, L_NOTCARRYING, TEASER);
    1efe:	ff 24       	eor	r15, r15
    1f00:	f3 94       	inc	r15
    1f02:	f0 0e       	add	r15, r16
    1f04:	21 e0       	ldi	r18, 0x01	; 1
    1f06:	41 e2       	ldi	r20, 0x21	; 33
    1f08:	50 e0       	ldi	r21, 0x00	; 0
    1f0a:	6e e8       	ldi	r22, 0x8E	; 142
    1f0c:	79 e7       	ldi	r23, 0x79	; 121
    1f0e:	80 2f       	mov	r24, r16
    1f10:	ad d8       	rcall	.-3750   	; 0x106c <SetResponse>
    1f12:	0f 2d       	mov	r16, r15
    1f14:	1f 5f       	subi	r17, 0xFF	; 255
            if ((inventory[0] == 0)&&(inventory[1] == 0)){
                SetResponse(elements++, A_EMPTYHANDS, L_EMPTYHANDS, TEASER);
            } else if (inputLen != 2) {
                SetResponse(elements++, A_NOTPOSSIBLE, L_NOTPOSSIBLE, TEASER);
            } else {
                for (uint8_t x=0; x<2; ++x) {
    1f16:	02 c0       	rjmp	.+4      	; 0x1f1c <ProcessInput+0x6a2>
    1f18:	10 e0       	ldi	r17, 0x00	; 0
    1f1a:	00 e0       	ldi	r16, 0x00	; 0
    1f1c:	12 30       	cpi	r17, 0x02	; 2
    1f1e:	08 f4       	brcc	.+2      	; 0x1f22 <ProcessInput+0x6a8>
    1f20:	a6 cf       	rjmp	.-180    	; 0x1e6e <ProcessInput+0x5f4>
    1f22:	f4 c1       	rjmp	.+1000   	; 0x230c <ProcessInput+0xa92>
    1f24:	89 36       	cpi	r24, 0x69	; 105
                    if (x) SetResponse(elements++, A_NOTCARRYING, L_NOTCARRYING, TEASER);
                }
            }

        //Inventory list
        } else if (data[0] == 'i') {
    1f26:	09 f0       	breq	.+2      	; 0x1f2a <ProcessInput+0x6b0>
    1f28:	54 c0       	rjmp	.+168    	; 0x1fd2 <ProcessInput+0x758>
            if ((inventory[0] == 0)&&(inventory[1] == 0)){
    1f2a:	80 91 96 38 	lds	r24, 0x3896	; 0x803896 <inventory>
    1f2e:	90 91 97 38 	lds	r25, 0x3897	; 0x803897 <inventory+0x1>
    1f32:	89 2b       	or	r24, r25
    1f34:	79 f4       	brne	.+30     	; 0x1f54 <ProcessInput+0x6da>
    1f36:	80 91 98 38 	lds	r24, 0x3898	; 0x803898 <inventory+0x2>
    1f3a:	90 91 99 38 	lds	r25, 0x3899	; 0x803899 <inventory+0x3>
    1f3e:	89 2b       	or	r24, r25
                SetResponse(elements++, A_EMPTYHANDS, L_EMPTYHANDS, TEASER);
    1f40:	49 f4       	brne	.+18     	; 0x1f54 <ProcessInput+0x6da>
    1f42:	21 e0       	ldi	r18, 0x01	; 1
    1f44:	46 e2       	ldi	r20, 0x26	; 38
    1f46:	50 e0       	ldi	r21, 0x00	; 0
    1f48:	6f e0       	ldi	r22, 0x0F	; 15
    1f4a:	78 e7       	ldi	r23, 0x78	; 120
    1f4c:	80 e0       	ldi	r24, 0x00	; 0
    1f4e:	8e d8       	rcall	.-3812   	; 0x106c <SetResponse>
    1f50:	01 e0       	ldi	r16, 0x01	; 1
            } else {
                SetResponse(elements++, A_NOWCARRING, L_NOWCARRING, TEASER);
    1f52:	dc c1       	rjmp	.+952    	; 0x230c <ProcessInput+0xa92>
    1f54:	21 e0       	ldi	r18, 0x01	; 1
    1f56:	46 e1       	ldi	r20, 0x16	; 22
    1f58:	50 e0       	ldi	r21, 0x00	; 0
    1f5a:	65 e3       	ldi	r22, 0x35	; 53
    1f5c:	78 e7       	ldi	r23, 0x78	; 120
    1f5e:	80 e0       	ldi	r24, 0x00	; 0
                SetResponse(elements++, A_SPACE, L_SPACE, TEASER);
    1f60:	85 d8       	rcall	.-3830   	; 0x106c <SetResponse>
    1f62:	21 e0       	ldi	r18, 0x01	; 1
    1f64:	41 e0       	ldi	r20, 0x01	; 1
    1f66:	50 e0       	ldi	r21, 0x00	; 0
    1f68:	6a e8       	ldi	r22, 0x8A	; 138
    1f6a:	7a e7       	ldi	r23, 0x7A	; 122
    1f6c:	81 e0       	ldi	r24, 0x01	; 1
    1f6e:	7e d8       	rcall	.-3844   	; 0x106c <SetResponse>
                
                for (uint8_t x=0; x<2; ++x) {
    1f70:	10 e0       	ldi	r17, 0x00	; 0
        } else if (data[0] == 'i') {
            if ((inventory[0] == 0)&&(inventory[1] == 0)){
                SetResponse(elements++, A_EMPTYHANDS, L_EMPTYHANDS, TEASER);
            } else {
                SetResponse(elements++, A_NOWCARRING, L_NOWCARRING, TEASER);
                SetResponse(elements++, A_SPACE, L_SPACE, TEASER);
    1f72:	02 e0       	ldi	r16, 0x02	; 2
                
                for (uint8_t x=0; x<2; ++x) {
    1f74:	2a c0       	rjmp	.+84     	; 0x1fca <ProcessInput+0x750>
                    if (inventory[x]) {
    1f76:	e1 2f       	mov	r30, r17
    1f78:	f0 e0       	ldi	r31, 0x00	; 0
    1f7a:	ee 0f       	add	r30, r30
    1f7c:	ff 1f       	adc	r31, r31
    1f7e:	ea 56       	subi	r30, 0x6A	; 106
    1f80:	f7 4c       	sbci	r31, 0xC7	; 199
    1f82:	80 81       	ld	r24, Z
    1f84:	91 81       	ldd	r25, Z+1	; 0x01
    1f86:	00 97       	sbiw	r24, 0x00	; 0
    1f88:	f9 f0       	breq	.+62     	; 0x1fc8 <ProcessInput+0x74e>
                        PopulateObject(inventory[x], &actObj1);
    1f8a:	66 e0       	ldi	r22, 0x06	; 6
    1f8c:	79 e3       	ldi	r23, 0x39	; 57
    1f8e:	d1 d8       	rcall	.-3678   	; 0x1132 <PopulateObject>
                        SetResponse(elements++, actObj1.addrStr[NAME], actObj1.lenStr[NAME], GAME);
    1f90:	ff 24       	eor	r15, r15
    1f92:	f3 94       	inc	r15
    1f94:	f0 0e       	add	r15, r16
    1f96:	e6 e0       	ldi	r30, 0x06	; 6
    1f98:	f9 e3       	ldi	r31, 0x39	; 57
    1f9a:	42 8d       	ldd	r20, Z+26	; 0x1a
    1f9c:	53 8d       	ldd	r21, Z+27	; 0x1b
    1f9e:	64 85       	ldd	r22, Z+12	; 0x0c
    1fa0:	75 85       	ldd	r23, Z+13	; 0x0d
    1fa2:	20 e0       	ldi	r18, 0x00	; 0
    1fa4:	80 2f       	mov	r24, r16
    1fa6:	62 d8       	rcall	.-3900   	; 0x106c <SetResponse>
    1fa8:	21 e0       	ldi	r18, 0x01	; 1
                        SetResponse(elements++, A_COMMA, L_COMMA, TEASER);
    1faa:	42 e0       	ldi	r20, 0x02	; 2
    1fac:	50 e0       	ldi	r21, 0x00	; 0
    1fae:	64 e8       	ldi	r22, 0x84	; 132
    1fb0:	7a e7       	ldi	r23, 0x7A	; 122
    1fb2:	8f 2d       	mov	r24, r15
    1fb4:	5b d8       	rcall	.-3914   	; 0x106c <SetResponse>
    1fb6:	21 e0       	ldi	r18, 0x01	; 1
    1fb8:	41 e0       	ldi	r20, 0x01	; 1
                        SetResponse(elements++, A_SPACE, L_SPACE, TEASER);
    1fba:	50 e0       	ldi	r21, 0x00	; 0
    1fbc:	6a e8       	ldi	r22, 0x8A	; 138
    1fbe:	7a e7       	ldi	r23, 0x7A	; 122
    1fc0:	82 e0       	ldi	r24, 0x02	; 2
    1fc2:	80 0f       	add	r24, r16
    1fc4:	0d 5f       	subi	r16, 0xFD	; 253
    1fc6:	52 d8       	rcall	.-3932   	; 0x106c <SetResponse>
    1fc8:	1f 5f       	subi	r17, 0xFF	; 255
    1fca:	12 30       	cpi	r17, 0x02	; 2
                SetResponse(elements++, A_EMPTYHANDS, L_EMPTYHANDS, TEASER);
            } else {
                SetResponse(elements++, A_NOWCARRING, L_NOWCARRING, TEASER);
                SetResponse(elements++, A_SPACE, L_SPACE, TEASER);
                
                for (uint8_t x=0; x<2; ++x) {
    1fcc:	a0 f2       	brcs	.-88     	; 0x1f76 <ProcessInput+0x6fc>
    1fce:	02 50       	subi	r16, 0x02	; 2
    1fd0:	9d c1       	rjmp	.+826    	; 0x230c <ProcessInput+0xa92>
                        SetResponse(elements++, actObj1.addrStr[NAME], actObj1.lenStr[NAME], GAME);
                        SetResponse(elements++, A_COMMA, L_COMMA, TEASER);
                        SetResponse(elements++, A_SPACE, L_SPACE, TEASER);
                    }
                }
                elements -= 2;
    1fd2:	9c e8       	ldi	r25, 0x8C	; 140
    1fd4:	98 0f       	add	r25, r24
            }            
        
        //Talk, use, give, read
        } else if ((data[0] == 't')||(data[0] == 'u')||(data[0] == 'g')||(data[0] == 'r')) {
    1fd6:	92 30       	cpi	r25, 0x02	; 2
    1fd8:	28 f0       	brcs	.+10     	; 0x1fe4 <ProcessInput+0x76a>
    1fda:	87 36       	cpi	r24, 0x67	; 103
    1fdc:	19 f0       	breq	.+6      	; 0x1fe4 <ProcessInput+0x76a>
    1fde:	82 37       	cpi	r24, 0x72	; 114
    1fe0:	09 f0       	breq	.+2      	; 0x1fe4 <ProcessInput+0x76a>
    1fe2:	7b c1       	rjmp	.+758    	; 0x22da <ProcessInput+0xa60>
    1fe4:	8e ef       	ldi	r24, 0xFE	; 254
    1fe6:	81 0f       	add	r24, r17
            if ((inputLen<2)||(inputLen>3)) {
    1fe8:	82 30       	cpi	r24, 0x02	; 2
    1fea:	48 f0       	brcs	.+18     	; 0x1ffe <ProcessInput+0x784>
    1fec:	21 e0       	ldi	r18, 0x01	; 1
    1fee:	4b e1       	ldi	r20, 0x1B	; 27
                SetResponse(elements++, A_NOTPOSSIBLE, L_NOTPOSSIBLE, TEASER);                
    1ff0:	50 e0       	ldi	r21, 0x00	; 0
    1ff2:	6e ea       	ldi	r22, 0xAE	; 174
    1ff4:	76 e7       	ldi	r23, 0x76	; 118
    1ff6:	80 e0       	ldi	r24, 0x00	; 0
    1ff8:	39 d8       	rcall	.-3982   	; 0x106c <SetResponse>
    1ffa:	01 e0       	ldi	r16, 0x01	; 1
    1ffc:	87 c1       	rjmp	.+782    	; 0x230c <ProcessInput+0xa92>
    1ffe:	80 91 8f 38 	lds	r24, 0x388F	; 0x80388f <currDepth>
    2002:	90 e0       	ldi	r25, 0x00	; 0
            
            //Check for visible person or object first
            } else {
                route[currDepth+1] = FindChild(route[currDepth], data[inputLen-1], 0);
    2004:	7c 01       	movw	r14, r24
    2006:	ff ef       	ldi	r31, 0xFF	; 255
    2008:	ef 1a       	sub	r14, r31
    200a:	ff 0a       	sbc	r15, r31
    200c:	a1 2f       	mov	r26, r17
    200e:	b0 e0       	ldi	r27, 0x00	; 0
    2010:	11 97       	sbiw	r26, 0x01	; 1
    2012:	ac 0f       	add	r26, r28
    2014:	bd 1f       	adc	r27, r29
    2016:	88 0f       	add	r24, r24
    2018:	99 1f       	adc	r25, r25
    201a:	fc 01       	movw	r30, r24
    201c:	ee 5f       	subi	r30, 0xFE	; 254
    201e:	f5 4c       	sbci	r31, 0xC5	; 197
    2020:	40 e0       	ldi	r20, 0x00	; 0
    2022:	50 e0       	ldi	r21, 0x00	; 0
    2024:	6c 91       	ld	r22, X
    2026:	80 81       	ld	r24, Z
    2028:	91 81       	ldd	r25, Z+1	; 0x01
    202a:	7b d9       	rcall	.-3338   	; 0x1322 <FindChild>
    202c:	f7 01       	movw	r30, r14
    202e:	ee 0f       	add	r30, r30
    2030:	ff 1f       	adc	r31, r31
    2032:	ee 5f       	subi	r30, 0xFE	; 254
    2034:	f5 4c       	sbci	r31, 0xC5	; 197
    2036:	80 83       	st	Z, r24
    2038:	91 83       	std	Z+1, r25	; 0x01
    203a:	e0 91 8f 38 	lds	r30, 0x388F	; 0x80388f <currDepth>
                if (route[currDepth+1]) {
    203e:	f0 e0       	ldi	r31, 0x00	; 0
    2040:	31 96       	adiw	r30, 0x01	; 1
    2042:	ee 0f       	add	r30, r30
    2044:	ff 1f       	adc	r31, r31
    2046:	ee 5f       	subi	r30, 0xFE	; 254
    2048:	f5 4c       	sbci	r31, 0xC5	; 197
    204a:	80 81       	ld	r24, Z
    204c:	91 81       	ldd	r25, Z+1	; 0x01
    204e:	00 97       	sbiw	r24, 0x00	; 0
    2050:	09 f4       	brne	.+2      	; 0x2054 <ProcessInput+0x7da>
    2052:	2a c1       	rjmp	.+596    	; 0x22a8 <ProcessInput+0xa2e>
    2054:	13 30       	cpi	r17, 0x03	; 3
    2056:	09 f0       	breq	.+2      	; 0x205a <ProcessInput+0x7e0>
                    
                    //Give item to person / use item on object 
                    if ((inputLen == 3)&&((data[0] == 'u')||(data[0] == 'g'))) {
    2058:	84 c0       	rjmp	.+264    	; 0x2162 <ProcessInput+0x8e8>
    205a:	28 81       	ld	r18, Y
    205c:	25 37       	cpi	r18, 0x75	; 117
    205e:	79 f1       	breq	.+94     	; 0x20be <ProcessInput+0x844>
    2060:	27 36       	cpi	r18, 0x67	; 103
    2062:	09 f0       	breq	.+2      	; 0x2066 <ProcessInput+0x7ec>
    2064:	7e c0       	rjmp	.+252    	; 0x2162 <ProcessInput+0x8e8>
    2066:	2e c0       	rjmp	.+92     	; 0x20c4 <ProcessInput+0x84a>
    2068:	e1 2e       	mov	r14, r17
    206a:	f1 2c       	mov	r15, r1
                        for (uint8_t x=0; x<2; x++) {
                            if (inventory[x]) { 
    206c:	f7 01       	movw	r30, r14
    206e:	ee 0f       	add	r30, r30
    2070:	ff 1f       	adc	r31, r31
    2072:	ea 56       	subi	r30, 0x6A	; 106
    2074:	f7 4c       	sbci	r31, 0xC7	; 199
    2076:	80 81       	ld	r24, Z
    2078:	91 81       	ldd	r25, Z+1	; 0x01
    207a:	00 97       	sbiw	r24, 0x00	; 0
    207c:	79 f0       	breq	.+30     	; 0x209c <ProcessInput+0x822>
    207e:	69 81       	ldd	r22, Y+1	; 0x01
                                if (CheckLetter(inventory[x], data[1])) {
    2080:	f5 d8       	rcall	.-3606   	; 0x126c <CheckLetter>
    2082:	88 23       	and	r24, r24
    2084:	59 f0       	breq	.+22     	; 0x209c <ProcessInput+0x822>
    2086:	f7 01       	movw	r30, r14
    2088:	ee 0f       	add	r30, r30
                                    PopulateObject(inventory[x], &actObj2);
    208a:	ff 1f       	adc	r31, r31
    208c:	ea 56       	subi	r30, 0x6A	; 106
    208e:	f7 4c       	sbci	r31, 0xC7	; 199
    2090:	6e ed       	ldi	r22, 0xDE	; 222
    2092:	78 e3       	ldi	r23, 0x38	; 56
    2094:	80 81       	ld	r24, Z
    2096:	91 81       	ldd	r25, Z+1	; 0x01
    2098:	4c d8       	rcall	.-3944   	; 0x1132 <PopulateObject>
    209a:	12 e0       	ldi	r17, 0x02	; 2
    209c:	11 30       	cpi	r17, 0x01	; 1
                                    x = 2;
    209e:	69 f4       	brne	.+26     	; 0x20ba <ProcessInput+0x840>
                                }
                            }
                            if (x == 1) { 
    20a0:	ff 24       	eor	r15, r15
    20a2:	f3 94       	inc	r15
                                SetResponse(elements++, A_NOTCARRYING, L_NOTCARRYING, TEASER);
    20a4:	f0 0e       	add	r15, r16
    20a6:	21 e0       	ldi	r18, 0x01	; 1
    20a8:	41 e2       	ldi	r20, 0x21	; 33
    20aa:	50 e0       	ldi	r21, 0x00	; 0
    20ac:	6e e8       	ldi	r22, 0x8E	; 142
    20ae:	79 e7       	ldi	r23, 0x79	; 121
    20b0:	80 2f       	mov	r24, r16
    20b2:	0e 94 36 08 	call	0x106c	; 0x106c <SetResponse>
    20b6:	18 82       	st	Y, r1
    20b8:	0f 2d       	mov	r16, r15
                                data[0] = 0;
    20ba:	1f 5f       	subi	r17, 0xFF	; 255
                                    PopulateObject(inventory[x], &actObj2);
                                    x = 2;
                                }
                            }
                            if (x == 1) { 
                                SetResponse(elements++, A_NOTCARRYING, L_NOTCARRYING, TEASER);
    20bc:	05 c0       	rjmp	.+10     	; 0x20c8 <ProcessInput+0x84e>
                route[currDepth+1] = FindChild(route[currDepth], data[inputLen-1], 0);
                if (route[currDepth+1]) {
                    
                    //Give item to person / use item on object 
                    if ((inputLen == 3)&&((data[0] == 'u')||(data[0] == 'g'))) {
                        for (uint8_t x=0; x<2; x++) {
    20be:	10 e0       	ldi	r17, 0x00	; 0
    20c0:	00 e0       	ldi	r16, 0x00	; 0
    20c2:	02 c0       	rjmp	.+4      	; 0x20c8 <ProcessInput+0x84e>
    20c4:	10 e0       	ldi	r17, 0x00	; 0
    20c6:	00 e0       	ldi	r16, 0x00	; 0
    20c8:	12 30       	cpi	r17, 0x02	; 2
    20ca:	70 f2       	brcs	.-100    	; 0x2068 <ProcessInput+0x7ee>
    20cc:	88 81       	ld	r24, Y
    20ce:	88 23       	and	r24, r24
                                data[0] = 0;
                            }
                        }

                        //Both the item and person/object are found, check if action is legit
                        if (data[0]){
    20d0:	09 f4       	brne	.+2      	; 0x20d4 <ProcessInput+0x85a>
    20d2:	1c c1       	rjmp	.+568    	; 0x230c <ProcessInput+0xa92>
    20d4:	e0 91 8f 38 	lds	r30, 0x388F	; 0x80388f <currDepth>
                            PopulateObject(route[currDepth+1], &actObj1);
    20d8:	f0 e0       	ldi	r31, 0x00	; 0
    20da:	31 96       	adiw	r30, 0x01	; 1
    20dc:	ee 0f       	add	r30, r30
    20de:	ff 1f       	adc	r31, r31
    20e0:	ee 5f       	subi	r30, 0xFE	; 254
    20e2:	f5 4c       	sbci	r31, 0xC5	; 197
    20e4:	66 e0       	ldi	r22, 0x06	; 6
    20e6:	79 e3       	ldi	r23, 0x39	; 57
    20e8:	80 81       	ld	r24, Z
    20ea:	91 81       	ldd	r25, Z+1	; 0x01
    20ec:	22 d8       	rcall	.-4028   	; 0x1132 <PopulateObject>
    20ee:	90 91 0f 39 	lds	r25, 0x390F	; 0x80390f <actObj1.3942+0x9>
    20f2:	80 91 e9 38 	lds	r24, 0x38E9	; 0x8038e9 <actObj2.3943+0xb>
                            if (actObj1.byteField[ACTION_ITEM] == actObj2.byteField[ITEM_NR]) {
    20f6:	98 13       	cpse	r25, r24
    20f8:	16 c0       	rjmp	.+44     	; 0x2126 <ProcessInput+0x8ac>
    20fa:	0f 2e       	mov	r0, r31
    20fc:	f6 e0       	ldi	r31, 0x06	; 6
    20fe:	ef 2e       	mov	r14, r31
                                UpdateState(actObj1.byteField[ACTION_STATE]);
    2100:	f9 e3       	ldi	r31, 0x39	; 57
    2102:	ff 2e       	mov	r15, r31
    2104:	f0 2d       	mov	r31, r0
    2106:	f7 01       	movw	r30, r14
    2108:	82 85       	ldd	r24, Z+10	; 0x0a
    210a:	87 d8       	rcall	.-3826   	; 0x121a <UpdateState>
    210c:	11 e0       	ldi	r17, 0x01	; 1
    210e:	10 0f       	add	r17, r16
    2110:	f7 01       	movw	r30, r14
    2112:	46 a1       	ldd	r20, Z+38	; 0x26
                                SetResponse(elements++, actObj1.addrStr[ACTION_MSG], actObj1.lenStr[ACTION_MSG], GAME);
    2114:	57 a1       	ldd	r21, Z+39	; 0x27
    2116:	60 8d       	ldd	r22, Z+24	; 0x18
    2118:	71 8d       	ldd	r23, Z+25	; 0x19
    211a:	20 e0       	ldi	r18, 0x00	; 0
    211c:	80 2f       	mov	r24, r16
    211e:	0e 94 36 08 	call	0x106c	; 0x106c <SetResponse>
    2122:	01 2f       	mov	r16, r17
    2124:	f3 c0       	rjmp	.+486    	; 0x230c <ProcessInput+0xa92>
    2126:	88 81       	ld	r24, Y
    2128:	85 37       	cpi	r24, 0x75	; 117
    212a:	61 f4       	brne	.+24     	; 0x2144 <ProcessInput+0x8ca>
    212c:	11 e0       	ldi	r17, 0x01	; 1
                            } else {
                                if (data[0] == 'u') {
    212e:	10 0f       	add	r17, r16
    2130:	21 e0       	ldi	r18, 0x01	; 1
    2132:	4a e1       	ldi	r20, 0x1A	; 26
                                    SetResponse(elements++, A_CANTUSE, L_CANTUSE, TEASER);
    2134:	50 e0       	ldi	r21, 0x00	; 0
    2136:	6e e2       	ldi	r22, 0x2E	; 46
    2138:	79 e7       	ldi	r23, 0x79	; 121
    213a:	80 2f       	mov	r24, r16
    213c:	0e 94 36 08 	call	0x106c	; 0x106c <SetResponse>
    2140:	01 2f       	mov	r16, r17
    2142:	e4 c0       	rjmp	.+456    	; 0x230c <ProcessInput+0xa92>
    2144:	87 36       	cpi	r24, 0x67	; 103
    2146:	09 f0       	breq	.+2      	; 0x214a <ProcessInput+0x8d0>
    2148:	e1 c0       	rjmp	.+450    	; 0x230c <ProcessInput+0xa92>
    214a:	11 e0       	ldi	r17, 0x01	; 1
                                } else if (data[0] == 'g') {
    214c:	10 0f       	add	r17, r16
    214e:	21 e0       	ldi	r18, 0x01	; 1
    2150:	48 e2       	ldi	r20, 0x28	; 40
                                    SetResponse(elements++, A_CANTGIVE, L_CANTGIVE, TEASER);                                    
    2152:	50 e0       	ldi	r21, 0x00	; 0
    2154:	69 e0       	ldi	r22, 0x09	; 9
    2156:	77 e7       	ldi	r23, 0x77	; 119
    2158:	80 2f       	mov	r24, r16
    215a:	0e 94 36 08 	call	0x106c	; 0x106c <SetResponse>
    215e:	01 2f       	mov	r16, r17
    2160:	d5 c0       	rjmp	.+426    	; 0x230c <ProcessInput+0xa92>
    2162:	66 e0       	ldi	r22, 0x06	; 6
    2164:	79 e3       	ldi	r23, 0x39	; 57
    2166:	0e 94 99 08 	call	0x1132	; 0x1132 <PopulateObject>
                            }
                        }
                    
                    //Talk to person, read or use object (without item)                          
                    } else {
                        PopulateObject(route[currDepth+1], &actObj1);
    216a:	21 e0       	ldi	r18, 0x01	; 1
    216c:	41 e0       	ldi	r20, 0x01	; 1
    216e:	50 e0       	ldi	r21, 0x00	; 0
    2170:	6a e8       	ldi	r22, 0x8A	; 138
                        SetResponse(elements+1, A_SPACE, L_SPACE, TEASER);
    2172:	7a e7       	ldi	r23, 0x7A	; 122
    2174:	81 e0       	ldi	r24, 0x01	; 1
    2176:	0e 94 36 08 	call	0x106c	; 0x106c <SetResponse>
    217a:	e6 e0       	ldi	r30, 0x06	; 6
    217c:	f9 e3       	ldi	r31, 0x39	; 57
    217e:	42 8d       	ldd	r20, Z+26	; 0x1a
                        SetResponse(elements+2, actObj1.addrStr[NAME], actObj1.lenStr[NAME], GAME);
    2180:	53 8d       	ldd	r21, Z+27	; 0x1b
    2182:	64 85       	ldd	r22, Z+12	; 0x0c
    2184:	75 85       	ldd	r23, Z+13	; 0x0d
    2186:	20 e0       	ldi	r18, 0x00	; 0
    2188:	82 e0       	ldi	r24, 0x02	; 2
    218a:	0e 94 36 08 	call	0x106c	; 0x106c <SetResponse>
    218e:	88 81       	ld	r24, Y
    2190:	84 37       	cpi	r24, 0x74	; 116
    2192:	71 f4       	brne	.+28     	; 0x21b0 <ProcessInput+0x936>
                        elements += 3;
                        if ((data[0] == 't')&&(~actObj1.byteField[ACTION_MASK] & TALK)) {
    2194:	90 91 0e 39 	lds	r25, 0x390E	; 0x80390e <actObj1.3942+0x8>
    2198:	93 fd       	sbrc	r25, 3
    219a:	0a c0       	rjmp	.+20     	; 0x21b0 <ProcessInput+0x936>
    219c:	21 e0       	ldi	r18, 0x01	; 1
    219e:	4e e1       	ldi	r20, 0x1E	; 30
                            SetResponse(elements-3, A_WHYTALK, L_WHYTALK, TEASER);
    21a0:	50 e0       	ldi	r21, 0x00	; 0
    21a2:	68 e4       	ldi	r22, 0x48	; 72
    21a4:	79 e7       	ldi	r23, 0x79	; 121
    21a6:	80 e0       	ldi	r24, 0x00	; 0
    21a8:	0e 94 36 08 	call	0x106c	; 0x106c <SetResponse>
    21ac:	03 e0       	ldi	r16, 0x03	; 3
    21ae:	ae c0       	rjmp	.+348    	; 0x230c <ProcessInput+0xa92>
                    //Talk to person, read or use object (without item)                          
                    } else {
                        PopulateObject(route[currDepth+1], &actObj1);
                        SetResponse(elements+1, A_SPACE, L_SPACE, TEASER);
                        SetResponse(elements+2, actObj1.addrStr[NAME], actObj1.lenStr[NAME], GAME);
                        elements += 3;
    21b0:	85 37       	cpi	r24, 0x75	; 117
                        if ((data[0] == 't')&&(~actObj1.byteField[ACTION_MASK] & TALK)) {
                            SetResponse(elements-3, A_WHYTALK, L_WHYTALK, TEASER);
    21b2:	71 f4       	brne	.+28     	; 0x21d0 <ProcessInput+0x956>
                        } else if ((data[0] == 'u')&&(~actObj1.byteField[ACTION_MASK] & USE)) {
    21b4:	90 91 0e 39 	lds	r25, 0x390E	; 0x80390e <actObj1.3942+0x8>
    21b8:	94 fd       	sbrc	r25, 4
    21ba:	0a c0       	rjmp	.+20     	; 0x21d0 <ProcessInput+0x956>
    21bc:	21 e0       	ldi	r18, 0x01	; 1
    21be:	4a e1       	ldi	r20, 0x1A	; 26
                            SetResponse(elements-3, A_CANTUSE, L_CANTUSE, TEASER);
    21c0:	50 e0       	ldi	r21, 0x00	; 0
    21c2:	6e e2       	ldi	r22, 0x2E	; 46
    21c4:	79 e7       	ldi	r23, 0x79	; 121
    21c6:	80 e0       	ldi	r24, 0x00	; 0
    21c8:	0e 94 36 08 	call	0x106c	; 0x106c <SetResponse>
    21cc:	03 e0       	ldi	r16, 0x03	; 3
    21ce:	9e c0       	rjmp	.+316    	; 0x230c <ProcessInput+0xa92>
                    //Talk to person, read or use object (without item)                          
                    } else {
                        PopulateObject(route[currDepth+1], &actObj1);
                        SetResponse(elements+1, A_SPACE, L_SPACE, TEASER);
                        SetResponse(elements+2, actObj1.addrStr[NAME], actObj1.lenStr[NAME], GAME);
                        elements += 3;
    21d0:	82 37       	cpi	r24, 0x72	; 114
                        if ((data[0] == 't')&&(~actObj1.byteField[ACTION_MASK] & TALK)) {
                            SetResponse(elements-3, A_WHYTALK, L_WHYTALK, TEASER);
                        } else if ((data[0] == 'u')&&(~actObj1.byteField[ACTION_MASK] & USE)) {
                            SetResponse(elements-3, A_CANTUSE, L_CANTUSE, TEASER);
    21d2:	71 f4       	brne	.+28     	; 0x21f0 <ProcessInput+0x976>
                        } else if ((data[0] == 'r')&&(~actObj1.byteField[ACTION_MASK] & READ)) {
    21d4:	80 91 0e 39 	lds	r24, 0x390E	; 0x80390e <actObj1.3942+0x8>
    21d8:	85 fd       	sbrc	r24, 5
    21da:	0a c0       	rjmp	.+20     	; 0x21f0 <ProcessInput+0x976>
    21dc:	21 e0       	ldi	r18, 0x01	; 1
    21de:	4b e1       	ldi	r20, 0x1B	; 27
                            SetResponse(elements-3, A_CANTREAD, L_CANTREAD, TEASER);
    21e0:	50 e0       	ldi	r21, 0x00	; 0
    21e2:	63 e1       	ldi	r22, 0x13	; 19
    21e4:	79 e7       	ldi	r23, 0x79	; 121
    21e6:	80 e0       	ldi	r24, 0x00	; 0
    21e8:	0e 94 36 08 	call	0x106c	; 0x106c <SetResponse>
    21ec:	03 e0       	ldi	r16, 0x03	; 3
    21ee:	8e c0       	rjmp	.+284    	; 0x230c <ProcessInput+0xa92>
                    //Talk to person, read or use object (without item)                          
                    } else {
                        PopulateObject(route[currDepth+1], &actObj1);
                        SetResponse(elements+1, A_SPACE, L_SPACE, TEASER);
                        SetResponse(elements+2, actObj1.addrStr[NAME], actObj1.lenStr[NAME], GAME);
                        elements += 3;
    21f0:	80 91 0d 39 	lds	r24, 0x390D	; 0x80390d <actObj1.3942+0x7>
                            SetResponse(elements-3, A_CANTUSE, L_CANTUSE, TEASER);
                        } else if ((data[0] == 'r')&&(~actObj1.byteField[ACTION_MASK] & READ)) {
                            SetResponse(elements-3, A_CANTREAD, L_CANTREAD, TEASER);
                        } else {
                            elements -= 3;
                            if (CheckState(actObj1.byteField[ACTION_ACL])){
    21f4:	24 d8       	rcall	.-4024   	; 0x123e <CheckState>
    21f6:	88 23       	and	r24, r24
    21f8:	79 f0       	breq	.+30     	; 0x2218 <ProcessInput+0x99e>
    21fa:	06 e0       	ldi	r16, 0x06	; 6
    21fc:	19 e3       	ldi	r17, 0x39	; 57
    21fe:	f8 01       	movw	r30, r16
                                SetResponse(elements++, actObj1.addrStr[ACTION_MSG], actObj1.lenStr[ACTION_MSG], GAME);
    2200:	46 a1       	ldd	r20, Z+38	; 0x26
    2202:	57 a1       	ldd	r21, Z+39	; 0x27
    2204:	60 8d       	ldd	r22, Z+24	; 0x18
    2206:	71 8d       	ldd	r23, Z+25	; 0x19
    2208:	20 e0       	ldi	r18, 0x00	; 0
    220a:	80 e0       	ldi	r24, 0x00	; 0
    220c:	0e 94 36 08 	call	0x106c	; 0x106c <SetResponse>
    2210:	f8 01       	movw	r30, r16
    2212:	82 85       	ldd	r24, Z+10	; 0x0a
    2214:	02 d8       	rcall	.-4092   	; 0x121a <UpdateState>
                                UpdateState(actObj1.byteField[ACTION_STATE]);
    2216:	0a c0       	rjmp	.+20     	; 0x222c <ProcessInput+0x9b2>
    2218:	e6 e0       	ldi	r30, 0x06	; 6
    221a:	f9 e3       	ldi	r31, 0x39	; 57
    221c:	44 a1       	ldd	r20, Z+36	; 0x24
    221e:	55 a1       	ldd	r21, Z+37	; 0x25
                            } else {
                                SetResponse(elements++, actObj1.addrStr[ACTION_ACL_MSG], actObj1.lenStr[ACTION_ACL_MSG], GAME);
    2220:	66 89       	ldd	r22, Z+22	; 0x16
    2222:	77 89       	ldd	r23, Z+23	; 0x17
    2224:	20 e0       	ldi	r18, 0x00	; 0
    2226:	80 e0       	ldi	r24, 0x00	; 0
    2228:	0e 94 36 08 	call	0x106c	; 0x106c <SetResponse>
    222c:	40 91 24 39 	lds	r20, 0x3924	; 0x803924 <actObj1.3942+0x1e>
    2230:	50 91 25 39 	lds	r21, 0x3925	; 0x803925 <actObj1.3942+0x1f>
                            }

                            //Special game
                            if (actObj1.lenStr[ACTION_STR1] == 1) {
    2234:	41 30       	cpi	r20, 0x01	; 1
    2236:	51 05       	cpc	r21, r1
    2238:	09 f4       	brne	.+2      	; 0x223c <ProcessInput+0x9c2>
    223a:	61 c0       	rjmp	.+194    	; 0x22fe <ProcessInput+0xa84>
    223c:	41 15       	cp	r20, r1
    223e:	51 05       	cpc	r21, r1
    2240:	09 f4       	brne	.+2      	; 0x2244 <ProcessInput+0x9ca>
    2242:	5f c0       	rjmp	.+190    	; 0x2302 <ProcessInput+0xa88>
                                

                            //General request
                            } else if (actObj1.lenStr[ACTION_STR1]) {
    2244:	06 e0       	ldi	r16, 0x06	; 6
    2246:	19 e3       	ldi	r17, 0x39	; 57
    2248:	f8 01       	movw	r30, r16
    224a:	60 89       	ldd	r22, Z+16	; 0x10
                                SetResponse(elements++, actObj1.addrStr[ACTION_STR1], actObj1.lenStr[ACTION_STR1], GAME);
    224c:	71 89       	ldd	r23, Z+17	; 0x11
    224e:	20 e0       	ldi	r18, 0x00	; 0
    2250:	81 e0       	ldi	r24, 0x01	; 1
    2252:	0e 94 36 08 	call	0x106c	; 0x106c <SetResponse>
    2256:	21 e0       	ldi	r18, 0x01	; 1
    2258:	41 e0       	ldi	r20, 0x01	; 1
    225a:	50 e0       	ldi	r21, 0x00	; 0
    225c:	66 e8       	ldi	r22, 0x86	; 134
                                SetResponse(elements++, A_LF, 1, TEASER);
    225e:	7a e7       	ldi	r23, 0x7A	; 122
    2260:	82 e0       	ldi	r24, 0x02	; 2
    2262:	0e 94 36 08 	call	0x106c	; 0x106c <SetResponse>
    2266:	21 e0       	ldi	r18, 0x01	; 1
    2268:	42 e1       	ldi	r20, 0x12	; 18
    226a:	50 e0       	ldi	r21, 0x00	; 0
    226c:	6a ed       	ldi	r22, 0xDA	; 218
                                SetResponse(elements++, A_RESPONSE, L_RESPONSE, TEASER);
    226e:	78 e7       	ldi	r23, 0x78	; 120
    2270:	83 e0       	ldi	r24, 0x03	; 3
    2272:	0e 94 36 08 	call	0x106c	; 0x106c <SetResponse>
    2276:	f8 01       	movw	r30, r16
    2278:	80 a1       	ldd	r24, Z+32	; 0x20
    227a:	91 a1       	ldd	r25, Z+33	; 0x21
    227c:	40 97       	sbiw	r24, 0x10	; 16
                                if (actObj1.lenStr[ACTION_STR2]>15) actObj1.lenStr[ACTION_STR2] = 15;
    227e:	30 f0       	brcs	.+12     	; 0x228c <ProcessInput+0xa12>
    2280:	8f e0       	ldi	r24, 0x0F	; 15
    2282:	90 e0       	ldi	r25, 0x00	; 0
    2284:	80 93 26 39 	sts	0x3926, r24	; 0x803926 <actObj1.3942+0x20>
    2288:	90 93 27 39 	sts	0x3927, r25	; 0x803927 <actObj1.3942+0x21>
    228c:	e6 e0       	ldi	r30, 0x06	; 6
    228e:	f9 e3       	ldi	r31, 0x39	; 57
    2290:	60 a1       	ldd	r22, Z+32	; 0x20
    2292:	21 e3       	ldi	r18, 0x31	; 49
                                ExtEERead(actObj1.addrStr[ACTION_STR2], actObj1.lenStr[ACTION_STR2], GAME, (uint8_t *)&specialInput[0]);
    2294:	39 e3       	ldi	r19, 0x39	; 57
    2296:	40 e0       	ldi	r20, 0x00	; 0
    2298:	82 89       	ldd	r24, Z+18	; 0x12
    229a:	93 89       	ldd	r25, Z+19	; 0x13
    229c:	0e 94 84 07 	call	0xf08	; 0xf08 <ExtEERead>
    22a0:	10 92 30 39 	sts	0x3930, r1	; 0x803930 <specialPassed>
    22a4:	04 e0       	ldi	r16, 0x04	; 4
    22a6:	32 c0       	rjmp	.+100    	; 0x230c <ProcessInput+0xa92>
                                specialPassed = 0;
    22a8:	88 81       	ld	r24, Y
    22aa:	84 37       	cpi	r24, 0x74	; 116

                            //General request
                            } else if (actObj1.lenStr[ACTION_STR1]) {
                                SetResponse(elements++, actObj1.addrStr[ACTION_STR1], actObj1.lenStr[ACTION_STR1], GAME);
                                SetResponse(elements++, A_LF, 1, TEASER);
                                SetResponse(elements++, A_RESPONSE, L_RESPONSE, TEASER);
    22ac:	11 f0       	breq	.+4      	; 0x22b2 <ProcessInput+0xa38>
    22ae:	87 36       	cpi	r24, 0x67	; 103
                        }
                    }

                //Person or object not found
                } else {
                    if ((data[0] == 't')||(data[0] == 'g')){
    22b0:	51 f4       	brne	.+20     	; 0x22c6 <ProcessInput+0xa4c>
    22b2:	21 e0       	ldi	r18, 0x01	; 1
    22b4:	44 e1       	ldi	r20, 0x14	; 20
    22b6:	50 e0       	ldi	r21, 0x00	; 0
    22b8:	66 e6       	ldi	r22, 0x66	; 102
                        SetResponse(elements++, A_NOSUCHPERSON, L_NOSUCHPERSON, TEASER);
    22ba:	79 e7       	ldi	r23, 0x79	; 121
    22bc:	80 e0       	ldi	r24, 0x00	; 0
    22be:	0e 94 36 08 	call	0x106c	; 0x106c <SetResponse>
    22c2:	01 e0       	ldi	r16, 0x01	; 1
    22c4:	23 c0       	rjmp	.+70     	; 0x230c <ProcessInput+0xa92>
    22c6:	21 e0       	ldi	r18, 0x01	; 1
    22c8:	44 e1       	ldi	r20, 0x14	; 20
    22ca:	50 e0       	ldi	r21, 0x00	; 0
    22cc:	6a e7       	ldi	r22, 0x7A	; 122
                    } else {
                        SetResponse(elements++, A_NOSUCHOBJECT, L_NOSUCHOBJECT, TEASER);
    22ce:	79 e7       	ldi	r23, 0x79	; 121
    22d0:	80 e0       	ldi	r24, 0x00	; 0
    22d2:	0e 94 36 08 	call	0x106c	; 0x106c <SetResponse>
    22d6:	01 e0       	ldi	r16, 0x01	; 1
    22d8:	19 c0       	rjmp	.+50     	; 0x230c <ProcessInput+0xa92>
    22da:	81 36       	cpi	r24, 0x61	; 97
    22dc:	a1 f4       	brne	.+40     	; 0x2306 <ProcessInput+0xa8c>
    22de:	80 91 30 39 	lds	r24, 0x3930	; 0x803930 <specialPassed>
                    }
                }
            }
        
        //Special answer given
        } else if (data[0] == 'a'){
    22e2:	82 30       	cpi	r24, 0x02	; 2
    22e4:	91 f0       	breq	.+36     	; 0x230a <ProcessInput+0xa90>
            if (specialPassed == 2) {
    22e6:	81 30       	cpi	r24, 0x01	; 1
    22e8:	21 f4       	brne	.+8      	; 0x22f2 <ProcessInput+0xa78>
    22ea:	10 92 31 39 	sts	0x3931, r1	; 0x803931 <specialInput>

            } else if (specialPassed == 1) {
    22ee:	00 e0       	ldi	r16, 0x00	; 0
    22f0:	0d c0       	rjmp	.+26     	; 0x230c <ProcessInput+0xa92>
                
                specialInput[0] = 0;
    22f2:	10 92 31 39 	sts	0x3931, r1	; 0x803931 <specialInput>
}

//The game logic!
uint8_t ProcessInput(uint8_t *data){
    static object_model_t actObj1, actObj2;
    uint8_t elements = 0;
    22f6:	00 e0       	ldi	r16, 0x00	; 0
    22f8:	09 c0       	rjmp	.+18     	; 0x230c <ProcessInput+0xa92>
            } else if (specialPassed == 1) {
                
                specialInput[0] = 0;
            } else {

                specialInput[0] = 0;
    22fa:	00 e0       	ldi	r16, 0x00	; 0
    22fc:	07 c0       	rjmp	.+14     	; 0x230c <ProcessInput+0xa92>
}

//The game logic!
uint8_t ProcessInput(uint8_t *data){
    static object_model_t actObj1, actObj2;
    uint8_t elements = 0;
    22fe:	01 e0       	ldi	r16, 0x01	; 1
    2300:	05 c0       	rjmp	.+10     	; 0x230c <ProcessInput+0xa92>
    2302:	01 e0       	ldi	r16, 0x01	; 1
    2304:	03 c0       	rjmp	.+6      	; 0x230c <ProcessInput+0xa92>
    2306:	00 e0       	ldi	r16, 0x00	; 0
    2308:	01 c0       	rjmp	.+2      	; 0x230c <ProcessInput+0xa92>
    230a:	00 e0       	ldi	r16, 0x00	; 0
    230c:	18 82       	st	Y, r1
    230e:	10 92 9c 38 	sts	0x389C, r1	; 0x80389c <serRxDone>
    2312:	1d ba       	out	0x1d, r1	; 29
            ;//No clue, no valid input...
                
        }
            
        //Input handled
        data[0] = 0;
    2314:	80 91 31 39 	lds	r24, 0x3931	; 0x803931 <specialInput>
        serRxDone = 0;
    2318:	88 23       	and	r24, r24
        RXCNT = 0;
    231a:	19 f0       	breq	.+6      	; 0x2322 <ProcessInput+0xaa8>
        if (specialInput[0]) responseList = elements; else responseList = SetStandardResponse(elements);
    231c:	00 93 41 39 	sts	0x3941, r16	; 0x803941 <responseList>
    2320:	05 c0       	rjmp	.+10     	; 0x232c <ProcessInput+0xab2>
    2322:	80 2f       	mov	r24, r16
    2324:	0e 94 51 08 	call	0x10a2	; 0x10a2 <SetStandardResponse>
    2328:	80 93 41 39 	sts	0x3941, r24	; 0x803941 <responseList>
    232c:	80 e0       	ldi	r24, 0x00	; 0
    232e:	df 91       	pop	r29
    2330:	cf 91       	pop	r28
    2332:	1f 91       	pop	r17
    }
    
    return 0;
}
    2334:	0f 91       	pop	r16
    2336:	ff 90       	pop	r15
    2338:	ef 90       	pop	r14
    233a:	df 90       	pop	r13
    233c:	08 95       	ret

0000233e <TextAdventure>:
    233e:	cf 93       	push	r28
    2340:	7f d8       	rcall	.-3842   	; 0x1440 <CheckSend>
    2342:	81 11       	cpse	r24, r1
    2344:	0f c0       	rjmp	.+30     	; 0x2364 <TextAdventure+0x26>
    
    //Sending data to serial?
    if (CheckSend()) return 1;

    //Not sending? Process next response part to send
    if (CheckResponse()) return 1;        
    2346:	d9 d8       	rcall	.-3662   	; 0x14fa <CheckResponse>
    2348:	81 11       	cpse	r24, r1
    234a:	0e c0       	rjmp	.+28     	; 0x2368 <TextAdventure+0x2a>

    //No responses to send, check if there is user input.
    if (CheckInput(&serInput[0])) return 2; //No (valid) input
    234c:	8d e9       	ldi	r24, 0x9D	; 157
    234e:	98 e3       	ldi	r25, 0x38	; 56
    2350:	1c d9       	rcall	.-3528   	; 0x158a <CheckInput>
    2352:	c8 2f       	mov	r28, r24
    2354:	81 11       	cpse	r24, r1
    2356:	0a c0       	rjmp	.+20     	; 0x236c <TextAdventure+0x2e>

    //Input found, process and save (changes only)
    ProcessInput(&serInput[0]);
    2358:	8d e9       	ldi	r24, 0x9D	; 157
    235a:	98 e3       	ldi	r25, 0x38	; 56
    235c:	8e da       	rcall	.-2788   	; 0x187a <ProcessInput>
    SaveGameState();
    235e:	0e 94 03 06 	call	0xc06	; 0xc06 <SaveGameState>

    return 0;
    2362:	05 c0       	rjmp	.+10     	; 0x236e <TextAdventure+0x30>
// Main game loop
uint8_t TextAdventure(){
    static uint8_t serInput[RXLEN];
    
    //Sending data to serial?
    if (CheckSend()) return 1;
    2364:	c1 e0       	ldi	r28, 0x01	; 1
    2366:	03 c0       	rjmp	.+6      	; 0x236e <TextAdventure+0x30>

    //Not sending? Process next response part to send
    if (CheckResponse()) return 1;        
    2368:	c1 e0       	ldi	r28, 0x01	; 1
    236a:	01 c0       	rjmp	.+2      	; 0x236e <TextAdventure+0x30>

    //No responses to send, check if there is user input.
    if (CheckInput(&serInput[0])) return 2; //No (valid) input
    236c:	c2 e0       	ldi	r28, 0x02	; 2
    //Input found, process and save (changes only)
    ProcessInput(&serInput[0]);
    SaveGameState();

    return 0;
    236e:	8c 2f       	mov	r24, r28
    2370:	cf 91       	pop	r28
    2372:	08 95       	ret

00002374 <main>:


//This is where it begins, inits first and main program in while(1) loop.
int main(void)
{
    Setup();
    2374:	0e 94 ae 01 	call	0x35c	; 0x35c <Setup>

    //SerSpeed(1);
    //unsigned char strTest[]="\aHckerHotel2020 badge pest!\b\b\b\b\bt\n";
    //SerSend(&strTest[0]);

    SerSpeed(255);
    2378:	8f ef       	ldi	r24, 0xFF	; 255
    237a:	0e 94 20 05 	call	0xa40	; 0xa40 <SerSpeed>
    ////Turn on LEDs on low setting to check for interrupt glitches

    //"Hacker"
    for (uint8_t n=0; n<6; n++){
    237e:	80 e0       	ldi	r24, 0x00	; 0
    2380:	11 c0       	rjmp	.+34     	; 0x23a4 <main+0x30>
        iLED[HCKR[R][n]] = 1;
    2382:	a8 2f       	mov	r26, r24
    2384:	b0 e0       	ldi	r27, 0x00	; 0
    2386:	a8 51       	subi	r26, 0x18	; 24
    2388:	bb 45       	sbci	r27, 0x5B	; 91
    238a:	ec 91       	ld	r30, X
    238c:	f0 e0       	ldi	r31, 0x00	; 0
    238e:	eb 5f       	subi	r30, 0xFB	; 251
    2390:	f4 4c       	sbci	r31, 0xC4	; 196
    2392:	91 e0       	ldi	r25, 0x01	; 1
    2394:	90 83       	st	Z, r25
        iLED[HCKR[G][n]] = 1;
    2396:	16 96       	adiw	r26, 0x06	; 6
    2398:	ec 91       	ld	r30, X
    239a:	f0 e0       	ldi	r31, 0x00	; 0
    239c:	eb 5f       	subi	r30, 0xFB	; 251
    239e:	f4 4c       	sbci	r31, 0xC4	; 196
    23a0:	90 83       	st	Z, r25

    SerSpeed(255);
    ////Turn on LEDs on low setting to check for interrupt glitches

    //"Hacker"
    for (uint8_t n=0; n<6; n++){
    23a2:	8f 5f       	subi	r24, 0xFF	; 255
    23a4:	86 30       	cpi	r24, 0x06	; 6
    23a6:	68 f3       	brcs	.-38     	; 0x2382 <main+0xe>
    23a8:	80 e0       	ldi	r24, 0x00	; 0
    23aa:	12 c0       	rjmp	.+36     	; 0x23d0 <main+0x5c>
        iLED[HCKR[G][n]] = 1;
    }

    //"Wings"
    for (uint8_t n=0; n<5; n++){
        iLED[WING[L][n]] = 1;
    23ac:	a8 2f       	mov	r26, r24
    23ae:	b0 e0       	ldi	r27, 0x00	; 0
    23b0:	a6 52       	subi	r26, 0x26	; 38
    23b2:	bb 45       	sbci	r27, 0x5B	; 91
    23b4:	15 96       	adiw	r26, 0x05	; 5
    23b6:	ec 91       	ld	r30, X
    23b8:	15 97       	sbiw	r26, 0x05	; 5
    23ba:	f0 e0       	ldi	r31, 0x00	; 0
    23bc:	eb 5f       	subi	r30, 0xFB	; 251
    23be:	f4 4c       	sbci	r31, 0xC4	; 196
    23c0:	91 e0       	ldi	r25, 0x01	; 1
    23c2:	90 83       	st	Z, r25
        iLED[WING[R][n]] = 1;
    23c4:	ec 91       	ld	r30, X
    23c6:	f0 e0       	ldi	r31, 0x00	; 0
    23c8:	eb 5f       	subi	r30, 0xFB	; 251
    23ca:	f4 4c       	sbci	r31, 0xC4	; 196
    23cc:	90 83       	st	Z, r25
        iLED[HCKR[R][n]] = 1;
        iLED[HCKR[G][n]] = 1;
    }

    //"Wings"
    for (uint8_t n=0; n<5; n++){
    23ce:	8f 5f       	subi	r24, 0xFF	; 255
    23d0:	85 30       	cpi	r24, 0x05	; 5
    23d2:	60 f3       	brcs	.-40     	; 0x23ac <main+0x38>
        iLED[WING[L][n]] = 1;
        iLED[WING[R][n]] = 1;
    }    

    //"Others"
    iLED[EYE[G][R]] = 1;
    23d4:	a4 ee       	ldi	r26, 0xE4	; 228
    23d6:	b4 ea       	ldi	r27, 0xA4	; 164
    23d8:	12 96       	adiw	r26, 0x02	; 2
    23da:	ec 91       	ld	r30, X
    23dc:	12 97       	sbiw	r26, 0x02	; 2
    23de:	f0 e0       	ldi	r31, 0x00	; 0
    23e0:	eb 5f       	subi	r30, 0xFB	; 251
    23e2:	f4 4c       	sbci	r31, 0xC4	; 196
    23e4:	81 e0       	ldi	r24, 0x01	; 1
    23e6:	80 83       	st	Z, r24
    iLED[EYE[G][L]] = 1;
    23e8:	13 96       	adiw	r26, 0x03	; 3
    23ea:	ec 91       	ld	r30, X
    23ec:	13 97       	sbiw	r26, 0x03	; 3
    23ee:	f0 e0       	ldi	r31, 0x00	; 0
    23f0:	eb 5f       	subi	r30, 0xFB	; 251
    23f2:	f4 4c       	sbci	r31, 0xC4	; 196
    23f4:	80 83       	st	Z, r24
    iLED[EYE[R][R]] = 1;
    23f6:	ec 91       	ld	r30, X
    23f8:	f0 e0       	ldi	r31, 0x00	; 0
    23fa:	eb 5f       	subi	r30, 0xFB	; 251
    23fc:	f4 4c       	sbci	r31, 0xC4	; 196
    23fe:	80 83       	st	Z, r24
    iLED[EYE[R][L]] = 1;
    2400:	11 96       	adiw	r26, 0x01	; 1
    2402:	ec 91       	ld	r30, X
    2404:	f0 e0       	ldi	r31, 0x00	; 0
    2406:	eb 5f       	subi	r30, 0xFB	; 251
    2408:	f4 4c       	sbci	r31, 0xC4	; 196
    240a:	80 83       	st	Z, r24
    iLED[GEM[R]] = 1;
    240c:	a8 ed       	ldi	r26, 0xD8	; 216
    240e:	b4 ea       	ldi	r27, 0xA4	; 164
    2410:	ec 91       	ld	r30, X
    2412:	f0 e0       	ldi	r31, 0x00	; 0
    2414:	eb 5f       	subi	r30, 0xFB	; 251
    2416:	f4 4c       	sbci	r31, 0xC4	; 196
    2418:	80 83       	st	Z, r24
    iLED[GEM[G]] = 1;
    241a:	11 96       	adiw	r26, 0x01	; 1
    241c:	ec 91       	ld	r30, X
    241e:	f0 e0       	ldi	r31, 0x00	; 0
    2420:	eb 5f       	subi	r30, 0xFB	; 251
    2422:	f4 4c       	sbci	r31, 0xC4	; 196
    2424:	80 83       	st	Z, r24
    iLED[RAT] = 1;
    2426:	e0 91 d7 a4 	lds	r30, 0xA4D7	; 0x80a4d7 <__bss_end+0x6985>
    242a:	f0 e0       	ldi	r31, 0x00	; 0
    242c:	eb 5f       	subi	r30, 0xFB	; 251
    242e:	f4 4c       	sbci	r31, 0xC4	; 196
    2430:	80 83       	st	Z, r24
    iLED[CAT] = 1;
    2432:	e0 91 d6 a4 	lds	r30, 0xA4D6	; 0x80a4d6 <__bss_end+0x6984>
    2436:	f0 e0       	ldi	r31, 0x00	; 0
    2438:	eb 5f       	subi	r30, 0xFB	; 251
    243a:	f4 4c       	sbci	r31, 0xC4	; 196
    243c:	80 83       	st	Z, r24
    //uint8_t txBuffer[TXLEN];                    //Buffer for string data

    while (1)
    {
        GenerateAudio();
    243e:	0e 94 e8 06 	call	0xdd0	; 0xdd0 <GenerateAudio>

        if (buttonMark){
    2442:	80 91 9a 38 	lds	r24, 0x389A	; 0x80389a <buttonMark>
    2446:	88 23       	and	r24, r24
    2448:	d1 f3       	breq	.-12     	; 0x243e <main+0xca>
            buttonState = CheckButtons(buttonState);
    244a:	80 91 84 3a 	lds	r24, 0x3A84	; 0x803a84 <buttonState>
    244e:	0e 94 2e 05 	call	0xa5c	; 0xa5c <CheckButtons>
    2452:	80 93 84 3a 	sts	0x3A84, r24	; 0x803a84 <buttonState>
            buttonMark = 0;
    2456:	10 92 9a 38 	sts	0x389A, r1	; 0x80389a <buttonMark>
                    if (serTxDone){
                        txBuffer[0] = buttonState;
                        SerSend(&txBuffer[0]);
                    }
*/
            TextAdventure();
    245a:	71 df       	rcall	.-286    	; 0x233e <TextAdventure>
          
            //Other games & user interaction checks
            //MagnetMaze();
            BastetDictates();
    245c:	0e 94 62 07 	call	0xec4	; 0xec4 <BastetDictates>
            //MasterMind-ishThing(); //Not sure if to be implemented
            //LanyardCode();
            //MakeFriends();
             
            //Check light sensor status (added hysteresis to preserve writing cycles to internal EEPROM)
            if (adcPhot < 10) WriteStatusBit(116, 1);
    2460:	80 91 e2 3a 	lds	r24, 0x3AE2	; 0x803ae2 <adcPhot>
    2464:	90 91 e3 3a 	lds	r25, 0x3AE3	; 0x803ae3 <adcPhot+0x1>
    2468:	0a 97       	sbiw	r24, 0x0a	; 10
    246a:	20 f4       	brcc	.+8      	; 0x2474 <main+0x100>
    246c:	61 e0       	ldi	r22, 0x01	; 1
    246e:	84 e7       	ldi	r24, 0x74	; 116
    2470:	0e 94 86 06 	call	0xd0c	; 0xd0c <WriteStatusBit>
            if (adcPhot > 100) WriteStatusBit(116, 0);
    2474:	80 91 e2 3a 	lds	r24, 0x3AE2	; 0x803ae2 <adcPhot>
    2478:	90 91 e3 3a 	lds	r25, 0x3AE3	; 0x803ae3 <adcPhot+0x1>
    247c:	85 36       	cpi	r24, 0x65	; 101
    247e:	91 05       	cpc	r25, r1
    2480:	f0 f2       	brcs	.-68     	; 0x243e <main+0xca>
    2482:	60 e0       	ldi	r22, 0x00	; 0
    2484:	84 e7       	ldi	r24, 0x74	; 116
    2486:	0e 94 86 06 	call	0xd0c	; 0xd0c <WriteStatusBit>
    248a:	d9 cf       	rjmp	.-78     	; 0x243e <main+0xca>

0000248c <__udivmodhi4>:
    248c:	aa 1b       	sub	r26, r26
    248e:	bb 1b       	sub	r27, r27
    2490:	51 e1       	ldi	r21, 0x11	; 17
    2492:	07 c0       	rjmp	.+14     	; 0x24a2 <__udivmodhi4_ep>

00002494 <__udivmodhi4_loop>:
    2494:	aa 1f       	adc	r26, r26
    2496:	bb 1f       	adc	r27, r27
    2498:	a6 17       	cp	r26, r22
    249a:	b7 07       	cpc	r27, r23
    249c:	10 f0       	brcs	.+4      	; 0x24a2 <__udivmodhi4_ep>
    249e:	a6 1b       	sub	r26, r22
    24a0:	b7 0b       	sbc	r27, r23

000024a2 <__udivmodhi4_ep>:
    24a2:	88 1f       	adc	r24, r24
    24a4:	99 1f       	adc	r25, r25
    24a6:	5a 95       	dec	r21
    24a8:	a9 f7       	brne	.-22     	; 0x2494 <__udivmodhi4_loop>
    24aa:	80 95       	com	r24
    24ac:	90 95       	com	r25
    24ae:	bc 01       	movw	r22, r24
    24b0:	cd 01       	movw	r24, r26
    24b2:	08 95       	ret

000024b4 <__umulhisi3>:
    24b4:	a2 9f       	mul	r26, r18
    24b6:	b0 01       	movw	r22, r0
    24b8:	b3 9f       	mul	r27, r19
    24ba:	c0 01       	movw	r24, r0
    24bc:	a3 9f       	mul	r26, r19
    24be:	70 0d       	add	r23, r0
    24c0:	81 1d       	adc	r24, r1
    24c2:	11 24       	eor	r1, r1
    24c4:	91 1d       	adc	r25, r1
    24c6:	b2 9f       	mul	r27, r18
    24c8:	70 0d       	add	r23, r0
    24ca:	81 1d       	adc	r24, r1
    24cc:	11 24       	eor	r1, r1
    24ce:	91 1d       	adc	r25, r1
    24d0:	08 95       	ret

000024d2 <_exit>:
    24d2:	f8 94       	cli

000024d4 <__stop_program>:
    24d4:	ff cf       	rjmp	.-2      	; 0x24d4 <__stop_program>
