
ISR_IO.elf:     file format elf32-avr

Sections:
Idx Name          Size      VMA       LMA       File off  Algn
  0 .data         00000010  00803800  00001417  000014cb  2**0
                  CONTENTS, ALLOC, LOAD, DATA
  1 .text         000013cc  00000000  00000000  000000b4  2**1
                  CONTENTS, ALLOC, LOAD, READONLY, CODE
  2 .rodata       0000004b  000093cc  000013cc  00001480  2**0
                  CONTENTS, ALLOC, LOAD, READONLY, DATA
  3 .bss          00000193  00803810  00803810  000014db  2**0
                  ALLOC
  4 .comment      00000030  00000000  00000000  000014db  2**0
                  CONTENTS, READONLY
  5 .note.gnu.avr.deviceinfo 00000040  00000000  00000000  0000150c  2**2
                  CONTENTS, READONLY
  6 .debug_aranges 000001f0  00000000  00000000  0000154c  2**0
                  CONTENTS, READONLY, DEBUGGING
  7 .debug_info   00003b60  00000000  00000000  0000173c  2**0
                  CONTENTS, READONLY, DEBUGGING
  8 .debug_abbrev 000021e4  00000000  00000000  0000529c  2**0
                  CONTENTS, READONLY, DEBUGGING
  9 .debug_line   00001936  00000000  00000000  00007480  2**0
                  CONTENTS, READONLY, DEBUGGING
 10 .debug_frame  0000065c  00000000  00000000  00008db8  2**2
                  CONTENTS, READONLY, DEBUGGING
 11 .debug_str    000015e9  00000000  00000000  00009414  2**0
                  CONTENTS, READONLY, DEBUGGING
 12 .debug_loc    00001d72  00000000  00000000  0000a9fd  2**0
                  CONTENTS, READONLY, DEBUGGING
 13 .debug_ranges 000001e0  00000000  00000000  0000c76f  2**0
                  CONTENTS, READONLY, DEBUGGING

Disassembly of section .text:

00000000 <__vectors>:
       0:	3d c0       	rjmp	.+122    	; 0x7c <__ctors_end>
       2:	00 00       	nop
       4:	58 c0       	rjmp	.+176    	; 0xb6 <__bad_interrupt>
       6:	00 00       	nop
       8:	56 c0       	rjmp	.+172    	; 0xb6 <__bad_interrupt>
       a:	00 00       	nop
       c:	54 c0       	rjmp	.+168    	; 0xb6 <__bad_interrupt>
       e:	00 00       	nop
      10:	52 c0       	rjmp	.+164    	; 0xb6 <__bad_interrupt>
      12:	00 00       	nop
      14:	50 c0       	rjmp	.+160    	; 0xb6 <__bad_interrupt>
      16:	00 00       	nop
      18:	23 c4       	rjmp	.+2118   	; 0x860 <__vector_6>
      1a:	00 00       	nop
      1c:	75 c4       	rjmp	.+2282   	; 0x908 <__vector_7>
      1e:	00 00       	nop
      20:	77 c2       	rjmp	.+1262   	; 0x510 <__vector_8>
      22:	00 00       	nop
      24:	48 c0       	rjmp	.+144    	; 0xb6 <__bad_interrupt>
      26:	00 00       	nop
      28:	46 c0       	rjmp	.+140    	; 0xb6 <__bad_interrupt>
      2a:	00 00       	nop
      2c:	44 c0       	rjmp	.+136    	; 0xb6 <__bad_interrupt>
      2e:	00 00       	nop
      30:	42 c0       	rjmp	.+132    	; 0xb6 <__bad_interrupt>
      32:	00 00       	nop
      34:	c1 c2       	rjmp	.+1410   	; 0x5b8 <__vector_13>
      36:	00 00       	nop
      38:	f2 c2       	rjmp	.+1508   	; 0x61e <__vector_14>
      3a:	00 00       	nop
      3c:	3c c0       	rjmp	.+120    	; 0xb6 <__bad_interrupt>
      3e:	00 00       	nop
      40:	3a c0       	rjmp	.+116    	; 0xb6 <__bad_interrupt>
      42:	00 00       	nop
      44:	38 c0       	rjmp	.+112    	; 0xb6 <__bad_interrupt>
      46:	00 00       	nop
      48:	36 c0       	rjmp	.+108    	; 0xb6 <__bad_interrupt>
      4a:	00 00       	nop
      4c:	34 c0       	rjmp	.+104    	; 0xb6 <__bad_interrupt>
      4e:	00 00       	nop
      50:	89 c3       	rjmp	.+1810   	; 0x764 <__vector_20>
      52:	00 00       	nop
      54:	30 c0       	rjmp	.+96     	; 0xb6 <__bad_interrupt>
      56:	00 00       	nop
      58:	b3 c3       	rjmp	.+1894   	; 0x7c0 <__vector_22>
      5a:	00 00       	nop
      5c:	2c c0       	rjmp	.+88     	; 0xb6 <__bad_interrupt>
      5e:	00 00       	nop
      60:	2a c0       	rjmp	.+84     	; 0xb6 <__bad_interrupt>
      62:	00 00       	nop
      64:	28 c0       	rjmp	.+80     	; 0xb6 <__bad_interrupt>
      66:	00 00       	nop
      68:	26 c0       	rjmp	.+76     	; 0xb6 <__bad_interrupt>
      6a:	00 00       	nop
      6c:	2b c3       	rjmp	.+1622   	; 0x6c4 <__vector_27>
      6e:	00 00       	nop
      70:	5d c3       	rjmp	.+1722   	; 0x72c <__vector_28>
      72:	00 00       	nop
      74:	20 c0       	rjmp	.+64     	; 0xb6 <__bad_interrupt>
      76:	00 00       	nop
      78:	1e c0       	rjmp	.+60     	; 0xb6 <__bad_interrupt>
	...

0000007c <__ctors_end>:
      7c:	11 24       	eor	r1, r1
      7e:	1f be       	out	0x3f, r1	; 63
      80:	cf ef       	ldi	r28, 0xFF	; 255
      82:	cd bf       	out	0x3d, r28	; 61
      84:	df e3       	ldi	r29, 0x3F	; 63
      86:	de bf       	out	0x3e, r29	; 62

00000088 <__do_copy_data>:
      88:	18 e3       	ldi	r17, 0x38	; 56
      8a:	a0 e0       	ldi	r26, 0x00	; 0
      8c:	b8 e3       	ldi	r27, 0x38	; 56
      8e:	e7 e1       	ldi	r30, 0x17	; 23
      90:	f4 e1       	ldi	r31, 0x14	; 20
      92:	02 c0       	rjmp	.+4      	; 0x98 <__do_copy_data+0x10>
      94:	05 90       	lpm	r0, Z+
      96:	0d 92       	st	X+, r0
      98:	a0 31       	cpi	r26, 0x10	; 16
      9a:	b1 07       	cpc	r27, r17
      9c:	d9 f7       	brne	.-10     	; 0x94 <__do_copy_data+0xc>

0000009e <__do_clear_bss>:
      9e:	29 e3       	ldi	r18, 0x39	; 57
      a0:	a0 e1       	ldi	r26, 0x10	; 16
      a2:	b8 e3       	ldi	r27, 0x38	; 56
      a4:	01 c0       	rjmp	.+2      	; 0xa8 <.do_clear_bss_start>

000000a6 <.do_clear_bss_loop>:
      a6:	1d 92       	st	X+, r1

000000a8 <.do_clear_bss_start>:
      a8:	a3 3a       	cpi	r26, 0xA3	; 163
      aa:	b2 07       	cpc	r27, r18
      ac:	e1 f7       	brne	.-8      	; 0xa6 <.do_clear_bss_loop>
      ae:	0e 94 24 09 	call	0x1248	; 0x1248 <main>
      b2:	0c 94 e4 09 	jmp	0x13c8	; 0x13c8 <_exit>

000000b6 <__bad_interrupt>:
      b6:	a4 cf       	rjmp	.-184    	; 0x0 <__vectors>

000000b8 <I2C_init>:
// the Atmel device documentation mentions a special command for repeated start TWI_MCMD_REPSTART_gc,
// but this is not used in Atmel's demo code, so we don't use it either

void I2C_rep_start(uint8_t shifted_addr)						    // send repeated start, device_addr + LSB set if READ
{
	TWI0.MADDR = shifted_addr;	
      b8:	81 e0       	ldi	r24, 0x01	; 1
      ba:	80 93 22 04 	sts	0x0422, r24	; 0x800422 <__TEXT_REGION_LENGTH__+0x700422>
      be:	e6 e2       	ldi	r30, 0x26	; 38
      c0:	f4 e0       	ldi	r31, 0x04	; 4
      c2:	80 83       	st	Z, r24
      c4:	10 92 30 04 	sts	0x0430, r1	; 0x800430 <__TEXT_REGION_LENGTH__+0x700430>
      c8:	a1 e2       	ldi	r26, 0x21	; 33
      ca:	b4 e0       	ldi	r27, 0x04	; 4
      cc:	92 e0       	ldi	r25, 0x02	; 2
      ce:	9c 93       	st	X, r25
      d0:	90 83       	st	Z, r25
      d2:	10 92 31 04 	sts	0x0431, r1	; 0x800431 <__TEXT_REGION_LENGTH__+0x700431>
      d6:	e0 e1       	ldi	r30, 0x10	; 16
      d8:	f8 e0       	ldi	r31, 0x08	; 8
      da:	9d e2       	ldi	r25, 0x2D	; 45
      dc:	96 83       	std	Z+6, r25	; 0x06
      de:	98 e0       	ldi	r25, 0x08	; 8
      e0:	94 83       	std	Z+4, r25	; 0x04
      e2:	83 83       	std	Z+3, r24	; 0x03
      e4:	8c 93       	st	X, r24
      e6:	85 81       	ldd	r24, Z+5	; 0x05
      e8:	81 60       	ori	r24, 0x01	; 1
      ea:	85 83       	std	Z+5, r24	; 0x05
      ec:	85 81       	ldd	r24, Z+5	; 0x05
      ee:	84 6c       	ori	r24, 0xC4	; 196
      f0:	85 83       	std	Z+5, r24	; 0x05
      f2:	08 95       	ret

000000f4 <I2C_recover>:
      f4:	e0 e1       	ldi	r30, 0x10	; 16
      f6:	f8 e0       	ldi	r31, 0x08	; 8
      f8:	84 81       	ldd	r24, Z+4	; 0x04
      fa:	88 60       	ori	r24, 0x08	; 8
      fc:	84 83       	std	Z+4, r24	; 0x04
      fe:	13 82       	std	Z+3, r1	; 0x03
     100:	82 e0       	ldi	r24, 0x02	; 2
     102:	80 93 22 04 	sts	0x0422, r24	; 0x800422 <__TEXT_REGION_LENGTH__+0x700422>
     106:	89 e0       	ldi	r24, 0x09	; 9
     108:	a1 e2       	ldi	r26, 0x21	; 33
     10a:	b4 e0       	ldi	r27, 0x04	; 4
     10c:	91 e0       	ldi	r25, 0x01	; 1
     10e:	e2 e2       	ldi	r30, 0x22	; 34
     110:	f4 e0       	ldi	r31, 0x04	; 4
     112:	9c 93       	st	X, r25
     114:	20 e1       	ldi	r18, 0x10	; 16
     116:	2a 95       	dec	r18
     118:	f1 f7       	brne	.-4      	; 0x116 <I2C_recover+0x22>
     11a:	00 c0       	rjmp	.+0      	; 0x11c <I2C_recover+0x28>
     11c:	90 83       	st	Z, r25
     11e:	20 e1       	ldi	r18, 0x10	; 16
     120:	2a 95       	dec	r18
     122:	f1 f7       	brne	.-4      	; 0x120 <I2C_recover+0x2c>
     124:	00 c0       	rjmp	.+0      	; 0x126 <I2C_recover+0x32>
     126:	81 50       	subi	r24, 0x01	; 1
     128:	a1 f7       	brne	.-24     	; 0x112 <I2C_recover+0x1e>
     12a:	e0 e1       	ldi	r30, 0x10	; 16
     12c:	f8 e0       	ldi	r31, 0x08	; 8
     12e:	28 e0       	ldi	r18, 0x08	; 8
     130:	24 83       	std	Z+4, r18	; 0x04
     132:	81 e0       	ldi	r24, 0x01	; 1
     134:	83 83       	std	Z+3, r24	; 0x03
     136:	a1 e2       	ldi	r26, 0x21	; 33
     138:	b4 e0       	ldi	r27, 0x04	; 4
     13a:	92 e0       	ldi	r25, 0x02	; 2
     13c:	9c 93       	st	X, r25
     13e:	95 81       	ldd	r25, Z+5	; 0x05
     140:	91 60       	ori	r25, 0x01	; 1
     142:	95 83       	std	Z+5, r25	; 0x05
     144:	95 81       	ldd	r25, Z+5	; 0x05
     146:	94 6c       	ori	r25, 0xC4	; 196
     148:	95 83       	std	Z+5, r25	; 0x05
     14a:	24 83       	std	Z+4, r18	; 0x04
     14c:	83 83       	std	Z+3, r24	; 0x03
     14e:	8c 93       	st	X, r24
     150:	85 81       	ldd	r24, Z+5	; 0x05
     152:	81 60       	ori	r24, 0x01	; 1
     154:	85 83       	std	Z+5, r24	; 0x05
     156:	85 81       	ldd	r24, Z+5	; 0x05
     158:	84 6c       	ori	r24, 0xC4	; 196
     15a:	85 83       	std	Z+5, r24	; 0x05
     15c:	08 95       	ret

0000015e <I2C_start>:
     15e:	28 2f       	mov	r18, r24
     160:	e0 e1       	ldi	r30, 0x10	; 16
     162:	f8 e0       	ldi	r31, 0x08	; 8
     164:	95 81       	ldd	r25, Z+5	; 0x05
     166:	90 6c       	ori	r25, 0xC0	; 192
     168:	95 83       	std	Z+5, r25	; 0x05
     16a:	95 81       	ldd	r25, Z+5	; 0x05
     16c:	89 2f       	mov	r24, r25
     16e:	84 70       	andi	r24, 0x04	; 4
     170:	92 fd       	sbrc	r25, 2
     172:	03 c0       	rjmp	.+6      	; 0x17a <I2C_start+0x1c>
     174:	20 93 17 08 	sts	0x0817, r18	; 0x800817 <__TEXT_REGION_LENGTH__+0x700817>
     178:	08 95       	ret
     17a:	84 e0       	ldi	r24, 0x04	; 4
     17c:	08 95       	ret

0000017e <I2C_wait_ACK>:
     17e:	8c e0       	ldi	r24, 0x0C	; 12
     180:	80 93 d3 38 	sts	0x38D3, r24	; 0x8038d3 <timeout_I2C>
     184:	e0 e1       	ldi	r30, 0x10	; 16
     186:	f8 e0       	ldi	r31, 0x08	; 8
     188:	04 c0       	rjmp	.+8      	; 0x192 <I2C_wait_ACK+0x14>
     18a:	80 91 d3 38 	lds	r24, 0x38D3	; 0x8038d3 <timeout_I2C>
     18e:	88 23       	and	r24, r24
     190:	b9 f0       	breq	.+46     	; 0x1c0 <I2C_wait_ACK+0x42>
     192:	85 81       	ldd	r24, Z+5	; 0x05
     194:	88 23       	and	r24, r24
     196:	1c f0       	brlt	.+6      	; 0x19e <I2C_wait_ACK+0x20>
     198:	85 81       	ldd	r24, Z+5	; 0x05
     19a:	86 ff       	sbrs	r24, 6
     19c:	f6 cf       	rjmp	.-20     	; 0x18a <I2C_wait_ACK+0xc>
     19e:	e0 e1       	ldi	r30, 0x10	; 16
     1a0:	f8 e0       	ldi	r31, 0x08	; 8
     1a2:	85 81       	ldd	r24, Z+5	; 0x05
     1a4:	80 6c       	ori	r24, 0xC0	; 192
     1a6:	85 83       	std	Z+5, r24	; 0x05
     1a8:	85 81       	ldd	r24, Z+5	; 0x05
     1aa:	82 fd       	sbrc	r24, 2
     1ac:	0b c0       	rjmp	.+22     	; 0x1c4 <I2C_wait_ACK+0x46>
     1ae:	80 91 15 08 	lds	r24, 0x0815	; 0x800815 <__TEXT_REGION_LENGTH__+0x700815>
     1b2:	83 fd       	sbrc	r24, 3
     1b4:	09 c0       	rjmp	.+18     	; 0x1c8 <I2C_wait_ACK+0x4a>
     1b6:	80 91 15 08 	lds	r24, 0x0815	; 0x800815 <__TEXT_REGION_LENGTH__+0x700815>
     1ba:	82 95       	swap	r24
     1bc:	81 70       	andi	r24, 0x01	; 1
     1be:	08 95       	ret
     1c0:	8f ef       	ldi	r24, 0xFF	; 255
     1c2:	08 95       	ret
     1c4:	84 e0       	ldi	r24, 0x04	; 4
     1c6:	08 95       	ret
     1c8:	82 e0       	ldi	r24, 0x02	; 2
     1ca:	08 95       	ret

000001cc <I2C_read>:
}

uint8_t	I2C_read(uint8_t *data, uint8_t ack_flag)					// read data, ack_flag 0: send ACK, 1: send NACK, returns status
{
     1cc:	dc 01       	movw	r26, r24
	timeout_I2C = READ_TIMEOUT;										// reset timeout counter, will be decremented by LED matrix interrupt
     1ce:	9c e0       	ldi	r25, 0x0C	; 12
     1d0:	90 93 d3 38 	sts	0x38D3, r25	; 0x8038d3 <timeout_I2C>
	if ((TWI0.MSTATUS & TWI_BUSSTATE_gm) == TWI_BUSSTATE_OWNER_gc)	// if master controls bus
     1d4:	90 91 15 08 	lds	r25, 0x0815	; 0x800815 <__TEXT_REGION_LENGTH__+0x700815>
     1d8:	89 2f       	mov	r24, r25
     1da:	83 70       	andi	r24, 0x03	; 3
     1dc:	82 30       	cpi	r24, 0x02	; 2
     1de:	39 f0       	breq	.+14     	; 0x1ee <I2C_read+0x22>
		else		TWI0.MCTRLB |= TWI_ACKACT_NACK_gc;				// setup NACK (last byte read)
		*data = TWI0.MDATA;
		if (ack_flag == 0) TWI0.MCTRLB |= TWI_MCMD_RECVTRANS_gc;	// send ACK, more bytes to follow					
		return 0;
	}
	else return 8;													// master does not control bus
     1e0:	88 e0       	ldi	r24, 0x08	; 8
     1e2:	08 95       	ret
	timeout_I2C = READ_TIMEOUT;										// reset timeout counter, will be decremented by LED matrix interrupt
	if ((TWI0.MSTATUS & TWI_BUSSTATE_gm) == TWI_BUSSTATE_OWNER_gc)	// if master controls bus
	{		
		while (!(TWI0.MSTATUS & TWI_RIF_bm))						// wait for RIF set (data byte received)
		{
			if (!(timeout_I2C)) return 0xff;			            // return timeout error
     1e4:	90 91 d3 38 	lds	r25, 0x38D3	; 0x8038d3 <timeout_I2C>
     1e8:	91 11       	cpse	r25, r1
     1ea:	03 c0       	rjmp	.+6      	; 0x1f2 <I2C_read+0x26>
     1ec:	2a c0       	rjmp	.+84     	; 0x242 <I2C_read+0x76>
uint8_t	I2C_read(uint8_t *data, uint8_t ack_flag)					// read data, ack_flag 0: send ACK, 1: send NACK, returns status
{
	timeout_I2C = READ_TIMEOUT;										// reset timeout counter, will be decremented by LED matrix interrupt
	if ((TWI0.MSTATUS & TWI_BUSSTATE_gm) == TWI_BUSSTATE_OWNER_gc)	// if master controls bus
	{		
		while (!(TWI0.MSTATUS & TWI_RIF_bm))						// wait for RIF set (data byte received)
     1ee:	e0 e1       	ldi	r30, 0x10	; 16
     1f0:	f8 e0       	ldi	r31, 0x08	; 8
     1f2:	95 81       	ldd	r25, Z+5	; 0x05
     1f4:	99 23       	and	r25, r25
     1f6:	b4 f7       	brge	.-20     	; 0x1e4 <I2C_read+0x18>
		{
			if (!(timeout_I2C)) return 0xff;			            // return timeout error
		}
		TWI0.MSTATUS |= (TWI_RIF_bm | TWI_WIF_bm);					// clear Read and Write interrupt flags	
     1f8:	e0 e1       	ldi	r30, 0x10	; 16
     1fa:	f8 e0       	ldi	r31, 0x08	; 8
     1fc:	95 81       	ldd	r25, Z+5	; 0x05
     1fe:	90 6c       	ori	r25, 0xC0	; 192
     200:	95 83       	std	Z+5, r25	; 0x05
		if (TWI0.MSTATUS & TWI_BUSERR_bm) return 4;					// Bus Error, abort
     202:	95 81       	ldd	r25, Z+5	; 0x05
     204:	92 fd       	sbrc	r25, 2
     206:	1f c0       	rjmp	.+62     	; 0x246 <I2C_read+0x7a>
		if (TWI0.MSTATUS & TWI_ARBLOST_bm) return 2;				// Arbitration Lost, abort
     208:	90 91 15 08 	lds	r25, 0x0815	; 0x800815 <__TEXT_REGION_LENGTH__+0x700815>
     20c:	93 fd       	sbrc	r25, 3
     20e:	1e c0       	rjmp	.+60     	; 0x24c <I2C_read+0x80>
		if (TWI0.MSTATUS & TWI_RXACK_bm) return 1;					// Slave replied with NACK, abort				
     210:	90 91 15 08 	lds	r25, 0x0815	; 0x800815 <__TEXT_REGION_LENGTH__+0x700815>
     214:	89 2f       	mov	r24, r25
     216:	80 71       	andi	r24, 0x10	; 16
     218:	94 fd       	sbrc	r25, 4
     21a:	17 c0       	rjmp	.+46     	; 0x24a <I2C_read+0x7e>
		if (ack_flag == 0) TWI0.MCTRLB &= ~(1 << TWI_ACKACT_bp);	// setup ACK
     21c:	61 11       	cpse	r22, r1
     21e:	09 c0       	rjmp	.+18     	; 0x232 <I2C_read+0x66>
     220:	94 81       	ldd	r25, Z+4	; 0x04
     222:	9b 7f       	andi	r25, 0xFB	; 251
     224:	94 83       	std	Z+4, r25	; 0x04
		else		TWI0.MCTRLB |= TWI_ACKACT_NACK_gc;				// setup NACK (last byte read)
		*data = TWI0.MDATA;
     226:	90 85       	ldd	r25, Z+8	; 0x08
     228:	9c 93       	st	X, r25
		if (ack_flag == 0) TWI0.MCTRLB |= TWI_MCMD_RECVTRANS_gc;	// send ACK, more bytes to follow					
     22a:	94 81       	ldd	r25, Z+4	; 0x04
     22c:	92 60       	ori	r25, 0x02	; 2
     22e:	94 83       	std	Z+4, r25	; 0x04
     230:	08 95       	ret
		TWI0.MSTATUS |= (TWI_RIF_bm | TWI_WIF_bm);					// clear Read and Write interrupt flags	
		if (TWI0.MSTATUS & TWI_BUSERR_bm) return 4;					// Bus Error, abort
		if (TWI0.MSTATUS & TWI_ARBLOST_bm) return 2;				// Arbitration Lost, abort
		if (TWI0.MSTATUS & TWI_RXACK_bm) return 1;					// Slave replied with NACK, abort				
		if (ack_flag == 0) TWI0.MCTRLB &= ~(1 << TWI_ACKACT_bp);	// setup ACK
		else		TWI0.MCTRLB |= TWI_ACKACT_NACK_gc;				// setup NACK (last byte read)
     232:	e0 e1       	ldi	r30, 0x10	; 16
     234:	f8 e0       	ldi	r31, 0x08	; 8
     236:	94 81       	ldd	r25, Z+4	; 0x04
     238:	94 60       	ori	r25, 0x04	; 4
     23a:	94 83       	std	Z+4, r25	; 0x04
		*data = TWI0.MDATA;
     23c:	90 85       	ldd	r25, Z+8	; 0x08
     23e:	9c 93       	st	X, r25
     240:	08 95       	ret
	timeout_I2C = READ_TIMEOUT;										// reset timeout counter, will be decremented by LED matrix interrupt
	if ((TWI0.MSTATUS & TWI_BUSSTATE_gm) == TWI_BUSSTATE_OWNER_gc)	// if master controls bus
	{		
		while (!(TWI0.MSTATUS & TWI_RIF_bm))						// wait for RIF set (data byte received)
		{
			if (!(timeout_I2C)) return 0xff;			            // return timeout error
     242:	8f ef       	ldi	r24, 0xFF	; 255
     244:	08 95       	ret
		}
		TWI0.MSTATUS |= (TWI_RIF_bm | TWI_WIF_bm);					// clear Read and Write interrupt flags	
		if (TWI0.MSTATUS & TWI_BUSERR_bm) return 4;					// Bus Error, abort
     246:	84 e0       	ldi	r24, 0x04	; 4
     248:	08 95       	ret
		if (TWI0.MSTATUS & TWI_ARBLOST_bm) return 2;				// Arbitration Lost, abort
		if (TWI0.MSTATUS & TWI_RXACK_bm) return 1;					// Slave replied with NACK, abort				
     24a:	81 e0       	ldi	r24, 0x01	; 1
		*data = TWI0.MDATA;
		if (ack_flag == 0) TWI0.MCTRLB |= TWI_MCMD_RECVTRANS_gc;	// send ACK, more bytes to follow					
		return 0;
	}
	else return 8;													// master does not control bus
}
     24c:	08 95       	ret

0000024e <I2C_write>:

uint8_t I2C_write(uint8_t *data)									// write data, return status
{
     24e:	fc 01       	movw	r30, r24
	timeout_I2C = WRITE_TIMEOUT;									// reset timeout counter, will be decremented by LED matrix interrupt
     250:	9c e0       	ldi	r25, 0x0C	; 12
     252:	90 93 d3 38 	sts	0x38D3, r25	; 0x8038d3 <timeout_I2C>
	if ((TWI0.MSTATUS & TWI_BUSSTATE_gm) == TWI_BUSSTATE_OWNER_gc)	// if master controls bus
     256:	90 91 15 08 	lds	r25, 0x0815	; 0x800815 <__TEXT_REGION_LENGTH__+0x700815>
     25a:	93 70       	andi	r25, 0x03	; 3
     25c:	92 30       	cpi	r25, 0x02	; 2
     25e:	b1 f4       	brne	.+44     	; 0x28c <I2C_write+0x3e>
	{
		TWI0.MDATA = *data;		
     260:	80 81       	ld	r24, Z
     262:	80 93 18 08 	sts	0x0818, r24	; 0x800818 <__TEXT_REGION_LENGTH__+0x700818>
		while (!(TWI0.MSTATUS & TWI_WIF_bm))						// wait until WIF set, status register contains ACK/NACK bit
     266:	e0 e1       	ldi	r30, 0x10	; 16
     268:	f8 e0       	ldi	r31, 0x08	; 8
     26a:	04 c0       	rjmp	.+8      	; 0x274 <I2C_write+0x26>
		{
			if (!(timeout_I2C)) return 0xff;			            // return timeout error
     26c:	80 91 d3 38 	lds	r24, 0x38D3	; 0x8038d3 <timeout_I2C>
     270:	88 23       	and	r24, r24
     272:	71 f0       	breq	.+28     	; 0x290 <I2C_write+0x42>
{
	timeout_I2C = WRITE_TIMEOUT;									// reset timeout counter, will be decremented by LED matrix interrupt
	if ((TWI0.MSTATUS & TWI_BUSSTATE_gm) == TWI_BUSSTATE_OWNER_gc)	// if master controls bus
	{
		TWI0.MDATA = *data;		
		while (!(TWI0.MSTATUS & TWI_WIF_bm))						// wait until WIF set, status register contains ACK/NACK bit
     274:	85 81       	ldd	r24, Z+5	; 0x05
     276:	86 ff       	sbrs	r24, 6
     278:	f9 cf       	rjmp	.-14     	; 0x26c <I2C_write+0x1e>
		{
			if (!(timeout_I2C)) return 0xff;			            // return timeout error
		}
		if (TWI0.MSTATUS & TWI_BUSERR_bm) return 4;					// Bus Error, abort
     27a:	80 91 15 08 	lds	r24, 0x0815	; 0x800815 <__TEXT_REGION_LENGTH__+0x700815>
     27e:	82 fd       	sbrc	r24, 2
     280:	09 c0       	rjmp	.+18     	; 0x294 <I2C_write+0x46>
		if (TWI0.MSTATUS & TWI_RXACK_bm) return 1;					// Slave replied with NACK, abort
     282:	80 91 15 08 	lds	r24, 0x0815	; 0x800815 <__TEXT_REGION_LENGTH__+0x700815>
	if ((TWI0.MSTATUS & TWI_BUSSTATE_gm) == TWI_BUSSTATE_OWNER_gc)	// if master controls bus
	{
		TWI0.MDATA = *data;		
		while (!(TWI0.MSTATUS & TWI_WIF_bm))						// wait until WIF set, status register contains ACK/NACK bit
		{
			if (!(timeout_I2C)) return 0xff;			            // return timeout error
     286:	82 95       	swap	r24
     288:	81 70       	andi	r24, 0x01	; 1
     28a:	08 95       	ret
		}
		if (TWI0.MSTATUS & TWI_BUSERR_bm) return 4;					// Bus Error, abort
		if (TWI0.MSTATUS & TWI_RXACK_bm) return 1;					// Slave replied with NACK, abort
		return 0;													// no error	
	}
	else return 8;													// master does not control bus
     28c:	88 e0       	ldi	r24, 0x08	; 8
     28e:	08 95       	ret
	if ((TWI0.MSTATUS & TWI_BUSSTATE_gm) == TWI_BUSSTATE_OWNER_gc)	// if master controls bus
	{
		TWI0.MDATA = *data;		
		while (!(TWI0.MSTATUS & TWI_WIF_bm))						// wait until WIF set, status register contains ACK/NACK bit
		{
			if (!(timeout_I2C)) return 0xff;			            // return timeout error
     290:	8f ef       	ldi	r24, 0xFF	; 255
     292:	08 95       	ret
		}
		if (TWI0.MSTATUS & TWI_BUSERR_bm) return 4;					// Bus Error, abort
     294:	84 e0       	ldi	r24, 0x04	; 4
		if (TWI0.MSTATUS & TWI_RXACK_bm) return 1;					// Slave replied with NACK, abort
		return 0;													// no error	
	}
	else return 8;													// master does not control bus
}
     296:	08 95       	ret

00000298 <I2C_stop>:

void I2C_stop()
{
	TWI0.MCTRLB |= TWI_MCMD_STOP_gc;
     298:	e0 e1       	ldi	r30, 0x10	; 16
     29a:	f8 e0       	ldi	r31, 0x08	; 8
     29c:	84 81       	ldd	r24, Z+4	; 0x04
     29e:	83 60       	ori	r24, 0x03	; 3
     2a0:	84 83       	std	Z+4, r24	; 0x04
     2a2:	08 95       	ret

000002a4 <I2C_read_bytes>:
// addr_ptr		address of first array element to transfer
// slave reg	starting slave register
// num_bytes	number of bytes to transfer

uint8_t	I2C_read_bytes(uint8_t slave_addr, uint8_t *reg_ptr, uint8_t reg_len, uint8_t *dat_ptr, uint8_t dat_len)
{
     2a4:	cf 92       	push	r12
     2a6:	df 92       	push	r13
     2a8:	ef 92       	push	r14
     2aa:	ff 92       	push	r15
     2ac:	0f 93       	push	r16
     2ae:	1f 93       	push	r17
     2b0:	cf 93       	push	r28
     2b2:	df 93       	push	r29
     2b4:	eb 01       	movw	r28, r22
     2b6:	c4 2e       	mov	r12, r20
     2b8:	79 01       	movw	r14, r18
	uint8_t status;
	if (dat_len > MAX_LEN) dat_len = MAX_LEN;
	status = I2C_start(slave_addr << 1);							// slave write address, LSB 0
     2ba:	18 2f       	mov	r17, r24
     2bc:	11 0f       	add	r17, r17
     2be:	81 2f       	mov	r24, r17
     2c0:	4e df       	rcall	.-356    	; 0x15e <I2C_start>
	if (status != 0) goto error;
     2c2:	81 11       	cpse	r24, r1
	status = I2C_wait_ACK();										// wait for slave ACK
     2c4:	3c c0       	rjmp	.+120    	; 0x33e <I2C_read_bytes+0x9a>
     2c6:	5b df       	rcall	.-330    	; 0x17e <I2C_wait_ACK>
	if (status == 1) {
     2c8:	81 30       	cpi	r24, 0x01	; 1
		I2C_stop();													// NACK, abort
     2ca:	19 f4       	brne	.+6      	; 0x2d2 <I2C_read_bytes+0x2e>
     2cc:	e5 df       	rcall	.-54     	; 0x298 <I2C_stop>
		return 1;
     2ce:	81 e0       	ldi	r24, 0x01	; 1
     2d0:	38 c0       	rjmp	.+112    	; 0x342 <I2C_read_bytes+0x9e>
	}
	if (status != 0) goto error;
     2d2:	81 11       	cpse	r24, r1
     2d4:	34 c0       	rjmp	.+104    	; 0x33e <I2C_read_bytes+0x9a>
    while(reg_len > 0){
     2d6:	cc 20       	and	r12, r12
     2d8:	79 f0       	breq	.+30     	; 0x2f8 <I2C_read_bytes+0x54>
     2da:	ca 94       	dec	r12
     2dc:	d1 2c       	mov	r13, r1
     2de:	8f ef       	ldi	r24, 0xFF	; 255
     2e0:	c8 1a       	sub	r12, r24
     2e2:	d8 0a       	sbc	r13, r24
     2e4:	cc 0e       	add	r12, r28
	    status = I2C_write(reg_ptr);    							// send slave start register
     2e6:	dd 1e       	adc	r13, r29
     2e8:	ce 01       	movw	r24, r28
     2ea:	b1 df       	rcall	.-158    	; 0x24e <I2C_write>
	    if (status != 0) goto error;
     2ec:	81 11       	cpse	r24, r1
     2ee:	27 c0       	rjmp	.+78     	; 0x33e <I2C_read_bytes+0x9a>
        ++reg_ptr;
     2f0:	21 96       	adiw	r28, 0x01	; 1
	if (status == 1) {
		I2C_stop();													// NACK, abort
		return 1;
	}
	if (status != 0) goto error;
    while(reg_len > 0){
     2f2:	cc 16       	cp	r12, r28
     2f4:	dd 06       	cpc	r13, r29
     2f6:	c1 f7       	brne	.-16     	; 0x2e8 <I2C_read_bytes+0x44>
     2f8:	01 34       	cpi	r16, 0x41	; 65
     2fa:	08 f0       	brcs	.+2      	; 0x2fe <I2C_read_bytes+0x5a>
     2fc:	00 e4       	ldi	r16, 0x40	; 64
	    status = I2C_write(reg_ptr);    							// send slave start register
	    if (status != 0) goto error;
        ++reg_ptr;
        --reg_len;
    }
	I2C_rep_start((slave_addr << 1) + 1);							// slave read address, LSB 1
     2fe:	1f 5f       	subi	r17, 0xFF	; 255
// the Atmel device documentation mentions a special command for repeated start TWI_MCMD_REPSTART_gc,
// but this is not used in Atmel's demo code, so we don't use it either

void I2C_rep_start(uint8_t shifted_addr)						    // send repeated start, device_addr + LSB set if READ
{
	TWI0.MADDR = shifted_addr;	
     300:	10 93 17 08 	sts	0x0817, r17	; 0x800817 <__TEXT_REGION_LENGTH__+0x700817>
	    if (status != 0) goto error;
        ++reg_ptr;
        --reg_len;
    }
	I2C_rep_start((slave_addr << 1) + 1);							// slave read address, LSB 1
	while (dat_len > 1) {
     304:	02 30       	cpi	r16, 0x02	; 2
     306:	90 f0       	brcs	.+36     	; 0x32c <I2C_read_bytes+0x88>
     308:	02 50       	subi	r16, 0x02	; 2
     30a:	c0 2f       	mov	r28, r16
     30c:	d0 e0       	ldi	r29, 0x00	; 0
     30e:	21 96       	adiw	r28, 0x01	; 1
     310:	ce 0d       	add	r28, r14
		status = I2C_read(dat_ptr, 0);								// first bytes, send ACK
     312:	df 1d       	adc	r29, r15
     314:	60 e0       	ldi	r22, 0x00	; 0
     316:	c7 01       	movw	r24, r14
     318:	59 df       	rcall	.-334    	; 0x1cc <I2C_read>
		if (status != 0) goto error;
     31a:	81 11       	cpse	r24, r1
     31c:	10 c0       	rjmp	.+32     	; 0x33e <I2C_read_bytes+0x9a>
		++dat_ptr;
     31e:	8f ef       	ldi	r24, 0xFF	; 255
     320:	e8 1a       	sub	r14, r24
     322:	f8 0a       	sbc	r15, r24
	    if (status != 0) goto error;
        ++reg_ptr;
        --reg_len;
    }
	I2C_rep_start((slave_addr << 1) + 1);							// slave read address, LSB 1
	while (dat_len > 1) {
     324:	ec 16       	cp	r14, r28
     326:	fd 06       	cpc	r15, r29
     328:	a9 f7       	brne	.-22     	; 0x314 <I2C_read_bytes+0x70>
     32a:	01 c0       	rjmp	.+2      	; 0x32e <I2C_read_bytes+0x8a>
		status = I2C_read(dat_ptr, 0);								// first bytes, send ACK
		if (status != 0) goto error;
		++dat_ptr;
		--dat_len;
	}
	status = I2C_read(dat_ptr, 1);									// single or last byte, send NACK
     32c:	e7 01       	movw	r28, r14
     32e:	61 e0       	ldi	r22, 0x01	; 1
     330:	ce 01       	movw	r24, r28
	if (status != 0) goto error;
     332:	4c df       	rcall	.-360    	; 0x1cc <I2C_read>
     334:	81 11       	cpse	r24, r1
	I2C_stop();
     336:	03 c0       	rjmp	.+6      	; 0x33e <I2C_read_bytes+0x9a>
     338:	af df       	rcall	.-162    	; 0x298 <I2C_stop>
	return 0;
     33a:	80 e0       	ldi	r24, 0x00	; 0
     33c:	02 c0       	rjmp	.+4      	; 0x342 <I2C_read_bytes+0x9e>
	
error:
	I2C_recover();													// clock out possibly stuck slave, reset master
     33e:	da de       	rcall	.-588    	; 0xf4 <I2C_recover>
     340:	8f ef       	ldi	r24, 0xFF	; 255
	return 0xff;													// flag error
     342:	df 91       	pop	r29
}
     344:	cf 91       	pop	r28
     346:	1f 91       	pop	r17
     348:	0f 91       	pop	r16
     34a:	ff 90       	pop	r15
     34c:	ef 90       	pop	r14
     34e:	df 90       	pop	r13
     350:	cf 90       	pop	r12
     352:	08 95       	ret

00000354 <Setup>:
     354:	cf 93       	push	r28
    if ((previousValue&0x0F)==bNibble){
        if ((previousValue&0xF0) < 0xF0) previousValue += 0x10; //Same value? Increase time nibble
        return previousValue;       
    } else if (bNibble == 0) return 0xFF; //Buttons released, 0xFF triggers readout, previousValue holds last button value.
              else return bNibble;  //New value  
}
     356:	df 93       	push	r29
     358:	f8 94       	cli
     35a:	88 ed       	ldi	r24, 0xD8	; 216
     35c:	84 bf       	out	0x34, r24	; 52
     35e:	c1 e0       	ldi	r28, 0x01	; 1
     360:	c0 93 61 00 	sts	0x0061, r28	; 0x800061 <__TEXT_REGION_LENGTH__+0x700061>
     364:	8a e4       	ldi	r24, 0x4A	; 74
     366:	80 93 00 04 	sts	0x0400, r24	; 0x800400 <__TEXT_REGION_LENGTH__+0x700400>
     36a:	8c e7       	ldi	r24, 0x7C	; 124
     36c:	80 93 20 04 	sts	0x0420, r24	; 0x800420 <__TEXT_REGION_LENGTH__+0x700420>
     370:	8f e3       	ldi	r24, 0x3F	; 63
     372:	80 93 40 04 	sts	0x0440, r24	; 0x800440 <__TEXT_REGION_LENGTH__+0x700440>
     376:	c0 93 01 02 	sts	0x0201, r28	; 0x800201 <__TEXT_REGION_LENGTH__+0x700201>
     37a:	d2 e0       	ldi	r29, 0x02	; 2
     37c:	d0 93 05 04 	sts	0x0405, r29	; 0x800405 <__TEXT_REGION_LENGTH__+0x700405>
     380:	2b e5       	ldi	r18, 0x5B	; 91
     382:	31 e0       	ldi	r19, 0x01	; 1
     384:	20 93 08 08 	sts	0x0808, r18	; 0x800808 <__TEXT_REGION_LENGTH__+0x700808>
     388:	30 93 09 08 	sts	0x0809, r19	; 0x800809 <__TEXT_REGION_LENGTH__+0x700809>
     38c:	90 ea       	ldi	r25, 0xA0	; 160
     38e:	90 93 05 08 	sts	0x0805, r25	; 0x800805 <__TEXT_REGION_LENGTH__+0x700805>
     392:	90 ec       	ldi	r25, 0xC0	; 192
     394:	90 93 06 08 	sts	0x0806, r25	; 0x800806 <__TEXT_REGION_LENGTH__+0x700806>
     398:	93 e0       	ldi	r25, 0x03	; 3
     39a:	90 93 07 08 	sts	0x0807, r25	; 0x800807 <__TEXT_REGION_LENGTH__+0x700807>
     39e:	1c ba       	out	0x1c, r1	; 28
     3a0:	1d ba       	out	0x1d, r1	; 29
     3a2:	1e ba       	out	0x1e, r1	; 30
     3a4:	1f ba       	out	0x1f, r1	; 31
     3a6:	c0 93 03 0a 	sts	0x0A03, r28	; 0x800a03 <__TEXT_REGION_LENGTH__+0x700a03>
     3aa:	e0 e0       	ldi	r30, 0x00	; 0
     3ac:	fa e0       	ldi	r31, 0x0A	; 10
     3ae:	98 e0       	ldi	r25, 0x08	; 8
     3b0:	90 83       	st	Z, r25
     3b2:	80 93 02 02 	sts	0x0202, r24	; 0x800202 <__TEXT_REGION_LENGTH__+0x700202>
     3b6:	87 e7       	ldi	r24, 0x77	; 119
     3b8:	80 93 01 0a 	sts	0x0A01, r24	; 0x800a01 <__TEXT_REGION_LENGTH__+0x700a01>
     3bc:	c0 93 0a 0a 	sts	0x0A0A, r28	; 0x800a0a <__TEXT_REGION_LENGTH__+0x700a0a>
     3c0:	8b e0       	ldi	r24, 0x0B	; 11
     3c2:	80 93 05 0a 	sts	0x0A05, r24	; 0x800a05 <__TEXT_REGION_LENGTH__+0x700a05>
     3c6:	80 81       	ld	r24, Z
     3c8:	81 60       	ori	r24, 0x01	; 1
     3ca:	80 83       	st	Z, r24
     3cc:	85 e0       	ldi	r24, 0x05	; 5
     3ce:	80 93 40 0a 	sts	0x0A40, r24	; 0x800a40 <__TEXT_REGION_LENGTH__+0x700a40>
     3d2:	10 92 41 0a 	sts	0x0A41, r1	; 0x800a41 <__TEXT_REGION_LENGTH__+0x700a41>
     3d6:	8f ef       	ldi	r24, 0xFF	; 255
     3d8:	91 e0       	ldi	r25, 0x01	; 1
     3da:	80 93 4c 0a 	sts	0x0A4C, r24	; 0x800a4c <__TEXT_REGION_LENGTH__+0x700a4c>
     3de:	90 93 4d 0a 	sts	0x0A4D, r25	; 0x800a4d <__TEXT_REGION_LENGTH__+0x700a4d>
     3e2:	10 92 45 0a 	sts	0x0A45, r1	; 0x800a45 <__TEXT_REGION_LENGTH__+0x700a45>
     3e6:	c0 93 50 0a 	sts	0x0A50, r28	; 0x800a50 <__TEXT_REGION_LENGTH__+0x700a50>
     3ea:	10 92 51 0a 	sts	0x0A51, r1	; 0x800a51 <__TEXT_REGION_LENGTH__+0x700a51>
     3ee:	8b e8       	ldi	r24, 0x8B	; 139
     3f0:	93 e0       	ldi	r25, 0x03	; 3
     3f2:	80 93 5c 0a 	sts	0x0A5C, r24	; 0x800a5c <__TEXT_REGION_LENGTH__+0x700a5c>
     3f6:	90 93 5d 0a 	sts	0x0A5D, r25	; 0x800a5d <__TEXT_REGION_LENGTH__+0x700a5d>
     3fa:	c0 93 55 0a 	sts	0x0A55, r28	; 0x800a55 <__TEXT_REGION_LENGTH__+0x700a55>
     3fe:	5c de       	rcall	.-840    	; 0xb8 <I2C_init>
     400:	82 e1       	ldi	r24, 0x12	; 18
     402:	80 93 a0 00 	sts	0x00A0, r24	; 0x8000a0 <__TEXT_REGION_LENGTH__+0x7000a0>
     406:	80 e2       	ldi	r24, 0x20	; 32
     408:	80 93 a2 00 	sts	0x00A2, r24	; 0x8000a2 <__TEXT_REGION_LENGTH__+0x7000a2>
     40c:	c0 93 a1 00 	sts	0x00A1, r28	; 0x8000a1 <__TEXT_REGION_LENGTH__+0x7000a1>
     410:	e0 e0       	ldi	r30, 0x00	; 0
     412:	f6 e0       	ldi	r31, 0x06	; 6
     414:	86 e0       	ldi	r24, 0x06	; 6
     416:	80 83       	st	Z, r24
     418:	84 e4       	ldi	r24, 0x44	; 68
     41a:	80 93 02 06 	sts	0x0602, r24	; 0x800602 <__TEXT_REGION_LENGTH__+0x700602>
     41e:	8e e1       	ldi	r24, 0x1E	; 30
     420:	80 93 06 06 	sts	0x0606, r24	; 0x800606 <__TEXT_REGION_LENGTH__+0x700606>
     424:	c0 93 0a 06 	sts	0x060A, r28	; 0x80060a <__TEXT_REGION_LENGTH__+0x70060a>
     428:	80 81       	ld	r24, Z
     42a:	81 60       	ori	r24, 0x01	; 1
     42c:	80 83       	st	Z, r24
     42e:	c0 93 08 06 	sts	0x0608, r28	; 0x800608 <__TEXT_REGION_LENGTH__+0x700608>
     432:	e0 e4       	ldi	r30, 0x40	; 64
     434:	f6 e0       	ldi	r31, 0x06	; 6
     436:	10 82       	st	Z, r1
     438:	d0 93 41 06 	sts	0x0641, r29	; 0x800641 <__TEXT_REGION_LENGTH__+0x700641>
     43c:	82 e5       	ldi	r24, 0x52	; 82
     43e:	80 93 42 06 	sts	0x0642, r24	; 0x800642 <__TEXT_REGION_LENGTH__+0x700642>
     442:	84 e0       	ldi	r24, 0x04	; 4
     444:	80 93 45 06 	sts	0x0645, r24	; 0x800645 <__TEXT_REGION_LENGTH__+0x700645>
     448:	80 93 46 06 	sts	0x0646, r24	; 0x800646 <__TEXT_REGION_LENGTH__+0x700646>
     44c:	c0 93 4a 06 	sts	0x064A, r28	; 0x80064a <__TEXT_REGION_LENGTH__+0x70064a>
     450:	80 81       	ld	r24, Z
     452:	81 60       	ori	r24, 0x01	; 1
     454:	80 83       	st	Z, r24
     456:	c0 93 48 06 	sts	0x0648, r28	; 0x800648 <__TEXT_REGION_LENGTH__+0x700648>
     45a:	e0 ea       	ldi	r30, 0xA0	; 160
     45c:	f6 e0       	ldi	r31, 0x06	; 6
     45e:	80 e4       	ldi	r24, 0x40	; 64
     460:	80 83       	st	Z, r24
     462:	80 e8       	ldi	r24, 0x80	; 128
     464:	80 93 a1 06 	sts	0x06A1, r24	; 0x8006a1 <__TEXT_REGION_LENGTH__+0x7006a1>
     468:	80 81       	ld	r24, Z
     46a:	81 60       	ori	r24, 0x01	; 1
     46c:	80 83       	st	Z, r24
     46e:	e1 e4       	ldi	r30, 0x41	; 65
     470:	f1 e0       	ldi	r31, 0x01	; 1
     472:	80 81       	ld	r24, Z
     474:	80 fd       	sbrc	r24, 0
     476:	fd cf       	rjmp	.-6      	; 0x472 <__LOCK_REGION_LENGTH__+0x72>
     478:	80 e3       	ldi	r24, 0x30	; 48
     47a:	80 93 40 01 	sts	0x0140, r24	; 0x800140 <__TEXT_REGION_LENGTH__+0x700140>
     47e:	10 92 47 01 	sts	0x0147, r1	; 0x800147 <__TEXT_REGION_LENGTH__+0x700147>
     482:	e1 e4       	ldi	r30, 0x41	; 65
     484:	f1 e0       	ldi	r31, 0x01	; 1
     486:	80 81       	ld	r24, Z
     488:	82 fd       	sbrc	r24, 2
     48a:	fd cf       	rjmp	.-6      	; 0x486 <__LOCK_REGION_LENGTH__+0x86>
     48c:	ea e4       	ldi	r30, 0x4A	; 74
     48e:	f1 e0       	ldi	r31, 0x01	; 1
     490:	80 e0       	ldi	r24, 0x00	; 0
     492:	98 e7       	ldi	r25, 0x78	; 120
     494:	80 83       	st	Z, r24
     496:	91 83       	std	Z+1, r25	; 0x01
     498:	80 91 48 01 	lds	r24, 0x0148	; 0x800148 <__TEXT_REGION_LENGTH__+0x700148>
     49c:	90 91 49 01 	lds	r25, 0x0149	; 0x800149 <__TEXT_REGION_LENGTH__+0x700149>
     4a0:	60 81       	ld	r22, Z
     4a2:	71 81       	ldd	r23, Z+1	; 0x01
     4a4:	82 96       	adiw	r24, 0x22	; 34
     4a6:	6d d7       	rcall	.+3802   	; 0x1382 <__udivmodhi4>
     4a8:	80 93 80 39 	sts	0x3980, r24	; 0x803980 <tmp16bit>
     4ac:	90 93 81 39 	sts	0x3981, r25	; 0x803981 <tmp16bit+0x1>
     4b0:	e1 e4       	ldi	r30, 0x41	; 65
     4b2:	f1 e0       	ldi	r31, 0x01	; 1
     4b4:	80 81       	ld	r24, Z
     4b6:	83 fd       	sbrc	r24, 3
     4b8:	fd cf       	rjmp	.-6      	; 0x4b4 <__LOCK_REGION_LENGTH__+0xb4>
     4ba:	80 91 80 39 	lds	r24, 0x3980	; 0x803980 <tmp16bit>
     4be:	90 91 81 39 	lds	r25, 0x3981	; 0x803981 <tmp16bit+0x1>
     4c2:	80 93 4c 01 	sts	0x014C, r24	; 0x80014c <__TEXT_REGION_LENGTH__+0x70014c>
     4c6:	90 93 4d 01 	sts	0x014D, r25	; 0x80014d <__TEXT_REGION_LENGTH__+0x70014d>
     4ca:	83 e0       	ldi	r24, 0x03	; 3
     4cc:	80 93 42 01 	sts	0x0142, r24	; 0x800142 <__TEXT_REGION_LENGTH__+0x700142>
     4d0:	81 e0       	ldi	r24, 0x01	; 1
     4d2:	80 93 52 01 	sts	0x0152, r24	; 0x800152 <__TEXT_REGION_LENGTH__+0x700152>
     4d6:	88 e0       	ldi	r24, 0x08	; 8
     4d8:	80 93 50 01 	sts	0x0150, r24	; 0x800150 <__TEXT_REGION_LENGTH__+0x700150>
     4dc:	e1 e4       	ldi	r30, 0x41	; 65
     4de:	f1 e0       	ldi	r31, 0x01	; 1
     4e0:	80 81       	ld	r24, Z
     4e2:	80 fd       	sbrc	r24, 0
     4e4:	fd cf       	rjmp	.-6      	; 0x4e0 <__LOCK_REGION_LENGTH__+0xe0>
     4e6:	e0 e4       	ldi	r30, 0x40	; 64
     4e8:	f1 e0       	ldi	r31, 0x01	; 1
     4ea:	80 81       	ld	r24, Z
     4ec:	81 60       	ori	r24, 0x01	; 1
     4ee:	80 83       	st	Z, r24
     4f0:	e0 e5       	ldi	r30, 0x50	; 80
     4f2:	f1 e0       	ldi	r31, 0x01	; 1
     4f4:	80 81       	ld	r24, Z
     4f6:	81 60       	ori	r24, 0x01	; 1
     4f8:	80 83       	st	Z, r24
     4fa:	e4 ee       	ldi	r30, 0xE4	; 228
     4fc:	f8 e3       	ldi	r31, 0x38	; 56
     4fe:	10 82       	st	Z, r1
     500:	e0 93 2f 39 	sts	0x392F, r30	; 0x80392f <serTxAddr>
     504:	f0 93 30 39 	sts	0x3930, r31	; 0x803930 <serTxAddr+0x1>
     508:	78 94       	sei
     50a:	df 91       	pop	r29
     50c:	cf 91       	pop	r28
     50e:	08 95       	ret

00000510 <__vector_8>:
     510:	1f 92       	push	r1
     512:	0f 92       	push	r0
     514:	0f b6       	in	r0, 0x3f	; 63
     516:	0f 92       	push	r0
     518:	11 24       	eor	r1, r1
     51a:	8f 93       	push	r24
     51c:	9f 93       	push	r25
     51e:	af 93       	push	r26
     520:	bf 93       	push	r27
     522:	ef 93       	push	r30
     524:	ff 93       	push	r31
     526:	87 e0       	ldi	r24, 0x07	; 7
     528:	80 93 46 04 	sts	0x0446, r24	; 0x800446 <__TEXT_REGION_LENGTH__+0x700446>
     52c:	84 e4       	ldi	r24, 0x44	; 68
     52e:	80 93 26 04 	sts	0x0426, r24	; 0x800426 <__TEXT_REGION_LENGTH__+0x700426>
     532:	ec b3       	in	r30, 0x1c	; 28
     534:	f0 e0       	ldi	r31, 0x00	; 0
     536:	ee 0f       	add	r30, r30
     538:	ff 1f       	adc	r31, r31
     53a:	ee 0f       	add	r30, r30
     53c:	ff 1f       	adc	r31, r31
     53e:	ee 0f       	add	r30, r30
     540:	ff 1f       	adc	r31, r31
     542:	ea 5a       	subi	r30, 0xAA	; 170
     544:	f6 4c       	sbci	r31, 0xC6	; 198
     546:	a8 e2       	ldi	r26, 0x28	; 40
     548:	ba e0       	ldi	r27, 0x0A	; 10
     54a:	96 e0       	ldi	r25, 0x06	; 6
     54c:	81 91       	ld	r24, Z+
     54e:	8d 93       	st	X+, r24
     550:	9a 95       	dec	r25
     552:	e1 f7       	brne	.-8      	; 0x54c <__vector_8+0x3c>
     554:	8b e0       	ldi	r24, 0x0B	; 11
     556:	80 93 05 0a 	sts	0x0A05, r24	; 0x800a05 <__TEXT_REGION_LENGTH__+0x700a05>
     55a:	8c b3       	in	r24, 0x1c	; 28
     55c:	83 30       	cpi	r24, 0x03	; 3
     55e:	58 f4       	brcc	.+22     	; 0x576 <__vector_8+0x66>
     560:	8c b3       	in	r24, 0x1c	; 28
     562:	91 e0       	ldi	r25, 0x01	; 1
     564:	01 c0       	rjmp	.+2      	; 0x568 <__vector_8+0x58>
     566:	99 0f       	add	r25, r25
     568:	8a 95       	dec	r24
     56a:	ea f7       	brpl	.-6      	; 0x566 <__vector_8+0x56>
     56c:	99 b9       	out	0x09, r25	; 9
     56e:	8c b3       	in	r24, 0x1c	; 28
     570:	83 95       	inc	r24
     572:	8c bb       	out	0x1c, r24	; 28
     574:	0a c0       	rjmp	.+20     	; 0x58a <__vector_8+0x7a>
     576:	8c b3       	in	r24, 0x1c	; 28
     578:	83 30       	cpi	r24, 0x03	; 3
     57a:	21 f4       	brne	.+8      	; 0x584 <__vector_8+0x74>
     57c:	2a 9a       	sbi	0x05, 2	; 5
     57e:	83 95       	inc	r24
     580:	8c bb       	out	0x1c, r24	; 28
     582:	03 c0       	rjmp	.+6      	; 0x58a <__vector_8+0x7a>
     584:	2e 9a       	sbi	0x05, 6	; 5
     586:	88 27       	eor	r24, r24
     588:	8c bb       	out	0x1c, r24	; 28
     58a:	80 91 d3 38 	lds	r24, 0x38D3	; 0x8038d3 <timeout_I2C>
     58e:	88 23       	and	r24, r24
     590:	29 f0       	breq	.+10     	; 0x59c <__vector_8+0x8c>
     592:	80 91 d3 38 	lds	r24, 0x38D3	; 0x8038d3 <timeout_I2C>
     596:	81 50       	subi	r24, 0x01	; 1
     598:	80 93 d3 38 	sts	0x38D3, r24	; 0x8038d3 <timeout_I2C>
     59c:	8f ef       	ldi	r24, 0xFF	; 255
     59e:	80 93 0b 0a 	sts	0x0A0B, r24	; 0x800a0b <__TEXT_REGION_LENGTH__+0x700a0b>
     5a2:	ff 91       	pop	r31
     5a4:	ef 91       	pop	r30
     5a6:	bf 91       	pop	r27
     5a8:	af 91       	pop	r26
     5aa:	9f 91       	pop	r25
     5ac:	8f 91       	pop	r24
     5ae:	0f 90       	pop	r0
     5b0:	0f be       	out	0x3f, r0	; 63
     5b2:	0f 90       	pop	r0
     5b4:	1f 90       	pop	r1
     5b6:	18 95       	reti

000005b8 <__vector_13>:
     5b8:	1f 92       	push	r1
     5ba:	0f 92       	push	r0
     5bc:	0f b6       	in	r0, 0x3f	; 63
     5be:	0f 92       	push	r0
     5c0:	11 24       	eor	r1, r1
     5c2:	8f 93       	push	r24
     5c4:	9f 93       	push	r25
     5c6:	ef 93       	push	r30
     5c8:	ff 93       	push	r31
     5ca:	e0 91 2f 39 	lds	r30, 0x392F	; 0x80392f <serTxAddr>
     5ce:	f0 91 30 39 	lds	r31, 0x3930	; 0x803930 <serTxAddr+0x1>
     5d2:	80 81       	ld	r24, Z
     5d4:	88 23       	and	r24, r24
     5d6:	91 f0       	breq	.+36     	; 0x5fc <__vector_13+0x44>
     5d8:	80 81       	ld	r24, Z
     5da:	80 93 02 08 	sts	0x0802, r24	; 0x800802 <__TEXT_REGION_LENGTH__+0x700802>
     5de:	80 91 2f 39 	lds	r24, 0x392F	; 0x80392f <serTxAddr>
     5e2:	90 91 30 39 	lds	r25, 0x3930	; 0x803930 <serTxAddr+0x1>
     5e6:	01 96       	adiw	r24, 0x01	; 1
     5e8:	80 93 2f 39 	sts	0x392F, r24	; 0x80392f <serTxAddr>
     5ec:	90 93 30 39 	sts	0x3930, r25	; 0x803930 <serTxAddr+0x1>
     5f0:	e5 e0       	ldi	r30, 0x05	; 5
     5f2:	f8 e0       	ldi	r31, 0x08	; 8
     5f4:	80 81       	ld	r24, Z
     5f6:	80 62       	ori	r24, 0x20	; 32
     5f8:	80 83       	st	Z, r24
     5fa:	05 c0       	rjmp	.+10     	; 0x606 <__vector_13+0x4e>
     5fc:	81 e0       	ldi	r24, 0x01	; 1
     5fe:	80 93 04 38 	sts	0x3804, r24	; 0x803804 <serTxDone>
     602:	10 92 45 0a 	sts	0x0A45, r1	; 0x800a45 <__TEXT_REGION_LENGTH__+0x700a45>
     606:	81 e0       	ldi	r24, 0x01	; 1
     608:	80 93 46 0a 	sts	0x0A46, r24	; 0x800a46 <__TEXT_REGION_LENGTH__+0x700a46>
     60c:	ff 91       	pop	r31
     60e:	ef 91       	pop	r30
     610:	9f 91       	pop	r25
     612:	8f 91       	pop	r24
     614:	0f 90       	pop	r0
     616:	0f be       	out	0x3f, r0	; 63
     618:	0f 90       	pop	r0
     61a:	1f 90       	pop	r1
     61c:	18 95       	reti

0000061e <__vector_14>:
     61e:	1f 92       	push	r1
     620:	0f 92       	push	r0
     622:	0f b6       	in	r0, 0x3f	; 63
     624:	0f 92       	push	r0
     626:	11 24       	eor	r1, r1
     628:	2f 93       	push	r18
     62a:	3f 93       	push	r19
     62c:	4f 93       	push	r20
     62e:	8f 93       	push	r24
     630:	9f 93       	push	r25
     632:	ef 93       	push	r30
     634:	ff 93       	push	r31
     636:	e0 91 02 38 	lds	r30, 0x3802	; 0x803802 <auSmpAddr>
     63a:	f0 91 03 38 	lds	r31, 0x3803	; 0x803803 <auSmpAddr+0x1>
     63e:	80 81       	ld	r24, Z
     640:	81 11       	cpse	r24, r1
     642:	08 c0       	rjmp	.+16     	; 0x654 <__vector_14+0x36>
     644:	80 91 00 38 	lds	r24, 0x3800	; 0x803800 <__data_start>
     648:	90 91 01 38 	lds	r25, 0x3801	; 0x803801 <__data_start+0x1>
     64c:	80 93 02 38 	sts	0x3802, r24	; 0x803802 <auSmpAddr>
     650:	90 93 03 38 	sts	0x3803, r25	; 0x803803 <auSmpAddr+0x1>
     654:	e0 91 02 38 	lds	r30, 0x3802	; 0x803802 <auSmpAddr>
     658:	f0 91 03 38 	lds	r31, 0x3803	; 0x803803 <auSmpAddr+0x1>
     65c:	80 81       	ld	r24, Z
     65e:	88 23       	and	r24, r24
     660:	e1 f0       	breq	.+56     	; 0x69a <__vector_14+0x7c>
     662:	20 81       	ld	r18, Z
     664:	40 91 2c 39 	lds	r20, 0x392C	; 0x80392c <auVolume>
     668:	30 e0       	ldi	r19, 0x00	; 0
     66a:	2f 57       	subi	r18, 0x7F	; 127
     66c:	31 09       	sbc	r19, r1
     66e:	42 9f       	mul	r20, r18
     670:	c0 01       	movw	r24, r0
     672:	43 9f       	mul	r20, r19
     674:	90 0d       	add	r25, r0
     676:	11 24       	eor	r1, r1
     678:	89 2f       	mov	r24, r25
     67a:	99 0f       	add	r25, r25
     67c:	99 0b       	sbc	r25, r25
     67e:	80 58       	subi	r24, 0x80	; 128
     680:	9f 4f       	sbci	r25, 0xFF	; 255
     682:	80 93 a1 06 	sts	0x06A1, r24	; 0x8006a1 <__TEXT_REGION_LENGTH__+0x7006a1>
     686:	80 91 02 38 	lds	r24, 0x3802	; 0x803802 <auSmpAddr>
     68a:	90 91 03 38 	lds	r25, 0x3803	; 0x803803 <auSmpAddr+0x1>
     68e:	01 96       	adiw	r24, 0x01	; 1
     690:	80 93 02 38 	sts	0x3802, r24	; 0x803802 <auSmpAddr>
     694:	90 93 03 38 	sts	0x3803, r25	; 0x803803 <auSmpAddr+0x1>
     698:	06 c0       	rjmp	.+12     	; 0x6a6 <__vector_14+0x88>
     69a:	80 e8       	ldi	r24, 0x80	; 128
     69c:	80 93 a1 06 	sts	0x06A1, r24	; 0x8006a1 <__TEXT_REGION_LENGTH__+0x7006a1>
     6a0:	81 e0       	ldi	r24, 0x01	; 1
     6a2:	80 93 7e 39 	sts	0x397E, r24	; 0x80397e <auPlayDone>
     6a6:	81 e0       	ldi	r24, 0x01	; 1
     6a8:	80 93 56 0a 	sts	0x0A56, r24	; 0x800a56 <__TEXT_REGION_LENGTH__+0x700a56>
     6ac:	ff 91       	pop	r31
     6ae:	ef 91       	pop	r30
     6b0:	9f 91       	pop	r25
     6b2:	8f 91       	pop	r24
     6b4:	4f 91       	pop	r20
     6b6:	3f 91       	pop	r19
     6b8:	2f 91       	pop	r18
     6ba:	0f 90       	pop	r0
     6bc:	0f be       	out	0x3f, r0	; 63
     6be:	0f 90       	pop	r0
     6c0:	1f 90       	pop	r1
     6c2:	18 95       	reti

000006c4 <__vector_27>:
     6c4:	1f 92       	push	r1
     6c6:	0f 92       	push	r0
     6c8:	0f b6       	in	r0, 0x3f	; 63
     6ca:	0f 92       	push	r0
     6cc:	11 24       	eor	r1, r1
     6ce:	8f 93       	push	r24
     6d0:	ef 93       	push	r30
     6d2:	ff 93       	push	r31
     6d4:	80 91 14 38 	lds	r24, 0x3814	; 0x803814 <serRxDone>
     6d8:	81 11       	cpse	r24, r1
     6da:	1d c0       	rjmp	.+58     	; 0x716 <__vector_27+0x52>
     6dc:	ed b3       	in	r30, 0x1d	; 29
     6de:	f0 e0       	ldi	r31, 0x00	; 0
     6e0:	80 91 00 08 	lds	r24, 0x0800	; 0x800800 <__TEXT_REGION_LENGTH__+0x700800>
     6e4:	ec 51       	subi	r30, 0x1C	; 28
     6e6:	f7 4c       	sbci	r31, 0xC7	; 199
     6e8:	80 83       	st	Z, r24
     6ea:	ed b3       	in	r30, 0x1d	; 29
     6ec:	f0 e0       	ldi	r31, 0x00	; 0
     6ee:	ec 51       	subi	r30, 0x1C	; 28
     6f0:	f7 4c       	sbci	r31, 0xC7	; 199
     6f2:	80 81       	ld	r24, Z
     6f4:	8a 30       	cpi	r24, 0x0A	; 10
     6f6:	49 f4       	brne	.+18     	; 0x70a <__vector_27+0x46>
     6f8:	ed b3       	in	r30, 0x1d	; 29
     6fa:	f0 e0       	ldi	r31, 0x00	; 0
     6fc:	ec 51       	subi	r30, 0x1C	; 28
     6fe:	f7 4c       	sbci	r31, 0xC7	; 199
     700:	10 82       	st	Z, r1
     702:	81 e0       	ldi	r24, 0x01	; 1
     704:	80 93 14 38 	sts	0x3814, r24	; 0x803814 <serRxDone>
     708:	06 c0       	rjmp	.+12     	; 0x716 <__vector_27+0x52>
     70a:	8d b3       	in	r24, 0x1d	; 29
     70c:	87 34       	cpi	r24, 0x47	; 71
     70e:	18 f4       	brcc	.+6      	; 0x716 <__vector_27+0x52>
     710:	8d b3       	in	r24, 0x1d	; 29
     712:	8f 5f       	subi	r24, 0xFF	; 255
     714:	8d bb       	out	0x1d, r24	; 29
     716:	80 e8       	ldi	r24, 0x80	; 128
     718:	80 93 04 08 	sts	0x0804, r24	; 0x800804 <__TEXT_REGION_LENGTH__+0x700804>
     71c:	ff 91       	pop	r31
     71e:	ef 91       	pop	r30
     720:	8f 91       	pop	r24
     722:	0f 90       	pop	r0
     724:	0f be       	out	0x3f, r0	; 63
     726:	0f 90       	pop	r0
     728:	1f 90       	pop	r1
     72a:	18 95       	reti

0000072c <__vector_28>:
     72c:	1f 92       	push	r1
     72e:	0f 92       	push	r0
     730:	0f b6       	in	r0, 0x3f	; 63
     732:	0f 92       	push	r0
     734:	11 24       	eor	r1, r1
     736:	8f 93       	push	r24
     738:	ef 93       	push	r30
     73a:	ff 93       	push	r31
     73c:	10 92 4a 0a 	sts	0x0A4A, r1	; 0x800a4a <__TEXT_REGION_LENGTH__+0x700a4a>
     740:	10 92 4b 0a 	sts	0x0A4B, r1	; 0x800a4b <__TEXT_REGION_LENGTH__+0x700a4b>
     744:	81 e0       	ldi	r24, 0x01	; 1
     746:	80 93 45 0a 	sts	0x0A45, r24	; 0x800a45 <__TEXT_REGION_LENGTH__+0x700a45>
     74a:	e5 e0       	ldi	r30, 0x05	; 5
     74c:	f8 e0       	ldi	r31, 0x08	; 8
     74e:	80 81       	ld	r24, Z
     750:	8f 7d       	andi	r24, 0xDF	; 223
     752:	80 83       	st	Z, r24
     754:	ff 91       	pop	r31
     756:	ef 91       	pop	r30
     758:	8f 91       	pop	r24
     75a:	0f 90       	pop	r0
     75c:	0f be       	out	0x3f, r0	; 63
     75e:	0f 90       	pop	r0
     760:	1f 90       	pop	r1
     762:	18 95       	reti

00000764 <__vector_20>:
     764:	1f 92       	push	r1
     766:	0f 92       	push	r0
     768:	0f b6       	in	r0, 0x3f	; 63
     76a:	0f 92       	push	r0
     76c:	11 24       	eor	r1, r1
     76e:	8f 93       	push	r24
     770:	ef 93       	push	r30
     772:	ff 93       	push	r31
     774:	80 91 11 38 	lds	r24, 0x3811	; 0x803811 <adc0Chg>
     778:	81 11       	cpse	r24, r1
     77a:	15 c0       	rjmp	.+42     	; 0x7a6 <__vector_20+0x42>
     77c:	8e b3       	in	r24, 0x1e	; 30
     77e:	8f 5f       	subi	r24, 0xFF	; 255
     780:	8f 71       	andi	r24, 0x1F	; 31
     782:	8e bb       	out	0x1e, r24	; 30
     784:	80 91 06 06 	lds	r24, 0x0606	; 0x800606 <__TEXT_REGION_LENGTH__+0x700606>
     788:	8e 31       	cpi	r24, 0x1E	; 30
     78a:	29 f4       	brne	.+10     	; 0x796 <__vector_20+0x32>
     78c:	80 91 10 06 	lds	r24, 0x0610	; 0x800610 <__TEXT_REGION_LENGTH__+0x700610>
     790:	80 93 7f 39 	sts	0x397F, r24	; 0x80397f <adcTemp>
     794:	0a c0       	rjmp	.+20     	; 0x7aa <__vector_20+0x46>
     796:	ee b3       	in	r30, 0x1e	; 30
     798:	f0 e0       	ldi	r31, 0x00	; 0
     79a:	80 91 10 06 	lds	r24, 0x0610	; 0x800610 <__TEXT_REGION_LENGTH__+0x700610>
     79e:	ea 5c       	subi	r30, 0xCA	; 202
     7a0:	f6 4c       	sbci	r31, 0xC6	; 198
     7a2:	80 83       	st	Z, r24
     7a4:	02 c0       	rjmp	.+4      	; 0x7aa <__vector_20+0x46>
     7a6:	10 92 11 38 	sts	0x3811, r1	; 0x803811 <adc0Chg>
     7aa:	81 e0       	ldi	r24, 0x01	; 1
     7ac:	80 93 0b 06 	sts	0x060B, r24	; 0x80060b <__TEXT_REGION_LENGTH__+0x70060b>
     7b0:	ff 91       	pop	r31
     7b2:	ef 91       	pop	r30
     7b4:	8f 91       	pop	r24
     7b6:	0f 90       	pop	r0
     7b8:	0f be       	out	0x3f, r0	; 63
     7ba:	0f 90       	pop	r0
     7bc:	1f 90       	pop	r1
     7be:	18 95       	reti

000007c0 <__vector_22>:
     7c0:	1f 92       	push	r1
     7c2:	0f 92       	push	r0
     7c4:	0f b6       	in	r0, 0x3f	; 63
     7c6:	0f 92       	push	r0
     7c8:	11 24       	eor	r1, r1
     7ca:	8f 93       	push	r24
     7cc:	9f 93       	push	r25
     7ce:	80 91 46 06 	lds	r24, 0x0646	; 0x800646 <__TEXT_REGION_LENGTH__+0x700646>
     7d2:	81 11       	cpse	r24, r1
     7d4:	0c c0       	rjmp	.+24     	; 0x7ee <__vector_22+0x2e>
     7d6:	80 91 50 06 	lds	r24, 0x0650	; 0x800650 <__TEXT_REGION_LENGTH__+0x700650>
     7da:	90 91 51 06 	lds	r25, 0x0651	; 0x800651 <__TEXT_REGION_LENGTH__+0x700651>
     7de:	80 93 33 39 	sts	0x3933, r24	; 0x803933 <adcPhot>
     7e2:	90 93 34 39 	sts	0x3934, r25	; 0x803934 <adcPhot+0x1>
     7e6:	81 e0       	ldi	r24, 0x01	; 1
     7e8:	80 93 46 06 	sts	0x0646, r24	; 0x800646 <__TEXT_REGION_LENGTH__+0x700646>
     7ec:	23 c0       	rjmp	.+70     	; 0x834 <__vector_22+0x74>
     7ee:	80 91 46 06 	lds	r24, 0x0646	; 0x800646 <__TEXT_REGION_LENGTH__+0x700646>
     7f2:	81 30       	cpi	r24, 0x01	; 1
     7f4:	79 f4       	brne	.+30     	; 0x814 <__vector_22+0x54>
     7f6:	88 e0       	ldi	r24, 0x08	; 8
     7f8:	80 93 06 04 	sts	0x0406, r24	; 0x800406 <__TEXT_REGION_LENGTH__+0x700406>
     7fc:	80 91 50 06 	lds	r24, 0x0650	; 0x800650 <__TEXT_REGION_LENGTH__+0x700650>
     800:	90 91 51 06 	lds	r25, 0x0651	; 0x800651 <__TEXT_REGION_LENGTH__+0x700651>
     804:	80 93 31 39 	sts	0x3931, r24	; 0x803931 <adcHall>
     808:	90 93 32 39 	sts	0x3932, r25	; 0x803932 <adcHall+0x1>
     80c:	84 e0       	ldi	r24, 0x04	; 4
     80e:	80 93 46 06 	sts	0x0646, r24	; 0x800646 <__TEXT_REGION_LENGTH__+0x700646>
     812:	10 c0       	rjmp	.+32     	; 0x834 <__vector_22+0x74>
     814:	80 91 50 06 	lds	r24, 0x0650	; 0x800650 <__TEXT_REGION_LENGTH__+0x700650>
     818:	90 91 51 06 	lds	r25, 0x0651	; 0x800651 <__TEXT_REGION_LENGTH__+0x700651>
     81c:	80 93 2d 39 	sts	0x392D, r24	; 0x80392d <adcBtns>
     820:	90 93 2e 39 	sts	0x392E, r25	; 0x80392e <adcBtns+0x1>
     824:	8f b3       	in	r24, 0x1f	; 31
     826:	8f 30       	cpi	r24, 0x0F	; 15
     828:	29 f4       	brne	.+10     	; 0x834 <__vector_22+0x74>
     82a:	10 92 46 06 	sts	0x0646, r1	; 0x800646 <__TEXT_REGION_LENGTH__+0x700646>
     82e:	88 e0       	ldi	r24, 0x08	; 8
     830:	80 93 05 04 	sts	0x0405, r24	; 0x800405 <__TEXT_REGION_LENGTH__+0x700405>
     834:	8f b3       	in	r24, 0x1f	; 31
     836:	90 e0       	ldi	r25, 0x00	; 0
     838:	01 96       	adiw	r24, 0x01	; 1
     83a:	8f 70       	andi	r24, 0x0F	; 15
     83c:	90 78       	andi	r25, 0x80	; 128
     83e:	99 23       	and	r25, r25
     840:	24 f4       	brge	.+8      	; 0x84a <__vector_22+0x8a>
     842:	01 97       	sbiw	r24, 0x01	; 1
     844:	80 6f       	ori	r24, 0xF0	; 240
     846:	9f 6f       	ori	r25, 0xFF	; 255
     848:	01 96       	adiw	r24, 0x01	; 1
     84a:	8f bb       	out	0x1f, r24	; 31
     84c:	81 e0       	ldi	r24, 0x01	; 1
     84e:	80 93 4b 06 	sts	0x064B, r24	; 0x80064b <__TEXT_REGION_LENGTH__+0x70064b>
     852:	9f 91       	pop	r25
     854:	8f 91       	pop	r24
     856:	0f 90       	pop	r0
     858:	0f be       	out	0x3f, r0	; 63
     85a:	0f 90       	pop	r0
     85c:	1f 90       	pop	r1
     85e:	18 95       	reti

00000860 <__vector_6>:
     860:	1f 92       	push	r1
     862:	0f 92       	push	r0
     864:	0f b6       	in	r0, 0x3f	; 63
     866:	0f 92       	push	r0
     868:	11 24       	eor	r1, r1
     86a:	5f 93       	push	r21
     86c:	6f 93       	push	r22
     86e:	7f 93       	push	r23
     870:	8f 93       	push	r24
     872:	9f 93       	push	r25
     874:	af 93       	push	r26
     876:	bf 93       	push	r27
     878:	ef 93       	push	r30
     87a:	ff 93       	push	r31
     87c:	80 91 43 01 	lds	r24, 0x0143	; 0x800143 <__TEXT_REGION_LENGTH__+0x700143>
     880:	81 ff       	sbrs	r24, 1
     882:	28 c0       	rjmp	.+80     	; 0x8d4 <__vector_6+0x74>
     884:	80 91 12 38 	lds	r24, 0x3812	; 0x803812 <buttonMark>
     888:	8f 3f       	cpi	r24, 0xFF	; 255
     88a:	29 f0       	breq	.+10     	; 0x896 <__vector_6+0x36>
     88c:	80 91 12 38 	lds	r24, 0x3812	; 0x803812 <buttonMark>
     890:	8f 5f       	subi	r24, 0xFF	; 255
     892:	80 93 12 38 	sts	0x3812, r24	; 0x803812 <buttonMark>
     896:	80 91 48 01 	lds	r24, 0x0148	; 0x800148 <__TEXT_REGION_LENGTH__+0x700148>
     89a:	90 91 49 01 	lds	r25, 0x0149	; 0x800149 <__TEXT_REGION_LENGTH__+0x700149>
     89e:	60 91 4a 01 	lds	r22, 0x014A	; 0x80014a <__TEXT_REGION_LENGTH__+0x70014a>
     8a2:	70 91 4b 01 	lds	r23, 0x014B	; 0x80014b <__TEXT_REGION_LENGTH__+0x70014b>
     8a6:	82 96       	adiw	r24, 0x22	; 34
     8a8:	6c d5       	rcall	.+2776   	; 0x1382 <__udivmodhi4>
     8aa:	80 93 80 39 	sts	0x3980, r24	; 0x803980 <tmp16bit>
     8ae:	90 93 81 39 	sts	0x3981, r25	; 0x803981 <tmp16bit+0x1>
     8b2:	e1 e4       	ldi	r30, 0x41	; 65
     8b4:	f1 e0       	ldi	r31, 0x01	; 1
     8b6:	80 81       	ld	r24, Z
     8b8:	83 fd       	sbrc	r24, 3
     8ba:	fd cf       	rjmp	.-6      	; 0x8b6 <__vector_6+0x56>
     8bc:	80 91 80 39 	lds	r24, 0x3980	; 0x803980 <tmp16bit>
     8c0:	90 91 81 39 	lds	r25, 0x3981	; 0x803981 <tmp16bit+0x1>
     8c4:	80 93 4c 01 	sts	0x014C, r24	; 0x80014c <__TEXT_REGION_LENGTH__+0x70014c>
     8c8:	90 93 4d 01 	sts	0x014D, r25	; 0x80014d <__TEXT_REGION_LENGTH__+0x70014d>
     8cc:	82 e0       	ldi	r24, 0x02	; 2
     8ce:	80 93 43 01 	sts	0x0143, r24	; 0x800143 <__TEXT_REGION_LENGTH__+0x700143>
     8d2:	0c c0       	rjmp	.+24     	; 0x8ec <__vector_6+0x8c>
     8d4:	80 91 13 38 	lds	r24, 0x3813	; 0x803813 <minuteMark>
     8d8:	8f 3f       	cpi	r24, 0xFF	; 255
     8da:	29 f0       	breq	.+10     	; 0x8e6 <__vector_6+0x86>
     8dc:	80 91 13 38 	lds	r24, 0x3813	; 0x803813 <minuteMark>
     8e0:	8f 5f       	subi	r24, 0xFF	; 255
     8e2:	80 93 13 38 	sts	0x3813, r24	; 0x803813 <minuteMark>
     8e6:	81 e0       	ldi	r24, 0x01	; 1
     8e8:	80 93 43 01 	sts	0x0143, r24	; 0x800143 <__TEXT_REGION_LENGTH__+0x700143>
     8ec:	ff 91       	pop	r31
     8ee:	ef 91       	pop	r30
     8f0:	bf 91       	pop	r27
     8f2:	af 91       	pop	r26
     8f4:	9f 91       	pop	r25
     8f6:	8f 91       	pop	r24
     8f8:	7f 91       	pop	r23
     8fa:	6f 91       	pop	r22
     8fc:	5f 91       	pop	r21
     8fe:	0f 90       	pop	r0
     900:	0f be       	out	0x3f, r0	; 63
     902:	0f 90       	pop	r0
     904:	1f 90       	pop	r1
     906:	18 95       	reti

00000908 <__vector_7>:
     908:	1f 92       	push	r1
     90a:	0f 92       	push	r0
     90c:	0f b6       	in	r0, 0x3f	; 63
     90e:	0f 92       	push	r0
     910:	11 24       	eor	r1, r1
     912:	8f 93       	push	r24
     914:	81 e0       	ldi	r24, 0x01	; 1
     916:	80 93 48 06 	sts	0x0648, r24	; 0x800648 <__TEXT_REGION_LENGTH__+0x700648>
     91a:	80 93 53 01 	sts	0x0153, r24	; 0x800153 <__TEXT_REGION_LENGTH__+0x700153>
     91e:	8f 91       	pop	r24
     920:	0f 90       	pop	r0
     922:	0f be       	out	0x3f, r0	; 63
     924:	0f 90       	pop	r0
     926:	1f 90       	pop	r1
     928:	18 95       	reti

0000092a <EERead>:
     92a:	e2 e0       	ldi	r30, 0x02	; 2
     92c:	f0 e1       	ldi	r31, 0x10	; 16
     92e:	90 81       	ld	r25, Z
     930:	91 fd       	sbrc	r25, 1
     932:	fd cf       	rjmp	.-6      	; 0x92e <EERead+0x4>
     934:	44 23       	and	r20, r20
     936:	59 f0       	breq	.+22     	; 0x94e <EERead+0x24>
     938:	a6 2f       	mov	r26, r22
     93a:	b7 2f       	mov	r27, r23
     93c:	48 0f       	add	r20, r24
     93e:	e8 2f       	mov	r30, r24
     940:	f0 e0       	ldi	r31, 0x00	; 0
     942:	fc 5e       	subi	r31, 0xEC	; 236
     944:	90 81       	ld	r25, Z
     946:	9d 93       	st	X+, r25
     948:	8f 5f       	subi	r24, 0xFF	; 255
     94a:	48 13       	cpse	r20, r24
     94c:	f8 cf       	rjmp	.-16     	; 0x93e <EERead+0x14>
     94e:	08 95       	ret

00000950 <EEWrite>:
     950:	ff 92       	push	r15
     952:	0f 93       	push	r16
     954:	1f 93       	push	r17
     956:	cf 93       	push	r28
     958:	df 93       	push	r29
     95a:	e8 2f       	mov	r30, r24
     95c:	44 23       	and	r20, r20
     95e:	79 f1       	breq	.+94     	; 0x9be <EEWrite+0x6e>
     960:	c2 e0       	ldi	r28, 0x02	; 2
     962:	d0 e1       	ldi	r29, 0x10	; 16
     964:	3d e9       	ldi	r19, 0x9D	; 157
     966:	00 e0       	ldi	r16, 0x00	; 0
     968:	10 e1       	ldi	r17, 0x10	; 16
     96a:	54 e0       	ldi	r21, 0x04	; 4
     96c:	0f 2e       	mov	r0, r31
     96e:	f3 e0       	ldi	r31, 0x03	; 3
     970:	ff 2e       	mov	r15, r31
     972:	f0 2d       	mov	r31, r0
     974:	88 81       	ld	r24, Y
     976:	81 fd       	sbrc	r24, 1
     978:	fd cf       	rjmp	.-6      	; 0x974 <EEWrite+0x24>
     97a:	34 bf       	out	0x34, r19	; 52
     97c:	d8 01       	movw	r26, r16
     97e:	5c 93       	st	X, r21
     980:	44 23       	and	r20, r20
     982:	91 f0       	breq	.+36     	; 0x9a8 <EEWrite+0x58>
     984:	2e 2f       	mov	r18, r30
     986:	2f 71       	andi	r18, 0x1F	; 31
     988:	91 e0       	ldi	r25, 0x01	; 1
     98a:	9e 0f       	add	r25, r30
     98c:	6f 5f       	subi	r22, 0xFF	; 255
     98e:	7f 4f       	sbci	r23, 0xFF	; 255
     990:	db 01       	movw	r26, r22
     992:	11 97       	sbiw	r26, 0x01	; 1
     994:	8c 91       	ld	r24, X
     996:	f0 e0       	ldi	r31, 0x00	; 0
     998:	fc 5e       	subi	r31, 0xEC	; 236
     99a:	80 83       	st	Z, r24
     99c:	41 50       	subi	r20, 0x01	; 1
     99e:	21 f0       	breq	.+8      	; 0x9a8 <EEWrite+0x58>
     9a0:	e9 2f       	mov	r30, r25
     9a2:	2f 31       	cpi	r18, 0x1F	; 31
     9a4:	79 f7       	brne	.-34     	; 0x984 <EEWrite+0x34>
     9a6:	0f c0       	rjmp	.+30     	; 0x9c6 <EEWrite+0x76>
     9a8:	8d e9       	ldi	r24, 0x9D	; 157
     9aa:	84 bf       	out	0x34, r24	; 52
     9ac:	83 e0       	ldi	r24, 0x03	; 3
     9ae:	80 93 00 10 	sts	0x1000, r24	; 0x801000 <__TEXT_REGION_LENGTH__+0x701000>
     9b2:	80 91 02 10 	lds	r24, 0x1002	; 0x801002 <__TEXT_REGION_LENGTH__+0x701002>
     9b6:	82 fb       	bst	r24, 2
     9b8:	88 27       	eor	r24, r24
     9ba:	80 f9       	bld	r24, 0
     9bc:	0c c0       	rjmp	.+24     	; 0x9d6 <EEWrite+0x86>
     9be:	80 e0       	ldi	r24, 0x00	; 0
     9c0:	0a c0       	rjmp	.+20     	; 0x9d6 <EEWrite+0x86>
     9c2:	81 e0       	ldi	r24, 0x01	; 1
     9c4:	08 c0       	rjmp	.+16     	; 0x9d6 <EEWrite+0x86>
     9c6:	34 bf       	out	0x34, r19	; 52
     9c8:	f8 01       	movw	r30, r16
     9ca:	f0 82       	st	Z, r15
     9cc:	88 81       	ld	r24, Y
     9ce:	82 fd       	sbrc	r24, 2
     9d0:	f8 cf       	rjmp	.-16     	; 0x9c2 <EEWrite+0x72>
     9d2:	e9 2f       	mov	r30, r25
     9d4:	cf cf       	rjmp	.-98     	; 0x974 <EEWrite+0x24>
     9d6:	df 91       	pop	r29
     9d8:	cf 91       	pop	r28
     9da:	1f 91       	pop	r17
     9dc:	0f 91       	pop	r16
     9de:	ff 90       	pop	r15
     9e0:	08 95       	ret

000009e2 <SerSend>:
     9e2:	9c 01       	movw	r18, r24
     9e4:	90 91 04 38 	lds	r25, 0x3804	; 0x803804 <serTxDone>
     9e8:	99 23       	and	r25, r25
     9ea:	59 f0       	breq	.+22     	; 0xa02 <SerSend+0x20>
     9ec:	20 93 2f 39 	sts	0x392F, r18	; 0x80392f <serTxAddr>
     9f0:	30 93 30 39 	sts	0x3930, r19	; 0x803930 <serTxAddr+0x1>
     9f4:	10 92 04 38 	sts	0x3804, r1	; 0x803804 <serTxDone>
     9f8:	81 e0       	ldi	r24, 0x01	; 1
     9fa:	80 93 45 0a 	sts	0x0A45, r24	; 0x800a45 <__TEXT_REGION_LENGTH__+0x700a45>
     9fe:	80 e0       	ldi	r24, 0x00	; 0
     a00:	08 95       	ret
     a02:	81 e0       	ldi	r24, 0x01	; 1
     a04:	08 95       	ret

00000a06 <SerSpeed>:
     a06:	28 2f       	mov	r18, r24
     a08:	81 11       	cpse	r24, r1
     a0a:	01 c0       	rjmp	.+2      	; 0xa0e <SerSpeed+0x8>
     a0c:	21 e0       	ldi	r18, 0x01	; 1
     a0e:	8f ef       	ldi	r24, 0xFF	; 255
     a10:	90 e0       	ldi	r25, 0x00	; 0
     a12:	82 1b       	sub	r24, r18
     a14:	91 09       	sbc	r25, r1
     a16:	98 2f       	mov	r25, r24
     a18:	88 27       	eor	r24, r24
     a1a:	81 50       	subi	r24, 0x01	; 1
     a1c:	9f 4f       	sbci	r25, 0xFF	; 255
     a1e:	80 93 4c 0a 	sts	0x0A4C, r24	; 0x800a4c <__TEXT_REGION_LENGTH__+0x700a4c>
     a22:	90 93 4d 0a 	sts	0x0A4D, r25	; 0x800a4d <__TEXT_REGION_LENGTH__+0x700a4d>
     a26:	08 95       	ret

00000a28 <lfsr>:

uint8_t lfsr(){
    static uint16_t state = 0xd401;
    state ^= (state << 13);
     a28:	80 91 05 38 	lds	r24, 0x3805	; 0x803805 <state.3855>
     a2c:	90 91 06 38 	lds	r25, 0x3806	; 0x803806 <state.3855+0x1>
     a30:	9c 01       	movw	r18, r24
     a32:	32 2f       	mov	r19, r18
     a34:	22 27       	eor	r18, r18
     a36:	32 95       	swap	r19
     a38:	33 0f       	add	r19, r19
     a3a:	30 7e       	andi	r19, 0xE0	; 224
     a3c:	82 27       	eor	r24, r18
     a3e:	93 27       	eor	r25, r19
    state ^= (state >> 9);
     a40:	9c 01       	movw	r18, r24
     a42:	23 2f       	mov	r18, r19
     a44:	33 27       	eor	r19, r19
     a46:	26 95       	lsr	r18
     a48:	82 27       	eor	r24, r18
     a4a:	93 27       	eor	r25, r19
    state ^= (state << 7);
     a4c:	9c 01       	movw	r18, r24
     a4e:	36 95       	lsr	r19
     a50:	32 2f       	mov	r19, r18
     a52:	22 27       	eor	r18, r18
     a54:	37 95       	ror	r19
     a56:	27 95       	ror	r18
     a58:	82 27       	eor	r24, r18
     a5a:	93 27       	eor	r25, r19
     a5c:	80 93 05 38 	sts	0x3805, r24	; 0x803805 <state.3855>
     a60:	90 93 06 38 	sts	0x3806, r25	; 0x803806 <state.3855+0x1>
    return (state & 0xff);
}
     a64:	08 95       	ret

00000a66 <floatSpeed>:

void floatSpeed(uint8_t bits, uint16_t min, uint16_t max){
     a66:	df 92       	push	r13
     a68:	ef 92       	push	r14
     a6a:	ff 92       	push	r15
     a6c:	0f 93       	push	r16
     a6e:	1f 93       	push	r17
     a70:	cf 93       	push	r28
     a72:	df 93       	push	r29
     a74:	e6 2e       	mov	r14, r22
     a76:	f7 2e       	mov	r15, r23
     a78:	8a 01       	movw	r16, r20
    uint16_t val = TCB1_CCMP;
     a7a:	c0 91 5c 0a 	lds	r28, 0x0A5C	; 0x800a5c <__TEXT_REGION_LENGTH__+0x700a5c>
     a7e:	d0 91 5d 0a 	lds	r29, 0x0A5D	; 0x800a5d <__TEXT_REGION_LENGTH__+0x700a5d>
    bits = mask[(bits-1)&0x07];
     a82:	e8 2f       	mov	r30, r24
     a84:	f0 e0       	ldi	r31, 0x00	; 0
     a86:	31 97       	sbiw	r30, 0x01	; 1
     a88:	e7 70       	andi	r30, 0x07	; 7
     a8a:	ff 27       	eor	r31, r31
     a8c:	e9 5f       	subi	r30, 0xF9	; 249
     a8e:	f7 4c       	sbci	r31, 0xC7	; 199
     a90:	d0 80       	ld	r13, Z
    val += (lfsr()&bits);
     a92:	ca df       	rcall	.-108    	; 0xa28 <lfsr>
     a94:	8d 21       	and	r24, r13
     a96:	c8 0f       	add	r28, r24
     a98:	d1 1d       	adc	r29, r1
    val -= (lfsr()&bits);
     a9a:	c6 df       	rcall	.-116    	; 0xa28 <lfsr>
     a9c:	8d 21       	and	r24, r13
     a9e:	c8 1b       	sub	r28, r24
     aa0:	d1 09       	sbc	r29, r1
     aa2:	0c 17       	cp	r16, r28
     aa4:	1d 07       	cpc	r17, r29
     aa6:	08 f4       	brcc	.+2      	; 0xaaa <floatSpeed+0x44>
     aa8:	e8 01       	movw	r28, r16
     aaa:	8e 2d       	mov	r24, r14
     aac:	9f 2d       	mov	r25, r15
     aae:	8c 17       	cp	r24, r28
     ab0:	9d 07       	cpc	r25, r29
     ab2:	08 f4       	brcc	.+2      	; 0xab6 <floatSpeed+0x50>
     ab4:	ce 01       	movw	r24, r28
     ab6:	80 93 5c 0a 	sts	0x0A5C, r24	; 0x800a5c <__TEXT_REGION_LENGTH__+0x700a5c>
    if (val > max) val = max;    //0x038B is normal rate, for wind we need to be a bit slower
    if (val < min) val = min;  
    TCB1_CCMP = val;
     aba:	90 93 5d 0a 	sts	0x0A5D, r25	; 0x800a5d <__TEXT_REGION_LENGTH__+0x700a5d>
     abe:	df 91       	pop	r29
}
     ac0:	cf 91       	pop	r28
     ac2:	1f 91       	pop	r17
     ac4:	0f 91       	pop	r16
     ac6:	ff 90       	pop	r15
     ac8:	ef 90       	pop	r14
     aca:	df 90       	pop	r13
     acc:	08 95       	ret

00000ace <floatAround>:
     ace:	0f 93       	push	r16

uint8_t floatAround(uint8_t sample, uint8_t bits, uint8_t min, uint8_t max){
     ad0:	1f 93       	push	r17
     ad2:	cf 93       	push	r28
     ad4:	df 93       	push	r29
     ad6:	c8 2f       	mov	r28, r24
     ad8:	04 2f       	mov	r16, r20
     ada:	12 2f       	mov	r17, r18
    bits = mask[(bits-1)&0x07];
     adc:	e6 2f       	mov	r30, r22
     ade:	f0 e0       	ldi	r31, 0x00	; 0
     ae0:	31 97       	sbiw	r30, 0x01	; 1
     ae2:	e7 70       	andi	r30, 0x07	; 7
     ae4:	ff 27       	eor	r31, r31
     ae6:	e9 5f       	subi	r30, 0xF9	; 249
     ae8:	f7 4c       	sbci	r31, 0xC7	; 199
     aea:	d0 81       	ld	r29, Z
    sample += lfsr()&bits;
     aec:	9d df       	rcall	.-198    	; 0xa28 <lfsr>
     aee:	8d 23       	and	r24, r29
     af0:	c8 0f       	add	r28, r24
    sample -= lfsr()&bits;
     af2:	9a df       	rcall	.-204    	; 0xa28 <lfsr>
     af4:	8d 23       	and	r24, r29
     af6:	c8 1b       	sub	r28, r24
     af8:	8c 2f       	mov	r24, r28
     afa:	11 23       	and	r17, r17
    if (max){
     afc:	41 f0       	breq	.+16     	; 0xb0e <floatAround+0x40>
     afe:	9c 2f       	mov	r25, r28
     b00:	1c 17       	cp	r17, r28
     b02:	08 f4       	brcc	.+2      	; 0xb06 <floatAround+0x38>
     b04:	91 2f       	mov	r25, r17
     b06:	80 2f       	mov	r24, r16
     b08:	09 17       	cp	r16, r25
     b0a:	08 f4       	brcc	.+2      	; 0xb0e <floatAround+0x40>
     b0c:	89 2f       	mov	r24, r25
     b0e:	df 91       	pop	r29
        if (sample > max) sample = max;
        if (sample < min) sample = min;
    }
    return sample;
}
     b10:	cf 91       	pop	r28
     b12:	1f 91       	pop	r17
     b14:	0f 91       	pop	r16
     b16:	08 95       	ret

00000b18 <SaveGameState>:
     b18:	cf 92       	push	r12

//Save changed data to EEPROM
uint8_t SaveGameState(){
     b1a:	df 92       	push	r13
     b1c:	ff 92       	push	r15
     b1e:	0f 93       	push	r16
     b20:	1f 93       	push	r17
     b22:	cf 93       	push	r28
     b24:	df 93       	push	r29
     b26:	cd b7       	in	r28, 0x3d	; 61
     b28:	de b7       	in	r29, 0x3e	; 62
     b2a:	60 97       	sbiw	r28, 0x10	; 16
     b2c:	cd bf       	out	0x3d, r28	; 61
     b2e:	de bf       	out	0x3e, r29	; 62
    uint8_t gameCheck[16];
    EERead(0, &gameCheck[0], 16);
     b30:	40 e1       	ldi	r20, 0x10	; 16
     b32:	be 01       	movw	r22, r28
     b34:	6f 5f       	subi	r22, 0xFF	; 255
     b36:	7f 4f       	sbci	r23, 0xFF	; 255
     b38:	80 e0       	ldi	r24, 0x00	; 0
     b3a:	f7 de       	rcall	.-530    	; 0x92a <EERead>
     b3c:	04 ed       	ldi	r16, 0xD4	; 212
     b3e:	18 e3       	ldi	r17, 0x38	; 56
     b40:	ce 01       	movw	r24, r28
     b42:	01 96       	adiw	r24, 0x01	; 1
     b44:	6c 01       	movw	r12, r24
    for (uint8_t x=0; x<16; ++x){
     b46:	f1 2c       	mov	r15, r1
        if (gameState[x] != gameCheck[x]){
     b48:	f6 01       	movw	r30, r12
     b4a:	81 91       	ld	r24, Z+
     b4c:	6f 01       	movw	r12, r30
     b4e:	f8 01       	movw	r30, r16
     b50:	90 81       	ld	r25, Z
     b52:	98 17       	cp	r25, r24
     b54:	31 f0       	breq	.+12     	; 0xb62 <SaveGameState+0x4a>
            if (EEWrite(x, &gameState[x], 1)) return 1;
     b56:	41 e0       	ldi	r20, 0x01	; 1
     b58:	b8 01       	movw	r22, r16
     b5a:	8f 2d       	mov	r24, r15
     b5c:	f9 de       	rcall	.-526    	; 0x950 <EEWrite>
     b5e:	81 11       	cpse	r24, r1
     b60:	08 c0       	rjmp	.+16     	; 0xb72 <SaveGameState+0x5a>

//Save changed data to EEPROM
uint8_t SaveGameState(){
    uint8_t gameCheck[16];
    EERead(0, &gameCheck[0], 16);
    for (uint8_t x=0; x<16; ++x){
     b62:	f3 94       	inc	r15
     b64:	0f 5f       	subi	r16, 0xFF	; 255
     b66:	1f 4f       	sbci	r17, 0xFF	; 255
     b68:	f0 e1       	ldi	r31, 0x10	; 16
     b6a:	ff 12       	cpse	r15, r31
     b6c:	ed cf       	rjmp	.-38     	; 0xb48 <SaveGameState+0x30>
        if (gameState[x] != gameCheck[x]){
            if (EEWrite(x, &gameState[x], 1)) return 1;
        }
    }
    return 0;
     b6e:	80 e0       	ldi	r24, 0x00	; 0
     b70:	01 c0       	rjmp	.+2      	; 0xb74 <SaveGameState+0x5c>
uint8_t SaveGameState(){
    uint8_t gameCheck[16];
    EERead(0, &gameCheck[0], 16);
    for (uint8_t x=0; x<16; ++x){
        if (gameState[x] != gameCheck[x]){
            if (EEWrite(x, &gameState[x], 1)) return 1;
     b72:	81 e0       	ldi	r24, 0x01	; 1
        }
    }
    return 0;
}
     b74:	60 96       	adiw	r28, 0x10	; 16
     b76:	cd bf       	out	0x3d, r28	; 61
     b78:	de bf       	out	0x3e, r29	; 62
     b7a:	df 91       	pop	r29
     b7c:	cf 91       	pop	r28
     b7e:	1f 91       	pop	r17
     b80:	0f 91       	pop	r16
     b82:	ff 90       	pop	r15
     b84:	df 90       	pop	r13
     b86:	cf 90       	pop	r12
     b88:	08 95       	ret

00000b8a <ReadStatusBit>:

uint8_t ReadStatusBit(uint8_t number){
    number &= 0x3f;
    if (gameState[number>>3] & (1<<(number%8))) return 1; else return 0;
     b8a:	e8 2f       	mov	r30, r24
     b8c:	ef 73       	andi	r30, 0x3F	; 63
     b8e:	e6 95       	lsr	r30
     b90:	e6 95       	lsr	r30
     b92:	e6 95       	lsr	r30
     b94:	f0 e0       	ldi	r31, 0x00	; 0
     b96:	ec 52       	subi	r30, 0x2C	; 44
     b98:	f7 4c       	sbci	r31, 0xC7	; 199
     b9a:	20 81       	ld	r18, Z
     b9c:	30 e0       	ldi	r19, 0x00	; 0
     b9e:	87 70       	andi	r24, 0x07	; 7
     ba0:	a9 01       	movw	r20, r18
     ba2:	02 c0       	rjmp	.+4      	; 0xba8 <ReadStatusBit+0x1e>
     ba4:	55 95       	asr	r21
     ba6:	47 95       	ror	r20
     ba8:	8a 95       	dec	r24
     baa:	e2 f7       	brpl	.-8      	; 0xba4 <ReadStatusBit+0x1a>
     bac:	ca 01       	movw	r24, r20
}
     bae:	81 70       	andi	r24, 0x01	; 1
     bb0:	08 95       	ret

00000bb2 <WriteStatusBit>:

void WriteStatusBit(uint8_t number, uint8_t state){
    number &= 0x3f;
     bb2:	e8 2f       	mov	r30, r24
     bb4:	ef 73       	andi	r30, 0x3F	; 63
    if (state) gameState[number>>3] |= 1<<(number%8);
     bb6:	66 23       	and	r22, r22
     bb8:	a1 f0       	breq	.+40     	; 0xbe2 <WriteStatusBit+0x30>
     bba:	e6 95       	lsr	r30
     bbc:	e6 95       	lsr	r30
     bbe:	e6 95       	lsr	r30
     bc0:	f0 e0       	ldi	r31, 0x00	; 0
     bc2:	ec 52       	subi	r30, 0x2C	; 44
     bc4:	f7 4c       	sbci	r31, 0xC7	; 199
     bc6:	87 70       	andi	r24, 0x07	; 7
     bc8:	21 e0       	ldi	r18, 0x01	; 1
     bca:	30 e0       	ldi	r19, 0x00	; 0
     bcc:	a9 01       	movw	r20, r18
     bce:	02 c0       	rjmp	.+4      	; 0xbd4 <WriteStatusBit+0x22>
     bd0:	44 0f       	add	r20, r20
     bd2:	55 1f       	adc	r21, r21
     bd4:	8a 95       	dec	r24
     bd6:	e2 f7       	brpl	.-8      	; 0xbd0 <WriteStatusBit+0x1e>
     bd8:	ca 01       	movw	r24, r20
     bda:	90 81       	ld	r25, Z
     bdc:	89 2b       	or	r24, r25
     bde:	80 83       	st	Z, r24
     be0:	08 95       	ret
    else gameState[number>>3] &= ~(1<<(number%8));
     be2:	e6 95       	lsr	r30
     be4:	e6 95       	lsr	r30
     be6:	e6 95       	lsr	r30
     be8:	f0 e0       	ldi	r31, 0x00	; 0
     bea:	ec 52       	subi	r30, 0x2C	; 44
     bec:	f7 4c       	sbci	r31, 0xC7	; 199
     bee:	87 70       	andi	r24, 0x07	; 7
     bf0:	21 e0       	ldi	r18, 0x01	; 1
     bf2:	30 e0       	ldi	r19, 0x00	; 0
     bf4:	a9 01       	movw	r20, r18
     bf6:	02 c0       	rjmp	.+4      	; 0xbfc <WriteStatusBit+0x4a>
     bf8:	44 0f       	add	r20, r20
     bfa:	55 1f       	adc	r21, r21
     bfc:	8a 95       	dec	r24
     bfe:	e2 f7       	brpl	.-8      	; 0xbf8 <WriteStatusBit+0x46>
     c00:	ca 01       	movw	r24, r20
     c02:	80 95       	com	r24
     c04:	90 81       	ld	r25, Z
     c06:	89 23       	and	r24, r25
     c08:	80 83       	st	Z, r24
     c0a:	08 95       	ret

00000c0c <Reset>:
}

void Reset(){
     c0c:	e4 ed       	ldi	r30, 0xD4	; 212
     c0e:	f8 e3       	ldi	r31, 0x38	; 56
     c10:	84 ee       	ldi	r24, 0xE4	; 228
     c12:	98 e3       	ldi	r25, 0x38	; 56
    //# 110   set to 1 by FW if badge UUID mod 4 == 0
    //# 111   set to 1 by FW if badge UUID mod 4 == 1
    //# 112   set to 1 by FW if badge UUID mod 4 == 2
    //# 113   set to 1 by FW if badge UUID mod 4 == 3
    for (uint8_t x=0; x<sizeof(gameState); ++x){
        gameState[x] = 0;
     c14:	11 92       	st	Z+, r1
    //Reset game progress (all zeroes) and load some bits:
    //# 110   set to 1 by FW if badge UUID mod 4 == 0
    //# 111   set to 1 by FW if badge UUID mod 4 == 1
    //# 112   set to 1 by FW if badge UUID mod 4 == 2
    //# 113   set to 1 by FW if badge UUID mod 4 == 3
    for (uint8_t x=0; x<sizeof(gameState); ++x){
     c16:	8e 17       	cp	r24, r30
     c18:	9f 07       	cpc	r25, r31
     c1a:	e1 f7       	brne	.-8      	; 0xc14 <Reset+0x8>
     c1c:	e3 e0       	ldi	r30, 0x03	; 3
     c1e:	f1 e1       	ldi	r31, 0x11	; 17
     c20:	80 e0       	ldi	r24, 0x00	; 0
    uint8_t *serNum;
    serNum = (uint8_t*)&SIGROW_SERNUM0;
    
    //Give out a number 0..3, calculated using serial number fields
    for (uint8_t x=0; x<10; ++x){
        id += *serNum;
     c22:	91 91       	ld	r25, Z+
     c24:	89 0f       	add	r24, r25
    uint8_t id = 0;
    uint8_t *serNum;
    serNum = (uint8_t*)&SIGROW_SERNUM0;
    
    //Give out a number 0..3, calculated using serial number fields
    for (uint8_t x=0; x<10; ++x){
     c26:	ed 30       	cpi	r30, 0x0D	; 13
     c28:	91 e1       	ldi	r25, 0x11	; 17
     c2a:	f9 07       	cpc	r31, r25
     c2c:	d1 f7       	brne	.-12     	; 0xc22 <Reset+0x16>
        id += *serNum;
        ++serNum;
    }
    id %= 4;
     c2e:	83 70       	andi	r24, 0x03	; 3

    //Write bit in gameState location 110..113
    if (id == 0) WriteStatusBit(110, 1);
     c30:	31 f4       	brne	.+12     	; 0xc3e <Reset+0x32>
    if (gameState[number>>3] & (1<<(number%8))) return 1; else return 0;
}

void WriteStatusBit(uint8_t number, uint8_t state){
    number &= 0x3f;
    if (state) gameState[number>>3] |= 1<<(number%8);
     c32:	e4 ed       	ldi	r30, 0xD4	; 212
     c34:	f8 e3       	ldi	r31, 0x38	; 56
     c36:	85 81       	ldd	r24, Z+5	; 0x05
     c38:	80 64       	ori	r24, 0x40	; 64
     c3a:	85 83       	std	Z+5, r24	; 0x05
     c3c:	08 95       	ret
    }
    id %= 4;

    //Write bit in gameState location 110..113
    if (id == 0) WriteStatusBit(110, 1);
    else if (id == 1) WriteStatusBit(111, 1);
     c3e:	81 30       	cpi	r24, 0x01	; 1
     c40:	31 f4       	brne	.+12     	; 0xc4e <Reset+0x42>
    if (gameState[number>>3] & (1<<(number%8))) return 1; else return 0;
}

void WriteStatusBit(uint8_t number, uint8_t state){
    number &= 0x3f;
    if (state) gameState[number>>3] |= 1<<(number%8);
     c42:	e4 ed       	ldi	r30, 0xD4	; 212
     c44:	f8 e3       	ldi	r31, 0x38	; 56
     c46:	85 81       	ldd	r24, Z+5	; 0x05
     c48:	80 68       	ori	r24, 0x80	; 128
     c4a:	85 83       	std	Z+5, r24	; 0x05
     c4c:	08 95       	ret
    id %= 4;

    //Write bit in gameState location 110..113
    if (id == 0) WriteStatusBit(110, 1);
    else if (id == 1) WriteStatusBit(111, 1);
    else if (id == 2) WriteStatusBit(112, 1);
     c4e:	82 30       	cpi	r24, 0x02	; 2
     c50:	31 f4       	brne	.+12     	; 0xc5e <Reset+0x52>
    if (gameState[number>>3] & (1<<(number%8))) return 1; else return 0;
}

void WriteStatusBit(uint8_t number, uint8_t state){
    number &= 0x3f;
    if (state) gameState[number>>3] |= 1<<(number%8);
     c52:	e4 ed       	ldi	r30, 0xD4	; 212
     c54:	f8 e3       	ldi	r31, 0x38	; 56
     c56:	86 81       	ldd	r24, Z+6	; 0x06
     c58:	81 60       	ori	r24, 0x01	; 1
     c5a:	86 83       	std	Z+6, r24	; 0x06
     c5c:	08 95       	ret

    //Write bit in gameState location 110..113
    if (id == 0) WriteStatusBit(110, 1);
    else if (id == 1) WriteStatusBit(111, 1);
    else if (id == 2) WriteStatusBit(112, 1);
    else if (id == 3) WriteStatusBit(113, 1);
     c5e:	83 30       	cpi	r24, 0x03	; 3
     c60:	29 f4       	brne	.+10     	; 0xc6c <Reset+0x60>
    if (gameState[number>>3] & (1<<(number%8))) return 1; else return 0;
}

void WriteStatusBit(uint8_t number, uint8_t state){
    number &= 0x3f;
    if (state) gameState[number>>3] |= 1<<(number%8);
     c62:	e4 ed       	ldi	r30, 0xD4	; 212
     c64:	f8 e3       	ldi	r31, 0x38	; 56
     c66:	86 81       	ldd	r24, Z+6	; 0x06
     c68:	82 60       	ori	r24, 0x02	; 2
     c6a:	86 83       	std	Z+6, r24	; 0x06
     c6c:	08 95       	ret

00000c6e <DecryptData>:

//Reads an address from I2C EEPROM
uint16_t ReadAddr (uint16_t offset, uint8_t type){
    uint8_t data[2] = {0,0};
    if (ExtEERead(offset, 2, type, &data[0])) return 0xffff; else return (data[0]<<8|data[1]);
}
     c6e:	cf 93       	push	r28
     c70:	df 93       	push	r29
     c72:	dc 01       	movw	r26, r24
     c74:	e9 01       	movw	r28, r18
     c76:	66 23       	and	r22, r22
     c78:	a9 f0       	breq	.+42     	; 0xca4 <DecryptData+0x36>
     c7a:	50 e0       	ldi	r21, 0x00	; 0
     c7c:	44 0f       	add	r20, r20
     c7e:	55 1f       	adc	r21, r21
     c80:	44 0f       	add	r20, r20
     c82:	55 1f       	adc	r21, r21
     c84:	44 0f       	add	r20, r20
     c86:	55 1f       	adc	r21, r21
     c88:	4d 51       	subi	r20, 0x1D	; 29
     c8a:	5c 46       	sbci	r21, 0x6C	; 108
     c8c:	fd 01       	movw	r30, r26
     c8e:	e7 70       	andi	r30, 0x07	; 7
     c90:	ff 27       	eor	r31, r31
     c92:	e4 0f       	add	r30, r20
     c94:	f5 1f       	adc	r31, r21
     c96:	88 81       	ld	r24, Y
     c98:	90 81       	ld	r25, Z
     c9a:	98 27       	eor	r25, r24
     c9c:	99 93       	st	Y+, r25
     c9e:	11 96       	adiw	r26, 0x01	; 1
     ca0:	61 50       	subi	r22, 0x01	; 1
     ca2:	a1 f7       	brne	.-24     	; 0xc8c <DecryptData+0x1e>
     ca4:	df 91       	pop	r29
     ca6:	cf 91       	pop	r28
     ca8:	08 95       	ret

00000caa <ExtEERead>:
     caa:	af 92       	push	r10
     cac:	bf 92       	push	r11
     cae:	cf 92       	push	r12
     cb0:	df 92       	push	r13
     cb2:	ef 92       	push	r14
     cb4:	ff 92       	push	r15
     cb6:	0f 93       	push	r16
     cb8:	1f 93       	push	r17
     cba:	cf 93       	push	r28
     cbc:	df 93       	push	r29
     cbe:	00 d0       	rcall	.+0      	; 0xcc0 <ExtEERead+0x16>
     cc0:	cd b7       	in	r28, 0x3d	; 61
     cc2:	de b7       	in	r29, 0x3e	; 62
     cc4:	d6 2e       	mov	r13, r22
     cc6:	c4 2e       	mov	r12, r20
     cc8:	59 01       	movw	r10, r18
     cca:	7c 01       	movw	r14, r24
     ccc:	e8 94       	clt
     cce:	f7 f8       	bld	r15, 7
     cd0:	f9 82       	std	Y+1, r15	; 0x01
     cd2:	ea 82       	std	Y+2, r14	; 0x02
     cd4:	06 2f       	mov	r16, r22
     cd6:	42 e0       	ldi	r20, 0x02	; 2
     cd8:	be 01       	movw	r22, r28
     cda:	6f 5f       	subi	r22, 0xFF	; 255
     cdc:	7f 4f       	sbci	r23, 0xFF	; 255
     cde:	80 e5       	ldi	r24, 0x50	; 80
     ce0:	e1 da       	rcall	.-2622   	; 0x2a4 <I2C_read_bytes>
     ce2:	18 2f       	mov	r17, r24
     ce4:	81 11       	cpse	r24, r1
     ce6:	05 c0       	rjmp	.+10     	; 0xcf2 <ExtEERead+0x48>
     ce8:	95 01       	movw	r18, r10
     cea:	4c 2d       	mov	r20, r12
     cec:	6d 2d       	mov	r22, r13
     cee:	c7 01       	movw	r24, r14
     cf0:	be df       	rcall	.-132    	; 0xc6e <DecryptData>
     cf2:	81 2f       	mov	r24, r17
     cf4:	0f 90       	pop	r0
     cf6:	0f 90       	pop	r0
     cf8:	df 91       	pop	r29
     cfa:	cf 91       	pop	r28
     cfc:	1f 91       	pop	r17
     cfe:	0f 91       	pop	r16
     d00:	ff 90       	pop	r15
     d02:	ef 90       	pop	r14
     d04:	df 90       	pop	r13
     d06:	cf 90       	pop	r12
     d08:	bf 90       	pop	r11
     d0a:	af 90       	pop	r10
     d0c:	08 95       	ret

00000d0e <ClearTxAfter>:

//Empty all other string
void ClearTxAfter(uint8_t nr){
    for (uint8_t x=(nr+1); x<TXLISTLEN; ++x) txStrLen[x]=0;
     d0e:	8f 5f       	subi	r24, 0xFF	; 255
     d10:	88 30       	cpi	r24, 0x08	; 8
     d12:	40 f4       	brcc	.+16     	; 0xd24 <ClearTxAfter+0x16>
     d14:	e8 2f       	mov	r30, r24
     d16:	f0 e0       	ldi	r31, 0x00	; 0
     d18:	e5 54       	subi	r30, 0x45	; 69
     d1a:	f7 4c       	sbci	r31, 0xC7	; 199
     d1c:	10 82       	st	Z, r1
     d1e:	8f 5f       	subi	r24, 0xFF	; 255
     d20:	88 30       	cpi	r24, 0x08	; 8
     d22:	c1 f7       	brne	.-16     	; 0xd14 <ClearTxAfter+0x6>
     d24:	08 95       	ret

00000d26 <StartsWith>:
}

//Check if a string starts with compare value
uint8_t StartsWith(uint8_t *data, char *compare){
    uint8_t x=0;
    while (data[x] && compare[x]){
     d26:	fc 01       	movw	r30, r24
     d28:	90 81       	ld	r25, Z
     d2a:	91 11       	cpse	r25, r1
     d2c:	07 c0       	rjmp	.+14     	; 0xd3c <StartsWith+0x16>
        if(data[x] != compare[x]) return 0;
        ++x;
        if ((x>=(sizeof(*compare)-1))||(x>=(sizeof(*data)))) break;
    }
    return 1;
     d2e:	81 e0       	ldi	r24, 0x01	; 1
     d30:	08 95       	ret

//Check if a string starts with compare value
uint8_t StartsWith(uint8_t *data, char *compare){
    uint8_t x=0;
    while (data[x] && compare[x]){
        if(data[x] != compare[x]) return 0;
     d32:	81 e0       	ldi	r24, 0x01	; 1
     d34:	92 17       	cp	r25, r18
     d36:	39 f0       	breq	.+14     	; 0xd46 <StartsWith+0x20>
     d38:	80 e0       	ldi	r24, 0x00	; 0
     d3a:	08 95       	ret
}

//Check if a string starts with compare value
uint8_t StartsWith(uint8_t *data, char *compare){
    uint8_t x=0;
    while (data[x] && compare[x]){
     d3c:	fb 01       	movw	r30, r22
     d3e:	20 81       	ld	r18, Z
     d40:	21 11       	cpse	r18, r1
     d42:	f7 cf       	rjmp	.-18     	; 0xd32 <StartsWith+0xc>
        if(data[x] != compare[x]) return 0;
        ++x;
        if ((x>=(sizeof(*compare)-1))||(x>=(sizeof(*data)))) break;
    }
    return 1;
     d44:	81 e0       	ldi	r24, 0x01	; 1
}
     d46:	08 95       	ret

00000d48 <PrepareSending>:

//Put the addresses
uint8_t PrepareSending(uint16_t address, uint16_t length, uint8_t type, uint8_t prompt){
     d48:	1f 93       	push	r17
     d4a:	cf 93       	push	r28
     d4c:	df 93       	push	r29
     d4e:	eb 01       	movw	r28, r22
     d50:	12 2f       	mov	r17, r18
    uint8_t x=0;
    while (length>255) {
     d52:	6f 3f       	cpi	r22, 0xFF	; 255
     d54:	71 05       	cpc	r23, r1
     d56:	d1 f0       	breq	.+52     	; 0xd8c <PrepareSending+0x44>
     d58:	c8 f0       	brcs	.+50     	; 0xd8c <PrepareSending+0x44>
     d5a:	50 e0       	ldi	r21, 0x00	; 0
        txAddrList[x] = address;
        txStrLen[x] = 255;
     d5c:	6f ef       	ldi	r22, 0xFF	; 255

//Put the addresses
uint8_t PrepareSending(uint16_t address, uint16_t length, uint8_t type, uint8_t prompt){
    uint8_t x=0;
    while (length>255) {
        txAddrList[x] = address;
     d5e:	25 2f       	mov	r18, r21
     d60:	30 e0       	ldi	r19, 0x00	; 0
     d62:	f9 01       	movw	r30, r18
     d64:	ee 0f       	add	r30, r30
     d66:	ff 1f       	adc	r31, r31
     d68:	ed 53       	subi	r30, 0x3D	; 61
     d6a:	f7 4c       	sbci	r31, 0xC7	; 199
     d6c:	80 83       	st	Z, r24
     d6e:	91 83       	std	Z+1, r25	; 0x01
        txStrLen[x] = 255;
     d70:	f9 01       	movw	r30, r18
     d72:	e5 54       	subi	r30, 0x45	; 69
     d74:	f7 4c       	sbci	r31, 0xC7	; 199
     d76:	60 83       	st	Z, r22
        address += 255;
     d78:	81 50       	subi	r24, 0x01	; 1
     d7a:	9f 4f       	sbci	r25, 0xFF	; 255
        length -= 255;
     d7c:	cf 5f       	subi	r28, 0xFF	; 255
     d7e:	d1 09       	sbc	r29, r1
        ++x;
     d80:	5f 5f       	subi	r21, 0xFF	; 255
}

//Put the addresses
uint8_t PrepareSending(uint16_t address, uint16_t length, uint8_t type, uint8_t prompt){
    uint8_t x=0;
    while (length>255) {
     d82:	cf 3f       	cpi	r28, 0xFF	; 255
     d84:	d1 05       	cpc	r29, r1
     d86:	09 f0       	breq	.+2      	; 0xd8a <PrepareSending+0x42>
     d88:	50 f7       	brcc	.-44     	; 0xd5e <PrepareSending+0x16>
     d8a:	01 c0       	rjmp	.+2      	; 0xd8e <PrepareSending+0x46>
    return 1;
}

//Put the addresses
uint8_t PrepareSending(uint16_t address, uint16_t length, uint8_t type, uint8_t prompt){
    uint8_t x=0;
     d8c:	50 e0       	ldi	r21, 0x00	; 0
        address += 255;
        length -= 255;
        ++x;
        if (x==(TXLISTLEN-1));
    }
    txAddrList[x]=address;
     d8e:	25 2f       	mov	r18, r21
     d90:	30 e0       	ldi	r19, 0x00	; 0
     d92:	f9 01       	movw	r30, r18
     d94:	ee 0f       	add	r30, r30
     d96:	ff 1f       	adc	r31, r31
     d98:	ed 53       	subi	r30, 0x3D	; 61
     d9a:	f7 4c       	sbci	r31, 0xC7	; 199
     d9c:	80 83       	st	Z, r24
     d9e:	91 83       	std	Z+1, r25	; 0x01
    txStrLen[x]=length%255;
     da0:	f9 01       	movw	r30, r18
     da2:	e5 54       	subi	r30, 0x45	; 69
     da4:	f7 4c       	sbci	r31, 0xC7	; 199
     da6:	9e 01       	movw	r18, r28
     da8:	a1 e8       	ldi	r26, 0x81	; 129
     daa:	b0 e8       	ldi	r27, 0x80	; 128
     dac:	fe d2       	rcall	.+1532   	; 0x13aa <__umulhisi3>
     dae:	88 0f       	add	r24, r24
     db0:	89 2f       	mov	r24, r25
     db2:	88 1f       	adc	r24, r24
     db4:	99 0b       	sbc	r25, r25
     db6:	91 95       	neg	r25
     db8:	6f ef       	ldi	r22, 0xFF	; 255
     dba:	68 9f       	mul	r22, r24
     dbc:	90 01       	movw	r18, r0
     dbe:	69 9f       	mul	r22, r25
     dc0:	30 0d       	add	r19, r0
     dc2:	11 24       	eor	r1, r1
     dc4:	c2 1b       	sub	r28, r18
     dc6:	d3 0b       	sbc	r29, r19
     dc8:	c0 83       	st	Z, r28
    if (length>255) return 1; 
    txTypeNow = type;
     dca:	40 93 b8 38 	sts	0x38B8, r20	; 0x8038b8 <txTypeNow>
    ClearTxAfter(x);
     dce:	85 2f       	mov	r24, r21
     dd0:	9e df       	rcall	.-196    	; 0xd0e <ClearTxAfter>
    sendPrompt = prompt;
     dd2:	10 93 b9 38 	sts	0x38B9, r17	; 0x8038b9 <sendPrompt>
    txAddrNow = 0;  //Start at first pointer, initiates sending in CheckSend
     dd6:	10 92 ba 38 	sts	0x38BA, r1	; 0x8038ba <txAddrNow>
    return 0;
}
     dda:	80 e0       	ldi	r24, 0x00	; 0
     ddc:	df 91       	pop	r29
     dde:	cf 91       	pop	r28
     de0:	1f 91       	pop	r17
     de2:	08 95       	ret

00000de4 <PopulateObject>:

//Get all the relevant data and string addresses of an object
void PopulateObject(uint16_t offset, object_model_t *object){
     de4:	6f 92       	push	r6
     de6:	7f 92       	push	r7
     de8:	8f 92       	push	r8
     dea:	9f 92       	push	r9
     dec:	af 92       	push	r10
     dee:	bf 92       	push	r11
     df0:	cf 92       	push	r12
     df2:	df 92       	push	r13
     df4:	ef 92       	push	r14
     df6:	ff 92       	push	r15
     df8:	0f 93       	push	r16
     dfa:	1f 93       	push	r17
     dfc:	cf 93       	push	r28
     dfe:	df 93       	push	r29
     e00:	cd b7       	in	r28, 0x3d	; 61
     e02:	de b7       	in	r29, 0x3e	; 62
     e04:	2c 97       	sbiw	r28, 0x0c	; 12
     e06:	cd bf       	out	0x3d, r28	; 61
     e08:	de bf       	out	0x3e, r29	; 62
     e0a:	8c 01       	movw	r16, r24
     e0c:	5b 01       	movw	r10, r22
    uint16_t addrStart;
    offset += L_BOILER;

    //Fill things with fixed distance to offset
    uint8_t data[OFF_STRINGFLDS];
    ExtEERead(offset, OFF_STRINGFLDS, GAME, &data[0]);
     e0e:	9e 01       	movw	r18, r28
     e10:	2f 5f       	subi	r18, 0xFF	; 255
     e12:	3f 4f       	sbci	r19, 0xFF	; 255
     e14:	40 e0       	ldi	r20, 0x00	; 0
     e16:	6c e0       	ldi	r22, 0x0C	; 12
     e18:	80 96       	adiw	r24, 0x20	; 32
     e1a:	47 df       	rcall	.-370    	; 0xcaa <ExtEERead>
    object->addrNextObj = (data[OFF_NEXTOBJ]<<8|data[OFF_NEXTOBJ+1])+L_BOILER;
     e1c:	89 81       	ldd	r24, Y+1	; 0x01
     e1e:	90 e0       	ldi	r25, 0x00	; 0
     e20:	98 2f       	mov	r25, r24
     e22:	88 27       	eor	r24, r24
     e24:	2a 81       	ldd	r18, Y+2	; 0x02
     e26:	82 2b       	or	r24, r18
     e28:	80 96       	adiw	r24, 0x20	; 32
     e2a:	f5 01       	movw	r30, r10
     e2c:	80 83       	st	Z, r24
     e2e:	91 83       	std	Z+1, r25	; 0x01
    object->addrNextLvl = (data[OFF_NEXTLVL]<<8|data[OFF_NEXTLVL+1])+L_BOILER;
     e30:	8b 81       	ldd	r24, Y+3	; 0x03
     e32:	90 e0       	ldi	r25, 0x00	; 0
     e34:	98 2f       	mov	r25, r24
     e36:	88 27       	eor	r24, r24
     e38:	2c 81       	ldd	r18, Y+4	; 0x04
     e3a:	82 2b       	or	r24, r18
     e3c:	80 96       	adiw	r24, 0x20	; 32
     e3e:	82 83       	std	Z+2, r24	; 0x02
     e40:	93 83       	std	Z+3, r25	; 0x03
     e42:	fe 01       	movw	r30, r28
     e44:	35 96       	adiw	r30, 0x05	; 5
     e46:	d5 01       	movw	r26, r10
     e48:	14 96       	adiw	r26, 0x04	; 4
     e4a:	9e 01       	movw	r18, r28
     e4c:	23 5f       	subi	r18, 0xF3	; 243
     e4e:	3f 4f       	sbci	r19, 0xFF	; 255
    for (uint8_t x=0; x<BYTE_FIELDS_LEN; ++x){
        object->byteField[x]=data[x+OFF_BYTEFLDS];
     e50:	81 91       	ld	r24, Z+
     e52:	8d 93       	st	X+, r24
    //Fill things with fixed distance to offset
    uint8_t data[OFF_STRINGFLDS];
    ExtEERead(offset, OFF_STRINGFLDS, GAME, &data[0]);
    object->addrNextObj = (data[OFF_NEXTOBJ]<<8|data[OFF_NEXTOBJ+1])+L_BOILER;
    object->addrNextLvl = (data[OFF_NEXTLVL]<<8|data[OFF_NEXTLVL+1])+L_BOILER;
    for (uint8_t x=0; x<BYTE_FIELDS_LEN; ++x){
     e54:	e2 17       	cp	r30, r18
     e56:	f3 07       	cpc	r31, r19
     e58:	d9 f7       	brne	.-10     	; 0xe50 <PopulateObject+0x6c>
        object->byteField[x]=data[x+OFF_BYTEFLDS];
    }

    //Find out where all of the strings begin and how long they are
    offset += OFF_STRINGFLDS;
     e5a:	38 01       	movw	r6, r16
     e5c:	fc e2       	ldi	r31, 0x2C	; 44
     e5e:	6f 0e       	add	r6, r31
     e60:	71 1c       	adc	r7, r1
    object->addrStr[0]=offset+1;
     e62:	03 5d       	subi	r16, 0xD3	; 211
     e64:	1f 4f       	sbci	r17, 0xFF	; 255
     e66:	f5 01       	movw	r30, r10
     e68:	04 87       	std	Z+12, r16	; 0x0c
     e6a:	15 87       	std	Z+13, r17	; 0x0d
     e6c:	65 01       	movw	r12, r10
     e6e:	fe e0       	ldi	r31, 0x0E	; 14
     e70:	cf 0e       	add	r12, r31
     e72:	d1 1c       	adc	r13, r1
     e74:	45 01       	movw	r8, r10
     e76:	8a e1       	ldi	r24, 0x1A	; 26
     e78:	88 0e       	add	r8, r24
     e7a:	91 1c       	adc	r9, r1
    for (uint8_t x=0; x<BYTE_FIELDS_LEN; ++x){
        object->byteField[x]=data[x+OFF_BYTEFLDS];
    }

    //Find out where all of the strings begin and how long they are
    offset += OFF_STRINGFLDS;
     e7c:	73 01       	movw	r14, r6
     e7e:	02 c0       	rjmp	.+4      	; 0xe84 <PopulateObject+0xa0>
     e80:	78 01       	movw	r14, r16
     e82:	38 01       	movw	r6, r16
     e84:	83 01       	movw	r16, r6
    object->addrStr[0]=offset+1;
    for(uint8_t x=1; x<STRING_FIELDS_LEN; ++x){
        addrStart = offset;
        do {
            ExtEERead(offset, 1, GAME, &data[0]);
     e86:	9e 01       	movw	r18, r28
     e88:	2f 5f       	subi	r18, 0xFF	; 255
     e8a:	3f 4f       	sbci	r19, 0xFF	; 255
     e8c:	40 e0       	ldi	r20, 0x00	; 0
     e8e:	61 e0       	ldi	r22, 0x01	; 1
     e90:	c8 01       	movw	r24, r16
     e92:	0b df       	rcall	.-490    	; 0xcaa <ExtEERead>
            offset += (uint16_t)(data[0])+1;
     e94:	89 81       	ldd	r24, Y+1	; 0x01
     e96:	98 01       	movw	r18, r16
     e98:	28 0f       	add	r18, r24
     e9a:	31 1d       	adc	r19, r1
     e9c:	89 01       	movw	r16, r18
     e9e:	0f 5f       	subi	r16, 0xFF	; 255
     ea0:	1f 4f       	sbci	r17, 0xFF	; 255
            if (offset>EXT_EE_MAX) break;
     ea2:	12 f0       	brmi	.+4      	; 0xea8 <PopulateObject+0xc4>
        } while (data[0]==255);
     ea4:	8f 3f       	cpi	r24, 0xFF	; 255
     ea6:	79 f3       	breq	.-34     	; 0xe86 <PopulateObject+0xa2>
        object->lenStr[x-1]=(offset-addrStart-1)&EXT_EE_MAX;
     ea8:	e0 94       	com	r14
     eaa:	f0 94       	com	r15
     eac:	e0 0e       	add	r14, r16
     eae:	f1 1e       	adc	r15, r17
     eb0:	e8 94       	clt
     eb2:	f7 f8       	bld	r15, 7
     eb4:	f6 01       	movw	r30, r12
     eb6:	e4 86       	std	Z+12, r14	; 0x0c
     eb8:	f5 86       	std	Z+13, r15	; 0x0d
        object->addrStr[x]=(offset-1)&EXT_EE_MAX;
     eba:	3f 77       	andi	r19, 0x7F	; 127
     ebc:	21 93       	st	Z+, r18
     ebe:	31 93       	st	Z+, r19
     ec0:	6f 01       	movw	r12, r30
    }

    //Find out where all of the strings begin and how long they are
    offset += OFF_STRINGFLDS;
    object->addrStr[0]=offset+1;
    for(uint8_t x=1; x<STRING_FIELDS_LEN; ++x){
     ec2:	e8 15       	cp	r30, r8
     ec4:	f9 05       	cpc	r31, r9
     ec6:	e1 f6       	brne	.-72     	; 0xe80 <PopulateObject+0x9c>
            if (offset>EXT_EE_MAX) break;
        } while (data[0]==255);
        object->lenStr[x-1]=(offset-addrStart-1)&EXT_EE_MAX;
        object->addrStr[x]=(offset-1)&EXT_EE_MAX;
    }
    object->lenStr[STRING_FIELDS_LEN-1]=(offset-addrStart)&EXT_EE_MAX;
     ec8:	06 19       	sub	r16, r6
     eca:	17 09       	sbc	r17, r7
     ecc:	1f 77       	andi	r17, 0x7F	; 127
     ece:	f5 01       	movw	r30, r10
     ed0:	06 a3       	std	Z+38, r16	; 0x26
     ed2:	17 a3       	std	Z+39, r17	; 0x27
}
     ed4:	2c 96       	adiw	r28, 0x0c	; 12
     ed6:	cd bf       	out	0x3d, r28	; 61
     ed8:	de bf       	out	0x3e, r29	; 62
     eda:	df 91       	pop	r29
     edc:	cf 91       	pop	r28
     ede:	1f 91       	pop	r17
     ee0:	0f 91       	pop	r16
     ee2:	ff 90       	pop	r15
     ee4:	ef 90       	pop	r14
     ee6:	df 90       	pop	r13
     ee8:	cf 90       	pop	r12
     eea:	bf 90       	pop	r11
     eec:	af 90       	pop	r10
     eee:	9f 90       	pop	r9
     ef0:	8f 90       	pop	r8
     ef2:	7f 90       	pop	r7
     ef4:	6f 90       	pop	r6
     ef6:	08 95       	ret

00000ef8 <SendLiteral>:

//Sends numCR LFs and a literal, total
void SendLiteral(uint16_t address, uint16_t length, uint8_t numCR){
     ef8:	cf 92       	push	r12
     efa:	df 92       	push	r13
     efc:	ef 92       	push	r14
     efe:	ff 92       	push	r15
     f00:	1f 93       	push	r17
     f02:	cf 93       	push	r28
     f04:	df 93       	push	r29
     f06:	7c 01       	movw	r14, r24
     f08:	cb 01       	movw	r24, r22
    numCR %= (TXLEN-1);
     f0a:	14 2f       	mov	r17, r20
     f0c:	1f 71       	andi	r17, 0x1F	; 31
    length %= (TXLEN-numCR-1);
     f0e:	c1 2e       	mov	r12, r17
     f10:	d1 2c       	mov	r13, r1
     f12:	20 e2       	ldi	r18, 0x20	; 32
     f14:	30 e0       	ldi	r19, 0x00	; 0
     f16:	b9 01       	movw	r22, r18
     f18:	6c 19       	sub	r22, r12
     f1a:	7d 09       	sbc	r23, r13
     f1c:	32 d2       	rcall	.+1124   	; 0x1382 <__udivmodhi4>
     f1e:	ec 01       	movw	r28, r24
     f20:	ac 01       	movw	r20, r24
    for (uint8_t x=0; x<numCR; ++x) txBuffer[x]='\n';
     f22:	11 23       	and	r17, r17
     f24:	61 f0       	breq	.+24     	; 0xf3e <SendLiteral+0x46>
     f26:	e2 e8       	ldi	r30, 0x82	; 130
     f28:	f9 e3       	ldi	r31, 0x39	; 57
     f2a:	8f ef       	ldi	r24, 0xFF	; 255
     f2c:	81 0f       	add	r24, r17
     f2e:	90 e0       	ldi	r25, 0x00	; 0
     f30:	8d 57       	subi	r24, 0x7D	; 125
     f32:	96 4c       	sbci	r25, 0xC6	; 198
     f34:	3a e0       	ldi	r19, 0x0A	; 10
     f36:	31 93       	st	Z+, r19
     f38:	e8 17       	cp	r30, r24
     f3a:	f9 07       	cpc	r31, r25
     f3c:	e1 f7       	brne	.-8      	; 0xf36 <SendLiteral+0x3e>
    if (length) ExtEERead(address, length, TEASER, &txBuffer[numCR]);
     f3e:	45 2b       	or	r20, r21
     f40:	39 f0       	breq	.+14     	; 0xf50 <SendLiteral+0x58>
     f42:	96 01       	movw	r18, r12
     f44:	2e 57       	subi	r18, 0x7E	; 126
     f46:	36 4c       	sbci	r19, 0xC6	; 198
     f48:	41 e0       	ldi	r20, 0x01	; 1
     f4a:	6c 2f       	mov	r22, r28
     f4c:	c7 01       	movw	r24, r14
     f4e:	ad de       	rcall	.-678    	; 0xcaa <ExtEERead>
    txBuffer[numCR+length]='\0';
     f50:	ce 57       	subi	r28, 0x7E	; 126
     f52:	d6 4c       	sbci	r29, 0xC6	; 198
     f54:	c1 0f       	add	r28, r17
     f56:	d1 1d       	adc	r29, r1
     f58:	18 82       	st	Y, r1
    SerSend(&txBuffer[0]);
     f5a:	82 e8       	ldi	r24, 0x82	; 130
     f5c:	99 e3       	ldi	r25, 0x39	; 57
     f5e:	41 dd       	rcall	.-1406   	; 0x9e2 <SerSend>
}
     f60:	df 91       	pop	r29
     f62:	cf 91       	pop	r28
     f64:	1f 91       	pop	r17
     f66:	ff 90       	pop	r15
     f68:	ef 90       	pop	r14
     f6a:	df 90       	pop	r13
     f6c:	cf 90       	pop	r12
     f6e:	08 95       	ret

00000f70 <CheckSend>:

//Send routine, optimized for low memory usage
uint8_t CheckSend(){
     f70:	cf 93       	push	r28
    static uint8_t txPart;
    uint8_t EEreadLength=0;

    //Check if more string(part)s have to be sent to the serial output if previous send operation is completed
    if ((txAddrNow < TXLISTLEN) && serTxDone){
     f72:	80 91 ba 38 	lds	r24, 0x38BA	; 0x8038ba <txAddrNow>
     f76:	88 30       	cpi	r24, 0x08	; 8
     f78:	d8 f5       	brcc	.+118    	; 0xff0 <CheckSend+0x80>
     f7a:	90 91 04 38 	lds	r25, 0x3804	; 0x803804 <serTxDone>
     f7e:	99 23       	and	r25, r25
     f80:	b9 f1       	breq	.+110    	; 0xff0 <CheckSend+0x80>
        if (txPart < txStrLen[txAddrNow]){
     f82:	28 2f       	mov	r18, r24
     f84:	30 e0       	ldi	r19, 0x00	; 0
     f86:	f9 01       	movw	r30, r18
     f88:	e5 54       	subi	r30, 0x45	; 69
     f8a:	f7 4c       	sbci	r31, 0xC7	; 199
     f8c:	e0 81       	ld	r30, Z
     f8e:	90 91 b7 38 	lds	r25, 0x38B7	; 0x8038b7 <txPart.3856>
     f92:	9e 17       	cp	r25, r30
     f94:	30 f5       	brcc	.+76     	; 0xfe2 <CheckSend+0x72>
            EEreadLength = txStrLen[txAddrNow]-txPart;
     f96:	ce 2f       	mov	r28, r30
     f98:	c9 1b       	sub	r28, r25
     f9a:	c1 32       	cpi	r28, 0x21	; 33
     f9c:	08 f0       	brcs	.+2      	; 0xfa0 <CheckSend+0x30>
     f9e:	c0 e2       	ldi	r28, 0x20	; 32
            if (EEreadLength>=TXLEN) EEreadLength = TXLEN-1;
            ExtEERead(txAddrList[txAddrNow]+txPart, EEreadLength, txTypeNow, &txBuffer[0]);
     fa0:	22 0f       	add	r18, r18
     fa2:	33 1f       	adc	r19, r19
     fa4:	f9 01       	movw	r30, r18
     fa6:	ed 53       	subi	r30, 0x3D	; 61
     fa8:	f7 4c       	sbci	r31, 0xC7	; 199
     faa:	01 90       	ld	r0, Z+
     fac:	f0 81       	ld	r31, Z
     fae:	e0 2d       	mov	r30, r0
     fb0:	22 e8       	ldi	r18, 0x82	; 130
     fb2:	39 e3       	ldi	r19, 0x39	; 57
     fb4:	40 91 b8 38 	lds	r20, 0x38B8	; 0x8038b8 <txTypeNow>
     fb8:	6c 2f       	mov	r22, r28
     fba:	df 01       	movw	r26, r30
     fbc:	a9 0f       	add	r26, r25
     fbe:	b1 1d       	adc	r27, r1
     fc0:	cd 01       	movw	r24, r26
     fc2:	73 de       	rcall	.-794    	; 0xcaa <ExtEERead>
            txPart += EEreadLength;
     fc4:	80 91 b7 38 	lds	r24, 0x38B7	; 0x8038b7 <txPart.3856>
     fc8:	8c 0f       	add	r24, r28
     fca:	80 93 b7 38 	sts	0x38B7, r24	; 0x8038b7 <txPart.3856>
            txBuffer[EEreadLength] = 0; //Add string terminator after piece to send to plug memory leak
     fce:	ec 2f       	mov	r30, r28
     fd0:	f0 e0       	ldi	r31, 0x00	; 0
     fd2:	ee 57       	subi	r30, 0x7E	; 126
     fd4:	f6 4c       	sbci	r31, 0xC6	; 198
     fd6:	10 82       	st	Z, r1
            SerSend(&txBuffer[0]);
     fd8:	82 e8       	ldi	r24, 0x82	; 130
     fda:	99 e3       	ldi	r25, 0x39	; 57
     fdc:	02 dd       	rcall	.-1532   	; 0x9e2 <SerSend>
        } else if (sendPrompt == CR_2){
            SendLiteral(0, 0, 2);
        }
        sendPrompt=0;
    } else if (serTxDone) return 0; //All is sent!
    return 1; //Still sending, do not change the data in the tx variables
     fde:	81 e0       	ldi	r24, 0x01	; 1
     fe0:	32 c0       	rjmp	.+100    	; 0x1046 <CheckSend+0xd6>
            ExtEERead(txAddrList[txAddrNow]+txPart, EEreadLength, txTypeNow, &txBuffer[0]);
            txPart += EEreadLength;
            txBuffer[EEreadLength] = 0; //Add string terminator after piece to send to plug memory leak
            SerSend(&txBuffer[0]);
        } else {
            txPart = 0;
     fe2:	10 92 b7 38 	sts	0x38B7, r1	; 0x8038b7 <txPart.3856>
            ++txAddrNow;
     fe6:	8f 5f       	subi	r24, 0xFF	; 255
     fe8:	80 93 ba 38 	sts	0x38BA, r24	; 0x8038ba <txAddrNow>
        } else if (sendPrompt == CR_2){
            SendLiteral(0, 0, 2);
        }
        sendPrompt=0;
    } else if (serTxDone) return 0; //All is sent!
    return 1; //Still sending, do not change the data in the tx variables
     fec:	81 e0       	ldi	r24, 0x01	; 1
     fee:	2b c0       	rjmp	.+86     	; 0x1046 <CheckSend+0xd6>
            txPart = 0;
            ++txAddrNow;
        }
    
    //Check if prompt needs to be sent afterward or something else
    } else if (serTxDone&&sendPrompt) {
     ff0:	80 91 04 38 	lds	r24, 0x3804	; 0x803804 <serTxDone>
     ff4:	88 23       	and	r24, r24
     ff6:	11 f1       	breq	.+68     	; 0x103c <CheckSend+0xcc>
     ff8:	80 91 b9 38 	lds	r24, 0x38B9	; 0x8038b9 <sendPrompt>
     ffc:	88 23       	and	r24, r24
     ffe:	f1 f0       	breq	.+60     	; 0x103c <CheckSend+0xcc>
        if (sendPrompt == PROMPT){
    1000:	81 30       	cpi	r24, 0x01	; 1
    1002:	39 f4       	brne	.+14     	; 0x1012 <CheckSend+0xa2>
            SendLiteral(A_PROMPT, L_PROMPT, 2);
    1004:	42 e0       	ldi	r20, 0x02	; 2
    1006:	62 e0       	ldi	r22, 0x02	; 2
    1008:	70 e0       	ldi	r23, 0x00	; 0
    100a:	8d e4       	ldi	r24, 0x4D	; 77
    100c:	9c e7       	ldi	r25, 0x7C	; 124
    100e:	74 df       	rcall	.-280    	; 0xef8 <SendLiteral>
    1010:	11 c0       	rjmp	.+34     	; 0x1034 <CheckSend+0xc4>
        } else if (sendPrompt == SPACE){
    1012:	82 30       	cpi	r24, 0x02	; 2
    1014:	39 f4       	brne	.+14     	; 0x1024 <CheckSend+0xb4>
            SendLiteral(A_SPACE, L_SPACE, 0);
    1016:	40 e0       	ldi	r20, 0x00	; 0
    1018:	61 e0       	ldi	r22, 0x01	; 1
    101a:	70 e0       	ldi	r23, 0x00	; 0
    101c:	8f e4       	ldi	r24, 0x4F	; 79
    101e:	9c e7       	ldi	r25, 0x7C	; 124
    1020:	6b df       	rcall	.-298    	; 0xef8 <SendLiteral>
    1022:	08 c0       	rjmp	.+16     	; 0x1034 <CheckSend+0xc4>
        } else if (sendPrompt == CR_2){
    1024:	83 30       	cpi	r24, 0x03	; 3
    1026:	31 f4       	brne	.+12     	; 0x1034 <CheckSend+0xc4>
            SendLiteral(0, 0, 2);
    1028:	42 e0       	ldi	r20, 0x02	; 2
    102a:	60 e0       	ldi	r22, 0x00	; 0
    102c:	70 e0       	ldi	r23, 0x00	; 0
    102e:	80 e0       	ldi	r24, 0x00	; 0
    1030:	90 e0       	ldi	r25, 0x00	; 0
    1032:	62 df       	rcall	.-316    	; 0xef8 <SendLiteral>
        }
        sendPrompt=0;
    1034:	10 92 b9 38 	sts	0x38B9, r1	; 0x8038b9 <sendPrompt>
    } else if (serTxDone) return 0; //All is sent!
    return 1; //Still sending, do not change the data in the tx variables
    1038:	81 e0       	ldi	r24, 0x01	; 1
        } else if (sendPrompt == SPACE){
            SendLiteral(A_SPACE, L_SPACE, 0);
        } else if (sendPrompt == CR_2){
            SendLiteral(0, 0, 2);
        }
        sendPrompt=0;
    103a:	05 c0       	rjmp	.+10     	; 0x1046 <CheckSend+0xd6>
    } else if (serTxDone) return 0; //All is sent!
    103c:	90 91 04 38 	lds	r25, 0x3804	; 0x803804 <serTxDone>
    1040:	81 e0       	ldi	r24, 0x01	; 1
    1042:	91 11       	cpse	r25, r1
    1044:	80 e0       	ldi	r24, 0x00	; 0
    return 1; //Still sending, do not change the data in the tx variables
}
    1046:	cf 91       	pop	r28
    1048:	08 95       	ret

0000104a <CheckInput>:

//User input check (and validation)
uint8_t CheckInput(uint8_t *data){
    104a:	1f 93       	push	r17
    104c:	cf 93       	push	r28
    104e:	df 93       	push	r29
    1050:	cd b7       	in	r28, 0x3d	; 61
    1052:	de b7       	in	r29, 0x3e	; 62
    1054:	2a 97       	sbiw	r28, 0x0a	; 10
    1056:	cd bf       	out	0x3d, r28	; 61
    1058:	de bf       	out	0x3e, r29	; 62
    if (serRxDone){
    105a:	20 91 14 38 	lds	r18, 0x3814	; 0x803814 <serRxDone>
    105e:	22 23       	and	r18, r18
    1060:	09 f4       	brne	.+2      	; 0x1064 <CheckInput+0x1a>
    1062:	6e c0       	rjmp	.+220    	; 0x1140 <CheckInput+0xf6>
        //Read up to the \0 character and convert to lower case.
        for (uint8_t x=0; serRx[x]!=0; ++x){
    1064:	20 91 e4 38 	lds	r18, 0x38E4	; 0x8038e4 <serRx>
    1068:	22 23       	and	r18, r18
    106a:	51 f1       	breq	.+84     	; 0x10c0 <CheckInput+0x76>
    106c:	20 e0       	ldi	r18, 0x00	; 0
    106e:	30 e0       	ldi	r19, 0x00	; 0
    1070:	40 e0       	ldi	r20, 0x00	; 0
            if ((serRx[x]<'A')||(serRx[x]>'Z')) data[x]=serRx[x]; else data[x]=serRx[x]|0x20;
    1072:	f9 01       	movw	r30, r18
    1074:	ec 51       	subi	r30, 0x1C	; 28
    1076:	f7 4c       	sbci	r31, 0xC7	; 199
    1078:	50 81       	ld	r21, Z
    107a:	51 34       	cpi	r21, 0x41	; 65
    107c:	30 f0       	brcs	.+12     	; 0x108a <CheckInput+0x40>
    107e:	f9 01       	movw	r30, r18
    1080:	ec 51       	subi	r30, 0x1C	; 28
    1082:	f7 4c       	sbci	r31, 0xC7	; 199
    1084:	50 81       	ld	r21, Z
    1086:	5b 35       	cpi	r21, 0x5B	; 91
    1088:	48 f0       	brcs	.+18     	; 0x109c <CheckInput+0x52>
    108a:	f9 01       	movw	r30, r18
    108c:	ec 51       	subi	r30, 0x1C	; 28
    108e:	f7 4c       	sbci	r31, 0xC7	; 199
    1090:	20 81       	ld	r18, Z
    1092:	fc 01       	movw	r30, r24
    1094:	e4 0f       	add	r30, r20
    1096:	f1 1d       	adc	r31, r1
    1098:	20 83       	st	Z, r18
    109a:	09 c0       	rjmp	.+18     	; 0x10ae <CheckInput+0x64>
    109c:	f9 01       	movw	r30, r18
    109e:	ec 51       	subi	r30, 0x1C	; 28
    10a0:	f7 4c       	sbci	r31, 0xC7	; 199
    10a2:	20 81       	ld	r18, Z
    10a4:	fc 01       	movw	r30, r24
    10a6:	e4 0f       	add	r30, r20
    10a8:	f1 1d       	adc	r31, r1
    10aa:	20 62       	ori	r18, 0x20	; 32
    10ac:	20 83       	st	Z, r18

//User input check (and validation)
uint8_t CheckInput(uint8_t *data){
    if (serRxDone){
        //Read up to the \0 character and convert to lower case.
        for (uint8_t x=0; serRx[x]!=0; ++x){
    10ae:	4f 5f       	subi	r20, 0xFF	; 255
    10b0:	24 2f       	mov	r18, r20
    10b2:	30 e0       	ldi	r19, 0x00	; 0
    10b4:	f9 01       	movw	r30, r18
    10b6:	ec 51       	subi	r30, 0x1C	; 28
    10b8:	f7 4c       	sbci	r31, 0xC7	; 199
    10ba:	50 81       	ld	r21, Z
    10bc:	51 11       	cpse	r21, r1
    10be:	d9 cf       	rjmp	.-78     	; 0x1072 <CheckInput+0x28>
            if ((serRx[x]<'A')||(serRx[x]>'Z')) data[x]=serRx[x]; else data[x]=serRx[x]|0x20;
        }

        //Help text
        if ((data[0] == '?')||(data[0] == 'h')){
    10c0:	fc 01       	movw	r30, r24
    10c2:	20 81       	ld	r18, Z
    10c4:	2f 33       	cpi	r18, 0x3F	; 63
    10c6:	11 f0       	breq	.+4      	; 0x10cc <CheckInput+0x82>
    10c8:	28 36       	cpi	r18, 0x68	; 104
    10ca:	61 f4       	brne	.+24     	; 0x10e4 <CheckInput+0x9a>
            //Put help pointers/lengths in tx list
            PrepareSending(A_HELP, L_HELP, TEASER, PROMPT);
    10cc:	21 e0       	ldi	r18, 0x01	; 1
    10ce:	41 e0       	ldi	r20, 0x01	; 1
    10d0:	65 ea       	ldi	r22, 0xA5	; 165
    10d2:	73 e0       	ldi	r23, 0x03	; 3
    10d4:	8b e5       	ldi	r24, 0x5B	; 91
    10d6:	9c e7       	ldi	r25, 0x7C	; 124
    10d8:	37 de       	rcall	.-914    	; 0xd48 <PrepareSending>
            RXCNT = 0;
    10da:	1d ba       	out	0x1d, r1	; 29
            serRxDone = 0;
    10dc:	10 92 14 38 	sts	0x3814, r1	; 0x803814 <serRxDone>
            return 1;
    10e0:	81 e0       	ldi	r24, 0x01	; 1
    10e2:	2f c0       	rjmp	.+94     	; 0x1142 <CheckInput+0xf8>
        }

        //Quit text
        if (data[0] == 'q'){
    10e4:	21 37       	cpi	r18, 0x71	; 113
    10e6:	61 f4       	brne	.+24     	; 0x1100 <CheckInput+0xb6>
            //Put quit pointers/lengths in tx list
            PrepareSending(A_QUIT, L_QUIT, TEASER, PROMPT);
    10e8:	21 e0       	ldi	r18, 0x01	; 1
    10ea:	41 e0       	ldi	r20, 0x01	; 1
    10ec:	64 e5       	ldi	r22, 0x54	; 84
    10ee:	70 e0       	ldi	r23, 0x00	; 0
    10f0:	89 ef       	ldi	r24, 0xF9	; 249
    10f2:	9b e7       	ldi	r25, 0x7B	; 123
    10f4:	29 de       	rcall	.-942    	; 0xd48 <PrepareSending>
            RXCNT = 0;
    10f6:	1d ba       	out	0x1d, r1	; 29
            serRxDone = 0;
    10f8:	10 92 14 38 	sts	0x3814, r1	; 0x803814 <serRxDone>
            return 1;
    10fc:	81 e0       	ldi	r24, 0x01	; 1
    10fe:	21 c0       	rjmp	.+66     	; 0x1142 <CheckInput+0xf8>
        }

        //Cheat = reset badge!
        if (StartsWith(&data[0], "iddqd")){
    1100:	63 ed       	ldi	r22, 0xD3	; 211
    1102:	73 e9       	ldi	r23, 0x93	; 147
    1104:	10 de       	rcall	.-992    	; 0xd26 <StartsWith>
    1106:	88 23       	and	r24, r24
    1108:	e1 f0       	breq	.+56     	; 0x1142 <CheckInput+0xf8>
    110a:	1e e6       	ldi	r17, 0x6E	; 110
            
            //Reset game data by wiping the UUID bits
            for (uint8_t x=0; x<4; ++x){
                WriteStatusBit(110+x, 0);
    110c:	60 e0       	ldi	r22, 0x00	; 0
    110e:	81 2f       	mov	r24, r17
    1110:	50 dd       	rcall	.-1376   	; 0xbb2 <WriteStatusBit>
    1112:	1f 5f       	subi	r17, 0xFF	; 255

        //Cheat = reset badge!
        if (StartsWith(&data[0], "iddqd")){
            
            //Reset game data by wiping the UUID bits
            for (uint8_t x=0; x<4; ++x){
    1114:	12 37       	cpi	r17, 0x72	; 114
    1116:	d1 f7       	brne	.-12     	; 0x110c <CheckInput+0xc2>
                WriteStatusBit(110+x, 0);
            }
            SaveGameState();
    1118:	ff dc       	rcall	.-1538   	; 0xb18 <SaveGameState>
    111a:	8a e0       	ldi	r24, 0x0A	; 10

            uint8_t cheat[] = "Cheater! ";
    111c:	e9 ed       	ldi	r30, 0xD9	; 217
    111e:	f3 e9       	ldi	r31, 0x93	; 147
    1120:	de 01       	movw	r26, r28
    1122:	11 96       	adiw	r26, 0x01	; 1
    1124:	01 90       	ld	r0, Z+
    1126:	0d 92       	st	X+, r0
    1128:	8a 95       	dec	r24
    112a:	e1 f7       	brne	.-8      	; 0x1124 <CheckInput+0xda>
            SerSpeed(60);
    112c:	8c e3       	ldi	r24, 0x3C	; 60
    112e:	6b dc       	rcall	.-1834   	; 0xa06 <SerSpeed>
    1130:	80 91 04 38 	lds	r24, 0x3804	; 0x803804 <serTxDone>
            while(1){
                if (serTxDone) SerSend(&cheat[0]);
    1134:	88 23       	and	r24, r24
    1136:	e1 f3       	breq	.-8      	; 0x1130 <CheckInput+0xe6>
    1138:	ce 01       	movw	r24, r28
    113a:	01 96       	adiw	r24, 0x01	; 1
    113c:	52 dc       	rcall	.-1884   	; 0x9e2 <SerSend>
    113e:	f8 cf       	rjmp	.-16     	; 0x1130 <CheckInput+0xe6>
    1140:	81 e0       	ldi	r24, 0x01	; 1
        //Data received, but not any of the commands above
        return 0;
    }

    //Serial input not available yet
    return 1;
    1142:	2a 96       	adiw	r28, 0x0a	; 10
}
    1144:	cd bf       	out	0x3d, r28	; 61
    1146:	de bf       	out	0x3e, r29	; 62
    1148:	df 91       	pop	r29
    114a:	cf 91       	pop	r28
    114c:	1f 91       	pop	r17
    114e:	08 95       	ret

00001150 <ProcessInput>:
    1150:	0f 93       	push	r16

//The game logic!
void ProcessInput(uint8_t *data){
    1152:	1f 93       	push	r17
    1154:	cf 93       	push	r28
    1156:	8c 01       	movw	r16, r24
    
    static uint16_t reactStr[3][8] = {{0},{0},{0}};
    static uint8_t actionList = 0;
    static uint8_t toSend = 0;

    PopulateObject(0, &currObj);
    1158:	6f e8       	ldi	r22, 0x8F	; 143
    115a:	78 e3       	ldi	r23, 0x38	; 56
    115c:	80 e0       	ldi	r24, 0x00	; 0
    115e:	90 e0       	ldi	r25, 0x00	; 0
    1160:	41 de       	rcall	.-894    	; 0xde4 <PopulateObject>
    
    //Responses to send after something has tried by the user
    if (actionList){
    1162:	c0 91 8e 38 	lds	r28, 0x388E	; 0x80388e <actionList.3878>
    1166:	cc 23       	and	r28, r28
    1168:	31 f1       	breq	.+76     	; 0x11b6 <ProcessInput+0x66>
        PrepareSending(reactStr[0][toSend], reactStr[1][toSend], GAME, reactStr[2][toSend]);
    116a:	10 91 8d 38 	lds	r17, 0x388D	; 0x80388d <toSend.3879>
    116e:	81 2f       	mov	r24, r17
    1170:	90 e0       	ldi	r25, 0x00	; 0
    1172:	dc 01       	movw	r26, r24
    1174:	aa 0f       	add	r26, r26
    1176:	bb 1f       	adc	r27, r27
    1178:	a3 58       	subi	r26, 0x83	; 131
    117a:	b7 4c       	sbci	r27, 0xC7	; 199
    117c:	fc 01       	movw	r30, r24
    117e:	ee 0f       	add	r30, r30
    1180:	ff 1f       	adc	r31, r31
    1182:	e3 59       	subi	r30, 0x93	; 147
    1184:	f7 4c       	sbci	r31, 0xC7	; 199
    1186:	60 81       	ld	r22, Z
    1188:	71 81       	ldd	r23, Z+1	; 0x01
    118a:	88 0f       	add	r24, r24
    118c:	99 1f       	adc	r25, r25
    118e:	fc 01       	movw	r30, r24
    1190:	e3 5a       	subi	r30, 0xA3	; 163
    1192:	f7 4c       	sbci	r31, 0xC7	; 199
    1194:	2c 91       	ld	r18, X
    1196:	40 e0       	ldi	r20, 0x00	; 0
    1198:	80 81       	ld	r24, Z
    119a:	91 81       	ldd	r25, Z+1	; 0x01
    119c:	d5 dd       	rcall	.-1110   	; 0xd48 <PrepareSending>
        ++toSend;
    119e:	1f 5f       	subi	r17, 0xFF	; 255
    11a0:	10 93 8d 38 	sts	0x388D, r17	; 0x80388d <toSend.3879>
        --actionList;
    11a4:	c1 50       	subi	r28, 0x01	; 1
    11a6:	c0 93 8e 38 	sts	0x388E, r28	; 0x80388e <actionList.3878>
        if (actionList == 0) {
    11aa:	c1 11       	cpse	r28, r1
    11ac:	34 c0       	rjmp	.+104    	; 0x1216 <ProcessInput+0xc6>
            RXCNT = 0;
    11ae:	1d ba       	out	0x1d, r1	; 29
            serRxDone = 0;
    11b0:	10 92 14 38 	sts	0x3814, r1	; 0x803814 <serRxDone>
    11b4:	30 c0       	rjmp	.+96     	; 0x1216 <ProcessInput+0xc6>
        }

    //No responses yet and data available? Figure out what to say!
    } else if (data[0]){
    11b6:	f8 01       	movw	r30, r16
    11b8:	80 81       	ld	r24, Z
    11ba:	88 23       	and	r24, r24
    11bc:	61 f1       	breq	.+88     	; 0x1216 <ProcessInput+0xc6>
        toSend = 0;
    11be:	10 92 8d 38 	sts	0x388D, r1	; 0x80388d <toSend.3879>

        if (data[0] == 'x'){
    11c2:	88 37       	cpi	r24, 0x78	; 120
    11c4:	b9 f4       	brne	.+46     	; 0x11f4 <ProcessInput+0xa4>

            reactStr[0][0]=currObj.addrStr[NAME];
    11c6:	ed e5       	ldi	r30, 0x5D	; 93
    11c8:	f8 e3       	ldi	r31, 0x38	; 56
    11ca:	af e8       	ldi	r26, 0x8F	; 143
    11cc:	b8 e3       	ldi	r27, 0x38	; 56
    11ce:	1c 96       	adiw	r26, 0x0c	; 12
    11d0:	8d 91       	ld	r24, X+
    11d2:	9c 91       	ld	r25, X
    11d4:	1d 97       	sbiw	r26, 0x0d	; 13
    11d6:	80 83       	st	Z, r24
    11d8:	91 83       	std	Z+1, r25	; 0x01
            reactStr[1][0]=currObj.lenStr[NAME];
    11da:	5a 96       	adiw	r26, 0x1a	; 26
    11dc:	8d 91       	ld	r24, X+
    11de:	9c 91       	ld	r25, X
    11e0:	5b 97       	sbiw	r26, 0x1b	; 27
    11e2:	80 8b       	std	Z+16, r24	; 0x10
    11e4:	91 8b       	std	Z+17, r25	; 0x11
            reactStr[2][0]=PROMPT;
    11e6:	81 e0       	ldi	r24, 0x01	; 1
    11e8:	90 e0       	ldi	r25, 0x00	; 0
    11ea:	80 a3       	std	Z+32, r24	; 0x20
    11ec:	91 a3       	std	Z+33, r25	; 0x21
            actionList = 1;
    11ee:	80 93 8e 38 	sts	0x388E, r24	; 0x80388e <actionList.3878>
    11f2:	11 c0       	rjmp	.+34     	; 0x1216 <ProcessInput+0xc6>
            current_effects = read_byte_field(eeprom,loc_offset,'effects')
        */


        } else
        if ((data[0] == 'e')||(data[0] == 'o')){
    11f4:	91 e9       	ldi	r25, 0x91	; 145
    11f6:	98 0f       	add	r25, r24
    11f8:	92 30       	cpi	r25, 0x02	; 2
    11fa:	68 f0       	brcs	.+26     	; 0x1216 <ProcessInput+0xc6>
            else:
            print(s(eeprom,'DONTSEE'))
        */
        
        } else
        if (data[0] == 'l'){
    11fc:	8c 36       	cpi	r24, 0x6C	; 108
    11fe:	59 f0       	breq	.+22     	; 0x1216 <ProcessInput+0xc6>
             inventory.append([obj_id,obj_name])
             else:
             invalid(eeprom)
        */
        } else
        if (data[0] == 'd'){
    1200:	98 2f       	mov	r25, r24
    1202:	9f 7e       	andi	r25, 0xEF	; 239
    1204:	94 56       	subi	r25, 0x64	; 100
    1206:	92 30       	cpi	r25, 0x02	; 2
    1208:	30 f0       	brcs	.+12     	; 0x1216 <ProcessInput+0xc6>
            break
            else:
            print(s(eeprom,'NOTCARRYING'))
        */
        } else
        if (data[0] == 'i'){
    120a:	89 36       	cpi	r24, 0x69	; 105
    120c:	21 f0       	breq	.+8      	; 0x1216 <ProcessInput+0xc6>
        /*
        
        */
        } else
        if ((data[0] == 't')||(data[0] == 'u')||(data[0] == 'g')){
    120e:	87 36       	cpi	r24, 0x67	; 103
    1210:	11 f0       	breq	.+4      	; 0x1216 <ProcessInput+0xc6>
            update_state(read_byte_field(eeprom,obj_offset,'action_state'))
            print("{}".format(read_string_field(eeprom,obj_offset,'action_msg')))          
        */
        } else {
            //No clue...
            data[0] = 0;
    1212:	f8 01       	movw	r30, r16
    1214:	10 82       	st	Z, r1
        }
    }
}
    1216:	cf 91       	pop	r28
    1218:	1f 91       	pop	r17
    121a:	0f 91       	pop	r16
    121c:	08 95       	ret

0000121e <TextAdventure>:


// Main game loop
uint8_t TextAdventure(){
    121e:	cf 93       	push	r28
    static uint8_t serInput[RXLEN];
    if (CheckSend()) return 1;                      //Still sending data to serial, return 1
    1220:	a7 de       	rcall	.-690    	; 0xf70 <CheckSend>
    1222:	81 11       	cpse	r24, r1
    1224:	0b c0       	rjmp	.+22     	; 0x123c <TextAdventure+0x1e>
    if (CheckInput(&serInput[0])) return 2;         //No valid input to process, return 2
    1226:	85 e1       	ldi	r24, 0x15	; 21
    1228:	98 e3       	ldi	r25, 0x38	; 56
    122a:	0f df       	rcall	.-482    	; 0x104a <CheckInput>
    122c:	c8 2f       	mov	r28, r24
    122e:	81 11       	cpse	r24, r1
    1230:	07 c0       	rjmp	.+14     	; 0x1240 <TextAdventure+0x22>
    ProcessInput(&serInput[0]);                     //Check which response to generate and fill tx arrays
    1232:	85 e1       	ldi	r24, 0x15	; 21
    1234:	98 e3       	ldi	r25, 0x38	; 56
    SaveGameState();                                //Check if things are changed, write to EEPROM
    1236:	8c df       	rcall	.-232    	; 0x1150 <ProcessInput>
    1238:	6f dc       	rcall	.-1826   	; 0xb18 <SaveGameState>
    return 0;
    123a:	03 c0       	rjmp	.+6      	; 0x1242 <TextAdventure+0x24>


// Main game loop
uint8_t TextAdventure(){
    static uint8_t serInput[RXLEN];
    if (CheckSend()) return 1;                      //Still sending data to serial, return 1
    123c:	c1 e0       	ldi	r28, 0x01	; 1
    123e:	01 c0       	rjmp	.+2      	; 0x1242 <TextAdventure+0x24>
    if (CheckInput(&serInput[0])) return 2;         //No valid input to process, return 2
    1240:	c2 e0       	ldi	r28, 0x02	; 2
    ProcessInput(&serInput[0]);                     //Check which response to generate and fill tx arrays
    SaveGameState();                                //Check if things are changed, write to EEPROM
    return 0;
    1242:	8c 2f       	mov	r24, r28
    1244:	cf 91       	pop	r28
    1246:	08 95       	ret

00001248 <main>:



//This is where it begins, inits first and main program in while(1) loop.
int main(void)
{
    1248:	cf 93       	push	r28
    124a:	df 93       	push	r29
    124c:	cd b7       	in	r28, 0x3d	; 61
    124e:	de b7       	in	r29, 0x3e	; 62
    1250:	ab 97       	sbiw	r28, 0x2b	; 43
    1252:	cd bf       	out	0x3d, r28	; 61
    1254:	de bf       	out	0x3e, r29	; 62
    Setup();
    1256:	7e d8       	rcall	.-3844   	; 0x354 <Setup>
    EERead(0, &gameState[0], 16);   //Load game status bits from EEPROM
    1258:	40 e1       	ldi	r20, 0x10	; 16
    125a:	64 ed       	ldi	r22, 0xD4	; 212
    125c:	78 e3       	ldi	r23, 0x38	; 56
    125e:	80 e0       	ldi	r24, 0x00	; 0
    1260:	64 db       	rcall	.-2360   	; 0x92a <EERead>
    1262:	1e e6       	ldi	r17, 0x6E	; 110

    uint8_t idSet = 0;
    for (uint8_t x=0; x<4; ++x){
        idSet += ReadStatusBit(110+x);
    1264:	00 e0       	ldi	r16, 0x00	; 0
    1266:	81 2f       	mov	r24, r17
    1268:	90 dc       	rcall	.-1760   	; 0xb8a <ReadStatusBit>
    126a:	08 0f       	add	r16, r24
    126c:	1f 5f       	subi	r17, 0xFF	; 255
{
    Setup();
    EERead(0, &gameState[0], 16);   //Load game status bits from EEPROM

    uint8_t idSet = 0;
    for (uint8_t x=0; x<4; ++x){
    126e:	12 37       	cpi	r17, 0x72	; 114
        idSet += ReadStatusBit(110+x);
    }

    //idSet can be used to detect cheating. After cheating idSet will be 0, with a virgin badge idSet will be 3.
    if (idSet != 1) {
    1270:	d1 f7       	brne	.-12     	; 0x1266 <main+0x1e>
        Reset();
    1272:	01 30       	cpi	r16, 0x01	; 1
    1274:	09 f0       	breq	.+2      	; 0x1278 <main+0x30>
    }

    SerSpeed(1);
    1276:	ca dc       	rcall	.-1644   	; 0xc0c <Reset>
    1278:	81 e0       	ldi	r24, 0x01	; 1
    127a:	c5 db       	rcall	.-2166   	; 0xa06 <SerSpeed>
    unsigned char strTest[]="\aHckerHotel2020 badge pest!\b\b\b\b\bt\n";
    127c:	84 e2       	ldi	r24, 0x24	; 36
    127e:	e3 ef       	ldi	r30, 0xF3	; 243
    1280:	f3 e9       	ldi	r31, 0x93	; 147
    1282:	de 01       	movw	r26, r28
    1284:	11 96       	adiw	r26, 0x01	; 1
    1286:	01 90       	ld	r0, Z+
    1288:	0d 92       	st	X+, r0
    128a:	8a 95       	dec	r24
    SerSend(&strTest[0]);
    128c:	e1 f7       	brne	.-8      	; 0x1286 <main+0x3e>
    128e:	ce 01       	movw	r24, r28
    1290:	01 96       	adiw	r24, 0x01	; 1
    1292:	a7 db       	rcall	.-2226   	; 0x9e2 <SerSend>

    //uint8_t bla = 0;
    SerSpeed(255);
    1294:	8f ef       	ldi	r24, 0xFF	; 255
    1296:	b7 db       	rcall	.-2194   	; 0xa06 <SerSpeed>
    1298:	80 e0       	ldi	r24, 0x00	; 0

    //Turn on LEDs on low setting to check for interrupt glitches
    for (uint8_t n=0; n<40; n++){
    129a:	22 e0       	ldi	r18, 0x02	; 2
        if ((n%8)>5) n+=2;
        if (n<40) iLED[n] = 2;
    129c:	07 c0       	rjmp	.+14     	; 0x12ac <main+0x64>
    129e:	39 2f       	mov	r19, r25
    //uint8_t bla = 0;
    SerSpeed(255);

    //Turn on LEDs on low setting to check for interrupt glitches
    for (uint8_t n=0; n<40; n++){
        if ((n%8)>5) n+=2;
    12a0:	37 70       	andi	r19, 0x07	; 7
    12a2:	36 30       	cpi	r19, 0x06	; 6
    12a4:	10 f0       	brcs	.+4      	; 0x12aa <main+0x62>
    12a6:	93 e0       	ldi	r25, 0x03	; 3
    12a8:	98 0f       	add	r25, r24
    12aa:	89 2f       	mov	r24, r25
int main(void)
{
    Setup();
    EERead(0, &gameState[0], 16);   //Load game status bits from EEPROM

    uint8_t idSet = 0;
    12ac:	88 32       	cpi	r24, 0x28	; 40
    SerSpeed(255);

    //Turn on LEDs on low setting to check for interrupt glitches
    for (uint8_t n=0; n<40; n++){
        if ((n%8)>5) n+=2;
        if (n<40) iLED[n] = 2;
    12ae:	28 f4       	brcc	.+10     	; 0x12ba <main+0x72>
    12b0:	e8 2f       	mov	r30, r24
    12b2:	f0 e0       	ldi	r31, 0x00	; 0
    12b4:	ea 5a       	subi	r30, 0xAA	; 170
    12b6:	f6 4c       	sbci	r31, 0xC6	; 198
    12b8:	20 83       	st	Z, r18
    12ba:	91 e0       	ldi	r25, 0x01	; 1

    //uint8_t bla = 0;
    SerSpeed(255);

    //Turn on LEDs on low setting to check for interrupt glitches
    for (uint8_t n=0; n<40; n++){
    12bc:	98 0f       	add	r25, r24
    12be:	98 32       	cpi	r25, 0x28	; 40
    12c0:	70 f3       	brcs	.-36     	; 0x129e <main+0x56>
    12c2:	87 e0       	ldi	r24, 0x07	; 7
        if ((n%8)>5) n+=2;
        if (n<40) iLED[n] = 2;
    }

    //Test audio play, play a rainstorm with howling wind.
    uint8_t wind[7]={0x80, 0x80, 0x80, 0x80, 0x80, 0x80, 0};
    12c4:	ec ec       	ldi	r30, 0xCC	; 204
    12c6:	f3 e9       	ldi	r31, 0x93	; 147
    12c8:	de 01       	movw	r26, r28
    12ca:	95 96       	adiw	r26, 0x25	; 37
    12cc:	01 90       	ld	r0, Z+
    12ce:	0d 92       	st	X+, r0
    12d0:	8a 95       	dec	r24
    12d2:	e1 f7       	brne	.-8      	; 0x12cc <main+0x84>
    12d4:	ce 01       	movw	r24, r28

    auRepAddr = &wind[0];
    12d6:	85 96       	adiw	r24, 0x25	; 37
    12d8:	80 93 00 38 	sts	0x3800, r24	; 0x803800 <__data_start>
    12dc:	90 93 01 38 	sts	0x3801, r25	; 0x803801 <__data_start+0x1>
    12e0:	8f e7       	ldi	r24, 0x7F	; 127
    auVolume = 127;
    12e2:	80 93 2c 39 	sts	0x392C, r24	; 0x80392c <auVolume>
    12e6:	0b ea       	ldi	r16, 0xAB	; 171

    while (1)
    {
        for (uint8_t x=1; x<6; ++x){
            if (x%3) wind[x] = floatAround(0x80, 6, 0x01, 0x00);
    12e8:	7e 01       	movw	r14, r28
    12ea:	85 e2       	ldi	r24, 0x25	; 37
    12ec:	e8 0e       	add	r14, r24
    12ee:	f1 1c       	adc	r15, r1
    12f0:	11 e0       	ldi	r17, 0x01	; 1
    auRepAddr = &wind[0];
    auVolume = 127;

    while (1)
    {
        for (uint8_t x=1; x<6; ++x){
    12f2:	10 9f       	mul	r17, r16
            if (x%3) wind[x] = floatAround(0x80, 6, 0x01, 0x00);
    12f4:	81 2d       	mov	r24, r1
    12f6:	11 24       	eor	r1, r1
    12f8:	86 95       	lsr	r24
    12fa:	98 2f       	mov	r25, r24
    12fc:	99 0f       	add	r25, r25
    12fe:	89 0f       	add	r24, r25
    1300:	18 17       	cp	r17, r24
    1302:	39 f0       	breq	.+14     	; 0x1312 <main+0xca>
    1304:	20 e0       	ldi	r18, 0x00	; 0
    1306:	41 e0       	ldi	r20, 0x01	; 1
    1308:	66 e0       	ldi	r22, 0x06	; 6
    130a:	80 e8       	ldi	r24, 0x80	; 128
    130c:	e0 db       	rcall	.-2112   	; 0xace <floatAround>
    130e:	f7 01       	movw	r30, r14
    1310:	81 83       	std	Z+1, r24	; 0x01
    1312:	1f 5f       	subi	r17, 0xFF	; 255
    auRepAddr = &wind[0];
    auVolume = 127;

    while (1)
    {
        for (uint8_t x=1; x<6; ++x){
    1314:	ff ef       	ldi	r31, 0xFF	; 255
    1316:	ef 1a       	sub	r14, r31
    1318:	ff 0a       	sbc	r15, r31
    131a:	16 30       	cpi	r17, 0x06	; 6
    131c:	51 f7       	brne	.-44     	; 0x12f2 <main+0xaa>
    131e:	80 91 12 38 	lds	r24, 0x3812	; 0x803812 <buttonMark>
            if (x%3) wind[x] = floatAround(0x80, 6, 0x01, 0x00);
        }
        
        if (buttonMark){
    1322:	88 23       	and	r24, r24
    1324:	09 f3       	breq	.-62     	; 0x12e8 <main+0xa0>
            /*
                Check if button value has changed here
            */
            buttonMark = 0;
    1326:	10 92 12 38 	sts	0x3812, r1	; 0x803812 <buttonMark>

            //Floating speed
            floatSpeed(6, 0x0300, 0x0700);
    132a:	40 e0       	ldi	r20, 0x00	; 0
    132c:	57 e0       	ldi	r21, 0x07	; 7
    132e:	60 e0       	ldi	r22, 0x00	; 0
    1330:	73 e0       	ldi	r23, 0x03	; 3
    1332:	86 e0       	ldi	r24, 0x06	; 6
    1334:	98 db       	rcall	.-2256   	; 0xa66 <floatSpeed>
            
            //Floating volume and wind howl during 8 bit rainstorm needs some more randomness
            auVolume = floatAround(auVolume, 2, 0x10, 0xA0);
    1336:	80 91 2c 39 	lds	r24, 0x392C	; 0x80392c <auVolume>
    133a:	20 ea       	ldi	r18, 0xA0	; 160
    133c:	40 e1       	ldi	r20, 0x10	; 16
    133e:	62 e0       	ldi	r22, 0x02	; 2
    1340:	c6 db       	rcall	.-2164   	; 0xace <floatAround>
    1342:	80 93 2c 39 	sts	0x392C, r24	; 0x80392c <auVolume>
            wind[0] = floatAround(wind[0], 2, 0x70, 0x90);
    1346:	20 e9       	ldi	r18, 0x90	; 144
    1348:	40 e7       	ldi	r20, 0x70	; 112
    134a:	62 e0       	ldi	r22, 0x02	; 2
    134c:	8d a1       	ldd	r24, Y+37	; 0x25
    134e:	bf db       	rcall	.-2178   	; 0xace <floatAround>
    1350:	8d a3       	std	Y+37, r24	; 0x25
            wind[3] = 0xFF-wind[0];  //Inverse value of wind[0] produces a whistle   
    1352:	80 95       	com	r24
                    
            TextAdventure();
    1354:	88 a7       	std	Y+40, r24	; 0x28
    1356:	63 df       	rcall	.-314    	; 0x121e <TextAdventure>
            //MasterMind-ishThing(); //Not sure if to be implemented
            //LanyardCode();
            //MakeFriends();
             
            //Check light sensor status (added hysteresis to preserve writing cycles to internal EEPROM)
            if (adcPhot < 10) WriteStatusBit(116, 1);
    1358:	80 91 33 39 	lds	r24, 0x3933	; 0x803933 <adcPhot>
    135c:	90 91 34 39 	lds	r25, 0x3934	; 0x803934 <adcPhot+0x1>
    1360:	0a 97       	sbiw	r24, 0x0a	; 10
    1362:	18 f4       	brcc	.+6      	; 0x136a <main+0x122>
    1364:	61 e0       	ldi	r22, 0x01	; 1
    1366:	84 e7       	ldi	r24, 0x74	; 116
    1368:	24 dc       	rcall	.-1976   	; 0xbb2 <WriteStatusBit>
            if (adcPhot > 100) WriteStatusBit(116, 0);
    136a:	80 91 33 39 	lds	r24, 0x3933	; 0x803933 <adcPhot>
    136e:	90 91 34 39 	lds	r25, 0x3934	; 0x803934 <adcPhot+0x1>
    1372:	85 36       	cpi	r24, 0x65	; 101
    1374:	91 05       	cpc	r25, r1
    1376:	08 f4       	brcc	.+2      	; 0x137a <main+0x132>
    1378:	b7 cf       	rjmp	.-146    	; 0x12e8 <main+0xa0>
    137a:	60 e0       	ldi	r22, 0x00	; 0
    137c:	84 e7       	ldi	r24, 0x74	; 116
    137e:	19 dc       	rcall	.-1998   	; 0xbb2 <WriteStatusBit>
    1380:	b3 cf       	rjmp	.-154    	; 0x12e8 <main+0xa0>

00001382 <__udivmodhi4>:
    1382:	aa 1b       	sub	r26, r26
    1384:	bb 1b       	sub	r27, r27
    1386:	51 e1       	ldi	r21, 0x11	; 17
    1388:	07 c0       	rjmp	.+14     	; 0x1398 <__udivmodhi4_ep>

0000138a <__udivmodhi4_loop>:
    138a:	aa 1f       	adc	r26, r26
    138c:	bb 1f       	adc	r27, r27
    138e:	a6 17       	cp	r26, r22
    1390:	b7 07       	cpc	r27, r23
    1392:	10 f0       	brcs	.+4      	; 0x1398 <__udivmodhi4_ep>
    1394:	a6 1b       	sub	r26, r22
    1396:	b7 0b       	sbc	r27, r23

00001398 <__udivmodhi4_ep>:
    1398:	88 1f       	adc	r24, r24
    139a:	99 1f       	adc	r25, r25
    139c:	5a 95       	dec	r21
    139e:	a9 f7       	brne	.-22     	; 0x138a <__udivmodhi4_loop>
    13a0:	80 95       	com	r24
    13a2:	90 95       	com	r25
    13a4:	bc 01       	movw	r22, r24
    13a6:	cd 01       	movw	r24, r26
    13a8:	08 95       	ret

000013aa <__umulhisi3>:
    13aa:	a2 9f       	mul	r26, r18
    13ac:	b0 01       	movw	r22, r0
    13ae:	b3 9f       	mul	r27, r19
    13b0:	c0 01       	movw	r24, r0
    13b2:	a3 9f       	mul	r26, r19
    13b4:	70 0d       	add	r23, r0
    13b6:	81 1d       	adc	r24, r1
    13b8:	11 24       	eor	r1, r1
    13ba:	91 1d       	adc	r25, r1
    13bc:	b2 9f       	mul	r27, r18
    13be:	70 0d       	add	r23, r0
    13c0:	81 1d       	adc	r24, r1
    13c2:	11 24       	eor	r1, r1
    13c4:	91 1d       	adc	r25, r1
    13c6:	08 95       	ret

000013c8 <_exit>:
    13c8:	f8 94       	cli

000013ca <__stop_program>:
    13ca:	ff cf       	rjmp	.-2      	; 0x13ca <__stop_program>
