
ISR_IO.elf:     file format elf32-avr

Sections:
Idx Name          Size      VMA       LMA       File off  Algn
  0 .data         00000036  00803800  00003f52  00004006  2**0
                  CONTENTS, ALLOC, LOAD, DATA
  1 .text         00003e96  00000000  00000000  000000b4  2**1
                  CONTENTS, ALLOC, LOAD, READONLY, CODE
  2 .rodata       000000bc  0000be96  00003e96  00003f4a  2**0
                  CONTENTS, ALLOC, LOAD, READONLY, DATA
  3 .bss          000002e2  00803836  00803836  0000403c  2**0
                  ALLOC
  4 .comment      00000030  00000000  00000000  0000403c  2**0
                  CONTENTS, READONLY
  5 .note.gnu.avr.deviceinfo 00000040  00000000  00000000  0000406c  2**2
                  CONTENTS, READONLY
  6 .debug_aranges 00000338  00000000  00000000  000040ac  2**0
                  CONTENTS, READONLY, DEBUGGING
  7 .debug_info   00006c9b  00000000  00000000  000043e4  2**0
                  CONTENTS, READONLY, DEBUGGING
  8 .debug_abbrev 00002853  00000000  00000000  0000b07f  2**0
                  CONTENTS, READONLY, DEBUGGING
  9 .debug_line   00003dcb  00000000  00000000  0000d8d2  2**0
                  CONTENTS, READONLY, DEBUGGING
 10 .debug_frame  0000090c  00000000  00000000  000116a0  2**2
                  CONTENTS, READONLY, DEBUGGING
 11 .debug_str    00001a97  00000000  00000000  00011fac  2**0
                  CONTENTS, READONLY, DEBUGGING
 12 .debug_loc    00003c35  00000000  00000000  00013a43  2**0
                  CONTENTS, READONLY, DEBUGGING
 13 .debug_ranges 000003a8  00000000  00000000  00017678  2**0
                  CONTENTS, READONLY, DEBUGGING

Disassembly of section .text:

00000000 <__vectors>:
       0:	46 c0       	rjmp	.+140    	; 0x8e <__ctors_end>
       2:	00 00       	nop
       4:	61 c0       	rjmp	.+194    	; 0xc8 <__bad_interrupt>
       6:	00 00       	nop
       8:	5f c0       	rjmp	.+190    	; 0xc8 <__bad_interrupt>
       a:	00 00       	nop
       c:	5d c0       	rjmp	.+186    	; 0xc8 <__bad_interrupt>
       e:	00 00       	nop
      10:	5b c0       	rjmp	.+182    	; 0xc8 <__bad_interrupt>
      12:	00 00       	nop
      14:	59 c0       	rjmp	.+178    	; 0xc8 <__bad_interrupt>
      16:	00 00       	nop
      18:	8f c7       	rjmp	.+3870   	; 0xf38 <__vector_6>
      1a:	00 00       	nop
      1c:	e4 c7       	rjmp	.+4040   	; 0xfe6 <__vector_7>
      1e:	00 00       	nop
      20:	cc c5       	rjmp	.+2968   	; 0xbba <__vector_8>
      22:	00 00       	nop
      24:	51 c0       	rjmp	.+162    	; 0xc8 <__bad_interrupt>
      26:	00 00       	nop
      28:	4f c0       	rjmp	.+158    	; 0xc8 <__bad_interrupt>
      2a:	00 00       	nop
      2c:	4d c0       	rjmp	.+154    	; 0xc8 <__bad_interrupt>
      2e:	00 00       	nop
      30:	4b c0       	rjmp	.+150    	; 0xc8 <__bad_interrupt>
      32:	00 00       	nop
      34:	13 c6       	rjmp	.+3110   	; 0xc5c <__vector_13>
      36:	00 00       	nop
      38:	44 c6       	rjmp	.+3208   	; 0xcc2 <__vector_14>
      3a:	00 00       	nop
      3c:	45 c0       	rjmp	.+138    	; 0xc8 <__bad_interrupt>
      3e:	00 00       	nop
      40:	43 c0       	rjmp	.+134    	; 0xc8 <__bad_interrupt>
      42:	00 00       	nop
      44:	41 c0       	rjmp	.+130    	; 0xc8 <__bad_interrupt>
      46:	00 00       	nop
      48:	3f c0       	rjmp	.+126    	; 0xc8 <__bad_interrupt>
      4a:	00 00       	nop
      4c:	3d c0       	rjmp	.+122    	; 0xc8 <__bad_interrupt>
      4e:	00 00       	nop
      50:	ff c6       	rjmp	.+3582   	; 0xe50 <__vector_20>
      52:	00 00       	nop
      54:	39 c0       	rjmp	.+114    	; 0xc8 <__bad_interrupt>
      56:	00 00       	nop
      58:	27 c7       	rjmp	.+3662   	; 0xea8 <__vector_22>
      5a:	00 00       	nop
      5c:	35 c0       	rjmp	.+106    	; 0xc8 <__bad_interrupt>
      5e:	00 00       	nop
      60:	33 c0       	rjmp	.+102    	; 0xc8 <__bad_interrupt>
      62:	00 00       	nop
      64:	31 c0       	rjmp	.+98     	; 0xc8 <__bad_interrupt>
      66:	00 00       	nop
      68:	2f c0       	rjmp	.+94     	; 0xc8 <__bad_interrupt>
      6a:	00 00       	nop
      6c:	7a c6       	rjmp	.+3316   	; 0xd62 <__vector_27>
      6e:	00 00       	nop
      70:	d3 c6       	rjmp	.+3494   	; 0xe18 <__vector_28>
      72:	00 00       	nop
      74:	29 c0       	rjmp	.+82     	; 0xc8 <__bad_interrupt>
      76:	00 00       	nop
      78:	27 c0       	rjmp	.+78     	; 0xc8 <__bad_interrupt>
      7a:	00 00       	nop
      7c:	a4 0b       	sbc	r26, r20
      7e:	d2 0b       	sbc	r29, r18
      80:	d9 0b       	sbc	r29, r25
      82:	94 0c       	add	r9, r4
      84:	94 0c       	add	r9, r4
      86:	e8 0b       	sbc	r30, r24
      88:	f5 0b       	sbc	r31, r21
      8a:	33 0c       	add	r3, r3
      8c:	5a 0c       	add	r5, r10

0000008e <__ctors_end>:
      8e:	11 24       	eor	r1, r1
      90:	1f be       	out	0x3f, r1	; 63
      92:	cf ef       	ldi	r28, 0xFF	; 255
      94:	cd bf       	out	0x3d, r28	; 61
      96:	df e3       	ldi	r29, 0x3F	; 63
      98:	de bf       	out	0x3e, r29	; 62

0000009a <__do_copy_data>:
      9a:	18 e3       	ldi	r17, 0x38	; 56
      9c:	a0 e0       	ldi	r26, 0x00	; 0
      9e:	b8 e3       	ldi	r27, 0x38	; 56
      a0:	e2 e5       	ldi	r30, 0x52	; 82
      a2:	ff e3       	ldi	r31, 0x3F	; 63
      a4:	02 c0       	rjmp	.+4      	; 0xaa <__do_copy_data+0x10>
      a6:	05 90       	lpm	r0, Z+
      a8:	0d 92       	st	X+, r0
      aa:	a6 33       	cpi	r26, 0x36	; 54
      ac:	b1 07       	cpc	r27, r17
      ae:	d9 f7       	brne	.-10     	; 0xa6 <__do_copy_data+0xc>

000000b0 <__do_clear_bss>:
      b0:	2b e3       	ldi	r18, 0x3B	; 59
      b2:	a6 e3       	ldi	r26, 0x36	; 54
      b4:	b8 e3       	ldi	r27, 0x38	; 56
      b6:	01 c0       	rjmp	.+2      	; 0xba <.do_clear_bss_start>

000000b8 <.do_clear_bss_loop>:
      b8:	1d 92       	st	X+, r1

000000ba <.do_clear_bss_start>:
      ba:	a8 31       	cpi	r26, 0x18	; 24
      bc:	b2 07       	cpc	r27, r18
      be:	e1 f7       	brne	.-8      	; 0xb8 <.do_clear_bss_loop>
      c0:	0e 94 8b 1e 	call	0x3d16	; 0x3d16 <main>
      c4:	0c 94 49 1f 	jmp	0x3e92	; 0x3e92 <_exit>

000000c8 <__bad_interrupt>:
      c8:	9b cf       	rjmp	.-202    	; 0x0 <__vectors>

000000ca <chkVolt250>:
#include <main_def.h>
#include <resources.h>
#include <I2C.h>

//Returns measured voltage * 4 (2V returns 8) if it is in the expected range (DELTA)
uint8_t chkVolt250(){
      ca:	28 ed       	ldi	r18, 0xD8	; 216
      cc:	30 e0       	ldi	r19, 0x00	; 0
    uint8_t avgVolt = 9;
      ce:	89 e0       	ldi	r24, 0x09	; 9
        
    for (uint8_t x=225; x>24; x-=25) {
        if ((auIn > (x-DELTA)) && (auIn < (x+DELTA))) {
      d0:	40 91 c8 3a 	lds	r20, 0x3AC8	; 0x803ac8 <auIn>
      d4:	50 e0       	ldi	r21, 0x00	; 0
      d6:	42 17       	cp	r20, r18
      d8:	53 07       	cpc	r21, r19
      da:	4c f0       	brlt	.+18     	; 0xee <chkVolt250+0x24>
      dc:	40 91 c8 3a 	lds	r20, 0x3AC8	; 0x803ac8 <auIn>
      e0:	50 e0       	ldi	r21, 0x00	; 0
      e2:	b9 01       	movw	r22, r18
      e4:	6e 5e       	subi	r22, 0xEE	; 238
      e6:	7f 4f       	sbci	r23, 0xFF	; 255
      e8:	64 17       	cp	r22, r20
      ea:	75 07       	cpc	r23, r21
      ec:	2c f4       	brge	.+10     	; 0xf8 <chkVolt250+0x2e>
            break;
        }
        --avgVolt;
      ee:	81 50       	subi	r24, 0x01	; 1
      f0:	29 51       	subi	r18, 0x19	; 25
      f2:	31 09       	sbc	r19, r1

//Returns measured voltage * 4 (2V returns 8) if it is in the expected range (DELTA)
uint8_t chkVolt250(){
    uint8_t avgVolt = 9;
        
    for (uint8_t x=225; x>24; x-=25) {
      f4:	81 11       	cpse	r24, r1
      f6:	ec cf       	rjmp	.-40     	; 0xd0 <chkVolt250+0x6>
            break;
        }
        --avgVolt;
    }
    return avgVolt;
}
      f8:	08 95       	ret

000000fa <MakeFriends>:

// Main game loop
uint8_t MakeFriends(){
      fa:	cf 93       	push	r28
      fc:	df 93       	push	r29
    static uint8_t setDAC[2] = {255, 0};
    static uint8_t chkTmr = 0;
    static uint8_t jackIn = 0;
    static uint8_t candidate = 0;

    ++chkTmr;
      fe:	80 91 39 38 	lds	r24, 0x3839	; 0x803839 <chkTmr.3790>
     102:	8f 5f       	subi	r24, 0xFF	; 255
     104:	80 93 39 38 	sts	0x3839, r24	; 0x803839 <chkTmr.3790>
     108:	c4 e6       	ldi	r28, 0x64	; 100

    //Check if badge has found 3 friends
    uint8_t foundAll = 1;
     10a:	d1 e0       	ldi	r29, 0x01	; 1
    for (uint8_t x=0; x<4; ++x){
        if (CheckState(100+x) == 0) foundAll = 0;
     10c:	8c 2f       	mov	r24, r28
     10e:	0e 94 0d 0a 	call	0x141a	; 0x141a <CheckState>
     112:	81 11       	cpse	r24, r1
     114:	01 c0       	rjmp	.+2      	; 0x118 <MakeFriends+0x1e>
     116:	d0 e0       	ldi	r29, 0x00	; 0
     118:	cf 5f       	subi	r28, 0xFF	; 255

    ++chkTmr;

    //Check if badge has found 3 friends
    uint8_t foundAll = 1;
    for (uint8_t x=0; x<4; ++x){
     11a:	c8 36       	cpi	r28, 0x68	; 104
     11c:	b9 f7       	brne	.-18     	; 0x10c <MakeFriends+0x12>
        if (CheckState(100+x) == 0) foundAll = 0;
    }
    if (foundAll) UpdateState(124);
     11e:	dd 23       	and	r29, r29
     120:	19 f0       	breq	.+6      	; 0x128 <MakeFriends+0x2e>
     122:	8c e7       	ldi	r24, 0x7C	; 124
     124:	0e 94 ec 09 	call	0x13d8	; 0x13d8 <UpdateState>

    //Set game state, must be able to hijack from other games.
    if (progress > FIRST_CONTACT) { 
     128:	80 91 38 38 	lds	r24, 0x3838	; 0x803838 <progress.3788>
     12c:	82 30       	cpi	r24, 0x02	; 2
     12e:	20 f0       	brcs	.+8      	; 0x138 <MakeFriends+0x3e>
        gameNow = FRIENDS; 
     130:	94 e0       	ldi	r25, 0x04	; 4
     132:	90 93 42 38 	sts	0x3842, r25	; 0x803842 <gameNow>
     136:	0d c0       	rjmp	.+26     	; 0x152 <MakeFriends+0x58>
    }
    
    //Clear game state if not communicating properly or headphones detected
    if (((progress == NO_OTHER) || detHdPh) && (gameNow == FRIENDS)) {
     138:	81 11       	cpse	r24, r1
     13a:	0b c0       	rjmp	.+22     	; 0x152 <MakeFriends+0x58>
     13c:	90 91 42 38 	lds	r25, 0x3842	; 0x803842 <gameNow>
     140:	94 30       	cpi	r25, 0x04	; 4
     142:	61 f4       	brne	.+24     	; 0x15c <MakeFriends+0x62>
        gameNow = TEXT; 
     144:	10 92 42 38 	sts	0x3842, r1	; 0x803842 <gameNow>
        effect = 0;
     148:	10 92 40 38 	sts	0x3840, r1	; 0x803840 <effect>
     14c:	10 92 41 38 	sts	0x3841, r1	; 0x803841 <effect+0x1>
     150:	05 c0       	rjmp	.+10     	; 0x15c <MakeFriends+0x62>
    if (progress > FIRST_CONTACT) { 
        gameNow = FRIENDS; 
    }
    
    //Clear game state if not communicating properly or headphones detected
    if (((progress == NO_OTHER) || detHdPh) && (gameNow == FRIENDS)) {
     152:	90 91 c5 3a 	lds	r25, 0x3AC5	; 0x803ac5 <detHdPh>
     156:	91 11       	cpse	r25, r1
     158:	f1 cf       	rjmp	.-30     	; 0x13c <MakeFriends+0x42>
     15a:	18 c0       	rjmp	.+48     	; 0x18c <MakeFriends+0x92>
        gameNow = TEXT; 
        effect = 0;
    }

    //Audio off, set voltage level (setDAC[0]*10mV)
    if ((progress == NO_OTHER) && (detHdPh == 0)) {
     15c:	81 11       	cpse	r24, r1
     15e:	16 c0       	rjmp	.+44     	; 0x18c <MakeFriends+0x92>
     160:	90 91 c5 3a 	lds	r25, 0x3AC5	; 0x803ac5 <detHdPh>
     164:	91 11       	cpse	r25, r1
     166:	12 c0       	rjmp	.+36     	; 0x18c <MakeFriends+0x92>
        setDAC[0] = whoami * 51;
     168:	80 91 43 38 	lds	r24, 0x3843	; 0x803843 <whoami>
     16c:	93 e3       	ldi	r25, 0x33	; 51
     16e:	89 9f       	mul	r24, r25
     170:	80 2d       	mov	r24, r0
     172:	11 24       	eor	r1, r1
     174:	80 93 00 38 	sts	0x3800, r24	; 0x803800 <__data_start>
        auRepAddr = &setDAC[0];
     178:	80 e0       	ldi	r24, 0x00	; 0
     17a:	98 e3       	ldi	r25, 0x38	; 56
     17c:	80 93 03 38 	sts	0x3803, r24	; 0x803803 <auRepAddr>
     180:	90 93 04 38 	sts	0x3804, r25	; 0x803804 <auRepAddr+0x1>
        auVolume = 255;
     184:	8f ef       	ldi	r24, 0xFF	; 255
     186:	80 93 bc 3a 	sts	0x3ABC, r24	; 0x803abc <auVolume>
     18a:	09 c0       	rjmp	.+18     	; 0x19e <MakeFriends+0xa4>
    } else {
        if (progress & NEXT){
     18c:	98 2f       	mov	r25, r24
     18e:	90 7f       	andi	r25, 0xF0	; 240
     190:	31 f0       	breq	.+12     	; 0x19e <MakeFriends+0xa4>
            progress++;
            progress&=0x0f;
     192:	8f 5f       	subi	r24, 0xFF	; 255
     194:	8f 70       	andi	r24, 0x0F	; 15
     196:	80 93 38 38 	sts	0x3838, r24	; 0x803838 <progress.3788>
            chkTmr = 0;
     19a:	10 92 39 38 	sts	0x3839, r1	; 0x803839 <chkTmr.3790>
        }
    }

    //Check for other badges ()
    if ((auIn < (setDAC[0] - DELTA)) || (auIn > (setDAC[0] + DELTA)) || (progress > FIRST_CONTACT)) {
     19e:	40 91 c8 3a 	lds	r20, 0x3AC8	; 0x803ac8 <auIn>
     1a2:	20 91 00 38 	lds	r18, 0x3800	; 0x803800 <__data_start>
     1a6:	30 e0       	ldi	r19, 0x00	; 0
     1a8:	50 e0       	ldi	r21, 0x00	; 0
     1aa:	b9 01       	movw	r22, r18
     1ac:	6a 50       	subi	r22, 0x0A	; 10
     1ae:	71 09       	sbc	r23, r1
     1b0:	80 91 38 38 	lds	r24, 0x3838	; 0x803838 <progress.3788>
     1b4:	46 17       	cp	r20, r22
     1b6:	57 07       	cpc	r21, r23
     1b8:	5c f0       	brlt	.+22     	; 0x1d0 <MakeFriends+0xd6>
     1ba:	40 91 c8 3a 	lds	r20, 0x3AC8	; 0x803ac8 <auIn>
     1be:	50 e0       	ldi	r21, 0x00	; 0
     1c0:	26 5f       	subi	r18, 0xF6	; 246
     1c2:	3f 4f       	sbci	r19, 0xFF	; 255
     1c4:	24 17       	cp	r18, r20
     1c6:	35 07       	cpc	r19, r21
     1c8:	1c f0       	brlt	.+6      	; 0x1d0 <MakeFriends+0xd6>
     1ca:	82 30       	cpi	r24, 0x02	; 2
     1cc:	08 f4       	brcc	.+2      	; 0x1d0 <MakeFriends+0xd6>
     1ce:	43 c0       	rjmp	.+134    	; 0x256 <MakeFriends+0x15c>
        if ((progress == NO_OTHER) && (detHdPh == 0)) {
     1d0:	81 11       	cpse	r24, r1
     1d2:	0b c0       	rjmp	.+22     	; 0x1ea <MakeFriends+0xf0>
     1d4:	80 91 c5 3a 	lds	r24, 0x3AC5	; 0x803ac5 <detHdPh>
     1d8:	81 11       	cpse	r24, r1
     1da:	95 c0       	rjmp	.+298    	; 0x306 <MakeFriends+0x20c>
            if (chkTmr >= 8) {
     1dc:	80 91 39 38 	lds	r24, 0x3839	; 0x803839 <chkTmr.3790>
     1e0:	88 30       	cpi	r24, 0x08	; 8
     1e2:	08 f4       	brcc	.+2      	; 0x1e6 <MakeFriends+0xec>
     1e4:	90 c0       	rjmp	.+288    	; 0x306 <MakeFriends+0x20c>
                progress |= NEXT;
     1e6:	80 ef       	ldi	r24, 0xF0	; 240
     1e8:	63 c0       	rjmp	.+198    	; 0x2b0 <MakeFriends+0x1b6>
            }
        }

        //Candidate found, check ranges
        else if (progress == FIRST_CONTACT) {
     1ea:	81 30       	cpi	r24, 0x01	; 1
     1ec:	41 f5       	brne	.+80     	; 0x23e <MakeFriends+0x144>
            jackIn = chkVolt250();
     1ee:	6d df       	rcall	.-294    	; 0xca <chkVolt250>
     1f0:	80 93 37 38 	sts	0x3837, r24	; 0x803837 <jackIn.3791>
            if (jackIn) {
     1f4:	88 23       	and	r24, r24
     1f6:	79 f1       	breq	.+94     	; 0x256 <MakeFriends+0x15c>
                if (chkTmr >= SHORT_WAIT){
     1f8:	90 91 39 38 	lds	r25, 0x3839	; 0x803839 <chkTmr.3790>
     1fc:	98 30       	cpi	r25, 0x08	; 8
     1fe:	08 f4       	brcc	.+2      	; 0x202 <MakeFriends+0x108>
     200:	82 c0       	rjmp	.+260    	; 0x306 <MakeFriends+0x20c>
                    if (   ((whoami == 1)&&((jackIn >= 3)&&(jackIn <= 5))) 
     202:	90 91 43 38 	lds	r25, 0x3843	; 0x803843 <whoami>
     206:	91 30       	cpi	r25, 0x01	; 1
     208:	11 f4       	brne	.+4      	; 0x20e <MakeFriends+0x114>
     20a:	83 50       	subi	r24, 0x03	; 3
     20c:	14 c0       	rjmp	.+40     	; 0x236 <MakeFriends+0x13c>
                    || ((whoami == 2)&&((jackIn == 3)||(jackIn == 5)||(jackIn == 6)))  
     20e:	92 30       	cpi	r25, 0x02	; 2
     210:	31 f4       	brne	.+12     	; 0x21e <MakeFriends+0x124>
     212:	83 30       	cpi	r24, 0x03	; 3
     214:	91 f0       	breq	.+36     	; 0x23a <MakeFriends+0x140>
     216:	85 50       	subi	r24, 0x05	; 5
     218:	82 30       	cpi	r24, 0x02	; 2
     21a:	e8 f4       	brcc	.+58     	; 0x256 <MakeFriends+0x15c>
     21c:	0e c0       	rjmp	.+28     	; 0x23a <MakeFriends+0x140>
                    || ((whoami == 3)&&((jackIn == 4)||(jackIn == 5)||(jackIn == 7))) 
     21e:	93 30       	cpi	r25, 0x03	; 3
     220:	39 f4       	brne	.+14     	; 0x230 <MakeFriends+0x136>
     222:	9c ef       	ldi	r25, 0xFC	; 252
     224:	98 0f       	add	r25, r24
     226:	92 30       	cpi	r25, 0x02	; 2
     228:	40 f0       	brcs	.+16     	; 0x23a <MakeFriends+0x140>
     22a:	87 30       	cpi	r24, 0x07	; 7
     22c:	a1 f4       	brne	.+40     	; 0x256 <MakeFriends+0x15c>
     22e:	05 c0       	rjmp	.+10     	; 0x23a <MakeFriends+0x140>
                    || ((whoami == 4)&&((jackIn >= 5)&&(jackIn <= 7)))   ) {
     230:	94 30       	cpi	r25, 0x04	; 4
     232:	89 f4       	brne	.+34     	; 0x256 <MakeFriends+0x15c>
     234:	85 50       	subi	r24, 0x05	; 5
     236:	83 30       	cpi	r24, 0x03	; 3
     238:	70 f4       	brcc	.+28     	; 0x256 <MakeFriends+0x15c>
                        progress |= NEXT;
     23a:	81 ef       	ldi	r24, 0xF1	; 241
     23c:	39 c0       	rjmp	.+114    	; 0x2b0 <MakeFriends+0x1b6>
                progress = NO_OTHER;
            }
        }

        //Wait for the other badge (and a bit longer for effect)
        else if (progress == SECOND_LOVE){
     23e:	82 30       	cpi	r24, 0x02	; 2
     240:	69 f0       	breq	.+26     	; 0x25c <MakeFriends+0x162>
                progress |= NEXT;
            }
        } 
        
        //Wait a bit, check Voltage again, if ok show who you connected with and your own number, save, exit
        else if (progress == THIRD_KISS) {
     242:	83 30       	cpi	r24, 0x03	; 3
     244:	c1 f1       	breq	.+112    	; 0x2b6 <MakeFriends+0x1bc>
                    progress |= NEXT;
                } else progress = NO_OTHER;                
            }

        //Wait for quit
        } else if (progress == FOURTH_BASE) {
     246:	84 30       	cpi	r24, 0x04	; 4
     248:	09 f0       	breq	.+2      	; 0x24c <MakeFriends+0x152>
     24a:	5d c0       	rjmp	.+186    	; 0x306 <MakeFriends+0x20c>
            if (chkTmr >= (SHORT_WAIT<<3)) {
     24c:	80 91 39 38 	lds	r24, 0x3839	; 0x803839 <chkTmr.3790>
     250:	80 34       	cpi	r24, 0x40	; 64
     252:	08 f4       	brcc	.+2      	; 0x256 <MakeFriends+0x15c>
     254:	58 c0       	rjmp	.+176    	; 0x306 <MakeFriends+0x20c>
                    if (   ((whoami == 1)&&((jackIn >= 3)&&(jackIn <= 5))) 
                    || ((whoami == 2)&&((jackIn == 3)||(jackIn == 5)||(jackIn == 6)))  
                    || ((whoami == 3)&&((jackIn == 4)||(jackIn == 5)||(jackIn == 7))) 
                    || ((whoami == 4)&&((jackIn >= 5)&&(jackIn <= 7)))   ) {
                        progress |= NEXT;
                    } else progress = NO_OTHER;
     256:	10 92 38 38 	sts	0x3838, r1	; 0x803838 <progress.3788>
     25a:	55 c0       	rjmp	.+170    	; 0x306 <MakeFriends+0x20c>
        }

        //Wait for the other badge (and a bit longer for effect)
        else if (progress == SECOND_LOVE){
            
            effect = 7;
     25c:	87 e0       	ldi	r24, 0x07	; 7
     25e:	90 e0       	ldi	r25, 0x00	; 0
     260:	80 93 40 38 	sts	0x3840, r24	; 0x803840 <effect>
     264:	90 93 41 38 	sts	0x3841, r25	; 0x803841 <effect+0x1>
            if (chkTmr >= SHORT_WAIT) {
     268:	80 91 39 38 	lds	r24, 0x3839	; 0x803839 <chkTmr.3790>
     26c:	88 30       	cpi	r24, 0x08	; 8
     26e:	38 f0       	brcs	.+14     	; 0x27e <MakeFriends+0x184>
                setDAC[0] = floatAround(0x80, 8, 100, 255); 
     270:	2f ef       	ldi	r18, 0xFF	; 255
     272:	44 e6       	ldi	r20, 0x64	; 100
     274:	68 e0       	ldi	r22, 0x08	; 8
     276:	80 e8       	ldi	r24, 0x80	; 128
     278:	f6 d7       	rcall	.+4076   	; 0x1266 <floatAround>
     27a:	80 93 00 38 	sts	0x3800, r24	; 0x803800 <__data_start>
            }

            //The badge with the lowest voltage will now go to 2.5V (impedance check, for people tricking the things with a power supply)
            if (chkTmr >= LONG_WAIT){
     27e:	80 91 39 38 	lds	r24, 0x3839	; 0x803839 <chkTmr.3790>
     282:	8a 3f       	cpi	r24, 0xFA	; 250
     284:	08 f4       	brcc	.+2      	; 0x288 <MakeFriends+0x18e>
     286:	3f c0       	rjmp	.+126    	; 0x306 <MakeFriends+0x20c>
                candidate = jackIn-whoami;
     288:	80 91 43 38 	lds	r24, 0x3843	; 0x803843 <whoami>
     28c:	90 91 37 38 	lds	r25, 0x3837	; 0x803837 <jackIn.3791>
     290:	98 1b       	sub	r25, r24
     292:	90 93 36 38 	sts	0x3836, r25	; 0x803836 <__data_end>
                if (candidate > whoami) {
     296:	89 17       	cp	r24, r25
     298:	10 f4       	brcc	.+4      	; 0x29e <MakeFriends+0x1a4>
                    setDAC[0] = 249;
     29a:	89 ef       	ldi	r24, 0xF9	; 249
     29c:	04 c0       	rjmp	.+8      	; 0x2a6 <MakeFriends+0x1ac>
                } else {
                    setDAC[0] = whoami * 51;
     29e:	93 e3       	ldi	r25, 0x33	; 51
     2a0:	89 9f       	mul	r24, r25
     2a2:	80 2d       	mov	r24, r0
     2a4:	11 24       	eor	r1, r1
     2a6:	80 93 00 38 	sts	0x3800, r24	; 0x803800 <__data_start>
                }
                progress |= NEXT;
     2aa:	80 91 38 38 	lds	r24, 0x3838	; 0x803838 <progress.3788>
     2ae:	80 6f       	ori	r24, 0xF0	; 240
     2b0:	80 93 38 38 	sts	0x3838, r24	; 0x803838 <progress.3788>
     2b4:	28 c0       	rjmp	.+80     	; 0x306 <MakeFriends+0x20c>
            }
        } 
        
        //Wait a bit, check Voltage again, if ok show who you connected with and your own number, save, exit
        else if (progress == THIRD_KISS) {
            if (chkTmr >= SHORT_WAIT) {
     2b6:	80 91 39 38 	lds	r24, 0x3839	; 0x803839 <chkTmr.3790>
     2ba:	88 30       	cpi	r24, 0x08	; 8
                jackIn = chkVolt250();
     2bc:	20 f1       	brcs	.+72     	; 0x306 <MakeFriends+0x20c>
     2be:	05 df       	rcall	.-502    	; 0xca <chkVolt250>
     2c0:	80 93 37 38 	sts	0x3837, r24	; 0x803837 <jackIn.3791>
                if (jackIn == (((candidate > whoami)?candidate:whoami) + 5)) {
     2c4:	90 91 36 38 	lds	r25, 0x3836	; 0x803836 <__data_end>
     2c8:	48 2f       	mov	r20, r24
     2ca:	50 e0       	ldi	r21, 0x00	; 0
     2cc:	20 91 43 38 	lds	r18, 0x3843	; 0x803843 <whoami>
     2d0:	29 17       	cp	r18, r25
     2d2:	08 f4       	brcc	.+2      	; 0x2d6 <MakeFriends+0x1dc>
     2d4:	29 2f       	mov	r18, r25
     2d6:	30 e0       	ldi	r19, 0x00	; 0
     2d8:	2b 5f       	subi	r18, 0xFB	; 251
     2da:	3f 4f       	sbci	r19, 0xFF	; 255
     2dc:	42 17       	cp	r20, r18
     2de:	53 07       	cpc	r21, r19
     2e0:	09 f0       	breq	.+2      	; 0x2e4 <MakeFriends+0x1ea>
     2e2:	b9 cf       	rjmp	.-142    	; 0x256 <MakeFriends+0x15c>
                    UpdateState(99+candidate);
     2e4:	83 e6       	ldi	r24, 0x63	; 99
     2e6:	89 0f       	add	r24, r25
     2e8:	0e 94 ec 09 	call	0x13d8	; 0x13d8 <UpdateState>
                 
                    effect = 31;
     2ec:	8f e1       	ldi	r24, 0x1F	; 31
     2ee:	90 e0       	ldi	r25, 0x00	; 0
     2f0:	80 93 40 38 	sts	0x3840, r24	; 0x803840 <effect>
     2f4:	90 93 41 38 	sts	0x3841, r25	; 0x803841 <effect+0x1>
                    WingBar(candidate, whoami);
     2f8:	60 91 43 38 	lds	r22, 0x3843	; 0x803843 <whoami>
     2fc:	80 91 36 38 	lds	r24, 0x3836	; 0x803836 <__data_end>
     300:	0e 94 dd 0a 	call	0x15ba	; 0x15ba <WingBar>
     304:	d2 cf       	rjmp	.-92     	; 0x2aa <MakeFriends+0x1b0>
    } else {
        progress = NO_OTHER;
    }
      
    return 0;
}
     306:	80 e0       	ldi	r24, 0x00	; 0
     308:	df 91       	pop	r29
     30a:	cf 91       	pop	r28
     30c:	08 95       	ret

0000030e <I2C_init>:
// the Atmel device documentation mentions a special command for repeated start TWI_MCMD_REPSTART_gc,
// but this is not used in Atmel's demo code, so we don't use it either

void I2C_rep_start(uint8_t shifted_addr)						    // send repeated start, device_addr + LSB set if READ
{
	TWI0.MADDR = shifted_addr;	
     30e:	81 e0       	ldi	r24, 0x01	; 1
     310:	80 93 22 04 	sts	0x0422, r24	; 0x800422 <__TEXT_REGION_LENGTH__+0x700422>
     314:	e6 e2       	ldi	r30, 0x26	; 38
     316:	f4 e0       	ldi	r31, 0x04	; 4
     318:	80 83       	st	Z, r24
     31a:	10 92 30 04 	sts	0x0430, r1	; 0x800430 <__TEXT_REGION_LENGTH__+0x700430>
     31e:	a1 e2       	ldi	r26, 0x21	; 33
     320:	b4 e0       	ldi	r27, 0x04	; 4
     322:	92 e0       	ldi	r25, 0x02	; 2
     324:	9c 93       	st	X, r25
     326:	90 83       	st	Z, r25
     328:	10 92 31 04 	sts	0x0431, r1	; 0x800431 <__TEXT_REGION_LENGTH__+0x700431>
     32c:	e0 e1       	ldi	r30, 0x10	; 16
     32e:	f8 e0       	ldi	r31, 0x08	; 8
     330:	97 e0       	ldi	r25, 0x07	; 7
     332:	96 83       	std	Z+6, r25	; 0x06
     334:	98 e0       	ldi	r25, 0x08	; 8
     336:	94 83       	std	Z+4, r25	; 0x04
     338:	83 83       	std	Z+3, r24	; 0x03
     33a:	8c 93       	st	X, r24
     33c:	85 81       	ldd	r24, Z+5	; 0x05
     33e:	81 60       	ori	r24, 0x01	; 1
     340:	85 83       	std	Z+5, r24	; 0x05
     342:	85 81       	ldd	r24, Z+5	; 0x05
     344:	84 6c       	ori	r24, 0xC4	; 196
     346:	85 83       	std	Z+5, r24	; 0x05
     348:	08 95       	ret

0000034a <I2C_recover>:
     34a:	80 91 14 08 	lds	r24, 0x0814	; 0x800814 <__TEXT_REGION_LENGTH__+0x700814>
     34e:	88 60       	ori	r24, 0x08	; 8
     350:	80 93 14 08 	sts	0x0814, r24	; 0x800814 <__TEXT_REGION_LENGTH__+0x700814>
     354:	10 92 13 08 	sts	0x0813, r1	; 0x800813 <__TEXT_REGION_LENGTH__+0x700813>
     358:	82 e0       	ldi	r24, 0x02	; 2
     35a:	80 93 22 04 	sts	0x0422, r24	; 0x800422 <__TEXT_REGION_LENGTH__+0x700422>
     35e:	99 e0       	ldi	r25, 0x09	; 9
     360:	21 e0       	ldi	r18, 0x01	; 1
     362:	81 e0       	ldi	r24, 0x01	; 1
     364:	20 93 21 04 	sts	0x0421, r18	; 0x800421 <__TEXT_REGION_LENGTH__+0x700421>
     368:	30 e1       	ldi	r19, 0x10	; 16
     36a:	3a 95       	dec	r19
     36c:	f1 f7       	brne	.-4      	; 0x36a <I2C_recover+0x20>
     36e:	00 c0       	rjmp	.+0      	; 0x370 <I2C_recover+0x26>
     370:	20 93 22 04 	sts	0x0422, r18	; 0x800422 <__TEXT_REGION_LENGTH__+0x700422>
     374:	30 e1       	ldi	r19, 0x10	; 16
     376:	3a 95       	dec	r19
     378:	f1 f7       	brne	.-4      	; 0x376 <I2C_recover+0x2c>
     37a:	00 c0       	rjmp	.+0      	; 0x37c <I2C_recover+0x32>
     37c:	91 50       	subi	r25, 0x01	; 1
     37e:	89 f7       	brne	.-30     	; 0x362 <I2C_recover+0x18>
     380:	28 e0       	ldi	r18, 0x08	; 8
     382:	20 93 14 08 	sts	0x0814, r18	; 0x800814 <__TEXT_REGION_LENGTH__+0x700814>
     386:	80 93 13 08 	sts	0x0813, r24	; 0x800813 <__TEXT_REGION_LENGTH__+0x700813>
     38a:	92 e0       	ldi	r25, 0x02	; 2
     38c:	90 93 21 04 	sts	0x0421, r25	; 0x800421 <__TEXT_REGION_LENGTH__+0x700421>
     390:	90 91 15 08 	lds	r25, 0x0815	; 0x800815 <__TEXT_REGION_LENGTH__+0x700815>
     394:	91 60       	ori	r25, 0x01	; 1
     396:	90 93 15 08 	sts	0x0815, r25	; 0x800815 <__TEXT_REGION_LENGTH__+0x700815>
     39a:	90 91 15 08 	lds	r25, 0x0815	; 0x800815 <__TEXT_REGION_LENGTH__+0x700815>
     39e:	94 6c       	ori	r25, 0xC4	; 196
     3a0:	90 93 15 08 	sts	0x0815, r25	; 0x800815 <__TEXT_REGION_LENGTH__+0x700815>
     3a4:	20 93 14 08 	sts	0x0814, r18	; 0x800814 <__TEXT_REGION_LENGTH__+0x700814>
     3a8:	80 93 13 08 	sts	0x0813, r24	; 0x800813 <__TEXT_REGION_LENGTH__+0x700813>
     3ac:	80 93 21 04 	sts	0x0421, r24	; 0x800421 <__TEXT_REGION_LENGTH__+0x700421>
     3b0:	80 91 15 08 	lds	r24, 0x0815	; 0x800815 <__TEXT_REGION_LENGTH__+0x700815>
     3b4:	81 60       	ori	r24, 0x01	; 1
     3b6:	80 93 15 08 	sts	0x0815, r24	; 0x800815 <__TEXT_REGION_LENGTH__+0x700815>
     3ba:	80 91 15 08 	lds	r24, 0x0815	; 0x800815 <__TEXT_REGION_LENGTH__+0x700815>
     3be:	84 6c       	ori	r24, 0xC4	; 196
     3c0:	80 93 15 08 	sts	0x0815, r24	; 0x800815 <__TEXT_REGION_LENGTH__+0x700815>
     3c4:	08 95       	ret

000003c6 <I2C_start>:
     3c6:	28 2f       	mov	r18, r24
     3c8:	90 91 15 08 	lds	r25, 0x0815	; 0x800815 <__TEXT_REGION_LENGTH__+0x700815>
     3cc:	90 6c       	ori	r25, 0xC0	; 192
     3ce:	90 93 15 08 	sts	0x0815, r25	; 0x800815 <__TEXT_REGION_LENGTH__+0x700815>
     3d2:	90 91 15 08 	lds	r25, 0x0815	; 0x800815 <__TEXT_REGION_LENGTH__+0x700815>
     3d6:	89 2f       	mov	r24, r25
     3d8:	84 70       	andi	r24, 0x04	; 4
     3da:	92 fd       	sbrc	r25, 2
     3dc:	03 c0       	rjmp	.+6      	; 0x3e4 <I2C_start+0x1e>
     3de:	20 93 17 08 	sts	0x0817, r18	; 0x800817 <__TEXT_REGION_LENGTH__+0x700817>
     3e2:	08 95       	ret
     3e4:	84 e0       	ldi	r24, 0x04	; 4
     3e6:	08 95       	ret

000003e8 <I2C_wait_ACK>:
     3e8:	8c e0       	ldi	r24, 0x0C	; 12
     3ea:	80 93 66 3a 	sts	0x3A66, r24	; 0x803a66 <timeout_I2C>
     3ee:	80 91 15 08 	lds	r24, 0x0815	; 0x800815 <__TEXT_REGION_LENGTH__+0x700815>
     3f2:	87 fd       	sbrc	r24, 7
     3f4:	0a c0       	rjmp	.+20     	; 0x40a <__LOCK_REGION_LENGTH__+0xa>
     3f6:	80 91 15 08 	lds	r24, 0x0815	; 0x800815 <__TEXT_REGION_LENGTH__+0x700815>
     3fa:	86 fd       	sbrc	r24, 6
     3fc:	06 c0       	rjmp	.+12     	; 0x40a <__LOCK_REGION_LENGTH__+0xa>
     3fe:	80 91 66 3a 	lds	r24, 0x3A66	; 0x803a66 <timeout_I2C>
     402:	81 11       	cpse	r24, r1
     404:	f4 cf       	rjmp	.-24     	; 0x3ee <I2C_wait_ACK+0x6>
     406:	8f ef       	ldi	r24, 0xFF	; 255
     408:	08 95       	ret
     40a:	80 91 15 08 	lds	r24, 0x0815	; 0x800815 <__TEXT_REGION_LENGTH__+0x700815>
     40e:	80 6c       	ori	r24, 0xC0	; 192
     410:	80 93 15 08 	sts	0x0815, r24	; 0x800815 <__TEXT_REGION_LENGTH__+0x700815>
     414:	80 91 15 08 	lds	r24, 0x0815	; 0x800815 <__TEXT_REGION_LENGTH__+0x700815>
     418:	82 fd       	sbrc	r24, 2
     41a:	09 c0       	rjmp	.+18     	; 0x42e <__LOCK_REGION_LENGTH__+0x2e>
     41c:	80 91 15 08 	lds	r24, 0x0815	; 0x800815 <__TEXT_REGION_LENGTH__+0x700815>
     420:	83 fd       	sbrc	r24, 3
     422:	07 c0       	rjmp	.+14     	; 0x432 <__LOCK_REGION_LENGTH__+0x32>
     424:	80 91 15 08 	lds	r24, 0x0815	; 0x800815 <__TEXT_REGION_LENGTH__+0x700815>
     428:	82 95       	swap	r24
     42a:	81 70       	andi	r24, 0x01	; 1
     42c:	08 95       	ret
     42e:	84 e0       	ldi	r24, 0x04	; 4
     430:	08 95       	ret
     432:	82 e0       	ldi	r24, 0x02	; 2
     434:	08 95       	ret

00000436 <I2C_read>:
}

uint8_t	I2C_read(uint8_t *data, uint8_t ack_flag)					// read data, ack_flag 0: send ACK, 1: send NACK, returns status
{
     436:	fc 01       	movw	r30, r24
	timeout_I2C = READ_TIMEOUT;										// reset timeout counter, will be decremented by LED matrix interrupt
     438:	8c e0       	ldi	r24, 0x0C	; 12
     43a:	80 93 66 3a 	sts	0x3A66, r24	; 0x803a66 <timeout_I2C>
	if ((TWI0.MSTATUS & TWI_BUSSTATE_gm) == TWI_BUSSTATE_OWNER_gc)	// if master controls bus
     43e:	90 91 15 08 	lds	r25, 0x0815	; 0x800815 <__TEXT_REGION_LENGTH__+0x700815>
     442:	89 2f       	mov	r24, r25
     444:	83 70       	andi	r24, 0x03	; 3
     446:	82 30       	cpi	r24, 0x02	; 2
     448:	11 f0       	breq	.+4      	; 0x44e <I2C_read+0x18>
		else		TWI0.MCTRLB |= TWI_ACKACT_NACK_gc;				// setup NACK (last byte read)
		*data = TWI0.MDATA;
		if (ack_flag == 0) TWI0.MCTRLB |= TWI_MCMD_RECVTRANS_gc;	// send ACK, more bytes to follow					
		return 0;
	}
	else return 8;													// master does not control bus
     44a:	88 e0       	ldi	r24, 0x08	; 8
     44c:	08 95       	ret
uint8_t	I2C_read(uint8_t *data, uint8_t ack_flag)					// read data, ack_flag 0: send ACK, 1: send NACK, returns status
{
	timeout_I2C = READ_TIMEOUT;										// reset timeout counter, will be decremented by LED matrix interrupt
	if ((TWI0.MSTATUS & TWI_BUSSTATE_gm) == TWI_BUSSTATE_OWNER_gc)	// if master controls bus
	{		
		while (!(TWI0.MSTATUS & TWI_RIF_bm))						// wait for RIF set (data byte received)
     44e:	90 91 15 08 	lds	r25, 0x0815	; 0x800815 <__TEXT_REGION_LENGTH__+0x700815>
     452:	97 fd       	sbrc	r25, 7
     454:	06 c0       	rjmp	.+12     	; 0x462 <I2C_read+0x2c>
		{
			if (!(timeout_I2C)) return 0xff;			            // return timeout error
     456:	90 91 66 3a 	lds	r25, 0x3A66	; 0x803a66 <timeout_I2C>
     45a:	91 11       	cpse	r25, r1
     45c:	f8 cf       	rjmp	.-16     	; 0x44e <I2C_read+0x18>
     45e:	8f ef       	ldi	r24, 0xFF	; 255
     460:	08 95       	ret
		}
		TWI0.MSTATUS |= (TWI_RIF_bm | TWI_WIF_bm);					// clear Read and Write interrupt flags	
     462:	90 91 15 08 	lds	r25, 0x0815	; 0x800815 <__TEXT_REGION_LENGTH__+0x700815>
     466:	90 6c       	ori	r25, 0xC0	; 192
     468:	90 93 15 08 	sts	0x0815, r25	; 0x800815 <__TEXT_REGION_LENGTH__+0x700815>
		if (TWI0.MSTATUS & TWI_BUSERR_bm) return 4;					// Bus Error, abort
     46c:	90 91 15 08 	lds	r25, 0x0815	; 0x800815 <__TEXT_REGION_LENGTH__+0x700815>
     470:	92 fd       	sbrc	r25, 2
     472:	1e c0       	rjmp	.+60     	; 0x4b0 <I2C_read+0x7a>
		if (TWI0.MSTATUS & TWI_ARBLOST_bm) return 2;				// Arbitration Lost, abort
     474:	90 91 15 08 	lds	r25, 0x0815	; 0x800815 <__TEXT_REGION_LENGTH__+0x700815>
     478:	93 fd       	sbrc	r25, 3
     47a:	1d c0       	rjmp	.+58     	; 0x4b6 <I2C_read+0x80>
		if (TWI0.MSTATUS & TWI_RXACK_bm) return 1;					// Slave replied with NACK, abort				
     47c:	90 91 15 08 	lds	r25, 0x0815	; 0x800815 <__TEXT_REGION_LENGTH__+0x700815>
     480:	89 2f       	mov	r24, r25
     482:	80 71       	andi	r24, 0x10	; 16
     484:	94 fd       	sbrc	r25, 4
     486:	16 c0       	rjmp	.+44     	; 0x4b4 <I2C_read+0x7e>
		if (ack_flag == 0) TWI0.MCTRLB &= ~(1 << TWI_ACKACT_bp);	// setup ACK
     488:	90 91 14 08 	lds	r25, 0x0814	; 0x800814 <__TEXT_REGION_LENGTH__+0x700814>
     48c:	61 11       	cpse	r22, r1
     48e:	02 c0       	rjmp	.+4      	; 0x494 <I2C_read+0x5e>
     490:	9b 7f       	andi	r25, 0xFB	; 251
     492:	01 c0       	rjmp	.+2      	; 0x496 <I2C_read+0x60>
		else		TWI0.MCTRLB |= TWI_ACKACT_NACK_gc;				// setup NACK (last byte read)
     494:	94 60       	ori	r25, 0x04	; 4
     496:	90 93 14 08 	sts	0x0814, r25	; 0x800814 <__TEXT_REGION_LENGTH__+0x700814>
		*data = TWI0.MDATA;
     49a:	90 91 18 08 	lds	r25, 0x0818	; 0x800818 <__TEXT_REGION_LENGTH__+0x700818>
     49e:	90 83       	st	Z, r25
		if (ack_flag == 0) TWI0.MCTRLB |= TWI_MCMD_RECVTRANS_gc;	// send ACK, more bytes to follow					
     4a0:	61 11       	cpse	r22, r1
     4a2:	09 c0       	rjmp	.+18     	; 0x4b6 <I2C_read+0x80>
     4a4:	90 91 14 08 	lds	r25, 0x0814	; 0x800814 <__TEXT_REGION_LENGTH__+0x700814>
     4a8:	92 60       	ori	r25, 0x02	; 2
     4aa:	90 93 14 08 	sts	0x0814, r25	; 0x800814 <__TEXT_REGION_LENGTH__+0x700814>
     4ae:	08 95       	ret
		while (!(TWI0.MSTATUS & TWI_RIF_bm))						// wait for RIF set (data byte received)
		{
			if (!(timeout_I2C)) return 0xff;			            // return timeout error
		}
		TWI0.MSTATUS |= (TWI_RIF_bm | TWI_WIF_bm);					// clear Read and Write interrupt flags	
		if (TWI0.MSTATUS & TWI_BUSERR_bm) return 4;					// Bus Error, abort
     4b0:	84 e0       	ldi	r24, 0x04	; 4
     4b2:	08 95       	ret
		if (TWI0.MSTATUS & TWI_ARBLOST_bm) return 2;				// Arbitration Lost, abort
		if (TWI0.MSTATUS & TWI_RXACK_bm) return 1;					// Slave replied with NACK, abort				
     4b4:	81 e0       	ldi	r24, 0x01	; 1
		*data = TWI0.MDATA;
		if (ack_flag == 0) TWI0.MCTRLB |= TWI_MCMD_RECVTRANS_gc;	// send ACK, more bytes to follow					
		return 0;
	}
	else return 8;													// master does not control bus
}
     4b6:	08 95       	ret

000004b8 <I2C_write>:

uint8_t I2C_write(uint8_t *data)									// write data, return status
{
     4b8:	fc 01       	movw	r30, r24
	timeout_I2C = WRITE_TIMEOUT;									// reset timeout counter, will be decremented by LED matrix interrupt
     4ba:	8c e0       	ldi	r24, 0x0C	; 12
     4bc:	80 93 66 3a 	sts	0x3A66, r24	; 0x803a66 <timeout_I2C>
	if ((TWI0.MSTATUS & TWI_BUSSTATE_gm) == TWI_BUSSTATE_OWNER_gc)	// if master controls bus
     4c0:	90 91 15 08 	lds	r25, 0x0815	; 0x800815 <__TEXT_REGION_LENGTH__+0x700815>
     4c4:	93 70       	andi	r25, 0x03	; 3
     4c6:	92 30       	cpi	r25, 0x02	; 2
     4c8:	b1 f4       	brne	.+44     	; 0x4f6 <I2C_write+0x3e>
	{
		TWI0.MDATA = *data;		
     4ca:	80 81       	ld	r24, Z
     4cc:	80 93 18 08 	sts	0x0818, r24	; 0x800818 <__TEXT_REGION_LENGTH__+0x700818>
		while (!(TWI0.MSTATUS & TWI_WIF_bm))						// wait until WIF set, status register contains ACK/NACK bit
     4d0:	80 91 15 08 	lds	r24, 0x0815	; 0x800815 <__TEXT_REGION_LENGTH__+0x700815>
     4d4:	86 fd       	sbrc	r24, 6
     4d6:	06 c0       	rjmp	.+12     	; 0x4e4 <I2C_write+0x2c>
		{
			if (!(timeout_I2C)) return 0xff;			            // return timeout error
     4d8:	80 91 66 3a 	lds	r24, 0x3A66	; 0x803a66 <timeout_I2C>
     4dc:	81 11       	cpse	r24, r1
     4de:	f8 cf       	rjmp	.-16     	; 0x4d0 <I2C_write+0x18>
     4e0:	8f ef       	ldi	r24, 0xFF	; 255
     4e2:	08 95       	ret
		}
		if (TWI0.MSTATUS & TWI_BUSERR_bm) return 4;					// Bus Error, abort
     4e4:	80 91 15 08 	lds	r24, 0x0815	; 0x800815 <__TEXT_REGION_LENGTH__+0x700815>
     4e8:	82 fd       	sbrc	r24, 2
     4ea:	07 c0       	rjmp	.+14     	; 0x4fa <I2C_write+0x42>
		if (TWI0.MSTATUS & TWI_RXACK_bm) return 1;					// Slave replied with NACK, abort
     4ec:	80 91 15 08 	lds	r24, 0x0815	; 0x800815 <__TEXT_REGION_LENGTH__+0x700815>
	if ((TWI0.MSTATUS & TWI_BUSSTATE_gm) == TWI_BUSSTATE_OWNER_gc)	// if master controls bus
	{
		TWI0.MDATA = *data;		
		while (!(TWI0.MSTATUS & TWI_WIF_bm))						// wait until WIF set, status register contains ACK/NACK bit
		{
			if (!(timeout_I2C)) return 0xff;			            // return timeout error
     4f0:	82 95       	swap	r24
     4f2:	81 70       	andi	r24, 0x01	; 1
     4f4:	08 95       	ret
		}
		if (TWI0.MSTATUS & TWI_BUSERR_bm) return 4;					// Bus Error, abort
		if (TWI0.MSTATUS & TWI_RXACK_bm) return 1;					// Slave replied with NACK, abort
		return 0;													// no error	
	}
	else return 8;													// master does not control bus
     4f6:	88 e0       	ldi	r24, 0x08	; 8
     4f8:	08 95       	ret
		TWI0.MDATA = *data;		
		while (!(TWI0.MSTATUS & TWI_WIF_bm))						// wait until WIF set, status register contains ACK/NACK bit
		{
			if (!(timeout_I2C)) return 0xff;			            // return timeout error
		}
		if (TWI0.MSTATUS & TWI_BUSERR_bm) return 4;					// Bus Error, abort
     4fa:	84 e0       	ldi	r24, 0x04	; 4
		if (TWI0.MSTATUS & TWI_RXACK_bm) return 1;					// Slave replied with NACK, abort
		return 0;													// no error	
	}
	else return 8;													// master does not control bus
}
     4fc:	08 95       	ret

000004fe <I2C_stop>:

void I2C_stop()
{
	TWI0.MCTRLB |= TWI_MCMD_STOP_gc;
     4fe:	e0 e1       	ldi	r30, 0x10	; 16
     500:	f8 e0       	ldi	r31, 0x08	; 8
     502:	84 81       	ldd	r24, Z+4	; 0x04
     504:	83 60       	ori	r24, 0x03	; 3
     506:	84 83       	std	Z+4, r24	; 0x04
     508:	08 95       	ret

0000050a <I2C_read_bytes>:
// addr_ptr		address of first array element to transfer
// slave reg	starting slave register
// num_bytes	number of bytes to transfer

uint8_t	I2C_read_bytes(uint8_t slave_addr, uint8_t *reg_ptr, uint8_t reg_len, uint8_t *dat_ptr, uint8_t dat_len)
{
     50a:	cf 92       	push	r12
     50c:	df 92       	push	r13
     50e:	ff 92       	push	r15
     510:	0f 93       	push	r16
     512:	1f 93       	push	r17
     514:	cf 93       	push	r28
     516:	df 93       	push	r29
     518:	6b 01       	movw	r12, r22
     51a:	f4 2e       	mov	r15, r20
     51c:	e9 01       	movw	r28, r18
	uint8_t status;
	if (dat_len > MAX_LEN) dat_len = MAX_LEN;
	status = I2C_start(slave_addr << 1);							// slave write address, LSB 0
     51e:	18 2f       	mov	r17, r24
     520:	11 0f       	add	r17, r17
     522:	81 2f       	mov	r24, r17
     524:	50 df       	rcall	.-352    	; 0x3c6 <I2C_start>
	if (status != 0) goto error;
     526:	81 11       	cpse	r24, r1
	status = I2C_wait_ACK();										// wait for slave ACK
     528:	2b c0       	rjmp	.+86     	; 0x580 <I2C_read_bytes+0x76>
     52a:	5e df       	rcall	.-324    	; 0x3e8 <I2C_wait_ACK>
	if (status == 1) {
     52c:	81 30       	cpi	r24, 0x01	; 1
		I2C_stop();													// NACK, abort
     52e:	19 f4       	brne	.+6      	; 0x536 <I2C_read_bytes+0x2c>
     530:	e6 df       	rcall	.-52     	; 0x4fe <I2C_stop>
		return 1;
     532:	81 e0       	ldi	r24, 0x01	; 1
     534:	27 c0       	rjmp	.+78     	; 0x584 <I2C_read_bytes+0x7a>
	}
	if (status != 0) goto error;
     536:	81 11       	cpse	r24, r1
     538:	23 c0       	rjmp	.+70     	; 0x580 <I2C_read_bytes+0x76>
    while(reg_len > 0){
     53a:	ff 20       	and	r15, r15
	    status = I2C_write(reg_ptr);    							// send slave start register
     53c:	49 f0       	breq	.+18     	; 0x550 <I2C_read_bytes+0x46>
     53e:	c6 01       	movw	r24, r12
     540:	bb df       	rcall	.-138    	; 0x4b8 <I2C_write>
	    if (status != 0) goto error;
     542:	81 11       	cpse	r24, r1
     544:	1d c0       	rjmp	.+58     	; 0x580 <I2C_read_bytes+0x76>
        ++reg_ptr;
     546:	8f ef       	ldi	r24, 0xFF	; 255
     548:	c8 1a       	sub	r12, r24
     54a:	d8 0a       	sbc	r13, r24
        --reg_len;
     54c:	fa 94       	dec	r15
     54e:	f5 cf       	rjmp	.-22     	; 0x53a <I2C_read_bytes+0x30>
     550:	01 34       	cpi	r16, 0x41	; 65
     552:	08 f0       	brcs	.+2      	; 0x556 <I2C_read_bytes+0x4c>
     554:	00 e4       	ldi	r16, 0x40	; 64
    }
	I2C_rep_start((slave_addr << 1) + 1);							// slave read address, LSB 1
     556:	1f 5f       	subi	r17, 0xFF	; 255
// the Atmel device documentation mentions a special command for repeated start TWI_MCMD_REPSTART_gc,
// but this is not used in Atmel's demo code, so we don't use it either

void I2C_rep_start(uint8_t shifted_addr)						    // send repeated start, device_addr + LSB set if READ
{
	TWI0.MADDR = shifted_addr;	
     558:	10 93 17 08 	sts	0x0817, r17	; 0x800817 <__TEXT_REGION_LENGTH__+0x700817>
	    if (status != 0) goto error;
        ++reg_ptr;
        --reg_len;
    }
	I2C_rep_start((slave_addr << 1) + 1);							// slave read address, LSB 1
	while (dat_len > 1) {
     55c:	02 30       	cpi	r16, 0x02	; 2
		status = I2C_read(dat_ptr, 0);								// first bytes, send ACK
     55e:	40 f0       	brcs	.+16     	; 0x570 <I2C_read_bytes+0x66>
     560:	60 e0       	ldi	r22, 0x00	; 0
     562:	ce 01       	movw	r24, r28
     564:	68 df       	rcall	.-304    	; 0x436 <I2C_read>
		if (status != 0) goto error;
     566:	81 11       	cpse	r24, r1
     568:	0b c0       	rjmp	.+22     	; 0x580 <I2C_read_bytes+0x76>
		++dat_ptr;
		--dat_len;
     56a:	21 96       	adiw	r28, 0x01	; 1
     56c:	01 50       	subi	r16, 0x01	; 1
	}
	status = I2C_read(dat_ptr, 1);									// single or last byte, send NACK
     56e:	f6 cf       	rjmp	.-20     	; 0x55c <I2C_read_bytes+0x52>
     570:	61 e0       	ldi	r22, 0x01	; 1
     572:	ce 01       	movw	r24, r28
	if (status != 0) goto error;
     574:	60 df       	rcall	.-320    	; 0x436 <I2C_read>
     576:	81 11       	cpse	r24, r1
	I2C_stop();
     578:	03 c0       	rjmp	.+6      	; 0x580 <I2C_read_bytes+0x76>
     57a:	c1 df       	rcall	.-126    	; 0x4fe <I2C_stop>
	return 0;
     57c:	80 e0       	ldi	r24, 0x00	; 0
     57e:	02 c0       	rjmp	.+4      	; 0x584 <I2C_read_bytes+0x7a>
	
error:
	I2C_recover();													// clock out possibly stuck slave, reset master
     580:	e4 de       	rcall	.-568    	; 0x34a <I2C_recover>
     582:	8f ef       	ldi	r24, 0xFF	; 255
	return 0xff;													// flag error
     584:	df 91       	pop	r29
}
     586:	cf 91       	pop	r28
     588:	1f 91       	pop	r17
     58a:	0f 91       	pop	r16
     58c:	ff 90       	pop	r15
     58e:	df 90       	pop	r13
     590:	cf 90       	pop	r12
     592:	08 95       	ret

00000594 <initLanyard>:
uint8_t         lanyardCnt = 0;
uint8_t         lanyardState = TRUE;
uint16_t        lanyardLastActive = 0;

void initLanyard() {
    lanyardPos      = 0;
     594:	10 92 3d 38 	sts	0x383D, r1	; 0x80383d <lanyardPos>
    lanyardCnt      = 0;
     598:	10 92 3c 38 	sts	0x383C, r1	; 0x80383c <lanyardCnt>
    lanyardState    = TRUE;
     59c:	81 e0       	ldi	r24, 0x01	; 1
     59e:	80 93 02 38 	sts	0x3802, r24	; 0x803802 <lanyardState>
    ClearHackerLeds();
     5a2:	0c 94 1b 0b 	jmp	0x1636	; 0x1636 <ClearHackerLeds>
     5a6:	08 95       	ret

000005a8 <LanyardCode>:
}

// Main game loop
uint8_t LanyardCode(){
     5a8:	cf 93       	push	r28
    if (gameNow == LANYARD && idleTimeout(lanyardLastActive,LANYARD_MAX_IDLE)) {
     5aa:	80 91 42 38 	lds	r24, 0x3842	; 0x803842 <gameNow>
     5ae:	83 30       	cpi	r24, 0x03	; 3
     5b0:	81 f4       	brne	.+32     	; 0x5d2 <LanyardCode+0x2a>
     5b2:	6a e0       	ldi	r22, 0x0A	; 10
     5b4:	70 e0       	ldi	r23, 0x00	; 0
     5b6:	80 91 3a 38 	lds	r24, 0x383A	; 0x80383a <lanyardLastActive>
     5ba:	90 91 3b 38 	lds	r25, 0x383B	; 0x80383b <lanyardLastActive+0x1>
     5be:	0e 94 46 0e 	call	0x1c8c	; 0x1c8c <idleTimeout>
     5c2:	88 23       	and	r24, r24
     5c4:	31 f0       	breq	.+12     	; 0x5d2 <LanyardCode+0x2a>
        /* clean up maze game and go back to text game */
        initLanyard();
     5c6:	e6 df       	rcall	.-52     	; 0x594 <initLanyard>
        gameNow = TEXT;
     5c8:	10 92 42 38 	sts	0x3842, r1	; 0x803842 <gameNow>
        ClearHackerLeds();
     5cc:	0e 94 1b 0b 	call	0x1636	; 0x1636 <ClearHackerLeds>
        return 0;
     5d0:	9b c0       	rjmp	.+310    	; 0x708 <LanyardCode+0x160>
    }

    if (CheckState(LANYARD_COMPLETED))
     5d2:	8b e7       	ldi	r24, 0x7B	; 123
     5d4:	22 d7       	rcall	.+3652   	; 0x141a <CheckState>
     5d6:	81 11       	cpse	r24, r1
     5d8:	97 c0       	rjmp	.+302    	; 0x708 <LanyardCode+0x160>
        return 0;

    if ( gameNow != TEXT && gameNow != LANYARD )
     5da:	80 91 42 38 	lds	r24, 0x3842	; 0x803842 <gameNow>
     5de:	88 23       	and	r24, r24
     5e0:	19 f0       	breq	.+6      	; 0x5e8 <LanyardCode+0x40>
     5e2:	83 30       	cpi	r24, 0x03	; 3
     5e4:	09 f0       	breq	.+2      	; 0x5e8 <LanyardCode+0x40>
     5e6:	90 c0       	rjmp	.+288    	; 0x708 <LanyardCode+0x160>
        return 0;

    /* activate led for buttonstate */
    iLED[CAT] = (buttonState==0xff ? 0 : dimValue);
     5e8:	c0 91 be be 	lds	r28, 0xBEBE	; 0x80bebe <__bss_end+0x83a6>
     5ec:	ec 2f       	mov	r30, r28
     5ee:	f0 e0       	ldi	r31, 0x00	; 0
     5f0:	80 91 08 38 	lds	r24, 0x3808	; 0x803808 <buttonState>
     5f4:	8f 3f       	cpi	r24, 0xFF	; 255
     5f6:	19 f0       	breq	.+6      	; 0x5fe <LanyardCode+0x56>
     5f8:	90 91 0c 38 	lds	r25, 0x380C	; 0x80380c <dimValue>
     5fc:	01 c0       	rjmp	.+2      	; 0x600 <LanyardCode+0x58>
     5fe:	90 e0       	ldi	r25, 0x00	; 0
     600:	e7 53       	subi	r30, 0x37	; 55
     602:	f5 4c       	sbci	r31, 0xC5	; 197
     604:	90 83       	st	Z, r25

    if (buttonState == 0xff)
     606:	8f 3f       	cpi	r24, 0xFF	; 255
     608:	09 f4       	brne	.+2      	; 0x60c <LanyardCode+0x64>
     60a:	7e c0       	rjmp	.+252    	; 0x708 <LanyardCode+0x160>
        return 0;

    if (buttonState == lastButtonState)
     60c:	90 91 07 38 	lds	r25, 0x3807	; 0x803807 <lastButtonState>
     610:	89 17       	cp	r24, r25
     612:	09 f4       	brne	.+2      	; 0x616 <LanyardCode+0x6e>
     614:	79 c0       	rjmp	.+242    	; 0x708 <LanyardCode+0x160>
        return 0;

    lanyardLastActive = getClock();
     616:	0e 94 37 0e 	call	0x1c6e	; 0x1c6e <getClock>
     61a:	80 93 3a 38 	sts	0x383A, r24	; 0x80383a <lanyardLastActive>
     61e:	90 93 3b 38 	sts	0x383B, r25	; 0x80383b <lanyardLastActive+0x1>

    if (lastButtonState == 0xff){
     622:	80 91 07 38 	lds	r24, 0x3807	; 0x803807 <lastButtonState>
     626:	8f 3f       	cpi	r24, 0xFF	; 255
     628:	09 f0       	breq	.+2      	; 0x62c <LanyardCode+0x84>
     62a:	6e c0       	rjmp	.+220    	; 0x708 <LanyardCode+0x160>
        effect = 0x13f + (buttonState << 5);
     62c:	80 91 08 38 	lds	r24, 0x3808	; 0x803808 <buttonState>
     630:	20 e2       	ldi	r18, 0x20	; 32
     632:	82 9f       	mul	r24, r18
     634:	c0 01       	movw	r24, r0
     636:	11 24       	eor	r1, r1
     638:	81 5c       	subi	r24, 0xC1	; 193
     63a:	9e 4f       	sbci	r25, 0xFE	; 254
     63c:	80 93 40 38 	sts	0x3840, r24	; 0x803840 <effect>
     640:	90 93 41 38 	sts	0x3841, r25	; 0x803841 <effect+0x1>

        if (gameNow != LANYARD)
     644:	80 91 42 38 	lds	r24, 0x3842	; 0x803842 <gameNow>
     648:	83 30       	cpi	r24, 0x03	; 3
            initLanyard();
     64a:	09 f0       	breq	.+2      	; 0x64e <LanyardCode+0xa6>
     64c:	a3 df       	rcall	.-186    	; 0x594 <initLanyard>
        gameNow = LANYARD;
     64e:	83 e0       	ldi	r24, 0x03	; 3
     650:	80 93 42 38 	sts	0x3842, r24	; 0x803842 <gameNow>

        if (buttonState == lanyardCode[lanyardPos]) {
     654:	80 91 3d 38 	lds	r24, 0x383D	; 0x80383d <lanyardPos>
     658:	e8 2f       	mov	r30, r24
     65a:	f0 e0       	ldi	r31, 0x00	; 0
     65c:	ea 55       	subi	r30, 0x5A	; 90
     65e:	f1 44       	sbci	r31, 0x41	; 65
     660:	20 81       	ld	r18, Z
     662:	90 91 08 38 	lds	r25, 0x3808	; 0x803808 <buttonState>
     666:	29 13       	cpse	r18, r25
     668:	12 c0       	rjmp	.+36     	; 0x68e <LanyardCode+0xe6>
            lanyardState &= TRUE;
     66a:	90 91 02 38 	lds	r25, 0x3802	; 0x803802 <lanyardState>
     66e:	91 70       	andi	r25, 0x01	; 1
     670:	90 93 02 38 	sts	0x3802, r25	; 0x803802 <lanyardState>
            iLED[EYE[R][L]] = 0;
     674:	e0 91 cd be 	lds	r30, 0xBECD	; 0x80becd <__bss_end+0x83b5>
     678:	f0 e0       	ldi	r31, 0x00	; 0
     67a:	e7 53       	subi	r30, 0x37	; 55
     67c:	f5 4c       	sbci	r31, 0xC5	; 197
     67e:	10 82       	st	Z, r1
            iLED[EYE[R][R]] = 0;
     680:	e0 91 cc be 	lds	r30, 0xBECC	; 0x80becc <__bss_end+0x83b4>
     684:	f0 e0       	ldi	r31, 0x00	; 0
     686:	e7 53       	subi	r30, 0x37	; 55
     688:	f5 4c       	sbci	r31, 0xC5	; 197
     68a:	10 82       	st	Z, r1
     68c:	09 c0       	rjmp	.+18     	; 0x6a0 <LanyardCode+0xf8>
        } else {
            lanyardState = FALSE;
     68e:	10 92 02 38 	sts	0x3802, r1	; 0x803802 <lanyardState>
            if (lanyardPos < 4 ) {
     692:	84 30       	cpi	r24, 0x04	; 4
                initLanyard();
     694:	28 f4       	brcc	.+10     	; 0x6a0 <LanyardCode+0xf8>
     696:	7e df       	rcall	.-260    	; 0x594 <initLanyard>
                gameNow         = BASTET;
     698:	82 e0       	ldi	r24, 0x02	; 2
     69a:	80 93 42 38 	sts	0x3842, r24	; 0x803842 <gameNow>
                return 0;
     69e:	34 c0       	rjmp	.+104    	; 0x708 <LanyardCode+0x160>
            }
        }
        lanyardPos++;
     6a0:	8f 5f       	subi	r24, 0xFF	; 255
     6a2:	80 93 3d 38 	sts	0x383D, r24	; 0x80383d <lanyardPos>
        lanyardCnt++;            
     6a6:	90 91 3c 38 	lds	r25, 0x383C	; 0x80383c <lanyardCnt>
     6aa:	9f 5f       	subi	r25, 0xFF	; 255
        if (lanyardCnt >= 4) {
     6ac:	94 30       	cpi	r25, 0x04	; 4
     6ae:	18 f4       	brcc	.+6      	; 0x6b6 <LanyardCode+0x10e>
                gameNow         = BASTET;
                return 0;
            }
        }
        lanyardPos++;
        lanyardCnt++;            
     6b0:	90 93 3c 38 	sts	0x383C, r25	; 0x80383c <lanyardCnt>
     6b4:	29 c0       	rjmp	.+82     	; 0x708 <LanyardCode+0x160>
        if (lanyardCnt >= 4) {
            lanyardCnt = 0;
     6b6:	10 92 3c 38 	sts	0x383C, r1	; 0x80383c <lanyardCnt>
            if (lanyardState == TRUE) {
     6ba:	90 91 02 38 	lds	r25, 0x3802	; 0x803802 <lanyardState>
     6be:	91 30       	cpi	r25, 0x01	; 1
     6c0:	e1 f4       	brne	.+56     	; 0x6fa <LanyardCode+0x152>
                if ((lanyardPos % 4) == 0) {
     6c2:	98 2f       	mov	r25, r24
     6c4:	93 70       	andi	r25, 0x03	; 3
     6c6:	69 f4       	brne	.+26     	; 0x6e2 <LanyardCode+0x13a>
                    iLED[HCKR[G][(lanyardPos>>2)-1]] = dimValue;
     6c8:	e8 2f       	mov	r30, r24
     6ca:	e6 95       	lsr	r30
     6cc:	e6 95       	lsr	r30
     6ce:	f0 e0       	ldi	r31, 0x00	; 0
     6d0:	e0 53       	subi	r30, 0x30	; 48
     6d2:	f1 44       	sbci	r31, 0x41	; 65
     6d4:	e5 81       	ldd	r30, Z+5	; 0x05
     6d6:	f0 e0       	ldi	r31, 0x00	; 0
     6d8:	90 91 0c 38 	lds	r25, 0x380C	; 0x80380c <dimValue>
     6dc:	e7 53       	subi	r30, 0x37	; 55
     6de:	f5 4c       	sbci	r31, 0xC5	; 197
                }
                if (lanyardPos == LANYARD_LEN) {
     6e0:	90 83       	st	Z, r25
     6e2:	88 31       	cpi	r24, 0x18	; 24
                    UpdateState(LANYARD_COMPLETED);
     6e4:	89 f4       	brne	.+34     	; 0x708 <LanyardCode+0x160>
     6e6:	8b e7       	ldi	r24, 0x7B	; 123
     6e8:	77 d6       	rcall	.+3310   	; 0x13d8 <UpdateState>
                    iLED[CAT]       = 0;
     6ea:	ec 2f       	mov	r30, r28
     6ec:	f0 e0       	ldi	r31, 0x00	; 0
     6ee:	e7 53       	subi	r30, 0x37	; 55
     6f0:	f5 4c       	sbci	r31, 0xC5	; 197
                    effect = 0x42;
     6f2:	10 82       	st	Z, r1
     6f4:	82 e4       	ldi	r24, 0x42	; 66
     6f6:	90 e0       	ldi	r25, 0x00	; 0
                    /*TODO state = STATE_MUSIC;*/
                }
            } else {
                initLanyard();
     6f8:	03 c0       	rjmp	.+6      	; 0x700 <LanyardCode+0x158>
     6fa:	4c df       	rcall	.-360    	; 0x594 <initLanyard>
                effect = 0x21;
     6fc:	81 e2       	ldi	r24, 0x21	; 33
     6fe:	90 e0       	ldi	r25, 0x00	; 0
     700:	80 93 40 38 	sts	0x3840, r24	; 0x803840 <effect>
     704:	90 93 41 38 	sts	0x3841, r25	; 0x803841 <effect+0x1>
            }
        }
    }

    return 0;
}
     708:	80 e0       	ldi	r24, 0x00	; 0
     70a:	cf 91       	pop	r28
     70c:	08 95       	ret

0000070e <initMaze>:
uint8_t         mazeState = TRUE;
uint8_t         inverted  = FALSE;
uint16_t        mazeLastActive = 0;

void initMaze() {
    mazeHckrPos = 0;
     70e:	10 92 4f 38 	sts	0x384F, r1	; 0x80384f <mazeHckrPos>
    mazePos = 0;
     712:	10 92 50 38 	sts	0x3850, r1	; 0x803850 <mazePos>
    mazeCnt = 0;
     716:	10 92 4e 38 	sts	0x384E, r1	; 0x80384e <mazeCnt>
    mazeState = TRUE;
     71a:	81 e0       	ldi	r24, 0x01	; 1
     71c:	80 93 0d 38 	sts	0x380D, r24	; 0x80380d <mazeState>
    inverted  = FALSE;
     720:	10 92 4d 38 	sts	0x384D, r1	; 0x80384d <inverted>
    ClearHackerLeds();
     724:	88 c7       	rjmp	.+3856   	; 0x1636 <ClearHackerLeds>
     726:	08 95       	ret

00000728 <showFieldStrength>:
}

void showFieldStrength(int16_t val) {
     728:	cf 93       	push	r28
     72a:	df 93       	push	r29
     72c:	ec 01       	movw	r28, r24
    int16_t field;
 
    field = abs(val);
     72e:	97 ff       	sbrs	r25, 7
     730:	03 c0       	rjmp	.+6      	; 0x738 <showFieldStrength+0x10>
     732:	d1 95       	neg	r29
     734:	c1 95       	neg	r28
     736:	d1 09       	sbc	r29, r1
 
    if ( field > HALL_FIELD_0 ) {
     738:	cd 33       	cpi	r28, 0x3D	; 61
     73a:	d1 05       	cpc	r29, r1
     73c:	44 f0       	brlt	.+16     	; 0x74e <showFieldStrength+0x26>
        if (gameNow == TEXT) {
     73e:	80 91 42 38 	lds	r24, 0x3842	; 0x803842 <gameNow>
     742:	81 11       	cpse	r24, r1
     744:	04 c0       	rjmp	.+8      	; 0x74e <showFieldStrength+0x26>
            initMaze();
     746:	e3 df       	rcall	.-58     	; 0x70e <initMaze>
            gameNow = MAZE;
     748:	81 e0       	ldi	r24, 0x01	; 1
     74a:	80 93 42 38 	sts	0x3842, r24	; 0x803842 <gameNow>
        }
    }

    if (gameNow == MAZE) {
     74e:	80 91 42 38 	lds	r24, 0x3842	; 0x803842 <gameNow>
     752:	81 30       	cpi	r24, 0x01	; 1
     754:	09 f5       	brne	.+66     	; 0x798 <showFieldStrength+0x70>
        if ( field < HALL_FIELD_0 )
     756:	cc 33       	cpi	r28, 0x3C	; 60
     758:	d1 05       	cpc	r29, r1
     75a:	1c f4       	brge	.+6      	; 0x762 <showFieldStrength+0x3a>
            WingBar(0,0);
     75c:	60 e0       	ldi	r22, 0x00	; 0
     75e:	80 e0       	ldi	r24, 0x00	; 0
     760:	1a c0       	rjmp	.+52     	; 0x796 <showFieldStrength+0x6e>
        else if ( field < HALL_FIELD_1 )
     762:	c8 37       	cpi	r28, 0x78	; 120
     764:	d1 05       	cpc	r29, r1
     766:	1c f4       	brge	.+6      	; 0x76e <showFieldStrength+0x46>
            WingBar(1,1);
     768:	61 e0       	ldi	r22, 0x01	; 1
     76a:	81 e0       	ldi	r24, 0x01	; 1
     76c:	14 c0       	rjmp	.+40     	; 0x796 <showFieldStrength+0x6e>
        else if ( field < HALL_FIELD_2 )
     76e:	c6 39       	cpi	r28, 0x96	; 150
     770:	d1 05       	cpc	r29, r1
     772:	1c f4       	brge	.+6      	; 0x77a <showFieldStrength+0x52>
            WingBar(2,2);
     774:	62 e0       	ldi	r22, 0x02	; 2
     776:	82 e0       	ldi	r24, 0x02	; 2
     778:	0e c0       	rjmp	.+28     	; 0x796 <showFieldStrength+0x6e>
        else if ( field < HALL_FIELD_3 )
     77a:	c8 3c       	cpi	r28, 0xC8	; 200
     77c:	d1 05       	cpc	r29, r1
     77e:	1c f4       	brge	.+6      	; 0x786 <showFieldStrength+0x5e>
            WingBar(3,3);
     780:	63 e0       	ldi	r22, 0x03	; 3
     782:	83 e0       	ldi	r24, 0x03	; 3
     784:	08 c0       	rjmp	.+16     	; 0x796 <showFieldStrength+0x6e>
        else if ( field < HALL_FIELD_4 )
     786:	cc 32       	cpi	r28, 0x2C	; 44
     788:	d1 40       	sbci	r29, 0x01	; 1
     78a:	1c f4       	brge	.+6      	; 0x792 <showFieldStrength+0x6a>
            WingBar(4,4);
     78c:	64 e0       	ldi	r22, 0x04	; 4
     78e:	84 e0       	ldi	r24, 0x04	; 4
     790:	02 c0       	rjmp	.+4      	; 0x796 <showFieldStrength+0x6e>
        else
            WingBar(5,5);
     792:	65 e0       	ldi	r22, 0x05	; 5
     794:	85 e0       	ldi	r24, 0x05	; 5
     796:	11 d7       	rcall	.+3618   	; 0x15ba <WingBar>
    }
}
     798:	df 91       	pop	r29
     79a:	cf 91       	pop	r28
     79c:	08 95       	ret

0000079e <MagnetMaze>:

// Main game loop
uint8_t MagnetMaze(){
     79e:	cf 93       	push	r28
     7a0:	df 93       	push	r29
    if (gameNow == MAZE && idleTimeout(mazeLastActive,MAZE_MAX_IDLE)) {
     7a2:	80 91 42 38 	lds	r24, 0x3842	; 0x803842 <gameNow>
     7a6:	81 30       	cpi	r24, 0x01	; 1
     7a8:	71 f4       	brne	.+28     	; 0x7c6 <MagnetMaze+0x28>
     7aa:	6a e0       	ldi	r22, 0x0A	; 10
     7ac:	70 e0       	ldi	r23, 0x00	; 0
     7ae:	80 91 4b 38 	lds	r24, 0x384B	; 0x80384b <mazeLastActive>
     7b2:	90 91 4c 38 	lds	r25, 0x384C	; 0x80384c <mazeLastActive+0x1>
     7b6:	0e 94 46 0e 	call	0x1c8c	; 0x1c8c <idleTimeout>
     7ba:	88 23       	and	r24, r24
     7bc:	21 f0       	breq	.+8      	; 0x7c6 <MagnetMaze+0x28>
        /* clean up maze game and go back to text game */
        initMaze();
     7be:	a7 df       	rcall	.-178    	; 0x70e <initMaze>
        gameNow = TEXT;
     7c0:	10 92 42 38 	sts	0x3842, r1	; 0x803842 <gameNow>
        return 0;
     7c4:	e5 c0       	rjmp	.+458    	; 0x990 <MagnetMaze+0x1f2>
    }
        
    if (CheckState(MAZE_INACTIVE))
     7c6:	87 ef       	ldi	r24, 0xF7	; 247
     7c8:	28 d6       	rcall	.+3152   	; 0x141a <CheckState>
     7ca:	81 11       	cpse	r24, r1
     7cc:	e1 c0       	rjmp	.+450    	; 0x990 <MagnetMaze+0x1f2>
        return 0;

    if (CheckState(MAZE_COMPLETED))
     7ce:	8d e7       	ldi	r24, 0x7D	; 125
     7d0:	24 d6       	rcall	.+3144   	; 0x141a <CheckState>
     7d2:	81 11       	cpse	r24, r1
     7d4:	dd c0       	rjmp	.+442    	; 0x990 <MagnetMaze+0x1f2>
     7d6:	80 91 42 38 	lds	r24, 0x3842	; 0x803842 <gameNow>
        return 0;

    if ( (gameNow != TEXT) && (gameNow != MAZE) )
     7da:	82 30       	cpi	r24, 0x02	; 2
     7dc:	08 f0       	brcs	.+2      	; 0x7e0 <MagnetMaze+0x42>
     7de:	d8 c0       	rjmp	.+432    	; 0x990 <MagnetMaze+0x1f2>
     7e0:	80 91 f1 3a 	lds	r24, 0x3AF1	; 0x803af1 <calHall>
        return 0;

    if (calHall == 0)
     7e4:	90 91 f2 3a 	lds	r25, 0x3AF2	; 0x803af2 <calHall+0x1>
     7e8:	89 2b       	or	r24, r25
     7ea:	41 f4       	brne	.+16     	; 0x7fc <MagnetMaze+0x5e>
     7ec:	80 91 c1 3a 	lds	r24, 0x3AC1	; 0x803ac1 <adcHall>
        calHall = adcHall;
     7f0:	90 91 c2 3a 	lds	r25, 0x3AC2	; 0x803ac2 <adcHall+0x1>
     7f4:	80 93 f1 3a 	sts	0x3AF1, r24	; 0x803af1 <calHall>
     7f8:	90 93 f2 3a 	sts	0x3AF2, r25	; 0x803af2 <calHall+0x1>
     7fc:	c0 91 c1 3a 	lds	r28, 0x3AC1	; 0x803ac1 <adcHall>

    int16_t valHall = adcHall - calHall;
     800:	d0 91 c2 3a 	lds	r29, 0x3AC2	; 0x803ac2 <adcHall+0x1>
     804:	80 91 f1 3a 	lds	r24, 0x3AF1	; 0x803af1 <calHall>
     808:	90 91 f2 3a 	lds	r25, 0x3AF2	; 0x803af2 <calHall+0x1>
     80c:	c8 1b       	sub	r28, r24
     80e:	d9 0b       	sbc	r29, r25
    showFieldStrength(valHall);
     810:	ce 01       	movw	r24, r28
     812:	8a df       	rcall	.-236    	; 0x728 <showFieldStrength>
     814:	80 91 52 38 	lds	r24, 0x3852	; 0x803852 <curHallState>

    switch (curHallState) {
     818:	81 30       	cpi	r24, 0x01	; 1
     81a:	89 f0       	breq	.+34     	; 0x83e <MagnetMaze+0xa0>
     81c:	18 f0       	brcs	.+6      	; 0x824 <MagnetMaze+0x86>
     81e:	82 30       	cpi	r24, 0x02	; 2
     820:	c1 f0       	breq	.+48     	; 0x852 <MagnetMaze+0xb4>
     822:	1f c0       	rjmp	.+62     	; 0x862 <MagnetMaze+0xc4>
     824:	c4 3d       	cpi	r28, 0xD4	; 212
        case 0:
            if ( valHall + HALL_HIGH < 0 ) {
     826:	9e ef       	ldi	r25, 0xFE	; 254
     828:	d9 07       	cpc	r29, r25
     82a:	14 f4       	brge	.+4      	; 0x830 <MagnetMaze+0x92>
     82c:	91 e0       	ldi	r25, 0x01	; 1
                newHallState = 1;
     82e:	04 c0       	rjmp	.+8      	; 0x838 <MagnetMaze+0x9a>
     830:	cd 32       	cpi	r28, 0x2D	; 45
            } else if ( valHall - HALL_HIGH > 0 ) {
     832:	d1 40       	sbci	r29, 0x01	; 1
     834:	5c f0       	brlt	.+22     	; 0x84c <MagnetMaze+0xae>
     836:	92 e0       	ldi	r25, 0x02	; 2
                newHallState = 2;
     838:	90 93 51 38 	sts	0x3851, r25	; 0x803851 <newHallState>
     83c:	12 c0       	rjmp	.+36     	; 0x862 <MagnetMaze+0xc4>
     83e:	cd 32       	cpi	r28, 0x2D	; 45
                newHallState = 0;
            }
            break;
        
        case 1:
            if ( valHall - HALL_HIGH > 0 ) {
     840:	91 e0       	ldi	r25, 0x01	; 1
     842:	d9 07       	cpc	r29, r25
     844:	c4 f7       	brge	.-16     	; 0x836 <MagnetMaze+0x98>
     846:	c9 38       	cpi	r28, 0x89	; 137
                newHallState = 2;
            } else if ( valHall + HALL_LOW > 0 ) {
     848:	df 4f       	sbci	r29, 0xFF	; 255
     84a:	84 f3       	brlt	.-32     	; 0x82c <MagnetMaze+0x8e>
     84c:	10 92 51 38 	sts	0x3851, r1	; 0x803851 <newHallState>
            if ( valHall + HALL_HIGH < 0 ) {
                newHallState = 1;
            } else if ( valHall - HALL_HIGH > 0 ) {
                newHallState = 2;
            } else {
                newHallState = 0;
     850:	08 c0       	rjmp	.+16     	; 0x862 <MagnetMaze+0xc4>
     852:	c4 3d       	cpi	r28, 0xD4	; 212
                newHallState = 1;
            }
            break;
        
        case 2:
            if ( valHall + HALL_HIGH < 0 ) {
     854:	9e ef       	ldi	r25, 0xFE	; 254
     856:	d9 07       	cpc	r29, r25
     858:	4c f3       	brlt	.-46     	; 0x82c <MagnetMaze+0x8e>
     85a:	c8 37       	cpi	r28, 0x78	; 120
                newHallState = 1;
            } else if ( valHall - HALL_LOW < 0 ) {
     85c:	d1 05       	cpc	r29, r1
     85e:	b4 f3       	brlt	.-20     	; 0x84c <MagnetMaze+0xae>
     860:	ea cf       	rjmp	.-44     	; 0x836 <MagnetMaze+0x98>
     862:	c0 91 be be 	lds	r28, 0xBEBE	; 0x80bebe <__bss_end+0x83a6>
            }
            break;
    }

    /* Indicate that the magnet was read succesfully */
    iLED[CAT] = (newHallState ? dimValue : 0);
     866:	ec 2f       	mov	r30, r28
     868:	f0 e0       	ldi	r31, 0x00	; 0
     86a:	90 91 51 38 	lds	r25, 0x3851	; 0x803851 <newHallState>
     86e:	99 23       	and	r25, r25
     870:	19 f0       	breq	.+6      	; 0x878 <MagnetMaze+0xda>
     872:	20 91 0c 38 	lds	r18, 0x380C	; 0x80380c <dimValue>
     876:	01 c0       	rjmp	.+2      	; 0x87a <MagnetMaze+0xdc>
     878:	20 e0       	ldi	r18, 0x00	; 0
     87a:	e7 53       	subi	r30, 0x37	; 55
     87c:	f5 4c       	sbci	r31, 0xC5	; 197
     87e:	20 83       	st	Z, r18
     880:	2f e9       	ldi	r18, 0x9F	; 159
    effect = 0x19f;
     882:	31 e0       	ldi	r19, 0x01	; 1
     884:	20 93 40 38 	sts	0x3840, r18	; 0x803840 <effect>
     888:	30 93 41 38 	sts	0x3841, r19	; 0x803841 <effect+0x1>
     88c:	89 17       	cp	r24, r25

    if (newHallState != curHallState) {
     88e:	09 f4       	brne	.+2      	; 0x892 <MagnetMaze+0xf4>
     890:	7f c0       	rjmp	.+254    	; 0x990 <MagnetMaze+0x1f2>
     892:	0e 94 37 0e 	call	0x1c6e	; 0x1c6e <getClock>
        /* keep track of time to enable an idle timeout to exit the game */
        mazeLastActive = getClock();
     896:	80 93 4b 38 	sts	0x384B, r24	; 0x80384b <mazeLastActive>
     89a:	90 93 4c 38 	sts	0x384C, r25	; 0x80384c <mazeLastActive+0x1>
     89e:	90 91 50 38 	lds	r25, 0x3850	; 0x803850 <mazePos>

        /* Make the maze work regardless of badge orientation */
        if ((mazePos == 0) && (newHallState != 0))
     8a2:	80 91 51 38 	lds	r24, 0x3851	; 0x803851 <newHallState>
     8a6:	91 11       	cpse	r25, r1
     8a8:	08 c0       	rjmp	.+16     	; 0x8ba <MagnetMaze+0x11c>
     8aa:	88 23       	and	r24, r24
     8ac:	31 f0       	breq	.+12     	; 0x8ba <MagnetMaze+0x11c>
     8ae:	91 e0       	ldi	r25, 0x01	; 1
            inverted = (newHallState != mazeCode[0]) ? TRUE : FALSE;
     8b0:	81 30       	cpi	r24, 0x01	; 1
     8b2:	09 f4       	brne	.+2      	; 0x8b6 <MagnetMaze+0x118>
     8b4:	90 e0       	ldi	r25, 0x00	; 0
     8b6:	90 93 4d 38 	sts	0x384D, r25	; 0x80384d <inverted>
     8ba:	80 93 52 38 	sts	0x3852, r24	; 0x803852 <curHallState>

        curHallState = newHallState;
     8be:	88 23       	and	r24, r24
        
        if (curHallState != 0) {
     8c0:	09 f4       	brne	.+2      	; 0x8c4 <MagnetMaze+0x126>
     8c2:	66 c0       	rjmp	.+204    	; 0x990 <MagnetMaze+0x1f2>
     8c4:	80 91 42 38 	lds	r24, 0x3842	; 0x803842 <gameNow>
            if (gameNow == TEXT)
     8c8:	81 11       	cpse	r24, r1
     8ca:	01 c0       	rjmp	.+2      	; 0x8ce <MagnetMaze+0x130>
                initMaze();
     8cc:	20 df       	rcall	.-448    	; 0x70e <initMaze>
     8ce:	81 e0       	ldi	r24, 0x01	; 1
            gameNow = MAZE;
     8d0:	80 93 42 38 	sts	0x3842, r24	; 0x803842 <gameNow>
     8d4:	80 91 4d 38 	lds	r24, 0x384D	; 0x80384d <inverted>

            if ( (inverted ? curHallState^3 : curHallState) == mazeCode[mazePos]) {
     8d8:	20 91 52 38 	lds	r18, 0x3852	; 0x803852 <curHallState>
     8dc:	88 23       	and	r24, r24
     8de:	11 f0       	breq	.+4      	; 0x8e4 <MagnetMaze+0x146>
     8e0:	83 e0       	ldi	r24, 0x03	; 3
     8e2:	28 27       	eor	r18, r24
     8e4:	30 e0       	ldi	r19, 0x00	; 0
     8e6:	80 91 50 38 	lds	r24, 0x3850	; 0x803850 <mazePos>
     8ea:	e8 2f       	mov	r30, r24
     8ec:	f0 e0       	ldi	r31, 0x00	; 0
     8ee:	e4 5f       	subi	r30, 0xF4	; 244
     8f0:	f0 44       	sbci	r31, 0x40	; 64
     8f2:	40 81       	ld	r20, Z
     8f4:	50 e0       	ldi	r21, 0x00	; 0
     8f6:	24 17       	cp	r18, r20
     8f8:	35 07       	cpc	r19, r21
     8fa:	91 f4       	brne	.+36     	; 0x920 <MagnetMaze+0x182>
     8fc:	90 91 0d 38 	lds	r25, 0x380D	; 0x80380d <mazeState>
                mazeState &= TRUE;
     900:	91 70       	andi	r25, 0x01	; 1
     902:	90 93 0d 38 	sts	0x380D, r25	; 0x80380d <mazeState>
     906:	e0 91 cd be 	lds	r30, 0xBECD	; 0x80becd <__bss_end+0x83b5>
                iLED[EYE[R][L]] = 0;
     90a:	f0 e0       	ldi	r31, 0x00	; 0
     90c:	e7 53       	subi	r30, 0x37	; 55
     90e:	f5 4c       	sbci	r31, 0xC5	; 197
     910:	10 82       	st	Z, r1
     912:	e0 91 cc be 	lds	r30, 0xBECC	; 0x80becc <__bss_end+0x83b4>
                iLED[EYE[R][R]] = 0;
     916:	f0 e0       	ldi	r31, 0x00	; 0
     918:	e7 53       	subi	r30, 0x37	; 55
     91a:	f5 4c       	sbci	r31, 0xC5	; 197
     91c:	10 82       	st	Z, r1
     91e:	02 c0       	rjmp	.+4      	; 0x924 <MagnetMaze+0x186>
     920:	10 92 0d 38 	sts	0x380D, r1	; 0x80380d <mazeState>
            } else {
                mazeState = FALSE;
     924:	8f 5f       	subi	r24, 0xFF	; 255
            }
            mazePos++;
     926:	80 93 50 38 	sts	0x3850, r24	; 0x803850 <mazePos>
     92a:	90 91 4e 38 	lds	r25, 0x384E	; 0x80384e <mazeCnt>
            mazeCnt++;            
     92e:	9f 5f       	subi	r25, 0xFF	; 255
     930:	93 30       	cpi	r25, 0x03	; 3
            if (mazeCnt >= 3) {
     932:	18 f4       	brcc	.+6      	; 0x93a <MagnetMaze+0x19c>
     934:	90 93 4e 38 	sts	0x384E, r25	; 0x80384e <mazeCnt>
                iLED[EYE[R][R]] = 0;
            } else {
                mazeState = FALSE;
            }
            mazePos++;
            mazeCnt++;            
     938:	2b c0       	rjmp	.+86     	; 0x990 <MagnetMaze+0x1f2>
     93a:	10 92 4e 38 	sts	0x384E, r1	; 0x80384e <mazeCnt>
            if (mazeCnt >= 3) {
                mazeCnt = 0;
     93e:	90 91 0d 38 	lds	r25, 0x380D	; 0x80380d <mazeState>
                if (mazeState == TRUE) {
     942:	91 30       	cpi	r25, 0x01	; 1
     944:	e1 f4       	brne	.+56     	; 0x97e <MagnetMaze+0x1e0>
     946:	90 91 4f 38 	lds	r25, 0x384F	; 0x80384f <mazeHckrPos>
                    iLED[HCKR[G][mazeHckrPos]] = dimValue;
     94a:	e9 2f       	mov	r30, r25
     94c:	f0 e0       	ldi	r31, 0x00	; 0
     94e:	e0 53       	subi	r30, 0x30	; 48
     950:	f1 44       	sbci	r31, 0x41	; 65
     952:	e6 81       	ldd	r30, Z+6	; 0x06
     954:	f0 e0       	ldi	r31, 0x00	; 0
     956:	20 91 0c 38 	lds	r18, 0x380C	; 0x80380c <dimValue>
     95a:	e7 53       	subi	r30, 0x37	; 55
     95c:	f5 4c       	sbci	r31, 0xC5	; 197
     95e:	20 83       	st	Z, r18
     960:	9f 5f       	subi	r25, 0xFF	; 255
                    mazeHckrPos++;
     962:	90 93 4f 38 	sts	0x384F, r25	; 0x80384f <mazeHckrPos>
                    if (mazePos == sizeof(mazeCode)) {
     966:	82 31       	cpi	r24, 0x12	; 18
     968:	99 f4       	brne	.+38     	; 0x990 <MagnetMaze+0x1f2>
                        UpdateState(MAZE_COMPLETED);
     96a:	8d e7       	ldi	r24, 0x7D	; 125
     96c:	35 d5       	rcall	.+2666   	; 0x13d8 <UpdateState>
     96e:	ec 2f       	mov	r30, r28
                        iLED[CAT]       = 0;
     970:	f0 e0       	ldi	r31, 0x00	; 0
     972:	e7 53       	subi	r30, 0x37	; 55
     974:	f5 4c       	sbci	r31, 0xC5	; 197
     976:	10 82       	st	Z, r1
                        effect = 0x42;
     978:	82 e4       	ldi	r24, 0x42	; 66
     97a:	90 e0       	ldi	r25, 0x00	; 0
     97c:	05 c0       	rjmp	.+10     	; 0x988 <MagnetMaze+0x1ea>
                        /*TODO state = STATE_MUSIC;*/
                    }
                } else {
                    initMaze();
     97e:	c7 de       	rcall	.-626    	; 0x70e <initMaze>
     980:	10 92 42 38 	sts	0x3842, r1	; 0x803842 <gameNow>
                    gameNow   = TEXT;
     984:	81 e2       	ldi	r24, 0x21	; 33
                    effect = 0x21;
     986:	90 e0       	ldi	r25, 0x00	; 0
     988:	80 93 40 38 	sts	0x3840, r24	; 0x803840 <effect>
     98c:	90 93 41 38 	sts	0x3841, r25	; 0x803841 <effect+0x1>
     990:	80 e0       	ldi	r24, 0x00	; 0
                }
            }
        }
    }
    return 0;
}
     992:	df 91       	pop	r29
     994:	cf 91       	pop	r28
     996:	08 95       	ret

00000998 <Setup>:
     998:	cf 93       	push	r28
volatile uint16_t tmp16bit;    
volatile uint8_t mask[8] = {0x01, 0x03, 0x07, 0x0f, 0x1f, 0x3f, 0x7f, 0xff};
uint8_t HeartCount = 0;
uint8_t LedCount = 0;

void Setup(){
     99a:	df 93       	push	r29
    cli();
     99c:	f8 94       	cli

    //Set up clock at 10MHz
    CCP = CCP_IOREG_gc;
     99e:	88 ed       	ldi	r24, 0xD8	; 216
     9a0:	84 bf       	out	0x34, r24	; 52
    CLKCTRL_MCLKCTRLB = 0x01;
     9a2:	c1 e0       	ldi	r28, 0x01	; 1
     9a4:	c0 93 61 00 	sts	0x0061, r28	; 0x800061 <__TEXT_REGION_LENGTH__+0x700061>

    //Set I/O direction registers
    PORTA_DIR = 0b01001010;
     9a8:	8a e4       	ldi	r24, 0x4A	; 74
     9aa:	80 93 00 04 	sts	0x0400, r24	; 0x800400 <__TEXT_REGION_LENGTH__+0x700400>
    PORTB_DIR = 0b01111100;
     9ae:	8c e7       	ldi	r24, 0x7C	; 124
     9b0:	80 93 20 04 	sts	0x0420, r24	; 0x800420 <__TEXT_REGION_LENGTH__+0x700420>
    PORTC_DIR = 0b00111111;
     9b4:	9f e3       	ldi	r25, 0x3F	; 63
     9b6:	90 93 40 04 	sts	0x0440, r25	; 0x800440 <__TEXT_REGION_LENGTH__+0x700440>

    //Invert some pins for correcting LED reversal error
#ifndef PURIST_BADGE
    PORTC_PIN3CTRL |= 0x80;
     9ba:	80 91 53 04 	lds	r24, 0x0453	; 0x800453 <__TEXT_REGION_LENGTH__+0x700453>
     9be:	80 68       	ori	r24, 0x80	; 128
     9c0:	80 93 53 04 	sts	0x0453, r24	; 0x800453 <__TEXT_REGION_LENGTH__+0x700453>
    PORTC_PIN4CTRL |= 0x80;
     9c4:	80 91 54 04 	lds	r24, 0x0454	; 0x800454 <__TEXT_REGION_LENGTH__+0x700454>
     9c8:	80 68       	ori	r24, 0x80	; 128
     9ca:	80 93 54 04 	sts	0x0454, r24	; 0x800454 <__TEXT_REGION_LENGTH__+0x700454>
    PORTC_PIN5CTRL |= 0x80;
     9ce:	80 91 55 04 	lds	r24, 0x0455	; 0x800455 <__TEXT_REGION_LENGTH__+0x700455>
     9d2:	80 68       	ori	r24, 0x80	; 128
     9d4:	80 93 55 04 	sts	0x0455, r24	; 0x800455 <__TEXT_REGION_LENGTH__+0x700455>
    PORTB_PIN3CTRL |= 0x80;
     9d8:	80 91 33 04 	lds	r24, 0x0433	; 0x800433 <__TEXT_REGION_LENGTH__+0x700433>
     9dc:	80 68       	ori	r24, 0x80	; 128
     9de:	80 93 33 04 	sts	0x0433, r24	; 0x800433 <__TEXT_REGION_LENGTH__+0x700433>
    PORTB_PIN4CTRL |= 0x80;
     9e2:	80 91 34 04 	lds	r24, 0x0434	; 0x800434 <__TEXT_REGION_LENGTH__+0x700434>
     9e6:	80 68       	ori	r24, 0x80	; 128
     9e8:	80 93 34 04 	sts	0x0434, r24	; 0x800434 <__TEXT_REGION_LENGTH__+0x700434>
    PORTB_PIN5CTRL |= 0x80;
     9ec:	80 91 35 04 	lds	r24, 0x0435	; 0x800435 <__TEXT_REGION_LENGTH__+0x700435>
     9f0:	80 68       	ori	r24, 0x80	; 128
     9f2:	80 93 35 04 	sts	0x0435, r24	; 0x800435 <__TEXT_REGION_LENGTH__+0x700435>
    PORTB_PIN2CTRL |= 0x80;
    PORTB_PIN6CTRL |= 0x80;
    */

    //UART (Alternative pins PA1=TxD, PA2=RxD, baudrate 9600, 8n1, RX and Buffer empty interrupts on)
    PORTMUX_CTRLB = 0x01;
     9f6:	c0 93 01 02 	sts	0x0201, r28	; 0x800201 <__TEXT_REGION_LENGTH__+0x700201>
    PORTA_OUTSET = 0x02;
     9fa:	d2 e0       	ldi	r29, 0x02	; 2
     9fc:	d0 93 05 04 	sts	0x0405, r29	; 0x800405 <__TEXT_REGION_LENGTH__+0x700405>
    USART0_BAUD = (uint16_t)USART0_BAUD_RATE(115200);
     a00:	2b e5       	ldi	r18, 0x5B	; 91
     a02:	31 e0       	ldi	r19, 0x01	; 1
     a04:	20 93 08 08 	sts	0x0808, r18	; 0x800808 <__TEXT_REGION_LENGTH__+0x700808>
     a08:	30 93 09 08 	sts	0x0809, r19	; 0x800809 <__TEXT_REGION_LENGTH__+0x700809>
    USART0_CTRLA = 0xA0; //Interrupts on
     a0c:	80 ea       	ldi	r24, 0xA0	; 160
     a0e:	80 93 05 08 	sts	0x0805, r24	; 0x800805 <__TEXT_REGION_LENGTH__+0x700805>
    USART0_CTRLB = 0xC0; //RX and TX on
     a12:	80 ec       	ldi	r24, 0xC0	; 192
     a14:	80 93 06 08 	sts	0x0806, r24	; 0x800806 <__TEXT_REGION_LENGTH__+0x700806>
    USART0_CTRLC = 0x03; //8 bits data, no parity, 1 stop bit
     a18:	83 e0       	ldi	r24, 0x03	; 3
     a1a:	80 93 07 08 	sts	0x0807, r24	; 0x800807 <__TEXT_REGION_LENGTH__+0x700807>
     
    //GPIO registers 0..3 can be used for global variables used in ISR routines (ASM capability: IN, OUT, SBI, CBI, SBIS, SBIC)
    L_COL = 0;     //Used in LED array to hold currently driven column value
     a1e:	1c ba       	out	0x1c, r1	; 28
    RXCNT = 0;     //Used as UART receive counter
     a20:	1d ba       	out	0x1d, r1	; 29
    GPIOR3 = 0;    //
     a22:	1f ba       	out	0x1f, r1	; 31

    //Init TCA (split mode, f_CLK/16, PWM on 6 alternative pins, underflow int enabled, synced and started)
    TCA0_SPLIT_CTRLD = 1;
     a24:	c0 93 03 0a 	sts	0x0A03, r28	; 0x800a03 <__TEXT_REGION_LENGTH__+0x700a03>
    TCA0_SPLIT_CTRLA = (0x4)<<1;
     a28:	88 e0       	ldi	r24, 0x08	; 8
     a2a:	80 93 00 0a 	sts	0x0A00, r24	; 0x800a00 <__TEXT_REGION_LENGTH__+0x700a00>
    PORTMUX_CTRLC = 0x3F;
     a2e:	90 93 02 02 	sts	0x0202, r25	; 0x800202 <__TEXT_REGION_LENGTH__+0x700202>
    TCA0_SPLIT_CTRLB = 0x77;
     a32:	87 e7       	ldi	r24, 0x77	; 119
     a34:	80 93 01 0a 	sts	0x0A01, r24	; 0x800a01 <__TEXT_REGION_LENGTH__+0x700a01>
    TCA0_SPLIT_INTCTRL = 0x1;
     a38:	c0 93 0a 0a 	sts	0x0A0A, r28	; 0x800a0a <__TEXT_REGION_LENGTH__+0x700a0a>
    TCA0_SPLIT_CTRLESET = ((0x2)<<2)|0x3;
     a3c:	8b e0       	ldi	r24, 0x0B	; 11
     a3e:	80 93 05 0a 	sts	0x0A05, r24	; 0x800a05 <__TEXT_REGION_LENGTH__+0x700a05>
    TCA0_SPLIT_CTRLA |= 1;
     a42:	80 91 00 0a 	lds	r24, 0x0A00	; 0x800a00 <__TEXT_REGION_LENGTH__+0x700a00>
     a46:	81 60       	ori	r24, 0x01	; 1
     a48:	80 93 00 0a 	sts	0x0A00, r24	; 0x800a00 <__TEXT_REGION_LENGTH__+0x700a00>
     
    //Init TCB0 (compare value sets serial Tx pause between characters, uses TCA0 prescaler, enabled, interrupt disabled)
    TCB0_CTRLA = ((0x02)<<1)|0x01;
     a4c:	85 e0       	ldi	r24, 0x05	; 5
     a4e:	80 93 40 0a 	sts	0x0A40, r24	; 0x800a40 <__TEXT_REGION_LENGTH__+0x700a40>
    TCB0_CTRLB = 0;
     a52:	10 92 41 0a 	sts	0x0A41, r1	; 0x800a41 <__TEXT_REGION_LENGTH__+0x700a41>
    TCB0_CCMP = 0x01FF;
     a56:	8f ef       	ldi	r24, 0xFF	; 255
     a58:	91 e0       	ldi	r25, 0x01	; 1
     a5a:	80 93 4c 0a 	sts	0x0A4C, r24	; 0x800a4c <__TEXT_REGION_LENGTH__+0x700a4c>
     a5e:	90 93 4d 0a 	sts	0x0A4D, r25	; 0x800a4d <__TEXT_REGION_LENGTH__+0x700a4d>
    TCB0_INTCTRL = 0x00;     
     a62:	10 92 45 0a 	sts	0x0A45, r1	; 0x800a45 <__TEXT_REGION_LENGTH__+0x700a45>
     
    //Init TCB1 (compare value sets audio sample rate (0x038B = 11025sps), enabled, interrupt enabled)
    TCB1_CTRLA = 0x01;
     a66:	c0 93 50 0a 	sts	0x0A50, r28	; 0x800a50 <__TEXT_REGION_LENGTH__+0x700a50>
    TCB1_CTRLB = 0;
     a6a:	10 92 51 0a 	sts	0x0A51, r1	; 0x800a51 <__TEXT_REGION_LENGTH__+0x700a51>
    TCB1_CCMP = 0x038B;
     a6e:	8b e8       	ldi	r24, 0x8B	; 139
     a70:	93 e0       	ldi	r25, 0x03	; 3
     a72:	80 93 5c 0a 	sts	0x0A5C, r24	; 0x800a5c <__TEXT_REGION_LENGTH__+0x700a5c>
     a76:	90 93 5d 0a 	sts	0x0A5D, r25	; 0x800a5d <__TEXT_REGION_LENGTH__+0x700a5d>
    TCB1_INTCTRL = 0x01;
     a7a:	c0 93 55 0a 	sts	0x0A55, r28	; 0x800a55 <__TEXT_REGION_LENGTH__+0x700a55>

    //Init I2C (100kHz)
    I2C_init();
     a7e:	47 dc       	rcall	.-1906   	; 0x30e <I2C_init>

    //VREF (DAC, ADC's)
    VREF_CTRLA   = 0x12;    //0x22 for audio in/out (2.5V), 0x12 for temperature in, audio out (1.1V/2.5V)
     a80:	82 e1       	ldi	r24, 0x12	; 18
     a82:	80 93 a0 00 	sts	0x00A0, r24	; 0x8000a0 <__TEXT_REGION_LENGTH__+0x7000a0>
    VREF_CTRLC   = 0x20;    //ADC1 reference at 2.5V
     a86:	80 e2       	ldi	r24, 0x20	; 32
     a88:	80 93 a2 00 	sts	0x00A2, r24	; 0x8000a2 <__TEXT_REGION_LENGTH__+0x7000a2>
    VREF_CTRLB   = 0x01;    //DAC0 ref forced enabled
     a8c:	c0 93 a1 00 	sts	0x00A1, r28	; 0x8000a1 <__TEXT_REGION_LENGTH__+0x7000a1>

    //Init ADC0 (audio in, also controls DAC output rate, internal temperature?)
    ADC0_CTRLA   = 0x02;    //10 bit resolution, free running
     a90:	d0 93 00 06 	sts	0x0600, r29	; 0x800600 <__TEXT_REGION_LENGTH__+0x700600>
    ADC0_CTRLC   = 0x44;    //Reduced sample capacitor, internal reference, clock/32 => 24038sps
     a94:	84 e4       	ldi	r24, 0x44	; 68
     a96:	80 93 02 06 	sts	0x0602, r24	; 0x800602 <__TEXT_REGION_LENGTH__+0x700602>
    ADC0_MUXPOS  = 0x1E;    //Audio in: AIN7 at (0x07), Temperature: Internal sensor at (0x1E)
     a9a:	8e e1       	ldi	r24, 0x1E	; 30
     a9c:	80 93 06 06 	sts	0x0606, r24	; 0x800606 <__TEXT_REGION_LENGTH__+0x700606>
    ADC0_INTCTRL = 0x01;    //Result ready interrupt enabled
     aa0:	c0 93 0a 06 	sts	0x060A, r28	; 0x80060a <__TEXT_REGION_LENGTH__+0x70060a>
    ADC0_CTRLA  |= 0x01;    //ADC0 enabled
     aa4:	80 91 00 06 	lds	r24, 0x0600	; 0x800600 <__TEXT_REGION_LENGTH__+0x700600>
     aa8:	81 60       	ori	r24, 0x01	; 1
     aaa:	80 93 00 06 	sts	0x0600, r24	; 0x800600 <__TEXT_REGION_LENGTH__+0x700600>
    ADC0_COMMAND = 0x01;    //Start first conversion, after that it will run periodically.
     aae:	c0 93 08 06 	sts	0x0608, r28	; 0x800608 <__TEXT_REGION_LENGTH__+0x700608>

    //Init ADC1 (buttons and sensors: CH0=Photo transistor, CH1=Hall, CH4=Buttons)
    ADC1_CTRLA   = 0;
     ab2:	10 92 40 06 	sts	0x0640, r1	; 0x800640 <__TEXT_REGION_LENGTH__+0x700640>
    ADC1_CTRLB   = 0x02;    //4 results automatically accumulated
     ab6:	d0 93 41 06 	sts	0x0641, r29	; 0x800641 <__TEXT_REGION_LENGTH__+0x700641>
    ADC1_CTRLC   = 0x52;    //Reduced sample capacitor, VDD as reference, clock/8
     aba:	82 e5       	ldi	r24, 0x52	; 82
     abc:	80 93 42 06 	sts	0x0642, r24	; 0x800642 <__TEXT_REGION_LENGTH__+0x700642>
    ADC1_SAMPCTRL= 0x04;    //Extend sampling time with 4 cycles (6 total)
     ac0:	84 e0       	ldi	r24, 0x04	; 4
     ac2:	80 93 45 06 	sts	0x0645, r24	; 0x800645 <__TEXT_REGION_LENGTH__+0x700645>
    ADC1_MUXPOS  = 0x04;    //Start with Buttons, for sensors, activate sensor power first.
     ac6:	80 93 46 06 	sts	0x0646, r24	; 0x800646 <__TEXT_REGION_LENGTH__+0x700646>
    ADC1_INTCTRL = 0x01;    //Result ready interrupt enabled
     aca:	c0 93 4a 06 	sts	0x064A, r28	; 0x80064a <__TEXT_REGION_LENGTH__+0x70064a>
    ADC1_CTRLA  |= 0x01;    //ADC0 enabled
     ace:	80 91 40 06 	lds	r24, 0x0640	; 0x800640 <__TEXT_REGION_LENGTH__+0x700640>
     ad2:	81 60       	ori	r24, 0x01	; 1
     ad4:	80 93 40 06 	sts	0x0640, r24	; 0x800640 <__TEXT_REGION_LENGTH__+0x700640>
    ADC1_COMMAND = 0x01;    //Start single conversion
     ad8:	c0 93 48 06 	sts	0x0648, r28	; 0x800648 <__TEXT_REGION_LENGTH__+0x700648>

    //Init DAC0
    DAC0_CTRLA = 0x40;     //Enable output buffer (connect to pin)
     adc:	80 e4       	ldi	r24, 0x40	; 64
     ade:	80 93 a0 06 	sts	0x06A0, r24	; 0x8006a0 <__TEXT_REGION_LENGTH__+0x7006a0>
    DAC0_DATA = 0x80;      //Data value at half point (about 1.25V)
     ae2:	80 e8       	ldi	r24, 0x80	; 128
     ae4:	80 93 a1 06 	sts	0x06A1, r24	; 0x8006a1 <__TEXT_REGION_LENGTH__+0x7006a1>
    DAC0_CTRLA |= 0x01;    //Enable DAC
     ae8:	80 91 a0 06 	lds	r24, 0x06A0	; 0x8006a0 <__TEXT_REGION_LENGTH__+0x7006a0>
     aec:	81 60       	ori	r24, 0x01	; 1
     aee:	80 93 a0 06 	sts	0x06A0, r24	; 0x8006a0 <__TEXT_REGION_LENGTH__+0x7006a0>
     
    //PIT and RTC interrupts
    while(RTC_STATUS & RTC_CTRLABUSY_bm);
     af2:	80 91 41 01 	lds	r24, 0x0141	; 0x800141 <__TEXT_REGION_LENGTH__+0x700141>
     af6:	80 fd       	sbrc	r24, 0
     af8:	fc cf       	rjmp	.-8      	; 0xaf2 <Setup+0x15a>
    RTC_CTRLA          = (0x6)<<3;                         //Prescaler: /64
     afa:	80 e3       	ldi	r24, 0x30	; 48
     afc:	80 93 40 01 	sts	0x0140, r24	; 0x800140 <__TEXT_REGION_LENGTH__+0x700140>
    RTC_CLKSEL         = 0;                                //Clock source: internal 32768Hz clock
     b00:	10 92 47 01 	sts	0x0147, r1	; 0x800147 <__TEXT_REGION_LENGTH__+0x700147>
    while(RTC_STATUS & RTC_PERBUSY_bm);
     b04:	80 91 41 01 	lds	r24, 0x0141	; 0x800141 <__TEXT_REGION_LENGTH__+0x700141>
     b08:	82 fd       	sbrc	r24, 2
     b0a:	fc cf       	rjmp	.-8      	; 0xb04 <Setup+0x16c>
    RTC_PER            = 512*60;                           //60 second period (for clocking how long the device has been running?)
     b0c:	80 e0       	ldi	r24, 0x00	; 0
     b0e:	98 e7       	ldi	r25, 0x78	; 120
     b10:	80 93 4a 01 	sts	0x014A, r24	; 0x80014a <__TEXT_REGION_LENGTH__+0x70014a>
     b14:	90 93 4b 01 	sts	0x014B, r25	; 0x80014b <__TEXT_REGION_LENGTH__+0x70014b>
    tmp16bit = (RTC_CNT + BTN_TMR);
     b18:	80 91 48 01 	lds	r24, 0x0148	; 0x800148 <__TEXT_REGION_LENGTH__+0x700148>
     b1c:	90 91 49 01 	lds	r25, 0x0149	; 0x800149 <__TEXT_REGION_LENGTH__+0x700149>
     b20:	82 96       	adiw	r24, 0x22	; 34
     b22:	80 93 f5 3a 	sts	0x3AF5, r24	; 0x803af5 <tmp16bit>
     b26:	90 93 f6 3a 	sts	0x3AF6, r25	; 0x803af6 <tmp16bit+0x1>
    if (tmp16bit > RTC_PER) tmp16bit -= RTC_PER;
     b2a:	20 91 4a 01 	lds	r18, 0x014A	; 0x80014a <__TEXT_REGION_LENGTH__+0x70014a>
     b2e:	30 91 4b 01 	lds	r19, 0x014B	; 0x80014b <__TEXT_REGION_LENGTH__+0x70014b>
     b32:	80 91 f5 3a 	lds	r24, 0x3AF5	; 0x803af5 <tmp16bit>
     b36:	90 91 f6 3a 	lds	r25, 0x3AF6	; 0x803af6 <tmp16bit+0x1>
     b3a:	28 17       	cp	r18, r24
     b3c:	39 07       	cpc	r19, r25
     b3e:	70 f4       	brcc	.+28     	; 0xb5c <Setup+0x1c4>
     b40:	20 91 4a 01 	lds	r18, 0x014A	; 0x80014a <__TEXT_REGION_LENGTH__+0x70014a>
     b44:	30 91 4b 01 	lds	r19, 0x014B	; 0x80014b <__TEXT_REGION_LENGTH__+0x70014b>
     b48:	80 91 f5 3a 	lds	r24, 0x3AF5	; 0x803af5 <tmp16bit>
     b4c:	90 91 f6 3a 	lds	r25, 0x3AF6	; 0x803af6 <tmp16bit+0x1>
     b50:	82 1b       	sub	r24, r18
     b52:	93 0b       	sbc	r25, r19
     b54:	80 93 f5 3a 	sts	0x3AF5, r24	; 0x803af5 <tmp16bit>
     b58:	90 93 f6 3a 	sts	0x3AF6, r25	; 0x803af6 <tmp16bit+0x1>
    while(RTC_STATUS & RTC_CMPBUSY_bm);
     b5c:	80 91 41 01 	lds	r24, 0x0141	; 0x800141 <__TEXT_REGION_LENGTH__+0x700141>
     b60:	83 fd       	sbrc	r24, 3
     b62:	fc cf       	rjmp	.-8      	; 0xb5c <Setup+0x1c4>
    RTC_CMP            = tmp16bit;                         //Button timing
     b64:	80 91 f5 3a 	lds	r24, 0x3AF5	; 0x803af5 <tmp16bit>
     b68:	90 91 f6 3a 	lds	r25, 0x3AF6	; 0x803af6 <tmp16bit+0x1>
     b6c:	80 93 4c 01 	sts	0x014C, r24	; 0x80014c <__TEXT_REGION_LENGTH__+0x70014c>
     b70:	90 93 4d 01 	sts	0x014D, r25	; 0x80014d <__TEXT_REGION_LENGTH__+0x70014d>
    RTC_INTCTRL        = 0x03;                             //RTC overflow interrupt enabled
     b74:	83 e0       	ldi	r24, 0x03	; 3
     b76:	80 93 42 01 	sts	0x0142, r24	; 0x800142 <__TEXT_REGION_LENGTH__+0x700142>
    RTC_PITINTCTRL     = 0x01;                             //PIT interrupt enabled
     b7a:	81 e0       	ldi	r24, 0x01	; 1
     b7c:	80 93 52 01 	sts	0x0152, r24	; 0x800152 <__TEXT_REGION_LENGTH__+0x700152>
    RTC_PITCTRLA       = (0x1)<<3;                         //Interrupt fires after 4 RTC clock cycles Rate=(RTCCLK/(PRESC*PERIOD)) 32768/256=128Hz
     b80:	88 e0       	ldi	r24, 0x08	; 8
     b82:	80 93 50 01 	sts	0x0150, r24	; 0x800150 <__TEXT_REGION_LENGTH__+0x700150>
    while(RTC_STATUS & RTC_CTRLABUSY_bm);      
     b86:	80 91 41 01 	lds	r24, 0x0141	; 0x800141 <__TEXT_REGION_LENGTH__+0x700141>
     b8a:	80 fd       	sbrc	r24, 0
     b8c:	fc cf       	rjmp	.-8      	; 0xb86 <Setup+0x1ee>
    RTC_CTRLA          |= 0x01;                            //Enable RTC
     b8e:	80 91 40 01 	lds	r24, 0x0140	; 0x800140 <__TEXT_REGION_LENGTH__+0x700140>
     b92:	81 60       	ori	r24, 0x01	; 1
     b94:	80 93 40 01 	sts	0x0140, r24	; 0x800140 <__TEXT_REGION_LENGTH__+0x700140>
    RTC_PITCTRLA       |= 0x01;                            //Enable PIT
     b98:	80 91 50 01 	lds	r24, 0x0150	; 0x800150 <__TEXT_REGION_LENGTH__+0x700150>
     b9c:	81 60       	ori	r24, 0x01	; 1
     b9e:	80 93 50 01 	sts	0x0150, r24	; 0x800150 <__TEXT_REGION_LENGTH__+0x700150>
     
    //Other inits
    serRx[0] = 0;           // Empty Rx buffer (first char is enough)
     ba2:	10 92 7b 3a 	sts	0x3A7B, r1	; 0x803a7b <serRx>
    serTxAddr = &serRx[0];  // Point to first address of the Rx buffer
     ba6:	8b e7       	ldi	r24, 0x7B	; 123
     ba8:	9a e3       	ldi	r25, 0x3A	; 58
     baa:	80 93 bf 3a 	sts	0x3ABF, r24	; 0x803abf <serTxAddr>
     bae:	90 93 c0 3a 	sts	0x3AC0, r25	; 0x803ac0 <serTxAddr+0x1>

    sei();
     bb2:	78 94       	sei
}
     bb4:	df 91       	pop	r29
     bb6:	cf 91       	pop	r28
     bb8:	08 95       	ret

00000bba <__vector_8>:

// TCA0 is used for driving the LED matrix at 488Hz (* 5 columns = 2440Hz). The lower 8 bit underflow interrupt is used to load new values and shift between columns.
ISR(TCA0_LUNF_vect){
     bba:	1f 92       	push	r1
     bbc:	0f 92       	push	r0
     bbe:	0f b6       	in	r0, 0x3f	; 63
     bc0:	0f 92       	push	r0
     bc2:	11 24       	eor	r1, r1
     bc4:	8f 93       	push	r24
     bc6:	9f 93       	push	r25
     bc8:	af 93       	push	r26
     bca:	bf 93       	push	r27
     bcc:	ef 93       	push	r30
     bce:	ff 93       	push	r31
    //Turn off all columns
    PORTC_OUTCLR = 0x07;
     bd0:	87 e0       	ldi	r24, 0x07	; 7
     bd2:	80 93 46 04 	sts	0x0446, r24	; 0x800446 <__TEXT_REGION_LENGTH__+0x700446>
    PORTB_OUTCLR = 0x44;
     bd6:	84 e4       	ldi	r24, 0x44	; 68
     bd8:	80 93 26 04 	sts	0x0426, r24	; 0x800426 <__TEXT_REGION_LENGTH__+0x700426>
    "ldi r25, 6        \n"
    "ld r24, %a[arr]+  \n"
    "st %a[wo]+, r24   \n"
    "dec r25           \n"
    "brne .-8          \n"
    :: [wo] "e" (&TCA0_SPLIT_LCMP0), [arr] "e" (&iLED[(L_COL<<3)]) : "r25", "r24", "cc", "memory");
     bdc:	ec b3       	in	r30, 0x1c	; 28
     bde:	88 e0       	ldi	r24, 0x08	; 8
     be0:	e8 9f       	mul	r30, r24
     be2:	f0 01       	movw	r30, r0
     be4:	11 24       	eor	r1, r1
     be6:	e7 53       	subi	r30, 0x37	; 55
     be8:	f5 4c       	sbci	r31, 0xC5	; 197
    //Turn off all columns
    PORTC_OUTCLR = 0x07;
    PORTB_OUTCLR = 0x44;

    //Write all of the compare registers of TCA0 with PWM values in array (rows)
    asm(
     bea:	a8 e2       	ldi	r26, 0x28	; 40
     bec:	ba e0       	ldi	r27, 0x0A	; 10
     bee:	96 e0       	ldi	r25, 0x06	; 6
     bf0:	81 91       	ld	r24, Z+
     bf2:	8d 93       	st	X+, r24
     bf4:	9a 95       	dec	r25
     bf6:	e1 f7       	brne	.-8      	; 0xbf0 <__vector_8+0x36>
    "st %a[wo]+, r24   \n"
    "dec r25           \n"
    "brne .-8          \n"
    :: [wo] "e" (&TCA0_SPLIT_LCMP0), [arr] "e" (&iLED[(L_COL<<3)]) : "r25", "r24", "cc", "memory");

    TCA0_SPLIT_CTRLESET = ((0x2)<<2)|0x3; //Sync timers: Moved this below the PWM value loading to fix the data shifting in asm above.
     bf8:	8b e0       	ldi	r24, 0x0B	; 11
     bfa:	80 93 05 0a 	sts	0x0A05, r24	; 0x800a05 <__TEXT_REGION_LENGTH__+0x700a05>

    //Turn on the right column
    if (L_COL<3) {
     bfe:	8c b3       	in	r24, 0x1c	; 28
     c00:	83 30       	cpi	r24, 0x03	; 3
     c02:	58 f4       	brcc	.+22     	; 0xc1a <__vector_8+0x60>
        asm(
     c04:	8c b3       	in	r24, 0x1c	; 28
     c06:	91 e0       	ldi	r25, 0x01	; 1
     c08:	01 c0       	rjmp	.+2      	; 0xc0c <__vector_8+0x52>
     c0a:	99 0f       	add	r25, r25
     c0c:	8a 95       	dec	r24
     c0e:	ea f7       	brpl	.-6      	; 0xc0a <__vector_8+0x50>
     c10:	99 b9       	out	0x09, r25	; 9
     c12:	8c b3       	in	r24, 0x1c	; 28
     c14:	83 95       	inc	r24
     c16:	8c bb       	out	0x1c, r24	; 28
     c18:	0a c0       	rjmp	.+20     	; 0xc2e <__vector_8+0x74>
        "in r24, %[io0]  \n"
        "inc r24         \n"
        "out %[io0], r24 \n"
        :: [io0] "I" (&L_COL), [vpc] "I" (&VPORTC_OUT) : "r24", "r25", "cc");
        } else {
        asm(
     c1a:	8c b3       	in	r24, 0x1c	; 28
     c1c:	83 30       	cpi	r24, 0x03	; 3
     c1e:	21 f4       	brne	.+8      	; 0xc28 <__vector_8+0x6e>
     c20:	2a 9a       	sbi	0x05, 2	; 5
     c22:	83 95       	inc	r24
     c24:	8c bb       	out	0x1c, r24	; 28
     c26:	03 c0       	rjmp	.+6      	; 0xc2e <__vector_8+0x74>
     c28:	2e 9a       	sbi	0x05, 6	; 5
     c2a:	88 27       	eor	r24, r24
     c2c:	8c bb       	out	0x1c, r24	; 28
        "clr r24         \n"
        "out %[io0], r24 \n"
        :: [io0] "I" (&L_COL), [vpb] "I" (&VPORTB_OUT) : "r24", "cc");
    }
    
    if(timeout_I2C) --timeout_I2C;
     c2e:	80 91 66 3a 	lds	r24, 0x3A66	; 0x803a66 <timeout_I2C>
     c32:	88 23       	and	r24, r24
     c34:	29 f0       	breq	.+10     	; 0xc40 <__vector_8+0x86>
     c36:	80 91 66 3a 	lds	r24, 0x3A66	; 0x803a66 <timeout_I2C>
     c3a:	81 50       	subi	r24, 0x01	; 1
     c3c:	80 93 66 3a 	sts	0x3A66, r24	; 0x803a66 <timeout_I2C>
    TCA0_SPLIT_INTFLAGS = 0xFF;
     c40:	8f ef       	ldi	r24, 0xFF	; 255
     c42:	80 93 0b 0a 	sts	0x0A0B, r24	; 0x800a0b <__TEXT_REGION_LENGTH__+0x700a0b>
}
     c46:	ff 91       	pop	r31
     c48:	ef 91       	pop	r30
     c4a:	bf 91       	pop	r27
     c4c:	af 91       	pop	r26
     c4e:	9f 91       	pop	r25
     c50:	8f 91       	pop	r24
     c52:	0f 90       	pop	r0
     c54:	0f be       	out	0x3f, r0	; 63
     c56:	0f 90       	pop	r0
     c58:	1f 90       	pop	r1
     c5a:	18 95       	reti

00000c5c <__vector_13>:

// TCB0 is used for (slowly) sending serial characters. A 0x00 character code is needed to terminate sending or it will leak memory to serial. It's a feature, honest! 
ISR(TCB0_INT_vect){
     c5c:	1f 92       	push	r1
     c5e:	0f 92       	push	r0
     c60:	0f b6       	in	r0, 0x3f	; 63
     c62:	0f 92       	push	r0
     c64:	11 24       	eor	r1, r1
     c66:	8f 93       	push	r24
     c68:	9f 93       	push	r25
     c6a:	ef 93       	push	r30
     c6c:	ff 93       	push	r31
    if (*serTxAddr) {
     c6e:	e0 91 bf 3a 	lds	r30, 0x3ABF	; 0x803abf <serTxAddr>
     c72:	f0 91 c0 3a 	lds	r31, 0x3AC0	; 0x803ac0 <serTxAddr+0x1>
     c76:	80 81       	ld	r24, Z
     c78:	88 23       	and	r24, r24
     c7a:	91 f0       	breq	.+36     	; 0xca0 <__vector_13+0x44>
        USART0_TXDATAL = *serTxAddr;
     c7c:	80 81       	ld	r24, Z
     c7e:	80 93 02 08 	sts	0x0802, r24	; 0x800802 <__TEXT_REGION_LENGTH__+0x700802>
        serTxAddr++;
     c82:	80 91 bf 3a 	lds	r24, 0x3ABF	; 0x803abf <serTxAddr>
     c86:	90 91 c0 3a 	lds	r25, 0x3AC0	; 0x803ac0 <serTxAddr+0x1>
     c8a:	01 96       	adiw	r24, 0x01	; 1
     c8c:	80 93 bf 3a 	sts	0x3ABF, r24	; 0x803abf <serTxAddr>
     c90:	90 93 c0 3a 	sts	0x3AC0, r25	; 0x803ac0 <serTxAddr+0x1>
        USART0_CTRLA |= USART_DREIE_bm;
     c94:	80 91 05 08 	lds	r24, 0x0805	; 0x800805 <__TEXT_REGION_LENGTH__+0x700805>
     c98:	80 62       	ori	r24, 0x20	; 32
     c9a:	80 93 05 08 	sts	0x0805, r24	; 0x800805 <__TEXT_REGION_LENGTH__+0x700805>
     c9e:	05 c0       	rjmp	.+10     	; 0xcaa <__vector_13+0x4e>
    } else {
        serTxDone = 1;
     ca0:	81 e0       	ldi	r24, 0x01	; 1
     ca2:	80 93 09 38 	sts	0x3809, r24	; 0x803809 <serTxDone>
        TCB0_INTCTRL = 0x00;
     ca6:	10 92 45 0a 	sts	0x0A45, r1	; 0x800a45 <__TEXT_REGION_LENGTH__+0x700a45>
    }
    TCB0_INTFLAGS = TCB_CAPT_bm;
     caa:	81 e0       	ldi	r24, 0x01	; 1
     cac:	80 93 46 0a 	sts	0x0A46, r24	; 0x800a46 <__TEXT_REGION_LENGTH__+0x700a46>
}
     cb0:	ff 91       	pop	r31
     cb2:	ef 91       	pop	r30
     cb4:	9f 91       	pop	r25
     cb6:	8f 91       	pop	r24
     cb8:	0f 90       	pop	r0
     cba:	0f be       	out	0x3f, r0	; 63
     cbc:	0f 90       	pop	r0
     cbe:	1f 90       	pop	r1
     cc0:	18 95       	reti

00000cc2 <__vector_14>:

// TCB1 is used for audio generation. Keeps playing "data" until 0 is reached. Audio sample data can contain 0x01 to 0xFF, centered around 0x80
ISR(TCB1_INT_vect){
     cc2:	1f 92       	push	r1
     cc4:	0f 92       	push	r0
     cc6:	0f b6       	in	r0, 0x3f	; 63
     cc8:	0f 92       	push	r0
     cca:	11 24       	eor	r1, r1
     ccc:	2f 93       	push	r18
     cce:	3f 93       	push	r19
     cd0:	4f 93       	push	r20
     cd2:	8f 93       	push	r24
     cd4:	9f 93       	push	r25
     cd6:	ef 93       	push	r30
     cd8:	ff 93       	push	r31
    int16_t volCtrl;
    if (*auSmpAddr == 0) auSmpAddr = auRepAddr;
     cda:	e0 91 05 38 	lds	r30, 0x3805	; 0x803805 <auSmpAddr>
     cde:	f0 91 06 38 	lds	r31, 0x3806	; 0x803806 <auSmpAddr+0x1>
     ce2:	80 81       	ld	r24, Z
     ce4:	81 11       	cpse	r24, r1
     ce6:	08 c0       	rjmp	.+16     	; 0xcf8 <__vector_14+0x36>
     ce8:	80 91 03 38 	lds	r24, 0x3803	; 0x803803 <auRepAddr>
     cec:	90 91 04 38 	lds	r25, 0x3804	; 0x803804 <auRepAddr+0x1>
     cf0:	80 93 05 38 	sts	0x3805, r24	; 0x803805 <auSmpAddr>
     cf4:	90 93 06 38 	sts	0x3806, r25	; 0x803806 <auSmpAddr+0x1>
    if (*auSmpAddr) {
     cf8:	e0 91 05 38 	lds	r30, 0x3805	; 0x803805 <auSmpAddr>
     cfc:	f0 91 06 38 	lds	r31, 0x3806	; 0x803806 <auSmpAddr+0x1>
     d00:	80 81       	ld	r24, Z
     d02:	88 23       	and	r24, r24
     d04:	e1 f0       	breq	.+56     	; 0xd3e <__vector_14+0x7c>
        volCtrl = ((((int16_t)(*auSmpAddr) - 0x7f) * auVolume) >> 8) + 0x80;
     d06:	20 81       	ld	r18, Z
     d08:	40 91 bc 3a 	lds	r20, 0x3ABC	; 0x803abc <auVolume>
        DAC0_DATA = (uint8_t)(volCtrl);
     d0c:	30 e0       	ldi	r19, 0x00	; 0
     d0e:	2f 57       	subi	r18, 0x7F	; 127
     d10:	31 09       	sbc	r19, r1
     d12:	42 9f       	mul	r20, r18
     d14:	c0 01       	movw	r24, r0
     d16:	43 9f       	mul	r20, r19
     d18:	90 0d       	add	r25, r0
     d1a:	11 24       	eor	r1, r1
     d1c:	89 2f       	mov	r24, r25
     d1e:	99 0f       	add	r25, r25
     d20:	99 0b       	sbc	r25, r25
     d22:	80 58       	subi	r24, 0x80	; 128
     d24:	9f 4f       	sbci	r25, 0xFF	; 255
     d26:	80 93 a1 06 	sts	0x06A1, r24	; 0x8006a1 <__TEXT_REGION_LENGTH__+0x7006a1>
        ++auSmpAddr;
     d2a:	80 91 05 38 	lds	r24, 0x3805	; 0x803805 <auSmpAddr>
     d2e:	90 91 06 38 	lds	r25, 0x3806	; 0x803806 <auSmpAddr+0x1>
     d32:	01 96       	adiw	r24, 0x01	; 1
     d34:	80 93 05 38 	sts	0x3805, r24	; 0x803805 <auSmpAddr>
     d38:	90 93 06 38 	sts	0x3806, r25	; 0x803806 <auSmpAddr+0x1>
     d3c:	03 c0       	rjmp	.+6      	; 0xd44 <__vector_14+0x82>
    } else {
        DAC0_DATA = 0x80;
     d3e:	80 e8       	ldi	r24, 0x80	; 128
     d40:	80 93 a1 06 	sts	0x06A1, r24	; 0x8006a1 <__TEXT_REGION_LENGTH__+0x7006a1>
    }
    TCB1_INTFLAGS = TCB_CAPT_bm;
     d44:	81 e0       	ldi	r24, 0x01	; 1
     d46:	80 93 56 0a 	sts	0x0A56, r24	; 0x800a56 <__TEXT_REGION_LENGTH__+0x700a56>
}
     d4a:	ff 91       	pop	r31
     d4c:	ef 91       	pop	r30
     d4e:	9f 91       	pop	r25
     d50:	8f 91       	pop	r24
     d52:	4f 91       	pop	r20
     d54:	3f 91       	pop	r19
     d56:	2f 91       	pop	r18
     d58:	0f 90       	pop	r0
     d5a:	0f be       	out	0x3f, r0	; 63
     d5c:	0f 90       	pop	r0
     d5e:	1f 90       	pop	r1
     d60:	18 95       	reti

00000d62 <__vector_27>:

// Reads up to RXLEN characters until LF is found, LF sets the serRxDone flag and writes 0 instead of LF.
ISR(USART0_RXC_vect){
     d62:	1f 92       	push	r1
     d64:	0f 92       	push	r0
     d66:	0f b6       	in	r0, 0x3f	; 63
     d68:	0f 92       	push	r0
     d6a:	11 24       	eor	r1, r1
     d6c:	8f 93       	push	r24
     d6e:	ef 93       	push	r30
     d70:	ff 93       	push	r31
    if (serRxDone == 0){
     d72:	80 91 4a 38 	lds	r24, 0x384A	; 0x80384a <serRxDone>
     d76:	81 11       	cpse	r24, r1
     d78:	44 c0       	rjmp	.+136    	; 0xe02 <__vector_27+0xa0>
        serRx[RXCNT] = USART0.RXDATAL;
     d7a:	ed b3       	in	r30, 0x1d	; 29
     d7c:	f0 e0       	ldi	r31, 0x00	; 0
     d7e:	80 91 00 08 	lds	r24, 0x0800	; 0x800800 <__TEXT_REGION_LENGTH__+0x700800>
     d82:	e5 58       	subi	r30, 0x85	; 133
     d84:	f5 4c       	sbci	r31, 0xC5	; 197
     d86:	80 83       	st	Z, r24
        USART0_TXDATAL = serRx[RXCNT];
     d88:	ed b3       	in	r30, 0x1d	; 29
     d8a:	f0 e0       	ldi	r31, 0x00	; 0
     d8c:	e5 58       	subi	r30, 0x85	; 133
     d8e:	f5 4c       	sbci	r31, 0xC5	; 197
     d90:	80 81       	ld	r24, Z
     d92:	80 93 02 08 	sts	0x0802, r24	; 0x800802 <__TEXT_REGION_LENGTH__+0x700802>
        if ((serRx[RXCNT] == 0x0A)||(serRx[RXCNT] == 0x0D)){
     d96:	ed b3       	in	r30, 0x1d	; 29
     d98:	f0 e0       	ldi	r31, 0x00	; 0
     d9a:	e5 58       	subi	r30, 0x85	; 133
     d9c:	f5 4c       	sbci	r31, 0xC5	; 197
     d9e:	80 81       	ld	r24, Z
     da0:	8a 30       	cpi	r24, 0x0A	; 10
     da2:	39 f0       	breq	.+14     	; 0xdb2 <__vector_27+0x50>
     da4:	ed b3       	in	r30, 0x1d	; 29
     da6:	f0 e0       	ldi	r31, 0x00	; 0
     da8:	e5 58       	subi	r30, 0x85	; 133
     daa:	f5 4c       	sbci	r31, 0xC5	; 197
     dac:	80 81       	ld	r24, Z
     dae:	8d 30       	cpi	r24, 0x0D	; 13
     db0:	49 f4       	brne	.+18     	; 0xdc4 <__vector_27+0x62>
            serRx[RXCNT] = 0;
     db2:	ed b3       	in	r30, 0x1d	; 29
     db4:	f0 e0       	ldi	r31, 0x00	; 0
     db6:	e5 58       	subi	r30, 0x85	; 133
     db8:	f5 4c       	sbci	r31, 0xC5	; 197
     dba:	10 82       	st	Z, r1
            serRxDone = 1;
     dbc:	81 e0       	ldi	r24, 0x01	; 1
     dbe:	80 93 4a 38 	sts	0x384A, r24	; 0x80384a <serRxDone>
     dc2:	1f c0       	rjmp	.+62     	; 0xe02 <__vector_27+0xa0>
        } else if (((serRx[RXCNT] == 0x08)||(serRx[RXCNT] == 0x7F))&&(RXCNT > 0)) {
     dc4:	ed b3       	in	r30, 0x1d	; 29
     dc6:	f0 e0       	ldi	r31, 0x00	; 0
     dc8:	e5 58       	subi	r30, 0x85	; 133
     dca:	f5 4c       	sbci	r31, 0xC5	; 197
     dcc:	80 81       	ld	r24, Z
     dce:	88 30       	cpi	r24, 0x08	; 8
     dd0:	39 f0       	breq	.+14     	; 0xde0 <__vector_27+0x7e>
     dd2:	ed b3       	in	r30, 0x1d	; 29
     dd4:	f0 e0       	ldi	r31, 0x00	; 0
     dd6:	e5 58       	subi	r30, 0x85	; 133
     dd8:	f5 4c       	sbci	r31, 0xC5	; 197
     dda:	80 81       	ld	r24, Z
     ddc:	8f 37       	cpi	r24, 0x7F	; 127
     dde:	59 f4       	brne	.+22     	; 0xdf6 <__vector_27+0x94>
     de0:	8d b3       	in	r24, 0x1d	; 29
     de2:	88 23       	and	r24, r24
     de4:	41 f0       	breq	.+16     	; 0xdf6 <__vector_27+0x94>
            serRx[RXCNT] = 0;
     de6:	ed b3       	in	r30, 0x1d	; 29
     de8:	f0 e0       	ldi	r31, 0x00	; 0
     dea:	e5 58       	subi	r30, 0x85	; 133
     dec:	f5 4c       	sbci	r31, 0xC5	; 197
     dee:	10 82       	st	Z, r1
            --RXCNT;
     df0:	8d b3       	in	r24, 0x1d	; 29
     df2:	81 50       	subi	r24, 0x01	; 1
     df4:	05 c0       	rjmp	.+10     	; 0xe00 <__vector_27+0x9e>
        } else if (RXCNT < (RXLEN-1)) ++RXCNT;
     df6:	8d b3       	in	r24, 0x1d	; 29
     df8:	80 34       	cpi	r24, 0x40	; 64
     dfa:	18 f4       	brcc	.+6      	; 0xe02 <__vector_27+0xa0>
     dfc:	8d b3       	in	r24, 0x1d	; 29
     dfe:	8f 5f       	subi	r24, 0xFF	; 255
     e00:	8d bb       	out	0x1d, r24	; 29
    }
    USART0_STATUS = USART_RXCIF_bm;
     e02:	80 e8       	ldi	r24, 0x80	; 128
     e04:	80 93 04 08 	sts	0x0804, r24	; 0x800804 <__TEXT_REGION_LENGTH__+0x700804>
};
     e08:	ff 91       	pop	r31
     e0a:	ef 91       	pop	r30
     e0c:	8f 91       	pop	r24
     e0e:	0f 90       	pop	r0
     e10:	0f be       	out	0x3f, r0	; 63
     e12:	0f 90       	pop	r0
     e14:	1f 90       	pop	r1
     e16:	18 95       	reti

00000e18 <__vector_28>:

// Trigger new data write and turn off DRE interrupt.
ISR(USART0_DRE_vect){
     e18:	1f 92       	push	r1
     e1a:	0f 92       	push	r0
     e1c:	0f b6       	in	r0, 0x3f	; 63
     e1e:	0f 92       	push	r0
     e20:	11 24       	eor	r1, r1
     e22:	8f 93       	push	r24
     e24:	ef 93       	push	r30
     e26:	ff 93       	push	r31
    TCB0_CNT = 0;
     e28:	10 92 4a 0a 	sts	0x0A4A, r1	; 0x800a4a <__TEXT_REGION_LENGTH__+0x700a4a>
     e2c:	10 92 4b 0a 	sts	0x0A4B, r1	; 0x800a4b <__TEXT_REGION_LENGTH__+0x700a4b>
    TCB0_INTCTRL = 0x01;
     e30:	81 e0       	ldi	r24, 0x01	; 1
     e32:	80 93 45 0a 	sts	0x0A45, r24	; 0x800a45 <__TEXT_REGION_LENGTH__+0x700a45>
    USART0_CTRLA &= ~(USART_DREIE_bm);
     e36:	e5 e0       	ldi	r30, 0x05	; 5
     e38:	f8 e0       	ldi	r31, 0x08	; 8
     e3a:	80 81       	ld	r24, Z
     e3c:	8f 7d       	andi	r24, 0xDF	; 223
     e3e:	80 83       	st	Z, r24
};
     e40:	ff 91       	pop	r31
     e42:	ef 91       	pop	r30
     e44:	8f 91       	pop	r24
     e46:	0f 90       	pop	r0
     e48:	0f be       	out	0x3f, r0	; 63
     e4a:	0f 90       	pop	r0
     e4c:	1f 90       	pop	r1
     e4e:	18 95       	reti

00000e50 <__vector_20>:

// ADC used for audio input and temperature sensor.
ISR(ADC0_RESRDY_vect){
     e50:	1f 92       	push	r1
     e52:	0f 92       	push	r0
     e54:	0f b6       	in	r0, 0x3f	; 63
     e56:	0f 92       	push	r0
     e58:	11 24       	eor	r1, r1
     e5a:	8f 93       	push	r24
     e5c:	9f 93       	push	r25
    //If just switched reference, discard first few samples
    if (adc0Chg == 0){
     e5e:	80 91 3e 38 	lds	r24, 0x383E	; 0x80383e <adc0Chg>
     e62:	81 11       	cpse	r24, r1
     e64:	12 c0       	rjmp	.+36     	; 0xe8a <__vector_20+0x3a>
        if (ADC0_MUXPOS == 0x1E) adcTemp = ADC0_RES; else auIn=ADC0_RESL;
     e66:	80 91 06 06 	lds	r24, 0x0606	; 0x800606 <__TEXT_REGION_LENGTH__+0x700606>
     e6a:	8e 31       	cpi	r24, 0x1E	; 30
     e6c:	49 f4       	brne	.+18     	; 0xe80 <__vector_20+0x30>
     e6e:	80 91 10 06 	lds	r24, 0x0610	; 0x800610 <__TEXT_REGION_LENGTH__+0x700610>
     e72:	90 91 11 06 	lds	r25, 0x0611	; 0x800611 <__TEXT_REGION_LENGTH__+0x700611>
     e76:	80 93 f3 3a 	sts	0x3AF3, r24	; 0x803af3 <adcTemp>
     e7a:	90 93 f4 3a 	sts	0x3AF4, r25	; 0x803af4 <adcTemp+0x1>
     e7e:	0a c0       	rjmp	.+20     	; 0xe94 <__vector_20+0x44>
     e80:	80 91 10 06 	lds	r24, 0x0610	; 0x800610 <__TEXT_REGION_LENGTH__+0x700610>
     e84:	80 93 c8 3a 	sts	0x3AC8, r24	; 0x803ac8 <auIn>
     e88:	05 c0       	rjmp	.+10     	; 0xe94 <__vector_20+0x44>
    } else --adc0Chg;
     e8a:	80 91 3e 38 	lds	r24, 0x383E	; 0x80383e <adc0Chg>
     e8e:	81 50       	subi	r24, 0x01	; 1
     e90:	80 93 3e 38 	sts	0x383E, r24	; 0x80383e <adc0Chg>
    ADC0_INTFLAGS = ADC_RESRDY_bm;
     e94:	81 e0       	ldi	r24, 0x01	; 1
     e96:	80 93 0b 06 	sts	0x060B, r24	; 0x80060b <__TEXT_REGION_LENGTH__+0x70060b>
}
     e9a:	9f 91       	pop	r25
     e9c:	8f 91       	pop	r24
     e9e:	0f 90       	pop	r0
     ea0:	0f be       	out	0x3f, r0	; 63
     ea2:	0f 90       	pop	r0
     ea4:	1f 90       	pop	r1
     ea6:	18 95       	reti

00000ea8 <__vector_22>:

// Reads out sensors at 8Hz and buttons at 42Hz (timed by PIT), power for the sensors is on 1/8th of the time to save power.
ISR(ADC1_RESRDY_vect){
     ea8:	1f 92       	push	r1
     eaa:	0f 92       	push	r0
     eac:	0f b6       	in	r0, 0x3f	; 63
     eae:	0f 92       	push	r0
     eb0:	11 24       	eor	r1, r1
     eb2:	8f 93       	push	r24
     eb4:	9f 93       	push	r25
    if (ADC1_MUXPOS == 0) {
     eb6:	80 91 46 06 	lds	r24, 0x0646	; 0x800646 <__TEXT_REGION_LENGTH__+0x700646>
     eba:	81 11       	cpse	r24, r1
     ebc:	0a c0       	rjmp	.+20     	; 0xed2 <__vector_22+0x2a>
        adcPhot = ADC1_RES;
     ebe:	80 91 50 06 	lds	r24, 0x0650	; 0x800650 <__TEXT_REGION_LENGTH__+0x700650>
     ec2:	90 91 51 06 	lds	r25, 0x0651	; 0x800651 <__TEXT_REGION_LENGTH__+0x700651>
     ec6:	80 93 c3 3a 	sts	0x3AC3, r24	; 0x803ac3 <adcPhot>
     eca:	90 93 c4 3a 	sts	0x3AC4, r25	; 0x803ac4 <adcPhot+0x1>
        ADC1_MUXPOS = 0x01;             //Select Hall sensor
     ece:	81 e0       	ldi	r24, 0x01	; 1
     ed0:	10 c0       	rjmp	.+32     	; 0xef2 <__vector_22+0x4a>
    } else if (ADC1_MUXPOS == 1){
     ed2:	80 91 46 06 	lds	r24, 0x0646	; 0x800646 <__TEXT_REGION_LENGTH__+0x700646>
     ed6:	81 30       	cpi	r24, 0x01	; 1
     ed8:	79 f4       	brne	.+30     	; 0xef8 <__vector_22+0x50>
        PORTA_OUTCLR = 0b00001000;      //Turn off sensor power
     eda:	88 e0       	ldi	r24, 0x08	; 8
     edc:	80 93 06 04 	sts	0x0406, r24	; 0x800406 <__TEXT_REGION_LENGTH__+0x700406>
        adcHall = ADC1_RES;
     ee0:	80 91 50 06 	lds	r24, 0x0650	; 0x800650 <__TEXT_REGION_LENGTH__+0x700650>
     ee4:	90 91 51 06 	lds	r25, 0x0651	; 0x800651 <__TEXT_REGION_LENGTH__+0x700651>
     ee8:	80 93 c1 3a 	sts	0x3AC1, r24	; 0x803ac1 <adcHall>
     eec:	90 93 c2 3a 	sts	0x3AC2, r25	; 0x803ac2 <adcHall+0x1>
        ADC1_MUXPOS = 0x04;             //select buttons
     ef0:	84 e0       	ldi	r24, 0x04	; 4
     ef2:	80 93 46 06 	sts	0x0646, r24	; 0x800646 <__TEXT_REGION_LENGTH__+0x700646>
     ef6:	10 c0       	rjmp	.+32     	; 0xf18 <__vector_22+0x70>
    } else {
        adcBtns = ADC1_RES;
     ef8:	80 91 50 06 	lds	r24, 0x0650	; 0x800650 <__TEXT_REGION_LENGTH__+0x700650>
     efc:	90 91 51 06 	lds	r25, 0x0651	; 0x800651 <__TEXT_REGION_LENGTH__+0x700651>
     f00:	80 93 bd 3a 	sts	0x3ABD, r24	; 0x803abd <adcBtns>
     f04:	90 93 be 3a 	sts	0x3ABE, r25	; 0x803abe <adcBtns+0x1>
        if (A1CNT == 15){
     f08:	8f b3       	in	r24, 0x1f	; 31
     f0a:	8f 30       	cpi	r24, 0x0F	; 15
     f0c:	29 f4       	brne	.+10     	; 0xf18 <__vector_22+0x70>
            ADC1_MUXPOS = 0x00;         //Select photo transistor
     f0e:	10 92 46 06 	sts	0x0646, r1	; 0x800646 <__TEXT_REGION_LENGTH__+0x700646>
            PORTA_OUTSET = 0b00001000;  //Turn on sensor power
     f12:	88 e0       	ldi	r24, 0x08	; 8
     f14:	80 93 05 04 	sts	0x0405, r24	; 0x800405 <__TEXT_REGION_LENGTH__+0x700405>
        }
    }

    A1CNT=(A1CNT+1)%16;        
     f18:	8f b3       	in	r24, 0x1f	; 31
     f1a:	90 e0       	ldi	r25, 0x00	; 0
     f1c:	01 96       	adiw	r24, 0x01	; 1
     f1e:	8f 70       	andi	r24, 0x0F	; 15
     f20:	99 27       	eor	r25, r25
     f22:	8f bb       	out	0x1f, r24	; 31
    ADC1_INTFLAGS = ADC_RESRDY_bm;
     f24:	81 e0       	ldi	r24, 0x01	; 1
     f26:	80 93 4b 06 	sts	0x064B, r24	; 0x80064b <__TEXT_REGION_LENGTH__+0x70064b>
}
     f2a:	9f 91       	pop	r25
     f2c:	8f 91       	pop	r24
     f2e:	0f 90       	pop	r0
     f30:	0f be       	out	0x3f, r0	; 63
     f32:	0f 90       	pop	r0
     f34:	1f 90       	pop	r1
     f36:	18 95       	reti

00000f38 <__vector_6>:

// RTC compare interrupt, triggers at 512/BTN_TMR rate, also RTC overflow interrupt, triggers once a minute
ISR(RTC_CNT_vect) {
     f38:	1f 92       	push	r1
     f3a:	0f 92       	push	r0
     f3c:	0f b6       	in	r0, 0x3f	; 63
     f3e:	0f 92       	push	r0
     f40:	11 24       	eor	r1, r1
     f42:	2f 93       	push	r18
     f44:	3f 93       	push	r19
     f46:	8f 93       	push	r24
     f48:	9f 93       	push	r25
    if (RTC_INTFLAGS & RTC_CMP_bm){
     f4a:	80 91 43 01 	lds	r24, 0x0143	; 0x800143 <__TEXT_REGION_LENGTH__+0x700143>
     f4e:	81 ff       	sbrs	r24, 1
     f50:	39 c0       	rjmp	.+114    	; 0xfc4 <__vector_6+0x8c>
        if (buttonMark<0xff) buttonMark++;   // For button timing purposes
     f52:	80 91 48 38 	lds	r24, 0x3848	; 0x803848 <buttonMark>
     f56:	8f 3f       	cpi	r24, 0xFF	; 255
     f58:	29 f0       	breq	.+10     	; 0xf64 <__vector_6+0x2c>
     f5a:	80 91 48 38 	lds	r24, 0x3848	; 0x803848 <buttonMark>
     f5e:	8f 5f       	subi	r24, 0xFF	; 255
     f60:	80 93 48 38 	sts	0x3848, r24	; 0x803848 <buttonMark>
        //tmp16bit = (RTC_CNT + BTN_TMR)%RTC_PER;
        tmp16bit = (RTC_CNT + BTN_TMR);
     f64:	80 91 48 01 	lds	r24, 0x0148	; 0x800148 <__TEXT_REGION_LENGTH__+0x700148>
     f68:	90 91 49 01 	lds	r25, 0x0149	; 0x800149 <__TEXT_REGION_LENGTH__+0x700149>
     f6c:	82 96       	adiw	r24, 0x22	; 34
     f6e:	80 93 f5 3a 	sts	0x3AF5, r24	; 0x803af5 <tmp16bit>
     f72:	90 93 f6 3a 	sts	0x3AF6, r25	; 0x803af6 <tmp16bit+0x1>
        if (tmp16bit > RTC_PER) tmp16bit -= RTC_PER;
     f76:	20 91 4a 01 	lds	r18, 0x014A	; 0x80014a <__TEXT_REGION_LENGTH__+0x70014a>
     f7a:	30 91 4b 01 	lds	r19, 0x014B	; 0x80014b <__TEXT_REGION_LENGTH__+0x70014b>
     f7e:	80 91 f5 3a 	lds	r24, 0x3AF5	; 0x803af5 <tmp16bit>
     f82:	90 91 f6 3a 	lds	r25, 0x3AF6	; 0x803af6 <tmp16bit+0x1>
     f86:	28 17       	cp	r18, r24
     f88:	39 07       	cpc	r19, r25
     f8a:	70 f4       	brcc	.+28     	; 0xfa8 <__vector_6+0x70>
     f8c:	20 91 4a 01 	lds	r18, 0x014A	; 0x80014a <__TEXT_REGION_LENGTH__+0x70014a>
     f90:	30 91 4b 01 	lds	r19, 0x014B	; 0x80014b <__TEXT_REGION_LENGTH__+0x70014b>
     f94:	80 91 f5 3a 	lds	r24, 0x3AF5	; 0x803af5 <tmp16bit>
     f98:	90 91 f6 3a 	lds	r25, 0x3AF6	; 0x803af6 <tmp16bit+0x1>
     f9c:	82 1b       	sub	r24, r18
     f9e:	93 0b       	sbc	r25, r19
     fa0:	80 93 f5 3a 	sts	0x3AF5, r24	; 0x803af5 <tmp16bit>
     fa4:	90 93 f6 3a 	sts	0x3AF6, r25	; 0x803af6 <tmp16bit+0x1>
        while(RTC_STATUS & RTC_CMPBUSY_bm);
     fa8:	80 91 41 01 	lds	r24, 0x0141	; 0x800141 <__TEXT_REGION_LENGTH__+0x700141>
     fac:	83 fd       	sbrc	r24, 3
     fae:	fc cf       	rjmp	.-8      	; 0xfa8 <__vector_6+0x70>
        RTC_CMP = tmp16bit;                 // Button timing: next interrupt set
     fb0:	80 91 f5 3a 	lds	r24, 0x3AF5	; 0x803af5 <tmp16bit>
     fb4:	90 91 f6 3a 	lds	r25, 0x3AF6	; 0x803af6 <tmp16bit+0x1>
     fb8:	80 93 4c 01 	sts	0x014C, r24	; 0x80014c <__TEXT_REGION_LENGTH__+0x70014c>
     fbc:	90 93 4d 01 	sts	0x014D, r25	; 0x80014d <__TEXT_REGION_LENGTH__+0x70014d>
        RTC_INTFLAGS = RTC_CMP_bm;		    // clear interrupt flag
     fc0:	82 e0       	ldi	r24, 0x02	; 2
     fc2:	06 c0       	rjmp	.+12     	; 0xfd0 <__vector_6+0x98>
    } else {
        minuteMark++;                       // For very slow timing purposes, overflows to 0
     fc4:	80 91 49 38 	lds	r24, 0x3849	; 0x803849 <minuteMark>
     fc8:	8f 5f       	subi	r24, 0xFF	; 255
     fca:	80 93 49 38 	sts	0x3849, r24	; 0x803849 <minuteMark>
        RTC_INTFLAGS = RTC_OVF_bm;		    // clear interrupt flag
     fce:	81 e0       	ldi	r24, 0x01	; 1
     fd0:	80 93 43 01 	sts	0x0143, r24	; 0x800143 <__TEXT_REGION_LENGTH__+0x700143>
    }
}
     fd4:	9f 91       	pop	r25
     fd6:	8f 91       	pop	r24
     fd8:	3f 91       	pop	r19
     fda:	2f 91       	pop	r18
     fdc:	0f 90       	pop	r0
     fde:	0f be       	out	0x3f, r0	; 63
     fe0:	0f 90       	pop	r0
     fe2:	1f 90       	pop	r1
     fe4:	18 95       	reti

00000fe6 <__vector_7>:

// PIT interrupt (timing of ADC1: sensor values)
ISR(RTC_PIT_vect) {						// PIT interrupt handling code
     fe6:	1f 92       	push	r1
     fe8:	0f 92       	push	r0
     fea:	0f b6       	in	r0, 0x3f	; 63
     fec:	0f 92       	push	r0
     fee:	11 24       	eor	r1, r1
     ff0:	8f 93       	push	r24
    ADC1_COMMAND = 0x01;
     ff2:	81 e0       	ldi	r24, 0x01	; 1
     ff4:	80 93 48 06 	sts	0x0648, r24	; 0x800648 <__TEXT_REGION_LENGTH__+0x700648>
    RTC_PITINTFLAGS = RTC_PI_bm;		// clear interrupt flag
     ff8:	80 93 53 01 	sts	0x0153, r24	; 0x800153 <__TEXT_REGION_LENGTH__+0x700153>
}
     ffc:	8f 91       	pop	r24
     ffe:	0f 90       	pop	r0
    1000:	0f be       	out	0x3f, r0	; 63
    1002:	0f 90       	pop	r0
    1004:	1f 90       	pop	r1
    1006:	18 95       	reti

00001008 <EERead>:

// Read bytes from EEPROM
void EERead(uint8_t eeAddr, uint8_t *eeValues, uint8_t size)
{
    while(NVMCTRL_STATUS & NVMCTRL_EEBUSY_bm);              // Wait until any write operation has finished
    1008:	90 91 02 10 	lds	r25, 0x1002	; 0x801002 <__TEXT_REGION_LENGTH__+0x701002>
    100c:	91 fd       	sbrc	r25, 1
    100e:	fc cf       	rjmp	.-8      	; 0x1008 <EERead>
    1010:	fb 01       	movw	r30, r22
    1012:	48 0f       	add	r20, r24

    while(size){
    1014:	84 17       	cp	r24, r20
    1016:	39 f0       	breq	.+14     	; 0x1026 <EERead+0x1e>
        *eeValues++ = *(uint8_t *)(EEPROM_START+eeAddr++);  // Read data from buffer
    1018:	a8 2f       	mov	r26, r24
    101a:	b0 e0       	ldi	r27, 0x00	; 0
    101c:	bc 5e       	subi	r27, 0xEC	; 236
    101e:	9c 91       	ld	r25, X
    1020:	91 93       	st	Z+, r25
    1022:	8f 5f       	subi	r24, 0xFF	; 255
    1024:	f7 cf       	rjmp	.-18     	; 0x1014 <EERead+0xc>
        --size;
    }
}
    1026:	08 95       	ret

00001028 <EEWrite>:
{
    uint8_t lastByteOfPage;
    while(size){
        lastByteOfPage = 0;
        while(NVMCTRL_STATUS & NVMCTRL_EEBUSY_bm);              // Wait until any write operation has finished
        CCP = CCP_SPM_gc;                                       // Gain access to NVMCTRL_CTRLA
    1028:	9d e9       	ldi	r25, 0x9D	; 157
        NVMCTRL_CTRLA = NVMCTRL_CMD_PAGEBUFCLR_gc;              // Clear page buffer
    102a:	24 e0       	ldi	r18, 0x04	; 4
            if ((eeAddr % EEPROM_PAGE_SIZE) == (EEPROM_PAGE_SIZE-1)) lastByteOfPage = 1;
            *(uint8_t *)(EEPROM_START+eeAddr++) = *eeValues++;  // Write data to buffer
            --size;
        }
        CCP = CCP_SPM_gc;
        NVMCTRL_CTRLA = NVMCTRL_CMD_PAGEERASEWRITE_gc;          // Erase old data and write new data to EEPROM
    102c:	33 e0       	ldi	r19, 0x03	; 3

// Write bytes to the EEPROM, if address exceeds EEPROM space data wraps around
uint8_t EEWrite(uint8_t eeAddr, uint8_t *eeValues, uint8_t size)
{
    uint8_t lastByteOfPage;
    while(size){
    102e:	44 23       	and	r20, r20
    1030:	09 f1       	breq	.+66     	; 0x1074 <EEWrite+0x4c>
        lastByteOfPage = 0;
        while(NVMCTRL_STATUS & NVMCTRL_EEBUSY_bm);              // Wait until any write operation has finished
    1032:	50 91 02 10 	lds	r21, 0x1002	; 0x801002 <__TEXT_REGION_LENGTH__+0x701002>
    1036:	51 fd       	sbrc	r21, 1
    1038:	fc cf       	rjmp	.-8      	; 0x1032 <EEWrite+0xa>
        CCP = CCP_SPM_gc;                                       // Gain access to NVMCTRL_CTRLA
    103a:	94 bf       	out	0x34, r25	; 52
        NVMCTRL_CTRLA = NVMCTRL_CMD_PAGEBUFCLR_gc;              // Clear page buffer
    103c:	20 93 00 10 	sts	0x1000, r18	; 0x801000 <__TEXT_REGION_LENGTH__+0x701000>
    1040:	e8 2f       	mov	r30, r24
        while((size) && (lastByteOfPage == 0)){
            if ((eeAddr % EEPROM_PAGE_SIZE) == (EEPROM_PAGE_SIZE-1)) lastByteOfPage = 1;
    1042:	58 2f       	mov	r21, r24
    1044:	5f 71       	andi	r21, 0x1F	; 31
            *(uint8_t *)(EEPROM_START+eeAddr++) = *eeValues++;  // Write data to buffer
    1046:	8f 5f       	subi	r24, 0xFF	; 255
    1048:	6f 5f       	subi	r22, 0xFF	; 255
    104a:	7f 4f       	sbci	r23, 0xFF	; 255
    104c:	db 01       	movw	r26, r22
    104e:	11 97       	sbiw	r26, 0x01	; 1
    1050:	ac 91       	ld	r26, X
    1052:	f0 e0       	ldi	r31, 0x00	; 0
    1054:	fc 5e       	subi	r31, 0xEC	; 236
    1056:	a0 83       	st	Z, r26
            --size;
    1058:	41 50       	subi	r20, 0x01	; 1
    while(size){
        lastByteOfPage = 0;
        while(NVMCTRL_STATUS & NVMCTRL_EEBUSY_bm);              // Wait until any write operation has finished
        CCP = CCP_SPM_gc;                                       // Gain access to NVMCTRL_CTRLA
        NVMCTRL_CTRLA = NVMCTRL_CMD_PAGEBUFCLR_gc;              // Clear page buffer
        while((size) && (lastByteOfPage == 0)){
    105a:	19 f0       	breq	.+6      	; 0x1062 <EEWrite+0x3a>
            if ((eeAddr % EEPROM_PAGE_SIZE) == (EEPROM_PAGE_SIZE-1)) lastByteOfPage = 1;
            *(uint8_t *)(EEPROM_START+eeAddr++) = *eeValues++;  // Write data to buffer
    105c:	e8 2f       	mov	r30, r24
    while(size){
        lastByteOfPage = 0;
        while(NVMCTRL_STATUS & NVMCTRL_EEBUSY_bm);              // Wait until any write operation has finished
        CCP = CCP_SPM_gc;                                       // Gain access to NVMCTRL_CTRLA
        NVMCTRL_CTRLA = NVMCTRL_CMD_PAGEBUFCLR_gc;              // Clear page buffer
        while((size) && (lastByteOfPage == 0)){
    105e:	5f 31       	cpi	r21, 0x1F	; 31
    1060:	81 f7       	brne	.-32     	; 0x1042 <EEWrite+0x1a>
            if ((eeAddr % EEPROM_PAGE_SIZE) == (EEPROM_PAGE_SIZE-1)) lastByteOfPage = 1;
            *(uint8_t *)(EEPROM_START+eeAddr++) = *eeValues++;  // Write data to buffer
            --size;
        }
        CCP = CCP_SPM_gc;
    1062:	94 bf       	out	0x34, r25	; 52
        NVMCTRL_CTRLA = NVMCTRL_CMD_PAGEERASEWRITE_gc;          // Erase old data and write new data to EEPROM
    1064:	30 93 00 10 	sts	0x1000, r19	; 0x801000 <__TEXT_REGION_LENGTH__+0x701000>
        if (NVMCTRL_STATUS & NVMCTRL_WRERROR_bm) return 1;
    1068:	50 91 02 10 	lds	r21, 0x1002	; 0x801002 <__TEXT_REGION_LENGTH__+0x701002>
    106c:	52 ff       	sbrs	r21, 2
    106e:	df cf       	rjmp	.-66     	; 0x102e <EEWrite+0x6>
    1070:	81 e0       	ldi	r24, 0x01	; 1
    }
    return 0;
}
    1072:	08 95       	ret
        }
        CCP = CCP_SPM_gc;
        NVMCTRL_CTRLA = NVMCTRL_CMD_PAGEERASEWRITE_gc;          // Erase old data and write new data to EEPROM
        if (NVMCTRL_STATUS & NVMCTRL_WRERROR_bm) return 1;
    }
    return 0;
    1074:	80 e0       	ldi	r24, 0x00	; 0
    1076:	08 95       	ret

00001078 <DecryptData>:
}

//Decrypts data read from I2C EEPROM, max 255 bytes at a time
void DecryptData(uint16_t offset, uint8_t length, uint8_t type, uint8_t *data){
    1078:	f9 01       	movw	r30, r18
    //offset += L_BOILER;
    while(length){
        *data ^= xor_key[type][(uint8_t)(offset%KEY_LENGTH)];
    107a:	9c 01       	movw	r18, r24
    107c:	2e 1b       	sub	r18, r30
    107e:	3f 0b       	sbc	r19, r31
    1080:	88 e0       	ldi	r24, 0x08	; 8
    1082:	48 9f       	mul	r20, r24
    1084:	a0 01       	movw	r20, r0
    1086:	11 24       	eor	r1, r1
    1088:	44 50       	subi	r20, 0x04	; 4
    108a:	51 44       	sbci	r21, 0x41	; 65
}

//Decrypts data read from I2C EEPROM, max 255 bytes at a time
void DecryptData(uint16_t offset, uint8_t length, uint8_t type, uint8_t *data){
    //offset += L_BOILER;
    while(length){
    108c:	66 23       	and	r22, r22
    108e:	69 f0       	breq	.+26     	; 0x10aa <DecryptData+0x32>
        *data ^= xor_key[type][(uint8_t)(offset%KEY_LENGTH)];
    1090:	df 01       	movw	r26, r30
    1092:	a2 0f       	add	r26, r18
    1094:	b3 1f       	adc	r27, r19
    1096:	a7 70       	andi	r26, 0x07	; 7
    1098:	bb 27       	eor	r27, r27
    109a:	a4 0f       	add	r26, r20
    109c:	b5 1f       	adc	r27, r21
    109e:	80 81       	ld	r24, Z
    10a0:	9c 91       	ld	r25, X
    10a2:	98 27       	eor	r25, r24
    10a4:	91 93       	st	Z+, r25
        ++data;
        ++offset;
        --length;
    10a6:	61 50       	subi	r22, 0x01	; 1
    10a8:	f1 cf       	rjmp	.-30     	; 0x108c <DecryptData+0x14>
    }
}
    10aa:	08 95       	ret

000010ac <ExtEERead>:

//Game data: Read a number of bytes and decrypt
uint8_t ExtEERead(uint16_t offset, uint8_t length, uint8_t type, uint8_t *data){
    10ac:	a2 e0       	ldi	r26, 0x02	; 2
    10ae:	b0 e0       	ldi	r27, 0x00	; 0
    10b0:	ec e5       	ldi	r30, 0x5C	; 92
    10b2:	f8 e0       	ldi	r31, 0x08	; 8
    10b4:	0c 94 20 1f 	jmp	0x3e40	; 0x3e40 <__prologue_saves__+0x10>
    10b8:	d6 2e       	mov	r13, r22
    10ba:	c4 2e       	mov	r12, r20
    10bc:	59 01       	movw	r10, r18
    offset &=EXT_EE_MAX;
    10be:	7c 01       	movw	r14, r24
    10c0:	e8 94       	clt
    10c2:	f7 f8       	bld	r15, 7
    uint8_t reg[2] = {(uint8_t)(offset>>8), (uint8_t)(offset&0xff)};
    10c4:	f9 82       	std	Y+1, r15	; 0x01
    10c6:	ea 82       	std	Y+2, r14	; 0x02
    uint8_t error = (I2C_read_bytes(EE_I2C_ADDR, &reg[0], 2, data, length));
    10c8:	06 2f       	mov	r16, r22
    10ca:	42 e0       	ldi	r20, 0x02	; 2
    10cc:	be 01       	movw	r22, r28
    10ce:	6f 5f       	subi	r22, 0xFF	; 255
    10d0:	7f 4f       	sbci	r23, 0xFF	; 255
    10d2:	80 e5       	ldi	r24, 0x50	; 80
    10d4:	1a da       	rcall	.-3020   	; 0x50a <I2C_read_bytes>
    10d6:	18 2f       	mov	r17, r24
    if (error) return error;
    10d8:	81 11       	cpse	r24, r1
    10da:	05 c0       	rjmp	.+10     	; 0x10e6 <ExtEERead+0x3a>
    DecryptData(offset, length, type, data);
    10dc:	95 01       	movw	r18, r10
    10de:	4c 2d       	mov	r20, r12
    10e0:	6d 2d       	mov	r22, r13
    10e2:	c7 01       	movw	r24, r14
    10e4:	c9 df       	rcall	.-110    	; 0x1078 <DecryptData>
    return 0;
}
    10e6:	81 2f       	mov	r24, r17
    10e8:	22 96       	adiw	r28, 0x02	; 2
    10ea:	ea e0       	ldi	r30, 0x0A	; 10
    10ec:	0c 94 39 1f 	jmp	0x3e72	; 0x3e72 <__epilogue_restores__+0x10>

000010f0 <SerSend>:

// Sends a set of characters to the serial port, stops only when character value 0 is reached.
uint8_t SerSend(unsigned char *addr){
    if (serTxDone){
    10f0:	20 91 09 38 	lds	r18, 0x3809	; 0x803809 <serTxDone>
    10f4:	22 23       	and	r18, r18
    10f6:	59 f0       	breq	.+22     	; 0x110e <SerSend+0x1e>
        serTxAddr = addr;
    10f8:	80 93 bf 3a 	sts	0x3ABF, r24	; 0x803abf <serTxAddr>
    10fc:	90 93 c0 3a 	sts	0x3AC0, r25	; 0x803ac0 <serTxAddr+0x1>
        serTxDone = 0;
    1100:	10 92 09 38 	sts	0x3809, r1	; 0x803809 <serTxDone>
        TCB0_INTCTRL = 0x01;
    1104:	81 e0       	ldi	r24, 0x01	; 1
    1106:	80 93 45 0a 	sts	0x0A45, r24	; 0x800a45 <__TEXT_REGION_LENGTH__+0x700a45>
        return 0;
    110a:	80 e0       	ldi	r24, 0x00	; 0
    110c:	08 95       	ret
    } else return 1;    //Error: Still sending data
    110e:	81 e0       	ldi	r24, 0x01	; 1
};
    1110:	08 95       	ret

00001112 <SerSpeed>:

// Set serial character output speed, 255-0 (0.8 to 100ms delay between characters)
void SerSpeed(uint8_t serSpd){
    1112:	28 2f       	mov	r18, r24
    if (serSpd<1) serSpd = 1;
    1114:	81 11       	cpse	r24, r1
    1116:	01 c0       	rjmp	.+2      	; 0x111a <SerSpeed+0x8>
    1118:	21 e0       	ldi	r18, 0x01	; 1
    TCB0_CCMP = ((uint16_t)(0xFF-serSpd)<<8) + 0xFF;
    111a:	8f ef       	ldi	r24, 0xFF	; 255
    111c:	90 e0       	ldi	r25, 0x00	; 0
    111e:	82 1b       	sub	r24, r18
    1120:	91 09       	sbc	r25, r1
    1122:	98 2f       	mov	r25, r24
    1124:	88 27       	eor	r24, r24
    1126:	81 50       	subi	r24, 0x01	; 1
    1128:	9f 4f       	sbci	r25, 0xFF	; 255
    112a:	80 93 4c 0a 	sts	0x0A4C, r24	; 0x800a4c <__TEXT_REGION_LENGTH__+0x700a4c>
    112e:	90 93 4d 0a 	sts	0x0A4D, r25	; 0x800a4d <__TEXT_REGION_LENGTH__+0x700a4d>
    1132:	08 95       	ret

00001134 <SelectTSens>:
};

// Select temperature sensor
void SelectTSens(){
     VREF_CTRLA   = 0x12;    //0x22 for audio in/out (2.5V), 0x12 for temperature in, audio out (1.1V/2.5V)
    1134:	82 e1       	ldi	r24, 0x12	; 18
    1136:	80 93 a0 00 	sts	0x00A0, r24	; 0x8000a0 <__TEXT_REGION_LENGTH__+0x7000a0>
     ADC0_CTRLA   &= ~(ADC_RESSEL_bm);
    113a:	e0 e0       	ldi	r30, 0x00	; 0
    113c:	f6 e0       	ldi	r31, 0x06	; 6
    113e:	80 81       	ld	r24, Z
    1140:	8b 7f       	andi	r24, 0xFB	; 251
    1142:	80 83       	st	Z, r24
     ADC0_MUXPOS  = 0x1E;    //Audio in: AIN7 at (0x07), Temperature: Internal sensor at (0x1E)
    1144:	8e e1       	ldi	r24, 0x1E	; 30
    1146:	80 93 06 06 	sts	0x0606, r24	; 0x800606 <__TEXT_REGION_LENGTH__+0x700606>
     adc0Chg = 3;
    114a:	83 e0       	ldi	r24, 0x03	; 3
    114c:	80 93 3e 38 	sts	0x383E, r24	; 0x80383e <adc0Chg>
    1150:	08 95       	ret

00001152 <SelectAuIn>:
};

// Select "audio" input (0-2.5V)
void SelectAuIn(){
     VREF_CTRLA   = 0x22;    //0x22 for audio in/out (2.5V), 0x12 for temperature in, audio out (1.1V/2.5V)
    1152:	82 e2       	ldi	r24, 0x22	; 34
    1154:	80 93 a0 00 	sts	0x00A0, r24	; 0x8000a0 <__TEXT_REGION_LENGTH__+0x7000a0>
     ADC0_CTRLA   |= ADC_RESSEL_bm;
    1158:	e0 e0       	ldi	r30, 0x00	; 0
    115a:	f6 e0       	ldi	r31, 0x06	; 6
    115c:	80 81       	ld	r24, Z
    115e:	84 60       	ori	r24, 0x04	; 4
    1160:	80 83       	st	Z, r24
     ADC0_MUXPOS  = 0x07;    //Audio in: AIN7 at (0x07), Temperature: Internal sensor at (0x1E)
    1162:	87 e0       	ldi	r24, 0x07	; 7
    1164:	80 93 06 06 	sts	0x0606, r24	; 0x800606 <__TEXT_REGION_LENGTH__+0x700606>
     adc0Chg = 3;
    1168:	83 e0       	ldi	r24, 0x03	; 3
    116a:	80 93 3e 38 	sts	0x383E, r24	; 0x80383e <adc0Chg>
    116e:	08 95       	ret

00001170 <CheckButtons>:
};

// Returns button combination (4LSB) and number of consecutive times this combination is detected. First read should always be ignored! 
uint8_t CheckButtons(){
    static uint8_t previousValue = 0xFF;
    uint8_t bADC = (uint8_t)(adcBtns>>4);
    1170:	80 91 bd 3a 	lds	r24, 0x3ABD	; 0x803abd <adcBtns>
    1174:	90 91 be 3a 	lds	r25, 0x3ABE	; 0x803abe <adcBtns+0x1>
    uint8_t button = 0xFF;     //FF = released or error

        switch(bADC){
    1178:	24 e0       	ldi	r18, 0x04	; 4
    117a:	96 95       	lsr	r25
    117c:	87 95       	ror	r24
    117e:	2a 95       	dec	r18
    1180:	e1 f7       	brne	.-8      	; 0x117a <CheckButtons+0xa>
    1182:	99 27       	eor	r25, r25
    1184:	80 36       	cpi	r24, 0x60	; 96
    1186:	91 05       	cpc	r25, r1
    1188:	40 f4       	brcc	.+16     	; 0x119a <CheckButtons+0x2a>
    118a:	8f 34       	cpi	r24, 0x4F	; 79
    118c:	91 05       	cpc	r25, r1
    118e:	88 f4       	brcc	.+34     	; 0x11b2 <CheckButtons+0x42>
    1190:	c0 97       	sbiw	r24, 0x30	; 48
    1192:	09 97       	sbiw	r24, 0x09	; 9
    1194:	90 f4       	brcc	.+36     	; 0x11ba <CheckButtons+0x4a>

            case 48 ... 56:          //52: Bottom left (+/-4)
            button = 2;
    1196:	92 e0       	ldi	r25, 0x02	; 2
    1198:	11 c0       	rjmp	.+34     	; 0x11bc <CheckButtons+0x4c>
uint8_t CheckButtons(){
    static uint8_t previousValue = 0xFF;
    uint8_t bADC = (uint8_t)(adcBtns>>4);
    uint8_t button = 0xFF;     //FF = released or error

        switch(bADC){
    119a:	85 37       	cpi	r24, 0x75	; 117
    119c:	91 05       	cpc	r25, r1
    119e:	68 f0       	brcs	.+26     	; 0x11ba <CheckButtons+0x4a>
    11a0:	8e 38       	cpi	r24, 0x8E	; 142
    11a2:	91 05       	cpc	r25, r1
    11a4:	40 f0       	brcs	.+16     	; 0x11b6 <CheckButtons+0x46>
    11a6:	8e 59       	subi	r24, 0x9E	; 158
    11a8:	91 09       	sbc	r25, r1
    11aa:	81 97       	sbiw	r24, 0x21	; 33
    11ac:	30 f4       	brcc	.+12     	; 0x11ba <CheckButtons+0x4a>
            case 117 ... 141:        //129: Top right (+/- 12)
            button = 1;
            break;

            case 158 ... 190:        //174: Bottom right (+/- 16)
            button = 0;
    11ae:	90 e0       	ldi	r25, 0x00	; 0
            break;
    11b0:	05 c0       	rjmp	.+10     	; 0x11bc <CheckButtons+0x4c>
            case 48 ... 56:          //52: Bottom left (+/-4)
            button = 2;
            break;

            case 79 ... 95:          //87: Top left (+/-8)
            button = 3;
    11b2:	93 e0       	ldi	r25, 0x03	; 3
            break;
    11b4:	03 c0       	rjmp	.+6      	; 0x11bc <CheckButtons+0x4c>

            case 117 ... 141:        //129: Top right (+/- 12)
            button = 1;
    11b6:	91 e0       	ldi	r25, 0x01	; 1
            break;
    11b8:	01 c0       	rjmp	.+2      	; 0x11bc <CheckButtons+0x4c>

// Returns button combination (4LSB) and number of consecutive times this combination is detected. First read should always be ignored! 
uint8_t CheckButtons(){
    static uint8_t previousValue = 0xFF;
    uint8_t bADC = (uint8_t)(adcBtns>>4);
    uint8_t button = 0xFF;     //FF = released or error
    11ba:	9f ef       	ldi	r25, 0xFF	; 255
            case 158 ... 190:        //174: Bottom right (+/- 16)
            button = 0;
            break;
        }

        if (((previousValue+1)== 0) || (button != previousValue)) {
    11bc:	80 91 2a 38 	lds	r24, 0x382A	; 0x80382a <previousValue.3900>
    11c0:	98 17       	cp	r25, r24
    11c2:	19 f0       	breq	.+6      	; 0x11ca <CheckButtons+0x5a>
            previousValue = button;
    11c4:	90 93 2a 38 	sts	0x382A, r25	; 0x80382a <previousValue.3900>
            return 0xFF;
    11c8:	8f ef       	ldi	r24, 0xFF	; 255
        } else return button;

}
    11ca:	08 95       	ret

000011cc <lfsr>:

uint8_t lfsr(){
    static uint16_t state = 0xd401;
    state ^= (state << 13);
    11cc:	80 91 28 38 	lds	r24, 0x3828	; 0x803828 <state.3910>
    11d0:	90 91 29 38 	lds	r25, 0x3829	; 0x803829 <state.3910+0x1>
    11d4:	9c 01       	movw	r18, r24
    11d6:	32 2f       	mov	r19, r18
    11d8:	22 27       	eor	r18, r18
    11da:	32 95       	swap	r19
    11dc:	33 0f       	add	r19, r19
    11de:	30 7e       	andi	r19, 0xE0	; 224
    11e0:	82 27       	eor	r24, r18
    11e2:	93 27       	eor	r25, r19
    state ^= (state >> 9);
    11e4:	9c 01       	movw	r18, r24
    11e6:	23 2f       	mov	r18, r19
    11e8:	33 27       	eor	r19, r19
    11ea:	26 95       	lsr	r18
    11ec:	82 27       	eor	r24, r18
    11ee:	93 27       	eor	r25, r19
    state ^= (state << 7);
    11f0:	9c 01       	movw	r18, r24
    11f2:	36 95       	lsr	r19
    11f4:	32 2f       	mov	r19, r18
    11f6:	22 27       	eor	r18, r18
    11f8:	37 95       	ror	r19
    11fa:	27 95       	ror	r18
    11fc:	82 27       	eor	r24, r18
    11fe:	93 27       	eor	r25, r19
    1200:	80 93 28 38 	sts	0x3828, r24	; 0x803828 <state.3910>
    1204:	90 93 29 38 	sts	0x3829, r25	; 0x803829 <state.3910+0x1>
    return (state & 0xff);
}
    1208:	08 95       	ret

0000120a <floatSpeed>:

void floatSpeed(uint8_t bits, uint16_t min, uint16_t max){
    120a:	a0 e0       	ldi	r26, 0x00	; 0
    120c:	b0 e0       	ldi	r27, 0x00	; 0
    120e:	eb e0       	ldi	r30, 0x0B	; 11
    1210:	f9 e0       	ldi	r31, 0x09	; 9
    1212:	0c 94 23 1f 	jmp	0x3e46	; 0x3e46 <__prologue_saves__+0x16>
    1216:	7b 01       	movw	r14, r22
    1218:	8a 01       	movw	r16, r20
    uint16_t val = TCB1_CCMP;
    121a:	c0 91 5c 0a 	lds	r28, 0x0A5C	; 0x800a5c <__TEXT_REGION_LENGTH__+0x700a5c>
    121e:	d0 91 5d 0a 	lds	r29, 0x0A5D	; 0x800a5d <__TEXT_REGION_LENGTH__+0x700a5d>
    bits = mask[(bits-1)&0x07];
    1222:	e8 2f       	mov	r30, r24
    1224:	f0 e0       	ldi	r31, 0x00	; 0
    1226:	31 97       	sbiw	r30, 0x01	; 1
    1228:	e7 70       	andi	r30, 0x07	; 7
    122a:	ff 27       	eor	r31, r31
    122c:	e5 5d       	subi	r30, 0xD5	; 213
    122e:	f7 4c       	sbci	r31, 0xC7	; 199
    1230:	d0 80       	ld	r13, Z
    val += (lfsr()&bits);
    1232:	cc df       	rcall	.-104    	; 0x11cc <lfsr>
    1234:	8d 21       	and	r24, r13
    1236:	c8 0f       	add	r28, r24
    1238:	d1 1d       	adc	r29, r1
    val -= (lfsr()&bits);
    123a:	c8 df       	rcall	.-112    	; 0x11cc <lfsr>
    123c:	8d 21       	and	r24, r13
    123e:	c8 1b       	sub	r28, r24
    1240:	d1 09       	sbc	r29, r1
    1242:	0c 17       	cp	r16, r28
    1244:	1d 07       	cpc	r17, r29
    1246:	08 f4       	brcc	.+2      	; 0x124a <floatSpeed+0x40>
    1248:	e8 01       	movw	r28, r16
    124a:	c7 01       	movw	r24, r14
    124c:	ec 16       	cp	r14, r28
    124e:	fd 06       	cpc	r15, r29
    1250:	08 f4       	brcc	.+2      	; 0x1254 <floatSpeed+0x4a>
    1252:	ce 01       	movw	r24, r28
    1254:	80 93 5c 0a 	sts	0x0A5C, r24	; 0x800a5c <__TEXT_REGION_LENGTH__+0x700a5c>
    if (val > max) val = max;    
    if (val < min) val = min;  
    TCB1_CCMP = val;
    1258:	90 93 5d 0a 	sts	0x0A5D, r25	; 0x800a5d <__TEXT_REGION_LENGTH__+0x700a5d>
    125c:	cd b7       	in	r28, 0x3d	; 61
}
    125e:	de b7       	in	r29, 0x3e	; 62
    1260:	e7 e0       	ldi	r30, 0x07	; 7
    1262:	0c 94 3c 1f 	jmp	0x3e78	; 0x3e78 <__epilogue_restores__+0x16>

00001266 <floatAround>:
    1266:	0f 93       	push	r16

uint8_t floatAround(uint8_t sample, uint8_t bits, uint8_t min, uint8_t max){
    1268:	1f 93       	push	r17
    126a:	cf 93       	push	r28
    126c:	df 93       	push	r29
    126e:	c8 2f       	mov	r28, r24
    1270:	d4 2f       	mov	r29, r20
    1272:	02 2f       	mov	r16, r18
    bits = mask[(bits-1)&0x07];
    1274:	e6 2f       	mov	r30, r22
    1276:	f0 e0       	ldi	r31, 0x00	; 0
    1278:	31 97       	sbiw	r30, 0x01	; 1
    127a:	e7 70       	andi	r30, 0x07	; 7
    127c:	ff 27       	eor	r31, r31
    127e:	e5 5d       	subi	r30, 0xD5	; 213
    1280:	f7 4c       	sbci	r31, 0xC7	; 199
    1282:	10 81       	ld	r17, Z
    sample += lfsr()&bits;
    1284:	a3 df       	rcall	.-186    	; 0x11cc <lfsr>
    1286:	81 23       	and	r24, r17
    1288:	c8 0f       	add	r28, r24
    sample -= lfsr()&bits;
    128a:	a0 df       	rcall	.-192    	; 0x11cc <lfsr>
    128c:	81 23       	and	r24, r17
    128e:	c8 1b       	sub	r28, r24
    1290:	8c 2f       	mov	r24, r28
    1292:	00 23       	and	r16, r16
    if (max){
    1294:	41 f0       	breq	.+16     	; 0x12a6 <floatAround+0x40>
    1296:	9c 2f       	mov	r25, r28
    1298:	0c 17       	cp	r16, r28
    129a:	08 f4       	brcc	.+2      	; 0x129e <floatAround+0x38>
    129c:	90 2f       	mov	r25, r16
    129e:	8d 2f       	mov	r24, r29
    12a0:	d9 17       	cp	r29, r25
    12a2:	08 f4       	brcc	.+2      	; 0x12a6 <floatAround+0x40>
    12a4:	89 2f       	mov	r24, r25
    12a6:	41 e0       	ldi	r20, 0x01	; 1
        if (sample > max) sample = max;
        if (sample < min) sample = min;
    }
    if (min & (sample < min)) sample = min;
    12a8:	50 e0       	ldi	r21, 0x00	; 0
    12aa:	8d 17       	cp	r24, r29
    12ac:	10 f0       	brcs	.+4      	; 0x12b2 <floatAround+0x4c>
    12ae:	40 e0       	ldi	r20, 0x00	; 0
    12b0:	50 e0       	ldi	r21, 0x00	; 0
    12b2:	2d 2f       	mov	r18, r29
    12b4:	30 e0       	ldi	r19, 0x00	; 0
    12b6:	24 23       	and	r18, r20
    12b8:	35 23       	and	r19, r21
    12ba:	23 2b       	or	r18, r19
    12bc:	09 f0       	breq	.+2      	; 0x12c0 <floatAround+0x5a>
    12be:	8d 2f       	mov	r24, r29
    12c0:	df 91       	pop	r29

    return sample;
}
    12c2:	cf 91       	pop	r28
    12c4:	1f 91       	pop	r17
    12c6:	0f 91       	pop	r16
    12c8:	08 95       	ret

000012ca <SaveGameState>:
    12ca:	cf 92       	push	r12
    inventory[0] = (gameState[INVADDR]<<8|gameState[INVADDR+1]);
    inventory[1] = (gameState[INVADDR+2]<<8|gameState[INVADDR+3]);
}

//Save changed data to EEPROM
uint8_t SaveGameState(){
    12cc:	df 92       	push	r13
    12ce:	ff 92       	push	r15
    12d0:	0f 93       	push	r16
    12d2:	1f 93       	push	r17
    12d4:	cf 93       	push	r28
    12d6:	df 93       	push	r29
    12d8:	cd b7       	in	r28, 0x3d	; 61
    12da:	de b7       	in	r29, 0x3e	; 62
    12dc:	64 97       	sbiw	r28, 0x14	; 20
    12de:	cd bf       	out	0x3d, r28	; 61
    12e0:	de bf       	out	0x3e, r29	; 62
    uint8_t gameCheck[BOOTCHK];

    //Read all data up to the boot/check result address from EEPROM
    EERead(0, &gameCheck[0], BOOTCHK);
    12e2:	44 e1       	ldi	r20, 0x14	; 20
    12e4:	be 01       	movw	r22, r28
    12e6:	6f 5f       	subi	r22, 0xFF	; 255
    12e8:	7f 4f       	sbci	r23, 0xFF	; 255
    12ea:	80 e0       	ldi	r24, 0x00	; 0
    12ec:	8d de       	rcall	.-742    	; 0x1008 <EERead>
    12ee:	87 e6       	ldi	r24, 0x67	; 103
    12f0:	c8 2e       	mov	r12, r24
    12f2:	8a e3       	ldi	r24, 0x3A	; 58
    12f4:	d8 2e       	mov	r13, r24
    12f6:	8e 01       	movw	r16, r28
    12f8:	0f 5f       	subi	r16, 0xFF	; 255
    12fa:	1f 4f       	sbci	r17, 0xFF	; 255

    //Check game status bits
    for (uint8_t x=0; x<STATLEN; ++x){
    12fc:	f1 2c       	mov	r15, r1
        if (gameState[x] != gameCheck[x]){
    12fe:	f8 01       	movw	r30, r16
    1300:	81 91       	ld	r24, Z+
    1302:	8f 01       	movw	r16, r30
    1304:	f6 01       	movw	r30, r12
    1306:	90 81       	ld	r25, Z
    1308:	98 13       	cpse	r25, r24
    130a:	08 c0       	rjmp	.+16     	; 0x131c <SaveGameState+0x52>

    //Read all data up to the boot/check result address from EEPROM
    EERead(0, &gameCheck[0], BOOTCHK);

    //Check game status bits
    for (uint8_t x=0; x<STATLEN; ++x){
    130c:	f3 94       	inc	r15
    130e:	ff ef       	ldi	r31, 0xFF	; 255
    1310:	cf 1a       	sub	r12, r31
    1312:	df 0a       	sbc	r13, r31
    1314:	80 e1       	ldi	r24, 0x10	; 16
    1316:	f8 12       	cpse	r15, r24
    1318:	f2 cf       	rjmp	.-28     	; 0x12fe <SaveGameState+0x34>
    131a:	08 c0       	rjmp	.+16     	; 0x132c <SaveGameState+0x62>
        if (gameState[x] != gameCheck[x]){
            if (EEWrite(x, &gameState[x], 1)) return 1;
    131c:	41 e0       	ldi	r20, 0x01	; 1
    131e:	b6 01       	movw	r22, r12
    1320:	8f 2d       	mov	r24, r15
    1322:	82 de       	rcall	.-764    	; 0x1028 <EEWrite>
    1324:	88 23       	and	r24, r24
    1326:	91 f3       	breq	.-28     	; 0x130c <SaveGameState+0x42>
    1328:	91 e0       	ldi	r25, 0x01	; 1
    132a:	36 c0       	rjmp	.+108    	; 0x1398 <SaveGameState+0xce>
        }
    }

    //Check the inventory too
    gameState[INVADDR] = (uint8_t)(inventory[0]>>8);
    132c:	20 91 44 38 	lds	r18, 0x3844	; 0x803844 <inventory>
    1330:	30 91 45 38 	lds	r19, 0x3845	; 0x803845 <inventory+0x1>
    1334:	30 93 77 3a 	sts	0x3A77, r19	; 0x803a77 <gameState+0x10>
    gameState[INVADDR+1] = (uint8_t)(inventory[0]&0xff);
    1338:	20 93 78 3a 	sts	0x3A78, r18	; 0x803a78 <gameState+0x11>
    gameState[INVADDR+2] = (uint8_t)(inventory[1]>>8);
    133c:	80 91 46 38 	lds	r24, 0x3846	; 0x803846 <inventory+0x2>
    1340:	90 91 47 38 	lds	r25, 0x3847	; 0x803847 <inventory+0x3>
    1344:	90 93 79 3a 	sts	0x3A79, r25	; 0x803a79 <gameState+0x12>
    gameState[INVADDR+3] = (uint8_t)(inventory[1]&0xff);
    1348:	80 93 7a 3a 	sts	0x3A7A, r24	; 0x803a7a <gameState+0x13>
    if (inventory[0] != (gameCheck[INVADDR]<<8|gameCheck[INVADDR+1])) {
    134c:	89 89       	ldd	r24, Y+17	; 0x11
    134e:	9a 89       	ldd	r25, Y+18	; 0x12
    1350:	98 27       	eor	r25, r24
    1352:	89 27       	eor	r24, r25
    1354:	98 27       	eor	r25, r24
    1356:	28 17       	cp	r18, r24
    1358:	39 07       	cpc	r19, r25
    135a:	69 f4       	brne	.+26     	; 0x1376 <SaveGameState+0xac>
        if (EEWrite(INVADDR, &gameState[INVADDR], 2)) return 1;
    }
    if (inventory[1] != (gameCheck[INVADDR+2]<<8|gameCheck[INVADDR+3])) {
    135c:	8b 89       	ldd	r24, Y+19	; 0x13
    135e:	9c 89       	ldd	r25, Y+20	; 0x14
    1360:	98 27       	eor	r25, r24
    1362:	89 27       	eor	r24, r25
    1364:	98 27       	eor	r25, r24
    1366:	20 91 46 38 	lds	r18, 0x3846	; 0x803846 <inventory+0x2>
    136a:	30 91 47 38 	lds	r19, 0x3847	; 0x803847 <inventory+0x3>
    136e:	28 17       	cp	r18, r24
    1370:	39 07       	cpc	r19, r25
    1372:	49 f4       	brne	.+18     	; 0x1386 <SaveGameState+0xbc>
    1374:	10 c0       	rjmp	.+32     	; 0x1396 <SaveGameState+0xcc>
    gameState[INVADDR] = (uint8_t)(inventory[0]>>8);
    gameState[INVADDR+1] = (uint8_t)(inventory[0]&0xff);
    gameState[INVADDR+2] = (uint8_t)(inventory[1]>>8);
    gameState[INVADDR+3] = (uint8_t)(inventory[1]&0xff);
    if (inventory[0] != (gameCheck[INVADDR]<<8|gameCheck[INVADDR+1])) {
        if (EEWrite(INVADDR, &gameState[INVADDR], 2)) return 1;
    1376:	42 e0       	ldi	r20, 0x02	; 2
    1378:	67 e7       	ldi	r22, 0x77	; 119
    137a:	7a e3       	ldi	r23, 0x3A	; 58
    137c:	80 e1       	ldi	r24, 0x10	; 16
    137e:	54 de       	rcall	.-856    	; 0x1028 <EEWrite>
    1380:	88 23       	and	r24, r24
    1382:	61 f3       	breq	.-40     	; 0x135c <SaveGameState+0x92>
    1384:	d1 cf       	rjmp	.-94     	; 0x1328 <SaveGameState+0x5e>
    }
    if (inventory[1] != (gameCheck[INVADDR+2]<<8|gameCheck[INVADDR+3])) {
        if (EEWrite(INVADDR+2, &gameState[INVADDR+2], 2)) return 1;
    1386:	42 e0       	ldi	r20, 0x02	; 2
    1388:	69 e7       	ldi	r22, 0x79	; 121
    138a:	7a e3       	ldi	r23, 0x3A	; 58
    138c:	82 e1       	ldi	r24, 0x12	; 18
    138e:	4c de       	rcall	.-872    	; 0x1028 <EEWrite>
    EERead(0, &gameCheck[0], BOOTCHK);

    //Check game status bits
    for (uint8_t x=0; x<STATLEN; ++x){
        if (gameState[x] != gameCheck[x]){
            if (EEWrite(x, &gameState[x], 1)) return 1;
    1390:	91 e0       	ldi	r25, 0x01	; 1
    1392:	81 11       	cpse	r24, r1
    1394:	01 c0       	rjmp	.+2      	; 0x1398 <SaveGameState+0xce>
    1396:	90 e0       	ldi	r25, 0x00	; 0
    if (inventory[1] != (gameCheck[INVADDR+2]<<8|gameCheck[INVADDR+3])) {
        if (EEWrite(INVADDR+2, &gameState[INVADDR+2], 2)) return 1;
    }

    return 0;
}
    1398:	89 2f       	mov	r24, r25
    139a:	64 96       	adiw	r28, 0x14	; 20
    139c:	cd bf       	out	0x3d, r28	; 61
    139e:	de bf       	out	0x3e, r29	; 62
    13a0:	df 91       	pop	r29
    13a2:	cf 91       	pop	r28
    13a4:	1f 91       	pop	r17
    13a6:	0f 91       	pop	r16
    13a8:	ff 90       	pop	r15
    13aa:	df 90       	pop	r13
    13ac:	cf 90       	pop	r12
    13ae:	08 95       	ret

000013b0 <ReadStatusBit>:

uint8_t ReadStatusBit(uint8_t number){
    number &= 0x7f;
    if (gameState[number>>3] & (1<<(number&7))) return 1; else return 0;
    13b0:	e8 2f       	mov	r30, r24
    13b2:	ef 77       	andi	r30, 0x7F	; 127
    13b4:	e6 95       	lsr	r30
    13b6:	e6 95       	lsr	r30
    13b8:	e6 95       	lsr	r30
    13ba:	f0 e0       	ldi	r31, 0x00	; 0
    13bc:	e9 59       	subi	r30, 0x99	; 153
    13be:	f5 4c       	sbci	r31, 0xC5	; 197
    13c0:	20 81       	ld	r18, Z
    13c2:	30 e0       	ldi	r19, 0x00	; 0
    13c4:	87 70       	andi	r24, 0x07	; 7
    13c6:	a9 01       	movw	r20, r18
    13c8:	02 c0       	rjmp	.+4      	; 0x13ce <ReadStatusBit+0x1e>
    13ca:	55 95       	asr	r21
    13cc:	47 95       	ror	r20
    13ce:	8a 95       	dec	r24
    13d0:	e2 f7       	brpl	.-8      	; 0x13ca <ReadStatusBit+0x1a>
    13d2:	ca 01       	movw	r24, r20
}
    13d4:	81 70       	andi	r24, 0x01	; 1
    13d6:	08 95       	ret

000013d8 <UpdateState>:

//Update game state: num -> vBBBBbbb v=value(0 is set!), BBBB=Byte number, bbb=bit number
void UpdateState(uint8_t num){
    uint8_t clearBit = num & 0x80;
    num &= 0x7f;
    13d8:	e8 2f       	mov	r30, r24
    13da:	ef 77       	andi	r30, 0x7F	; 127
    
    if (num) {
    13dc:	e9 f0       	breq	.+58     	; 0x1418 <UpdateState+0x40>
    13de:	e6 95       	lsr	r30
    13e0:	e6 95       	lsr	r30
    13e2:	e6 95       	lsr	r30
    13e4:	28 2f       	mov	r18, r24
    13e6:	27 70       	andi	r18, 0x07	; 7
        if (clearBit) {
            gameState[num>>3] &= ~(1<<(num&7));
    13e8:	f0 e0       	ldi	r31, 0x00	; 0
    13ea:	e9 59       	subi	r30, 0x99	; 153
    13ec:	f5 4c       	sbci	r31, 0xC5	; 197
void UpdateState(uint8_t num){
    uint8_t clearBit = num & 0x80;
    num &= 0x7f;
    
    if (num) {
        if (clearBit) {
    13ee:	87 ff       	sbrs	r24, 7
    13f0:	0a c0       	rjmp	.+20     	; 0x1406 <UpdateState+0x2e>
            gameState[num>>3] &= ~(1<<(num&7));
    13f2:	81 e0       	ldi	r24, 0x01	; 1
    13f4:	90 e0       	ldi	r25, 0x00	; 0
    13f6:	01 c0       	rjmp	.+2      	; 0x13fa <UpdateState+0x22>
    13f8:	88 0f       	add	r24, r24
    13fa:	2a 95       	dec	r18
    13fc:	ea f7       	brpl	.-6      	; 0x13f8 <UpdateState+0x20>
    13fe:	80 95       	com	r24
    1400:	90 81       	ld	r25, Z
    1402:	89 23       	and	r24, r25
    1404:	08 c0       	rjmp	.+16     	; 0x1416 <UpdateState+0x3e>
        } else {
            gameState[num>>3] |= 1<<(num&7);
    1406:	81 e0       	ldi	r24, 0x01	; 1
    1408:	90 e0       	ldi	r25, 0x00	; 0
    140a:	01 c0       	rjmp	.+2      	; 0x140e <UpdateState+0x36>
    140c:	88 0f       	add	r24, r24
    140e:	2a 95       	dec	r18
    1410:	ea f7       	brpl	.-6      	; 0x140c <UpdateState+0x34>
    1412:	90 81       	ld	r25, Z
    1414:	89 2b       	or	r24, r25
    1416:	80 83       	st	Z, r24
    1418:	08 95       	ret

0000141a <CheckState>:
        }
    }
}

//Checks if state of bit BBBBbbb matches with v (inverted) bit
uint8_t CheckState(uint8_t num){
    141a:	cf 93       	push	r28
    141c:	c8 2f       	mov	r28, r24
    uint8_t bitSet = 0;
    if (ReadStatusBit(num & 0x7f)){
    141e:	8f 77       	andi	r24, 0x7F	; 127
    1420:	c7 df       	rcall	.-114    	; 0x13b0 <ReadStatusBit>
    1422:	2c 2f       	mov	r18, r28
    1424:	22 1f       	adc	r18, r18
    1426:	22 27       	eor	r18, r18
    1428:	22 1f       	adc	r18, r18
    142a:	91 e0       	ldi	r25, 0x01	; 1
    142c:	81 11       	cpse	r24, r1
    142e:	01 c0       	rjmp	.+2      	; 0x1432 <CheckState+0x18>
    1430:	90 e0       	ldi	r25, 0x00	; 0
    }
    if (((num & 0x80)>0)^(bitSet>0)){
        return 1;
    }
    return 0;
}
    1432:	82 2f       	mov	r24, r18
    1434:	89 27       	eor	r24, r25
    1436:	cf 91       	pop	r28
    1438:	08 95       	ret

0000143a <getID>:

//Give out a number 0..3, calculated using serial number fields
uint8_t getID(){
    uint8_t id = 0;
    uint8_t *serNum;
    serNum = (uint8_t*)&SIGROW_SERNUM0;
    143a:	e3 e0       	ldi	r30, 0x03	; 3
    143c:	f1 e1       	ldi	r31, 0x11	; 17
    return 0;
}

//Give out a number 0..3, calculated using serial number fields
uint8_t getID(){
    uint8_t id = 0;
    143e:	80 e0       	ldi	r24, 0x00	; 0
    uint8_t *serNum;
    serNum = (uint8_t*)&SIGROW_SERNUM0;

    for (uint8_t x=0; x<10; ++x){
        id += *serNum;
    1440:	91 91       	ld	r25, Z+
    1442:	89 0f       	add	r24, r25
uint8_t getID(){
    uint8_t id = 0;
    uint8_t *serNum;
    serNum = (uint8_t*)&SIGROW_SERNUM0;

    for (uint8_t x=0; x<10; ++x){
    1444:	ed 30       	cpi	r30, 0x0D	; 13
    1446:	91 e1       	ldi	r25, 0x11	; 17
    1448:	f9 07       	cpc	r31, r25
    144a:	d1 f7       	brne	.-12     	; 0x1440 <getID+0x6>
        id += *serNum;
        ++serNum;
    }
    id %= 4;
    144c:	83 70       	andi	r24, 0x03	; 3
    whoami = id+1;
    144e:	91 e0       	ldi	r25, 0x01	; 1
    1450:	98 0f       	add	r25, r24
    1452:	90 93 43 38 	sts	0x3843, r25	; 0x803843 <whoami>
    return id;
}
    1456:	08 95       	ret

00001458 <Reset>:

void Reset(){
    1458:	cf 93       	push	r28
    145a:	e7 e6       	ldi	r30, 0x67	; 103
    145c:	fa e3       	ldi	r31, 0x3A	; 58
    //# 110   set to 1 by FW if badge UUID mod 4 == 0
    //# 111   set to 1 by FW if badge UUID mod 4 == 1
    //# 112   set to 1 by FW if badge UUID mod 4 == 2
    //# 113   set to 1 by FW if badge UUID mod 4 == 3
    for (uint8_t x=0; x<sizeof(gameState); ++x){
        gameState[x] = 0;
    145e:	11 92       	st	Z+, r1
    //Reset game progress (all zeros) and load some bits:
    //# 110   set to 1 by FW if badge UUID mod 4 == 0
    //# 111   set to 1 by FW if badge UUID mod 4 == 1
    //# 112   set to 1 by FW if badge UUID mod 4 == 2
    //# 113   set to 1 by FW if badge UUID mod 4 == 3
    for (uint8_t x=0; x<sizeof(gameState); ++x){
    1460:	8a e3       	ldi	r24, 0x3A	; 58
    1462:	eb 37       	cpi	r30, 0x7B	; 123
    1464:	f8 07       	cpc	r31, r24
    1466:	d9 f7       	brne	.-10     	; 0x145e <Reset+0x6>
        gameState[x] = 0;
    }

    uint8_t id = getID();
    1468:	e8 df       	rcall	.-48     	; 0x143a <getID>
    146a:	c8 2f       	mov	r28, r24

    //Write bit in gameState location 110..113
    if (id == 0) UpdateState(110);
    146c:	81 11       	cpse	r24, r1
    146e:	02 c0       	rjmp	.+4      	; 0x1474 <Reset+0x1c>
    1470:	8e e6       	ldi	r24, 0x6E	; 110
    1472:	0b c0       	rjmp	.+22     	; 0x148a <Reset+0x32>
    else if (id == 1) UpdateState(111);
    1474:	81 30       	cpi	r24, 0x01	; 1
    1476:	11 f4       	brne	.+4      	; 0x147c <Reset+0x24>
    1478:	8f e6       	ldi	r24, 0x6F	; 111
    147a:	07 c0       	rjmp	.+14     	; 0x148a <Reset+0x32>
    else if (id == 2) UpdateState(112);
    147c:	82 30       	cpi	r24, 0x02	; 2
    147e:	11 f4       	brne	.+4      	; 0x1484 <Reset+0x2c>
    1480:	80 e7       	ldi	r24, 0x70	; 112
    1482:	03 c0       	rjmp	.+6      	; 0x148a <Reset+0x32>
    else if (id == 3) UpdateState(113);
    1484:	83 30       	cpi	r24, 0x03	; 3
    1486:	11 f4       	brne	.+4      	; 0x148c <Reset+0x34>
    1488:	81 e7       	ldi	r24, 0x71	; 113
    148a:	a6 df       	rcall	.-180    	; 0x13d8 <UpdateState>
    UpdateState(100+id);
    148c:	84 e6       	ldi	r24, 0x64	; 100
    148e:	8c 0f       	add	r24, r28
    1490:	a3 df       	rcall	.-186    	; 0x13d8 <UpdateState>

    //Write bit 0, must always be 1!

}
    1492:	cf 91       	pop	r28
    1494:	08 95       	ret

00001496 <LoadGameState>:

    return sample;
}

//Load game status
void LoadGameState(){
    1496:	cf 93       	push	r28
    1498:	df 93       	push	r29
    EERead(0, &gameState[0], BOOTCHK);   //Load game status bits from EEPROM
    149a:	44 e1       	ldi	r20, 0x14	; 20
    149c:	67 e6       	ldi	r22, 0x67	; 103
    149e:	7a e3       	ldi	r23, 0x3A	; 58
    14a0:	80 e0       	ldi	r24, 0x00	; 0
    14a2:	b2 dd       	rcall	.-1180   	; 0x1008 <EERead>
    14a4:	ce e6       	ldi	r28, 0x6E	; 110

    uint8_t idSet = 0;
    14a6:	d0 e0       	ldi	r29, 0x00	; 0
    for (uint8_t x=0; x<4; ++x){
        idSet += ReadStatusBit(110+x);
    14a8:	8c 2f       	mov	r24, r28
    14aa:	82 df       	rcall	.-252    	; 0x13b0 <ReadStatusBit>
    14ac:	d8 0f       	add	r29, r24
    14ae:	cf 5f       	subi	r28, 0xFF	; 255
//Load game status
void LoadGameState(){
    EERead(0, &gameState[0], BOOTCHK);   //Load game status bits from EEPROM

    uint8_t idSet = 0;
    for (uint8_t x=0; x<4; ++x){
    14b0:	c2 37       	cpi	r28, 0x72	; 114
    14b2:	d1 f7       	brne	.-12     	; 0x14a8 <LoadGameState+0x12>
        idSet += ReadStatusBit(110+x);
    }

    //Check if badge is reset(0 = cheated!) or new(3) or error(2)
    if (idSet != 1) {
    14b4:	d1 30       	cpi	r29, 0x01	; 1
        Reset();
    14b6:	11 f0       	breq	.+4      	; 0x14bc <LoadGameState+0x26>
    14b8:	cf df       	rcall	.-98     	; 0x1458 <Reset>
    } else getID();
    14ba:	01 c0       	rjmp	.+2      	; 0x14be <LoadGameState+0x28>
    14bc:	be df       	rcall	.-132    	; 0x143a <getID>

    inventory[0] = (gameState[INVADDR]<<8|gameState[INVADDR+1]);
    14be:	80 91 77 3a 	lds	r24, 0x3A77	; 0x803a77 <gameState+0x10>
    14c2:	90 91 78 3a 	lds	r25, 0x3A78	; 0x803a78 <gameState+0x11>
    14c6:	98 27       	eor	r25, r24
    14c8:	89 27       	eor	r24, r25
    14ca:	98 27       	eor	r25, r24
    14cc:	80 93 44 38 	sts	0x3844, r24	; 0x803844 <inventory>
    14d0:	90 93 45 38 	sts	0x3845, r25	; 0x803845 <inventory+0x1>
    inventory[1] = (gameState[INVADDR+2]<<8|gameState[INVADDR+3]);
    14d4:	80 91 79 3a 	lds	r24, 0x3A79	; 0x803a79 <gameState+0x12>
    14d8:	90 91 7a 3a 	lds	r25, 0x3A7A	; 0x803a7a <gameState+0x13>
    14dc:	98 27       	eor	r25, r24
    14de:	89 27       	eor	r24, r25
    14e0:	98 27       	eor	r25, r24
    14e2:	80 93 46 38 	sts	0x3846, r24	; 0x803846 <inventory+0x2>
    14e6:	90 93 47 38 	sts	0x3847, r25	; 0x803847 <inventory+0x3>
}
    14ea:	df 91       	pop	r29
    14ec:	cf 91       	pop	r28
    14ee:	08 95       	ret

000014f0 <HotSummer>:
    //Write bit 0, must always be 1!

}

//Sets specific game bits after the badge is heated for one and two times.
uint8_t HotSummer(){
    14f0:	cf 93       	push	r28
    static uint8_t cooledDown = 0;

    if (CheckState(SUMMERS_COMPLETED)){
    14f2:	86 e7       	ldi	r24, 0x76	; 118
    14f4:	92 df       	rcall	.-220    	; 0x141a <CheckState>
    14f6:	c8 2f       	mov	r28, r24
    14f8:	88 23       	and	r24, r24
    14fa:	81 f0       	breq	.+32     	; 0x151c <HotSummer+0x2c>
        iLED[SCARAB[R]] = 0;
    14fc:	e0 91 c0 be 	lds	r30, 0xBEC0	; 0x80bec0 <__bss_end+0x83a8>
    1500:	f0 e0       	ldi	r31, 0x00	; 0
    1502:	e7 53       	subi	r30, 0x37	; 55
    1504:	f5 4c       	sbci	r31, 0xC5	; 197
    1506:	10 82       	st	Z, r1
        iLED[SCARAB[G]] = dimValue;
    1508:	e0 91 c1 be 	lds	r30, 0xBEC1	; 0x80bec1 <__bss_end+0x83a9>
    150c:	f0 e0       	ldi	r31, 0x00	; 0
    150e:	80 91 0c 38 	lds	r24, 0x380C	; 0x80380c <dimValue>
    1512:	e7 53       	subi	r30, 0x37	; 55
    1514:	f5 4c       	sbci	r31, 0xC5	; 197
    1516:	80 83       	st	Z, r24
        return 1;
    1518:	c1 e0       	ldi	r28, 0x01	; 1
    151a:	4c c0       	rjmp	.+152    	; 0x15b4 <HotSummer+0xc4>
    }

    if (CheckState(FIRST_SUMMER)) {
    151c:	85 e7       	ldi	r24, 0x75	; 117
    151e:	7d df       	rcall	.-262    	; 0x141a <CheckState>
    1520:	88 23       	and	r24, r24
    1522:	59 f1       	breq	.+86     	; 0x157a <HotSummer+0x8a>
        iLED[SCARAB[R]] = dimValue;
    1524:	e0 91 c0 be 	lds	r30, 0xBEC0	; 0x80bec0 <__bss_end+0x83a8>
    1528:	f0 e0       	ldi	r31, 0x00	; 0
    152a:	80 91 0c 38 	lds	r24, 0x380C	; 0x80380c <dimValue>
    152e:	e7 53       	subi	r30, 0x37	; 55
    1530:	f5 4c       	sbci	r31, 0xC5	; 197
    1532:	80 83       	st	Z, r24
        if ((cooledDown) && (adcTemp >= (calTemp + 32))) {
    1534:	80 91 5f 38 	lds	r24, 0x385F	; 0x80385f <cooledDown.3965>
    1538:	88 23       	and	r24, r24
    153a:	79 f0       	breq	.+30     	; 0x155a <HotSummer+0x6a>
    153c:	80 91 c6 3a 	lds	r24, 0x3AC6	; 0x803ac6 <calTemp>
    1540:	90 91 c7 3a 	lds	r25, 0x3AC7	; 0x803ac7 <calTemp+0x1>
    1544:	20 91 f3 3a 	lds	r18, 0x3AF3	; 0x803af3 <adcTemp>
    1548:	30 91 f4 3a 	lds	r19, 0x3AF4	; 0x803af4 <adcTemp+0x1>
    154c:	80 96       	adiw	r24, 0x20	; 32
    154e:	28 17       	cp	r18, r24
    1550:	39 07       	cpc	r19, r25
            UpdateState(SUMMERS_COMPLETED);
    1552:	18 f0       	brcs	.+6      	; 0x155a <HotSummer+0x6a>
    1554:	86 e7       	ldi	r24, 0x76	; 118
    1556:	40 df       	rcall	.-384    	; 0x13d8 <UpdateState>
            return 0;
    1558:	2d c0       	rjmp	.+90     	; 0x15b4 <HotSummer+0xc4>
        }
        if (adcTemp <= (calTemp + 8)) cooledDown = 1;
    155a:	80 91 c6 3a 	lds	r24, 0x3AC6	; 0x803ac6 <calTemp>
    155e:	90 91 c7 3a 	lds	r25, 0x3AC7	; 0x803ac7 <calTemp+0x1>
    1562:	20 91 f3 3a 	lds	r18, 0x3AF3	; 0x803af3 <adcTemp>
    1566:	30 91 f4 3a 	lds	r19, 0x3AF4	; 0x803af4 <adcTemp+0x1>
    156a:	08 96       	adiw	r24, 0x08	; 8
    156c:	82 17       	cp	r24, r18
    156e:	93 07       	cpc	r25, r19
    1570:	08 f1       	brcs	.+66     	; 0x15b4 <HotSummer+0xc4>
    1572:	81 e0       	ldi	r24, 0x01	; 1
    1574:	80 93 5f 38 	sts	0x385F, r24	; 0x80385f <cooledDown.3965>
    1578:	1d c0       	rjmp	.+58     	; 0x15b4 <HotSummer+0xc4>
                   
    } else {
        if (calTemp == 0) calTemp = adcTemp;
    157a:	80 91 c6 3a 	lds	r24, 0x3AC6	; 0x803ac6 <calTemp>
    157e:	90 91 c7 3a 	lds	r25, 0x3AC7	; 0x803ac7 <calTemp+0x1>
    1582:	89 2b       	or	r24, r25
    1584:	41 f4       	brne	.+16     	; 0x1596 <HotSummer+0xa6>
    1586:	80 91 f3 3a 	lds	r24, 0x3AF3	; 0x803af3 <adcTemp>
    158a:	90 91 f4 3a 	lds	r25, 0x3AF4	; 0x803af4 <adcTemp+0x1>
    158e:	80 93 c6 3a 	sts	0x3AC6, r24	; 0x803ac6 <calTemp>
    1592:	90 93 c7 3a 	sts	0x3AC7, r25	; 0x803ac7 <calTemp+0x1>
        if (adcTemp >= (calTemp + 32)) {
    1596:	80 91 c6 3a 	lds	r24, 0x3AC6	; 0x803ac6 <calTemp>
    159a:	90 91 c7 3a 	lds	r25, 0x3AC7	; 0x803ac7 <calTemp+0x1>
    159e:	20 91 f3 3a 	lds	r18, 0x3AF3	; 0x803af3 <adcTemp>
    15a2:	30 91 f4 3a 	lds	r19, 0x3AF4	; 0x803af4 <adcTemp+0x1>
    15a6:	80 96       	adiw	r24, 0x20	; 32
    15a8:	28 17       	cp	r18, r24
    15aa:	39 07       	cpc	r19, r25
            UpdateState(FIRST_SUMMER);
    15ac:	18 f0       	brcs	.+6      	; 0x15b4 <HotSummer+0xc4>
    15ae:	85 e7       	ldi	r24, 0x75	; 117
    15b0:	13 df       	rcall	.-474    	; 0x13d8 <UpdateState>
        }
    }
    return 0;
    15b2:	c0 e0       	ldi	r28, 0x00	; 0
}
    15b4:	8c 2f       	mov	r24, r28
    15b6:	cf 91       	pop	r28
    15b8:	08 95       	ret

000015ba <WingBar>:

void WingBar(int8_t l, int8_t r) {
    15ba:	e2 ec       	ldi	r30, 0xC2	; 194
    15bc:	fe eb       	ldi	r31, 0xBE	; 190
    for (int8_t i=0; i<5; i++) {
    15be:	90 e0       	ldi	r25, 0x00	; 0
        if (i<l)
            iLED[WING[L][i]] = dimValue;
    15c0:	a5 81       	ldd	r26, Z+5	; 0x05
    15c2:	b0 e0       	ldi	r27, 0x00	; 0
    return 0;
}

void WingBar(int8_t l, int8_t r) {
    for (int8_t i=0; i<5; i++) {
        if (i<l)
    15c4:	98 17       	cp	r25, r24
    15c6:	34 f4       	brge	.+12     	; 0x15d4 <WingBar+0x1a>
            iLED[WING[L][i]] = dimValue;
    15c8:	20 91 0c 38 	lds	r18, 0x380C	; 0x80380c <dimValue>
    15cc:	a7 53       	subi	r26, 0x37	; 55
    15ce:	b5 4c       	sbci	r27, 0xC5	; 197
    15d0:	2c 93       	st	X, r18
    15d2:	03 c0       	rjmp	.+6      	; 0x15da <WingBar+0x20>
        else
            iLED[WING[L][i]] = 0;
    15d4:	a7 53       	subi	r26, 0x37	; 55
    15d6:	b5 4c       	sbci	r27, 0xC5	; 197
    15d8:	1c 92       	st	X, r1
        if (i<r)
            iLED[WING[R][i]] = dimValue;
    15da:	a0 81       	ld	r26, Z
    15dc:	b0 e0       	ldi	r27, 0x00	; 0
    for (int8_t i=0; i<5; i++) {
        if (i<l)
            iLED[WING[L][i]] = dimValue;
        else
            iLED[WING[L][i]] = 0;
        if (i<r)
    15de:	96 17       	cp	r25, r22
    15e0:	34 f4       	brge	.+12     	; 0x15ee <WingBar+0x34>
            iLED[WING[R][i]] = dimValue;
    15e2:	20 91 0c 38 	lds	r18, 0x380C	; 0x80380c <dimValue>
    15e6:	a7 53       	subi	r26, 0x37	; 55
    15e8:	b5 4c       	sbci	r27, 0xC5	; 197
    15ea:	2c 93       	st	X, r18
    15ec:	03 c0       	rjmp	.+6      	; 0x15f4 <WingBar+0x3a>
        else
            iLED[WING[R][i]] = 0;
    15ee:	a7 53       	subi	r26, 0x37	; 55
    15f0:	b5 4c       	sbci	r27, 0xC5	; 197
    15f2:	1c 92       	st	X, r1
    15f4:	9f 5f       	subi	r25, 0xFF	; 255
    15f6:	31 96       	adiw	r30, 0x01	; 1
    }
    return 0;
}

void WingBar(int8_t l, int8_t r) {
    for (int8_t i=0; i<5; i++) {
    15f8:	95 30       	cpi	r25, 0x05	; 5
    15fa:	11 f7       	brne	.-60     	; 0x15c0 <WingBar+0x6>
        if (i<r)
            iLED[WING[R][i]] = dimValue;
        else
            iLED[WING[R][i]] = 0;
    }
}
    15fc:	08 95       	ret

000015fe <SetBothEyes>:

void SetBothEyes(uint8_t r, uint8_t g) {
    for (uint8_t i=0; i<2; i++) {
        iLED[EYE[R][i]] = r;
    15fe:	ac ec       	ldi	r26, 0xCC	; 204
    1600:	be eb       	ldi	r27, 0xBE	; 190
    1602:	ec 91       	ld	r30, X
    1604:	f0 e0       	ldi	r31, 0x00	; 0
    1606:	e7 53       	subi	r30, 0x37	; 55
    1608:	f5 4c       	sbci	r31, 0xC5	; 197
    160a:	80 83       	st	Z, r24
        iLED[EYE[G][i]] = g;
    160c:	12 96       	adiw	r26, 0x02	; 2
    160e:	ec 91       	ld	r30, X
    1610:	12 97       	sbiw	r26, 0x02	; 2
    1612:	f0 e0       	ldi	r31, 0x00	; 0
    1614:	e7 53       	subi	r30, 0x37	; 55
    1616:	f5 4c       	sbci	r31, 0xC5	; 197
    1618:	60 83       	st	Z, r22
    }
}

void SetBothEyes(uint8_t r, uint8_t g) {
    for (uint8_t i=0; i<2; i++) {
        iLED[EYE[R][i]] = r;
    161a:	11 96       	adiw	r26, 0x01	; 1
    161c:	ec 91       	ld	r30, X
    161e:	11 97       	sbiw	r26, 0x01	; 1
    1620:	f0 e0       	ldi	r31, 0x00	; 0
    1622:	e7 53       	subi	r30, 0x37	; 55
    1624:	f5 4c       	sbci	r31, 0xC5	; 197
    1626:	80 83       	st	Z, r24
        iLED[EYE[G][i]] = g;
    1628:	13 96       	adiw	r26, 0x03	; 3
    162a:	ec 91       	ld	r30, X
    162c:	f0 e0       	ldi	r31, 0x00	; 0
    162e:	e7 53       	subi	r30, 0x37	; 55
    1630:	f5 4c       	sbci	r31, 0xC5	; 197
    1632:	60 83       	st	Z, r22
    1634:	08 95       	ret

00001636 <ClearHackerLeds>:
    }
}

void ClearHackerLeds() {
    1636:	cf 93       	push	r28
    1638:	df 93       	push	r29
    163a:	e0 ed       	ldi	r30, 0xD0	; 208
    163c:	fe eb       	ldi	r31, 0xBE	; 190
    163e:	ef 01       	movw	r28, r30
    for (uint8_t i=0;i<6;i++) {
        iLED[HCKR[G][i]] = 0;
    1640:	a6 81       	ldd	r26, Z+6	; 0x06
    1642:	b0 e0       	ldi	r27, 0x00	; 0
    1644:	a7 53       	subi	r26, 0x37	; 55
    1646:	b5 4c       	sbci	r27, 0xC5	; 197
    1648:	1c 92       	st	X, r1
    164a:	31 96       	adiw	r30, 0x01	; 1
        iLED[HCKR[R][i]] = 0;
    164c:	a8 81       	ld	r26, Y
    164e:	b0 e0       	ldi	r27, 0x00	; 0
    1650:	a7 53       	subi	r26, 0x37	; 55
    1652:	b5 4c       	sbci	r27, 0xC5	; 197
    1654:	1c 92       	st	X, r1
        iLED[EYE[G][i]] = g;
    }
}

void ClearHackerLeds() {
    for (uint8_t i=0;i<6;i++) {
    1656:	8e eb       	ldi	r24, 0xBE	; 190
    1658:	e6 3d       	cpi	r30, 0xD6	; 214
    165a:	f8 07       	cpc	r31, r24
    165c:	81 f7       	brne	.-32     	; 0x163e <ClearHackerLeds+0x8>
        iLED[HCKR[G][i]] = 0;
        iLED[HCKR[R][i]] = 0;
    }
}
    165e:	df 91       	pop	r29
    1660:	cf 91       	pop	r28
    1662:	08 95       	ret

00001664 <GenerateBlinks>:


void GenerateBlinks(){
    1664:	a0 e0       	ldi	r26, 0x00	; 0
    1666:	b0 e0       	ldi	r27, 0x00	; 0
    1668:	e8 e3       	ldi	r30, 0x38	; 56
    166a:	fb e0       	ldi	r31, 0x0B	; 11
    166c:	0c 94 22 1f 	jmp	0x3e44	; 0x3e44 <__prologue_saves__+0x14>
    used by the games, the other LEDs can be used by setting 
    effect (or be set directly)
    */

    //Activate HCKR & BADGER leds based on the state-bits
    if (gameNow == TEXT) {
    1670:	80 91 42 38 	lds	r24, 0x3842	; 0x803842 <gameNow>
    1674:	88 23       	and	r24, r24
    1676:	29 f0       	breq	.+10     	; 0x1682 <GenerateBlinks+0x1e>
                iLED[HCKR[R][i]] = dimValue;
            }
        }
    }

    if (CheckState(GEM_STATE)) {
    1678:	80 e4       	ldi	r24, 0x40	; 64
    167a:	cf de       	rcall	.-610    	; 0x141a <CheckState>
    167c:	81 11       	cpse	r24, r1
    167e:	24 c0       	rjmp	.+72     	; 0x16c8 <GenerateBlinks+0x64>
    1680:	50 c0       	rjmp	.+160    	; 0x1722 <GenerateBlinks+0xbe>
    1682:	c0 ed       	ldi	r28, 0xD0	; 208
    1684:	de eb       	ldi	r29, 0xBE	; 190
    used by the games, the other LEDs can be used by setting 
    effect (or be set directly)
    */

    //Activate HCKR & BADGER leds based on the state-bits
    if (gameNow == TEXT) {
    1686:	1a e7       	ldi	r17, 0x7A	; 122
        for (uint8_t i=0;i<6;i++) {
            if(CheckState(HACKER_STATES + i)) {
    1688:	81 2f       	mov	r24, r17
    168a:	c7 de       	rcall	.-626    	; 0x141a <CheckState>
                iLED[HCKR[G][i]] = dimValue;
    168c:	ee 81       	ldd	r30, Y+6	; 0x06
    168e:	f0 e0       	ldi	r31, 0x00	; 0
    */

    //Activate HCKR & BADGER leds based on the state-bits
    if (gameNow == TEXT) {
        for (uint8_t i=0;i<6;i++) {
            if(CheckState(HACKER_STATES + i)) {
    1690:	88 23       	and	r24, r24
    1692:	59 f0       	breq	.+22     	; 0x16aa <GenerateBlinks+0x46>
                iLED[HCKR[G][i]] = dimValue;
    1694:	80 91 0c 38 	lds	r24, 0x380C	; 0x80380c <dimValue>
    1698:	e7 53       	subi	r30, 0x37	; 55
    169a:	f5 4c       	sbci	r31, 0xC5	; 197
    169c:	80 83       	st	Z, r24
                iLED[HCKR[R][i]] = 0;
    169e:	e8 81       	ld	r30, Y
    16a0:	f0 e0       	ldi	r31, 0x00	; 0
    16a2:	e7 53       	subi	r30, 0x37	; 55
    16a4:	f5 4c       	sbci	r31, 0xC5	; 197
    16a6:	10 82       	st	Z, r1
    16a8:	0a c0       	rjmp	.+20     	; 0x16be <GenerateBlinks+0x5a>
            } else {
                iLED[HCKR[G][i]] = 0;
    16aa:	e7 53       	subi	r30, 0x37	; 55
    16ac:	f5 4c       	sbci	r31, 0xC5	; 197
    16ae:	10 82       	st	Z, r1
                iLED[HCKR[R][i]] = dimValue;
    16b0:	e8 81       	ld	r30, Y
    16b2:	f0 e0       	ldi	r31, 0x00	; 0
    16b4:	80 91 0c 38 	lds	r24, 0x380C	; 0x80380c <dimValue>
    16b8:	e7 53       	subi	r30, 0x37	; 55
    16ba:	f5 4c       	sbci	r31, 0xC5	; 197
    16bc:	80 83       	st	Z, r24
    16be:	1f 5f       	subi	r17, 0xFF	; 255
    16c0:	21 96       	adiw	r28, 0x01	; 1
    effect (or be set directly)
    */

    //Activate HCKR & BADGER leds based on the state-bits
    if (gameNow == TEXT) {
        for (uint8_t i=0;i<6;i++) {
    16c2:	10 38       	cpi	r17, 0x80	; 128
    16c4:	09 f7       	brne	.-62     	; 0x1688 <GenerateBlinks+0x24>
    16c6:	d8 cf       	rjmp	.-80     	; 0x1678 <GenerateBlinks+0x14>
            }
        }
    }

    if (CheckState(GEM_STATE)) {
        if ( HeartCount == 1 || HeartCount == 3 || HeartCount == 5 )
    16c8:	80 91 61 38 	lds	r24, 0x3861	; 0x803861 <HeartCount>
    16cc:	98 2f       	mov	r25, r24
    16ce:	9d 7f       	andi	r25, 0xFD	; 253
    16d0:	e0 91 bf be 	lds	r30, 0xBEBF	; 0x80bebf <__bss_end+0x83a7>
            iLED[BADGER] = dimValue>>1 ;
    16d4:	f0 e0       	ldi	r31, 0x00	; 0
            }
        }
    }

    if (CheckState(GEM_STATE)) {
        if ( HeartCount == 1 || HeartCount == 3 || HeartCount == 5 )
    16d6:	91 30       	cpi	r25, 0x01	; 1
    16d8:	11 f0       	breq	.+4      	; 0x16de <GenerateBlinks+0x7a>
    16da:	85 30       	cpi	r24, 0x05	; 5
    16dc:	21 f4       	brne	.+8      	; 0x16e6 <GenerateBlinks+0x82>
            iLED[BADGER] = dimValue>>1 ;
    16de:	90 91 0c 38 	lds	r25, 0x380C	; 0x80380c <dimValue>
    16e2:	96 95       	lsr	r25
    16e4:	06 c0       	rjmp	.+12     	; 0x16f2 <GenerateBlinks+0x8e>
        else if ( HeartCount == 2 || HeartCount == 4 )
    16e6:	82 30       	cpi	r24, 0x02	; 2
    16e8:	11 f0       	breq	.+4      	; 0x16ee <GenerateBlinks+0x8a>
    16ea:	84 30       	cpi	r24, 0x04	; 4
    16ec:	31 f4       	brne	.+12     	; 0x16fa <GenerateBlinks+0x96>
            iLED[BADGER] = dimValue;
    16ee:	90 91 0c 38 	lds	r25, 0x380C	; 0x80380c <dimValue>
    16f2:	e7 53       	subi	r30, 0x37	; 55
    16f4:	f5 4c       	sbci	r31, 0xC5	; 197
    16f6:	90 83       	st	Z, r25
    16f8:	0c c0       	rjmp	.+24     	; 0x1712 <GenerateBlinks+0xae>
        else if ( HeartCount == 0 || HeartCount == 6 )
    16fa:	88 23       	and	r24, r24
    16fc:	11 f0       	breq	.+4      	; 0x1702 <GenerateBlinks+0x9e>
    16fe:	86 30       	cpi	r24, 0x06	; 6
    1700:	29 f4       	brne	.+10     	; 0x170c <GenerateBlinks+0xa8>
            iLED[BADGER] = dimValue>>2;
    1702:	90 91 0c 38 	lds	r25, 0x380C	; 0x80380c <dimValue>
    1706:	96 95       	lsr	r25
    1708:	96 95       	lsr	r25
    170a:	f3 cf       	rjmp	.-26     	; 0x16f2 <GenerateBlinks+0x8e>
        else
            iLED[BADGER] = 0;
    170c:	e7 53       	subi	r30, 0x37	; 55
    170e:	f5 4c       	sbci	r31, 0xC5	; 197
    1710:	10 82       	st	Z, r1
        if (HeartCount<32)
    1712:	80 32       	cpi	r24, 0x20	; 32
    1714:	20 f4       	brcc	.+8      	; 0x171e <GenerateBlinks+0xba>
            HeartCount++;
    1716:	8f 5f       	subi	r24, 0xFF	; 255
    1718:	80 93 61 38 	sts	0x3861, r24	; 0x803861 <HeartCount>
    171c:	02 c0       	rjmp	.+4      	; 0x1722 <GenerateBlinks+0xbe>
        else
            HeartCount = 0;
    171e:	10 92 61 38 	sts	0x3861, r1	; 0x803861 <HeartCount>
    }

    //LEDs effects for all games
    // Keep a counter for dynamic effects
    LedCount++;
    1722:	90 91 60 38 	lds	r25, 0x3860	; 0x803860 <LedCount>
    1726:	9f 5f       	subi	r25, 0xFF	; 255
    1728:	90 93 60 38 	sts	0x3860, r25	; 0x803860 <LedCount>
    
    switch (effect&0x1f) {
    172c:	e0 91 40 38 	lds	r30, 0x3840	; 0x803840 <effect>
    1730:	f0 91 41 38 	lds	r31, 0x3841	; 0x803841 <effect+0x1>
    1734:	ef 71       	andi	r30, 0x1F	; 31
    1736:	ff 27       	eor	r31, r31
    1738:	e9 30       	cpi	r30, 0x09	; 9
    173a:	f1 05       	cpc	r31, r1
    173c:	08 f0       	brcs	.+2      	; 0x1740 <GenerateBlinks+0xdc>
    173e:	f4 c0       	rjmp	.+488    	; 0x1928 <GenerateBlinks+0x2c4>
    1740:	e2 5c       	subi	r30, 0xC2	; 194
    1742:	ff 4f       	sbci	r31, 0xFF	; 255
    1744:	0c 94 12 1f 	jmp	0x3e24	; 0x3e24 <__tablejump2__>
        // All LEDs off
        case 0:
            WingBar(0,0);
    1748:	60 e0       	ldi	r22, 0x00	; 0
    174a:	80 e0       	ldi	r24, 0x00	; 0
    174c:	36 df       	rcall	.-404    	; 0x15ba <WingBar>
            for (uint8_t i=0; i<2; i++) {
                iLED[EYE[R][i]] = 0;
    174e:	e0 91 cc be 	lds	r30, 0xBECC	; 0x80becc <__bss_end+0x83b4>
    1752:	f0 e0       	ldi	r31, 0x00	; 0
    1754:	e7 53       	subi	r30, 0x37	; 55
    1756:	f5 4c       	sbci	r31, 0xC5	; 197
    1758:	10 82       	st	Z, r1
                iLED[EYE[G][i]] = 0; 
    175a:	e0 91 ce be 	lds	r30, 0xBECE	; 0x80bece <__bss_end+0x83b6>
    175e:	f0 e0       	ldi	r31, 0x00	; 0
    1760:	e7 53       	subi	r30, 0x37	; 55
    1762:	f5 4c       	sbci	r31, 0xC5	; 197
    1764:	10 82       	st	Z, r1
                iLED[SCARAB[i]] = 0;
    1766:	e0 91 c0 be 	lds	r30, 0xBEC0	; 0x80bec0 <__bss_end+0x83a8>
    176a:	f0 e0       	ldi	r31, 0x00	; 0
    176c:	e7 53       	subi	r30, 0x37	; 55
    176e:	f5 4c       	sbci	r31, 0xC5	; 197
    1770:	10 82       	st	Z, r1
    switch (effect&0x1f) {
        // All LEDs off
        case 0:
            WingBar(0,0);
            for (uint8_t i=0; i<2; i++) {
                iLED[EYE[R][i]] = 0;
    1772:	e0 91 cd be 	lds	r30, 0xBECD	; 0x80becd <__bss_end+0x83b5>
    1776:	f0 e0       	ldi	r31, 0x00	; 0
    1778:	e7 53       	subi	r30, 0x37	; 55
    177a:	f5 4c       	sbci	r31, 0xC5	; 197
    177c:	10 82       	st	Z, r1
                iLED[EYE[G][i]] = 0; 
    177e:	e0 91 cf be 	lds	r30, 0xBECF	; 0x80becf <__bss_end+0x83b7>
    1782:	f0 e0       	ldi	r31, 0x00	; 0
    1784:	e7 53       	subi	r30, 0x37	; 55
    1786:	f5 4c       	sbci	r31, 0xC5	; 197
    1788:	10 82       	st	Z, r1
                iLED[SCARAB[i]] = 0;
    178a:	e0 91 c1 be 	lds	r30, 0xBEC1	; 0x80bec1 <__bss_end+0x83a9>
    178e:	f0 e0       	ldi	r31, 0x00	; 0
    1790:	e7 53       	subi	r30, 0x37	; 55
    1792:	f5 4c       	sbci	r31, 0xC5	; 197
    1794:	10 82       	st	Z, r1
            }
            iLED[CAT] = 0;
    1796:	e0 91 be be 	lds	r30, 0xBEBE	; 0x80bebe <__bss_end+0x83a6>
    179a:	f0 e0       	ldi	r31, 0x00	; 0
    179c:	e7 53       	subi	r30, 0x37	; 55
    179e:	f5 4c       	sbci	r31, 0xC5	; 197
    17a0:	10 82       	st	Z, r1
            break;
    17a2:	c2 c0       	rjmp	.+388    	; 0x1928 <GenerateBlinks+0x2c4>

        //'flashing red eyes',       # 1 can be used when a bad answer is given
        case 1:
            SetBothEyes((LedCount & 1 ? dimValue : 0),0);
    17a4:	89 2f       	mov	r24, r25
    17a6:	81 70       	andi	r24, 0x01	; 1
    17a8:	90 fd       	sbrc	r25, 0
    17aa:	80 91 0c 38 	lds	r24, 0x380C	; 0x80380c <dimValue>
    17ae:	60 e0       	ldi	r22, 0x00	; 0
    17b0:	0d c0       	rjmp	.+26     	; 0x17cc <GenerateBlinks+0x168>
    17b2:	69 2f       	mov	r22, r25
    17b4:	70 e0       	ldi	r23, 0x00	; 0
            break;

        //'flashing green eyes',     # 2 can be used when a good answer is given
        case 2:
            SetBothEyes(0, 0x1f + (((LedCount & 0x08) ? ((LedCount&0x07)^0x07) : (LedCount&0x07))<<5));
    17b6:	93 ff       	sbrs	r25, 3
    17b8:	02 c0       	rjmp	.+4      	; 0x17be <GenerateBlinks+0x15a>
    17ba:	60 95       	com	r22
    17bc:	70 95       	com	r23
    17be:	95 e0       	ldi	r25, 0x05	; 5
    17c0:	66 0f       	add	r22, r22
    17c2:	77 1f       	adc	r23, r23
    17c4:	9a 95       	dec	r25
    17c6:	e1 f7       	brne	.-8      	; 0x17c0 <GenerateBlinks+0x15c>
    17c8:	61 5e       	subi	r22, 0xE1	; 225
    17ca:	80 e0       	ldi	r24, 0x00	; 0
    17cc:	18 df       	rcall	.-464    	; 0x15fe <SetBothEyes>
            break;
    17ce:	ac c0       	rjmp	.+344    	; 0x1928 <GenerateBlinks+0x2c4>

        //'flash both wings'
        case 5:
            if ((LedCount & 3) == 0) {
    17d0:	89 2f       	mov	r24, r25
    17d2:	83 70       	andi	r24, 0x03	; 3
    17d4:	09 f0       	breq	.+2      	; 0x17d8 <GenerateBlinks+0x174>
    17d6:	a8 c0       	rjmp	.+336    	; 0x1928 <GenerateBlinks+0x2c4>
                if (LedCount & 4)
    17d8:	92 ff       	sbrs	r25, 2
    17da:	03 c0       	rjmp	.+6      	; 0x17e2 <GenerateBlinks+0x17e>
                    WingBar(5,5);
    17dc:	65 e0       	ldi	r22, 0x05	; 5
    17de:	85 e0       	ldi	r24, 0x05	; 5
                else
                    WingBar(0,0);
    17e0:	02 c0       	rjmp	.+4      	; 0x17e6 <GenerateBlinks+0x182>
    17e2:	60 e0       	ldi	r22, 0x00	; 0
    17e4:	80 e0       	ldi	r24, 0x00	; 0
    17e6:	e9 de       	rcall	.-558    	; 0x15ba <WingBar>
    17e8:	9f c0       	rjmp	.+318    	; 0x1928 <GenerateBlinks+0x2c4>
            }
            break;

        //'circle the wing leds'
        case 6:
            if (LedCount > 4) LedCount = 0;
    17ea:	95 30       	cpi	r25, 0x05	; 5
    17ec:	10 f0       	brcs	.+4      	; 0x17f2 <GenerateBlinks+0x18e>
    17ee:	10 92 60 38 	sts	0x3860, r1	; 0x803860 <LedCount>
            iLED[WING[L][LedCount]] = 0;
    17f2:	40 91 60 38 	lds	r20, 0x3860	; 0x803860 <LedCount>
    17f6:	24 2f       	mov	r18, r20
    17f8:	30 e0       	ldi	r19, 0x00	; 0
    17fa:	f9 01       	movw	r30, r18
    17fc:	ee 53       	subi	r30, 0x3E	; 62
    17fe:	f1 44       	sbci	r31, 0x41	; 65
    1800:	e5 81       	ldd	r30, Z+5	; 0x05
    1802:	f0 e0       	ldi	r31, 0x00	; 0
    1804:	e7 53       	subi	r30, 0x37	; 55
    1806:	f5 4c       	sbci	r31, 0xC5	; 197
    1808:	10 82       	st	Z, r1
            iLED[WING[L][LedCount == 4 ? 0 : LedCount+1]] = dimValue;
    180a:	44 30       	cpi	r20, 0x04	; 4
    180c:	19 f0       	breq	.+6      	; 0x1814 <GenerateBlinks+0x1b0>
    180e:	c9 01       	movw	r24, r18
    1810:	01 96       	adiw	r24, 0x01	; 1
    1812:	02 c0       	rjmp	.+4      	; 0x1818 <GenerateBlinks+0x1b4>
    1814:	80 e0       	ldi	r24, 0x00	; 0
    1816:	90 e0       	ldi	r25, 0x00	; 0
    1818:	fc 01       	movw	r30, r24
    181a:	ee 53       	subi	r30, 0x3E	; 62
    181c:	f1 44       	sbci	r31, 0x41	; 65
    181e:	e5 81       	ldd	r30, Z+5	; 0x05
    1820:	f0 e0       	ldi	r31, 0x00	; 0
    1822:	80 91 0c 38 	lds	r24, 0x380C	; 0x80380c <dimValue>
    1826:	e7 53       	subi	r30, 0x37	; 55
    1828:	f5 4c       	sbci	r31, 0xC5	; 197
    182a:	80 83       	st	Z, r24
            iLED[WING[R][4-LedCount]] = 0;
    182c:	e6 ec       	ldi	r30, 0xC6	; 198
    182e:	fe eb       	ldi	r31, 0xBE	; 190
    1830:	e2 1b       	sub	r30, r18
    1832:	f3 0b       	sbc	r31, r19
    1834:	e0 81       	ld	r30, Z
    1836:	f0 e0       	ldi	r31, 0x00	; 0
    1838:	e7 53       	subi	r30, 0x37	; 55
    183a:	f5 4c       	sbci	r31, 0xC5	; 197
    183c:	10 82       	st	Z, r1
            iLED[WING[R][LedCount == 4 ? 4 : 3-LedCount]] = dimValue;
    183e:	44 30       	cpi	r20, 0x04	; 4
    1840:	29 f0       	breq	.+10     	; 0x184c <GenerateBlinks+0x1e8>
    1842:	83 e0       	ldi	r24, 0x03	; 3
    1844:	90 e0       	ldi	r25, 0x00	; 0
    1846:	82 1b       	sub	r24, r18
    1848:	93 0b       	sbc	r25, r19
    184a:	02 c0       	rjmp	.+4      	; 0x1850 <GenerateBlinks+0x1ec>
    184c:	84 e0       	ldi	r24, 0x04	; 4
    184e:	90 e0       	ldi	r25, 0x00	; 0
    1850:	fc 01       	movw	r30, r24
    1852:	ee 53       	subi	r30, 0x3E	; 62
    1854:	f1 44       	sbci	r31, 0x41	; 65
    1856:	e0 81       	ld	r30, Z
    1858:	f0 e0       	ldi	r31, 0x00	; 0
    185a:	80 91 0c 38 	lds	r24, 0x380C	; 0x80380c <dimValue>
    185e:	e7 53       	subi	r30, 0x37	; 55
    1860:	f5 4c       	sbci	r31, 0xC5	; 197
    1862:	80 83       	st	Z, r24
            break;
    1864:	61 c0       	rjmp	.+194    	; 0x1928 <GenerateBlinks+0x2c4>
    1866:	c2 ec       	ldi	r28, 0xC2	; 194
    1868:	de eb       	ldi	r29, 0xBE	; 190
    186a:	87 ec       	ldi	r24, 0xC7	; 199
    186c:	e8 2e       	mov	r14, r24
    186e:	8e eb       	ldi	r24, 0xBE	; 190
    1870:	f8 2e       	mov	r15, r24

        //'random wing leds'
        case 7:
            for (uint8_t x=0; x<5; ++x){
                iLED[WING[L][x]] = (lfsr() > 127)?dimValue:0;
    1872:	6e 01       	movw	r12, r28
    1874:	0d 81       	ldd	r16, Y+5	; 0x05
    1876:	10 e0       	ldi	r17, 0x00	; 0
    1878:	a9 dc       	rcall	.-1710   	; 0x11cc <lfsr>
    187a:	87 ff       	sbrs	r24, 7
    187c:	03 c0       	rjmp	.+6      	; 0x1884 <GenerateBlinks+0x220>
    187e:	80 91 0c 38 	lds	r24, 0x380C	; 0x80380c <dimValue>
    1882:	01 c0       	rjmp	.+2      	; 0x1886 <GenerateBlinks+0x222>
    1884:	80 e0       	ldi	r24, 0x00	; 0
    1886:	f8 01       	movw	r30, r16
    1888:	e7 53       	subi	r30, 0x37	; 55
    188a:	f5 4c       	sbci	r31, 0xC5	; 197
    188c:	80 83       	st	Z, r24
                iLED[WING[R][x]] = (lfsr() > 127)?dimValue:0;
    188e:	21 96       	adiw	r28, 0x01	; 1
    1890:	f6 01       	movw	r30, r12
    1892:	00 81       	ld	r16, Z
    1894:	10 e0       	ldi	r17, 0x00	; 0
    1896:	9a dc       	rcall	.-1740   	; 0x11cc <lfsr>
    1898:	87 ff       	sbrs	r24, 7
    189a:	03 c0       	rjmp	.+6      	; 0x18a2 <GenerateBlinks+0x23e>
    189c:	80 91 0c 38 	lds	r24, 0x380C	; 0x80380c <dimValue>
    18a0:	01 c0       	rjmp	.+2      	; 0x18a4 <GenerateBlinks+0x240>
    18a2:	80 e0       	ldi	r24, 0x00	; 0
    18a4:	f8 01       	movw	r30, r16
    18a6:	e7 53       	subi	r30, 0x37	; 55
    18a8:	f5 4c       	sbci	r31, 0xC5	; 197
    18aa:	80 83       	st	Z, r24
            iLED[WING[R][LedCount == 4 ? 4 : 3-LedCount]] = dimValue;
            break;

        //'random wing leds'
        case 7:
            for (uint8_t x=0; x<5; ++x){
    18ac:	ec 16       	cp	r14, r28
    18ae:	fd 06       	cpc	r15, r29
    18b0:	01 f7       	brne	.-64     	; 0x1872 <GenerateBlinks+0x20e>
    18b2:	3a c0       	rjmp	.+116    	; 0x1928 <GenerateBlinks+0x2c4>
            }
            break;

        //'falling rain'
        case 8:
            if ((LedCount & 1) == 0) {
    18b4:	90 fd       	sbrc	r25, 0
    18b6:	38 c0       	rjmp	.+112    	; 0x1928 <GenerateBlinks+0x2c4>
    18b8:	e2 ec       	ldi	r30, 0xC2	; 194
    18ba:	fe eb       	ldi	r31, 0xBE	; 190
    18bc:	86 ec       	ldi	r24, 0xC6	; 198
    18be:	9e eb       	ldi	r25, 0xBE	; 190
    18c0:	9f 01       	movw	r18, r30
                for (uint8_t x=0; x<4; ++x){
                    iLED[WING[L][x]] = iLED[WING[L][x+1]];
    18c2:	a5 81       	ldd	r26, Z+5	; 0x05
    18c4:	b0 e0       	ldi	r27, 0x00	; 0
    18c6:	c6 81       	ldd	r28, Z+6	; 0x06
    18c8:	d0 e0       	ldi	r29, 0x00	; 0
    18ca:	c7 53       	subi	r28, 0x37	; 55
    18cc:	d5 4c       	sbci	r29, 0xC5	; 197
    18ce:	48 81       	ld	r20, Y
    18d0:	a7 53       	subi	r26, 0x37	; 55
    18d2:	b5 4c       	sbci	r27, 0xC5	; 197
    18d4:	4c 93       	st	X, r20
    18d6:	31 96       	adiw	r30, 0x01	; 1
                    iLED[WING[R][x]] = iLED[WING[R][x+1]];
    18d8:	e9 01       	movw	r28, r18
    18da:	a8 81       	ld	r26, Y
    18dc:	b0 e0       	ldi	r27, 0x00	; 0
    18de:	c0 81       	ld	r28, Z
    18e0:	d0 e0       	ldi	r29, 0x00	; 0
    18e2:	c7 53       	subi	r28, 0x37	; 55
    18e4:	d5 4c       	sbci	r29, 0xC5	; 197
    18e6:	28 81       	ld	r18, Y
    18e8:	a7 53       	subi	r26, 0x37	; 55
    18ea:	b5 4c       	sbci	r27, 0xC5	; 197
            break;

        //'falling rain'
        case 8:
            if ((LedCount & 1) == 0) {
                for (uint8_t x=0; x<4; ++x){
    18ec:	2c 93       	st	X, r18
    18ee:	8e 17       	cp	r24, r30
    18f0:	9f 07       	cpc	r25, r31
                    iLED[WING[L][x]] = iLED[WING[L][x+1]];
                    iLED[WING[R][x]] = iLED[WING[R][x+1]];
                }
                iLED[WING[L][4]] = (lfsr() > 224)?dimValue:0;
    18f2:	31 f7       	brne	.-52     	; 0x18c0 <GenerateBlinks+0x25c>
    18f4:	c0 91 cb be 	lds	r28, 0xBECB	; 0x80becb <__bss_end+0x83b3>
    18f8:	d0 e0       	ldi	r29, 0x00	; 0
    18fa:	68 dc       	rcall	.-1840   	; 0x11cc <lfsr>
    18fc:	81 3e       	cpi	r24, 0xE1	; 225
    18fe:	18 f0       	brcs	.+6      	; 0x1906 <GenerateBlinks+0x2a2>
    1900:	80 91 0c 38 	lds	r24, 0x380C	; 0x80380c <dimValue>
    1904:	01 c0       	rjmp	.+2      	; 0x1908 <GenerateBlinks+0x2a4>
    1906:	80 e0       	ldi	r24, 0x00	; 0
    1908:	c7 53       	subi	r28, 0x37	; 55
    190a:	d5 4c       	sbci	r29, 0xC5	; 197
                iLED[WING[R][4]] = (lfsr() > 224)?dimValue:0;
    190c:	88 83       	st	Y, r24
    190e:	c0 91 c6 be 	lds	r28, 0xBEC6	; 0x80bec6 <__bss_end+0x83ae>
    1912:	d0 e0       	ldi	r29, 0x00	; 0
    1914:	5b dc       	rcall	.-1866   	; 0x11cc <lfsr>
    1916:	81 3e       	cpi	r24, 0xE1	; 225
    1918:	18 f0       	brcs	.+6      	; 0x1920 <GenerateBlinks+0x2bc>
    191a:	80 91 0c 38 	lds	r24, 0x380C	; 0x80380c <dimValue>
    191e:	01 c0       	rjmp	.+2      	; 0x1922 <GenerateBlinks+0x2be>
    1920:	80 e0       	ldi	r24, 0x00	; 0
    1922:	c7 53       	subi	r28, 0x37	; 55
    1924:	d5 4c       	sbci	r29, 0xC5	; 197
    1926:	88 83       	st	Y, r24
        case 31:
        default:
            break;
            
    }
}
    1928:	cd b7       	in	r28, 0x3d	; 61
    192a:	de b7       	in	r29, 0x3e	; 62
    192c:	e8 e0       	ldi	r30, 0x08	; 8
    192e:	0c 94 3b 1f 	jmp	0x3e76	; 0x3e76 <__epilogue_restores__+0x14>

00001932 <GenerateAudio>:


uint8_t GenerateAudio(){
    1932:	0f 93       	push	r16
    1934:	1f 93       	push	r17
    1936:	cf 93       	push	r28

    if (auIn < HPLVL) {
    1938:	80 91 c8 3a 	lds	r24, 0x3AC8	; 0x803ac8 <auIn>
    193c:	89 31       	cpi	r24, 0x19	; 25
    193e:	08 f0       	brcs	.+2      	; 0x1942 <GenerateAudio+0x10>
    1940:	8e c1       	rjmp	.+796    	; 0x1c5e <GenerateAudio+0x32c>

        detHdPh = 1;
    1942:	c1 e0       	ldi	r28, 0x01	; 1
    1944:	c0 93 c5 3a 	sts	0x3AC5, r28	; 0x803ac5 <detHdPh>

        //Audio for text adventure
        if ((effect&0xff00)==0) {
    1948:	80 91 40 38 	lds	r24, 0x3840	; 0x803840 <effect>
    194c:	90 91 41 38 	lds	r25, 0x3841	; 0x803841 <effect+0x1>
    1950:	88 27       	eor	r24, r24
    1952:	89 2b       	or	r24, r25
    1954:	09 f0       	breq	.+2      	; 0x1958 <GenerateAudio+0x26>
    1956:	2d c1       	rjmp	.+602    	; 0x1bb2 <GenerateAudio+0x280>

            //Silence
            if ((effect&0xE0)==0){
    1958:	80 91 40 38 	lds	r24, 0x3840	; 0x803840 <effect>
    195c:	90 91 41 38 	lds	r25, 0x3841	; 0x803841 <effect+0x1>
    1960:	80 7e       	andi	r24, 0xE0	; 224
    1962:	99 27       	eor	r25, r25
    1964:	89 2b       	or	r24, r25
    1966:	31 f4       	brne	.+12     	; 0x1974 <GenerateAudio+0x42>
                auRepAddr = &zero;
    1968:	8f e3       	ldi	r24, 0x3F	; 63
    196a:	98 e3       	ldi	r25, 0x38	; 56
    196c:	80 93 03 38 	sts	0x3803, r24	; 0x803803 <auRepAddr>
    1970:	90 93 04 38 	sts	0x3804, r25	; 0x803804 <auRepAddr+0x1>
            }

            //Bad (buzzer)
            if ((effect&0xE0)==32){
    1974:	80 91 40 38 	lds	r24, 0x3840	; 0x803840 <effect>
    1978:	90 91 41 38 	lds	r25, 0x3841	; 0x803841 <effect+0x1>
    197c:	80 7e       	andi	r24, 0xE0	; 224
    197e:	99 27       	eor	r25, r25
    1980:	80 97       	sbiw	r24, 0x20	; 32
    1982:	09 f0       	breq	.+2      	; 0x1986 <GenerateAudio+0x54>
    1984:	53 c0       	rjmp	.+166    	; 0x1a2c <GenerateAudio+0xfa>
                static uint8_t auBuffer[17] = {1, 255, 128, 128, 192, 255, 64, 255, 192, 128, 64, 1, 192, 1, 64, 128, 0}; 
                static uint8_t duration, start;
                floatSpeed(1, 0x2000, 0x2200);
    1986:	40 e0       	ldi	r20, 0x00	; 0
    1988:	52 e2       	ldi	r21, 0x22	; 34
    198a:	60 e0       	ldi	r22, 0x00	; 0
    198c:	70 e2       	ldi	r23, 0x20	; 32
    198e:	81 e0       	ldi	r24, 0x01	; 1
    1990:	3c dc       	rcall	.-1928   	; 0x120a <floatSpeed>
                auBuffer[2] = floatAround(0x80, 5, 0x01, 0x00);
    1992:	20 e0       	ldi	r18, 0x00	; 0
    1994:	41 e0       	ldi	r20, 0x01	; 1
    1996:	65 e0       	ldi	r22, 0x05	; 5
    1998:	80 e8       	ldi	r24, 0x80	; 128
    199a:	65 dc       	rcall	.-1846   	; 0x1266 <floatAround>
    199c:	80 93 19 38 	sts	0x3819, r24	; 0x803819 <auBuffer.4018+0x2>

                if (buttonMark){
    19a0:	80 91 48 38 	lds	r24, 0x3848	; 0x803848 <buttonMark>
    19a4:	88 23       	and	r24, r24
    19a6:	09 f4       	brne	.+2      	; 0x19aa <GenerateAudio+0x78>
    19a8:	41 c0       	rjmp	.+130    	; 0x1a2c <GenerateAudio+0xfa>
                    if (start == 0) {
    19aa:	80 91 5e 38 	lds	r24, 0x385E	; 0x80385e <start.4020>
    19ae:	81 11       	cpse	r24, r1
    19b0:	0f c0       	rjmp	.+30     	; 0x19d0 <GenerateAudio+0x9e>
                        duration = 4;
    19b2:	84 e0       	ldi	r24, 0x04	; 4
    19b4:	80 93 5d 38 	sts	0x385D, r24	; 0x80385d <duration.4019>
                        auVolume = 255;
    19b8:	8f ef       	ldi	r24, 0xFF	; 255
    19ba:	80 93 bc 3a 	sts	0x3ABC, r24	; 0x803abc <auVolume>
                        auRepAddr = &auBuffer[0];
    19be:	87 e1       	ldi	r24, 0x17	; 23
    19c0:	98 e3       	ldi	r25, 0x38	; 56
    19c2:	80 93 03 38 	sts	0x3803, r24	; 0x803803 <auRepAddr>
    19c6:	90 93 04 38 	sts	0x3804, r25	; 0x803804 <auRepAddr+0x1>
                        start = 1;
    19ca:	81 e0       	ldi	r24, 0x01	; 1
    19cc:	80 93 5e 38 	sts	0x385E, r24	; 0x80385e <start.4020>
                    }
                    
                    if ((auVolume)&&(duration == 0)) auVolume >>= 1; 
    19d0:	80 91 bc 3a 	lds	r24, 0x3ABC	; 0x803abc <auVolume>
    19d4:	88 23       	and	r24, r24
    19d6:	49 f0       	breq	.+18     	; 0x19ea <GenerateAudio+0xb8>
    19d8:	80 91 5d 38 	lds	r24, 0x385D	; 0x80385d <duration.4019>
    19dc:	81 11       	cpse	r24, r1
    19de:	05 c0       	rjmp	.+10     	; 0x19ea <GenerateAudio+0xb8>
    19e0:	80 91 bc 3a 	lds	r24, 0x3ABC	; 0x803abc <auVolume>
    19e4:	86 95       	lsr	r24
    19e6:	80 93 bc 3a 	sts	0x3ABC, r24	; 0x803abc <auVolume>

                    if (auVolume == 0){
    19ea:	80 91 bc 3a 	lds	r24, 0x3ABC	; 0x803abc <auVolume>
    19ee:	81 11       	cpse	r24, r1
    19f0:	16 c0       	rjmp	.+44     	; 0x1a1e <GenerateAudio+0xec>
                        start = 0;
    19f2:	10 92 5e 38 	sts	0x385E, r1	; 0x80385e <start.4020>
                        auRepAddr = &zero;
    19f6:	8f e3       	ldi	r24, 0x3F	; 63
    19f8:	98 e3       	ldi	r25, 0x38	; 56
    19fa:	80 93 03 38 	sts	0x3803, r24	; 0x803803 <auRepAddr>
    19fe:	90 93 04 38 	sts	0x3804, r25	; 0x803804 <auRepAddr+0x1>
                        effect &= 0x1f;
    1a02:	80 91 40 38 	lds	r24, 0x3840	; 0x803840 <effect>
    1a06:	90 91 41 38 	lds	r25, 0x3841	; 0x803841 <effect+0x1>
    1a0a:	8f 71       	andi	r24, 0x1F	; 31
    1a0c:	99 27       	eor	r25, r25
    1a0e:	80 93 40 38 	sts	0x3840, r24	; 0x803840 <effect>
    1a12:	90 93 41 38 	sts	0x3841, r25	; 0x803841 <effect+0x1>
                        auVolume = 255;
    1a16:	8f ef       	ldi	r24, 0xFF	; 255
    1a18:	80 93 bc 3a 	sts	0x3ABC, r24	; 0x803abc <auVolume>
    1a1c:	07 c0       	rjmp	.+14     	; 0x1a2c <GenerateAudio+0xfa>
                    } else if (duration) --duration;
    1a1e:	80 91 5d 38 	lds	r24, 0x385D	; 0x80385d <duration.4019>
    1a22:	88 23       	and	r24, r24
    1a24:	19 f0       	breq	.+6      	; 0x1a2c <GenerateAudio+0xfa>
    1a26:	81 50       	subi	r24, 0x01	; 1
    1a28:	80 93 5d 38 	sts	0x385D, r24	; 0x80385d <duration.4019>

                }
            }

            //Good (bell)
            if (((effect&0xE0)==64)||((effect&0xE0)==160)){
    1a2c:	80 91 40 38 	lds	r24, 0x3840	; 0x803840 <effect>
    1a30:	90 91 41 38 	lds	r25, 0x3841	; 0x803841 <effect+0x1>
    1a34:	80 7e       	andi	r24, 0xE0	; 224
    1a36:	99 27       	eor	r25, r25
    1a38:	80 34       	cpi	r24, 0x40	; 64
    1a3a:	91 05       	cpc	r25, r1
    1a3c:	51 f0       	breq	.+20     	; 0x1a52 <GenerateAudio+0x120>
    1a3e:	80 91 40 38 	lds	r24, 0x3840	; 0x803840 <effect>
    1a42:	90 91 41 38 	lds	r25, 0x3841	; 0x803841 <effect+0x1>
    1a46:	80 7e       	andi	r24, 0xE0	; 224
    1a48:	99 27       	eor	r25, r25
    1a4a:	80 3a       	cpi	r24, 0xA0	; 160
    1a4c:	91 05       	cpc	r25, r1
    1a4e:	09 f0       	breq	.+2      	; 0x1a52 <GenerateAudio+0x120>
    1a50:	47 c0       	rjmp	.+142    	; 0x1ae0 <GenerateAudio+0x1ae>
                static uint8_t start, auBuffer[3] = {255, 1, 0};
                
                if (buttonMark){
    1a52:	80 91 48 38 	lds	r24, 0x3848	; 0x803848 <buttonMark>
    1a56:	88 23       	and	r24, r24
    1a58:	09 f4       	brne	.+2      	; 0x1a5c <GenerateAudio+0x12a>
    1a5a:	42 c0       	rjmp	.+132    	; 0x1ae0 <GenerateAudio+0x1ae>
                    if (start == 0) {
    1a5c:	80 91 5c 38 	lds	r24, 0x385C	; 0x80385c <start.4021>
    1a60:	81 11       	cpse	r24, r1
    1a62:	12 c0       	rjmp	.+36     	; 0x1a88 <GenerateAudio+0x156>
                        auVolume = 255;
    1a64:	8f ef       	ldi	r24, 0xFF	; 255
    1a66:	80 93 bc 3a 	sts	0x3ABC, r24	; 0x803abc <auVolume>
                        TCB1_CCMP = 0x0a00;
    1a6a:	80 e0       	ldi	r24, 0x00	; 0
    1a6c:	9a e0       	ldi	r25, 0x0A	; 10
    1a6e:	80 93 5c 0a 	sts	0x0A5C, r24	; 0x800a5c <__TEXT_REGION_LENGTH__+0x700a5c>
    1a72:	90 93 5d 0a 	sts	0x0A5D, r25	; 0x800a5d <__TEXT_REGION_LENGTH__+0x700a5d>
                        auRepAddr = &auBuffer[0];
    1a76:	84 e1       	ldi	r24, 0x14	; 20
    1a78:	98 e3       	ldi	r25, 0x38	; 56
    1a7a:	80 93 03 38 	sts	0x3803, r24	; 0x803803 <auRepAddr>
    1a7e:	90 93 04 38 	sts	0x3804, r25	; 0x803804 <auRepAddr+0x1>
                        start = 1;
    1a82:	81 e0       	ldi	r24, 0x01	; 1
    1a84:	80 93 5c 38 	sts	0x385C, r24	; 0x80385c <start.4021>
                    }
                     
                    TCB1_CCMP -= (0x080<<((uint8_t)(effect>64)?2:0));                    
    1a88:	80 91 40 38 	lds	r24, 0x3840	; 0x803840 <effect>
    1a8c:	90 91 41 38 	lds	r25, 0x3841	; 0x803841 <effect+0x1>
    1a90:	81 34       	cpi	r24, 0x41	; 65
    1a92:	91 05       	cpc	r25, r1
    1a94:	18 f4       	brcc	.+6      	; 0x1a9c <GenerateAudio+0x16a>
    1a96:	20 e8       	ldi	r18, 0x80	; 128
    1a98:	30 e0       	ldi	r19, 0x00	; 0
    1a9a:	02 c0       	rjmp	.+4      	; 0x1aa0 <GenerateAudio+0x16e>
    1a9c:	20 e0       	ldi	r18, 0x00	; 0
    1a9e:	32 e0       	ldi	r19, 0x02	; 2
    1aa0:	80 91 5c 0a 	lds	r24, 0x0A5C	; 0x800a5c <__TEXT_REGION_LENGTH__+0x700a5c>
    1aa4:	90 91 5d 0a 	lds	r25, 0x0A5D	; 0x800a5d <__TEXT_REGION_LENGTH__+0x700a5d>
    1aa8:	82 1b       	sub	r24, r18
    1aaa:	93 0b       	sbc	r25, r19
    1aac:	80 93 5c 0a 	sts	0x0A5C, r24	; 0x800a5c <__TEXT_REGION_LENGTH__+0x700a5c>
    1ab0:	90 93 5d 0a 	sts	0x0A5D, r25	; 0x800a5d <__TEXT_REGION_LENGTH__+0x700a5d>
                    if (auVolume > 32) auVolume -=32; else 
    1ab4:	80 91 bc 3a 	lds	r24, 0x3ABC	; 0x803abc <auVolume>
    1ab8:	81 32       	cpi	r24, 0x21	; 33
    1aba:	30 f0       	brcs	.+12     	; 0x1ac8 <GenerateAudio+0x196>
    1abc:	80 91 bc 3a 	lds	r24, 0x3ABC	; 0x803abc <auVolume>
    1ac0:	80 52       	subi	r24, 0x20	; 32
    1ac2:	80 93 bc 3a 	sts	0x3ABC, r24	; 0x803abc <auVolume>
    1ac6:	0c c0       	rjmp	.+24     	; 0x1ae0 <GenerateAudio+0x1ae>
                    {
                        start = 0;
    1ac8:	10 92 5c 38 	sts	0x385C, r1	; 0x80385c <start.4021>
                        auRepAddr = &zero;
    1acc:	8f e3       	ldi	r24, 0x3F	; 63
    1ace:	98 e3       	ldi	r25, 0x38	; 56
    1ad0:	80 93 03 38 	sts	0x3803, r24	; 0x803803 <auRepAddr>
    1ad4:	90 93 04 38 	sts	0x3804, r25	; 0x803804 <auRepAddr+0x1>
                        effect = 0;
    1ad8:	10 92 40 38 	sts	0x3840, r1	; 0x803840 <effect>
    1adc:	10 92 41 38 	sts	0x3841, r1	; 0x803841 <effect+0x1>
                    }
                }
            }

            //Rain storm with whistling wind
            if ((effect&0xE0)==96){
    1ae0:	80 91 40 38 	lds	r24, 0x3840	; 0x803840 <effect>
    1ae4:	90 91 41 38 	lds	r25, 0x3841	; 0x803841 <effect+0x1>
    1ae8:	80 7e       	andi	r24, 0xE0	; 224
    1aea:	99 27       	eor	r25, r25
    1aec:	80 36       	cpi	r24, 0x60	; 96
    1aee:	91 05       	cpc	r25, r1
    1af0:	a9 f5       	brne	.+106    	; 0x1b5c <GenerateAudio+0x22a>
                static uint8_t auBuffer[7];
                auBuffer[6]= 0;        
    1af2:	10 92 5b 38 	sts	0x385B, r1	; 0x80385b <auBuffer.4023+0x6>
                auRepAddr = &auBuffer[0];
    1af6:	85 e5       	ldi	r24, 0x55	; 85
    1af8:	98 e3       	ldi	r25, 0x38	; 56
    1afa:	80 93 03 38 	sts	0x3803, r24	; 0x803803 <auRepAddr>
    1afe:	90 93 04 38 	sts	0x3804, r25	; 0x803804 <auRepAddr+0x1>
    1b02:	8c 01       	movw	r16, r24

                //Noise is to be generated fast, outside of buttonMark loop
                for (uint8_t x=1; x<6; ++x){
    1b04:	c1 e0       	ldi	r28, 0x01	; 1
                    if ((x>0) && (x!=3)) auBuffer[x] = floatAround(0x80, 5, 0x01, 0x00);
    1b06:	c3 30       	cpi	r28, 0x03	; 3
    1b08:	39 f0       	breq	.+14     	; 0x1b18 <GenerateAudio+0x1e6>
    1b0a:	20 e0       	ldi	r18, 0x00	; 0
    1b0c:	41 e0       	ldi	r20, 0x01	; 1
    1b0e:	65 e0       	ldi	r22, 0x05	; 5
    1b10:	80 e8       	ldi	r24, 0x80	; 128
    1b12:	a9 db       	rcall	.-2222   	; 0x1266 <floatAround>
    1b14:	f8 01       	movw	r30, r16
    1b16:	81 83       	std	Z+1, r24	; 0x01
                static uint8_t auBuffer[7];
                auBuffer[6]= 0;        
                auRepAddr = &auBuffer[0];

                //Noise is to be generated fast, outside of buttonMark loop
                for (uint8_t x=1; x<6; ++x){
    1b18:	cf 5f       	subi	r28, 0xFF	; 255
    1b1a:	0f 5f       	subi	r16, 0xFF	; 255
    1b1c:	1f 4f       	sbci	r17, 0xFF	; 255
    1b1e:	c6 30       	cpi	r28, 0x06	; 6
    1b20:	91 f7       	brne	.-28     	; 0x1b06 <GenerateAudio+0x1d4>
                    if ((x>0) && (x!=3)) auBuffer[x] = floatAround(0x80, 5, 0x01, 0x00);
                }

                if (buttonMark){
    1b22:	80 91 48 38 	lds	r24, 0x3848	; 0x803848 <buttonMark>
    1b26:	88 23       	and	r24, r24
    1b28:	c9 f0       	breq	.+50     	; 0x1b5c <GenerateAudio+0x22a>
                    //"Floating" speed for howl (and noise, but that's hardly audible)
                    floatSpeed(5, 0x0280, 0x0400);
    1b2a:	40 e0       	ldi	r20, 0x00	; 0
    1b2c:	54 e0       	ldi	r21, 0x04	; 4
    1b2e:	60 e8       	ldi	r22, 0x80	; 128
    1b30:	72 e0       	ldi	r23, 0x02	; 2
    1b32:	85 e0       	ldi	r24, 0x05	; 5
    1b34:	6a db       	rcall	.-2348   	; 0x120a <floatSpeed>
            
                    //"Floating" volume and wind howl during 8 bit rainstorm needs some randomness
                    auVolume = floatAround(auVolume, 2, 0x10, 0xA0);
    1b36:	80 91 bc 3a 	lds	r24, 0x3ABC	; 0x803abc <auVolume>
    1b3a:	20 ea       	ldi	r18, 0xA0	; 160
    1b3c:	40 e1       	ldi	r20, 0x10	; 16
    1b3e:	62 e0       	ldi	r22, 0x02	; 2
    1b40:	92 db       	rcall	.-2268   	; 0x1266 <floatAround>
    1b42:	80 93 bc 3a 	sts	0x3ABC, r24	; 0x803abc <auVolume>
                    auBuffer[0] = floatAround(auBuffer[0], 2, 0x70, 0x90);
    1b46:	20 e9       	ldi	r18, 0x90	; 144
    1b48:	40 e7       	ldi	r20, 0x70	; 112
    1b4a:	62 e0       	ldi	r22, 0x02	; 2
    1b4c:	80 91 55 38 	lds	r24, 0x3855	; 0x803855 <auBuffer.4023>
    1b50:	8a db       	rcall	.-2284   	; 0x1266 <floatAround>
    1b52:	80 93 55 38 	sts	0x3855, r24	; 0x803855 <auBuffer.4023>
                    auBuffer[3] = 0xFF-auBuffer[0];  //Inverse value of wind[0] produces a whistle
    1b56:	80 95       	com	r24
    1b58:	80 93 58 38 	sts	0x3858, r24	; 0x803858 <auBuffer.4023+0x3>
                }
            }

            //Footsteps
            if ((effect&0xE0)==128){
    1b5c:	80 91 40 38 	lds	r24, 0x3840	; 0x803840 <effect>
    1b60:	90 91 41 38 	lds	r25, 0x3841	; 0x803841 <effect+0x1>

            }

            //Bleeps
            if ((effect&0xE0)==160){
    1b64:	80 91 40 38 	lds	r24, 0x3840	; 0x803840 <effect>
    1b68:	90 91 41 38 	lds	r25, 0x3841	; 0x803841 <effect+0x1>
    1b6c:	80 7e       	andi	r24, 0xE0	; 224
    1b6e:	99 27       	eor	r25, r25
    1b70:	80 3a       	cpi	r24, 0xA0	; 160
    1b72:	91 05       	cpc	r25, r1
    1b74:	c9 f4       	brne	.+50     	; 0x1ba8 <GenerateAudio+0x276>
                static uint8_t auBuffer[3] = {255, 1, 0};
                auRepAddr = &auBuffer[0];
    1b76:	81 e1       	ldi	r24, 0x11	; 17
    1b78:	98 e3       	ldi	r25, 0x38	; 56
    1b7a:	80 93 03 38 	sts	0x3803, r24	; 0x803803 <auRepAddr>
    1b7e:	90 93 04 38 	sts	0x3804, r25	; 0x803804 <auRepAddr+0x1>
                if (buttonMark){
    1b82:	80 91 48 38 	lds	r24, 0x3848	; 0x803848 <buttonMark>
    1b86:	88 23       	and	r24, r24
                    floatSpeed(6, 0x0500, 0x0fff);
    1b88:	79 f0       	breq	.+30     	; 0x1ba8 <GenerateAudio+0x276>
    1b8a:	4f ef       	ldi	r20, 0xFF	; 255
    1b8c:	5f e0       	ldi	r21, 0x0F	; 15
    1b8e:	60 e0       	ldi	r22, 0x00	; 0
    1b90:	75 e0       	ldi	r23, 0x05	; 5
    1b92:	86 e0       	ldi	r24, 0x06	; 6
    1b94:	3a db       	rcall	.-2444   	; 0x120a <floatSpeed>
                    if (auVolume) --auVolume;
    1b96:	80 91 bc 3a 	lds	r24, 0x3ABC	; 0x803abc <auVolume>
    1b9a:	88 23       	and	r24, r24
    1b9c:	29 f0       	breq	.+10     	; 0x1ba8 <GenerateAudio+0x276>
    1b9e:	80 91 bc 3a 	lds	r24, 0x3ABC	; 0x803abc <auVolume>
    1ba2:	81 50       	subi	r24, 0x01	; 1
    1ba4:	80 93 bc 3a 	sts	0x3ABC, r24	; 0x803abc <auVolume>
                }
            }

            //
            if ((effect&0xE0)==192){
    1ba8:	80 91 40 38 	lds	r24, 0x3840	; 0x803840 <effect>
    1bac:	90 91 41 38 	lds	r25, 0x3841	; 0x803841 <effect+0x1>
    1bb0:	58 c0       	rjmp	.+176    	; 0x1c62 <GenerateAudio+0x330>
            }

            //
            else {
            }
        } else if ((effect&0xff00)==0x0100) {
    1bb2:	80 91 40 38 	lds	r24, 0x3840	; 0x803840 <effect>
    1bb6:	90 91 41 38 	lds	r25, 0x3841	; 0x803841 <effect+0x1>
    1bba:	88 27       	eor	r24, r24
    1bbc:	81 15       	cp	r24, r1
    1bbe:	91 40       	sbci	r25, 0x01	; 1
    1bc0:	09 f0       	breq	.+2      	; 0x1bc4 <GenerateAudio+0x292>
    1bc2:	4f c0       	rjmp	.+158    	; 0x1c62 <GenerateAudio+0x330>
            if ((effect&0xE0) <= 0x90) {
    1bc4:	80 91 40 38 	lds	r24, 0x3840	; 0x803840 <effect>
    1bc8:	90 91 41 38 	lds	r25, 0x3841	; 0x803841 <effect+0x1>
    1bcc:	80 7e       	andi	r24, 0xE0	; 224
    1bce:	99 27       	eor	r25, r25
    1bd0:	81 39       	cpi	r24, 0x91	; 145
    1bd2:	91 05       	cpc	r25, r1
    1bd4:	08 f0       	brcs	.+2      	; 0x1bd8 <GenerateAudio+0x2a6>
    1bd6:	45 c0       	rjmp	.+138    	; 0x1c62 <GenerateAudio+0x330>
                
                static uint8_t auBuffer[3] = {255, 1, 0};
                static uint8_t duration, start;
                uint16_t freq = ((effect&0xE0)+1)<<6;
    1bd8:	60 91 40 38 	lds	r22, 0x3840	; 0x803840 <effect>
    1bdc:	70 91 41 38 	lds	r23, 0x3841	; 0x803841 <effect+0x1>
    1be0:	60 7e       	andi	r22, 0xE0	; 224
    1be2:	77 27       	eor	r23, r23
    1be4:	6f 5f       	subi	r22, 0xFF	; 255
    1be6:	7f 4f       	sbci	r23, 0xFF	; 255
    1be8:	86 e0       	ldi	r24, 0x06	; 6
    1bea:	66 0f       	add	r22, r22
    1bec:	77 1f       	adc	r23, r23
    1bee:	8a 95       	dec	r24
                floatSpeed(1, freq+0x0200, freq+0x0300);
    1bf0:	e1 f7       	brne	.-8      	; 0x1bea <GenerateAudio+0x2b8>
    1bf2:	ab 01       	movw	r20, r22
    1bf4:	5d 5f       	subi	r21, 0xFD	; 253
    1bf6:	7e 5f       	subi	r23, 0xFE	; 254
    1bf8:	81 e0       	ldi	r24, 0x01	; 1
    1bfa:	07 db       	rcall	.-2546   	; 0x120a <floatSpeed>
                //auBuffer[] = floatAround(0x80, 5, 0x01, 0x00);

                if (buttonMark) {
    1bfc:	80 91 48 38 	lds	r24, 0x3848	; 0x803848 <buttonMark>
    1c00:	88 23       	and	r24, r24
    1c02:	79 f1       	breq	.+94     	; 0x1c62 <GenerateAudio+0x330>
                    if (start == 0) {
    1c04:	80 91 54 38 	lds	r24, 0x3854	; 0x803854 <start.4031>
    1c08:	81 11       	cpse	r24, r1
    1c0a:	0e c0       	rjmp	.+28     	; 0x1c28 <GenerateAudio+0x2f6>
                        duration = 3;
    1c0c:	83 e0       	ldi	r24, 0x03	; 3
    1c0e:	80 93 53 38 	sts	0x3853, r24	; 0x803853 <duration.4030>
                        auRepAddr = &auBuffer[0];
    1c12:	8e e0       	ldi	r24, 0x0E	; 14
    1c14:	98 e3       	ldi	r25, 0x38	; 56
    1c16:	80 93 03 38 	sts	0x3803, r24	; 0x803803 <auRepAddr>
    1c1a:	90 93 04 38 	sts	0x3804, r25	; 0x803804 <auRepAddr+0x1>
                        auVolume = 255;
    1c1e:	8f ef       	ldi	r24, 0xFF	; 255
    1c20:	80 93 bc 3a 	sts	0x3ABC, r24	; 0x803abc <auVolume>
                        start = 1;
    1c24:	c0 93 54 38 	sts	0x3854, r28	; 0x803854 <start.4031>
                    }   if (duration == 0) {
    1c28:	80 91 53 38 	lds	r24, 0x3853	; 0x803853 <duration.4030>
    1c2c:	81 11       	cpse	r24, r1
    1c2e:	13 c0       	rjmp	.+38     	; 0x1c56 <GenerateAudio+0x324>
                        effect &= 0x1f;
    1c30:	80 91 40 38 	lds	r24, 0x3840	; 0x803840 <effect>
    1c34:	90 91 41 38 	lds	r25, 0x3841	; 0x803841 <effect+0x1>
    1c38:	8f 71       	andi	r24, 0x1F	; 31
    1c3a:	99 27       	eor	r25, r25
    1c3c:	80 93 40 38 	sts	0x3840, r24	; 0x803840 <effect>
    1c40:	90 93 41 38 	sts	0x3841, r25	; 0x803841 <effect+0x1>
                        auRepAddr = &zero;
    1c44:	8f e3       	ldi	r24, 0x3F	; 63
    1c46:	98 e3       	ldi	r25, 0x38	; 56
    1c48:	80 93 03 38 	sts	0x3803, r24	; 0x803803 <auRepAddr>
    1c4c:	90 93 04 38 	sts	0x3804, r25	; 0x803804 <auRepAddr+0x1>
                        //auSmpAddr = &zero;
                        //auVolume = 0xff;
                        start = 0;
    1c50:	10 92 54 38 	sts	0x3854, r1	; 0x803854 <start.4031>
    1c54:	06 c0       	rjmp	.+12     	; 0x1c62 <GenerateAudio+0x330>
                    } else duration--;
    1c56:	81 50       	subi	r24, 0x01	; 1
    1c58:	80 93 53 38 	sts	0x3853, r24	; 0x803853 <duration.4030>
    1c5c:	02 c0       	rjmp	.+4      	; 0x1c62 <GenerateAudio+0x330>
                }
            }
        }
    } else {
        detHdPh = 0;
    1c5e:	10 92 c5 3a 	sts	0x3AC5, r1	; 0x803ac5 <detHdPh>
    }
    return buttonMark;
    1c62:	80 91 48 38 	lds	r24, 0x3848	; 0x803848 <buttonMark>
}
    1c66:	cf 91       	pop	r28
    1c68:	1f 91       	pop	r17
    1c6a:	0f 91       	pop	r16
    1c6c:	08 95       	ret

00001c6e <getClock>:

uint16_t getClock() {
    uint16_t tmp = RTC_CNT;
    1c6e:	80 91 48 01 	lds	r24, 0x0148	; 0x800148 <__TEXT_REGION_LENGTH__+0x700148>
    1c72:	90 91 49 01 	lds	r25, 0x0149	; 0x800149 <__TEXT_REGION_LENGTH__+0x700149>
    return 60 * minuteMark + (tmp>>9);
    1c76:	20 91 49 38 	lds	r18, 0x3849	; 0x803849 <minuteMark>
    1c7a:	89 2f       	mov	r24, r25
    1c7c:	99 27       	eor	r25, r25
    1c7e:	86 95       	lsr	r24
}
    1c80:	3c e3       	ldi	r19, 0x3C	; 60
    1c82:	23 9f       	mul	r18, r19
    1c84:	80 0d       	add	r24, r0
    1c86:	91 1d       	adc	r25, r1
    1c88:	11 24       	eor	r1, r1
    1c8a:	08 95       	ret

00001c8c <idleTimeout>:

uint8_t idleTimeout(uint16_t lastActive, uint16_t maxIdle) {
    1c8c:	0f 93       	push	r16
    1c8e:	1f 93       	push	r17
    1c90:	cf 93       	push	r28
    1c92:	df 93       	push	r29
    1c94:	8c 01       	movw	r16, r24
    1c96:	eb 01       	movw	r28, r22
    uint16_t curClock;

    curClock = getClock();
    1c98:	ea df       	rcall	.-44     	; 0x1c6e <getClock>
    1c9a:	9c 01       	movw	r18, r24
    if (curClock < lastActive)
    1c9c:	80 17       	cp	r24, r16
    1c9e:	91 07       	cpc	r25, r17
    1ca0:	08 f4       	brcc	.+2      	; 0x1ca4 <idleTimeout+0x18>
        curClock += 256 * 60;
    1ca2:	34 5c       	subi	r19, 0xC4	; 196

    return (curClock > (lastActive + maxIdle));
    1ca4:	c0 0f       	add	r28, r16
    1ca6:	d1 1f       	adc	r29, r17
    1ca8:	81 e0       	ldi	r24, 0x01	; 1
    1caa:	c2 17       	cp	r28, r18
    1cac:	d3 07       	cpc	r29, r19
    1cae:	08 f0       	brcs	.+2      	; 0x1cb2 <idleTimeout+0x26>
    1cb0:	80 e0       	ldi	r24, 0x00	; 0
}
    1cb2:	df 91       	pop	r29
    1cb4:	cf 91       	pop	r28
    1cb6:	1f 91       	pop	r17
    1cb8:	0f 91       	pop	r16
    1cba:	08 95       	ret

00001cbc <SelfTest>:

uint8_t SelfTest(){
    1cbc:	a4 e0       	ldi	r26, 0x04	; 4
    1cbe:	b0 e0       	ldi	r27, 0x00	; 0
    1cc0:	e4 e6       	ldi	r30, 0x64	; 100
    1cc2:	fe e0       	ldi	r31, 0x0E	; 14
    1cc4:	0c 94 27 1f 	jmp	0x3e4e	; 0x3e4e <__prologue_saves__+0x1e>
    uint8_t tstVal[4] = {0x01, 0};
    1cc8:	19 82       	std	Y+1, r1	; 0x01
    1cca:	1a 82       	std	Y+2, r1	; 0x02
    1ccc:	1b 82       	std	Y+3, r1	; 0x03
    1cce:	1c 82       	std	Y+4, r1	; 0x04
    1cd0:	a0 ed       	ldi	r26, 0xD0	; 208
    1cd2:	be eb       	ldi	r27, 0xBE	; 190
    1cd4:	86 ed       	ldi	r24, 0xD6	; 214
    1cd6:	9e eb       	ldi	r25, 0xBE	; 190

    //Red HCKR all on 100%
    for (uint8_t x=0; x<6; ++x) {
        iLED[HCKR[R][x]] = 0xff;
    1cd8:	2f ef       	ldi	r18, 0xFF	; 255
    1cda:	ed 91       	ld	r30, X+
    1cdc:	f0 e0       	ldi	r31, 0x00	; 0
    1cde:	e7 53       	subi	r30, 0x37	; 55
    1ce0:	f5 4c       	sbci	r31, 0xC5	; 197
    1ce2:	20 83       	st	Z, r18

uint8_t SelfTest(){
    uint8_t tstVal[4] = {0x01, 0};

    //Red HCKR all on 100%
    for (uint8_t x=0; x<6; ++x) {
    1ce4:	8a 17       	cp	r24, r26
    1ce6:	9b 07       	cpc	r25, r27
    1ce8:	c1 f7       	brne	.-16     	; 0x1cda <SelfTest+0x1e>
        iLED[HCKR[R][x]] = 0xff;
    }

    //Light sensor
    tstVal[0] = adcPhot&0xff;
    1cea:	80 91 c3 3a 	lds	r24, 0x3AC3	; 0x803ac3 <adcPhot>
    1cee:	90 91 c4 3a 	lds	r25, 0x3AC4	; 0x803ac4 <adcPhot+0x1>
    1cf2:	89 83       	std	Y+1, r24	; 0x01
    while (tstVal[0] == (adcPhot&0xff)) ;
    1cf4:	99 27       	eor	r25, r25
    1cf6:	20 91 c3 3a 	lds	r18, 0x3AC3	; 0x803ac3 <adcPhot>
    1cfa:	30 91 c4 3a 	lds	r19, 0x3AC4	; 0x803ac4 <adcPhot+0x1>
    1cfe:	33 27       	eor	r19, r19
    1d00:	28 17       	cp	r18, r24
    1d02:	39 07       	cpc	r19, r25
    1d04:	c1 f3       	breq	.-16     	; 0x1cf6 <SelfTest+0x3a>
    iLED[HCKR[R][1]] = 0x00;
    1d06:	e0 91 d1 be 	lds	r30, 0xBED1	; 0x80bed1 <__bss_end+0x83b9>
    1d0a:	f0 e0       	ldi	r31, 0x00	; 0
    1d0c:	e7 53       	subi	r30, 0x37	; 55
    1d0e:	f5 4c       	sbci	r31, 0xC5	; 197
    1d10:	10 82       	st	Z, r1

    //Buttons (none pressed / shorted)
    while ((adcBtns>>4) < 200) ;
    1d12:	80 91 bd 3a 	lds	r24, 0x3ABD	; 0x803abd <adcBtns>
    1d16:	90 91 be 3a 	lds	r25, 0x3ABE	; 0x803abe <adcBtns+0x1>
    1d1a:	80 38       	cpi	r24, 0x80	; 128
    1d1c:	9c 40       	sbci	r25, 0x0C	; 12
    1d1e:	c8 f3       	brcs	.-14     	; 0x1d12 <SelfTest+0x56>
    iLED[HCKR[R][4]] = 0x00;
    1d20:	e0 91 d4 be 	lds	r30, 0xBED4	; 0x80bed4 <__bss_end+0x83bc>
    1d24:	f0 e0       	ldi	r31, 0x00	; 0
    1d26:	e7 53       	subi	r30, 0x37	; 55
    1d28:	f5 4c       	sbci	r31, 0xC5	; 197
    1d2a:	10 82       	st	Z, r1
    
    ExtEERead(0x3CCC, 4, 0, (uint8_t *)&tstVal[0]);
    1d2c:	9e 01       	movw	r18, r28
    1d2e:	2f 5f       	subi	r18, 0xFF	; 255
    1d30:	3f 4f       	sbci	r19, 0xFF	; 255
    1d32:	40 e0       	ldi	r20, 0x00	; 0
    1d34:	64 e0       	ldi	r22, 0x04	; 4
    1d36:	8c ec       	ldi	r24, 0xCC	; 204
    1d38:	9c e3       	ldi	r25, 0x3C	; 60
    1d3a:	b8 d9       	rcall	.-3216   	; 0x10ac <ExtEERead>
    if ((tstVal[0] != 63) || (tstVal[1] != 0) || (tstVal[2] != 192) || (tstVal[3] != 20)){
    1d3c:	89 81       	ldd	r24, Y+1	; 0x01
    1d3e:	8f 33       	cpi	r24, 0x3F	; 63
    1d40:	49 f4       	brne	.+18     	; 0x1d54 <SelfTest+0x98>
    1d42:	8a 81       	ldd	r24, Y+2	; 0x02
    1d44:	81 11       	cpse	r24, r1
    1d46:	06 c0       	rjmp	.+12     	; 0x1d54 <SelfTest+0x98>
    1d48:	8b 81       	ldd	r24, Y+3	; 0x03
    1d4a:	80 3c       	cpi	r24, 0xC0	; 192
    1d4c:	19 f4       	brne	.+6      	; 0x1d54 <SelfTest+0x98>
    1d4e:	8c 81       	ldd	r24, Y+4	; 0x04
    1d50:	84 31       	cpi	r24, 0x14	; 20
    1d52:	09 f0       	breq	.+2      	; 0x1d56 <SelfTest+0x9a>
    1d54:	ff cf       	rjmp	.-2      	; 0x1d54 <SelfTest+0x98>
    1d56:	80 e0       	ldi	r24, 0x00	; 0
    1d58:	90 e0       	ldi	r25, 0x00	; 0
        while(1);
    }
    
    //All LEDs off
    for (uint8_t x=0; x<40; ++x) {
        iLED[x]=0;
    1d5a:	fc 01       	movw	r30, r24
    1d5c:	e7 53       	subi	r30, 0x37	; 55
    1d5e:	f5 4c       	sbci	r31, 0xC5	; 197
    1d60:	10 82       	st	Z, r1
    1d62:	01 96       	adiw	r24, 0x01	; 1
    if ((tstVal[0] != 63) || (tstVal[1] != 0) || (tstVal[2] != 192) || (tstVal[3] != 20)){
        while(1);
    }
    
    //All LEDs off
    for (uint8_t x=0; x<40; ++x) {
    1d64:	88 32       	cpi	r24, 0x28	; 40
    1d66:	91 05       	cpc	r25, r1
    1d68:	c1 f7       	brne	.-16     	; 0x1d5a <SelfTest+0x9e>
    1d6a:	10 e0       	ldi	r17, 0x00	; 0
        iLED[x]=0;
    }

    for(uint8_t x=0; x<(adcPhot&0x3f); ++x) lfsr();
    1d6c:	80 91 c3 3a 	lds	r24, 0x3AC3	; 0x803ac3 <adcPhot>
    1d70:	90 91 c4 3a 	lds	r25, 0x3AC4	; 0x803ac4 <adcPhot+0x1>
    1d74:	21 2f       	mov	r18, r17
    1d76:	30 e0       	ldi	r19, 0x00	; 0
    1d78:	8f 73       	andi	r24, 0x3F	; 63
    1d7a:	99 27       	eor	r25, r25
    1d7c:	28 17       	cp	r18, r24
    1d7e:	39 07       	cpc	r19, r25
    1d80:	18 f4       	brcc	.+6      	; 0x1d88 <SelfTest+0xcc>
    1d82:	24 da       	rcall	.-3000   	; 0x11cc <lfsr>
    1d84:	1f 5f       	subi	r17, 0xFF	; 255
    1d86:	f2 cf       	rjmp	.-28     	; 0x1d6c <SelfTest+0xb0>

    return 0;
}
    1d88:	80 e0       	ldi	r24, 0x00	; 0
    1d8a:	24 96       	adiw	r28, 0x04	; 4
    1d8c:	e3 e0       	ldi	r30, 0x03	; 3
    1d8e:	0c 94 40 1f 	jmp	0x3e80	; 0x3e80 <__epilogue_restores__+0x1e>

00001d92 <simonLed>:

/**
 * Set the wing LED blocks to selected option
 * @param val
 */
void simonLed(uint8_t val) {
    1d92:	cf 93       	push	r28
    1d94:	df 93       	push	r29
    1d96:	e2 ec       	ldi	r30, 0xC2	; 194
    1d98:	fe eb       	ldi	r31, 0xBE	; 190
    1d9a:	ef 01       	movw	r28, r30
    for (uint8_t n = 0; n < 5; n++) {
        iLED[WING[L][n]] = 0;
    1d9c:	a5 81       	ldd	r26, Z+5	; 0x05
    1d9e:	b0 e0       	ldi	r27, 0x00	; 0
    1da0:	a7 53       	subi	r26, 0x37	; 55
    1da2:	b5 4c       	sbci	r27, 0xC5	; 197
    1da4:	1c 92       	st	X, r1
    1da6:	31 96       	adiw	r30, 0x01	; 1
        iLED[WING[R][n]] = 0;
    1da8:	a8 81       	ld	r26, Y
    1daa:	b0 e0       	ldi	r27, 0x00	; 0
    1dac:	a7 53       	subi	r26, 0x37	; 55
    1dae:	b5 4c       	sbci	r27, 0xC5	; 197
    1db0:	1c 92       	st	X, r1
/**
 * Set the wing LED blocks to selected option
 * @param val
 */
void simonLed(uint8_t val) {
    for (uint8_t n = 0; n < 5; n++) {
    1db2:	9e eb       	ldi	r25, 0xBE	; 190
    1db4:	e7 3c       	cpi	r30, 0xC7	; 199
    1db6:	f9 07       	cpc	r31, r25
    1db8:	81 f7       	brne	.-32     	; 0x1d9a <simonLed+0x8>
        iLED[WING[L][n]] = 0;
        iLED[WING[R][n]] = 0;
    }
    if (val == 3) {         // II
    1dba:	83 30       	cpi	r24, 0x03	; 3
    1dbc:	d9 f4       	brne	.+54     	; 0x1df4 <simonLed+0x62>
        iLED[WING[L][0]] = dimValue;
    1dbe:	e0 91 c7 be 	lds	r30, 0xBEC7	; 0x80bec7 <__bss_end+0x83af>
    1dc2:	f0 e0       	ldi	r31, 0x00	; 0
    1dc4:	80 91 0c 38 	lds	r24, 0x380C	; 0x80380c <dimValue>
    1dc8:	e7 53       	subi	r30, 0x37	; 55
    1dca:	f5 4c       	sbci	r31, 0xC5	; 197
    1dcc:	80 83       	st	Z, r24
        iLED[WING[L][1]] = dimValue;
    1dce:	e0 91 c8 be 	lds	r30, 0xBEC8	; 0x80bec8 <__bss_end+0x83b0>
    1dd2:	f0 e0       	ldi	r31, 0x00	; 0
    1dd4:	80 91 0c 38 	lds	r24, 0x380C	; 0x80380c <dimValue>
    1dd8:	e7 53       	subi	r30, 0x37	; 55
    1dda:	f5 4c       	sbci	r31, 0xC5	; 197
    1ddc:	80 83       	st	Z, r24
        iLED[WING[L][2]] = dimValue;
    1dde:	e0 91 c9 be 	lds	r30, 0xBEC9	; 0x80bec9 <__bss_end+0x83b1>
    1de2:	f0 e0       	ldi	r31, 0x00	; 0
    1de4:	80 91 0c 38 	lds	r24, 0x380C	; 0x80380c <dimValue>
    1de8:	e7 53       	subi	r30, 0x37	; 55
    1dea:	f5 4c       	sbci	r31, 0xC5	; 197
    1dec:	80 83       	st	Z, r24
        effect = 0x013f;
    1dee:	8f e3       	ldi	r24, 0x3F	; 63
    1df0:	91 e0       	ldi	r25, 0x01	; 1
    1df2:	46 c0       	rjmp	.+140    	; 0x1e80 <simonLed+0xee>
    } else if (val == 1) {  //
    1df4:	81 30       	cpi	r24, 0x01	; 1
    1df6:	99 f4       	brne	.+38     	; 0x1e1e <simonLed+0x8c>
        iLED[WING[L][3]] = dimValue;
    1df8:	e0 91 ca be 	lds	r30, 0xBECA	; 0x80beca <__bss_end+0x83b2>
    1dfc:	f0 e0       	ldi	r31, 0x00	; 0
    1dfe:	80 91 0c 38 	lds	r24, 0x380C	; 0x80380c <dimValue>
    1e02:	e7 53       	subi	r30, 0x37	; 55
    1e04:	f5 4c       	sbci	r31, 0xC5	; 197
    1e06:	80 83       	st	Z, r24
        iLED[WING[L][4]] = dimValue;
    1e08:	e0 91 cb be 	lds	r30, 0xBECB	; 0x80becb <__bss_end+0x83b3>
    1e0c:	f0 e0       	ldi	r31, 0x00	; 0
    1e0e:	80 91 0c 38 	lds	r24, 0x380C	; 0x80380c <dimValue>
    1e12:	e7 53       	subi	r30, 0x37	; 55
    1e14:	f5 4c       	sbci	r31, 0xC5	; 197
    1e16:	80 83       	st	Z, r24
        effect = 0x015f;
    1e18:	8f e5       	ldi	r24, 0x5F	; 95
    1e1a:	91 e0       	ldi	r25, 0x01	; 1
    1e1c:	31 c0       	rjmp	.+98     	; 0x1e80 <simonLed+0xee>
    } else if (val == 4) {  // III
    1e1e:	84 30       	cpi	r24, 0x04	; 4
    1e20:	d9 f4       	brne	.+54     	; 0x1e58 <simonLed+0xc6>
        iLED[WING[R][0]] = dimValue;
    1e22:	e0 91 c2 be 	lds	r30, 0xBEC2	; 0x80bec2 <__bss_end+0x83aa>
    1e26:	f0 e0       	ldi	r31, 0x00	; 0
    1e28:	80 91 0c 38 	lds	r24, 0x380C	; 0x80380c <dimValue>
    1e2c:	e7 53       	subi	r30, 0x37	; 55
    1e2e:	f5 4c       	sbci	r31, 0xC5	; 197
    1e30:	80 83       	st	Z, r24
        iLED[WING[R][1]] = dimValue;
    1e32:	e0 91 c3 be 	lds	r30, 0xBEC3	; 0x80bec3 <__bss_end+0x83ab>
    1e36:	f0 e0       	ldi	r31, 0x00	; 0
    1e38:	80 91 0c 38 	lds	r24, 0x380C	; 0x80380c <dimValue>
    1e3c:	e7 53       	subi	r30, 0x37	; 55
    1e3e:	f5 4c       	sbci	r31, 0xC5	; 197
    1e40:	80 83       	st	Z, r24
        iLED[WING[R][2]] = dimValue;
    1e42:	e0 91 c4 be 	lds	r30, 0xBEC4	; 0x80bec4 <__bss_end+0x83ac>
    1e46:	f0 e0       	ldi	r31, 0x00	; 0
    1e48:	80 91 0c 38 	lds	r24, 0x380C	; 0x80380c <dimValue>
    1e4c:	e7 53       	subi	r30, 0x37	; 55
    1e4e:	f5 4c       	sbci	r31, 0xC5	; 197
    1e50:	80 83       	st	Z, r24
        effect = 0x017f;
    1e52:	8f e7       	ldi	r24, 0x7F	; 127
    1e54:	91 e0       	ldi	r25, 0x01	; 1
    1e56:	14 c0       	rjmp	.+40     	; 0x1e80 <simonLed+0xee>
    } else if (val == 2) {  // I
    1e58:	82 30       	cpi	r24, 0x02	; 2
    1e5a:	b1 f4       	brne	.+44     	; 0x1e88 <simonLed+0xf6>
        iLED[WING[R][3]] = dimValue;
    1e5c:	e0 91 c5 be 	lds	r30, 0xBEC5	; 0x80bec5 <__bss_end+0x83ad>
    1e60:	f0 e0       	ldi	r31, 0x00	; 0
    1e62:	80 91 0c 38 	lds	r24, 0x380C	; 0x80380c <dimValue>
    1e66:	e7 53       	subi	r30, 0x37	; 55
    1e68:	f5 4c       	sbci	r31, 0xC5	; 197
    1e6a:	80 83       	st	Z, r24
        iLED[WING[R][4]] = dimValue;
    1e6c:	e0 91 c6 be 	lds	r30, 0xBEC6	; 0x80bec6 <__bss_end+0x83ae>
    1e70:	f0 e0       	ldi	r31, 0x00	; 0
    1e72:	80 91 0c 38 	lds	r24, 0x380C	; 0x80380c <dimValue>
    1e76:	e7 53       	subi	r30, 0x37	; 55
    1e78:	f5 4c       	sbci	r31, 0xC5	; 197
    1e7a:	80 83       	st	Z, r24
        effect = 0x019f;
    1e7c:	8f e9       	ldi	r24, 0x9F	; 159
    1e7e:	91 e0       	ldi	r25, 0x01	; 1
    1e80:	80 93 40 38 	sts	0x3840, r24	; 0x803840 <effect>
    1e84:	90 93 41 38 	sts	0x3841, r25	; 0x803841 <effect+0x1>
    }
}
    1e88:	df 91       	pop	r29
    1e8a:	cf 91       	pop	r28
    1e8c:	08 95       	ret

00001e8e <BastetDictates>:

/**
 * Main game loop
 * @return 0
 */
uint8_t BastetDictates() {
    1e8e:	cf 93       	push	r28
    1e90:	df 93       	push	r29
    if ((TEXT != gameNow) && (BASTET != gameNow))
    1e92:	80 91 42 38 	lds	r24, 0x3842	; 0x803842 <gameNow>
    1e96:	8d 7f       	andi	r24, 0xFD	; 253
    1e98:	09 f0       	breq	.+2      	; 0x1e9c <BastetDictates+0xe>
    1e9a:	73 c1       	rjmp	.+742    	; 0x2182 <BastetDictates+0x2f4>
        return 0;

    if (CheckState(BASTET_COMPLETED)) {
    1e9c:	8a e7       	ldi	r24, 0x7A	; 122
    1e9e:	bd da       	rcall	.-2694   	; 0x141a <CheckState>
    1ea0:	88 23       	and	r24, r24
    1ea2:	41 f0       	breq	.+16     	; 0x1eb4 <BastetDictates+0x26>
        if (BASTET == gameNow) {
    1ea4:	80 91 42 38 	lds	r24, 0x3842	; 0x803842 <gameNow>
    1ea8:	82 30       	cpi	r24, 0x02	; 2
    1eaa:	09 f0       	breq	.+2      	; 0x1eae <BastetDictates+0x20>
    1eac:	6a c1       	rjmp	.+724    	; 0x2182 <BastetDictates+0x2f4>
            gameNow = TEXT;
    1eae:	10 92 42 38 	sts	0x3842, r1	; 0x803842 <gameNow>
    1eb2:	67 c1       	rjmp	.+718    	; 0x2182 <BastetDictates+0x2f4>
        }
        return 0;
    }

    if (CheckState(LANYARD_COMPLETED))
    1eb4:	8b e7       	ldi	r24, 0x7B	; 123
    1eb6:	b1 da       	rcall	.-2718   	; 0x141a <CheckState>
    1eb8:	90 91 08 38 	lds	r25, 0x3808	; 0x803808 <buttonState>
    1ebc:	88 23       	and	r24, r24
    1ebe:	29 f0       	breq	.+10     	; 0x1eca <BastetDictates+0x3c>
        if (buttonState!=0xff)
    1ec0:	9f 3f       	cpi	r25, 0xFF	; 255
    1ec2:	19 f0       	breq	.+6      	; 0x1eca <BastetDictates+0x3c>
            gameNow = BASTET;
    1ec4:	82 e0       	ldi	r24, 0x02	; 2
    1ec6:	80 93 42 38 	sts	0x3842, r24	; 0x803842 <gameNow>

    iLED[CAT] = (buttonState==0xff ? 0 : dimValue);
    1eca:	e0 91 be be 	lds	r30, 0xBEBE	; 0x80bebe <__bss_end+0x83a6>
    1ece:	f0 e0       	ldi	r31, 0x00	; 0
    1ed0:	9f 3f       	cpi	r25, 0xFF	; 255
    1ed2:	19 f0       	breq	.+6      	; 0x1eda <BastetDictates+0x4c>
    1ed4:	80 91 0c 38 	lds	r24, 0x380C	; 0x80380c <dimValue>
    1ed8:	01 c0       	rjmp	.+2      	; 0x1edc <BastetDictates+0x4e>
    1eda:	80 e0       	ldi	r24, 0x00	; 0
    1edc:	e7 53       	subi	r30, 0x37	; 55
    1ede:	f5 4c       	sbci	r31, 0xC5	; 197
    1ee0:	80 83       	st	Z, r24

    if (BASTET_BOOT == simonGameState) {
    1ee2:	80 91 62 38 	lds	r24, 0x3862	; 0x803862 <simonGameState>
    1ee6:	81 11       	cpse	r24, r1
    1ee8:	0c c0       	rjmp	.+24     	; 0x1f02 <BastetDictates+0x74>
    1eea:	c8 e6       	ldi	r28, 0x68	; 104
        for (uint8_t i = 0; i < BASTET_LENGTH; i++) {
            simonState[i] = (lfsr() % 4);
    1eec:	d8 e3       	ldi	r29, 0x38	; 56
    1eee:	6e d9       	rcall	.-3364   	; 0x11cc <lfsr>
    1ef0:	83 70       	andi	r24, 0x03	; 3
    1ef2:	89 93       	st	Y+, r24
            gameNow = BASTET;

    iLED[CAT] = (buttonState==0xff ? 0 : dimValue);

    if (BASTET_BOOT == simonGameState) {
        for (uint8_t i = 0; i < BASTET_LENGTH; i++) {
    1ef4:	88 e3       	ldi	r24, 0x38	; 56
    1ef6:	c4 37       	cpi	r28, 0x74	; 116
    1ef8:	d8 07       	cpc	r29, r24
    1efa:	c9 f7       	brne	.-14     	; 0x1eee <BastetDictates+0x60>
            simonState[i] = (lfsr() % 4);
        }
        simonGameState = BASTET_GAME_START;
    1efc:	81 e0       	ldi	r24, 0x01	; 1
    1efe:	80 93 62 38 	sts	0x3862, r24	; 0x803862 <simonGameState>
    }

    if (BASTET_GAME_START == simonGameState && BASTET == gameNow) {
    1f02:	80 91 62 38 	lds	r24, 0x3862	; 0x803862 <simonGameState>
    1f06:	81 30       	cpi	r24, 0x01	; 1
    1f08:	71 f4       	brne	.+28     	; 0x1f26 <BastetDictates+0x98>
    1f0a:	80 91 42 38 	lds	r24, 0x3842	; 0x803842 <gameNow>
    1f0e:	82 30       	cpi	r24, 0x02	; 2
    1f10:	51 f4       	brne	.+20     	; 0x1f26 <BastetDictates+0x98>
        simonGameState = BASTET_GAME_INTRO;
    1f12:	80 93 62 38 	sts	0x3862, r24	; 0x803862 <simonGameState>
        simonPos = 0;
    1f16:	10 92 67 38 	sts	0x3867, r1	; 0x803867 <simonPos>
        simonInputPos = 0;
    1f1a:	10 92 66 38 	sts	0x3866, r1	; 0x803866 <simonInputPos>
        simonTimer = 0;
    1f1e:	10 92 65 38 	sts	0x3865, r1	; 0x803865 <simonTimer>
        simonCounter = 0;
    1f22:	10 92 63 38 	sts	0x3863, r1	; 0x803863 <simonCounter>
    }

    if (BASTET_GAME_INTRO == simonGameState) {
    1f26:	80 91 62 38 	lds	r24, 0x3862	; 0x803862 <simonGameState>
    1f2a:	82 30       	cpi	r24, 0x02	; 2
    1f2c:	19 f5       	brne	.+70     	; 0x1f74 <BastetDictates+0xe6>
        if (simonTimer > 5) {   // .33 seconds
    1f2e:	80 91 65 38 	lds	r24, 0x3865	; 0x803865 <simonTimer>
    1f32:	86 30       	cpi	r24, 0x06	; 6
    1f34:	38 f0       	brcs	.+14     	; 0x1f44 <BastetDictates+0xb6>
            simonCounter++;
    1f36:	80 91 63 38 	lds	r24, 0x3863	; 0x803863 <simonCounter>
    1f3a:	8f 5f       	subi	r24, 0xFF	; 255
    1f3c:	80 93 63 38 	sts	0x3863, r24	; 0x803863 <simonCounter>
            simonTimer = 0;
    1f40:	10 92 65 38 	sts	0x3865, r1	; 0x803865 <simonTimer>
        }
        if (simonCounter > 5) {
    1f44:	e0 91 63 38 	lds	r30, 0x3863	; 0x803863 <simonCounter>
    1f48:	e6 30       	cpi	r30, 0x06	; 6
    1f4a:	48 f0       	brcs	.+18     	; 0x1f5e <BastetDictates+0xd0>
            simonGameState = BASTET_GAME_SHOW_PATTERN;
    1f4c:	83 e0       	ldi	r24, 0x03	; 3
    1f4e:	80 93 62 38 	sts	0x3862, r24	; 0x803862 <simonGameState>
            simonTimer = 0;
    1f52:	10 92 65 38 	sts	0x3865, r1	; 0x803865 <simonTimer>
            simonCounter = 0;
    1f56:	10 92 63 38 	sts	0x3863, r1	; 0x803863 <simonCounter>
            ClearHackerLeds();
    1f5a:	6d db       	rcall	.-2342   	; 0x1636 <ClearHackerLeds>
            return 0;
    1f5c:	12 c1       	rjmp	.+548    	; 0x2182 <BastetDictates+0x2f4>
        }
        iLED[HCKR[R][simonCounter]] = dimValue;
    1f5e:	f0 e0       	ldi	r31, 0x00	; 0
    1f60:	e0 53       	subi	r30, 0x30	; 48
    1f62:	f1 44       	sbci	r31, 0x41	; 65
    1f64:	e0 81       	ld	r30, Z
    1f66:	f0 e0       	ldi	r31, 0x00	; 0
    1f68:	80 91 0c 38 	lds	r24, 0x380C	; 0x80380c <dimValue>
    1f6c:	e7 53       	subi	r30, 0x37	; 55
    1f6e:	f5 4c       	sbci	r31, 0xC5	; 197
    1f70:	80 83       	st	Z, r24
    1f72:	2b c0       	rjmp	.+86     	; 0x1fca <BastetDictates+0x13c>
    }

    if (BASTET_GAME_SHOW_PATTERN == simonGameState) {
    1f74:	83 30       	cpi	r24, 0x03	; 3
    1f76:	49 f5       	brne	.+82     	; 0x1fca <BastetDictates+0x13c>
        if (simonTimer > 7) {   // .5 second
    1f78:	80 91 65 38 	lds	r24, 0x3865	; 0x803865 <simonTimer>
    1f7c:	88 30       	cpi	r24, 0x08	; 8
    1f7e:	38 f0       	brcs	.+14     	; 0x1f8e <BastetDictates+0x100>
            simonCounter++;
    1f80:	80 91 63 38 	lds	r24, 0x3863	; 0x803863 <simonCounter>
    1f84:	8f 5f       	subi	r24, 0xFF	; 255
    1f86:	80 93 63 38 	sts	0x3863, r24	; 0x803863 <simonCounter>
            simonTimer = 0;
    1f8a:	10 92 65 38 	sts	0x3865, r1	; 0x803865 <simonTimer>
        }
        if (simonCounter > simonPos) {
    1f8e:	e0 91 63 38 	lds	r30, 0x3863	; 0x803863 <simonCounter>
    1f92:	80 91 67 38 	lds	r24, 0x3867	; 0x803867 <simonPos>
    1f96:	8e 17       	cp	r24, r30
    1f98:	40 f4       	brcc	.+16     	; 0x1faa <BastetDictates+0x11c>
            simonInputPos = 0;
    1f9a:	10 92 66 38 	sts	0x3866, r1	; 0x803866 <simonInputPos>
            simonGameState = BASTET_GAME_INPUT;
    1f9e:	85 e0       	ldi	r24, 0x05	; 5
    1fa0:	80 93 62 38 	sts	0x3862, r24	; 0x803862 <simonGameState>
            simonLed(0);
    1fa4:	80 e0       	ldi	r24, 0x00	; 0
    1fa6:	f5 de       	rcall	.-534    	; 0x1d92 <simonLed>
    1fa8:	98 c0       	rjmp	.+304    	; 0x20da <BastetDictates+0x24c>
            simonTimer = 0;
            return 0;
        }
        if (simonTimer < 3) {
    1faa:	80 91 65 38 	lds	r24, 0x3865	; 0x803865 <simonTimer>
    1fae:	83 30       	cpi	r24, 0x03	; 3
    1fb0:	30 f4       	brcc	.+12     	; 0x1fbe <BastetDictates+0x130>
            simonLed(simonState[simonCounter] + 1);
    1fb2:	f0 e0       	ldi	r31, 0x00	; 0
    1fb4:	e8 59       	subi	r30, 0x98	; 152
    1fb6:	f7 4c       	sbci	r31, 0xC7	; 199
    1fb8:	80 81       	ld	r24, Z
    1fba:	8f 5f       	subi	r24, 0xFF	; 255
    1fbc:	ea de       	rcall	.-556    	; 0x1d92 <simonLed>
        }
        if (simonTimer > 6) {
    1fbe:	80 91 65 38 	lds	r24, 0x3865	; 0x803865 <simonTimer>
    1fc2:	87 30       	cpi	r24, 0x07	; 7
    1fc4:	10 f0       	brcs	.+4      	; 0x1fca <BastetDictates+0x13c>
            simonLed(0);
    1fc6:	80 e0       	ldi	r24, 0x00	; 0
    1fc8:	e4 de       	rcall	.-568    	; 0x1d92 <simonLed>
    1fca:	c0 91 62 38 	lds	r28, 0x3862	; 0x803862 <simonGameState>
        }
    }

    if (BASTET_GAME_INPUT == simonGameState) {
    1fce:	c5 30       	cpi	r28, 0x05	; 5
    1fd0:	09 f0       	breq	.+2      	; 0x1fd4 <BastetDictates+0x146>
    1fd2:	86 c0       	rjmp	.+268    	; 0x20e0 <BastetDictates+0x252>
    1fd4:	80 91 08 38 	lds	r24, 0x3808	; 0x803808 <buttonState>
        //Button pressed
        if (lastButtonState != buttonState && (buttonState+1) > 0) {
    1fd8:	90 91 07 38 	lds	r25, 0x3807	; 0x803807 <lastButtonState>
    1fdc:	98 17       	cp	r25, r24
    1fde:	09 f4       	brne	.+2      	; 0x1fe2 <BastetDictates+0x154>
    1fe0:	71 c0       	rjmp	.+226    	; 0x20c4 <BastetDictates+0x236>
    1fe2:	90 91 64 38 	lds	r25, 0x3864	; 0x803864 <simonWait>
            if (simonWait == 0 && buttonState < 4) {
    1fe6:	91 11       	cpse	r25, r1
    1fe8:	6f c0       	rjmp	.+222    	; 0x20c8 <BastetDictates+0x23a>
    1fea:	84 30       	cpi	r24, 0x04	; 4
    1fec:	08 f0       	brcs	.+2      	; 0x1ff0 <BastetDictates+0x162>
    1fee:	6c c0       	rjmp	.+216    	; 0x20c8 <BastetDictates+0x23a>
                simonWait = 1;
    1ff0:	91 e0       	ldi	r25, 0x01	; 1
    1ff2:	90 93 64 38 	sts	0x3864, r25	; 0x803864 <simonWait>
                simonTimer = 0;
    1ff6:	10 92 65 38 	sts	0x3865, r1	; 0x803865 <simonTimer>
                simonLed(buttonState+1);
    1ffa:	8f 5f       	subi	r24, 0xFF	; 255
    1ffc:	ca de       	rcall	.-620    	; 0x1d92 <simonLed>
    1ffe:	84 e0       	ldi	r24, 0x04	; 4
                simonGameState = BASTET_GAME_WAIT_LEDS;
    2000:	80 93 62 38 	sts	0x3862, r24	; 0x803862 <simonGameState>
    2004:	c0 93 33 38 	sts	0x3833, r28	; 0x803833 <simonNextGameState>
                simonNextGameState = BASTET_GAME_INPUT;
    2008:	80 91 66 38 	lds	r24, 0x3866	; 0x803866 <simonInputPos>

                if (simonState[simonInputPos] == buttonState) {
    200c:	e8 2f       	mov	r30, r24
    200e:	f0 e0       	ldi	r31, 0x00	; 0
    2010:	e8 59       	subi	r30, 0x98	; 152
    2012:	f7 4c       	sbci	r31, 0xC7	; 199
    2014:	20 81       	ld	r18, Z
    2016:	90 91 08 38 	lds	r25, 0x3808	; 0x803808 <buttonState>
    201a:	29 13       	cpse	r18, r25
    201c:	1d c0       	rjmp	.+58     	; 0x2058 <BastetDictates+0x1ca>
    201e:	8f 5f       	subi	r24, 0xFF	; 255
                    simonInputPos++;
    2020:	80 93 66 38 	sts	0x3866, r24	; 0x803866 <simonInputPos>
    2024:	e0 91 67 38 	lds	r30, 0x3867	; 0x803867 <simonPos>
                    if (simonInputPos > simonPos) {
    2028:	e8 17       	cp	r30, r24
    202a:	a0 f5       	brcc	.+104    	; 0x2094 <BastetDictates+0x206>
    202c:	ef 5f       	subi	r30, 0xFF	; 255
                        simonPos++;
    202e:	e0 93 67 38 	sts	0x3867, r30	; 0x803867 <simonPos>
    2032:	10 92 65 38 	sts	0x3865, r1	; 0x803865 <simonTimer>
                        simonTimer = 0;
    2036:	10 92 63 38 	sts	0x3863, r1	; 0x803863 <simonCounter>
                        simonCounter = 0;
    203a:	e1 30       	cpi	r30, 0x01	; 1
                        if (simonPos > 1) { // BASTET_LENGTH = 12
    203c:	59 f0       	breq	.+22     	; 0x2054 <BastetDictates+0x1c6>
    203e:	e6 95       	lsr	r30
                            iLED[HCKR[G][(simonPos / 2) - 1]] = dimValue;
    2040:	f0 e0       	ldi	r31, 0x00	; 0
    2042:	e0 53       	subi	r30, 0x30	; 48
    2044:	f1 44       	sbci	r31, 0x41	; 65
    2046:	e5 81       	ldd	r30, Z+5	; 0x05
    2048:	f0 e0       	ldi	r31, 0x00	; 0
    204a:	80 91 0c 38 	lds	r24, 0x380C	; 0x80380c <dimValue>
    204e:	e7 53       	subi	r30, 0x37	; 55
    2050:	f5 4c       	sbci	r31, 0xC5	; 197
    2052:	80 83       	st	Z, r24
    2054:	83 e0       	ldi	r24, 0x03	; 3
                        }
                        simonNextGameState = BASTET_GAME_SHOW_PATTERN;
    2056:	1c c0       	rjmp	.+56     	; 0x2090 <BastetDictates+0x202>
    2058:	80 e2       	ldi	r24, 0x20	; 32
                    }
                } else {
                    effect = 32;
    205a:	90 e0       	ldi	r25, 0x00	; 0
    205c:	80 93 40 38 	sts	0x3840, r24	; 0x803840 <effect>
    2060:	90 93 41 38 	sts	0x3841, r25	; 0x803841 <effect+0x1>
    2064:	a0 ed       	ldi	r26, 0xD0	; 208
    2066:	be eb       	ldi	r27, 0xBE	; 190
    2068:	ed 91       	ld	r30, X+
                    for (uint8_t n=0; n<6; n++){
                        iLED[HCKR[R][n]] = dimValue;
    206a:	f0 e0       	ldi	r31, 0x00	; 0
    206c:	80 91 0c 38 	lds	r24, 0x380C	; 0x80380c <dimValue>
    2070:	e7 53       	subi	r30, 0x37	; 55
    2072:	f5 4c       	sbci	r31, 0xC5	; 197
    2074:	80 83       	st	Z, r24
    2076:	8e eb       	ldi	r24, 0xBE	; 190
                        }
                        simonNextGameState = BASTET_GAME_SHOW_PATTERN;
                    }
                } else {
                    effect = 32;
                    for (uint8_t n=0; n<6; n++){
    2078:	a6 3d       	cpi	r26, 0xD6	; 214
    207a:	b8 07       	cpc	r27, r24
    207c:	a9 f7       	brne	.-22     	; 0x2068 <BastetDictates+0x1da>
    207e:	10 92 66 38 	sts	0x3866, r1	; 0x803866 <simonInputPos>
                        iLED[HCKR[R][n]] = dimValue;
                    }
                    simonInputPos = 0;
    2082:	10 92 67 38 	sts	0x3867, r1	; 0x803867 <simonPos>
                    simonPos = 0;
    2086:	10 92 65 38 	sts	0x3865, r1	; 0x803865 <simonTimer>
                    simonTimer = 0;
    208a:	10 92 63 38 	sts	0x3863, r1	; 0x803863 <simonCounter>
                    simonCounter = 0;
    208e:	86 e0       	ldi	r24, 0x06	; 6
                    simonNextGameState = BASTET_GAME_OUTRO;
    2090:	80 93 33 38 	sts	0x3833, r24	; 0x803833 <simonNextGameState>
    2094:	80 91 66 38 	lds	r24, 0x3866	; 0x803866 <simonInputPos>
                }

                if (simonInputPos >= BASTET_LENGTH || simonPos >= BASTET_LENGTH) { // beetje dubbel
    2098:	8c 30       	cpi	r24, 0x0C	; 12
    209a:	20 f4       	brcc	.+8      	; 0x20a4 <BastetDictates+0x216>
    209c:	80 91 67 38 	lds	r24, 0x3867	; 0x803867 <simonPos>
    20a0:	8c 30       	cpi	r24, 0x0C	; 12
    20a2:	90 f0       	brcs	.+36     	; 0x20c8 <BastetDictates+0x23a>
                    effect = 64|2;
    20a4:	82 e4       	ldi	r24, 0x42	; 66
    20a6:	90 e0       	ldi	r25, 0x00	; 0
    20a8:	80 93 40 38 	sts	0x3840, r24	; 0x803840 <effect>
    20ac:	90 93 41 38 	sts	0x3841, r25	; 0x803841 <effect+0x1>
                    UpdateState(BASTET_COMPLETED);
    20b0:	8a e7       	ldi	r24, 0x7A	; 122
    20b2:	92 d9       	rcall	.-3292   	; 0x13d8 <UpdateState>
    20b4:	10 92 65 38 	sts	0x3865, r1	; 0x803865 <simonTimer>
                    simonTimer = 0;
    20b8:	10 92 63 38 	sts	0x3863, r1	; 0x803863 <simonCounter>
                    simonCounter = 0;
    20bc:	87 e0       	ldi	r24, 0x07	; 7
                    simonNextGameState = BASTET_GAME_OVER;
    20be:	80 93 33 38 	sts	0x3833, r24	; 0x803833 <simonNextGameState>
    20c2:	02 c0       	rjmp	.+4      	; 0x20c8 <BastetDictates+0x23a>
    20c4:	10 92 64 38 	sts	0x3864, r1	; 0x803864 <simonWait>
                }
            }
        
        //Button released, next or reset!
        } else {
            simonWait = 0;
    20c8:	80 91 65 38 	lds	r24, 0x3865	; 0x803865 <simonTimer>
        }

        if (simonTimer == 200) {    // did you forget about Bastet?
    20cc:	88 3c       	cpi	r24, 0xC8	; 200
    20ce:	41 f4       	brne	.+16     	; 0x20e0 <BastetDictates+0x252>
    20d0:	83 e0       	ldi	r24, 0x03	; 3
            simonGameState = BASTET_GAME_SHOW_PATTERN;
    20d2:	80 93 62 38 	sts	0x3862, r24	; 0x803862 <simonGameState>
    20d6:	10 92 63 38 	sts	0x3863, r1	; 0x803863 <simonCounter>
            simonCounter = 0;
    20da:	10 92 65 38 	sts	0x3865, r1	; 0x803865 <simonTimer>
            simonTimer = 0;
    20de:	51 c0       	rjmp	.+162    	; 0x2182 <BastetDictates+0x2f4>
            return 0;
    20e0:	80 91 62 38 	lds	r24, 0x3862	; 0x803862 <simonGameState>
        }
    }

    if (BASTET_GAME_WAIT_LEDS == simonGameState) {
    20e4:	84 30       	cpi	r24, 0x04	; 4
    20e6:	81 f4       	brne	.+32     	; 0x2108 <BastetDictates+0x27a>
        if (simonTimer >= 7) {
    20e8:	80 91 65 38 	lds	r24, 0x3865	; 0x803865 <simonTimer>
    20ec:	87 30       	cpi	r24, 0x07	; 7
    20ee:	60 f0       	brcs	.+24     	; 0x2108 <BastetDictates+0x27a>
            // on to next state after .5 second
            simonLed(0);  // LEDs off
    20f0:	80 e0       	ldi	r24, 0x00	; 0
    20f2:	4f de       	rcall	.-866    	; 0x1d92 <simonLed>
    20f4:	10 92 64 38 	sts	0x3864, r1	; 0x803864 <simonWait>
            simonWait = 0;
    20f8:	10 92 65 38 	sts	0x3865, r1	; 0x803865 <simonTimer>
            simonTimer = 0;
    20fc:	10 92 63 38 	sts	0x3863, r1	; 0x803863 <simonCounter>
            simonCounter = 0;
    2100:	80 91 33 38 	lds	r24, 0x3833	; 0x803833 <simonNextGameState>
            simonGameState = simonNextGameState;
    2104:	80 93 62 38 	sts	0x3862, r24	; 0x803862 <simonGameState>
    2108:	80 91 62 38 	lds	r24, 0x3862	; 0x803862 <simonGameState>
        }
    }

    if (BASTET_GAME_OUTRO == simonGameState) {
    210c:	86 30       	cpi	r24, 0x06	; 6
    210e:	41 f5       	brne	.+80     	; 0x2160 <BastetDictates+0x2d2>
    2110:	80 91 65 38 	lds	r24, 0x3865	; 0x803865 <simonTimer>
        if (simonTimer > 3) {
    2114:	84 30       	cpi	r24, 0x04	; 4
    2116:	38 f0       	brcs	.+14     	; 0x2126 <BastetDictates+0x298>
    2118:	80 91 63 38 	lds	r24, 0x3863	; 0x803863 <simonCounter>
            simonCounter++;
    211c:	8f 5f       	subi	r24, 0xFF	; 255
    211e:	80 93 63 38 	sts	0x3863, r24	; 0x803863 <simonCounter>
    2122:	10 92 65 38 	sts	0x3865, r1	; 0x803865 <simonTimer>
            simonTimer = 0;
    2126:	80 91 63 38 	lds	r24, 0x3863	; 0x803863 <simonCounter>
        }
        if (simonCounter > 5) {
    212a:	86 30       	cpi	r24, 0x06	; 6
    212c:	40 f0       	brcs	.+16     	; 0x213e <BastetDictates+0x2b0>
    212e:	10 92 65 38 	sts	0x3865, r1	; 0x803865 <simonTimer>
            simonTimer = 0;
    2132:	10 92 63 38 	sts	0x3863, r1	; 0x803863 <simonCounter>
            simonCounter = 0;
    2136:	87 e0       	ldi	r24, 0x07	; 7
            simonGameState = BASTET_GAME_OVER;
    2138:	80 93 62 38 	sts	0x3862, r24	; 0x803862 <simonGameState>
    213c:	22 c0       	rjmp	.+68     	; 0x2182 <BastetDictates+0x2f4>
            return 0;
    213e:	e5 e0       	ldi	r30, 0x05	; 5
        }
        iLED[HCKR[R][5-simonCounter]] = 0;
    2140:	f0 e0       	ldi	r31, 0x00	; 0
    2142:	e8 1b       	sub	r30, r24
    2144:	f1 09       	sbc	r31, r1
    2146:	e0 53       	subi	r30, 0x30	; 48
    2148:	f1 44       	sbci	r31, 0x41	; 65
    214a:	a0 81       	ld	r26, Z
    214c:	b0 e0       	ldi	r27, 0x00	; 0
    214e:	a7 53       	subi	r26, 0x37	; 55
    2150:	b5 4c       	sbci	r27, 0xC5	; 197
    2152:	1c 92       	st	X, r1
    2154:	e6 81       	ldd	r30, Z+6	; 0x06
        iLED[HCKR[G][5-simonCounter]] = 0;
    2156:	f0 e0       	ldi	r31, 0x00	; 0
    2158:	e7 53       	subi	r30, 0x37	; 55
    215a:	f5 4c       	sbci	r31, 0xC5	; 197
    215c:	10 82       	st	Z, r1
    215e:	0c c0       	rjmp	.+24     	; 0x2178 <BastetDictates+0x2ea>
    2160:	87 30       	cpi	r24, 0x07	; 7
    }

    if (BASTET_GAME_OVER == simonGameState) {
    2162:	51 f4       	brne	.+20     	; 0x2178 <BastetDictates+0x2ea>
        simonInputPos = 0;
    2164:	10 92 66 38 	sts	0x3866, r1	; 0x803866 <simonInputPos>
        simonPos = 0;
    2168:	10 92 67 38 	sts	0x3867, r1	; 0x803867 <simonPos>
        simonGameState = BASTET_BOOT; // BASTET_GAME_START for stale "field" s
    216c:	10 92 62 38 	sts	0x3862, r1	; 0x803862 <simonGameState>
        gameNow = TEXT;
    2170:	10 92 42 38 	sts	0x3842, r1	; 0x803842 <gameNow>
        simonLed(0);
    2174:	80 e0       	ldi	r24, 0x00	; 0
    2176:	0d de       	rcall	.-998    	; 0x1d92 <simonLed>
    2178:	80 91 65 38 	lds	r24, 0x3865	; 0x803865 <simonTimer>
    }

    ++simonTimer;
    217c:	8f 5f       	subi	r24, 0xFF	; 255
    217e:	80 93 65 38 	sts	0x3865, r24	; 0x803865 <simonTimer>
    2182:	80 e0       	ldi	r24, 0x00	; 0
    return 0;
}
    2184:	df 91       	pop	r29
    2186:	cf 91       	pop	r28
    2188:	08 95       	ret

0000218a <Cheat>:
    218a:	a2 e1       	ldi	r26, 0x12	; 18

//
void SetResponse(uint8_t number, uint16_t address, uint16_t length, uint8_t type){
    reactStr[0][number]=address;
    reactStr[1][number]=length;
    reactStr[2][number]=type;
    218c:	b0 e0       	ldi	r27, 0x00	; 0
    218e:	eb ec       	ldi	r30, 0xCB	; 203
    2190:	f0 e1       	ldi	r31, 0x10	; 16
    2192:	0c 94 27 1f 	jmp	0x3e4e	; 0x3e4e <__prologue_saves__+0x1e>
    2196:	8a 8b       	std	Y+18, r24	; 0x12
    2198:	80 e1       	ldi	r24, 0x10	; 16
    219a:	e6 e9       	ldi	r30, 0x96	; 150
    219c:	fe eb       	ldi	r31, 0xBE	; 190
    219e:	de 01       	movw	r26, r28
    21a0:	11 96       	adiw	r26, 0x01	; 1
    21a2:	01 90       	ld	r0, Z+
    21a4:	0d 92       	st	X+, r0
    21a6:	8a 95       	dec	r24
    21a8:	e1 f7       	brne	.-8      	; 0x21a2 <Cheat+0x18>
    21aa:	fe 01       	movw	r30, r28
    21ac:	31 96       	adiw	r30, 0x01	; 1
    21ae:	90 e0       	ldi	r25, 0x00	; 0
    21b0:	8f ef       	ldi	r24, 0xFF	; 255
    21b2:	21 91       	ld	r18, Z+
    21b4:	31 91       	ld	r19, Z+
    21b6:	26 17       	cp	r18, r22
    21b8:	37 07       	cpc	r19, r23
    21ba:	09 f4       	brne	.+2      	; 0x21be <Cheat+0x34>
    21bc:	89 2f       	mov	r24, r25
    21be:	9f 5f       	subi	r25, 0xFF	; 255
    21c0:	98 30       	cpi	r25, 0x08	; 8
    21c2:	b9 f7       	brne	.-18     	; 0x21b2 <Cheat+0x28>
    21c4:	88 30       	cpi	r24, 0x08	; 8
    21c6:	10 f0       	brcs	.+4      	; 0x21cc <Cheat+0x42>
    21c8:	80 e0       	ldi	r24, 0x00	; 0
    21ca:	14 c0       	rjmp	.+40     	; 0x21f4 <Cheat+0x6a>
    21cc:	18 e1       	ldi	r17, 0x18	; 24
    21ce:	18 0f       	add	r17, r24
    21d0:	41 e0       	ldi	r20, 0x01	; 1
    21d2:	be 01       	movw	r22, r28
    21d4:	6f 5e       	subi	r22, 0xEF	; 239
    21d6:	7f 4f       	sbci	r23, 0xFF	; 255
    21d8:	81 2f       	mov	r24, r17
    21da:	0e 94 04 08 	call	0x1008	; 0x1008 <EERead>
    21de:	89 89       	ldd	r24, Y+17	; 0x11
    21e0:	8f 3f       	cpi	r24, 0xFF	; 255
    21e2:	91 f7       	brne	.-28     	; 0x21c8 <Cheat+0x3e>
    21e4:	41 e0       	ldi	r20, 0x01	; 1
    21e6:	be 01       	movw	r22, r28
    21e8:	6e 5e       	subi	r22, 0xEE	; 238
    21ea:	7f 4f       	sbci	r23, 0xFF	; 255
    21ec:	81 2f       	mov	r24, r17
    21ee:	0e 94 14 08 	call	0x1028	; 0x1028 <EEWrite>
    21f2:	81 e0       	ldi	r24, 0x01	; 1
    21f4:	62 96       	adiw	r28, 0x12	; 18
    21f6:	e3 e0       	ldi	r30, 0x03	; 3
    21f8:	0c 94 40 1f 	jmp	0x3e80	; 0x3e80 <__epilogue_restores__+0x1e>

000021fc <UnflipData>:
    21fc:	26 2f       	mov	r18, r22
    21fe:	fb 01       	movw	r30, r22
    2200:	35 e5       	ldi	r19, 0x55	; 85
    2202:	9e 2f       	mov	r25, r30
    2204:	92 1b       	sub	r25, r18
    2206:	98 17       	cp	r25, r24
    2208:	28 f4       	brcc	.+10     	; 0x2214 <UnflipData+0x18>
    220a:	90 81       	ld	r25, Z
    220c:	92 95       	swap	r25
    220e:	93 27       	eor	r25, r19
    2210:	91 93       	st	Z+, r25
    2212:	f7 cf       	rjmp	.-18     	; 0x2202 <UnflipData+0x6>
    2214:	08 95       	ret

00002216 <ClearTxAfter>:
    2216:	8f 5f       	subi	r24, 0xFF	; 255
    2218:	88 30       	cpi	r24, 0x08	; 8
    221a:	30 f4       	brcc	.+12     	; 0x2228 <ClearTxAfter+0x12>
    221c:	e8 2f       	mov	r30, r24
    221e:	f0 e0       	ldi	r31, 0x00	; 0
    2220:	e2 5b       	subi	r30, 0xB2	; 178
    2222:	f5 4c       	sbci	r31, 0xC5	; 197
    2224:	10 82       	st	Z, r1
    2226:	f7 cf       	rjmp	.-18     	; 0x2216 <ClearTxAfter>
    2228:	08 95       	ret

0000222a <StartsWith>:
    222a:	ac 01       	movw	r20, r24
    222c:	90 e0       	ldi	r25, 0x00	; 0
    222e:	e9 2f       	mov	r30, r25
    2230:	f0 e0       	ldi	r31, 0x00	; 0
    2232:	da 01       	movw	r26, r20
    2234:	ae 0f       	add	r26, r30
    2236:	bf 1f       	adc	r27, r31
    2238:	3c 91       	ld	r19, X
    223a:	e6 0f       	add	r30, r22
    223c:	f7 1f       	adc	r31, r23
    223e:	31 11       	cpse	r19, r1
    2240:	05 c0       	rjmp	.+10     	; 0x224c <StartsWith+0x22>
    2242:	81 e0       	ldi	r24, 0x01	; 1
    2244:	90 81       	ld	r25, Z
    2246:	99 23       	and	r25, r25
    2248:	49 f0       	breq	.+18     	; 0x225c <StartsWith+0x32>
    224a:	07 c0       	rjmp	.+14     	; 0x225a <StartsWith+0x30>
    224c:	20 81       	ld	r18, Z
    224e:	22 23       	and	r18, r18
    2250:	c1 f3       	breq	.-16     	; 0x2242 <StartsWith+0x18>
    2252:	32 13       	cpse	r19, r18
    2254:	02 c0       	rjmp	.+4      	; 0x225a <StartsWith+0x30>
    2256:	9f 5f       	subi	r25, 0xFF	; 255
    2258:	ea cf       	rjmp	.-44     	; 0x222e <StartsWith+0x4>
    225a:	80 e0       	ldi	r24, 0x00	; 0
    225c:	08 95       	ret

0000225e <PrepareSending>:
    225e:	cf 93       	push	r28
    2260:	df 93       	push	r29
    2262:	fc 01       	movw	r30, r24
    2264:	61 15       	cp	r22, r1
    2266:	71 05       	cpc	r23, r1
    2268:	59 f1       	breq	.+86     	; 0x22c0 <PrepareSending+0x62>
    226a:	a6 e5       	ldi	r26, 0x56	; 86
    226c:	ba e3       	ldi	r27, 0x3A	; 58
    226e:	ce e4       	ldi	r28, 0x4E	; 78
    2270:	da e3       	ldi	r29, 0x3A	; 58
    2272:	80 e0       	ldi	r24, 0x00	; 0
    2274:	9f ef       	ldi	r25, 0xFF	; 255
    2276:	6f 3f       	cpi	r22, 0xFF	; 255
    2278:	71 05       	cpc	r23, r1
    227a:	69 f0       	breq	.+26     	; 0x2296 <PrepareSending+0x38>
    227c:	60 f0       	brcs	.+24     	; 0x2296 <PrepareSending+0x38>
    227e:	ed 93       	st	X+, r30
    2280:	fd 93       	st	X+, r31
    2282:	99 93       	st	Y+, r25
    2284:	e1 50       	subi	r30, 0x01	; 1
    2286:	ff 4f       	sbci	r31, 0xFF	; 255
    2288:	6f 5f       	subi	r22, 0xFF	; 255
    228a:	71 09       	sbc	r23, r1
    228c:	8f 5f       	subi	r24, 0xFF	; 255
    228e:	87 30       	cpi	r24, 0x07	; 7
    2290:	91 f7       	brne	.-28     	; 0x2276 <PrepareSending+0x18>
    2292:	81 e0       	ldi	r24, 0x01	; 1
    2294:	1e c0       	rjmp	.+60     	; 0x22d2 <PrepareSending+0x74>
    2296:	28 2f       	mov	r18, r24
    2298:	30 e0       	ldi	r19, 0x00	; 0
    229a:	d9 01       	movw	r26, r18
    229c:	aa 0f       	add	r26, r26
    229e:	bb 1f       	adc	r27, r27
    22a0:	aa 5a       	subi	r26, 0xAA	; 170
    22a2:	b5 4c       	sbci	r27, 0xC5	; 197
    22a4:	ed 93       	st	X+, r30
    22a6:	fc 93       	st	X, r31
    22a8:	6f 3f       	cpi	r22, 0xFF	; 255
    22aa:	71 05       	cpc	r23, r1
    22ac:	11 f4       	brne	.+4      	; 0x22b2 <PrepareSending+0x54>
    22ae:	6e ef       	ldi	r22, 0xFE	; 254
    22b0:	70 e0       	ldi	r23, 0x00	; 0
    22b2:	f9 01       	movw	r30, r18
    22b4:	e2 5b       	subi	r30, 0xB2	; 178
    22b6:	f5 4c       	sbci	r31, 0xC5	; 197
    22b8:	60 83       	st	Z, r22
    22ba:	40 93 4c 3a 	sts	0x3A4C, r20	; 0x803a4c <txTypeNow>
    22be:	05 c0       	rjmp	.+10     	; 0x22ca <PrepareSending+0x6c>
    22c0:	10 92 56 3a 	sts	0x3A56, r1	; 0x803a56 <txAddrList>
    22c4:	10 92 57 3a 	sts	0x3A57, r1	; 0x803a57 <txAddrList+0x1>
    22c8:	80 e0       	ldi	r24, 0x00	; 0
    22ca:	a5 df       	rcall	.-182    	; 0x2216 <ClearTxAfter>
    22cc:	10 92 4d 3a 	sts	0x3A4D, r1	; 0x803a4d <txAddrNow>
    22d0:	80 e0       	ldi	r24, 0x00	; 0
    22d2:	df 91       	pop	r29
    22d4:	cf 91       	pop	r28
    22d6:	08 95       	ret

000022d8 <SetStandardResponse>:
}

//
uint8_t SetStandardResponse(uint8_t custStrEnd){
    22d8:	cf 93       	push	r28
    22da:	df 93       	push	r29
    return 0;
}

//
void SetResponse(uint8_t number, uint16_t address, uint16_t length, uint8_t type){
    reactStr[0][number]=address;
    22dc:	28 2f       	mov	r18, r24
    22de:	30 e0       	ldi	r19, 0x00	; 0
    22e0:	f9 01       	movw	r30, r18
    22e2:	ee 0f       	add	r30, r30
    22e4:	ff 1f       	adc	r31, r31
    22e6:	ef 5d       	subi	r30, 0xDF	; 223
    22e8:	f6 4c       	sbci	r31, 0xC6	; 198
    22ea:	a9 e5       	ldi	r26, 0x59	; 89
    22ec:	ba e7       	ldi	r27, 0x7A	; 122
    22ee:	a0 83       	st	Z, r26
    22f0:	b1 83       	std	Z+1, r27	; 0x01
    reactStr[1][number]=length;
    22f2:	f9 01       	movw	r30, r18
    22f4:	ee 0f       	add	r30, r30
    22f6:	ff 1f       	adc	r31, r31
    22f8:	ef 59       	subi	r30, 0x9F	; 159
    22fa:	f6 4c       	sbci	r31, 0xC6	; 198
    22fc:	62 e0       	ldi	r22, 0x02	; 2
    22fe:	70 e0       	ldi	r23, 0x00	; 0
    2300:	60 83       	st	Z, r22
    2302:	71 83       	std	Z+1, r23	; 0x01
    reactStr[2][number]=type;
    2304:	22 0f       	add	r18, r18
    2306:	33 1f       	adc	r19, r19
    2308:	f9 01       	movw	r30, r18
    230a:	ef 55       	subi	r30, 0x5F	; 95
    230c:	f6 4c       	sbci	r31, 0xC6	; 198
    230e:	41 e0       	ldi	r20, 0x01	; 1
    2310:	50 e0       	ldi	r21, 0x00	; 0
    2312:	40 83       	st	Z, r20
    2314:	51 83       	std	Z+1, r21	; 0x01
    return 0;
}

//
void SetResponse(uint8_t number, uint16_t address, uint16_t length, uint8_t type){
    reactStr[0][number]=address;
    2316:	21 e0       	ldi	r18, 0x01	; 1
    2318:	28 0f       	add	r18, r24
    231a:	30 e0       	ldi	r19, 0x00	; 0
    231c:	f9 01       	movw	r30, r18
    231e:	ee 0f       	add	r30, r30
    2320:	ff 1f       	adc	r31, r31
    2322:	ef 5d       	subi	r30, 0xDF	; 223
    2324:	f6 4c       	sbci	r31, 0xC6	; 198
    2326:	c2 e6       	ldi	r28, 0x62	; 98
    2328:	da e7       	ldi	r29, 0x7A	; 122
    232a:	c0 83       	st	Z, r28
    232c:	d1 83       	std	Z+1, r29	; 0x01
    reactStr[1][number]=length;
    232e:	f9 01       	movw	r30, r18
    2330:	ee 0f       	add	r30, r30
    2332:	ff 1f       	adc	r31, r31
    2334:	ef 59       	subi	r30, 0x9F	; 159
    2336:	f6 4c       	sbci	r31, 0xC6	; 198
    2338:	cc e0       	ldi	r28, 0x0C	; 12
    233a:	d0 e0       	ldi	r29, 0x00	; 0
    233c:	c0 83       	st	Z, r28
    233e:	d1 83       	std	Z+1, r29	; 0x01
    reactStr[2][number]=type;
    2340:	22 0f       	add	r18, r18
    2342:	33 1f       	adc	r19, r19
    2344:	f9 01       	movw	r30, r18
    2346:	ef 55       	subi	r30, 0x5F	; 95
    2348:	f6 4c       	sbci	r31, 0xC6	; 198
    234a:	40 83       	st	Z, r20
    234c:	51 83       	std	Z+1, r21	; 0x01
//
uint8_t SetStandardResponse(uint8_t custStrEnd){

    SetResponse(custStrEnd++, A_LF, 2, TEASER);
    SetResponse(custStrEnd++, A_LOCATION, L_LOCATION, TEASER);
    reactStr[0][custStrEnd++] = CURR_LOC;
    234e:	e2 e0       	ldi	r30, 0x02	; 2
    2350:	e8 0f       	add	r30, r24
    2352:	f0 e0       	ldi	r31, 0x00	; 0
    2354:	ee 0f       	add	r30, r30
    2356:	ff 1f       	adc	r31, r31
    2358:	ef 5d       	subi	r30, 0xDF	; 223
    235a:	f6 4c       	sbci	r31, 0xC6	; 198
    235c:	20 ef       	ldi	r18, 0xF0	; 240
    235e:	3f ef       	ldi	r19, 0xFF	; 255
    2360:	20 83       	st	Z, r18
    2362:	31 83       	std	Z+1, r19	; 0x01
    return 0;
}

//
void SetResponse(uint8_t number, uint16_t address, uint16_t length, uint8_t type){
    reactStr[0][number]=address;
    2364:	23 e0       	ldi	r18, 0x03	; 3
    2366:	28 0f       	add	r18, r24
    2368:	30 e0       	ldi	r19, 0x00	; 0
    236a:	f9 01       	movw	r30, r18
    236c:	ee 0f       	add	r30, r30
    236e:	ff 1f       	adc	r31, r31
    2370:	ef 5d       	subi	r30, 0xDF	; 223
    2372:	f6 4c       	sbci	r31, 0xC6	; 198
    2374:	a0 83       	st	Z, r26
    2376:	b1 83       	std	Z+1, r27	; 0x01
    reactStr[1][number]=length;
    2378:	f9 01       	movw	r30, r18
    237a:	ee 0f       	add	r30, r30
    237c:	ff 1f       	adc	r31, r31
    237e:	ef 59       	subi	r30, 0x9F	; 159
    2380:	f6 4c       	sbci	r31, 0xC6	; 198
    2382:	60 83       	st	Z, r22
    2384:	71 83       	std	Z+1, r23	; 0x01
    reactStr[2][number]=type;
    2386:	22 0f       	add	r18, r18
    2388:	33 1f       	adc	r19, r19
    238a:	f9 01       	movw	r30, r18
    238c:	ef 55       	subi	r30, 0x5F	; 95
    238e:	f6 4c       	sbci	r31, 0xC6	; 198
    2390:	40 83       	st	Z, r20
    2392:	51 83       	std	Z+1, r21	; 0x01
    return 0;
}

//
void SetResponse(uint8_t number, uint16_t address, uint16_t length, uint8_t type){
    reactStr[0][number]=address;
    2394:	24 e0       	ldi	r18, 0x04	; 4
    2396:	28 0f       	add	r18, r24
    2398:	30 e0       	ldi	r19, 0x00	; 0
    239a:	f9 01       	movw	r30, r18
    239c:	ee 0f       	add	r30, r30
    239e:	ff 1f       	adc	r31, r31
    23a0:	ef 5d       	subi	r30, 0xDF	; 223
    23a2:	f6 4c       	sbci	r31, 0xC6	; 198
    23a4:	a5 e5       	ldi	r26, 0x55	; 85
    23a6:	ba e7       	ldi	r27, 0x7A	; 122
    23a8:	a0 83       	st	Z, r26
    23aa:	b1 83       	std	Z+1, r27	; 0x01
    reactStr[1][number]=length;
    23ac:	f9 01       	movw	r30, r18
    23ae:	ee 0f       	add	r30, r30
    23b0:	ff 1f       	adc	r31, r31
    23b2:	ef 59       	subi	r30, 0x9F	; 159
    23b4:	f6 4c       	sbci	r31, 0xC6	; 198
    23b6:	60 83       	st	Z, r22
    23b8:	71 83       	std	Z+1, r23	; 0x01
    reactStr[2][number]=type;
    23ba:	22 0f       	add	r18, r18
    23bc:	33 1f       	adc	r19, r19
    23be:	f9 01       	movw	r30, r18
    23c0:	ef 55       	subi	r30, 0x5F	; 95
    23c2:	f6 4c       	sbci	r31, 0xC6	; 198
    23c4:	40 83       	st	Z, r20
    23c6:	51 83       	std	Z+1, r21	; 0x01
    reactStr[0][custStrEnd++] = CURR_LOC;
    SetResponse(custStrEnd++, A_LF, 2, TEASER);
    SetResponse(custStrEnd++, A_PROMPT, L_PROMPT, TEASER);

    return custStrEnd;
}
    23c8:	8b 5f       	subi	r24, 0xFB	; 251
    23ca:	df 91       	pop	r29
    23cc:	cf 91       	pop	r28
    23ce:	08 95       	ret

000023d0 <PopulateObject>:

//Get all the relevant data and string addresses of an object
void PopulateObject(uint16_t offset, object_model_t *object){
    23d0:	af 92       	push	r10
    23d2:	bf 92       	push	r11
    23d4:	df 92       	push	r13
    23d6:	ef 92       	push	r14
    23d8:	ff 92       	push	r15
    23da:	0f 93       	push	r16
    23dc:	1f 93       	push	r17
    23de:	cf 93       	push	r28
    23e0:	df 93       	push	r29
    23e2:	cd b7       	in	r28, 0x3d	; 61
    23e4:	de b7       	in	r29, 0x3e	; 62
    23e6:	2c 97       	sbiw	r28, 0x0c	; 12
    23e8:	cd bf       	out	0x3d, r28	; 61
    23ea:	de bf       	out	0x3e, r29	; 62
    23ec:	7c 01       	movw	r14, r24
    23ee:	8b 01       	movw	r16, r22
    uint16_t parStr;
    offset += L_BOILER;

    //Fill things with fixed distance to offset
    uint8_t data[OFF_STRINGFLDS];
    ExtEERead(offset, OFF_STRINGFLDS, GAME, &data[0]);
    23f0:	9e 01       	movw	r18, r28
    23f2:	2f 5f       	subi	r18, 0xFF	; 255
    23f4:	3f 4f       	sbci	r19, 0xFF	; 255
    23f6:	40 e0       	ldi	r20, 0x00	; 0
    23f8:	6c e0       	ldi	r22, 0x0C	; 12
    23fa:	80 96       	adiw	r24, 0x20	; 32
    23fc:	0e 94 56 08 	call	0x10ac	; 0x10ac <ExtEERead>
    object->addrNextObj = (data[OFF_NEXTOBJ]<<8|data[OFF_NEXTOBJ+1])+L_BOILER;
    2400:	89 81       	ldd	r24, Y+1	; 0x01
    2402:	9a 81       	ldd	r25, Y+2	; 0x02
    2404:	98 27       	eor	r25, r24
    2406:	89 27       	eor	r24, r25
    2408:	98 27       	eor	r25, r24
    240a:	80 96       	adiw	r24, 0x20	; 32
    240c:	f8 01       	movw	r30, r16
    240e:	80 83       	st	Z, r24
    2410:	91 83       	std	Z+1, r25	; 0x01
    object->addrNextLvl = (data[OFF_NEXTLVL]<<8|data[OFF_NEXTLVL+1])+L_BOILER;
    2412:	8b 81       	ldd	r24, Y+3	; 0x03
    2414:	9c 81       	ldd	r25, Y+4	; 0x04
    2416:	98 27       	eor	r25, r24
    2418:	89 27       	eor	r24, r25
    241a:	98 27       	eor	r25, r24
    241c:	80 96       	adiw	r24, 0x20	; 32
    241e:	82 83       	std	Z+2, r24	; 0x02
    2420:	93 83       	std	Z+3, r25	; 0x03
    2422:	de 01       	movw	r26, r28
    2424:	15 96       	adiw	r26, 0x05	; 5
    2426:	34 96       	adiw	r30, 0x04	; 4
    2428:	c8 01       	movw	r24, r16
    242a:	0c 96       	adiw	r24, 0x0c	; 12
    for (uint8_t x=0; x<BYTE_FIELDS_LEN; ++x){
        object->byteField[x]=data[x+OFF_BYTEFLDS];
    242c:	2d 91       	ld	r18, X+
    242e:	21 93       	st	Z+, r18
    //Fill things with fixed distance to offset
    uint8_t data[OFF_STRINGFLDS];
    ExtEERead(offset, OFF_STRINGFLDS, GAME, &data[0]);
    object->addrNextObj = (data[OFF_NEXTOBJ]<<8|data[OFF_NEXTOBJ+1])+L_BOILER;
    object->addrNextLvl = (data[OFF_NEXTLVL]<<8|data[OFF_NEXTLVL+1])+L_BOILER;
    for (uint8_t x=0; x<BYTE_FIELDS_LEN; ++x){
    2430:	e8 17       	cp	r30, r24
    2432:	f9 07       	cpc	r31, r25
    2434:	d9 f7       	brne	.-10     	; 0x242c <PopulateObject+0x5c>
        object->byteField[x]=data[x+OFF_BYTEFLDS];
    }

    //Find out where all of the strings begin and how long they are
    offset += OFF_STRINGFLDS;
    2436:	fc e2       	ldi	r31, 0x2C	; 44
    2438:	ef 0e       	add	r14, r31
    243a:	f1 1c       	adc	r15, r1
    243c:	58 01       	movw	r10, r16
    for(uint8_t x=0; x<STRING_FIELDS_LEN; ++x){
    243e:	d1 2c       	mov	r13, r1
        
        //Determine length
        ExtEERead(offset, 3, GAME, &data[0]);
    2440:	9e 01       	movw	r18, r28
    2442:	2f 5f       	subi	r18, 0xFF	; 255
    2444:	3f 4f       	sbci	r19, 0xFF	; 255
    2446:	40 e0       	ldi	r20, 0x00	; 0
    2448:	63 e0       	ldi	r22, 0x03	; 3
    244a:	c7 01       	movw	r24, r14
    244c:	0e 94 56 08 	call	0x10ac	; 0x10ac <ExtEERead>
    2450:	89 81       	ldd	r24, Y+1	; 0x01
    2452:	9a 81       	ldd	r25, Y+2	; 0x02
    2454:	98 27       	eor	r25, r24
    2456:	89 27       	eor	r24, r25
    2458:	98 27       	eor	r25, r24
        parStr = (data[0]<<8|data[1]);
        offset += 2;
    245a:	97 01       	movw	r18, r14
    245c:	2e 5f       	subi	r18, 0xFE	; 254
    245e:	3f 4f       	sbci	r19, 0xFF	; 255
        if (x >= OPEN_ACL_MSG){
    2460:	43 e0       	ldi	r20, 0x03	; 3
    2462:	4d 15       	cp	r20, r13
    2464:	80 f4       	brcc	.+32     	; 0x2486 <PopulateObject+0xb6>
            object->lenStr[x]= parStr-1;
    2466:	ac 01       	movw	r20, r24
    2468:	41 50       	subi	r20, 0x01	; 1
    246a:	51 09       	sbc	r21, r1
    246c:	f8 01       	movw	r30, r16
    246e:	42 8f       	std	Z+26, r20	; 0x1a
    2470:	53 8f       	std	Z+27, r21	; 0x1b
            object->addrStr[x]=offset+1;
    2472:	f3 e0       	ldi	r31, 0x03	; 3
    2474:	ef 0e       	add	r14, r31
    2476:	f1 1c       	adc	r15, r1
    2478:	f8 01       	movw	r30, r16
    247a:	e4 86       	std	Z+12, r14	; 0x0c
    247c:	f5 86       	std	Z+13, r15	; 0x0d
            object->effect[x-OPEN_ACL_MSG] = data[2];
    247e:	4b 81       	ldd	r20, Y+3	; 0x03
    2480:	f5 01       	movw	r30, r10
    2482:	44 a3       	std	Z+36, r20	; 0x24
    2484:	05 c0       	rjmp	.+10     	; 0x2490 <PopulateObject+0xc0>
        } else {
            object->lenStr[x]= parStr;
    2486:	f8 01       	movw	r30, r16
    2488:	82 8f       	std	Z+26, r24	; 0x1a
    248a:	93 8f       	std	Z+27, r25	; 0x1b
            object->addrStr[x]=offset;
    248c:	24 87       	std	Z+12, r18	; 0x0c
    248e:	35 87       	std	Z+13, r19	; 0x0d
        }
        
        //Determine string start location for next field
        offset += parStr;
    2490:	7c 01       	movw	r14, r24
    2492:	e2 0e       	add	r14, r18
    2494:	f3 1e       	adc	r15, r19
        object->byteField[x]=data[x+OFF_BYTEFLDS];
    }

    //Find out where all of the strings begin and how long they are
    offset += OFF_STRINGFLDS;
    for(uint8_t x=0; x<STRING_FIELDS_LEN; ++x){
    2496:	d3 94       	inc	r13
    2498:	0e 5f       	subi	r16, 0xFE	; 254
    249a:	1f 4f       	sbci	r17, 0xFF	; 255
    249c:	ff ef       	ldi	r31, 0xFF	; 255
    249e:	af 1a       	sub	r10, r31
    24a0:	bf 0a       	sbc	r11, r31
    24a2:	47 e0       	ldi	r20, 0x07	; 7
    24a4:	d4 12       	cpse	r13, r20
    24a6:	cc cf       	rjmp	.-104    	; 0x2440 <PopulateObject+0x70>
        }
        
        //Determine string start location for next field
        offset += parStr;
    }    
}
    24a8:	2c 96       	adiw	r28, 0x0c	; 12
    24aa:	cd bf       	out	0x3d, r28	; 61
    24ac:	de bf       	out	0x3e, r29	; 62
    24ae:	df 91       	pop	r29
    24b0:	cf 91       	pop	r28
    24b2:	1f 91       	pop	r17
    24b4:	0f 91       	pop	r16
    24b6:	ff 90       	pop	r15
    24b8:	ef 90       	pop	r14
    24ba:	df 90       	pop	r13
    24bc:	bf 90       	pop	r11
    24be:	af 90       	pop	r10
    24c0:	08 95       	ret

000024c2 <CheckLetter>:

//Check if the entered letter corresponds with a name
uint8_t CheckLetter(uint16_t object, uint8_t letter){
    24c2:	a0 e2       	ldi	r26, 0x20	; 32
    24c4:	b0 e0       	ldi	r27, 0x00	; 0
    24c6:	e7 e6       	ldi	r30, 0x67	; 103
    24c8:	f2 e1       	ldi	r31, 0x12	; 18
    24ca:	0c 94 22 1f 	jmp	0x3e44	; 0x3e44 <__prologue_saves__+0x14>
    24ce:	c6 2e       	mov	r12, r22
    
    uint8_t found = 0;
    uint8_t data[32];

    object += L_BOILER;
    24d0:	7c 01       	movw	r14, r24
    24d2:	20 e2       	ldi	r18, 0x20	; 32
    24d4:	e2 0e       	add	r14, r18
    24d6:	f1 1c       	adc	r15, r1
    ExtEERead(object+OFF_STRINGFLDS, 2, GAME, &data[0]);
    24d8:	9e 01       	movw	r18, r28
    24da:	2f 5f       	subi	r18, 0xFF	; 255
    24dc:	3f 4f       	sbci	r19, 0xFF	; 255
    24de:	40 e0       	ldi	r20, 0x00	; 0
    24e0:	62 e0       	ldi	r22, 0x02	; 2
    24e2:	8c 96       	adiw	r24, 0x2c	; 44
    24e4:	0e 94 56 08 	call	0x10ac	; 0x10ac <ExtEERead>
    uint8_t x = data[1]; //Assuming a name is not longer than 255 characters.
    24e8:	1a 81       	ldd	r17, Y+2	; 0x02
}

//Check if the entered letter corresponds with a name
uint8_t CheckLetter(uint16_t object, uint8_t letter){
    
    uint8_t found = 0;
    24ea:	d1 2c       	mov	r13, r1

    object += L_BOILER;
    ExtEERead(object+OFF_STRINGFLDS, 2, GAME, &data[0]);
    uint8_t x = data[1]; //Assuming a name is not longer than 255 characters.

    while (x){
    24ec:	11 23       	and	r17, r17
    24ee:	59 f1       	breq	.+86     	; 0x2546 <CheckLetter+0x84>
    24f0:	01 2f       	mov	r16, r17
    24f2:	11 32       	cpi	r17, 0x21	; 33
    24f4:	08 f0       	brcs	.+2      	; 0x24f8 <CheckLetter+0x36>
    24f6:	00 e2       	ldi	r16, 0x20	; 32
        uint8_t max;
        if (x>32) max = 32; else max = x;
        ExtEERead(object+OFF_STRINGFLDS+2, max, GAME, &data[0]);
    24f8:	9e 01       	movw	r18, r28
    24fa:	2f 5f       	subi	r18, 0xFF	; 255
    24fc:	3f 4f       	sbci	r19, 0xFF	; 255
    24fe:	40 e0       	ldi	r20, 0x00	; 0
    2500:	60 2f       	mov	r22, r16
    2502:	c7 01       	movw	r24, r14
    2504:	0e 96       	adiw	r24, 0x0e	; 14
    2506:	0e 94 56 08 	call	0x10ac	; 0x10ac <ExtEERead>
    250a:	fe 01       	movw	r30, r28
    250c:	31 96       	adiw	r30, 0x01	; 1
        for (uint8_t y=0; y<max; ++y){
    250e:	80 e0       	ldi	r24, 0x00	; 0
            if (found){
    2510:	dd 20       	and	r13, r13
    2512:	61 f0       	breq	.+24     	; 0x252c <CheckLetter+0x6a>
                if ((data[y]|0x20) == letter) return 1; else return 0;
    2514:	e1 e0       	ldi	r30, 0x01	; 1
    2516:	f0 e0       	ldi	r31, 0x00	; 0
    2518:	ec 0f       	add	r30, r28
    251a:	fd 1f       	adc	r31, r29
    251c:	e8 0f       	add	r30, r24
    251e:	f1 1d       	adc	r31, r1
    2520:	90 81       	ld	r25, Z
    2522:	90 62       	ori	r25, 0x20	; 32
    2524:	81 e0       	ldi	r24, 0x01	; 1
    2526:	9c 11       	cpse	r25, r12
    2528:	0e c0       	rjmp	.+28     	; 0x2546 <CheckLetter+0x84>
    252a:	0e c0       	rjmp	.+28     	; 0x2548 <CheckLetter+0x86>
            }
            if (data[y] == '[') found = 1;
    252c:	91 91       	ld	r25, Z+
    252e:	dd 24       	eor	r13, r13
    2530:	d3 94       	inc	r13
    2532:	9b 35       	cpi	r25, 0x5B	; 91
    2534:	09 f0       	breq	.+2      	; 0x2538 <CheckLetter+0x76>
    2536:	d1 2c       	mov	r13, r1

    while (x){
        uint8_t max;
        if (x>32) max = 32; else max = x;
        ExtEERead(object+OFF_STRINGFLDS+2, max, GAME, &data[0]);
        for (uint8_t y=0; y<max; ++y){
    2538:	8f 5f       	subi	r24, 0xFF	; 255
    253a:	80 17       	cp	r24, r16
    253c:	48 f3       	brcs	.-46     	; 0x2510 <CheckLetter+0x4e>
            if (found){
                if ((data[y]|0x20) == letter) return 1; else return 0;
            }
            if (data[y] == '[') found = 1;
        }
        object += max;
    253e:	e0 0e       	add	r14, r16
    2540:	f1 1c       	adc	r15, r1
        x -= max;
    2542:	10 1b       	sub	r17, r16
    2544:	d3 cf       	rjmp	.-90     	; 0x24ec <CheckLetter+0x2a>
    }
    return 0;
    2546:	80 e0       	ldi	r24, 0x00	; 0
}
    2548:	a0 96       	adiw	r28, 0x20	; 32
    254a:	e8 e0       	ldi	r30, 0x08	; 8
    254c:	0c 94 3b 1f 	jmp	0x3e76	; 0x3e76 <__epilogue_restores__+0x14>

00002550 <FindChild>:

//Returns the child's address if the child is visible and the search letter matches
uint16_t FindChild(uint16_t parent, uint8_t letter, uint16_t start){
    2550:	af 92       	push	r10
    2552:	bf 92       	push	r11
    2554:	df 92       	push	r13
    2556:	ef 92       	push	r14
    2558:	ff 92       	push	r15
    255a:	0f 93       	push	r16
    255c:	1f 93       	push	r17
    255e:	cf 93       	push	r28
    2560:	df 93       	push	r29
    2562:	00 d0       	rcall	.+0      	; 0x2564 <FindChild+0x14>
    2564:	00 d0       	rcall	.+0      	; 0x2566 <FindChild+0x16>
    2566:	cd b7       	in	r28, 0x3d	; 61
    2568:	de b7       	in	r29, 0x3e	; 62
    256a:	d6 2e       	mov	r13, r22
    256c:	5a 01       	movw	r10, r20
    
    uint16_t child = parent;
    uint8_t data[4];

    ExtEERead(child+L_BOILER, 4, GAME, &data[0]);
    256e:	9e 01       	movw	r18, r28
    2570:	2f 5f       	subi	r18, 0xFF	; 255
    2572:	3f 4f       	sbci	r19, 0xFF	; 255
    2574:	40 e0       	ldi	r20, 0x00	; 0
    2576:	64 e0       	ldi	r22, 0x04	; 4
    2578:	80 96       	adiw	r24, 0x20	; 32
    257a:	0e 94 56 08 	call	0x10ac	; 0x10ac <ExtEERead>
    257e:	e9 80       	ldd	r14, Y+1	; 0x01
    2580:	fa 80       	ldd	r15, Y+2	; 0x02
    2582:	fe 24       	eor	r15, r14
    2584:	ef 24       	eor	r14, r15
    2586:	fe 24       	eor	r15, r14
    2588:	0b 81       	ldd	r16, Y+3	; 0x03
    258a:	1c 81       	ldd	r17, Y+4	; 0x04
    258c:	10 27       	eor	r17, r16
    258e:	01 27       	eor	r16, r17
    2590:	10 27       	eor	r17, r16
    parent = (data[0]<<8|data[1]);    //Next object on parent level
    child =  (data[2]<<8|data[3]);    //First object on child level

    //As long as the child is within the parent's range
    while (parent>child){
    2592:	0e 15       	cp	r16, r14
    2594:	1f 05       	cpc	r17, r15
    2596:	48 f5       	brcc	.+82     	; 0x25ea <FindChild+0x9a>

        //If child's address is higher than the start address, perform search for letter
        if (child>start){
    2598:	a0 16       	cp	r10, r16
    259a:	b1 06       	cpc	r11, r17
    259c:	60 f0       	brcs	.+24     	; 0x25b6 <FindChild+0x66>
                if ((letter == 0)||(CheckLetter(child, letter))) return child;
            }
        }

        //Not visible or name not right
        ExtEERead(child+L_BOILER, 2, GAME, &data[0]);
    259e:	9e 01       	movw	r18, r28
    25a0:	2f 5f       	subi	r18, 0xFF	; 255
    25a2:	3f 4f       	sbci	r19, 0xFF	; 255
    25a4:	40 e0       	ldi	r20, 0x00	; 0
    25a6:	62 e0       	ldi	r22, 0x02	; 2
    25a8:	c8 01       	movw	r24, r16
    25aa:	80 96       	adiw	r24, 0x20	; 32
    25ac:	0e 94 56 08 	call	0x10ac	; 0x10ac <ExtEERead>
    25b0:	09 81       	ldd	r16, Y+1	; 0x01
    25b2:	1a 81       	ldd	r17, Y+2	; 0x02
    25b4:	eb cf       	rjmp	.-42     	; 0x258c <FindChild+0x3c>
    //As long as the child is within the parent's range
    while (parent>child){

        //If child's address is higher than the start address, perform search for letter
        if (child>start){
            ExtEERead(child+OFF_BYTEFLDS+VISIBLE_ACL+L_BOILER, 1, GAME, &data[0]);
    25b6:	9e 01       	movw	r18, r28
    25b8:	2f 5f       	subi	r18, 0xFF	; 255
    25ba:	3f 4f       	sbci	r19, 0xFF	; 255
    25bc:	40 e0       	ldi	r20, 0x00	; 0
    25be:	61 e0       	ldi	r22, 0x01	; 1
    25c0:	c8 01       	movw	r24, r16
    25c2:	85 96       	adiw	r24, 0x25	; 37
    25c4:	0e 94 56 08 	call	0x10ac	; 0x10ac <ExtEERead>
            if ((data[0] == 0)||(CheckState(data[0]))) {
    25c8:	89 81       	ldd	r24, Y+1	; 0x01
    25ca:	81 11       	cpse	r24, r1
    25cc:	03 c0       	rjmp	.+6      	; 0x25d4 <FindChild+0x84>
                if ((letter == 0)||(CheckLetter(child, letter))) return child;
    25ce:	d1 10       	cpse	r13, r1
    25d0:	06 c0       	rjmp	.+12     	; 0x25de <FindChild+0x8e>
    25d2:	0e c0       	rjmp	.+28     	; 0x25f0 <FindChild+0xa0>
    while (parent>child){

        //If child's address is higher than the start address, perform search for letter
        if (child>start){
            ExtEERead(child+OFF_BYTEFLDS+VISIBLE_ACL+L_BOILER, 1, GAME, &data[0]);
            if ((data[0] == 0)||(CheckState(data[0]))) {
    25d4:	0e 94 0d 0a 	call	0x141a	; 0x141a <CheckState>
    25d8:	81 11       	cpse	r24, r1
    25da:	f9 cf       	rjmp	.-14     	; 0x25ce <FindChild+0x7e>
    25dc:	e0 cf       	rjmp	.-64     	; 0x259e <FindChild+0x4e>
                if ((letter == 0)||(CheckLetter(child, letter))) return child;
    25de:	6d 2d       	mov	r22, r13
    25e0:	c8 01       	movw	r24, r16
    25e2:	6f df       	rcall	.-290    	; 0x24c2 <CheckLetter>
    25e4:	88 23       	and	r24, r24
    25e6:	d9 f2       	breq	.-74     	; 0x259e <FindChild+0x4e>
    25e8:	03 c0       	rjmp	.+6      	; 0x25f0 <FindChild+0xa0>

        //Not visible or name not right
        ExtEERead(child+L_BOILER, 2, GAME, &data[0]);
        child = (data[0]<<8|data[1]);    //Next object on child level
        
    } return 0;
    25ea:	80 e0       	ldi	r24, 0x00	; 0
    25ec:	90 e0       	ldi	r25, 0x00	; 0
    25ee:	01 c0       	rjmp	.+2      	; 0x25f2 <FindChild+0xa2>
    25f0:	c8 01       	movw	r24, r16
}
    25f2:	24 96       	adiw	r28, 0x04	; 4
    25f4:	cd bf       	out	0x3d, r28	; 61
    25f6:	de bf       	out	0x3e, r29	; 62
    25f8:	df 91       	pop	r29
    25fa:	cf 91       	pop	r28
    25fc:	1f 91       	pop	r17
    25fe:	0f 91       	pop	r16
    2600:	ff 90       	pop	r15
    2602:	ef 90       	pop	r14
    2604:	df 90       	pop	r13
    2606:	bf 90       	pop	r11
    2608:	af 90       	pop	r10
    260a:	08 95       	ret

0000260c <InpOkChk>:

//Allow only a(A) to z(Z) and 0 to 9 as input
uint8_t InpOkChk(uint8_t test){
    test |= 0x20;
    260c:	80 62       	ori	r24, 0x20	; 32
    if ((test>='a')&&(test<='z')) return 1;
    260e:	9f e9       	ldi	r25, 0x9F	; 159
    2610:	98 0f       	add	r25, r24
    2612:	9a 31       	cpi	r25, 0x1A	; 26
    2614:	38 f0       	brcs	.+14     	; 0x2624 <InpOkChk+0x18>
    2616:	90 ed       	ldi	r25, 0xD0	; 208
    2618:	98 0f       	add	r25, r24
    261a:	81 e0       	ldi	r24, 0x01	; 1
    261c:	9a 30       	cpi	r25, 0x0A	; 10
    261e:	18 f0       	brcs	.+6      	; 0x2626 <InpOkChk+0x1a>
    2620:	80 e0       	ldi	r24, 0x00	; 0
    2622:	08 95       	ret
    2624:	81 e0       	ldi	r24, 0x01	; 1
    if ((test>='0')&&(test<='9')) return 1;
    return 0;
}
    2626:	08 95       	ret

00002628 <CleanInput>:

//Cleans input of garbage and returns length of cleaned input "o->d2  !\0" becomes "od2\0"
uint8_t CleanInput(uint8_t *data){
    2628:	0f 93       	push	r16
    262a:	1f 93       	push	r17
    262c:	cf 93       	push	r28
    262e:	df 93       	push	r29
    2630:	8c 01       	movw	r16, r24
    uint8_t cnt = 0;
    for (uint8_t x=0; data[x]!=0; ++x){
    2632:	d0 e0       	ldi	r29, 0x00	; 0
    return 0;
}

//Cleans input of garbage and returns length of cleaned input "o->d2  !\0" becomes "od2\0"
uint8_t CleanInput(uint8_t *data){
    uint8_t cnt = 0;
    2634:	c0 e0       	ldi	r28, 0x00	; 0
    for (uint8_t x=0; data[x]!=0; ++x){
    2636:	f8 01       	movw	r30, r16
    2638:	ed 0f       	add	r30, r29
    263a:	f1 1d       	adc	r31, r1
    263c:	20 81       	ld	r18, Z
    263e:	8c 2f       	mov	r24, r28
    2640:	90 e0       	ldi	r25, 0x00	; 0
    2642:	22 23       	and	r18, r18
    2644:	51 f0       	breq	.+20     	; 0x265a <CleanInput+0x32>
        data[cnt] = data[x];
    2646:	d8 01       	movw	r26, r16
    2648:	a8 0f       	add	r26, r24
    264a:	b9 1f       	adc	r27, r25
    264c:	2c 93       	st	X, r18
        if (InpOkChk(data[x])) ++cnt;
    264e:	80 81       	ld	r24, Z
    2650:	dd df       	rcall	.-70     	; 0x260c <InpOkChk>
    2652:	81 11       	cpse	r24, r1
    2654:	cf 5f       	subi	r28, 0xFF	; 255
}

//Cleans input of garbage and returns length of cleaned input "o->d2  !\0" becomes "od2\0"
uint8_t CleanInput(uint8_t *data){
    uint8_t cnt = 0;
    for (uint8_t x=0; data[x]!=0; ++x){
    2656:	df 5f       	subi	r29, 0xFF	; 255
    2658:	ee cf       	rjmp	.-36     	; 0x2636 <CleanInput+0xe>
        data[cnt] = data[x];
        if (InpOkChk(data[x])) ++cnt;
    }
    data[cnt] = 0;
    265a:	f8 01       	movw	r30, r16
    265c:	e8 0f       	add	r30, r24
    265e:	f9 1f       	adc	r31, r25
    2660:	10 82       	st	Z, r1
    return cnt;
}
    2662:	8c 2f       	mov	r24, r28
    2664:	df 91       	pop	r29
    2666:	cf 91       	pop	r28
    2668:	1f 91       	pop	r17
    266a:	0f 91       	pop	r16
    266c:	08 95       	ret

0000266e <CheckSend>:

//Send routine, optimized for low memory usage
uint8_t CheckSend(){
    266e:	cf 93       	push	r28
    /*if (effect == 0){
        effect = currObj.byteField[EFFECTS];
    }*/

    //Check if more string(part)s have to be sent to the serial output if previous send operation is completed
    if ((txAddrNow < TXLISTLEN) && serTxDone){
    2670:	20 91 4d 3a 	lds	r18, 0x3A4D	; 0x803a4d <txAddrNow>
    2674:	28 30       	cpi	r18, 0x08	; 8
    2676:	08 f0       	brcs	.+2      	; 0x267a <CheckSend+0xc>
    2678:	49 c0       	rjmp	.+146    	; 0x270c <CheckSend+0x9e>
    267a:	80 91 09 38 	lds	r24, 0x3809	; 0x803809 <serTxDone>
    267e:	88 23       	and	r24, r24
    2680:	09 f4       	brne	.+2      	; 0x2684 <CheckSend+0x16>
    2682:	44 c0       	rjmp	.+136    	; 0x270c <CheckSend+0x9e>
        if (txStrLen[txAddrNow] == 0){
    2684:	82 2f       	mov	r24, r18
    2686:	90 e0       	ldi	r25, 0x00	; 0
    2688:	fc 01       	movw	r30, r24
    268a:	e2 5b       	subi	r30, 0xB2	; 178
    268c:	f5 4c       	sbci	r31, 0xC5	; 197
    268e:	e0 81       	ld	r30, Z
    2690:	e1 11       	cpse	r30, r1
    2692:	06 c0       	rjmp	.+12     	; 0x26a0 <CheckSend+0x32>
            txPart = 0;
    2694:	10 92 0c 39 	sts	0x390C, r1	; 0x80390c <txPart.3937>
            txAddrNow = TXLISTLEN;
    2698:	88 e0       	ldi	r24, 0x08	; 8
    269a:	80 93 4d 3a 	sts	0x3A4D, r24	; 0x803a4d <txAddrNow>
    269e:	2e c0       	rjmp	.+92     	; 0x26fc <CheckSend+0x8e>
        } else if (txPart < txStrLen[txAddrNow]){
    26a0:	50 91 0c 39 	lds	r21, 0x390C	; 0x80390c <txPart.3937>
    26a4:	5e 17       	cp	r21, r30
    26a6:	60 f5       	brcc	.+88     	; 0x2700 <CheckSend+0x92>
            EEreadLength = txStrLen[txAddrNow]-txPart;
    26a8:	ce 2f       	mov	r28, r30
    26aa:	c5 1b       	sub	r28, r21
    26ac:	c1 32       	cpi	r28, 0x21	; 33
    26ae:	08 f0       	brcs	.+2      	; 0x26b2 <CheckSend+0x44>
    26b0:	c0 e2       	ldi	r28, 0x20	; 32
            if (EEreadLength>=TXLEN) EEreadLength = TXLEN-1;
            ExtEERead(txAddrList[txAddrNow]+txPart, EEreadLength, txTypeNow, &txBuffer[0]);
    26b2:	88 0f       	add	r24, r24
    26b4:	99 1f       	adc	r25, r25
    26b6:	fc 01       	movw	r30, r24
    26b8:	ea 5a       	subi	r30, 0xAA	; 170
    26ba:	f5 4c       	sbci	r31, 0xC5	; 197
    26bc:	80 81       	ld	r24, Z
    26be:	91 81       	ldd	r25, Z+1	; 0x01
    26c0:	27 ef       	ldi	r18, 0xF7	; 247
    26c2:	3a e3       	ldi	r19, 0x3A	; 58
    26c4:	40 91 4c 3a 	lds	r20, 0x3A4C	; 0x803a4c <txTypeNow>
    26c8:	6c 2f       	mov	r22, r28
    26ca:	85 0f       	add	r24, r21
    26cc:	91 1d       	adc	r25, r1
    26ce:	0e 94 56 08 	call	0x10ac	; 0x10ac <ExtEERead>
            txPart += EEreadLength;
    26d2:	80 91 0c 39 	lds	r24, 0x390C	; 0x80390c <txPart.3937>
    26d6:	8c 0f       	add	r24, r28
    26d8:	80 93 0c 39 	sts	0x390C, r24	; 0x80390c <txPart.3937>
            txBuffer[EEreadLength] = 0; //Add string terminator after piece to send to plug memory leak
    26dc:	ec 2f       	mov	r30, r28
    26de:	f0 e0       	ldi	r31, 0x00	; 0
    26e0:	e9 50       	subi	r30, 0x09	; 9
    26e2:	f5 4c       	sbci	r31, 0xC5	; 197
    26e4:	10 82       	st	Z, r1
            if ((txBuffer[0] == 0) && (EEreadLength)) txBuffer[0] = 0xDB; //Block character when data wrong.
    26e6:	80 91 f7 3a 	lds	r24, 0x3AF7	; 0x803af7 <txBuffer>
    26ea:	81 11       	cpse	r24, r1
    26ec:	03 c0       	rjmp	.+6      	; 0x26f4 <CheckSend+0x86>
    26ee:	8b ed       	ldi	r24, 0xDB	; 219
    26f0:	80 93 f7 3a 	sts	0x3AF7, r24	; 0x803af7 <txBuffer>
            SerSend(&txBuffer[0]);
    26f4:	87 ef       	ldi	r24, 0xF7	; 247
    26f6:	9a e3       	ldi	r25, 0x3A	; 58
    26f8:	0e 94 78 08 	call	0x10f0	; 0x10f0 <SerSend>
        } else {
            txPart = 0;
            ++txAddrNow;
        }
    } else if (serTxDone) return 0; //All is sent!
    return 1; //Still sending, do not change the data in the tx variables
    26fc:	81 e0       	ldi	r24, 0x01	; 1
    26fe:	0b c0       	rjmp	.+22     	; 0x2716 <CheckSend+0xa8>
            txPart += EEreadLength;
            txBuffer[EEreadLength] = 0; //Add string terminator after piece to send to plug memory leak
            if ((txBuffer[0] == 0) && (EEreadLength)) txBuffer[0] = 0xDB; //Block character when data wrong.
            SerSend(&txBuffer[0]);
        } else {
            txPart = 0;
    2700:	10 92 0c 39 	sts	0x390C, r1	; 0x80390c <txPart.3937>
            ++txAddrNow;
    2704:	2f 5f       	subi	r18, 0xFF	; 255
    2706:	20 93 4d 3a 	sts	0x3A4D, r18	; 0x803a4d <txAddrNow>
    270a:	f8 cf       	rjmp	.-16     	; 0x26fc <CheckSend+0x8e>
        }
    } else if (serTxDone) return 0; //All is sent!
    270c:	90 91 09 38 	lds	r25, 0x3809	; 0x803809 <serTxDone>
    2710:	81 e0       	ldi	r24, 0x01	; 1
    2712:	91 11       	cpse	r25, r1
    2714:	80 e0       	ldi	r24, 0x00	; 0
    return 1; //Still sending, do not change the data in the tx variables
}
    2716:	cf 91       	pop	r28
    2718:	08 95       	ret

0000271a <CheckResponse>:

//Send another part of the response and play the effect afterwards
uint8_t CheckResponse(){
    271a:	cf 93       	push	r28
    271c:	df 93       	push	r29
    static uint8_t number = 0;
    if (responseList){
    271e:	c0 91 20 39 	lds	r28, 0x3920	; 0x803920 <responseList>
    2722:	cc 23       	and	r28, r28
    2724:	b1 f1       	breq	.+108    	; 0x2792 <CheckResponse+0x78>
        --responseList;
    2726:	c1 50       	subi	r28, 0x01	; 1
    2728:	c0 93 20 39 	sts	0x3920, r28	; 0x803920 <responseList>
        if (reactStr[0][number] == CURR_LOC) {
    272c:	d0 91 0b 39 	lds	r29, 0x390B	; 0x80390b <number.3941>
    2730:	2d 2f       	mov	r18, r29
    2732:	30 e0       	ldi	r19, 0x00	; 0
    2734:	f9 01       	movw	r30, r18
    2736:	ee 0f       	add	r30, r30
    2738:	ff 1f       	adc	r31, r31
    273a:	ef 5d       	subi	r30, 0xDF	; 223
    273c:	f6 4c       	sbci	r31, 0xC6	; 198
    273e:	80 81       	ld	r24, Z
    2740:	91 81       	ldd	r25, Z+1	; 0x01
    2742:	80 3f       	cpi	r24, 0xF0	; 240
    2744:	4f ef       	ldi	r20, 0xFF	; 255
    2746:	94 07       	cpc	r25, r20
    2748:	51 f4       	brne	.+20     	; 0x275e <CheckResponse+0x44>
            PrepareSending(currObj.addrStr[NAME], currObj.lenStr[NAME], GAME);
    274a:	60 91 3b 3a 	lds	r22, 0x3A3B	; 0x803a3b <currObj+0x1a>
    274e:	70 91 3c 3a 	lds	r23, 0x3A3C	; 0x803a3c <currObj+0x1b>
    2752:	40 e0       	ldi	r20, 0x00	; 0
    2754:	80 91 2d 3a 	lds	r24, 0x3A2D	; 0x803a2d <currObj+0xc>
    2758:	90 91 2e 3a 	lds	r25, 0x3A2E	; 0x803a2e <currObj+0xd>
    275c:	0d c0       	rjmp	.+26     	; 0x2778 <CheckResponse+0x5e>
        } else {
            PrepareSending(reactStr[0][number], reactStr[1][number], reactStr[2][number]);
    275e:	d9 01       	movw	r26, r18
    2760:	aa 0f       	add	r26, r26
    2762:	bb 1f       	adc	r27, r27
    2764:	af 55       	subi	r26, 0x5F	; 95
    2766:	b6 4c       	sbci	r27, 0xC6	; 198
    2768:	22 0f       	add	r18, r18
    276a:	33 1f       	adc	r19, r19
    276c:	f9 01       	movw	r30, r18
    276e:	ef 59       	subi	r30, 0x9F	; 159
    2770:	f6 4c       	sbci	r31, 0xC6	; 198
    2772:	60 81       	ld	r22, Z
    2774:	71 81       	ldd	r23, Z+1	; 0x01
    2776:	4c 91       	ld	r20, X
    2778:	72 dd       	rcall	.-1308   	; 0x225e <PrepareSending>
        }
        number++;
    277a:	df 5f       	subi	r29, 0xFF	; 255
    277c:	d0 93 0b 39 	sts	0x390B, r29	; 0x80390b <number.3941>

        if (responseList == 0) {
    2780:	c1 11       	cpse	r28, r1
    2782:	06 c0       	rjmp	.+12     	; 0x2790 <CheckResponse+0x76>
            //effect = currObj.byteField[EFFECTS];
            RXCNT = 0;
    2784:	1d ba       	out	0x1d, r1	; 29
            serRxDone = 0;
    2786:	10 92 4a 38 	sts	0x384A, r1	; 0x80384a <serRxDone>
            number = 0;
    278a:	10 92 0b 39 	sts	0x390B, r1	; 0x80390b <number.3941>
    278e:	01 c0       	rjmp	.+2      	; 0x2792 <CheckResponse+0x78>
            return 0;
        }
        return 1;
    2790:	c1 e0       	ldi	r28, 0x01	; 1
    }
    return 0;
}
    2792:	8c 2f       	mov	r24, r28
    2794:	df 91       	pop	r29
    2796:	cf 91       	pop	r28
    2798:	08 95       	ret

0000279a <CheckInput>:

//User input check (and validation)
uint8_t CheckInput(uint8_t *data){
    279a:	aa e0       	ldi	r26, 0x0A	; 10
    279c:	b0 e0       	ldi	r27, 0x00	; 0
    279e:	e3 ed       	ldi	r30, 0xD3	; 211
    27a0:	f3 e1       	ldi	r31, 0x13	; 19
    27a2:	0c 94 1b 1f 	jmp	0x3e36	; 0x3e36 <__prologue_saves__+0x6>
    27a6:	8c 01       	movw	r16, r24
    
    //Load game data after reboot
    if (currDepth == 0xff) {
    27a8:	80 91 34 38 	lds	r24, 0x3834	; 0x803834 <currDepth>
    27ac:	8f 3f       	cpi	r24, 0xFF	; 255
    27ae:	49 f4       	brne	.+18     	; 0x27c2 <CheckInput+0x28>
        //Start at first location
        PopulateObject(route[0], &currObj);
    27b0:	61 e2       	ldi	r22, 0x21	; 33
    27b2:	7a e3       	ldi	r23, 0x3A	; 58
    27b4:	80 91 e1 39 	lds	r24, 0x39E1	; 0x8039e1 <route>
    27b8:	90 91 e2 39 	lds	r25, 0x39E2	; 0x8039e2 <route+0x1>
    27bc:	09 de       	rcall	.-1006   	; 0x23d0 <PopulateObject>
        currDepth = 0;
    27be:	10 92 34 38 	sts	0x3834, r1	; 0x803834 <currDepth>
    }

    if (serRxDone){
    27c2:	80 91 4a 38 	lds	r24, 0x384A	; 0x80384a <serRxDone>
    27c6:	88 23       	and	r24, r24
    27c8:	09 f4       	brne	.+2      	; 0x27cc <CheckInput+0x32>
    27ca:	d4 c1       	rjmp	.+936    	; 0x2b74 <CheckInput+0x3da>

        //Special input requested from user by game
        if (specialInput[0]){
    27cc:	80 91 10 39 	lds	r24, 0x3910	; 0x803910 <specialInput>
    27d0:	88 23       	and	r24, r24
    27d2:	09 f4       	brne	.+2      	; 0x27d6 <CheckInput+0x3c>
    27d4:	4f c0       	rjmp	.+158    	; 0x2874 <CheckInput+0xda>
            specialPassed = 0;
    27d6:	10 92 0f 39 	sts	0x390F, r1	; 0x80390f <specialPassed>
            data[0] = 'a';
    27da:	81 e6       	ldi	r24, 0x61	; 97
    27dc:	f8 01       	movw	r30, r16
    27de:	80 83       	st	Z, r24
            
            //Normal code challenge
            if (StartsWith((uint8_t *)&serRx[0], &specialInput[0])) {
    27e0:	60 e1       	ldi	r22, 0x10	; 16
    27e2:	79 e3       	ldi	r23, 0x39	; 57
    27e4:	8b e7       	ldi	r24, 0x7B	; 123
    27e6:	9a e3       	ldi	r25, 0x3A	; 58
    27e8:	20 dd       	rcall	.-1472   	; 0x222a <StartsWith>
    27ea:	f8 2e       	mov	r15, r24
    27ec:	88 23       	and	r24, r24
    27ee:	21 f0       	breq	.+8      	; 0x27f8 <CheckInput+0x5e>
                specialPassed = 1;
    27f0:	81 e0       	ldi	r24, 0x01	; 1
    27f2:	80 93 0f 39 	sts	0x390F, r24	; 0x80390f <specialPassed>
    27f6:	04 c0       	rjmp	.+8      	; 0x2800 <CheckInput+0x66>

            //Special challenge 1
            } else if ((specialInput[0] == '1')&&(specialInput[2] == 0)) {
    27f8:	80 91 10 39 	lds	r24, 0x3910	; 0x803910 <specialInput>
    27fc:	81 33       	cpi	r24, 0x31	; 49
    27fe:	11 f0       	breq	.+4      	; 0x2804 <CheckInput+0x6a>
                responseList = SetStandardResponse((3*MAX_CHEATS));
                return 1;
            }
        } 
        //Data received, but not any of the commands above
        return 0;
    2800:	f1 2c       	mov	r15, r1
    2802:	ba c1       	rjmp	.+884    	; 0x2b78 <CheckInput+0x3de>
            //Normal code challenge
            if (StartsWith((uint8_t *)&serRx[0], &specialInput[0])) {
                specialPassed = 1;

            //Special challenge 1
            } else if ((specialInput[0] == '1')&&(specialInput[2] == 0)) {
    2804:	80 91 12 39 	lds	r24, 0x3912	; 0x803912 <specialInput+0x2>
    2808:	81 11       	cpse	r24, r1
    280a:	fa cf       	rjmp	.-12     	; 0x2800 <CheckInput+0x66>
                uint8_t inputLen = CleanInput((uint8_t *)&serRx[0]);
    280c:	8b e7       	ldi	r24, 0x7B	; 123
    280e:	9a e3       	ldi	r25, 0x3A	; 58
    2810:	0b df       	rcall	.-490    	; 0x2628 <CleanInput>
                specialPassed = 2;
    2812:	92 e0       	ldi	r25, 0x02	; 2
    2814:	90 93 0f 39 	sts	0x390F, r25	; 0x80390f <specialPassed>
                data[1] = 0;
    2818:	f8 01       	movw	r30, r16
    281a:	11 82       	std	Z+1, r1	; 0x01

                if (inputLen >= 2) {
    281c:	82 30       	cpi	r24, 0x02	; 2
    281e:	80 f3       	brcs	.-32     	; 0x2800 <CheckInput+0x66>
                    if ((serRx[0] >= '1') && (serRx[0] <= '4')) {
    2820:	80 91 7b 3a 	lds	r24, 0x3A7B	; 0x803a7b <serRx>
    2824:	81 33       	cpi	r24, 0x31	; 49
    2826:	60 f3       	brcs	.-40     	; 0x2800 <CheckInput+0x66>
    2828:	80 91 7b 3a 	lds	r24, 0x3A7B	; 0x803a7b <serRx>
    282c:	85 33       	cpi	r24, 0x35	; 53
    282e:	40 f7       	brcc	.-48     	; 0x2800 <CheckInput+0x66>
                        serRx[1] |= 0x20;
    2830:	80 91 7c 3a 	lds	r24, 0x3A7C	; 0x803a7c <serRx+0x1>
    2834:	80 62       	ori	r24, 0x20	; 32
    2836:	80 93 7c 3a 	sts	0x3A7C, r24	; 0x803a7c <serRx+0x1>
                        if ((serRx[1] == 'a')||(serRx[1] == 'e')||(serRx[1] == 'f')||(serRx[1] == 'w')) {
    283a:	80 91 7c 3a 	lds	r24, 0x3A7C	; 0x803a7c <serRx+0x1>
    283e:	81 36       	cpi	r24, 0x61	; 97
    2840:	61 f0       	breq	.+24     	; 0x285a <CheckInput+0xc0>
    2842:	80 91 7c 3a 	lds	r24, 0x3A7C	; 0x803a7c <serRx+0x1>
    2846:	85 36       	cpi	r24, 0x65	; 101
    2848:	41 f0       	breq	.+16     	; 0x285a <CheckInput+0xc0>
    284a:	80 91 7c 3a 	lds	r24, 0x3A7C	; 0x803a7c <serRx+0x1>
    284e:	86 36       	cpi	r24, 0x66	; 102
    2850:	21 f0       	breq	.+8      	; 0x285a <CheckInput+0xc0>
    2852:	80 91 7c 3a 	lds	r24, 0x3A7C	; 0x803a7c <serRx+0x1>
    2856:	87 37       	cpi	r24, 0x77	; 119
    2858:	99 f6       	brne	.-90     	; 0x2800 <CheckInput+0x66>
                            data[1] = specialInput[1]+0x11;
    285a:	80 91 11 39 	lds	r24, 0x3911	; 0x803911 <specialInput+0x1>
    285e:	8f 5e       	subi	r24, 0xEF	; 239
    2860:	f8 01       	movw	r30, r16
    2862:	81 83       	std	Z+1, r24	; 0x01
                            data[2] = serRx[0];
    2864:	80 91 7b 3a 	lds	r24, 0x3A7B	; 0x803a7b <serRx>
    2868:	82 83       	std	Z+2, r24	; 0x02
                            data[3] = serRx[1];
    286a:	80 91 7c 3a 	lds	r24, 0x3A7C	; 0x803a7c <serRx+0x1>
    286e:	83 83       	std	Z+3, r24	; 0x03
                            data[4] = 0;
    2870:	14 82       	std	Z+4, r1	; 0x04
    2872:	82 c1       	rjmp	.+772    	; 0x2b78 <CheckInput+0x3de>
        } else {
      
            //SetResponse(0, A_LF, 4, TEASER);

            //Change status bit
            if ((serRx[0] == '#')&&(RXCNT == 6)){
    2874:	80 91 7b 3a 	lds	r24, 0x3A7B	; 0x803a7b <serRx>
    2878:	83 32       	cpi	r24, 0x23	; 35
    287a:	89 f5       	brne	.+98     	; 0x28de <CheckInput+0x144>
    287c:	8d b3       	in	r24, 0x1d	; 29
    287e:	86 30       	cpi	r24, 0x06	; 6
    2880:	71 f5       	brne	.+92     	; 0x28de <CheckInput+0x144>
    2882:	81 e0       	ldi	r24, 0x01	; 1
    2884:	90 e0       	ldi	r25, 0x00	; 0
    2886:	10 e0       	ldi	r17, 0x00	; 0
                uint8_t bitNr = 0;

                for (uint8_t x=1; x<4; ++x) {
                    serRx[x] -= '0';
    2888:	fc 01       	movw	r30, r24
    288a:	e5 58       	subi	r30, 0x85	; 133
    288c:	f5 4c       	sbci	r31, 0xC5	; 197
    288e:	20 81       	ld	r18, Z
    2890:	20 53       	subi	r18, 0x30	; 48
    2892:	20 83       	st	Z, r18
                    bitNr *= 10;
    2894:	11 0f       	add	r17, r17
    2896:	21 2f       	mov	r18, r17
    2898:	22 0f       	add	r18, r18
    289a:	22 0f       	add	r18, r18
    289c:	12 0f       	add	r17, r18
                    if (serRx[1] > 2) break;
    289e:	20 91 7c 3a 	lds	r18, 0x3A7C	; 0x803a7c <serRx+0x1>
    28a2:	23 30       	cpi	r18, 0x03	; 3
    28a4:	48 f4       	brcc	.+18     	; 0x28b8 <CheckInput+0x11e>
                    if (serRx[x] < 10) {
    28a6:	20 81       	ld	r18, Z
    28a8:	2a 30       	cpi	r18, 0x0A	; 10
    28aa:	b8 f4       	brcc	.+46     	; 0x28da <CheckInput+0x140>
                        bitNr += serRx[x];
    28ac:	20 81       	ld	r18, Z
    28ae:	12 0f       	add	r17, r18
    28b0:	01 96       	adiw	r24, 0x01	; 1

            //Change status bit
            if ((serRx[0] == '#')&&(RXCNT == 6)){
                uint8_t bitNr = 0;

                for (uint8_t x=1; x<4; ++x) {
    28b2:	84 30       	cpi	r24, 0x04	; 4
    28b4:	91 05       	cpc	r25, r1
    28b6:	41 f7       	brne	.-48     	; 0x2888 <CheckInput+0xee>
                        continue;
                    }
                    bitNr = 0;
                    break;
                }
                if ((bitNr)&&(bitNr!=128)) {
    28b8:	81 2f       	mov	r24, r17
    28ba:	8f 77       	andi	r24, 0x7F	; 127
    28bc:	71 f0       	breq	.+28     	; 0x28da <CheckInput+0x140>
                    if (Cheat(0xff-bitNr, serRx[4]<<8|serRx[5])) UpdateState(bitNr);
    28be:	80 91 7f 3a 	lds	r24, 0x3A7F	; 0x803a7f <serRx+0x4>
    28c2:	60 91 80 3a 	lds	r22, 0x3A80	; 0x803a80 <serRx+0x5>
    28c6:	70 e0       	ldi	r23, 0x00	; 0
    28c8:	78 2b       	or	r23, r24
    28ca:	81 2f       	mov	r24, r17
    28cc:	80 95       	com	r24
    28ce:	5d dc       	rcall	.-1862   	; 0x218a <Cheat>
    28d0:	88 23       	and	r24, r24
    28d2:	19 f0       	breq	.+6      	; 0x28da <CheckInput+0x140>
    28d4:	81 2f       	mov	r24, r17
    28d6:	0e 94 ec 09 	call	0x13d8	; 0x13d8 <UpdateState>
                }
                
                responseList = SetStandardResponse(1);
    28da:	81 e0       	ldi	r24, 0x01	; 1
    28dc:	48 c1       	rjmp	.+656    	; 0x2b6e <CheckInput+0x3d4>
    28de:	d8 01       	movw	r26, r16
    28e0:	80 e0       	ldi	r24, 0x00	; 0
    28e2:	90 e0       	ldi	r25, 0x00	; 0
                return 1;            
            }
            
            //Read up to the \0 character and convert to lower case.
            for (uint8_t x=0; x<RXLEN; ++x){
                if ((serRx[x]<'A')||(serRx[x]>'Z')) data[x]=serRx[x]; else data[x]=serRx[x]|0x20;
    28e4:	fc 01       	movw	r30, r24
    28e6:	e5 58       	subi	r30, 0x85	; 133
    28e8:	f5 4c       	sbci	r31, 0xC5	; 197
    28ea:	20 81       	ld	r18, Z
    28ec:	21 34       	cpi	r18, 0x41	; 65
    28ee:	18 f0       	brcs	.+6      	; 0x28f6 <CheckInput+0x15c>
    28f0:	20 81       	ld	r18, Z
    28f2:	2b 35       	cpi	r18, 0x5B	; 91
    28f4:	10 f0       	brcs	.+4      	; 0x28fa <CheckInput+0x160>
    28f6:	20 81       	ld	r18, Z
    28f8:	02 c0       	rjmp	.+4      	; 0x28fe <CheckInput+0x164>
    28fa:	20 81       	ld	r18, Z
    28fc:	20 62       	ori	r18, 0x20	; 32
    28fe:	2c 93       	st	X, r18
                if (serRx[x] == 0) {
    2900:	20 81       	ld	r18, Z
    2902:	21 11       	cpse	r18, r1
    2904:	05 c0       	rjmp	.+10     	; 0x2910 <CheckInput+0x176>
                    data[x] = 0;
    2906:	f8 01       	movw	r30, r16
    2908:	e8 0f       	add	r30, r24
    290a:	f1 1d       	adc	r31, r1
    290c:	10 82       	st	Z, r1
                    break;
    290e:	05 c0       	rjmp	.+10     	; 0x291a <CheckInput+0x180>
    2910:	01 96       	adiw	r24, 0x01	; 1
    2912:	11 96       	adiw	r26, 0x01	; 1
                
                return 1;            
            }
            
            //Read up to the \0 character and convert to lower case.
            for (uint8_t x=0; x<RXLEN; ++x){
    2914:	81 34       	cpi	r24, 0x41	; 65
    2916:	91 05       	cpc	r25, r1
    2918:	29 f7       	brne	.-54     	; 0x28e4 <CheckInput+0x14a>
                    break;
                }
            }

            //No text
            if (serRx[0] == 0){
    291a:	80 91 7b 3a 	lds	r24, 0x3A7B	; 0x803a7b <serRx>
                data[0] = 0;
    291e:	f8 01       	movw	r30, r16
                    break;
                }
            }

            //No text
            if (serRx[0] == 0){
    2920:	81 11       	cpse	r24, r1
    2922:	05 c0       	rjmp	.+10     	; 0x292e <CheckInput+0x194>
                data[0] = 0;
    2924:	10 82       	st	Z, r1
                RXCNT = 0;
    2926:	1d ba       	out	0x1d, r1	; 29
                serRxDone = 0;
    2928:	10 92 4a 38 	sts	0x384A, r1	; 0x80384a <serRxDone>
    292c:	23 c1       	rjmp	.+582    	; 0x2b74 <CheckInput+0x3da>
                return 1;
            }

            //Help text
            if ((data[0] == '?')||(data[0] == 'h')){
    292e:	80 81       	ld	r24, Z
    2930:	8f 33       	cpi	r24, 0x3F	; 63
    2932:	11 f0       	breq	.+4      	; 0x2938 <CheckInput+0x19e>
    2934:	88 36       	cpi	r24, 0x68	; 104
    2936:	49 f4       	brne	.+18     	; 0x294a <CheckInput+0x1b0>
    return 0;
}

//
void SetResponse(uint8_t number, uint16_t address, uint16_t length, uint8_t type){
    reactStr[0][number]=address;
    2938:	83 e9       	ldi	r24, 0x93	; 147
    293a:	9b e7       	ldi	r25, 0x7B	; 123
    293c:	80 93 23 39 	sts	0x3923, r24	; 0x803923 <reactStr+0x2>
    2940:	90 93 24 39 	sts	0x3924, r25	; 0x803924 <reactStr+0x3>
    reactStr[1][number]=length;
    2944:	8d e6       	ldi	r24, 0x6D	; 109
    2946:	94 e0       	ldi	r25, 0x04	; 4
    2948:	0a c0       	rjmp	.+20     	; 0x295e <CheckInput+0x1c4>
                responseList = SetStandardResponse(2);
                return 1;
            }        
        
            //Alphabet text
            if (data[0] == 'a'){
    294a:	81 36       	cpi	r24, 0x61	; 97
    294c:	a1 f4       	brne	.+40     	; 0x2976 <CheckInput+0x1dc>
    return 0;
}

//
void SetResponse(uint8_t number, uint16_t address, uint16_t length, uint8_t type){
    reactStr[0][number]=address;
    294e:	8e e6       	ldi	r24, 0x6E	; 110
    2950:	9a e7       	ldi	r25, 0x7A	; 122
    2952:	80 93 23 39 	sts	0x3923, r24	; 0x803923 <reactStr+0x2>
    2956:	90 93 24 39 	sts	0x3924, r25	; 0x803924 <reactStr+0x3>
    reactStr[1][number]=length;
    295a:	85 e2       	ldi	r24, 0x25	; 37
    295c:	91 e0       	ldi	r25, 0x01	; 1
    295e:	80 93 63 39 	sts	0x3963, r24	; 0x803963 <reactStr+0x42>
    2962:	90 93 64 39 	sts	0x3964, r25	; 0x803964 <reactStr+0x43>
    reactStr[2][number]=type;
    2966:	81 e0       	ldi	r24, 0x01	; 1
    2968:	90 e0       	ldi	r25, 0x00	; 0
    296a:	80 93 a3 39 	sts	0x39A3, r24	; 0x8039a3 <reactStr+0x82>
    296e:	90 93 a4 39 	sts	0x39A4, r25	; 0x8039a4 <reactStr+0x83>
            }        
        
            //Alphabet text
            if (data[0] == 'a'){
                SetResponse(1, A_ALPHABET, L_ALPHABET, TEASER);
                responseList = SetStandardResponse(2);
    2972:	82 e0       	ldi	r24, 0x02	; 2
    2974:	fc c0       	rjmp	.+504    	; 0x2b6e <CheckInput+0x3d4>
                return 1;
            }

            //Whoami text
            if (data[0] == 'w'){
    2976:	87 37       	cpi	r24, 0x77	; 119
    2978:	09 f0       	breq	.+2      	; 0x297c <CheckInput+0x1e2>
    297a:	41 c0       	rjmp	.+130    	; 0x29fe <CheckInput+0x264>
    return 0;
}

//
void SetResponse(uint8_t number, uint16_t address, uint16_t length, uint8_t type){
    reactStr[0][number]=address;
    297c:	8d e8       	ldi	r24, 0x8D	; 141
    297e:	96 e7       	ldi	r25, 0x76	; 118
    2980:	80 93 23 39 	sts	0x3923, r24	; 0x803923 <reactStr+0x2>
    2984:	90 93 24 39 	sts	0x3924, r25	; 0x803924 <reactStr+0x3>
    reactStr[1][number]=length;
    2988:	82 e1       	ldi	r24, 0x12	; 18
    298a:	90 e0       	ldi	r25, 0x00	; 0
    298c:	80 93 63 39 	sts	0x3963, r24	; 0x803963 <reactStr+0x42>
    2990:	90 93 64 39 	sts	0x3964, r25	; 0x803964 <reactStr+0x43>
    reactStr[2][number]=type;
    2994:	21 e0       	ldi	r18, 0x01	; 1
    2996:	30 e0       	ldi	r19, 0x00	; 0
    2998:	20 93 a3 39 	sts	0x39A3, r18	; 0x8039a3 <reactStr+0x82>
    299c:	30 93 a4 39 	sts	0x39A4, r19	; 0x8039a4 <reactStr+0x83>
            }

            //Whoami text
            if (data[0] == 'w'){
                SetResponse(1, A_HELLO, L_HELLO, TEASER);
                SetResponse(2, names[0][whoami-1], names[1][whoami-1], TEASER);
    29a0:	80 91 43 38 	lds	r24, 0x3843	; 0x803843 <whoami>
    29a4:	90 e0       	ldi	r25, 0x00	; 0
    29a6:	fc 01       	movw	r30, r24
    29a8:	ee 0f       	add	r30, r30
    29aa:	ff 1f       	adc	r31, r31
    29ac:	e8 5b       	subi	r30, 0xB8	; 184
    29ae:	f0 44       	sbci	r31, 0x40	; 64
    29b0:	40 81       	ld	r20, Z
    29b2:	51 81       	ldd	r21, Z+1	; 0x01
    29b4:	88 0f       	add	r24, r24
    29b6:	99 1f       	adc	r25, r25
    29b8:	fc 01       	movw	r30, r24
    29ba:	e0 5c       	subi	r30, 0xC0	; 192
    29bc:	f0 44       	sbci	r31, 0x40	; 64
    return 0;
}

//
void SetResponse(uint8_t number, uint16_t address, uint16_t length, uint8_t type){
    reactStr[0][number]=address;
    29be:	80 81       	ld	r24, Z
    29c0:	91 81       	ldd	r25, Z+1	; 0x01
    29c2:	80 93 25 39 	sts	0x3925, r24	; 0x803925 <reactStr+0x4>
    29c6:	90 93 26 39 	sts	0x3926, r25	; 0x803926 <reactStr+0x5>
    reactStr[1][number]=length;
    29ca:	40 93 65 39 	sts	0x3965, r20	; 0x803965 <reactStr+0x44>
    29ce:	50 93 66 39 	sts	0x3966, r21	; 0x803966 <reactStr+0x45>
    reactStr[2][number]=type;
    29d2:	20 93 a5 39 	sts	0x39A5, r18	; 0x8039a5 <reactStr+0x84>
    29d6:	30 93 a6 39 	sts	0x39A6, r19	; 0x8039a6 <reactStr+0x85>
    return 0;
}

//
void SetResponse(uint8_t number, uint16_t address, uint16_t length, uint8_t type){
    reactStr[0][number]=address;
    29da:	8f e5       	ldi	r24, 0x5F	; 95
    29dc:	96 e7       	ldi	r25, 0x76	; 118
    29de:	80 93 27 39 	sts	0x3927, r24	; 0x803927 <reactStr+0x6>
    29e2:	90 93 28 39 	sts	0x3928, r25	; 0x803928 <reactStr+0x7>
    reactStr[1][number]=length;
    29e6:	8a e1       	ldi	r24, 0x1A	; 26
    29e8:	90 e0       	ldi	r25, 0x00	; 0
    29ea:	80 93 67 39 	sts	0x3967, r24	; 0x803967 <reactStr+0x46>
    29ee:	90 93 68 39 	sts	0x3968, r25	; 0x803968 <reactStr+0x47>
    reactStr[2][number]=type;
    29f2:	20 93 a7 39 	sts	0x39A7, r18	; 0x8039a7 <reactStr+0x86>
    29f6:	30 93 a8 39 	sts	0x39A8, r19	; 0x8039a8 <reactStr+0x87>
                } else {
                    SetResponse(2, A_ERROR, L_ERROR, TEASER);
                }*/

                SetResponse(3, A_PLEASED, L_PLEASED, TEASER);
                responseList = SetStandardResponse(4);
    29fa:	84 e0       	ldi	r24, 0x04	; 4
                responseList = SetStandardResponse(2);
                return 1;
            }*/

            //Fake cheat = reset badge!
            if (StartsWith(&data[0], "iddqd")){
    29fc:	b8 c0       	rjmp	.+368    	; 0x2b6e <CheckInput+0x3d4>
    29fe:	6e e1       	ldi	r22, 0x1E	; 30
    2a00:	7f eb       	ldi	r23, 0xBF	; 191
    2a02:	c8 01       	movw	r24, r16
    2a04:	12 dc       	rcall	.-2012   	; 0x222a <StartsWith>
    2a06:	88 23       	and	r24, r24
    2a08:	19 f1       	breq	.+70     	; 0x2a50 <CheckInput+0x2b6>
            
                //Reset game data by wiping the UUID bits
                for (uint8_t x=0; x<4; ++x){
                    UpdateState(128+110+x);
    2a0a:	8e ee       	ldi	r24, 0xEE	; 238
    2a0c:	0e 94 ec 09 	call	0x13d8	; 0x13d8 <UpdateState>
    2a10:	8f ee       	ldi	r24, 0xEF	; 239
    2a12:	0e 94 ec 09 	call	0x13d8	; 0x13d8 <UpdateState>
    2a16:	80 ef       	ldi	r24, 0xF0	; 240
    2a18:	0e 94 ec 09 	call	0x13d8	; 0x13d8 <UpdateState>
    2a1c:	81 ef       	ldi	r24, 0xF1	; 241
    2a1e:	0e 94 ec 09 	call	0x13d8	; 0x13d8 <UpdateState>
                }
                SaveGameState();
    2a22:	0e 94 65 09 	call	0x12ca	; 0x12ca <SaveGameState>

                uint8_t cheat[] = "Gotcha! ";
    2a26:	89 e0       	ldi	r24, 0x09	; 9
    2a28:	e1 e3       	ldi	r30, 0x31	; 49
    2a2a:	ff eb       	ldi	r31, 0xBF	; 191
    2a2c:	de 01       	movw	r26, r28
    2a2e:	11 96       	adiw	r26, 0x01	; 1
    2a30:	01 90       	ld	r0, Z+
    2a32:	0d 92       	st	X+, r0
    2a34:	8a 95       	dec	r24
    2a36:	e1 f7       	brne	.-8      	; 0x2a30 <CheckInput+0x296>
                SerSpeed(60);
    2a38:	8c e3       	ldi	r24, 0x3C	; 60
    2a3a:	0e 94 89 08 	call	0x1112	; 0x1112 <SerSpeed>
                while(1){
                    if (serTxDone) SerSend(&cheat[0]);
    2a3e:	80 91 09 38 	lds	r24, 0x3809	; 0x803809 <serTxDone>
    2a42:	88 23       	and	r24, r24
    2a44:	e1 f3       	breq	.-8      	; 0x2a3e <CheckInput+0x2a4>
    2a46:	ce 01       	movw	r24, r28
    2a48:	01 96       	adiw	r24, 0x01	; 1
    2a4a:	0e 94 78 08 	call	0x10f0	; 0x10f0 <SerSend>
                }
            }
            
            //Cheat reset
            if (StartsWith(&data[0], "ikillu")){
    2a4e:	f7 cf       	rjmp	.-18     	; 0x2a3e <CheckInput+0x2a4>
    2a50:	64 e2       	ldi	r22, 0x24	; 36
    2a52:	7f eb       	ldi	r23, 0xBF	; 191
    2a54:	c8 01       	movw	r24, r16
    2a56:	e9 db       	rcall	.-2094   	; 0x222a <StartsWith>
    2a58:	88 23       	and	r24, r24
    2a5a:	81 f1       	breq	.+96     	; 0x2abc <CheckInput+0x322>
                
                //Reset cheat data by resetting the EEPROM bytes
                uint8_t empty=0xff;
    2a5c:	8f ef       	ldi	r24, 0xFF	; 255
    2a5e:	8a 87       	std	Y+10, r24	; 0x0a
    2a60:	18 e1       	ldi	r17, 0x18	; 24
                for (uint8_t x=0; x<MAX_CHEATS; ++x){
                    EEWrite(CHEATS+x, &empty, 1);
    2a62:	41 e0       	ldi	r20, 0x01	; 1
    2a64:	be 01       	movw	r22, r28
    2a66:	66 5f       	subi	r22, 0xF6	; 246
    2a68:	7f 4f       	sbci	r23, 0xFF	; 255
    2a6a:	81 2f       	mov	r24, r17
    2a6c:	0e 94 14 08 	call	0x1028	; 0x1028 <EEWrite>
    2a70:	1f 5f       	subi	r17, 0xFF	; 255
            //Cheat reset
            if (StartsWith(&data[0], "ikillu")){
                
                //Reset cheat data by resetting the EEPROM bytes
                uint8_t empty=0xff;
                for (uint8_t x=0; x<MAX_CHEATS; ++x){
    2a72:	10 32       	cpi	r17, 0x20	; 32
    2a74:	b1 f7       	brne	.-20     	; 0x2a62 <CheckInput+0x2c8>
                    EEWrite(CHEATS+x, &empty, 1);
                }
                //Reset game data by wiping the UUID bits
                for (uint8_t x=0; x<4; ++x){
                    UpdateState(128+110+x);
    2a76:	8e ee       	ldi	r24, 0xEE	; 238
    2a78:	0e 94 ec 09 	call	0x13d8	; 0x13d8 <UpdateState>
    2a7c:	8f ee       	ldi	r24, 0xEF	; 239
    2a7e:	0e 94 ec 09 	call	0x13d8	; 0x13d8 <UpdateState>
    2a82:	80 ef       	ldi	r24, 0xF0	; 240
    2a84:	0e 94 ec 09 	call	0x13d8	; 0x13d8 <UpdateState>
    2a88:	81 ef       	ldi	r24, 0xF1	; 241
    2a8a:	0e 94 ec 09 	call	0x13d8	; 0x13d8 <UpdateState>
                }
                
                SaveGameState();
    2a8e:	0e 94 65 09 	call	0x12ca	; 0x12ca <SaveGameState>

                uint8_t cheat[] = "Reset! ";
    2a92:	88 e0       	ldi	r24, 0x08	; 8
    2a94:	ea e3       	ldi	r30, 0x3A	; 58
    2a96:	ff eb       	ldi	r31, 0xBF	; 191
    2a98:	de 01       	movw	r26, r28
    2a9a:	11 96       	adiw	r26, 0x01	; 1
    2a9c:	01 90       	ld	r0, Z+
    2a9e:	0d 92       	st	X+, r0
    2aa0:	8a 95       	dec	r24
    2aa2:	e1 f7       	brne	.-8      	; 0x2a9c <CheckInput+0x302>
                SerSpeed(60);
    2aa4:	8c e3       	ldi	r24, 0x3C	; 60
    2aa6:	0e 94 89 08 	call	0x1112	; 0x1112 <SerSpeed>
                while(1){
                    if (serTxDone) SerSend(&cheat[0]);
    2aaa:	80 91 09 38 	lds	r24, 0x3809	; 0x803809 <serTxDone>
    2aae:	88 23       	and	r24, r24
    2ab0:	e1 f3       	breq	.-8      	; 0x2aaa <CheckInput+0x310>
    2ab2:	ce 01       	movw	r24, r28
    2ab4:	01 96       	adiw	r24, 0x01	; 1
    2ab6:	0e 94 78 08 	call	0x10f0	; 0x10f0 <SerSend>
                }
            }

            //Show used cheat codes
            if (StartsWith(&data[0], "cheat")){
    2aba:	f7 cf       	rjmp	.-18     	; 0x2aaa <CheckInput+0x310>
    2abc:	6b e2       	ldi	r22, 0x2B	; 43
    2abe:	7f eb       	ldi	r23, 0xBF	; 191
    2ac0:	c8 01       	movw	r24, r16
    2ac2:	b3 db       	rcall	.-2202   	; 0x222a <StartsWith>
    2ac4:	88 23       	and	r24, r24
    2ac6:	09 f4       	brne	.+2      	; 0x2aca <CheckInput+0x330>
    2ac8:	9b ce       	rjmp	.-714    	; 0x2800 <CheckInput+0x66>
    2aca:	81 e2       	ldi	r24, 0x21	; 33
    2acc:	c8 2e       	mov	r12, r24
    2ace:	89 e3       	ldi	r24, 0x39	; 57
    2ad0:	d8 2e       	mov	r13, r24
    2ad2:	91 e6       	ldi	r25, 0x61	; 97
    2ad4:	e9 2e       	mov	r14, r25
    2ad6:	99 e3       	ldi	r25, 0x39	; 57
    2ad8:	f9 2e       	mov	r15, r25
    2ada:	01 ea       	ldi	r16, 0xA1	; 161
    2adc:	19 e3       	ldi	r17, 0x39	; 57
    2ade:	28 e1       	ldi	r18, 0x18	; 24
    2ae0:	52 2e       	mov	r5, r18
}

//
void SetResponse(uint8_t number, uint16_t address, uint16_t length, uint8_t type){
    reactStr[0][number]=address;
    reactStr[1][number]=length;
    2ae2:	aa 24       	eor	r10, r10
    2ae4:	a3 94       	inc	r10
    2ae6:	b1 2c       	mov	r11, r1
    return 0;
}

//
void SetResponse(uint8_t number, uint16_t address, uint16_t length, uint8_t type){
    reactStr[0][number]=address;
    2ae8:	47 e5       	ldi	r20, 0x57	; 87
    2aea:	84 2e       	mov	r8, r20
    2aec:	4a e7       	ldi	r20, 0x7A	; 122
    2aee:	94 2e       	mov	r9, r20
    reactStr[1][number]=length;
    2af0:	52 e0       	ldi	r21, 0x02	; 2
    2af2:	65 2e       	mov	r6, r21
    2af4:	71 2c       	mov	r7, r1
            if (StartsWith(&data[0], "cheat")){
                uint8_t bit;
                for (uint8_t x=0; x<MAX_CHEATS; ++x){
                    
                    //Set up sending out number
                    EERead(CHEATS+x, &bit, 1);
    2af6:	41 e0       	ldi	r20, 0x01	; 1
    2af8:	be 01       	movw	r22, r28
    2afa:	6f 5f       	subi	r22, 0xFF	; 255
    2afc:	7f 4f       	sbci	r23, 0xFF	; 255
    2afe:	85 2d       	mov	r24, r5
    2b00:	0e 94 04 08 	call	0x1008	; 0x1008 <EERead>
                    bit = 0xff-bit;
    2b04:	89 81       	ldd	r24, Y+1	; 0x01
    2b06:	80 95       	com	r24
    2b08:	89 83       	std	Y+1, r24	; 0x01
    return 0;
}

//
void SetResponse(uint8_t number, uint16_t address, uint16_t length, uint8_t type){
    reactStr[0][number]=address;
    2b0a:	28 2f       	mov	r18, r24
    2b0c:	22 95       	swap	r18
    2b0e:	2f 70       	andi	r18, 0x0F	; 15
    2b10:	30 e0       	ldi	r19, 0x00	; 0
    2b12:	23 57       	subi	r18, 0x73	; 115
    2b14:	3b 48       	sbci	r19, 0x8B	; 139
    2b16:	f6 01       	movw	r30, r12
    2b18:	20 83       	st	Z, r18
    2b1a:	31 83       	std	Z+1, r19	; 0x01
    reactStr[1][number]=length;
    2b1c:	f7 01       	movw	r30, r14
    2b1e:	a0 82       	st	Z, r10
    2b20:	b1 82       	std	Z+1, r11	; 0x01
    reactStr[2][number]=type;
    2b22:	f8 01       	movw	r30, r16
    2b24:	a0 82       	st	Z, r10
    2b26:	b1 82       	std	Z+1, r11	; 0x01
    return 0;
}

//
void SetResponse(uint8_t number, uint16_t address, uint16_t length, uint8_t type){
    reactStr[0][number]=address;
    2b28:	8f 70       	andi	r24, 0x0F	; 15
    2b2a:	90 e0       	ldi	r25, 0x00	; 0
    2b2c:	83 57       	subi	r24, 0x73	; 115
    2b2e:	9b 48       	sbci	r25, 0x8B	; 139
    2b30:	f6 01       	movw	r30, r12
    2b32:	82 83       	std	Z+2, r24	; 0x02
    2b34:	93 83       	std	Z+3, r25	; 0x03
    reactStr[1][number]=length;
    2b36:	f7 01       	movw	r30, r14
    2b38:	a2 82       	std	Z+2, r10	; 0x02
    2b3a:	b3 82       	std	Z+3, r11	; 0x03
    reactStr[2][number]=type;
    2b3c:	f8 01       	movw	r30, r16
    2b3e:	a2 82       	std	Z+2, r10	; 0x02
    2b40:	b3 82       	std	Z+3, r11	; 0x03
    return 0;
}

//
void SetResponse(uint8_t number, uint16_t address, uint16_t length, uint8_t type){
    reactStr[0][number]=address;
    2b42:	f6 01       	movw	r30, r12
    2b44:	84 82       	std	Z+4, r8	; 0x04
    2b46:	95 82       	std	Z+5, r9	; 0x05
    reactStr[1][number]=length;
    2b48:	f7 01       	movw	r30, r14
    2b4a:	64 82       	std	Z+4, r6	; 0x04
    2b4c:	75 82       	std	Z+5, r7	; 0x05
    reactStr[2][number]=type;
    2b4e:	f8 01       	movw	r30, r16
    2b50:	a4 82       	std	Z+4, r10	; 0x04
    2b52:	b5 82       	std	Z+5, r11	; 0x05
    2b54:	53 94       	inc	r5
    2b56:	f6 e0       	ldi	r31, 0x06	; 6
    2b58:	cf 0e       	add	r12, r31
    2b5a:	d1 1c       	adc	r13, r1
    2b5c:	86 e0       	ldi	r24, 0x06	; 6
    2b5e:	e8 0e       	add	r14, r24
    2b60:	f1 1c       	adc	r15, r1
    2b62:	0a 5f       	subi	r16, 0xFA	; 250
            }

            //Show used cheat codes
            if (StartsWith(&data[0], "cheat")){
                uint8_t bit;
                for (uint8_t x=0; x<MAX_CHEATS; ++x){
    2b64:	1f 4f       	sbci	r17, 0xFF	; 255
    2b66:	e0 e2       	ldi	r30, 0x20	; 32
    2b68:	5e 12       	cpse	r5, r30
                    //SetResponse(x*4, A_HEXPREFIX, L_HEXPREFIX, TEASER);
                    SetResponse(x*3, A_DIGITS+(bit>>4), 1, TEASER);               
                    SetResponse(x*3+1, A_DIGITS+(bit%16), 1, TEASER);
                    SetResponse(x*3+2, A_COMMA, L_COMMA, TEASER);
                }
                responseList = SetStandardResponse((3*MAX_CHEATS));
    2b6a:	c5 cf       	rjmp	.-118    	; 0x2af6 <CheckInput+0x35c>
    2b6c:	88 e1       	ldi	r24, 0x18	; 24
    2b6e:	b4 db       	rcall	.-2200   	; 0x22d8 <SetStandardResponse>
    2b70:	80 93 20 39 	sts	0x3920, r24	; 0x803920 <responseList>
        //Data received, but not any of the commands above
        return 0;
    }

    //Serial input not available yet
    return 1;
    2b74:	ff 24       	eor	r15, r15
    2b76:	f3 94       	inc	r15
}
    2b78:	8f 2d       	mov	r24, r15
    2b7a:	2a 96       	adiw	r28, 0x0a	; 10
    2b7c:	ef e0       	ldi	r30, 0x0F	; 15
    2b7e:	0c 94 34 1f 	jmp	0x3e68	; 0x3e68 <__epilogue_restores__+0x6>

00002b82 <ShowInventory>:

uint8_t ShowInventory(uint8_t elements){
    2b82:	ab e2       	ldi	r26, 0x2B	; 43
    2b84:	b0 e0       	ldi	r27, 0x00	; 0
    2b86:	e7 ec       	ldi	r30, 0xC7	; 199
    2b88:	f5 e1       	ldi	r31, 0x15	; 21
    2b8a:	0c 94 1f 1f 	jmp	0x3e3e	; 0x3e3e <__prologue_saves__+0xe>
    object_model_t actObj1;

    SetResponse(elements++, A_NOWCARRING, L_NOWCARRING, TEASER);
    2b8e:	99 24       	eor	r9, r9
    2b90:	93 94       	inc	r9
    2b92:	98 0e       	add	r9, r24
    return 0;
}

//
void SetResponse(uint8_t number, uint16_t address, uint16_t length, uint8_t type){
    reactStr[0][number]=address;
    2b94:	90 e0       	ldi	r25, 0x00	; 0
    2b96:	fc 01       	movw	r30, r24
    2b98:	ee 0f       	add	r30, r30
    2b9a:	ff 1f       	adc	r31, r31
    2b9c:	ef 5d       	subi	r30, 0xDF	; 223
    2b9e:	f6 4c       	sbci	r31, 0xC6	; 198
    2ba0:	2c ec       	ldi	r18, 0xCC	; 204
    2ba2:	37 e7       	ldi	r19, 0x77	; 119
    2ba4:	20 83       	st	Z, r18
    2ba6:	31 83       	std	Z+1, r19	; 0x01
    reactStr[1][number]=length;
    2ba8:	fc 01       	movw	r30, r24
    2baa:	ee 0f       	add	r30, r30
    2bac:	ff 1f       	adc	r31, r31
    2bae:	ef 59       	subi	r30, 0x9F	; 159
    2bb0:	f6 4c       	sbci	r31, 0xC6	; 198
    2bb2:	26 e1       	ldi	r18, 0x16	; 22
    2bb4:	30 e0       	ldi	r19, 0x00	; 0
    2bb6:	20 83       	st	Z, r18
    2bb8:	31 83       	std	Z+1, r19	; 0x01
    reactStr[2][number]=type;
    2bba:	88 0f       	add	r24, r24
    2bbc:	99 1f       	adc	r25, r25
    2bbe:	fc 01       	movw	r30, r24
    2bc0:	ef 55       	subi	r30, 0x5F	; 95
    2bc2:	f6 4c       	sbci	r31, 0xC6	; 198
    2bc4:	81 e0       	ldi	r24, 0x01	; 1
    2bc6:	90 e0       	ldi	r25, 0x00	; 0
    2bc8:	80 83       	st	Z, r24
    2bca:	91 83       	std	Z+1, r25	; 0x01
    2bcc:	04 e4       	ldi	r16, 0x44	; 68
    2bce:	18 e3       	ldi	r17, 0x38	; 56
    return 0;
}

//
void SetResponse(uint8_t number, uint16_t address, uint16_t length, uint8_t type){
    reactStr[0][number]=address;
    2bd0:	37 e5       	ldi	r19, 0x57	; 87
    2bd2:	e3 2e       	mov	r14, r19
    2bd4:	3a e7       	ldi	r19, 0x7A	; 122
    2bd6:	f3 2e       	mov	r15, r19
    reactStr[1][number]=length;
    2bd8:	42 e0       	ldi	r20, 0x02	; 2
    2bda:	c4 2e       	mov	r12, r20
    2bdc:	d1 2c       	mov	r13, r1
    reactStr[2][number]=type;
    2bde:	aa 24       	eor	r10, r10
    2be0:	a3 94       	inc	r10
    2be2:	b1 2c       	mov	r11, r1
    object_model_t actObj1;

    SetResponse(elements++, A_NOWCARRING, L_NOWCARRING, TEASER);

    for (uint8_t x=0; x<2; ++x) {
        if (inventory[x]) {
    2be4:	f8 01       	movw	r30, r16
    2be6:	81 91       	ld	r24, Z+
    2be8:	91 91       	ld	r25, Z+
    2bea:	8f 01       	movw	r16, r30
    2bec:	00 97       	sbiw	r24, 0x00	; 0
    2bee:	c9 f1       	breq	.+114    	; 0x2c62 <ShowInventory+0xe0>
            PopulateObject(inventory[x], &actObj1);
    2bf0:	be 01       	movw	r22, r28
    2bf2:	6f 5f       	subi	r22, 0xFF	; 255
    2bf4:	7f 4f       	sbci	r23, 0xFF	; 255
    2bf6:	ec db       	rcall	.-2088   	; 0x23d0 <PopulateObject>
            SetResponse(elements++, actObj1.addrStr[NAME], actObj1.lenStr[NAME], GAME);
    2bf8:	2b 8d       	ldd	r18, Y+27	; 0x1b
    2bfa:	3c 8d       	ldd	r19, Y+28	; 0x1c
    return 0;
}

//
void SetResponse(uint8_t number, uint16_t address, uint16_t length, uint8_t type){
    reactStr[0][number]=address;
    2bfc:	89 2d       	mov	r24, r9
    2bfe:	90 e0       	ldi	r25, 0x00	; 0
    2c00:	fc 01       	movw	r30, r24
    2c02:	ee 0f       	add	r30, r30
    2c04:	ff 1f       	adc	r31, r31
    2c06:	ef 5d       	subi	r30, 0xDF	; 223
    2c08:	f6 4c       	sbci	r31, 0xC6	; 198
    2c0a:	4d 85       	ldd	r20, Y+13	; 0x0d
    2c0c:	5e 85       	ldd	r21, Y+14	; 0x0e
    2c0e:	40 83       	st	Z, r20
    2c10:	51 83       	std	Z+1, r21	; 0x01
    reactStr[1][number]=length;
    2c12:	fc 01       	movw	r30, r24
    2c14:	ee 0f       	add	r30, r30
    2c16:	ff 1f       	adc	r31, r31
    2c18:	ef 59       	subi	r30, 0x9F	; 159
    2c1a:	f6 4c       	sbci	r31, 0xC6	; 198
    2c1c:	20 83       	st	Z, r18
    2c1e:	31 83       	std	Z+1, r19	; 0x01
    reactStr[2][number]=type;
    2c20:	88 0f       	add	r24, r24
    2c22:	99 1f       	adc	r25, r25
    2c24:	fc 01       	movw	r30, r24
    2c26:	ef 55       	subi	r30, 0x5F	; 95
    2c28:	f6 4c       	sbci	r31, 0xC6	; 198
    2c2a:	10 82       	st	Z, r1
    2c2c:	11 82       	std	Z+1, r1	; 0x01
    return 0;
}

//
void SetResponse(uint8_t number, uint16_t address, uint16_t length, uint8_t type){
    reactStr[0][number]=address;
    2c2e:	81 e0       	ldi	r24, 0x01	; 1
    2c30:	89 0d       	add	r24, r9
    2c32:	90 e0       	ldi	r25, 0x00	; 0
    2c34:	93 94       	inc	r9
    2c36:	93 94       	inc	r9
    2c38:	fc 01       	movw	r30, r24
    2c3a:	ee 0f       	add	r30, r30
    2c3c:	ff 1f       	adc	r31, r31
    2c3e:	ef 5d       	subi	r30, 0xDF	; 223
    2c40:	f6 4c       	sbci	r31, 0xC6	; 198
    2c42:	e0 82       	st	Z, r14
    2c44:	f1 82       	std	Z+1, r15	; 0x01
    reactStr[1][number]=length;
    2c46:	fc 01       	movw	r30, r24
    2c48:	ee 0f       	add	r30, r30
    2c4a:	ff 1f       	adc	r31, r31
    2c4c:	ef 59       	subi	r30, 0x9F	; 159
    2c4e:	f6 4c       	sbci	r31, 0xC6	; 198
    2c50:	c0 82       	st	Z, r12
    2c52:	d1 82       	std	Z+1, r13	; 0x01
    reactStr[2][number]=type;
    2c54:	88 0f       	add	r24, r24
    2c56:	99 1f       	adc	r25, r25
    2c58:	fc 01       	movw	r30, r24
    2c5a:	ef 55       	subi	r30, 0x5F	; 95
    2c5c:	f6 4c       	sbci	r31, 0xC6	; 198
    2c5e:	a0 82       	st	Z, r10
    2c60:	b1 82       	std	Z+1, r11	; 0x01
uint8_t ShowInventory(uint8_t elements){
    object_model_t actObj1;

    SetResponse(elements++, A_NOWCARRING, L_NOWCARRING, TEASER);

    for (uint8_t x=0; x<2; ++x) {
    2c62:	f8 e3       	ldi	r31, 0x38	; 56
    2c64:	08 34       	cpi	r16, 0x48	; 72
    2c66:	1f 07       	cpc	r17, r31
    2c68:	09 f0       	breq	.+2      	; 0x2c6c <ShowInventory+0xea>
    2c6a:	bc cf       	rjmp	.-136    	; 0x2be4 <ShowInventory+0x62>
        }
    }
    elements -= 1;
            
    return elements;
}
    2c6c:	8f ef       	ldi	r24, 0xFF	; 255
    2c6e:	89 0d       	add	r24, r9
    2c70:	ab 96       	adiw	r28, 0x2b	; 43
    2c72:	eb e0       	ldi	r30, 0x0B	; 11
    2c74:	0c 94 38 1f 	jmp	0x3e70	; 0x3e70 <__epilogue_restores__+0xe>

00002c78 <ProcessInput>:

//The game logic!
uint8_t ProcessInput(uint8_t *data){
    2c78:	a8 e0       	ldi	r26, 0x08	; 8
    2c7a:	b0 e0       	ldi	r27, 0x00	; 0
    2c7c:	e2 e4       	ldi	r30, 0x42	; 66
    2c7e:	f6 e1       	ldi	r31, 0x16	; 22
    2c80:	0c 94 1c 1f 	jmp	0x3e38	; 0x3e38 <__prologue_saves__+0x8>
    2c84:	3c 01       	movw	r6, r24
    static object_model_t actObj1, actObj2;
    uint8_t elements = 1;

    CleanInput(&data[0]);
    2c86:	d0 dc       	rcall	.-1632   	; 0x2628 <CleanInput>
    uint8_t inputLen = CleanInput(&data[0]);
    2c88:	c3 01       	movw	r24, r6
    2c8a:	ce dc       	rcall	.-1636   	; 0x2628 <CleanInput>
    2c8c:	f8 2e       	mov	r15, r24
    return 0;
}

//
void SetResponse(uint8_t number, uint16_t address, uint16_t length, uint8_t type){
    reactStr[0][number]=address;
    2c8e:	29 e5       	ldi	r18, 0x59	; 89
    2c90:	3a e7       	ldi	r19, 0x7A	; 122
    2c92:	20 93 21 39 	sts	0x3921, r18	; 0x803921 <reactStr>
    2c96:	30 93 22 39 	sts	0x3922, r19	; 0x803922 <reactStr+0x1>
    reactStr[1][number]=length;
    2c9a:	84 e0       	ldi	r24, 0x04	; 4
    2c9c:	90 e0       	ldi	r25, 0x00	; 0
    2c9e:	80 93 61 39 	sts	0x3961, r24	; 0x803961 <reactStr+0x40>
    2ca2:	90 93 62 39 	sts	0x3962, r25	; 0x803962 <reactStr+0x41>
    reactStr[2][number]=type;
    2ca6:	01 e0       	ldi	r16, 0x01	; 1
    2ca8:	10 e0       	ldi	r17, 0x00	; 0
    2caa:	00 93 a1 39 	sts	0x39A1, r16	; 0x8039a1 <reactStr+0x80>
    2cae:	10 93 a2 39 	sts	0x39A2, r17	; 0x8039a2 <reactStr+0x81>

    CleanInput(&data[0]);
    uint8_t inputLen = CleanInput(&data[0]);
    SetResponse(0, A_LF, 4, TEASER);

    if (inputLen) {
    2cb2:	ff 20       	and	r15, r15
    2cb4:	09 f4       	brne	.+2      	; 0x2cb8 <ProcessInput+0x40>
    2cb6:	54 c7       	rjmp	.+3752   	; 0x3b60 <ProcessInput+0xee8>

        //eXit to previous location
        if (data[0] == 'x'){
    2cb8:	d3 01       	movw	r26, r6
    2cba:	8c 91       	ld	r24, X
    2cbc:	88 37       	cpi	r24, 0x78	; 120
    2cbe:	09 f0       	breq	.+2      	; 0x2cc2 <ProcessInput+0x4a>
    2cc0:	45 c0       	rjmp	.+138    	; 0x2d4c <ProcessInput+0xd4>

            //Standing in the Lobby?
            if ((route[currDepth] == 0)||(currDepth == 0)){
    2cc2:	80 91 34 38 	lds	r24, 0x3834	; 0x803834 <currDepth>
    2cc6:	e8 2f       	mov	r30, r24
    2cc8:	f0 e0       	ldi	r31, 0x00	; 0
    2cca:	ee 0f       	add	r30, r30
    2ccc:	ff 1f       	adc	r31, r31
    2cce:	ef 51       	subi	r30, 0x1F	; 31
    2cd0:	f6 4c       	sbci	r31, 0xC6	; 198
    2cd2:	20 81       	ld	r18, Z
    2cd4:	31 81       	ldd	r19, Z+1	; 0x01
    2cd6:	23 2b       	or	r18, r19
    2cd8:	11 f0       	breq	.+4      	; 0x2cde <ProcessInput+0x66>
    2cda:	81 11       	cpse	r24, r1
    2cdc:	03 c0       	rjmp	.+6      	; 0x2ce4 <ProcessInput+0x6c>
    return 0;
}

//
void SetResponse(uint8_t number, uint16_t address, uint16_t length, uint8_t type){
    reactStr[0][number]=address;
    2cde:	84 e4       	ldi	r24, 0x44	; 68
    2ce0:	96 e7       	ldi	r25, 0x76	; 118
    2ce2:	13 c5       	rjmp	.+2598   	; 0x370a <ProcessInput+0xa92>
            //Standing in the Lobby?
            if ((route[currDepth] == 0)||(currDepth == 0)){
                SetResponse(elements++, A_NOTPOSSIBLE, L_NOTPOSSIBLE, TEASER);
            
            //Is there a way to go back?
            } else if (CheckState(currObj.byteField[OPEN_ACL])){
    2ce4:	80 91 27 3a 	lds	r24, 0x3A27	; 0x803a27 <currObj+0x6>
    2ce8:	0e 94 0d 0a 	call	0x141a	; 0x141a <CheckState>
    2cec:	88 23       	and	r24, r24
    2cee:	b9 f0       	breq	.+46     	; 0x2d1e <ProcessInput+0xa6>
                --currDepth;
    2cf0:	e0 91 34 38 	lds	r30, 0x3834	; 0x803834 <currDepth>
    2cf4:	e1 50       	subi	r30, 0x01	; 1
    2cf6:	e0 93 34 38 	sts	0x3834, r30	; 0x803834 <currDepth>
                PopulateObject(route[currDepth], &currObj);
    2cfa:	f0 e0       	ldi	r31, 0x00	; 0
    2cfc:	ee 0f       	add	r30, r30
    2cfe:	ff 1f       	adc	r31, r31
    2d00:	ef 51       	subi	r30, 0x1F	; 31
    2d02:	f6 4c       	sbci	r31, 0xC6	; 198
    2d04:	61 e2       	ldi	r22, 0x21	; 33
    2d06:	7a e3       	ldi	r23, 0x3A	; 58
    2d08:	80 81       	ld	r24, Z
    2d0a:	91 81       	ldd	r25, Z+1	; 0x01
    2d0c:	61 db       	rcall	.-2366   	; 0x23d0 <PopulateObject>
                effect = currObj.byteField[EFFECTS];
    2d0e:	80 91 25 3a 	lds	r24, 0x3A25	; 0x803a25 <currObj+0x4>
    2d12:	90 e0       	ldi	r25, 0x00	; 0
    2d14:	80 93 40 38 	sts	0x3840, r24	; 0x803840 <effect>
    2d18:	90 93 41 38 	sts	0x3841, r25	; 0x803841 <effect+0x1>
    2d1c:	2a c2       	rjmp	.+1108   	; 0x3172 <ProcessInput+0x4fa>
            
            //No way out, print denied message of location
            } else {
                SetResponse(elements++, currObj.addrStr[OPEN_ACL_MSG], currObj.lenStr[OPEN_ACL_MSG], GAME);
    2d1e:	80 91 43 3a 	lds	r24, 0x3A43	; 0x803a43 <currObj+0x22>
    2d22:	90 91 44 3a 	lds	r25, 0x3A44	; 0x803a44 <currObj+0x23>
    return 0;
}

//
void SetResponse(uint8_t number, uint16_t address, uint16_t length, uint8_t type){
    reactStr[0][number]=address;
    2d26:	20 91 35 3a 	lds	r18, 0x3A35	; 0x803a35 <currObj+0x14>
    2d2a:	30 91 36 3a 	lds	r19, 0x3A36	; 0x803a36 <currObj+0x15>
    2d2e:	20 93 23 39 	sts	0x3923, r18	; 0x803923 <reactStr+0x2>
    2d32:	30 93 24 39 	sts	0x3924, r19	; 0x803924 <reactStr+0x3>
    reactStr[1][number]=length;
    2d36:	80 93 63 39 	sts	0x3963, r24	; 0x803963 <reactStr+0x42>
    2d3a:	90 93 64 39 	sts	0x3964, r25	; 0x803964 <reactStr+0x43>
    reactStr[2][number]=type;
    2d3e:	10 92 a3 39 	sts	0x39A3, r1	; 0x8039a3 <reactStr+0x82>
    2d42:	10 92 a4 39 	sts	0x39A4, r1	; 0x8039a4 <reactStr+0x83>
                effect = currObj.byteField[EFFECTS];
            
            //No way out, print denied message of location
            } else {
                SetResponse(elements++, currObj.addrStr[OPEN_ACL_MSG], currObj.lenStr[OPEN_ACL_MSG], GAME);
                effect = currObj.effect[0];               
    2d46:	80 91 49 3a 	lds	r24, 0x3A49	; 0x803a49 <currObj+0x28>
    2d4a:	a9 c5       	rjmp	.+2898   	; 0x389e <ProcessInput+0xc26>
            }   
        
        //Enter locations or Open objects    
        } else if ((data[0] == 'e')||(data[0] == 'o')) {
    2d4c:	85 36       	cpi	r24, 0x65	; 101
    2d4e:	19 f0       	breq	.+6      	; 0x2d56 <ProcessInput+0xde>
    2d50:	8f 36       	cpi	r24, 0x6F	; 111
    2d52:	09 f0       	breq	.+2      	; 0x2d56 <ProcessInput+0xde>
    2d54:	de c0       	rjmp	.+444    	; 0x2f12 <ProcessInput+0x29a>
                
            //Not possible, too many/little characters
            if (inputLen != 2){
    2d56:	b2 e0       	ldi	r27, 0x02	; 2
    2d58:	fb 12       	cpse	r15, r27
    2d5a:	c1 cf       	rjmp	.-126    	; 0x2cde <ProcessInput+0x66>
                SetResponse(elements++, A_NOTPOSSIBLE, L_NOTPOSSIBLE, TEASER);
            } else {
                uint8_t canDo = 0;
                route[currDepth+1] = FindChild(route[currDepth], data[1], 0);
    2d5c:	00 91 34 38 	lds	r16, 0x3834	; 0x803834 <currDepth>
    2d60:	10 e0       	ldi	r17, 0x00	; 0
    2d62:	f8 01       	movw	r30, r16
    2d64:	ee 0f       	add	r30, r30
    2d66:	ff 1f       	adc	r31, r31
    2d68:	ef 51       	subi	r30, 0x1F	; 31
    2d6a:	f6 4c       	sbci	r31, 0xC6	; 198
    2d6c:	40 e0       	ldi	r20, 0x00	; 0
    2d6e:	50 e0       	ldi	r21, 0x00	; 0
    2d70:	d3 01       	movw	r26, r6
    2d72:	11 96       	adiw	r26, 0x01	; 1
    2d74:	6c 91       	ld	r22, X
    2d76:	80 81       	ld	r24, Z
    2d78:	91 81       	ldd	r25, Z+1	; 0x01
    2d7a:	ea db       	rcall	.-2092   	; 0x2550 <FindChild>
    2d7c:	00 0f       	add	r16, r16
    2d7e:	11 1f       	adc	r17, r17
    2d80:	f8 01       	movw	r30, r16
    2d82:	ed 51       	subi	r30, 0x1D	; 29
    2d84:	f6 4c       	sbci	r31, 0xC6	; 198
    2d86:	80 83       	st	Z, r24
    2d88:	91 83       	std	Z+1, r25	; 0x01
                    
                //Child found?
                if (route[currDepth+1]) {
    2d8a:	90 91 34 38 	lds	r25, 0x3834	; 0x803834 <currDepth>
    2d8e:	29 2f       	mov	r18, r25
    2d90:	30 e0       	ldi	r19, 0x00	; 0
    2d92:	f9 01       	movw	r30, r18
    2d94:	ee 0f       	add	r30, r30
    2d96:	ff 1f       	adc	r31, r31
    2d98:	ed 51       	subi	r30, 0x1D	; 29
    2d9a:	f6 4c       	sbci	r31, 0xC6	; 198
    2d9c:	40 81       	ld	r20, Z
    2d9e:	51 81       	ldd	r21, Z+1	; 0x01
    2da0:	41 15       	cp	r20, r1
    2da2:	51 05       	cpc	r21, r1
    2da4:	21 f0       	breq	.+8      	; 0x2dae <ProcessInput+0x136>
                    PopulateObject(route[currDepth+1], &actObj1);
    2da6:	60 ee       	ldi	r22, 0xE0	; 224
    2da8:	78 e3       	ldi	r23, 0x38	; 56
    2daa:	ca 01       	movw	r24, r20
    2dac:	1c c0       	rjmp	.+56     	; 0x2de6 <ProcessInput+0x16e>
                    canDo = 1;
                //No child, maybe a step back, letter ok?
                } else if (currDepth) {
    2dae:	99 23       	and	r25, r25
    2db0:	09 f4       	brne	.+2      	; 0x2db4 <ProcessInput+0x13c>
    2db2:	dc c6       	rjmp	.+3512   	; 0x3b6c <ProcessInput+0xef4>
                    if (CheckLetter(route[currDepth-1], data[1])) {
    2db4:	22 0f       	add	r18, r18
    2db6:	33 1f       	adc	r19, r19
    2db8:	f9 01       	movw	r30, r18
    2dba:	e1 52       	subi	r30, 0x21	; 33
    2dbc:	f6 4c       	sbci	r31, 0xC6	; 198
    2dbe:	d3 01       	movw	r26, r6
    2dc0:	11 96       	adiw	r26, 0x01	; 1
    2dc2:	6c 91       	ld	r22, X
    2dc4:	80 81       	ld	r24, Z
    2dc6:	91 81       	ldd	r25, Z+1	; 0x01
    2dc8:	7c db       	rcall	.-2312   	; 0x24c2 <CheckLetter>
    2dca:	88 23       	and	r24, r24
    2dcc:	09 f4       	brne	.+2      	; 0x2dd0 <ProcessInput+0x158>
    2dce:	ce c6       	rjmp	.+3484   	; 0x3b6c <ProcessInput+0xef4>
                        PopulateObject(route[currDepth-1], &actObj1);
    2dd0:	e0 91 34 38 	lds	r30, 0x3834	; 0x803834 <currDepth>
    2dd4:	f0 e0       	ldi	r31, 0x00	; 0
    2dd6:	ee 0f       	add	r30, r30
    2dd8:	ff 1f       	adc	r31, r31
    2dda:	e1 52       	subi	r30, 0x21	; 33
    2ddc:	f6 4c       	sbci	r31, 0xC6	; 198
    2dde:	60 ee       	ldi	r22, 0xE0	; 224
    2de0:	78 e3       	ldi	r23, 0x38	; 56
    2de2:	80 81       	ld	r24, Z
    2de4:	91 81       	ldd	r25, Z+1	; 0x01
    2de6:	f4 da       	rcall	.-2584   	; 0x23d0 <PopulateObject>
                    }
                }

                //The candidate is found! Let's check if the action is legit
                if (canDo) {
                    if ((data[0] == 'e') && ((actObj1.byteField[ACTION_MASK]&ENTER)==0)) {
    2de8:	d3 01       	movw	r26, r6
    2dea:	8c 91       	ld	r24, X
    2dec:	85 36       	cpi	r24, 0x65	; 101
    2dee:	c1 f4       	brne	.+48     	; 0x2e20 <ProcessInput+0x1a8>
    2df0:	80 91 e8 38 	lds	r24, 0x38E8	; 0x8038e8 <actObj1.3989+0x8>
    2df4:	80 fd       	sbrc	r24, 0
    2df6:	1d c0       	rjmp	.+58     	; 0x2e32 <ProcessInput+0x1ba>
    return 0;
}

//
void SetResponse(uint8_t number, uint16_t address, uint16_t length, uint8_t type){
    reactStr[0][number]=address;
    2df8:	8d e9       	ldi	r24, 0x9D	; 157
    2dfa:	99 e7       	ldi	r25, 0x79	; 121
    2dfc:	80 93 23 39 	sts	0x3923, r24	; 0x803923 <reactStr+0x2>
    2e00:	90 93 24 39 	sts	0x3924, r25	; 0x803924 <reactStr+0x3>
    reactStr[1][number]=length;
    2e04:	8e e1       	ldi	r24, 0x1E	; 30
    2e06:	90 e0       	ldi	r25, 0x00	; 0
    2e08:	80 93 63 39 	sts	0x3963, r24	; 0x803963 <reactStr+0x42>
    2e0c:	90 93 64 39 	sts	0x3964, r25	; 0x803964 <reactStr+0x43>
    reactStr[2][number]=type;
    2e10:	81 e0       	ldi	r24, 0x01	; 1
    2e12:	90 e0       	ldi	r25, 0x00	; 0
    2e14:	80 93 a3 39 	sts	0x39A3, r24	; 0x8039a3 <reactStr+0x82>
    2e18:	90 93 a4 39 	sts	0x39A4, r25	; 0x8039a4 <reactStr+0x83>
                }

                //The candidate is found! Let's check if the action is legit
                if (canDo) {
                    if ((data[0] == 'e') && ((actObj1.byteField[ACTION_MASK]&ENTER)==0)) {
                        SetResponse(elements++, A_CANTENTER, L_CANTENTER, TEASER);
    2e1c:	12 e0       	ldi	r17, 0x02	; 2
    2e1e:	97 c6       	rjmp	.+3374   	; 0x3b4e <ProcessInput+0xed6>
                    } else if ((data[0] == 'o') && ((actObj1.byteField[ACTION_MASK]&OPEN)==0)) {
    2e20:	8f 36       	cpi	r24, 0x6F	; 111
    2e22:	39 f4       	brne	.+14     	; 0x2e32 <ProcessInput+0x1ba>
    2e24:	80 91 e8 38 	lds	r24, 0x38E8	; 0x8038e8 <actObj1.3989+0x8>
    2e28:	81 fd       	sbrc	r24, 1
    2e2a:	03 c0       	rjmp	.+6      	; 0x2e32 <ProcessInput+0x1ba>
    return 0;
}

//
void SetResponse(uint8_t number, uint16_t address, uint16_t length, uint8_t type){
    reactStr[0][number]=address;
    2e2c:	82 e8       	ldi	r24, 0x82	; 130
    2e2e:	99 e7       	ldi	r25, 0x79	; 121
    2e30:	6c c4       	rjmp	.+2264   	; 0x370a <ProcessInput+0xa92>
                        SetResponse(elements++, A_CANTENTER, L_CANTENTER, TEASER);
                    } else if ((data[0] == 'o') && ((actObj1.byteField[ACTION_MASK]&OPEN)==0)) {
                        SetResponse(elements++, A_CANTOPEN, L_CANTOPEN, TEASER);
                    
                    //Action legit, permission granted?
                    } else if (CheckState(actObj1.byteField[OPEN_ACL])) {
    2e32:	80 91 e6 38 	lds	r24, 0x38E6	; 0x8038e6 <actObj1.3989+0x6>
    2e36:	0e 94 0d 0a 	call	0x141a	; 0x141a <CheckState>
    2e3a:	e0 91 34 38 	lds	r30, 0x3834	; 0x803834 <currDepth>
    2e3e:	88 23       	and	r24, r24
    2e40:	09 f4       	brne	.+2      	; 0x2e44 <ProcessInput+0x1cc>
    2e42:	49 c0       	rjmp	.+146    	; 0x2ed6 <ProcessInput+0x25e>
                            
                        //Yes! Check if we must move forward or backwards.
                        if (route[currDepth+1]) ++currDepth; else --currDepth;
    2e44:	ae 2f       	mov	r26, r30
    2e46:	b0 e0       	ldi	r27, 0x00	; 0
    2e48:	aa 0f       	add	r26, r26
    2e4a:	bb 1f       	adc	r27, r27
    2e4c:	ad 51       	subi	r26, 0x1D	; 29
    2e4e:	b6 4c       	sbci	r27, 0xC6	; 198
    2e50:	8d 91       	ld	r24, X+
    2e52:	9c 91       	ld	r25, X
    2e54:	89 2b       	or	r24, r25
    2e56:	11 f0       	breq	.+4      	; 0x2e5c <ProcessInput+0x1e4>
    2e58:	ef 5f       	subi	r30, 0xFF	; 255
    2e5a:	01 c0       	rjmp	.+2      	; 0x2e5e <ProcessInput+0x1e6>
    2e5c:	e1 50       	subi	r30, 0x01	; 1
    2e5e:	e0 93 34 38 	sts	0x3834, r30	; 0x803834 <currDepth>
                        PopulateObject(route[currDepth], &currObj);
    2e62:	e0 91 34 38 	lds	r30, 0x3834	; 0x803834 <currDepth>
    2e66:	f0 e0       	ldi	r31, 0x00	; 0
    2e68:	ee 0f       	add	r30, r30
    2e6a:	ff 1f       	adc	r31, r31
    2e6c:	ef 51       	subi	r30, 0x1F	; 31
    2e6e:	f6 4c       	sbci	r31, 0xC6	; 198
    2e70:	61 e2       	ldi	r22, 0x21	; 33
    2e72:	7a e3       	ldi	r23, 0x3A	; 58
    2e74:	80 81       	ld	r24, Z
    2e76:	91 81       	ldd	r25, Z+1	; 0x01
    2e78:	ab da       	rcall	.-2730   	; 0x23d0 <PopulateObject>
                        SetResponse(elements++, currObj.addrStr[DESC], currObj.lenStr[DESC],GAME);
    2e7a:	80 91 3d 3a 	lds	r24, 0x3A3D	; 0x803a3d <currObj+0x1c>
    2e7e:	90 91 3e 3a 	lds	r25, 0x3A3E	; 0x803a3e <currObj+0x1d>
    return 0;
}

//
void SetResponse(uint8_t number, uint16_t address, uint16_t length, uint8_t type){
    reactStr[0][number]=address;
    2e82:	20 91 2f 3a 	lds	r18, 0x3A2F	; 0x803a2f <currObj+0xe>
    2e86:	30 91 30 3a 	lds	r19, 0x3A30	; 0x803a30 <currObj+0xf>
    2e8a:	20 93 23 39 	sts	0x3923, r18	; 0x803923 <reactStr+0x2>
    2e8e:	30 93 24 39 	sts	0x3924, r19	; 0x803924 <reactStr+0x3>
    reactStr[1][number]=length;
    2e92:	80 93 63 39 	sts	0x3963, r24	; 0x803963 <reactStr+0x42>
    2e96:	90 93 64 39 	sts	0x3964, r25	; 0x803964 <reactStr+0x43>
    reactStr[2][number]=type;
    2e9a:	10 92 a3 39 	sts	0x39A3, r1	; 0x8039a3 <reactStr+0x82>
    2e9e:	10 92 a4 39 	sts	0x39A4, r1	; 0x8039a4 <reactStr+0x83>
    return 0;
}

//
void SetResponse(uint8_t number, uint16_t address, uint16_t length, uint8_t type){
    reactStr[0][number]=address;
    2ea2:	89 e5       	ldi	r24, 0x59	; 89
    2ea4:	9a e7       	ldi	r25, 0x7A	; 122
    2ea6:	80 93 25 39 	sts	0x3925, r24	; 0x803925 <reactStr+0x4>
    2eaa:	90 93 26 39 	sts	0x3926, r25	; 0x803926 <reactStr+0x5>
    reactStr[1][number]=length;
    2eae:	82 e0       	ldi	r24, 0x02	; 2
    2eb0:	90 e0       	ldi	r25, 0x00	; 0
    2eb2:	80 93 65 39 	sts	0x3965, r24	; 0x803965 <reactStr+0x44>
    2eb6:	90 93 66 39 	sts	0x3966, r25	; 0x803966 <reactStr+0x45>
    reactStr[2][number]=type;
    2eba:	81 e0       	ldi	r24, 0x01	; 1
    2ebc:	90 e0       	ldi	r25, 0x00	; 0
    2ebe:	80 93 a5 39 	sts	0x39A5, r24	; 0x8039a5 <reactStr+0x84>
    2ec2:	90 93 a6 39 	sts	0x39A6, r25	; 0x8039a6 <reactStr+0x85>
                        //Yes! Check if we must move forward or backwards.
                        if (route[currDepth+1]) ++currDepth; else --currDepth;
                        PopulateObject(route[currDepth], &currObj);
                        SetResponse(elements++, currObj.addrStr[DESC], currObj.lenStr[DESC],GAME);
                        SetResponse(elements++, A_LF, 2, TEASER);
                        effect = currObj.byteField[EFFECTS];
    2ec6:	80 91 25 3a 	lds	r24, 0x3A25	; 0x803a25 <currObj+0x4>
    2eca:	90 e0       	ldi	r25, 0x00	; 0
    2ecc:	80 93 40 38 	sts	0x3840, r24	; 0x803840 <effect>
    2ed0:	90 93 41 38 	sts	0x3841, r25	; 0x803841 <effect+0x1>
    2ed4:	07 c4       	rjmp	.+2062   	; 0x36e4 <ProcessInput+0xa6c>
                                                  
                    //Not granted!
                    } else {
                        route[currDepth+1] = 0;
    2ed6:	f0 e0       	ldi	r31, 0x00	; 0
    2ed8:	ee 0f       	add	r30, r30
    2eda:	ff 1f       	adc	r31, r31
    2edc:	ed 51       	subi	r30, 0x1D	; 29
    2ede:	f6 4c       	sbci	r31, 0xC6	; 198
    2ee0:	10 82       	st	Z, r1
    2ee2:	11 82       	std	Z+1, r1	; 0x01
                        SetResponse(elements++, actObj1.addrStr[OPEN_ACL_MSG], actObj1.lenStr[OPEN_ACL_MSG], GAME);
    2ee4:	80 91 02 39 	lds	r24, 0x3902	; 0x803902 <actObj1.3989+0x22>
    2ee8:	90 91 03 39 	lds	r25, 0x3903	; 0x803903 <actObj1.3989+0x23>
    return 0;
}

//
void SetResponse(uint8_t number, uint16_t address, uint16_t length, uint8_t type){
    reactStr[0][number]=address;
    2eec:	20 91 f4 38 	lds	r18, 0x38F4	; 0x8038f4 <actObj1.3989+0x14>
    2ef0:	30 91 f5 38 	lds	r19, 0x38F5	; 0x8038f5 <actObj1.3989+0x15>
    2ef4:	20 93 23 39 	sts	0x3923, r18	; 0x803923 <reactStr+0x2>
    2ef8:	30 93 24 39 	sts	0x3924, r19	; 0x803924 <reactStr+0x3>
    reactStr[1][number]=length;
    2efc:	80 93 63 39 	sts	0x3963, r24	; 0x803963 <reactStr+0x42>
    2f00:	90 93 64 39 	sts	0x3964, r25	; 0x803964 <reactStr+0x43>
    reactStr[2][number]=type;
    2f04:	10 92 a3 39 	sts	0x39A3, r1	; 0x8039a3 <reactStr+0x82>
    2f08:	10 92 a4 39 	sts	0x39A4, r1	; 0x8039a4 <reactStr+0x83>
                                                  
                    //Not granted!
                    } else {
                        route[currDepth+1] = 0;
                        SetResponse(elements++, actObj1.addrStr[OPEN_ACL_MSG], actObj1.lenStr[OPEN_ACL_MSG], GAME);
                        effect = actObj1.effect[0];              
    2f0c:	80 91 08 39 	lds	r24, 0x3908	; 0x803908 <actObj1.3989+0x28>
    2f10:	c6 c4       	rjmp	.+2444   	; 0x389e <ProcessInput+0xc26>
                    SetResponse(elements++, A_DONTSEE, L_DONTSEE, TEASER);                
                }
            }

        //Look around or at objects
        } else if (data[0] == 'l') {
    2f12:	8c 36       	cpi	r24, 0x6C	; 108
    2f14:	09 f0       	breq	.+2      	; 0x2f18 <ProcessInput+0x2a0>
    2f16:	59 c1       	rjmp	.+690    	; 0x31ca <ProcessInput+0x552>
    2f18:	e0 91 34 38 	lds	r30, 0x3834	; 0x803834 <currDepth>
            if (inputLen == 1) {
    2f1c:	b1 e0       	ldi	r27, 0x01	; 1
    2f1e:	fb 12       	cpse	r15, r27
    2f20:	f1 c0       	rjmp	.+482    	; 0x3104 <ProcessInput+0x48c>

                //Show info about this area first
                SetResponse(elements++, currObj.addrStr[DESC], currObj.lenStr[DESC],GAME);
    2f22:	80 91 3d 3a 	lds	r24, 0x3A3D	; 0x803a3d <currObj+0x1c>
    2f26:	90 91 3e 3a 	lds	r25, 0x3A3E	; 0x803a3e <currObj+0x1d>
    return 0;
}

//
void SetResponse(uint8_t number, uint16_t address, uint16_t length, uint8_t type){
    reactStr[0][number]=address;
    2f2a:	40 91 2f 3a 	lds	r20, 0x3A2F	; 0x803a2f <currObj+0xe>
    2f2e:	50 91 30 3a 	lds	r21, 0x3A30	; 0x803a30 <currObj+0xf>
    2f32:	40 93 23 39 	sts	0x3923, r20	; 0x803923 <reactStr+0x2>
    2f36:	50 93 24 39 	sts	0x3924, r21	; 0x803924 <reactStr+0x3>
    reactStr[1][number]=length;
    2f3a:	80 93 63 39 	sts	0x3963, r24	; 0x803963 <reactStr+0x42>
    2f3e:	90 93 64 39 	sts	0x3964, r25	; 0x803964 <reactStr+0x43>
    reactStr[2][number]=type;
    2f42:	10 92 a3 39 	sts	0x39A3, r1	; 0x8039a3 <reactStr+0x82>
    2f46:	10 92 a4 39 	sts	0x39A4, r1	; 0x8039a4 <reactStr+0x83>
    return 0;
}

//
void SetResponse(uint8_t number, uint16_t address, uint16_t length, uint8_t type){
    reactStr[0][number]=address;
    2f4a:	20 93 25 39 	sts	0x3925, r18	; 0x803925 <reactStr+0x4>
    2f4e:	30 93 26 39 	sts	0x3926, r19	; 0x803926 <reactStr+0x5>
    reactStr[1][number]=length;
    2f52:	82 e0       	ldi	r24, 0x02	; 2
    2f54:	90 e0       	ldi	r25, 0x00	; 0
    2f56:	80 93 65 39 	sts	0x3965, r24	; 0x803965 <reactStr+0x44>
    2f5a:	90 93 66 39 	sts	0x3966, r25	; 0x803966 <reactStr+0x45>
    reactStr[2][number]=type;
    2f5e:	00 93 a5 39 	sts	0x39A5, r16	; 0x8039a5 <reactStr+0x84>
    2f62:	10 93 a6 39 	sts	0x39A6, r17	; 0x8039a6 <reactStr+0x85>
    return 0;
}

//
void SetResponse(uint8_t number, uint16_t address, uint16_t length, uint8_t type){
    reactStr[0][number]=address;
    2f66:	8b ee       	ldi	r24, 0xEB	; 235
    2f68:	99 e7       	ldi	r25, 0x79	; 121
    2f6a:	80 93 27 39 	sts	0x3927, r24	; 0x803927 <reactStr+0x6>
    2f6e:	90 93 28 39 	sts	0x3928, r25	; 0x803928 <reactStr+0x7>
    reactStr[1][number]=length;
    2f72:	85 e1       	ldi	r24, 0x15	; 21
    2f74:	90 e0       	ldi	r25, 0x00	; 0
    2f76:	80 93 67 39 	sts	0x3967, r24	; 0x803967 <reactStr+0x46>
    2f7a:	90 93 68 39 	sts	0x3968, r25	; 0x803968 <reactStr+0x47>
    reactStr[2][number]=type;
    2f7e:	00 93 a7 39 	sts	0x39A7, r16	; 0x8039a7 <reactStr+0x86>
    2f82:	10 93 a8 39 	sts	0x39A8, r17	; 0x8039a8 <reactStr+0x87>
                SetResponse(elements++, currObj.addrStr[DESC], currObj.lenStr[DESC],GAME);
                SetResponse(elements++, A_LF, 2, TEASER);
                SetResponse(elements++, A_LOOK, L_LOOK, TEASER);

                //Check the visible children first
                route[currDepth+1] = 0;
    2f86:	f0 e0       	ldi	r31, 0x00	; 0
    2f88:	ee 0f       	add	r30, r30
    2f8a:	ff 1f       	adc	r31, r31
    2f8c:	ed 51       	subi	r30, 0x1D	; 29
    2f8e:	f6 4c       	sbci	r31, 0xC6	; 198
    2f90:	10 82       	st	Z, r1
    2f92:	11 82       	std	Z+1, r1	; 0x01
            if (inputLen == 1) {

                //Show info about this area first
                SetResponse(elements++, currObj.addrStr[DESC], currObj.lenStr[DESC],GAME);
                SetResponse(elements++, A_LF, 2, TEASER);
                SetResponse(elements++, A_LOOK, L_LOOK, TEASER);
    2f94:	14 e0       	ldi	r17, 0x04	; 4
    2f96:	91 2e       	mov	r9, r17
    return 0;
}

//
void SetResponse(uint8_t number, uint16_t address, uint16_t length, uint8_t type){
    reactStr[0][number]=address;
    2f98:	07 e5       	ldi	r16, 0x57	; 87
    2f9a:	e0 2e       	mov	r14, r16
    2f9c:	0a e7       	ldi	r16, 0x7A	; 122
    2f9e:	f0 2e       	mov	r15, r16
    reactStr[1][number]=length;
    2fa0:	82 e0       	ldi	r24, 0x02	; 2
    2fa2:	c8 2e       	mov	r12, r24
    2fa4:	d1 2c       	mov	r13, r1
    reactStr[2][number]=type;
    2fa6:	aa 24       	eor	r10, r10
    2fa8:	a3 94       	inc	r10
    2faa:	b1 2c       	mov	r11, r1
                SetResponse(elements++, A_LOOK, L_LOOK, TEASER);

                //Check the visible children first
                route[currDepth+1] = 0;
                do{
                    route[currDepth+1] = FindChild(route[currDepth], 0, route[currDepth+1]);
    2fac:	80 91 34 38 	lds	r24, 0x3834	; 0x803834 <currDepth>
    2fb0:	90 e0       	ldi	r25, 0x00	; 0
    2fb2:	8c 01       	movw	r16, r24
    2fb4:	00 0f       	add	r16, r16
    2fb6:	11 1f       	adc	r17, r17
    2fb8:	0d 51       	subi	r16, 0x1D	; 29
    2fba:	16 4c       	sbci	r17, 0xC6	; 198
    2fbc:	f8 01       	movw	r30, r16
    2fbe:	40 81       	ld	r20, Z
    2fc0:	51 81       	ldd	r21, Z+1	; 0x01
    2fc2:	88 0f       	add	r24, r24
    2fc4:	99 1f       	adc	r25, r25
    2fc6:	fc 01       	movw	r30, r24
    2fc8:	ef 51       	subi	r30, 0x1F	; 31
    2fca:	f6 4c       	sbci	r31, 0xC6	; 198
    2fcc:	60 e0       	ldi	r22, 0x00	; 0
    2fce:	80 81       	ld	r24, Z
    2fd0:	91 81       	ldd	r25, Z+1	; 0x01
    2fd2:	be da       	rcall	.-2692   	; 0x2550 <FindChild>
    2fd4:	d8 01       	movw	r26, r16
    2fd6:	8d 93       	st	X+, r24
    2fd8:	9c 93       	st	X, r25
                    if (route[currDepth+1]) {
    2fda:	e0 91 34 38 	lds	r30, 0x3834	; 0x803834 <currDepth>
    2fde:	f0 e0       	ldi	r31, 0x00	; 0
    2fe0:	ee 0f       	add	r30, r30
    2fe2:	ff 1f       	adc	r31, r31
    2fe4:	ed 51       	subi	r30, 0x1D	; 29
    2fe6:	f6 4c       	sbci	r31, 0xC6	; 198
    2fe8:	80 81       	ld	r24, Z
    2fea:	91 81       	ldd	r25, Z+1	; 0x01
    2fec:	00 97       	sbiw	r24, 0x00	; 0
    2fee:	09 f4       	brne	.+2      	; 0x2ff2 <ProcessInput+0x37a>
    2ff0:	4a c0       	rjmp	.+148    	; 0x3086 <ProcessInput+0x40e>
                        if ((route[currDepth+1] != inventory[0])&&(route[currDepth+1] != inventory[1])) {
    2ff2:	20 91 44 38 	lds	r18, 0x3844	; 0x803844 <inventory>
    2ff6:	30 91 45 38 	lds	r19, 0x3845	; 0x803845 <inventory+0x1>
    2ffa:	82 17       	cp	r24, r18
    2ffc:	93 07       	cpc	r25, r19
    2ffe:	09 f4       	brne	.+2      	; 0x3002 <ProcessInput+0x38a>
    3000:	42 c0       	rjmp	.+132    	; 0x3086 <ProcessInput+0x40e>
    3002:	20 91 46 38 	lds	r18, 0x3846	; 0x803846 <inventory+0x2>
    3006:	30 91 47 38 	lds	r19, 0x3847	; 0x803847 <inventory+0x3>
    300a:	82 17       	cp	r24, r18
    300c:	93 07       	cpc	r25, r19
                            PopulateObject(route[currDepth+1], &actObj1);
    300e:	d9 f1       	breq	.+118    	; 0x3086 <ProcessInput+0x40e>
    3010:	60 ee       	ldi	r22, 0xE0	; 224
    3012:	78 e3       	ldi	r23, 0x38	; 56
    3014:	dd d9       	rcall	.-3142   	; 0x23d0 <PopulateObject>
                            SetResponse(elements++, actObj1.addrStr[NAME], actObj1.lenStr[NAME],GAME);
    3016:	80 91 fa 38 	lds	r24, 0x38FA	; 0x8038fa <actObj1.3989+0x1a>
    301a:	90 91 fb 38 	lds	r25, 0x38FB	; 0x8038fb <actObj1.3989+0x1b>
    return 0;
}

//
void SetResponse(uint8_t number, uint16_t address, uint16_t length, uint8_t type){
    reactStr[0][number]=address;
    301e:	e9 2d       	mov	r30, r9
    3020:	f0 e0       	ldi	r31, 0x00	; 0
    3022:	df 01       	movw	r26, r30
    3024:	aa 0f       	add	r26, r26
    3026:	bb 1f       	adc	r27, r27
    3028:	af 5d       	subi	r26, 0xDF	; 223
    302a:	b6 4c       	sbci	r27, 0xC6	; 198
    302c:	20 91 ec 38 	lds	r18, 0x38EC	; 0x8038ec <actObj1.3989+0xc>
    3030:	30 91 ed 38 	lds	r19, 0x38ED	; 0x8038ed <actObj1.3989+0xd>
    3034:	2d 93       	st	X+, r18
    3036:	3c 93       	st	X, r19
    reactStr[1][number]=length;
    3038:	df 01       	movw	r26, r30
    303a:	aa 0f       	add	r26, r26
    303c:	bb 1f       	adc	r27, r27
    303e:	af 59       	subi	r26, 0x9F	; 159
    3040:	b6 4c       	sbci	r27, 0xC6	; 198
    3042:	8d 93       	st	X+, r24
    3044:	9c 93       	st	X, r25
    reactStr[2][number]=type;
    3046:	ee 0f       	add	r30, r30
    3048:	ff 1f       	adc	r31, r31
    304a:	ef 55       	subi	r30, 0x5F	; 95
    304c:	f6 4c       	sbci	r31, 0xC6	; 198
    304e:	10 82       	st	Z, r1
    3050:	11 82       	std	Z+1, r1	; 0x01
    return 0;
}

//
void SetResponse(uint8_t number, uint16_t address, uint16_t length, uint8_t type){
    reactStr[0][number]=address;
    3052:	81 e0       	ldi	r24, 0x01	; 1
    3054:	89 0d       	add	r24, r9
    3056:	90 e0       	ldi	r25, 0x00	; 0
    3058:	93 94       	inc	r9
    305a:	93 94       	inc	r9
    305c:	fc 01       	movw	r30, r24
    305e:	ee 0f       	add	r30, r30
    3060:	ff 1f       	adc	r31, r31
    3062:	ef 5d       	subi	r30, 0xDF	; 223
    3064:	f6 4c       	sbci	r31, 0xC6	; 198
    3066:	e0 82       	st	Z, r14
    3068:	f1 82       	std	Z+1, r15	; 0x01
    reactStr[1][number]=length;
    306a:	fc 01       	movw	r30, r24
    306c:	ee 0f       	add	r30, r30
    306e:	ff 1f       	adc	r31, r31
    3070:	ef 59       	subi	r30, 0x9F	; 159
    3072:	f6 4c       	sbci	r31, 0xC6	; 198
    3074:	c0 82       	st	Z, r12
    3076:	d1 82       	std	Z+1, r13	; 0x01
    reactStr[2][number]=type;
    3078:	88 0f       	add	r24, r24
    307a:	99 1f       	adc	r25, r25
    307c:	fc 01       	movw	r30, r24
    307e:	ef 55       	subi	r30, 0x5F	; 95
    3080:	f6 4c       	sbci	r31, 0xC6	; 198
    3082:	a0 82       	st	Z, r10
    3084:	b1 82       	std	Z+1, r11	; 0x01
                            PopulateObject(route[currDepth+1], &actObj1);
                            SetResponse(elements++, actObj1.addrStr[NAME], actObj1.lenStr[NAME],GAME);
                            SetResponse(elements++, A_COMMA, L_COMMA, TEASER);
                        }
                    }
                }while (route[currDepth+1]);
    3086:	20 91 34 38 	lds	r18, 0x3834	; 0x803834 <currDepth>
    308a:	82 2f       	mov	r24, r18
    308c:	90 e0       	ldi	r25, 0x00	; 0
    308e:	fc 01       	movw	r30, r24
    3090:	ee 0f       	add	r30, r30
    3092:	ff 1f       	adc	r31, r31
    3094:	ed 51       	subi	r30, 0x1D	; 29
    3096:	f6 4c       	sbci	r31, 0xC6	; 198
    3098:	40 81       	ld	r20, Z
    309a:	51 81       	ldd	r21, Z+1	; 0x01
    309c:	45 2b       	or	r20, r21
    309e:	09 f0       	breq	.+2      	; 0x30a2 <ProcessInput+0x42a>
    30a0:	85 cf       	rjmp	.-246    	; 0x2fac <ProcessInput+0x334>

                //Look back if not on level 0
                if (currDepth) {
    30a2:	22 23       	and	r18, r18
    30a4:	61 f1       	breq	.+88     	; 0x30fe <ProcessInput+0x486>
                    PopulateObject(route[currDepth-1], &actObj1);
    30a6:	88 0f       	add	r24, r24
    30a8:	99 1f       	adc	r25, r25
    30aa:	fc 01       	movw	r30, r24
    30ac:	e1 52       	subi	r30, 0x21	; 33
    30ae:	f6 4c       	sbci	r31, 0xC6	; 198
    30b0:	60 ee       	ldi	r22, 0xE0	; 224
    30b2:	78 e3       	ldi	r23, 0x38	; 56
    30b4:	80 81       	ld	r24, Z
    30b6:	91 81       	ldd	r25, Z+1	; 0x01
    30b8:	8b d9       	rcall	.-3306   	; 0x23d0 <PopulateObject>
                    SetResponse(elements++, actObj1.addrStr[NAME], actObj1.lenStr[NAME],GAME);
    30ba:	20 91 fa 38 	lds	r18, 0x38FA	; 0x8038fa <actObj1.3989+0x1a>
    30be:	30 91 fb 38 	lds	r19, 0x38FB	; 0x8038fb <actObj1.3989+0x1b>
    30c2:	11 e0       	ldi	r17, 0x01	; 1
    30c4:	19 0d       	add	r17, r9
    return 0;
}

//
void SetResponse(uint8_t number, uint16_t address, uint16_t length, uint8_t type){
    reactStr[0][number]=address;
    30c6:	89 2d       	mov	r24, r9
    30c8:	90 e0       	ldi	r25, 0x00	; 0
    30ca:	fc 01       	movw	r30, r24
    30cc:	ee 0f       	add	r30, r30
    30ce:	ff 1f       	adc	r31, r31
    30d0:	ef 5d       	subi	r30, 0xDF	; 223
    30d2:	f6 4c       	sbci	r31, 0xC6	; 198
    30d4:	40 91 ec 38 	lds	r20, 0x38EC	; 0x8038ec <actObj1.3989+0xc>
    30d8:	50 91 ed 38 	lds	r21, 0x38ED	; 0x8038ed <actObj1.3989+0xd>
    30dc:	40 83       	st	Z, r20
    30de:	51 83       	std	Z+1, r21	; 0x01
    reactStr[1][number]=length;
    30e0:	fc 01       	movw	r30, r24
    30e2:	ee 0f       	add	r30, r30
    30e4:	ff 1f       	adc	r31, r31
    30e6:	ef 59       	subi	r30, 0x9F	; 159
    30e8:	f6 4c       	sbci	r31, 0xC6	; 198
    30ea:	20 83       	st	Z, r18
    30ec:	31 83       	std	Z+1, r19	; 0x01
    reactStr[2][number]=type;
    30ee:	88 0f       	add	r24, r24
    30f0:	99 1f       	adc	r25, r25
    30f2:	fc 01       	movw	r30, r24
    30f4:	ef 55       	subi	r30, 0x5F	; 95
    30f6:	f6 4c       	sbci	r31, 0xC6	; 198
    30f8:	10 82       	st	Z, r1
    30fa:	11 82       	std	Z+1, r1	; 0x01
    30fc:	28 c5       	rjmp	.+2640   	; 0x3b4e <ProcessInput+0xed6>

                //Look back if not on level 0
                if (currDepth) {
                    PopulateObject(route[currDepth-1], &actObj1);
                    SetResponse(elements++, actObj1.addrStr[NAME], actObj1.lenStr[NAME],GAME);
                } else elements-=1;
    30fe:	1f ef       	ldi	r17, 0xFF	; 255
    3100:	19 0d       	add	r17, r9
    3102:	25 c5       	rjmp	.+2634   	; 0x3b4e <ProcessInput+0xed6>

            } else {
                route[currDepth+1] = FindChild(route[currDepth], data[1], 0);
    3104:	ee 2e       	mov	r14, r30
    3106:	f1 2c       	mov	r15, r1
    3108:	f7 01       	movw	r30, r14
    310a:	ee 0f       	add	r30, r30
    310c:	ff 1f       	adc	r31, r31
    310e:	ef 51       	subi	r30, 0x1F	; 31
    3110:	f6 4c       	sbci	r31, 0xC6	; 198
    3112:	40 e0       	ldi	r20, 0x00	; 0
    3114:	50 e0       	ldi	r21, 0x00	; 0
    3116:	d3 01       	movw	r26, r6
    3118:	11 96       	adiw	r26, 0x01	; 1
    311a:	6c 91       	ld	r22, X
    311c:	80 81       	ld	r24, Z
    311e:	91 81       	ldd	r25, Z+1	; 0x01
    3120:	17 da       	rcall	.-3026   	; 0x2550 <FindChild>
    3122:	f7 01       	movw	r30, r14
    3124:	ee 0f       	add	r30, r30
    3126:	ff 1f       	adc	r31, r31
    3128:	ed 51       	subi	r30, 0x1D	; 29
    312a:	f6 4c       	sbci	r31, 0xC6	; 198
    312c:	80 83       	st	Z, r24
    312e:	91 83       	std	Z+1, r25	; 0x01
                if (route[currDepth+1]) {
    3130:	90 91 34 38 	lds	r25, 0x3834	; 0x803834 <currDepth>
    3134:	29 2f       	mov	r18, r25
    3136:	30 e0       	ldi	r19, 0x00	; 0
    3138:	f9 01       	movw	r30, r18
    313a:	ee 0f       	add	r30, r30
    313c:	ff 1f       	adc	r31, r31
    313e:	ed 51       	subi	r30, 0x1D	; 29
    3140:	f6 4c       	sbci	r31, 0xC6	; 198
    3142:	40 81       	ld	r20, Z
    3144:	51 81       	ldd	r21, Z+1	; 0x01
    3146:	41 15       	cp	r20, r1
    3148:	51 05       	cpc	r21, r1
    314a:	21 f0       	breq	.+8      	; 0x3154 <ProcessInput+0x4dc>
                    PopulateObject(route[currDepth+1], &actObj1);
    314c:	60 ee       	ldi	r22, 0xE0	; 224
    314e:	78 e3       	ldi	r23, 0x38	; 56
    3150:	ca 01       	movw	r24, r20
    3152:	1c c0       	rjmp	.+56     	; 0x318c <ProcessInput+0x514>
                    SetResponse(elements++, actObj1.addrStr[DESC], actObj1.lenStr[DESC],GAME);   
                } else if (currDepth) {
    3154:	99 23       	and	r25, r25
                    if (CheckLetter(route[currDepth-1], data[1])) {
    3156:	81 f1       	breq	.+96     	; 0x31b8 <ProcessInput+0x540>
    3158:	22 0f       	add	r18, r18
    315a:	33 1f       	adc	r19, r19
    315c:	f9 01       	movw	r30, r18
    315e:	e1 52       	subi	r30, 0x21	; 33
    3160:	f6 4c       	sbci	r31, 0xC6	; 198
    3162:	d3 01       	movw	r26, r6
    3164:	11 96       	adiw	r26, 0x01	; 1
    3166:	6c 91       	ld	r22, X
    3168:	80 81       	ld	r24, Z
    316a:	91 81       	ldd	r25, Z+1	; 0x01
    316c:	aa d9       	rcall	.-3244   	; 0x24c2 <CheckLetter>
    316e:	81 11       	cpse	r24, r1
    3170:	02 c0       	rjmp	.+4      	; 0x3176 <ProcessInput+0x4fe>
}

//The game logic!
uint8_t ProcessInput(uint8_t *data){
    static object_model_t actObj1, actObj2;
    uint8_t elements = 1;
    3172:	11 e0       	ldi	r17, 0x01	; 1
                if (route[currDepth+1]) {
                    PopulateObject(route[currDepth+1], &actObj1);
                    SetResponse(elements++, actObj1.addrStr[DESC], actObj1.lenStr[DESC],GAME);   
                } else if (currDepth) {
                    if (CheckLetter(route[currDepth-1], data[1])) {
                        PopulateObject(route[currDepth-1], &actObj1);
    3174:	ec c4       	rjmp	.+2520   	; 0x3b4e <ProcessInput+0xed6>
    3176:	e0 91 34 38 	lds	r30, 0x3834	; 0x803834 <currDepth>
    317a:	f0 e0       	ldi	r31, 0x00	; 0
    317c:	ee 0f       	add	r30, r30
    317e:	ff 1f       	adc	r31, r31
    3180:	e1 52       	subi	r30, 0x21	; 33
    3182:	f6 4c       	sbci	r31, 0xC6	; 198
    3184:	60 ee       	ldi	r22, 0xE0	; 224
    3186:	78 e3       	ldi	r23, 0x38	; 56
    3188:	80 81       	ld	r24, Z
    318a:	91 81       	ldd	r25, Z+1	; 0x01
    318c:	21 d9       	rcall	.-3518   	; 0x23d0 <PopulateObject>
                        SetResponse(elements++, actObj1.addrStr[DESC], actObj1.lenStr[DESC],GAME);
    318e:	80 91 fc 38 	lds	r24, 0x38FC	; 0x8038fc <actObj1.3989+0x1c>
    3192:	90 91 fd 38 	lds	r25, 0x38FD	; 0x8038fd <actObj1.3989+0x1d>
    return 0;
}

//
void SetResponse(uint8_t number, uint16_t address, uint16_t length, uint8_t type){
    reactStr[0][number]=address;
    3196:	20 91 ee 38 	lds	r18, 0x38EE	; 0x8038ee <actObj1.3989+0xe>
    319a:	30 91 ef 38 	lds	r19, 0x38EF	; 0x8038ef <actObj1.3989+0xf>
    319e:	20 93 23 39 	sts	0x3923, r18	; 0x803923 <reactStr+0x2>
    31a2:	30 93 24 39 	sts	0x3924, r19	; 0x803924 <reactStr+0x3>
    reactStr[1][number]=length;
    31a6:	80 93 63 39 	sts	0x3963, r24	; 0x803963 <reactStr+0x42>
    31aa:	90 93 64 39 	sts	0x3964, r25	; 0x803964 <reactStr+0x43>
    reactStr[2][number]=type;
    31ae:	10 92 a3 39 	sts	0x39A3, r1	; 0x8039a3 <reactStr+0x82>
    31b2:	10 92 a4 39 	sts	0x39A4, r1	; 0x8039a4 <reactStr+0x83>
    31b6:	32 ce       	rjmp	.-924    	; 0x2e1c <ProcessInput+0x1a4>
    return 0;
}

//
void SetResponse(uint8_t number, uint16_t address, uint16_t length, uint8_t type){
    reactStr[0][number]=address;
    31b8:	81 ed       	ldi	r24, 0xD1	; 209
    31ba:	99 e7       	ldi	r25, 0x79	; 121
    31bc:	80 93 23 39 	sts	0x3923, r24	; 0x803923 <reactStr+0x2>
    31c0:	90 93 24 39 	sts	0x3924, r25	; 0x803924 <reactStr+0x3>
    reactStr[1][number]=length;
    31c4:	8a e1       	ldi	r24, 0x1A	; 26
    31c6:	90 e0       	ldi	r25, 0x00	; 0
    31c8:	c9 c2       	rjmp	.+1426   	; 0x375c <ProcessInput+0xae4>
                    SetResponse(elements++, A_DONTSEE, L_DONTSEE, TEASER);
                }
            }
        
        //Pick up an object
        } else if (data[0] == 'p') {
    31ca:	80 37       	cpi	r24, 0x70	; 112
    31cc:	09 f0       	breq	.+2      	; 0x31d0 <ProcessInput+0x558>
    31ce:	92 c0       	rjmp	.+292    	; 0x32f4 <ProcessInput+0x67c>
            if (inventory[0]&&inventory[1]) {
    31d0:	80 91 44 38 	lds	r24, 0x3844	; 0x803844 <inventory>
    31d4:	90 91 45 38 	lds	r25, 0x3845	; 0x803845 <inventory+0x1>
    31d8:	89 2b       	or	r24, r25
    31da:	79 f0       	breq	.+30     	; 0x31fa <ProcessInput+0x582>
    31dc:	80 91 46 38 	lds	r24, 0x3846	; 0x803846 <inventory+0x2>
    31e0:	90 91 47 38 	lds	r25, 0x3847	; 0x803847 <inventory+0x3>
    31e4:	89 2b       	or	r24, r25
    31e6:	49 f0       	breq	.+18     	; 0x31fa <ProcessInput+0x582>
    return 0;
}

//
void SetResponse(uint8_t number, uint16_t address, uint16_t length, uint8_t type){
    reactStr[0][number]=address;
    31e8:	87 e0       	ldi	r24, 0x07	; 7
    31ea:	98 e7       	ldi	r25, 0x78	; 120
    31ec:	80 93 23 39 	sts	0x3923, r24	; 0x803923 <reactStr+0x2>
    31f0:	90 93 24 39 	sts	0x3924, r25	; 0x803924 <reactStr+0x3>
    reactStr[1][number]=length;
    31f4:	89 e5       	ldi	r24, 0x59	; 89
    31f6:	90 e0       	ldi	r25, 0x00	; 0
    31f8:	b1 c2       	rjmp	.+1378   	; 0x375c <ProcessInput+0xae4>
        
        //Pick up an object
        } else if (data[0] == 'p') {
            if (inventory[0]&&inventory[1]) {
                SetResponse(elements++, A_CARRYTWO, L_CARRYTWO, TEASER);
            } else if (inputLen != 2) {
    31fa:	b2 e0       	ldi	r27, 0x02	; 2
    31fc:	fb 12       	cpse	r15, r27
    31fe:	6f cd       	rjmp	.-1314   	; 0x2cde <ProcessInput+0x66>
                SetResponse(elements++, A_NOTPOSSIBLE, L_NOTPOSSIBLE, TEASER);
            } else {
                route[currDepth+1] = FindChild(route[currDepth], data[1], 0);
    3200:	00 91 34 38 	lds	r16, 0x3834	; 0x803834 <currDepth>
    3204:	10 e0       	ldi	r17, 0x00	; 0
    3206:	f8 01       	movw	r30, r16
    3208:	ee 0f       	add	r30, r30
    320a:	ff 1f       	adc	r31, r31
    320c:	ef 51       	subi	r30, 0x1F	; 31
    320e:	f6 4c       	sbci	r31, 0xC6	; 198
    3210:	40 e0       	ldi	r20, 0x00	; 0
    3212:	50 e0       	ldi	r21, 0x00	; 0
    3214:	d3 01       	movw	r26, r6
    3216:	11 96       	adiw	r26, 0x01	; 1
    3218:	6c 91       	ld	r22, X
    321a:	80 81       	ld	r24, Z
    321c:	91 81       	ldd	r25, Z+1	; 0x01
    321e:	98 d9       	rcall	.-3280   	; 0x2550 <FindChild>
    3220:	00 0f       	add	r16, r16
    3222:	11 1f       	adc	r17, r17
    3224:	f8 01       	movw	r30, r16
    3226:	ed 51       	subi	r30, 0x1D	; 29
    3228:	f6 4c       	sbci	r31, 0xC6	; 198
    322a:	80 83       	st	Z, r24
    322c:	91 83       	std	Z+1, r25	; 0x01
                if (route[currDepth+1]) {
    322e:	20 91 34 38 	lds	r18, 0x3834	; 0x803834 <currDepth>
    3232:	30 e0       	ldi	r19, 0x00	; 0
    3234:	2f 5f       	subi	r18, 0xFF	; 255
    3236:	3f 4f       	sbci	r19, 0xFF	; 255
    3238:	22 0f       	add	r18, r18
    323a:	33 1f       	adc	r19, r19
    323c:	f9 01       	movw	r30, r18
    323e:	ef 51       	subi	r30, 0x1F	; 31
    3240:	f6 4c       	sbci	r31, 0xC6	; 198
    3242:	80 81       	ld	r24, Z
    3244:	91 81       	ldd	r25, Z+1	; 0x01
    3246:	00 97       	sbiw	r24, 0x00	; 0
    3248:	09 f4       	brne	.+2      	; 0x324c <ProcessInput+0x5d4>
    324a:	38 c3       	rjmp	.+1648   	; 0x38bc <ProcessInput+0xc44>
                    if ((route[currDepth+1] == inventory[0])||(route[currDepth+1] == inventory[1])) {
    324c:	40 91 44 38 	lds	r20, 0x3844	; 0x803844 <inventory>
    3250:	50 91 45 38 	lds	r21, 0x3845	; 0x803845 <inventory+0x1>
    3254:	84 17       	cp	r24, r20
    3256:	95 07       	cpc	r25, r21
    3258:	39 f0       	breq	.+14     	; 0x3268 <ProcessInput+0x5f0>
    325a:	40 91 46 38 	lds	r20, 0x3846	; 0x803846 <inventory+0x2>
    325e:	50 91 47 38 	lds	r21, 0x3847	; 0x803847 <inventory+0x3>
    3262:	84 17       	cp	r24, r20
    3264:	95 07       	cpc	r25, r21
    3266:	c1 f4       	brne	.+48     	; 0x3298 <ProcessInput+0x620>
    return 0;
}

//
void SetResponse(uint8_t number, uint16_t address, uint16_t length, uint8_t type){
    reactStr[0][number]=address;
    3268:	82 ee       	ldi	r24, 0xE2	; 226
    326a:	97 e7       	ldi	r25, 0x77	; 119
    326c:	80 93 23 39 	sts	0x3923, r24	; 0x803923 <reactStr+0x2>
    3270:	90 93 24 39 	sts	0x3924, r25	; 0x803924 <reactStr+0x3>
    reactStr[1][number]=length;
    3274:	85 e2       	ldi	r24, 0x25	; 37
    3276:	90 e0       	ldi	r25, 0x00	; 0
    3278:	80 93 63 39 	sts	0x3963, r24	; 0x803963 <reactStr+0x42>
    327c:	90 93 64 39 	sts	0x3964, r25	; 0x803964 <reactStr+0x43>
    reactStr[2][number]=type;
    3280:	81 e0       	ldi	r24, 0x01	; 1
    3282:	90 e0       	ldi	r25, 0x00	; 0
    3284:	80 93 a3 39 	sts	0x39A3, r24	; 0x8039a3 <reactStr+0x82>
    3288:	90 93 a4 39 	sts	0x39A4, r25	; 0x8039a4 <reactStr+0x83>
            } else {
                route[currDepth+1] = FindChild(route[currDepth], data[1], 0);
                if (route[currDepth+1]) {
                    if ((route[currDepth+1] == inventory[0])||(route[currDepth+1] == inventory[1])) {
                        SetResponse(elements++, A_ALREADYCARRYING, L_ALREADYCARRYING, TEASER);
                        route[currDepth+1] = 0;
    328c:	f9 01       	movw	r30, r18
    328e:	ef 51       	subi	r30, 0x1F	; 31
    3290:	f6 4c       	sbci	r31, 0xC6	; 198
    3292:	10 82       	st	Z, r1
    3294:	11 82       	std	Z+1, r1	; 0x01
                    } else {
                        //Put item in the inventory if possible
                        PopulateObject(route[currDepth+1], &actObj1);  
    3296:	c2 cd       	rjmp	.-1148   	; 0x2e1c <ProcessInput+0x1a4>
    3298:	60 ee       	ldi	r22, 0xE0	; 224
    329a:	78 e3       	ldi	r23, 0x38	; 56
    329c:	99 d8       	rcall	.-3790   	; 0x23d0 <PopulateObject>
                        if (CheckState(actObj1.byteField[ACTION_ACL])) {
    329e:	80 91 e7 38 	lds	r24, 0x38E7	; 0x8038e7 <actObj1.3989+0x7>
    32a2:	0e 94 0d 0a 	call	0x141a	; 0x141a <CheckState>
    32a6:	88 23       	and	r24, r24
    32a8:	09 f4       	brne	.+2      	; 0x32ac <ProcessInput+0x634>
    32aa:	e3 c2       	rjmp	.+1478   	; 0x3872 <ProcessInput+0xbfa>
                            if (actObj1.byteField[ITEM_NR]) {
    32ac:	80 91 eb 38 	lds	r24, 0x38EB	; 0x8038eb <actObj1.3989+0xb>
    32b0:	88 23       	and	r24, r24
    32b2:	09 f4       	brne	.+2      	; 0x32b6 <ProcessInput+0x63e>
    32b4:	14 cd       	rjmp	.-1496   	; 0x2cde <ProcessInput+0x66>
                                if (inventory[0]) {
    32b6:	80 91 44 38 	lds	r24, 0x3844	; 0x803844 <inventory>
    32ba:	90 91 45 38 	lds	r25, 0x3845	; 0x803845 <inventory+0x1>
    32be:	e0 91 34 38 	lds	r30, 0x3834	; 0x803834 <currDepth>
                                    inventory[1] = route[currDepth+1];
    32c2:	f0 e0       	ldi	r31, 0x00	; 0
    32c4:	ee 0f       	add	r30, r30
    32c6:	ff 1f       	adc	r31, r31
    32c8:	ed 51       	subi	r30, 0x1D	; 29
    32ca:	f6 4c       	sbci	r31, 0xC6	; 198
                    } else {
                        //Put item in the inventory if possible
                        PopulateObject(route[currDepth+1], &actObj1);  
                        if (CheckState(actObj1.byteField[ACTION_ACL])) {
                            if (actObj1.byteField[ITEM_NR]) {
                                if (inventory[0]) {
    32cc:	89 2b       	or	r24, r25
    32ce:	39 f0       	breq	.+14     	; 0x32de <ProcessInput+0x666>
                                    inventory[1] = route[currDepth+1];
    32d0:	80 81       	ld	r24, Z
    32d2:	91 81       	ldd	r25, Z+1	; 0x01
    32d4:	80 93 46 38 	sts	0x3846, r24	; 0x803846 <inventory+0x2>
    32d8:	90 93 47 38 	sts	0x3847, r25	; 0x803847 <inventory+0x3>
    32dc:	06 c0       	rjmp	.+12     	; 0x32ea <ProcessInput+0x672>
                                } else {
                                    inventory[0] = route[currDepth+1];
    32de:	80 81       	ld	r24, Z
    32e0:	91 81       	ldd	r25, Z+1	; 0x01
    32e2:	80 93 44 38 	sts	0x3844, r24	; 0x803844 <inventory>
    32e6:	90 93 45 38 	sts	0x3845, r25	; 0x803845 <inventory+0x1>
                                }
                                UpdateState(actObj1.byteField[ACTION_STATE]);
    32ea:	80 91 ea 38 	lds	r24, 0x38EA	; 0x8038ea <actObj1.3989+0xa>
    32ee:	0e 94 ec 09 	call	0x13d8	; 0x13d8 <UpdateState>
    32f2:	2b c0       	rjmp	.+86     	; 0x334a <ProcessInput+0x6d2>
                } else SetResponse(elements++, A_NOSUCHOBJECT, L_NOSUCHOBJECT, TEASER);
            }
        } else

        //Drop item if in inventory
        if (data[0] == 'd') {
    32f4:	84 36       	cpi	r24, 0x64	; 100
    32f6:	d9 f4       	brne	.+54     	; 0x332e <ProcessInput+0x6b6>
            if ((inventory[0] == 0)&&(inventory[1] == 0)){
    32f8:	80 91 44 38 	lds	r24, 0x3844	; 0x803844 <inventory>
    32fc:	90 91 45 38 	lds	r25, 0x3845	; 0x803845 <inventory+0x1>
    3300:	00 97       	sbiw	r24, 0x00	; 0
    3302:	09 f0       	breq	.+2      	; 0x3306 <ProcessInput+0x68e>
    3304:	3c c4       	rjmp	.+2168   	; 0x3b7e <ProcessInput+0xf06>
    3306:	80 91 46 38 	lds	r24, 0x3846	; 0x803846 <inventory+0x2>
    330a:	90 91 47 38 	lds	r25, 0x3847	; 0x803847 <inventory+0x3>
    330e:	89 2b       	or	r24, r25
    3310:	49 f4       	brne	.+18     	; 0x3324 <ProcessInput+0x6ac>
    return 0;
}

//
void SetResponse(uint8_t number, uint16_t address, uint16_t length, uint8_t type){
    reactStr[0][number]=address;
    3312:	86 ea       	ldi	r24, 0xA6	; 166
    3314:	97 e7       	ldi	r25, 0x77	; 119
    3316:	80 93 23 39 	sts	0x3923, r24	; 0x803923 <reactStr+0x2>
    331a:	90 93 24 39 	sts	0x3924, r25	; 0x803924 <reactStr+0x3>
    reactStr[1][number]=length;
    331e:	86 e2       	ldi	r24, 0x26	; 38
    3320:	90 e0       	ldi	r25, 0x00	; 0
    3322:	72 cd       	rjmp	.-1308   	; 0x2e08 <ProcessInput+0x190>

        //Drop item if in inventory
        if (data[0] == 'd') {
            if ((inventory[0] == 0)&&(inventory[1] == 0)){
                SetResponse(elements++, A_EMPTYHANDS, L_EMPTYHANDS, TEASER);
            } else if (inputLen != 2) {
    3324:	b2 e0       	ldi	r27, 0x02	; 2
    3326:	fb 16       	cp	r15, r27
    3328:	09 f4       	brne	.+2      	; 0x332c <ProcessInput+0x6b4>
    332a:	8b c4       	rjmp	.+2326   	; 0x3c42 <ProcessInput+0xfca>
    332c:	d8 cc       	rjmp	.-1616   	; 0x2cde <ProcessInput+0x66>
                }
            }
        } 

        //Inventory list
        else if (data[0] == 'i') {
    332e:	89 36       	cpi	r24, 0x69	; 105
            if ((inventory[0] == 0)&&(inventory[1] == 0)){
    3330:	81 f4       	brne	.+32     	; 0x3352 <ProcessInput+0x6da>
    3332:	80 91 44 38 	lds	r24, 0x3844	; 0x803844 <inventory>
    3336:	90 91 45 38 	lds	r25, 0x3845	; 0x803845 <inventory+0x1>
    333a:	89 2b       	or	r24, r25
    333c:	31 f4       	brne	.+12     	; 0x334a <ProcessInput+0x6d2>
    333e:	80 91 46 38 	lds	r24, 0x3846	; 0x803846 <inventory+0x2>
    3342:	90 91 47 38 	lds	r25, 0x3847	; 0x803847 <inventory+0x3>
    3346:	89 2b       	or	r24, r25
                SetResponse(elements++, A_EMPTYHANDS, L_EMPTYHANDS, TEASER);
                } else {
                    elements = ShowInventory(elements);
    3348:	21 f3       	breq	.-56     	; 0x3312 <ProcessInput+0x69a>
    334a:	81 e0       	ldi	r24, 0x01	; 1
    334c:	1a dc       	rcall	.-1996   	; 0x2b82 <ShowInventory>
    334e:	18 2f       	mov	r17, r24
    3350:	fe c3       	rjmp	.+2044   	; 0x3b4e <ProcessInput+0xed6>
                }        
        
        //Talk, use, give, read
        } else if ((data[0] == 't')||(data[0] == 'u')||(data[0] == 'g')||(data[0] == 'r')) {
    3352:	9c e8       	ldi	r25, 0x8C	; 140
    3354:	98 0f       	add	r25, r24
    3356:	92 30       	cpi	r25, 0x02	; 2
    3358:	28 f0       	brcs	.+10     	; 0x3364 <ProcessInput+0x6ec>
    335a:	87 36       	cpi	r24, 0x67	; 103
    335c:	19 f0       	breq	.+6      	; 0x3364 <ProcessInput+0x6ec>
    335e:	82 37       	cpi	r24, 0x72	; 114
    3360:	09 f0       	breq	.+2      	; 0x3364 <ProcessInput+0x6ec>
    3362:	b5 c2       	rjmp	.+1386   	; 0x38ce <ProcessInput+0xc56>
            if ((inputLen<2)||(inputLen>3)) {
    3364:	8e ef       	ldi	r24, 0xFE	; 254
    3366:	8f 0d       	add	r24, r15
    3368:	82 30       	cpi	r24, 0x02	; 2
    336a:	08 f0       	brcs	.+2      	; 0x336e <ProcessInput+0x6f6>
    336c:	b8 cc       	rjmp	.-1680   	; 0x2cde <ProcessInput+0x66>
                SetResponse(elements++, A_NOTPOSSIBLE, L_NOTPOSSIBLE, TEASER);                
            
            //Check for visible person or object first
            } else {
                route[currDepth+1] = FindChild(route[currDepth], data[inputLen-1], 0);
    336e:	e0 91 34 38 	lds	r30, 0x3834	; 0x803834 <currDepth>
    3372:	0e 2f       	mov	r16, r30
    3374:	10 e0       	ldi	r17, 0x00	; 0
    3376:	d3 01       	movw	r26, r6
    3378:	af 0d       	add	r26, r15
    337a:	b1 1d       	adc	r27, r1
    337c:	11 97       	sbiw	r26, 0x01	; 1
    337e:	f8 01       	movw	r30, r16
    3380:	ee 0f       	add	r30, r30
    3382:	ff 1f       	adc	r31, r31
    3384:	ef 51       	subi	r30, 0x1F	; 31
    3386:	f6 4c       	sbci	r31, 0xC6	; 198
    3388:	40 e0       	ldi	r20, 0x00	; 0
    338a:	50 e0       	ldi	r21, 0x00	; 0
    338c:	6c 91       	ld	r22, X
    338e:	80 81       	ld	r24, Z
    3390:	91 81       	ldd	r25, Z+1	; 0x01
    3392:	de d8       	rcall	.-3652   	; 0x2550 <FindChild>
    3394:	f8 01       	movw	r30, r16
    3396:	ee 0f       	add	r30, r30
    3398:	ff 1f       	adc	r31, r31
    339a:	ed 51       	subi	r30, 0x1D	; 29
    339c:	f6 4c       	sbci	r31, 0xC6	; 198
    339e:	80 83       	st	Z, r24
    33a0:	91 83       	std	Z+1, r25	; 0x01
                if (route[currDepth+1]) {
    33a2:	e0 91 34 38 	lds	r30, 0x3834	; 0x803834 <currDepth>
    33a6:	f0 e0       	ldi	r31, 0x00	; 0
    33a8:	ee 0f       	add	r30, r30
    33aa:	ff 1f       	adc	r31, r31
    33ac:	ed 51       	subi	r30, 0x1D	; 29
    33ae:	f6 4c       	sbci	r31, 0xC6	; 198
    33b0:	80 81       	ld	r24, Z
    33b2:	91 81       	ldd	r25, Z+1	; 0x01
    33b4:	00 97       	sbiw	r24, 0x00	; 0
    33b6:	09 f4       	brne	.+2      	; 0x33ba <ProcessInput+0x742>
    33b8:	78 c2       	rjmp	.+1264   	; 0x38aa <ProcessInput+0xc32>
                    
                    //Give item to person / use item on object 
                    if ((inputLen == 3)&&((data[0] == 'u')||(data[0] == 'g'))) {
    33ba:	f3 e0       	ldi	r31, 0x03	; 3
    33bc:	ff 12       	cpse	r15, r31
    33be:	60 c1       	rjmp	.+704    	; 0x3680 <ProcessInput+0xa08>
    33c0:	d3 01       	movw	r26, r6
    33c2:	2c 91       	ld	r18, X
    33c4:	25 37       	cpi	r18, 0x75	; 117
    33c6:	19 f0       	breq	.+6      	; 0x33ce <ProcessInput+0x756>
    33c8:	27 36       	cpi	r18, 0x67	; 103
    33ca:	09 f0       	breq	.+2      	; 0x33ce <ProcessInput+0x756>
    33cc:	59 c1       	rjmp	.+690    	; 0x3680 <ProcessInput+0xa08>
    33ce:	00 e0       	ldi	r16, 0x00	; 0
    33d0:	11 e0       	ldi	r17, 0x01	; 1
    return 0;
}

//
void SetResponse(uint8_t number, uint16_t address, uint16_t length, uint8_t type){
    reactStr[0][number]=address;
    33d2:	41 e6       	ldi	r20, 0x61	; 97
    33d4:	c4 2e       	mov	r12, r20
    33d6:	49 e7       	ldi	r20, 0x79	; 121
    33d8:	d4 2e       	mov	r13, r20
    reactStr[1][number]=length;
    33da:	51 e2       	ldi	r21, 0x21	; 33
    33dc:	a5 2e       	mov	r10, r21
    33de:	b1 2c       	mov	r11, r1
    reactStr[2][number]=type;
    33e0:	88 24       	eor	r8, r8
    33e2:	83 94       	inc	r8
                if (route[currDepth+1]) {
                    
                    //Give item to person / use item on object 
                    if ((inputLen == 3)&&((data[0] == 'u')||(data[0] == 'g'))) {
                        for (uint8_t x=0; x<2; x++) {
                            if (inventory[x]) { 
    33e4:	91 2c       	mov	r9, r1
    33e6:	e0 2e       	mov	r14, r16
    33e8:	f1 2c       	mov	r15, r1
    33ea:	c7 01       	movw	r24, r14
    33ec:	88 0f       	add	r24, r24
    33ee:	99 1f       	adc	r25, r25
    33f0:	fc 01       	movw	r30, r24
    33f2:	ec 5b       	subi	r30, 0xBC	; 188
    33f4:	f7 4c       	sbci	r31, 0xC7	; 199
    33f6:	7f 01       	movw	r14, r30
    33f8:	80 81       	ld	r24, Z
    33fa:	91 81       	ldd	r25, Z+1	; 0x01
    33fc:	00 97       	sbiw	r24, 0x00	; 0
                                if (CheckLetter(inventory[x], data[1])) {
    33fe:	79 f0       	breq	.+30     	; 0x341e <ProcessInput+0x7a6>
    3400:	d3 01       	movw	r26, r6
    3402:	11 96       	adiw	r26, 0x01	; 1
    3404:	6c 91       	ld	r22, X
    3406:	5d d8       	rcall	.-3910   	; 0x24c2 <CheckLetter>
    3408:	88 23       	and	r24, r24
    340a:	49 f0       	breq	.+18     	; 0x341e <ProcessInput+0x7a6>
                                    PopulateObject(inventory[x], &actObj2);
    340c:	65 eb       	ldi	r22, 0xB5	; 181
    340e:	78 e3       	ldi	r23, 0x38	; 56
    3410:	f7 01       	movw	r30, r14
    3412:	80 81       	ld	r24, Z
    3414:	91 81       	ldd	r25, Z+1	; 0x01
    3416:	0e 94 e8 11 	call	0x23d0	; 0x23d0 <PopulateObject>
                                    x = 2;
    341a:	02 e0       	ldi	r16, 0x02	; 2
    341c:	1d c0       	rjmp	.+58     	; 0x3458 <ProcessInput+0x7e0>
                                }
                            }
                            if (x == 1) { 
    341e:	01 30       	cpi	r16, 0x01	; 1
    3420:	d1 f4       	brne	.+52     	; 0x3456 <ProcessInput+0x7de>
    return 0;
}

//
void SetResponse(uint8_t number, uint16_t address, uint16_t length, uint8_t type){
    reactStr[0][number]=address;
    3422:	e1 2f       	mov	r30, r17
    3424:	f0 e0       	ldi	r31, 0x00	; 0
    3426:	df 01       	movw	r26, r30
    3428:	aa 0f       	add	r26, r26
    342a:	bb 1f       	adc	r27, r27
    342c:	af 5d       	subi	r26, 0xDF	; 223
    342e:	b6 4c       	sbci	r27, 0xC6	; 198
    3430:	cd 92       	st	X+, r12
    3432:	dc 92       	st	X, r13
    reactStr[1][number]=length;
    3434:	df 01       	movw	r26, r30
    3436:	aa 0f       	add	r26, r26
    3438:	bb 1f       	adc	r27, r27
    343a:	af 59       	subi	r26, 0x9F	; 159
    343c:	b6 4c       	sbci	r27, 0xC6	; 198
    343e:	ad 92       	st	X+, r10
    3440:	bc 92       	st	X, r11
    reactStr[2][number]=type;
    3442:	ee 0f       	add	r30, r30
    3444:	ff 1f       	adc	r31, r31
    3446:	ef 55       	subi	r30, 0x5F	; 95
    3448:	f6 4c       	sbci	r31, 0xC6	; 198
    344a:	80 82       	st	Z, r8
    344c:	91 82       	std	Z+1, r9	; 0x01
                                    x = 2;
                                }
                            }
                            if (x == 1) { 
                                SetResponse(elements++, A_NOTCARRYING, L_NOTCARRYING, TEASER);
                                data[0] = 0;
    344e:	d3 01       	movw	r26, r6
    3450:	1c 92       	st	X, r1
                                    PopulateObject(inventory[x], &actObj2);
                                    x = 2;
                                }
                            }
                            if (x == 1) { 
                                SetResponse(elements++, A_NOTCARRYING, L_NOTCARRYING, TEASER);
    3452:	1f 5f       	subi	r17, 0xFF	; 255
    3454:	01 c0       	rjmp	.+2      	; 0x3458 <ProcessInput+0x7e0>
    3456:	00 e0       	ldi	r16, 0x00	; 0
                route[currDepth+1] = FindChild(route[currDepth], data[inputLen-1], 0);
                if (route[currDepth+1]) {
                    
                    //Give item to person / use item on object 
                    if ((inputLen == 3)&&((data[0] == 'u')||(data[0] == 'g'))) {
                        for (uint8_t x=0; x<2; x++) {
    3458:	0f 5f       	subi	r16, 0xFF	; 255
    345a:	01 30       	cpi	r16, 0x01	; 1
    345c:	21 f2       	breq	.-120    	; 0x33e6 <ProcessInput+0x76e>
                                data[0] = 0;
                            }
                        }

                        //Both the item and person/object are found, check if action is legit
                        if (data[0]){
    345e:	f3 01       	movw	r30, r6
    3460:	80 81       	ld	r24, Z
    3462:	88 23       	and	r24, r24
    3464:	09 f4       	brne	.+2      	; 0x3468 <ProcessInput+0x7f0>
    3466:	73 c3       	rjmp	.+1766   	; 0x3b4e <ProcessInput+0xed6>
                            PopulateObject(route[currDepth+1], &actObj1);
    3468:	e0 91 34 38 	lds	r30, 0x3834	; 0x803834 <currDepth>
    346c:	f0 e0       	ldi	r31, 0x00	; 0
    346e:	ee 0f       	add	r30, r30
    3470:	ff 1f       	adc	r31, r31
    3472:	ed 51       	subi	r30, 0x1D	; 29
    3474:	f6 4c       	sbci	r31, 0xC6	; 198
    3476:	60 ee       	ldi	r22, 0xE0	; 224
    3478:	78 e3       	ldi	r23, 0x38	; 56
    347a:	80 81       	ld	r24, Z
    347c:	91 81       	ldd	r25, Z+1	; 0x01
    347e:	0e 94 e8 11 	call	0x23d0	; 0x23d0 <PopulateObject>

                            //Special game
                            if (actObj1.lenStr[ACTION_STR1] == 1) {
    3482:	e0 90 fe 38 	lds	r14, 0x38FE	; 0x8038fe <actObj1.3989+0x1e>
    3486:	f0 90 ff 38 	lds	r15, 0x38FF	; 0x8038ff <actObj1.3989+0x1f>
    348a:	f1 e0       	ldi	r31, 0x01	; 1
    348c:	ef 16       	cp	r14, r31
    348e:	f1 04       	cpc	r15, r1
    3490:	09 f0       	breq	.+2      	; 0x3494 <ProcessInput+0x81c>
    3492:	89 c0       	rjmp	.+274    	; 0x35a6 <ProcessInput+0x92e>
                                ExtEERead(actObj1.addrStr[ACTION_STR1], 1, GAME, &data[2]);
    3494:	93 01       	movw	r18, r6
    3496:	2e 5f       	subi	r18, 0xFE	; 254
    3498:	3f 4f       	sbci	r19, 0xFF	; 255
    349a:	40 e0       	ldi	r20, 0x00	; 0
    349c:	61 e0       	ldi	r22, 0x01	; 1
    349e:	80 91 f0 38 	lds	r24, 0x38F0	; 0x8038f0 <actObj1.3989+0x10>
    34a2:	90 91 f1 38 	lds	r25, 0x38F1	; 0x8038f1 <actObj1.3989+0x11>
    34a6:	0e 94 56 08 	call	0x10ac	; 0x10ac <ExtEERead>
                                if (data[2] == '1') {
    34aa:	d3 01       	movw	r26, r6
    34ac:	12 96       	adiw	r26, 0x02	; 2
    34ae:	3c 91       	ld	r19, X
    34b0:	31 33       	cpi	r19, 0x31	; 49
    34b2:	09 f0       	breq	.+2      	; 0x34b6 <ProcessInput+0x83e>
    34b4:	4c c3       	rjmp	.+1688   	; 0x3b4e <ProcessInput+0xed6>
                                    uint8_t item = actObj2.byteField[ITEM_NR];
    34b6:	20 91 c0 38 	lds	r18, 0x38C0	; 0x8038c0 <actObj2.3990+0xb>
                                    if ((item < 31)||(item > 34)) {
    34ba:	51 ee       	ldi	r21, 0xE1	; 225
    34bc:	52 0f       	add	r21, r18
    34be:	41 e0       	ldi	r20, 0x01	; 1
    34c0:	41 0f       	add	r20, r17
    34c2:	81 2f       	mov	r24, r17
    34c4:	90 e0       	ldi	r25, 0x00	; 0
    return 0;
}

//
void SetResponse(uint8_t number, uint16_t address, uint16_t length, uint8_t type){
    reactStr[0][number]=address;
    34c6:	fc 01       	movw	r30, r24
    34c8:	ee 0f       	add	r30, r30
    34ca:	ff 1f       	adc	r31, r31
    34cc:	ef 5d       	subi	r30, 0xDF	; 223
    34ce:	f6 4c       	sbci	r31, 0xC6	; 198
                            //Special game
                            if (actObj1.lenStr[ACTION_STR1] == 1) {
                                ExtEERead(actObj1.addrStr[ACTION_STR1], 1, GAME, &data[2]);
                                if (data[2] == '1') {
                                    uint8_t item = actObj2.byteField[ITEM_NR];
                                    if ((item < 31)||(item > 34)) {
    34d0:	54 30       	cpi	r21, 0x04	; 4
    34d2:	b0 f0       	brcs	.+44     	; 0x3500 <ProcessInput+0x888>
    return 0;
}

//
void SetResponse(uint8_t number, uint16_t address, uint16_t length, uint8_t type){
    reactStr[0][number]=address;
    34d4:	21 e0       	ldi	r18, 0x01	; 1
    34d6:	39 e7       	ldi	r19, 0x79	; 121
    34d8:	20 83       	st	Z, r18
    34da:	31 83       	std	Z+1, r19	; 0x01
    reactStr[1][number]=length;
    34dc:	fc 01       	movw	r30, r24
    34de:	ee 0f       	add	r30, r30
    34e0:	ff 1f       	adc	r31, r31
    34e2:	ef 59       	subi	r30, 0x9F	; 159
    34e4:	f6 4c       	sbci	r31, 0xC6	; 198
    34e6:	2a e1       	ldi	r18, 0x1A	; 26
    34e8:	30 e0       	ldi	r19, 0x00	; 0
    34ea:	20 83       	st	Z, r18
    34ec:	31 83       	std	Z+1, r19	; 0x01
    reactStr[2][number]=type;
    34ee:	88 0f       	add	r24, r24
    34f0:	99 1f       	adc	r25, r25
    34f2:	fc 01       	movw	r30, r24
    34f4:	ef 55       	subi	r30, 0x5F	; 95
    34f6:	f6 4c       	sbci	r31, 0xC6	; 198
    34f8:	e0 82       	st	Z, r14
    34fa:	f1 82       	std	Z+1, r15	; 0x01
                            if (actObj1.lenStr[ACTION_STR1] == 1) {
                                ExtEERead(actObj1.addrStr[ACTION_STR1], 1, GAME, &data[2]);
                                if (data[2] == '1') {
                                    uint8_t item = actObj2.byteField[ITEM_NR];
                                    if ((item < 31)||(item > 34)) {
                                        SetResponse(elements++, A_CANTUSE, L_CANTUSE, TEASER);
    34fc:	14 2f       	mov	r17, r20
    34fe:	27 c3       	rjmp	.+1614   	; 0x3b4e <ProcessInput+0xed6>
    return 0;
}

//
void SetResponse(uint8_t number, uint16_t address, uint16_t length, uint8_t type){
    reactStr[0][number]=address;
    3500:	60 e5       	ldi	r22, 0x50	; 80
    3502:	75 e7       	ldi	r23, 0x75	; 117
    3504:	60 83       	st	Z, r22
    3506:	71 83       	std	Z+1, r23	; 0x01
    reactStr[1][number]=length;
    3508:	fc 01       	movw	r30, r24
    350a:	ee 0f       	add	r30, r30
    350c:	ff 1f       	adc	r31, r31
    350e:	ef 59       	subi	r30, 0x9F	; 159
    3510:	f6 4c       	sbci	r31, 0xC6	; 198
    3512:	62 eb       	ldi	r22, 0xB2	; 178
    3514:	70 e0       	ldi	r23, 0x00	; 0
    3516:	60 83       	st	Z, r22
    3518:	71 83       	std	Z+1, r23	; 0x01
    reactStr[2][number]=type;
    351a:	88 0f       	add	r24, r24
    351c:	99 1f       	adc	r25, r25
    351e:	fc 01       	movw	r30, r24
    3520:	ef 55       	subi	r30, 0x5F	; 95
    3522:	f6 4c       	sbci	r31, 0xC6	; 198
    3524:	e0 82       	st	Z, r14
    3526:	f1 82       	std	Z+1, r15	; 0x01
    return 0;
}

//
void SetResponse(uint8_t number, uint16_t address, uint16_t length, uint8_t type){
    reactStr[0][number]=address;
    3528:	84 2f       	mov	r24, r20
    352a:	90 e0       	ldi	r25, 0x00	; 0
    352c:	fc 01       	movw	r30, r24
    352e:	ee 0f       	add	r30, r30
    3530:	ff 1f       	adc	r31, r31
    3532:	ef 5d       	subi	r30, 0xDF	; 223
    3534:	f6 4c       	sbci	r31, 0xC6	; 198
    3536:	49 e5       	ldi	r20, 0x59	; 89
    3538:	5a e7       	ldi	r21, 0x7A	; 122
    353a:	40 83       	st	Z, r20
    353c:	51 83       	std	Z+1, r21	; 0x01
    reactStr[1][number]=length;
    353e:	fc 01       	movw	r30, r24
    3540:	ee 0f       	add	r30, r30
    3542:	ff 1f       	adc	r31, r31
    3544:	ef 59       	subi	r30, 0x9F	; 159
    3546:	f6 4c       	sbci	r31, 0xC6	; 198
    3548:	42 e0       	ldi	r20, 0x02	; 2
    354a:	50 e0       	ldi	r21, 0x00	; 0
    354c:	40 83       	st	Z, r20
    354e:	51 83       	std	Z+1, r21	; 0x01
    reactStr[2][number]=type;
    3550:	88 0f       	add	r24, r24
    3552:	99 1f       	adc	r25, r25
    3554:	fc 01       	movw	r30, r24
    3556:	ef 55       	subi	r30, 0x5F	; 95
    3558:	f6 4c       	sbci	r31, 0xC6	; 198
    355a:	e0 82       	st	Z, r14
    355c:	f1 82       	std	Z+1, r15	; 0x01
    return 0;
}

//
void SetResponse(uint8_t number, uint16_t address, uint16_t length, uint8_t type){
    reactStr[0][number]=address;
    355e:	82 e0       	ldi	r24, 0x02	; 2
    3560:	81 0f       	add	r24, r17
    3562:	90 e0       	ldi	r25, 0x00	; 0
    3564:	1d 5f       	subi	r17, 0xFD	; 253
    3566:	fc 01       	movw	r30, r24
    3568:	ee 0f       	add	r30, r30
    356a:	ff 1f       	adc	r31, r31
    356c:	ef 5d       	subi	r30, 0xDF	; 223
    356e:	f6 4c       	sbci	r31, 0xC6	; 198
    3570:	4d ea       	ldi	r20, 0xAD	; 173
    3572:	58 e7       	ldi	r21, 0x78	; 120
    3574:	40 83       	st	Z, r20
    3576:	51 83       	std	Z+1, r21	; 0x01
    reactStr[1][number]=length;
    3578:	fc 01       	movw	r30, r24
    357a:	ee 0f       	add	r30, r30
    357c:	ff 1f       	adc	r31, r31
    357e:	ef 59       	subi	r30, 0x9F	; 159
    3580:	f6 4c       	sbci	r31, 0xC6	; 198
    3582:	42 e1       	ldi	r20, 0x12	; 18
    3584:	50 e0       	ldi	r21, 0x00	; 0
    3586:	40 83       	st	Z, r20
    3588:	51 83       	std	Z+1, r21	; 0x01
    reactStr[2][number]=type;
    358a:	88 0f       	add	r24, r24
    358c:	99 1f       	adc	r25, r25
    358e:	fc 01       	movw	r30, r24
    3590:	ef 55       	subi	r30, 0x5F	; 95
    3592:	f6 4c       	sbci	r31, 0xC6	; 198
    3594:	e0 82       	st	Z, r14
    3596:	f1 82       	std	Z+1, r15	; 0x01
                                        SetResponse(elements++, A_CANTUSE, L_CANTUSE, TEASER);
                                    } else {
                                        SetResponse(elements++, A_PRIEST, L_PRIEST, TEASER);
                                        SetResponse(elements++, A_LF, 2, TEASER);
                                        SetResponse(elements++, A_RESPONSE, L_RESPONSE, TEASER);
                                        specialInput[0] = '1';
    3598:	30 93 10 39 	sts	0x3910, r19	; 0x803910 <specialInput>
                                        specialInput[1] = item;
    359c:	20 93 11 39 	sts	0x3911, r18	; 0x803911 <specialInput+0x1>
                                        specialInput[2] = 0;
    35a0:	10 92 12 39 	sts	0x3912, r1	; 0x803912 <specialInput+0x2>
    35a4:	d4 c2       	rjmp	.+1448   	; 0x3b4e <ProcessInput+0xed6>
                                    }
                                }

                            //Normal "use ... on ..." or "give ... to ..." action
                            } else if (actObj1.byteField[ACTION_ITEM] == actObj2.byteField[ITEM_NR]) {
    35a6:	90 91 e9 38 	lds	r25, 0x38E9	; 0x8038e9 <actObj1.3989+0x9>
    35aa:	80 91 c0 38 	lds	r24, 0x38C0	; 0x8038c0 <actObj2.3990+0xb>
    35ae:	98 13       	cpse	r25, r24
    35b0:	2e c0       	rjmp	.+92     	; 0x360e <ProcessInput+0x996>
                                SetResponse(elements++, actObj1.addrStr[ACTION_MSG], actObj1.lenStr[ACTION_MSG], GAME);
    35b2:	20 91 06 39 	lds	r18, 0x3906	; 0x803906 <actObj1.3989+0x26>
    35b6:	30 91 07 39 	lds	r19, 0x3907	; 0x803907 <actObj1.3989+0x27>
    35ba:	01 e0       	ldi	r16, 0x01	; 1
    35bc:	01 0f       	add	r16, r17
    return 0;
}

//
void SetResponse(uint8_t number, uint16_t address, uint16_t length, uint8_t type){
    reactStr[0][number]=address;
    35be:	81 2f       	mov	r24, r17
    35c0:	90 e0       	ldi	r25, 0x00	; 0
    35c2:	fc 01       	movw	r30, r24
    35c4:	ee 0f       	add	r30, r30
    35c6:	ff 1f       	adc	r31, r31
    35c8:	ef 5d       	subi	r30, 0xDF	; 223
    35ca:	f6 4c       	sbci	r31, 0xC6	; 198
    35cc:	40 91 f8 38 	lds	r20, 0x38F8	; 0x8038f8 <actObj1.3989+0x18>
    35d0:	50 91 f9 38 	lds	r21, 0x38F9	; 0x8038f9 <actObj1.3989+0x19>
    35d4:	40 83       	st	Z, r20
    35d6:	51 83       	std	Z+1, r21	; 0x01
    reactStr[1][number]=length;
    35d8:	fc 01       	movw	r30, r24
    35da:	ee 0f       	add	r30, r30
    35dc:	ff 1f       	adc	r31, r31
    35de:	ef 59       	subi	r30, 0x9F	; 159
    35e0:	f6 4c       	sbci	r31, 0xC6	; 198
    35e2:	20 83       	st	Z, r18
    35e4:	31 83       	std	Z+1, r19	; 0x01
    reactStr[2][number]=type;
    35e6:	88 0f       	add	r24, r24
    35e8:	99 1f       	adc	r25, r25
    35ea:	fc 01       	movw	r30, r24
    35ec:	ef 55       	subi	r30, 0x5F	; 95
    35ee:	f6 4c       	sbci	r31, 0xC6	; 198
    35f0:	10 82       	st	Z, r1
    35f2:	11 82       	std	Z+1, r1	; 0x01
                                }

                            //Normal "use ... on ..." or "give ... to ..." action
                            } else if (actObj1.byteField[ACTION_ITEM] == actObj2.byteField[ITEM_NR]) {
                                SetResponse(elements++, actObj1.addrStr[ACTION_MSG], actObj1.lenStr[ACTION_MSG], GAME);
                                effect = actObj1.effect[2];
    35f4:	80 91 0a 39 	lds	r24, 0x390A	; 0x80390a <actObj1.3989+0x2a>
    35f8:	90 e0       	ldi	r25, 0x00	; 0
    35fa:	80 93 40 38 	sts	0x3840, r24	; 0x803840 <effect>
    35fe:	90 93 41 38 	sts	0x3841, r25	; 0x803841 <effect+0x1>
                                UpdateState(actObj1.byteField[ACTION_STATE]);
    3602:	80 91 ea 38 	lds	r24, 0x38EA	; 0x8038ea <actObj1.3989+0xa>
    3606:	0e 94 ec 09 	call	0x13d8	; 0x13d8 <UpdateState>
                                    }
                                }

                            //Normal "use ... on ..." or "give ... to ..." action
                            } else if (actObj1.byteField[ACTION_ITEM] == actObj2.byteField[ITEM_NR]) {
                                SetResponse(elements++, actObj1.addrStr[ACTION_MSG], actObj1.lenStr[ACTION_MSG], GAME);
    360a:	10 2f       	mov	r17, r16
    360c:	a0 c2       	rjmp	.+1344   	; 0x3b4e <ProcessInput+0xed6>
                                effect = actObj1.effect[2];
                                UpdateState(actObj1.byteField[ACTION_STATE]);
                                
                            } else {
                                if (data[0] == 'u') {
    360e:	f3 01       	movw	r30, r6
    3610:	80 81       	ld	r24, Z
    3612:	85 37       	cpi	r24, 0x75	; 117
    3614:	99 f4       	brne	.+38     	; 0x363c <ProcessInput+0x9c4>
    return 0;
}

//
void SetResponse(uint8_t number, uint16_t address, uint16_t length, uint8_t type){
    reactStr[0][number]=address;
    3616:	81 2f       	mov	r24, r17
    3618:	90 e0       	ldi	r25, 0x00	; 0
    361a:	fc 01       	movw	r30, r24
    361c:	ee 0f       	add	r30, r30
    361e:	ff 1f       	adc	r31, r31
    3620:	ef 5d       	subi	r30, 0xDF	; 223
    3622:	f6 4c       	sbci	r31, 0xC6	; 198
    3624:	21 e0       	ldi	r18, 0x01	; 1
    3626:	39 e7       	ldi	r19, 0x79	; 121
    3628:	20 83       	st	Z, r18
    362a:	31 83       	std	Z+1, r19	; 0x01
    reactStr[1][number]=length;
    362c:	fc 01       	movw	r30, r24
    362e:	ee 0f       	add	r30, r30
    3630:	ff 1f       	adc	r31, r31
    3632:	ef 59       	subi	r30, 0x9F	; 159
    3634:	f6 4c       	sbci	r31, 0xC6	; 198
    3636:	2a e1       	ldi	r18, 0x1A	; 26
    3638:	30 e0       	ldi	r19, 0x00	; 0
    363a:	15 c0       	rjmp	.+42     	; 0x3666 <ProcessInput+0x9ee>
                                UpdateState(actObj1.byteField[ACTION_STATE]);
                                
                            } else {
                                if (data[0] == 'u') {
                                    SetResponse(elements++, A_CANTUSE, L_CANTUSE, TEASER);
                                } else if (data[0] == 'g') {
    363c:	87 36       	cpi	r24, 0x67	; 103
    363e:	09 f0       	breq	.+2      	; 0x3642 <ProcessInput+0x9ca>
    3640:	86 c2       	rjmp	.+1292   	; 0x3b4e <ProcessInput+0xed6>
    return 0;
}

//
void SetResponse(uint8_t number, uint16_t address, uint16_t length, uint8_t type){
    reactStr[0][number]=address;
    3642:	81 2f       	mov	r24, r17
    3644:	90 e0       	ldi	r25, 0x00	; 0
    3646:	fc 01       	movw	r30, r24
    3648:	ee 0f       	add	r30, r30
    364a:	ff 1f       	adc	r31, r31
    364c:	ef 5d       	subi	r30, 0xDF	; 223
    364e:	f6 4c       	sbci	r31, 0xC6	; 198
    3650:	2f e9       	ldi	r18, 0x9F	; 159
    3652:	36 e7       	ldi	r19, 0x76	; 118
    3654:	20 83       	st	Z, r18
    3656:	31 83       	std	Z+1, r19	; 0x01
    reactStr[1][number]=length;
    3658:	fc 01       	movw	r30, r24
    365a:	ee 0f       	add	r30, r30
    365c:	ff 1f       	adc	r31, r31
    365e:	ef 59       	subi	r30, 0x9F	; 159
    3660:	f6 4c       	sbci	r31, 0xC6	; 198
    3662:	28 e2       	ldi	r18, 0x28	; 40
    3664:	30 e0       	ldi	r19, 0x00	; 0
    3666:	20 83       	st	Z, r18
    3668:	31 83       	std	Z+1, r19	; 0x01
    reactStr[2][number]=type;
    366a:	88 0f       	add	r24, r24
    366c:	99 1f       	adc	r25, r25
    366e:	fc 01       	movw	r30, r24
    3670:	ef 55       	subi	r30, 0x5F	; 95
    3672:	f6 4c       	sbci	r31, 0xC6	; 198
    3674:	81 e0       	ldi	r24, 0x01	; 1
    3676:	90 e0       	ldi	r25, 0x00	; 0
    3678:	80 83       	st	Z, r24
    367a:	91 83       	std	Z+1, r25	; 0x01
                                
                            } else {
                                if (data[0] == 'u') {
                                    SetResponse(elements++, A_CANTUSE, L_CANTUSE, TEASER);
                                } else if (data[0] == 'g') {
                                    SetResponse(elements++, A_CANTGIVE, L_CANTGIVE, TEASER);                                    
    367c:	1f 5f       	subi	r17, 0xFF	; 255
    367e:	67 c2       	rjmp	.+1230   	; 0x3b4e <ProcessInput+0xed6>
                            }
                        }
                    
                    //Talk to person, read or use object (without item)                          
                    } else {
                        PopulateObject(route[currDepth+1], &actObj1);
    3680:	60 ee       	ldi	r22, 0xE0	; 224
    3682:	78 e3       	ldi	r23, 0x38	; 56
    3684:	0e 94 e8 11 	call	0x23d0	; 0x23d0 <PopulateObject>
                        if ((data[0] == 't')&&((actObj1.byteField[ACTION_MASK]&TALK) == 0)) {
    3688:	d3 01       	movw	r26, r6
    368a:	8c 91       	ld	r24, X
    368c:	84 37       	cpi	r24, 0x74	; 116
    368e:	61 f5       	brne	.+88     	; 0x36e8 <ProcessInput+0xa70>
    3690:	80 91 e8 38 	lds	r24, 0x38E8	; 0x8038e8 <actObj1.3989+0x8>
    3694:	83 fd       	sbrc	r24, 3
    3696:	43 c0       	rjmp	.+134    	; 0x371e <ProcessInput+0xaa6>
    return 0;
}

//
void SetResponse(uint8_t number, uint16_t address, uint16_t length, uint8_t type){
    reactStr[0][number]=address;
    3698:	8b e1       	ldi	r24, 0x1B	; 27
    369a:	99 e7       	ldi	r25, 0x79	; 121
    369c:	80 93 23 39 	sts	0x3923, r24	; 0x803923 <reactStr+0x2>
    36a0:	90 93 24 39 	sts	0x3924, r25	; 0x803924 <reactStr+0x3>
    reactStr[1][number]=length;
    36a4:	8e e1       	ldi	r24, 0x1E	; 30
    36a6:	90 e0       	ldi	r25, 0x00	; 0
    36a8:	80 93 63 39 	sts	0x3963, r24	; 0x803963 <reactStr+0x42>
    36ac:	90 93 64 39 	sts	0x3964, r25	; 0x803964 <reactStr+0x43>
    reactStr[2][number]=type;
    36b0:	81 e0       	ldi	r24, 0x01	; 1
    36b2:	90 e0       	ldi	r25, 0x00	; 0
    36b4:	80 93 a3 39 	sts	0x39A3, r24	; 0x8039a3 <reactStr+0x82>
    36b8:	90 93 a4 39 	sts	0x39A4, r25	; 0x8039a4 <reactStr+0x83>
                    //Talk to person, read or use object (without item)                          
                    } else {
                        PopulateObject(route[currDepth+1], &actObj1);
                        if ((data[0] == 't')&&((actObj1.byteField[ACTION_MASK]&TALK) == 0)) {
                            SetResponse(elements++, A_WHYTALK, L_WHYTALK, TEASER);
                            SetResponse(elements++, actObj1.addrStr[NAME], actObj1.lenStr[NAME], GAME);
    36bc:	80 91 fa 38 	lds	r24, 0x38FA	; 0x8038fa <actObj1.3989+0x1a>
    36c0:	90 91 fb 38 	lds	r25, 0x38FB	; 0x8038fb <actObj1.3989+0x1b>
    return 0;
}

//
void SetResponse(uint8_t number, uint16_t address, uint16_t length, uint8_t type){
    reactStr[0][number]=address;
    36c4:	20 91 ec 38 	lds	r18, 0x38EC	; 0x8038ec <actObj1.3989+0xc>
    36c8:	30 91 ed 38 	lds	r19, 0x38ED	; 0x8038ed <actObj1.3989+0xd>
    36cc:	20 93 25 39 	sts	0x3925, r18	; 0x803925 <reactStr+0x4>
    36d0:	30 93 26 39 	sts	0x3926, r19	; 0x803926 <reactStr+0x5>
    reactStr[1][number]=length;
    36d4:	80 93 65 39 	sts	0x3965, r24	; 0x803965 <reactStr+0x44>
    36d8:	90 93 66 39 	sts	0x3966, r25	; 0x803966 <reactStr+0x45>
    reactStr[2][number]=type;
    36dc:	10 92 a5 39 	sts	0x39A5, r1	; 0x8039a5 <reactStr+0x84>
    36e0:	10 92 a6 39 	sts	0x39A6, r1	; 0x8039a6 <reactStr+0x85>
                    //Talk to person, read or use object (without item)                          
                    } else {
                        PopulateObject(route[currDepth+1], &actObj1);
                        if ((data[0] == 't')&&((actObj1.byteField[ACTION_MASK]&TALK) == 0)) {
                            SetResponse(elements++, A_WHYTALK, L_WHYTALK, TEASER);
                            SetResponse(elements++, actObj1.addrStr[NAME], actObj1.lenStr[NAME], GAME);
    36e4:	13 e0       	ldi	r17, 0x03	; 3
    36e6:	33 c2       	rjmp	.+1126   	; 0x3b4e <ProcessInput+0xed6>
                        } else if ((data[0] == 'u')&&((actObj1.byteField[ACTION_MASK]&USE) == 0)) {
    36e8:	85 37       	cpi	r24, 0x75	; 117
    36ea:	39 f4       	brne	.+14     	; 0x36fa <ProcessInput+0xa82>
    36ec:	80 91 e8 38 	lds	r24, 0x38E8	; 0x8038e8 <actObj1.3989+0x8>
    36f0:	84 fd       	sbrc	r24, 4
    36f2:	15 c0       	rjmp	.+42     	; 0x371e <ProcessInput+0xaa6>
    return 0;
}

//
void SetResponse(uint8_t number, uint16_t address, uint16_t length, uint8_t type){
    reactStr[0][number]=address;
    36f4:	81 e0       	ldi	r24, 0x01	; 1
    36f6:	99 e7       	ldi	r25, 0x79	; 121
    36f8:	3b c2       	rjmp	.+1142   	; 0x3b70 <ProcessInput+0xef8>
                        if ((data[0] == 't')&&((actObj1.byteField[ACTION_MASK]&TALK) == 0)) {
                            SetResponse(elements++, A_WHYTALK, L_WHYTALK, TEASER);
                            SetResponse(elements++, actObj1.addrStr[NAME], actObj1.lenStr[NAME], GAME);
                        } else if ((data[0] == 'u')&&((actObj1.byteField[ACTION_MASK]&USE) == 0)) {
                            SetResponse(elements++, A_CANTUSE, L_CANTUSE, TEASER);
                        } else if ((data[0] == 'r')&&((actObj1.byteField[ACTION_MASK]&READ) == 0)) {
    36fa:	82 37       	cpi	r24, 0x72	; 114
    36fc:	69 f4       	brne	.+26     	; 0x3718 <ProcessInput+0xaa0>
    36fe:	80 91 e8 38 	lds	r24, 0x38E8	; 0x8038e8 <actObj1.3989+0x8>
    3702:	85 fd       	sbrc	r24, 5
    3704:	0c c0       	rjmp	.+24     	; 0x371e <ProcessInput+0xaa6>
    return 0;
}

//
void SetResponse(uint8_t number, uint16_t address, uint16_t length, uint8_t type){
    reactStr[0][number]=address;
    3706:	86 ee       	ldi	r24, 0xE6	; 230
    3708:	98 e7       	ldi	r25, 0x78	; 120
    370a:	80 93 23 39 	sts	0x3923, r24	; 0x803923 <reactStr+0x2>
    370e:	90 93 24 39 	sts	0x3924, r25	; 0x803924 <reactStr+0x3>
    reactStr[1][number]=length;
    3712:	8b e1       	ldi	r24, 0x1B	; 27
    3714:	90 e0       	ldi	r25, 0x00	; 0
    3716:	78 cb       	rjmp	.-2320   	; 0x2e08 <ProcessInput+0x190>
                            SetResponse(elements++, actObj1.addrStr[NAME], actObj1.lenStr[NAME], GAME);
                        } else if ((data[0] == 'u')&&((actObj1.byteField[ACTION_MASK]&USE) == 0)) {
                            SetResponse(elements++, A_CANTUSE, L_CANTUSE, TEASER);
                        } else if ((data[0] == 'r')&&((actObj1.byteField[ACTION_MASK]&READ) == 0)) {
                            SetResponse(elements++, A_CANTREAD, L_CANTREAD, TEASER);
                        } else if (data[0] == 'g'){ 
    3718:	87 36       	cpi	r24, 0x67	; 103
    371a:	09 f4       	brne	.+2      	; 0x371e <ProcessInput+0xaa6>
    371c:	e0 ca       	rjmp	.-2624   	; 0x2cde <ProcessInput+0x66>
                            SetResponse(elements++, A_NOTPOSSIBLE, L_NOTPOSSIBLE, TEASER);  
                        } else {

                            //Special game, not enough characters
                            if (actObj1.lenStr[ACTION_STR1] == 1) {
    371e:	00 91 fe 38 	lds	r16, 0x38FE	; 0x8038fe <actObj1.3989+0x1e>
    3722:	10 91 ff 38 	lds	r17, 0x38FF	; 0x8038ff <actObj1.3989+0x1f>
    3726:	01 30       	cpi	r16, 0x01	; 1
    3728:	11 05       	cpc	r17, r1
    372a:	09 f5       	brne	.+66     	; 0x376e <ProcessInput+0xaf6>
                                ExtEERead(actObj1.addrStr[ACTION_STR1], 1, GAME, &data[2]);
    372c:	93 01       	movw	r18, r6
    372e:	2e 5f       	subi	r18, 0xFE	; 254
    3730:	3f 4f       	sbci	r19, 0xFF	; 255
    3732:	40 e0       	ldi	r20, 0x00	; 0
    3734:	61 e0       	ldi	r22, 0x01	; 1
    3736:	80 91 f0 38 	lds	r24, 0x38F0	; 0x8038f0 <actObj1.3989+0x10>
    373a:	90 91 f1 38 	lds	r25, 0x38F1	; 0x8038f1 <actObj1.3989+0x11>
    373e:	0e 94 56 08 	call	0x10ac	; 0x10ac <ExtEERead>
                                if (data[2] == '1') {
    3742:	f3 01       	movw	r30, r6
    3744:	82 81       	ldd	r24, Z+2	; 0x02
    3746:	81 33       	cpi	r24, 0x31	; 49
    3748:	09 f0       	breq	.+2      	; 0x374c <ProcessInput+0xad4>
    374a:	13 cd       	rjmp	.-1498   	; 0x3172 <ProcessInput+0x4fa>
    return 0;
}

//
void SetResponse(uint8_t number, uint16_t address, uint16_t length, uint8_t type){
    reactStr[0][number]=address;
    374c:	85 e2       	ldi	r24, 0x25	; 37
    374e:	95 e7       	ldi	r25, 0x75	; 117
    3750:	80 93 23 39 	sts	0x3923, r24	; 0x803923 <reactStr+0x2>
    3754:	90 93 24 39 	sts	0x3924, r25	; 0x803924 <reactStr+0x3>
    reactStr[1][number]=length;
    3758:	8b e2       	ldi	r24, 0x2B	; 43
    375a:	90 e0       	ldi	r25, 0x00	; 0
    375c:	80 93 63 39 	sts	0x3963, r24	; 0x803963 <reactStr+0x42>
    3760:	90 93 64 39 	sts	0x3964, r25	; 0x803964 <reactStr+0x43>
    reactStr[2][number]=type;
    3764:	00 93 a3 39 	sts	0x39A3, r16	; 0x8039a3 <reactStr+0x82>
    3768:	10 93 a4 39 	sts	0x39A4, r17	; 0x8039a4 <reactStr+0x83>
    376c:	57 cb       	rjmp	.-2386   	; 0x2e1c <ProcessInput+0x1a4>
                                if (data[2] == '1') {
                                    SetResponse(elements++, A_PLEASEOFFER, L_PLEASEOFFER, TEASER);
                                }

                            //General request
                            } else if (actObj1.lenStr[ACTION_STR1]) {
    376e:	01 15       	cp	r16, r1
    3770:	11 05       	cpc	r17, r1
    3772:	09 f4       	brne	.+2      	; 0x3776 <ProcessInput+0xafe>
    3774:	58 c0       	rjmp	.+176    	; 0x3826 <ProcessInput+0xbae>
    return 0;
}

//
void SetResponse(uint8_t number, uint16_t address, uint16_t length, uint8_t type){
    reactStr[0][number]=address;
    3776:	80 91 f0 38 	lds	r24, 0x38F0	; 0x8038f0 <actObj1.3989+0x10>
    377a:	90 91 f1 38 	lds	r25, 0x38F1	; 0x8038f1 <actObj1.3989+0x11>
    377e:	80 93 23 39 	sts	0x3923, r24	; 0x803923 <reactStr+0x2>
    3782:	90 93 24 39 	sts	0x3924, r25	; 0x803924 <reactStr+0x3>
    reactStr[1][number]=length;
    3786:	00 93 63 39 	sts	0x3963, r16	; 0x803963 <reactStr+0x42>
    378a:	10 93 64 39 	sts	0x3964, r17	; 0x803964 <reactStr+0x43>
    reactStr[2][number]=type;
    378e:	10 92 a3 39 	sts	0x39A3, r1	; 0x8039a3 <reactStr+0x82>
    3792:	10 92 a4 39 	sts	0x39A4, r1	; 0x8039a4 <reactStr+0x83>
    return 0;
}

//
void SetResponse(uint8_t number, uint16_t address, uint16_t length, uint8_t type){
    reactStr[0][number]=address;
    3796:	89 e5       	ldi	r24, 0x59	; 89
    3798:	9a e7       	ldi	r25, 0x7A	; 122
    379a:	80 93 25 39 	sts	0x3925, r24	; 0x803925 <reactStr+0x4>
    379e:	90 93 26 39 	sts	0x3926, r25	; 0x803926 <reactStr+0x5>
    reactStr[1][number]=length;
    37a2:	82 e0       	ldi	r24, 0x02	; 2
    37a4:	90 e0       	ldi	r25, 0x00	; 0
    37a6:	80 93 65 39 	sts	0x3965, r24	; 0x803965 <reactStr+0x44>
    37aa:	90 93 66 39 	sts	0x3966, r25	; 0x803966 <reactStr+0x45>
    reactStr[2][number]=type;
    37ae:	81 e0       	ldi	r24, 0x01	; 1
    37b0:	90 e0       	ldi	r25, 0x00	; 0
    37b2:	80 93 a5 39 	sts	0x39A5, r24	; 0x8039a5 <reactStr+0x84>
    37b6:	90 93 a6 39 	sts	0x39A6, r25	; 0x8039a6 <reactStr+0x85>
    return 0;
}

//
void SetResponse(uint8_t number, uint16_t address, uint16_t length, uint8_t type){
    reactStr[0][number]=address;
    37ba:	2d ea       	ldi	r18, 0xAD	; 173
    37bc:	38 e7       	ldi	r19, 0x78	; 120
    37be:	20 93 27 39 	sts	0x3927, r18	; 0x803927 <reactStr+0x6>
    37c2:	30 93 28 39 	sts	0x3928, r19	; 0x803928 <reactStr+0x7>
    reactStr[1][number]=length;
    37c6:	22 e1       	ldi	r18, 0x12	; 18
    37c8:	30 e0       	ldi	r19, 0x00	; 0
    37ca:	20 93 67 39 	sts	0x3967, r18	; 0x803967 <reactStr+0x46>
    37ce:	30 93 68 39 	sts	0x3968, r19	; 0x803968 <reactStr+0x47>
    reactStr[2][number]=type;
    37d2:	80 93 a7 39 	sts	0x39A7, r24	; 0x8039a7 <reactStr+0x86>
    37d6:	90 93 a8 39 	sts	0x39A8, r25	; 0x8039a8 <reactStr+0x87>
                            //General request
                            } else if (actObj1.lenStr[ACTION_STR1]) {
                                SetResponse(elements++, actObj1.addrStr[ACTION_STR1], actObj1.lenStr[ACTION_STR1], GAME);
                                SetResponse(elements++, A_LF, 2, TEASER);
                                SetResponse(elements++, A_RESPONSE, L_RESPONSE, TEASER);
                                if (actObj1.lenStr[ACTION_STR2]>(INP_LENGTH-1)) actObj1.lenStr[ACTION_STR2] = (INP_LENGTH-1);
    37da:	80 91 00 39 	lds	r24, 0x3900	; 0x803900 <actObj1.3989+0x20>
    37de:	90 91 01 39 	lds	r25, 0x3901	; 0x803901 <actObj1.3989+0x21>
    37e2:	40 97       	sbiw	r24, 0x10	; 16
    37e4:	30 f0       	brcs	.+12     	; 0x37f2 <ProcessInput+0xb7a>
    37e6:	8f e0       	ldi	r24, 0x0F	; 15
    37e8:	90 e0       	ldi	r25, 0x00	; 0
    37ea:	80 93 00 39 	sts	0x3900, r24	; 0x803900 <actObj1.3989+0x20>
    37ee:	90 93 01 39 	sts	0x3901, r25	; 0x803901 <actObj1.3989+0x21>
                                ExtEERead(actObj1.addrStr[ACTION_STR2], actObj1.lenStr[ACTION_STR2], GAME, (uint8_t *)&specialInput[0]);
    37f2:	20 e1       	ldi	r18, 0x10	; 16
    37f4:	39 e3       	ldi	r19, 0x39	; 57
    37f6:	40 e0       	ldi	r20, 0x00	; 0
    37f8:	60 91 00 39 	lds	r22, 0x3900	; 0x803900 <actObj1.3989+0x20>
    37fc:	80 91 f2 38 	lds	r24, 0x38F2	; 0x8038f2 <actObj1.3989+0x12>
    3800:	90 91 f3 38 	lds	r25, 0x38F3	; 0x8038f3 <actObj1.3989+0x13>
    3804:	0e 94 56 08 	call	0x10ac	; 0x10ac <ExtEERead>
                                UnflipData(actObj1.lenStr[ACTION_STR2], (uint8_t *)&specialInput[0]);
    3808:	60 e1       	ldi	r22, 0x10	; 16
    380a:	79 e3       	ldi	r23, 0x39	; 57
    380c:	80 91 00 39 	lds	r24, 0x3900	; 0x803900 <actObj1.3989+0x20>
    3810:	0e 94 fe 10 	call	0x21fc	; 0x21fc <UnflipData>
                                specialInput[actObj1.lenStr[ACTION_STR2]] = 0;
    3814:	e0 91 00 39 	lds	r30, 0x3900	; 0x803900 <actObj1.3989+0x20>
    3818:	f0 91 01 39 	lds	r31, 0x3901	; 0x803901 <actObj1.3989+0x21>
    381c:	e0 5f       	subi	r30, 0xF0	; 240
    381e:	f6 4c       	sbci	r31, 0xC6	; 198
    3820:	10 82       	st	Z, r1

                            //General request
                            } else if (actObj1.lenStr[ACTION_STR1]) {
                                SetResponse(elements++, actObj1.addrStr[ACTION_STR1], actObj1.lenStr[ACTION_STR1], GAME);
                                SetResponse(elements++, A_LF, 2, TEASER);
                                SetResponse(elements++, A_RESPONSE, L_RESPONSE, TEASER);
    3822:	14 e0       	ldi	r17, 0x04	; 4
    3824:	94 c1       	rjmp	.+808    	; 0x3b4e <ProcessInput+0xed6>
                                ExtEERead(actObj1.addrStr[ACTION_STR2], actObj1.lenStr[ACTION_STR2], GAME, (uint8_t *)&specialInput[0]);
                                UnflipData(actObj1.lenStr[ACTION_STR2], (uint8_t *)&specialInput[0]);
                                specialInput[actObj1.lenStr[ACTION_STR2]] = 0;
                            
                            //Normal action    
                            } else if (CheckState(actObj1.byteField[ACTION_ACL])){
    3826:	80 91 e7 38 	lds	r24, 0x38E7	; 0x8038e7 <actObj1.3989+0x7>
    382a:	0e 94 0d 0a 	call	0x141a	; 0x141a <CheckState>
    382e:	88 23       	and	r24, r24
    3830:	01 f1       	breq	.+64     	; 0x3872 <ProcessInput+0xbfa>
                                SetResponse(elements++, actObj1.addrStr[ACTION_MSG], actObj1.lenStr[ACTION_MSG], GAME);
    3832:	80 91 06 39 	lds	r24, 0x3906	; 0x803906 <actObj1.3989+0x26>
    3836:	90 91 07 39 	lds	r25, 0x3907	; 0x803907 <actObj1.3989+0x27>
    return 0;
}

//
void SetResponse(uint8_t number, uint16_t address, uint16_t length, uint8_t type){
    reactStr[0][number]=address;
    383a:	20 91 f8 38 	lds	r18, 0x38F8	; 0x8038f8 <actObj1.3989+0x18>
    383e:	30 91 f9 38 	lds	r19, 0x38F9	; 0x8038f9 <actObj1.3989+0x19>
    3842:	20 93 23 39 	sts	0x3923, r18	; 0x803923 <reactStr+0x2>
    3846:	30 93 24 39 	sts	0x3924, r19	; 0x803924 <reactStr+0x3>
    reactStr[1][number]=length;
    384a:	80 93 63 39 	sts	0x3963, r24	; 0x803963 <reactStr+0x42>
    384e:	90 93 64 39 	sts	0x3964, r25	; 0x803964 <reactStr+0x43>
    reactStr[2][number]=type;
    3852:	10 92 a3 39 	sts	0x39A3, r1	; 0x8039a3 <reactStr+0x82>
    3856:	10 92 a4 39 	sts	0x39A4, r1	; 0x8039a4 <reactStr+0x83>
                                specialInput[actObj1.lenStr[ACTION_STR2]] = 0;
                            
                            //Normal action    
                            } else if (CheckState(actObj1.byteField[ACTION_ACL])){
                                SetResponse(elements++, actObj1.addrStr[ACTION_MSG], actObj1.lenStr[ACTION_MSG], GAME);
                                effect = actObj1.effect[2];
    385a:	80 91 0a 39 	lds	r24, 0x390A	; 0x80390a <actObj1.3989+0x2a>
    385e:	90 e0       	ldi	r25, 0x00	; 0
    3860:	80 93 40 38 	sts	0x3840, r24	; 0x803840 <effect>
    3864:	90 93 41 38 	sts	0x3841, r25	; 0x803841 <effect+0x1>
                                UpdateState(actObj1.byteField[ACTION_STATE]);
    3868:	80 91 ea 38 	lds	r24, 0x38EA	; 0x8038ea <actObj1.3989+0xa>
    386c:	0e 94 ec 09 	call	0x13d8	; 0x13d8 <UpdateState>
    3870:	d5 ca       	rjmp	.-2646   	; 0x2e1c <ProcessInput+0x1a4>
                            } else {
                                SetResponse(elements++, actObj1.addrStr[ACTION_ACL_MSG], actObj1.lenStr[ACTION_ACL_MSG], GAME);
    3872:	80 91 04 39 	lds	r24, 0x3904	; 0x803904 <actObj1.3989+0x24>
    3876:	90 91 05 39 	lds	r25, 0x3905	; 0x803905 <actObj1.3989+0x25>
    return 0;
}

//
void SetResponse(uint8_t number, uint16_t address, uint16_t length, uint8_t type){
    reactStr[0][number]=address;
    387a:	20 91 f6 38 	lds	r18, 0x38F6	; 0x8038f6 <actObj1.3989+0x16>
    387e:	30 91 f7 38 	lds	r19, 0x38F7	; 0x8038f7 <actObj1.3989+0x17>
    3882:	20 93 23 39 	sts	0x3923, r18	; 0x803923 <reactStr+0x2>
    3886:	30 93 24 39 	sts	0x3924, r19	; 0x803924 <reactStr+0x3>
    reactStr[1][number]=length;
    388a:	80 93 63 39 	sts	0x3963, r24	; 0x803963 <reactStr+0x42>
    388e:	90 93 64 39 	sts	0x3964, r25	; 0x803964 <reactStr+0x43>
    reactStr[2][number]=type;
    3892:	10 92 a3 39 	sts	0x39A3, r1	; 0x8039a3 <reactStr+0x82>
    3896:	10 92 a4 39 	sts	0x39A4, r1	; 0x8039a4 <reactStr+0x83>
                                SetResponse(elements++, actObj1.addrStr[ACTION_MSG], actObj1.lenStr[ACTION_MSG], GAME);
                                effect = actObj1.effect[2];
                                UpdateState(actObj1.byteField[ACTION_STATE]);
                            } else {
                                SetResponse(elements++, actObj1.addrStr[ACTION_ACL_MSG], actObj1.lenStr[ACTION_ACL_MSG], GAME);
                                effect = actObj1.effect[1];
    389a:	80 91 09 39 	lds	r24, 0x3909	; 0x803909 <actObj1.3989+0x29>
    389e:	90 e0       	ldi	r25, 0x00	; 0
    38a0:	80 93 40 38 	sts	0x3840, r24	; 0x803840 <effect>
    38a4:	90 93 41 38 	sts	0x3841, r25	; 0x803841 <effect+0x1>
    38a8:	b9 ca       	rjmp	.-2702   	; 0x2e1c <ProcessInput+0x1a4>
                        }
                    }

                //Person or object not found
                } else {
                    if ((data[0] == 't')||(data[0] == 'g')){
    38aa:	d3 01       	movw	r26, r6
    38ac:	8c 91       	ld	r24, X
    38ae:	84 37       	cpi	r24, 0x74	; 116
    38b0:	11 f0       	breq	.+4      	; 0x38b6 <ProcessInput+0xc3e>
    38b2:	87 36       	cpi	r24, 0x67	; 103
    38b4:	19 f4       	brne	.+6      	; 0x38bc <ProcessInput+0xc44>
    return 0;
}

//
void SetResponse(uint8_t number, uint16_t address, uint16_t length, uint8_t type){
    reactStr[0][number]=address;
    38b6:	89 e3       	ldi	r24, 0x39	; 57
    38b8:	99 e7       	ldi	r25, 0x79	; 121
    38ba:	02 c0       	rjmp	.+4      	; 0x38c0 <ProcessInput+0xc48>
    38bc:	8d e4       	ldi	r24, 0x4D	; 77
    38be:	99 e7       	ldi	r25, 0x79	; 121
    38c0:	80 93 23 39 	sts	0x3923, r24	; 0x803923 <reactStr+0x2>
    38c4:	90 93 24 39 	sts	0x3924, r25	; 0x803924 <reactStr+0x3>
    reactStr[1][number]=length;
    38c8:	84 e1       	ldi	r24, 0x14	; 20
    38ca:	90 e0       	ldi	r25, 0x00	; 0
    38cc:	9d ca       	rjmp	.-2758   	; 0x2e08 <ProcessInput+0x190>
                    }
                }
            }
        
        //Special answer given
        } else if (data[0] == 'a'){
    38ce:	81 36       	cpi	r24, 0x61	; 97
    38d0:	09 f0       	breq	.+2      	; 0x38d4 <ProcessInput+0xc5c>
    38d2:	4f cc       	rjmp	.-1890   	; 0x3172 <ProcessInput+0x4fa>
            
            //Priest offerings
            if (specialPassed >= 2) {
    38d4:	80 91 0f 39 	lds	r24, 0x390F	; 0x80390f <specialPassed>
    38d8:	82 30       	cpi	r24, 0x02	; 2
    38da:	08 f4       	brcc	.+2      	; 0x38de <ProcessInput+0xc66>
    38dc:	c7 c0       	rjmp	.+398    	; 0x3a6c <ProcessInput+0xdf4>
                if (data[1] > 0) {
    38de:	f3 01       	movw	r30, r6
    38e0:	21 81       	ldd	r18, Z+1	; 0x01
    38e2:	22 23       	and	r18, r18
    38e4:	09 f4       	brne	.+2      	; 0x38e8 <ProcessInput+0xc70>
    38e6:	af c0       	rjmp	.+350    	; 0x3a46 <ProcessInput+0xdce>

                    //uint8_t  digit[10] = {0, 0, 0, 0, 0, 0, 0, 0, 0, 0};
                    uint8_t  digit[8] = {0, 0, 0, 0, 0, 0, 0, 0};
    38e8:	ce 01       	movw	r24, r28
    38ea:	01 96       	adiw	r24, 0x01	; 1
    38ec:	7c 01       	movw	r14, r24
    38ee:	88 e0       	ldi	r24, 0x08	; 8
    38f0:	d7 01       	movw	r26, r14
    38f2:	1d 92       	st	X+, r1
    38f4:	8a 95       	dec	r24
    38f6:	e9 f7       	brne	.-6      	; 0x38f2 <ProcessInput+0xc7a>
                        answer = ((offering  & 2) << 19) + ((offering  & 1) << 8) + \
                        ((element   & 2) << 15) + ((element   & 1) << 4) + \
                        ((kneelings & 2) << 11) + ((kneelings & 1))
                        answer = answer << (3-person)
                    */
                    data[1]-='0'; // item 31 needs to become something that results in 0 when doing %4
    38f8:	20 53       	subi	r18, 0x30	; 48
    38fa:	21 83       	std	Z+1, r18	; 0x01
                    data[2]-='1';
    38fc:	32 81       	ldd	r19, Z+2	; 0x02
    38fe:	31 53       	subi	r19, 0x31	; 49
    3900:	32 83       	std	Z+2, r19	; 0x02
                    if (data[3] == 'a') data[3] = 1;
    3902:	83 81       	ldd	r24, Z+3	; 0x03
    3904:	81 36       	cpi	r24, 0x61	; 97
    3906:	11 f4       	brne	.+4      	; 0x390c <ProcessInput+0xc94>
    3908:	81 e0       	ldi	r24, 0x01	; 1
    390a:	0c c0       	rjmp	.+24     	; 0x3924 <ProcessInput+0xcac>
                    else if (data[3] == 'e') data[3] = 0;
    390c:	85 36       	cpi	r24, 0x65	; 101
    390e:	19 f4       	brne	.+6      	; 0x3916 <ProcessInput+0xc9e>
    3910:	f3 01       	movw	r30, r6
    3912:	13 82       	std	Z+3, r1	; 0x03
    3914:	08 c0       	rjmp	.+16     	; 0x3926 <ProcessInput+0xcae>
                    else if (data[3] == 'f') data[3] = 3;
    3916:	86 36       	cpi	r24, 0x66	; 102
    3918:	19 f4       	brne	.+6      	; 0x3920 <ProcessInput+0xca8>
    391a:	83 e0       	ldi	r24, 0x03	; 3
    391c:	83 83       	std	Z+3, r24	; 0x03
    391e:	03 c0       	rjmp	.+6      	; 0x3926 <ProcessInput+0xcae>
                    else data[3] = 2;
    3920:	82 e0       	ldi	r24, 0x02	; 2
    3922:	f3 01       	movw	r30, r6
    3924:	83 83       	std	Z+3, r24	; 0x03

                    if (data[1] & 2) answer += (1UL << 20);
    3926:	21 fd       	sbrc	r18, 1
    3928:	04 c0       	rjmp	.+8      	; 0x3932 <ProcessInput+0xcba>
            if (specialPassed >= 2) {
                if (data[1] > 0) {

                    //uint8_t  digit[10] = {0, 0, 0, 0, 0, 0, 0, 0, 0, 0};
                    uint8_t  digit[8] = {0, 0, 0, 0, 0, 0, 0, 0};
                    uint32_t answer = 0;
    392a:	80 e0       	ldi	r24, 0x00	; 0
    392c:	90 e0       	ldi	r25, 0x00	; 0
    392e:	dc 01       	movw	r26, r24
    3930:	04 c0       	rjmp	.+8      	; 0x393a <ProcessInput+0xcc2>
                    if (data[3] == 'a') data[3] = 1;
                    else if (data[3] == 'e') data[3] = 0;
                    else if (data[3] == 'f') data[3] = 3;
                    else data[3] = 2;

                    if (data[1] & 2) answer += (1UL << 20);
    3932:	80 e0       	ldi	r24, 0x00	; 0
    3934:	90 e0       	ldi	r25, 0x00	; 0
    3936:	a0 e1       	ldi	r26, 0x10	; 16
    3938:	b0 e0       	ldi	r27, 0x00	; 0
                    if (data[1] & 1) answer += (1 << 8);
    393a:	20 ff       	sbrs	r18, 0
    393c:	03 c0       	rjmp	.+6      	; 0x3944 <ProcessInput+0xccc>
    393e:	9f 5f       	subi	r25, 0xFF	; 255
    3940:	af 4f       	sbci	r26, 0xFF	; 255
    3942:	bf 4f       	sbci	r27, 0xFF	; 255
                    if (data[3] & 2) answer += (1UL << 16);
    3944:	f3 01       	movw	r30, r6
    3946:	23 81       	ldd	r18, Z+3	; 0x03
    3948:	21 fd       	sbrc	r18, 1
    394a:	11 96       	adiw	r26, 0x01	; 1
                    if (data[3] & 1) answer += (1 << 4);
    394c:	20 ff       	sbrs	r18, 0
    394e:	03 c0       	rjmp	.+6      	; 0x3956 <ProcessInput+0xcde>
    3950:	40 96       	adiw	r24, 0x10	; 16
    3952:	a1 1d       	adc	r26, r1
    3954:	b1 1d       	adc	r27, r1
                    if (data[2] & 2) answer += (1 << 12);
    3956:	31 ff       	sbrs	r19, 1
    3958:	03 c0       	rjmp	.+6      	; 0x3960 <ProcessInput+0xce8>
    395a:	90 5f       	subi	r25, 0xF0	; 240
    395c:	af 4f       	sbci	r26, 0xFF	; 255
    395e:	bf 4f       	sbci	r27, 0xFF	; 255
                    if (data[2] & 1) answer += 1;
    3960:	30 ff       	sbrs	r19, 0
    3962:	03 c0       	rjmp	.+6      	; 0x396a <ProcessInput+0xcf2>
    3964:	01 96       	adiw	r24, 0x01	; 1
    3966:	a1 1d       	adc	r26, r1
    3968:	b1 1d       	adc	r27, r1
                    answer <<= (4 - whoami);            
    396a:	40 91 43 38 	lds	r20, 0x3843	; 0x803843 <whoami>
    396e:	24 e0       	ldi	r18, 0x04	; 4
    3970:	30 e0       	ldi	r19, 0x00	; 0
    3972:	24 1b       	sub	r18, r20
    3974:	31 09       	sbc	r19, r1
    3976:	04 c0       	rjmp	.+8      	; 0x3980 <ProcessInput+0xd08>
    3978:	88 0f       	add	r24, r24
    397a:	99 1f       	adc	r25, r25
    397c:	aa 1f       	adc	r26, r26
    397e:	bb 1f       	adc	r27, r27
    3980:	2a 95       	dec	r18
    3982:	d2 f7       	brpl	.-12     	; 0x3978 <ProcessInput+0xd00>
    return 0;
}

//
void SetResponse(uint8_t number, uint16_t address, uint16_t length, uint8_t type){
    reactStr[0][number]=address;
    3984:	28 ec       	ldi	r18, 0xC8	; 200
    3986:	34 e7       	ldi	r19, 0x74	; 116
    3988:	20 93 23 39 	sts	0x3923, r18	; 0x803923 <reactStr+0x2>
    398c:	30 93 24 39 	sts	0x3924, r19	; 0x803924 <reactStr+0x3>
    reactStr[1][number]=length;
    3990:	20 e2       	ldi	r18, 0x20	; 32
    3992:	30 e0       	ldi	r19, 0x00	; 0
    3994:	20 93 63 39 	sts	0x3963, r18	; 0x803963 <reactStr+0x42>
    3998:	30 93 64 39 	sts	0x3964, r19	; 0x803964 <reactStr+0x43>
    reactStr[2][number]=type;
    399c:	21 e0       	ldi	r18, 0x01	; 1
    399e:	30 e0       	ldi	r19, 0x00	; 0
    39a0:	20 93 a3 39 	sts	0x39A3, r18	; 0x8039a3 <reactStr+0x82>
    39a4:	30 93 a4 39 	sts	0x39A4, r19	; 0x8039a4 <reactStr+0x83>
    return 0;
}

//
void SetResponse(uint8_t number, uint16_t address, uint16_t length, uint8_t type){
    reactStr[0][number]=address;
    39a8:	4d e9       	ldi	r20, 0x9D	; 157
    39aa:	54 e7       	ldi	r21, 0x74	; 116
    39ac:	40 93 25 39 	sts	0x3925, r20	; 0x803925 <reactStr+0x4>
    39b0:	50 93 26 39 	sts	0x3926, r21	; 0x803926 <reactStr+0x5>
    reactStr[1][number]=length;
    39b4:	42 e0       	ldi	r20, 0x02	; 2
    39b6:	50 e0       	ldi	r21, 0x00	; 0
    39b8:	40 93 65 39 	sts	0x3965, r20	; 0x803965 <reactStr+0x44>
    39bc:	50 93 66 39 	sts	0x3966, r21	; 0x803966 <reactStr+0x45>
    reactStr[2][number]=type;
    39c0:	20 93 a5 39 	sts	0x39A5, r18	; 0x8039a5 <reactStr+0x84>
    39c4:	30 93 a6 39 	sts	0x39A6, r19	; 0x8039a6 <reactStr+0x85>

                    SetResponse(elements++, A_YOURPART, L_YOURPART, TEASER);
                    SetResponse(elements++, A_HEXPREFIX, L_HEXPREFIX, TEASER);
                    
                    //Set up sending out number
                    for (n=7; n>=0; --n) {
    39c8:	07 e0       	ldi	r16, 0x07	; 7
                        digit[n] = answer % 16;
    39ca:	f7 01       	movw	r30, r14
    39cc:	e0 0f       	add	r30, r16
    39ce:	f1 1d       	adc	r31, r1
    39d0:	28 2f       	mov	r18, r24
    39d2:	2f 70       	andi	r18, 0x0F	; 15
    39d4:	20 83       	st	Z, r18
                        answer /= 16;
    39d6:	44 e0       	ldi	r20, 0x04	; 4
    39d8:	b6 95       	lsr	r27
    39da:	a7 95       	ror	r26
    39dc:	97 95       	ror	r25
    39de:	87 95       	ror	r24
    39e0:	4a 95       	dec	r20
    39e2:	d1 f7       	brne	.-12     	; 0x39d8 <ProcessInput+0xd60>
                        if (answer == 0) break;
    39e4:	00 97       	sbiw	r24, 0x00	; 0
    39e6:	a1 05       	cpc	r26, r1
    39e8:	b1 05       	cpc	r27, r1
    39ea:	49 f4       	brne	.+18     	; 0x39fe <ProcessInput+0xd86>
    39ec:	21 e2       	ldi	r18, 0x21	; 33
    39ee:	c2 2e       	mov	r12, r18
    39f0:	29 e3       	ldi	r18, 0x39	; 57
    39f2:	d2 2e       	mov	r13, r18
    39f4:	13 e0       	ldi	r17, 0x03	; 3
}

//
void SetResponse(uint8_t number, uint16_t address, uint16_t length, uint8_t type){
    reactStr[0][number]=address;
    reactStr[1][number]=length;
    39f6:	aa 24       	eor	r10, r10
    39f8:	a3 94       	inc	r10
    39fa:	b1 2c       	mov	r11, r1
    39fc:	02 c0       	rjmp	.+4      	; 0x3a02 <ProcessInput+0xd8a>

                    SetResponse(elements++, A_YOURPART, L_YOURPART, TEASER);
                    SetResponse(elements++, A_HEXPREFIX, L_HEXPREFIX, TEASER);
                    
                    //Set up sending out number
                    for (n=7; n>=0; --n) {
    39fe:	01 50       	subi	r16, 0x01	; 1
                        digit[n] = answer % 16;
                        answer /= 16;
                        if (answer == 0) break;
                    }
    3a00:	e4 cf       	rjmp	.-56     	; 0x39ca <ProcessInput+0xd52>
    3a02:	b2 e0       	ldi	r27, 0x02	; 2
    3a04:	cb 0e       	add	r12, r27
    3a06:	d1 1c       	adc	r13, r1

                    for (; n<8; ++n) {
    3a08:	08 30       	cpi	r16, 0x08	; 8
    3a0a:	08 f0       	brcs	.+2      	; 0x3a0e <ProcessInput+0xd96>
    3a0c:	9e c0       	rjmp	.+316    	; 0x3b4a <ProcessInput+0xed2>
                        SetResponse(elements++, A_DIGITS+digit[n], 1, TEASER);
    3a0e:	1f 5f       	subi	r17, 0xFF	; 255
    3a10:	f7 01       	movw	r30, r14
    3a12:	e0 0f       	add	r30, r16
    3a14:	f1 1d       	adc	r31, r1
    return 0;
}

//
void SetResponse(uint8_t number, uint16_t address, uint16_t length, uint8_t type){
    reactStr[0][number]=address;
    3a16:	80 81       	ld	r24, Z
    3a18:	90 e0       	ldi	r25, 0x00	; 0
    3a1a:	83 57       	subi	r24, 0x73	; 115
    3a1c:	9b 48       	sbci	r25, 0x8B	; 139
    3a1e:	d6 01       	movw	r26, r12
    3a20:	14 96       	adiw	r26, 0x04	; 4
    3a22:	8d 93       	st	X+, r24
    3a24:	9c 93       	st	X, r25
    3a26:	15 97       	sbiw	r26, 0x05	; 5
    reactStr[1][number]=length;
    3a28:	f6 01       	movw	r30, r12
    3a2a:	ec 5b       	subi	r30, 0xBC	; 188
    3a2c:	ff 4f       	sbci	r31, 0xFF	; 255
    3a2e:	a0 82       	st	Z, r10
    3a30:	b1 82       	std	Z+1, r11	; 0x01
    reactStr[2][number]=type;
    3a32:	e0 5c       	subi	r30, 0xC0	; 192
    3a34:	ff 4f       	sbci	r31, 0xFF	; 255
    3a36:	a0 82       	st	Z, r10
    3a38:	b1 82       	std	Z+1, r11	; 0x01
                        if (answer == 0) break;
                    }

                    for (; n<8; ++n) {
                        SetResponse(elements++, A_DIGITS+digit[n], 1, TEASER);
                        UpdateState(actObj1.byteField[ACTION_STATE]);
    3a3a:	80 91 ea 38 	lds	r24, 0x38EA	; 0x8038ea <actObj1.3989+0xa>
    3a3e:	0e 94 ec 09 	call	0x13d8	; 0x13d8 <UpdateState>
                        digit[n] = answer % 16;
                        answer /= 16;
                        if (answer == 0) break;
                    }

                    for (; n<8; ++n) {
    3a42:	0f 5f       	subi	r16, 0xFF	; 255
    3a44:	de cf       	rjmp	.-68     	; 0x3a02 <ProcessInput+0xd8a>
    return 0;
}

//
void SetResponse(uint8_t number, uint16_t address, uint16_t length, uint8_t type){
    reactStr[0][number]=address;
    3a46:	88 ee       	ldi	r24, 0xE8	; 232
    3a48:	94 e7       	ldi	r25, 0x74	; 116
    3a4a:	80 93 23 39 	sts	0x3923, r24	; 0x803923 <reactStr+0x2>
    3a4e:	90 93 24 39 	sts	0x3924, r25	; 0x803924 <reactStr+0x3>
    reactStr[1][number]=length;
    3a52:	8d e3       	ldi	r24, 0x3D	; 61
    3a54:	90 e0       	ldi	r25, 0x00	; 0
    3a56:	80 93 63 39 	sts	0x3963, r24	; 0x803963 <reactStr+0x42>
    3a5a:	90 93 64 39 	sts	0x3964, r25	; 0x803964 <reactStr+0x43>
    reactStr[2][number]=type;
    3a5e:	81 e0       	ldi	r24, 0x01	; 1
    3a60:	90 e0       	ldi	r25, 0x00	; 0
    3a62:	80 93 a3 39 	sts	0x39A3, r24	; 0x8039a3 <reactStr+0x82>
    3a66:	90 93 a4 39 	sts	0x39A4, r25	; 0x8039a4 <reactStr+0x83>
    3a6a:	6e c0       	rjmp	.+220    	; 0x3b48 <ProcessInput+0xed0>
    3a6c:	e0 91 34 38 	lds	r30, 0x3834	; 0x803834 <currDepth>
                    SetResponse(elements++, A_BADOFFERING, L_BADOFFERING, TEASER);
                }
            
            //Other questions    
            } else if (specialPassed == 1) {
                PopulateObject(route[currDepth+1], &actObj1);
    3a70:	f0 e0       	ldi	r31, 0x00	; 0
    3a72:	ee 0f       	add	r30, r30
    3a74:	ff 1f       	adc	r31, r31
    3a76:	ed 51       	subi	r30, 0x1D	; 29
    3a78:	f6 4c       	sbci	r31, 0xC6	; 198
    3a7a:	60 ee       	ldi	r22, 0xE0	; 224
    3a7c:	78 e3       	ldi	r23, 0x38	; 56
                } else {
                    SetResponse(elements++, A_BADOFFERING, L_BADOFFERING, TEASER);
                }
            
            //Other questions    
            } else if (specialPassed == 1) {
    3a7e:	81 30       	cpi	r24, 0x01	; 1
    3a80:	09 f0       	breq	.+2      	; 0x3a84 <ProcessInput+0xe0c>
    3a82:	46 c0       	rjmp	.+140    	; 0x3b10 <ProcessInput+0xe98>
                PopulateObject(route[currDepth+1], &actObj1);
    3a84:	80 81       	ld	r24, Z
    3a86:	91 81       	ldd	r25, Z+1	; 0x01
    3a88:	0e 94 e8 11 	call	0x23d0	; 0x23d0 <PopulateObject>
                if (CheckState(actObj1.byteField[ACTION_ACL])){
    3a8c:	80 91 e7 38 	lds	r24, 0x38E7	; 0x8038e7 <actObj1.3989+0x7>
    3a90:	0e 94 0d 0a 	call	0x141a	; 0x141a <CheckState>
    3a94:	88 23       	and	r24, r24
    3a96:	01 f1       	breq	.+64     	; 0x3ad8 <ProcessInput+0xe60>
                    SetResponse(elements++, actObj1.addrStr[ACTION_MSG], actObj1.lenStr[ACTION_MSG], GAME);
    3a98:	80 91 06 39 	lds	r24, 0x3906	; 0x803906 <actObj1.3989+0x26>
    3a9c:	90 91 07 39 	lds	r25, 0x3907	; 0x803907 <actObj1.3989+0x27>
    return 0;
}

//
void SetResponse(uint8_t number, uint16_t address, uint16_t length, uint8_t type){
    reactStr[0][number]=address;
    3aa0:	20 91 f8 38 	lds	r18, 0x38F8	; 0x8038f8 <actObj1.3989+0x18>
    3aa4:	30 91 f9 38 	lds	r19, 0x38F9	; 0x8038f9 <actObj1.3989+0x19>
    3aa8:	20 93 23 39 	sts	0x3923, r18	; 0x803923 <reactStr+0x2>
    3aac:	30 93 24 39 	sts	0x3924, r19	; 0x803924 <reactStr+0x3>
    reactStr[1][number]=length;
    3ab0:	80 93 63 39 	sts	0x3963, r24	; 0x803963 <reactStr+0x42>
    3ab4:	90 93 64 39 	sts	0x3964, r25	; 0x803964 <reactStr+0x43>
    reactStr[2][number]=type;
    3ab8:	10 92 a3 39 	sts	0x39A3, r1	; 0x8039a3 <reactStr+0x82>
    3abc:	10 92 a4 39 	sts	0x39A4, r1	; 0x8039a4 <reactStr+0x83>
            //Other questions    
            } else if (specialPassed == 1) {
                PopulateObject(route[currDepth+1], &actObj1);
                if (CheckState(actObj1.byteField[ACTION_ACL])){
                    SetResponse(elements++, actObj1.addrStr[ACTION_MSG], actObj1.lenStr[ACTION_MSG], GAME);
                    effect = actObj1.effect[2];
    3ac0:	80 91 0a 39 	lds	r24, 0x390A	; 0x80390a <actObj1.3989+0x2a>
    3ac4:	90 e0       	ldi	r25, 0x00	; 0
    3ac6:	80 93 40 38 	sts	0x3840, r24	; 0x803840 <effect>
    3aca:	90 93 41 38 	sts	0x3841, r25	; 0x803841 <effect+0x1>
                    UpdateState(actObj1.byteField[ACTION_STATE]);
    3ace:	80 91 ea 38 	lds	r24, 0x38EA	; 0x8038ea <actObj1.3989+0xa>
    3ad2:	0e 94 ec 09 	call	0x13d8	; 0x13d8 <UpdateState>
    3ad6:	38 c0       	rjmp	.+112    	; 0x3b48 <ProcessInput+0xed0>
                } else {
                    SetResponse(elements++, actObj1.addrStr[ACTION_ACL_MSG], actObj1.lenStr[ACTION_ACL_MSG], GAME);
    3ad8:	80 91 04 39 	lds	r24, 0x3904	; 0x803904 <actObj1.3989+0x24>
    3adc:	90 91 05 39 	lds	r25, 0x3905	; 0x803905 <actObj1.3989+0x25>
    return 0;
}

//
void SetResponse(uint8_t number, uint16_t address, uint16_t length, uint8_t type){
    reactStr[0][number]=address;
    3ae0:	20 91 f6 38 	lds	r18, 0x38F6	; 0x8038f6 <actObj1.3989+0x16>
    3ae4:	30 91 f7 38 	lds	r19, 0x38F7	; 0x8038f7 <actObj1.3989+0x17>
    3ae8:	20 93 23 39 	sts	0x3923, r18	; 0x803923 <reactStr+0x2>
    3aec:	30 93 24 39 	sts	0x3924, r19	; 0x803924 <reactStr+0x3>
    reactStr[1][number]=length;
    3af0:	80 93 63 39 	sts	0x3963, r24	; 0x803963 <reactStr+0x42>
    3af4:	90 93 64 39 	sts	0x3964, r25	; 0x803964 <reactStr+0x43>
    reactStr[2][number]=type;
    3af8:	10 92 a3 39 	sts	0x39A3, r1	; 0x8039a3 <reactStr+0x82>
    3afc:	10 92 a4 39 	sts	0x39A4, r1	; 0x8039a4 <reactStr+0x83>
                    SetResponse(elements++, actObj1.addrStr[ACTION_MSG], actObj1.lenStr[ACTION_MSG], GAME);
                    effect = actObj1.effect[2];
                    UpdateState(actObj1.byteField[ACTION_STATE]);
                } else {
                    SetResponse(elements++, actObj1.addrStr[ACTION_ACL_MSG], actObj1.lenStr[ACTION_ACL_MSG], GAME);
                    effect = actObj1.effect[1];
    3b00:	80 91 09 39 	lds	r24, 0x3909	; 0x803909 <actObj1.3989+0x29>
    3b04:	90 e0       	ldi	r25, 0x00	; 0
    3b06:	80 93 40 38 	sts	0x3840, r24	; 0x803840 <effect>
    3b0a:	90 93 41 38 	sts	0x3841, r25	; 0x803841 <effect+0x1>
    3b0e:	1c c0       	rjmp	.+56     	; 0x3b48 <ProcessInput+0xed0>
                }

            } else {
                PopulateObject(route[currDepth+1], &actObj1);
    3b10:	80 81       	ld	r24, Z
    3b12:	91 81       	ldd	r25, Z+1	; 0x01
    3b14:	0e 94 e8 11 	call	0x23d0	; 0x23d0 <PopulateObject>
    return 0;
}

//
void SetResponse(uint8_t number, uint16_t address, uint16_t length, uint8_t type){
    reactStr[0][number]=address;
    3b18:	80 e6       	ldi	r24, 0x60	; 96
    3b1a:	98 e7       	ldi	r25, 0x78	; 120
    3b1c:	80 93 23 39 	sts	0x3923, r24	; 0x803923 <reactStr+0x2>
    3b20:	90 93 24 39 	sts	0x3924, r25	; 0x803924 <reactStr+0x3>
    reactStr[1][number]=length;
    3b24:	8d e4       	ldi	r24, 0x4D	; 77
    3b26:	90 e0       	ldi	r25, 0x00	; 0
    3b28:	80 93 63 39 	sts	0x3963, r24	; 0x803963 <reactStr+0x42>
    3b2c:	90 93 64 39 	sts	0x3964, r25	; 0x803964 <reactStr+0x43>
    reactStr[2][number]=type;
    3b30:	81 e0       	ldi	r24, 0x01	; 1
    3b32:	90 e0       	ldi	r25, 0x00	; 0
    3b34:	80 93 a3 39 	sts	0x39A3, r24	; 0x8039a3 <reactStr+0x82>
    3b38:	90 93 a4 39 	sts	0x39A4, r25	; 0x8039a4 <reactStr+0x83>
                }

            } else {
                PopulateObject(route[currDepth+1], &actObj1);
                SetResponse(elements++, A_INCORRECT, L_INCORRECT, TEASER);
                PunishmentTime = getClock();
    3b3c:	0e 94 37 0e 	call	0x1c6e	; 0x1c6e <getClock>
    3b40:	80 93 0d 39 	sts	0x390D, r24	; 0x80390d <PunishmentTime>
    3b44:	90 93 0e 39 	sts	0x390E, r25	; 0x80390e <PunishmentTime+0x1>
                    effect = actObj1.effect[1];
                }

            } else {
                PopulateObject(route[currDepth+1], &actObj1);
                SetResponse(elements++, A_INCORRECT, L_INCORRECT, TEASER);
    3b48:	12 e0       	ldi	r17, 0x02	; 2
                PunishmentTime = getClock();
            }
            specialInput[0] = 0;
    3b4a:	10 92 10 39 	sts	0x3910, r1	; 0x803910 <specialInput>

        }
                    
        //Input handled
        if (specialInput[0]) responseList = elements; else responseList = SetStandardResponse(elements);
    3b4e:	80 91 10 39 	lds	r24, 0x3910	; 0x803910 <specialInput>
    3b52:	88 23       	and	r24, r24
    3b54:	19 f0       	breq	.+6      	; 0x3b5c <ProcessInput+0xee4>
    3b56:	10 93 20 39 	sts	0x3920, r17	; 0x803920 <responseList>
    3b5a:	8b c0       	rjmp	.+278    	; 0x3c72 <ProcessInput+0xffa>
    3b5c:	81 2f       	mov	r24, r17
    3b5e:	01 c0       	rjmp	.+2      	; 0x3b62 <ProcessInput+0xeea>

    } else {

        responseList = SetStandardResponse(1);
    3b60:	81 e0       	ldi	r24, 0x01	; 1
    3b62:	0e 94 6c 11 	call	0x22d8	; 0x22d8 <SetStandardResponse>
    3b66:	80 93 20 39 	sts	0x3920, r24	; 0x803920 <responseList>
    3b6a:	83 c0       	rjmp	.+262    	; 0x3c72 <ProcessInput+0xffa>
    return 0;
}

//
void SetResponse(uint8_t number, uint16_t address, uint16_t length, uint8_t type){
    reactStr[0][number]=address;
    3b6c:	81 ed       	ldi	r24, 0xD1	; 209
    3b6e:	99 e7       	ldi	r25, 0x79	; 121
    3b70:	80 93 23 39 	sts	0x3923, r24	; 0x803923 <reactStr+0x2>
    3b74:	90 93 24 39 	sts	0x3924, r25	; 0x803924 <reactStr+0x3>
    reactStr[1][number]=length;
    3b78:	8a e1       	ldi	r24, 0x1A	; 26
    3b7a:	90 e0       	ldi	r25, 0x00	; 0
    3b7c:	45 c9       	rjmp	.-3446   	; 0x2e08 <ProcessInput+0x190>

        //Drop item if in inventory
        if (data[0] == 'd') {
            if ((inventory[0] == 0)&&(inventory[1] == 0)){
                SetResponse(elements++, A_EMPTYHANDS, L_EMPTYHANDS, TEASER);
            } else if (inputLen != 2) {
    3b7e:	f2 e0       	ldi	r31, 0x02	; 2
    3b80:	ff 12       	cpse	r15, r31
    3b82:	ad c8       	rjmp	.-3750   	; 0x2cde <ProcessInput+0x66>
                SetResponse(elements++, A_NOTPOSSIBLE, L_NOTPOSSIBLE, TEASER);
            } else {
                for (uint8_t x=0; x<2; ++x) {
                    if (inventory[x]) {
                        if (CheckLetter(inventory[x], data[1])) {
    3b84:	f3 01       	movw	r30, r6
    3b86:	61 81       	ldd	r22, Z+1	; 0x01
    3b88:	0e 94 61 12 	call	0x24c2	; 0x24c2 <CheckLetter>
    3b8c:	88 23       	and	r24, r24
    3b8e:	09 f4       	brne	.+2      	; 0x3b92 <ProcessInput+0xf1a>
    3b90:	58 c0       	rjmp	.+176    	; 0x3c42 <ProcessInput+0xfca>
                SetResponse(elements++, A_EMPTYHANDS, L_EMPTYHANDS, TEASER);
            } else if (inputLen != 2) {
                SetResponse(elements++, A_NOTPOSSIBLE, L_NOTPOSSIBLE, TEASER);
            } else {
                for (uint8_t x=0; x<2; ++x) {
                    if (inventory[x]) {
    3b92:	00 e0       	ldi	r16, 0x00	; 0
    3b94:	10 e0       	ldi	r17, 0x00	; 0
                        if (CheckLetter(inventory[x], data[1])) {
                            PopulateObject(inventory[x], &actObj1);
    3b96:	00 0f       	add	r16, r16
    3b98:	11 1f       	adc	r17, r17
    3b9a:	0c 5b       	subi	r16, 0xBC	; 188
    3b9c:	17 4c       	sbci	r17, 0xC7	; 199
    3b9e:	60 ee       	ldi	r22, 0xE0	; 224
    3ba0:	78 e3       	ldi	r23, 0x38	; 56
    3ba2:	d8 01       	movw	r26, r16
    3ba4:	8d 91       	ld	r24, X+
    3ba6:	9c 91       	ld	r25, X
    3ba8:	0e 94 e8 11 	call	0x23d0	; 0x23d0 <PopulateObject>
    return 0;
}

//
void SetResponse(uint8_t number, uint16_t address, uint16_t length, uint8_t type){
    reactStr[0][number]=address;
    3bac:	86 e9       	ldi	r24, 0x96	; 150
    3bae:	97 e7       	ldi	r25, 0x77	; 119
    3bb0:	80 93 23 39 	sts	0x3923, r24	; 0x803923 <reactStr+0x2>
    3bb4:	90 93 24 39 	sts	0x3924, r25	; 0x803924 <reactStr+0x3>
    reactStr[1][number]=length;
    3bb8:	80 e1       	ldi	r24, 0x10	; 16
    3bba:	90 e0       	ldi	r25, 0x00	; 0
    3bbc:	80 93 63 39 	sts	0x3963, r24	; 0x803963 <reactStr+0x42>
    3bc0:	90 93 64 39 	sts	0x3964, r25	; 0x803964 <reactStr+0x43>
    reactStr[2][number]=type;
    3bc4:	81 e0       	ldi	r24, 0x01	; 1
    3bc6:	90 e0       	ldi	r25, 0x00	; 0
    3bc8:	80 93 a3 39 	sts	0x39A3, r24	; 0x8039a3 <reactStr+0x82>
    3bcc:	90 93 a4 39 	sts	0x39A4, r25	; 0x8039a4 <reactStr+0x83>
                for (uint8_t x=0; x<2; ++x) {
                    if (inventory[x]) {
                        if (CheckLetter(inventory[x], data[1])) {
                            PopulateObject(inventory[x], &actObj1);
                            SetResponse(elements++, A_DROPPING, L_DROPPING, TEASER);
                            SetResponse(elements++, actObj1.addrStr[NAME], actObj1.lenStr[NAME], GAME);
    3bd0:	20 91 fa 38 	lds	r18, 0x38FA	; 0x8038fa <actObj1.3989+0x1a>
    3bd4:	30 91 fb 38 	lds	r19, 0x38FB	; 0x8038fb <actObj1.3989+0x1b>
    return 0;
}

//
void SetResponse(uint8_t number, uint16_t address, uint16_t length, uint8_t type){
    reactStr[0][number]=address;
    3bd8:	40 91 ec 38 	lds	r20, 0x38EC	; 0x8038ec <actObj1.3989+0xc>
    3bdc:	50 91 ed 38 	lds	r21, 0x38ED	; 0x8038ed <actObj1.3989+0xd>
    3be0:	40 93 25 39 	sts	0x3925, r20	; 0x803925 <reactStr+0x4>
    3be4:	50 93 26 39 	sts	0x3926, r21	; 0x803926 <reactStr+0x5>
    reactStr[1][number]=length;
    3be8:	20 93 65 39 	sts	0x3965, r18	; 0x803965 <reactStr+0x44>
    3bec:	30 93 66 39 	sts	0x3966, r19	; 0x803966 <reactStr+0x45>
    reactStr[2][number]=type;
    3bf0:	10 92 a5 39 	sts	0x39A5, r1	; 0x8039a5 <reactStr+0x84>
    3bf4:	10 92 a6 39 	sts	0x39A6, r1	; 0x8039a6 <reactStr+0x85>
    return 0;
}

//
void SetResponse(uint8_t number, uint16_t address, uint16_t length, uint8_t type){
    reactStr[0][number]=address;
    3bf8:	29 e5       	ldi	r18, 0x59	; 89
    3bfa:	3a e7       	ldi	r19, 0x7A	; 122
    3bfc:	20 93 27 39 	sts	0x3927, r18	; 0x803927 <reactStr+0x6>
    3c00:	30 93 28 39 	sts	0x3928, r19	; 0x803928 <reactStr+0x7>
    reactStr[1][number]=length;
    3c04:	22 e0       	ldi	r18, 0x02	; 2
    3c06:	30 e0       	ldi	r19, 0x00	; 0
    3c08:	20 93 67 39 	sts	0x3967, r18	; 0x803967 <reactStr+0x46>
    3c0c:	30 93 68 39 	sts	0x3968, r19	; 0x803968 <reactStr+0x47>
    reactStr[2][number]=type;
    3c10:	80 93 a7 39 	sts	0x39A7, r24	; 0x8039a7 <reactStr+0x86>
    3c14:	90 93 a8 39 	sts	0x39A8, r25	; 0x8039a8 <reactStr+0x87>
    return 0;
}

//
void SetResponse(uint8_t number, uint16_t address, uint16_t length, uint8_t type){
    reactStr[0][number]=address;
    3c18:	29 e5       	ldi	r18, 0x59	; 89
    3c1a:	37 e7       	ldi	r19, 0x77	; 119
    3c1c:	20 93 29 39 	sts	0x3929, r18	; 0x803929 <reactStr+0x8>
    3c20:	30 93 2a 39 	sts	0x392A, r19	; 0x80392a <reactStr+0x9>
    reactStr[1][number]=length;
    3c24:	2d e3       	ldi	r18, 0x3D	; 61
    3c26:	30 e0       	ldi	r19, 0x00	; 0
    3c28:	20 93 69 39 	sts	0x3969, r18	; 0x803969 <reactStr+0x48>
    3c2c:	30 93 6a 39 	sts	0x396A, r19	; 0x80396a <reactStr+0x49>
    reactStr[2][number]=type;
    3c30:	80 93 a9 39 	sts	0x39A9, r24	; 0x8039a9 <reactStr+0x88>
    3c34:	90 93 aa 39 	sts	0x39AA, r25	; 0x8039aa <reactStr+0x89>
                            PopulateObject(inventory[x], &actObj1);
                            SetResponse(elements++, A_DROPPING, L_DROPPING, TEASER);
                            SetResponse(elements++, actObj1.addrStr[NAME], actObj1.lenStr[NAME], GAME);
                            SetResponse(elements++, A_LF, 2, TEASER);
                            SetResponse(elements++, A_RETURNING, L_RETURNING, TEASER);
                            inventory[x] = 0;
    3c38:	f8 01       	movw	r30, r16
    3c3a:	10 82       	st	Z, r1
    3c3c:	11 82       	std	Z+1, r1	; 0x01
                        if (CheckLetter(inventory[x], data[1])) {
                            PopulateObject(inventory[x], &actObj1);
                            SetResponse(elements++, A_DROPPING, L_DROPPING, TEASER);
                            SetResponse(elements++, actObj1.addrStr[NAME], actObj1.lenStr[NAME], GAME);
                            SetResponse(elements++, A_LF, 2, TEASER);
                            SetResponse(elements++, A_RETURNING, L_RETURNING, TEASER);
    3c3e:	15 e0       	ldi	r17, 0x05	; 5
                            inventory[x] = 0;
                            break;
    3c40:	86 cf       	rjmp	.-244    	; 0x3b4e <ProcessInput+0xed6>
                SetResponse(elements++, A_EMPTYHANDS, L_EMPTYHANDS, TEASER);
            } else if (inputLen != 2) {
                SetResponse(elements++, A_NOTPOSSIBLE, L_NOTPOSSIBLE, TEASER);
            } else {
                for (uint8_t x=0; x<2; ++x) {
                    if (inventory[x]) {
    3c42:	80 91 46 38 	lds	r24, 0x3846	; 0x803846 <inventory+0x2>
    3c46:	90 91 47 38 	lds	r25, 0x3847	; 0x803847 <inventory+0x3>
    3c4a:	00 97       	sbiw	r24, 0x00	; 0
    3c4c:	49 f0       	breq	.+18     	; 0x3c60 <ProcessInput+0xfe8>
                        if (CheckLetter(inventory[x], data[1])) {
    3c4e:	f3 01       	movw	r30, r6
    3c50:	61 81       	ldd	r22, Z+1	; 0x01
    3c52:	0e 94 61 12 	call	0x24c2	; 0x24c2 <CheckLetter>
    3c56:	88 23       	and	r24, r24
    3c58:	19 f0       	breq	.+6      	; 0x3c60 <ProcessInput+0xfe8>
                SetResponse(elements++, A_EMPTYHANDS, L_EMPTYHANDS, TEASER);
            } else if (inputLen != 2) {
                SetResponse(elements++, A_NOTPOSSIBLE, L_NOTPOSSIBLE, TEASER);
            } else {
                for (uint8_t x=0; x<2; ++x) {
                    if (inventory[x]) {
    3c5a:	01 e0       	ldi	r16, 0x01	; 1
    3c5c:	10 e0       	ldi	r17, 0x00	; 0
    3c5e:	9b cf       	rjmp	.-202    	; 0x3b96 <ProcessInput+0xf1e>
    return 0;
}

//
void SetResponse(uint8_t number, uint16_t address, uint16_t length, uint8_t type){
    reactStr[0][number]=address;
    3c60:	81 e6       	ldi	r24, 0x61	; 97
    3c62:	99 e7       	ldi	r25, 0x79	; 121
    3c64:	80 93 23 39 	sts	0x3923, r24	; 0x803923 <reactStr+0x2>
    3c68:	90 93 24 39 	sts	0x3924, r25	; 0x803924 <reactStr+0x3>
    reactStr[1][number]=length;
    3c6c:	81 e2       	ldi	r24, 0x21	; 33
    3c6e:	90 e0       	ldi	r25, 0x00	; 0
    } else {

        responseList = SetStandardResponse(1);
    }

    data[0] = 0;
    3c70:	cb c8       	rjmp	.-3690   	; 0x2e08 <ProcessInput+0x190>
    3c72:	f3 01       	movw	r30, r6
    serRxDone = 0;
    3c74:	10 82       	st	Z, r1
    3c76:	10 92 4a 38 	sts	0x384A, r1	; 0x80384a <serRxDone>
    RXCNT = 0;    
    return 0;
}
    3c7a:	1d ba       	out	0x1d, r1	; 29
    3c7c:	80 e0       	ldi	r24, 0x00	; 0
    3c7e:	28 96       	adiw	r28, 0x08	; 8
    3c80:	ee e0       	ldi	r30, 0x0E	; 14
    3c82:	f3 c0       	rjmp	.+486    	; 0x3e6a <__epilogue_restores__+0x8>

00003c84 <TextAdventure>:


//MAIN GAME STRUCTURE
uint8_t TextAdventure(){
    3c84:	cf 93       	push	r28
    static uint8_t serInput[RXLEN];
    uint16_t PunishmentCount;
    
    /* Count down PunishmentTime on WING LEDs */
    if (PunishmentTime != 0) {
    3c86:	80 91 0d 39 	lds	r24, 0x390D	; 0x80390d <PunishmentTime>
    3c8a:	90 91 0e 39 	lds	r25, 0x390E	; 0x80390e <PunishmentTime+0x1>
    3c8e:	89 2b       	or	r24, r25
    3c90:	09 f1       	breq	.+66     	; 0x3cd4 <TextAdventure+0x50>
        PunishmentCount = getClock();
    3c92:	0e 94 37 0e 	call	0x1c6e	; 0x1c6e <getClock>
        if (PunishmentCount < PunishmentTime)
    3c96:	20 91 0d 39 	lds	r18, 0x390D	; 0x80390d <PunishmentTime>
    3c9a:	30 91 0e 39 	lds	r19, 0x390E	; 0x80390e <PunishmentTime+0x1>
    3c9e:	82 17       	cp	r24, r18
    3ca0:	93 07       	cpc	r25, r19
    3ca2:	08 f4       	brcc	.+2      	; 0x3ca6 <TextAdventure+0x22>
            PunishmentCount += 256 * 60;
    3ca4:	94 5c       	subi	r25, 0xC4	; 196
        PunishmentCount -= PunishmentTime;
    3ca6:	ac 01       	movw	r20, r24
    3ca8:	42 1b       	sub	r20, r18
    3caa:	53 0b       	sbc	r21, r19
    3cac:	9a 01       	movw	r18, r20
        if (PunishmentCount > 10) {
    3cae:	4b 30       	cpi	r20, 0x0B	; 11
    3cb0:	51 05       	cpc	r21, r1
    3cb2:	30 f0       	brcs	.+12     	; 0x3cc0 <TextAdventure+0x3c>
            PunishmentTime = 0;
    3cb4:	10 92 0d 39 	sts	0x390D, r1	; 0x80390d <PunishmentTime>
    3cb8:	10 92 0e 39 	sts	0x390E, r1	; 0x80390e <PunishmentTime+0x1>
            PunishmentCount = 10;
    3cbc:	2a e0       	ldi	r18, 0x0A	; 10
    3cbe:	30 e0       	ldi	r19, 0x00	; 0
        }
        if (gameNow == TEXT ) {
    3cc0:	80 91 42 38 	lds	r24, 0x3842	; 0x803842 <gameNow>
    3cc4:	81 11       	cpse	r24, r1
    3cc6:	06 c0       	rjmp	.+12     	; 0x3cd4 <TextAdventure+0x50>
            WingBar(10-PunishmentCount,5-PunishmentCount);
    3cc8:	65 e0       	ldi	r22, 0x05	; 5
    3cca:	62 1b       	sub	r22, r18
    3ccc:	8a e0       	ldi	r24, 0x0A	; 10
    3cce:	82 1b       	sub	r24, r18
    3cd0:	0e 94 dd 0a 	call	0x15ba	; 0x15ba <WingBar>
        }
    }

    //Still sending data to serial?
    if (CheckSend()) return 1;
    3cd4:	0e 94 37 13 	call	0x266e	; 0x266e <CheckSend>
    3cd8:	88 23       	and	r24, r24
    3cda:	11 f0       	breq	.+4      	; 0x3ce0 <TextAdventure+0x5c>
    3cdc:	c1 e0       	ldi	r28, 0x01	; 1
    3cde:	18 c0       	rjmp	.+48     	; 0x3d10 <TextAdventure+0x8c>

    //Not sending? Process next response part to send, if any.
    if (CheckResponse()) return 1;        
    3ce0:	0e 94 8d 13 	call	0x271a	; 0x271a <CheckResponse>
    3ce4:	c8 2f       	mov	r28, r24
    3ce6:	81 11       	cpse	r24, r1
    3ce8:	f9 cf       	rjmp	.-14     	; 0x3cdc <TextAdventure+0x58>

    if (PunishmentTime == 0) {
    3cea:	80 91 0d 39 	lds	r24, 0x390D	; 0x80390d <PunishmentTime>
    3cee:	90 91 0e 39 	lds	r25, 0x390E	; 0x80390e <PunishmentTime+0x1>
    3cf2:	89 2b       	or	r24, r25
    3cf4:	69 f4       	brne	.+26     	; 0x3d10 <TextAdventure+0x8c>
        //No responses to send, check if there is user input.
        if (CheckInput(&serInput[0])) return 2; 
    3cf6:	84 e7       	ldi	r24, 0x74	; 116
    3cf8:	98 e3       	ldi	r25, 0x38	; 56
    3cfa:	0e 94 cd 13 	call	0x279a	; 0x279a <CheckInput>
    3cfe:	c8 2f       	mov	r28, r24
    3d00:	81 11       	cpse	r24, r1
    3d02:	05 c0       	rjmp	.+10     	; 0x3d0e <TextAdventure+0x8a>

        //Input found, process and save (changes only)
        ProcessInput(&serInput[0]);
    3d04:	84 e7       	ldi	r24, 0x74	; 116
    3d06:	98 e3       	ldi	r25, 0x38	; 56
    3d08:	0e 94 3c 16 	call	0x2c78	; 0x2c78 <ProcessInput>
    3d0c:	01 c0       	rjmp	.+2      	; 0x3d10 <TextAdventure+0x8c>
    //Not sending? Process next response part to send, if any.
    if (CheckResponse()) return 1;        

    if (PunishmentTime == 0) {
        //No responses to send, check if there is user input.
        if (CheckInput(&serInput[0])) return 2; 
    3d0e:	c2 e0       	ldi	r28, 0x02	; 2
        //Input found, process and save (changes only)
        ProcessInput(&serInput[0]);
    }

    return 0;
}
    3d10:	8c 2f       	mov	r24, r28
    3d12:	cf 91       	pop	r28
    3d14:	08 95       	ret

00003d16 <main>:


//This is where it begins, inits first and main program in while(1) loop.
int main(void)
{
    Setup();
    3d16:	0e 94 cc 04 	call	0x998	; 0x998 <Setup>
    LoadGameState();
    3d1a:	0e 94 4b 0a 	call	0x1496	; 0x1496 <LoadGameState>
    gameState[0]|=1;
    3d1e:	80 91 67 3a 	lds	r24, 0x3A67	; 0x803a67 <gameState>
    3d22:	81 60       	ori	r24, 0x01	; 1
    3d24:	80 93 67 3a 	sts	0x3A67, r24	; 0x803a67 <gameState>
    SelfTest();
    3d28:	0e 94 5e 0e 	call	0x1cbc	; 0x1cbc <SelfTest>
            if (adcPhot < 10) UpdateState(116);
            if (adcPhot > 100) UpdateState(128+116);

            dimValueSum -= (dimValueSum>>6);
            dimValueSum += 256;
            dimValueSum -= QSINE[31-(adcPhot>>7)];
    3d2c:	cf e1       	ldi	r28, 0x1F	; 31
    3d2e:	d0 e0       	ldi	r29, 0x00	; 0
    LoadGameState();
    gameState[0]|=1;
    SelfTest();

    while (TRUE) {
        if (GenerateAudio()) {
    3d30:	0e 94 99 0c 	call	0x1932	; 0x1932 <GenerateAudio>
    3d34:	88 23       	and	r24, r24
    3d36:	e1 f3       	breq	.-8      	; 0x3d30 <main+0x1a>
            lastButtonState = buttonState;
    3d38:	80 91 08 38 	lds	r24, 0x3808	; 0x803808 <buttonState>
    3d3c:	80 93 07 38 	sts	0x3807, r24	; 0x803807 <lastButtonState>
            buttonState = CheckButtons();
    3d40:	0e 94 b8 08 	call	0x1170	; 0x1170 <CheckButtons>
    3d44:	80 93 08 38 	sts	0x3808, r24	; 0x803808 <buttonState>
            buttonMark = 0;
    3d48:	10 92 48 38 	sts	0x3848, r1	; 0x803848 <buttonMark>

            if (VREF_CTRLA == 0x12) SelectAuIn(); else SelectTSens();
    3d4c:	80 91 a0 00 	lds	r24, 0x00A0	; 0x8000a0 <__TEXT_REGION_LENGTH__+0x7000a0>
    3d50:	82 31       	cpi	r24, 0x12	; 18
    3d52:	19 f4       	brne	.+6      	; 0x3d5a <main+0x44>
    3d54:	0e 94 a9 08 	call	0x1152	; 0x1152 <SelectAuIn>
    3d58:	02 c0       	rjmp	.+4      	; 0x3d5e <main+0x48>
    3d5a:	0e 94 9a 08 	call	0x1134	; 0x1134 <SelectTSens>

            GenerateBlinks();
    3d5e:	0e 94 32 0b 	call	0x1664	; 0x1664 <GenerateBlinks>

            //Main game, to complete: Finish sub-game MagnetMaze and MakeFriends too.
            TextAdventure();
    3d62:	90 df       	rcall	.-224    	; 0x3c84 <TextAdventure>

            //Other games & user interaction checks
            MagnetMaze();
    3d64:	0e 94 cf 03 	call	0x79e	; 0x79e <MagnetMaze>
            LanyardCode();
    3d68:	0e 94 d4 02 	call	0x5a8	; 0x5a8 <LanyardCode>
            BastetDictates();
    3d6c:	0e 94 47 0f 	call	0x1e8e	; 0x1e8e <BastetDictates>
            MakeFriends();
    3d70:	0e 94 7d 00 	call	0xfa	; 0xfa <MakeFriends>

            //Save progress
            SaveGameState();
    3d74:	0e 94 65 09 	call	0x12ca	; 0x12ca <SaveGameState>

            //Check light sensor status (added hysteresis to preserve writing cycles to internal EEPROM)
            if (adcPhot < 10) UpdateState(116);
    3d78:	80 91 c3 3a 	lds	r24, 0x3AC3	; 0x803ac3 <adcPhot>
    3d7c:	90 91 c4 3a 	lds	r25, 0x3AC4	; 0x803ac4 <adcPhot+0x1>
    3d80:	0a 97       	sbiw	r24, 0x0a	; 10
    3d82:	18 f4       	brcc	.+6      	; 0x3d8a <main+0x74>
    3d84:	84 e7       	ldi	r24, 0x74	; 116
    3d86:	0e 94 ec 09 	call	0x13d8	; 0x13d8 <UpdateState>
            if (adcPhot > 100) UpdateState(128+116);
    3d8a:	80 91 c3 3a 	lds	r24, 0x3AC3	; 0x803ac3 <adcPhot>
    3d8e:	90 91 c4 3a 	lds	r25, 0x3AC4	; 0x803ac4 <adcPhot+0x1>
    3d92:	85 36       	cpi	r24, 0x65	; 101
    3d94:	91 05       	cpc	r25, r1
    3d96:	18 f0       	brcs	.+6      	; 0x3d9e <main+0x88>
    3d98:	84 ef       	ldi	r24, 0xF4	; 244
    3d9a:	0e 94 ec 09 	call	0x13d8	; 0x13d8 <UpdateState>

            dimValueSum -= (dimValueSum>>6);
    3d9e:	20 91 0a 38 	lds	r18, 0x380A	; 0x80380a <dimValueSum>
    3da2:	30 91 0b 38 	lds	r19, 0x380B	; 0x80380b <dimValueSum+0x1>
    3da6:	80 91 0a 38 	lds	r24, 0x380A	; 0x80380a <dimValueSum>
    3daa:	90 91 0b 38 	lds	r25, 0x380B	; 0x80380b <dimValueSum+0x1>
    3dae:	46 e0       	ldi	r20, 0x06	; 6
    3db0:	36 95       	lsr	r19
    3db2:	27 95       	ror	r18
    3db4:	4a 95       	dec	r20
    3db6:	e1 f7       	brne	.-8      	; 0x3db0 <main+0x9a>
    3db8:	82 1b       	sub	r24, r18
    3dba:	93 0b       	sbc	r25, r19
    3dbc:	80 93 0a 38 	sts	0x380A, r24	; 0x80380a <dimValueSum>
    3dc0:	90 93 0b 38 	sts	0x380B, r25	; 0x80380b <dimValueSum+0x1>
            dimValueSum += 256;
    3dc4:	80 91 0a 38 	lds	r24, 0x380A	; 0x80380a <dimValueSum>
    3dc8:	90 91 0b 38 	lds	r25, 0x380B	; 0x80380b <dimValueSum+0x1>
    3dcc:	93 95       	inc	r25
    3dce:	80 93 0a 38 	sts	0x380A, r24	; 0x80380a <dimValueSum>
    3dd2:	90 93 0b 38 	sts	0x380B, r25	; 0x80380b <dimValueSum+0x1>
            dimValueSum -= QSINE[31-(adcPhot>>7)];
    3dd6:	20 91 c3 3a 	lds	r18, 0x3AC3	; 0x803ac3 <adcPhot>
    3dda:	30 91 c4 3a 	lds	r19, 0x3AC4	; 0x803ac4 <adcPhot+0x1>
    3dde:	80 91 0a 38 	lds	r24, 0x380A	; 0x80380a <dimValueSum>
    3de2:	90 91 0b 38 	lds	r25, 0x380B	; 0x80380b <dimValueSum+0x1>
    3de6:	22 0f       	add	r18, r18
    3de8:	23 2f       	mov	r18, r19
    3dea:	22 1f       	adc	r18, r18
    3dec:	33 0b       	sbc	r19, r19
    3dee:	31 95       	neg	r19
    3df0:	fe 01       	movw	r30, r28
    3df2:	e2 1b       	sub	r30, r18
    3df4:	f3 0b       	sbc	r31, r19
    3df6:	e4 52       	subi	r30, 0x24	; 36
    3df8:	f1 44       	sbci	r31, 0x41	; 65
    3dfa:	20 81       	ld	r18, Z
    3dfc:	82 1b       	sub	r24, r18
    3dfe:	91 09       	sbc	r25, r1
    3e00:	80 93 0a 38 	sts	0x380A, r24	; 0x80380a <dimValueSum>
    3e04:	90 93 0b 38 	sts	0x380B, r25	; 0x80380b <dimValueSum+0x1>
            dimValue     = dimValueSum>>6;
    3e08:	80 91 0a 38 	lds	r24, 0x380A	; 0x80380a <dimValueSum>
    3e0c:	90 91 0b 38 	lds	r25, 0x380B	; 0x80380b <dimValueSum+0x1>
    3e10:	66 e0       	ldi	r22, 0x06	; 6
    3e12:	96 95       	lsr	r25
    3e14:	87 95       	ror	r24
    3e16:	6a 95       	dec	r22
    3e18:	e1 f7       	brne	.-8      	; 0x3e12 <main+0xfc>
    3e1a:	80 93 0c 38 	sts	0x380C, r24	; 0x80380c <dimValue>

            //Check temperature
            HotSummer();
    3e1e:	0e 94 78 0a 	call	0x14f0	; 0x14f0 <HotSummer>
    3e22:	86 cf       	rjmp	.-244    	; 0x3d30 <main+0x1a>

00003e24 <__tablejump2__>:
    3e24:	ee 0f       	add	r30, r30
    3e26:	ff 1f       	adc	r31, r31
    3e28:	05 90       	lpm	r0, Z+
    3e2a:	f4 91       	lpm	r31, Z
    3e2c:	e0 2d       	mov	r30, r0
    3e2e:	09 94       	ijmp

00003e30 <__prologue_saves__>:
    3e30:	2f 92       	push	r2
    3e32:	3f 92       	push	r3
    3e34:	4f 92       	push	r4
    3e36:	5f 92       	push	r5
    3e38:	6f 92       	push	r6
    3e3a:	7f 92       	push	r7
    3e3c:	8f 92       	push	r8
    3e3e:	9f 92       	push	r9
    3e40:	af 92       	push	r10
    3e42:	bf 92       	push	r11
    3e44:	cf 92       	push	r12
    3e46:	df 92       	push	r13
    3e48:	ef 92       	push	r14
    3e4a:	ff 92       	push	r15
    3e4c:	0f 93       	push	r16
    3e4e:	1f 93       	push	r17
    3e50:	cf 93       	push	r28
    3e52:	df 93       	push	r29
    3e54:	cd b7       	in	r28, 0x3d	; 61
    3e56:	de b7       	in	r29, 0x3e	; 62
    3e58:	ca 1b       	sub	r28, r26
    3e5a:	db 0b       	sbc	r29, r27
    3e5c:	cd bf       	out	0x3d, r28	; 61
    3e5e:	de bf       	out	0x3e, r29	; 62
    3e60:	09 94       	ijmp

00003e62 <__epilogue_restores__>:
    3e62:	2a 88       	ldd	r2, Y+18	; 0x12
    3e64:	39 88       	ldd	r3, Y+17	; 0x11
    3e66:	48 88       	ldd	r4, Y+16	; 0x10
    3e68:	5f 84       	ldd	r5, Y+15	; 0x0f
    3e6a:	6e 84       	ldd	r6, Y+14	; 0x0e
    3e6c:	7d 84       	ldd	r7, Y+13	; 0x0d
    3e6e:	8c 84       	ldd	r8, Y+12	; 0x0c
    3e70:	9b 84       	ldd	r9, Y+11	; 0x0b
    3e72:	aa 84       	ldd	r10, Y+10	; 0x0a
    3e74:	b9 84       	ldd	r11, Y+9	; 0x09
    3e76:	c8 84       	ldd	r12, Y+8	; 0x08
    3e78:	df 80       	ldd	r13, Y+7	; 0x07
    3e7a:	ee 80       	ldd	r14, Y+6	; 0x06
    3e7c:	fd 80       	ldd	r15, Y+5	; 0x05
    3e7e:	0c 81       	ldd	r16, Y+4	; 0x04
    3e80:	1b 81       	ldd	r17, Y+3	; 0x03
    3e82:	aa 81       	ldd	r26, Y+2	; 0x02
    3e84:	b9 81       	ldd	r27, Y+1	; 0x01
    3e86:	ce 0f       	add	r28, r30
    3e88:	d1 1d       	adc	r29, r1
    3e8a:	cd bf       	out	0x3d, r28	; 61
    3e8c:	de bf       	out	0x3e, r29	; 62
    3e8e:	ed 01       	movw	r28, r26
    3e90:	08 95       	ret

00003e92 <_exit>:
    3e92:	f8 94       	cli

00003e94 <__stop_program>:
    3e94:	ff cf       	rjmp	.-2      	; 0x3e94 <__stop_program>
