
ISR_IO.elf:     file format elf32-avr

Sections:
Idx Name          Size      VMA       LMA       File off  Algn
  0 .data         0000002e  00803800  00003f88  0000403c  2**0
                  CONTENTS, ALLOC, LOAD, DATA
  1 .text         00003e8e  00000000  00000000  000000b4  2**1
                  CONTENTS, ALLOC, LOAD, READONLY, CODE
  2 .rodata       000000fa  0000be8e  00003e8e  00003f42  2**0
                  CONTENTS, ALLOC, LOAD, READONLY, DATA
  3 .bss          000002ec  0080382e  0080382e  0000406a  2**0
                  ALLOC
  4 .comment      00000030  00000000  00000000  0000406a  2**0
                  CONTENTS, READONLY
  5 .note.gnu.avr.deviceinfo 00000040  00000000  00000000  0000409c  2**2
                  CONTENTS, READONLY
  6 .debug_aranges 00000328  00000000  00000000  000040dc  2**0
                  CONTENTS, READONLY, DEBUGGING
  7 .debug_info   00006d42  00000000  00000000  00004404  2**0
                  CONTENTS, READONLY, DEBUGGING
  8 .debug_abbrev 000028ce  00000000  00000000  0000b146  2**0
                  CONTENTS, READONLY, DEBUGGING
  9 .debug_line   00003d1c  00000000  00000000  0000da14  2**0
                  CONTENTS, READONLY, DEBUGGING
 10 .debug_frame  0000098c  00000000  00000000  00011730  2**2
                  CONTENTS, READONLY, DEBUGGING
 11 .debug_str    00001a6b  00000000  00000000  000120bc  2**0
                  CONTENTS, READONLY, DEBUGGING
 12 .debug_loc    000044dc  00000000  00000000  00013b27  2**0
                  CONTENTS, READONLY, DEBUGGING
 13 .debug_ranges 000003b0  00000000  00000000  00018003  2**0
                  CONTENTS, READONLY, DEBUGGING

Disassembly of section .text:

00000000 <__vectors>:
       0:	3d c0       	rjmp	.+122    	; 0x7c <__ctors_end>
       2:	00 00       	nop
       4:	58 c0       	rjmp	.+176    	; 0xb6 <__bad_interrupt>
       6:	00 00       	nop
       8:	56 c0       	rjmp	.+172    	; 0xb6 <__bad_interrupt>
       a:	00 00       	nop
       c:	54 c0       	rjmp	.+168    	; 0xb6 <__bad_interrupt>
       e:	00 00       	nop
      10:	52 c0       	rjmp	.+164    	; 0xb6 <__bad_interrupt>
      12:	00 00       	nop
      14:	50 c0       	rjmp	.+160    	; 0xb6 <__bad_interrupt>
      16:	00 00       	nop
      18:	0c 94 68 08 	jmp	0x10d0	; 0x10d0 <__vector_6>
      1c:	0c 94 bf 08 	jmp	0x117e	; 0x117e <__vector_7>
      20:	8a c6       	rjmp	.+3348   	; 0xd36 <__vector_8>
      22:	00 00       	nop
      24:	48 c0       	rjmp	.+144    	; 0xb6 <__bad_interrupt>
      26:	00 00       	nop
      28:	46 c0       	rjmp	.+140    	; 0xb6 <__bad_interrupt>
      2a:	00 00       	nop
      2c:	44 c0       	rjmp	.+136    	; 0xb6 <__bad_interrupt>
      2e:	00 00       	nop
      30:	42 c0       	rjmp	.+132    	; 0xb6 <__bad_interrupt>
      32:	00 00       	nop
      34:	d1 c6       	rjmp	.+3490   	; 0xdd8 <__vector_13>
      36:	00 00       	nop
      38:	02 c7       	rjmp	.+3588   	; 0xe3e <__vector_14>
      3a:	00 00       	nop
      3c:	3c c0       	rjmp	.+120    	; 0xb6 <__bad_interrupt>
      3e:	00 00       	nop
      40:	3a c0       	rjmp	.+116    	; 0xb6 <__bad_interrupt>
      42:	00 00       	nop
      44:	38 c0       	rjmp	.+112    	; 0xb6 <__bad_interrupt>
      46:	00 00       	nop
      48:	36 c0       	rjmp	.+108    	; 0xb6 <__bad_interrupt>
      4a:	00 00       	nop
      4c:	34 c0       	rjmp	.+104    	; 0xb6 <__bad_interrupt>
      4e:	00 00       	nop
      50:	c0 c7       	rjmp	.+3968   	; 0xfd2 <__vector_20>
      52:	00 00       	nop
      54:	30 c0       	rjmp	.+96     	; 0xb6 <__bad_interrupt>
      56:	00 00       	nop
      58:	f3 c7       	rjmp	.+4070   	; 0x1040 <__vector_22>
      5a:	00 00       	nop
      5c:	2c c0       	rjmp	.+88     	; 0xb6 <__bad_interrupt>
      5e:	00 00       	nop
      60:	2a c0       	rjmp	.+84     	; 0xb6 <__bad_interrupt>
      62:	00 00       	nop
      64:	28 c0       	rjmp	.+80     	; 0xb6 <__bad_interrupt>
      66:	00 00       	nop
      68:	26 c0       	rjmp	.+76     	; 0xb6 <__bad_interrupt>
      6a:	00 00       	nop
      6c:	3b c7       	rjmp	.+3702   	; 0xee4 <__vector_27>
      6e:	00 00       	nop
      70:	94 c7       	rjmp	.+3880   	; 0xf9a <__vector_28>
      72:	00 00       	nop
      74:	20 c0       	rjmp	.+64     	; 0xb6 <__bad_interrupt>
      76:	00 00       	nop
      78:	1e c0       	rjmp	.+60     	; 0xb6 <__bad_interrupt>
	...

0000007c <__ctors_end>:
      7c:	11 24       	eor	r1, r1
      7e:	1f be       	out	0x3f, r1	; 63
      80:	cf ef       	ldi	r28, 0xFF	; 255
      82:	cd bf       	out	0x3d, r28	; 61
      84:	df e3       	ldi	r29, 0x3F	; 63
      86:	de bf       	out	0x3e, r29	; 62

00000088 <__do_copy_data>:
      88:	18 e3       	ldi	r17, 0x38	; 56
      8a:	a0 e0       	ldi	r26, 0x00	; 0
      8c:	b8 e3       	ldi	r27, 0x38	; 56
      8e:	e8 e8       	ldi	r30, 0x88	; 136
      90:	ff e3       	ldi	r31, 0x3F	; 63
      92:	02 c0       	rjmp	.+4      	; 0x98 <__do_copy_data+0x10>
      94:	05 90       	lpm	r0, Z+
      96:	0d 92       	st	X+, r0
      98:	ae 32       	cpi	r26, 0x2E	; 46
      9a:	b1 07       	cpc	r27, r17
      9c:	d9 f7       	brne	.-10     	; 0x94 <__do_copy_data+0xc>

0000009e <__do_clear_bss>:
      9e:	2b e3       	ldi	r18, 0x3B	; 59
      a0:	ae e2       	ldi	r26, 0x2E	; 46
      a2:	b8 e3       	ldi	r27, 0x38	; 56
      a4:	01 c0       	rjmp	.+2      	; 0xa8 <.do_clear_bss_start>

000000a6 <.do_clear_bss_loop>:
      a6:	1d 92       	st	X+, r1

000000a8 <.do_clear_bss_start>:
      a8:	aa 31       	cpi	r26, 0x1A	; 26
      aa:	b2 07       	cpc	r27, r18
      ac:	e1 f7       	brne	.-8      	; 0xa6 <.do_clear_bss_loop>
      ae:	0e 94 f5 1e 	call	0x3dea	; 0x3dea <main>
      b2:	0c 94 45 1f 	jmp	0x3e8a	; 0x3e8a <_exit>

000000b6 <__bad_interrupt>:
      b6:	a4 cf       	rjmp	.-184    	; 0x0 <__vectors>

000000b8 <chkVolt250>:
#include <main_def.h>
#include <resources.h>
#include <I2C.h>

//Returns measured voltage * 4 (2V returns 8) if it is in the expected range (DELTA)
uint8_t chkVolt250(){
      b8:	20 91 32 38 	lds	r18, 0x3832	; 0x803832 <avgVolt.3775>
      bc:	85 e1       	ldi	r24, 0x15	; 21
      be:	90 e0       	ldi	r25, 0x00	; 0
    static uint8_t avgVolt = 0;
        
    for (uint8_t x=25; x<226; x+=25) {
        if ((auIn[0] > (x-DELTA)) && (auIn[0] < (x+DELTA))) {
      c0:	40 91 c2 3a 	lds	r20, 0x3AC2	; 0x803ac2 <auIn>
      c4:	50 e0       	ldi	r21, 0x00	; 0
      c6:	48 17       	cp	r20, r24
      c8:	59 07       	cpc	r21, r25
      ca:	74 f0       	brlt	.+28     	; 0xe8 <chkVolt250+0x30>
      cc:	40 91 c2 3a 	lds	r20, 0x3AC2	; 0x803ac2 <auIn>
      d0:	50 e0       	ldi	r21, 0x00	; 0
      d2:	bc 01       	movw	r22, r24
      d4:	68 5f       	subi	r22, 0xF8	; 248
      d6:	7f 4f       	sbci	r23, 0xFF	; 255
      d8:	64 17       	cp	r22, r20
      da:	75 07       	cpc	r23, r21
      dc:	2c f0       	brlt	.+10     	; 0xe8 <chkVolt250+0x30>
      de:	20 93 32 38 	sts	0x3832, r18	; 0x803832 <avgVolt.3775>
            break;
        }
        ++avgVolt;
    }
    return avgVolt;
      e2:	80 91 32 38 	lds	r24, 0x3832	; 0x803832 <avgVolt.3775>
      e6:	08 95       	ret
        
    for (uint8_t x=25; x<226; x+=25) {
        if ((auIn[0] > (x-DELTA)) && (auIn[0] < (x+DELTA))) {
            break;
        }
        ++avgVolt;
      e8:	2f 5f       	subi	r18, 0xFF	; 255
      ea:	49 96       	adiw	r24, 0x19	; 25

//Returns measured voltage * 4 (2V returns 8) if it is in the expected range (DELTA)
uint8_t chkVolt250(){
    static uint8_t avgVolt = 0;
        
    for (uint8_t x=25; x<226; x+=25) {
      ec:	86 3f       	cpi	r24, 0xF6	; 246
      ee:	91 05       	cpc	r25, r1
      f0:	39 f7       	brne	.-50     	; 0xc0 <chkVolt250+0x8>
      f2:	f5 cf       	rjmp	.-22     	; 0xde <chkVolt250+0x26>

000000f4 <MakeFriends>:
    }
    return avgVolt;
}

// Main game loop
uint8_t MakeFriends(){
      f4:	ef 92       	push	r14
      f6:	ff 92       	push	r15
      f8:	0f 93       	push	r16
      fa:	1f 93       	push	r17
      fc:	cf 93       	push	r28
      fe:	df 93       	push	r29
     100:	c4 e6       	ldi	r28, 0x64	; 100
    static uint8_t chkTmr = 0;
    static uint8_t jackIn = 0;
    static uint8_t candidate = 0;

    //Check if badge has found 3 friends
    uint8_t foundAll = 1;
     102:	d1 e0       	ldi	r29, 0x01	; 1
    for (uint8_t x=0; x<4; x++){
        if (CheckState(100+x) == 0) foundAll = 0;
     104:	8c 2f       	mov	r24, r28
     106:	0e 94 a4 0a 	call	0x1548	; 0x1548 <CheckState>
     10a:	81 11       	cpse	r24, r1
     10c:	01 c0       	rjmp	.+2      	; 0x110 <MakeFriends+0x1c>
     10e:	d0 e0       	ldi	r29, 0x00	; 0
     110:	cf 5f       	subi	r28, 0xFF	; 255
    static uint8_t jackIn = 0;
    static uint8_t candidate = 0;

    //Check if badge has found 3 friends
    uint8_t foundAll = 1;
    for (uint8_t x=0; x<4; x++){
     112:	c8 36       	cpi	r28, 0x68	; 104
     114:	b9 f7       	brne	.-18     	; 0x104 <MakeFriends+0x10>
        if (CheckState(100+x) == 0) foundAll = 0;
    }
    if (foundAll) UpdateState(124);
     116:	dd 23       	and	r29, r29
     118:	19 f0       	breq	.+6      	; 0x120 <MakeFriends+0x2c>
     11a:	8c e7       	ldi	r24, 0x7C	; 124
     11c:	0e 94 9a 0a 	call	0x1534	; 0x1534 <UpdateState>


    //Checking for headphones
    if (detHdPh) return 0;
     120:	80 91 bf 3a 	lds	r24, 0x3ABF	; 0x803abf <detHdPh>
     124:	81 11       	cpse	r24, r1
     126:	1e c1       	rjmp	.+572    	; 0x364 <MakeFriends+0x270>

    //Audio off, set voltage level (setDAC[0]*10mV)
    if (progress == NO_OTHER) {
     128:	80 91 31 38 	lds	r24, 0x3831	; 0x803831 <progress.3782>
     12c:	81 11       	cpse	r24, r1
     12e:	11 c0       	rjmp	.+34     	; 0x152 <MakeFriends+0x5e>
        setDAC[0] = whoami * 50;
     130:	90 91 3d 38 	lds	r25, 0x383D	; 0x80383d <whoami>
     134:	22 e3       	ldi	r18, 0x32	; 50
     136:	92 9f       	mul	r25, r18
     138:	90 2d       	mov	r25, r0
     13a:	11 24       	eor	r1, r1
     13c:	90 93 00 38 	sts	0x3800, r25	; 0x803800 <__data_start>
        auRepAddr = &setDAC[0];
     140:	20 e0       	ldi	r18, 0x00	; 0
     142:	38 e3       	ldi	r19, 0x38	; 56
     144:	20 93 05 38 	sts	0x3805, r18	; 0x803805 <auRepAddr>
     148:	30 93 06 38 	sts	0x3806, r19	; 0x803806 <auRepAddr+0x1>
        auVolume = 255;
     14c:	9f ef       	ldi	r25, 0xFF	; 255
     14e:	90 93 b6 3a 	sts	0x3AB6, r25	; 0x803ab6 <auVolume>
    }

    //Check for other badges
    if ((auIn[0] < (setDAC[0] - DELTA)) || (auIn[0] > (setDAC[0] + DELTA)) ||((progress > FIRST_CONTACT))) {
     152:	40 91 c2 3a 	lds	r20, 0x3AC2	; 0x803ac2 <auIn>
     156:	20 91 00 38 	lds	r18, 0x3800	; 0x803800 <__data_start>
     15a:	30 e0       	ldi	r19, 0x00	; 0
     15c:	50 e0       	ldi	r21, 0x00	; 0
     15e:	b9 01       	movw	r22, r18
     160:	65 50       	subi	r22, 0x05	; 5
     162:	71 09       	sbc	r23, r1
     164:	46 17       	cp	r20, r22
     166:	57 07       	cpc	r21, r23
     168:	64 f0       	brlt	.+24     	; 0x182 <MakeFriends+0x8e>
     16a:	40 91 c2 3a 	lds	r20, 0x3AC2	; 0x803ac2 <auIn>
     16e:	50 e0       	ldi	r21, 0x00	; 0
     170:	2b 5f       	subi	r18, 0xFB	; 251
     172:	3f 4f       	sbci	r19, 0xFF	; 255
     174:	24 17       	cp	r18, r20
     176:	35 07       	cpc	r19, r21
     178:	24 f0       	brlt	.+8      	; 0x182 <MakeFriends+0x8e>
     17a:	82 30       	cpi	r24, 0x02	; 2
     17c:	08 f0       	brcs	.+2      	; 0x180 <MakeFriends+0x8c>
     17e:	40 c0       	rjmp	.+128    	; 0x200 <MakeFriends+0x10c>
     180:	ef c0       	rjmp	.+478    	; 0x360 <MakeFriends+0x26c>
        if (progress == NO_OTHER) {
     182:	81 11       	cpse	r24, r1
     184:	0a c0       	rjmp	.+20     	; 0x19a <MakeFriends+0xa6>
            ++chkTmr;
     186:	80 91 30 38 	lds	r24, 0x3830	; 0x803830 <chkTmr.3784>
     18a:	8f 5f       	subi	r24, 0xFF	; 255
     18c:	80 93 30 38 	sts	0x3830, r24	; 0x803830 <chkTmr.3784>
            if (chkTmr >= 8) {
     190:	88 30       	cpi	r24, 0x08	; 8
     192:	08 f4       	brcc	.+2      	; 0x196 <MakeFriends+0xa2>
     194:	e7 c0       	rjmp	.+462    	; 0x364 <MakeFriends+0x270>
                progress = FIRST_CONTACT;
     196:	81 e0       	ldi	r24, 0x01	; 1
     198:	81 c0       	rjmp	.+258    	; 0x29c <MakeFriends+0x1a8>
                chkTmr = 0;
            }
        }

        //Candidate found, check ranges
        else if (progress == FIRST_CONTACT) {
     19a:	81 30       	cpi	r24, 0x01	; 1
     19c:	89 f5       	brne	.+98     	; 0x200 <MakeFriends+0x10c>
            jackIn = chkVolt250();
     19e:	8c df       	rcall	.-232    	; 0xb8 <chkVolt250>
     1a0:	80 93 2f 38 	sts	0x382F, r24	; 0x80382f <jackIn.3785>
            if (jackIn) {
     1a4:	88 23       	and	r24, r24
     1a6:	49 f1       	breq	.+82     	; 0x1fa <MakeFriends+0x106>
                ++chkTmr;
     1a8:	90 91 30 38 	lds	r25, 0x3830	; 0x803830 <chkTmr.3784>
     1ac:	9f 5f       	subi	r25, 0xFF	; 255
     1ae:	90 93 30 38 	sts	0x3830, r25	; 0x803830 <chkTmr.3784>
                if (chkTmr >= SHORT_WAIT){
     1b2:	98 30       	cpi	r25, 0x08	; 8
     1b4:	08 f4       	brcc	.+2      	; 0x1b8 <MakeFriends+0xc4>
     1b6:	d6 c0       	rjmp	.+428    	; 0x364 <MakeFriends+0x270>
                    if ((whoami == 1)&&((jackIn == 3)||(jackIn == 4)||(jackIn == 5))) {
     1b8:	90 91 3d 38 	lds	r25, 0x383D	; 0x80383d <whoami>
     1bc:	91 30       	cpi	r25, 0x01	; 1
     1be:	29 f4       	brne	.+10     	; 0x1ca <MakeFriends+0xd6>
     1c0:	83 50       	subi	r24, 0x03	; 3
     1c2:	83 30       	cpi	r24, 0x03	; 3
     1c4:	b8 f4       	brcc	.+46     	; 0x1f4 <MakeFriends+0x100>
                        progress = SECOND_LOVE; 
     1c6:	82 e0       	ldi	r24, 0x02	; 2
     1c8:	69 c0       	rjmp	.+210    	; 0x29c <MakeFriends+0x1a8>
                    } else if ((whoami == 2)&&((jackIn == 3)||(jackIn == 5)||(jackIn == 6))) {
     1ca:	92 30       	cpi	r25, 0x02	; 2
     1cc:	31 f4       	brne	.+12     	; 0x1da <MakeFriends+0xe6>
     1ce:	83 30       	cpi	r24, 0x03	; 3
     1d0:	d1 f3       	breq	.-12     	; 0x1c6 <MakeFriends+0xd2>
     1d2:	85 50       	subi	r24, 0x05	; 5
     1d4:	82 30       	cpi	r24, 0x02	; 2
     1d6:	70 f4       	brcc	.+28     	; 0x1f4 <MakeFriends+0x100>
     1d8:	f6 cf       	rjmp	.-20     	; 0x1c6 <MakeFriends+0xd2>
                        progress = SECOND_LOVE;
                    } else  if ((whoami == 3)&&((jackIn == 4)||(jackIn == 5)||(jackIn == 7))) {
     1da:	93 30       	cpi	r25, 0x03	; 3
     1dc:	39 f4       	brne	.+14     	; 0x1ec <MakeFriends+0xf8>
     1de:	9c ef       	ldi	r25, 0xFC	; 252
     1e0:	98 0f       	add	r25, r24
     1e2:	92 30       	cpi	r25, 0x02	; 2
     1e4:	80 f3       	brcs	.-32     	; 0x1c6 <MakeFriends+0xd2>
     1e6:	87 30       	cpi	r24, 0x07	; 7
     1e8:	29 f4       	brne	.+10     	; 0x1f4 <MakeFriends+0x100>
     1ea:	ed cf       	rjmp	.-38     	; 0x1c6 <MakeFriends+0xd2>
                        progress = SECOND_LOVE;
                    } else if ((whoami == 4)&&((jackIn == 5)||(jackIn == 6)||(jackIn == 7))) {
     1ec:	94 30       	cpi	r25, 0x04	; 4
     1ee:	11 f4       	brne	.+4      	; 0x1f4 <MakeFriends+0x100>
     1f0:	85 50       	subi	r24, 0x05	; 5
     1f2:	e7 cf       	rjmp	.-50     	; 0x1c2 <MakeFriends+0xce>
                        progress = SECOND_LOVE;
                    } else progress = NO_OTHER;
     1f4:	10 92 31 38 	sts	0x3831, r1	; 0x803831 <progress.3782>
     1f8:	53 c0       	rjmp	.+166    	; 0x2a0 <MakeFriends+0x1ac>
                    chkTmr = 0;
                }
            } else {
                chkTmr = 0;
     1fa:	10 92 30 38 	sts	0x3830, r1	; 0x803830 <chkTmr.3784>
     1fe:	b0 c0       	rjmp	.+352    	; 0x360 <MakeFriends+0x26c>
                progress = NO_OTHER;
            }
        }

        //Wait for the other badge (and a bit longer)
        else if (progress == SECOND_LOVE){
     200:	82 30       	cpi	r24, 0x02	; 2
     202:	09 f0       	breq	.+2      	; 0x206 <MakeFriends+0x112>
     204:	50 c0       	rjmp	.+160    	; 0x2a6 <MakeFriends+0x1b2>
            ++chkTmr;
     206:	80 91 30 38 	lds	r24, 0x3830	; 0x803830 <chkTmr.3784>
     20a:	8f 5f       	subi	r24, 0xFF	; 255
     20c:	80 93 30 38 	sts	0x3830, r24	; 0x803830 <chkTmr.3784>
     210:	ca eb       	ldi	r28, 0xBA	; 186
     212:	de eb       	ldi	r29, 0xBE	; 190
     214:	7e 01       	movw	r14, r28
            for (uint8_t x=0; x<5; ++x){
                iLED[WING[L][x]] = (lfsr() > 127)?dimValue:0;
     216:	0d 81       	ldd	r16, Y+5	; 0x05
     218:	10 e0       	ldi	r17, 0x00	; 0
     21a:	0e 94 76 09 	call	0x12ec	; 0x12ec <lfsr>
     21e:	87 ff       	sbrs	r24, 7
     220:	03 c0       	rjmp	.+6      	; 0x228 <MakeFriends+0x134>
     222:	80 91 0b 38 	lds	r24, 0x380B	; 0x80380b <dimValue>
     226:	01 c0       	rjmp	.+2      	; 0x22a <MakeFriends+0x136>
     228:	80 e0       	ldi	r24, 0x00	; 0
     22a:	f8 01       	movw	r30, r16
     22c:	e6 53       	subi	r30, 0x36	; 54
     22e:	f5 4c       	sbci	r31, 0xC5	; 197
     230:	80 83       	st	Z, r24
     232:	21 96       	adiw	r28, 0x01	; 1
                iLED[WING[R][x]] = (lfsr() > 127)?dimValue:0;
     234:	f7 01       	movw	r30, r14
     236:	00 81       	ld	r16, Z
     238:	10 e0       	ldi	r17, 0x00	; 0
     23a:	0e 94 76 09 	call	0x12ec	; 0x12ec <lfsr>
     23e:	87 ff       	sbrs	r24, 7
     240:	03 c0       	rjmp	.+6      	; 0x248 <MakeFriends+0x154>
     242:	80 91 0b 38 	lds	r24, 0x380B	; 0x80380b <dimValue>
     246:	01 c0       	rjmp	.+2      	; 0x24a <MakeFriends+0x156>
     248:	80 e0       	ldi	r24, 0x00	; 0
     24a:	f8 01       	movw	r30, r16
     24c:	e6 53       	subi	r30, 0x36	; 54
     24e:	f5 4c       	sbci	r31, 0xC5	; 197
     250:	80 83       	st	Z, r24
        }

        //Wait for the other badge (and a bit longer)
        else if (progress == SECOND_LOVE){
            ++chkTmr;
            for (uint8_t x=0; x<5; ++x){
     252:	fe eb       	ldi	r31, 0xBE	; 190
     254:	cf 3b       	cpi	r28, 0xBF	; 191
     256:	df 07       	cpc	r29, r31
     258:	e9 f6       	brne	.-70     	; 0x214 <MakeFriends+0x120>
                iLED[WING[L][x]] = (lfsr() > 127)?dimValue:0;
                iLED[WING[R][x]] = (lfsr() > 127)?dimValue:0;
            }
            if (chkTmr >= SHORT_WAIT) {
     25a:	80 91 30 38 	lds	r24, 0x3830	; 0x803830 <chkTmr.3784>
     25e:	88 30       	cpi	r24, 0x08	; 8
     260:	40 f0       	brcs	.+16     	; 0x272 <MakeFriends+0x17e>
                setDAC[0] = floatAround(0x80, 8, 100, 255); 
     262:	2f ef       	ldi	r18, 0xFF	; 255
     264:	44 e6       	ldi	r20, 0x64	; 100
     266:	68 e0       	ldi	r22, 0x08	; 8
     268:	80 e8       	ldi	r24, 0x80	; 128
     26a:	0e 94 c7 09 	call	0x138e	; 0x138e <floatAround>
     26e:	80 93 00 38 	sts	0x3800, r24	; 0x803800 <__data_start>
            }
            //The badge with the lowest voltage will now go to 2.5V (impedance check, for people tricking the things with a power supply)
            if (chkTmr >= LONG_WAIT){
     272:	80 91 30 38 	lds	r24, 0x3830	; 0x803830 <chkTmr.3784>
     276:	8a 3f       	cpi	r24, 0xFA	; 250
     278:	08 f4       	brcc	.+2      	; 0x27c <MakeFriends+0x188>
     27a:	74 c0       	rjmp	.+232    	; 0x364 <MakeFriends+0x270>
                candidate = jackIn-whoami;
     27c:	90 91 3d 38 	lds	r25, 0x383D	; 0x80383d <whoami>
     280:	80 91 2f 38 	lds	r24, 0x382F	; 0x80382f <jackIn.3785>
     284:	89 1b       	sub	r24, r25
     286:	80 93 2e 38 	sts	0x382E, r24	; 0x80382e <__data_end>
                if (candidate > whoami) setDAC[0] = 250; else setDAC[0] = 0;
     28a:	98 17       	cp	r25, r24
     28c:	20 f4       	brcc	.+8      	; 0x296 <MakeFriends+0x1a2>
     28e:	8a ef       	ldi	r24, 0xFA	; 250
     290:	80 93 00 38 	sts	0x3800, r24	; 0x803800 <__data_start>
     294:	02 c0       	rjmp	.+4      	; 0x29a <MakeFriends+0x1a6>
     296:	10 92 00 38 	sts	0x3800, r1	; 0x803800 <__data_start>
                progress = THIRD_KISS;
     29a:	83 e0       	ldi	r24, 0x03	; 3
     29c:	80 93 31 38 	sts	0x3831, r24	; 0x803831 <progress.3782>
                chkTmr = 0;
     2a0:	10 92 30 38 	sts	0x3830, r1	; 0x803830 <chkTmr.3784>
     2a4:	5f c0       	rjmp	.+190    	; 0x364 <MakeFriends+0x270>
            }
        } 
        
        //Wait a bit, check Voltage again, if ok show who you connected with and your own number, save, exit
        else if (progress == THIRD_KISS) {
     2a6:	83 30       	cpi	r24, 0x03	; 3
     2a8:	e1 f5       	brne	.+120    	; 0x322 <MakeFriends+0x22e>
            chkTmr++;
     2aa:	80 91 30 38 	lds	r24, 0x3830	; 0x803830 <chkTmr.3784>
     2ae:	8f 5f       	subi	r24, 0xFF	; 255
     2b0:	80 93 30 38 	sts	0x3830, r24	; 0x803830 <chkTmr.3784>
            if (chkTmr >= SHORT_WAIT) {
     2b4:	88 30       	cpi	r24, 0x08	; 8
     2b6:	08 f4       	brcc	.+2      	; 0x2ba <MakeFriends+0x1c6>
                if (chkVolt250() == 5) {
     2b8:	55 c0       	rjmp	.+170    	; 0x364 <MakeFriends+0x270>
     2ba:	fe de       	rcall	.-516    	; 0xb8 <chkVolt250>
     2bc:	85 30       	cpi	r24, 0x05	; 5
     2be:	09 f0       	breq	.+2      	; 0x2c2 <MakeFriends+0x1ce>
     2c0:	99 cf       	rjmp	.-206    	; 0x1f4 <MakeFriends+0x100>
                    UpdateState(99+candidate);
     2c2:	80 91 2e 38 	lds	r24, 0x382E	; 0x80382e <__data_end>
     2c6:	8d 59       	subi	r24, 0x9D	; 157
     2c8:	0e 94 9a 0a 	call	0x1534	; 0x1534 <UpdateState>
                    UpdateState(99+whoami);
     2cc:	80 91 3d 38 	lds	r24, 0x383D	; 0x80383d <whoami>
     2d0:	8d 59       	subi	r24, 0x9D	; 157
     2d2:	0e 94 9a 0a 	call	0x1534	; 0x1534 <UpdateState>
                    for (uint8_t x=0; x<5; ++x){
                        iLED[WING[L][x]] = (x<candidate)?dimValue:0;
     2d6:	20 91 2e 38 	lds	r18, 0x382E	; 0x80382e <__data_end>
                        iLED[WING[R][x]] = (x<whoami)?dimValue:00;
     2da:	30 91 3d 38 	lds	r19, 0x383D	; 0x80383d <whoami>
     2de:	aa eb       	ldi	r26, 0xBA	; 186
     2e0:	be eb       	ldi	r27, 0xBE	; 190
            chkTmr++;
            if (chkTmr >= SHORT_WAIT) {
                if (chkVolt250() == 5) {
                    UpdateState(99+candidate);
                    UpdateState(99+whoami);
                    for (uint8_t x=0; x<5; ++x){
     2e2:	80 e0       	ldi	r24, 0x00	; 0
     2e4:	ed 01       	movw	r28, r26
                        iLED[WING[L][x]] = (x<candidate)?dimValue:0;
     2e6:	15 96       	adiw	r26, 0x05	; 5
     2e8:	ec 91       	ld	r30, X
     2ea:	15 97       	sbiw	r26, 0x05	; 5
     2ec:	f0 e0       	ldi	r31, 0x00	; 0
     2ee:	82 17       	cp	r24, r18
     2f0:	18 f4       	brcc	.+6      	; 0x2f8 <MakeFriends+0x204>
     2f2:	90 91 0b 38 	lds	r25, 0x380B	; 0x80380b <dimValue>
     2f6:	01 c0       	rjmp	.+2      	; 0x2fa <MakeFriends+0x206>
     2f8:	90 e0       	ldi	r25, 0x00	; 0
     2fa:	e6 53       	subi	r30, 0x36	; 54
     2fc:	f5 4c       	sbci	r31, 0xC5	; 197
     2fe:	90 83       	st	Z, r25
     300:	11 96       	adiw	r26, 0x01	; 1
                        iLED[WING[R][x]] = (x<whoami)?dimValue:00;
     302:	e8 81       	ld	r30, Y
     304:	f0 e0       	ldi	r31, 0x00	; 0
     306:	83 17       	cp	r24, r19
     308:	18 f4       	brcc	.+6      	; 0x310 <MakeFriends+0x21c>
     30a:	90 91 0b 38 	lds	r25, 0x380B	; 0x80380b <dimValue>
     30e:	01 c0       	rjmp	.+2      	; 0x312 <MakeFriends+0x21e>
     310:	90 e0       	ldi	r25, 0x00	; 0
     312:	e6 53       	subi	r30, 0x36	; 54
     314:	f5 4c       	sbci	r31, 0xC5	; 197
     316:	90 83       	st	Z, r25
            chkTmr++;
            if (chkTmr >= SHORT_WAIT) {
                if (chkVolt250() == 5) {
                    UpdateState(99+candidate);
                    UpdateState(99+whoami);
                    for (uint8_t x=0; x<5; ++x){
     318:	8f 5f       	subi	r24, 0xFF	; 255
     31a:	85 30       	cpi	r24, 0x05	; 5
     31c:	19 f7       	brne	.-58     	; 0x2e4 <MakeFriends+0x1f0>
                        iLED[WING[L][x]] = (x<candidate)?dimValue:0;
                        iLED[WING[R][x]] = (x<whoami)?dimValue:00;
                    }   
                    progress = FOURTH_BASE;
     31e:	84 e0       	ldi	r24, 0x04	; 4
     320:	bd cf       	rjmp	.-134    	; 0x29c <MakeFriends+0x1a8>
                } else progress = NO_OTHER;                
                chkTmr = 0;
            }

        //Wait for divorce of force quit
        } else if (progress == FOURTH_BASE) {
     322:	84 30       	cpi	r24, 0x04	; 4
            if (chkVolt250() == 5) {
     324:	f9 f4       	brne	.+62     	; 0x364 <MakeFriends+0x270>
     326:	c8 de       	rcall	.-624    	; 0xb8 <chkVolt250>
     328:	85 30       	cpi	r24, 0x05	; 5
     32a:	e1 f4       	brne	.+56     	; 0x364 <MakeFriends+0x270>
                chkTmr++;
     32c:	80 91 30 38 	lds	r24, 0x3830	; 0x803830 <chkTmr.3784>
     330:	8f 5f       	subi	r24, 0xFF	; 255
     332:	80 93 30 38 	sts	0x3830, r24	; 0x803830 <chkTmr.3784>
                if (chkTmr >= LONG_WAIT) {
     336:	8a 3f       	cpi	r24, 0xFA	; 250
     338:	a8 f0       	brcs	.+42     	; 0x364 <MakeFriends+0x270>
     33a:	ea eb       	ldi	r30, 0xBA	; 186
     33c:	fe eb       	ldi	r31, 0xBE	; 190
     33e:	8f eb       	ldi	r24, 0xBF	; 191
     340:	9e eb       	ldi	r25, 0xBE	; 190
     342:	ef 01       	movw	r28, r30
                    for (uint8_t x=0; x<5; ++x){
                        iLED[WING[L][x]] = 0;
     344:	a5 81       	ldd	r26, Z+5	; 0x05
     346:	b0 e0       	ldi	r27, 0x00	; 0
     348:	a6 53       	subi	r26, 0x36	; 54
     34a:	b5 4c       	sbci	r27, 0xC5	; 197
     34c:	1c 92       	st	X, r1
     34e:	31 96       	adiw	r30, 0x01	; 1
                        iLED[WING[R][x]] = 0;
     350:	a8 81       	ld	r26, Y
     352:	b0 e0       	ldi	r27, 0x00	; 0
     354:	a6 53       	subi	r26, 0x36	; 54
     356:	b5 4c       	sbci	r27, 0xC5	; 197
     358:	1c 92       	st	X, r1
        //Wait for divorce of force quit
        } else if (progress == FOURTH_BASE) {
            if (chkVolt250() == 5) {
                chkTmr++;
                if (chkTmr >= LONG_WAIT) {
                    for (uint8_t x=0; x<5; ++x){
     35a:	8e 17       	cp	r24, r30
     35c:	9f 07       	cpc	r25, r31
     35e:	89 f7       	brne	.-30     	; 0x342 <MakeFriends+0x24e>
                    }                    
                }
            }
        }

    } else progress = NO_OTHER;
     360:	10 92 31 38 	sts	0x3831, r1	; 0x803831 <progress.3782>
      
    return 0;
}
     364:	80 e0       	ldi	r24, 0x00	; 0
     366:	df 91       	pop	r29
     368:	cf 91       	pop	r28
     36a:	1f 91       	pop	r17
     36c:	0f 91       	pop	r16
     36e:	ff 90       	pop	r15
     370:	ef 90       	pop	r14
     372:	08 95       	ret

00000374 <I2C_init>:
// the Atmel device documentation mentions a special command for repeated start TWI_MCMD_REPSTART_gc,
// but this is not used in Atmel's demo code, so we don't use it either

void I2C_rep_start(uint8_t shifted_addr)						    // send repeated start, device_addr + LSB set if READ
{
	TWI0.MADDR = shifted_addr;	
     374:	81 e0       	ldi	r24, 0x01	; 1
     376:	80 93 22 04 	sts	0x0422, r24	; 0x800422 <__TEXT_REGION_LENGTH__+0x700422>
     37a:	e6 e2       	ldi	r30, 0x26	; 38
     37c:	f4 e0       	ldi	r31, 0x04	; 4
     37e:	80 83       	st	Z, r24
     380:	10 92 30 04 	sts	0x0430, r1	; 0x800430 <__TEXT_REGION_LENGTH__+0x700430>
     384:	a1 e2       	ldi	r26, 0x21	; 33
     386:	b4 e0       	ldi	r27, 0x04	; 4
     388:	92 e0       	ldi	r25, 0x02	; 2
     38a:	9c 93       	st	X, r25
     38c:	90 83       	st	Z, r25
     38e:	10 92 31 04 	sts	0x0431, r1	; 0x800431 <__TEXT_REGION_LENGTH__+0x700431>
     392:	e0 e1       	ldi	r30, 0x10	; 16
     394:	f8 e0       	ldi	r31, 0x08	; 8
     396:	97 e0       	ldi	r25, 0x07	; 7
     398:	96 83       	std	Z+6, r25	; 0x06
     39a:	98 e0       	ldi	r25, 0x08	; 8
     39c:	94 83       	std	Z+4, r25	; 0x04
     39e:	83 83       	std	Z+3, r24	; 0x03
     3a0:	8c 93       	st	X, r24
     3a2:	85 81       	ldd	r24, Z+5	; 0x05
     3a4:	81 60       	ori	r24, 0x01	; 1
     3a6:	85 83       	std	Z+5, r24	; 0x05
     3a8:	85 81       	ldd	r24, Z+5	; 0x05
     3aa:	84 6c       	ori	r24, 0xC4	; 196
     3ac:	85 83       	std	Z+5, r24	; 0x05
     3ae:	08 95       	ret

000003b0 <I2C_recover>:
     3b0:	80 91 14 08 	lds	r24, 0x0814	; 0x800814 <__TEXT_REGION_LENGTH__+0x700814>
     3b4:	88 60       	ori	r24, 0x08	; 8
     3b6:	80 93 14 08 	sts	0x0814, r24	; 0x800814 <__TEXT_REGION_LENGTH__+0x700814>
     3ba:	10 92 13 08 	sts	0x0813, r1	; 0x800813 <__TEXT_REGION_LENGTH__+0x700813>
     3be:	82 e0       	ldi	r24, 0x02	; 2
     3c0:	80 93 22 04 	sts	0x0422, r24	; 0x800422 <__TEXT_REGION_LENGTH__+0x700422>
     3c4:	99 e0       	ldi	r25, 0x09	; 9
     3c6:	21 e0       	ldi	r18, 0x01	; 1
     3c8:	81 e0       	ldi	r24, 0x01	; 1
     3ca:	20 93 21 04 	sts	0x0421, r18	; 0x800421 <__TEXT_REGION_LENGTH__+0x700421>
     3ce:	30 e1       	ldi	r19, 0x10	; 16
     3d0:	3a 95       	dec	r19
     3d2:	f1 f7       	brne	.-4      	; 0x3d0 <I2C_recover+0x20>
     3d4:	00 c0       	rjmp	.+0      	; 0x3d6 <I2C_recover+0x26>
     3d6:	20 93 22 04 	sts	0x0422, r18	; 0x800422 <__TEXT_REGION_LENGTH__+0x700422>
     3da:	30 e1       	ldi	r19, 0x10	; 16
     3dc:	3a 95       	dec	r19
     3de:	f1 f7       	brne	.-4      	; 0x3dc <I2C_recover+0x2c>
     3e0:	00 c0       	rjmp	.+0      	; 0x3e2 <I2C_recover+0x32>
     3e2:	91 50       	subi	r25, 0x01	; 1
     3e4:	89 f7       	brne	.-30     	; 0x3c8 <I2C_recover+0x18>
     3e6:	28 e0       	ldi	r18, 0x08	; 8
     3e8:	20 93 14 08 	sts	0x0814, r18	; 0x800814 <__TEXT_REGION_LENGTH__+0x700814>
     3ec:	80 93 13 08 	sts	0x0813, r24	; 0x800813 <__TEXT_REGION_LENGTH__+0x700813>
     3f0:	92 e0       	ldi	r25, 0x02	; 2
     3f2:	90 93 21 04 	sts	0x0421, r25	; 0x800421 <__TEXT_REGION_LENGTH__+0x700421>
     3f6:	90 91 15 08 	lds	r25, 0x0815	; 0x800815 <__TEXT_REGION_LENGTH__+0x700815>
     3fa:	91 60       	ori	r25, 0x01	; 1
     3fc:	90 93 15 08 	sts	0x0815, r25	; 0x800815 <__TEXT_REGION_LENGTH__+0x700815>
     400:	90 91 15 08 	lds	r25, 0x0815	; 0x800815 <__TEXT_REGION_LENGTH__+0x700815>
     404:	94 6c       	ori	r25, 0xC4	; 196
     406:	90 93 15 08 	sts	0x0815, r25	; 0x800815 <__TEXT_REGION_LENGTH__+0x700815>
     40a:	20 93 14 08 	sts	0x0814, r18	; 0x800814 <__TEXT_REGION_LENGTH__+0x700814>
     40e:	80 93 13 08 	sts	0x0813, r24	; 0x800813 <__TEXT_REGION_LENGTH__+0x700813>
     412:	80 93 21 04 	sts	0x0421, r24	; 0x800421 <__TEXT_REGION_LENGTH__+0x700421>
     416:	80 91 15 08 	lds	r24, 0x0815	; 0x800815 <__TEXT_REGION_LENGTH__+0x700815>
     41a:	81 60       	ori	r24, 0x01	; 1
     41c:	80 93 15 08 	sts	0x0815, r24	; 0x800815 <__TEXT_REGION_LENGTH__+0x700815>
     420:	80 91 15 08 	lds	r24, 0x0815	; 0x800815 <__TEXT_REGION_LENGTH__+0x700815>
     424:	84 6c       	ori	r24, 0xC4	; 196
     426:	80 93 15 08 	sts	0x0815, r24	; 0x800815 <__TEXT_REGION_LENGTH__+0x700815>
     42a:	08 95       	ret

0000042c <I2C_start>:
     42c:	28 2f       	mov	r18, r24
     42e:	90 91 15 08 	lds	r25, 0x0815	; 0x800815 <__TEXT_REGION_LENGTH__+0x700815>
     432:	90 6c       	ori	r25, 0xC0	; 192
     434:	90 93 15 08 	sts	0x0815, r25	; 0x800815 <__TEXT_REGION_LENGTH__+0x700815>
     438:	90 91 15 08 	lds	r25, 0x0815	; 0x800815 <__TEXT_REGION_LENGTH__+0x700815>
     43c:	89 2f       	mov	r24, r25
     43e:	84 70       	andi	r24, 0x04	; 4
     440:	92 fd       	sbrc	r25, 2
     442:	03 c0       	rjmp	.+6      	; 0x44a <I2C_start+0x1e>
     444:	20 93 17 08 	sts	0x0817, r18	; 0x800817 <__TEXT_REGION_LENGTH__+0x700817>
     448:	08 95       	ret
     44a:	84 e0       	ldi	r24, 0x04	; 4
     44c:	08 95       	ret

0000044e <I2C_wait_ACK>:
     44e:	8c e0       	ldi	r24, 0x0C	; 12
     450:	80 93 60 3a 	sts	0x3A60, r24	; 0x803a60 <timeout_I2C>
     454:	80 91 15 08 	lds	r24, 0x0815	; 0x800815 <__TEXT_REGION_LENGTH__+0x700815>
     458:	87 fd       	sbrc	r24, 7
     45a:	0a c0       	rjmp	.+20     	; 0x470 <I2C_wait_ACK+0x22>
     45c:	80 91 15 08 	lds	r24, 0x0815	; 0x800815 <__TEXT_REGION_LENGTH__+0x700815>
     460:	86 fd       	sbrc	r24, 6
     462:	06 c0       	rjmp	.+12     	; 0x470 <I2C_wait_ACK+0x22>
     464:	80 91 60 3a 	lds	r24, 0x3A60	; 0x803a60 <timeout_I2C>
     468:	81 11       	cpse	r24, r1
     46a:	f4 cf       	rjmp	.-24     	; 0x454 <I2C_wait_ACK+0x6>
     46c:	8f ef       	ldi	r24, 0xFF	; 255
     46e:	08 95       	ret
     470:	80 91 15 08 	lds	r24, 0x0815	; 0x800815 <__TEXT_REGION_LENGTH__+0x700815>
     474:	80 6c       	ori	r24, 0xC0	; 192
     476:	80 93 15 08 	sts	0x0815, r24	; 0x800815 <__TEXT_REGION_LENGTH__+0x700815>
     47a:	80 91 15 08 	lds	r24, 0x0815	; 0x800815 <__TEXT_REGION_LENGTH__+0x700815>
     47e:	82 fd       	sbrc	r24, 2
     480:	09 c0       	rjmp	.+18     	; 0x494 <I2C_wait_ACK+0x46>
     482:	80 91 15 08 	lds	r24, 0x0815	; 0x800815 <__TEXT_REGION_LENGTH__+0x700815>
     486:	83 fd       	sbrc	r24, 3
     488:	07 c0       	rjmp	.+14     	; 0x498 <I2C_wait_ACK+0x4a>
     48a:	80 91 15 08 	lds	r24, 0x0815	; 0x800815 <__TEXT_REGION_LENGTH__+0x700815>
     48e:	82 95       	swap	r24
     490:	81 70       	andi	r24, 0x01	; 1
     492:	08 95       	ret
     494:	84 e0       	ldi	r24, 0x04	; 4
     496:	08 95       	ret
     498:	82 e0       	ldi	r24, 0x02	; 2
     49a:	08 95       	ret

0000049c <I2C_read>:
}

uint8_t	I2C_read(uint8_t *data, uint8_t ack_flag)					// read data, ack_flag 0: send ACK, 1: send NACK, returns status
{
     49c:	fc 01       	movw	r30, r24
	timeout_I2C = READ_TIMEOUT;										// reset timeout counter, will be decremented by LED matrix interrupt
     49e:	8c e0       	ldi	r24, 0x0C	; 12
     4a0:	80 93 60 3a 	sts	0x3A60, r24	; 0x803a60 <timeout_I2C>
	if ((TWI0.MSTATUS & TWI_BUSSTATE_gm) == TWI_BUSSTATE_OWNER_gc)	// if master controls bus
     4a4:	90 91 15 08 	lds	r25, 0x0815	; 0x800815 <__TEXT_REGION_LENGTH__+0x700815>
     4a8:	89 2f       	mov	r24, r25
     4aa:	83 70       	andi	r24, 0x03	; 3
     4ac:	82 30       	cpi	r24, 0x02	; 2
     4ae:	11 f0       	breq	.+4      	; 0x4b4 <I2C_read+0x18>
		else		TWI0.MCTRLB |= TWI_ACKACT_NACK_gc;				// setup NACK (last byte read)
		*data = TWI0.MDATA;
		if (ack_flag == 0) TWI0.MCTRLB |= TWI_MCMD_RECVTRANS_gc;	// send ACK, more bytes to follow					
		return 0;
	}
	else return 8;													// master does not control bus
     4b0:	88 e0       	ldi	r24, 0x08	; 8
     4b2:	08 95       	ret
uint8_t	I2C_read(uint8_t *data, uint8_t ack_flag)					// read data, ack_flag 0: send ACK, 1: send NACK, returns status
{
	timeout_I2C = READ_TIMEOUT;										// reset timeout counter, will be decremented by LED matrix interrupt
	if ((TWI0.MSTATUS & TWI_BUSSTATE_gm) == TWI_BUSSTATE_OWNER_gc)	// if master controls bus
	{		
		while (!(TWI0.MSTATUS & TWI_RIF_bm))						// wait for RIF set (data byte received)
     4b4:	90 91 15 08 	lds	r25, 0x0815	; 0x800815 <__TEXT_REGION_LENGTH__+0x700815>
     4b8:	97 fd       	sbrc	r25, 7
     4ba:	06 c0       	rjmp	.+12     	; 0x4c8 <I2C_read+0x2c>
		{
			if (!(timeout_I2C)) return 0xff;			            // return timeout error
     4bc:	90 91 60 3a 	lds	r25, 0x3A60	; 0x803a60 <timeout_I2C>
     4c0:	91 11       	cpse	r25, r1
     4c2:	f8 cf       	rjmp	.-16     	; 0x4b4 <I2C_read+0x18>
     4c4:	8f ef       	ldi	r24, 0xFF	; 255
     4c6:	08 95       	ret
		}
		TWI0.MSTATUS |= (TWI_RIF_bm | TWI_WIF_bm);					// clear Read and Write interrupt flags	
     4c8:	90 91 15 08 	lds	r25, 0x0815	; 0x800815 <__TEXT_REGION_LENGTH__+0x700815>
     4cc:	90 6c       	ori	r25, 0xC0	; 192
     4ce:	90 93 15 08 	sts	0x0815, r25	; 0x800815 <__TEXT_REGION_LENGTH__+0x700815>
		if (TWI0.MSTATUS & TWI_BUSERR_bm) return 4;					// Bus Error, abort
     4d2:	90 91 15 08 	lds	r25, 0x0815	; 0x800815 <__TEXT_REGION_LENGTH__+0x700815>
     4d6:	92 fd       	sbrc	r25, 2
     4d8:	1e c0       	rjmp	.+60     	; 0x516 <I2C_read+0x7a>
		if (TWI0.MSTATUS & TWI_ARBLOST_bm) return 2;				// Arbitration Lost, abort
     4da:	90 91 15 08 	lds	r25, 0x0815	; 0x800815 <__TEXT_REGION_LENGTH__+0x700815>
     4de:	93 fd       	sbrc	r25, 3
     4e0:	1d c0       	rjmp	.+58     	; 0x51c <I2C_read+0x80>
		if (TWI0.MSTATUS & TWI_RXACK_bm) return 1;					// Slave replied with NACK, abort				
     4e2:	90 91 15 08 	lds	r25, 0x0815	; 0x800815 <__TEXT_REGION_LENGTH__+0x700815>
     4e6:	89 2f       	mov	r24, r25
     4e8:	80 71       	andi	r24, 0x10	; 16
     4ea:	94 fd       	sbrc	r25, 4
     4ec:	16 c0       	rjmp	.+44     	; 0x51a <I2C_read+0x7e>
		if (ack_flag == 0) TWI0.MCTRLB &= ~(1 << TWI_ACKACT_bp);	// setup ACK
     4ee:	90 91 14 08 	lds	r25, 0x0814	; 0x800814 <__TEXT_REGION_LENGTH__+0x700814>
     4f2:	61 11       	cpse	r22, r1
     4f4:	02 c0       	rjmp	.+4      	; 0x4fa <I2C_read+0x5e>
     4f6:	9b 7f       	andi	r25, 0xFB	; 251
     4f8:	01 c0       	rjmp	.+2      	; 0x4fc <I2C_read+0x60>
		else		TWI0.MCTRLB |= TWI_ACKACT_NACK_gc;				// setup NACK (last byte read)
     4fa:	94 60       	ori	r25, 0x04	; 4
     4fc:	90 93 14 08 	sts	0x0814, r25	; 0x800814 <__TEXT_REGION_LENGTH__+0x700814>
		*data = TWI0.MDATA;
     500:	90 91 18 08 	lds	r25, 0x0818	; 0x800818 <__TEXT_REGION_LENGTH__+0x700818>
     504:	90 83       	st	Z, r25
		if (ack_flag == 0) TWI0.MCTRLB |= TWI_MCMD_RECVTRANS_gc;	// send ACK, more bytes to follow					
     506:	61 11       	cpse	r22, r1
     508:	09 c0       	rjmp	.+18     	; 0x51c <I2C_read+0x80>
     50a:	90 91 14 08 	lds	r25, 0x0814	; 0x800814 <__TEXT_REGION_LENGTH__+0x700814>
     50e:	92 60       	ori	r25, 0x02	; 2
     510:	90 93 14 08 	sts	0x0814, r25	; 0x800814 <__TEXT_REGION_LENGTH__+0x700814>
     514:	08 95       	ret
		while (!(TWI0.MSTATUS & TWI_RIF_bm))						// wait for RIF set (data byte received)
		{
			if (!(timeout_I2C)) return 0xff;			            // return timeout error
		}
		TWI0.MSTATUS |= (TWI_RIF_bm | TWI_WIF_bm);					// clear Read and Write interrupt flags	
		if (TWI0.MSTATUS & TWI_BUSERR_bm) return 4;					// Bus Error, abort
     516:	84 e0       	ldi	r24, 0x04	; 4
     518:	08 95       	ret
		if (TWI0.MSTATUS & TWI_ARBLOST_bm) return 2;				// Arbitration Lost, abort
		if (TWI0.MSTATUS & TWI_RXACK_bm) return 1;					// Slave replied with NACK, abort				
     51a:	81 e0       	ldi	r24, 0x01	; 1
		*data = TWI0.MDATA;
		if (ack_flag == 0) TWI0.MCTRLB |= TWI_MCMD_RECVTRANS_gc;	// send ACK, more bytes to follow					
		return 0;
	}
	else return 8;													// master does not control bus
}
     51c:	08 95       	ret

0000051e <I2C_write>:

uint8_t I2C_write(uint8_t *data)									// write data, return status
{
     51e:	fc 01       	movw	r30, r24
	timeout_I2C = WRITE_TIMEOUT;									// reset timeout counter, will be decremented by LED matrix interrupt
     520:	8c e0       	ldi	r24, 0x0C	; 12
     522:	80 93 60 3a 	sts	0x3A60, r24	; 0x803a60 <timeout_I2C>
	if ((TWI0.MSTATUS & TWI_BUSSTATE_gm) == TWI_BUSSTATE_OWNER_gc)	// if master controls bus
     526:	90 91 15 08 	lds	r25, 0x0815	; 0x800815 <__TEXT_REGION_LENGTH__+0x700815>
     52a:	93 70       	andi	r25, 0x03	; 3
     52c:	92 30       	cpi	r25, 0x02	; 2
     52e:	b1 f4       	brne	.+44     	; 0x55c <I2C_write+0x3e>
	{
		TWI0.MDATA = *data;		
     530:	80 81       	ld	r24, Z
     532:	80 93 18 08 	sts	0x0818, r24	; 0x800818 <__TEXT_REGION_LENGTH__+0x700818>
		while (!(TWI0.MSTATUS & TWI_WIF_bm))						// wait until WIF set, status register contains ACK/NACK bit
     536:	80 91 15 08 	lds	r24, 0x0815	; 0x800815 <__TEXT_REGION_LENGTH__+0x700815>
     53a:	86 fd       	sbrc	r24, 6
     53c:	06 c0       	rjmp	.+12     	; 0x54a <I2C_write+0x2c>
		{
			if (!(timeout_I2C)) return 0xff;			            // return timeout error
     53e:	80 91 60 3a 	lds	r24, 0x3A60	; 0x803a60 <timeout_I2C>
     542:	81 11       	cpse	r24, r1
     544:	f8 cf       	rjmp	.-16     	; 0x536 <I2C_write+0x18>
     546:	8f ef       	ldi	r24, 0xFF	; 255
     548:	08 95       	ret
		}
		if (TWI0.MSTATUS & TWI_BUSERR_bm) return 4;					// Bus Error, abort
     54a:	80 91 15 08 	lds	r24, 0x0815	; 0x800815 <__TEXT_REGION_LENGTH__+0x700815>
     54e:	82 fd       	sbrc	r24, 2
     550:	07 c0       	rjmp	.+14     	; 0x560 <I2C_write+0x42>
		if (TWI0.MSTATUS & TWI_RXACK_bm) return 1;					// Slave replied with NACK, abort
     552:	80 91 15 08 	lds	r24, 0x0815	; 0x800815 <__TEXT_REGION_LENGTH__+0x700815>
	if ((TWI0.MSTATUS & TWI_BUSSTATE_gm) == TWI_BUSSTATE_OWNER_gc)	// if master controls bus
	{
		TWI0.MDATA = *data;		
		while (!(TWI0.MSTATUS & TWI_WIF_bm))						// wait until WIF set, status register contains ACK/NACK bit
		{
			if (!(timeout_I2C)) return 0xff;			            // return timeout error
     556:	82 95       	swap	r24
     558:	81 70       	andi	r24, 0x01	; 1
     55a:	08 95       	ret
		}
		if (TWI0.MSTATUS & TWI_BUSERR_bm) return 4;					// Bus Error, abort
		if (TWI0.MSTATUS & TWI_RXACK_bm) return 1;					// Slave replied with NACK, abort
		return 0;													// no error	
	}
	else return 8;													// master does not control bus
     55c:	88 e0       	ldi	r24, 0x08	; 8
     55e:	08 95       	ret
		TWI0.MDATA = *data;		
		while (!(TWI0.MSTATUS & TWI_WIF_bm))						// wait until WIF set, status register contains ACK/NACK bit
		{
			if (!(timeout_I2C)) return 0xff;			            // return timeout error
		}
		if (TWI0.MSTATUS & TWI_BUSERR_bm) return 4;					// Bus Error, abort
     560:	84 e0       	ldi	r24, 0x04	; 4
		if (TWI0.MSTATUS & TWI_RXACK_bm) return 1;					// Slave replied with NACK, abort
		return 0;													// no error	
	}
	else return 8;													// master does not control bus
}
     562:	08 95       	ret

00000564 <I2C_stop>:

void I2C_stop()
{
	TWI0.MCTRLB |= TWI_MCMD_STOP_gc;
     564:	e0 e1       	ldi	r30, 0x10	; 16
     566:	f8 e0       	ldi	r31, 0x08	; 8
     568:	84 81       	ldd	r24, Z+4	; 0x04
     56a:	83 60       	ori	r24, 0x03	; 3
     56c:	84 83       	std	Z+4, r24	; 0x04
     56e:	08 95       	ret

00000570 <I2C_read_bytes>:
// addr_ptr		address of first array element to transfer
// slave reg	starting slave register
// num_bytes	number of bytes to transfer

uint8_t	I2C_read_bytes(uint8_t slave_addr, uint8_t *reg_ptr, uint8_t reg_len, uint8_t *dat_ptr, uint8_t dat_len)
{
     570:	cf 92       	push	r12
     572:	df 92       	push	r13
     574:	ff 92       	push	r15
     576:	0f 93       	push	r16
     578:	1f 93       	push	r17
     57a:	cf 93       	push	r28
     57c:	df 93       	push	r29
     57e:	6b 01       	movw	r12, r22
     580:	f4 2e       	mov	r15, r20
     582:	e9 01       	movw	r28, r18
	uint8_t status;
	if (dat_len > MAX_LEN) dat_len = MAX_LEN;
	status = I2C_start(slave_addr << 1);							// slave write address, LSB 0
     584:	18 2f       	mov	r17, r24
     586:	11 0f       	add	r17, r17
     588:	81 2f       	mov	r24, r17
     58a:	50 df       	rcall	.-352    	; 0x42c <I2C_start>
	if (status != 0) goto error;
     58c:	81 11       	cpse	r24, r1
	status = I2C_wait_ACK();										// wait for slave ACK
     58e:	2b c0       	rjmp	.+86     	; 0x5e6 <I2C_read_bytes+0x76>
     590:	5e df       	rcall	.-324    	; 0x44e <I2C_wait_ACK>
	if (status == 1) {
     592:	81 30       	cpi	r24, 0x01	; 1
		I2C_stop();													// NACK, abort
     594:	19 f4       	brne	.+6      	; 0x59c <I2C_read_bytes+0x2c>
     596:	e6 df       	rcall	.-52     	; 0x564 <I2C_stop>
		return 1;
     598:	81 e0       	ldi	r24, 0x01	; 1
     59a:	27 c0       	rjmp	.+78     	; 0x5ea <I2C_read_bytes+0x7a>
	}
	if (status != 0) goto error;
     59c:	81 11       	cpse	r24, r1
     59e:	23 c0       	rjmp	.+70     	; 0x5e6 <I2C_read_bytes+0x76>
    while(reg_len > 0){
     5a0:	ff 20       	and	r15, r15
	    status = I2C_write(reg_ptr);    							// send slave start register
     5a2:	49 f0       	breq	.+18     	; 0x5b6 <I2C_read_bytes+0x46>
     5a4:	c6 01       	movw	r24, r12
     5a6:	bb df       	rcall	.-138    	; 0x51e <I2C_write>
	    if (status != 0) goto error;
     5a8:	81 11       	cpse	r24, r1
     5aa:	1d c0       	rjmp	.+58     	; 0x5e6 <I2C_read_bytes+0x76>
        ++reg_ptr;
     5ac:	8f ef       	ldi	r24, 0xFF	; 255
     5ae:	c8 1a       	sub	r12, r24
     5b0:	d8 0a       	sbc	r13, r24
        --reg_len;
     5b2:	fa 94       	dec	r15
     5b4:	f5 cf       	rjmp	.-22     	; 0x5a0 <I2C_read_bytes+0x30>
     5b6:	01 34       	cpi	r16, 0x41	; 65
     5b8:	08 f0       	brcs	.+2      	; 0x5bc <I2C_read_bytes+0x4c>
     5ba:	00 e4       	ldi	r16, 0x40	; 64
    }
	I2C_rep_start((slave_addr << 1) + 1);							// slave read address, LSB 1
     5bc:	1f 5f       	subi	r17, 0xFF	; 255
// the Atmel device documentation mentions a special command for repeated start TWI_MCMD_REPSTART_gc,
// but this is not used in Atmel's demo code, so we don't use it either

void I2C_rep_start(uint8_t shifted_addr)						    // send repeated start, device_addr + LSB set if READ
{
	TWI0.MADDR = shifted_addr;	
     5be:	10 93 17 08 	sts	0x0817, r17	; 0x800817 <__TEXT_REGION_LENGTH__+0x700817>
	    if (status != 0) goto error;
        ++reg_ptr;
        --reg_len;
    }
	I2C_rep_start((slave_addr << 1) + 1);							// slave read address, LSB 1
	while (dat_len > 1) {
     5c2:	02 30       	cpi	r16, 0x02	; 2
		status = I2C_read(dat_ptr, 0);								// first bytes, send ACK
     5c4:	40 f0       	brcs	.+16     	; 0x5d6 <I2C_read_bytes+0x66>
     5c6:	60 e0       	ldi	r22, 0x00	; 0
     5c8:	ce 01       	movw	r24, r28
     5ca:	68 df       	rcall	.-304    	; 0x49c <I2C_read>
		if (status != 0) goto error;
     5cc:	81 11       	cpse	r24, r1
     5ce:	0b c0       	rjmp	.+22     	; 0x5e6 <I2C_read_bytes+0x76>
		++dat_ptr;
		--dat_len;
     5d0:	21 96       	adiw	r28, 0x01	; 1
     5d2:	01 50       	subi	r16, 0x01	; 1
	}
	status = I2C_read(dat_ptr, 1);									// single or last byte, send NACK
     5d4:	f6 cf       	rjmp	.-20     	; 0x5c2 <I2C_read_bytes+0x52>
     5d6:	61 e0       	ldi	r22, 0x01	; 1
     5d8:	ce 01       	movw	r24, r28
	if (status != 0) goto error;
     5da:	60 df       	rcall	.-320    	; 0x49c <I2C_read>
     5dc:	81 11       	cpse	r24, r1
	I2C_stop();
     5de:	03 c0       	rjmp	.+6      	; 0x5e6 <I2C_read_bytes+0x76>
     5e0:	c1 df       	rcall	.-126    	; 0x564 <I2C_stop>
	return 0;
     5e2:	80 e0       	ldi	r24, 0x00	; 0
     5e4:	02 c0       	rjmp	.+4      	; 0x5ea <I2C_read_bytes+0x7a>
	
error:
	I2C_recover();													// clock out possibly stuck slave, reset master
     5e6:	e4 de       	rcall	.-568    	; 0x3b0 <I2C_recover>
     5e8:	8f ef       	ldi	r24, 0xFF	; 255
	return 0xff;													// flag error
     5ea:	df 91       	pop	r29
}
     5ec:	cf 91       	pop	r28
     5ee:	1f 91       	pop	r17
     5f0:	0f 91       	pop	r16
     5f2:	ff 90       	pop	r15
     5f4:	df 90       	pop	r13
     5f6:	cf 90       	pop	r12
     5f8:	08 95       	ret

000005fa <initLanyard>:
uint8_t         lastButtonState = 0xff;
uint8_t         digit = 0xff;
uint16_t        lanyardLastActive = 0;

void initLanyard() {
    lanyardPos      = 0;
     5fa:	10 92 36 38 	sts	0x3836, r1	; 0x803836 <lanyardPos>
    lanyardCnt      = 0;
     5fe:	10 92 35 38 	sts	0x3835, r1	; 0x803835 <lanyardCnt>
    lanyardState    = TRUE;
     602:	81 e0       	ldi	r24, 0x01	; 1
     604:	80 93 04 38 	sts	0x3804, r24	; 0x803804 <lanyardState>
    lastButtonState = 0xff;
     608:	8f ef       	ldi	r24, 0xFF	; 255
     60a:	80 93 03 38 	sts	0x3803, r24	; 0x803803 <lastButtonState>
    iLED[CAT]       = 0;
     60e:	e0 91 b6 be 	lds	r30, 0xBEB6	; 0x80beb6 <__bss_end+0x839c>
     612:	f0 e0       	ldi	r31, 0x00	; 0
     614:	e6 53       	subi	r30, 0x36	; 54
     616:	f5 4c       	sbci	r31, 0xC5	; 197
     618:	10 82       	st	Z, r1
    iLED[EYE[G][L]] = 0;
     61a:	e0 91 c7 be 	lds	r30, 0xBEC7	; 0x80bec7 <__bss_end+0x83ad>
     61e:	f0 e0       	ldi	r31, 0x00	; 0
     620:	e6 53       	subi	r30, 0x36	; 54
     622:	f5 4c       	sbci	r31, 0xC5	; 197
     624:	10 82       	st	Z, r1
    iLED[EYE[G][R]] = 0;
     626:	e0 91 c6 be 	lds	r30, 0xBEC6	; 0x80bec6 <__bss_end+0x83ac>
     62a:	f0 e0       	ldi	r31, 0x00	; 0
     62c:	e6 53       	subi	r30, 0x36	; 54
     62e:	f5 4c       	sbci	r31, 0xC5	; 197
     630:	10 82       	st	Z, r1
    iLED[EYE[R][L]] = 0;
     632:	e0 91 c5 be 	lds	r30, 0xBEC5	; 0x80bec5 <__bss_end+0x83ab>
     636:	f0 e0       	ldi	r31, 0x00	; 0
     638:	e6 53       	subi	r30, 0x36	; 54
     63a:	f5 4c       	sbci	r31, 0xC5	; 197
     63c:	10 82       	st	Z, r1
    iLED[EYE[R][R]] = 0;
     63e:	e0 91 c4 be 	lds	r30, 0xBEC4	; 0x80bec4 <__bss_end+0x83aa>
     642:	f0 e0       	ldi	r31, 0x00	; 0
     644:	e6 53       	subi	r30, 0x36	; 54
     646:	f5 4c       	sbci	r31, 0xC5	; 197
     648:	10 82       	st	Z, r1
     64a:	ae ec       	ldi	r26, 0xCE	; 206
     64c:	be eb       	ldi	r27, 0xBE	; 190
    for (int i=0; i<6; i++ )
        iLED[HCKR[G][i]] = 0;
     64e:	ed 91       	ld	r30, X+
     650:	f0 e0       	ldi	r31, 0x00	; 0
     652:	e6 53       	subi	r30, 0x36	; 54
     654:	f5 4c       	sbci	r31, 0xC5	; 197
     656:	10 82       	st	Z, r1
    iLED[CAT]       = 0;
    iLED[EYE[G][L]] = 0;
    iLED[EYE[G][R]] = 0;
    iLED[EYE[R][L]] = 0;
    iLED[EYE[R][R]] = 0;
    for (int i=0; i<6; i++ )
     658:	8e eb       	ldi	r24, 0xBE	; 190
     65a:	a4 3d       	cpi	r26, 0xD4	; 212
     65c:	b8 07       	cpc	r27, r24
     65e:	b9 f7       	brne	.-18     	; 0x64e <initLanyard+0x54>
        iLED[HCKR[G][i]] = 0;
}
     660:	08 95       	ret

00000662 <LanyardCode>:

// Main game loop
uint8_t LanyardCode(){
     662:	cf 93       	push	r28
    if (gameNow == LANYARD && idleTimeout(lanyardLastActive,LANYARD_MAX_IDLE)) {
     664:	80 91 3c 38 	lds	r24, 0x383C	; 0x80383c <gameNow>
     668:	83 30       	cpi	r24, 0x03	; 3
     66a:	91 f4       	brne	.+36     	; 0x690 <LanyardCode+0x2e>
     66c:	6a e0       	ldi	r22, 0x0A	; 10
     66e:	70 e0       	ldi	r23, 0x00	; 0
     670:	80 91 33 38 	lds	r24, 0x3833	; 0x803833 <lanyardLastActive>
     674:	90 91 34 38 	lds	r25, 0x3834	; 0x803834 <lanyardLastActive+0x1>
     678:	0e 94 ba 0d 	call	0x1b74	; 0x1b74 <idleTimeout>
     67c:	88 23       	and	r24, r24
     67e:	41 f0       	breq	.+16     	; 0x690 <LanyardCode+0x2e>
        /* clean up maze game and go back to text game */
        initLanyard();
     680:	bc df       	rcall	.-136    	; 0x5fa <initLanyard>
        gameNow = TEXT;
     682:	10 92 3c 38 	sts	0x383C, r1	; 0x80383c <gameNow>
        effect = 0;
     686:	10 92 3a 38 	sts	0x383A, r1	; 0x80383a <effect>
     68a:	10 92 3b 38 	sts	0x383B, r1	; 0x80383b <effect+0x1>
        return 0;
     68e:	c6 c0       	rjmp	.+396    	; 0x81c <LanyardCode+0x1ba>
    }

    if (CheckState(LANYARD_COMPLETED))
     690:	8b e7       	ldi	r24, 0x7B	; 123
     692:	5a d7       	rcall	.+3764   	; 0x1548 <CheckState>
     694:	81 11       	cpse	r24, r1
     696:	c2 c0       	rjmp	.+388    	; 0x81c <LanyardCode+0x1ba>
        return 0;

    if ( gameNow != TEXT && gameNow != LANYARD )
     698:	80 91 3c 38 	lds	r24, 0x383C	; 0x80383c <gameNow>
     69c:	88 23       	and	r24, r24
     69e:	19 f0       	breq	.+6      	; 0x6a6 <LanyardCode+0x44>
     6a0:	83 30       	cpi	r24, 0x03	; 3
     6a2:	09 f0       	breq	.+2      	; 0x6a6 <LanyardCode+0x44>
     6a4:	bb c0       	rjmp	.+374    	; 0x81c <LanyardCode+0x1ba>
        return 0;

    if ( (buttonState & 0xf0) == 0)
     6a6:	90 91 09 38 	lds	r25, 0x3809	; 0x803809 <buttonState>
     6aa:	89 2f       	mov	r24, r25
     6ac:	80 7f       	andi	r24, 0xF0	; 240
     6ae:	09 f4       	brne	.+2      	; 0x6b2 <LanyardCode+0x50>
     6b0:	b5 c0       	rjmp	.+362    	; 0x81c <LanyardCode+0x1ba>
        return 0;

    /* activate led for buttonstate */
    iLED[CAT] = (buttonState==0xff ? 0 : dimValue);
     6b2:	c0 91 b6 be 	lds	r28, 0xBEB6	; 0x80beb6 <__bss_end+0x839c>
     6b6:	ec 2f       	mov	r30, r28
     6b8:	f0 e0       	ldi	r31, 0x00	; 0
     6ba:	9f 3f       	cpi	r25, 0xFF	; 255
     6bc:	19 f0       	breq	.+6      	; 0x6c4 <LanyardCode+0x62>
     6be:	80 91 0b 38 	lds	r24, 0x380B	; 0x80380b <dimValue>
     6c2:	01 c0       	rjmp	.+2      	; 0x6c6 <LanyardCode+0x64>
     6c4:	80 e0       	ldi	r24, 0x00	; 0
     6c6:	e6 53       	subi	r30, 0x36	; 54
     6c8:	f5 4c       	sbci	r31, 0xC5	; 197
     6ca:	80 83       	st	Z, r24

    if ((buttonState&0x0f) == (lastButtonState&0x0f))
     6cc:	80 91 03 38 	lds	r24, 0x3803	; 0x803803 <lastButtonState>
     6d0:	89 27       	eor	r24, r25
     6d2:	8f 70       	andi	r24, 0x0F	; 15
     6d4:	09 f4       	brne	.+2      	; 0x6d8 <LanyardCode+0x76>
     6d6:	a2 c0       	rjmp	.+324    	; 0x81c <LanyardCode+0x1ba>
        return 0;

    lanyardLastActive = getClock();
     6d8:	0e 94 ab 0d 	call	0x1b56	; 0x1b56 <getClock>
     6dc:	80 93 33 38 	sts	0x3833, r24	; 0x803833 <lanyardLastActive>
     6e0:	90 93 34 38 	sts	0x3834, r25	; 0x803834 <lanyardLastActive+0x1>

    if (lastButtonState == 0xff){
     6e4:	80 91 03 38 	lds	r24, 0x3803	; 0x803803 <lastButtonState>
     6e8:	8f 3f       	cpi	r24, 0xFF	; 255
     6ea:	09 f0       	breq	.+2      	; 0x6ee <LanyardCode+0x8c>
     6ec:	93 c0       	rjmp	.+294    	; 0x814 <LanyardCode+0x1b2>
        switch (buttonState & 0x0f) {
     6ee:	80 91 09 38 	lds	r24, 0x3809	; 0x803809 <buttonState>
     6f2:	8f 70       	andi	r24, 0x0F	; 15
     6f4:	82 30       	cpi	r24, 0x02	; 2
     6f6:	c1 f0       	breq	.+48     	; 0x728 <LanyardCode+0xc6>
     6f8:	58 f4       	brcc	.+22     	; 0x710 <LanyardCode+0xae>
     6fa:	81 30       	cpi	r24, 0x01	; 1
     6fc:	29 f5       	brne	.+74     	; 0x748 <LanyardCode+0xe6>
            case 0b0001:
                effect = 0x19f;
     6fe:	8f e9       	ldi	r24, 0x9F	; 159
     700:	91 e0       	ldi	r25, 0x01	; 1
     702:	80 93 3a 38 	sts	0x383A, r24	; 0x80383a <effect>
     706:	90 93 3b 38 	sts	0x383B, r25	; 0x80383b <effect+0x1>
                digit = 0;
     70a:	10 92 02 38 	sts	0x3802, r1	; 0x803802 <digit>
                break;
     70e:	1f c0       	rjmp	.+62     	; 0x74e <LanyardCode+0xec>
        return 0;

    lanyardLastActive = getClock();

    if (lastButtonState == 0xff){
        switch (buttonState & 0x0f) {
     710:	84 30       	cpi	r24, 0x04	; 4
     712:	91 f0       	breq	.+36     	; 0x738 <LanyardCode+0xd6>
     714:	88 30       	cpi	r24, 0x08	; 8
     716:	c1 f4       	brne	.+48     	; 0x748 <LanyardCode+0xe6>
                effect = 0x13f;
                digit = 3;
                break;

            case 0b1000:
                effect = 0x15f;
     718:	8f e5       	ldi	r24, 0x5F	; 95
     71a:	91 e0       	ldi	r25, 0x01	; 1
     71c:	80 93 3a 38 	sts	0x383A, r24	; 0x80383a <effect>
     720:	90 93 3b 38 	sts	0x383B, r25	; 0x80383b <effect+0x1>
                digit = 2;
     724:	82 e0       	ldi	r24, 0x02	; 2
     726:	11 c0       	rjmp	.+34     	; 0x74a <LanyardCode+0xe8>
                effect = 0x19f;
                digit = 0;
                break;

            case 0b0010:
                effect = 0x17f;
     728:	8f e7       	ldi	r24, 0x7F	; 127
     72a:	91 e0       	ldi	r25, 0x01	; 1
     72c:	80 93 3a 38 	sts	0x383A, r24	; 0x80383a <effect>
     730:	90 93 3b 38 	sts	0x383B, r25	; 0x80383b <effect+0x1>
                digit = 1;
     734:	81 e0       	ldi	r24, 0x01	; 1
     736:	09 c0       	rjmp	.+18     	; 0x74a <LanyardCode+0xe8>
                break;

            case 0b0100:
                effect = 0x13f;
     738:	8f e3       	ldi	r24, 0x3F	; 63
     73a:	91 e0       	ldi	r25, 0x01	; 1
     73c:	80 93 3a 38 	sts	0x383A, r24	; 0x80383a <effect>
     740:	90 93 3b 38 	sts	0x383B, r25	; 0x80383b <effect+0x1>
                digit = 3;
     744:	83 e0       	ldi	r24, 0x03	; 3
     746:	01 c0       	rjmp	.+2      	; 0x74a <LanyardCode+0xe8>
                effect = 0x15f;
                digit = 2;
                break;

            default:
                digit = 0xff;
     748:	8f ef       	ldi	r24, 0xFF	; 255
     74a:	80 93 02 38 	sts	0x3802, r24	; 0x803802 <digit>
                break;
        }
        gameNow = LANYARD;
     74e:	83 e0       	ldi	r24, 0x03	; 3
     750:	80 93 3c 38 	sts	0x383C, r24	; 0x80383c <gameNow>
        /* TODO play tone for button */

        if (digit == lanyardCode[lanyardPos]) {
     754:	80 91 36 38 	lds	r24, 0x3836	; 0x803836 <lanyardPos>
     758:	e8 2f       	mov	r30, r24
     75a:	f0 e0       	ldi	r31, 0x00	; 0
     75c:	e2 56       	subi	r30, 0x62	; 98
     75e:	f1 44       	sbci	r31, 0x41	; 65
     760:	20 81       	ld	r18, Z
     762:	90 91 02 38 	lds	r25, 0x3802	; 0x803802 <digit>
     766:	29 13       	cpse	r18, r25
     768:	12 c0       	rjmp	.+36     	; 0x78e <LanyardCode+0x12c>
            lanyardState &= TRUE;
     76a:	90 91 04 38 	lds	r25, 0x3804	; 0x803804 <lanyardState>
     76e:	91 70       	andi	r25, 0x01	; 1
     770:	90 93 04 38 	sts	0x3804, r25	; 0x803804 <lanyardState>
            iLED[EYE[R][L]] = 0;
     774:	e0 91 c5 be 	lds	r30, 0xBEC5	; 0x80bec5 <__bss_end+0x83ab>
     778:	f0 e0       	ldi	r31, 0x00	; 0
     77a:	e6 53       	subi	r30, 0x36	; 54
     77c:	f5 4c       	sbci	r31, 0xC5	; 197
     77e:	10 82       	st	Z, r1
            iLED[EYE[R][R]] = 0;
     780:	e0 91 c4 be 	lds	r30, 0xBEC4	; 0x80bec4 <__bss_end+0x83aa>
     784:	f0 e0       	ldi	r31, 0x00	; 0
     786:	e6 53       	subi	r30, 0x36	; 54
     788:	f5 4c       	sbci	r31, 0xC5	; 197
     78a:	10 82       	st	Z, r1
     78c:	09 c0       	rjmp	.+18     	; 0x7a0 <LanyardCode+0x13e>
        } else {
            lanyardState = FALSE;
     78e:	10 92 04 38 	sts	0x3804, r1	; 0x803804 <lanyardState>
            if (lanyardPos < 4 ) {
     792:	84 30       	cpi	r24, 0x04	; 4
                initLanyard();
     794:	28 f4       	brcc	.+10     	; 0x7a0 <LanyardCode+0x13e>
     796:	31 df       	rcall	.-414    	; 0x5fa <initLanyard>
                gameNow         = BASTET;
     798:	82 e0       	ldi	r24, 0x02	; 2
     79a:	80 93 3c 38 	sts	0x383C, r24	; 0x80383c <gameNow>
                return 0;
     79e:	3e c0       	rjmp	.+124    	; 0x81c <LanyardCode+0x1ba>
            }
        }
        lanyardPos++;
     7a0:	8f 5f       	subi	r24, 0xFF	; 255
     7a2:	80 93 36 38 	sts	0x3836, r24	; 0x803836 <lanyardPos>
        lanyardCnt++;            
     7a6:	90 91 35 38 	lds	r25, 0x3835	; 0x803835 <lanyardCnt>
     7aa:	9f 5f       	subi	r25, 0xFF	; 255
        if (lanyardCnt >= 4) {
     7ac:	94 30       	cpi	r25, 0x04	; 4
     7ae:	18 f4       	brcc	.+6      	; 0x7b6 <LanyardCode+0x154>
                gameNow         = BASTET;
                return 0;
            }
        }
        lanyardPos++;
        lanyardCnt++;            
     7b0:	90 93 35 38 	sts	0x3835, r25	; 0x803835 <lanyardCnt>
     7b4:	2f c0       	rjmp	.+94     	; 0x814 <LanyardCode+0x1b2>
        if (lanyardCnt >= 4) {
            lanyardCnt = 0;
     7b6:	10 92 35 38 	sts	0x3835, r1	; 0x803835 <lanyardCnt>
            if (lanyardState == TRUE) {
     7ba:	90 91 04 38 	lds	r25, 0x3804	; 0x803804 <lanyardState>
     7be:	91 30       	cpi	r25, 0x01	; 1
     7c0:	11 f5       	brne	.+68     	; 0x806 <LanyardCode+0x1a4>
                if ((lanyardPos % 4) == 0) {
     7c2:	98 2f       	mov	r25, r24
     7c4:	93 70       	andi	r25, 0x03	; 3
     7c6:	99 f4       	brne	.+38     	; 0x7ee <LanyardCode+0x18c>
                    iLED[HCKR[G][(lanyardPos>>2)-1]] = dimValue;
     7c8:	e8 2f       	mov	r30, r24
     7ca:	e6 95       	lsr	r30
     7cc:	e6 95       	lsr	r30
     7ce:	f0 e0       	ldi	r31, 0x00	; 0
     7d0:	e8 53       	subi	r30, 0x38	; 56
     7d2:	f1 44       	sbci	r31, 0x41	; 65
     7d4:	e5 81       	ldd	r30, Z+5	; 0x05
     7d6:	f0 e0       	ldi	r31, 0x00	; 0
     7d8:	90 91 0b 38 	lds	r25, 0x380B	; 0x80380b <dimValue>
     7dc:	e6 53       	subi	r30, 0x36	; 54
     7de:	f5 4c       	sbci	r31, 0xC5	; 197
     7e0:	90 83       	st	Z, r25
                    effect = 0x5f;
     7e2:	2f e5       	ldi	r18, 0x5F	; 95
     7e4:	30 e0       	ldi	r19, 0x00	; 0
     7e6:	20 93 3a 38 	sts	0x383A, r18	; 0x80383a <effect>
     7ea:	30 93 3b 38 	sts	0x383B, r19	; 0x80383b <effect+0x1>
                }
                if (lanyardPos == sizeof(lanyardCode)) {
     7ee:	88 31       	cpi	r24, 0x18	; 24
                    UpdateState(LANYARD_COMPLETED);
     7f0:	89 f4       	brne	.+34     	; 0x814 <LanyardCode+0x1b2>
     7f2:	8b e7       	ldi	r24, 0x7B	; 123
     7f4:	9f d6       	rcall	.+3390   	; 0x1534 <UpdateState>
                    iLED[CAT]       = 0;
     7f6:	ec 2f       	mov	r30, r28
     7f8:	f0 e0       	ldi	r31, 0x00	; 0
     7fa:	e6 53       	subi	r30, 0x36	; 54
     7fc:	f5 4c       	sbci	r31, 0xC5	; 197
                    effect = 0x42;
     7fe:	10 82       	st	Z, r1
     800:	82 e4       	ldi	r24, 0x42	; 66
     802:	90 e0       	ldi	r25, 0x00	; 0
                    /*TODO state = STATE_MUSIC;*/
                }
            } else {
                initLanyard();
     804:	03 c0       	rjmp	.+6      	; 0x80c <LanyardCode+0x1aa>
     806:	f9 de       	rcall	.-526    	; 0x5fa <initLanyard>
                effect = 0x21;
     808:	81 e2       	ldi	r24, 0x21	; 33
     80a:	90 e0       	ldi	r25, 0x00	; 0
     80c:	80 93 3a 38 	sts	0x383A, r24	; 0x80383a <effect>
     810:	90 93 3b 38 	sts	0x383B, r25	; 0x80383b <effect+0x1>
            }
        }
    }

    lastButtonState = buttonState;
     814:	80 91 09 38 	lds	r24, 0x3809	; 0x803809 <buttonState>
     818:	80 93 03 38 	sts	0x3803, r24	; 0x803803 <lastButtonState>
    return 0;
}
     81c:	80 e0       	ldi	r24, 0x00	; 0
     81e:	cf 91       	pop	r28
     820:	08 95       	ret

00000822 <initMaze>:
uint8_t         mazeState = TRUE;
uint8_t         inverted  = FALSE;
uint16_t        mazeLastActive = 0;

void initMaze() {
    mazeHckrPos = 0;
     822:	10 92 49 38 	sts	0x3849, r1	; 0x803849 <mazeHckrPos>
    mazePos = 0;
     826:	10 92 4a 38 	sts	0x384A, r1	; 0x80384a <mazePos>
    mazeCnt = 0;
     82a:	10 92 48 38 	sts	0x3848, r1	; 0x803848 <mazeCnt>
    mazeState = TRUE;
     82e:	81 e0       	ldi	r24, 0x01	; 1
     830:	80 93 0c 38 	sts	0x380C, r24	; 0x80380c <mazeState>
    inverted  = FALSE;
     834:	10 92 47 38 	sts	0x3847, r1	; 0x803847 <inverted>
    iLED[CAT]       = 0;
     838:	e0 91 b6 be 	lds	r30, 0xBEB6	; 0x80beb6 <__bss_end+0x839c>
     83c:	f0 e0       	ldi	r31, 0x00	; 0
     83e:	e6 53       	subi	r30, 0x36	; 54
     840:	f5 4c       	sbci	r31, 0xC5	; 197
     842:	10 82       	st	Z, r1
    iLED[EYE[G][L]] = 0;
     844:	e0 91 c7 be 	lds	r30, 0xBEC7	; 0x80bec7 <__bss_end+0x83ad>
     848:	f0 e0       	ldi	r31, 0x00	; 0
     84a:	e6 53       	subi	r30, 0x36	; 54
     84c:	f5 4c       	sbci	r31, 0xC5	; 197
     84e:	10 82       	st	Z, r1
    iLED[EYE[G][R]] = 0;
     850:	e0 91 c6 be 	lds	r30, 0xBEC6	; 0x80bec6 <__bss_end+0x83ac>
     854:	f0 e0       	ldi	r31, 0x00	; 0
     856:	e6 53       	subi	r30, 0x36	; 54
     858:	f5 4c       	sbci	r31, 0xC5	; 197
     85a:	10 82       	st	Z, r1
    iLED[EYE[R][L]] = 0;
     85c:	e0 91 c5 be 	lds	r30, 0xBEC5	; 0x80bec5 <__bss_end+0x83ab>
     860:	f0 e0       	ldi	r31, 0x00	; 0
     862:	e6 53       	subi	r30, 0x36	; 54
     864:	f5 4c       	sbci	r31, 0xC5	; 197
     866:	10 82       	st	Z, r1
    iLED[EYE[R][R]] = 0;
     868:	e0 91 c4 be 	lds	r30, 0xBEC4	; 0x80bec4 <__bss_end+0x83aa>
     86c:	f0 e0       	ldi	r31, 0x00	; 0
     86e:	e6 53       	subi	r30, 0x36	; 54
     870:	f5 4c       	sbci	r31, 0xC5	; 197
     872:	10 82       	st	Z, r1
     874:	ae ec       	ldi	r26, 0xCE	; 206
     876:	be eb       	ldi	r27, 0xBE	; 190
    for (int i=0; i<6; i++ )
        iLED[HCKR[G][i]] = 0;
     878:	ed 91       	ld	r30, X+
     87a:	f0 e0       	ldi	r31, 0x00	; 0
     87c:	e6 53       	subi	r30, 0x36	; 54
     87e:	f5 4c       	sbci	r31, 0xC5	; 197
     880:	10 82       	st	Z, r1
    iLED[CAT]       = 0;
    iLED[EYE[G][L]] = 0;
    iLED[EYE[G][R]] = 0;
    iLED[EYE[R][L]] = 0;
    iLED[EYE[R][R]] = 0;
    for (int i=0; i<6; i++ )
     882:	8e eb       	ldi	r24, 0xBE	; 190
     884:	a4 3d       	cpi	r26, 0xD4	; 212
     886:	b8 07       	cpc	r27, r24
     888:	b9 f7       	brne	.-18     	; 0x878 <initMaze+0x56>
        iLED[HCKR[G][i]] = 0;
}
     88a:	08 95       	ret

0000088c <showFieldStrength>:

void showFieldStrength(int16_t val) {
    int16_t tmp;

    tmp = abs(val);
     88c:	97 ff       	sbrs	r25, 7
     88e:	03 c0       	rjmp	.+6      	; 0x896 <showFieldStrength+0xa>
     890:	91 95       	neg	r25
     892:	81 95       	neg	r24
     894:	91 09       	sbc	r25, r1

    if ( tmp*2 > HALL_LOW )
     896:	9c 01       	movw	r18, r24
     898:	22 0f       	add	r18, r18
     89a:	33 1f       	adc	r19, r19
     89c:	29 37       	cpi	r18, 0x79	; 121
     89e:	31 05       	cpc	r19, r1
     8a0:	1c f0       	brlt	.+6      	; 0x8a8 <showFieldStrength+0x1c>
        gameNow = MAZE;
     8a2:	41 e0       	ldi	r20, 0x01	; 1
     8a4:	40 93 3c 38 	sts	0x383C, r20	; 0x80383c <gameNow>

    if (gameNow == MAZE) {
     8a8:	40 91 3c 38 	lds	r20, 0x383C	; 0x80383c <gameNow>
     8ac:	41 30       	cpi	r20, 0x01	; 1
     8ae:	21 f5       	brne	.+72     	; 0x8f8 <showFieldStrength+0x6c>
        if ( tmp*2 < HALL_LOW )
     8b0:	28 37       	cpi	r18, 0x78	; 120
     8b2:	31 05       	cpc	r19, r1
     8b4:	1c f4       	brge	.+6      	; 0x8bc <showFieldStrength+0x30>
            WingBar(0,0);
     8b6:	60 e0       	ldi	r22, 0x00	; 0
     8b8:	80 e0       	ldi	r24, 0x00	; 0
     8ba:	1d c0       	rjmp	.+58     	; 0x8f6 <showFieldStrength+0x6a>
        else if ( tmp   < HALL_LOW )
     8bc:	88 37       	cpi	r24, 0x78	; 120
     8be:	91 05       	cpc	r25, r1
     8c0:	1c f4       	brge	.+6      	; 0x8c8 <showFieldStrength+0x3c>
            WingBar(1,1);
     8c2:	61 e0       	ldi	r22, 0x01	; 1
     8c4:	81 e0       	ldi	r24, 0x01	; 1
     8c6:	17 c0       	rjmp	.+46     	; 0x8f6 <showFieldStrength+0x6a>
        else if ( tmp*2 < HALL_HIGH )
     8c8:	2c 32       	cpi	r18, 0x2C	; 44
     8ca:	41 e0       	ldi	r20, 0x01	; 1
     8cc:	34 07       	cpc	r19, r20
     8ce:	1c f4       	brge	.+6      	; 0x8d6 <showFieldStrength+0x4a>
            WingBar(2,2);
     8d0:	62 e0       	ldi	r22, 0x02	; 2
     8d2:	82 e0       	ldi	r24, 0x02	; 2
     8d4:	10 c0       	rjmp	.+32     	; 0x8f6 <showFieldStrength+0x6a>
        else if ( tmp*3 < HALL_HIGH*2 )
     8d6:	28 0f       	add	r18, r24
     8d8:	39 1f       	adc	r19, r25
     8da:	28 35       	cpi	r18, 0x58	; 88
     8dc:	32 40       	sbci	r19, 0x02	; 2
     8de:	1c f4       	brge	.+6      	; 0x8e6 <showFieldStrength+0x5a>
            WingBar(3,3);
     8e0:	63 e0       	ldi	r22, 0x03	; 3
     8e2:	83 e0       	ldi	r24, 0x03	; 3
     8e4:	08 c0       	rjmp	.+16     	; 0x8f6 <showFieldStrength+0x6a>
        else if ( tmp   < HALL_HIGH )
     8e6:	8c 32       	cpi	r24, 0x2C	; 44
     8e8:	91 40       	sbci	r25, 0x01	; 1
     8ea:	1c f4       	brge	.+6      	; 0x8f2 <showFieldStrength+0x66>
            WingBar(4,4);
     8ec:	64 e0       	ldi	r22, 0x04	; 4
     8ee:	84 e0       	ldi	r24, 0x04	; 4
     8f0:	02 c0       	rjmp	.+4      	; 0x8f6 <showFieldStrength+0x6a>
        else
            WingBar(5,5);
     8f2:	65 e0       	ldi	r22, 0x05	; 5
     8f4:	85 e0       	ldi	r24, 0x05	; 5
     8f6:	01 c7       	rjmp	.+3586   	; 0x16fa <WingBar>
     8f8:	08 95       	ret

000008fa <MagnetMaze>:
    }
}

// Main game loop
uint8_t MagnetMaze(){
     8fa:	cf 93       	push	r28
     8fc:	df 93       	push	r29
    if (gameNow == MAZE && idleTimeout(mazeLastActive,MAZE_MAX_IDLE)) {
     8fe:	80 91 3c 38 	lds	r24, 0x383C	; 0x80383c <gameNow>
     902:	81 30       	cpi	r24, 0x01	; 1
     904:	71 f4       	brne	.+28     	; 0x922 <MagnetMaze+0x28>
     906:	6a e0       	ldi	r22, 0x0A	; 10
     908:	70 e0       	ldi	r23, 0x00	; 0
     90a:	80 91 45 38 	lds	r24, 0x3845	; 0x803845 <mazeLastActive>
     90e:	90 91 46 38 	lds	r25, 0x3846	; 0x803846 <mazeLastActive+0x1>
     912:	0e 94 ba 0d 	call	0x1b74	; 0x1b74 <idleTimeout>
     916:	88 23       	and	r24, r24
     918:	21 f0       	breq	.+8      	; 0x922 <MagnetMaze+0x28>
        /* clean up maze game and go back to text game */
        initMaze();
     91a:	83 df       	rcall	.-250    	; 0x822 <initMaze>
        gameNow = TEXT;
     91c:	10 92 3c 38 	sts	0x383C, r1	; 0x80383c <gameNow>
        return 0;
     920:	f4 c0       	rjmp	.+488    	; 0xb0a <MagnetMaze+0x210>
    }
        
    if (CheckState(MAZE_INACTIVE))
     922:	87 ef       	ldi	r24, 0xF7	; 247
     924:	11 d6       	rcall	.+3106   	; 0x1548 <CheckState>
     926:	81 11       	cpse	r24, r1
     928:	f0 c0       	rjmp	.+480    	; 0xb0a <MagnetMaze+0x210>
        return 0;

    if (CheckState(MAZE_COMPLETED))
     92a:	8d e7       	ldi	r24, 0x7D	; 125
     92c:	0d d6       	rcall	.+3098   	; 0x1548 <CheckState>
     92e:	81 11       	cpse	r24, r1
     930:	ec c0       	rjmp	.+472    	; 0xb0a <MagnetMaze+0x210>
     932:	80 91 3c 38 	lds	r24, 0x383C	; 0x80383c <gameNow>
        return 0;

    if ( (gameNow != TEXT) && (gameNow != MAZE) )
     936:	82 30       	cpi	r24, 0x02	; 2
     938:	08 f0       	brcs	.+2      	; 0x93c <MagnetMaze+0x42>
     93a:	e7 c0       	rjmp	.+462    	; 0xb0a <MagnetMaze+0x210>
     93c:	80 91 f3 3a 	lds	r24, 0x3AF3	; 0x803af3 <calHall>
        return 0;

    if (calHall == 0)
     940:	90 91 f4 3a 	lds	r25, 0x3AF4	; 0x803af4 <calHall+0x1>
     944:	89 2b       	or	r24, r25
     946:	41 f4       	brne	.+16     	; 0x958 <MagnetMaze+0x5e>
     948:	80 91 bb 3a 	lds	r24, 0x3ABB	; 0x803abb <adcHall>
        calHall = adcHall;
     94c:	90 91 bc 3a 	lds	r25, 0x3ABC	; 0x803abc <adcHall+0x1>
     950:	80 93 f3 3a 	sts	0x3AF3, r24	; 0x803af3 <calHall>
     954:	90 93 f4 3a 	sts	0x3AF4, r25	; 0x803af4 <calHall+0x1>
     958:	c0 91 bb 3a 	lds	r28, 0x3ABB	; 0x803abb <adcHall>

    int16_t valHall = adcHall - calHall;
     95c:	d0 91 bc 3a 	lds	r29, 0x3ABC	; 0x803abc <adcHall+0x1>
     960:	80 91 f3 3a 	lds	r24, 0x3AF3	; 0x803af3 <calHall>
     964:	90 91 f4 3a 	lds	r25, 0x3AF4	; 0x803af4 <calHall+0x1>
     968:	c8 1b       	sub	r28, r24
     96a:	d9 0b       	sbc	r29, r25
    showFieldStrength(valHall);
     96c:	ce 01       	movw	r24, r28
     96e:	8e df       	rcall	.-228    	; 0x88c <showFieldStrength>
     970:	80 91 4c 38 	lds	r24, 0x384C	; 0x80384c <curHallState>

    switch (curHallState) {
     974:	81 30       	cpi	r24, 0x01	; 1
     976:	89 f0       	breq	.+34     	; 0x99a <MagnetMaze+0xa0>
     978:	18 f0       	brcs	.+6      	; 0x980 <MagnetMaze+0x86>
     97a:	82 30       	cpi	r24, 0x02	; 2
     97c:	c1 f0       	breq	.+48     	; 0x9ae <MagnetMaze+0xb4>
     97e:	1f c0       	rjmp	.+62     	; 0x9be <MagnetMaze+0xc4>
     980:	c4 3d       	cpi	r28, 0xD4	; 212
        case 0:
            if ( valHall + HALL_HIGH < 0 ) {
     982:	9e ef       	ldi	r25, 0xFE	; 254
     984:	d9 07       	cpc	r29, r25
     986:	14 f4       	brge	.+4      	; 0x98c <MagnetMaze+0x92>
     988:	91 e0       	ldi	r25, 0x01	; 1
                newHallState = 1;
     98a:	04 c0       	rjmp	.+8      	; 0x994 <MagnetMaze+0x9a>
     98c:	cd 32       	cpi	r28, 0x2D	; 45
            } else if ( valHall - HALL_HIGH > 0 ) {
     98e:	d1 40       	sbci	r29, 0x01	; 1
     990:	5c f0       	brlt	.+22     	; 0x9a8 <MagnetMaze+0xae>
     992:	92 e0       	ldi	r25, 0x02	; 2
                newHallState = 2;
     994:	90 93 4b 38 	sts	0x384B, r25	; 0x80384b <newHallState>
     998:	12 c0       	rjmp	.+36     	; 0x9be <MagnetMaze+0xc4>
     99a:	cd 32       	cpi	r28, 0x2D	; 45
                newHallState = 0;
            }
            break;
        
        case 1:
            if ( valHall - HALL_HIGH > 0 ) {
     99c:	91 e0       	ldi	r25, 0x01	; 1
     99e:	d9 07       	cpc	r29, r25
     9a0:	c4 f7       	brge	.-16     	; 0x992 <MagnetMaze+0x98>
     9a2:	c9 38       	cpi	r28, 0x89	; 137
                newHallState = 2;
            } else if ( valHall + HALL_LOW > 0 ) {
     9a4:	df 4f       	sbci	r29, 0xFF	; 255
     9a6:	84 f3       	brlt	.-32     	; 0x988 <MagnetMaze+0x8e>
     9a8:	10 92 4b 38 	sts	0x384B, r1	; 0x80384b <newHallState>
            if ( valHall + HALL_HIGH < 0 ) {
                newHallState = 1;
            } else if ( valHall - HALL_HIGH > 0 ) {
                newHallState = 2;
            } else {
                newHallState = 0;
     9ac:	08 c0       	rjmp	.+16     	; 0x9be <MagnetMaze+0xc4>
     9ae:	c4 3d       	cpi	r28, 0xD4	; 212
                newHallState = 1;
            }
            break;
        
        case 2:
            if ( valHall + HALL_HIGH < 0 ) {
     9b0:	9e ef       	ldi	r25, 0xFE	; 254
     9b2:	d9 07       	cpc	r29, r25
     9b4:	4c f3       	brlt	.-46     	; 0x988 <MagnetMaze+0x8e>
     9b6:	c8 37       	cpi	r28, 0x78	; 120
                newHallState = 1;
            } else if ( valHall - HALL_LOW < 0 ) {
     9b8:	d1 05       	cpc	r29, r1
     9ba:	b4 f3       	brlt	.-20     	; 0x9a8 <MagnetMaze+0xae>
     9bc:	ea cf       	rjmp	.-44     	; 0x992 <MagnetMaze+0x98>
     9be:	c0 91 b6 be 	lds	r28, 0xBEB6	; 0x80beb6 <__bss_end+0x839c>
            }
            break;
    }

    /* Indicate that the magnet was read succesfully */
    iLED[CAT] = (newHallState ? dimValue : 0);
     9c2:	ec 2f       	mov	r30, r28
     9c4:	f0 e0       	ldi	r31, 0x00	; 0
     9c6:	90 91 4b 38 	lds	r25, 0x384B	; 0x80384b <newHallState>
     9ca:	99 23       	and	r25, r25
     9cc:	19 f0       	breq	.+6      	; 0x9d4 <MagnetMaze+0xda>
     9ce:	20 91 0b 38 	lds	r18, 0x380B	; 0x80380b <dimValue>
     9d2:	01 c0       	rjmp	.+2      	; 0x9d6 <MagnetMaze+0xdc>
     9d4:	20 e0       	ldi	r18, 0x00	; 0
     9d6:	e6 53       	subi	r30, 0x36	; 54
     9d8:	f5 4c       	sbci	r31, 0xC5	; 197
     9da:	20 83       	st	Z, r18
     9dc:	89 17       	cp	r24, r25

    if (newHallState != curHallState) {
     9de:	09 f4       	brne	.+2      	; 0x9e2 <MagnetMaze+0xe8>
     9e0:	94 c0       	rjmp	.+296    	; 0xb0a <MagnetMaze+0x210>
     9e2:	0e 94 ab 0d 	call	0x1b56	; 0x1b56 <getClock>
        /* keep track of time to enable an idle timeout to exit the game */
        mazeLastActive = getClock();
     9e6:	80 93 45 38 	sts	0x3845, r24	; 0x803845 <mazeLastActive>
     9ea:	90 93 46 38 	sts	0x3846, r25	; 0x803846 <mazeLastActive+0x1>
     9ee:	20 91 4a 38 	lds	r18, 0x384A	; 0x80384a <mazePos>

        /* Make the maze work regardless of badge orientation */
        if ((mazePos == 0) && (newHallState != 0))
     9f2:	80 91 4b 38 	lds	r24, 0x384B	; 0x80384b <newHallState>
     9f6:	21 11       	cpse	r18, r1
     9f8:	08 c0       	rjmp	.+16     	; 0xa0a <MagnetMaze+0x110>
     9fa:	88 23       	and	r24, r24
     9fc:	31 f0       	breq	.+12     	; 0xa0a <MagnetMaze+0x110>
     9fe:	91 e0       	ldi	r25, 0x01	; 1
            inverted = (newHallState != mazeCode[0]) ? TRUE : FALSE;
     a00:	81 30       	cpi	r24, 0x01	; 1
     a02:	09 f4       	brne	.+2      	; 0xa06 <MagnetMaze+0x10c>
     a04:	90 e0       	ldi	r25, 0x00	; 0
     a06:	90 93 47 38 	sts	0x3847, r25	; 0x803847 <inverted>
     a0a:	80 93 4c 38 	sts	0x384C, r24	; 0x80384c <curHallState>

        curHallState = newHallState;
     a0e:	88 23       	and	r24, r24
        
        if (curHallState != 0) {
     a10:	09 f4       	brne	.+2      	; 0xa14 <MagnetMaze+0x11a>
     a12:	7b c0       	rjmp	.+246    	; 0xb0a <MagnetMaze+0x210>
     a14:	91 e0       	ldi	r25, 0x01	; 1
            gameNow = MAZE;
     a16:	90 93 3c 38 	sts	0x383C, r25	; 0x80383c <gameNow>
     a1a:	90 91 47 38 	lds	r25, 0x3847	; 0x803847 <inverted>
            if ( (inverted ? curHallState^3 : curHallState) == mazeCode[mazePos]) {
     a1e:	99 23       	and	r25, r25
     a20:	11 f0       	breq	.+4      	; 0xa26 <MagnetMaze+0x12c>
     a22:	93 e0       	ldi	r25, 0x03	; 3
     a24:	89 27       	eor	r24, r25
     a26:	90 e0       	ldi	r25, 0x00	; 0
     a28:	e2 2f       	mov	r30, r18
     a2a:	f0 e0       	ldi	r31, 0x00	; 0
     a2c:	ec 50       	subi	r30, 0x0C	; 12
     a2e:	f1 44       	sbci	r31, 0x41	; 65
     a30:	40 81       	ld	r20, Z
     a32:	50 e0       	ldi	r21, 0x00	; 0
     a34:	84 17       	cp	r24, r20
     a36:	95 07       	cpc	r25, r21
     a38:	91 f4       	brne	.+36     	; 0xa5e <MagnetMaze+0x164>
     a3a:	80 91 0c 38 	lds	r24, 0x380C	; 0x80380c <mazeState>
                mazeState &= TRUE;
     a3e:	81 70       	andi	r24, 0x01	; 1
     a40:	80 93 0c 38 	sts	0x380C, r24	; 0x80380c <mazeState>
     a44:	e0 91 c5 be 	lds	r30, 0xBEC5	; 0x80bec5 <__bss_end+0x83ab>
                iLED[EYE[R][L]] = 0;
     a48:	f0 e0       	ldi	r31, 0x00	; 0
     a4a:	e6 53       	subi	r30, 0x36	; 54
     a4c:	f5 4c       	sbci	r31, 0xC5	; 197
     a4e:	10 82       	st	Z, r1
     a50:	e0 91 c4 be 	lds	r30, 0xBEC4	; 0x80bec4 <__bss_end+0x83aa>
                iLED[EYE[R][R]] = 0;
     a54:	f0 e0       	ldi	r31, 0x00	; 0
     a56:	e6 53       	subi	r30, 0x36	; 54
     a58:	f5 4c       	sbci	r31, 0xC5	; 197
     a5a:	10 82       	st	Z, r1
     a5c:	02 c0       	rjmp	.+4      	; 0xa62 <MagnetMaze+0x168>
     a5e:	10 92 0c 38 	sts	0x380C, r1	; 0x80380c <mazeState>
            } else {
                mazeState = FALSE;
     a62:	2f 5f       	subi	r18, 0xFF	; 255
                /* TODO play tone BAD */
            }
            mazePos++;
     a64:	20 93 4a 38 	sts	0x384A, r18	; 0x80384a <mazePos>
     a68:	80 91 48 38 	lds	r24, 0x3848	; 0x803848 <mazeCnt>
            mazeCnt++;            
     a6c:	8f 5f       	subi	r24, 0xFF	; 255
     a6e:	83 30       	cpi	r24, 0x03	; 3
            if (mazeCnt >= 3) {
     a70:	18 f4       	brcc	.+6      	; 0xa78 <MagnetMaze+0x17e>
     a72:	80 93 48 38 	sts	0x3848, r24	; 0x803848 <mazeCnt>
            } else {
                mazeState = FALSE;
                /* TODO play tone BAD */
            }
            mazePos++;
            mazeCnt++;            
     a76:	49 c0       	rjmp	.+146    	; 0xb0a <MagnetMaze+0x210>
     a78:	10 92 48 38 	sts	0x3848, r1	; 0x803848 <mazeCnt>
            if (mazeCnt >= 3) {
                mazeCnt = 0;
     a7c:	80 91 0c 38 	lds	r24, 0x380C	; 0x80380c <mazeState>
                if (mazeState == TRUE) {
     a80:	81 30       	cpi	r24, 0x01	; 1
     a82:	81 f5       	brne	.+96     	; 0xae4 <MagnetMaze+0x1ea>
     a84:	80 91 49 38 	lds	r24, 0x3849	; 0x803849 <mazeHckrPos>
                    /* TODO play tone GOOD */
                    iLED[HCKR[G][mazeHckrPos]] = dimValue;
     a88:	e8 2f       	mov	r30, r24
     a8a:	f0 e0       	ldi	r31, 0x00	; 0
     a8c:	e8 53       	subi	r30, 0x38	; 56
     a8e:	f1 44       	sbci	r31, 0x41	; 65
     a90:	e6 81       	ldd	r30, Z+6	; 0x06
     a92:	f0 e0       	ldi	r31, 0x00	; 0
     a94:	90 91 0b 38 	lds	r25, 0x380B	; 0x80380b <dimValue>
     a98:	e6 53       	subi	r30, 0x36	; 54
     a9a:	f5 4c       	sbci	r31, 0xC5	; 197
     a9c:	90 83       	st	Z, r25
     a9e:	8f 5f       	subi	r24, 0xFF	; 255
                    mazeHckrPos++;
     aa0:	80 93 49 38 	sts	0x3849, r24	; 0x803849 <mazeHckrPos>
                    if (mazePos == sizeof(mazeCode)) {
     aa4:	22 31       	cpi	r18, 0x12	; 18
     aa6:	89 f5       	brne	.+98     	; 0xb0a <MagnetMaze+0x210>
                        UpdateState(MAZE_COMPLETED);
     aa8:	8d e7       	ldi	r24, 0x7D	; 125
     aaa:	44 d5       	rcall	.+2696   	; 0x1534 <UpdateState>
     aac:	ec 2f       	mov	r30, r28
                        iLED[CAT]       = 0;
     aae:	f0 e0       	ldi	r31, 0x00	; 0
     ab0:	e6 53       	subi	r30, 0x36	; 54
     ab2:	f5 4c       	sbci	r31, 0xC5	; 197
     ab4:	10 82       	st	Z, r1
     ab6:	e0 91 c5 be 	lds	r30, 0xBEC5	; 0x80bec5 <__bss_end+0x83ab>
                        iLED[EYE[R][L]] = 0;
     aba:	f0 e0       	ldi	r31, 0x00	; 0
     abc:	e6 53       	subi	r30, 0x36	; 54
     abe:	f5 4c       	sbci	r31, 0xC5	; 197
     ac0:	10 82       	st	Z, r1
     ac2:	e0 91 c4 be 	lds	r30, 0xBEC4	; 0x80bec4 <__bss_end+0x83aa>
                        iLED[EYE[R][R]] = 0;
     ac6:	f0 e0       	ldi	r31, 0x00	; 0
     ac8:	e6 53       	subi	r30, 0x36	; 54
     aca:	f5 4c       	sbci	r31, 0xC5	; 197
     acc:	10 82       	st	Z, r1
     ace:	e0 91 c7 be 	lds	r30, 0xBEC7	; 0x80bec7 <__bss_end+0x83ad>
                        iLED[EYE[G][L]] = dimValue;
     ad2:	f0 e0       	ldi	r31, 0x00	; 0
     ad4:	80 91 0b 38 	lds	r24, 0x380B	; 0x80380b <dimValue>
     ad8:	e6 53       	subi	r30, 0x36	; 54
     ada:	f5 4c       	sbci	r31, 0xC5	; 197
     adc:	80 83       	st	Z, r24
                        iLED[EYE[G][R]] = dimValue;
     ade:	e0 91 c6 be 	lds	r30, 0xBEC6	; 0x80bec6 <__bss_end+0x83ac>
     ae2:	0d c0       	rjmp	.+26     	; 0xafe <MagnetMaze+0x204>
                        /*state = STATE_MUSIC;*/
                    }
                } else {
                    initMaze();
     ae4:	9e de       	rcall	.-708    	; 0x822 <initMaze>
     ae6:	10 92 3c 38 	sts	0x383C, r1	; 0x80383c <gameNow>
                    gameNow   = TEXT;
     aea:	e0 91 c5 be 	lds	r30, 0xBEC5	; 0x80bec5 <__bss_end+0x83ab>
                    iLED[EYE[R][L]] = dimValue;
     aee:	f0 e0       	ldi	r31, 0x00	; 0
     af0:	80 91 0b 38 	lds	r24, 0x380B	; 0x80380b <dimValue>
     af4:	e6 53       	subi	r30, 0x36	; 54
     af6:	f5 4c       	sbci	r31, 0xC5	; 197
     af8:	80 83       	st	Z, r24
     afa:	e0 91 c4 be 	lds	r30, 0xBEC4	; 0x80bec4 <__bss_end+0x83aa>
                    iLED[EYE[R][R]] = dimValue;
     afe:	f0 e0       	ldi	r31, 0x00	; 0
     b00:	80 91 0b 38 	lds	r24, 0x380B	; 0x80380b <dimValue>
     b04:	e6 53       	subi	r30, 0x36	; 54
     b06:	f5 4c       	sbci	r31, 0xC5	; 197
     b08:	80 83       	st	Z, r24
     b0a:	80 e0       	ldi	r24, 0x00	; 0
                }
            }
        }
    }
    return 0;
}
     b0c:	df 91       	pop	r29
     b0e:	cf 91       	pop	r28
     b10:	08 95       	ret

00000b12 <Setup>:
     b12:	cf 93       	push	r28
volatile uint16_t tmp16bit;    
volatile uint8_t mask[8] = {0x01, 0x03, 0x07, 0x0f, 0x1f, 0x3f, 0x7f, 0xff};
uint8_t HeartCount = 0;
uint8_t LedCount = 0;

void Setup(){
     b14:	df 93       	push	r29
    cli();
     b16:	f8 94       	cli

    //Set up clock at 10MHz
    CCP = CCP_IOREG_gc;
     b18:	88 ed       	ldi	r24, 0xD8	; 216
     b1a:	84 bf       	out	0x34, r24	; 52
    CLKCTRL_MCLKCTRLB = 0x01;
     b1c:	c1 e0       	ldi	r28, 0x01	; 1
     b1e:	c0 93 61 00 	sts	0x0061, r28	; 0x800061 <__TEXT_REGION_LENGTH__+0x700061>

    //Set I/O direction registers
    PORTA_DIR = 0b01001010;
     b22:	8a e4       	ldi	r24, 0x4A	; 74
     b24:	80 93 00 04 	sts	0x0400, r24	; 0x800400 <__TEXT_REGION_LENGTH__+0x700400>
    PORTB_DIR = 0b01111100;
     b28:	8c e7       	ldi	r24, 0x7C	; 124
     b2a:	80 93 20 04 	sts	0x0420, r24	; 0x800420 <__TEXT_REGION_LENGTH__+0x700420>
    PORTC_DIR = 0b00111111;
     b2e:	9f e3       	ldi	r25, 0x3F	; 63
     b30:	90 93 40 04 	sts	0x0440, r25	; 0x800440 <__TEXT_REGION_LENGTH__+0x700440>

    //Invert some pins for correcting LED reversal error
    PORTC_PIN3CTRL |= 0x80;
     b34:	80 91 53 04 	lds	r24, 0x0453	; 0x800453 <__TEXT_REGION_LENGTH__+0x700453>
     b38:	80 68       	ori	r24, 0x80	; 128
     b3a:	80 93 53 04 	sts	0x0453, r24	; 0x800453 <__TEXT_REGION_LENGTH__+0x700453>
    PORTC_PIN4CTRL |= 0x80;
     b3e:	80 91 54 04 	lds	r24, 0x0454	; 0x800454 <__TEXT_REGION_LENGTH__+0x700454>
     b42:	80 68       	ori	r24, 0x80	; 128
     b44:	80 93 54 04 	sts	0x0454, r24	; 0x800454 <__TEXT_REGION_LENGTH__+0x700454>
    PORTC_PIN5CTRL |= 0x80;
     b48:	80 91 55 04 	lds	r24, 0x0455	; 0x800455 <__TEXT_REGION_LENGTH__+0x700455>
     b4c:	80 68       	ori	r24, 0x80	; 128
     b4e:	80 93 55 04 	sts	0x0455, r24	; 0x800455 <__TEXT_REGION_LENGTH__+0x700455>
    PORTB_PIN3CTRL |= 0x80;
     b52:	80 91 33 04 	lds	r24, 0x0433	; 0x800433 <__TEXT_REGION_LENGTH__+0x700433>
     b56:	80 68       	ori	r24, 0x80	; 128
     b58:	80 93 33 04 	sts	0x0433, r24	; 0x800433 <__TEXT_REGION_LENGTH__+0x700433>
    PORTB_PIN4CTRL |= 0x80;
     b5c:	80 91 34 04 	lds	r24, 0x0434	; 0x800434 <__TEXT_REGION_LENGTH__+0x700434>
     b60:	80 68       	ori	r24, 0x80	; 128
     b62:	80 93 34 04 	sts	0x0434, r24	; 0x800434 <__TEXT_REGION_LENGTH__+0x700434>
    PORTB_PIN5CTRL |= 0x80;
     b66:	80 91 35 04 	lds	r24, 0x0435	; 0x800435 <__TEXT_REGION_LENGTH__+0x700435>
     b6a:	80 68       	ori	r24, 0x80	; 128
     b6c:	80 93 35 04 	sts	0x0435, r24	; 0x800435 <__TEXT_REGION_LENGTH__+0x700435>
    PORTB_PIN2CTRL |= 0x80;
    PORTB_PIN6CTRL |= 0x80;
    */

    //UART (Alternative pins PA1=TxD, PA2=RxD, baudrate 9600, 8n1, RX and Buffer empty interrupts on)
    PORTMUX_CTRLB = 0x01;
     b70:	c0 93 01 02 	sts	0x0201, r28	; 0x800201 <__TEXT_REGION_LENGTH__+0x700201>
    PORTA_OUTSET = 0x02;
     b74:	d2 e0       	ldi	r29, 0x02	; 2
     b76:	d0 93 05 04 	sts	0x0405, r29	; 0x800405 <__TEXT_REGION_LENGTH__+0x700405>
    USART0_BAUD = (uint16_t)USART0_BAUD_RATE(115200);
     b7a:	2b e5       	ldi	r18, 0x5B	; 91
     b7c:	31 e0       	ldi	r19, 0x01	; 1
     b7e:	20 93 08 08 	sts	0x0808, r18	; 0x800808 <__TEXT_REGION_LENGTH__+0x700808>
     b82:	30 93 09 08 	sts	0x0809, r19	; 0x800809 <__TEXT_REGION_LENGTH__+0x700809>
    USART0_CTRLA = 0xA0; //Interrupts on
     b86:	80 ea       	ldi	r24, 0xA0	; 160
     b88:	80 93 05 08 	sts	0x0805, r24	; 0x800805 <__TEXT_REGION_LENGTH__+0x700805>
    USART0_CTRLB = 0xC0; //RX and TX on
     b8c:	80 ec       	ldi	r24, 0xC0	; 192
     b8e:	80 93 06 08 	sts	0x0806, r24	; 0x800806 <__TEXT_REGION_LENGTH__+0x700806>
    USART0_CTRLC = 0x03; //8 bits data, no parity, 1 stop bit
     b92:	83 e0       	ldi	r24, 0x03	; 3
     b94:	80 93 07 08 	sts	0x0807, r24	; 0x800807 <__TEXT_REGION_LENGTH__+0x700807>
     
    //GPIO registers 0..3 can be used for global variables used in ISR routines (ASM capability: IN, OUT, SBI, CBI, SBIS, SBIC)
    L_COL = 0;     //Used in LED array to hold currently driven column value
     b98:	1c ba       	out	0x1c, r1	; 28
    RXCNT = 0;     //Used as UART receive counter
     b9a:	1d ba       	out	0x1d, r1	; 29
    AUPOS = 0;     //Used as audio input/output buffer counter
     b9c:	1e ba       	out	0x1e, r1	; 30
    GPIOR3 = 0;    //
     b9e:	1f ba       	out	0x1f, r1	; 31

    //Init TCA (split mode, f_CLK/16, PWM on 6 alternative pins, underflow int enabled, synced and started)
    TCA0_SPLIT_CTRLD = 1;
     ba0:	c0 93 03 0a 	sts	0x0A03, r28	; 0x800a03 <__TEXT_REGION_LENGTH__+0x700a03>
    TCA0_SPLIT_CTRLA = (0x4)<<1;
     ba4:	88 e0       	ldi	r24, 0x08	; 8
     ba6:	80 93 00 0a 	sts	0x0A00, r24	; 0x800a00 <__TEXT_REGION_LENGTH__+0x700a00>
    PORTMUX_CTRLC = 0x3F;
     baa:	90 93 02 02 	sts	0x0202, r25	; 0x800202 <__TEXT_REGION_LENGTH__+0x700202>
    TCA0_SPLIT_CTRLB = 0x77;
     bae:	87 e7       	ldi	r24, 0x77	; 119
     bb0:	80 93 01 0a 	sts	0x0A01, r24	; 0x800a01 <__TEXT_REGION_LENGTH__+0x700a01>
    TCA0_SPLIT_INTCTRL = 0x1;
     bb4:	c0 93 0a 0a 	sts	0x0A0A, r28	; 0x800a0a <__TEXT_REGION_LENGTH__+0x700a0a>
    TCA0_SPLIT_CTRLESET = ((0x2)<<2)|0x3;
     bb8:	8b e0       	ldi	r24, 0x0B	; 11
     bba:	80 93 05 0a 	sts	0x0A05, r24	; 0x800a05 <__TEXT_REGION_LENGTH__+0x700a05>
    TCA0_SPLIT_CTRLA |= 1;
     bbe:	80 91 00 0a 	lds	r24, 0x0A00	; 0x800a00 <__TEXT_REGION_LENGTH__+0x700a00>
     bc2:	81 60       	ori	r24, 0x01	; 1
     bc4:	80 93 00 0a 	sts	0x0A00, r24	; 0x800a00 <__TEXT_REGION_LENGTH__+0x700a00>
     
    //Init TCB0 (compare value sets serial Tx pause between characters, uses TCA0 prescaler, enabled, interrupt disabled)
    TCB0_CTRLA = ((0x02)<<1)|0x01;
     bc8:	85 e0       	ldi	r24, 0x05	; 5
     bca:	80 93 40 0a 	sts	0x0A40, r24	; 0x800a40 <__TEXT_REGION_LENGTH__+0x700a40>
    TCB0_CTRLB = 0;
     bce:	10 92 41 0a 	sts	0x0A41, r1	; 0x800a41 <__TEXT_REGION_LENGTH__+0x700a41>
    TCB0_CCMP = 0x01FF;
     bd2:	8f ef       	ldi	r24, 0xFF	; 255
     bd4:	91 e0       	ldi	r25, 0x01	; 1
     bd6:	80 93 4c 0a 	sts	0x0A4C, r24	; 0x800a4c <__TEXT_REGION_LENGTH__+0x700a4c>
     bda:	90 93 4d 0a 	sts	0x0A4D, r25	; 0x800a4d <__TEXT_REGION_LENGTH__+0x700a4d>
    TCB0_INTCTRL = 0x00;     
     bde:	10 92 45 0a 	sts	0x0A45, r1	; 0x800a45 <__TEXT_REGION_LENGTH__+0x700a45>
     
    //Init TCB1 (compare value sets audio sample rate (0x038B = 11025sps), enabled, interrupt enabled)
    TCB1_CTRLA = 0x01;
     be2:	c0 93 50 0a 	sts	0x0A50, r28	; 0x800a50 <__TEXT_REGION_LENGTH__+0x700a50>
    TCB1_CTRLB = 0;
     be6:	10 92 51 0a 	sts	0x0A51, r1	; 0x800a51 <__TEXT_REGION_LENGTH__+0x700a51>
    TCB1_CCMP = 0x038B;
     bea:	8b e8       	ldi	r24, 0x8B	; 139
     bec:	93 e0       	ldi	r25, 0x03	; 3
     bee:	80 93 5c 0a 	sts	0x0A5C, r24	; 0x800a5c <__TEXT_REGION_LENGTH__+0x700a5c>
     bf2:	90 93 5d 0a 	sts	0x0A5D, r25	; 0x800a5d <__TEXT_REGION_LENGTH__+0x700a5d>
    TCB1_INTCTRL = 0x01;
     bf6:	c0 93 55 0a 	sts	0x0A55, r28	; 0x800a55 <__TEXT_REGION_LENGTH__+0x700a55>

    //Init I2C (100kHz)
    I2C_init();
     bfa:	bc db       	rcall	.-2184   	; 0x374 <I2C_init>

    //VREF (DAC, ADC's)
    VREF_CTRLA   = 0x12;    //0x22 for audio in/out (2.5V), 0x12 for temperature in, audio out (1.1V/2.5V)
     bfc:	82 e1       	ldi	r24, 0x12	; 18
     bfe:	80 93 a0 00 	sts	0x00A0, r24	; 0x8000a0 <__TEXT_REGION_LENGTH__+0x7000a0>
    VREF_CTRLC   = 0x20;    //ADC1 reference at 2.5V
     c02:	80 e2       	ldi	r24, 0x20	; 32
     c04:	80 93 a2 00 	sts	0x00A2, r24	; 0x8000a2 <__TEXT_REGION_LENGTH__+0x7000a2>
    VREF_CTRLB   = 0x01;    //DAC0 ref forced enabled
     c08:	c0 93 a1 00 	sts	0x00A1, r28	; 0x8000a1 <__TEXT_REGION_LENGTH__+0x7000a1>

    //Init ADC0 (audio in, also controls DAC output rate, internal temperature?)
    ADC0_CTRLA   = 0x02;    //10 bit resolution, free running
     c0c:	d0 93 00 06 	sts	0x0600, r29	; 0x800600 <__TEXT_REGION_LENGTH__+0x700600>
    ADC0_CTRLC   = 0x44;    //Reduced sample capacitor, internal reference, clock/32 => 24038sps
     c10:	84 e4       	ldi	r24, 0x44	; 68
     c12:	80 93 02 06 	sts	0x0602, r24	; 0x800602 <__TEXT_REGION_LENGTH__+0x700602>
    ADC0_MUXPOS  = 0x1E;    //Audio in: AIN7 at (0x07), Temperature: Internal sensor at (0x1E)
     c16:	8e e1       	ldi	r24, 0x1E	; 30
     c18:	80 93 06 06 	sts	0x0606, r24	; 0x800606 <__TEXT_REGION_LENGTH__+0x700606>
    ADC0_INTCTRL = 0x01;    //Result ready interrupt enabled
     c1c:	c0 93 0a 06 	sts	0x060A, r28	; 0x80060a <__TEXT_REGION_LENGTH__+0x70060a>
    ADC0_CTRLA  |= 0x01;    //ADC0 enabled
     c20:	80 91 00 06 	lds	r24, 0x0600	; 0x800600 <__TEXT_REGION_LENGTH__+0x700600>
     c24:	81 60       	ori	r24, 0x01	; 1
     c26:	80 93 00 06 	sts	0x0600, r24	; 0x800600 <__TEXT_REGION_LENGTH__+0x700600>
    ADC0_COMMAND = 0x01;    //Start first conversion, after that it will run periodically.
     c2a:	c0 93 08 06 	sts	0x0608, r28	; 0x800608 <__TEXT_REGION_LENGTH__+0x700608>

    //Init ADC1 (buttons and sensors: CH0=Photo transistor, CH1=Hall, CH4=Buttons)
    ADC1_CTRLA   = 0;
     c2e:	10 92 40 06 	sts	0x0640, r1	; 0x800640 <__TEXT_REGION_LENGTH__+0x700640>
    ADC1_CTRLB   = 0x02;    //4 results automatically accumulated
     c32:	d0 93 41 06 	sts	0x0641, r29	; 0x800641 <__TEXT_REGION_LENGTH__+0x700641>
    ADC1_CTRLC   = 0x52;    //Reduced sample capacitor, VDD as reference, clock/8
     c36:	82 e5       	ldi	r24, 0x52	; 82
     c38:	80 93 42 06 	sts	0x0642, r24	; 0x800642 <__TEXT_REGION_LENGTH__+0x700642>
    ADC1_SAMPCTRL= 0x04;    //Extend sampling time with 4 cycles (6 total)
     c3c:	84 e0       	ldi	r24, 0x04	; 4
     c3e:	80 93 45 06 	sts	0x0645, r24	; 0x800645 <__TEXT_REGION_LENGTH__+0x700645>
    ADC1_MUXPOS  = 0x04;    //Start with Buttons, for sensors, activate sensor power first.
     c42:	80 93 46 06 	sts	0x0646, r24	; 0x800646 <__TEXT_REGION_LENGTH__+0x700646>
    ADC1_INTCTRL = 0x01;    //Result ready interrupt enabled
     c46:	c0 93 4a 06 	sts	0x064A, r28	; 0x80064a <__TEXT_REGION_LENGTH__+0x70064a>
    ADC1_CTRLA  |= 0x01;    //ADC0 enabled
     c4a:	80 91 40 06 	lds	r24, 0x0640	; 0x800640 <__TEXT_REGION_LENGTH__+0x700640>
     c4e:	81 60       	ori	r24, 0x01	; 1
     c50:	80 93 40 06 	sts	0x0640, r24	; 0x800640 <__TEXT_REGION_LENGTH__+0x700640>
    ADC1_COMMAND = 0x01;    //Start single conversion
     c54:	c0 93 48 06 	sts	0x0648, r28	; 0x800648 <__TEXT_REGION_LENGTH__+0x700648>

    //Init DAC0
    DAC0_CTRLA = 0x40;     //Enable output buffer (connect to pin)
     c58:	80 e4       	ldi	r24, 0x40	; 64
     c5a:	80 93 a0 06 	sts	0x06A0, r24	; 0x8006a0 <__TEXT_REGION_LENGTH__+0x7006a0>
    DAC0_DATA = 0x80;      //Data value at half point (about 1.25V)
     c5e:	80 e8       	ldi	r24, 0x80	; 128
     c60:	80 93 a1 06 	sts	0x06A1, r24	; 0x8006a1 <__TEXT_REGION_LENGTH__+0x7006a1>
    DAC0_CTRLA |= 0x01;    //Enable DAC
     c64:	80 91 a0 06 	lds	r24, 0x06A0	; 0x8006a0 <__TEXT_REGION_LENGTH__+0x7006a0>
     c68:	81 60       	ori	r24, 0x01	; 1
     c6a:	80 93 a0 06 	sts	0x06A0, r24	; 0x8006a0 <__TEXT_REGION_LENGTH__+0x7006a0>
     
    //PIT and RTC interrupts
    while(RTC_STATUS & RTC_CTRLABUSY_bm);
     c6e:	80 91 41 01 	lds	r24, 0x0141	; 0x800141 <__TEXT_REGION_LENGTH__+0x700141>
     c72:	80 fd       	sbrc	r24, 0
     c74:	fc cf       	rjmp	.-8      	; 0xc6e <Setup+0x15c>
    RTC_CTRLA          = (0x6)<<3;                         //Prescaler: /64
     c76:	80 e3       	ldi	r24, 0x30	; 48
     c78:	80 93 40 01 	sts	0x0140, r24	; 0x800140 <__TEXT_REGION_LENGTH__+0x700140>
    RTC_CLKSEL         = 0;                                //Clock source: internal 32768Hz clock
     c7c:	10 92 47 01 	sts	0x0147, r1	; 0x800147 <__TEXT_REGION_LENGTH__+0x700147>
    while(RTC_STATUS & RTC_PERBUSY_bm);
     c80:	80 91 41 01 	lds	r24, 0x0141	; 0x800141 <__TEXT_REGION_LENGTH__+0x700141>
     c84:	82 fd       	sbrc	r24, 2
     c86:	fc cf       	rjmp	.-8      	; 0xc80 <Setup+0x16e>
    RTC_PER            = 512*60;                           //60 second period (for clocking how long the device has been running?)
     c88:	80 e0       	ldi	r24, 0x00	; 0
     c8a:	98 e7       	ldi	r25, 0x78	; 120
     c8c:	80 93 4a 01 	sts	0x014A, r24	; 0x80014a <__TEXT_REGION_LENGTH__+0x70014a>
     c90:	90 93 4b 01 	sts	0x014B, r25	; 0x80014b <__TEXT_REGION_LENGTH__+0x70014b>
    tmp16bit = (RTC_CNT + BTN_TMR);
     c94:	80 91 48 01 	lds	r24, 0x0148	; 0x800148 <__TEXT_REGION_LENGTH__+0x700148>
     c98:	90 91 49 01 	lds	r25, 0x0149	; 0x800149 <__TEXT_REGION_LENGTH__+0x700149>
     c9c:	82 96       	adiw	r24, 0x22	; 34
     c9e:	80 93 f7 3a 	sts	0x3AF7, r24	; 0x803af7 <tmp16bit>
     ca2:	90 93 f8 3a 	sts	0x3AF8, r25	; 0x803af8 <tmp16bit+0x1>
    if (tmp16bit > RTC_PER) tmp16bit -= RTC_PER;
     ca6:	20 91 4a 01 	lds	r18, 0x014A	; 0x80014a <__TEXT_REGION_LENGTH__+0x70014a>
     caa:	30 91 4b 01 	lds	r19, 0x014B	; 0x80014b <__TEXT_REGION_LENGTH__+0x70014b>
     cae:	80 91 f7 3a 	lds	r24, 0x3AF7	; 0x803af7 <tmp16bit>
     cb2:	90 91 f8 3a 	lds	r25, 0x3AF8	; 0x803af8 <tmp16bit+0x1>
     cb6:	28 17       	cp	r18, r24
     cb8:	39 07       	cpc	r19, r25
     cba:	70 f4       	brcc	.+28     	; 0xcd8 <Setup+0x1c6>
     cbc:	20 91 4a 01 	lds	r18, 0x014A	; 0x80014a <__TEXT_REGION_LENGTH__+0x70014a>
     cc0:	30 91 4b 01 	lds	r19, 0x014B	; 0x80014b <__TEXT_REGION_LENGTH__+0x70014b>
     cc4:	80 91 f7 3a 	lds	r24, 0x3AF7	; 0x803af7 <tmp16bit>
     cc8:	90 91 f8 3a 	lds	r25, 0x3AF8	; 0x803af8 <tmp16bit+0x1>
     ccc:	82 1b       	sub	r24, r18
     cce:	93 0b       	sbc	r25, r19
     cd0:	80 93 f7 3a 	sts	0x3AF7, r24	; 0x803af7 <tmp16bit>
     cd4:	90 93 f8 3a 	sts	0x3AF8, r25	; 0x803af8 <tmp16bit+0x1>
    while(RTC_STATUS & RTC_CMPBUSY_bm);
     cd8:	80 91 41 01 	lds	r24, 0x0141	; 0x800141 <__TEXT_REGION_LENGTH__+0x700141>
     cdc:	83 fd       	sbrc	r24, 3
     cde:	fc cf       	rjmp	.-8      	; 0xcd8 <Setup+0x1c6>
    RTC_CMP            = tmp16bit;                         //Button timing
     ce0:	80 91 f7 3a 	lds	r24, 0x3AF7	; 0x803af7 <tmp16bit>
     ce4:	90 91 f8 3a 	lds	r25, 0x3AF8	; 0x803af8 <tmp16bit+0x1>
     ce8:	80 93 4c 01 	sts	0x014C, r24	; 0x80014c <__TEXT_REGION_LENGTH__+0x70014c>
     cec:	90 93 4d 01 	sts	0x014D, r25	; 0x80014d <__TEXT_REGION_LENGTH__+0x70014d>
    RTC_INTCTRL        = 0x03;                             //RTC overflow interrupt enabled
     cf0:	83 e0       	ldi	r24, 0x03	; 3
     cf2:	80 93 42 01 	sts	0x0142, r24	; 0x800142 <__TEXT_REGION_LENGTH__+0x700142>
    RTC_PITINTCTRL     = 0x01;                             //PIT interrupt enabled
     cf6:	81 e0       	ldi	r24, 0x01	; 1
     cf8:	80 93 52 01 	sts	0x0152, r24	; 0x800152 <__TEXT_REGION_LENGTH__+0x700152>
    RTC_PITCTRLA       = (0x1)<<3;                         //Interrupt fires after 4 RTC clock cycles Rate=(RTCCLK/(PRESC*PERIOD)) 32768/256=128Hz
     cfc:	88 e0       	ldi	r24, 0x08	; 8
     cfe:	80 93 50 01 	sts	0x0150, r24	; 0x800150 <__TEXT_REGION_LENGTH__+0x700150>
    while(RTC_STATUS & RTC_CTRLABUSY_bm);      
     d02:	80 91 41 01 	lds	r24, 0x0141	; 0x800141 <__TEXT_REGION_LENGTH__+0x700141>
     d06:	80 fd       	sbrc	r24, 0
     d08:	fc cf       	rjmp	.-8      	; 0xd02 <Setup+0x1f0>
    RTC_CTRLA          |= 0x01;                            //Enable RTC
     d0a:	80 91 40 01 	lds	r24, 0x0140	; 0x800140 <__TEXT_REGION_LENGTH__+0x700140>
     d0e:	81 60       	ori	r24, 0x01	; 1
     d10:	80 93 40 01 	sts	0x0140, r24	; 0x800140 <__TEXT_REGION_LENGTH__+0x700140>
    RTC_PITCTRLA       |= 0x01;                            //Enable PIT
     d14:	80 91 50 01 	lds	r24, 0x0150	; 0x800150 <__TEXT_REGION_LENGTH__+0x700150>
     d18:	81 60       	ori	r24, 0x01	; 1
     d1a:	80 93 50 01 	sts	0x0150, r24	; 0x800150 <__TEXT_REGION_LENGTH__+0x700150>
     
    //Other inits
    serRx[0] = 0;           // Empty Rx buffer (first char is enough)
     d1e:	10 92 75 3a 	sts	0x3A75, r1	; 0x803a75 <serRx>
    serTxAddr = &serRx[0];  // Point to first address of the Rx buffer
     d22:	85 e7       	ldi	r24, 0x75	; 117
     d24:	9a e3       	ldi	r25, 0x3A	; 58
     d26:	80 93 b9 3a 	sts	0x3AB9, r24	; 0x803ab9 <serTxAddr>
     d2a:	90 93 ba 3a 	sts	0x3ABA, r25	; 0x803aba <serTxAddr+0x1>

    sei();
     d2e:	78 94       	sei
}
     d30:	df 91       	pop	r29
     d32:	cf 91       	pop	r28
     d34:	08 95       	ret

00000d36 <__vector_8>:

// TCA0 is used for driving the LED matrix at 488Hz (* 5 columns = 2440Hz). The lower 8 bit underflow interrupt is used to load new values and shift between columns.
ISR(TCA0_LUNF_vect){
     d36:	1f 92       	push	r1
     d38:	0f 92       	push	r0
     d3a:	0f b6       	in	r0, 0x3f	; 63
     d3c:	0f 92       	push	r0
     d3e:	11 24       	eor	r1, r1
     d40:	8f 93       	push	r24
     d42:	9f 93       	push	r25
     d44:	af 93       	push	r26
     d46:	bf 93       	push	r27
     d48:	ef 93       	push	r30
     d4a:	ff 93       	push	r31
    //Turn off all columns
    PORTC_OUTCLR = 0x07;
     d4c:	87 e0       	ldi	r24, 0x07	; 7
     d4e:	80 93 46 04 	sts	0x0446, r24	; 0x800446 <__TEXT_REGION_LENGTH__+0x700446>
    PORTB_OUTCLR = 0x44;
     d52:	84 e4       	ldi	r24, 0x44	; 68
     d54:	80 93 26 04 	sts	0x0426, r24	; 0x800426 <__TEXT_REGION_LENGTH__+0x700426>
    "ldi r25, 6        \n"
    "ld r24, %a[arr]+  \n"
    "st %a[wo]+, r24   \n"
    "dec r25           \n"
    "brne .-8          \n"
    :: [wo] "e" (&TCA0_SPLIT_LCMP0), [arr] "e" (&iLED[(L_COL<<3)]) : "r25", "r24", "cc", "memory");
     d58:	ec b3       	in	r30, 0x1c	; 28
     d5a:	88 e0       	ldi	r24, 0x08	; 8
     d5c:	e8 9f       	mul	r30, r24
     d5e:	f0 01       	movw	r30, r0
     d60:	11 24       	eor	r1, r1
     d62:	e6 53       	subi	r30, 0x36	; 54
     d64:	f5 4c       	sbci	r31, 0xC5	; 197
    //Turn off all columns
    PORTC_OUTCLR = 0x07;
    PORTB_OUTCLR = 0x44;

    //Write all of the compare registers of TCA0 with PWM values in array (rows)
    asm(
     d66:	a8 e2       	ldi	r26, 0x28	; 40
     d68:	ba e0       	ldi	r27, 0x0A	; 10
     d6a:	96 e0       	ldi	r25, 0x06	; 6
     d6c:	81 91       	ld	r24, Z+
     d6e:	8d 93       	st	X+, r24
     d70:	9a 95       	dec	r25
     d72:	e1 f7       	brne	.-8      	; 0xd6c <__vector_8+0x36>
    "st %a[wo]+, r24   \n"
    "dec r25           \n"
    "brne .-8          \n"
    :: [wo] "e" (&TCA0_SPLIT_LCMP0), [arr] "e" (&iLED[(L_COL<<3)]) : "r25", "r24", "cc", "memory");

    TCA0_SPLIT_CTRLESET = ((0x2)<<2)|0x3; //Sync timers: Moved this below the PWM value loading to fix the data shifting in asm above.
     d74:	8b e0       	ldi	r24, 0x0B	; 11
     d76:	80 93 05 0a 	sts	0x0A05, r24	; 0x800a05 <__TEXT_REGION_LENGTH__+0x700a05>

    //Turn on the right column
    if (L_COL<3) {
     d7a:	8c b3       	in	r24, 0x1c	; 28
     d7c:	83 30       	cpi	r24, 0x03	; 3
     d7e:	58 f4       	brcc	.+22     	; 0xd96 <__vector_8+0x60>
        asm(
     d80:	8c b3       	in	r24, 0x1c	; 28
     d82:	91 e0       	ldi	r25, 0x01	; 1
     d84:	01 c0       	rjmp	.+2      	; 0xd88 <__vector_8+0x52>
     d86:	99 0f       	add	r25, r25
     d88:	8a 95       	dec	r24
     d8a:	ea f7       	brpl	.-6      	; 0xd86 <__vector_8+0x50>
     d8c:	99 b9       	out	0x09, r25	; 9
     d8e:	8c b3       	in	r24, 0x1c	; 28
     d90:	83 95       	inc	r24
     d92:	8c bb       	out	0x1c, r24	; 28
     d94:	0a c0       	rjmp	.+20     	; 0xdaa <__vector_8+0x74>
        "in r24, %[io0]  \n"
        "inc r24         \n"
        "out %[io0], r24 \n"
        :: [io0] "I" (&L_COL), [vpc] "I" (&VPORTC_OUT) : "r24", "r25", "cc");
        } else {
        asm(
     d96:	8c b3       	in	r24, 0x1c	; 28
     d98:	83 30       	cpi	r24, 0x03	; 3
     d9a:	21 f4       	brne	.+8      	; 0xda4 <__vector_8+0x6e>
     d9c:	2a 9a       	sbi	0x05, 2	; 5
     d9e:	83 95       	inc	r24
     da0:	8c bb       	out	0x1c, r24	; 28
     da2:	03 c0       	rjmp	.+6      	; 0xdaa <__vector_8+0x74>
     da4:	2e 9a       	sbi	0x05, 6	; 5
     da6:	88 27       	eor	r24, r24
     da8:	8c bb       	out	0x1c, r24	; 28
        "clr r24         \n"
        "out %[io0], r24 \n"
        :: [io0] "I" (&L_COL), [vpb] "I" (&VPORTB_OUT) : "r24", "cc");
    }
    
    if(timeout_I2C) --timeout_I2C;
     daa:	80 91 60 3a 	lds	r24, 0x3A60	; 0x803a60 <timeout_I2C>
     dae:	88 23       	and	r24, r24
     db0:	29 f0       	breq	.+10     	; 0xdbc <__vector_8+0x86>
     db2:	80 91 60 3a 	lds	r24, 0x3A60	; 0x803a60 <timeout_I2C>
     db6:	81 50       	subi	r24, 0x01	; 1
     db8:	80 93 60 3a 	sts	0x3A60, r24	; 0x803a60 <timeout_I2C>
    TCA0_SPLIT_INTFLAGS = 0xFF;
     dbc:	8f ef       	ldi	r24, 0xFF	; 255
     dbe:	80 93 0b 0a 	sts	0x0A0B, r24	; 0x800a0b <__TEXT_REGION_LENGTH__+0x700a0b>
}
     dc2:	ff 91       	pop	r31
     dc4:	ef 91       	pop	r30
     dc6:	bf 91       	pop	r27
     dc8:	af 91       	pop	r26
     dca:	9f 91       	pop	r25
     dcc:	8f 91       	pop	r24
     dce:	0f 90       	pop	r0
     dd0:	0f be       	out	0x3f, r0	; 63
     dd2:	0f 90       	pop	r0
     dd4:	1f 90       	pop	r1
     dd6:	18 95       	reti

00000dd8 <__vector_13>:

// TCB0 is used for (slowly) sending serial characters. A 0x00 character code is needed to terminate sending or it will leak memory to serial. It's a feature, honest! 
ISR(TCB0_INT_vect){
     dd8:	1f 92       	push	r1
     dda:	0f 92       	push	r0
     ddc:	0f b6       	in	r0, 0x3f	; 63
     dde:	0f 92       	push	r0
     de0:	11 24       	eor	r1, r1
     de2:	8f 93       	push	r24
     de4:	9f 93       	push	r25
     de6:	ef 93       	push	r30
     de8:	ff 93       	push	r31
    if (*serTxAddr) {
     dea:	e0 91 b9 3a 	lds	r30, 0x3AB9	; 0x803ab9 <serTxAddr>
     dee:	f0 91 ba 3a 	lds	r31, 0x3ABA	; 0x803aba <serTxAddr+0x1>
     df2:	80 81       	ld	r24, Z
     df4:	88 23       	and	r24, r24
     df6:	91 f0       	breq	.+36     	; 0xe1c <__vector_13+0x44>
        USART0_TXDATAL = *serTxAddr;
     df8:	80 81       	ld	r24, Z
     dfa:	80 93 02 08 	sts	0x0802, r24	; 0x800802 <__TEXT_REGION_LENGTH__+0x700802>
        serTxAddr++;
     dfe:	80 91 b9 3a 	lds	r24, 0x3AB9	; 0x803ab9 <serTxAddr>
     e02:	90 91 ba 3a 	lds	r25, 0x3ABA	; 0x803aba <serTxAddr+0x1>
     e06:	01 96       	adiw	r24, 0x01	; 1
     e08:	80 93 b9 3a 	sts	0x3AB9, r24	; 0x803ab9 <serTxAddr>
     e0c:	90 93 ba 3a 	sts	0x3ABA, r25	; 0x803aba <serTxAddr+0x1>
        USART0_CTRLA |= USART_DREIE_bm;
     e10:	80 91 05 08 	lds	r24, 0x0805	; 0x800805 <__TEXT_REGION_LENGTH__+0x700805>
     e14:	80 62       	ori	r24, 0x20	; 32
     e16:	80 93 05 08 	sts	0x0805, r24	; 0x800805 <__TEXT_REGION_LENGTH__+0x700805>
     e1a:	05 c0       	rjmp	.+10     	; 0xe26 <__vector_13+0x4e>
    } else {
        serTxDone = 1;
     e1c:	81 e0       	ldi	r24, 0x01	; 1
     e1e:	80 93 0a 38 	sts	0x380A, r24	; 0x80380a <serTxDone>
        TCB0_INTCTRL = 0x00;
     e22:	10 92 45 0a 	sts	0x0A45, r1	; 0x800a45 <__TEXT_REGION_LENGTH__+0x700a45>
    }
    TCB0_INTFLAGS = TCB_CAPT_bm;
     e26:	81 e0       	ldi	r24, 0x01	; 1
     e28:	80 93 46 0a 	sts	0x0A46, r24	; 0x800a46 <__TEXT_REGION_LENGTH__+0x700a46>
}
     e2c:	ff 91       	pop	r31
     e2e:	ef 91       	pop	r30
     e30:	9f 91       	pop	r25
     e32:	8f 91       	pop	r24
     e34:	0f 90       	pop	r0
     e36:	0f be       	out	0x3f, r0	; 63
     e38:	0f 90       	pop	r0
     e3a:	1f 90       	pop	r1
     e3c:	18 95       	reti

00000e3e <__vector_14>:

// TCB1 is used for audio generation. Keeps playing "data" until 0 is reached. Audio sample data can contain 0x01 to 0xFF, centered around 0x80
ISR(TCB1_INT_vect){
     e3e:	1f 92       	push	r1
     e40:	0f 92       	push	r0
     e42:	0f b6       	in	r0, 0x3f	; 63
     e44:	0f 92       	push	r0
     e46:	11 24       	eor	r1, r1
     e48:	2f 93       	push	r18
     e4a:	3f 93       	push	r19
     e4c:	4f 93       	push	r20
     e4e:	8f 93       	push	r24
     e50:	9f 93       	push	r25
     e52:	ef 93       	push	r30
     e54:	ff 93       	push	r31
    int16_t volCtrl;
    if (*auSmpAddr == 0) auSmpAddr = auRepAddr;
     e56:	e0 91 07 38 	lds	r30, 0x3807	; 0x803807 <auSmpAddr>
     e5a:	f0 91 08 38 	lds	r31, 0x3808	; 0x803808 <auSmpAddr+0x1>
     e5e:	80 81       	ld	r24, Z
     e60:	81 11       	cpse	r24, r1
     e62:	08 c0       	rjmp	.+16     	; 0xe74 <__vector_14+0x36>
     e64:	80 91 05 38 	lds	r24, 0x3805	; 0x803805 <auRepAddr>
     e68:	90 91 06 38 	lds	r25, 0x3806	; 0x803806 <auRepAddr+0x1>
     e6c:	80 93 07 38 	sts	0x3807, r24	; 0x803807 <auSmpAddr>
     e70:	90 93 08 38 	sts	0x3808, r25	; 0x803808 <auSmpAddr+0x1>
    if (*auSmpAddr) {
     e74:	e0 91 07 38 	lds	r30, 0x3807	; 0x803807 <auSmpAddr>
     e78:	f0 91 08 38 	lds	r31, 0x3808	; 0x803808 <auSmpAddr+0x1>
     e7c:	80 81       	ld	r24, Z
     e7e:	88 23       	and	r24, r24
     e80:	e1 f0       	breq	.+56     	; 0xeba <__vector_14+0x7c>
        volCtrl = ((((int16_t)(*auSmpAddr) - 0x7f) * auVolume) >> 8) + 0x80;
     e82:	20 81       	ld	r18, Z
     e84:	40 91 b6 3a 	lds	r20, 0x3AB6	; 0x803ab6 <auVolume>
        DAC0_DATA = (uint8_t)(volCtrl);
     e88:	30 e0       	ldi	r19, 0x00	; 0
     e8a:	2f 57       	subi	r18, 0x7F	; 127
     e8c:	31 09       	sbc	r19, r1
     e8e:	42 9f       	mul	r20, r18
     e90:	c0 01       	movw	r24, r0
     e92:	43 9f       	mul	r20, r19
     e94:	90 0d       	add	r25, r0
     e96:	11 24       	eor	r1, r1
     e98:	89 2f       	mov	r24, r25
     e9a:	99 0f       	add	r25, r25
     e9c:	99 0b       	sbc	r25, r25
     e9e:	80 58       	subi	r24, 0x80	; 128
     ea0:	9f 4f       	sbci	r25, 0xFF	; 255
     ea2:	80 93 a1 06 	sts	0x06A1, r24	; 0x8006a1 <__TEXT_REGION_LENGTH__+0x7006a1>
        ++auSmpAddr;
     ea6:	80 91 07 38 	lds	r24, 0x3807	; 0x803807 <auSmpAddr>
     eaa:	90 91 08 38 	lds	r25, 0x3808	; 0x803808 <auSmpAddr+0x1>
     eae:	01 96       	adiw	r24, 0x01	; 1
     eb0:	80 93 07 38 	sts	0x3807, r24	; 0x803807 <auSmpAddr>
     eb4:	90 93 08 38 	sts	0x3808, r25	; 0x803808 <auSmpAddr+0x1>
     eb8:	06 c0       	rjmp	.+12     	; 0xec6 <__vector_14+0x88>
    } else {
        DAC0_DATA = 0x80;
     eba:	80 e8       	ldi	r24, 0x80	; 128
     ebc:	80 93 a1 06 	sts	0x06A1, r24	; 0x8006a1 <__TEXT_REGION_LENGTH__+0x7006a1>
        auPlayDone = 1;
     ec0:	81 e0       	ldi	r24, 0x01	; 1
     ec2:	80 93 f2 3a 	sts	0x3AF2, r24	; 0x803af2 <auPlayDone>
    }
    TCB1_INTFLAGS = TCB_CAPT_bm;
     ec6:	81 e0       	ldi	r24, 0x01	; 1
     ec8:	80 93 56 0a 	sts	0x0A56, r24	; 0x800a56 <__TEXT_REGION_LENGTH__+0x700a56>
}
     ecc:	ff 91       	pop	r31
     ece:	ef 91       	pop	r30
     ed0:	9f 91       	pop	r25
     ed2:	8f 91       	pop	r24
     ed4:	4f 91       	pop	r20
     ed6:	3f 91       	pop	r19
     ed8:	2f 91       	pop	r18
     eda:	0f 90       	pop	r0
     edc:	0f be       	out	0x3f, r0	; 63
     ede:	0f 90       	pop	r0
     ee0:	1f 90       	pop	r1
     ee2:	18 95       	reti

00000ee4 <__vector_27>:

// Reads up to RXLEN characters until LF is found, LF sets the serRxDone flag and writes 0 instead of LF.
ISR(USART0_RXC_vect){
     ee4:	1f 92       	push	r1
     ee6:	0f 92       	push	r0
     ee8:	0f b6       	in	r0, 0x3f	; 63
     eea:	0f 92       	push	r0
     eec:	11 24       	eor	r1, r1
     eee:	8f 93       	push	r24
     ef0:	ef 93       	push	r30
     ef2:	ff 93       	push	r31
    if (serRxDone == 0){
     ef4:	80 91 44 38 	lds	r24, 0x3844	; 0x803844 <serRxDone>
     ef8:	81 11       	cpse	r24, r1
     efa:	44 c0       	rjmp	.+136    	; 0xf84 <__vector_27+0xa0>
        serRx[RXCNT] = USART0.RXDATAL;
     efc:	ed b3       	in	r30, 0x1d	; 29
     efe:	f0 e0       	ldi	r31, 0x00	; 0
     f00:	80 91 00 08 	lds	r24, 0x0800	; 0x800800 <__TEXT_REGION_LENGTH__+0x700800>
     f04:	eb 58       	subi	r30, 0x8B	; 139
     f06:	f5 4c       	sbci	r31, 0xC5	; 197
     f08:	80 83       	st	Z, r24
        USART0_TXDATAL = serRx[RXCNT];
     f0a:	ed b3       	in	r30, 0x1d	; 29
     f0c:	f0 e0       	ldi	r31, 0x00	; 0
     f0e:	eb 58       	subi	r30, 0x8B	; 139
     f10:	f5 4c       	sbci	r31, 0xC5	; 197
     f12:	80 81       	ld	r24, Z
     f14:	80 93 02 08 	sts	0x0802, r24	; 0x800802 <__TEXT_REGION_LENGTH__+0x700802>
        if ((serRx[RXCNT] == 0x0A)||(serRx[RXCNT] == 0x0D)){
     f18:	ed b3       	in	r30, 0x1d	; 29
     f1a:	f0 e0       	ldi	r31, 0x00	; 0
     f1c:	eb 58       	subi	r30, 0x8B	; 139
     f1e:	f5 4c       	sbci	r31, 0xC5	; 197
     f20:	80 81       	ld	r24, Z
     f22:	8a 30       	cpi	r24, 0x0A	; 10
     f24:	39 f0       	breq	.+14     	; 0xf34 <__vector_27+0x50>
     f26:	ed b3       	in	r30, 0x1d	; 29
     f28:	f0 e0       	ldi	r31, 0x00	; 0
     f2a:	eb 58       	subi	r30, 0x8B	; 139
     f2c:	f5 4c       	sbci	r31, 0xC5	; 197
     f2e:	80 81       	ld	r24, Z
     f30:	8d 30       	cpi	r24, 0x0D	; 13
     f32:	49 f4       	brne	.+18     	; 0xf46 <__vector_27+0x62>
            serRx[RXCNT] = 0;
     f34:	ed b3       	in	r30, 0x1d	; 29
     f36:	f0 e0       	ldi	r31, 0x00	; 0
     f38:	eb 58       	subi	r30, 0x8B	; 139
     f3a:	f5 4c       	sbci	r31, 0xC5	; 197
     f3c:	10 82       	st	Z, r1
            serRxDone = 1;
     f3e:	81 e0       	ldi	r24, 0x01	; 1
     f40:	80 93 44 38 	sts	0x3844, r24	; 0x803844 <serRxDone>
     f44:	1f c0       	rjmp	.+62     	; 0xf84 <__vector_27+0xa0>
        } else if (((serRx[RXCNT] == 0x08)||(serRx[RXCNT] == 0x7F))&&(RXCNT > 0)) {
     f46:	ed b3       	in	r30, 0x1d	; 29
     f48:	f0 e0       	ldi	r31, 0x00	; 0
     f4a:	eb 58       	subi	r30, 0x8B	; 139
     f4c:	f5 4c       	sbci	r31, 0xC5	; 197
     f4e:	80 81       	ld	r24, Z
     f50:	88 30       	cpi	r24, 0x08	; 8
     f52:	39 f0       	breq	.+14     	; 0xf62 <__vector_27+0x7e>
     f54:	ed b3       	in	r30, 0x1d	; 29
     f56:	f0 e0       	ldi	r31, 0x00	; 0
     f58:	eb 58       	subi	r30, 0x8B	; 139
     f5a:	f5 4c       	sbci	r31, 0xC5	; 197
     f5c:	80 81       	ld	r24, Z
     f5e:	8f 37       	cpi	r24, 0x7F	; 127
     f60:	59 f4       	brne	.+22     	; 0xf78 <__vector_27+0x94>
     f62:	8d b3       	in	r24, 0x1d	; 29
     f64:	88 23       	and	r24, r24
     f66:	41 f0       	breq	.+16     	; 0xf78 <__vector_27+0x94>
            serRx[RXCNT] = 0;
     f68:	ed b3       	in	r30, 0x1d	; 29
     f6a:	f0 e0       	ldi	r31, 0x00	; 0
     f6c:	eb 58       	subi	r30, 0x8B	; 139
     f6e:	f5 4c       	sbci	r31, 0xC5	; 197
     f70:	10 82       	st	Z, r1
            --RXCNT;
     f72:	8d b3       	in	r24, 0x1d	; 29
     f74:	81 50       	subi	r24, 0x01	; 1
     f76:	05 c0       	rjmp	.+10     	; 0xf82 <__vector_27+0x9e>
        } else if (RXCNT < (RXLEN-1)) ++RXCNT;
     f78:	8d b3       	in	r24, 0x1d	; 29
     f7a:	80 34       	cpi	r24, 0x40	; 64
     f7c:	18 f4       	brcc	.+6      	; 0xf84 <__vector_27+0xa0>
     f7e:	8d b3       	in	r24, 0x1d	; 29
     f80:	8f 5f       	subi	r24, 0xFF	; 255
     f82:	8d bb       	out	0x1d, r24	; 29
    }
    USART0_STATUS = USART_RXCIF_bm;
     f84:	80 e8       	ldi	r24, 0x80	; 128
     f86:	80 93 04 08 	sts	0x0804, r24	; 0x800804 <__TEXT_REGION_LENGTH__+0x700804>
};
     f8a:	ff 91       	pop	r31
     f8c:	ef 91       	pop	r30
     f8e:	8f 91       	pop	r24
     f90:	0f 90       	pop	r0
     f92:	0f be       	out	0x3f, r0	; 63
     f94:	0f 90       	pop	r0
     f96:	1f 90       	pop	r1
     f98:	18 95       	reti

00000f9a <__vector_28>:

// Trigger new data write and turn off DRE interrupt.
ISR(USART0_DRE_vect){
     f9a:	1f 92       	push	r1
     f9c:	0f 92       	push	r0
     f9e:	0f b6       	in	r0, 0x3f	; 63
     fa0:	0f 92       	push	r0
     fa2:	11 24       	eor	r1, r1
     fa4:	8f 93       	push	r24
     fa6:	ef 93       	push	r30
     fa8:	ff 93       	push	r31
    TCB0_CNT = 0;
     faa:	10 92 4a 0a 	sts	0x0A4A, r1	; 0x800a4a <__TEXT_REGION_LENGTH__+0x700a4a>
     fae:	10 92 4b 0a 	sts	0x0A4B, r1	; 0x800a4b <__TEXT_REGION_LENGTH__+0x700a4b>
    TCB0_INTCTRL = 0x01;
     fb2:	81 e0       	ldi	r24, 0x01	; 1
     fb4:	80 93 45 0a 	sts	0x0A45, r24	; 0x800a45 <__TEXT_REGION_LENGTH__+0x700a45>
    USART0_CTRLA &= ~(USART_DREIE_bm);
     fb8:	e5 e0       	ldi	r30, 0x05	; 5
     fba:	f8 e0       	ldi	r31, 0x08	; 8
     fbc:	80 81       	ld	r24, Z
     fbe:	8f 7d       	andi	r24, 0xDF	; 223
     fc0:	80 83       	st	Z, r24
};
     fc2:	ff 91       	pop	r31
     fc4:	ef 91       	pop	r30
     fc6:	8f 91       	pop	r24
     fc8:	0f 90       	pop	r0
     fca:	0f be       	out	0x3f, r0	; 63
     fcc:	0f 90       	pop	r0
     fce:	1f 90       	pop	r1
     fd0:	18 95       	reti

00000fd2 <__vector_20>:

// ADC used for audio input and temperature sensor.
ISR(ADC0_RESRDY_vect){
     fd2:	1f 92       	push	r1
     fd4:	0f 92       	push	r0
     fd6:	0f b6       	in	r0, 0x3f	; 63
     fd8:	0f 92       	push	r0
     fda:	11 24       	eor	r1, r1
     fdc:	8f 93       	push	r24
     fde:	9f 93       	push	r25
     fe0:	ef 93       	push	r30
     fe2:	ff 93       	push	r31
    //If just switched reference, discard first few samples
    if (adc0Chg == 0){
     fe4:	80 91 37 38 	lds	r24, 0x3837	; 0x803837 <adc0Chg>
     fe8:	81 11       	cpse	r24, r1
     fea:	19 c0       	rjmp	.+50     	; 0x101e <__vector_20+0x4c>
        AUPOS = (AUPOS+1)&(AULEN-1);
     fec:	8e b3       	in	r24, 0x1e	; 30
     fee:	8f 5f       	subi	r24, 0xFF	; 255
     ff0:	87 70       	andi	r24, 0x07	; 7
     ff2:	8e bb       	out	0x1e, r24	; 30
        if (ADC0_MUXPOS == 0x1E) adcTemp = ADC0_RES; else auIn[AUPOS]=ADC0_RESL;
     ff4:	80 91 06 06 	lds	r24, 0x0606	; 0x800606 <__TEXT_REGION_LENGTH__+0x700606>
     ff8:	8e 31       	cpi	r24, 0x1E	; 30
     ffa:	49 f4       	brne	.+18     	; 0x100e <__vector_20+0x3c>
     ffc:	80 91 10 06 	lds	r24, 0x0610	; 0x800610 <__TEXT_REGION_LENGTH__+0x700610>
    1000:	90 91 11 06 	lds	r25, 0x0611	; 0x800611 <__TEXT_REGION_LENGTH__+0x700611>
    1004:	80 93 f5 3a 	sts	0x3AF5, r24	; 0x803af5 <adcTemp>
    1008:	90 93 f6 3a 	sts	0x3AF6, r25	; 0x803af6 <adcTemp+0x1>
    100c:	0d c0       	rjmp	.+26     	; 0x1028 <__vector_20+0x56>
    100e:	ee b3       	in	r30, 0x1e	; 30
    1010:	f0 e0       	ldi	r31, 0x00	; 0
    1012:	80 91 10 06 	lds	r24, 0x0610	; 0x800610 <__TEXT_REGION_LENGTH__+0x700610>
    1016:	ee 53       	subi	r30, 0x3E	; 62
    1018:	f5 4c       	sbci	r31, 0xC5	; 197
    101a:	80 83       	st	Z, r24
    101c:	05 c0       	rjmp	.+10     	; 0x1028 <__vector_20+0x56>
    } else --adc0Chg;
    101e:	80 91 37 38 	lds	r24, 0x3837	; 0x803837 <adc0Chg>
    1022:	81 50       	subi	r24, 0x01	; 1
    1024:	80 93 37 38 	sts	0x3837, r24	; 0x803837 <adc0Chg>
    ADC0_INTFLAGS = ADC_RESRDY_bm;
    1028:	81 e0       	ldi	r24, 0x01	; 1
    102a:	80 93 0b 06 	sts	0x060B, r24	; 0x80060b <__TEXT_REGION_LENGTH__+0x70060b>
}
    102e:	ff 91       	pop	r31
    1030:	ef 91       	pop	r30
    1032:	9f 91       	pop	r25
    1034:	8f 91       	pop	r24
    1036:	0f 90       	pop	r0
    1038:	0f be       	out	0x3f, r0	; 63
    103a:	0f 90       	pop	r0
    103c:	1f 90       	pop	r1
    103e:	18 95       	reti

00001040 <__vector_22>:

// Reads out sensors at 8Hz and buttons at 42Hz (timed by PIT), power for the sensors is on 1/8th of the time to save power.
ISR(ADC1_RESRDY_vect){
    1040:	1f 92       	push	r1
    1042:	0f 92       	push	r0
    1044:	0f b6       	in	r0, 0x3f	; 63
    1046:	0f 92       	push	r0
    1048:	11 24       	eor	r1, r1
    104a:	8f 93       	push	r24
    104c:	9f 93       	push	r25
    if (ADC1_MUXPOS == 0) {
    104e:	80 91 46 06 	lds	r24, 0x0646	; 0x800646 <__TEXT_REGION_LENGTH__+0x700646>
    1052:	81 11       	cpse	r24, r1
    1054:	0a c0       	rjmp	.+20     	; 0x106a <__vector_22+0x2a>
        adcPhot = ADC1_RES;
    1056:	80 91 50 06 	lds	r24, 0x0650	; 0x800650 <__TEXT_REGION_LENGTH__+0x700650>
    105a:	90 91 51 06 	lds	r25, 0x0651	; 0x800651 <__TEXT_REGION_LENGTH__+0x700651>
    105e:	80 93 bd 3a 	sts	0x3ABD, r24	; 0x803abd <adcPhot>
    1062:	90 93 be 3a 	sts	0x3ABE, r25	; 0x803abe <adcPhot+0x1>
        ADC1_MUXPOS = 0x01;             //Select Hall sensor
    1066:	81 e0       	ldi	r24, 0x01	; 1
    1068:	10 c0       	rjmp	.+32     	; 0x108a <__vector_22+0x4a>
    } else if (ADC1_MUXPOS == 1){
    106a:	80 91 46 06 	lds	r24, 0x0646	; 0x800646 <__TEXT_REGION_LENGTH__+0x700646>
    106e:	81 30       	cpi	r24, 0x01	; 1
    1070:	79 f4       	brne	.+30     	; 0x1090 <__vector_22+0x50>
        PORTA_OUTCLR = 0b00001000;      //Turn off sensor power
    1072:	88 e0       	ldi	r24, 0x08	; 8
    1074:	80 93 06 04 	sts	0x0406, r24	; 0x800406 <__TEXT_REGION_LENGTH__+0x700406>
        adcHall = ADC1_RES;
    1078:	80 91 50 06 	lds	r24, 0x0650	; 0x800650 <__TEXT_REGION_LENGTH__+0x700650>
    107c:	90 91 51 06 	lds	r25, 0x0651	; 0x800651 <__TEXT_REGION_LENGTH__+0x700651>
    1080:	80 93 bb 3a 	sts	0x3ABB, r24	; 0x803abb <adcHall>
    1084:	90 93 bc 3a 	sts	0x3ABC, r25	; 0x803abc <adcHall+0x1>
        ADC1_MUXPOS = 0x04;             //select buttons
    1088:	84 e0       	ldi	r24, 0x04	; 4
    108a:	80 93 46 06 	sts	0x0646, r24	; 0x800646 <__TEXT_REGION_LENGTH__+0x700646>
    108e:	10 c0       	rjmp	.+32     	; 0x10b0 <__vector_22+0x70>
    } else {
        adcBtns = ADC1_RES;
    1090:	80 91 50 06 	lds	r24, 0x0650	; 0x800650 <__TEXT_REGION_LENGTH__+0x700650>
    1094:	90 91 51 06 	lds	r25, 0x0651	; 0x800651 <__TEXT_REGION_LENGTH__+0x700651>
    1098:	80 93 b7 3a 	sts	0x3AB7, r24	; 0x803ab7 <adcBtns>
    109c:	90 93 b8 3a 	sts	0x3AB8, r25	; 0x803ab8 <adcBtns+0x1>
        if (A1CNT == 15){
    10a0:	8f b3       	in	r24, 0x1f	; 31
    10a2:	8f 30       	cpi	r24, 0x0F	; 15
    10a4:	29 f4       	brne	.+10     	; 0x10b0 <__vector_22+0x70>
            ADC1_MUXPOS = 0x00;         //Select photo transistor
    10a6:	10 92 46 06 	sts	0x0646, r1	; 0x800646 <__TEXT_REGION_LENGTH__+0x700646>
            PORTA_OUTSET = 0b00001000;  //Turn on sensor power
    10aa:	88 e0       	ldi	r24, 0x08	; 8
    10ac:	80 93 05 04 	sts	0x0405, r24	; 0x800405 <__TEXT_REGION_LENGTH__+0x700405>
        }
    }

    A1CNT=(A1CNT+1)%16;        
    10b0:	8f b3       	in	r24, 0x1f	; 31
    10b2:	90 e0       	ldi	r25, 0x00	; 0
    10b4:	01 96       	adiw	r24, 0x01	; 1
    10b6:	8f 70       	andi	r24, 0x0F	; 15
    10b8:	99 27       	eor	r25, r25
    10ba:	8f bb       	out	0x1f, r24	; 31
    ADC1_INTFLAGS = ADC_RESRDY_bm;
    10bc:	81 e0       	ldi	r24, 0x01	; 1
    10be:	80 93 4b 06 	sts	0x064B, r24	; 0x80064b <__TEXT_REGION_LENGTH__+0x70064b>
}
    10c2:	9f 91       	pop	r25
    10c4:	8f 91       	pop	r24
    10c6:	0f 90       	pop	r0
    10c8:	0f be       	out	0x3f, r0	; 63
    10ca:	0f 90       	pop	r0
    10cc:	1f 90       	pop	r1
    10ce:	18 95       	reti

000010d0 <__vector_6>:

// RTC compare interrupt, triggers at 512/BTN_TMR rate, also RTC overflow interrupt, triggers once a minute
ISR(RTC_CNT_vect) {
    10d0:	1f 92       	push	r1
    10d2:	0f 92       	push	r0
    10d4:	0f b6       	in	r0, 0x3f	; 63
    10d6:	0f 92       	push	r0
    10d8:	11 24       	eor	r1, r1
    10da:	2f 93       	push	r18
    10dc:	3f 93       	push	r19
    10de:	8f 93       	push	r24
    10e0:	9f 93       	push	r25
    if (RTC_INTFLAGS & RTC_CMP_bm){
    10e2:	80 91 43 01 	lds	r24, 0x0143	; 0x800143 <__TEXT_REGION_LENGTH__+0x700143>
    10e6:	81 ff       	sbrs	r24, 1
    10e8:	39 c0       	rjmp	.+114    	; 0x115c <__vector_6+0x8c>
        if (buttonMark<0xff) buttonMark++;   // For button timing purposes
    10ea:	80 91 42 38 	lds	r24, 0x3842	; 0x803842 <buttonMark>
    10ee:	8f 3f       	cpi	r24, 0xFF	; 255
    10f0:	29 f0       	breq	.+10     	; 0x10fc <__vector_6+0x2c>
    10f2:	80 91 42 38 	lds	r24, 0x3842	; 0x803842 <buttonMark>
    10f6:	8f 5f       	subi	r24, 0xFF	; 255
    10f8:	80 93 42 38 	sts	0x3842, r24	; 0x803842 <buttonMark>
        //tmp16bit = (RTC_CNT + BTN_TMR)%RTC_PER;
        tmp16bit = (RTC_CNT + BTN_TMR);
    10fc:	80 91 48 01 	lds	r24, 0x0148	; 0x800148 <__TEXT_REGION_LENGTH__+0x700148>
    1100:	90 91 49 01 	lds	r25, 0x0149	; 0x800149 <__TEXT_REGION_LENGTH__+0x700149>
    1104:	82 96       	adiw	r24, 0x22	; 34
    1106:	80 93 f7 3a 	sts	0x3AF7, r24	; 0x803af7 <tmp16bit>
    110a:	90 93 f8 3a 	sts	0x3AF8, r25	; 0x803af8 <tmp16bit+0x1>
        if (tmp16bit > RTC_PER) tmp16bit -= RTC_PER;
    110e:	20 91 4a 01 	lds	r18, 0x014A	; 0x80014a <__TEXT_REGION_LENGTH__+0x70014a>
    1112:	30 91 4b 01 	lds	r19, 0x014B	; 0x80014b <__TEXT_REGION_LENGTH__+0x70014b>
    1116:	80 91 f7 3a 	lds	r24, 0x3AF7	; 0x803af7 <tmp16bit>
    111a:	90 91 f8 3a 	lds	r25, 0x3AF8	; 0x803af8 <tmp16bit+0x1>
    111e:	28 17       	cp	r18, r24
    1120:	39 07       	cpc	r19, r25
    1122:	70 f4       	brcc	.+28     	; 0x1140 <__vector_6+0x70>
    1124:	20 91 4a 01 	lds	r18, 0x014A	; 0x80014a <__TEXT_REGION_LENGTH__+0x70014a>
    1128:	30 91 4b 01 	lds	r19, 0x014B	; 0x80014b <__TEXT_REGION_LENGTH__+0x70014b>
    112c:	80 91 f7 3a 	lds	r24, 0x3AF7	; 0x803af7 <tmp16bit>
    1130:	90 91 f8 3a 	lds	r25, 0x3AF8	; 0x803af8 <tmp16bit+0x1>
    1134:	82 1b       	sub	r24, r18
    1136:	93 0b       	sbc	r25, r19
    1138:	80 93 f7 3a 	sts	0x3AF7, r24	; 0x803af7 <tmp16bit>
    113c:	90 93 f8 3a 	sts	0x3AF8, r25	; 0x803af8 <tmp16bit+0x1>
        while(RTC_STATUS & RTC_CMPBUSY_bm);
    1140:	80 91 41 01 	lds	r24, 0x0141	; 0x800141 <__TEXT_REGION_LENGTH__+0x700141>
    1144:	83 fd       	sbrc	r24, 3
    1146:	fc cf       	rjmp	.-8      	; 0x1140 <__vector_6+0x70>
        RTC_CMP = tmp16bit;                 // Button timing: next interrupt set
    1148:	80 91 f7 3a 	lds	r24, 0x3AF7	; 0x803af7 <tmp16bit>
    114c:	90 91 f8 3a 	lds	r25, 0x3AF8	; 0x803af8 <tmp16bit+0x1>
    1150:	80 93 4c 01 	sts	0x014C, r24	; 0x80014c <__TEXT_REGION_LENGTH__+0x70014c>
    1154:	90 93 4d 01 	sts	0x014D, r25	; 0x80014d <__TEXT_REGION_LENGTH__+0x70014d>
        RTC_INTFLAGS = RTC_CMP_bm;		    // clear interrupt flag
    1158:	82 e0       	ldi	r24, 0x02	; 2
    115a:	06 c0       	rjmp	.+12     	; 0x1168 <__vector_6+0x98>
    } else {
        minuteMark++;                       // For very slow timing purposes, overflows to 0
    115c:	80 91 43 38 	lds	r24, 0x3843	; 0x803843 <minuteMark>
    1160:	8f 5f       	subi	r24, 0xFF	; 255
    1162:	80 93 43 38 	sts	0x3843, r24	; 0x803843 <minuteMark>
        RTC_INTFLAGS = RTC_OVF_bm;		    // clear interrupt flag
    1166:	81 e0       	ldi	r24, 0x01	; 1
    1168:	80 93 43 01 	sts	0x0143, r24	; 0x800143 <__TEXT_REGION_LENGTH__+0x700143>
    }
}
    116c:	9f 91       	pop	r25
    116e:	8f 91       	pop	r24
    1170:	3f 91       	pop	r19
    1172:	2f 91       	pop	r18
    1174:	0f 90       	pop	r0
    1176:	0f be       	out	0x3f, r0	; 63
    1178:	0f 90       	pop	r0
    117a:	1f 90       	pop	r1
    117c:	18 95       	reti

0000117e <__vector_7>:

// PIT interrupt (timing of ADC1: sensor values)
ISR(RTC_PIT_vect) {						// PIT interrupt handling code
    117e:	1f 92       	push	r1
    1180:	0f 92       	push	r0
    1182:	0f b6       	in	r0, 0x3f	; 63
    1184:	0f 92       	push	r0
    1186:	11 24       	eor	r1, r1
    1188:	8f 93       	push	r24
    ADC1_COMMAND = 0x01;
    118a:	81 e0       	ldi	r24, 0x01	; 1
    118c:	80 93 48 06 	sts	0x0648, r24	; 0x800648 <__TEXT_REGION_LENGTH__+0x700648>
    RTC_PITINTFLAGS = RTC_PI_bm;		// clear interrupt flag
    1190:	80 93 53 01 	sts	0x0153, r24	; 0x800153 <__TEXT_REGION_LENGTH__+0x700153>
}
    1194:	8f 91       	pop	r24
    1196:	0f 90       	pop	r0
    1198:	0f be       	out	0x3f, r0	; 63
    119a:	0f 90       	pop	r0
    119c:	1f 90       	pop	r1
    119e:	18 95       	reti

000011a0 <EERead>:

// Read bytes from EEPROM
void EERead(uint8_t eeAddr, uint8_t *eeValues, uint8_t size)
{
    while(NVMCTRL_STATUS & NVMCTRL_EEBUSY_bm);              // Wait until any write operation has finished
    11a0:	90 91 02 10 	lds	r25, 0x1002	; 0x801002 <__TEXT_REGION_LENGTH__+0x701002>
    11a4:	91 fd       	sbrc	r25, 1
    11a6:	fc cf       	rjmp	.-8      	; 0x11a0 <EERead>
    11a8:	fb 01       	movw	r30, r22
    11aa:	48 0f       	add	r20, r24

    while(size){
    11ac:	84 17       	cp	r24, r20
    11ae:	39 f0       	breq	.+14     	; 0x11be <EERead+0x1e>
        *eeValues++ = *(uint8_t *)(EEPROM_START+eeAddr++);  // Read data from buffer
    11b0:	a8 2f       	mov	r26, r24
    11b2:	b0 e0       	ldi	r27, 0x00	; 0
    11b4:	bc 5e       	subi	r27, 0xEC	; 236
    11b6:	9c 91       	ld	r25, X
    11b8:	91 93       	st	Z+, r25
    11ba:	8f 5f       	subi	r24, 0xFF	; 255
    11bc:	f7 cf       	rjmp	.-18     	; 0x11ac <EERead+0xc>
        --size;
    }
}
    11be:	08 95       	ret

000011c0 <EEWrite>:
{
    uint8_t lastByteOfPage;
    while(size){
        lastByteOfPage = 0;
        while(NVMCTRL_STATUS & NVMCTRL_EEBUSY_bm);              // Wait until any write operation has finished
        CCP = CCP_SPM_gc;                                       // Gain access to NVMCTRL_CTRLA
    11c0:	9d e9       	ldi	r25, 0x9D	; 157
        NVMCTRL_CTRLA = NVMCTRL_CMD_PAGEBUFCLR_gc;              // Clear page buffer
    11c2:	24 e0       	ldi	r18, 0x04	; 4
            if ((eeAddr % EEPROM_PAGE_SIZE) == (EEPROM_PAGE_SIZE-1)) lastByteOfPage = 1;
            *(uint8_t *)(EEPROM_START+eeAddr++) = *eeValues++;  // Write data to buffer
            --size;
        }
        CCP = CCP_SPM_gc;
        NVMCTRL_CTRLA = NVMCTRL_CMD_PAGEERASEWRITE_gc;          // Erase old data and write new data to EEPROM
    11c4:	33 e0       	ldi	r19, 0x03	; 3

// Write bytes to the EEPROM, if address exceeds EEPROM space data wraps around
uint8_t EEWrite(uint8_t eeAddr, uint8_t *eeValues, uint8_t size)
{
    uint8_t lastByteOfPage;
    while(size){
    11c6:	44 23       	and	r20, r20
    11c8:	09 f1       	breq	.+66     	; 0x120c <EEWrite+0x4c>
        lastByteOfPage = 0;
        while(NVMCTRL_STATUS & NVMCTRL_EEBUSY_bm);              // Wait until any write operation has finished
    11ca:	50 91 02 10 	lds	r21, 0x1002	; 0x801002 <__TEXT_REGION_LENGTH__+0x701002>
    11ce:	51 fd       	sbrc	r21, 1
    11d0:	fc cf       	rjmp	.-8      	; 0x11ca <EEWrite+0xa>
        CCP = CCP_SPM_gc;                                       // Gain access to NVMCTRL_CTRLA
    11d2:	94 bf       	out	0x34, r25	; 52
        NVMCTRL_CTRLA = NVMCTRL_CMD_PAGEBUFCLR_gc;              // Clear page buffer
    11d4:	20 93 00 10 	sts	0x1000, r18	; 0x801000 <__TEXT_REGION_LENGTH__+0x701000>
    11d8:	e8 2f       	mov	r30, r24
        while((size) && (lastByteOfPage == 0)){
            if ((eeAddr % EEPROM_PAGE_SIZE) == (EEPROM_PAGE_SIZE-1)) lastByteOfPage = 1;
    11da:	58 2f       	mov	r21, r24
    11dc:	5f 71       	andi	r21, 0x1F	; 31
            *(uint8_t *)(EEPROM_START+eeAddr++) = *eeValues++;  // Write data to buffer
    11de:	8f 5f       	subi	r24, 0xFF	; 255
    11e0:	6f 5f       	subi	r22, 0xFF	; 255
    11e2:	7f 4f       	sbci	r23, 0xFF	; 255
    11e4:	db 01       	movw	r26, r22
    11e6:	11 97       	sbiw	r26, 0x01	; 1
    11e8:	ac 91       	ld	r26, X
    11ea:	f0 e0       	ldi	r31, 0x00	; 0
    11ec:	fc 5e       	subi	r31, 0xEC	; 236
    11ee:	a0 83       	st	Z, r26
            --size;
    11f0:	41 50       	subi	r20, 0x01	; 1
    while(size){
        lastByteOfPage = 0;
        while(NVMCTRL_STATUS & NVMCTRL_EEBUSY_bm);              // Wait until any write operation has finished
        CCP = CCP_SPM_gc;                                       // Gain access to NVMCTRL_CTRLA
        NVMCTRL_CTRLA = NVMCTRL_CMD_PAGEBUFCLR_gc;              // Clear page buffer
        while((size) && (lastByteOfPage == 0)){
    11f2:	19 f0       	breq	.+6      	; 0x11fa <EEWrite+0x3a>
            if ((eeAddr % EEPROM_PAGE_SIZE) == (EEPROM_PAGE_SIZE-1)) lastByteOfPage = 1;
            *(uint8_t *)(EEPROM_START+eeAddr++) = *eeValues++;  // Write data to buffer
    11f4:	e8 2f       	mov	r30, r24
    while(size){
        lastByteOfPage = 0;
        while(NVMCTRL_STATUS & NVMCTRL_EEBUSY_bm);              // Wait until any write operation has finished
        CCP = CCP_SPM_gc;                                       // Gain access to NVMCTRL_CTRLA
        NVMCTRL_CTRLA = NVMCTRL_CMD_PAGEBUFCLR_gc;              // Clear page buffer
        while((size) && (lastByteOfPage == 0)){
    11f6:	5f 31       	cpi	r21, 0x1F	; 31
    11f8:	81 f7       	brne	.-32     	; 0x11da <EEWrite+0x1a>
            if ((eeAddr % EEPROM_PAGE_SIZE) == (EEPROM_PAGE_SIZE-1)) lastByteOfPage = 1;
            *(uint8_t *)(EEPROM_START+eeAddr++) = *eeValues++;  // Write data to buffer
            --size;
        }
        CCP = CCP_SPM_gc;
    11fa:	94 bf       	out	0x34, r25	; 52
        NVMCTRL_CTRLA = NVMCTRL_CMD_PAGEERASEWRITE_gc;          // Erase old data and write new data to EEPROM
    11fc:	30 93 00 10 	sts	0x1000, r19	; 0x801000 <__TEXT_REGION_LENGTH__+0x701000>
        if (NVMCTRL_STATUS & NVMCTRL_WRERROR_bm) return 1;
    1200:	50 91 02 10 	lds	r21, 0x1002	; 0x801002 <__TEXT_REGION_LENGTH__+0x701002>
    1204:	52 ff       	sbrs	r21, 2
    1206:	df cf       	rjmp	.-66     	; 0x11c6 <EEWrite+0x6>
    1208:	81 e0       	ldi	r24, 0x01	; 1
    }
    return 0;
}
    120a:	08 95       	ret
        }
        CCP = CCP_SPM_gc;
        NVMCTRL_CTRLA = NVMCTRL_CMD_PAGEERASEWRITE_gc;          // Erase old data and write new data to EEPROM
        if (NVMCTRL_STATUS & NVMCTRL_WRERROR_bm) return 1;
    }
    return 0;
    120c:	80 e0       	ldi	r24, 0x00	; 0
    120e:	08 95       	ret

00001210 <SerSend>:
}

// Sends a set of characters to the serial port, stops only when character value 0 is reached.
uint8_t SerSend(unsigned char *addr){
    if (serTxDone){
    1210:	20 91 0a 38 	lds	r18, 0x380A	; 0x80380a <serTxDone>
    1214:	22 23       	and	r18, r18
    1216:	59 f0       	breq	.+22     	; 0x122e <SerSend+0x1e>
        serTxAddr = addr;
    1218:	80 93 b9 3a 	sts	0x3AB9, r24	; 0x803ab9 <serTxAddr>
    121c:	90 93 ba 3a 	sts	0x3ABA, r25	; 0x803aba <serTxAddr+0x1>
        serTxDone = 0;
    1220:	10 92 0a 38 	sts	0x380A, r1	; 0x80380a <serTxDone>
        TCB0_INTCTRL = 0x01;
    1224:	81 e0       	ldi	r24, 0x01	; 1
    1226:	80 93 45 0a 	sts	0x0A45, r24	; 0x800a45 <__TEXT_REGION_LENGTH__+0x700a45>
        return 0;
    122a:	80 e0       	ldi	r24, 0x00	; 0
    122c:	08 95       	ret
    } else return 1;    //Error: Still sending data
    122e:	81 e0       	ldi	r24, 0x01	; 1
};
    1230:	08 95       	ret

00001232 <SerSpeed>:

// Set serial character output speed, 255-0 (0.8 to 100ms delay between characters)
void SerSpeed(uint8_t serSpd){
    1232:	28 2f       	mov	r18, r24
    if (serSpd<1) serSpd = 1;
    1234:	81 11       	cpse	r24, r1
    1236:	01 c0       	rjmp	.+2      	; 0x123a <SerSpeed+0x8>
    1238:	21 e0       	ldi	r18, 0x01	; 1
    TCB0_CCMP = ((uint16_t)(0xFF-serSpd)<<8) + 0xFF;
    123a:	8f ef       	ldi	r24, 0xFF	; 255
    123c:	90 e0       	ldi	r25, 0x00	; 0
    123e:	82 1b       	sub	r24, r18
    1240:	91 09       	sbc	r25, r1
    1242:	98 2f       	mov	r25, r24
    1244:	88 27       	eor	r24, r24
    1246:	81 50       	subi	r24, 0x01	; 1
    1248:	9f 4f       	sbci	r25, 0xFF	; 255
    124a:	80 93 4c 0a 	sts	0x0A4C, r24	; 0x800a4c <__TEXT_REGION_LENGTH__+0x700a4c>
    124e:	90 93 4d 0a 	sts	0x0A4D, r25	; 0x800a4d <__TEXT_REGION_LENGTH__+0x700a4d>
    1252:	08 95       	ret

00001254 <SelectTSens>:
};

// Select temperature sensor
void SelectTSens(){
     VREF_CTRLA   = 0x12;    //0x22 for audio in/out (2.5V), 0x12 for temperature in, audio out (1.1V/2.5V)
    1254:	82 e1       	ldi	r24, 0x12	; 18
    1256:	80 93 a0 00 	sts	0x00A0, r24	; 0x8000a0 <__TEXT_REGION_LENGTH__+0x7000a0>
     ADC0_CTRLA   &= ~(ADC_RESSEL_bm);
    125a:	e0 e0       	ldi	r30, 0x00	; 0
    125c:	f6 e0       	ldi	r31, 0x06	; 6
    125e:	80 81       	ld	r24, Z
    1260:	8b 7f       	andi	r24, 0xFB	; 251
    1262:	80 83       	st	Z, r24
     ADC0_MUXPOS  = 0x1E;    //Audio in: AIN7 at (0x07), Temperature: Internal sensor at (0x1E)
    1264:	8e e1       	ldi	r24, 0x1E	; 30
    1266:	80 93 06 06 	sts	0x0606, r24	; 0x800606 <__TEXT_REGION_LENGTH__+0x700606>
     adc0Chg = 3;
    126a:	83 e0       	ldi	r24, 0x03	; 3
    126c:	80 93 37 38 	sts	0x3837, r24	; 0x803837 <adc0Chg>
    1270:	08 95       	ret

00001272 <SelectAuIn>:
};

// Select "audio" input (0-2.5V)
void SelectAuIn(){
     VREF_CTRLA   = 0x22;    //0x22 for audio in/out (2.5V), 0x12 for temperature in, audio out (1.1V/2.5V)
    1272:	82 e2       	ldi	r24, 0x22	; 34
    1274:	80 93 a0 00 	sts	0x00A0, r24	; 0x8000a0 <__TEXT_REGION_LENGTH__+0x7000a0>
     ADC0_CTRLA   |= ADC_RESSEL_bm;
    1278:	e0 e0       	ldi	r30, 0x00	; 0
    127a:	f6 e0       	ldi	r31, 0x06	; 6
    127c:	80 81       	ld	r24, Z
    127e:	84 60       	ori	r24, 0x04	; 4
    1280:	80 83       	st	Z, r24
     ADC0_MUXPOS  = 0x07;    //Audio in: AIN7 at (0x07), Temperature: Internal sensor at (0x1E)
    1282:	87 e0       	ldi	r24, 0x07	; 7
    1284:	80 93 06 06 	sts	0x0606, r24	; 0x800606 <__TEXT_REGION_LENGTH__+0x700606>
     adc0Chg = 3;
    1288:	83 e0       	ldi	r24, 0x03	; 3
    128a:	80 93 37 38 	sts	0x3837, r24	; 0x803837 <adc0Chg>
    128e:	08 95       	ret

00001290 <CheckButtons>:
};

// Returns button combination (4LSB) and number of consecutive times this combination is detected. First read should always be ignored! 
uint8_t CheckButtons(){
    static uint8_t previousValue = 0xFF;
    uint8_t bADC = (uint8_t)(adcBtns>>4);
    1290:	80 91 b7 3a 	lds	r24, 0x3AB7	; 0x803ab7 <adcBtns>
    1294:	90 91 b8 3a 	lds	r25, 0x3AB8	; 0x803ab8 <adcBtns+0x1>
    uint8_t button = 0xFF;     //FF = released or error

        switch(bADC){
    1298:	24 e0       	ldi	r18, 0x04	; 4
    129a:	96 95       	lsr	r25
    129c:	87 95       	ror	r24
    129e:	2a 95       	dec	r18
    12a0:	e1 f7       	brne	.-8      	; 0x129a <CheckButtons+0xa>
    12a2:	99 27       	eor	r25, r25
    12a4:	80 36       	cpi	r24, 0x60	; 96
    12a6:	91 05       	cpc	r25, r1
    12a8:	40 f4       	brcc	.+16     	; 0x12ba <CheckButtons+0x2a>
    12aa:	8f 34       	cpi	r24, 0x4F	; 79
    12ac:	91 05       	cpc	r25, r1
    12ae:	88 f4       	brcc	.+34     	; 0x12d2 <CheckButtons+0x42>
    12b0:	c0 97       	sbiw	r24, 0x30	; 48
    12b2:	09 97       	sbiw	r24, 0x09	; 9
    12b4:	90 f4       	brcc	.+36     	; 0x12da <CheckButtons+0x4a>

            case 48 ... 56:          //52: Bottom left (+/-4)
            button = 2;
    12b6:	92 e0       	ldi	r25, 0x02	; 2
    12b8:	11 c0       	rjmp	.+34     	; 0x12dc <CheckButtons+0x4c>
uint8_t CheckButtons(){
    static uint8_t previousValue = 0xFF;
    uint8_t bADC = (uint8_t)(adcBtns>>4);
    uint8_t button = 0xFF;     //FF = released or error

        switch(bADC){
    12ba:	85 37       	cpi	r24, 0x75	; 117
    12bc:	91 05       	cpc	r25, r1
    12be:	68 f0       	brcs	.+26     	; 0x12da <CheckButtons+0x4a>
    12c0:	8e 38       	cpi	r24, 0x8E	; 142
    12c2:	91 05       	cpc	r25, r1
    12c4:	40 f0       	brcs	.+16     	; 0x12d6 <CheckButtons+0x46>
    12c6:	8e 59       	subi	r24, 0x9E	; 158
    12c8:	91 09       	sbc	r25, r1
    12ca:	81 97       	sbiw	r24, 0x21	; 33
    12cc:	30 f4       	brcc	.+12     	; 0x12da <CheckButtons+0x4a>
            case 117 ... 141:        //129: Top right (+/- 12)
            button = 1;
            break;

            case 158 ... 190:        //174: Bottom right (+/- 16)
            button = 0;
    12ce:	90 e0       	ldi	r25, 0x00	; 0
            break;
    12d0:	05 c0       	rjmp	.+10     	; 0x12dc <CheckButtons+0x4c>
            case 48 ... 56:          //52: Bottom left (+/-4)
            button = 2;
            break;

            case 79 ... 95:          //87: Top left (+/-8)
            button = 3;
    12d2:	93 e0       	ldi	r25, 0x03	; 3
            break;
    12d4:	03 c0       	rjmp	.+6      	; 0x12dc <CheckButtons+0x4c>

            case 117 ... 141:        //129: Top right (+/- 12)
            button = 1;
    12d6:	91 e0       	ldi	r25, 0x01	; 1
            break;
    12d8:	01 c0       	rjmp	.+2      	; 0x12dc <CheckButtons+0x4c>

// Returns button combination (4LSB) and number of consecutive times this combination is detected. First read should always be ignored! 
uint8_t CheckButtons(){
    static uint8_t previousValue = 0xFF;
    uint8_t bADC = (uint8_t)(adcBtns>>4);
    uint8_t button = 0xFF;     //FF = released or error
    12da:	9f ef       	ldi	r25, 0xFF	; 255
            case 158 ... 190:        //174: Bottom right (+/- 16)
            button = 0;
            break;
        }

        if (((previousValue+1)== 0) || (button != previousValue)) {
    12dc:	80 91 23 38 	lds	r24, 0x3823	; 0x803823 <previousValue.3877>
    12e0:	98 17       	cp	r25, r24
    12e2:	19 f0       	breq	.+6      	; 0x12ea <CheckButtons+0x5a>
            previousValue = button;
    12e4:	90 93 23 38 	sts	0x3823, r25	; 0x803823 <previousValue.3877>
            return 0xFF;
    12e8:	8f ef       	ldi	r24, 0xFF	; 255
        } else return button;

}
    12ea:	08 95       	ret

000012ec <lfsr>:

uint8_t lfsr(){
    static uint16_t state = 0xd401;
    state ^= (state << 13);
    12ec:	80 91 21 38 	lds	r24, 0x3821	; 0x803821 <state.3887>
    12f0:	90 91 22 38 	lds	r25, 0x3822	; 0x803822 <state.3887+0x1>
    12f4:	9c 01       	movw	r18, r24
    12f6:	32 2f       	mov	r19, r18
    12f8:	22 27       	eor	r18, r18
    12fa:	32 95       	swap	r19
    12fc:	33 0f       	add	r19, r19
    12fe:	30 7e       	andi	r19, 0xE0	; 224
    1300:	82 27       	eor	r24, r18
    1302:	93 27       	eor	r25, r19
    state ^= (state >> 9);
    1304:	9c 01       	movw	r18, r24
    1306:	23 2f       	mov	r18, r19
    1308:	33 27       	eor	r19, r19
    130a:	26 95       	lsr	r18
    130c:	82 27       	eor	r24, r18
    130e:	93 27       	eor	r25, r19
    state ^= (state << 7);
    1310:	9c 01       	movw	r18, r24
    1312:	36 95       	lsr	r19
    1314:	32 2f       	mov	r19, r18
    1316:	22 27       	eor	r18, r18
    1318:	37 95       	ror	r19
    131a:	27 95       	ror	r18
    131c:	82 27       	eor	r24, r18
    131e:	93 27       	eor	r25, r19
    1320:	80 93 21 38 	sts	0x3821, r24	; 0x803821 <state.3887>
    1324:	90 93 22 38 	sts	0x3822, r25	; 0x803822 <state.3887+0x1>
    return (state & 0xff);
}
    1328:	08 95       	ret

0000132a <floatSpeed>:

void floatSpeed(uint8_t bits, uint16_t min, uint16_t max){
    132a:	df 92       	push	r13
    132c:	ef 92       	push	r14
    132e:	ff 92       	push	r15
    1330:	0f 93       	push	r16
    1332:	1f 93       	push	r17
    1334:	cf 93       	push	r28
    1336:	df 93       	push	r29
    1338:	7b 01       	movw	r14, r22
    133a:	8a 01       	movw	r16, r20
    uint16_t val = TCB1_CCMP;
    133c:	c0 91 5c 0a 	lds	r28, 0x0A5C	; 0x800a5c <__TEXT_REGION_LENGTH__+0x700a5c>
    1340:	d0 91 5d 0a 	lds	r29, 0x0A5D	; 0x800a5d <__TEXT_REGION_LENGTH__+0x700a5d>
    bits = mask[(bits-1)&0x07];
    1344:	e8 2f       	mov	r30, r24
    1346:	f0 e0       	ldi	r31, 0x00	; 0
    1348:	31 97       	sbiw	r30, 0x01	; 1
    134a:	e7 70       	andi	r30, 0x07	; 7
    134c:	ff 27       	eor	r31, r31
    134e:	ec 5d       	subi	r30, 0xDC	; 220
    1350:	f7 4c       	sbci	r31, 0xC7	; 199
    1352:	d0 80       	ld	r13, Z
    val += (lfsr()&bits);
    1354:	cb df       	rcall	.-106    	; 0x12ec <lfsr>
    1356:	8d 21       	and	r24, r13
    1358:	c8 0f       	add	r28, r24
    135a:	d1 1d       	adc	r29, r1
    val -= (lfsr()&bits);
    135c:	c7 df       	rcall	.-114    	; 0x12ec <lfsr>
    135e:	8d 21       	and	r24, r13
    1360:	c8 1b       	sub	r28, r24
    1362:	d1 09       	sbc	r29, r1
    1364:	0c 17       	cp	r16, r28
    1366:	1d 07       	cpc	r17, r29
    1368:	08 f4       	brcc	.+2      	; 0x136c <floatSpeed+0x42>
    136a:	e8 01       	movw	r28, r16
    136c:	c7 01       	movw	r24, r14
    136e:	ec 16       	cp	r14, r28
    1370:	fd 06       	cpc	r15, r29
    1372:	08 f4       	brcc	.+2      	; 0x1376 <floatSpeed+0x4c>
    1374:	ce 01       	movw	r24, r28
    1376:	80 93 5c 0a 	sts	0x0A5C, r24	; 0x800a5c <__TEXT_REGION_LENGTH__+0x700a5c>
    if (val > max) val = max;    
    if (val < min) val = min;  
    TCB1_CCMP = val;
    137a:	90 93 5d 0a 	sts	0x0A5D, r25	; 0x800a5d <__TEXT_REGION_LENGTH__+0x700a5d>
    137e:	df 91       	pop	r29
}
    1380:	cf 91       	pop	r28
    1382:	1f 91       	pop	r17
    1384:	0f 91       	pop	r16
    1386:	ff 90       	pop	r15
    1388:	ef 90       	pop	r14
    138a:	df 90       	pop	r13
    138c:	08 95       	ret

0000138e <floatAround>:
    138e:	0f 93       	push	r16

uint8_t floatAround(uint8_t sample, uint8_t bits, uint8_t min, uint8_t max){
    1390:	1f 93       	push	r17
    1392:	cf 93       	push	r28
    1394:	df 93       	push	r29
    1396:	c8 2f       	mov	r28, r24
    1398:	d4 2f       	mov	r29, r20
    139a:	02 2f       	mov	r16, r18
    bits = mask[(bits-1)&0x07];
    139c:	e6 2f       	mov	r30, r22
    139e:	f0 e0       	ldi	r31, 0x00	; 0
    13a0:	31 97       	sbiw	r30, 0x01	; 1
    13a2:	e7 70       	andi	r30, 0x07	; 7
    13a4:	ff 27       	eor	r31, r31
    13a6:	ec 5d       	subi	r30, 0xDC	; 220
    13a8:	f7 4c       	sbci	r31, 0xC7	; 199
    13aa:	10 81       	ld	r17, Z
    sample += lfsr()&bits;
    13ac:	9f df       	rcall	.-194    	; 0x12ec <lfsr>
    13ae:	81 23       	and	r24, r17
    13b0:	c8 0f       	add	r28, r24
    sample -= lfsr()&bits;
    13b2:	9c df       	rcall	.-200    	; 0x12ec <lfsr>
    13b4:	81 23       	and	r24, r17
    13b6:	c8 1b       	sub	r28, r24
    13b8:	8c 2f       	mov	r24, r28
    13ba:	00 23       	and	r16, r16
    if (max){
    13bc:	41 f0       	breq	.+16     	; 0x13ce <floatAround+0x40>
    13be:	9c 2f       	mov	r25, r28
    13c0:	0c 17       	cp	r16, r28
    13c2:	08 f4       	brcc	.+2      	; 0x13c6 <floatAround+0x38>
    13c4:	90 2f       	mov	r25, r16
    13c6:	8d 2f       	mov	r24, r29
    13c8:	d9 17       	cp	r29, r25
    13ca:	08 f4       	brcc	.+2      	; 0x13ce <floatAround+0x40>
    13cc:	89 2f       	mov	r24, r25
    13ce:	41 e0       	ldi	r20, 0x01	; 1
        if (sample > max) sample = max;
        if (sample < min) sample = min;
    }
    if (min & (sample < min)) sample = min;
    13d0:	50 e0       	ldi	r21, 0x00	; 0
    13d2:	8d 17       	cp	r24, r29
    13d4:	10 f0       	brcs	.+4      	; 0x13da <floatAround+0x4c>
    13d6:	40 e0       	ldi	r20, 0x00	; 0
    13d8:	50 e0       	ldi	r21, 0x00	; 0
    13da:	2d 2f       	mov	r18, r29
    13dc:	30 e0       	ldi	r19, 0x00	; 0
    13de:	24 23       	and	r18, r20
    13e0:	35 23       	and	r19, r21
    13e2:	23 2b       	or	r18, r19
    13e4:	09 f0       	breq	.+2      	; 0x13e8 <floatAround+0x5a>
    13e6:	8d 2f       	mov	r24, r29
    13e8:	df 91       	pop	r29

    return sample;
}
    13ea:	cf 91       	pop	r28
    13ec:	1f 91       	pop	r17
    13ee:	0f 91       	pop	r16
    13f0:	08 95       	ret

000013f2 <SaveGameState>:
    13f2:	cf 92       	push	r12
    inventory[0] = (gameState[INVADDR]<<8|gameState[INVADDR+1]);
    inventory[1] = (gameState[INVADDR+2]<<8|gameState[INVADDR+3]);
}

//Save changed data to EEPROM
uint8_t SaveGameState(){
    13f4:	df 92       	push	r13
    13f6:	ff 92       	push	r15
    13f8:	0f 93       	push	r16
    13fa:	1f 93       	push	r17
    13fc:	cf 93       	push	r28
    13fe:	df 93       	push	r29
    1400:	cd b7       	in	r28, 0x3d	; 61
    1402:	de b7       	in	r29, 0x3e	; 62
    1404:	64 97       	sbiw	r28, 0x14	; 20
    1406:	cd bf       	out	0x3d, r28	; 61
    1408:	de bf       	out	0x3e, r29	; 62
    uint8_t gameCheck[BOOTCHK];

    //Read all data up to the boot/check result address from EEPROM
    EERead(0, &gameCheck[0], BOOTCHK);
    140a:	44 e1       	ldi	r20, 0x14	; 20
    140c:	be 01       	movw	r22, r28
    140e:	6f 5f       	subi	r22, 0xFF	; 255
    1410:	7f 4f       	sbci	r23, 0xFF	; 255
    1412:	80 e0       	ldi	r24, 0x00	; 0
    1414:	c5 de       	rcall	.-630    	; 0x11a0 <EERead>
    1416:	81 e6       	ldi	r24, 0x61	; 97
    1418:	c8 2e       	mov	r12, r24
    141a:	8a e3       	ldi	r24, 0x3A	; 58
    141c:	d8 2e       	mov	r13, r24
    141e:	8e 01       	movw	r16, r28
    1420:	0f 5f       	subi	r16, 0xFF	; 255
    1422:	1f 4f       	sbci	r17, 0xFF	; 255

    //Check game status bits
    for (uint8_t x=0; x<STATLEN; ++x){
    1424:	f1 2c       	mov	r15, r1
        if (gameState[x] != gameCheck[x]){
    1426:	f8 01       	movw	r30, r16
    1428:	81 91       	ld	r24, Z+
    142a:	8f 01       	movw	r16, r30
    142c:	f6 01       	movw	r30, r12
    142e:	90 81       	ld	r25, Z
    1430:	98 13       	cpse	r25, r24
    1432:	08 c0       	rjmp	.+16     	; 0x1444 <SaveGameState+0x52>

    //Read all data up to the boot/check result address from EEPROM
    EERead(0, &gameCheck[0], BOOTCHK);

    //Check game status bits
    for (uint8_t x=0; x<STATLEN; ++x){
    1434:	f3 94       	inc	r15
    1436:	ff ef       	ldi	r31, 0xFF	; 255
    1438:	cf 1a       	sub	r12, r31
    143a:	df 0a       	sbc	r13, r31
    143c:	80 e1       	ldi	r24, 0x10	; 16
    143e:	f8 12       	cpse	r15, r24
    1440:	f2 cf       	rjmp	.-28     	; 0x1426 <SaveGameState+0x34>
    1442:	08 c0       	rjmp	.+16     	; 0x1454 <SaveGameState+0x62>
        if (gameState[x] != gameCheck[x]){
            if (EEWrite(x, &gameState[x], 1)) return 1;
    1444:	41 e0       	ldi	r20, 0x01	; 1
    1446:	b6 01       	movw	r22, r12
    1448:	8f 2d       	mov	r24, r15
    144a:	ba de       	rcall	.-652    	; 0x11c0 <EEWrite>
    144c:	88 23       	and	r24, r24
    144e:	91 f3       	breq	.-28     	; 0x1434 <SaveGameState+0x42>
    1450:	91 e0       	ldi	r25, 0x01	; 1
    1452:	36 c0       	rjmp	.+108    	; 0x14c0 <SaveGameState+0xce>
        }
    }

    //Check the inventory too
    gameState[INVADDR] = (uint8_t)(inventory[0]>>8);
    1454:	20 91 3e 38 	lds	r18, 0x383E	; 0x80383e <inventory>
    1458:	30 91 3f 38 	lds	r19, 0x383F	; 0x80383f <inventory+0x1>
    145c:	30 93 71 3a 	sts	0x3A71, r19	; 0x803a71 <gameState+0x10>
    gameState[INVADDR+1] = (uint8_t)(inventory[0]&0xff);
    1460:	20 93 72 3a 	sts	0x3A72, r18	; 0x803a72 <gameState+0x11>
    gameState[INVADDR+2] = (uint8_t)(inventory[1]>>8);
    1464:	80 91 40 38 	lds	r24, 0x3840	; 0x803840 <inventory+0x2>
    1468:	90 91 41 38 	lds	r25, 0x3841	; 0x803841 <inventory+0x3>
    146c:	90 93 73 3a 	sts	0x3A73, r25	; 0x803a73 <gameState+0x12>
    gameState[INVADDR+3] = (uint8_t)(inventory[1]&0xff);
    1470:	80 93 74 3a 	sts	0x3A74, r24	; 0x803a74 <gameState+0x13>
    if (inventory[0] != (gameCheck[INVADDR]<<8|gameCheck[INVADDR+1])) {
    1474:	89 89       	ldd	r24, Y+17	; 0x11
    1476:	9a 89       	ldd	r25, Y+18	; 0x12
    1478:	98 27       	eor	r25, r24
    147a:	89 27       	eor	r24, r25
    147c:	98 27       	eor	r25, r24
    147e:	28 17       	cp	r18, r24
    1480:	39 07       	cpc	r19, r25
    1482:	69 f4       	brne	.+26     	; 0x149e <SaveGameState+0xac>
        if (EEWrite(INVADDR, &gameState[INVADDR], 2)) return 1;
    }
    if (inventory[1] != (gameCheck[INVADDR+2]<<8|gameCheck[INVADDR+3])) {
    1484:	8b 89       	ldd	r24, Y+19	; 0x13
    1486:	9c 89       	ldd	r25, Y+20	; 0x14
    1488:	98 27       	eor	r25, r24
    148a:	89 27       	eor	r24, r25
    148c:	98 27       	eor	r25, r24
    148e:	20 91 40 38 	lds	r18, 0x3840	; 0x803840 <inventory+0x2>
    1492:	30 91 41 38 	lds	r19, 0x3841	; 0x803841 <inventory+0x3>
    1496:	28 17       	cp	r18, r24
    1498:	39 07       	cpc	r19, r25
    149a:	49 f4       	brne	.+18     	; 0x14ae <SaveGameState+0xbc>
    149c:	10 c0       	rjmp	.+32     	; 0x14be <SaveGameState+0xcc>
    gameState[INVADDR] = (uint8_t)(inventory[0]>>8);
    gameState[INVADDR+1] = (uint8_t)(inventory[0]&0xff);
    gameState[INVADDR+2] = (uint8_t)(inventory[1]>>8);
    gameState[INVADDR+3] = (uint8_t)(inventory[1]&0xff);
    if (inventory[0] != (gameCheck[INVADDR]<<8|gameCheck[INVADDR+1])) {
        if (EEWrite(INVADDR, &gameState[INVADDR], 2)) return 1;
    149e:	42 e0       	ldi	r20, 0x02	; 2
    14a0:	61 e7       	ldi	r22, 0x71	; 113
    14a2:	7a e3       	ldi	r23, 0x3A	; 58
    14a4:	80 e1       	ldi	r24, 0x10	; 16
    14a6:	8c de       	rcall	.-744    	; 0x11c0 <EEWrite>
    14a8:	88 23       	and	r24, r24
    14aa:	61 f3       	breq	.-40     	; 0x1484 <SaveGameState+0x92>
    14ac:	d1 cf       	rjmp	.-94     	; 0x1450 <SaveGameState+0x5e>
    }
    if (inventory[1] != (gameCheck[INVADDR+2]<<8|gameCheck[INVADDR+3])) {
        if (EEWrite(INVADDR+2, &gameState[INVADDR+2], 2)) return 1;
    14ae:	42 e0       	ldi	r20, 0x02	; 2
    14b0:	63 e7       	ldi	r22, 0x73	; 115
    14b2:	7a e3       	ldi	r23, 0x3A	; 58
    14b4:	82 e1       	ldi	r24, 0x12	; 18
    14b6:	84 de       	rcall	.-760    	; 0x11c0 <EEWrite>
    EERead(0, &gameCheck[0], BOOTCHK);

    //Check game status bits
    for (uint8_t x=0; x<STATLEN; ++x){
        if (gameState[x] != gameCheck[x]){
            if (EEWrite(x, &gameState[x], 1)) return 1;
    14b8:	91 e0       	ldi	r25, 0x01	; 1
    14ba:	81 11       	cpse	r24, r1
    14bc:	01 c0       	rjmp	.+2      	; 0x14c0 <SaveGameState+0xce>
    14be:	90 e0       	ldi	r25, 0x00	; 0
    if (inventory[1] != (gameCheck[INVADDR+2]<<8|gameCheck[INVADDR+3])) {
        if (EEWrite(INVADDR+2, &gameState[INVADDR+2], 2)) return 1;
    }

    return 0;
}
    14c0:	89 2f       	mov	r24, r25
    14c2:	64 96       	adiw	r28, 0x14	; 20
    14c4:	cd bf       	out	0x3d, r28	; 61
    14c6:	de bf       	out	0x3e, r29	; 62
    14c8:	df 91       	pop	r29
    14ca:	cf 91       	pop	r28
    14cc:	1f 91       	pop	r17
    14ce:	0f 91       	pop	r16
    14d0:	ff 90       	pop	r15
    14d2:	df 90       	pop	r13
    14d4:	cf 90       	pop	r12
    14d6:	08 95       	ret

000014d8 <ReadStatusBit>:

uint8_t ReadStatusBit(uint8_t number){
    number &= 0x7f;
    if (gameState[number>>3] & (1<<(number&7))) return 1; else return 0;
    14d8:	e8 2f       	mov	r30, r24
    14da:	ef 77       	andi	r30, 0x7F	; 127
    14dc:	e6 95       	lsr	r30
    14de:	e6 95       	lsr	r30
    14e0:	e6 95       	lsr	r30
    14e2:	f0 e0       	ldi	r31, 0x00	; 0
    14e4:	ef 59       	subi	r30, 0x9F	; 159
    14e6:	f5 4c       	sbci	r31, 0xC5	; 197
    14e8:	20 81       	ld	r18, Z
    14ea:	30 e0       	ldi	r19, 0x00	; 0
    14ec:	87 70       	andi	r24, 0x07	; 7
    14ee:	a9 01       	movw	r20, r18
    14f0:	02 c0       	rjmp	.+4      	; 0x14f6 <ReadStatusBit+0x1e>
    14f2:	55 95       	asr	r21
    14f4:	47 95       	ror	r20
    14f6:	8a 95       	dec	r24
    14f8:	e2 f7       	brpl	.-8      	; 0x14f2 <ReadStatusBit+0x1a>
    14fa:	ca 01       	movw	r24, r20
}
    14fc:	81 70       	andi	r24, 0x01	; 1
    14fe:	08 95       	ret

00001500 <WriteStatusBit>:

void WriteStatusBit(uint8_t number, uint8_t state){
    number &= 0x7f;
    1500:	e8 2f       	mov	r30, r24
    1502:	ef 77       	andi	r30, 0x7F	; 127
    1504:	e6 95       	lsr	r30
    1506:	e6 95       	lsr	r30
    1508:	e6 95       	lsr	r30
    150a:	28 2f       	mov	r18, r24
    150c:	27 70       	andi	r18, 0x07	; 7
    if (state) gameState[number>>3] |= 1<<(number&7);
    150e:	f0 e0       	ldi	r31, 0x00	; 0
    1510:	ef 59       	subi	r30, 0x9F	; 159
    1512:	f5 4c       	sbci	r31, 0xC5	; 197
    1514:	81 e0       	ldi	r24, 0x01	; 1
    1516:	90 e0       	ldi	r25, 0x00	; 0
    1518:	01 c0       	rjmp	.+2      	; 0x151c <WriteStatusBit+0x1c>
    151a:	88 0f       	add	r24, r24
    151c:	2a 95       	dec	r18
    151e:	ea f7       	brpl	.-6      	; 0x151a <WriteStatusBit+0x1a>
    1520:	66 23       	and	r22, r22
    1522:	19 f0       	breq	.+6      	; 0x152a <WriteStatusBit+0x2a>
    1524:	90 81       	ld	r25, Z
    1526:	89 2b       	or	r24, r25
    1528:	03 c0       	rjmp	.+6      	; 0x1530 <WriteStatusBit+0x30>
    else gameState[number>>3] &= ~(1<<(number&7));
    152a:	80 95       	com	r24
    152c:	90 81       	ld	r25, Z
    152e:	89 23       	and	r24, r25
    1530:	80 83       	st	Z, r24
    1532:	08 95       	ret

00001534 <UpdateState>:
}

//Update game state: num -> vBBBBbbb v=value(0 is set!), BBBB=Byte number, bbb=bit number
void UpdateState(uint8_t num){
    1534:	98 2f       	mov	r25, r24
    uint8_t clearBit = num & 0x80;
    num &= 0x7f;
    1536:	8f 77       	andi	r24, 0x7F	; 127
    if (num) {
    1538:	31 f0       	breq	.+12     	; 0x1546 <UpdateState+0x12>
        if (clearBit) {
    153a:	97 ff       	sbrs	r25, 7
    153c:	02 c0       	rjmp	.+4      	; 0x1542 <UpdateState+0xe>
            WriteStatusBit(num, 0);
    153e:	60 e0       	ldi	r22, 0x00	; 0
    1540:	01 c0       	rjmp	.+2      	; 0x1544 <UpdateState+0x10>
        } else {
            WriteStatusBit(num, 1);
    1542:	61 e0       	ldi	r22, 0x01	; 1
    1544:	dd cf       	rjmp	.-70     	; 0x1500 <WriteStatusBit>
    1546:	08 95       	ret

00001548 <CheckState>:
        }
    }
}

//Checks if state of bit BBBBbbb matches with v (inverted) bit
uint8_t CheckState(uint8_t num){
    1548:	cf 93       	push	r28
    154a:	c8 2f       	mov	r28, r24
    uint8_t bitSet = 0;
    if (ReadStatusBit(num & 0x7f)){
    154c:	8f 77       	andi	r24, 0x7F	; 127
    154e:	c4 df       	rcall	.-120    	; 0x14d8 <ReadStatusBit>
    1550:	2c 2f       	mov	r18, r28
    1552:	22 1f       	adc	r18, r18
    1554:	22 27       	eor	r18, r18
    1556:	22 1f       	adc	r18, r18
    1558:	91 e0       	ldi	r25, 0x01	; 1
    155a:	81 11       	cpse	r24, r1
    155c:	01 c0       	rjmp	.+2      	; 0x1560 <CheckState+0x18>
    155e:	90 e0       	ldi	r25, 0x00	; 0
    }
    if (((num & 0x80)>0)^(bitSet>0)){
        return 1;
    }
    return 0;
}
    1560:	82 2f       	mov	r24, r18
    1562:	89 27       	eor	r24, r25
    1564:	cf 91       	pop	r28
    1566:	08 95       	ret

00001568 <getID>:

//Give out a number 0..3, calculated using serial number fields
uint8_t getID(){
    uint8_t id = 0;
    uint8_t *serNum;
    serNum = (uint8_t*)&SIGROW_SERNUM0;
    1568:	e3 e0       	ldi	r30, 0x03	; 3
    156a:	f1 e1       	ldi	r31, 0x11	; 17
    return 0;
}

//Give out a number 0..3, calculated using serial number fields
uint8_t getID(){
    uint8_t id = 0;
    156c:	80 e0       	ldi	r24, 0x00	; 0
    uint8_t *serNum;
    serNum = (uint8_t*)&SIGROW_SERNUM0;

    for (uint8_t x=0; x<10; ++x){
        id += *serNum;
    156e:	91 91       	ld	r25, Z+
    1570:	89 0f       	add	r24, r25
uint8_t getID(){
    uint8_t id = 0;
    uint8_t *serNum;
    serNum = (uint8_t*)&SIGROW_SERNUM0;

    for (uint8_t x=0; x<10; ++x){
    1572:	ed 30       	cpi	r30, 0x0D	; 13
    1574:	91 e1       	ldi	r25, 0x11	; 17
    1576:	f9 07       	cpc	r31, r25
    1578:	d1 f7       	brne	.-12     	; 0x156e <getID+0x6>
        id += *serNum;
        ++serNum;
    }
    id %= 4;
    whoami = id+1;
    157a:	83 70       	andi	r24, 0x03	; 3
    157c:	8f 5f       	subi	r24, 0xFF	; 255
    157e:	80 93 3d 38 	sts	0x383D, r24	; 0x80383d <whoami>
    return whoami;
}
    1582:	08 95       	ret

00001584 <Reset>:

void Reset(){
    1584:	e1 e6       	ldi	r30, 0x61	; 97
    1586:	fa e3       	ldi	r31, 0x3A	; 58
    //# 110   set to 1 by FW if badge UUID mod 4 == 0
    //# 111   set to 1 by FW if badge UUID mod 4 == 1
    //# 112   set to 1 by FW if badge UUID mod 4 == 2
    //# 113   set to 1 by FW if badge UUID mod 4 == 3
    for (uint8_t x=0; x<sizeof(gameState); ++x){
        gameState[x] = 0;
    1588:	11 92       	st	Z+, r1
    //Reset game progress (all zeroes) and load some bits:
    //# 110   set to 1 by FW if badge UUID mod 4 == 0
    //# 111   set to 1 by FW if badge UUID mod 4 == 1
    //# 112   set to 1 by FW if badge UUID mod 4 == 2
    //# 113   set to 1 by FW if badge UUID mod 4 == 3
    for (uint8_t x=0; x<sizeof(gameState); ++x){
    158a:	8a e3       	ldi	r24, 0x3A	; 58
    158c:	e5 37       	cpi	r30, 0x75	; 117
    158e:	f8 07       	cpc	r31, r24
    1590:	d9 f7       	brne	.-10     	; 0x1588 <Reset+0x4>
        gameState[x] = 0;
    }

    uint8_t id = getID();
    1592:	ea df       	rcall	.-44     	; 0x1568 <getID>

    //Write bit in gameState location 110..113
    if (id == 0) WriteStatusBit(110, 1);
    1594:	81 11       	cpse	r24, r1
    1596:	04 c0       	rjmp	.+8      	; 0x15a0 <Reset+0x1c>
    if (gameState[number>>3] & (1<<(number&7))) return 1; else return 0;
}

void WriteStatusBit(uint8_t number, uint8_t state){
    number &= 0x7f;
    if (state) gameState[number>>3] |= 1<<(number&7);
    1598:	80 91 6e 3a 	lds	r24, 0x3A6E	; 0x803a6e <gameState+0xd>
    159c:	80 64       	ori	r24, 0x40	; 64
    159e:	05 c0       	rjmp	.+10     	; 0x15aa <Reset+0x26>

    uint8_t id = getID();

    //Write bit in gameState location 110..113
    if (id == 0) WriteStatusBit(110, 1);
    else if (id == 1) WriteStatusBit(111, 1);
    15a0:	81 30       	cpi	r24, 0x01	; 1
    15a2:	31 f4       	brne	.+12     	; 0x15b0 <Reset+0x2c>
    if (gameState[number>>3] & (1<<(number&7))) return 1; else return 0;
}

void WriteStatusBit(uint8_t number, uint8_t state){
    number &= 0x7f;
    if (state) gameState[number>>3] |= 1<<(number&7);
    15a4:	80 91 6e 3a 	lds	r24, 0x3A6E	; 0x803a6e <gameState+0xd>
    15a8:	80 68       	ori	r24, 0x80	; 128
    15aa:	80 93 6e 3a 	sts	0x3A6E, r24	; 0x803a6e <gameState+0xd>
    15ae:	0d c0       	rjmp	.+26     	; 0x15ca <Reset+0x46>
    uint8_t id = getID();

    //Write bit in gameState location 110..113
    if (id == 0) WriteStatusBit(110, 1);
    else if (id == 1) WriteStatusBit(111, 1);
    else if (id == 2) WriteStatusBit(112, 1);
    15b0:	82 30       	cpi	r24, 0x02	; 2
    15b2:	21 f4       	brne	.+8      	; 0x15bc <Reset+0x38>
    if (gameState[number>>3] & (1<<(number&7))) return 1; else return 0;
}

void WriteStatusBit(uint8_t number, uint8_t state){
    number &= 0x7f;
    if (state) gameState[number>>3] |= 1<<(number&7);
    15b4:	80 91 6f 3a 	lds	r24, 0x3A6F	; 0x803a6f <gameState+0xe>
    15b8:	81 60       	ori	r24, 0x01	; 1
    15ba:	05 c0       	rjmp	.+10     	; 0x15c6 <Reset+0x42>

    //Write bit in gameState location 110..113
    if (id == 0) WriteStatusBit(110, 1);
    else if (id == 1) WriteStatusBit(111, 1);
    else if (id == 2) WriteStatusBit(112, 1);
    else if (id == 3) WriteStatusBit(113, 1);
    15bc:	83 30       	cpi	r24, 0x03	; 3
    15be:	29 f4       	brne	.+10     	; 0x15ca <Reset+0x46>
    if (gameState[number>>3] & (1<<(number&7))) return 1; else return 0;
}

void WriteStatusBit(uint8_t number, uint8_t state){
    number &= 0x7f;
    if (state) gameState[number>>3] |= 1<<(number&7);
    15c0:	80 91 6f 3a 	lds	r24, 0x3A6F	; 0x803a6f <gameState+0xe>
    15c4:	82 60       	ori	r24, 0x02	; 2
    15c6:	80 93 6f 3a 	sts	0x3A6F, r24	; 0x803a6f <gameState+0xe>
    15ca:	80 91 61 3a 	lds	r24, 0x3A61	; 0x803a61 <gameState>
    15ce:	81 60       	ori	r24, 0x01	; 1
    15d0:	80 93 61 3a 	sts	0x3A61, r24	; 0x803a61 <gameState>
    15d4:	08 95       	ret

000015d6 <LoadGameState>:

    return sample;
}

//Load game status
void LoadGameState(){
    15d6:	cf 93       	push	r28
    15d8:	df 93       	push	r29
    EERead(0, &gameState[0], BOOTCHK);   //Load game status bits from EEPROM
    15da:	44 e1       	ldi	r20, 0x14	; 20
    15dc:	61 e6       	ldi	r22, 0x61	; 97
    15de:	7a e3       	ldi	r23, 0x3A	; 58
    15e0:	80 e0       	ldi	r24, 0x00	; 0
    15e2:	de dd       	rcall	.-1092   	; 0x11a0 <EERead>
    15e4:	ce e6       	ldi	r28, 0x6E	; 110

    uint8_t idSet = 0;
    15e6:	d0 e0       	ldi	r29, 0x00	; 0
    for (uint8_t x=0; x<4; ++x){
        idSet += ReadStatusBit(110+x);
    15e8:	8c 2f       	mov	r24, r28
    15ea:	76 df       	rcall	.-276    	; 0x14d8 <ReadStatusBit>
    15ec:	d8 0f       	add	r29, r24
    15ee:	cf 5f       	subi	r28, 0xFF	; 255
//Load game status
void LoadGameState(){
    EERead(0, &gameState[0], BOOTCHK);   //Load game status bits from EEPROM

    uint8_t idSet = 0;
    for (uint8_t x=0; x<4; ++x){
    15f0:	c2 37       	cpi	r28, 0x72	; 114
    15f2:	d1 f7       	brne	.-12     	; 0x15e8 <LoadGameState+0x12>
        idSet += ReadStatusBit(110+x);
    }

    //Check if badge is reset(0 = cheated!) or new(3) or error(2)
    if (idSet != 1) {
    15f4:	d1 30       	cpi	r29, 0x01	; 1
        Reset();
    15f6:	11 f0       	breq	.+4      	; 0x15fc <LoadGameState+0x26>
    15f8:	c5 df       	rcall	.-118    	; 0x1584 <Reset>
    } else getID();
    15fa:	01 c0       	rjmp	.+2      	; 0x15fe <LoadGameState+0x28>
    15fc:	b5 df       	rcall	.-150    	; 0x1568 <getID>

    inventory[0] = (gameState[INVADDR]<<8|gameState[INVADDR+1]);
    15fe:	80 91 71 3a 	lds	r24, 0x3A71	; 0x803a71 <gameState+0x10>
    1602:	90 91 72 3a 	lds	r25, 0x3A72	; 0x803a72 <gameState+0x11>
    1606:	98 27       	eor	r25, r24
    1608:	89 27       	eor	r24, r25
    160a:	98 27       	eor	r25, r24
    160c:	80 93 3e 38 	sts	0x383E, r24	; 0x80383e <inventory>
    1610:	90 93 3f 38 	sts	0x383F, r25	; 0x80383f <inventory+0x1>
    inventory[1] = (gameState[INVADDR+2]<<8|gameState[INVADDR+3]);
    1614:	80 91 73 3a 	lds	r24, 0x3A73	; 0x803a73 <gameState+0x12>
    1618:	90 91 74 3a 	lds	r25, 0x3A74	; 0x803a74 <gameState+0x13>
    161c:	98 27       	eor	r25, r24
    161e:	89 27       	eor	r24, r25
    1620:	98 27       	eor	r25, r24
    1622:	80 93 40 38 	sts	0x3840, r24	; 0x803840 <inventory+0x2>
    1626:	90 93 41 38 	sts	0x3841, r25	; 0x803841 <inventory+0x3>
}
    162a:	df 91       	pop	r29
    162c:	cf 91       	pop	r28
    162e:	08 95       	ret

00001630 <HotSummer>:
    //Write bit 0, must always be 1!
    WriteStatusBit(0, 1);
}

//Sets specific game bits after the badge is heated for one and two times.
uint8_t HotSummer(){
    1630:	cf 93       	push	r28
    static uint8_t cooledDown = 0;

    if (CheckState(SUMMERS_COMPLETED)){
    1632:	86 e7       	ldi	r24, 0x76	; 118
    1634:	89 df       	rcall	.-238    	; 0x1548 <CheckState>
    1636:	c8 2f       	mov	r28, r24
    1638:	88 23       	and	r24, r24
    163a:	81 f0       	breq	.+32     	; 0x165c <HotSummer+0x2c>
        iLED[SCARAB[G]] = 0;
    163c:	e0 91 b9 be 	lds	r30, 0xBEB9	; 0x80beb9 <__bss_end+0x839f>
    1640:	f0 e0       	ldi	r31, 0x00	; 0
    1642:	e6 53       	subi	r30, 0x36	; 54
    1644:	f5 4c       	sbci	r31, 0xC5	; 197
    1646:	10 82       	st	Z, r1
        iLED[SCARAB[R]] = dimValue;
    1648:	e0 91 b8 be 	lds	r30, 0xBEB8	; 0x80beb8 <__bss_end+0x839e>
    164c:	f0 e0       	ldi	r31, 0x00	; 0
    164e:	80 91 0b 38 	lds	r24, 0x380B	; 0x80380b <dimValue>
    1652:	e6 53       	subi	r30, 0x36	; 54
    1654:	f5 4c       	sbci	r31, 0xC5	; 197
    1656:	80 83       	st	Z, r24
        return 1;
    1658:	c1 e0       	ldi	r28, 0x01	; 1
    165a:	4c c0       	rjmp	.+152    	; 0x16f4 <HotSummer+0xc4>
    }

    if (CheckState(FIRST_SUMMER)) {
    165c:	85 e7       	ldi	r24, 0x75	; 117
    165e:	74 df       	rcall	.-280    	; 0x1548 <CheckState>
    1660:	88 23       	and	r24, r24
    1662:	59 f1       	breq	.+86     	; 0x16ba <HotSummer+0x8a>
        iLED[SCARAB[G]] = dimValue;
    1664:	e0 91 b9 be 	lds	r30, 0xBEB9	; 0x80beb9 <__bss_end+0x839f>
    1668:	f0 e0       	ldi	r31, 0x00	; 0
    166a:	80 91 0b 38 	lds	r24, 0x380B	; 0x80380b <dimValue>
    166e:	e6 53       	subi	r30, 0x36	; 54
    1670:	f5 4c       	sbci	r31, 0xC5	; 197
    1672:	80 83       	st	Z, r24
        if ((cooledDown) && (adcTemp >= (calTemp + 32))) {
    1674:	80 91 59 38 	lds	r24, 0x3859	; 0x803859 <cooledDown.3946>
    1678:	88 23       	and	r24, r24
    167a:	79 f0       	breq	.+30     	; 0x169a <HotSummer+0x6a>
    167c:	80 91 c0 3a 	lds	r24, 0x3AC0	; 0x803ac0 <calTemp>
    1680:	90 91 c1 3a 	lds	r25, 0x3AC1	; 0x803ac1 <calTemp+0x1>
    1684:	20 91 f5 3a 	lds	r18, 0x3AF5	; 0x803af5 <adcTemp>
    1688:	30 91 f6 3a 	lds	r19, 0x3AF6	; 0x803af6 <adcTemp+0x1>
    168c:	80 96       	adiw	r24, 0x20	; 32
    168e:	28 17       	cp	r18, r24
    1690:	39 07       	cpc	r19, r25
            UpdateState(SUMMERS_COMPLETED);
    1692:	18 f0       	brcs	.+6      	; 0x169a <HotSummer+0x6a>
    1694:	86 e7       	ldi	r24, 0x76	; 118
    1696:	4e df       	rcall	.-356    	; 0x1534 <UpdateState>
            return 0;
    1698:	2d c0       	rjmp	.+90     	; 0x16f4 <HotSummer+0xc4>
        }
        if (adcTemp <= (calTemp + 8)) cooledDown = 1;
    169a:	80 91 c0 3a 	lds	r24, 0x3AC0	; 0x803ac0 <calTemp>
    169e:	90 91 c1 3a 	lds	r25, 0x3AC1	; 0x803ac1 <calTemp+0x1>
    16a2:	20 91 f5 3a 	lds	r18, 0x3AF5	; 0x803af5 <adcTemp>
    16a6:	30 91 f6 3a 	lds	r19, 0x3AF6	; 0x803af6 <adcTemp+0x1>
    16aa:	08 96       	adiw	r24, 0x08	; 8
    16ac:	82 17       	cp	r24, r18
    16ae:	93 07       	cpc	r25, r19
    16b0:	08 f1       	brcs	.+66     	; 0x16f4 <HotSummer+0xc4>
    16b2:	81 e0       	ldi	r24, 0x01	; 1
    16b4:	80 93 59 38 	sts	0x3859, r24	; 0x803859 <cooledDown.3946>
    16b8:	1d c0       	rjmp	.+58     	; 0x16f4 <HotSummer+0xc4>
                   
    } else {
        if (calTemp == 0) calTemp = adcTemp;
    16ba:	80 91 c0 3a 	lds	r24, 0x3AC0	; 0x803ac0 <calTemp>
    16be:	90 91 c1 3a 	lds	r25, 0x3AC1	; 0x803ac1 <calTemp+0x1>
    16c2:	89 2b       	or	r24, r25
    16c4:	41 f4       	brne	.+16     	; 0x16d6 <HotSummer+0xa6>
    16c6:	80 91 f5 3a 	lds	r24, 0x3AF5	; 0x803af5 <adcTemp>
    16ca:	90 91 f6 3a 	lds	r25, 0x3AF6	; 0x803af6 <adcTemp+0x1>
    16ce:	80 93 c0 3a 	sts	0x3AC0, r24	; 0x803ac0 <calTemp>
    16d2:	90 93 c1 3a 	sts	0x3AC1, r25	; 0x803ac1 <calTemp+0x1>
        if (adcTemp >= (calTemp + 32)) {
    16d6:	80 91 c0 3a 	lds	r24, 0x3AC0	; 0x803ac0 <calTemp>
    16da:	90 91 c1 3a 	lds	r25, 0x3AC1	; 0x803ac1 <calTemp+0x1>
    16de:	20 91 f5 3a 	lds	r18, 0x3AF5	; 0x803af5 <adcTemp>
    16e2:	30 91 f6 3a 	lds	r19, 0x3AF6	; 0x803af6 <adcTemp+0x1>
    16e6:	80 96       	adiw	r24, 0x20	; 32
    16e8:	28 17       	cp	r18, r24
    16ea:	39 07       	cpc	r19, r25
            UpdateState(FIRST_SUMMER);
    16ec:	18 f0       	brcs	.+6      	; 0x16f4 <HotSummer+0xc4>
    16ee:	85 e7       	ldi	r24, 0x75	; 117
    16f0:	21 df       	rcall	.-446    	; 0x1534 <UpdateState>
        }
    }
    return 0;
    16f2:	c0 e0       	ldi	r28, 0x00	; 0
}
    16f4:	8c 2f       	mov	r24, r28
    16f6:	cf 91       	pop	r28
    16f8:	08 95       	ret

000016fa <WingBar>:

void WingBar(int8_t l, int8_t r) {
    16fa:	ea eb       	ldi	r30, 0xBA	; 186
    16fc:	fe eb       	ldi	r31, 0xBE	; 190
    for (int8_t i=0; i<5; i++) {
    16fe:	90 e0       	ldi	r25, 0x00	; 0
        if (i<l)
            iLED[WING[L][i]] = dimValue;
    1700:	a5 81       	ldd	r26, Z+5	; 0x05
    1702:	b0 e0       	ldi	r27, 0x00	; 0
    return 0;
}

void WingBar(int8_t l, int8_t r) {
    for (int8_t i=0; i<5; i++) {
        if (i<l)
    1704:	98 17       	cp	r25, r24
    1706:	34 f4       	brge	.+12     	; 0x1714 <WingBar+0x1a>
            iLED[WING[L][i]] = dimValue;
    1708:	20 91 0b 38 	lds	r18, 0x380B	; 0x80380b <dimValue>
    170c:	a6 53       	subi	r26, 0x36	; 54
    170e:	b5 4c       	sbci	r27, 0xC5	; 197
    1710:	2c 93       	st	X, r18
    1712:	03 c0       	rjmp	.+6      	; 0x171a <WingBar+0x20>
        else
            iLED[WING[L][i]] = 0;
    1714:	a6 53       	subi	r26, 0x36	; 54
    1716:	b5 4c       	sbci	r27, 0xC5	; 197
    1718:	1c 92       	st	X, r1
        if (i<r)
            iLED[WING[R][i]] = dimValue;
    171a:	a0 81       	ld	r26, Z
    171c:	b0 e0       	ldi	r27, 0x00	; 0
    for (int8_t i=0; i<5; i++) {
        if (i<l)
            iLED[WING[L][i]] = dimValue;
        else
            iLED[WING[L][i]] = 0;
        if (i<r)
    171e:	96 17       	cp	r25, r22
    1720:	34 f4       	brge	.+12     	; 0x172e <WingBar+0x34>
            iLED[WING[R][i]] = dimValue;
    1722:	20 91 0b 38 	lds	r18, 0x380B	; 0x80380b <dimValue>
    1726:	a6 53       	subi	r26, 0x36	; 54
    1728:	b5 4c       	sbci	r27, 0xC5	; 197
    172a:	2c 93       	st	X, r18
    172c:	03 c0       	rjmp	.+6      	; 0x1734 <WingBar+0x3a>
        else
            iLED[WING[R][i]] = 0;
    172e:	a6 53       	subi	r26, 0x36	; 54
    1730:	b5 4c       	sbci	r27, 0xC5	; 197
    1732:	1c 92       	st	X, r1
    1734:	9f 5f       	subi	r25, 0xFF	; 255
    1736:	31 96       	adiw	r30, 0x01	; 1
    }
    return 0;
}

void WingBar(int8_t l, int8_t r) {
    for (int8_t i=0; i<5; i++) {
    1738:	95 30       	cpi	r25, 0x05	; 5
    173a:	11 f7       	brne	.-60     	; 0x1700 <WingBar+0x6>
        if (i<r)
            iLED[WING[R][i]] = dimValue;
        else
            iLED[WING[R][i]] = 0;
    }
}
    173c:	08 95       	ret

0000173e <SetBothEyes>:

void SetBothEyes(uint8_t r, uint8_t g) {
    for (uint8_t i=0; i<2; i++) {
        iLED[EYE[R][i]] = r;
    173e:	a4 ec       	ldi	r26, 0xC4	; 196
    1740:	be eb       	ldi	r27, 0xBE	; 190
    1742:	ec 91       	ld	r30, X
    1744:	f0 e0       	ldi	r31, 0x00	; 0
    1746:	e6 53       	subi	r30, 0x36	; 54
    1748:	f5 4c       	sbci	r31, 0xC5	; 197
    174a:	80 83       	st	Z, r24
        iLED[EYE[G][i]] = g;
    174c:	12 96       	adiw	r26, 0x02	; 2
    174e:	ec 91       	ld	r30, X
    1750:	12 97       	sbiw	r26, 0x02	; 2
    1752:	f0 e0       	ldi	r31, 0x00	; 0
    1754:	e6 53       	subi	r30, 0x36	; 54
    1756:	f5 4c       	sbci	r31, 0xC5	; 197
    1758:	60 83       	st	Z, r22
    }
}

void SetBothEyes(uint8_t r, uint8_t g) {
    for (uint8_t i=0; i<2; i++) {
        iLED[EYE[R][i]] = r;
    175a:	11 96       	adiw	r26, 0x01	; 1
    175c:	ec 91       	ld	r30, X
    175e:	11 97       	sbiw	r26, 0x01	; 1
    1760:	f0 e0       	ldi	r31, 0x00	; 0
    1762:	e6 53       	subi	r30, 0x36	; 54
    1764:	f5 4c       	sbci	r31, 0xC5	; 197
    1766:	80 83       	st	Z, r24
        iLED[EYE[G][i]] = g;
    1768:	13 96       	adiw	r26, 0x03	; 3
    176a:	ec 91       	ld	r30, X
    176c:	f0 e0       	ldi	r31, 0x00	; 0
    176e:	e6 53       	subi	r30, 0x36	; 54
    1770:	f5 4c       	sbci	r31, 0xC5	; 197
    1772:	60 83       	st	Z, r22
    1774:	08 95       	ret

00001776 <GenerateBlinks>:
    }
}

void GenerateBlinks(){
    1776:	1f 93       	push	r17
    1778:	cf 93       	push	r28
    177a:	df 93       	push	r29
    used by the games, the other LEDs can be used by setting 
    effect (or be set directly)
    */

    //Activate HCKR & BADGER leds based on the state-bits
    if (gameNow == TEXT) {
    177c:	80 91 3c 38 	lds	r24, 0x383C	; 0x80383c <gameNow>
    1780:	88 23       	and	r24, r24
    1782:	29 f0       	breq	.+10     	; 0x178e <GenerateBlinks+0x18>
                iLED[HCKR[R][i]] = dimValue;
            }
        }
    }

    if (CheckState(GEM_STATE)) {
    1784:	80 e4       	ldi	r24, 0x40	; 64
    1786:	e0 de       	rcall	.-576    	; 0x1548 <CheckState>
    1788:	81 11       	cpse	r24, r1
    178a:	24 c0       	rjmp	.+72     	; 0x17d4 <GenerateBlinks+0x5e>
    178c:	50 c0       	rjmp	.+160    	; 0x182e <GenerateBlinks+0xb8>
    178e:	c8 ec       	ldi	r28, 0xC8	; 200
    1790:	de eb       	ldi	r29, 0xBE	; 190
    used by the games, the other LEDs can be used by setting 
    effect (or be set directly)
    */

    //Activate HCKR & BADGER leds based on the state-bits
    if (gameNow == TEXT) {
    1792:	1a e7       	ldi	r17, 0x7A	; 122
        for (uint8_t i=0;i<6;i++) {
            if(CheckState(HACKER_STATES + i)) {
    1794:	81 2f       	mov	r24, r17
    1796:	d8 de       	rcall	.-592    	; 0x1548 <CheckState>
                iLED[HCKR[G][i]] = dimValue;
    1798:	ee 81       	ldd	r30, Y+6	; 0x06
    179a:	f0 e0       	ldi	r31, 0x00	; 0
    */

    //Activate HCKR & BADGER leds based on the state-bits
    if (gameNow == TEXT) {
        for (uint8_t i=0;i<6;i++) {
            if(CheckState(HACKER_STATES + i)) {
    179c:	88 23       	and	r24, r24
    179e:	59 f0       	breq	.+22     	; 0x17b6 <GenerateBlinks+0x40>
                iLED[HCKR[G][i]] = dimValue;
    17a0:	80 91 0b 38 	lds	r24, 0x380B	; 0x80380b <dimValue>
    17a4:	e6 53       	subi	r30, 0x36	; 54
    17a6:	f5 4c       	sbci	r31, 0xC5	; 197
    17a8:	80 83       	st	Z, r24
                iLED[HCKR[R][i]] = 0;
    17aa:	e8 81       	ld	r30, Y
    17ac:	f0 e0       	ldi	r31, 0x00	; 0
    17ae:	e6 53       	subi	r30, 0x36	; 54
    17b0:	f5 4c       	sbci	r31, 0xC5	; 197
    17b2:	10 82       	st	Z, r1
    17b4:	0a c0       	rjmp	.+20     	; 0x17ca <GenerateBlinks+0x54>
            } else {
                iLED[HCKR[G][i]] = 0;
    17b6:	e6 53       	subi	r30, 0x36	; 54
    17b8:	f5 4c       	sbci	r31, 0xC5	; 197
    17ba:	10 82       	st	Z, r1
                iLED[HCKR[R][i]] = dimValue;
    17bc:	e8 81       	ld	r30, Y
    17be:	f0 e0       	ldi	r31, 0x00	; 0
    17c0:	80 91 0b 38 	lds	r24, 0x380B	; 0x80380b <dimValue>
    17c4:	e6 53       	subi	r30, 0x36	; 54
    17c6:	f5 4c       	sbci	r31, 0xC5	; 197
    17c8:	80 83       	st	Z, r24
    17ca:	1f 5f       	subi	r17, 0xFF	; 255
    17cc:	21 96       	adiw	r28, 0x01	; 1
    effect (or be set directly)
    */

    //Activate HCKR & BADGER leds based on the state-bits
    if (gameNow == TEXT) {
        for (uint8_t i=0;i<6;i++) {
    17ce:	10 38       	cpi	r17, 0x80	; 128
    17d0:	09 f7       	brne	.-62     	; 0x1794 <GenerateBlinks+0x1e>
    17d2:	d8 cf       	rjmp	.-80     	; 0x1784 <GenerateBlinks+0xe>
            }
        }
    }

    if (CheckState(GEM_STATE)) {
        if ( HeartCount == 1 || HeartCount == 3 || HeartCount == 5 )
    17d4:	80 91 5b 38 	lds	r24, 0x385B	; 0x80385b <HeartCount>
    17d8:	98 2f       	mov	r25, r24
    17da:	9d 7f       	andi	r25, 0xFD	; 253
    17dc:	e0 91 b7 be 	lds	r30, 0xBEB7	; 0x80beb7 <__bss_end+0x839d>
            iLED[BADGER] = dimValue>>1 ;
    17e0:	f0 e0       	ldi	r31, 0x00	; 0
            }
        }
    }

    if (CheckState(GEM_STATE)) {
        if ( HeartCount == 1 || HeartCount == 3 || HeartCount == 5 )
    17e2:	91 30       	cpi	r25, 0x01	; 1
    17e4:	11 f0       	breq	.+4      	; 0x17ea <GenerateBlinks+0x74>
    17e6:	85 30       	cpi	r24, 0x05	; 5
    17e8:	21 f4       	brne	.+8      	; 0x17f2 <GenerateBlinks+0x7c>
            iLED[BADGER] = dimValue>>1 ;
    17ea:	90 91 0b 38 	lds	r25, 0x380B	; 0x80380b <dimValue>
    17ee:	96 95       	lsr	r25
    17f0:	06 c0       	rjmp	.+12     	; 0x17fe <GenerateBlinks+0x88>
        else if ( HeartCount == 2 || HeartCount == 4 )
    17f2:	82 30       	cpi	r24, 0x02	; 2
    17f4:	11 f0       	breq	.+4      	; 0x17fa <GenerateBlinks+0x84>
    17f6:	84 30       	cpi	r24, 0x04	; 4
    17f8:	31 f4       	brne	.+12     	; 0x1806 <GenerateBlinks+0x90>
            iLED[BADGER] = dimValue;
    17fa:	90 91 0b 38 	lds	r25, 0x380B	; 0x80380b <dimValue>
    17fe:	e6 53       	subi	r30, 0x36	; 54
    1800:	f5 4c       	sbci	r31, 0xC5	; 197
    1802:	90 83       	st	Z, r25
    1804:	0c c0       	rjmp	.+24     	; 0x181e <GenerateBlinks+0xa8>
        else if ( HeartCount == 0 || HeartCount == 6 )
    1806:	88 23       	and	r24, r24
    1808:	11 f0       	breq	.+4      	; 0x180e <GenerateBlinks+0x98>
    180a:	86 30       	cpi	r24, 0x06	; 6
    180c:	29 f4       	brne	.+10     	; 0x1818 <GenerateBlinks+0xa2>
            iLED[BADGER] = dimValue>>2;
    180e:	90 91 0b 38 	lds	r25, 0x380B	; 0x80380b <dimValue>
    1812:	96 95       	lsr	r25
    1814:	96 95       	lsr	r25
    1816:	f3 cf       	rjmp	.-26     	; 0x17fe <GenerateBlinks+0x88>
        else
            iLED[BADGER] = 0;
    1818:	e6 53       	subi	r30, 0x36	; 54
    181a:	f5 4c       	sbci	r31, 0xC5	; 197
    181c:	10 82       	st	Z, r1
        if (HeartCount<32)
    181e:	80 32       	cpi	r24, 0x20	; 32
    1820:	20 f4       	brcc	.+8      	; 0x182a <GenerateBlinks+0xb4>
            HeartCount++;
    1822:	8f 5f       	subi	r24, 0xFF	; 255
    1824:	80 93 5b 38 	sts	0x385B, r24	; 0x80385b <HeartCount>
    1828:	02 c0       	rjmp	.+4      	; 0x182e <GenerateBlinks+0xb8>
        else
            HeartCount = 0;
    182a:	10 92 5b 38 	sts	0x385B, r1	; 0x80385b <HeartCount>
    }

    //LEDs effects for all games
    // Keep a counter for dynamic effects
    LedCount++;
    182e:	90 91 5a 38 	lds	r25, 0x385A	; 0x80385a <LedCount>
    1832:	9f 5f       	subi	r25, 0xFF	; 255
    1834:	90 93 5a 38 	sts	0x385A, r25	; 0x80385a <LedCount>

    switch (effect&0x1f) {
    1838:	20 91 3a 38 	lds	r18, 0x383A	; 0x80383a <effect>
    183c:	30 91 3b 38 	lds	r19, 0x383B	; 0x80383b <effect+0x1>
    1840:	2f 71       	andi	r18, 0x1F	; 31
    1842:	33 27       	eor	r19, r19
    1844:	21 30       	cpi	r18, 0x01	; 1
    1846:	31 05       	cpc	r19, r1
    1848:	99 f1       	breq	.+102    	; 0x18b0 <GenerateBlinks+0x13a>
    184a:	20 f0       	brcs	.+8      	; 0x1854 <GenerateBlinks+0xde>
    184c:	22 30       	cpi	r18, 0x02	; 2
    184e:	31 05       	cpc	r19, r1
    1850:	b1 f1       	breq	.+108    	; 0x18be <GenerateBlinks+0x148>
    1852:	46 c0       	rjmp	.+140    	; 0x18e0 <GenerateBlinks+0x16a>
        // All LEDs off
        case 0:
            WingBar(0,0);
    1854:	60 e0       	ldi	r22, 0x00	; 0
    1856:	80 e0       	ldi	r24, 0x00	; 0
    1858:	50 df       	rcall	.-352    	; 0x16fa <WingBar>
            for (uint8_t i=0; i<2; i++) {
                iLED[EYE[R][i]] = 0;
    185a:	e0 91 c4 be 	lds	r30, 0xBEC4	; 0x80bec4 <__bss_end+0x83aa>
    185e:	f0 e0       	ldi	r31, 0x00	; 0
    1860:	e6 53       	subi	r30, 0x36	; 54
    1862:	f5 4c       	sbci	r31, 0xC5	; 197
    1864:	10 82       	st	Z, r1
                iLED[EYE[G][i]] = 0;
    1866:	e0 91 c6 be 	lds	r30, 0xBEC6	; 0x80bec6 <__bss_end+0x83ac>
    186a:	f0 e0       	ldi	r31, 0x00	; 0
    186c:	e6 53       	subi	r30, 0x36	; 54
    186e:	f5 4c       	sbci	r31, 0xC5	; 197
    1870:	10 82       	st	Z, r1
                iLED[SCARAB[i]] = 0;
    1872:	e0 91 b8 be 	lds	r30, 0xBEB8	; 0x80beb8 <__bss_end+0x839e>
    1876:	f0 e0       	ldi	r31, 0x00	; 0
    1878:	e6 53       	subi	r30, 0x36	; 54
    187a:	f5 4c       	sbci	r31, 0xC5	; 197
    187c:	10 82       	st	Z, r1
    switch (effect&0x1f) {
        // All LEDs off
        case 0:
            WingBar(0,0);
            for (uint8_t i=0; i<2; i++) {
                iLED[EYE[R][i]] = 0;
    187e:	e0 91 c5 be 	lds	r30, 0xBEC5	; 0x80bec5 <__bss_end+0x83ab>
    1882:	f0 e0       	ldi	r31, 0x00	; 0
    1884:	e6 53       	subi	r30, 0x36	; 54
    1886:	f5 4c       	sbci	r31, 0xC5	; 197
    1888:	10 82       	st	Z, r1
                iLED[EYE[G][i]] = 0;
    188a:	e0 91 c7 be 	lds	r30, 0xBEC7	; 0x80bec7 <__bss_end+0x83ad>
    188e:	f0 e0       	ldi	r31, 0x00	; 0
    1890:	e6 53       	subi	r30, 0x36	; 54
    1892:	f5 4c       	sbci	r31, 0xC5	; 197
    1894:	10 82       	st	Z, r1
                iLED[SCARAB[i]] = 0;
    1896:	e0 91 b9 be 	lds	r30, 0xBEB9	; 0x80beb9 <__bss_end+0x839f>
    189a:	f0 e0       	ldi	r31, 0x00	; 0
    189c:	e6 53       	subi	r30, 0x36	; 54
    189e:	f5 4c       	sbci	r31, 0xC5	; 197
    18a0:	10 82       	st	Z, r1
            }
            iLED[CAT] = 0;
    18a2:	e0 91 b6 be 	lds	r30, 0xBEB6	; 0x80beb6 <__bss_end+0x839c>
    18a6:	f0 e0       	ldi	r31, 0x00	; 0
    18a8:	e6 53       	subi	r30, 0x36	; 54
    18aa:	f5 4c       	sbci	r31, 0xC5	; 197
    18ac:	10 82       	st	Z, r1
            break;
    18ae:	18 c0       	rjmp	.+48     	; 0x18e0 <GenerateBlinks+0x16a>

        //'flashing red eyes',       # 1 can be used when a bad answer is given
        case 1:
            SetBothEyes((LedCount & 1 ? dimValue : 0),0);
    18b0:	89 2f       	mov	r24, r25
    18b2:	81 70       	andi	r24, 0x01	; 1
    18b4:	90 fd       	sbrc	r25, 0
    18b6:	80 91 0b 38 	lds	r24, 0x380B	; 0x80380b <dimValue>
    18ba:	60 e0       	ldi	r22, 0x00	; 0
    18bc:	0d c0       	rjmp	.+26     	; 0x18d8 <GenerateBlinks+0x162>
    18be:	69 2f       	mov	r22, r25
    18c0:	70 e0       	ldi	r23, 0x00	; 0
            break;

        //'flashing green eyes',     # 2 can be used when a good answer is given
        case 2:
            SetBothEyes(0, 0x1f + (((LedCount & 0x08) ? ((LedCount&0x07)^0x07) : (LedCount&0x07))<<5));
    18c2:	93 ff       	sbrs	r25, 3
    18c4:	02 c0       	rjmp	.+4      	; 0x18ca <GenerateBlinks+0x154>
    18c6:	60 95       	com	r22
    18c8:	70 95       	com	r23
    18ca:	85 e0       	ldi	r24, 0x05	; 5
    18cc:	66 0f       	add	r22, r22
    18ce:	77 1f       	adc	r23, r23
    18d0:	8a 95       	dec	r24
    18d2:	e1 f7       	brne	.-8      	; 0x18cc <GenerateBlinks+0x156>
    18d4:	61 5e       	subi	r22, 0xE1	; 225
    18d6:	80 e0       	ldi	r24, 0x00	; 0
        // No LED action, game will do it's own LED magic
        case 31:
        default:
            break;
    }
}
    18d8:	df 91       	pop	r29
    18da:	cf 91       	pop	r28
            SetBothEyes((LedCount & 1 ? dimValue : 0),0);
            break;

        //'flashing green eyes',     # 2 can be used when a good answer is given
        case 2:
            SetBothEyes(0, 0x1f + (((LedCount & 0x08) ? ((LedCount&0x07)^0x07) : (LedCount&0x07))<<5));
    18dc:	1f 91       	pop	r17
    18de:	2f cf       	rjmp	.-418    	; 0x173e <SetBothEyes>
        // No LED action, game will do it's own LED magic
        case 31:
        default:
            break;
    }
}
    18e0:	df 91       	pop	r29
    18e2:	cf 91       	pop	r28
    18e4:	1f 91       	pop	r17
    18e6:	08 95       	ret

000018e8 <GenerateAudio>:


uint8_t GenerateAudio(){
    18e8:	0f 93       	push	r16
    18ea:	1f 93       	push	r17
    18ec:	cf 93       	push	r28

    if (auIn[AULEN>>1] < HPLVL) {
    18ee:	80 91 c6 3a 	lds	r24, 0x3AC6	; 0x803ac6 <auIn+0x4>
    18f2:	89 31       	cpi	r24, 0x19	; 25
    18f4:	08 f0       	brcs	.+2      	; 0x18f8 <GenerateAudio+0x10>
    18f6:	27 c1       	rjmp	.+590    	; 0x1b46 <GenerateAudio+0x25e>

        detHdPh = 1;
    18f8:	c1 e0       	ldi	r28, 0x01	; 1
    18fa:	c0 93 bf 3a 	sts	0x3ABF, r28	; 0x803abf <detHdPh>

        //Audio for text adventure
        if ((effect&0xff00)==0) {
    18fe:	80 91 3a 38 	lds	r24, 0x383A	; 0x80383a <effect>
    1902:	90 91 3b 38 	lds	r25, 0x383B	; 0x80383b <effect+0x1>
    1906:	88 27       	eor	r24, r24
    1908:	89 2b       	or	r24, r25
    190a:	09 f0       	breq	.+2      	; 0x190e <GenerateAudio+0x26>
    190c:	bf c0       	rjmp	.+382    	; 0x1a8c <GenerateAudio+0x1a4>

            //Silence
            if ((effect&0xE0)==0){
    190e:	80 91 3a 38 	lds	r24, 0x383A	; 0x80383a <effect>
    1912:	90 91 3b 38 	lds	r25, 0x383B	; 0x80383b <effect+0x1>
    1916:	80 7e       	andi	r24, 0xE0	; 224
    1918:	99 27       	eor	r25, r25
    191a:	89 2b       	or	r24, r25
    191c:	31 f4       	brne	.+12     	; 0x192a <GenerateAudio+0x42>
                auRepAddr = &zero;
    191e:	88 e3       	ldi	r24, 0x38	; 56
    1920:	98 e3       	ldi	r25, 0x38	; 56
    1922:	80 93 05 38 	sts	0x3805, r24	; 0x803805 <auRepAddr>
    1926:	90 93 06 38 	sts	0x3806, r25	; 0x803806 <auRepAddr+0x1>
            }

            //Bad (buzzer)
            if ((effect&0xE0)==32){
    192a:	80 91 3a 38 	lds	r24, 0x383A	; 0x80383a <effect>
    192e:	90 91 3b 38 	lds	r25, 0x383B	; 0x80383b <effect+0x1>
    1932:	80 7e       	andi	r24, 0xE0	; 224
    1934:	99 27       	eor	r25, r25
    1936:	80 97       	sbiw	r24, 0x20	; 32
    1938:	09 f0       	breq	.+2      	; 0x193c <GenerateAudio+0x54>
    193a:	59 c0       	rjmp	.+178    	; 0x19ee <GenerateAudio+0x106>
                static uint8_t auBuffer[17] = {1, 255, 128, 128, 192, 255, 64, 255, 192, 128, 64, 1, 192, 1, 64, 128, 0}; 
                static uint8_t loudness, duration, start;
                floatSpeed(1, 0x2000, 0x2200);
    193c:	40 e0       	ldi	r20, 0x00	; 0
    193e:	52 e2       	ldi	r21, 0x22	; 34
    1940:	60 e0       	ldi	r22, 0x00	; 0
    1942:	70 e2       	ldi	r23, 0x20	; 32
    1944:	81 e0       	ldi	r24, 0x01	; 1
    1946:	f1 dc       	rcall	.-1566   	; 0x132a <floatSpeed>
                auBuffer[2] = floatAround(0x80, 5, 0x01, 0x00);
    1948:	20 e0       	ldi	r18, 0x00	; 0
    194a:	41 e0       	ldi	r20, 0x01	; 1
    194c:	65 e0       	ldi	r22, 0x05	; 5
    194e:	80 e8       	ldi	r24, 0x80	; 128
    1950:	1e dd       	rcall	.-1476   	; 0x138e <floatAround>
    1952:	80 93 12 38 	sts	0x3812, r24	; 0x803812 <auBuffer.3981+0x2>

                if (buttonMark) {
    1956:	80 91 42 38 	lds	r24, 0x3842	; 0x803842 <buttonMark>
    195a:	88 23       	and	r24, r24
    195c:	09 f4       	brne	.+2      	; 0x1960 <GenerateAudio+0x78>
    195e:	47 c0       	rjmp	.+142    	; 0x19ee <GenerateAudio+0x106>
                    if (start == 0) {
    1960:	80 91 58 38 	lds	r24, 0x3858	; 0x803858 <start.3984>
    1964:	81 11       	cpse	r24, r1
    1966:	15 c0       	rjmp	.+42     	; 0x1992 <GenerateAudio+0xaa>
                        duration = 4;
    1968:	84 e0       	ldi	r24, 0x04	; 4
    196a:	80 93 57 38 	sts	0x3857, r24	; 0x803857 <duration.3983>
                        loudness = 0xff;
    196e:	8f ef       	ldi	r24, 0xFF	; 255
    1970:	80 93 56 38 	sts	0x3856, r24	; 0x803856 <loudness.3982>
                        TCB1_CCMP = 0x2000;
    1974:	80 e0       	ldi	r24, 0x00	; 0
    1976:	90 e2       	ldi	r25, 0x20	; 32
    1978:	80 93 5c 0a 	sts	0x0A5C, r24	; 0x800a5c <__TEXT_REGION_LENGTH__+0x700a5c>
    197c:	90 93 5d 0a 	sts	0x0A5D, r25	; 0x800a5d <__TEXT_REGION_LENGTH__+0x700a5d>
                        auRepAddr = &auBuffer[0];
    1980:	80 e1       	ldi	r24, 0x10	; 16
    1982:	98 e3       	ldi	r25, 0x38	; 56
    1984:	80 93 05 38 	sts	0x3805, r24	; 0x803805 <auRepAddr>
    1988:	90 93 06 38 	sts	0x3806, r25	; 0x803806 <auRepAddr+0x1>
                        start = 1;
    198c:	81 e0       	ldi	r24, 0x01	; 1
    198e:	80 93 58 38 	sts	0x3858, r24	; 0x803858 <start.3984>
                    }

                    if (loudness) {
    1992:	80 91 56 38 	lds	r24, 0x3856	; 0x803856 <loudness.3982>
    1996:	88 23       	and	r24, r24
    1998:	69 f0       	breq	.+26     	; 0x19b4 <GenerateAudio+0xcc>
                        auVolume = loudness;
    199a:	80 93 b6 3a 	sts	0x3AB6, r24	; 0x803ab6 <auVolume>
                        if (duration) duration--; else loudness >>= 1;
    199e:	90 91 57 38 	lds	r25, 0x3857	; 0x803857 <duration.3983>
    19a2:	99 23       	and	r25, r25
    19a4:	21 f0       	breq	.+8      	; 0x19ae <GenerateAudio+0xc6>
    19a6:	91 50       	subi	r25, 0x01	; 1
    19a8:	90 93 57 38 	sts	0x3857, r25	; 0x803857 <duration.3983>
    19ac:	03 c0       	rjmp	.+6      	; 0x19b4 <GenerateAudio+0xcc>
    19ae:	86 95       	lsr	r24
    19b0:	80 93 56 38 	sts	0x3856, r24	; 0x803856 <loudness.3982>
                    } 

                    if (loudness == 0) {
    19b4:	80 91 56 38 	lds	r24, 0x3856	; 0x803856 <loudness.3982>
    19b8:	81 11       	cpse	r24, r1
    19ba:	19 c0       	rjmp	.+50     	; 0x19ee <GenerateAudio+0x106>
                        effect &= 0x1f;
    19bc:	80 91 3a 38 	lds	r24, 0x383A	; 0x80383a <effect>
    19c0:	90 91 3b 38 	lds	r25, 0x383B	; 0x80383b <effect+0x1>
    19c4:	8f 71       	andi	r24, 0x1F	; 31
    19c6:	99 27       	eor	r25, r25
    19c8:	80 93 3a 38 	sts	0x383A, r24	; 0x80383a <effect>
    19cc:	90 93 3b 38 	sts	0x383B, r25	; 0x80383b <effect+0x1>
                        auRepAddr = &zero;
    19d0:	88 e3       	ldi	r24, 0x38	; 56
    19d2:	98 e3       	ldi	r25, 0x38	; 56
    19d4:	80 93 05 38 	sts	0x3805, r24	; 0x803805 <auRepAddr>
    19d8:	90 93 06 38 	sts	0x3806, r25	; 0x803806 <auRepAddr+0x1>
                        auSmpAddr = &zero;
    19dc:	80 93 07 38 	sts	0x3807, r24	; 0x803807 <auSmpAddr>
    19e0:	90 93 08 38 	sts	0x3808, r25	; 0x803808 <auSmpAddr+0x1>
                        auVolume = 0xff;
    19e4:	8f ef       	ldi	r24, 0xFF	; 255
    19e6:	80 93 b6 3a 	sts	0x3AB6, r24	; 0x803ab6 <auVolume>
                        start = 0;
    19ea:	10 92 58 38 	sts	0x3858, r1	; 0x803858 <start.3984>
                    }
                }
            }

            //Good (bell)
            if ((effect&0xE0)==64){
    19ee:	80 91 3a 38 	lds	r24, 0x383A	; 0x80383a <effect>
    19f2:	90 91 3b 38 	lds	r25, 0x383B	; 0x80383b <effect+0x1>
                //auBuffer = 
            }

            //Rain storm with whistling wind
            if ((effect&0xE0)==96){
    19f6:	80 91 3a 38 	lds	r24, 0x383A	; 0x80383a <effect>
    19fa:	90 91 3b 38 	lds	r25, 0x383B	; 0x80383b <effect+0x1>
    19fe:	80 7e       	andi	r24, 0xE0	; 224
    1a00:	99 27       	eor	r25, r25
    1a02:	80 36       	cpi	r24, 0x60	; 96
    1a04:	91 05       	cpc	r25, r1
    1a06:	a9 f5       	brne	.+106    	; 0x1a72 <GenerateAudio+0x18a>
                static uint8_t auBuffer[7];
                auBuffer[6]= 0;        
    1a08:	10 92 55 38 	sts	0x3855, r1	; 0x803855 <auBuffer.3985+0x6>
                auRepAddr = &auBuffer[0];
    1a0c:	8f e4       	ldi	r24, 0x4F	; 79
    1a0e:	98 e3       	ldi	r25, 0x38	; 56
    1a10:	80 93 05 38 	sts	0x3805, r24	; 0x803805 <auRepAddr>
    1a14:	90 93 06 38 	sts	0x3806, r25	; 0x803806 <auRepAddr+0x1>
    1a18:	8c 01       	movw	r16, r24

                //Noise is to be generated fast, outside of buttonMark loop
                for (uint8_t x=1; x<6; ++x){
    1a1a:	c1 e0       	ldi	r28, 0x01	; 1
                    if ((x>0) && (x!=3)) auBuffer[x] = floatAround(0x80, 5, 0x01, 0x00);
    1a1c:	c3 30       	cpi	r28, 0x03	; 3
    1a1e:	39 f0       	breq	.+14     	; 0x1a2e <GenerateAudio+0x146>
    1a20:	20 e0       	ldi	r18, 0x00	; 0
    1a22:	41 e0       	ldi	r20, 0x01	; 1
    1a24:	65 e0       	ldi	r22, 0x05	; 5
    1a26:	80 e8       	ldi	r24, 0x80	; 128
    1a28:	b2 dc       	rcall	.-1692   	; 0x138e <floatAround>
    1a2a:	f8 01       	movw	r30, r16
    1a2c:	81 83       	std	Z+1, r24	; 0x01
                static uint8_t auBuffer[7];
                auBuffer[6]= 0;        
                auRepAddr = &auBuffer[0];

                //Noise is to be generated fast, outside of buttonMark loop
                for (uint8_t x=1; x<6; ++x){
    1a2e:	cf 5f       	subi	r28, 0xFF	; 255
    1a30:	0f 5f       	subi	r16, 0xFF	; 255
    1a32:	1f 4f       	sbci	r17, 0xFF	; 255
    1a34:	c6 30       	cpi	r28, 0x06	; 6
    1a36:	91 f7       	brne	.-28     	; 0x1a1c <GenerateAudio+0x134>
                    if ((x>0) && (x!=3)) auBuffer[x] = floatAround(0x80, 5, 0x01, 0x00);
                }

                if (buttonMark){
    1a38:	80 91 42 38 	lds	r24, 0x3842	; 0x803842 <buttonMark>
    1a3c:	88 23       	and	r24, r24
    1a3e:	c9 f0       	breq	.+50     	; 0x1a72 <GenerateAudio+0x18a>
                    //"Floating" speed for howl (and noise, but that's hardly audible)
                    floatSpeed(5, 0x0280, 0x0400);
    1a40:	40 e0       	ldi	r20, 0x00	; 0
    1a42:	54 e0       	ldi	r21, 0x04	; 4
    1a44:	60 e8       	ldi	r22, 0x80	; 128
    1a46:	72 e0       	ldi	r23, 0x02	; 2
    1a48:	85 e0       	ldi	r24, 0x05	; 5
    1a4a:	6f dc       	rcall	.-1826   	; 0x132a <floatSpeed>
            
                    //"Floating" volume and wind howl during 8 bit rainstorm needs some randomness
                    auVolume = floatAround(auVolume, 2, 0x10, 0xA0);
    1a4c:	80 91 b6 3a 	lds	r24, 0x3AB6	; 0x803ab6 <auVolume>
    1a50:	20 ea       	ldi	r18, 0xA0	; 160
    1a52:	40 e1       	ldi	r20, 0x10	; 16
    1a54:	62 e0       	ldi	r22, 0x02	; 2
    1a56:	9b dc       	rcall	.-1738   	; 0x138e <floatAround>
    1a58:	80 93 b6 3a 	sts	0x3AB6, r24	; 0x803ab6 <auVolume>
                    auBuffer[0] = floatAround(auBuffer[0], 2, 0x70, 0x90);
    1a5c:	20 e9       	ldi	r18, 0x90	; 144
    1a5e:	40 e7       	ldi	r20, 0x70	; 112
    1a60:	62 e0       	ldi	r22, 0x02	; 2
    1a62:	80 91 4f 38 	lds	r24, 0x384F	; 0x80384f <auBuffer.3985>
    1a66:	93 dc       	rcall	.-1754   	; 0x138e <floatAround>
    1a68:	80 93 4f 38 	sts	0x384F, r24	; 0x80384f <auBuffer.3985>
                    auBuffer[3] = 0xFF-auBuffer[0];  //Inverse value of wind[0] produces a whistle
    1a6c:	80 95       	com	r24
    1a6e:	80 93 52 38 	sts	0x3852, r24	; 0x803852 <auBuffer.3985+0x3>
                }
            }

            //Footsteps
            if ((effect&0xE0)==128){
    1a72:	80 91 3a 38 	lds	r24, 0x383A	; 0x80383a <effect>
    1a76:	90 91 3b 38 	lds	r25, 0x383B	; 0x80383b <effect+0x1>

            }

            //
            if ((effect&0xE0)==160){
    1a7a:	80 91 3a 38 	lds	r24, 0x383A	; 0x80383a <effect>
    1a7e:	90 91 3b 38 	lds	r25, 0x383B	; 0x80383b <effect+0x1>

            }

            //
            if ((effect&0xE0)==192){
    1a82:	80 91 3a 38 	lds	r24, 0x383A	; 0x80383a <effect>
    1a86:	90 91 3b 38 	lds	r25, 0x383B	; 0x80383b <effect+0x1>
    1a8a:	5f c0       	rjmp	.+190    	; 0x1b4a <GenerateAudio+0x262>
            }

            //
            else {
            }
        } else if ((effect&0xff00)==0x0100) {
    1a8c:	80 91 3a 38 	lds	r24, 0x383A	; 0x80383a <effect>
    1a90:	90 91 3b 38 	lds	r25, 0x383B	; 0x80383b <effect+0x1>
    1a94:	88 27       	eor	r24, r24
    1a96:	81 15       	cp	r24, r1
    1a98:	91 40       	sbci	r25, 0x01	; 1
    1a9a:	09 f0       	breq	.+2      	; 0x1a9e <GenerateAudio+0x1b6>
    1a9c:	56 c0       	rjmp	.+172    	; 0x1b4a <GenerateAudio+0x262>
            if ((effect&0xE0) <= 0x90) {
    1a9e:	80 91 3a 38 	lds	r24, 0x383A	; 0x80383a <effect>
    1aa2:	90 91 3b 38 	lds	r25, 0x383B	; 0x80383b <effect+0x1>
    1aa6:	80 7e       	andi	r24, 0xE0	; 224
    1aa8:	99 27       	eor	r25, r25
    1aaa:	81 39       	cpi	r24, 0x91	; 145
    1aac:	91 05       	cpc	r25, r1
    1aae:	08 f0       	brcs	.+2      	; 0x1ab2 <GenerateAudio+0x1ca>
    1ab0:	4c c0       	rjmp	.+152    	; 0x1b4a <GenerateAudio+0x262>
                
                static uint8_t auBuffer[3] = {255, 1, 0};
                static uint8_t duration, start;
                uint16_t freq = ((effect&0xE0)+1)<<6;
    1ab2:	60 91 3a 38 	lds	r22, 0x383A	; 0x80383a <effect>
    1ab6:	70 91 3b 38 	lds	r23, 0x383B	; 0x80383b <effect+0x1>
    1aba:	60 7e       	andi	r22, 0xE0	; 224
    1abc:	77 27       	eor	r23, r23
    1abe:	6f 5f       	subi	r22, 0xFF	; 255
    1ac0:	7f 4f       	sbci	r23, 0xFF	; 255
    1ac2:	86 e0       	ldi	r24, 0x06	; 6
    1ac4:	66 0f       	add	r22, r22
    1ac6:	77 1f       	adc	r23, r23
    1ac8:	8a 95       	dec	r24
                floatSpeed(1, freq+0x0200, freq+0x0300);
    1aca:	e1 f7       	brne	.-8      	; 0x1ac4 <GenerateAudio+0x1dc>
    1acc:	ab 01       	movw	r20, r22
    1ace:	5d 5f       	subi	r21, 0xFD	; 253
    1ad0:	7e 5f       	subi	r23, 0xFE	; 254
    1ad2:	81 e0       	ldi	r24, 0x01	; 1
    1ad4:	2a dc       	rcall	.-1964   	; 0x132a <floatSpeed>
                //auBuffer[] = floatAround(0x80, 5, 0x01, 0x00);

                if (buttonMark) {
    1ad6:	80 91 42 38 	lds	r24, 0x3842	; 0x803842 <buttonMark>
    1ada:	88 23       	and	r24, r24
    1adc:	b1 f1       	breq	.+108    	; 0x1b4a <GenerateAudio+0x262>
                    if (start == 0) {
    1ade:	80 91 4e 38 	lds	r24, 0x384E	; 0x80384e <start.3992>
    1ae2:	81 11       	cpse	r24, r1
    1ae4:	0e c0       	rjmp	.+28     	; 0x1b02 <GenerateAudio+0x21a>
                        duration = 3;
    1ae6:	83 e0       	ldi	r24, 0x03	; 3
    1ae8:	80 93 4d 38 	sts	0x384D, r24	; 0x80384d <duration.3991>
                        auRepAddr = &auBuffer[0];
    1aec:	8d e0       	ldi	r24, 0x0D	; 13
    1aee:	98 e3       	ldi	r25, 0x38	; 56
    1af0:	80 93 05 38 	sts	0x3805, r24	; 0x803805 <auRepAddr>
    1af4:	90 93 06 38 	sts	0x3806, r25	; 0x803806 <auRepAddr+0x1>
                        auVolume = 255;
    1af8:	8f ef       	ldi	r24, 0xFF	; 255
    1afa:	80 93 b6 3a 	sts	0x3AB6, r24	; 0x803ab6 <auVolume>
                        start = 1;
    1afe:	c0 93 4e 38 	sts	0x384E, r28	; 0x80384e <start.3992>
                    }   if (duration == 0) {
    1b02:	80 91 4d 38 	lds	r24, 0x384D	; 0x80384d <duration.3991>
    1b06:	81 11       	cpse	r24, r1
    1b08:	1a c0       	rjmp	.+52     	; 0x1b3e <GenerateAudio+0x256>
                        effect &= 0x1f;
    1b0a:	80 91 3a 38 	lds	r24, 0x383A	; 0x80383a <effect>
    1b0e:	90 91 3b 38 	lds	r25, 0x383B	; 0x80383b <effect+0x1>
    1b12:	8f 71       	andi	r24, 0x1F	; 31
    1b14:	99 27       	eor	r25, r25
    1b16:	80 93 3a 38 	sts	0x383A, r24	; 0x80383a <effect>
    1b1a:	90 93 3b 38 	sts	0x383B, r25	; 0x80383b <effect+0x1>
                        auRepAddr = &zero;
    1b1e:	88 e3       	ldi	r24, 0x38	; 56
    1b20:	98 e3       	ldi	r25, 0x38	; 56
    1b22:	80 93 05 38 	sts	0x3805, r24	; 0x803805 <auRepAddr>
    1b26:	90 93 06 38 	sts	0x3806, r25	; 0x803806 <auRepAddr+0x1>
                        auSmpAddr = &zero;
    1b2a:	80 93 07 38 	sts	0x3807, r24	; 0x803807 <auSmpAddr>
    1b2e:	90 93 08 38 	sts	0x3808, r25	; 0x803808 <auSmpAddr+0x1>
                        auVolume = 0xff;
    1b32:	8f ef       	ldi	r24, 0xFF	; 255
    1b34:	80 93 b6 3a 	sts	0x3AB6, r24	; 0x803ab6 <auVolume>
                        start = 0;
    1b38:	10 92 4e 38 	sts	0x384E, r1	; 0x80384e <start.3992>
    1b3c:	06 c0       	rjmp	.+12     	; 0x1b4a <GenerateAudio+0x262>
                    } else duration--;
    1b3e:	81 50       	subi	r24, 0x01	; 1
    1b40:	80 93 4d 38 	sts	0x384D, r24	; 0x80384d <duration.3991>
    1b44:	02 c0       	rjmp	.+4      	; 0x1b4a <GenerateAudio+0x262>
                }
            }
        }
    } else {
        detHdPh = 0;
    1b46:	10 92 bf 3a 	sts	0x3ABF, r1	; 0x803abf <detHdPh>
    }
    return buttonMark;
    1b4a:	80 91 42 38 	lds	r24, 0x3842	; 0x803842 <buttonMark>
}
    1b4e:	cf 91       	pop	r28
    1b50:	1f 91       	pop	r17
    1b52:	0f 91       	pop	r16
    1b54:	08 95       	ret

00001b56 <getClock>:

uint16_t getClock() {
    return 60 * minuteMark + (RTC_CNT>>9);
    1b56:	20 91 43 38 	lds	r18, 0x3843	; 0x803843 <minuteMark>
    1b5a:	80 91 48 01 	lds	r24, 0x0148	; 0x800148 <__TEXT_REGION_LENGTH__+0x700148>
    1b5e:	90 91 49 01 	lds	r25, 0x0149	; 0x800149 <__TEXT_REGION_LENGTH__+0x700149>
    1b62:	89 2f       	mov	r24, r25
    1b64:	99 27       	eor	r25, r25
    1b66:	86 95       	lsr	r24
}
    1b68:	3c e3       	ldi	r19, 0x3C	; 60
    1b6a:	23 9f       	mul	r18, r19
    1b6c:	80 0d       	add	r24, r0
    1b6e:	91 1d       	adc	r25, r1
    1b70:	11 24       	eor	r1, r1
    1b72:	08 95       	ret

00001b74 <idleTimeout>:

uint8_t idleTimeout(uint16_t lastActive, uint16_t maxIdle) {
    1b74:	0f 93       	push	r16
    1b76:	1f 93       	push	r17
    1b78:	cf 93       	push	r28
    1b7a:	df 93       	push	r29
    1b7c:	8c 01       	movw	r16, r24
    1b7e:	eb 01       	movw	r28, r22
    uint16_t curClock;

    curClock = getClock();
    1b80:	ea df       	rcall	.-44     	; 0x1b56 <getClock>
    1b82:	9c 01       	movw	r18, r24
    if (curClock < lastActive)
    1b84:	80 17       	cp	r24, r16
    1b86:	91 07       	cpc	r25, r17
    1b88:	08 f4       	brcc	.+2      	; 0x1b8c <idleTimeout+0x18>
        curClock += 256 * 60;
    1b8a:	34 5c       	subi	r19, 0xC4	; 196

    return (curClock > (lastActive + maxIdle));
    1b8c:	c0 0f       	add	r28, r16
    1b8e:	d1 1f       	adc	r29, r17
    1b90:	81 e0       	ldi	r24, 0x01	; 1
    1b92:	c2 17       	cp	r28, r18
    1b94:	d3 07       	cpc	r29, r19
    1b96:	08 f0       	brcs	.+2      	; 0x1b9a <idleTimeout+0x26>
    1b98:	80 e0       	ldi	r24, 0x00	; 0
}
    1b9a:	df 91       	pop	r29
    1b9c:	cf 91       	pop	r28
    1b9e:	1f 91       	pop	r17
    1ba0:	0f 91       	pop	r16
    1ba2:	08 95       	ret

00001ba4 <simonLed>:

/**
 * Set the wing LED blocks to selected option
 * @param val
 */
void simonLed(uint8_t val) {
    1ba4:	cf 93       	push	r28
    1ba6:	df 93       	push	r29
    1ba8:	ea eb       	ldi	r30, 0xBA	; 186
    1baa:	fe eb       	ldi	r31, 0xBE	; 190
    1bac:	ef 01       	movw	r28, r30
    for (uint8_t n = 0; n < 5; n++) {
        iLED[WING[L][n]] = 0;
    1bae:	a5 81       	ldd	r26, Z+5	; 0x05
    1bb0:	b0 e0       	ldi	r27, 0x00	; 0
    1bb2:	a6 53       	subi	r26, 0x36	; 54
    1bb4:	b5 4c       	sbci	r27, 0xC5	; 197
    1bb6:	1c 92       	st	X, r1
    1bb8:	31 96       	adiw	r30, 0x01	; 1
        iLED[WING[R][n]] = 0;
    1bba:	a8 81       	ld	r26, Y
    1bbc:	b0 e0       	ldi	r27, 0x00	; 0
    1bbe:	a6 53       	subi	r26, 0x36	; 54
    1bc0:	b5 4c       	sbci	r27, 0xC5	; 197
    1bc2:	1c 92       	st	X, r1
/**
 * Set the wing LED blocks to selected option
 * @param val
 */
void simonLed(uint8_t val) {
    for (uint8_t n = 0; n < 5; n++) {
    1bc4:	9e eb       	ldi	r25, 0xBE	; 190
    1bc6:	ef 3b       	cpi	r30, 0xBF	; 191
    1bc8:	f9 07       	cpc	r31, r25
    1bca:	81 f7       	brne	.-32     	; 0x1bac <simonLed+0x8>
        iLED[WING[L][n]] = 0;
        iLED[WING[R][n]] = 0;
    }
    if (val == 3) {         // II
    1bcc:	83 30       	cpi	r24, 0x03	; 3
    1bce:	d9 f4       	brne	.+54     	; 0x1c06 <simonLed+0x62>
        iLED[WING[L][0]] = dimValue;
    1bd0:	e0 91 bf be 	lds	r30, 0xBEBF	; 0x80bebf <__bss_end+0x83a5>
    1bd4:	f0 e0       	ldi	r31, 0x00	; 0
    1bd6:	80 91 0b 38 	lds	r24, 0x380B	; 0x80380b <dimValue>
    1bda:	e6 53       	subi	r30, 0x36	; 54
    1bdc:	f5 4c       	sbci	r31, 0xC5	; 197
    1bde:	80 83       	st	Z, r24
        iLED[WING[L][1]] = dimValue;
    1be0:	e0 91 c0 be 	lds	r30, 0xBEC0	; 0x80bec0 <__bss_end+0x83a6>
    1be4:	f0 e0       	ldi	r31, 0x00	; 0
    1be6:	80 91 0b 38 	lds	r24, 0x380B	; 0x80380b <dimValue>
    1bea:	e6 53       	subi	r30, 0x36	; 54
    1bec:	f5 4c       	sbci	r31, 0xC5	; 197
    1bee:	80 83       	st	Z, r24
        iLED[WING[L][2]] = dimValue;
    1bf0:	e0 91 c1 be 	lds	r30, 0xBEC1	; 0x80bec1 <__bss_end+0x83a7>
    1bf4:	f0 e0       	ldi	r31, 0x00	; 0
    1bf6:	80 91 0b 38 	lds	r24, 0x380B	; 0x80380b <dimValue>
    1bfa:	e6 53       	subi	r30, 0x36	; 54
    1bfc:	f5 4c       	sbci	r31, 0xC5	; 197
    1bfe:	80 83       	st	Z, r24
        effect = 0x013f;
    1c00:	8f e3       	ldi	r24, 0x3F	; 63
    1c02:	91 e0       	ldi	r25, 0x01	; 1
    1c04:	46 c0       	rjmp	.+140    	; 0x1c92 <simonLed+0xee>
    } else if (val == 1) {  //
    1c06:	81 30       	cpi	r24, 0x01	; 1
    1c08:	99 f4       	brne	.+38     	; 0x1c30 <simonLed+0x8c>
        iLED[WING[L][3]] = dimValue;
    1c0a:	e0 91 c2 be 	lds	r30, 0xBEC2	; 0x80bec2 <__bss_end+0x83a8>
    1c0e:	f0 e0       	ldi	r31, 0x00	; 0
    1c10:	80 91 0b 38 	lds	r24, 0x380B	; 0x80380b <dimValue>
    1c14:	e6 53       	subi	r30, 0x36	; 54
    1c16:	f5 4c       	sbci	r31, 0xC5	; 197
    1c18:	80 83       	st	Z, r24
        iLED[WING[L][4]] = dimValue;
    1c1a:	e0 91 c3 be 	lds	r30, 0xBEC3	; 0x80bec3 <__bss_end+0x83a9>
    1c1e:	f0 e0       	ldi	r31, 0x00	; 0
    1c20:	80 91 0b 38 	lds	r24, 0x380B	; 0x80380b <dimValue>
    1c24:	e6 53       	subi	r30, 0x36	; 54
    1c26:	f5 4c       	sbci	r31, 0xC5	; 197
    1c28:	80 83       	st	Z, r24
        effect = 0x015f;
    1c2a:	8f e5       	ldi	r24, 0x5F	; 95
    1c2c:	91 e0       	ldi	r25, 0x01	; 1
    1c2e:	31 c0       	rjmp	.+98     	; 0x1c92 <simonLed+0xee>
    } else if (val == 4) {  // III
    1c30:	84 30       	cpi	r24, 0x04	; 4
    1c32:	d9 f4       	brne	.+54     	; 0x1c6a <simonLed+0xc6>
        iLED[WING[R][0]] = dimValue;
    1c34:	e0 91 ba be 	lds	r30, 0xBEBA	; 0x80beba <__bss_end+0x83a0>
    1c38:	f0 e0       	ldi	r31, 0x00	; 0
    1c3a:	80 91 0b 38 	lds	r24, 0x380B	; 0x80380b <dimValue>
    1c3e:	e6 53       	subi	r30, 0x36	; 54
    1c40:	f5 4c       	sbci	r31, 0xC5	; 197
    1c42:	80 83       	st	Z, r24
        iLED[WING[R][1]] = dimValue;
    1c44:	e0 91 bb be 	lds	r30, 0xBEBB	; 0x80bebb <__bss_end+0x83a1>
    1c48:	f0 e0       	ldi	r31, 0x00	; 0
    1c4a:	80 91 0b 38 	lds	r24, 0x380B	; 0x80380b <dimValue>
    1c4e:	e6 53       	subi	r30, 0x36	; 54
    1c50:	f5 4c       	sbci	r31, 0xC5	; 197
    1c52:	80 83       	st	Z, r24
        iLED[WING[R][2]] = dimValue;
    1c54:	e0 91 bc be 	lds	r30, 0xBEBC	; 0x80bebc <__bss_end+0x83a2>
    1c58:	f0 e0       	ldi	r31, 0x00	; 0
    1c5a:	80 91 0b 38 	lds	r24, 0x380B	; 0x80380b <dimValue>
    1c5e:	e6 53       	subi	r30, 0x36	; 54
    1c60:	f5 4c       	sbci	r31, 0xC5	; 197
    1c62:	80 83       	st	Z, r24
        effect = 0x017f;
    1c64:	8f e7       	ldi	r24, 0x7F	; 127
    1c66:	91 e0       	ldi	r25, 0x01	; 1
    1c68:	14 c0       	rjmp	.+40     	; 0x1c92 <simonLed+0xee>
    } else if (val == 2) {  // I
    1c6a:	82 30       	cpi	r24, 0x02	; 2
    1c6c:	b1 f4       	brne	.+44     	; 0x1c9a <simonLed+0xf6>
        iLED[WING[R][3]] = dimValue;
    1c6e:	e0 91 bd be 	lds	r30, 0xBEBD	; 0x80bebd <__bss_end+0x83a3>
    1c72:	f0 e0       	ldi	r31, 0x00	; 0
    1c74:	80 91 0b 38 	lds	r24, 0x380B	; 0x80380b <dimValue>
    1c78:	e6 53       	subi	r30, 0x36	; 54
    1c7a:	f5 4c       	sbci	r31, 0xC5	; 197
    1c7c:	80 83       	st	Z, r24
        iLED[WING[R][4]] = dimValue;
    1c7e:	e0 91 be be 	lds	r30, 0xBEBE	; 0x80bebe <__bss_end+0x83a4>
    1c82:	f0 e0       	ldi	r31, 0x00	; 0
    1c84:	80 91 0b 38 	lds	r24, 0x380B	; 0x80380b <dimValue>
    1c88:	e6 53       	subi	r30, 0x36	; 54
    1c8a:	f5 4c       	sbci	r31, 0xC5	; 197
    1c8c:	80 83       	st	Z, r24
        effect = 0x019f;
    1c8e:	8f e9       	ldi	r24, 0x9F	; 159
    1c90:	91 e0       	ldi	r25, 0x01	; 1
    1c92:	80 93 3a 38 	sts	0x383A, r24	; 0x80383a <effect>
    1c96:	90 93 3b 38 	sts	0x383B, r25	; 0x80383b <effect+0x1>
    }
}
    1c9a:	df 91       	pop	r29
    1c9c:	cf 91       	pop	r28
    1c9e:	08 95       	ret

00001ca0 <BastetDictates>:

/**
 * Main game loop
 * @return 0
 */
uint8_t BastetDictates() {
    1ca0:	0f 93       	push	r16
    1ca2:	1f 93       	push	r17
    1ca4:	cf 93       	push	r28
    1ca6:	df 93       	push	r29
    if (CheckState(BASTET_COMPLETED))
    1ca8:	8a e7       	ldi	r24, 0x7A	; 122
    1caa:	4e dc       	rcall	.-1892   	; 0x1548 <CheckState>
    1cac:	81 11       	cpse	r24, r1
    1cae:	57 c1       	rjmp	.+686    	; 0x1f5e <BastetDictates+0x2be>
        return 0;

    if ((TEXT != gameNow) && (BASTET != gameNow))
    1cb0:	80 91 3c 38 	lds	r24, 0x383C	; 0x80383c <gameNow>
    1cb4:	8d 7f       	andi	r24, 0xFD	; 253
    1cb6:	09 f0       	breq	.+2      	; 0x1cba <BastetDictates+0x1a>
    1cb8:	52 c1       	rjmp	.+676    	; 0x1f5e <BastetDictates+0x2be>
        return 0;

    if (BASTET_BOOT == simonGameState) {
    1cba:	80 91 5c 38 	lds	r24, 0x385C	; 0x80385c <simonGameState>
    1cbe:	81 11       	cpse	r24, r1
    1cc0:	21 c0       	rjmp	.+66     	; 0x1d04 <BastetDictates+0x64>
        simonPos = ((adcPhot+adcTemp)&0x3f);
    1cc2:	20 91 bd 3a 	lds	r18, 0x3ABD	; 0x803abd <adcPhot>
    1cc6:	30 91 be 3a 	lds	r19, 0x3ABE	; 0x803abe <adcPhot+0x1>
    1cca:	80 91 f5 3a 	lds	r24, 0x3AF5	; 0x803af5 <adcTemp>
    1cce:	90 91 f6 3a 	lds	r25, 0x3AF6	; 0x803af6 <adcTemp+0x1>
    1cd2:	82 0f       	add	r24, r18
    1cd4:	8f 73       	andi	r24, 0x3F	; 63
    1cd6:	80 93 61 38 	sts	0x3861, r24	; 0x803861 <simonPos>
        for(uint8_t x=0; x<simonPos; ++x) lfsr();
    1cda:	c0 e0       	ldi	r28, 0x00	; 0
    1cdc:	80 91 61 38 	lds	r24, 0x3861	; 0x803861 <simonPos>
    1ce0:	c8 17       	cp	r28, r24
    1ce2:	18 f4       	brcc	.+6      	; 0x1cea <BastetDictates+0x4a>
    1ce4:	03 db       	rcall	.-2554   	; 0x12ec <lfsr>
    1ce6:	cf 5f       	subi	r28, 0xFF	; 255
    1ce8:	f9 cf       	rjmp	.-14     	; 0x1cdc <BastetDictates+0x3c>
    1cea:	c2 e6       	ldi	r28, 0x62	; 98
    1cec:	d8 e3       	ldi	r29, 0x38	; 56
    1cee:	0e e6       	ldi	r16, 0x6E	; 110

        for (uint8_t i = 0; i < BASTET_LENGTH; i++) {
            simonState[i] = (lfsr() % 4);
    1cf0:	18 e3       	ldi	r17, 0x38	; 56
    1cf2:	fc da       	rcall	.-2568   	; 0x12ec <lfsr>
    1cf4:	83 70       	andi	r24, 0x03	; 3
    1cf6:	89 93       	st	Y+, r24

    if (BASTET_BOOT == simonGameState) {
        simonPos = ((adcPhot+adcTemp)&0x3f);
        for(uint8_t x=0; x<simonPos; ++x) lfsr();

        for (uint8_t i = 0; i < BASTET_LENGTH; i++) {
    1cf8:	0c 17       	cp	r16, r28
    1cfa:	1d 07       	cpc	r17, r29
    1cfc:	d1 f7       	brne	.-12     	; 0x1cf2 <BastetDictates+0x52>
            simonState[i] = (lfsr() % 4);
        }
        simonGameState = BASTET_GAME_START;
    1cfe:	81 e0       	ldi	r24, 0x01	; 1
    1d00:	80 93 5c 38 	sts	0x385C, r24	; 0x80385c <simonGameState>
    }

    if (BASTET_GAME_START == simonGameState && BASTET == gameNow) {
    1d04:	80 91 5c 38 	lds	r24, 0x385C	; 0x80385c <simonGameState>
    1d08:	81 30       	cpi	r24, 0x01	; 1
    1d0a:	71 f4       	brne	.+28     	; 0x1d28 <BastetDictates+0x88>
    1d0c:	80 91 3c 38 	lds	r24, 0x383C	; 0x80383c <gameNow>
    1d10:	82 30       	cpi	r24, 0x02	; 2
    1d12:	51 f4       	brne	.+20     	; 0x1d28 <BastetDictates+0x88>
        gameNow = BASTET;
        simonGameState = BASTET_GAME_INTRO;
    1d14:	80 93 5c 38 	sts	0x385C, r24	; 0x80385c <simonGameState>
        simonPos = 0;
    1d18:	10 92 61 38 	sts	0x3861, r1	; 0x803861 <simonPos>
        simonInputPos = 0;
    1d1c:	10 92 60 38 	sts	0x3860, r1	; 0x803860 <simonInputPos>
        simonTimer = 0;
    1d20:	10 92 5f 38 	sts	0x385F, r1	; 0x80385f <simonTimer>
        simonCounter = 0;
    1d24:	10 92 5d 38 	sts	0x385D, r1	; 0x80385d <simonCounter>
    }

    if (BASTET_GAME_INTRO == simonGameState) {
    1d28:	80 91 5c 38 	lds	r24, 0x385C	; 0x80385c <simonGameState>
    1d2c:	82 30       	cpi	r24, 0x02	; 2
    1d2e:	11 f5       	brne	.+68     	; 0x1d74 <BastetDictates+0xd4>
        if (simonTimer > 5) {   // .33 seconds
    1d30:	80 91 5f 38 	lds	r24, 0x385F	; 0x80385f <simonTimer>
    1d34:	86 30       	cpi	r24, 0x06	; 6
    1d36:	38 f0       	brcs	.+14     	; 0x1d46 <BastetDictates+0xa6>
            simonCounter++;
    1d38:	80 91 5d 38 	lds	r24, 0x385D	; 0x80385d <simonCounter>
    1d3c:	8f 5f       	subi	r24, 0xFF	; 255
    1d3e:	80 93 5d 38 	sts	0x385D, r24	; 0x80385d <simonCounter>
            simonTimer = 0;
    1d42:	10 92 5f 38 	sts	0x385F, r1	; 0x80385f <simonTimer>
        }
        if (simonCounter > 6) {
    1d46:	e0 91 5d 38 	lds	r30, 0x385D	; 0x80385d <simonCounter>
    1d4a:	e7 30       	cpi	r30, 0x07	; 7
    1d4c:	40 f0       	brcs	.+16     	; 0x1d5e <BastetDictates+0xbe>
            simonGameState = BASTET_GAME_SHOW_PATTERN;
    1d4e:	83 e0       	ldi	r24, 0x03	; 3
    1d50:	80 93 5c 38 	sts	0x385C, r24	; 0x80385c <simonGameState>
//            for (uint8_t n=0; n<6; n++){
//                iLED[HCKR[R][n]] = 1;
//            }
            simonTimer = 0;
    1d54:	10 92 5f 38 	sts	0x385F, r1	; 0x80385f <simonTimer>
            simonCounter = 0;
    1d58:	10 92 5d 38 	sts	0x385D, r1	; 0x80385d <simonCounter>
            return 0;
    1d5c:	00 c1       	rjmp	.+512    	; 0x1f5e <BastetDictates+0x2be>
        }
        iLED[HCKR[R][simonCounter]] = dimValue;
    1d5e:	f0 e0       	ldi	r31, 0x00	; 0
    1d60:	e8 53       	subi	r30, 0x38	; 56
    1d62:	f1 44       	sbci	r31, 0x41	; 65
    1d64:	e0 81       	ld	r30, Z
    1d66:	f0 e0       	ldi	r31, 0x00	; 0
    1d68:	80 91 0b 38 	lds	r24, 0x380B	; 0x80380b <dimValue>
    1d6c:	e6 53       	subi	r30, 0x36	; 54
    1d6e:	f5 4c       	sbci	r31, 0xC5	; 197
    1d70:	80 83       	st	Z, r24
    1d72:	21 c0       	rjmp	.+66     	; 0x1db6 <BastetDictates+0x116>
    }

    if (BASTET_GAME_SHOW_PATTERN == simonGameState) {
    1d74:	83 30       	cpi	r24, 0x03	; 3
    1d76:	f9 f4       	brne	.+62     	; 0x1db6 <BastetDictates+0x116>
        if (simonTimer > 15) {   //  ! second
    1d78:	80 91 5f 38 	lds	r24, 0x385F	; 0x80385f <simonTimer>
    1d7c:	80 31       	cpi	r24, 0x10	; 16
    1d7e:	38 f0       	brcs	.+14     	; 0x1d8e <BastetDictates+0xee>
            simonCounter++;
    1d80:	80 91 5d 38 	lds	r24, 0x385D	; 0x80385d <simonCounter>
    1d84:	8f 5f       	subi	r24, 0xFF	; 255
    1d86:	80 93 5d 38 	sts	0x385D, r24	; 0x80385d <simonCounter>
            simonTimer = 0;
    1d8a:	10 92 5f 38 	sts	0x385F, r1	; 0x80385f <simonTimer>
        }
        if (simonCounter > simonPos) {
    1d8e:	e0 91 5d 38 	lds	r30, 0x385D	; 0x80385d <simonCounter>
    1d92:	80 91 61 38 	lds	r24, 0x3861	; 0x803861 <simonPos>
    1d96:	8e 17       	cp	r24, r30
    1d98:	40 f4       	brcc	.+16     	; 0x1daa <BastetDictates+0x10a>
            simonGameState = BASTET_GAME_INPUT;
    1d9a:	85 e0       	ldi	r24, 0x05	; 5
    1d9c:	80 93 5c 38 	sts	0x385C, r24	; 0x80385c <simonGameState>
            simonLed(0);
    1da0:	80 e0       	ldi	r24, 0x00	; 0
    1da2:	00 df       	rcall	.-512    	; 0x1ba4 <simonLed>
            simonTimer = 0;
    1da4:	10 92 5f 38 	sts	0x385F, r1	; 0x80385f <simonTimer>
            return 0;
    1da8:	da c0       	rjmp	.+436    	; 0x1f5e <BastetDictates+0x2be>
        }
        simonLed(simonState[simonCounter]+1);
    1daa:	f0 e0       	ldi	r31, 0x00	; 0
    1dac:	ee 59       	subi	r30, 0x9E	; 158
    1dae:	f7 4c       	sbci	r31, 0xC7	; 199
    1db0:	80 81       	ld	r24, Z
    1db2:	8f 5f       	subi	r24, 0xFF	; 255
    1db4:	f7 de       	rcall	.-530    	; 0x1ba4 <simonLed>
    }

    if (BASTET_GAME_INPUT == simonGameState) {
    1db6:	c0 91 5c 38 	lds	r28, 0x385C	; 0x80385c <simonGameState>
    1dba:	c5 30       	cpi	r28, 0x05	; 5
    1dbc:	09 f0       	breq	.+2      	; 0x1dc0 <BastetDictates+0x120>
    1dbe:	70 c0       	rjmp	.+224    	; 0x1ea0 <BastetDictates+0x200>
        //Button pressed
        if ((buttonState+1) > 0) {
            if (simonWait == 0) {
    1dc0:	80 91 5e 38 	lds	r24, 0x385E	; 0x80385e <simonWait>
    1dc4:	81 11       	cpse	r24, r1
    1dc6:	80 c0       	rjmp	.+256    	; 0x1ec8 <BastetDictates+0x228>
                simonWait = 1;
    1dc8:	81 e0       	ldi	r24, 0x01	; 1
    1dca:	80 93 5e 38 	sts	0x385E, r24	; 0x80385e <simonWait>
                simonTimer = 0;
    1dce:	10 92 5f 38 	sts	0x385F, r1	; 0x80385f <simonTimer>
                simonLed(buttonState+1);
    1dd2:	80 91 09 38 	lds	r24, 0x3809	; 0x803809 <buttonState>
    1dd6:	8f 5f       	subi	r24, 0xFF	; 255
    1dd8:	e5 de       	rcall	.-566    	; 0x1ba4 <simonLed>
                simonGameState = BASTET_GAME_WAIT_LEDS;
    1dda:	84 e0       	ldi	r24, 0x04	; 4
    1ddc:	80 93 5c 38 	sts	0x385C, r24	; 0x80385c <simonGameState>
                simonNextGameState = BASTET_GAME_INPUT;
    1de0:	c0 93 2c 38 	sts	0x382C, r28	; 0x80382c <simonNextGameState>

                // is the below check correct .. do I have off by one ?
                if (simonState[simonInputPos] == (buttonState+1)) {
    1de4:	80 91 60 38 	lds	r24, 0x3860	; 0x803860 <simonInputPos>
    1de8:	e8 2f       	mov	r30, r24
    1dea:	f0 e0       	ldi	r31, 0x00	; 0
    1dec:	ee 59       	subi	r30, 0x9E	; 158
    1dee:	f7 4c       	sbci	r31, 0xC7	; 199
    1df0:	40 81       	ld	r20, Z
    1df2:	50 e0       	ldi	r21, 0x00	; 0
    1df4:	20 91 09 38 	lds	r18, 0x3809	; 0x803809 <buttonState>
    1df8:	30 e0       	ldi	r19, 0x00	; 0
    1dfa:	2f 5f       	subi	r18, 0xFF	; 255
    1dfc:	3f 4f       	sbci	r19, 0xFF	; 255
    1dfe:	42 17       	cp	r20, r18
    1e00:	53 07       	cpc	r21, r19
    1e02:	c1 f4       	brne	.+48     	; 0x1e34 <BastetDictates+0x194>
                    simonInputPos++;
    1e04:	8f 5f       	subi	r24, 0xFF	; 255
    1e06:	80 93 60 38 	sts	0x3860, r24	; 0x803860 <simonInputPos>
                    if (simonInputPos >= simonPos) {
    1e0a:	90 91 61 38 	lds	r25, 0x3861	; 0x803861 <simonPos>
    1e0e:	89 17       	cp	r24, r25
    1e10:	80 f1       	brcs	.+96     	; 0x1e72 <BastetDictates+0x1d2>
                        effect = 0x42;
    1e12:	22 e4       	ldi	r18, 0x42	; 66
    1e14:	30 e0       	ldi	r19, 0x00	; 0
    1e16:	20 93 3a 38 	sts	0x383A, r18	; 0x80383a <effect>
    1e1a:	30 93 3b 38 	sts	0x383B, r19	; 0x80383b <effect+0x1>
                        simonPos++;
    1e1e:	9f 5f       	subi	r25, 0xFF	; 255
    1e20:	90 93 61 38 	sts	0x3861, r25	; 0x803861 <simonPos>
                        simonInputPos = 0;
    1e24:	10 92 60 38 	sts	0x3860, r1	; 0x803860 <simonInputPos>
                        simonTimer = 0;
    1e28:	10 92 5f 38 	sts	0x385F, r1	; 0x80385f <simonTimer>
                        simonCounter = 0;
    1e2c:	10 92 5d 38 	sts	0x385D, r1	; 0x80385d <simonCounter>
                        simonNextGameState = BASTET_GAME_SHOW_PATTERN;
    1e30:	83 e0       	ldi	r24, 0x03	; 3
    1e32:	1d c0       	rjmp	.+58     	; 0x1e6e <BastetDictates+0x1ce>
                    }
                } else {
                    effect = 0x0105;    // TODO fail sound
    1e34:	85 e0       	ldi	r24, 0x05	; 5
    1e36:	91 e0       	ldi	r25, 0x01	; 1
    1e38:	80 93 3a 38 	sts	0x383A, r24	; 0x80383a <effect>
    1e3c:	90 93 3b 38 	sts	0x383B, r25	; 0x80383b <effect+0x1>
    1e40:	a8 ec       	ldi	r26, 0xC8	; 200
    1e42:	be eb       	ldi	r27, 0xBE	; 190
    1e44:	8e ec       	ldi	r24, 0xCE	; 206
    1e46:	9e eb       	ldi	r25, 0xBE	; 190
                    for (uint8_t n=0; n<6; n++){
                        iLED[HCKR[R][n]] = dimValue;
    1e48:	ed 91       	ld	r30, X+
    1e4a:	f0 e0       	ldi	r31, 0x00	; 0
    1e4c:	20 91 0b 38 	lds	r18, 0x380B	; 0x80380b <dimValue>
    1e50:	e6 53       	subi	r30, 0x36	; 54
    1e52:	f5 4c       	sbci	r31, 0xC5	; 197
    1e54:	20 83       	st	Z, r18
                        simonCounter = 0;
                        simonNextGameState = BASTET_GAME_SHOW_PATTERN;
                    }
                } else {
                    effect = 0x0105;    // TODO fail sound
                    for (uint8_t n=0; n<6; n++){
    1e56:	8a 17       	cp	r24, r26
    1e58:	9b 07       	cpc	r25, r27
    1e5a:	b1 f7       	brne	.-20     	; 0x1e48 <BastetDictates+0x1a8>
                        iLED[HCKR[R][n]] = dimValue;
                    }
                    simonInputPos = 0;
    1e5c:	10 92 60 38 	sts	0x3860, r1	; 0x803860 <simonInputPos>
                    simonPos = 0;
    1e60:	10 92 61 38 	sts	0x3861, r1	; 0x803861 <simonPos>
                    simonTimer = 0;
    1e64:	10 92 5f 38 	sts	0x385F, r1	; 0x80385f <simonTimer>
                    simonCounter = 0;
    1e68:	10 92 5d 38 	sts	0x385D, r1	; 0x80385d <simonCounter>
                    simonNextGameState = BASTET_GAME_OUTRO;
    1e6c:	86 e0       	ldi	r24, 0x06	; 6
    1e6e:	80 93 2c 38 	sts	0x382C, r24	; 0x80382c <simonNextGameState>
                }

                if (simonInputPos >= BASTET_LENGTH || simonPos >= BASTET_LENGTH) { // beetje dubbel
    1e72:	80 91 60 38 	lds	r24, 0x3860	; 0x803860 <simonInputPos>
    1e76:	8c 30       	cpi	r24, 0x0C	; 12
    1e78:	20 f4       	brcc	.+8      	; 0x1e82 <BastetDictates+0x1e2>
    1e7a:	80 91 61 38 	lds	r24, 0x3861	; 0x803861 <simonPos>
    1e7e:	8c 30       	cpi	r24, 0x0C	; 12
    1e80:	78 f0       	brcs	.+30     	; 0x1ea0 <BastetDictates+0x200>
                    // TODO win animu !!
                    effect = 0x0106;    // TODO win sound ?!
    1e82:	86 e0       	ldi	r24, 0x06	; 6
    1e84:	91 e0       	ldi	r25, 0x01	; 1
    1e86:	80 93 3a 38 	sts	0x383A, r24	; 0x80383a <effect>
    1e8a:	90 93 3b 38 	sts	0x383B, r25	; 0x80383b <effect+0x1>
                    UpdateState(BASTET_COMPLETED);
    1e8e:	8a e7       	ldi	r24, 0x7A	; 122
    1e90:	51 db       	rcall	.-2398   	; 0x1534 <UpdateState>
                    simonTimer = 0;
    1e92:	10 92 5f 38 	sts	0x385F, r1	; 0x80385f <simonTimer>
                    simonCounter = 0;
    1e96:	10 92 5d 38 	sts	0x385D, r1	; 0x80385d <simonCounter>
                    simonNextGameState = BASTET_GAME_OVER;
    1e9a:	87 e0       	ldi	r24, 0x07	; 7
    1e9c:	80 93 2c 38 	sts	0x382C, r24	; 0x80382c <simonNextGameState>
        } else {
            simonWait = 0;
        }
    }

    if (BASTET_GAME_WAIT_LEDS == simonGameState) {
    1ea0:	80 91 5c 38 	lds	r24, 0x385C	; 0x80385c <simonGameState>
    1ea4:	84 30       	cpi	r24, 0x04	; 4
        if (simonTimer >= 7) {
    1ea6:	81 f4       	brne	.+32     	; 0x1ec8 <BastetDictates+0x228>
    1ea8:	80 91 5f 38 	lds	r24, 0x385F	; 0x80385f <simonTimer>
    1eac:	87 30       	cpi	r24, 0x07	; 7
            // on to next state after .5 second
            simonLed(0);  // LEDs off
    1eae:	60 f0       	brcs	.+24     	; 0x1ec8 <BastetDictates+0x228>
    1eb0:	80 e0       	ldi	r24, 0x00	; 0
    1eb2:	78 de       	rcall	.-784    	; 0x1ba4 <simonLed>
            simonWait = 0;
    1eb4:	10 92 5e 38 	sts	0x385E, r1	; 0x80385e <simonWait>
            simonTimer = 0;
    1eb8:	10 92 5f 38 	sts	0x385F, r1	; 0x80385f <simonTimer>
            simonCounter = 0;
    1ebc:	10 92 5d 38 	sts	0x385D, r1	; 0x80385d <simonCounter>
            simonGameState = simonNextGameState;
    1ec0:	80 91 2c 38 	lds	r24, 0x382C	; 0x80382c <simonNextGameState>
    1ec4:	80 93 5c 38 	sts	0x385C, r24	; 0x80385c <simonGameState>
        }
    }

    if (BASTET_GAME_OUTRO == simonGameState) {
    1ec8:	80 91 5c 38 	lds	r24, 0x385C	; 0x80385c <simonGameState>
    1ecc:	86 30       	cpi	r24, 0x06	; 6
    1ece:	21 f5       	brne	.+72     	; 0x1f18 <BastetDictates+0x278>
        if (simonTimer > 5) {   // .33 second
    1ed0:	80 91 5f 38 	lds	r24, 0x385F	; 0x80385f <simonTimer>
    1ed4:	86 30       	cpi	r24, 0x06	; 6
    1ed6:	38 f0       	brcs	.+14     	; 0x1ee6 <BastetDictates+0x246>
            simonCounter++;
    1ed8:	80 91 5d 38 	lds	r24, 0x385D	; 0x80385d <simonCounter>
    1edc:	8f 5f       	subi	r24, 0xFF	; 255
    1ede:	80 93 5d 38 	sts	0x385D, r24	; 0x80385d <simonCounter>
            simonTimer = 0;
    1ee2:	10 92 5f 38 	sts	0x385F, r1	; 0x80385f <simonTimer>
        }
        if (simonCounter > 6) {
    1ee6:	80 91 5d 38 	lds	r24, 0x385D	; 0x80385d <simonCounter>
    1eea:	87 30       	cpi	r24, 0x07	; 7
    1eec:	40 f0       	brcs	.+16     	; 0x1efe <BastetDictates+0x25e>
            simonTimer = 0;
    1eee:	10 92 5f 38 	sts	0x385F, r1	; 0x80385f <simonTimer>
            simonCounter = 0;
    1ef2:	10 92 5d 38 	sts	0x385D, r1	; 0x80385d <simonCounter>
            simonGameState = BASTET_GAME_OVER;
    1ef6:	87 e0       	ldi	r24, 0x07	; 7
    1ef8:	80 93 5c 38 	sts	0x385C, r24	; 0x80385c <simonGameState>
            return 0;
    1efc:	30 c0       	rjmp	.+96     	; 0x1f5e <BastetDictates+0x2be>
        }
        iLED[HCKR[R][5-simonCounter]] = 1;
    1efe:	e5 e0       	ldi	r30, 0x05	; 5
    1f00:	f0 e0       	ldi	r31, 0x00	; 0
    1f02:	e8 1b       	sub	r30, r24
    1f04:	f1 09       	sbc	r31, r1
    1f06:	e8 53       	subi	r30, 0x38	; 56
    1f08:	f1 44       	sbci	r31, 0x41	; 65
    1f0a:	e0 81       	ld	r30, Z
    1f0c:	f0 e0       	ldi	r31, 0x00	; 0
    1f0e:	e6 53       	subi	r30, 0x36	; 54
    1f10:	f5 4c       	sbci	r31, 0xC5	; 197
    1f12:	81 e0       	ldi	r24, 0x01	; 1
    1f14:	80 83       	st	Z, r24
    1f16:	1e c0       	rjmp	.+60     	; 0x1f54 <BastetDictates+0x2b4>
    }

    if (BASTET_GAME_OVER == simonGameState) {
    1f18:	87 30       	cpi	r24, 0x07	; 7
    1f1a:	e1 f4       	brne	.+56     	; 0x1f54 <BastetDictates+0x2b4>
        simonInputPos = 0;
    1f1c:	10 92 60 38 	sts	0x3860, r1	; 0x803860 <simonInputPos>
        simonPos = 0;
    1f20:	10 92 61 38 	sts	0x3861, r1	; 0x803861 <simonPos>
        simonGameState = BASTET_GAME_START; // BASTET_BOOT for fresh "field" ??
    1f24:	81 e0       	ldi	r24, 0x01	; 1
    1f26:	80 93 5c 38 	sts	0x385C, r24	; 0x80385c <simonGameState>
        gameNow = TEXT;
    1f2a:	10 92 3c 38 	sts	0x383C, r1	; 0x80383c <gameNow>
    1f2e:	ea eb       	ldi	r30, 0xBA	; 186
    1f30:	fe eb       	ldi	r31, 0xBE	; 190
    1f32:	2f eb       	ldi	r18, 0xBF	; 191
    1f34:	3e eb       	ldi	r19, 0xBE	; 190
    1f36:	ef 01       	movw	r28, r30
        for (uint8_t n=0; n<5; n++){
            iLED[WING[L][n]] = 1;
    1f38:	a5 81       	ldd	r26, Z+5	; 0x05
    1f3a:	b0 e0       	ldi	r27, 0x00	; 0
    1f3c:	a6 53       	subi	r26, 0x36	; 54
    1f3e:	b5 4c       	sbci	r27, 0xC5	; 197
    1f40:	8c 93       	st	X, r24
    1f42:	31 96       	adiw	r30, 0x01	; 1
            iLED[WING[R][n]] = 1;
    1f44:	a8 81       	ld	r26, Y
    1f46:	b0 e0       	ldi	r27, 0x00	; 0
    1f48:	a6 53       	subi	r26, 0x36	; 54
    1f4a:	b5 4c       	sbci	r27, 0xC5	; 197
    1f4c:	8c 93       	st	X, r24
    if (BASTET_GAME_OVER == simonGameState) {
        simonInputPos = 0;
        simonPos = 0;
        simonGameState = BASTET_GAME_START; // BASTET_BOOT for fresh "field" ??
        gameNow = TEXT;
        for (uint8_t n=0; n<5; n++){
    1f4e:	2e 17       	cp	r18, r30
    1f50:	3f 07       	cpc	r19, r31
    1f52:	89 f7       	brne	.-30     	; 0x1f36 <BastetDictates+0x296>
            iLED[WING[L][n]] = 1;
            iLED[WING[R][n]] = 1;
        }
    }

    ++simonTimer;
    1f54:	80 91 5f 38 	lds	r24, 0x385F	; 0x80385f <simonTimer>
    1f58:	8f 5f       	subi	r24, 0xFF	; 255
    1f5a:	80 93 5f 38 	sts	0x385F, r24	; 0x80385f <simonTimer>
    return 0;
}
    1f5e:	80 e0       	ldi	r24, 0x00	; 0
    1f60:	df 91       	pop	r29
    1f62:	cf 91       	pop	r28
    1f64:	1f 91       	pop	r17
    1f66:	0f 91       	pop	r16
    1f68:	08 95       	ret

00001f6a <Cheat>:

//
void SetResponse(uint8_t number, uint16_t address, uint16_t length, uint8_t type){
    reactStr[0][number]=address;
    reactStr[1][number]=length;
    reactStr[2][number]=type;
    1f6a:	1f 93       	push	r17
    1f6c:	cf 93       	push	r28
    1f6e:	df 93       	push	r29
    1f70:	cd b7       	in	r28, 0x3d	; 61
    1f72:	de b7       	in	r29, 0x3e	; 62
    1f74:	62 97       	sbiw	r28, 0x12	; 18
    1f76:	cd bf       	out	0x3d, r28	; 61
    1f78:	de bf       	out	0x3e, r29	; 62
    1f7a:	8a 8b       	std	Y+18, r24	; 0x12
    1f7c:	80 e1       	ldi	r24, 0x10	; 16
    1f7e:	ee e8       	ldi	r30, 0x8E	; 142
    1f80:	fe eb       	ldi	r31, 0xBE	; 190
    1f82:	de 01       	movw	r26, r28
    1f84:	11 96       	adiw	r26, 0x01	; 1
    1f86:	01 90       	ld	r0, Z+
    1f88:	0d 92       	st	X+, r0
    1f8a:	8a 95       	dec	r24
    1f8c:	e1 f7       	brne	.-8      	; 0x1f86 <Cheat+0x1c>
    1f8e:	fe 01       	movw	r30, r28
    1f90:	31 96       	adiw	r30, 0x01	; 1
    1f92:	90 e0       	ldi	r25, 0x00	; 0
    1f94:	8f ef       	ldi	r24, 0xFF	; 255
    1f96:	21 91       	ld	r18, Z+
    1f98:	31 91       	ld	r19, Z+
    1f9a:	26 17       	cp	r18, r22
    1f9c:	37 07       	cpc	r19, r23
    1f9e:	09 f4       	brne	.+2      	; 0x1fa2 <Cheat+0x38>
    1fa0:	89 2f       	mov	r24, r25
    1fa2:	9f 5f       	subi	r25, 0xFF	; 255
    1fa4:	98 30       	cpi	r25, 0x08	; 8
    1fa6:	b9 f7       	brne	.-18     	; 0x1f96 <Cheat+0x2c>
    1fa8:	88 30       	cpi	r24, 0x08	; 8
    1faa:	10 f0       	brcs	.+4      	; 0x1fb0 <Cheat+0x46>
    1fac:	80 e0       	ldi	r24, 0x00	; 0
    1fae:	12 c0       	rjmp	.+36     	; 0x1fd4 <Cheat+0x6a>
    1fb0:	18 e1       	ldi	r17, 0x18	; 24
    1fb2:	18 0f       	add	r17, r24
    1fb4:	41 e0       	ldi	r20, 0x01	; 1
    1fb6:	be 01       	movw	r22, r28
    1fb8:	6f 5e       	subi	r22, 0xEF	; 239
    1fba:	7f 4f       	sbci	r23, 0xFF	; 255
    1fbc:	81 2f       	mov	r24, r17
    1fbe:	f0 d8       	rcall	.-3616   	; 0x11a0 <EERead>
    1fc0:	89 89       	ldd	r24, Y+17	; 0x11
    1fc2:	8f 3f       	cpi	r24, 0xFF	; 255
    1fc4:	99 f7       	brne	.-26     	; 0x1fac <Cheat+0x42>
    1fc6:	41 e0       	ldi	r20, 0x01	; 1
    1fc8:	be 01       	movw	r22, r28
    1fca:	6e 5e       	subi	r22, 0xEE	; 238
    1fcc:	7f 4f       	sbci	r23, 0xFF	; 255
    1fce:	81 2f       	mov	r24, r17
    1fd0:	f7 d8       	rcall	.-3602   	; 0x11c0 <EEWrite>
    1fd2:	81 e0       	ldi	r24, 0x01	; 1
    1fd4:	62 96       	adiw	r28, 0x12	; 18
    1fd6:	cd bf       	out	0x3d, r28	; 61
    1fd8:	de bf       	out	0x3e, r29	; 62
    1fda:	df 91       	pop	r29
    1fdc:	cf 91       	pop	r28
    1fde:	1f 91       	pop	r17
    1fe0:	08 95       	ret

00001fe2 <DecryptData>:
    1fe2:	f9 01       	movw	r30, r18
    1fe4:	9c 01       	movw	r18, r24
    1fe6:	2e 1b       	sub	r18, r30
    1fe8:	3f 0b       	sbc	r19, r31
    1fea:	88 e0       	ldi	r24, 0x08	; 8
    1fec:	48 9f       	mul	r20, r24
    1fee:	a0 01       	movw	r20, r0
    1ff0:	11 24       	eor	r1, r1
    1ff2:	48 58       	subi	r20, 0x88	; 136
    1ff4:	50 44       	sbci	r21, 0x40	; 64
    1ff6:	66 23       	and	r22, r22
    1ff8:	69 f0       	breq	.+26     	; 0x2014 <DecryptData+0x32>
    1ffa:	df 01       	movw	r26, r30
    1ffc:	a2 0f       	add	r26, r18
    1ffe:	b3 1f       	adc	r27, r19
    2000:	a7 70       	andi	r26, 0x07	; 7
    2002:	bb 27       	eor	r27, r27
    2004:	a4 0f       	add	r26, r20
    2006:	b5 1f       	adc	r27, r21
    2008:	80 81       	ld	r24, Z
    200a:	9c 91       	ld	r25, X
    200c:	98 27       	eor	r25, r24
    200e:	91 93       	st	Z+, r25
    2010:	61 50       	subi	r22, 0x01	; 1
    2012:	f1 cf       	rjmp	.-30     	; 0x1ff6 <DecryptData+0x14>
    2014:	08 95       	ret

00002016 <UnflipData>:
    2016:	26 2f       	mov	r18, r22
    2018:	fb 01       	movw	r30, r22
    201a:	35 e5       	ldi	r19, 0x55	; 85
    201c:	9e 2f       	mov	r25, r30
    201e:	92 1b       	sub	r25, r18
    2020:	98 17       	cp	r25, r24
    2022:	28 f4       	brcc	.+10     	; 0x202e <UnflipData+0x18>
    2024:	90 81       	ld	r25, Z
    2026:	92 95       	swap	r25
    2028:	93 27       	eor	r25, r19
    202a:	91 93       	st	Z+, r25
    202c:	f7 cf       	rjmp	.-18     	; 0x201c <UnflipData+0x6>
    202e:	08 95       	ret

00002030 <ExtEERead>:
    2030:	af 92       	push	r10
    2032:	bf 92       	push	r11
    2034:	cf 92       	push	r12
    2036:	df 92       	push	r13
    2038:	ef 92       	push	r14
    203a:	ff 92       	push	r15
    203c:	0f 93       	push	r16
    203e:	1f 93       	push	r17
    2040:	cf 93       	push	r28
    2042:	df 93       	push	r29
    2044:	00 d0       	rcall	.+0      	; 0x2046 <ExtEERead+0x16>
    2046:	cd b7       	in	r28, 0x3d	; 61
    2048:	de b7       	in	r29, 0x3e	; 62
    204a:	d6 2e       	mov	r13, r22
    204c:	c4 2e       	mov	r12, r20
    204e:	59 01       	movw	r10, r18
    2050:	7c 01       	movw	r14, r24
    2052:	e8 94       	clt
    2054:	f7 f8       	bld	r15, 7
    2056:	f9 82       	std	Y+1, r15	; 0x01
    2058:	ea 82       	std	Y+2, r14	; 0x02
    205a:	06 2f       	mov	r16, r22
    205c:	42 e0       	ldi	r20, 0x02	; 2
    205e:	be 01       	movw	r22, r28
    2060:	6f 5f       	subi	r22, 0xFF	; 255
    2062:	7f 4f       	sbci	r23, 0xFF	; 255
    2064:	80 e5       	ldi	r24, 0x50	; 80
    2066:	0e 94 b8 02 	call	0x570	; 0x570 <I2C_read_bytes>
    206a:	18 2f       	mov	r17, r24
    206c:	81 11       	cpse	r24, r1
    206e:	05 c0       	rjmp	.+10     	; 0x207a <ExtEERead+0x4a>
    2070:	95 01       	movw	r18, r10
    2072:	4c 2d       	mov	r20, r12
    2074:	6d 2d       	mov	r22, r13
    2076:	c7 01       	movw	r24, r14
    2078:	b4 df       	rcall	.-152    	; 0x1fe2 <DecryptData>
    207a:	81 2f       	mov	r24, r17
    207c:	0f 90       	pop	r0
    207e:	0f 90       	pop	r0
    2080:	df 91       	pop	r29
    2082:	cf 91       	pop	r28
    2084:	1f 91       	pop	r17
    2086:	0f 91       	pop	r16
    2088:	ff 90       	pop	r15
    208a:	ef 90       	pop	r14
    208c:	df 90       	pop	r13
    208e:	cf 90       	pop	r12
    2090:	bf 90       	pop	r11
    2092:	af 90       	pop	r10
    2094:	08 95       	ret

00002096 <ClearTxAfter>:
    2096:	8f 5f       	subi	r24, 0xFF	; 255
    2098:	88 30       	cpi	r24, 0x08	; 8
    209a:	30 f4       	brcc	.+12     	; 0x20a8 <ClearTxAfter+0x12>
    209c:	e8 2f       	mov	r30, r24
    209e:	f0 e0       	ldi	r31, 0x00	; 0
    20a0:	e8 5b       	subi	r30, 0xB8	; 184
    20a2:	f5 4c       	sbci	r31, 0xC5	; 197
    20a4:	10 82       	st	Z, r1
    20a6:	f7 cf       	rjmp	.-18     	; 0x2096 <ClearTxAfter>
    20a8:	08 95       	ret

000020aa <StartsWith>:
    20aa:	ac 01       	movw	r20, r24
    20ac:	90 e0       	ldi	r25, 0x00	; 0
    20ae:	e9 2f       	mov	r30, r25
    20b0:	f0 e0       	ldi	r31, 0x00	; 0
    20b2:	da 01       	movw	r26, r20
    20b4:	ae 0f       	add	r26, r30
    20b6:	bf 1f       	adc	r27, r31
    20b8:	3c 91       	ld	r19, X
    20ba:	e6 0f       	add	r30, r22
    20bc:	f7 1f       	adc	r31, r23
    20be:	31 11       	cpse	r19, r1
    20c0:	05 c0       	rjmp	.+10     	; 0x20cc <StartsWith+0x22>
    20c2:	81 e0       	ldi	r24, 0x01	; 1
    20c4:	90 81       	ld	r25, Z
    20c6:	99 23       	and	r25, r25
    20c8:	49 f0       	breq	.+18     	; 0x20dc <StartsWith+0x32>
    20ca:	07 c0       	rjmp	.+14     	; 0x20da <StartsWith+0x30>
    20cc:	20 81       	ld	r18, Z
    20ce:	22 23       	and	r18, r18
    20d0:	c1 f3       	breq	.-16     	; 0x20c2 <StartsWith+0x18>
    20d2:	32 13       	cpse	r19, r18
    20d4:	02 c0       	rjmp	.+4      	; 0x20da <StartsWith+0x30>
    20d6:	9f 5f       	subi	r25, 0xFF	; 255
    20d8:	ea cf       	rjmp	.-44     	; 0x20ae <StartsWith+0x4>
    20da:	80 e0       	ldi	r24, 0x00	; 0
    20dc:	08 95       	ret

000020de <PrepareSending>:
    20de:	cf 93       	push	r28
    20e0:	df 93       	push	r29
    20e2:	fc 01       	movw	r30, r24
    20e4:	61 15       	cp	r22, r1
    20e6:	71 05       	cpc	r23, r1
    20e8:	59 f1       	breq	.+86     	; 0x2140 <PrepareSending+0x62>
    20ea:	a0 e5       	ldi	r26, 0x50	; 80
    20ec:	ba e3       	ldi	r27, 0x3A	; 58
    20ee:	c8 e4       	ldi	r28, 0x48	; 72
    20f0:	da e3       	ldi	r29, 0x3A	; 58
    20f2:	80 e0       	ldi	r24, 0x00	; 0
    20f4:	9f ef       	ldi	r25, 0xFF	; 255
    20f6:	6f 3f       	cpi	r22, 0xFF	; 255
    20f8:	71 05       	cpc	r23, r1
    20fa:	69 f0       	breq	.+26     	; 0x2116 <PrepareSending+0x38>
    20fc:	60 f0       	brcs	.+24     	; 0x2116 <PrepareSending+0x38>
    20fe:	ed 93       	st	X+, r30
    2100:	fd 93       	st	X+, r31
    2102:	99 93       	st	Y+, r25
    2104:	e1 50       	subi	r30, 0x01	; 1
    2106:	ff 4f       	sbci	r31, 0xFF	; 255
    2108:	6f 5f       	subi	r22, 0xFF	; 255
    210a:	71 09       	sbc	r23, r1
    210c:	8f 5f       	subi	r24, 0xFF	; 255
    210e:	87 30       	cpi	r24, 0x07	; 7
    2110:	91 f7       	brne	.-28     	; 0x20f6 <PrepareSending+0x18>
    2112:	81 e0       	ldi	r24, 0x01	; 1
    2114:	1e c0       	rjmp	.+60     	; 0x2152 <PrepareSending+0x74>
    2116:	28 2f       	mov	r18, r24
    2118:	30 e0       	ldi	r19, 0x00	; 0
    211a:	d9 01       	movw	r26, r18
    211c:	aa 0f       	add	r26, r26
    211e:	bb 1f       	adc	r27, r27
    2120:	a0 5b       	subi	r26, 0xB0	; 176
    2122:	b5 4c       	sbci	r27, 0xC5	; 197
    2124:	ed 93       	st	X+, r30
    2126:	fc 93       	st	X, r31
    2128:	6f 3f       	cpi	r22, 0xFF	; 255
    212a:	71 05       	cpc	r23, r1
    212c:	11 f4       	brne	.+4      	; 0x2132 <PrepareSending+0x54>
    212e:	6e ef       	ldi	r22, 0xFE	; 254
    2130:	70 e0       	ldi	r23, 0x00	; 0
    2132:	f9 01       	movw	r30, r18
    2134:	e8 5b       	subi	r30, 0xB8	; 184
    2136:	f5 4c       	sbci	r31, 0xC5	; 197
    2138:	60 83       	st	Z, r22
    213a:	40 93 46 3a 	sts	0x3A46, r20	; 0x803a46 <txTypeNow>
    213e:	05 c0       	rjmp	.+10     	; 0x214a <PrepareSending+0x6c>
    2140:	10 92 50 3a 	sts	0x3A50, r1	; 0x803a50 <txAddrList>
    2144:	10 92 51 3a 	sts	0x3A51, r1	; 0x803a51 <txAddrList+0x1>
    2148:	80 e0       	ldi	r24, 0x00	; 0
    214a:	a5 df       	rcall	.-182    	; 0x2096 <ClearTxAfter>
    214c:	10 92 47 3a 	sts	0x3A47, r1	; 0x803a47 <txAddrNow>
    2150:	80 e0       	ldi	r24, 0x00	; 0
    2152:	df 91       	pop	r29
    2154:	cf 91       	pop	r28
    2156:	08 95       	ret

00002158 <SetStandardResponse>:
}

//
uint8_t SetStandardResponse(uint8_t custStrEnd){
    2158:	cf 93       	push	r28
    215a:	df 93       	push	r29
    return 0;
}

//
void SetResponse(uint8_t number, uint16_t address, uint16_t length, uint8_t type){
    reactStr[0][number]=address;
    215c:	28 2f       	mov	r18, r24
    215e:	30 e0       	ldi	r19, 0x00	; 0
    2160:	f9 01       	movw	r30, r18
    2162:	ee 0f       	add	r30, r30
    2164:	ff 1f       	adc	r31, r31
    2166:	e5 5e       	subi	r30, 0xE5	; 229
    2168:	f6 4c       	sbci	r31, 0xC6	; 198
    216a:	ab e5       	ldi	r26, 0x5B	; 91
    216c:	ba e7       	ldi	r27, 0x7A	; 122
    216e:	a0 83       	st	Z, r26
    2170:	b1 83       	std	Z+1, r27	; 0x01
    reactStr[1][number]=length;
    2172:	f9 01       	movw	r30, r18
    2174:	ee 0f       	add	r30, r30
    2176:	ff 1f       	adc	r31, r31
    2178:	e5 5a       	subi	r30, 0xA5	; 165
    217a:	f6 4c       	sbci	r31, 0xC6	; 198
    217c:	62 e0       	ldi	r22, 0x02	; 2
    217e:	70 e0       	ldi	r23, 0x00	; 0
    2180:	60 83       	st	Z, r22
    2182:	71 83       	std	Z+1, r23	; 0x01
    reactStr[2][number]=type;
    2184:	22 0f       	add	r18, r18
    2186:	33 1f       	adc	r19, r19
    2188:	f9 01       	movw	r30, r18
    218a:	e5 56       	subi	r30, 0x65	; 101
    218c:	f6 4c       	sbci	r31, 0xC6	; 198
    218e:	41 e0       	ldi	r20, 0x01	; 1
    2190:	50 e0       	ldi	r21, 0x00	; 0
    2192:	40 83       	st	Z, r20
    2194:	51 83       	std	Z+1, r21	; 0x01
    return 0;
}

//
void SetResponse(uint8_t number, uint16_t address, uint16_t length, uint8_t type){
    reactStr[0][number]=address;
    2196:	21 e0       	ldi	r18, 0x01	; 1
    2198:	28 0f       	add	r18, r24
    219a:	30 e0       	ldi	r19, 0x00	; 0
    219c:	f9 01       	movw	r30, r18
    219e:	ee 0f       	add	r30, r30
    21a0:	ff 1f       	adc	r31, r31
    21a2:	e5 5e       	subi	r30, 0xE5	; 229
    21a4:	f6 4c       	sbci	r31, 0xC6	; 198
    21a6:	c4 e6       	ldi	r28, 0x64	; 100
    21a8:	da e7       	ldi	r29, 0x7A	; 122
    21aa:	c0 83       	st	Z, r28
    21ac:	d1 83       	std	Z+1, r29	; 0x01
    reactStr[1][number]=length;
    21ae:	f9 01       	movw	r30, r18
    21b0:	ee 0f       	add	r30, r30
    21b2:	ff 1f       	adc	r31, r31
    21b4:	e5 5a       	subi	r30, 0xA5	; 165
    21b6:	f6 4c       	sbci	r31, 0xC6	; 198
    21b8:	ca e0       	ldi	r28, 0x0A	; 10
    21ba:	d0 e0       	ldi	r29, 0x00	; 0
    21bc:	c0 83       	st	Z, r28
    21be:	d1 83       	std	Z+1, r29	; 0x01
    reactStr[2][number]=type;
    21c0:	22 0f       	add	r18, r18
    21c2:	33 1f       	adc	r19, r19
    21c4:	f9 01       	movw	r30, r18
    21c6:	e5 56       	subi	r30, 0x65	; 101
    21c8:	f6 4c       	sbci	r31, 0xC6	; 198
    21ca:	40 83       	st	Z, r20
    21cc:	51 83       	std	Z+1, r21	; 0x01
uint8_t SetStandardResponse(uint8_t custStrEnd){

    SetResponse(custStrEnd++, A_LF, 2, TEASER);
    SetResponse(custStrEnd++, A_LOCATION, L_LOCATION, TEASER);
    //SetResponse(custStrEnd++, A_SPACE, L_SPACE, TEASER);
    reactStr[0][custStrEnd++] = CURR_LOC;
    21ce:	e2 e0       	ldi	r30, 0x02	; 2
    21d0:	e8 0f       	add	r30, r24
    21d2:	f0 e0       	ldi	r31, 0x00	; 0
    21d4:	ee 0f       	add	r30, r30
    21d6:	ff 1f       	adc	r31, r31
    21d8:	e5 5e       	subi	r30, 0xE5	; 229
    21da:	f6 4c       	sbci	r31, 0xC6	; 198
    21dc:	20 ef       	ldi	r18, 0xF0	; 240
    21de:	3f ef       	ldi	r19, 0xFF	; 255
    21e0:	20 83       	st	Z, r18
    21e2:	31 83       	std	Z+1, r19	; 0x01
    return 0;
}

//
void SetResponse(uint8_t number, uint16_t address, uint16_t length, uint8_t type){
    reactStr[0][number]=address;
    21e4:	23 e0       	ldi	r18, 0x03	; 3
    21e6:	28 0f       	add	r18, r24
    21e8:	30 e0       	ldi	r19, 0x00	; 0
    21ea:	f9 01       	movw	r30, r18
    21ec:	ee 0f       	add	r30, r30
    21ee:	ff 1f       	adc	r31, r31
    21f0:	e5 5e       	subi	r30, 0xE5	; 229
    21f2:	f6 4c       	sbci	r31, 0xC6	; 198
    21f4:	a0 83       	st	Z, r26
    21f6:	b1 83       	std	Z+1, r27	; 0x01
    reactStr[1][number]=length;
    21f8:	f9 01       	movw	r30, r18
    21fa:	ee 0f       	add	r30, r30
    21fc:	ff 1f       	adc	r31, r31
    21fe:	e5 5a       	subi	r30, 0xA5	; 165
    2200:	f6 4c       	sbci	r31, 0xC6	; 198
    2202:	60 83       	st	Z, r22
    2204:	71 83       	std	Z+1, r23	; 0x01
    reactStr[2][number]=type;
    2206:	22 0f       	add	r18, r18
    2208:	33 1f       	adc	r19, r19
    220a:	f9 01       	movw	r30, r18
    220c:	e5 56       	subi	r30, 0x65	; 101
    220e:	f6 4c       	sbci	r31, 0xC6	; 198
    2210:	40 83       	st	Z, r20
    2212:	51 83       	std	Z+1, r21	; 0x01
    return 0;
}

//
void SetResponse(uint8_t number, uint16_t address, uint16_t length, uint8_t type){
    reactStr[0][number]=address;
    2214:	24 e0       	ldi	r18, 0x04	; 4
    2216:	28 0f       	add	r18, r24
    2218:	30 e0       	ldi	r19, 0x00	; 0
    221a:	f9 01       	movw	r30, r18
    221c:	ee 0f       	add	r30, r30
    221e:	ff 1f       	adc	r31, r31
    2220:	e5 5e       	subi	r30, 0xE5	; 229
    2222:	f6 4c       	sbci	r31, 0xC6	; 198
    2224:	a7 e5       	ldi	r26, 0x57	; 87
    2226:	ba e7       	ldi	r27, 0x7A	; 122
    2228:	a0 83       	st	Z, r26
    222a:	b1 83       	std	Z+1, r27	; 0x01
    reactStr[1][number]=length;
    222c:	f9 01       	movw	r30, r18
    222e:	ee 0f       	add	r30, r30
    2230:	ff 1f       	adc	r31, r31
    2232:	e5 5a       	subi	r30, 0xA5	; 165
    2234:	f6 4c       	sbci	r31, 0xC6	; 198
    2236:	60 83       	st	Z, r22
    2238:	71 83       	std	Z+1, r23	; 0x01
    reactStr[2][number]=type;
    223a:	22 0f       	add	r18, r18
    223c:	33 1f       	adc	r19, r19
    223e:	f9 01       	movw	r30, r18
    2240:	e5 56       	subi	r30, 0x65	; 101
    2242:	f6 4c       	sbci	r31, 0xC6	; 198
    2244:	40 83       	st	Z, r20
    2246:	51 83       	std	Z+1, r21	; 0x01
    SetResponse(custStrEnd++, A_LF, 2, TEASER);
    SetResponse(custStrEnd++, A_PROMPT, L_PROMPT, TEASER);
    //SetResponse(custStrEnd++, A_SPACE, L_SPACE, TEASER);

    return custStrEnd;
}
    2248:	8b 5f       	subi	r24, 0xFB	; 251
    224a:	df 91       	pop	r29
    224c:	cf 91       	pop	r28
    224e:	08 95       	ret

00002250 <PopulateObject>:

//Get all the relevant data and string addresses of an object
void PopulateObject(uint16_t offset, object_model_t *object){
    2250:	af 92       	push	r10
    2252:	bf 92       	push	r11
    2254:	df 92       	push	r13
    2256:	ef 92       	push	r14
    2258:	ff 92       	push	r15
    225a:	0f 93       	push	r16
    225c:	1f 93       	push	r17
    225e:	cf 93       	push	r28
    2260:	df 93       	push	r29
    2262:	cd b7       	in	r28, 0x3d	; 61
    2264:	de b7       	in	r29, 0x3e	; 62
    2266:	2c 97       	sbiw	r28, 0x0c	; 12
    2268:	cd bf       	out	0x3d, r28	; 61
    226a:	de bf       	out	0x3e, r29	; 62
    226c:	7c 01       	movw	r14, r24
    226e:	8b 01       	movw	r16, r22
    uint16_t parStr;
    offset += L_BOILER;

    //Fill things with fixed distance to offset
    uint8_t data[OFF_STRINGFLDS];
    ExtEERead(offset, OFF_STRINGFLDS, GAME, &data[0]);
    2270:	9e 01       	movw	r18, r28
    2272:	2f 5f       	subi	r18, 0xFF	; 255
    2274:	3f 4f       	sbci	r19, 0xFF	; 255
    2276:	40 e0       	ldi	r20, 0x00	; 0
    2278:	6c e0       	ldi	r22, 0x0C	; 12
    227a:	80 96       	adiw	r24, 0x20	; 32
    227c:	d9 de       	rcall	.-590    	; 0x2030 <ExtEERead>
    object->addrNextObj = (data[OFF_NEXTOBJ]<<8|data[OFF_NEXTOBJ+1])+L_BOILER;
    227e:	89 81       	ldd	r24, Y+1	; 0x01
    2280:	9a 81       	ldd	r25, Y+2	; 0x02
    2282:	98 27       	eor	r25, r24
    2284:	89 27       	eor	r24, r25
    2286:	98 27       	eor	r25, r24
    2288:	80 96       	adiw	r24, 0x20	; 32
    228a:	f8 01       	movw	r30, r16
    228c:	80 83       	st	Z, r24
    228e:	91 83       	std	Z+1, r25	; 0x01
    object->addrNextLvl = (data[OFF_NEXTLVL]<<8|data[OFF_NEXTLVL+1])+L_BOILER;
    2290:	8b 81       	ldd	r24, Y+3	; 0x03
    2292:	9c 81       	ldd	r25, Y+4	; 0x04
    2294:	98 27       	eor	r25, r24
    2296:	89 27       	eor	r24, r25
    2298:	98 27       	eor	r25, r24
    229a:	80 96       	adiw	r24, 0x20	; 32
    229c:	82 83       	std	Z+2, r24	; 0x02
    229e:	93 83       	std	Z+3, r25	; 0x03
    22a0:	de 01       	movw	r26, r28
    22a2:	15 96       	adiw	r26, 0x05	; 5
    22a4:	34 96       	adiw	r30, 0x04	; 4
    22a6:	c8 01       	movw	r24, r16
    22a8:	0c 96       	adiw	r24, 0x0c	; 12
    for (uint8_t x=0; x<BYTE_FIELDS_LEN; ++x){
        object->byteField[x]=data[x+OFF_BYTEFLDS];
    22aa:	2d 91       	ld	r18, X+
    22ac:	21 93       	st	Z+, r18
    //Fill things with fixed distance to offset
    uint8_t data[OFF_STRINGFLDS];
    ExtEERead(offset, OFF_STRINGFLDS, GAME, &data[0]);
    object->addrNextObj = (data[OFF_NEXTOBJ]<<8|data[OFF_NEXTOBJ+1])+L_BOILER;
    object->addrNextLvl = (data[OFF_NEXTLVL]<<8|data[OFF_NEXTLVL+1])+L_BOILER;
    for (uint8_t x=0; x<BYTE_FIELDS_LEN; ++x){
    22ae:	e8 17       	cp	r30, r24
    22b0:	f9 07       	cpc	r31, r25
    22b2:	d9 f7       	brne	.-10     	; 0x22aa <PopulateObject+0x5a>
        object->byteField[x]=data[x+OFF_BYTEFLDS];
    }

    //Find out where all of the strings begin and how long they are
    offset += OFF_STRINGFLDS;
    22b4:	fc e2       	ldi	r31, 0x2C	; 44
    22b6:	ef 0e       	add	r14, r31
    22b8:	f1 1c       	adc	r15, r1
    22ba:	58 01       	movw	r10, r16
    for(uint8_t x=0; x<STRING_FIELDS_LEN; ++x){
    22bc:	d1 2c       	mov	r13, r1
        
        //Determine length
        ExtEERead(offset, 3, GAME, &data[0]);
    22be:	9e 01       	movw	r18, r28
    22c0:	2f 5f       	subi	r18, 0xFF	; 255
    22c2:	3f 4f       	sbci	r19, 0xFF	; 255
    22c4:	40 e0       	ldi	r20, 0x00	; 0
    22c6:	63 e0       	ldi	r22, 0x03	; 3
    22c8:	c7 01       	movw	r24, r14
    22ca:	b2 de       	rcall	.-668    	; 0x2030 <ExtEERead>
    22cc:	89 81       	ldd	r24, Y+1	; 0x01
    22ce:	9a 81       	ldd	r25, Y+2	; 0x02
    22d0:	98 27       	eor	r25, r24
    22d2:	89 27       	eor	r24, r25
    22d4:	98 27       	eor	r25, r24
        parStr = (data[0]<<8|data[1]);
        offset += 2;
    22d6:	97 01       	movw	r18, r14
    22d8:	2e 5f       	subi	r18, 0xFE	; 254
    22da:	3f 4f       	sbci	r19, 0xFF	; 255
        if (x >= OPEN_ACL_MSG){
    22dc:	43 e0       	ldi	r20, 0x03	; 3
    22de:	4d 15       	cp	r20, r13
    22e0:	80 f4       	brcc	.+32     	; 0x2302 <PopulateObject+0xb2>
            object->lenStr[x]= parStr-1;
    22e2:	ac 01       	movw	r20, r24
    22e4:	41 50       	subi	r20, 0x01	; 1
    22e6:	51 09       	sbc	r21, r1
    22e8:	f8 01       	movw	r30, r16
    22ea:	42 8f       	std	Z+26, r20	; 0x1a
    22ec:	53 8f       	std	Z+27, r21	; 0x1b
            object->addrStr[x]=offset+1;
    22ee:	f3 e0       	ldi	r31, 0x03	; 3
    22f0:	ef 0e       	add	r14, r31
    22f2:	f1 1c       	adc	r15, r1
    22f4:	f8 01       	movw	r30, r16
    22f6:	e4 86       	std	Z+12, r14	; 0x0c
    22f8:	f5 86       	std	Z+13, r15	; 0x0d
            object->effect[x-OPEN_ACL_MSG] = data[2];
    22fa:	4b 81       	ldd	r20, Y+3	; 0x03
    22fc:	f5 01       	movw	r30, r10
    22fe:	44 a3       	std	Z+36, r20	; 0x24
    2300:	05 c0       	rjmp	.+10     	; 0x230c <PopulateObject+0xbc>
        } else {
            object->lenStr[x]= parStr;
    2302:	f8 01       	movw	r30, r16
    2304:	82 8f       	std	Z+26, r24	; 0x1a
    2306:	93 8f       	std	Z+27, r25	; 0x1b
            object->addrStr[x]=offset;
    2308:	24 87       	std	Z+12, r18	; 0x0c
    230a:	35 87       	std	Z+13, r19	; 0x0d
        }
        
        //Determine string start location for next field
        offset += parStr;
    230c:	7c 01       	movw	r14, r24
    230e:	e2 0e       	add	r14, r18
    2310:	f3 1e       	adc	r15, r19
        object->byteField[x]=data[x+OFF_BYTEFLDS];
    }

    //Find out where all of the strings begin and how long they are
    offset += OFF_STRINGFLDS;
    for(uint8_t x=0; x<STRING_FIELDS_LEN; ++x){
    2312:	d3 94       	inc	r13
    2314:	0e 5f       	subi	r16, 0xFE	; 254
    2316:	1f 4f       	sbci	r17, 0xFF	; 255
    2318:	ff ef       	ldi	r31, 0xFF	; 255
    231a:	af 1a       	sub	r10, r31
    231c:	bf 0a       	sbc	r11, r31
    231e:	47 e0       	ldi	r20, 0x07	; 7
    2320:	d4 12       	cpse	r13, r20
    2322:	cd cf       	rjmp	.-102    	; 0x22be <PopulateObject+0x6e>
        }
        
        //Determine string start location for next field
        offset += parStr;
    }    
}
    2324:	2c 96       	adiw	r28, 0x0c	; 12
    2326:	cd bf       	out	0x3d, r28	; 61
    2328:	de bf       	out	0x3e, r29	; 62
    232a:	df 91       	pop	r29
    232c:	cf 91       	pop	r28
    232e:	1f 91       	pop	r17
    2330:	0f 91       	pop	r16
    2332:	ff 90       	pop	r15
    2334:	ef 90       	pop	r14
    2336:	df 90       	pop	r13
    2338:	bf 90       	pop	r11
    233a:	af 90       	pop	r10
    233c:	08 95       	ret

0000233e <CheckLetter>:

//Check if the entered letter corresponds with a name
uint8_t CheckLetter(uint16_t object, uint8_t letter){
    233e:	cf 92       	push	r12
    2340:	df 92       	push	r13
    2342:	ef 92       	push	r14
    2344:	ff 92       	push	r15
    2346:	0f 93       	push	r16
    2348:	1f 93       	push	r17
    234a:	cf 93       	push	r28
    234c:	df 93       	push	r29
    234e:	cd b7       	in	r28, 0x3d	; 61
    2350:	de b7       	in	r29, 0x3e	; 62
    2352:	a0 97       	sbiw	r28, 0x20	; 32
    2354:	cd bf       	out	0x3d, r28	; 61
    2356:	de bf       	out	0x3e, r29	; 62
    2358:	c6 2e       	mov	r12, r22
    
    uint8_t found = 0;
    uint8_t data[32];

    object += L_BOILER;
    235a:	7c 01       	movw	r14, r24
    235c:	20 e2       	ldi	r18, 0x20	; 32
    235e:	e2 0e       	add	r14, r18
    2360:	f1 1c       	adc	r15, r1
    ExtEERead(object+OFF_STRINGFLDS, 2, GAME, &data[0]);
    2362:	9e 01       	movw	r18, r28
    2364:	2f 5f       	subi	r18, 0xFF	; 255
    2366:	3f 4f       	sbci	r19, 0xFF	; 255
    2368:	40 e0       	ldi	r20, 0x00	; 0
    236a:	62 e0       	ldi	r22, 0x02	; 2
    236c:	8c 96       	adiw	r24, 0x2c	; 44
    236e:	60 de       	rcall	.-832    	; 0x2030 <ExtEERead>
    uint8_t x = data[1]; //Assuming a name is not longer than 255 characters.
    2370:	1a 81       	ldd	r17, Y+2	; 0x02
}

//Check if the entered letter corresponds with a name
uint8_t CheckLetter(uint16_t object, uint8_t letter){
    
    uint8_t found = 0;
    2372:	d1 2c       	mov	r13, r1

    object += L_BOILER;
    ExtEERead(object+OFF_STRINGFLDS, 2, GAME, &data[0]);
    uint8_t x = data[1]; //Assuming a name is not longer than 255 characters.

    while (x){
    2374:	11 23       	and	r17, r17
    2376:	51 f1       	breq	.+84     	; 0x23cc <CheckLetter+0x8e>
    2378:	01 2f       	mov	r16, r17
    237a:	11 32       	cpi	r17, 0x21	; 33
    237c:	08 f0       	brcs	.+2      	; 0x2380 <CheckLetter+0x42>
    237e:	00 e2       	ldi	r16, 0x20	; 32
        uint8_t max;
        if (x>32) max = 32; else max = x;
        ExtEERead(object+OFF_STRINGFLDS+2, max, GAME, &data[0]);
    2380:	9e 01       	movw	r18, r28
    2382:	2f 5f       	subi	r18, 0xFF	; 255
    2384:	3f 4f       	sbci	r19, 0xFF	; 255
    2386:	40 e0       	ldi	r20, 0x00	; 0
    2388:	60 2f       	mov	r22, r16
    238a:	c7 01       	movw	r24, r14
    238c:	0e 96       	adiw	r24, 0x0e	; 14
    238e:	50 de       	rcall	.-864    	; 0x2030 <ExtEERead>
    2390:	fe 01       	movw	r30, r28
    2392:	31 96       	adiw	r30, 0x01	; 1
        for (uint8_t y=0; y<max; ++y){
    2394:	80 e0       	ldi	r24, 0x00	; 0
            if (found){
    2396:	dd 20       	and	r13, r13
    2398:	61 f0       	breq	.+24     	; 0x23b2 <CheckLetter+0x74>
                if ((data[y]|0x20) == letter) return 1; else return 0;
    239a:	e1 e0       	ldi	r30, 0x01	; 1
    239c:	f0 e0       	ldi	r31, 0x00	; 0
    239e:	ec 0f       	add	r30, r28
    23a0:	fd 1f       	adc	r31, r29
    23a2:	e8 0f       	add	r30, r24
    23a4:	f1 1d       	adc	r31, r1
    23a6:	90 81       	ld	r25, Z
    23a8:	90 62       	ori	r25, 0x20	; 32
    23aa:	81 e0       	ldi	r24, 0x01	; 1
    23ac:	9c 11       	cpse	r25, r12
    23ae:	0e c0       	rjmp	.+28     	; 0x23cc <CheckLetter+0x8e>
    23b0:	0e c0       	rjmp	.+28     	; 0x23ce <CheckLetter+0x90>
            }
            if (data[y] == '[') found = 1;
    23b2:	91 91       	ld	r25, Z+
    23b4:	dd 24       	eor	r13, r13
    23b6:	d3 94       	inc	r13
    23b8:	9b 35       	cpi	r25, 0x5B	; 91
    23ba:	09 f0       	breq	.+2      	; 0x23be <CheckLetter+0x80>
    23bc:	d1 2c       	mov	r13, r1

    while (x){
        uint8_t max;
        if (x>32) max = 32; else max = x;
        ExtEERead(object+OFF_STRINGFLDS+2, max, GAME, &data[0]);
        for (uint8_t y=0; y<max; ++y){
    23be:	8f 5f       	subi	r24, 0xFF	; 255
    23c0:	80 17       	cp	r24, r16
    23c2:	48 f3       	brcs	.-46     	; 0x2396 <CheckLetter+0x58>
            if (found){
                if ((data[y]|0x20) == letter) return 1; else return 0;
            }
            if (data[y] == '[') found = 1;
        }
        object += max;
    23c4:	e0 0e       	add	r14, r16
    23c6:	f1 1c       	adc	r15, r1
        x -= max;
    23c8:	10 1b       	sub	r17, r16
    23ca:	d4 cf       	rjmp	.-88     	; 0x2374 <CheckLetter+0x36>
    }
    return 0;
    23cc:	80 e0       	ldi	r24, 0x00	; 0
}
    23ce:	a0 96       	adiw	r28, 0x20	; 32
    23d0:	cd bf       	out	0x3d, r28	; 61
    23d2:	de bf       	out	0x3e, r29	; 62
    23d4:	df 91       	pop	r29
    23d6:	cf 91       	pop	r28
    23d8:	1f 91       	pop	r17
    23da:	0f 91       	pop	r16
    23dc:	ff 90       	pop	r15
    23de:	ef 90       	pop	r14
    23e0:	df 90       	pop	r13
    23e2:	cf 90       	pop	r12
    23e4:	08 95       	ret

000023e6 <FindChild>:

//Returns the child's address if the child is visible and the search letter matches
uint16_t FindChild(uint16_t parent, uint8_t letter, uint16_t start){
    23e6:	af 92       	push	r10
    23e8:	bf 92       	push	r11
    23ea:	df 92       	push	r13
    23ec:	ef 92       	push	r14
    23ee:	ff 92       	push	r15
    23f0:	0f 93       	push	r16
    23f2:	1f 93       	push	r17
    23f4:	cf 93       	push	r28
    23f6:	df 93       	push	r29
    23f8:	00 d0       	rcall	.+0      	; 0x23fa <FindChild+0x14>
    23fa:	00 d0       	rcall	.+0      	; 0x23fc <FindChild+0x16>
    23fc:	cd b7       	in	r28, 0x3d	; 61
    23fe:	de b7       	in	r29, 0x3e	; 62
    2400:	d6 2e       	mov	r13, r22
    2402:	5a 01       	movw	r10, r20
    
    uint16_t child = parent;
    uint8_t data[4];

    ExtEERead(child+L_BOILER, 4, GAME, &data[0]);
    2404:	9e 01       	movw	r18, r28
    2406:	2f 5f       	subi	r18, 0xFF	; 255
    2408:	3f 4f       	sbci	r19, 0xFF	; 255
    240a:	40 e0       	ldi	r20, 0x00	; 0
    240c:	64 e0       	ldi	r22, 0x04	; 4
    240e:	80 96       	adiw	r24, 0x20	; 32
    2410:	0f de       	rcall	.-994    	; 0x2030 <ExtEERead>
    2412:	e9 80       	ldd	r14, Y+1	; 0x01
    2414:	fa 80       	ldd	r15, Y+2	; 0x02
    2416:	fe 24       	eor	r15, r14
    2418:	ef 24       	eor	r14, r15
    241a:	fe 24       	eor	r15, r14
    241c:	0b 81       	ldd	r16, Y+3	; 0x03
    241e:	1c 81       	ldd	r17, Y+4	; 0x04
    2420:	10 27       	eor	r17, r16
    2422:	01 27       	eor	r16, r17
    2424:	10 27       	eor	r17, r16
    parent = (data[0]<<8|data[1]);    //Next object on parent level
    child =  (data[2]<<8|data[3]);    //First object on child level

    //As long as the child is within the parent's range
    while (parent>child){
    2426:	0e 15       	cp	r16, r14
    2428:	1f 05       	cpc	r17, r15
    242a:	30 f5       	brcc	.+76     	; 0x2478 <FindChild+0x92>

        //If child's address is higher than the start address, perform search for letter
        if (child>start){
    242c:	a0 16       	cp	r10, r16
    242e:	b1 06       	cpc	r11, r17
    2430:	58 f0       	brcs	.+22     	; 0x2448 <FindChild+0x62>
                if ((letter == 0)||(CheckLetter(child, letter))) return child;
            }
        }

        //Not visible or name not right
        ExtEERead(child+L_BOILER, 2, GAME, &data[0]);
    2432:	9e 01       	movw	r18, r28
    2434:	2f 5f       	subi	r18, 0xFF	; 255
    2436:	3f 4f       	sbci	r19, 0xFF	; 255
    2438:	40 e0       	ldi	r20, 0x00	; 0
    243a:	62 e0       	ldi	r22, 0x02	; 2
    243c:	c8 01       	movw	r24, r16
    243e:	80 96       	adiw	r24, 0x20	; 32
    2440:	f7 dd       	rcall	.-1042   	; 0x2030 <ExtEERead>
    2442:	09 81       	ldd	r16, Y+1	; 0x01
    2444:	1a 81       	ldd	r17, Y+2	; 0x02
    2446:	ec cf       	rjmp	.-40     	; 0x2420 <FindChild+0x3a>
    //As long as the child is within the parent's range
    while (parent>child){

        //If child's address is higher than the start address, perform search for letter
        if (child>start){
            ExtEERead(child+OFF_BYTEFLDS+VISIBLE_ACL+L_BOILER, 1, GAME, &data[0]);
    2448:	9e 01       	movw	r18, r28
    244a:	2f 5f       	subi	r18, 0xFF	; 255
    244c:	3f 4f       	sbci	r19, 0xFF	; 255
    244e:	40 e0       	ldi	r20, 0x00	; 0
    2450:	61 e0       	ldi	r22, 0x01	; 1
    2452:	c8 01       	movw	r24, r16
    2454:	85 96       	adiw	r24, 0x25	; 37
    2456:	ec dd       	rcall	.-1064   	; 0x2030 <ExtEERead>
            if ((data[0] == 0)||(CheckState(data[0]))) {
    2458:	89 81       	ldd	r24, Y+1	; 0x01
    245a:	81 11       	cpse	r24, r1
    245c:	03 c0       	rjmp	.+6      	; 0x2464 <FindChild+0x7e>
                if ((letter == 0)||(CheckLetter(child, letter))) return child;
    245e:	d1 10       	cpse	r13, r1
    2460:	05 c0       	rjmp	.+10     	; 0x246c <FindChild+0x86>
    while (parent>child){

        //If child's address is higher than the start address, perform search for letter
        if (child>start){
            ExtEERead(child+OFF_BYTEFLDS+VISIBLE_ACL+L_BOILER, 1, GAME, &data[0]);
            if ((data[0] == 0)||(CheckState(data[0]))) {
    2462:	0d c0       	rjmp	.+26     	; 0x247e <FindChild+0x98>
    2464:	71 d8       	rcall	.-3870   	; 0x1548 <CheckState>
    2466:	81 11       	cpse	r24, r1
    2468:	fa cf       	rjmp	.-12     	; 0x245e <FindChild+0x78>
                if ((letter == 0)||(CheckLetter(child, letter))) return child;
    246a:	e3 cf       	rjmp	.-58     	; 0x2432 <FindChild+0x4c>
    246c:	6d 2d       	mov	r22, r13
    246e:	c8 01       	movw	r24, r16
    2470:	66 df       	rcall	.-308    	; 0x233e <CheckLetter>
    2472:	88 23       	and	r24, r24
    2474:	f1 f2       	breq	.-68     	; 0x2432 <FindChild+0x4c>
    2476:	03 c0       	rjmp	.+6      	; 0x247e <FindChild+0x98>

        //Not visible or name not right
        ExtEERead(child+L_BOILER, 2, GAME, &data[0]);
        child = (data[0]<<8|data[1]);    //Next object on child level
        
    } return 0;
    2478:	80 e0       	ldi	r24, 0x00	; 0
    247a:	90 e0       	ldi	r25, 0x00	; 0
    247c:	01 c0       	rjmp	.+2      	; 0x2480 <FindChild+0x9a>
    247e:	c8 01       	movw	r24, r16
}
    2480:	24 96       	adiw	r28, 0x04	; 4
    2482:	cd bf       	out	0x3d, r28	; 61
    2484:	de bf       	out	0x3e, r29	; 62
    2486:	df 91       	pop	r29
    2488:	cf 91       	pop	r28
    248a:	1f 91       	pop	r17
    248c:	0f 91       	pop	r16
    248e:	ff 90       	pop	r15
    2490:	ef 90       	pop	r14
    2492:	df 90       	pop	r13
    2494:	bf 90       	pop	r11
    2496:	af 90       	pop	r10
    2498:	08 95       	ret

0000249a <InpOkChk>:

//Allow only a(A) to z(Z) and 0 to 9 as input
uint8_t InpOkChk(uint8_t test){
    test |= 0x20;
    249a:	80 62       	ori	r24, 0x20	; 32
    if ((test>='a')&&(test<='z')) return 1;
    249c:	9f e9       	ldi	r25, 0x9F	; 159
    249e:	98 0f       	add	r25, r24
    24a0:	9a 31       	cpi	r25, 0x1A	; 26
    24a2:	38 f0       	brcs	.+14     	; 0x24b2 <InpOkChk+0x18>
    24a4:	90 ed       	ldi	r25, 0xD0	; 208
    24a6:	98 0f       	add	r25, r24
    24a8:	81 e0       	ldi	r24, 0x01	; 1
    24aa:	9a 30       	cpi	r25, 0x0A	; 10
    24ac:	18 f0       	brcs	.+6      	; 0x24b4 <InpOkChk+0x1a>
    24ae:	80 e0       	ldi	r24, 0x00	; 0
    24b0:	08 95       	ret
    24b2:	81 e0       	ldi	r24, 0x01	; 1
    if ((test>='0')&&(test<='9')) return 1;
    return 0;
}
    24b4:	08 95       	ret

000024b6 <CleanInput>:

//Cleans input of garbage and returns length of cleaned input "o->d2  !\0" becomes "od2\0"
uint8_t CleanInput(uint8_t *data){
    24b6:	0f 93       	push	r16
    24b8:	1f 93       	push	r17
    24ba:	cf 93       	push	r28
    24bc:	df 93       	push	r29
    24be:	8c 01       	movw	r16, r24
    uint8_t cnt = 0;
    for (uint8_t x=0; data[x]!=0; ++x){
    24c0:	d0 e0       	ldi	r29, 0x00	; 0
    return 0;
}

//Cleans input of garbage and returns length of cleaned input "o->d2  !\0" becomes "od2\0"
uint8_t CleanInput(uint8_t *data){
    uint8_t cnt = 0;
    24c2:	c0 e0       	ldi	r28, 0x00	; 0
    for (uint8_t x=0; data[x]!=0; ++x){
    24c4:	f8 01       	movw	r30, r16
    24c6:	ed 0f       	add	r30, r29
    24c8:	f1 1d       	adc	r31, r1
    24ca:	20 81       	ld	r18, Z
    24cc:	8c 2f       	mov	r24, r28
    24ce:	90 e0       	ldi	r25, 0x00	; 0
    24d0:	22 23       	and	r18, r18
    24d2:	51 f0       	breq	.+20     	; 0x24e8 <CleanInput+0x32>
        data[cnt] = data[x];
    24d4:	d8 01       	movw	r26, r16
    24d6:	a8 0f       	add	r26, r24
    24d8:	b9 1f       	adc	r27, r25
    24da:	2c 93       	st	X, r18
        if (InpOkChk(data[x])) ++cnt;
    24dc:	80 81       	ld	r24, Z
    24de:	dd df       	rcall	.-70     	; 0x249a <InpOkChk>
    24e0:	81 11       	cpse	r24, r1
    24e2:	cf 5f       	subi	r28, 0xFF	; 255
}

//Cleans input of garbage and returns length of cleaned input "o->d2  !\0" becomes "od2\0"
uint8_t CleanInput(uint8_t *data){
    uint8_t cnt = 0;
    for (uint8_t x=0; data[x]!=0; ++x){
    24e4:	df 5f       	subi	r29, 0xFF	; 255
    24e6:	ee cf       	rjmp	.-36     	; 0x24c4 <CleanInput+0xe>
        data[cnt] = data[x];
        if (InpOkChk(data[x])) ++cnt;
    }
    data[cnt] = 0;
    24e8:	f8 01       	movw	r30, r16
    24ea:	e8 0f       	add	r30, r24
    24ec:	f9 1f       	adc	r31, r25
    24ee:	10 82       	st	Z, r1
    return cnt;
}
    24f0:	8c 2f       	mov	r24, r28
    24f2:	df 91       	pop	r29
    24f4:	cf 91       	pop	r28
    24f6:	1f 91       	pop	r17
    24f8:	0f 91       	pop	r16
    24fa:	08 95       	ret

000024fc <CheckSend>:

//Send routine, optimized for low memory usage
uint8_t CheckSend(){
    24fc:	cf 93       	push	r28
    static uint8_t txPart;
    uint8_t EEreadLength=0;

    //Play effects if available and not already playing
    if (effect == 0){
    24fe:	80 91 3a 38 	lds	r24, 0x383A	; 0x80383a <effect>
    2502:	90 91 3b 38 	lds	r25, 0x383B	; 0x80383b <effect+0x1>
    2506:	89 2b       	or	r24, r25
    2508:	99 f4       	brne	.+38     	; 0x2530 <CheckSend+0x34>
        effect = currObj.byteField[EFFECTS];
    250a:	80 91 1f 3a 	lds	r24, 0x3A1F	; 0x803a1f <currObj+0x4>
    250e:	90 e0       	ldi	r25, 0x00	; 0
    2510:	80 93 3a 38 	sts	0x383A, r24	; 0x80383a <effect>
    2514:	90 93 3b 38 	sts	0x383B, r25	; 0x80383b <effect+0x1>
        auStart = ((effect&0xE0)>0);
    2518:	80 91 3a 38 	lds	r24, 0x383A	; 0x80383a <effect>
    251c:	90 91 3b 38 	lds	r25, 0x383B	; 0x80383b <effect+0x1>
    2520:	80 7e       	andi	r24, 0xE0	; 224
    2522:	99 27       	eor	r25, r25
    2524:	21 e0       	ldi	r18, 0x01	; 1
    2526:	89 2b       	or	r24, r25
    2528:	09 f4       	brne	.+2      	; 0x252c <CheckSend+0x30>
    252a:	20 e0       	ldi	r18, 0x00	; 0
    252c:	20 93 39 38 	sts	0x3839, r18	; 0x803839 <auStart>
    }

    //Check if more string(part)s have to be sent to the serial output if previous send operation is completed
    if ((txAddrNow < TXLISTLEN) && serTxDone){
    2530:	20 91 47 3a 	lds	r18, 0x3A47	; 0x803a47 <txAddrNow>
    2534:	28 30       	cpi	r18, 0x08	; 8
    2536:	08 f0       	brcs	.+2      	; 0x253a <CheckSend+0x3e>
    2538:	48 c0       	rjmp	.+144    	; 0x25ca <CheckSend+0xce>
    253a:	80 91 0a 38 	lds	r24, 0x380A	; 0x80380a <serTxDone>
    253e:	88 23       	and	r24, r24
    2540:	09 f4       	brne	.+2      	; 0x2544 <CheckSend+0x48>
    2542:	43 c0       	rjmp	.+134    	; 0x25ca <CheckSend+0xce>
        if (txStrLen[txAddrNow] == 0){
    2544:	82 2f       	mov	r24, r18
    2546:	90 e0       	ldi	r25, 0x00	; 0
    2548:	fc 01       	movw	r30, r24
    254a:	e8 5b       	subi	r30, 0xB8	; 184
    254c:	f5 4c       	sbci	r31, 0xC5	; 197
    254e:	e0 81       	ld	r30, Z
    2550:	e1 11       	cpse	r30, r1
    2552:	06 c0       	rjmp	.+12     	; 0x2560 <CheckSend+0x64>
            txPart = 0;
    2554:	10 92 06 39 	sts	0x3906, r1	; 0x803906 <txPart.3949>
            txAddrNow = TXLISTLEN;
    2558:	88 e0       	ldi	r24, 0x08	; 8
    255a:	80 93 47 3a 	sts	0x3A47, r24	; 0x803a47 <txAddrNow>
    255e:	2d c0       	rjmp	.+90     	; 0x25ba <CheckSend+0xbe>
        } else if (txPart < txStrLen[txAddrNow]){
    2560:	50 91 06 39 	lds	r21, 0x3906	; 0x803906 <txPart.3949>
    2564:	5e 17       	cp	r21, r30
    2566:	58 f5       	brcc	.+86     	; 0x25be <CheckSend+0xc2>
            EEreadLength = txStrLen[txAddrNow]-txPart;
    2568:	ce 2f       	mov	r28, r30
    256a:	c5 1b       	sub	r28, r21
    256c:	c1 32       	cpi	r28, 0x21	; 33
    256e:	08 f0       	brcs	.+2      	; 0x2572 <CheckSend+0x76>
    2570:	c0 e2       	ldi	r28, 0x20	; 32
            if (EEreadLength>=TXLEN) EEreadLength = TXLEN-1;
            ExtEERead(txAddrList[txAddrNow]+txPart, EEreadLength, txTypeNow, &txBuffer[0]);
    2572:	88 0f       	add	r24, r24
    2574:	99 1f       	adc	r25, r25
    2576:	fc 01       	movw	r30, r24
    2578:	e0 5b       	subi	r30, 0xB0	; 176
    257a:	f5 4c       	sbci	r31, 0xC5	; 197
    257c:	80 81       	ld	r24, Z
    257e:	91 81       	ldd	r25, Z+1	; 0x01
    2580:	29 ef       	ldi	r18, 0xF9	; 249
    2582:	3a e3       	ldi	r19, 0x3A	; 58
    2584:	40 91 46 3a 	lds	r20, 0x3A46	; 0x803a46 <txTypeNow>
    2588:	6c 2f       	mov	r22, r28
    258a:	85 0f       	add	r24, r21
    258c:	91 1d       	adc	r25, r1
    258e:	50 dd       	rcall	.-1376   	; 0x2030 <ExtEERead>
            txPart += EEreadLength;
    2590:	80 91 06 39 	lds	r24, 0x3906	; 0x803906 <txPart.3949>
    2594:	8c 0f       	add	r24, r28
    2596:	80 93 06 39 	sts	0x3906, r24	; 0x803906 <txPart.3949>
            txBuffer[EEreadLength] = 0; //Add string terminator after piece to send to plug memory leak
    259a:	ec 2f       	mov	r30, r28
    259c:	f0 e0       	ldi	r31, 0x00	; 0
    259e:	e7 50       	subi	r30, 0x07	; 7
    25a0:	f5 4c       	sbci	r31, 0xC5	; 197
    25a2:	10 82       	st	Z, r1
            if ((txBuffer[0] == 0) && (EEreadLength)) txBuffer[0] = 0xDB; //Block character when data wrong.
    25a4:	80 91 f9 3a 	lds	r24, 0x3AF9	; 0x803af9 <txBuffer>
    25a8:	81 11       	cpse	r24, r1
    25aa:	03 c0       	rjmp	.+6      	; 0x25b2 <CheckSend+0xb6>
    25ac:	8b ed       	ldi	r24, 0xDB	; 219
    25ae:	80 93 f9 3a 	sts	0x3AF9, r24	; 0x803af9 <txBuffer>
            SerSend(&txBuffer[0]);
    25b2:	89 ef       	ldi	r24, 0xF9	; 249
    25b4:	9a e3       	ldi	r25, 0x3A	; 58
    25b6:	0e 94 08 09 	call	0x1210	; 0x1210 <SerSend>
        } else {
            txPart = 0;
            ++txAddrNow;
        }
    } else if (serTxDone) return 0; //All is sent!
    return 1; //Still sending, do not change the data in the tx variables
    25ba:	81 e0       	ldi	r24, 0x01	; 1
    25bc:	0b c0       	rjmp	.+22     	; 0x25d4 <CheckSend+0xd8>
            txPart += EEreadLength;
            txBuffer[EEreadLength] = 0; //Add string terminator after piece to send to plug memory leak
            if ((txBuffer[0] == 0) && (EEreadLength)) txBuffer[0] = 0xDB; //Block character when data wrong.
            SerSend(&txBuffer[0]);
        } else {
            txPart = 0;
    25be:	10 92 06 39 	sts	0x3906, r1	; 0x803906 <txPart.3949>
            ++txAddrNow;
    25c2:	2f 5f       	subi	r18, 0xFF	; 255
    25c4:	20 93 47 3a 	sts	0x3A47, r18	; 0x803a47 <txAddrNow>
    25c8:	f8 cf       	rjmp	.-16     	; 0x25ba <CheckSend+0xbe>
        }
    } else if (serTxDone) return 0; //All is sent!
    25ca:	90 91 0a 38 	lds	r25, 0x380A	; 0x80380a <serTxDone>
    25ce:	81 e0       	ldi	r24, 0x01	; 1
    25d0:	91 11       	cpse	r25, r1
    25d2:	80 e0       	ldi	r24, 0x00	; 0
    return 1; //Still sending, do not change the data in the tx variables
}
    25d4:	cf 91       	pop	r28
    25d6:	08 95       	ret

000025d8 <CheckResponse>:

//Send another part of the response and play the effect afterwards
uint8_t CheckResponse(){
    25d8:	cf 93       	push	r28
    25da:	df 93       	push	r29
    static uint8_t number = 0;
    if (responseList){
    25dc:	c0 91 1a 39 	lds	r28, 0x391A	; 0x80391a <responseList>
    25e0:	cc 23       	and	r28, r28
    25e2:	e9 f1       	breq	.+122    	; 0x265e <CheckResponse+0x86>
        --responseList;
    25e4:	c1 50       	subi	r28, 0x01	; 1
    25e6:	c0 93 1a 39 	sts	0x391A, r28	; 0x80391a <responseList>
        if (reactStr[0][number] == CURR_LOC) {
    25ea:	d0 91 05 39 	lds	r29, 0x3905	; 0x803905 <number.3953>
    25ee:	2d 2f       	mov	r18, r29
    25f0:	30 e0       	ldi	r19, 0x00	; 0
    25f2:	f9 01       	movw	r30, r18
    25f4:	ee 0f       	add	r30, r30
    25f6:	ff 1f       	adc	r31, r31
    25f8:	e5 5e       	subi	r30, 0xE5	; 229
    25fa:	f6 4c       	sbci	r31, 0xC6	; 198
    25fc:	80 81       	ld	r24, Z
    25fe:	91 81       	ldd	r25, Z+1	; 0x01
    2600:	80 3f       	cpi	r24, 0xF0	; 240
    2602:	4f ef       	ldi	r20, 0xFF	; 255
    2604:	94 07       	cpc	r25, r20
    2606:	51 f4       	brne	.+20     	; 0x261c <CheckResponse+0x44>
            PrepareSending(currObj.addrStr[NAME], currObj.lenStr[NAME], GAME);
    2608:	60 91 35 3a 	lds	r22, 0x3A35	; 0x803a35 <currObj+0x1a>
    260c:	70 91 36 3a 	lds	r23, 0x3A36	; 0x803a36 <currObj+0x1b>
    2610:	40 e0       	ldi	r20, 0x00	; 0
    2612:	80 91 27 3a 	lds	r24, 0x3A27	; 0x803a27 <currObj+0xc>
    2616:	90 91 28 3a 	lds	r25, 0x3A28	; 0x803a28 <currObj+0xd>
    261a:	0d c0       	rjmp	.+26     	; 0x2636 <CheckResponse+0x5e>
        } else {
            PrepareSending(reactStr[0][number], reactStr[1][number], reactStr[2][number]);
    261c:	d9 01       	movw	r26, r18
    261e:	aa 0f       	add	r26, r26
    2620:	bb 1f       	adc	r27, r27
    2622:	a5 56       	subi	r26, 0x65	; 101
    2624:	b6 4c       	sbci	r27, 0xC6	; 198
    2626:	22 0f       	add	r18, r18
    2628:	33 1f       	adc	r19, r19
    262a:	f9 01       	movw	r30, r18
    262c:	e5 5a       	subi	r30, 0xA5	; 165
    262e:	f6 4c       	sbci	r31, 0xC6	; 198
    2630:	60 81       	ld	r22, Z
    2632:	71 81       	ldd	r23, Z+1	; 0x01
    2634:	4c 91       	ld	r20, X
    2636:	53 dd       	rcall	.-1370   	; 0x20de <PrepareSending>
        }
        ++number;
    2638:	df 5f       	subi	r29, 0xFF	; 255
    263a:	d0 93 05 39 	sts	0x3905, r29	; 0x803905 <number.3953>

        if (responseList == 0) {
    263e:	c1 11       	cpse	r28, r1
    2640:	0d c0       	rjmp	.+26     	; 0x265c <CheckResponse+0x84>
            effect = currObj.byteField[EFFECTS];
    2642:	80 91 1f 3a 	lds	r24, 0x3A1F	; 0x803a1f <currObj+0x4>
    2646:	90 e0       	ldi	r25, 0x00	; 0
    2648:	80 93 3a 38 	sts	0x383A, r24	; 0x80383a <effect>
    264c:	90 93 3b 38 	sts	0x383B, r25	; 0x80383b <effect+0x1>
            RXCNT = 0;
    2650:	1d ba       	out	0x1d, r1	; 29
            serRxDone = 0;
    2652:	10 92 44 38 	sts	0x3844, r1	; 0x803844 <serRxDone>
            number = 0;
    2656:	10 92 05 39 	sts	0x3905, r1	; 0x803905 <number.3953>
    265a:	01 c0       	rjmp	.+2      	; 0x265e <CheckResponse+0x86>
            return 0;
        }
        return 1;
    265c:	c1 e0       	ldi	r28, 0x01	; 1
    }
    return 0;
}
    265e:	8c 2f       	mov	r24, r28
    2660:	df 91       	pop	r29
    2662:	cf 91       	pop	r28
    2664:	08 95       	ret

00002666 <CheckInput>:

//User input check (and validation)
uint8_t CheckInput(uint8_t *data){
    2666:	3f 92       	push	r3
    2668:	4f 92       	push	r4
    266a:	5f 92       	push	r5
    266c:	6f 92       	push	r6
    266e:	7f 92       	push	r7
    2670:	8f 92       	push	r8
    2672:	9f 92       	push	r9
    2674:	af 92       	push	r10
    2676:	bf 92       	push	r11
    2678:	cf 92       	push	r12
    267a:	df 92       	push	r13
    267c:	ef 92       	push	r14
    267e:	ff 92       	push	r15
    2680:	0f 93       	push	r16
    2682:	1f 93       	push	r17
    2684:	cf 93       	push	r28
    2686:	df 93       	push	r29
    2688:	cd b7       	in	r28, 0x3d	; 61
    268a:	de b7       	in	r29, 0x3e	; 62
    268c:	a1 97       	sbiw	r28, 0x21	; 33
    268e:	cd bf       	out	0x3d, r28	; 61
    2690:	de bf       	out	0x3e, r29	; 62
    2692:	8c 01       	movw	r16, r24
    
    //Load game data after reboot
    if (currDepth == 0xff) {
    2694:	80 91 2d 38 	lds	r24, 0x382D	; 0x80382d <currDepth>
    2698:	8f 3f       	cpi	r24, 0xFF	; 255
    269a:	49 f4       	brne	.+18     	; 0x26ae <CheckInput+0x48>
        //Start at first location
        PopulateObject(route[0], &currObj);
    269c:	6b e1       	ldi	r22, 0x1B	; 27
    269e:	7a e3       	ldi	r23, 0x3A	; 58
    26a0:	80 91 db 39 	lds	r24, 0x39DB	; 0x8039db <route>
    26a4:	90 91 dc 39 	lds	r25, 0x39DC	; 0x8039dc <route+0x1>
    26a8:	d3 dd       	rcall	.-1114   	; 0x2250 <PopulateObject>
        currDepth = 0;
    26aa:	10 92 2d 38 	sts	0x382D, r1	; 0x80382d <currDepth>
    }

    if (serRxDone){
    26ae:	80 91 44 38 	lds	r24, 0x3844	; 0x803844 <serRxDone>
    26b2:	88 23       	and	r24, r24
    26b4:	09 f4       	brne	.+2      	; 0x26b8 <CheckInput+0x52>
    26b6:	6e c2       	rjmp	.+1244   	; 0x2b94 <CheckInput+0x52e>

        //Special input requested from user by game
        if (specialInput[0]){
    26b8:	80 91 0a 39 	lds	r24, 0x390A	; 0x80390a <specialInput>
    26bc:	88 23       	and	r24, r24
    26be:	09 f4       	brne	.+2      	; 0x26c2 <CheckInput+0x5c>
    26c0:	57 c0       	rjmp	.+174    	; 0x2770 <CheckInput+0x10a>
            specialPassed = 0;
    26c2:	10 92 09 39 	sts	0x3909, r1	; 0x803909 <specialPassed>
            data[0] = 'a';
    26c6:	81 e6       	ldi	r24, 0x61	; 97
    26c8:	f8 01       	movw	r30, r16
    26ca:	80 83       	st	Z, r24
            
            //Normal code challenge
            if (StartsWith((uint8_t *)&serRx[0], &specialInput[0])) {
    26cc:	6a e0       	ldi	r22, 0x0A	; 10
    26ce:	79 e3       	ldi	r23, 0x39	; 57
    26d0:	85 e7       	ldi	r24, 0x75	; 117
    26d2:	9a e3       	ldi	r25, 0x3A	; 58
    26d4:	ea dc       	rcall	.-1580   	; 0x20aa <StartsWith>
    26d6:	f8 2e       	mov	r15, r24
    26d8:	88 23       	and	r24, r24
    26da:	21 f0       	breq	.+8      	; 0x26e4 <CheckInput+0x7e>
                specialPassed = 1;
    26dc:	81 e0       	ldi	r24, 0x01	; 1
    26de:	80 93 09 39 	sts	0x3909, r24	; 0x803909 <specialPassed>
    26e2:	04 c0       	rjmp	.+8      	; 0x26ec <CheckInput+0x86>
                //specialInput[0] = 0;
                //data[1] = 0;

            //Special challenge 1
            } else if ((specialInput[0] == '1')&&(specialInput[2] == 0)) {
    26e4:	80 91 0a 39 	lds	r24, 0x390A	; 0x80390a <specialInput>
    26e8:	81 33       	cpi	r24, 0x31	; 49
    26ea:	11 f0       	breq	.+4      	; 0x26f0 <CheckInput+0x8a>
                responseList = 32;
                return 1;
            }
        } 
        //Data received, but not any of the commands above
        return 0;
    26ec:	f1 2c       	mov	r15, r1
    26ee:	54 c2       	rjmp	.+1192   	; 0x2b98 <CheckInput+0x532>
                specialPassed = 1;
                //specialInput[0] = 0;
                //data[1] = 0;

            //Special challenge 1
            } else if ((specialInput[0] == '1')&&(specialInput[2] == 0)) {
    26f0:	80 91 0c 39 	lds	r24, 0x390C	; 0x80390c <specialInput+0x2>
    26f4:	81 11       	cpse	r24, r1
    26f6:	fa cf       	rjmp	.-12     	; 0x26ec <CheckInput+0x86>
                uint8_t inputLen = CleanInput((uint8_t *)&serRx[0]);
    26f8:	85 e7       	ldi	r24, 0x75	; 117
    26fa:	9a e3       	ldi	r25, 0x3A	; 58
    26fc:	dc de       	rcall	.-584    	; 0x24b6 <CleanInput>
                specialPassed = 2;
    26fe:	92 e0       	ldi	r25, 0x02	; 2
    2700:	90 93 09 39 	sts	0x3909, r25	; 0x803909 <specialPassed>
                data[1] = 0;
    2704:	f8 01       	movw	r30, r16
    2706:	11 82       	std	Z+1, r1	; 0x01

                if (inputLen >= 2) {
    2708:	82 30       	cpi	r24, 0x02	; 2
    270a:	80 f3       	brcs	.-32     	; 0x26ec <CheckInput+0x86>
                    if ((serRx[0] == '1')||(serRx[0] == '2')||(serRx[0] == '3')||(serRx[0] == '4')) {
    270c:	80 91 75 3a 	lds	r24, 0x3A75	; 0x803a75 <serRx>
    2710:	81 33       	cpi	r24, 0x31	; 49
    2712:	61 f0       	breq	.+24     	; 0x272c <CheckInput+0xc6>
    2714:	80 91 75 3a 	lds	r24, 0x3A75	; 0x803a75 <serRx>
    2718:	82 33       	cpi	r24, 0x32	; 50
    271a:	41 f0       	breq	.+16     	; 0x272c <CheckInput+0xc6>
    271c:	80 91 75 3a 	lds	r24, 0x3A75	; 0x803a75 <serRx>
    2720:	83 33       	cpi	r24, 0x33	; 51
    2722:	21 f0       	breq	.+8      	; 0x272c <CheckInput+0xc6>
    2724:	80 91 75 3a 	lds	r24, 0x3A75	; 0x803a75 <serRx>
    2728:	84 33       	cpi	r24, 0x34	; 52
    272a:	01 f7       	brne	.-64     	; 0x26ec <CheckInput+0x86>
                        serRx[1] |= 0x20;
    272c:	80 91 76 3a 	lds	r24, 0x3A76	; 0x803a76 <serRx+0x1>
    2730:	80 62       	ori	r24, 0x20	; 32
    2732:	80 93 76 3a 	sts	0x3A76, r24	; 0x803a76 <serRx+0x1>
                        if ((serRx[1] == 'a')||(serRx[1] == 'e')||(serRx[1] == 'f')||(serRx[1] == 'w')) {
    2736:	80 91 76 3a 	lds	r24, 0x3A76	; 0x803a76 <serRx+0x1>
    273a:	81 36       	cpi	r24, 0x61	; 97
    273c:	61 f0       	breq	.+24     	; 0x2756 <CheckInput+0xf0>
    273e:	80 91 76 3a 	lds	r24, 0x3A76	; 0x803a76 <serRx+0x1>
    2742:	85 36       	cpi	r24, 0x65	; 101
    2744:	41 f0       	breq	.+16     	; 0x2756 <CheckInput+0xf0>
    2746:	80 91 76 3a 	lds	r24, 0x3A76	; 0x803a76 <serRx+0x1>
    274a:	86 36       	cpi	r24, 0x66	; 102
    274c:	21 f0       	breq	.+8      	; 0x2756 <CheckInput+0xf0>
    274e:	80 91 76 3a 	lds	r24, 0x3A76	; 0x803a76 <serRx+0x1>
    2752:	87 37       	cpi	r24, 0x77	; 119
    2754:	59 f6       	brne	.-106    	; 0x26ec <CheckInput+0x86>
                            data[1] = specialInput[1]+0x11;
    2756:	80 91 0b 39 	lds	r24, 0x390B	; 0x80390b <specialInput+0x1>
    275a:	8f 5e       	subi	r24, 0xEF	; 239
    275c:	f8 01       	movw	r30, r16
    275e:	81 83       	std	Z+1, r24	; 0x01
                            data[2] = serRx[0];
    2760:	80 91 75 3a 	lds	r24, 0x3A75	; 0x803a75 <serRx>
    2764:	82 83       	std	Z+2, r24	; 0x02
                            data[3] = serRx[1];
    2766:	80 91 76 3a 	lds	r24, 0x3A76	; 0x803a76 <serRx+0x1>
    276a:	83 83       	std	Z+3, r24	; 0x03
                            data[4] = 0;
    276c:	14 82       	std	Z+4, r1	; 0x04
    276e:	14 c2       	rjmp	.+1064   	; 0x2b98 <CheckInput+0x532>
        
        //Normal input
        } else {

            //Change status bit
            if ((serRx[0] == '#')&&(RXCNT == 6)){
    2770:	80 91 75 3a 	lds	r24, 0x3A75	; 0x803a75 <serRx>
    2774:	83 32       	cpi	r24, 0x23	; 35
    2776:	89 f5       	brne	.+98     	; 0x27da <CheckInput+0x174>
    2778:	8d b3       	in	r24, 0x1d	; 29
    277a:	86 30       	cpi	r24, 0x06	; 6
    277c:	71 f5       	brne	.+92     	; 0x27da <CheckInput+0x174>
    277e:	81 e0       	ldi	r24, 0x01	; 1
    2780:	90 e0       	ldi	r25, 0x00	; 0
    2782:	10 e0       	ldi	r17, 0x00	; 0
                uint8_t bitNr = 0;

                for (uint8_t x=1; x<4; ++x) {
                    serRx[x] -= '0';
    2784:	fc 01       	movw	r30, r24
    2786:	eb 58       	subi	r30, 0x8B	; 139
    2788:	f5 4c       	sbci	r31, 0xC5	; 197
    278a:	20 81       	ld	r18, Z
    278c:	20 53       	subi	r18, 0x30	; 48
    278e:	20 83       	st	Z, r18
                    bitNr *= 10;
    2790:	11 0f       	add	r17, r17
    2792:	21 2f       	mov	r18, r17
    2794:	22 0f       	add	r18, r18
    2796:	22 0f       	add	r18, r18
    2798:	12 0f       	add	r17, r18
                    if (serRx[1] > 2) break;
    279a:	20 91 76 3a 	lds	r18, 0x3A76	; 0x803a76 <serRx+0x1>
    279e:	23 30       	cpi	r18, 0x03	; 3
    27a0:	48 f4       	brcc	.+18     	; 0x27b4 <CheckInput+0x14e>
                    if (serRx[x] < 10) {
    27a2:	20 81       	ld	r18, Z
    27a4:	2a 30       	cpi	r18, 0x0A	; 10
    27a6:	b8 f4       	brcc	.+46     	; 0x27d6 <CheckInput+0x170>
                        bitNr += serRx[x];
    27a8:	20 81       	ld	r18, Z
    27aa:	12 0f       	add	r17, r18
    27ac:	01 96       	adiw	r24, 0x01	; 1

            //Change status bit
            if ((serRx[0] == '#')&&(RXCNT == 6)){
                uint8_t bitNr = 0;

                for (uint8_t x=1; x<4; ++x) {
    27ae:	84 30       	cpi	r24, 0x04	; 4
    27b0:	91 05       	cpc	r25, r1
    27b2:	41 f7       	brne	.-48     	; 0x2784 <CheckInput+0x11e>
                        continue;
                    }
                    bitNr = 0;
                    break;
                }
                if ((bitNr)&&(bitNr!=128)) {
    27b4:	81 2f       	mov	r24, r17
    27b6:	8f 77       	andi	r24, 0x7F	; 127
    27b8:	71 f0       	breq	.+28     	; 0x27d6 <CheckInput+0x170>
                    if (Cheat(0xff-bitNr, serRx[4]<<8|serRx[5])) UpdateState(bitNr);
    27ba:	80 91 79 3a 	lds	r24, 0x3A79	; 0x803a79 <serRx+0x4>
    27be:	60 91 7a 3a 	lds	r22, 0x3A7A	; 0x803a7a <serRx+0x5>
    27c2:	70 e0       	ldi	r23, 0x00	; 0
    27c4:	78 2b       	or	r23, r24
    27c6:	81 2f       	mov	r24, r17
    27c8:	80 95       	com	r24
    27ca:	cf db       	rcall	.-2146   	; 0x1f6a <Cheat>
    27cc:	88 23       	and	r24, r24
    27ce:	19 f0       	breq	.+6      	; 0x27d6 <CheckInput+0x170>
    27d0:	81 2f       	mov	r24, r17
    27d2:	0e 94 9a 0a 	call	0x1534	; 0x1534 <UpdateState>
                }
                responseList = SetStandardResponse(0);
    27d6:	80 e0       	ldi	r24, 0x00	; 0
    27d8:	50 c0       	rjmp	.+160    	; 0x287a <CheckInput+0x214>
    27da:	d8 01       	movw	r26, r16
    27dc:	80 e0       	ldi	r24, 0x00	; 0
    27de:	90 e0       	ldi	r25, 0x00	; 0
                return 1;            
            }
            
            //Read up to the \0 character and convert to lower case.
            for (uint8_t x=0; x<RXLEN; ++x){
                if ((serRx[x]<'A')||(serRx[x]>'Z')) data[x]=serRx[x]; else data[x]=serRx[x]|0x20;
    27e0:	fc 01       	movw	r30, r24
    27e2:	eb 58       	subi	r30, 0x8B	; 139
    27e4:	f5 4c       	sbci	r31, 0xC5	; 197
    27e6:	20 81       	ld	r18, Z
    27e8:	21 34       	cpi	r18, 0x41	; 65
    27ea:	18 f0       	brcs	.+6      	; 0x27f2 <CheckInput+0x18c>
    27ec:	20 81       	ld	r18, Z
    27ee:	2b 35       	cpi	r18, 0x5B	; 91
    27f0:	10 f0       	brcs	.+4      	; 0x27f6 <CheckInput+0x190>
    27f2:	20 81       	ld	r18, Z
    27f4:	02 c0       	rjmp	.+4      	; 0x27fa <CheckInput+0x194>
    27f6:	20 81       	ld	r18, Z
    27f8:	20 62       	ori	r18, 0x20	; 32
    27fa:	2c 93       	st	X, r18
                if (serRx[x] == 0) {
    27fc:	20 81       	ld	r18, Z
    27fe:	21 11       	cpse	r18, r1
    2800:	05 c0       	rjmp	.+10     	; 0x280c <CheckInput+0x1a6>
                    data[x] = 0;
    2802:	f8 01       	movw	r30, r16
    2804:	e8 0f       	add	r30, r24
    2806:	f1 1d       	adc	r31, r1
    2808:	10 82       	st	Z, r1
                    break;
    280a:	05 c0       	rjmp	.+10     	; 0x2816 <CheckInput+0x1b0>
    280c:	01 96       	adiw	r24, 0x01	; 1
    280e:	11 96       	adiw	r26, 0x01	; 1
                responseList = SetStandardResponse(0);
                return 1;            
            }
            
            //Read up to the \0 character and convert to lower case.
            for (uint8_t x=0; x<RXLEN; ++x){
    2810:	81 34       	cpi	r24, 0x41	; 65
    2812:	91 05       	cpc	r25, r1
    2814:	29 f7       	brne	.-54     	; 0x27e0 <CheckInput+0x17a>
                    break;
                }
            }

            //No text
            if (serRx[0] == 0){
    2816:	80 91 75 3a 	lds	r24, 0x3A75	; 0x803a75 <serRx>
                data[0] = 0;
    281a:	f8 01       	movw	r30, r16
                    break;
                }
            }

            //No text
            if (serRx[0] == 0){
    281c:	81 11       	cpse	r24, r1
    281e:	05 c0       	rjmp	.+10     	; 0x282a <CheckInput+0x1c4>
                data[0] = 0;
    2820:	10 82       	st	Z, r1
                RXCNT = 0;
    2822:	1d ba       	out	0x1d, r1	; 29
                serRxDone = 0;
    2824:	10 92 44 38 	sts	0x3844, r1	; 0x803844 <serRxDone>
    2828:	b5 c1       	rjmp	.+874    	; 0x2b94 <CheckInput+0x52e>
                return 1;
            }

            //Help text
            if ((data[0] == '?')||(data[0] == 'h')){
    282a:	80 81       	ld	r24, Z
    282c:	8f 33       	cpi	r24, 0x3F	; 63
    282e:	11 f0       	breq	.+4      	; 0x2834 <CheckInput+0x1ce>
    2830:	88 36       	cpi	r24, 0x68	; 104
    2832:	39 f5       	brne	.+78     	; 0x2882 <CheckInput+0x21c>
    return 0;
}

//
void SetResponse(uint8_t number, uint16_t address, uint16_t length, uint8_t type){
    reactStr[0][number]=address;
    2834:	8b e5       	ldi	r24, 0x5B	; 91
    2836:	9a e7       	ldi	r25, 0x7A	; 122
    2838:	80 93 1b 39 	sts	0x391B, r24	; 0x80391b <reactStr>
    283c:	90 93 1c 39 	sts	0x391C, r25	; 0x80391c <reactStr+0x1>
    reactStr[1][number]=length;
    2840:	84 e0       	ldi	r24, 0x04	; 4
    2842:	90 e0       	ldi	r25, 0x00	; 0
    2844:	80 93 5b 39 	sts	0x395B, r24	; 0x80395b <reactStr+0x40>
    2848:	90 93 5c 39 	sts	0x395C, r25	; 0x80395c <reactStr+0x41>
    reactStr[2][number]=type;
    284c:	81 e0       	ldi	r24, 0x01	; 1
    284e:	90 e0       	ldi	r25, 0x00	; 0
    2850:	80 93 9b 39 	sts	0x399B, r24	; 0x80399b <reactStr+0x80>
    2854:	90 93 9c 39 	sts	0x399C, r25	; 0x80399c <reactStr+0x81>
    return 0;
}

//
void SetResponse(uint8_t number, uint16_t address, uint16_t length, uint8_t type){
    reactStr[0][number]=address;
    2858:	23 e9       	ldi	r18, 0x93	; 147
    285a:	3b e7       	ldi	r19, 0x7B	; 123
    285c:	20 93 1d 39 	sts	0x391D, r18	; 0x80391d <reactStr+0x2>
    2860:	30 93 1e 39 	sts	0x391E, r19	; 0x80391e <reactStr+0x3>
    reactStr[1][number]=length;
    2864:	2d e6       	ldi	r18, 0x6D	; 109
    2866:	34 e0       	ldi	r19, 0x04	; 4
    2868:	20 93 5d 39 	sts	0x395D, r18	; 0x80395d <reactStr+0x42>
    286c:	30 93 5e 39 	sts	0x395E, r19	; 0x80395e <reactStr+0x43>
    reactStr[2][number]=type;
    2870:	80 93 9d 39 	sts	0x399D, r24	; 0x80399d <reactStr+0x82>
    2874:	90 93 9e 39 	sts	0x399E, r25	; 0x80399e <reactStr+0x83>

            //Help text
            if ((data[0] == '?')||(data[0] == 'h')){
                SetResponse(0, A_LF, 4, TEASER);
                SetResponse(1, A_HELP, L_HELP, TEASER);
                responseList = SetStandardResponse(2);
    2878:	82 e0       	ldi	r24, 0x02	; 2
    287a:	6e dc       	rcall	.-1828   	; 0x2158 <SetStandardResponse>
    287c:	80 93 1a 39 	sts	0x391A, r24	; 0x80391a <responseList>
    2880:	89 c1       	rjmp	.+786    	; 0x2b94 <CheckInput+0x52e>
                return 1;
            }        
        
            //Alphabet text
            if (data[0] == 'a'){
    2882:	81 36       	cpi	r24, 0x61	; 97
    2884:	d9 f4       	brne	.+54     	; 0x28bc <CheckInput+0x256>
    return 0;
}

//
void SetResponse(uint8_t number, uint16_t address, uint16_t length, uint8_t type){
    reactStr[0][number]=address;
    2886:	8b e5       	ldi	r24, 0x5B	; 91
    2888:	9a e7       	ldi	r25, 0x7A	; 122
    288a:	80 93 1b 39 	sts	0x391B, r24	; 0x80391b <reactStr>
    288e:	90 93 1c 39 	sts	0x391C, r25	; 0x80391c <reactStr+0x1>
    reactStr[1][number]=length;
    2892:	84 e0       	ldi	r24, 0x04	; 4
    2894:	90 e0       	ldi	r25, 0x00	; 0
    2896:	80 93 5b 39 	sts	0x395B, r24	; 0x80395b <reactStr+0x40>
    289a:	90 93 5c 39 	sts	0x395C, r25	; 0x80395c <reactStr+0x41>
    reactStr[2][number]=type;
    289e:	81 e0       	ldi	r24, 0x01	; 1
    28a0:	90 e0       	ldi	r25, 0x00	; 0
    28a2:	80 93 9b 39 	sts	0x399B, r24	; 0x80399b <reactStr+0x80>
    28a6:	90 93 9c 39 	sts	0x399C, r25	; 0x80399c <reactStr+0x81>
    return 0;
}

//
void SetResponse(uint8_t number, uint16_t address, uint16_t length, uint8_t type){
    reactStr[0][number]=address;
    28aa:	2e e6       	ldi	r18, 0x6E	; 110
    28ac:	3a e7       	ldi	r19, 0x7A	; 122
    28ae:	20 93 1d 39 	sts	0x391D, r18	; 0x80391d <reactStr+0x2>
    28b2:	30 93 1e 39 	sts	0x391E, r19	; 0x80391e <reactStr+0x3>
    reactStr[1][number]=length;
    28b6:	25 e2       	ldi	r18, 0x25	; 37
    28b8:	31 e0       	ldi	r19, 0x01	; 1
    28ba:	d6 cf       	rjmp	.-84     	; 0x2868 <CheckInput+0x202>
                responseList = SetStandardResponse(2);
                return 1;
            }

            //Whoami text
            if (data[0] == 'w'){
    28bc:	87 37       	cpi	r24, 0x77	; 119
    28be:	09 f0       	breq	.+2      	; 0x28c2 <CheckInput+0x25c>
    28c0:	6e c0       	rjmp	.+220    	; 0x299e <CheckInput+0x338>
    return 0;
}

//
void SetResponse(uint8_t number, uint16_t address, uint16_t length, uint8_t type){
    reactStr[0][number]=address;
    28c2:	8b e5       	ldi	r24, 0x5B	; 91
    28c4:	9a e7       	ldi	r25, 0x7A	; 122
    28c6:	80 93 1b 39 	sts	0x391B, r24	; 0x80391b <reactStr>
    28ca:	90 93 1c 39 	sts	0x391C, r25	; 0x80391c <reactStr+0x1>
    reactStr[1][number]=length;
    28ce:	84 e0       	ldi	r24, 0x04	; 4
    28d0:	90 e0       	ldi	r25, 0x00	; 0
    28d2:	80 93 5b 39 	sts	0x395B, r24	; 0x80395b <reactStr+0x40>
    28d6:	90 93 5c 39 	sts	0x395C, r25	; 0x80395c <reactStr+0x41>
    reactStr[2][number]=type;
    28da:	21 e0       	ldi	r18, 0x01	; 1
    28dc:	30 e0       	ldi	r19, 0x00	; 0
    28de:	20 93 9b 39 	sts	0x399B, r18	; 0x80399b <reactStr+0x80>
    28e2:	30 93 9c 39 	sts	0x399C, r19	; 0x80399c <reactStr+0x81>
    return 0;
}

//
void SetResponse(uint8_t number, uint16_t address, uint16_t length, uint8_t type){
    reactStr[0][number]=address;
    28e6:	8a ec       	ldi	r24, 0xCA	; 202
    28e8:	96 e7       	ldi	r25, 0x76	; 118
    28ea:	80 93 1d 39 	sts	0x391D, r24	; 0x80391d <reactStr+0x2>
    28ee:	90 93 1e 39 	sts	0x391E, r25	; 0x80391e <reactStr+0x3>
    reactStr[1][number]=length;
    28f2:	82 e1       	ldi	r24, 0x12	; 18
    28f4:	90 e0       	ldi	r25, 0x00	; 0
    28f6:	80 93 5d 39 	sts	0x395D, r24	; 0x80395d <reactStr+0x42>
    28fa:	90 93 5e 39 	sts	0x395E, r25	; 0x80395e <reactStr+0x43>
    reactStr[2][number]=type;
    28fe:	20 93 9d 39 	sts	0x399D, r18	; 0x80399d <reactStr+0x82>
    2902:	30 93 9e 39 	sts	0x399E, r19	; 0x80399e <reactStr+0x83>

            //Whoami text
            if (data[0] == 'w'){
                SetResponse(0, A_LF, 4, TEASER);
                SetResponse(1, A_HELLO, L_HELLO, TEASER);
                if (whoami == 1) {
    2906:	80 91 3d 38 	lds	r24, 0x383D	; 0x80383d <whoami>
    290a:	81 30       	cpi	r24, 0x01	; 1
    290c:	19 f4       	brne	.+6      	; 0x2914 <CheckInput+0x2ae>
    return 0;
}

//
void SetResponse(uint8_t number, uint16_t address, uint16_t length, uint8_t type){
    reactStr[0][number]=address;
    290e:	84 ec       	ldi	r24, 0xC4	; 196
    2910:	96 e7       	ldi	r25, 0x76	; 118
    2912:	0f c0       	rjmp	.+30     	; 0x2932 <CheckInput+0x2cc>
            if (data[0] == 'w'){
                SetResponse(0, A_LF, 4, TEASER);
                SetResponse(1, A_HELLO, L_HELLO, TEASER);
                if (whoami == 1) {
                    SetResponse(2, A_ANUBIS, L_ANUBIS, TEASER);
                } else if (whoami == 2) {
    2914:	82 30       	cpi	r24, 0x02	; 2
    2916:	49 f4       	brne	.+18     	; 0x292a <CheckInput+0x2c4>
    return 0;
}

//
void SetResponse(uint8_t number, uint16_t address, uint16_t length, uint8_t type){
    reactStr[0][number]=address;
    2918:	81 ec       	ldi	r24, 0xC1	; 193
    291a:	96 e7       	ldi	r25, 0x76	; 118
    291c:	80 93 1f 39 	sts	0x391F, r24	; 0x80391f <reactStr+0x4>
    2920:	90 93 20 39 	sts	0x3920, r25	; 0x803920 <reactStr+0x5>
    reactStr[1][number]=length;
    2924:	83 e0       	ldi	r24, 0x03	; 3
    2926:	90 e0       	ldi	r25, 0x00	; 0
    2928:	1e c0       	rjmp	.+60     	; 0x2966 <CheckInput+0x300>
                SetResponse(1, A_HELLO, L_HELLO, TEASER);
                if (whoami == 1) {
                    SetResponse(2, A_ANUBIS, L_ANUBIS, TEASER);
                } else if (whoami == 2) {
                    SetResponse(2, A_BES, L_BES, TEASER);
                } else if (whoami == 3) {
    292a:	83 30       	cpi	r24, 0x03	; 3
    292c:	49 f4       	brne	.+18     	; 0x2940 <CheckInput+0x2da>
    return 0;
}

//
void SetResponse(uint8_t number, uint16_t address, uint16_t length, uint8_t type){
    reactStr[0][number]=address;
    292e:	8b eb       	ldi	r24, 0xBB	; 187
    2930:	96 e7       	ldi	r25, 0x76	; 118
    2932:	80 93 1f 39 	sts	0x391F, r24	; 0x80391f <reactStr+0x4>
    2936:	90 93 20 39 	sts	0x3920, r25	; 0x803920 <reactStr+0x5>
    reactStr[1][number]=length;
    293a:	86 e0       	ldi	r24, 0x06	; 6
    293c:	90 e0       	ldi	r25, 0x00	; 0
    293e:	13 c0       	rjmp	.+38     	; 0x2966 <CheckInput+0x300>
                    SetResponse(2, A_ANUBIS, L_ANUBIS, TEASER);
                } else if (whoami == 2) {
                    SetResponse(2, A_BES, L_BES, TEASER);
                } else if (whoami == 3) {
                    SetResponse(2, A_KHONSU, L_KHONSU, TEASER);
                } else if (whoami == 4) {
    2940:	84 30       	cpi	r24, 0x04	; 4
    2942:	49 f4       	brne	.+18     	; 0x2956 <CheckInput+0x2f0>
    return 0;
}

//
void SetResponse(uint8_t number, uint16_t address, uint16_t length, uint8_t type){
    reactStr[0][number]=address;
    2944:	86 eb       	ldi	r24, 0xB6	; 182
    2946:	96 e7       	ldi	r25, 0x76	; 118
    2948:	80 93 1f 39 	sts	0x391F, r24	; 0x80391f <reactStr+0x4>
    294c:	90 93 20 39 	sts	0x3920, r25	; 0x803920 <reactStr+0x5>
    reactStr[1][number]=length;
    2950:	85 e0       	ldi	r24, 0x05	; 5
    2952:	90 e0       	ldi	r25, 0x00	; 0
    2954:	08 c0       	rjmp	.+16     	; 0x2966 <CheckInput+0x300>
    return 0;
}

//
void SetResponse(uint8_t number, uint16_t address, uint16_t length, uint8_t type){
    reactStr[0][number]=address;
    2956:	8f e3       	ldi	r24, 0x3F	; 63
    2958:	96 e7       	ldi	r25, 0x76	; 118
    295a:	80 93 1f 39 	sts	0x391F, r24	; 0x80391f <reactStr+0x4>
    295e:	90 93 20 39 	sts	0x3920, r25	; 0x803920 <reactStr+0x5>
    reactStr[1][number]=length;
    2962:	82 e4       	ldi	r24, 0x42	; 66
    2964:	90 e0       	ldi	r25, 0x00	; 0
    2966:	80 93 5f 39 	sts	0x395F, r24	; 0x80395f <reactStr+0x44>
    296a:	90 93 60 39 	sts	0x3960, r25	; 0x803960 <reactStr+0x45>
    reactStr[2][number]=type;
    296e:	20 93 9f 39 	sts	0x399F, r18	; 0x80399f <reactStr+0x84>
    2972:	30 93 a0 39 	sts	0x39A0, r19	; 0x8039a0 <reactStr+0x85>
    return 0;
}

//
void SetResponse(uint8_t number, uint16_t address, uint16_t length, uint8_t type){
    reactStr[0][number]=address;
    2976:	8c e9       	ldi	r24, 0x9C	; 156
    2978:	96 e7       	ldi	r25, 0x76	; 118
    297a:	80 93 21 39 	sts	0x3921, r24	; 0x803921 <reactStr+0x6>
    297e:	90 93 22 39 	sts	0x3922, r25	; 0x803922 <reactStr+0x7>
    reactStr[1][number]=length;
    2982:	8a e1       	ldi	r24, 0x1A	; 26
    2984:	90 e0       	ldi	r25, 0x00	; 0
    2986:	80 93 61 39 	sts	0x3961, r24	; 0x803961 <reactStr+0x46>
    298a:	90 93 62 39 	sts	0x3962, r25	; 0x803962 <reactStr+0x47>
    reactStr[2][number]=type;
    298e:	81 e0       	ldi	r24, 0x01	; 1
    2990:	90 e0       	ldi	r25, 0x00	; 0
    2992:	80 93 a1 39 	sts	0x39A1, r24	; 0x8039a1 <reactStr+0x86>
    2996:	90 93 a2 39 	sts	0x39A2, r25	; 0x8039a2 <reactStr+0x87>
                    SetResponse(2, A_THOTH, L_THOTH, TEASER);
                } else {
                    SetResponse(2, A_ERROR, L_ERROR, TEASER);
                }
                SetResponse(3, A_PLEASED, L_PLEASED, TEASER);
                responseList = SetStandardResponse(4);
    299a:	84 e0       	ldi	r24, 0x04	; 4
    299c:	6e cf       	rjmp	.-292    	; 0x287a <CheckInput+0x214>
                return 1;
            }

            //Quit text
            if (data[0] == 'q'){
    299e:	81 37       	cpi	r24, 0x71	; 113
    29a0:	d9 f4       	brne	.+54     	; 0x29d8 <CheckInput+0x372>
    return 0;
}

//
void SetResponse(uint8_t number, uint16_t address, uint16_t length, uint8_t type){
    reactStr[0][number]=address;
    29a2:	8b e5       	ldi	r24, 0x5B	; 91
    29a4:	9a e7       	ldi	r25, 0x7A	; 122
    29a6:	80 93 1b 39 	sts	0x391B, r24	; 0x80391b <reactStr>
    29aa:	90 93 1c 39 	sts	0x391C, r25	; 0x80391c <reactStr+0x1>
    reactStr[1][number]=length;
    29ae:	84 e0       	ldi	r24, 0x04	; 4
    29b0:	90 e0       	ldi	r25, 0x00	; 0
    29b2:	80 93 5b 39 	sts	0x395B, r24	; 0x80395b <reactStr+0x40>
    29b6:	90 93 5c 39 	sts	0x395C, r25	; 0x80395c <reactStr+0x41>
    reactStr[2][number]=type;
    29ba:	81 e0       	ldi	r24, 0x01	; 1
    29bc:	90 e0       	ldi	r25, 0x00	; 0
    29be:	80 93 9b 39 	sts	0x399B, r24	; 0x80399b <reactStr+0x80>
    29c2:	90 93 9c 39 	sts	0x399C, r25	; 0x80399c <reactStr+0x81>
    return 0;
}

//
void SetResponse(uint8_t number, uint16_t address, uint16_t length, uint8_t type){
    reactStr[0][number]=address;
    29c6:	22 e0       	ldi	r18, 0x02	; 2
    29c8:	3a e7       	ldi	r19, 0x7A	; 122
    29ca:	20 93 1d 39 	sts	0x391D, r18	; 0x80391d <reactStr+0x2>
    29ce:	30 93 1e 39 	sts	0x391E, r19	; 0x80391e <reactStr+0x3>
    reactStr[1][number]=length;
    29d2:	25 e5       	ldi	r18, 0x55	; 85
    29d4:	30 e0       	ldi	r19, 0x00	; 0
                responseList = SetStandardResponse(2);
                return 1;
            }

            //Fake cheat = reset badge!
            if (StartsWith(&data[0], "iddqd")){
    29d6:	48 cf       	rjmp	.-368    	; 0x2868 <CheckInput+0x202>
    29d8:	66 e0       	ldi	r22, 0x06	; 6
    29da:	7f eb       	ldi	r23, 0xBF	; 191
    29dc:	c8 01       	movw	r24, r16
    29de:	65 db       	rcall	.-2358   	; 0x20aa <StartsWith>
    29e0:	88 23       	and	r24, r24
    29e2:	f9 f0       	breq	.+62     	; 0x2a22 <CheckInput+0x3bc>
    29e4:	1e e6       	ldi	r17, 0x6E	; 110
            
                //Reset game data by wiping the UUID bits
                for (uint8_t x=0; x<4; ++x){
                    WriteStatusBit(110+x, 0);
    29e6:	60 e0       	ldi	r22, 0x00	; 0
    29e8:	81 2f       	mov	r24, r17
    29ea:	0e 94 80 0a 	call	0x1500	; 0x1500 <WriteStatusBit>
    29ee:	1f 5f       	subi	r17, 0xFF	; 255

            //Fake cheat = reset badge!
            if (StartsWith(&data[0], "iddqd")){
            
                //Reset game data by wiping the UUID bits
                for (uint8_t x=0; x<4; ++x){
    29f0:	12 37       	cpi	r17, 0x72	; 114
    29f2:	c9 f7       	brne	.-14     	; 0x29e6 <CheckInput+0x380>
                    WriteStatusBit(110+x, 0);
                }
                SaveGameState();
    29f4:	0e 94 f9 09 	call	0x13f2	; 0x13f2 <SaveGameState>

                uint8_t cheat[] = "Cheater! Contact badge team... ";
    29f8:	80 e2       	ldi	r24, 0x20	; 32
    29fa:	e9 e4       	ldi	r30, 0x49	; 73
    29fc:	ff eb       	ldi	r31, 0xBF	; 191
    29fe:	de 01       	movw	r26, r28
    2a00:	11 96       	adiw	r26, 0x01	; 1
    2a02:	01 90       	ld	r0, Z+
    2a04:	0d 92       	st	X+, r0
    2a06:	8a 95       	dec	r24
    2a08:	e1 f7       	brne	.-8      	; 0x2a02 <CheckInput+0x39c>
                SerSpeed(60);
    2a0a:	8c e3       	ldi	r24, 0x3C	; 60
    2a0c:	0e 94 19 09 	call	0x1232	; 0x1232 <SerSpeed>
                while(1){
                    if (serTxDone) SerSend(&cheat[0]);
    2a10:	80 91 0a 38 	lds	r24, 0x380A	; 0x80380a <serTxDone>
    2a14:	88 23       	and	r24, r24
    2a16:	e1 f3       	breq	.-8      	; 0x2a10 <CheckInput+0x3aa>
    2a18:	ce 01       	movw	r24, r28
    2a1a:	01 96       	adiw	r24, 0x01	; 1
    2a1c:	0e 94 08 09 	call	0x1210	; 0x1210 <SerSend>
                }
            }
            
            //Cheat reset (Quote from: Donald E. Westlake)
            if (StartsWith(&data[0], "the trouble with real life is, there's no reset button")){
    2a20:	f7 cf       	rjmp	.-18     	; 0x2a10 <CheckInput+0x3aa>
    2a22:	6c e0       	ldi	r22, 0x0C	; 12
    2a24:	7f eb       	ldi	r23, 0xBF	; 191
    2a26:	c8 01       	movw	r24, r16
    2a28:	40 db       	rcall	.-2432   	; 0x20aa <StartsWith>
    2a2a:	88 23       	and	r24, r24
    2a2c:	61 f1       	breq	.+88     	; 0x2a86 <CheckInput+0x420>
                
                //Reset cheat data by resetting the EEPROM bytes
                uint8_t empty=0xff;
    2a2e:	8f ef       	ldi	r24, 0xFF	; 255
    2a30:	89 a3       	std	Y+33, r24	; 0x21
    2a32:	18 e1       	ldi	r17, 0x18	; 24
                for (uint8_t x=0; x<MAX_CHEATS; ++x){
                    EEWrite(CHEATS+x, &empty, 1);
    2a34:	41 e0       	ldi	r20, 0x01	; 1
    2a36:	be 01       	movw	r22, r28
    2a38:	6f 5d       	subi	r22, 0xDF	; 223
    2a3a:	7f 4f       	sbci	r23, 0xFF	; 255
    2a3c:	81 2f       	mov	r24, r17
    2a3e:	0e 94 e0 08 	call	0x11c0	; 0x11c0 <EEWrite>
    2a42:	1f 5f       	subi	r17, 0xFF	; 255
            //Cheat reset (Quote from: Donald E. Westlake)
            if (StartsWith(&data[0], "the trouble with real life is, there's no reset button")){
                
                //Reset cheat data by resetting the EEPROM bytes
                uint8_t empty=0xff;
                for (uint8_t x=0; x<MAX_CHEATS; ++x){
    2a44:	10 32       	cpi	r17, 0x20	; 32
    2a46:	b1 f7       	brne	.-20     	; 0x2a34 <CheckInput+0x3ce>
    2a48:	1e e6       	ldi	r17, 0x6E	; 110
                    EEWrite(CHEATS+x, &empty, 1);
                }
                //Reset game data by wiping the UUID bits
                for (uint8_t x=0; x<4; ++x){
                    WriteStatusBit(110+x, 0);
    2a4a:	60 e0       	ldi	r22, 0x00	; 0
    2a4c:	81 2f       	mov	r24, r17
    2a4e:	0e 94 80 0a 	call	0x1500	; 0x1500 <WriteStatusBit>
    2a52:	1f 5f       	subi	r17, 0xFF	; 255
                uint8_t empty=0xff;
                for (uint8_t x=0; x<MAX_CHEATS; ++x){
                    EEWrite(CHEATS+x, &empty, 1);
                }
                //Reset game data by wiping the UUID bits
                for (uint8_t x=0; x<4; ++x){
    2a54:	12 37       	cpi	r17, 0x72	; 114
    2a56:	c9 f7       	brne	.-14     	; 0x2a4a <CheckInput+0x3e4>
                    WriteStatusBit(110+x, 0);
                }
                
                SaveGameState();
    2a58:	0e 94 f9 09 	call	0x13f2	; 0x13f2 <SaveGameState>

                uint8_t cheat[] = "Reset please! ";
    2a5c:	8f e0       	ldi	r24, 0x0F	; 15
    2a5e:	e9 e6       	ldi	r30, 0x69	; 105
    2a60:	ff eb       	ldi	r31, 0xBF	; 191
    2a62:	de 01       	movw	r26, r28
    2a64:	11 96       	adiw	r26, 0x01	; 1
    2a66:	01 90       	ld	r0, Z+
    2a68:	0d 92       	st	X+, r0
    2a6a:	8a 95       	dec	r24
    2a6c:	e1 f7       	brne	.-8      	; 0x2a66 <CheckInput+0x400>
                SerSpeed(60);
    2a6e:	8c e3       	ldi	r24, 0x3C	; 60
    2a70:	0e 94 19 09 	call	0x1232	; 0x1232 <SerSpeed>
                while(1){
                    if (serTxDone) SerSend(&cheat[0]);
    2a74:	80 91 0a 38 	lds	r24, 0x380A	; 0x80380a <serTxDone>
    2a78:	88 23       	and	r24, r24
    2a7a:	e1 f3       	breq	.-8      	; 0x2a74 <CheckInput+0x40e>
    2a7c:	ce 01       	movw	r24, r28
    2a7e:	01 96       	adiw	r24, 0x01	; 1
    2a80:	0e 94 08 09 	call	0x1210	; 0x1210 <SerSend>
                }
            }
            if (StartsWith(&data[0], "cheat")){
    2a84:	f7 cf       	rjmp	.-18     	; 0x2a74 <CheckInput+0x40e>
    2a86:	63 e4       	ldi	r22, 0x43	; 67
    2a88:	7f eb       	ldi	r23, 0xBF	; 191
    2a8a:	c8 01       	movw	r24, r16
    2a8c:	0e db       	rcall	.-2532   	; 0x20aa <StartsWith>
    2a8e:	88 23       	and	r24, r24
    2a90:	09 f4       	brne	.+2      	; 0x2a94 <CheckInput+0x42e>
    2a92:	2c ce       	rjmp	.-936    	; 0x26ec <CheckInput+0x86>
    2a94:	8b e1       	ldi	r24, 0x1B	; 27
    2a96:	c8 2e       	mov	r12, r24
    2a98:	89 e3       	ldi	r24, 0x39	; 57
    2a9a:	d8 2e       	mov	r13, r24
    2a9c:	9b e5       	ldi	r25, 0x5B	; 91
    2a9e:	e9 2e       	mov	r14, r25
    2aa0:	99 e3       	ldi	r25, 0x39	; 57
    2aa2:	f9 2e       	mov	r15, r25
    2aa4:	0b e9       	ldi	r16, 0x9B	; 155
    2aa6:	19 e3       	ldi	r17, 0x39	; 57
    2aa8:	28 e1       	ldi	r18, 0x18	; 24
    2aaa:	32 2e       	mov	r3, r18
    return 0;
}

//
void SetResponse(uint8_t number, uint16_t address, uint16_t length, uint8_t type){
    reactStr[0][number]=address;
    2aac:	3a ed       	ldi	r19, 0xDA	; 218
    2aae:	63 2e       	mov	r6, r19
    2ab0:	34 e7       	ldi	r19, 0x74	; 116
    2ab2:	73 2e       	mov	r7, r19
    reactStr[1][number]=length;
    2ab4:	42 e0       	ldi	r20, 0x02	; 2
    2ab6:	84 2e       	mov	r8, r20
    2ab8:	91 2c       	mov	r9, r1
    reactStr[2][number]=type;
    2aba:	aa 24       	eor	r10, r10
    2abc:	a3 94       	inc	r10
    2abe:	b1 2c       	mov	r11, r1
    return 0;
}

//
void SetResponse(uint8_t number, uint16_t address, uint16_t length, uint8_t type){
    reactStr[0][number]=address;
    2ac0:	69 e5       	ldi	r22, 0x59	; 89
    2ac2:	46 2e       	mov	r4, r22
    2ac4:	6a e7       	ldi	r22, 0x7A	; 122
    2ac6:	56 2e       	mov	r5, r22
                uint8_t bit, digit[3];

                for (uint8_t x=0; x<MAX_CHEATS; ++x){
                    
                    //Set up sending out number
                    EERead(CHEATS+x, &bit, 1);
    2ac8:	41 e0       	ldi	r20, 0x01	; 1
    2aca:	be 01       	movw	r22, r28
    2acc:	6f 5d       	subi	r22, 0xDF	; 223
    2ace:	7f 4f       	sbci	r23, 0xFF	; 255
    2ad0:	83 2d       	mov	r24, r3
    2ad2:	0e 94 d0 08 	call	0x11a0	; 0x11a0 <EERead>
                    bit = 0xff-bit;
    2ad6:	89 a1       	ldd	r24, Y+33	; 0x21
    2ad8:	80 95       	com	r24
    2ada:	89 a3       	std	Y+33, r24	; 0x21
    return 0;
}

//
void SetResponse(uint8_t number, uint16_t address, uint16_t length, uint8_t type){
    reactStr[0][number]=address;
    2adc:	f6 01       	movw	r30, r12
    2ade:	60 82       	st	Z, r6
    2ae0:	71 82       	std	Z+1, r7	; 0x01
    reactStr[1][number]=length;
    2ae2:	f7 01       	movw	r30, r14
    2ae4:	80 82       	st	Z, r8
    2ae6:	91 82       	std	Z+1, r9	; 0x01
    reactStr[2][number]=type;
    2ae8:	f8 01       	movw	r30, r16
    2aea:	a0 82       	st	Z, r10
    2aec:	b1 82       	std	Z+1, r11	; 0x01
                    for (n=0; n<3; ++n) {
                        SetResponse(x*4+n, A_DIGITS+digit[n], 1, TEASER);
                    } 
                    */
                    SetResponse(x*4, A_HEXPREFIX, L_HEXPREFIX, TEASER);
                    SetResponse(x*4+1, A_DIGITS+digit[bit>>4], 1, TEASER);               
    2aee:	98 2f       	mov	r25, r24
    2af0:	92 95       	swap	r25
    2af2:	9f 70       	andi	r25, 0x0F	; 15
    2af4:	e1 e0       	ldi	r30, 0x01	; 1
    2af6:	f0 e0       	ldi	r31, 0x00	; 0
    2af8:	ec 0f       	add	r30, r28
    2afa:	fd 1f       	adc	r31, r29
    2afc:	e9 0f       	add	r30, r25
    2afe:	f1 1d       	adc	r31, r1
    return 0;
}

//
void SetResponse(uint8_t number, uint16_t address, uint16_t length, uint8_t type){
    reactStr[0][number]=address;
    2b00:	20 81       	ld	r18, Z
    2b02:	30 e0       	ldi	r19, 0x00	; 0
    2b04:	26 53       	subi	r18, 0x36	; 54
    2b06:	3b 48       	sbci	r19, 0x8B	; 139
    2b08:	f6 01       	movw	r30, r12
    2b0a:	22 83       	std	Z+2, r18	; 0x02
    2b0c:	33 83       	std	Z+3, r19	; 0x03
    reactStr[1][number]=length;
    2b0e:	f7 01       	movw	r30, r14
    2b10:	a2 82       	std	Z+2, r10	; 0x02
    2b12:	b3 82       	std	Z+3, r11	; 0x03
    reactStr[2][number]=type;
    2b14:	f8 01       	movw	r30, r16
    2b16:	a2 82       	std	Z+2, r10	; 0x02
    2b18:	b3 82       	std	Z+3, r11	; 0x03
                        SetResponse(x*4+n, A_DIGITS+digit[n], 1, TEASER);
                    } 
                    */
                    SetResponse(x*4, A_HEXPREFIX, L_HEXPREFIX, TEASER);
                    SetResponse(x*4+1, A_DIGITS+digit[bit>>4], 1, TEASER);               
                    SetResponse(x*4+2, A_DIGITS+digit[bit%16], 1, TEASER);
    2b1a:	8f 70       	andi	r24, 0x0F	; 15
    2b1c:	e1 e0       	ldi	r30, 0x01	; 1
    2b1e:	f0 e0       	ldi	r31, 0x00	; 0
    2b20:	ec 0f       	add	r30, r28
    2b22:	fd 1f       	adc	r31, r29
    2b24:	e8 0f       	add	r30, r24
    2b26:	f1 1d       	adc	r31, r1
    return 0;
}

//
void SetResponse(uint8_t number, uint16_t address, uint16_t length, uint8_t type){
    reactStr[0][number]=address;
    2b28:	80 81       	ld	r24, Z
    2b2a:	90 e0       	ldi	r25, 0x00	; 0
    2b2c:	86 53       	subi	r24, 0x36	; 54
    2b2e:	9b 48       	sbci	r25, 0x8B	; 139
    2b30:	f6 01       	movw	r30, r12
    2b32:	84 83       	std	Z+4, r24	; 0x04
    2b34:	95 83       	std	Z+5, r25	; 0x05
    reactStr[1][number]=length;
    2b36:	f7 01       	movw	r30, r14
    2b38:	a4 82       	std	Z+4, r10	; 0x04
    2b3a:	b5 82       	std	Z+5, r11	; 0x05
    reactStr[2][number]=type;
    2b3c:	f8 01       	movw	r30, r16
    2b3e:	a4 82       	std	Z+4, r10	; 0x04
    2b40:	b5 82       	std	Z+5, r11	; 0x05
    return 0;
}

//
void SetResponse(uint8_t number, uint16_t address, uint16_t length, uint8_t type){
    reactStr[0][number]=address;
    2b42:	f6 01       	movw	r30, r12
    2b44:	46 82       	std	Z+6, r4	; 0x06
    2b46:	57 82       	std	Z+7, r5	; 0x07
    reactStr[1][number]=length;
    2b48:	f7 01       	movw	r30, r14
    2b4a:	86 82       	std	Z+6, r8	; 0x06
    2b4c:	97 82       	std	Z+7, r9	; 0x07
    reactStr[2][number]=type;
    2b4e:	f8 01       	movw	r30, r16
    2b50:	a6 82       	std	Z+6, r10	; 0x06
    2b52:	b7 82       	std	Z+7, r11	; 0x07
    2b54:	33 94       	inc	r3
    2b56:	f8 e0       	ldi	r31, 0x08	; 8
    2b58:	cf 0e       	add	r12, r31
    2b5a:	d1 1c       	adc	r13, r1
    2b5c:	88 e0       	ldi	r24, 0x08	; 8
    2b5e:	e8 0e       	add	r14, r24
    2b60:	f1 1c       	adc	r15, r1
    2b62:	08 5f       	subi	r16, 0xF8	; 248
    2b64:	1f 4f       	sbci	r17, 0xFF	; 255
            }
            if (StartsWith(&data[0], "cheat")){
                //int8_t n;
                uint8_t bit, digit[3];

                for (uint8_t x=0; x<MAX_CHEATS; ++x){
    2b66:	e0 e2       	ldi	r30, 0x20	; 32
    2b68:	3e 12       	cpse	r3, r30
    2b6a:	ae cf       	rjmp	.-164    	; 0x2ac8 <CheckInput+0x462>
    return 0;
}

//
void SetResponse(uint8_t number, uint16_t address, uint16_t length, uint8_t type){
    reactStr[0][number]=address;
    2b6c:	8b e5       	ldi	r24, 0x5B	; 91
    2b6e:	9a e7       	ldi	r25, 0x7A	; 122
    2b70:	80 93 59 39 	sts	0x3959, r24	; 0x803959 <reactStr+0x3e>
    2b74:	90 93 5a 39 	sts	0x395A, r25	; 0x80395a <reactStr+0x3f>
    reactStr[1][number]=length;
    2b78:	84 e0       	ldi	r24, 0x04	; 4
    2b7a:	90 e0       	ldi	r25, 0x00	; 0
    2b7c:	80 93 99 39 	sts	0x3999, r24	; 0x803999 <reactStr+0x7e>
    2b80:	90 93 9a 39 	sts	0x399A, r25	; 0x80399a <reactStr+0x7f>
    reactStr[2][number]=type;
    2b84:	81 e0       	ldi	r24, 0x01	; 1
    2b86:	90 e0       	ldi	r25, 0x00	; 0
    2b88:	80 93 d9 39 	sts	0x39D9, r24	; 0x8039d9 <reactStr+0xbe>
    2b8c:	90 93 da 39 	sts	0x39DA, r25	; 0x8039da <reactStr+0xbf>
                    SetResponse(x*4+1, A_DIGITS+digit[bit>>4], 1, TEASER);               
                    SetResponse(x*4+2, A_DIGITS+digit[bit%16], 1, TEASER);
                    SetResponse(x*4+3, A_COMMA, L_COMMA, TEASER);
                }
                SetResponse((4*MAX_CHEATS)-1, A_LF, 4, TEASER);
                responseList = 32;
    2b90:	30 92 1a 39 	sts	0x391A, r3	; 0x80391a <responseList>
        //Data received, but not any of the commands above
        return 0;
    }

    //Serial input not available yet
    return 1;
    2b94:	ff 24       	eor	r15, r15
    2b96:	f3 94       	inc	r15
}
    2b98:	8f 2d       	mov	r24, r15
    2b9a:	a1 96       	adiw	r28, 0x21	; 33
    2b9c:	cd bf       	out	0x3d, r28	; 61
    2b9e:	de bf       	out	0x3e, r29	; 62
    2ba0:	df 91       	pop	r29
    2ba2:	cf 91       	pop	r28
    2ba4:	1f 91       	pop	r17
    2ba6:	0f 91       	pop	r16
    2ba8:	ff 90       	pop	r15
    2baa:	ef 90       	pop	r14
    2bac:	df 90       	pop	r13
    2bae:	cf 90       	pop	r12
    2bb0:	bf 90       	pop	r11
    2bb2:	af 90       	pop	r10
    2bb4:	9f 90       	pop	r9
    2bb6:	8f 90       	pop	r8
    2bb8:	7f 90       	pop	r7
    2bba:	6f 90       	pop	r6
    2bbc:	5f 90       	pop	r5
    2bbe:	4f 90       	pop	r4
    2bc0:	3f 90       	pop	r3
    2bc2:	08 95       	ret

00002bc4 <ProcessInput>:

//The game logic!
uint8_t ProcessInput(uint8_t *data){
    2bc4:	5f 92       	push	r5
    2bc6:	6f 92       	push	r6
    2bc8:	7f 92       	push	r7
    2bca:	8f 92       	push	r8
    2bcc:	9f 92       	push	r9
    2bce:	af 92       	push	r10
    2bd0:	bf 92       	push	r11
    2bd2:	cf 92       	push	r12
    2bd4:	df 92       	push	r13
    2bd6:	ef 92       	push	r14
    2bd8:	ff 92       	push	r15
    2bda:	0f 93       	push	r16
    2bdc:	1f 93       	push	r17
    2bde:	cf 93       	push	r28
    2be0:	df 93       	push	r29
    2be2:	cd b7       	in	r28, 0x3d	; 61
    2be4:	de b7       	in	r29, 0x3e	; 62
    2be6:	28 97       	sbiw	r28, 0x08	; 8
    2be8:	cd bf       	out	0x3d, r28	; 61
    2bea:	de bf       	out	0x3e, r29	; 62
    2bec:	8c 01       	movw	r16, r24
    static object_model_t actObj1, actObj2;
    uint8_t elements = 1;

    CleanInput(&data[0]);
    2bee:	63 dc       	rcall	.-1850   	; 0x24b6 <CleanInput>
    uint8_t inputLen = CleanInput(&data[0]);
    2bf0:	c8 01       	movw	r24, r16
    2bf2:	61 dc       	rcall	.-1854   	; 0x24b6 <CleanInput>
    2bf4:	f8 2e       	mov	r15, r24

    if (inputLen) {
    2bf6:	88 23       	and	r24, r24
    2bf8:	09 f4       	brne	.+2      	; 0x2bfc <ProcessInput+0x38>
    2bfa:	fc c7       	rjmp	.+4088   	; 0x3bf4 <ProcessInput+0x1030>

        //eXit to previous location
        if (data[0] == 'x'){
    2bfc:	d8 01       	movw	r26, r16
    2bfe:	8c 91       	ld	r24, X
    2c00:	88 37       	cpi	r24, 0x78	; 120
    2c02:	09 f0       	breq	.+2      	; 0x2c06 <ProcessInput+0x42>
    2c04:	45 c0       	rjmp	.+138    	; 0x2c90 <ProcessInput+0xcc>

            //Standing in the Lobby?
            if ((route[currDepth] == 0)||(currDepth == 0)){
    2c06:	80 91 2d 38 	lds	r24, 0x382D	; 0x80382d <currDepth>
    2c0a:	e8 2f       	mov	r30, r24
    2c0c:	f0 e0       	ldi	r31, 0x00	; 0
    2c0e:	ee 0f       	add	r30, r30
    2c10:	ff 1f       	adc	r31, r31
    2c12:	e5 52       	subi	r30, 0x25	; 37
    2c14:	f6 4c       	sbci	r31, 0xC6	; 198
    2c16:	20 81       	ld	r18, Z
    2c18:	31 81       	ldd	r19, Z+1	; 0x01
    2c1a:	23 2b       	or	r18, r19
    2c1c:	11 f0       	breq	.+4      	; 0x2c22 <ProcessInput+0x5e>
    2c1e:	81 11       	cpse	r24, r1
    2c20:	03 c0       	rjmp	.+6      	; 0x2c28 <ProcessInput+0x64>
    return 0;
}

//
void SetResponse(uint8_t number, uint16_t address, uint16_t length, uint8_t type){
    reactStr[0][number]=address;
    2c22:	81 e8       	ldi	r24, 0x81	; 129
    2c24:	96 e7       	ldi	r25, 0x76	; 118
    2c26:	a1 c5       	rjmp	.+2882   	; 0x376a <ProcessInput+0xba6>
            //Standing in the Lobby?
            if ((route[currDepth] == 0)||(currDepth == 0)){
                SetResponse(elements++, A_NOTPOSSIBLE, L_NOTPOSSIBLE, TEASER);
            
            //Is there a way to go back?
            } else if (CheckState(currObj.byteField[OPEN_ACL])){
    2c28:	80 91 21 3a 	lds	r24, 0x3A21	; 0x803a21 <currObj+0x6>
    2c2c:	0e 94 a4 0a 	call	0x1548	; 0x1548 <CheckState>
    2c30:	88 23       	and	r24, r24
    2c32:	b9 f0       	breq	.+46     	; 0x2c62 <ProcessInput+0x9e>
                --currDepth;
    2c34:	e0 91 2d 38 	lds	r30, 0x382D	; 0x80382d <currDepth>
    2c38:	e1 50       	subi	r30, 0x01	; 1
    2c3a:	e0 93 2d 38 	sts	0x382D, r30	; 0x80382d <currDepth>
                PopulateObject(route[currDepth], &currObj);
    2c3e:	f0 e0       	ldi	r31, 0x00	; 0
    2c40:	ee 0f       	add	r30, r30
    2c42:	ff 1f       	adc	r31, r31
    2c44:	e5 52       	subi	r30, 0x25	; 37
    2c46:	f6 4c       	sbci	r31, 0xC6	; 198
    2c48:	6b e1       	ldi	r22, 0x1B	; 27
    2c4a:	7a e3       	ldi	r23, 0x3A	; 58
    2c4c:	80 81       	ld	r24, Z
    2c4e:	91 81       	ldd	r25, Z+1	; 0x01
    2c50:	ff da       	rcall	.-2562   	; 0x2250 <PopulateObject>
                effect = currObj.byteField[EFFECTS];
    2c52:	80 91 1f 3a 	lds	r24, 0x3A1F	; 0x803a1f <currObj+0x4>
    2c56:	90 e0       	ldi	r25, 0x00	; 0
    2c58:	80 93 3a 38 	sts	0x383A, r24	; 0x80383a <effect>
    2c5c:	90 93 3b 38 	sts	0x383B, r25	; 0x80383b <effect+0x1>
    2c60:	31 c2       	rjmp	.+1122   	; 0x30c4 <ProcessInput+0x500>
            
            //No way out, print denied message of location
            } else {
                SetResponse(elements++, currObj.addrStr[OPEN_ACL_MSG], currObj.lenStr[OPEN_ACL_MSG], GAME);
    2c62:	80 91 3d 3a 	lds	r24, 0x3A3D	; 0x803a3d <currObj+0x22>
    2c66:	90 91 3e 3a 	lds	r25, 0x3A3E	; 0x803a3e <currObj+0x23>
    return 0;
}

//
void SetResponse(uint8_t number, uint16_t address, uint16_t length, uint8_t type){
    reactStr[0][number]=address;
    2c6a:	20 91 2f 3a 	lds	r18, 0x3A2F	; 0x803a2f <currObj+0x14>
    2c6e:	30 91 30 3a 	lds	r19, 0x3A30	; 0x803a30 <currObj+0x15>
    2c72:	20 93 1d 39 	sts	0x391D, r18	; 0x80391d <reactStr+0x2>
    2c76:	30 93 1e 39 	sts	0x391E, r19	; 0x80391e <reactStr+0x3>
    reactStr[1][number]=length;
    2c7a:	80 93 5d 39 	sts	0x395D, r24	; 0x80395d <reactStr+0x42>
    2c7e:	90 93 5e 39 	sts	0x395E, r25	; 0x80395e <reactStr+0x43>
    reactStr[2][number]=type;
    2c82:	10 92 9d 39 	sts	0x399D, r1	; 0x80399d <reactStr+0x82>
    2c86:	10 92 9e 39 	sts	0x399E, r1	; 0x80399e <reactStr+0x83>
                effect = currObj.byteField[EFFECTS];
            
            //No way out, print denied message of location
            } else {
                SetResponse(elements++, currObj.addrStr[OPEN_ACL_MSG], currObj.lenStr[OPEN_ACL_MSG], GAME);
                effect = currObj.effect[0];               
    2c8a:	80 91 43 3a 	lds	r24, 0x3A43	; 0x803a43 <currObj+0x28>
    2c8e:	3a c6       	rjmp	.+3188   	; 0x3904 <ProcessInput+0xd40>
            }   
        
        //Enter locations or Open objects    
        } else if ((data[0] == 'e')||(data[0] == 'o')) {
    2c90:	85 36       	cpi	r24, 0x65	; 101
    2c92:	19 f0       	breq	.+6      	; 0x2c9a <ProcessInput+0xd6>
    2c94:	8f 36       	cpi	r24, 0x6F	; 111
    2c96:	09 f0       	breq	.+2      	; 0x2c9a <ProcessInput+0xd6>
    2c98:	df c0       	rjmp	.+446    	; 0x2e58 <ProcessInput+0x294>
                
            //Not possible, too many/little characters
            if (inputLen != 2){
    2c9a:	b2 e0       	ldi	r27, 0x02	; 2
    2c9c:	fb 12       	cpse	r15, r27
    2c9e:	c1 cf       	rjmp	.-126    	; 0x2c22 <ProcessInput+0x5e>
                SetResponse(elements++, A_NOTPOSSIBLE, L_NOTPOSSIBLE, TEASER);
            } else {
                uint8_t canDo = 0;
                route[currDepth+1] = FindChild(route[currDepth], data[1], 0);
    2ca0:	e0 90 2d 38 	lds	r14, 0x382D	; 0x80382d <currDepth>
    2ca4:	f1 2c       	mov	r15, r1
    2ca6:	f7 01       	movw	r30, r14
    2ca8:	ee 0f       	add	r30, r30
    2caa:	ff 1f       	adc	r31, r31
    2cac:	e5 52       	subi	r30, 0x25	; 37
    2cae:	f6 4c       	sbci	r31, 0xC6	; 198
    2cb0:	40 e0       	ldi	r20, 0x00	; 0
    2cb2:	50 e0       	ldi	r21, 0x00	; 0
    2cb4:	d8 01       	movw	r26, r16
    2cb6:	11 96       	adiw	r26, 0x01	; 1
    2cb8:	6c 91       	ld	r22, X
    2cba:	80 81       	ld	r24, Z
    2cbc:	91 81       	ldd	r25, Z+1	; 0x01
    2cbe:	93 db       	rcall	.-2266   	; 0x23e6 <FindChild>
    2cc0:	f7 01       	movw	r30, r14
    2cc2:	ee 0f       	add	r30, r30
    2cc4:	ff 1f       	adc	r31, r31
    2cc6:	e3 52       	subi	r30, 0x23	; 35
    2cc8:	f6 4c       	sbci	r31, 0xC6	; 198
    2cca:	80 83       	st	Z, r24
    2ccc:	91 83       	std	Z+1, r25	; 0x01
                    
                //Child found?
                if (route[currDepth+1]) {
    2cce:	90 91 2d 38 	lds	r25, 0x382D	; 0x80382d <currDepth>
    2cd2:	29 2f       	mov	r18, r25
    2cd4:	30 e0       	ldi	r19, 0x00	; 0
    2cd6:	f9 01       	movw	r30, r18
    2cd8:	ee 0f       	add	r30, r30
    2cda:	ff 1f       	adc	r31, r31
    2cdc:	e3 52       	subi	r30, 0x23	; 35
    2cde:	f6 4c       	sbci	r31, 0xC6	; 198
    2ce0:	40 81       	ld	r20, Z
    2ce2:	51 81       	ldd	r21, Z+1	; 0x01
    2ce4:	41 15       	cp	r20, r1
    2ce6:	51 05       	cpc	r21, r1
    2ce8:	21 f0       	breq	.+8      	; 0x2cf2 <ProcessInput+0x12e>
                    PopulateObject(route[currDepth+1], &actObj1);
    2cea:	6a ed       	ldi	r22, 0xDA	; 218
    2cec:	78 e3       	ldi	r23, 0x38	; 56
    2cee:	ca 01       	movw	r24, r20
    2cf0:	1c c0       	rjmp	.+56     	; 0x2d2a <ProcessInput+0x166>
                    canDo = 1;
                //No child, maybe a step back, letter ok?
                } else if (currDepth) {
    2cf2:	99 23       	and	r25, r25
    2cf4:	09 f4       	brne	.+2      	; 0x2cf8 <ProcessInput+0x134>
    2cf6:	95 c7       	rjmp	.+3882   	; 0x3c22 <ProcessInput+0x105e>
                    if (CheckLetter(route[currDepth-1], data[1])) {
    2cf8:	22 0f       	add	r18, r18
    2cfa:	33 1f       	adc	r19, r19
    2cfc:	f9 01       	movw	r30, r18
    2cfe:	e7 52       	subi	r30, 0x27	; 39
    2d00:	f6 4c       	sbci	r31, 0xC6	; 198
    2d02:	d8 01       	movw	r26, r16
    2d04:	11 96       	adiw	r26, 0x01	; 1
    2d06:	6c 91       	ld	r22, X
    2d08:	80 81       	ld	r24, Z
    2d0a:	91 81       	ldd	r25, Z+1	; 0x01
    2d0c:	18 db       	rcall	.-2512   	; 0x233e <CheckLetter>
    2d0e:	88 23       	and	r24, r24
    2d10:	09 f4       	brne	.+2      	; 0x2d14 <ProcessInput+0x150>
    2d12:	87 c7       	rjmp	.+3854   	; 0x3c22 <ProcessInput+0x105e>
                        PopulateObject(route[currDepth-1], &actObj1);
    2d14:	e0 91 2d 38 	lds	r30, 0x382D	; 0x80382d <currDepth>
    2d18:	f0 e0       	ldi	r31, 0x00	; 0
    2d1a:	ee 0f       	add	r30, r30
    2d1c:	ff 1f       	adc	r31, r31
    2d1e:	e7 52       	subi	r30, 0x27	; 39
    2d20:	f6 4c       	sbci	r31, 0xC6	; 198
    2d22:	6a ed       	ldi	r22, 0xDA	; 218
    2d24:	78 e3       	ldi	r23, 0x38	; 56
    2d26:	80 81       	ld	r24, Z
    2d28:	91 81       	ldd	r25, Z+1	; 0x01
    2d2a:	92 da       	rcall	.-2780   	; 0x2250 <PopulateObject>
                    }
                }

                //The candidate is found! Let's check if the action is legit
                if (canDo) {
                    if ((data[0] == 'e') && ((actObj1.byteField[ACTION_MASK]&ENTER)==0)) {
    2d2c:	f8 01       	movw	r30, r16
    2d2e:	80 81       	ld	r24, Z
    2d30:	85 36       	cpi	r24, 0x65	; 101
    2d32:	c9 f4       	brne	.+50     	; 0x2d66 <ProcessInput+0x1a2>
    2d34:	80 91 e2 38 	lds	r24, 0x38E2	; 0x8038e2 <actObj1.3994+0x8>
    2d38:	80 fd       	sbrc	r24, 0
    2d3a:	1e c0       	rjmp	.+60     	; 0x2d78 <ProcessInput+0x1b4>
    return 0;
}

//
void SetResponse(uint8_t number, uint16_t address, uint16_t length, uint8_t type){
    reactStr[0][number]=address;
    2d3c:	8f e9       	ldi	r24, 0x9F	; 159
    2d3e:	99 e7       	ldi	r25, 0x79	; 121
    2d40:	80 93 1d 39 	sts	0x391D, r24	; 0x80391d <reactStr+0x2>
    2d44:	90 93 1e 39 	sts	0x391E, r25	; 0x80391e <reactStr+0x3>
    reactStr[1][number]=length;
    2d48:	8e e1       	ldi	r24, 0x1E	; 30
    2d4a:	90 e0       	ldi	r25, 0x00	; 0
    2d4c:	80 93 5d 39 	sts	0x395D, r24	; 0x80395d <reactStr+0x42>
    2d50:	90 93 5e 39 	sts	0x395E, r25	; 0x80395e <reactStr+0x43>
    reactStr[2][number]=type;
    2d54:	81 e0       	ldi	r24, 0x01	; 1
    2d56:	90 e0       	ldi	r25, 0x00	; 0
    2d58:	80 93 9d 39 	sts	0x399D, r24	; 0x80399d <reactStr+0x82>
    2d5c:	90 93 9e 39 	sts	0x399E, r25	; 0x80399e <reactStr+0x83>
                }

                //The candidate is found! Let's check if the action is legit
                if (canDo) {
                    if ((data[0] == 'e') && ((actObj1.byteField[ACTION_MASK]&ENTER)==0)) {
                        SetResponse(elements++, A_CANTENTER, L_CANTENTER, TEASER);
    2d60:	72 e0       	ldi	r23, 0x02	; 2
    2d62:	77 2e       	mov	r7, r23
    2d64:	2c c7       	rjmp	.+3672   	; 0x3bbe <ProcessInput+0xffa>
                    } else if ((data[0] == 'o') && ((actObj1.byteField[ACTION_MASK]&OPEN)==0)) {
    2d66:	8f 36       	cpi	r24, 0x6F	; 111
    2d68:	39 f4       	brne	.+14     	; 0x2d78 <ProcessInput+0x1b4>
    2d6a:	80 91 e2 38 	lds	r24, 0x38E2	; 0x8038e2 <actObj1.3994+0x8>
    2d6e:	81 fd       	sbrc	r24, 1
    2d70:	03 c0       	rjmp	.+6      	; 0x2d78 <ProcessInput+0x1b4>
    return 0;
}

//
void SetResponse(uint8_t number, uint16_t address, uint16_t length, uint8_t type){
    reactStr[0][number]=address;
    2d72:	84 e8       	ldi	r24, 0x84	; 132
    2d74:	99 e7       	ldi	r25, 0x79	; 121
    2d76:	f9 c4       	rjmp	.+2546   	; 0x376a <ProcessInput+0xba6>
                        SetResponse(elements++, A_CANTENTER, L_CANTENTER, TEASER);
                    } else if ((data[0] == 'o') && ((actObj1.byteField[ACTION_MASK]&OPEN)==0)) {
                        SetResponse(elements++, A_CANTOPEN, L_CANTOPEN, TEASER);
                    
                    //Action legit, permission granted?
                    } else if (CheckState(actObj1.byteField[OPEN_ACL])) {
    2d78:	80 91 e0 38 	lds	r24, 0x38E0	; 0x8038e0 <actObj1.3994+0x6>
    2d7c:	0e 94 a4 0a 	call	0x1548	; 0x1548 <CheckState>
    2d80:	e0 91 2d 38 	lds	r30, 0x382D	; 0x80382d <currDepth>
    2d84:	88 23       	and	r24, r24
    2d86:	09 f4       	brne	.+2      	; 0x2d8a <ProcessInput+0x1c6>
    2d88:	49 c0       	rjmp	.+146    	; 0x2e1c <ProcessInput+0x258>
                            
                        //Yes! Check if we must move forward or backwards.
                        if (route[currDepth+1]) ++currDepth; else --currDepth;
    2d8a:	ae 2f       	mov	r26, r30
    2d8c:	b0 e0       	ldi	r27, 0x00	; 0
    2d8e:	aa 0f       	add	r26, r26
    2d90:	bb 1f       	adc	r27, r27
    2d92:	a3 52       	subi	r26, 0x23	; 35
    2d94:	b6 4c       	sbci	r27, 0xC6	; 198
    2d96:	8d 91       	ld	r24, X+
    2d98:	9c 91       	ld	r25, X
    2d9a:	89 2b       	or	r24, r25
    2d9c:	11 f0       	breq	.+4      	; 0x2da2 <ProcessInput+0x1de>
    2d9e:	ef 5f       	subi	r30, 0xFF	; 255
    2da0:	01 c0       	rjmp	.+2      	; 0x2da4 <ProcessInput+0x1e0>
    2da2:	e1 50       	subi	r30, 0x01	; 1
    2da4:	e0 93 2d 38 	sts	0x382D, r30	; 0x80382d <currDepth>
                        PopulateObject(route[currDepth], &currObj);
    2da8:	e0 91 2d 38 	lds	r30, 0x382D	; 0x80382d <currDepth>
    2dac:	f0 e0       	ldi	r31, 0x00	; 0
    2dae:	ee 0f       	add	r30, r30
    2db0:	ff 1f       	adc	r31, r31
    2db2:	e5 52       	subi	r30, 0x25	; 37
    2db4:	f6 4c       	sbci	r31, 0xC6	; 198
    2db6:	6b e1       	ldi	r22, 0x1B	; 27
    2db8:	7a e3       	ldi	r23, 0x3A	; 58
    2dba:	80 81       	ld	r24, Z
    2dbc:	91 81       	ldd	r25, Z+1	; 0x01
    2dbe:	48 da       	rcall	.-2928   	; 0x2250 <PopulateObject>
                        SetResponse(elements++, currObj.addrStr[DESC], currObj.lenStr[DESC],GAME);
    2dc0:	80 91 37 3a 	lds	r24, 0x3A37	; 0x803a37 <currObj+0x1c>
    2dc4:	90 91 38 3a 	lds	r25, 0x3A38	; 0x803a38 <currObj+0x1d>
    return 0;
}

//
void SetResponse(uint8_t number, uint16_t address, uint16_t length, uint8_t type){
    reactStr[0][number]=address;
    2dc8:	20 91 29 3a 	lds	r18, 0x3A29	; 0x803a29 <currObj+0xe>
    2dcc:	30 91 2a 3a 	lds	r19, 0x3A2A	; 0x803a2a <currObj+0xf>
    2dd0:	20 93 1d 39 	sts	0x391D, r18	; 0x80391d <reactStr+0x2>
    2dd4:	30 93 1e 39 	sts	0x391E, r19	; 0x80391e <reactStr+0x3>
    reactStr[1][number]=length;
    2dd8:	80 93 5d 39 	sts	0x395D, r24	; 0x80395d <reactStr+0x42>
    2ddc:	90 93 5e 39 	sts	0x395E, r25	; 0x80395e <reactStr+0x43>
    reactStr[2][number]=type;
    2de0:	10 92 9d 39 	sts	0x399D, r1	; 0x80399d <reactStr+0x82>
    2de4:	10 92 9e 39 	sts	0x399E, r1	; 0x80399e <reactStr+0x83>
    return 0;
}

//
void SetResponse(uint8_t number, uint16_t address, uint16_t length, uint8_t type){
    reactStr[0][number]=address;
    2de8:	8b e5       	ldi	r24, 0x5B	; 91
    2dea:	9a e7       	ldi	r25, 0x7A	; 122
    2dec:	80 93 1f 39 	sts	0x391F, r24	; 0x80391f <reactStr+0x4>
    2df0:	90 93 20 39 	sts	0x3920, r25	; 0x803920 <reactStr+0x5>
    reactStr[1][number]=length;
    2df4:	82 e0       	ldi	r24, 0x02	; 2
    2df6:	90 e0       	ldi	r25, 0x00	; 0
    2df8:	80 93 5f 39 	sts	0x395F, r24	; 0x80395f <reactStr+0x44>
    2dfc:	90 93 60 39 	sts	0x3960, r25	; 0x803960 <reactStr+0x45>
    reactStr[2][number]=type;
    2e00:	81 e0       	ldi	r24, 0x01	; 1
    2e02:	90 e0       	ldi	r25, 0x00	; 0
    2e04:	80 93 9f 39 	sts	0x399F, r24	; 0x80399f <reactStr+0x84>
    2e08:	90 93 a0 39 	sts	0x39A0, r25	; 0x8039a0 <reactStr+0x85>
                        //Yes! Check if we must move forward or backwards.
                        if (route[currDepth+1]) ++currDepth; else --currDepth;
                        PopulateObject(route[currDepth], &currObj);
                        SetResponse(elements++, currObj.addrStr[DESC], currObj.lenStr[DESC],GAME);
                        SetResponse(elements++, A_LF, 2, TEASER);
                        effect = currObj.byteField[EFFECTS];
    2e0c:	80 91 1f 3a 	lds	r24, 0x3A1F	; 0x803a1f <currObj+0x4>
    2e10:	90 e0       	ldi	r25, 0x00	; 0
    2e12:	80 93 3a 38 	sts	0x383A, r24	; 0x80383a <effect>
    2e16:	90 93 3b 38 	sts	0x383B, r25	; 0x80383b <effect+0x1>
    2e1a:	8d c4       	rjmp	.+2330   	; 0x3736 <ProcessInput+0xb72>
                                                  
                    //Not granted!
                    } else {
                        route[currDepth+1] = 0;
    2e1c:	f0 e0       	ldi	r31, 0x00	; 0
    2e1e:	ee 0f       	add	r30, r30
    2e20:	ff 1f       	adc	r31, r31
    2e22:	e3 52       	subi	r30, 0x23	; 35
    2e24:	f6 4c       	sbci	r31, 0xC6	; 198
    2e26:	10 82       	st	Z, r1
    2e28:	11 82       	std	Z+1, r1	; 0x01
                        SetResponse(elements++, actObj1.addrStr[OPEN_ACL_MSG], actObj1.lenStr[OPEN_ACL_MSG], GAME);
    2e2a:	80 91 fc 38 	lds	r24, 0x38FC	; 0x8038fc <actObj1.3994+0x22>
    2e2e:	90 91 fd 38 	lds	r25, 0x38FD	; 0x8038fd <actObj1.3994+0x23>
    return 0;
}

//
void SetResponse(uint8_t number, uint16_t address, uint16_t length, uint8_t type){
    reactStr[0][number]=address;
    2e32:	20 91 ee 38 	lds	r18, 0x38EE	; 0x8038ee <actObj1.3994+0x14>
    2e36:	30 91 ef 38 	lds	r19, 0x38EF	; 0x8038ef <actObj1.3994+0x15>
    2e3a:	20 93 1d 39 	sts	0x391D, r18	; 0x80391d <reactStr+0x2>
    2e3e:	30 93 1e 39 	sts	0x391E, r19	; 0x80391e <reactStr+0x3>
    reactStr[1][number]=length;
    2e42:	80 93 5d 39 	sts	0x395D, r24	; 0x80395d <reactStr+0x42>
    2e46:	90 93 5e 39 	sts	0x395E, r25	; 0x80395e <reactStr+0x43>
    reactStr[2][number]=type;
    2e4a:	10 92 9d 39 	sts	0x399D, r1	; 0x80399d <reactStr+0x82>
    2e4e:	10 92 9e 39 	sts	0x399E, r1	; 0x80399e <reactStr+0x83>
                                                  
                    //Not granted!
                    } else {
                        route[currDepth+1] = 0;
                        SetResponse(elements++, actObj1.addrStr[OPEN_ACL_MSG], actObj1.lenStr[OPEN_ACL_MSG], GAME);
                        effect = actObj1.effect[0];              
    2e52:	80 91 02 39 	lds	r24, 0x3902	; 0x803902 <actObj1.3994+0x28>
    2e56:	56 c5       	rjmp	.+2732   	; 0x3904 <ProcessInput+0xd40>
                    SetResponse(elements++, A_DONTSEE, L_DONTSEE, TEASER);                
                }
            }

        //Look around or at objects
        } else if (data[0] == 'l') {
    2e58:	8c 36       	cpi	r24, 0x6C	; 108
    2e5a:	09 f0       	breq	.+2      	; 0x2e5e <ProcessInput+0x29a>
    2e5c:	57 c1       	rjmp	.+686    	; 0x310c <ProcessInput+0x548>
    2e5e:	e0 91 2d 38 	lds	r30, 0x382D	; 0x80382d <currDepth>
            if (inputLen == 1) {
    2e62:	b1 e0       	ldi	r27, 0x01	; 1
    2e64:	fb 12       	cpse	r15, r27
    2e66:	f6 c0       	rjmp	.+492    	; 0x3054 <ProcessInput+0x490>

                //Show info about this area first
                SetResponse(elements++, currObj.addrStr[DESC], currObj.lenStr[DESC],GAME);
    2e68:	80 91 37 3a 	lds	r24, 0x3A37	; 0x803a37 <currObj+0x1c>
    2e6c:	90 91 38 3a 	lds	r25, 0x3A38	; 0x803a38 <currObj+0x1d>
    return 0;
}

//
void SetResponse(uint8_t number, uint16_t address, uint16_t length, uint8_t type){
    reactStr[0][number]=address;
    2e70:	20 91 29 3a 	lds	r18, 0x3A29	; 0x803a29 <currObj+0xe>
    2e74:	30 91 2a 3a 	lds	r19, 0x3A2A	; 0x803a2a <currObj+0xf>
    2e78:	20 93 1d 39 	sts	0x391D, r18	; 0x80391d <reactStr+0x2>
    2e7c:	30 93 1e 39 	sts	0x391E, r19	; 0x80391e <reactStr+0x3>
    reactStr[1][number]=length;
    2e80:	80 93 5d 39 	sts	0x395D, r24	; 0x80395d <reactStr+0x42>
    2e84:	90 93 5e 39 	sts	0x395E, r25	; 0x80395e <reactStr+0x43>
    reactStr[2][number]=type;
    2e88:	10 92 9d 39 	sts	0x399D, r1	; 0x80399d <reactStr+0x82>
    2e8c:	10 92 9e 39 	sts	0x399E, r1	; 0x80399e <reactStr+0x83>
    return 0;
}

//
void SetResponse(uint8_t number, uint16_t address, uint16_t length, uint8_t type){
    reactStr[0][number]=address;
    2e90:	8b e5       	ldi	r24, 0x5B	; 91
    2e92:	9a e7       	ldi	r25, 0x7A	; 122
    2e94:	80 93 1f 39 	sts	0x391F, r24	; 0x80391f <reactStr+0x4>
    2e98:	90 93 20 39 	sts	0x3920, r25	; 0x803920 <reactStr+0x5>
    reactStr[1][number]=length;
    2e9c:	82 e0       	ldi	r24, 0x02	; 2
    2e9e:	90 e0       	ldi	r25, 0x00	; 0
    2ea0:	80 93 5f 39 	sts	0x395F, r24	; 0x80395f <reactStr+0x44>
    2ea4:	90 93 60 39 	sts	0x3960, r25	; 0x803960 <reactStr+0x45>
    reactStr[2][number]=type;
    2ea8:	81 e0       	ldi	r24, 0x01	; 1
    2eaa:	90 e0       	ldi	r25, 0x00	; 0
    2eac:	80 93 9f 39 	sts	0x399F, r24	; 0x80399f <reactStr+0x84>
    2eb0:	90 93 a0 39 	sts	0x39A0, r25	; 0x8039a0 <reactStr+0x85>
    return 0;
}

//
void SetResponse(uint8_t number, uint16_t address, uint16_t length, uint8_t type){
    reactStr[0][number]=address;
    2eb4:	2d ee       	ldi	r18, 0xED	; 237
    2eb6:	39 e7       	ldi	r19, 0x79	; 121
    2eb8:	20 93 21 39 	sts	0x3921, r18	; 0x803921 <reactStr+0x6>
    2ebc:	30 93 22 39 	sts	0x3922, r19	; 0x803922 <reactStr+0x7>
    reactStr[1][number]=length;
    2ec0:	25 e1       	ldi	r18, 0x15	; 21
    2ec2:	30 e0       	ldi	r19, 0x00	; 0
    2ec4:	20 93 61 39 	sts	0x3961, r18	; 0x803961 <reactStr+0x46>
    2ec8:	30 93 62 39 	sts	0x3962, r19	; 0x803962 <reactStr+0x47>
    reactStr[2][number]=type;
    2ecc:	80 93 a1 39 	sts	0x39A1, r24	; 0x8039a1 <reactStr+0x86>
    2ed0:	90 93 a2 39 	sts	0x39A2, r25	; 0x8039a2 <reactStr+0x87>
                SetResponse(elements++, currObj.addrStr[DESC], currObj.lenStr[DESC],GAME);
                SetResponse(elements++, A_LF, 2, TEASER);
                SetResponse(elements++, A_LOOK, L_LOOK, TEASER);

                //Check the visible children first
                route[currDepth+1] = 0;
    2ed4:	f0 e0       	ldi	r31, 0x00	; 0
    2ed6:	ee 0f       	add	r30, r30
    2ed8:	ff 1f       	adc	r31, r31
    2eda:	e3 52       	subi	r30, 0x23	; 35
    2edc:	f6 4c       	sbci	r31, 0xC6	; 198
    2ede:	10 82       	st	Z, r1
    2ee0:	11 82       	std	Z+1, r1	; 0x01
            if (inputLen == 1) {

                //Show info about this area first
                SetResponse(elements++, currObj.addrStr[DESC], currObj.lenStr[DESC],GAME);
                SetResponse(elements++, A_LF, 2, TEASER);
                SetResponse(elements++, A_LOOK, L_LOOK, TEASER);
    2ee2:	84 e0       	ldi	r24, 0x04	; 4
    2ee4:	68 2e       	mov	r6, r24
    return 0;
}

//
void SetResponse(uint8_t number, uint16_t address, uint16_t length, uint8_t type){
    reactStr[0][number]=address;
    2ee6:	99 e5       	ldi	r25, 0x59	; 89
    2ee8:	c9 2e       	mov	r12, r25
    2eea:	9a e7       	ldi	r25, 0x7A	; 122
    2eec:	d9 2e       	mov	r13, r25
    reactStr[1][number]=length;
    2eee:	22 e0       	ldi	r18, 0x02	; 2
    2ef0:	a2 2e       	mov	r10, r18
    2ef2:	b1 2c       	mov	r11, r1
    reactStr[2][number]=type;
    2ef4:	88 24       	eor	r8, r8
    2ef6:	83 94       	inc	r8
    2ef8:	91 2c       	mov	r9, r1
                SetResponse(elements++, A_LOOK, L_LOOK, TEASER);

                //Check the visible children first
                route[currDepth+1] = 0;
                do{
                    route[currDepth+1] = FindChild(route[currDepth], 0, route[currDepth+1]);
    2efa:	80 91 2d 38 	lds	r24, 0x382D	; 0x80382d <currDepth>
    2efe:	90 e0       	ldi	r25, 0x00	; 0
    2f00:	9c 01       	movw	r18, r24
    2f02:	22 0f       	add	r18, r18
    2f04:	33 1f       	adc	r19, r19
    2f06:	f9 01       	movw	r30, r18
    2f08:	e3 52       	subi	r30, 0x23	; 35
    2f0a:	f6 4c       	sbci	r31, 0xC6	; 198
    2f0c:	7f 01       	movw	r14, r30
    2f0e:	40 81       	ld	r20, Z
    2f10:	51 81       	ldd	r21, Z+1	; 0x01
    2f12:	f9 01       	movw	r30, r18
    2f14:	e5 52       	subi	r30, 0x25	; 37
    2f16:	f6 4c       	sbci	r31, 0xC6	; 198
    2f18:	60 e0       	ldi	r22, 0x00	; 0
    2f1a:	80 81       	ld	r24, Z
    2f1c:	91 81       	ldd	r25, Z+1	; 0x01
    2f1e:	63 da       	rcall	.-2874   	; 0x23e6 <FindChild>
    2f20:	d7 01       	movw	r26, r14
    2f22:	8d 93       	st	X+, r24
    2f24:	9c 93       	st	X, r25
                    if (route[currDepth+1]) {
    2f26:	e0 91 2d 38 	lds	r30, 0x382D	; 0x80382d <currDepth>
    2f2a:	f0 e0       	ldi	r31, 0x00	; 0
    2f2c:	ee 0f       	add	r30, r30
    2f2e:	ff 1f       	adc	r31, r31
    2f30:	e3 52       	subi	r30, 0x23	; 35
    2f32:	f6 4c       	sbci	r31, 0xC6	; 198
    2f34:	80 81       	ld	r24, Z
    2f36:	91 81       	ldd	r25, Z+1	; 0x01
    2f38:	00 97       	sbiw	r24, 0x00	; 0
    2f3a:	09 f4       	brne	.+2      	; 0x2f3e <ProcessInput+0x37a>
    2f3c:	4a c0       	rjmp	.+148    	; 0x2fd2 <ProcessInput+0x40e>
                        if ((route[currDepth+1] != inventory[0])&&(route[currDepth+1] != inventory[1])) {
    2f3e:	20 91 3e 38 	lds	r18, 0x383E	; 0x80383e <inventory>
    2f42:	30 91 3f 38 	lds	r19, 0x383F	; 0x80383f <inventory+0x1>
    2f46:	82 17       	cp	r24, r18
    2f48:	93 07       	cpc	r25, r19
    2f4a:	09 f4       	brne	.+2      	; 0x2f4e <ProcessInput+0x38a>
    2f4c:	42 c0       	rjmp	.+132    	; 0x2fd2 <ProcessInput+0x40e>
    2f4e:	20 91 40 38 	lds	r18, 0x3840	; 0x803840 <inventory+0x2>
    2f52:	30 91 41 38 	lds	r19, 0x3841	; 0x803841 <inventory+0x3>
    2f56:	82 17       	cp	r24, r18
    2f58:	93 07       	cpc	r25, r19
                            PopulateObject(route[currDepth+1], &actObj1);
    2f5a:	d9 f1       	breq	.+118    	; 0x2fd2 <ProcessInput+0x40e>
    2f5c:	6a ed       	ldi	r22, 0xDA	; 218
    2f5e:	78 e3       	ldi	r23, 0x38	; 56
    2f60:	77 d9       	rcall	.-3346   	; 0x2250 <PopulateObject>
                            SetResponse(elements++, actObj1.addrStr[NAME], actObj1.lenStr[NAME],GAME);
    2f62:	80 91 f4 38 	lds	r24, 0x38F4	; 0x8038f4 <actObj1.3994+0x1a>
    2f66:	90 91 f5 38 	lds	r25, 0x38F5	; 0x8038f5 <actObj1.3994+0x1b>
    return 0;
}

//
void SetResponse(uint8_t number, uint16_t address, uint16_t length, uint8_t type){
    reactStr[0][number]=address;
    2f6a:	e6 2d       	mov	r30, r6
    2f6c:	f0 e0       	ldi	r31, 0x00	; 0
    2f6e:	df 01       	movw	r26, r30
    2f70:	aa 0f       	add	r26, r26
    2f72:	bb 1f       	adc	r27, r27
    2f74:	a5 5e       	subi	r26, 0xE5	; 229
    2f76:	b6 4c       	sbci	r27, 0xC6	; 198
    2f78:	20 91 e6 38 	lds	r18, 0x38E6	; 0x8038e6 <actObj1.3994+0xc>
    2f7c:	30 91 e7 38 	lds	r19, 0x38E7	; 0x8038e7 <actObj1.3994+0xd>
    2f80:	2d 93       	st	X+, r18
    2f82:	3c 93       	st	X, r19
    reactStr[1][number]=length;
    2f84:	df 01       	movw	r26, r30
    2f86:	aa 0f       	add	r26, r26
    2f88:	bb 1f       	adc	r27, r27
    2f8a:	a5 5a       	subi	r26, 0xA5	; 165
    2f8c:	b6 4c       	sbci	r27, 0xC6	; 198
    2f8e:	8d 93       	st	X+, r24
    2f90:	9c 93       	st	X, r25
    reactStr[2][number]=type;
    2f92:	ee 0f       	add	r30, r30
    2f94:	ff 1f       	adc	r31, r31
    2f96:	e5 56       	subi	r30, 0x65	; 101
    2f98:	f6 4c       	sbci	r31, 0xC6	; 198
    2f9a:	10 82       	st	Z, r1
    2f9c:	11 82       	std	Z+1, r1	; 0x01
    return 0;
}

//
void SetResponse(uint8_t number, uint16_t address, uint16_t length, uint8_t type){
    reactStr[0][number]=address;
    2f9e:	81 e0       	ldi	r24, 0x01	; 1
    2fa0:	86 0d       	add	r24, r6
    2fa2:	90 e0       	ldi	r25, 0x00	; 0
    2fa4:	63 94       	inc	r6
    2fa6:	63 94       	inc	r6
    2fa8:	fc 01       	movw	r30, r24
    2faa:	ee 0f       	add	r30, r30
    2fac:	ff 1f       	adc	r31, r31
    2fae:	e5 5e       	subi	r30, 0xE5	; 229
    2fb0:	f6 4c       	sbci	r31, 0xC6	; 198
    2fb2:	c0 82       	st	Z, r12
    2fb4:	d1 82       	std	Z+1, r13	; 0x01
    reactStr[1][number]=length;
    2fb6:	fc 01       	movw	r30, r24
    2fb8:	ee 0f       	add	r30, r30
    2fba:	ff 1f       	adc	r31, r31
    2fbc:	e5 5a       	subi	r30, 0xA5	; 165
    2fbe:	f6 4c       	sbci	r31, 0xC6	; 198
    2fc0:	a0 82       	st	Z, r10
    2fc2:	b1 82       	std	Z+1, r11	; 0x01
    reactStr[2][number]=type;
    2fc4:	88 0f       	add	r24, r24
    2fc6:	99 1f       	adc	r25, r25
    2fc8:	fc 01       	movw	r30, r24
    2fca:	e5 56       	subi	r30, 0x65	; 101
    2fcc:	f6 4c       	sbci	r31, 0xC6	; 198
    2fce:	80 82       	st	Z, r8
    2fd0:	91 82       	std	Z+1, r9	; 0x01
                            PopulateObject(route[currDepth+1], &actObj1);
                            SetResponse(elements++, actObj1.addrStr[NAME], actObj1.lenStr[NAME],GAME);
                            SetResponse(elements++, A_COMMA, L_COMMA, TEASER);
                        }
                    }
                }while (route[currDepth+1]);
    2fd2:	20 91 2d 38 	lds	r18, 0x382D	; 0x80382d <currDepth>
    2fd6:	82 2f       	mov	r24, r18
    2fd8:	90 e0       	ldi	r25, 0x00	; 0
    2fda:	fc 01       	movw	r30, r24
    2fdc:	ee 0f       	add	r30, r30
    2fde:	ff 1f       	adc	r31, r31
    2fe0:	e3 52       	subi	r30, 0x23	; 35
    2fe2:	f6 4c       	sbci	r31, 0xC6	; 198
    2fe4:	40 81       	ld	r20, Z
    2fe6:	51 81       	ldd	r21, Z+1	; 0x01
    2fe8:	45 2b       	or	r20, r21
    2fea:	09 f0       	breq	.+2      	; 0x2fee <ProcessInput+0x42a>
    2fec:	86 cf       	rjmp	.-244    	; 0x2efa <ProcessInput+0x336>

                //Look back if not on level 0
                if (currDepth) {
    2fee:	22 23       	and	r18, r18
    2ff0:	69 f1       	breq	.+90     	; 0x304c <ProcessInput+0x488>
                    PopulateObject(route[currDepth-1], &actObj1);
    2ff2:	88 0f       	add	r24, r24
    2ff4:	99 1f       	adc	r25, r25
    2ff6:	fc 01       	movw	r30, r24
    2ff8:	e7 52       	subi	r30, 0x27	; 39
    2ffa:	f6 4c       	sbci	r31, 0xC6	; 198
    2ffc:	6a ed       	ldi	r22, 0xDA	; 218
    2ffe:	78 e3       	ldi	r23, 0x38	; 56
    3000:	80 81       	ld	r24, Z
    3002:	91 81       	ldd	r25, Z+1	; 0x01
    3004:	25 d9       	rcall	.-3510   	; 0x2250 <PopulateObject>
                    SetResponse(elements++, actObj1.addrStr[NAME], actObj1.lenStr[NAME],GAME);
    3006:	20 91 f4 38 	lds	r18, 0x38F4	; 0x8038f4 <actObj1.3994+0x1a>
    300a:	30 91 f5 38 	lds	r19, 0x38F5	; 0x8038f5 <actObj1.3994+0x1b>
    300e:	77 24       	eor	r7, r7
    3010:	73 94       	inc	r7
    3012:	76 0c       	add	r7, r6
    return 0;
}

//
void SetResponse(uint8_t number, uint16_t address, uint16_t length, uint8_t type){
    reactStr[0][number]=address;
    3014:	86 2d       	mov	r24, r6
    3016:	90 e0       	ldi	r25, 0x00	; 0
    3018:	fc 01       	movw	r30, r24
    301a:	ee 0f       	add	r30, r30
    301c:	ff 1f       	adc	r31, r31
    301e:	e5 5e       	subi	r30, 0xE5	; 229
    3020:	f6 4c       	sbci	r31, 0xC6	; 198
    3022:	40 91 e6 38 	lds	r20, 0x38E6	; 0x8038e6 <actObj1.3994+0xc>
    3026:	50 91 e7 38 	lds	r21, 0x38E7	; 0x8038e7 <actObj1.3994+0xd>
    302a:	40 83       	st	Z, r20
    302c:	51 83       	std	Z+1, r21	; 0x01
    reactStr[1][number]=length;
    302e:	fc 01       	movw	r30, r24
    3030:	ee 0f       	add	r30, r30
    3032:	ff 1f       	adc	r31, r31
    3034:	e5 5a       	subi	r30, 0xA5	; 165
    3036:	f6 4c       	sbci	r31, 0xC6	; 198
    3038:	20 83       	st	Z, r18
    303a:	31 83       	std	Z+1, r19	; 0x01
    reactStr[2][number]=type;
    303c:	88 0f       	add	r24, r24
    303e:	99 1f       	adc	r25, r25
    3040:	fc 01       	movw	r30, r24
    3042:	e5 56       	subi	r30, 0x65	; 101
    3044:	f6 4c       	sbci	r31, 0xC6	; 198
    3046:	10 82       	st	Z, r1
    3048:	11 82       	std	Z+1, r1	; 0x01
    304a:	b9 c5       	rjmp	.+2930   	; 0x3bbe <ProcessInput+0xffa>

                //Look back if not on level 0
                if (currDepth) {
                    PopulateObject(route[currDepth-1], &actObj1);
                    SetResponse(elements++, actObj1.addrStr[NAME], actObj1.lenStr[NAME],GAME);
                } else elements-=1;
    304c:	77 24       	eor	r7, r7
    304e:	7a 94       	dec	r7
    3050:	76 0c       	add	r7, r6
    3052:	b5 c5       	rjmp	.+2922   	; 0x3bbe <ProcessInput+0xffa>

            } else {
                route[currDepth+1] = FindChild(route[currDepth], data[1], 0);
    3054:	ee 2e       	mov	r14, r30
    3056:	f1 2c       	mov	r15, r1
    3058:	f7 01       	movw	r30, r14
    305a:	ee 0f       	add	r30, r30
    305c:	ff 1f       	adc	r31, r31
    305e:	e5 52       	subi	r30, 0x25	; 37
    3060:	f6 4c       	sbci	r31, 0xC6	; 198
    3062:	40 e0       	ldi	r20, 0x00	; 0
    3064:	50 e0       	ldi	r21, 0x00	; 0
    3066:	d8 01       	movw	r26, r16
    3068:	11 96       	adiw	r26, 0x01	; 1
    306a:	6c 91       	ld	r22, X
    306c:	80 81       	ld	r24, Z
    306e:	91 81       	ldd	r25, Z+1	; 0x01
    3070:	ba d9       	rcall	.-3212   	; 0x23e6 <FindChild>
    3072:	f7 01       	movw	r30, r14
    3074:	ee 0f       	add	r30, r30
    3076:	ff 1f       	adc	r31, r31
    3078:	e3 52       	subi	r30, 0x23	; 35
    307a:	f6 4c       	sbci	r31, 0xC6	; 198
    307c:	80 83       	st	Z, r24
    307e:	91 83       	std	Z+1, r25	; 0x01
                if (route[currDepth+1]) {
    3080:	90 91 2d 38 	lds	r25, 0x382D	; 0x80382d <currDepth>
    3084:	29 2f       	mov	r18, r25
    3086:	30 e0       	ldi	r19, 0x00	; 0
    3088:	f9 01       	movw	r30, r18
    308a:	ee 0f       	add	r30, r30
    308c:	ff 1f       	adc	r31, r31
    308e:	e3 52       	subi	r30, 0x23	; 35
    3090:	f6 4c       	sbci	r31, 0xC6	; 198
    3092:	40 81       	ld	r20, Z
    3094:	51 81       	ldd	r21, Z+1	; 0x01
    3096:	41 15       	cp	r20, r1
    3098:	51 05       	cpc	r21, r1
    309a:	21 f0       	breq	.+8      	; 0x30a4 <ProcessInput+0x4e0>
                    PopulateObject(route[currDepth+1], &actObj1);
    309c:	6a ed       	ldi	r22, 0xDA	; 218
    309e:	78 e3       	ldi	r23, 0x38	; 56
    30a0:	ca 01       	movw	r24, r20
    30a2:	1e c0       	rjmp	.+60     	; 0x30e0 <ProcessInput+0x51c>
//TODO: CHECKSTATE -> A_CANTLOOK item
                    SetResponse(elements++, actObj1.addrStr[DESC], actObj1.lenStr[DESC],GAME);   
                } else if (currDepth) {
    30a4:	99 23       	and	r25, r25
    30a6:	09 f4       	brne	.+2      	; 0x30aa <ProcessInput+0x4e6>
                    if (CheckLetter(route[currDepth-1], data[1])) {
    30a8:	bc c5       	rjmp	.+2936   	; 0x3c22 <ProcessInput+0x105e>
    30aa:	22 0f       	add	r18, r18
    30ac:	33 1f       	adc	r19, r19
    30ae:	f9 01       	movw	r30, r18
    30b0:	e7 52       	subi	r30, 0x27	; 39
    30b2:	f6 4c       	sbci	r31, 0xC6	; 198
    30b4:	d8 01       	movw	r26, r16
    30b6:	11 96       	adiw	r26, 0x01	; 1
    30b8:	6c 91       	ld	r22, X
    30ba:	80 81       	ld	r24, Z
    30bc:	91 81       	ldd	r25, Z+1	; 0x01
    30be:	3f d9       	rcall	.-3458   	; 0x233e <CheckLetter>
    30c0:	81 11       	cpse	r24, r1
    30c2:	03 c0       	rjmp	.+6      	; 0x30ca <ProcessInput+0x506>
}

//The game logic!
uint8_t ProcessInput(uint8_t *data){
    static object_model_t actObj1, actObj2;
    uint8_t elements = 1;
    30c4:	77 24       	eor	r7, r7
    30c6:	73 94       	inc	r7
                    PopulateObject(route[currDepth+1], &actObj1);
//TODO: CHECKSTATE -> A_CANTLOOK item
                    SetResponse(elements++, actObj1.addrStr[DESC], actObj1.lenStr[DESC],GAME);   
                } else if (currDepth) {
                    if (CheckLetter(route[currDepth-1], data[1])) {
                        PopulateObject(route[currDepth-1], &actObj1);
    30c8:	7a c5       	rjmp	.+2804   	; 0x3bbe <ProcessInput+0xffa>
    30ca:	e0 91 2d 38 	lds	r30, 0x382D	; 0x80382d <currDepth>
    30ce:	f0 e0       	ldi	r31, 0x00	; 0
    30d0:	ee 0f       	add	r30, r30
    30d2:	ff 1f       	adc	r31, r31
    30d4:	e7 52       	subi	r30, 0x27	; 39
    30d6:	f6 4c       	sbci	r31, 0xC6	; 198
    30d8:	6a ed       	ldi	r22, 0xDA	; 218
    30da:	78 e3       	ldi	r23, 0x38	; 56
    30dc:	80 81       	ld	r24, Z
    30de:	91 81       	ldd	r25, Z+1	; 0x01
    30e0:	b7 d8       	rcall	.-3730   	; 0x2250 <PopulateObject>
                        SetResponse(elements++, actObj1.addrStr[DESC], actObj1.lenStr[DESC],GAME);
    30e2:	80 91 f6 38 	lds	r24, 0x38F6	; 0x8038f6 <actObj1.3994+0x1c>
    30e6:	90 91 f7 38 	lds	r25, 0x38F7	; 0x8038f7 <actObj1.3994+0x1d>
    return 0;
}

//
void SetResponse(uint8_t number, uint16_t address, uint16_t length, uint8_t type){
    reactStr[0][number]=address;
    30ea:	20 91 e8 38 	lds	r18, 0x38E8	; 0x8038e8 <actObj1.3994+0xe>
    30ee:	30 91 e9 38 	lds	r19, 0x38E9	; 0x8038e9 <actObj1.3994+0xf>
    30f2:	20 93 1d 39 	sts	0x391D, r18	; 0x80391d <reactStr+0x2>
    30f6:	30 93 1e 39 	sts	0x391E, r19	; 0x80391e <reactStr+0x3>
    reactStr[1][number]=length;
    30fa:	80 93 5d 39 	sts	0x395D, r24	; 0x80395d <reactStr+0x42>
    30fe:	90 93 5e 39 	sts	0x395E, r25	; 0x80395e <reactStr+0x43>
    reactStr[2][number]=type;
    3102:	10 92 9d 39 	sts	0x399D, r1	; 0x80399d <reactStr+0x82>
    3106:	10 92 9e 39 	sts	0x399E, r1	; 0x80399e <reactStr+0x83>
    310a:	2a ce       	rjmp	.-940    	; 0x2d60 <ProcessInput+0x19c>
                    SetResponse(elements++, A_DONTSEE, L_DONTSEE, TEASER);
                }
            }
        
        //Pick up an object
        } else if (data[0] == 'p') {
    310c:	80 37       	cpi	r24, 0x70	; 112
    310e:	09 f0       	breq	.+2      	; 0x3112 <ProcessInput+0x54e>
    3110:	96 c0       	rjmp	.+300    	; 0x323e <ProcessInput+0x67a>
            if (inventory[0]&&inventory[1]) {
    3112:	80 91 3e 38 	lds	r24, 0x383E	; 0x80383e <inventory>
    3116:	90 91 3f 38 	lds	r25, 0x383F	; 0x80383f <inventory+0x1>
    311a:	89 2b       	or	r24, r25
    311c:	79 f0       	breq	.+30     	; 0x313c <ProcessInput+0x578>
    311e:	80 91 40 38 	lds	r24, 0x3840	; 0x803840 <inventory+0x2>
    3122:	90 91 41 38 	lds	r25, 0x3841	; 0x803841 <inventory+0x3>
    3126:	89 2b       	or	r24, r25
    3128:	49 f0       	breq	.+18     	; 0x313c <ProcessInput+0x578>
    return 0;
}

//
void SetResponse(uint8_t number, uint16_t address, uint16_t length, uint8_t type){
    reactStr[0][number]=address;
    312a:	84 e4       	ldi	r24, 0x44	; 68
    312c:	98 e7       	ldi	r25, 0x78	; 120
    312e:	80 93 1d 39 	sts	0x391D, r24	; 0x80391d <reactStr+0x2>
    3132:	90 93 1e 39 	sts	0x391E, r25	; 0x80391e <reactStr+0x3>
    reactStr[1][number]=length;
    3136:	89 e5       	ldi	r24, 0x59	; 89
    3138:	90 e0       	ldi	r25, 0x00	; 0
    313a:	08 ce       	rjmp	.-1008   	; 0x2d4c <ProcessInput+0x188>
        
        //Pick up an object
        } else if (data[0] == 'p') {
            if (inventory[0]&&inventory[1]) {
                SetResponse(elements++, A_CARRYTWO, L_CARRYTWO, TEASER);
            } else if (inputLen != 2) {
    313c:	b2 e0       	ldi	r27, 0x02	; 2
    313e:	fb 12       	cpse	r15, r27
    3140:	70 cd       	rjmp	.-1312   	; 0x2c22 <ProcessInput+0x5e>
                SetResponse(elements++, A_NOTPOSSIBLE, L_NOTPOSSIBLE, TEASER);
            } else {
                route[currDepth+1] = FindChild(route[currDepth], data[1], 0);
    3142:	e0 90 2d 38 	lds	r14, 0x382D	; 0x80382d <currDepth>
    3146:	f1 2c       	mov	r15, r1
    3148:	f7 01       	movw	r30, r14
    314a:	ee 0f       	add	r30, r30
    314c:	ff 1f       	adc	r31, r31
    314e:	e5 52       	subi	r30, 0x25	; 37
    3150:	f6 4c       	sbci	r31, 0xC6	; 198
    3152:	40 e0       	ldi	r20, 0x00	; 0
    3154:	50 e0       	ldi	r21, 0x00	; 0
    3156:	d8 01       	movw	r26, r16
    3158:	11 96       	adiw	r26, 0x01	; 1
    315a:	6c 91       	ld	r22, X
    315c:	80 81       	ld	r24, Z
    315e:	91 81       	ldd	r25, Z+1	; 0x01
    3160:	42 d9       	rcall	.-3452   	; 0x23e6 <FindChild>
    3162:	f7 01       	movw	r30, r14
    3164:	ee 0f       	add	r30, r30
    3166:	ff 1f       	adc	r31, r31
    3168:	e3 52       	subi	r30, 0x23	; 35
    316a:	f6 4c       	sbci	r31, 0xC6	; 198
    316c:	80 83       	st	Z, r24
    316e:	91 83       	std	Z+1, r25	; 0x01
                if (route[currDepth+1]) {
    3170:	20 91 2d 38 	lds	r18, 0x382D	; 0x80382d <currDepth>
    3174:	30 e0       	ldi	r19, 0x00	; 0
    3176:	2f 5f       	subi	r18, 0xFF	; 255
    3178:	3f 4f       	sbci	r19, 0xFF	; 255
    317a:	22 0f       	add	r18, r18
    317c:	33 1f       	adc	r19, r19
    317e:	f9 01       	movw	r30, r18
    3180:	e5 52       	subi	r30, 0x25	; 37
    3182:	f6 4c       	sbci	r31, 0xC6	; 198
    3184:	80 81       	ld	r24, Z
    3186:	91 81       	ldd	r25, Z+1	; 0x01
    3188:	00 97       	sbiw	r24, 0x00	; 0
    318a:	09 f4       	brne	.+2      	; 0x318e <ProcessInput+0x5ca>
    318c:	ca c3       	rjmp	.+1940   	; 0x3922 <ProcessInput+0xd5e>
                    if ((route[currDepth+1] == inventory[0])||(route[currDepth+1] == inventory[1])) {
    318e:	40 91 3e 38 	lds	r20, 0x383E	; 0x80383e <inventory>
    3192:	50 91 3f 38 	lds	r21, 0x383F	; 0x80383f <inventory+0x1>
    3196:	84 17       	cp	r24, r20
    3198:	95 07       	cpc	r25, r21
    319a:	39 f0       	breq	.+14     	; 0x31aa <ProcessInput+0x5e6>
    319c:	40 91 40 38 	lds	r20, 0x3840	; 0x803840 <inventory+0x2>
    31a0:	50 91 41 38 	lds	r21, 0x3841	; 0x803841 <inventory+0x3>
    31a4:	84 17       	cp	r24, r20
    31a6:	95 07       	cpc	r25, r21
    31a8:	c1 f4       	brne	.+48     	; 0x31da <ProcessInput+0x616>
    return 0;
}

//
void SetResponse(uint8_t number, uint16_t address, uint16_t length, uint8_t type){
    reactStr[0][number]=address;
    31aa:	8f e1       	ldi	r24, 0x1F	; 31
    31ac:	98 e7       	ldi	r25, 0x78	; 120
    31ae:	80 93 1d 39 	sts	0x391D, r24	; 0x80391d <reactStr+0x2>
    31b2:	90 93 1e 39 	sts	0x391E, r25	; 0x80391e <reactStr+0x3>
    reactStr[1][number]=length;
    31b6:	85 e2       	ldi	r24, 0x25	; 37
    31b8:	90 e0       	ldi	r25, 0x00	; 0
    31ba:	80 93 5d 39 	sts	0x395D, r24	; 0x80395d <reactStr+0x42>
    31be:	90 93 5e 39 	sts	0x395E, r25	; 0x80395e <reactStr+0x43>
    reactStr[2][number]=type;
    31c2:	81 e0       	ldi	r24, 0x01	; 1
    31c4:	90 e0       	ldi	r25, 0x00	; 0
    31c6:	80 93 9d 39 	sts	0x399D, r24	; 0x80399d <reactStr+0x82>
    31ca:	90 93 9e 39 	sts	0x399E, r25	; 0x80399e <reactStr+0x83>
            } else {
                route[currDepth+1] = FindChild(route[currDepth], data[1], 0);
                if (route[currDepth+1]) {
                    if ((route[currDepth+1] == inventory[0])||(route[currDepth+1] == inventory[1])) {
                        SetResponse(elements++, A_ALREADYCARRYING, L_ALREADYCARRYING, TEASER);
                        route[currDepth+1] = 0;
    31ce:	f9 01       	movw	r30, r18
    31d0:	e5 52       	subi	r30, 0x25	; 37
    31d2:	f6 4c       	sbci	r31, 0xC6	; 198
    31d4:	10 82       	st	Z, r1
    31d6:	11 82       	std	Z+1, r1	; 0x01
                    } else {
                        //Put item in the inventory if possible
                        PopulateObject(route[currDepth+1], &actObj1);  
    31d8:	c3 cd       	rjmp	.-1146   	; 0x2d60 <ProcessInput+0x19c>
    31da:	6a ed       	ldi	r22, 0xDA	; 218
    31dc:	78 e3       	ldi	r23, 0x38	; 56
    31de:	38 d8       	rcall	.-3984   	; 0x2250 <PopulateObject>
                        if (CheckState(actObj1.byteField[ACTION_ACL])) {
    31e0:	80 91 e1 38 	lds	r24, 0x38E1	; 0x8038e1 <actObj1.3994+0x7>
    31e4:	0e 94 a4 0a 	call	0x1548	; 0x1548 <CheckState>
    31e8:	88 23       	and	r24, r24
    31ea:	09 f4       	brne	.+2      	; 0x31ee <ProcessInput+0x62a>
    31ec:	75 c3       	rjmp	.+1770   	; 0x38d8 <ProcessInput+0xd14>
                            if (actObj1.byteField[ITEM_NR]) {
    31ee:	80 91 e5 38 	lds	r24, 0x38E5	; 0x8038e5 <actObj1.3994+0xb>
    31f2:	88 23       	and	r24, r24
    31f4:	09 f4       	brne	.+2      	; 0x31f8 <ProcessInput+0x634>
    31f6:	15 cd       	rjmp	.-1494   	; 0x2c22 <ProcessInput+0x5e>
                                if (inventory[0]) {
    31f8:	80 91 3e 38 	lds	r24, 0x383E	; 0x80383e <inventory>
    31fc:	90 91 3f 38 	lds	r25, 0x383F	; 0x80383f <inventory+0x1>
    3200:	e0 91 2d 38 	lds	r30, 0x382D	; 0x80382d <currDepth>
                                    inventory[1] = route[currDepth+1];
    3204:	f0 e0       	ldi	r31, 0x00	; 0
    3206:	ee 0f       	add	r30, r30
    3208:	ff 1f       	adc	r31, r31
    320a:	e3 52       	subi	r30, 0x23	; 35
    320c:	f6 4c       	sbci	r31, 0xC6	; 198
                    } else {
                        //Put item in the inventory if possible
                        PopulateObject(route[currDepth+1], &actObj1);  
                        if (CheckState(actObj1.byteField[ACTION_ACL])) {
                            if (actObj1.byteField[ITEM_NR]) {
                                if (inventory[0]) {
    320e:	89 2b       	or	r24, r25
    3210:	39 f0       	breq	.+14     	; 0x3220 <ProcessInput+0x65c>
                                    inventory[1] = route[currDepth+1];
    3212:	80 81       	ld	r24, Z
    3214:	91 81       	ldd	r25, Z+1	; 0x01
    3216:	80 93 40 38 	sts	0x3840, r24	; 0x803840 <inventory+0x2>
    321a:	90 93 41 38 	sts	0x3841, r25	; 0x803841 <inventory+0x3>
    321e:	06 c0       	rjmp	.+12     	; 0x322c <ProcessInput+0x668>
                                } else {
                                    inventory[0] = route[currDepth+1];
    3220:	80 81       	ld	r24, Z
    3222:	91 81       	ldd	r25, Z+1	; 0x01
    3224:	80 93 3e 38 	sts	0x383E, r24	; 0x80383e <inventory>
    3228:	90 93 3f 38 	sts	0x383F, r25	; 0x80383f <inventory+0x1>
    return 0;
}

//
void SetResponse(uint8_t number, uint16_t address, uint16_t length, uint8_t type){
    reactStr[0][number]=address;
    322c:	89 e0       	ldi	r24, 0x09	; 9
    322e:	98 e7       	ldi	r25, 0x78	; 120
    3230:	80 93 1d 39 	sts	0x391D, r24	; 0x80391d <reactStr+0x2>
    3234:	90 93 1e 39 	sts	0x391E, r25	; 0x80391e <reactStr+0x3>
    reactStr[1][number]=length;
    3238:	86 e1       	ldi	r24, 0x16	; 22
    323a:	90 e0       	ldi	r25, 0x00	; 0
    323c:	5e c2       	rjmp	.+1212   	; 0x36fa <ProcessInput+0xb36>
                } else SetResponse(elements++, A_NOSUCHOBJECT, L_NOSUCHOBJECT, TEASER);
            }
        } else

        //Drop item if in inventory
        if (data[0] == 'd') {
    323e:	84 36       	cpi	r24, 0x64	; 100
    3240:	d9 f4       	brne	.+54     	; 0x3278 <ProcessInput+0x6b4>
            if ((inventory[0] == 0)&&(inventory[1] == 0)){
    3242:	80 91 3e 38 	lds	r24, 0x383E	; 0x80383e <inventory>
    3246:	90 91 3f 38 	lds	r25, 0x383F	; 0x80383f <inventory+0x1>
    324a:	00 97       	sbiw	r24, 0x00	; 0
    324c:	09 f0       	breq	.+2      	; 0x3250 <ProcessInput+0x68c>
    324e:	ec c4       	rjmp	.+2520   	; 0x3c28 <ProcessInput+0x1064>
    3250:	80 91 40 38 	lds	r24, 0x3840	; 0x803840 <inventory+0x2>
    3254:	90 91 41 38 	lds	r25, 0x3841	; 0x803841 <inventory+0x3>
    3258:	89 2b       	or	r24, r25
    325a:	49 f4       	brne	.+18     	; 0x326e <ProcessInput+0x6aa>
    return 0;
}

//
void SetResponse(uint8_t number, uint16_t address, uint16_t length, uint8_t type){
    reactStr[0][number]=address;
    325c:	83 ee       	ldi	r24, 0xE3	; 227
    325e:	97 e7       	ldi	r25, 0x77	; 119
    3260:	80 93 1d 39 	sts	0x391D, r24	; 0x80391d <reactStr+0x2>
    3264:	90 93 1e 39 	sts	0x391E, r25	; 0x80391e <reactStr+0x3>
    reactStr[1][number]=length;
    3268:	86 e2       	ldi	r24, 0x26	; 38
    326a:	90 e0       	ldi	r25, 0x00	; 0
    326c:	6f cd       	rjmp	.-1314   	; 0x2d4c <ProcessInput+0x188>

        //Drop item if in inventory
        if (data[0] == 'd') {
            if ((inventory[0] == 0)&&(inventory[1] == 0)){
                SetResponse(elements++, A_EMPTYHANDS, L_EMPTYHANDS, TEASER);
            } else if (inputLen != 2) {
    326e:	b2 e0       	ldi	r27, 0x02	; 2
    3270:	fb 16       	cp	r15, r27
    3272:	09 f4       	brne	.+2      	; 0x3276 <ProcessInput+0x6b2>
    3274:	40 c5       	rjmp	.+2688   	; 0x3cf6 <ProcessInput+0x1132>
    3276:	d5 cc       	rjmp	.-1622   	; 0x2c22 <ProcessInput+0x5e>
                    if (x) SetResponse(elements++, A_NOTCARRYING, L_NOTCARRYING, TEASER);
                }
            }

        //Inventory list
        } else if (data[0] == 'i') {
    3278:	89 36       	cpi	r24, 0x69	; 105
    327a:	09 f0       	breq	.+2      	; 0x327e <ProcessInput+0x6ba>
    327c:	7b c0       	rjmp	.+246    	; 0x3374 <ProcessInput+0x7b0>
            if ((inventory[0] == 0)&&(inventory[1] == 0)){
    327e:	80 91 3e 38 	lds	r24, 0x383E	; 0x80383e <inventory>
    3282:	90 91 3f 38 	lds	r25, 0x383F	; 0x80383f <inventory+0x1>
    3286:	89 2b       	or	r24, r25
    3288:	31 f4       	brne	.+12     	; 0x3296 <ProcessInput+0x6d2>
    328a:	80 91 40 38 	lds	r24, 0x3840	; 0x803840 <inventory+0x2>
    328e:	90 91 41 38 	lds	r25, 0x3841	; 0x803841 <inventory+0x3>
    3292:	89 2b       	or	r24, r25
    3294:	19 f3       	breq	.-58     	; 0x325c <ProcessInput+0x698>
    return 0;
}

//
void SetResponse(uint8_t number, uint16_t address, uint16_t length, uint8_t type){
    reactStr[0][number]=address;
    3296:	89 e0       	ldi	r24, 0x09	; 9
    3298:	98 e7       	ldi	r25, 0x78	; 120
    329a:	80 93 1d 39 	sts	0x391D, r24	; 0x80391d <reactStr+0x2>
    329e:	90 93 1e 39 	sts	0x391E, r25	; 0x80391e <reactStr+0x3>
    reactStr[1][number]=length;
    32a2:	86 e1       	ldi	r24, 0x16	; 22
    32a4:	90 e0       	ldi	r25, 0x00	; 0
    32a6:	80 93 5d 39 	sts	0x395D, r24	; 0x80395d <reactStr+0x42>
    32aa:	90 93 5e 39 	sts	0x395E, r25	; 0x80395e <reactStr+0x43>
    reactStr[2][number]=type;
    32ae:	81 e0       	ldi	r24, 0x01	; 1
    32b0:	90 e0       	ldi	r25, 0x00	; 0
    32b2:	80 93 9d 39 	sts	0x399D, r24	; 0x80399d <reactStr+0x82>
    32b6:	90 93 9e 39 	sts	0x399E, r25	; 0x80399e <reactStr+0x83>
    32ba:	2e e3       	ldi	r18, 0x3E	; 62
    32bc:	e2 2e       	mov	r14, r18
    32be:	28 e3       	ldi	r18, 0x38	; 56
    32c0:	f2 2e       	mov	r15, r18
    32c2:	32 e4       	ldi	r19, 0x42	; 66
    32c4:	63 2e       	mov	r6, r19
    32c6:	38 e3       	ldi	r19, 0x38	; 56
    32c8:	73 2e       	mov	r7, r19
        //Inventory list
        } else if (data[0] == 'i') {
            if ((inventory[0] == 0)&&(inventory[1] == 0)){
                SetResponse(elements++, A_EMPTYHANDS, L_EMPTYHANDS, TEASER);
            } else {
                SetResponse(elements++, A_NOWCARRING, L_NOWCARRING, TEASER);
    32ca:	42 e0       	ldi	r20, 0x02	; 2
    32cc:	54 2e       	mov	r5, r20
    return 0;
}

//
void SetResponse(uint8_t number, uint16_t address, uint16_t length, uint8_t type){
    reactStr[0][number]=address;
    32ce:	59 e5       	ldi	r21, 0x59	; 89
    32d0:	c5 2e       	mov	r12, r21
    32d2:	5a e7       	ldi	r21, 0x7A	; 122
    32d4:	d5 2e       	mov	r13, r21
    reactStr[1][number]=length;
    32d6:	62 e0       	ldi	r22, 0x02	; 2
    32d8:	a6 2e       	mov	r10, r22
    32da:	b1 2c       	mov	r11, r1
    reactStr[2][number]=type;
    32dc:	88 24       	eor	r8, r8
    32de:	83 94       	inc	r8
    32e0:	91 2c       	mov	r9, r1
            } else {
                SetResponse(elements++, A_NOWCARRING, L_NOWCARRING, TEASER);
                //SetResponse(elements++, A_SPACE, L_SPACE, TEASER);
                
                for (uint8_t x=0; x<2; ++x) {
                    if (inventory[x]) {
    32e2:	d7 01       	movw	r26, r14
    32e4:	8d 91       	ld	r24, X+
    32e6:	9d 91       	ld	r25, X+
    32e8:	7d 01       	movw	r14, r26
    32ea:	00 97       	sbiw	r24, 0x00	; 0
    32ec:	d9 f1       	breq	.+118    	; 0x3364 <ProcessInput+0x7a0>
                        PopulateObject(inventory[x], &actObj1);
    32ee:	6a ed       	ldi	r22, 0xDA	; 218
    32f0:	78 e3       	ldi	r23, 0x38	; 56
    32f2:	0e 94 28 11 	call	0x2250	; 0x2250 <PopulateObject>
                        SetResponse(elements++, actObj1.addrStr[NAME], actObj1.lenStr[NAME], GAME);
    32f6:	80 91 f4 38 	lds	r24, 0x38F4	; 0x8038f4 <actObj1.3994+0x1a>
    32fa:	90 91 f5 38 	lds	r25, 0x38F5	; 0x8038f5 <actObj1.3994+0x1b>
    return 0;
}

//
void SetResponse(uint8_t number, uint16_t address, uint16_t length, uint8_t type){
    reactStr[0][number]=address;
    32fe:	e5 2d       	mov	r30, r5
    3300:	f0 e0       	ldi	r31, 0x00	; 0
    3302:	df 01       	movw	r26, r30
    3304:	aa 0f       	add	r26, r26
    3306:	bb 1f       	adc	r27, r27
    3308:	a5 5e       	subi	r26, 0xE5	; 229
    330a:	b6 4c       	sbci	r27, 0xC6	; 198
    330c:	20 91 e6 38 	lds	r18, 0x38E6	; 0x8038e6 <actObj1.3994+0xc>
    3310:	30 91 e7 38 	lds	r19, 0x38E7	; 0x8038e7 <actObj1.3994+0xd>
    3314:	2d 93       	st	X+, r18
    3316:	3c 93       	st	X, r19
    reactStr[1][number]=length;
    3318:	df 01       	movw	r26, r30
    331a:	aa 0f       	add	r26, r26
    331c:	bb 1f       	adc	r27, r27
    331e:	a5 5a       	subi	r26, 0xA5	; 165
    3320:	b6 4c       	sbci	r27, 0xC6	; 198
    3322:	8d 93       	st	X+, r24
    3324:	9c 93       	st	X, r25
    reactStr[2][number]=type;
    3326:	ee 0f       	add	r30, r30
    3328:	ff 1f       	adc	r31, r31
    332a:	e5 56       	subi	r30, 0x65	; 101
    332c:	f6 4c       	sbci	r31, 0xC6	; 198
    332e:	10 82       	st	Z, r1
    3330:	11 82       	std	Z+1, r1	; 0x01
    return 0;
}

//
void SetResponse(uint8_t number, uint16_t address, uint16_t length, uint8_t type){
    reactStr[0][number]=address;
    3332:	e1 e0       	ldi	r30, 0x01	; 1
    3334:	e5 0d       	add	r30, r5
    3336:	f0 e0       	ldi	r31, 0x00	; 0
    3338:	53 94       	inc	r5
    333a:	53 94       	inc	r5
    333c:	df 01       	movw	r26, r30
    333e:	aa 0f       	add	r26, r26
    3340:	bb 1f       	adc	r27, r27
    3342:	a5 5e       	subi	r26, 0xE5	; 229
    3344:	b6 4c       	sbci	r27, 0xC6	; 198
    3346:	cd 92       	st	X+, r12
    3348:	dc 92       	st	X, r13
    reactStr[1][number]=length;
    334a:	df 01       	movw	r26, r30
    334c:	aa 0f       	add	r26, r26
    334e:	bb 1f       	adc	r27, r27
    3350:	a5 5a       	subi	r26, 0xA5	; 165
    3352:	b6 4c       	sbci	r27, 0xC6	; 198
    3354:	ad 92       	st	X+, r10
    3356:	bc 92       	st	X, r11
    reactStr[2][number]=type;
    3358:	ee 0f       	add	r30, r30
    335a:	ff 1f       	adc	r31, r31
    335c:	e5 56       	subi	r30, 0x65	; 101
    335e:	f6 4c       	sbci	r31, 0xC6	; 198
    3360:	80 82       	st	Z, r8
    3362:	91 82       	std	Z+1, r9	; 0x01
                SetResponse(elements++, A_EMPTYHANDS, L_EMPTYHANDS, TEASER);
            } else {
                SetResponse(elements++, A_NOWCARRING, L_NOWCARRING, TEASER);
                //SetResponse(elements++, A_SPACE, L_SPACE, TEASER);
                
                for (uint8_t x=0; x<2; ++x) {
    3364:	6e 14       	cp	r6, r14
    3366:	7f 04       	cpc	r7, r15
    3368:	09 f0       	breq	.+2      	; 0x336c <ProcessInput+0x7a8>
    336a:	bb cf       	rjmp	.-138    	; 0x32e2 <ProcessInput+0x71e>
                        SetResponse(elements++, actObj1.addrStr[NAME], actObj1.lenStr[NAME], GAME);
                        SetResponse(elements++, A_COMMA, L_COMMA, TEASER);
                        //SetResponse(elements++, A_SPACE, L_SPACE, TEASER);
                    }
                }
                elements -= 1;
    336c:	77 24       	eor	r7, r7
    336e:	7a 94       	dec	r7
    3370:	75 0c       	add	r7, r5
    3372:	25 c4       	rjmp	.+2122   	; 0x3bbe <ProcessInput+0xffa>
            }            
        
        //Talk, use, give, read
        } else if ((data[0] == 't')||(data[0] == 'u')||(data[0] == 'g')||(data[0] == 'r')) {
    3374:	9c e8       	ldi	r25, 0x8C	; 140
    3376:	98 0f       	add	r25, r24
    3378:	92 30       	cpi	r25, 0x02	; 2
    337a:	28 f0       	brcs	.+10     	; 0x3386 <ProcessInput+0x7c2>
    337c:	87 36       	cpi	r24, 0x67	; 103
    337e:	19 f0       	breq	.+6      	; 0x3386 <ProcessInput+0x7c2>
    3380:	82 37       	cpi	r24, 0x72	; 114
    3382:	09 f0       	breq	.+2      	; 0x3386 <ProcessInput+0x7c2>
    3384:	d7 c2       	rjmp	.+1454   	; 0x3934 <ProcessInput+0xd70>
            if ((inputLen<2)||(inputLen>3)) {
    3386:	8e ef       	ldi	r24, 0xFE	; 254
    3388:	8f 0d       	add	r24, r15
    338a:	82 30       	cpi	r24, 0x02	; 2
    338c:	08 f0       	brcs	.+2      	; 0x3390 <ProcessInput+0x7cc>
    338e:	49 cc       	rjmp	.-1902   	; 0x2c22 <ProcessInput+0x5e>
                SetResponse(elements++, A_NOTPOSSIBLE, L_NOTPOSSIBLE, TEASER);                
            
            //Check for visible person or object first
            } else {
                route[currDepth+1] = FindChild(route[currDepth], data[inputLen-1], 0);
    3390:	e0 91 2d 38 	lds	r30, 0x382D	; 0x80382d <currDepth>
    3394:	ce 2e       	mov	r12, r30
    3396:	d1 2c       	mov	r13, r1
    3398:	d8 01       	movw	r26, r16
    339a:	af 0d       	add	r26, r15
    339c:	b1 1d       	adc	r27, r1
    339e:	11 97       	sbiw	r26, 0x01	; 1
    33a0:	f6 01       	movw	r30, r12
    33a2:	ee 0f       	add	r30, r30
    33a4:	ff 1f       	adc	r31, r31
    33a6:	e5 52       	subi	r30, 0x25	; 37
    33a8:	f6 4c       	sbci	r31, 0xC6	; 198
    33aa:	40 e0       	ldi	r20, 0x00	; 0
    33ac:	50 e0       	ldi	r21, 0x00	; 0
    33ae:	6c 91       	ld	r22, X
    33b0:	80 81       	ld	r24, Z
    33b2:	91 81       	ldd	r25, Z+1	; 0x01
    33b4:	18 d8       	rcall	.-4048   	; 0x23e6 <FindChild>
    33b6:	f6 01       	movw	r30, r12
    33b8:	ee 0f       	add	r30, r30
    33ba:	ff 1f       	adc	r31, r31
    33bc:	e3 52       	subi	r30, 0x23	; 35
    33be:	f6 4c       	sbci	r31, 0xC6	; 198
    33c0:	80 83       	st	Z, r24
    33c2:	91 83       	std	Z+1, r25	; 0x01
                if (route[currDepth+1]) {
    33c4:	e0 91 2d 38 	lds	r30, 0x382D	; 0x80382d <currDepth>
    33c8:	f0 e0       	ldi	r31, 0x00	; 0
    33ca:	ee 0f       	add	r30, r30
    33cc:	ff 1f       	adc	r31, r31
    33ce:	e3 52       	subi	r30, 0x23	; 35
    33d0:	f6 4c       	sbci	r31, 0xC6	; 198
    33d2:	80 81       	ld	r24, Z
    33d4:	91 81       	ldd	r25, Z+1	; 0x01
    33d6:	00 97       	sbiw	r24, 0x00	; 0
    33d8:	09 f4       	brne	.+2      	; 0x33dc <ProcessInput+0x818>
    33da:	9a c2       	rjmp	.+1332   	; 0x3910 <ProcessInput+0xd4c>
                    
                    //Give item to person / use item on object 
                    if ((inputLen == 3)&&((data[0] == 'u')||(data[0] == 'g'))) {
    33dc:	b3 e0       	ldi	r27, 0x03	; 3
    33de:	fb 12       	cpse	r15, r27
    33e0:	78 c1       	rjmp	.+752    	; 0x36d2 <ProcessInput+0xb0e>
    33e2:	f8 01       	movw	r30, r16
    33e4:	20 81       	ld	r18, Z
    33e6:	25 37       	cpi	r18, 0x75	; 117
    33e8:	19 f0       	breq	.+6      	; 0x33f0 <ProcessInput+0x82c>
    33ea:	27 36       	cpi	r18, 0x67	; 103
    33ec:	09 f0       	breq	.+2      	; 0x33f0 <ProcessInput+0x82c>
    33ee:	71 c1       	rjmp	.+738    	; 0x36d2 <ProcessInput+0xb0e>
    33f0:	61 2c       	mov	r6, r1
    33f2:	77 24       	eor	r7, r7
    33f4:	73 94       	inc	r7
    return 0;
}

//
void SetResponse(uint8_t number, uint16_t address, uint16_t length, uint8_t type){
    reactStr[0][number]=address;
    33f6:	53 e6       	ldi	r21, 0x63	; 99
    33f8:	c5 2e       	mov	r12, r21
    33fa:	59 e7       	ldi	r21, 0x79	; 121
    33fc:	d5 2e       	mov	r13, r21
    reactStr[1][number]=length;
    33fe:	61 e2       	ldi	r22, 0x21	; 33
    3400:	a6 2e       	mov	r10, r22
    3402:	b1 2c       	mov	r11, r1
    reactStr[2][number]=type;
    3404:	88 24       	eor	r8, r8
    3406:	83 94       	inc	r8
    3408:	91 2c       	mov	r9, r1
                if (route[currDepth+1]) {
                    
                    //Give item to person / use item on object 
                    if ((inputLen == 3)&&((data[0] == 'u')||(data[0] == 'g'))) {
                        for (uint8_t x=0; x<2; x++) {
                            if (inventory[x]) { 
    340a:	e6 2c       	mov	r14, r6
    340c:	f1 2c       	mov	r15, r1
    340e:	c7 01       	movw	r24, r14
    3410:	88 0f       	add	r24, r24
    3412:	99 1f       	adc	r25, r25
    3414:	9c 01       	movw	r18, r24
    3416:	22 5c       	subi	r18, 0xC2	; 194
    3418:	37 4c       	sbci	r19, 0xC7	; 199
    341a:	79 01       	movw	r14, r18
    341c:	d9 01       	movw	r26, r18
    341e:	8d 91       	ld	r24, X+
    3420:	9c 91       	ld	r25, X
    3422:	00 97       	sbiw	r24, 0x00	; 0
    3424:	81 f0       	breq	.+32     	; 0x3446 <ProcessInput+0x882>
                                if (CheckLetter(inventory[x], data[1])) {
    3426:	f8 01       	movw	r30, r16
    3428:	61 81       	ldd	r22, Z+1	; 0x01
    342a:	0e 94 9f 11 	call	0x233e	; 0x233e <CheckLetter>
    342e:	88 23       	and	r24, r24
    3430:	51 f0       	breq	.+20     	; 0x3446 <ProcessInput+0x882>
                                    PopulateObject(inventory[x], &actObj2);
    3432:	6f ea       	ldi	r22, 0xAF	; 175
    3434:	78 e3       	ldi	r23, 0x38	; 56
    3436:	d7 01       	movw	r26, r14
    3438:	8d 91       	ld	r24, X+
    343a:	9c 91       	ld	r25, X
    343c:	0e 94 28 11 	call	0x2250	; 0x2250 <PopulateObject>
                                    x = 2;
    3440:	32 e0       	ldi	r19, 0x02	; 2
    3442:	63 2e       	mov	r6, r19
    3444:	1e c0       	rjmp	.+60     	; 0x3482 <ProcessInput+0x8be>
                                }
                            }
                            if (x == 1) { 
    3446:	b1 e0       	ldi	r27, 0x01	; 1
    3448:	6b 12       	cpse	r6, r27
    344a:	1a c0       	rjmp	.+52     	; 0x3480 <ProcessInput+0x8bc>
    return 0;
}

//
void SetResponse(uint8_t number, uint16_t address, uint16_t length, uint8_t type){
    reactStr[0][number]=address;
    344c:	e7 2d       	mov	r30, r7
    344e:	f0 e0       	ldi	r31, 0x00	; 0
    3450:	df 01       	movw	r26, r30
    3452:	aa 0f       	add	r26, r26
    3454:	bb 1f       	adc	r27, r27
    3456:	a5 5e       	subi	r26, 0xE5	; 229
    3458:	b6 4c       	sbci	r27, 0xC6	; 198
    345a:	cd 92       	st	X+, r12
    345c:	dc 92       	st	X, r13
    reactStr[1][number]=length;
    345e:	df 01       	movw	r26, r30
    3460:	aa 0f       	add	r26, r26
    3462:	bb 1f       	adc	r27, r27
    3464:	a5 5a       	subi	r26, 0xA5	; 165
    3466:	b6 4c       	sbci	r27, 0xC6	; 198
    3468:	ad 92       	st	X+, r10
    346a:	bc 92       	st	X, r11
    reactStr[2][number]=type;
    346c:	ee 0f       	add	r30, r30
    346e:	ff 1f       	adc	r31, r31
    3470:	e5 56       	subi	r30, 0x65	; 101
    3472:	f6 4c       	sbci	r31, 0xC6	; 198
    3474:	80 82       	st	Z, r8
    3476:	91 82       	std	Z+1, r9	; 0x01
                                    x = 2;
                                }
                            }
                            if (x == 1) { 
                                SetResponse(elements++, A_NOTCARRYING, L_NOTCARRYING, TEASER);
                                data[0] = 0;
    3478:	f8 01       	movw	r30, r16
    347a:	10 82       	st	Z, r1
                                    PopulateObject(inventory[x], &actObj2);
                                    x = 2;
                                }
                            }
                            if (x == 1) { 
                                SetResponse(elements++, A_NOTCARRYING, L_NOTCARRYING, TEASER);
    347c:	73 94       	inc	r7
    347e:	01 c0       	rjmp	.+2      	; 0x3482 <ProcessInput+0x8be>
    3480:	61 2c       	mov	r6, r1
                route[currDepth+1] = FindChild(route[currDepth], data[inputLen-1], 0);
                if (route[currDepth+1]) {
                    
                    //Give item to person / use item on object 
                    if ((inputLen == 3)&&((data[0] == 'u')||(data[0] == 'g'))) {
                        for (uint8_t x=0; x<2; x++) {
    3482:	63 94       	inc	r6
    3484:	f1 e0       	ldi	r31, 0x01	; 1
    3486:	6f 16       	cp	r6, r31
    3488:	09 f4       	brne	.+2      	; 0x348c <ProcessInput+0x8c8>
    348a:	bf cf       	rjmp	.-130    	; 0x340a <ProcessInput+0x846>
                                data[0] = 0;
                            }
                        }

                        //Both the item and person/object are found, check if action is legit
                        if (data[0]){
    348c:	d8 01       	movw	r26, r16
    348e:	8c 91       	ld	r24, X
    3490:	88 23       	and	r24, r24
    3492:	09 f4       	brne	.+2      	; 0x3496 <ProcessInput+0x8d2>
    3494:	94 c3       	rjmp	.+1832   	; 0x3bbe <ProcessInput+0xffa>
                            PopulateObject(route[currDepth+1], &actObj1);
    3496:	e0 91 2d 38 	lds	r30, 0x382D	; 0x80382d <currDepth>
    349a:	f0 e0       	ldi	r31, 0x00	; 0
    349c:	ee 0f       	add	r30, r30
    349e:	ff 1f       	adc	r31, r31
    34a0:	e3 52       	subi	r30, 0x23	; 35
    34a2:	f6 4c       	sbci	r31, 0xC6	; 198
    34a4:	6a ed       	ldi	r22, 0xDA	; 218
    34a6:	78 e3       	ldi	r23, 0x38	; 56
    34a8:	80 81       	ld	r24, Z
    34aa:	91 81       	ldd	r25, Z+1	; 0x01
    34ac:	0e 94 28 11 	call	0x2250	; 0x2250 <PopulateObject>

                            //Special game
                            if (actObj1.lenStr[ACTION_STR1] == 1) {
    34b0:	e0 90 f8 38 	lds	r14, 0x38F8	; 0x8038f8 <actObj1.3994+0x1e>
    34b4:	f0 90 f9 38 	lds	r15, 0x38F9	; 0x8038f9 <actObj1.3994+0x1f>
    34b8:	b1 e0       	ldi	r27, 0x01	; 1
    34ba:	eb 16       	cp	r14, r27
    34bc:	f1 04       	cpc	r15, r1
    34be:	09 f0       	breq	.+2      	; 0x34c2 <ProcessInput+0x8fe>
    34c0:	9a c0       	rjmp	.+308    	; 0x35f6 <ProcessInput+0xa32>
                                ExtEERead(actObj1.addrStr[ACTION_STR1], 1, GAME, &data[2]);
    34c2:	98 01       	movw	r18, r16
    34c4:	2e 5f       	subi	r18, 0xFE	; 254
    34c6:	3f 4f       	sbci	r19, 0xFF	; 255
    34c8:	40 e0       	ldi	r20, 0x00	; 0
    34ca:	61 e0       	ldi	r22, 0x01	; 1
    34cc:	80 91 ea 38 	lds	r24, 0x38EA	; 0x8038ea <actObj1.3994+0x10>
    34d0:	90 91 eb 38 	lds	r25, 0x38EB	; 0x8038eb <actObj1.3994+0x11>
    34d4:	0e 94 18 10 	call	0x2030	; 0x2030 <ExtEERead>
                                if (data[2] == '1') {
    34d8:	f8 01       	movw	r30, r16
    34da:	42 81       	ldd	r20, Z+2	; 0x02
    34dc:	21 e0       	ldi	r18, 0x01	; 1
    34de:	27 0d       	add	r18, r7
    34e0:	87 2d       	mov	r24, r7
    34e2:	90 e0       	ldi	r25, 0x00	; 0
    34e4:	41 33       	cpi	r20, 0x31	; 49
    34e6:	09 f0       	breq	.+2      	; 0x34ea <ProcessInput+0x926>
    34e8:	6b c0       	rjmp	.+214    	; 0x35c0 <ProcessInput+0x9fc>
                                    uint8_t item = actObj2.byteField[ITEM_NR];
    34ea:	30 91 ba 38 	lds	r19, 0x38BA	; 0x8038ba <actObj2.3995+0xb>
                                    if ((item < 31)||(item > 34)) {
    34ee:	51 ee       	ldi	r21, 0xE1	; 225
    34f0:	53 0f       	add	r21, r19
    return 0;
}

//
void SetResponse(uint8_t number, uint16_t address, uint16_t length, uint8_t type){
    reactStr[0][number]=address;
    34f2:	fc 01       	movw	r30, r24
    34f4:	ee 0f       	add	r30, r30
    34f6:	ff 1f       	adc	r31, r31
    34f8:	e5 5e       	subi	r30, 0xE5	; 229
    34fa:	f6 4c       	sbci	r31, 0xC6	; 198
                            //Special game
                            if (actObj1.lenStr[ACTION_STR1] == 1) {
                                ExtEERead(actObj1.addrStr[ACTION_STR1], 1, GAME, &data[2]);
                                if (data[2] == '1') {
                                    uint8_t item = actObj2.byteField[ITEM_NR];
                                    if ((item < 31)||(item > 34)) {
    34fc:	54 30       	cpi	r21, 0x04	; 4
    34fe:	60 f0       	brcs	.+24     	; 0x3518 <ProcessInput+0x954>
    return 0;
}

//
void SetResponse(uint8_t number, uint16_t address, uint16_t length, uint8_t type){
    reactStr[0][number]=address;
    3500:	43 e0       	ldi	r20, 0x03	; 3
    3502:	59 e7       	ldi	r21, 0x79	; 121
    3504:	40 83       	st	Z, r20
    3506:	51 83       	std	Z+1, r21	; 0x01
    reactStr[1][number]=length;
    3508:	fc 01       	movw	r30, r24
    350a:	ee 0f       	add	r30, r30
    350c:	ff 1f       	adc	r31, r31
    350e:	e5 5a       	subi	r30, 0xA5	; 165
    3510:	f6 4c       	sbci	r31, 0xC6	; 198
    3512:	4a e1       	ldi	r20, 0x1A	; 26
    3514:	50 e0       	ldi	r21, 0x00	; 0
    3516:	64 c0       	rjmp	.+200    	; 0x35e0 <ProcessInput+0xa1c>
    return 0;
}

//
void SetResponse(uint8_t number, uint16_t address, uint16_t length, uint8_t type){
    reactStr[0][number]=address;
    3518:	6d e8       	ldi	r22, 0x8D	; 141
    351a:	75 e7       	ldi	r23, 0x75	; 117
    351c:	60 83       	st	Z, r22
    351e:	71 83       	std	Z+1, r23	; 0x01
    reactStr[1][number]=length;
    3520:	fc 01       	movw	r30, r24
    3522:	ee 0f       	add	r30, r30
    3524:	ff 1f       	adc	r31, r31
    3526:	e5 5a       	subi	r30, 0xA5	; 165
    3528:	f6 4c       	sbci	r31, 0xC6	; 198
    352a:	62 eb       	ldi	r22, 0xB2	; 178
    352c:	70 e0       	ldi	r23, 0x00	; 0
    352e:	60 83       	st	Z, r22
    3530:	71 83       	std	Z+1, r23	; 0x01
    reactStr[2][number]=type;
    3532:	88 0f       	add	r24, r24
    3534:	99 1f       	adc	r25, r25
    3536:	fc 01       	movw	r30, r24
    3538:	e5 56       	subi	r30, 0x65	; 101
    353a:	f6 4c       	sbci	r31, 0xC6	; 198
    353c:	e0 82       	st	Z, r14
    353e:	f1 82       	std	Z+1, r15	; 0x01
    return 0;
}

//
void SetResponse(uint8_t number, uint16_t address, uint16_t length, uint8_t type){
    reactStr[0][number]=address;
    3540:	82 2f       	mov	r24, r18
    3542:	90 e0       	ldi	r25, 0x00	; 0
    3544:	fc 01       	movw	r30, r24
    3546:	ee 0f       	add	r30, r30
    3548:	ff 1f       	adc	r31, r31
    354a:	e5 5e       	subi	r30, 0xE5	; 229
    354c:	f6 4c       	sbci	r31, 0xC6	; 198
    354e:	6b e5       	ldi	r22, 0x5B	; 91
    3550:	7a e7       	ldi	r23, 0x7A	; 122
    3552:	60 83       	st	Z, r22
    3554:	71 83       	std	Z+1, r23	; 0x01
    reactStr[1][number]=length;
    3556:	fc 01       	movw	r30, r24
    3558:	ee 0f       	add	r30, r30
    355a:	ff 1f       	adc	r31, r31
    355c:	e5 5a       	subi	r30, 0xA5	; 165
    355e:	f6 4c       	sbci	r31, 0xC6	; 198
    3560:	62 e0       	ldi	r22, 0x02	; 2
    3562:	70 e0       	ldi	r23, 0x00	; 0
    3564:	60 83       	st	Z, r22
    3566:	71 83       	std	Z+1, r23	; 0x01
    reactStr[2][number]=type;
    3568:	88 0f       	add	r24, r24
    356a:	99 1f       	adc	r25, r25
    356c:	fc 01       	movw	r30, r24
    356e:	e5 56       	subi	r30, 0x65	; 101
    3570:	f6 4c       	sbci	r31, 0xC6	; 198
    3572:	e0 82       	st	Z, r14
    3574:	f1 82       	std	Z+1, r15	; 0x01
    return 0;
}

//
void SetResponse(uint8_t number, uint16_t address, uint16_t length, uint8_t type){
    reactStr[0][number]=address;
    3576:	82 e0       	ldi	r24, 0x02	; 2
    3578:	87 0d       	add	r24, r7
    357a:	90 e0       	ldi	r25, 0x00	; 0
    357c:	f3 e0       	ldi	r31, 0x03	; 3
    357e:	7f 0e       	add	r7, r31
    3580:	fc 01       	movw	r30, r24
    3582:	ee 0f       	add	r30, r30
    3584:	ff 1f       	adc	r31, r31
    3586:	e5 5e       	subi	r30, 0xE5	; 229
    3588:	f6 4c       	sbci	r31, 0xC6	; 198
    358a:	6f ea       	ldi	r22, 0xAF	; 175
    358c:	78 e7       	ldi	r23, 0x78	; 120
    358e:	60 83       	st	Z, r22
    3590:	71 83       	std	Z+1, r23	; 0x01
    reactStr[1][number]=length;
    3592:	fc 01       	movw	r30, r24
    3594:	ee 0f       	add	r30, r30
    3596:	ff 1f       	adc	r31, r31
    3598:	e5 5a       	subi	r30, 0xA5	; 165
    359a:	f6 4c       	sbci	r31, 0xC6	; 198
    359c:	62 e1       	ldi	r22, 0x12	; 18
    359e:	70 e0       	ldi	r23, 0x00	; 0
    35a0:	60 83       	st	Z, r22
    35a2:	71 83       	std	Z+1, r23	; 0x01
    reactStr[2][number]=type;
    35a4:	88 0f       	add	r24, r24
    35a6:	99 1f       	adc	r25, r25
    35a8:	fc 01       	movw	r30, r24
    35aa:	e5 56       	subi	r30, 0x65	; 101
    35ac:	f6 4c       	sbci	r31, 0xC6	; 198
    35ae:	e0 82       	st	Z, r14
    35b0:	f1 82       	std	Z+1, r15	; 0x01
                                        SetResponse(elements++, A_CANTUSE, L_CANTUSE, TEASER);
                                    } else {
                                        SetResponse(elements++, A_PRIEST, L_PRIEST, TEASER);
                                        SetResponse(elements++, A_LF, 2, TEASER);
                                        SetResponse(elements++, A_RESPONSE, L_RESPONSE, TEASER);
                                        specialInput[0] = '1';
    35b2:	40 93 0a 39 	sts	0x390A, r20	; 0x80390a <specialInput>
                                        specialInput[1] = item;
    35b6:	30 93 0b 39 	sts	0x390B, r19	; 0x80390b <specialInput+0x1>
                                        specialInput[2] = 0;
    35ba:	10 92 0c 39 	sts	0x390C, r1	; 0x80390c <specialInput+0x2>
    35be:	ff c2       	rjmp	.+1534   	; 0x3bbe <ProcessInput+0xffa>
    return 0;
}

//
void SetResponse(uint8_t number, uint16_t address, uint16_t length, uint8_t type){
    reactStr[0][number]=address;
    35c0:	fc 01       	movw	r30, r24
    35c2:	ee 0f       	add	r30, r30
    35c4:	ff 1f       	adc	r31, r31
    35c6:	e5 5e       	subi	r30, 0xE5	; 229
    35c8:	f6 4c       	sbci	r31, 0xC6	; 198
    35ca:	4f e3       	ldi	r20, 0x3F	; 63
    35cc:	56 e7       	ldi	r21, 0x76	; 118
    35ce:	40 83       	st	Z, r20
    35d0:	51 83       	std	Z+1, r21	; 0x01
    reactStr[1][number]=length;
    35d2:	fc 01       	movw	r30, r24
    35d4:	ee 0f       	add	r30, r30
    35d6:	ff 1f       	adc	r31, r31
    35d8:	e5 5a       	subi	r30, 0xA5	; 165
    35da:	f6 4c       	sbci	r31, 0xC6	; 198
    35dc:	42 e4       	ldi	r20, 0x42	; 66
    35de:	50 e0       	ldi	r21, 0x00	; 0
    35e0:	40 83       	st	Z, r20
    35e2:	51 83       	std	Z+1, r21	; 0x01
    reactStr[2][number]=type;
    35e4:	88 0f       	add	r24, r24
    35e6:	99 1f       	adc	r25, r25
    35e8:	fc 01       	movw	r30, r24
    35ea:	e5 56       	subi	r30, 0x65	; 101
    35ec:	f6 4c       	sbci	r31, 0xC6	; 198
    35ee:	e0 82       	st	Z, r14
    35f0:	f1 82       	std	Z+1, r15	; 0x01
                                        specialInput[2] = 0;
                                    }

                                //There should not be another special
                                } else {
                                    SetResponse(elements++, A_ERROR, L_ERROR, TEASER);
    35f2:	72 2e       	mov	r7, r18
    35f4:	e4 c2       	rjmp	.+1480   	; 0x3bbe <ProcessInput+0xffa>
                                }

                            //Normal "use ... on ..." or "give ... to ..." action
                            } else if (actObj1.byteField[ACTION_ITEM] == actObj2.byteField[ITEM_NR]) {
    35f6:	90 91 e3 38 	lds	r25, 0x38E3	; 0x8038e3 <actObj1.3994+0x9>
    35fa:	80 91 ba 38 	lds	r24, 0x38BA	; 0x8038ba <actObj2.3995+0xb>
    35fe:	98 13       	cpse	r25, r24
    3600:	2f c0       	rjmp	.+94     	; 0x3660 <ProcessInput+0xa9c>
                                SetResponse(elements++, actObj1.addrStr[ACTION_MSG], actObj1.lenStr[ACTION_MSG], GAME);
    3602:	20 91 00 39 	lds	r18, 0x3900	; 0x803900 <actObj1.3994+0x26>
    3606:	30 91 01 39 	lds	r19, 0x3901	; 0x803901 <actObj1.3994+0x27>
    360a:	ff 24       	eor	r15, r15
    360c:	f3 94       	inc	r15
    360e:	f7 0c       	add	r15, r7
    return 0;
}

//
void SetResponse(uint8_t number, uint16_t address, uint16_t length, uint8_t type){
    reactStr[0][number]=address;
    3610:	87 2d       	mov	r24, r7
    3612:	90 e0       	ldi	r25, 0x00	; 0
    3614:	fc 01       	movw	r30, r24
    3616:	ee 0f       	add	r30, r30
    3618:	ff 1f       	adc	r31, r31
    361a:	e5 5e       	subi	r30, 0xE5	; 229
    361c:	f6 4c       	sbci	r31, 0xC6	; 198
    361e:	40 91 f2 38 	lds	r20, 0x38F2	; 0x8038f2 <actObj1.3994+0x18>
    3622:	50 91 f3 38 	lds	r21, 0x38F3	; 0x8038f3 <actObj1.3994+0x19>
    3626:	40 83       	st	Z, r20
    3628:	51 83       	std	Z+1, r21	; 0x01
    reactStr[1][number]=length;
    362a:	fc 01       	movw	r30, r24
    362c:	ee 0f       	add	r30, r30
    362e:	ff 1f       	adc	r31, r31
    3630:	e5 5a       	subi	r30, 0xA5	; 165
    3632:	f6 4c       	sbci	r31, 0xC6	; 198
    3634:	20 83       	st	Z, r18
    3636:	31 83       	std	Z+1, r19	; 0x01
    reactStr[2][number]=type;
    3638:	88 0f       	add	r24, r24
    363a:	99 1f       	adc	r25, r25
    363c:	fc 01       	movw	r30, r24
    363e:	e5 56       	subi	r30, 0x65	; 101
    3640:	f6 4c       	sbci	r31, 0xC6	; 198
    3642:	10 82       	st	Z, r1
    3644:	11 82       	std	Z+1, r1	; 0x01
                                }

                            //Normal "use ... on ..." or "give ... to ..." action
                            } else if (actObj1.byteField[ACTION_ITEM] == actObj2.byteField[ITEM_NR]) {
                                SetResponse(elements++, actObj1.addrStr[ACTION_MSG], actObj1.lenStr[ACTION_MSG], GAME);
                                effect = actObj1.effect[2];
    3646:	80 91 04 39 	lds	r24, 0x3904	; 0x803904 <actObj1.3994+0x2a>
    364a:	90 e0       	ldi	r25, 0x00	; 0
    364c:	80 93 3a 38 	sts	0x383A, r24	; 0x80383a <effect>
    3650:	90 93 3b 38 	sts	0x383B, r25	; 0x80383b <effect+0x1>
                                UpdateState(actObj1.byteField[ACTION_STATE]);
    3654:	80 91 e4 38 	lds	r24, 0x38E4	; 0x8038e4 <actObj1.3994+0xa>
    3658:	0e 94 9a 0a 	call	0x1534	; 0x1534 <UpdateState>
                                    SetResponse(elements++, A_ERROR, L_ERROR, TEASER);
                                }

                            //Normal "use ... on ..." or "give ... to ..." action
                            } else if (actObj1.byteField[ACTION_ITEM] == actObj2.byteField[ITEM_NR]) {
                                SetResponse(elements++, actObj1.addrStr[ACTION_MSG], actObj1.lenStr[ACTION_MSG], GAME);
    365c:	7f 2c       	mov	r7, r15
    365e:	af c2       	rjmp	.+1374   	; 0x3bbe <ProcessInput+0xffa>
                                effect = actObj1.effect[2];
                                UpdateState(actObj1.byteField[ACTION_STATE]);
                                
                            } else {
                                if (data[0] == 'u') {
    3660:	d8 01       	movw	r26, r16
    3662:	8c 91       	ld	r24, X
    3664:	85 37       	cpi	r24, 0x75	; 117
    3666:	99 f4       	brne	.+38     	; 0x368e <ProcessInput+0xaca>
    return 0;
}

//
void SetResponse(uint8_t number, uint16_t address, uint16_t length, uint8_t type){
    reactStr[0][number]=address;
    3668:	87 2d       	mov	r24, r7
    366a:	90 e0       	ldi	r25, 0x00	; 0
    366c:	fc 01       	movw	r30, r24
    366e:	ee 0f       	add	r30, r30
    3670:	ff 1f       	adc	r31, r31
    3672:	e5 5e       	subi	r30, 0xE5	; 229
    3674:	f6 4c       	sbci	r31, 0xC6	; 198
    3676:	23 e0       	ldi	r18, 0x03	; 3
    3678:	39 e7       	ldi	r19, 0x79	; 121
    367a:	20 83       	st	Z, r18
    367c:	31 83       	std	Z+1, r19	; 0x01
    reactStr[1][number]=length;
    367e:	fc 01       	movw	r30, r24
    3680:	ee 0f       	add	r30, r30
    3682:	ff 1f       	adc	r31, r31
    3684:	e5 5a       	subi	r30, 0xA5	; 165
    3686:	f6 4c       	sbci	r31, 0xC6	; 198
    3688:	2a e1       	ldi	r18, 0x1A	; 26
    368a:	30 e0       	ldi	r19, 0x00	; 0
    368c:	15 c0       	rjmp	.+42     	; 0x36b8 <ProcessInput+0xaf4>
                                UpdateState(actObj1.byteField[ACTION_STATE]);
                                
                            } else {
                                if (data[0] == 'u') {
                                    SetResponse(elements++, A_CANTUSE, L_CANTUSE, TEASER);
                                } else if (data[0] == 'g') {
    368e:	87 36       	cpi	r24, 0x67	; 103
    3690:	09 f0       	breq	.+2      	; 0x3694 <ProcessInput+0xad0>
    3692:	95 c2       	rjmp	.+1322   	; 0x3bbe <ProcessInput+0xffa>
    return 0;
}

//
void SetResponse(uint8_t number, uint16_t address, uint16_t length, uint8_t type){
    reactStr[0][number]=address;
    3694:	87 2d       	mov	r24, r7
    3696:	90 e0       	ldi	r25, 0x00	; 0
    3698:	fc 01       	movw	r30, r24
    369a:	ee 0f       	add	r30, r30
    369c:	ff 1f       	adc	r31, r31
    369e:	e5 5e       	subi	r30, 0xE5	; 229
    36a0:	f6 4c       	sbci	r31, 0xC6	; 198
    36a2:	2c ed       	ldi	r18, 0xDC	; 220
    36a4:	36 e7       	ldi	r19, 0x76	; 118
    36a6:	20 83       	st	Z, r18
    36a8:	31 83       	std	Z+1, r19	; 0x01
    reactStr[1][number]=length;
    36aa:	fc 01       	movw	r30, r24
    36ac:	ee 0f       	add	r30, r30
    36ae:	ff 1f       	adc	r31, r31
    36b0:	e5 5a       	subi	r30, 0xA5	; 165
    36b2:	f6 4c       	sbci	r31, 0xC6	; 198
    36b4:	28 e2       	ldi	r18, 0x28	; 40
    36b6:	30 e0       	ldi	r19, 0x00	; 0
    36b8:	20 83       	st	Z, r18
    36ba:	31 83       	std	Z+1, r19	; 0x01
    reactStr[2][number]=type;
    36bc:	88 0f       	add	r24, r24
    36be:	99 1f       	adc	r25, r25
    36c0:	fc 01       	movw	r30, r24
    36c2:	e5 56       	subi	r30, 0x65	; 101
    36c4:	f6 4c       	sbci	r31, 0xC6	; 198
    36c6:	81 e0       	ldi	r24, 0x01	; 1
    36c8:	90 e0       	ldi	r25, 0x00	; 0
    36ca:	80 83       	st	Z, r24
    36cc:	91 83       	std	Z+1, r25	; 0x01
                                
                            } else {
                                if (data[0] == 'u') {
                                    SetResponse(elements++, A_CANTUSE, L_CANTUSE, TEASER);
                                } else if (data[0] == 'g') {
                                    SetResponse(elements++, A_CANTGIVE, L_CANTGIVE, TEASER);                                    
    36ce:	73 94       	inc	r7
    36d0:	76 c2       	rjmp	.+1260   	; 0x3bbe <ProcessInput+0xffa>
                            }
                        }
                    
                    //Talk to person, read or use object (without item)                          
                    } else {
                        PopulateObject(route[currDepth+1], &actObj1);
    36d2:	6a ed       	ldi	r22, 0xDA	; 218
    36d4:	78 e3       	ldi	r23, 0x38	; 56
    36d6:	0e 94 28 11 	call	0x2250	; 0x2250 <PopulateObject>
                        if ((data[0] == 't')&&((actObj1.byteField[ACTION_MASK]&TALK) == 0)) {
    36da:	f8 01       	movw	r30, r16
    36dc:	80 81       	ld	r24, Z
    36de:	84 37       	cpi	r24, 0x74	; 116
    36e0:	69 f5       	brne	.+90     	; 0x373c <ProcessInput+0xb78>
    36e2:	80 91 e2 38 	lds	r24, 0x38E2	; 0x8038e2 <actObj1.3994+0x8>
    36e6:	83 fd       	sbrc	r24, 3
    36e8:	4a c0       	rjmp	.+148    	; 0x377e <ProcessInput+0xbba>
    return 0;
}

//
void SetResponse(uint8_t number, uint16_t address, uint16_t length, uint8_t type){
    reactStr[0][number]=address;
    36ea:	8d e1       	ldi	r24, 0x1D	; 29
    36ec:	99 e7       	ldi	r25, 0x79	; 121
    36ee:	80 93 1d 39 	sts	0x391D, r24	; 0x80391d <reactStr+0x2>
    36f2:	90 93 1e 39 	sts	0x391E, r25	; 0x80391e <reactStr+0x3>
    reactStr[1][number]=length;
    36f6:	8e e1       	ldi	r24, 0x1E	; 30
    36f8:	90 e0       	ldi	r25, 0x00	; 0
    36fa:	80 93 5d 39 	sts	0x395D, r24	; 0x80395d <reactStr+0x42>
    36fe:	90 93 5e 39 	sts	0x395E, r25	; 0x80395e <reactStr+0x43>
    reactStr[2][number]=type;
    3702:	81 e0       	ldi	r24, 0x01	; 1
    3704:	90 e0       	ldi	r25, 0x00	; 0
    3706:	80 93 9d 39 	sts	0x399D, r24	; 0x80399d <reactStr+0x82>
    370a:	90 93 9e 39 	sts	0x399E, r25	; 0x80399e <reactStr+0x83>
                    //Talk to person, read or use object (without item)                          
                    } else {
                        PopulateObject(route[currDepth+1], &actObj1);
                        if ((data[0] == 't')&&((actObj1.byteField[ACTION_MASK]&TALK) == 0)) {
                            SetResponse(elements++, A_WHYTALK, L_WHYTALK, TEASER);
                            SetResponse(elements++, actObj1.addrStr[NAME], actObj1.lenStr[NAME], GAME);
    370e:	80 91 f4 38 	lds	r24, 0x38F4	; 0x8038f4 <actObj1.3994+0x1a>
    3712:	90 91 f5 38 	lds	r25, 0x38F5	; 0x8038f5 <actObj1.3994+0x1b>
    return 0;
}

//
void SetResponse(uint8_t number, uint16_t address, uint16_t length, uint8_t type){
    reactStr[0][number]=address;
    3716:	20 91 e6 38 	lds	r18, 0x38E6	; 0x8038e6 <actObj1.3994+0xc>
    371a:	30 91 e7 38 	lds	r19, 0x38E7	; 0x8038e7 <actObj1.3994+0xd>
    371e:	20 93 1f 39 	sts	0x391F, r18	; 0x80391f <reactStr+0x4>
    3722:	30 93 20 39 	sts	0x3920, r19	; 0x803920 <reactStr+0x5>
    reactStr[1][number]=length;
    3726:	80 93 5f 39 	sts	0x395F, r24	; 0x80395f <reactStr+0x44>
    372a:	90 93 60 39 	sts	0x3960, r25	; 0x803960 <reactStr+0x45>
    reactStr[2][number]=type;
    372e:	10 92 9f 39 	sts	0x399F, r1	; 0x80399f <reactStr+0x84>
    3732:	10 92 a0 39 	sts	0x39A0, r1	; 0x8039a0 <reactStr+0x85>
                    //Talk to person, read or use object (without item)                          
                    } else {
                        PopulateObject(route[currDepth+1], &actObj1);
                        if ((data[0] == 't')&&((actObj1.byteField[ACTION_MASK]&TALK) == 0)) {
                            SetResponse(elements++, A_WHYTALK, L_WHYTALK, TEASER);
                            SetResponse(elements++, actObj1.addrStr[NAME], actObj1.lenStr[NAME], GAME);
    3736:	e3 e0       	ldi	r30, 0x03	; 3
    3738:	7e 2e       	mov	r7, r30
    373a:	41 c2       	rjmp	.+1154   	; 0x3bbe <ProcessInput+0xffa>
                        } else if ((data[0] == 'u')&&((actObj1.byteField[ACTION_MASK]&USE) == 0)) {
    373c:	85 37       	cpi	r24, 0x75	; 117
    373e:	69 f4       	brne	.+26     	; 0x375a <ProcessInput+0xb96>
    3740:	80 91 e2 38 	lds	r24, 0x38E2	; 0x8038e2 <actObj1.3994+0x8>
    3744:	84 fd       	sbrc	r24, 4
    3746:	1b c0       	rjmp	.+54     	; 0x377e <ProcessInput+0xbba>
    return 0;
}

//
void SetResponse(uint8_t number, uint16_t address, uint16_t length, uint8_t type){
    reactStr[0][number]=address;
    3748:	83 e0       	ldi	r24, 0x03	; 3
    374a:	99 e7       	ldi	r25, 0x79	; 121
    374c:	80 93 1d 39 	sts	0x391D, r24	; 0x80391d <reactStr+0x2>
    3750:	90 93 1e 39 	sts	0x391E, r25	; 0x80391e <reactStr+0x3>
    reactStr[1][number]=length;
    3754:	8a e1       	ldi	r24, 0x1A	; 26
    3756:	90 e0       	ldi	r25, 0x00	; 0
    3758:	f9 ca       	rjmp	.-2574   	; 0x2d4c <ProcessInput+0x188>
                        if ((data[0] == 't')&&((actObj1.byteField[ACTION_MASK]&TALK) == 0)) {
                            SetResponse(elements++, A_WHYTALK, L_WHYTALK, TEASER);
                            SetResponse(elements++, actObj1.addrStr[NAME], actObj1.lenStr[NAME], GAME);
                        } else if ((data[0] == 'u')&&((actObj1.byteField[ACTION_MASK]&USE) == 0)) {
                            SetResponse(elements++, A_CANTUSE, L_CANTUSE, TEASER);
                        } else if ((data[0] == 'r')&&((actObj1.byteField[ACTION_MASK]&READ) == 0)) {
    375a:	82 37       	cpi	r24, 0x72	; 114
    375c:	69 f4       	brne	.+26     	; 0x3778 <ProcessInput+0xbb4>
    375e:	80 91 e2 38 	lds	r24, 0x38E2	; 0x8038e2 <actObj1.3994+0x8>
    3762:	85 fd       	sbrc	r24, 5
    3764:	0c c0       	rjmp	.+24     	; 0x377e <ProcessInput+0xbba>
    return 0;
}

//
void SetResponse(uint8_t number, uint16_t address, uint16_t length, uint8_t type){
    reactStr[0][number]=address;
    3766:	88 ee       	ldi	r24, 0xE8	; 232
    3768:	98 e7       	ldi	r25, 0x78	; 120
    376a:	80 93 1d 39 	sts	0x391D, r24	; 0x80391d <reactStr+0x2>
    376e:	90 93 1e 39 	sts	0x391E, r25	; 0x80391e <reactStr+0x3>
    reactStr[1][number]=length;
    3772:	8b e1       	ldi	r24, 0x1B	; 27
    3774:	90 e0       	ldi	r25, 0x00	; 0
    3776:	ea ca       	rjmp	.-2604   	; 0x2d4c <ProcessInput+0x188>
                            SetResponse(elements++, actObj1.addrStr[NAME], actObj1.lenStr[NAME], GAME);
                        } else if ((data[0] == 'u')&&((actObj1.byteField[ACTION_MASK]&USE) == 0)) {
                            SetResponse(elements++, A_CANTUSE, L_CANTUSE, TEASER);
                        } else if ((data[0] == 'r')&&((actObj1.byteField[ACTION_MASK]&READ) == 0)) {
                            SetResponse(elements++, A_CANTREAD, L_CANTREAD, TEASER);
                        } else if (data[0] == 'g'){ 
    3778:	87 36       	cpi	r24, 0x67	; 103
    377a:	09 f4       	brne	.+2      	; 0x377e <ProcessInput+0xbba>
    377c:	52 ca       	rjmp	.-2908   	; 0x2c22 <ProcessInput+0x5e>
                            SetResponse(elements++, A_NOTPOSSIBLE, L_NOTPOSSIBLE, TEASER);  
                        } else {

                            //Special game, not enough characters
                            if (actObj1.lenStr[ACTION_STR1] == 1) {
    377e:	e0 90 f8 38 	lds	r14, 0x38F8	; 0x8038f8 <actObj1.3994+0x1e>
    3782:	f0 90 f9 38 	lds	r15, 0x38F9	; 0x8038f9 <actObj1.3994+0x1f>
    3786:	f1 e0       	ldi	r31, 0x01	; 1
    3788:	ef 16       	cp	r14, r31
    378a:	f1 04       	cpc	r15, r1
    378c:	11 f5       	brne	.+68     	; 0x37d2 <ProcessInput+0xc0e>
                                ExtEERead(actObj1.addrStr[ACTION_STR1], 1, GAME, &data[2]);
    378e:	98 01       	movw	r18, r16
    3790:	2e 5f       	subi	r18, 0xFE	; 254
    3792:	3f 4f       	sbci	r19, 0xFF	; 255
    3794:	40 e0       	ldi	r20, 0x00	; 0
    3796:	61 e0       	ldi	r22, 0x01	; 1
    3798:	80 91 ea 38 	lds	r24, 0x38EA	; 0x8038ea <actObj1.3994+0x10>
    379c:	90 91 eb 38 	lds	r25, 0x38EB	; 0x8038eb <actObj1.3994+0x11>
    37a0:	0e 94 18 10 	call	0x2030	; 0x2030 <ExtEERead>
                                if (data[2] == '1') {
    37a4:	d8 01       	movw	r26, r16
    37a6:	12 96       	adiw	r26, 0x02	; 2
    37a8:	8c 91       	ld	r24, X
    37aa:	81 33       	cpi	r24, 0x31	; 49
    37ac:	09 f0       	breq	.+2      	; 0x37b0 <ProcessInput+0xbec>
    37ae:	8a cc       	rjmp	.-1772   	; 0x30c4 <ProcessInput+0x500>
    return 0;
}

//
void SetResponse(uint8_t number, uint16_t address, uint16_t length, uint8_t type){
    reactStr[0][number]=address;
    37b0:	82 e6       	ldi	r24, 0x62	; 98
    37b2:	95 e7       	ldi	r25, 0x75	; 117
    37b4:	80 93 1d 39 	sts	0x391D, r24	; 0x80391d <reactStr+0x2>
    37b8:	90 93 1e 39 	sts	0x391E, r25	; 0x80391e <reactStr+0x3>
    reactStr[1][number]=length;
    37bc:	8b e2       	ldi	r24, 0x2B	; 43
    37be:	90 e0       	ldi	r25, 0x00	; 0
    37c0:	80 93 5d 39 	sts	0x395D, r24	; 0x80395d <reactStr+0x42>
    37c4:	90 93 5e 39 	sts	0x395E, r25	; 0x80395e <reactStr+0x43>
    reactStr[2][number]=type;
    37c8:	e0 92 9d 39 	sts	0x399D, r14	; 0x80399d <reactStr+0x82>
    37cc:	f0 92 9e 39 	sts	0x399E, r15	; 0x80399e <reactStr+0x83>
    37d0:	c7 ca       	rjmp	.-2674   	; 0x2d60 <ProcessInput+0x19c>
                                if (data[2] == '1') {
                                    SetResponse(elements++, A_PLEASEOFFER, L_PLEASEOFFER, TEASER);
                                }

                            //General request
                            } else if (actObj1.lenStr[ACTION_STR1]) {
    37d2:	e1 14       	cp	r14, r1
    37d4:	f1 04       	cpc	r15, r1
    37d6:	09 f4       	brne	.+2      	; 0x37da <ProcessInput+0xc16>
    37d8:	59 c0       	rjmp	.+178    	; 0x388c <ProcessInput+0xcc8>
    return 0;
}

//
void SetResponse(uint8_t number, uint16_t address, uint16_t length, uint8_t type){
    reactStr[0][number]=address;
    37da:	80 91 ea 38 	lds	r24, 0x38EA	; 0x8038ea <actObj1.3994+0x10>
    37de:	90 91 eb 38 	lds	r25, 0x38EB	; 0x8038eb <actObj1.3994+0x11>
    37e2:	80 93 1d 39 	sts	0x391D, r24	; 0x80391d <reactStr+0x2>
    37e6:	90 93 1e 39 	sts	0x391E, r25	; 0x80391e <reactStr+0x3>
    reactStr[1][number]=length;
    37ea:	e0 92 5d 39 	sts	0x395D, r14	; 0x80395d <reactStr+0x42>
    37ee:	f0 92 5e 39 	sts	0x395E, r15	; 0x80395e <reactStr+0x43>
    reactStr[2][number]=type;
    37f2:	10 92 9d 39 	sts	0x399D, r1	; 0x80399d <reactStr+0x82>
    37f6:	10 92 9e 39 	sts	0x399E, r1	; 0x80399e <reactStr+0x83>
    return 0;
}

//
void SetResponse(uint8_t number, uint16_t address, uint16_t length, uint8_t type){
    reactStr[0][number]=address;
    37fa:	8b e5       	ldi	r24, 0x5B	; 91
    37fc:	9a e7       	ldi	r25, 0x7A	; 122
    37fe:	80 93 1f 39 	sts	0x391F, r24	; 0x80391f <reactStr+0x4>
    3802:	90 93 20 39 	sts	0x3920, r25	; 0x803920 <reactStr+0x5>
    reactStr[1][number]=length;
    3806:	82 e0       	ldi	r24, 0x02	; 2
    3808:	90 e0       	ldi	r25, 0x00	; 0
    380a:	80 93 5f 39 	sts	0x395F, r24	; 0x80395f <reactStr+0x44>
    380e:	90 93 60 39 	sts	0x3960, r25	; 0x803960 <reactStr+0x45>
    reactStr[2][number]=type;
    3812:	81 e0       	ldi	r24, 0x01	; 1
    3814:	90 e0       	ldi	r25, 0x00	; 0
    3816:	80 93 9f 39 	sts	0x399F, r24	; 0x80399f <reactStr+0x84>
    381a:	90 93 a0 39 	sts	0x39A0, r25	; 0x8039a0 <reactStr+0x85>
    return 0;
}

//
void SetResponse(uint8_t number, uint16_t address, uint16_t length, uint8_t type){
    reactStr[0][number]=address;
    381e:	2f ea       	ldi	r18, 0xAF	; 175
    3820:	38 e7       	ldi	r19, 0x78	; 120
    3822:	20 93 21 39 	sts	0x3921, r18	; 0x803921 <reactStr+0x6>
    3826:	30 93 22 39 	sts	0x3922, r19	; 0x803922 <reactStr+0x7>
    reactStr[1][number]=length;
    382a:	22 e1       	ldi	r18, 0x12	; 18
    382c:	30 e0       	ldi	r19, 0x00	; 0
    382e:	20 93 61 39 	sts	0x3961, r18	; 0x803961 <reactStr+0x46>
    3832:	30 93 62 39 	sts	0x3962, r19	; 0x803962 <reactStr+0x47>
    reactStr[2][number]=type;
    3836:	80 93 a1 39 	sts	0x39A1, r24	; 0x8039a1 <reactStr+0x86>
    383a:	90 93 a2 39 	sts	0x39A2, r25	; 0x8039a2 <reactStr+0x87>
                            //General request
                            } else if (actObj1.lenStr[ACTION_STR1]) {
                                SetResponse(elements++, actObj1.addrStr[ACTION_STR1], actObj1.lenStr[ACTION_STR1], GAME);
                                SetResponse(elements++, A_LF, 2, TEASER);
                                SetResponse(elements++, A_RESPONSE, L_RESPONSE, TEASER);
                                if (actObj1.lenStr[ACTION_STR2]>(INP_LENGTH-1)) actObj1.lenStr[ACTION_STR2] = (INP_LENGTH-1);
    383e:	80 91 fa 38 	lds	r24, 0x38FA	; 0x8038fa <actObj1.3994+0x20>
    3842:	90 91 fb 38 	lds	r25, 0x38FB	; 0x8038fb <actObj1.3994+0x21>
    3846:	40 97       	sbiw	r24, 0x10	; 16
    3848:	30 f0       	brcs	.+12     	; 0x3856 <ProcessInput+0xc92>
    384a:	8f e0       	ldi	r24, 0x0F	; 15
    384c:	90 e0       	ldi	r25, 0x00	; 0
    384e:	80 93 fa 38 	sts	0x38FA, r24	; 0x8038fa <actObj1.3994+0x20>
    3852:	90 93 fb 38 	sts	0x38FB, r25	; 0x8038fb <actObj1.3994+0x21>
                                ExtEERead(actObj1.addrStr[ACTION_STR2], actObj1.lenStr[ACTION_STR2], GAME, (uint8_t *)&specialInput[0]);
    3856:	2a e0       	ldi	r18, 0x0A	; 10
    3858:	39 e3       	ldi	r19, 0x39	; 57
    385a:	40 e0       	ldi	r20, 0x00	; 0
    385c:	60 91 fa 38 	lds	r22, 0x38FA	; 0x8038fa <actObj1.3994+0x20>
    3860:	80 91 ec 38 	lds	r24, 0x38EC	; 0x8038ec <actObj1.3994+0x12>
    3864:	90 91 ed 38 	lds	r25, 0x38ED	; 0x8038ed <actObj1.3994+0x13>
    3868:	0e 94 18 10 	call	0x2030	; 0x2030 <ExtEERead>
                                UnflipData(actObj1.lenStr[ACTION_STR2], (uint8_t *)&specialInput[0]);
    386c:	6a e0       	ldi	r22, 0x0A	; 10
    386e:	79 e3       	ldi	r23, 0x39	; 57
    3870:	80 91 fa 38 	lds	r24, 0x38FA	; 0x8038fa <actObj1.3994+0x20>
    3874:	0e 94 0b 10 	call	0x2016	; 0x2016 <UnflipData>
                                specialInput[actObj1.lenStr[ACTION_STR2]] = 0;
    3878:	e0 91 fa 38 	lds	r30, 0x38FA	; 0x8038fa <actObj1.3994+0x20>
    387c:	f0 91 fb 38 	lds	r31, 0x38FB	; 0x8038fb <actObj1.3994+0x21>
    3880:	e6 5f       	subi	r30, 0xF6	; 246
    3882:	f6 4c       	sbci	r31, 0xC6	; 198
    3884:	10 82       	st	Z, r1

                            //General request
                            } else if (actObj1.lenStr[ACTION_STR1]) {
                                SetResponse(elements++, actObj1.addrStr[ACTION_STR1], actObj1.lenStr[ACTION_STR1], GAME);
                                SetResponse(elements++, A_LF, 2, TEASER);
                                SetResponse(elements++, A_RESPONSE, L_RESPONSE, TEASER);
    3886:	74 e0       	ldi	r23, 0x04	; 4
    3888:	77 2e       	mov	r7, r23
    388a:	99 c1       	rjmp	.+818    	; 0x3bbe <ProcessInput+0xffa>
                                ExtEERead(actObj1.addrStr[ACTION_STR2], actObj1.lenStr[ACTION_STR2], GAME, (uint8_t *)&specialInput[0]);
                                UnflipData(actObj1.lenStr[ACTION_STR2], (uint8_t *)&specialInput[0]);
                                specialInput[actObj1.lenStr[ACTION_STR2]] = 0;
                            
                            //Normal action    
                            } else if (CheckState(actObj1.byteField[ACTION_ACL])){
    388c:	80 91 e1 38 	lds	r24, 0x38E1	; 0x8038e1 <actObj1.3994+0x7>
    3890:	0e 94 a4 0a 	call	0x1548	; 0x1548 <CheckState>
    3894:	88 23       	and	r24, r24
    3896:	01 f1       	breq	.+64     	; 0x38d8 <ProcessInput+0xd14>
                                SetResponse(elements++, actObj1.addrStr[ACTION_MSG], actObj1.lenStr[ACTION_MSG], GAME);
    3898:	80 91 00 39 	lds	r24, 0x3900	; 0x803900 <actObj1.3994+0x26>
    389c:	90 91 01 39 	lds	r25, 0x3901	; 0x803901 <actObj1.3994+0x27>
    return 0;
}

//
void SetResponse(uint8_t number, uint16_t address, uint16_t length, uint8_t type){
    reactStr[0][number]=address;
    38a0:	20 91 f2 38 	lds	r18, 0x38F2	; 0x8038f2 <actObj1.3994+0x18>
    38a4:	30 91 f3 38 	lds	r19, 0x38F3	; 0x8038f3 <actObj1.3994+0x19>
    38a8:	20 93 1d 39 	sts	0x391D, r18	; 0x80391d <reactStr+0x2>
    38ac:	30 93 1e 39 	sts	0x391E, r19	; 0x80391e <reactStr+0x3>
    reactStr[1][number]=length;
    38b0:	80 93 5d 39 	sts	0x395D, r24	; 0x80395d <reactStr+0x42>
    38b4:	90 93 5e 39 	sts	0x395E, r25	; 0x80395e <reactStr+0x43>
    reactStr[2][number]=type;
    38b8:	10 92 9d 39 	sts	0x399D, r1	; 0x80399d <reactStr+0x82>
    38bc:	10 92 9e 39 	sts	0x399E, r1	; 0x80399e <reactStr+0x83>
                                specialInput[actObj1.lenStr[ACTION_STR2]] = 0;
                            
                            //Normal action    
                            } else if (CheckState(actObj1.byteField[ACTION_ACL])){
                                SetResponse(elements++, actObj1.addrStr[ACTION_MSG], actObj1.lenStr[ACTION_MSG], GAME);
                                effect = actObj1.effect[2];
    38c0:	80 91 04 39 	lds	r24, 0x3904	; 0x803904 <actObj1.3994+0x2a>
    38c4:	90 e0       	ldi	r25, 0x00	; 0
    38c6:	80 93 3a 38 	sts	0x383A, r24	; 0x80383a <effect>
    38ca:	90 93 3b 38 	sts	0x383B, r25	; 0x80383b <effect+0x1>
                                UpdateState(actObj1.byteField[ACTION_STATE]);
    38ce:	80 91 e4 38 	lds	r24, 0x38E4	; 0x8038e4 <actObj1.3994+0xa>
    38d2:	0e 94 9a 0a 	call	0x1534	; 0x1534 <UpdateState>
    38d6:	44 ca       	rjmp	.-2936   	; 0x2d60 <ProcessInput+0x19c>
                            } else {
                                SetResponse(elements++, actObj1.addrStr[ACTION_ACL_MSG], actObj1.lenStr[ACTION_ACL_MSG], GAME);
    38d8:	80 91 fe 38 	lds	r24, 0x38FE	; 0x8038fe <actObj1.3994+0x24>
    38dc:	90 91 ff 38 	lds	r25, 0x38FF	; 0x8038ff <actObj1.3994+0x25>
    return 0;
}

//
void SetResponse(uint8_t number, uint16_t address, uint16_t length, uint8_t type){
    reactStr[0][number]=address;
    38e0:	20 91 f0 38 	lds	r18, 0x38F0	; 0x8038f0 <actObj1.3994+0x16>
    38e4:	30 91 f1 38 	lds	r19, 0x38F1	; 0x8038f1 <actObj1.3994+0x17>
    38e8:	20 93 1d 39 	sts	0x391D, r18	; 0x80391d <reactStr+0x2>
    38ec:	30 93 1e 39 	sts	0x391E, r19	; 0x80391e <reactStr+0x3>
    reactStr[1][number]=length;
    38f0:	80 93 5d 39 	sts	0x395D, r24	; 0x80395d <reactStr+0x42>
    38f4:	90 93 5e 39 	sts	0x395E, r25	; 0x80395e <reactStr+0x43>
    reactStr[2][number]=type;
    38f8:	10 92 9d 39 	sts	0x399D, r1	; 0x80399d <reactStr+0x82>
    38fc:	10 92 9e 39 	sts	0x399E, r1	; 0x80399e <reactStr+0x83>
                                SetResponse(elements++, actObj1.addrStr[ACTION_MSG], actObj1.lenStr[ACTION_MSG], GAME);
                                effect = actObj1.effect[2];
                                UpdateState(actObj1.byteField[ACTION_STATE]);
                            } else {
                                SetResponse(elements++, actObj1.addrStr[ACTION_ACL_MSG], actObj1.lenStr[ACTION_ACL_MSG], GAME);
                                effect = actObj1.effect[1];
    3900:	80 91 03 39 	lds	r24, 0x3903	; 0x803903 <actObj1.3994+0x29>
    3904:	90 e0       	ldi	r25, 0x00	; 0
    3906:	80 93 3a 38 	sts	0x383A, r24	; 0x80383a <effect>
    390a:	90 93 3b 38 	sts	0x383B, r25	; 0x80383b <effect+0x1>
    390e:	28 ca       	rjmp	.-2992   	; 0x2d60 <ProcessInput+0x19c>
                        }
                    }

                //Person or object not found
                } else {
                    if ((data[0] == 't')||(data[0] == 'g')){
    3910:	f8 01       	movw	r30, r16
    3912:	80 81       	ld	r24, Z
    3914:	84 37       	cpi	r24, 0x74	; 116
    3916:	11 f0       	breq	.+4      	; 0x391c <ProcessInput+0xd58>
    3918:	87 36       	cpi	r24, 0x67	; 103
    391a:	19 f4       	brne	.+6      	; 0x3922 <ProcessInput+0xd5e>
    return 0;
}

//
void SetResponse(uint8_t number, uint16_t address, uint16_t length, uint8_t type){
    reactStr[0][number]=address;
    391c:	8b e3       	ldi	r24, 0x3B	; 59
    391e:	99 e7       	ldi	r25, 0x79	; 121
    3920:	02 c0       	rjmp	.+4      	; 0x3926 <ProcessInput+0xd62>
    3922:	8f e4       	ldi	r24, 0x4F	; 79
    3924:	99 e7       	ldi	r25, 0x79	; 121
    3926:	80 93 1d 39 	sts	0x391D, r24	; 0x80391d <reactStr+0x2>
    392a:	90 93 1e 39 	sts	0x391E, r25	; 0x80391e <reactStr+0x3>
    reactStr[1][number]=length;
    392e:	84 e1       	ldi	r24, 0x14	; 20
    3930:	90 e0       	ldi	r25, 0x00	; 0
    3932:	0c ca       	rjmp	.-3048   	; 0x2d4c <ProcessInput+0x188>
                    }
                }
            }
        
        //Special answer given
        } else if (data[0] == 'a'){
    3934:	81 36       	cpi	r24, 0x61	; 97
    3936:	09 f0       	breq	.+2      	; 0x393a <ProcessInput+0xd76>
    3938:	c5 cb       	rjmp	.-2166   	; 0x30c4 <ProcessInput+0x500>
            
            //Priest offerings
            if (specialPassed >= 2) {
    393a:	80 91 09 39 	lds	r24, 0x3909	; 0x803909 <specialPassed>
    393e:	82 30       	cpi	r24, 0x02	; 2
    3940:	08 f4       	brcc	.+2      	; 0x3944 <ProcessInput+0xd80>
    3942:	cb c0       	rjmp	.+406    	; 0x3ada <ProcessInput+0xf16>
                if (data[1] > 0) {
    3944:	d8 01       	movw	r26, r16
    3946:	11 96       	adiw	r26, 0x01	; 1
    3948:	2c 91       	ld	r18, X
    394a:	22 23       	and	r18, r18
    394c:	09 f4       	brne	.+2      	; 0x3950 <ProcessInput+0xd8c>
    394e:	b2 c0       	rjmp	.+356    	; 0x3ab4 <ProcessInput+0xef0>

                    //uint8_t  digit[10] = {0, 0, 0, 0, 0, 0, 0, 0, 0, 0};
                    uint8_t  digit[8] = {0, 0, 0, 0, 0, 0, 0, 0};
    3950:	fe 01       	movw	r30, r28
    3952:	31 96       	adiw	r30, 0x01	; 1
    3954:	7f 01       	movw	r14, r30
    3956:	88 e0       	ldi	r24, 0x08	; 8
    3958:	df 01       	movw	r26, r30
    395a:	1d 92       	st	X+, r1
    395c:	8a 95       	dec	r24
    395e:	e9 f7       	brne	.-6      	; 0x395a <ProcessInput+0xd96>
                        answer = ((offering  & 2) << 19) + ((offering  & 1) << 8) + \
                        ((element   & 2) << 15) + ((element   & 1) << 4) + \
                        ((kneelings & 2) << 11) + ((kneelings & 1))
                        answer = answer << (3-person)
                    */
                    data[1]-='1';
    3960:	21 53       	subi	r18, 0x31	; 49
    3962:	f8 01       	movw	r30, r16
    3964:	21 83       	std	Z+1, r18	; 0x01
                    data[2]-='1';
    3966:	32 81       	ldd	r19, Z+2	; 0x02
    3968:	31 53       	subi	r19, 0x31	; 49
    396a:	32 83       	std	Z+2, r19	; 0x02
                    if (data[3] == 'a') data[3] = 1;
    396c:	83 81       	ldd	r24, Z+3	; 0x03
    396e:	81 36       	cpi	r24, 0x61	; 97
    3970:	11 f4       	brne	.+4      	; 0x3976 <ProcessInput+0xdb2>
    3972:	81 e0       	ldi	r24, 0x01	; 1
    3974:	08 c0       	rjmp	.+16     	; 0x3986 <ProcessInput+0xdc2>
                    else if (data[3] == 'e') data[3] = 0;
    3976:	85 36       	cpi	r24, 0x65	; 101
    3978:	11 f4       	brne	.+4      	; 0x397e <ProcessInput+0xdba>
    397a:	13 82       	std	Z+3, r1	; 0x03
    397c:	08 c0       	rjmp	.+16     	; 0x398e <ProcessInput+0xdca>
                    else if (data[3] == 'f') data[3] = 3;
    397e:	86 36       	cpi	r24, 0x66	; 102
    3980:	21 f4       	brne	.+8      	; 0x398a <ProcessInput+0xdc6>
    3982:	83 e0       	ldi	r24, 0x03	; 3
    3984:	f8 01       	movw	r30, r16
    3986:	83 83       	std	Z+3, r24	; 0x03
    3988:	02 c0       	rjmp	.+4      	; 0x398e <ProcessInput+0xdca>
                    else data[3] = 2;
    398a:	82 e0       	ldi	r24, 0x02	; 2
    398c:	83 83       	std	Z+3, r24	; 0x03

                    if (data[1] & 2) answer += (1UL << 20);
    398e:	21 fd       	sbrc	r18, 1
    3990:	04 c0       	rjmp	.+8      	; 0x399a <ProcessInput+0xdd6>
            if (specialPassed >= 2) {
                if (data[1] > 0) {

                    //uint8_t  digit[10] = {0, 0, 0, 0, 0, 0, 0, 0, 0, 0};
                    uint8_t  digit[8] = {0, 0, 0, 0, 0, 0, 0, 0};
                    uint32_t answer = 0;
    3992:	80 e0       	ldi	r24, 0x00	; 0
    3994:	90 e0       	ldi	r25, 0x00	; 0
    3996:	dc 01       	movw	r26, r24
    3998:	04 c0       	rjmp	.+8      	; 0x39a2 <ProcessInput+0xdde>
                    if (data[3] == 'a') data[3] = 1;
                    else if (data[3] == 'e') data[3] = 0;
                    else if (data[3] == 'f') data[3] = 3;
                    else data[3] = 2;

                    if (data[1] & 2) answer += (1UL << 20);
    399a:	80 e0       	ldi	r24, 0x00	; 0
    399c:	90 e0       	ldi	r25, 0x00	; 0
    399e:	a0 e1       	ldi	r26, 0x10	; 16
    39a0:	b0 e0       	ldi	r27, 0x00	; 0
                    if (data[1] & 1) answer += (1 << 8);
    39a2:	20 ff       	sbrs	r18, 0
    39a4:	03 c0       	rjmp	.+6      	; 0x39ac <ProcessInput+0xde8>
    39a6:	9f 5f       	subi	r25, 0xFF	; 255
    39a8:	af 4f       	sbci	r26, 0xFF	; 255
    39aa:	bf 4f       	sbci	r27, 0xFF	; 255
                    if (data[3] & 2) answer += (1UL << 16);
    39ac:	f8 01       	movw	r30, r16
    39ae:	23 81       	ldd	r18, Z+3	; 0x03
    39b0:	21 fd       	sbrc	r18, 1
    39b2:	11 96       	adiw	r26, 0x01	; 1
                    if (data[3] & 1) answer += (1 << 4);
    39b4:	20 ff       	sbrs	r18, 0
    39b6:	03 c0       	rjmp	.+6      	; 0x39be <ProcessInput+0xdfa>
    39b8:	40 96       	adiw	r24, 0x10	; 16
    39ba:	a1 1d       	adc	r26, r1
    39bc:	b1 1d       	adc	r27, r1
                    if (data[2] & 2) answer += (1 << 12);
    39be:	31 ff       	sbrs	r19, 1
    39c0:	03 c0       	rjmp	.+6      	; 0x39c8 <ProcessInput+0xe04>
    39c2:	90 5f       	subi	r25, 0xF0	; 240
    39c4:	af 4f       	sbci	r26, 0xFF	; 255
    39c6:	bf 4f       	sbci	r27, 0xFF	; 255
                    if (data[2] & 1) answer += 1;
    39c8:	30 ff       	sbrs	r19, 0
    39ca:	03 c0       	rjmp	.+6      	; 0x39d2 <ProcessInput+0xe0e>
    39cc:	01 96       	adiw	r24, 0x01	; 1
    39ce:	a1 1d       	adc	r26, r1
    39d0:	b1 1d       	adc	r27, r1
                    answer <<= (4 - whoami);            
    39d2:	40 91 3d 38 	lds	r20, 0x383D	; 0x80383d <whoami>
    39d6:	24 e0       	ldi	r18, 0x04	; 4
    39d8:	30 e0       	ldi	r19, 0x00	; 0
    39da:	24 1b       	sub	r18, r20
    39dc:	31 09       	sbc	r19, r1
    39de:	04 c0       	rjmp	.+8      	; 0x39e8 <ProcessInput+0xe24>
    39e0:	88 0f       	add	r24, r24
    39e2:	99 1f       	adc	r25, r25
    39e4:	aa 1f       	adc	r26, r26
    39e6:	bb 1f       	adc	r27, r27
    39e8:	2a 95       	dec	r18
    39ea:	d2 f7       	brpl	.-12     	; 0x39e0 <ProcessInput+0xe1c>
    return 0;
}

//
void SetResponse(uint8_t number, uint16_t address, uint16_t length, uint8_t type){
    reactStr[0][number]=address;
    39ec:	25 e0       	ldi	r18, 0x05	; 5
    39ee:	35 e7       	ldi	r19, 0x75	; 117
    39f0:	20 93 1d 39 	sts	0x391D, r18	; 0x80391d <reactStr+0x2>
    39f4:	30 93 1e 39 	sts	0x391E, r19	; 0x80391e <reactStr+0x3>
    reactStr[1][number]=length;
    39f8:	20 e2       	ldi	r18, 0x20	; 32
    39fa:	30 e0       	ldi	r19, 0x00	; 0
    39fc:	20 93 5d 39 	sts	0x395D, r18	; 0x80395d <reactStr+0x42>
    3a00:	30 93 5e 39 	sts	0x395E, r19	; 0x80395e <reactStr+0x43>
    reactStr[2][number]=type;
    3a04:	21 e0       	ldi	r18, 0x01	; 1
    3a06:	30 e0       	ldi	r19, 0x00	; 0
    3a08:	20 93 9d 39 	sts	0x399D, r18	; 0x80399d <reactStr+0x82>
    3a0c:	30 93 9e 39 	sts	0x399E, r19	; 0x80399e <reactStr+0x83>
    return 0;
}

//
void SetResponse(uint8_t number, uint16_t address, uint16_t length, uint8_t type){
    reactStr[0][number]=address;
    3a10:	4a ed       	ldi	r20, 0xDA	; 218
    3a12:	54 e7       	ldi	r21, 0x74	; 116
    3a14:	40 93 1f 39 	sts	0x391F, r20	; 0x80391f <reactStr+0x4>
    3a18:	50 93 20 39 	sts	0x3920, r21	; 0x803920 <reactStr+0x5>
    reactStr[1][number]=length;
    3a1c:	42 e0       	ldi	r20, 0x02	; 2
    3a1e:	50 e0       	ldi	r21, 0x00	; 0
    3a20:	40 93 5f 39 	sts	0x395F, r20	; 0x80395f <reactStr+0x44>
    3a24:	50 93 60 39 	sts	0x3960, r21	; 0x803960 <reactStr+0x45>
    reactStr[2][number]=type;
    3a28:	20 93 9f 39 	sts	0x399F, r18	; 0x80399f <reactStr+0x84>
    3a2c:	30 93 a0 39 	sts	0x39A0, r19	; 0x8039a0 <reactStr+0x85>

                    SetResponse(elements++, A_YOURPART, L_YOURPART, TEASER);
                    SetResponse(elements++, A_HEXPREFIX, L_HEXPREFIX, TEASER);
                    
                    //Set up sending out number
                    for (n=7; n>=0; --n) {
    3a30:	67 e0       	ldi	r22, 0x07	; 7
    3a32:	d6 2e       	mov	r13, r22
                        digit[n] = answer % 16;
    3a34:	f7 01       	movw	r30, r14
    3a36:	ed 0d       	add	r30, r13
    3a38:	f1 1d       	adc	r31, r1
    3a3a:	28 2f       	mov	r18, r24
    3a3c:	2f 70       	andi	r18, 0x0F	; 15
    3a3e:	20 83       	st	Z, r18
                        answer /= 16;
    3a40:	54 e0       	ldi	r21, 0x04	; 4
    3a42:	b6 95       	lsr	r27
    3a44:	a7 95       	ror	r26
    3a46:	97 95       	ror	r25
    3a48:	87 95       	ror	r24
    3a4a:	5a 95       	dec	r21
    3a4c:	d1 f7       	brne	.-12     	; 0x3a42 <ProcessInput+0xe7e>
                        if (answer == 0) break;
    3a4e:	00 97       	sbiw	r24, 0x00	; 0
    3a50:	a1 05       	cpc	r26, r1
    3a52:	b1 05       	cpc	r27, r1
    3a54:	51 f4       	brne	.+20     	; 0x3a6a <ProcessInput+0xea6>
    3a56:	2b e1       	ldi	r18, 0x1B	; 27
    3a58:	a2 2e       	mov	r10, r18
    3a5a:	29 e3       	ldi	r18, 0x39	; 57
    3a5c:	b2 2e       	mov	r11, r18
    3a5e:	33 e0       	ldi	r19, 0x03	; 3
    3a60:	73 2e       	mov	r7, r19
}

//
void SetResponse(uint8_t number, uint16_t address, uint16_t length, uint8_t type){
    reactStr[0][number]=address;
    reactStr[1][number]=length;
    3a62:	88 24       	eor	r8, r8
    3a64:	83 94       	inc	r8
    3a66:	91 2c       	mov	r9, r1
    3a68:	02 c0       	rjmp	.+4      	; 0x3a6e <ProcessInput+0xeaa>

                    SetResponse(elements++, A_YOURPART, L_YOURPART, TEASER);
                    SetResponse(elements++, A_HEXPREFIX, L_HEXPREFIX, TEASER);
                    
                    //Set up sending out number
                    for (n=7; n>=0; --n) {
    3a6a:	da 94       	dec	r13
                        digit[n] = answer % 16;
                        answer /= 16;
                        if (answer == 0) break;
                    }
    3a6c:	e3 cf       	rjmp	.-58     	; 0x3a34 <ProcessInput+0xe70>
    3a6e:	b2 e0       	ldi	r27, 0x02	; 2
    3a70:	ab 0e       	add	r10, r27
    3a72:	b1 1c       	adc	r11, r1

                    for (; n<8; ++n) {
    3a74:	e7 e0       	ldi	r30, 0x07	; 7
    3a76:	ed 15       	cp	r30, r13
    3a78:	08 f4       	brcc	.+2      	; 0x3a7c <ProcessInput+0xeb8>
    3a7a:	9f c0       	rjmp	.+318    	; 0x3bba <ProcessInput+0xff6>
                        SetResponse(elements++, A_DIGITS+digit[n], 1, TEASER);
    3a7c:	73 94       	inc	r7
    3a7e:	f7 01       	movw	r30, r14
    3a80:	ed 0d       	add	r30, r13
    3a82:	f1 1d       	adc	r31, r1
    return 0;
}

//
void SetResponse(uint8_t number, uint16_t address, uint16_t length, uint8_t type){
    reactStr[0][number]=address;
    3a84:	80 81       	ld	r24, Z
    3a86:	90 e0       	ldi	r25, 0x00	; 0
    3a88:	86 53       	subi	r24, 0x36	; 54
    3a8a:	9b 48       	sbci	r25, 0x8B	; 139
    3a8c:	d5 01       	movw	r26, r10
    3a8e:	14 96       	adiw	r26, 0x04	; 4
    3a90:	8d 93       	st	X+, r24
    3a92:	9c 93       	st	X, r25
    3a94:	15 97       	sbiw	r26, 0x05	; 5
    reactStr[1][number]=length;
    3a96:	f5 01       	movw	r30, r10
    3a98:	ec 5b       	subi	r30, 0xBC	; 188
    3a9a:	ff 4f       	sbci	r31, 0xFF	; 255
    3a9c:	80 82       	st	Z, r8
    3a9e:	91 82       	std	Z+1, r9	; 0x01
    reactStr[2][number]=type;
    3aa0:	e0 5c       	subi	r30, 0xC0	; 192
    3aa2:	ff 4f       	sbci	r31, 0xFF	; 255
    3aa4:	80 82       	st	Z, r8
    3aa6:	91 82       	std	Z+1, r9	; 0x01
                        if (answer == 0) break;
                    }

                    for (; n<8; ++n) {
                        SetResponse(elements++, A_DIGITS+digit[n], 1, TEASER);
                        UpdateState(actObj1.byteField[ACTION_STATE]);
    3aa8:	80 91 e4 38 	lds	r24, 0x38E4	; 0x8038e4 <actObj1.3994+0xa>
    3aac:	0e 94 9a 0a 	call	0x1534	; 0x1534 <UpdateState>
                        digit[n] = answer % 16;
                        answer /= 16;
                        if (answer == 0) break;
                    }

                    for (; n<8; ++n) {
    3ab0:	d3 94       	inc	r13
    3ab2:	dd cf       	rjmp	.-70     	; 0x3a6e <ProcessInput+0xeaa>
    return 0;
}

//
void SetResponse(uint8_t number, uint16_t address, uint16_t length, uint8_t type){
    reactStr[0][number]=address;
    3ab4:	85 e2       	ldi	r24, 0x25	; 37
    3ab6:	95 e7       	ldi	r25, 0x75	; 117
    3ab8:	80 93 1d 39 	sts	0x391D, r24	; 0x80391d <reactStr+0x2>
    3abc:	90 93 1e 39 	sts	0x391E, r25	; 0x80391e <reactStr+0x3>
    reactStr[1][number]=length;
    3ac0:	8d e3       	ldi	r24, 0x3D	; 61
    3ac2:	90 e0       	ldi	r25, 0x00	; 0
    3ac4:	80 93 5d 39 	sts	0x395D, r24	; 0x80395d <reactStr+0x42>
    3ac8:	90 93 5e 39 	sts	0x395E, r25	; 0x80395e <reactStr+0x43>
    reactStr[2][number]=type;
    3acc:	81 e0       	ldi	r24, 0x01	; 1
    3ace:	90 e0       	ldi	r25, 0x00	; 0
    3ad0:	80 93 9d 39 	sts	0x399D, r24	; 0x80399d <reactStr+0x82>
    3ad4:	90 93 9e 39 	sts	0x399E, r25	; 0x80399e <reactStr+0x83>
    3ad8:	6e c0       	rjmp	.+220    	; 0x3bb6 <ProcessInput+0xff2>
    3ada:	e0 91 2d 38 	lds	r30, 0x382D	; 0x80382d <currDepth>
                    SetResponse(elements++, A_BADOFFERING, L_BADOFFERING, TEASER);
                }
            
            //Other questions    
            } else if (specialPassed == 1) {
                PopulateObject(route[currDepth+1], &actObj1);
    3ade:	f0 e0       	ldi	r31, 0x00	; 0
    3ae0:	ee 0f       	add	r30, r30
    3ae2:	ff 1f       	adc	r31, r31
    3ae4:	e3 52       	subi	r30, 0x23	; 35
    3ae6:	f6 4c       	sbci	r31, 0xC6	; 198
    3ae8:	6a ed       	ldi	r22, 0xDA	; 218
    3aea:	78 e3       	ldi	r23, 0x38	; 56
                } else {
                    SetResponse(elements++, A_BADOFFERING, L_BADOFFERING, TEASER);
                }
            
            //Other questions    
            } else if (specialPassed == 1) {
    3aec:	81 30       	cpi	r24, 0x01	; 1
    3aee:	09 f0       	breq	.+2      	; 0x3af2 <ProcessInput+0xf2e>
    3af0:	46 c0       	rjmp	.+140    	; 0x3b7e <ProcessInput+0xfba>
                PopulateObject(route[currDepth+1], &actObj1);
    3af2:	80 81       	ld	r24, Z
    3af4:	91 81       	ldd	r25, Z+1	; 0x01
    3af6:	0e 94 28 11 	call	0x2250	; 0x2250 <PopulateObject>
                if (CheckState(actObj1.byteField[ACTION_ACL])){
    3afa:	80 91 e1 38 	lds	r24, 0x38E1	; 0x8038e1 <actObj1.3994+0x7>
    3afe:	0e 94 a4 0a 	call	0x1548	; 0x1548 <CheckState>
    3b02:	88 23       	and	r24, r24
    3b04:	01 f1       	breq	.+64     	; 0x3b46 <ProcessInput+0xf82>
                    SetResponse(elements++, actObj1.addrStr[ACTION_MSG], actObj1.lenStr[ACTION_MSG], GAME);
    3b06:	80 91 00 39 	lds	r24, 0x3900	; 0x803900 <actObj1.3994+0x26>
    3b0a:	90 91 01 39 	lds	r25, 0x3901	; 0x803901 <actObj1.3994+0x27>
    return 0;
}

//
void SetResponse(uint8_t number, uint16_t address, uint16_t length, uint8_t type){
    reactStr[0][number]=address;
    3b0e:	20 91 f2 38 	lds	r18, 0x38F2	; 0x8038f2 <actObj1.3994+0x18>
    3b12:	30 91 f3 38 	lds	r19, 0x38F3	; 0x8038f3 <actObj1.3994+0x19>
    3b16:	20 93 1d 39 	sts	0x391D, r18	; 0x80391d <reactStr+0x2>
    3b1a:	30 93 1e 39 	sts	0x391E, r19	; 0x80391e <reactStr+0x3>
    reactStr[1][number]=length;
    3b1e:	80 93 5d 39 	sts	0x395D, r24	; 0x80395d <reactStr+0x42>
    3b22:	90 93 5e 39 	sts	0x395E, r25	; 0x80395e <reactStr+0x43>
    reactStr[2][number]=type;
    3b26:	10 92 9d 39 	sts	0x399D, r1	; 0x80399d <reactStr+0x82>
    3b2a:	10 92 9e 39 	sts	0x399E, r1	; 0x80399e <reactStr+0x83>
            //Other questions    
            } else if (specialPassed == 1) {
                PopulateObject(route[currDepth+1], &actObj1);
                if (CheckState(actObj1.byteField[ACTION_ACL])){
                    SetResponse(elements++, actObj1.addrStr[ACTION_MSG], actObj1.lenStr[ACTION_MSG], GAME);
                    effect = actObj1.effect[2];
    3b2e:	80 91 04 39 	lds	r24, 0x3904	; 0x803904 <actObj1.3994+0x2a>
    3b32:	90 e0       	ldi	r25, 0x00	; 0
    3b34:	80 93 3a 38 	sts	0x383A, r24	; 0x80383a <effect>
    3b38:	90 93 3b 38 	sts	0x383B, r25	; 0x80383b <effect+0x1>
                    UpdateState(actObj1.byteField[ACTION_STATE]);
    3b3c:	80 91 e4 38 	lds	r24, 0x38E4	; 0x8038e4 <actObj1.3994+0xa>
    3b40:	0e 94 9a 0a 	call	0x1534	; 0x1534 <UpdateState>
    3b44:	38 c0       	rjmp	.+112    	; 0x3bb6 <ProcessInput+0xff2>
                } else {
                    SetResponse(elements++, actObj1.addrStr[ACTION_ACL_MSG], actObj1.lenStr[ACTION_ACL_MSG], GAME);
    3b46:	80 91 fe 38 	lds	r24, 0x38FE	; 0x8038fe <actObj1.3994+0x24>
    3b4a:	90 91 ff 38 	lds	r25, 0x38FF	; 0x8038ff <actObj1.3994+0x25>
    return 0;
}

//
void SetResponse(uint8_t number, uint16_t address, uint16_t length, uint8_t type){
    reactStr[0][number]=address;
    3b4e:	20 91 f0 38 	lds	r18, 0x38F0	; 0x8038f0 <actObj1.3994+0x16>
    3b52:	30 91 f1 38 	lds	r19, 0x38F1	; 0x8038f1 <actObj1.3994+0x17>
    3b56:	20 93 1d 39 	sts	0x391D, r18	; 0x80391d <reactStr+0x2>
    3b5a:	30 93 1e 39 	sts	0x391E, r19	; 0x80391e <reactStr+0x3>
    reactStr[1][number]=length;
    3b5e:	80 93 5d 39 	sts	0x395D, r24	; 0x80395d <reactStr+0x42>
    3b62:	90 93 5e 39 	sts	0x395E, r25	; 0x80395e <reactStr+0x43>
    reactStr[2][number]=type;
    3b66:	10 92 9d 39 	sts	0x399D, r1	; 0x80399d <reactStr+0x82>
    3b6a:	10 92 9e 39 	sts	0x399E, r1	; 0x80399e <reactStr+0x83>
                    SetResponse(elements++, actObj1.addrStr[ACTION_MSG], actObj1.lenStr[ACTION_MSG], GAME);
                    effect = actObj1.effect[2];
                    UpdateState(actObj1.byteField[ACTION_STATE]);
                } else {
                    SetResponse(elements++, actObj1.addrStr[ACTION_ACL_MSG], actObj1.lenStr[ACTION_ACL_MSG], GAME);
                    effect = actObj1.effect[1];
    3b6e:	80 91 03 39 	lds	r24, 0x3903	; 0x803903 <actObj1.3994+0x29>
    3b72:	90 e0       	ldi	r25, 0x00	; 0
    3b74:	80 93 3a 38 	sts	0x383A, r24	; 0x80383a <effect>
    3b78:	90 93 3b 38 	sts	0x383B, r25	; 0x80383b <effect+0x1>
    3b7c:	1c c0       	rjmp	.+56     	; 0x3bb6 <ProcessInput+0xff2>
                }

            } else {
                PopulateObject(route[currDepth+1], &actObj1);
    3b7e:	80 81       	ld	r24, Z
    3b80:	91 81       	ldd	r25, Z+1	; 0x01
    3b82:	0e 94 28 11 	call	0x2250	; 0x2250 <PopulateObject>
    return 0;
}

//
void SetResponse(uint8_t number, uint16_t address, uint16_t length, uint8_t type){
    reactStr[0][number]=address;
    3b86:	8d e9       	ldi	r24, 0x9D	; 157
    3b88:	98 e7       	ldi	r25, 0x78	; 120
    3b8a:	80 93 1d 39 	sts	0x391D, r24	; 0x80391d <reactStr+0x2>
    3b8e:	90 93 1e 39 	sts	0x391E, r25	; 0x80391e <reactStr+0x3>
    reactStr[1][number]=length;
    3b92:	82 e1       	ldi	r24, 0x12	; 18
    3b94:	90 e0       	ldi	r25, 0x00	; 0
    3b96:	80 93 5d 39 	sts	0x395D, r24	; 0x80395d <reactStr+0x42>
    3b9a:	90 93 5e 39 	sts	0x395E, r25	; 0x80395e <reactStr+0x43>
    reactStr[2][number]=type;
    3b9e:	81 e0       	ldi	r24, 0x01	; 1
    3ba0:	90 e0       	ldi	r25, 0x00	; 0
    3ba2:	80 93 9d 39 	sts	0x399D, r24	; 0x80399d <reactStr+0x82>
    3ba6:	90 93 9e 39 	sts	0x399E, r25	; 0x80399e <reactStr+0x83>
                }

            } else {
                PopulateObject(route[currDepth+1], &actObj1);
                SetResponse(elements++, A_INCORRECT, L_INCORRECT, TEASER);
                PunishmentTime = getClock();
    3baa:	0e 94 ab 0d 	call	0x1b56	; 0x1b56 <getClock>
    3bae:	80 93 07 39 	sts	0x3907, r24	; 0x803907 <PunishmentTime>
    3bb2:	90 93 08 39 	sts	0x3908, r25	; 0x803908 <PunishmentTime+0x1>
                    effect = actObj1.effect[1];
                }

            } else {
                PopulateObject(route[currDepth+1], &actObj1);
                SetResponse(elements++, A_INCORRECT, L_INCORRECT, TEASER);
    3bb6:	82 e0       	ldi	r24, 0x02	; 2
    3bb8:	78 2e       	mov	r7, r24
                PunishmentTime = getClock();
            }
            specialInput[0] = 0;
    3bba:	10 92 0a 39 	sts	0x390A, r1	; 0x80390a <specialInput>
    return 0;
}

//
void SetResponse(uint8_t number, uint16_t address, uint16_t length, uint8_t type){
    reactStr[0][number]=address;
    3bbe:	8b e5       	ldi	r24, 0x5B	; 91
    3bc0:	9a e7       	ldi	r25, 0x7A	; 122
    3bc2:	80 93 1b 39 	sts	0x391B, r24	; 0x80391b <reactStr>
    3bc6:	90 93 1c 39 	sts	0x391C, r25	; 0x80391c <reactStr+0x1>
    reactStr[1][number]=length;
    3bca:	82 e0       	ldi	r24, 0x02	; 2
    3bcc:	90 e0       	ldi	r25, 0x00	; 0
    3bce:	80 93 5b 39 	sts	0x395B, r24	; 0x80395b <reactStr+0x40>
    3bd2:	90 93 5c 39 	sts	0x395C, r25	; 0x80395c <reactStr+0x41>
    reactStr[2][number]=type;
    3bd6:	81 e0       	ldi	r24, 0x01	; 1
    3bd8:	90 e0       	ldi	r25, 0x00	; 0
    3bda:	80 93 9b 39 	sts	0x399B, r24	; 0x80399b <reactStr+0x80>
    3bde:	90 93 9c 39 	sts	0x399C, r25	; 0x80399c <reactStr+0x81>
               
        }
            
        //Input handled
        SetResponse(0, A_LF, 2, TEASER);
        if (specialInput[0]) responseList = elements; else responseList = SetStandardResponse(elements);
    3be2:	80 91 0a 39 	lds	r24, 0x390A	; 0x80390a <specialInput>
    3be6:	88 23       	and	r24, r24
    3be8:	19 f0       	breq	.+6      	; 0x3bf0 <ProcessInput+0x102c>
    3bea:	70 92 1a 39 	sts	0x391A, r7	; 0x80391a <responseList>
    3bee:	9b c0       	rjmp	.+310    	; 0x3d26 <ProcessInput+0x1162>
    3bf0:	87 2d       	mov	r24, r7
    3bf2:	12 c0       	rjmp	.+36     	; 0x3c18 <ProcessInput+0x1054>
    return 0;
}

//
void SetResponse(uint8_t number, uint16_t address, uint16_t length, uint8_t type){
    reactStr[0][number]=address;
    3bf4:	8b e5       	ldi	r24, 0x5B	; 91
    3bf6:	9a e7       	ldi	r25, 0x7A	; 122
    3bf8:	80 93 1b 39 	sts	0x391B, r24	; 0x80391b <reactStr>
    3bfc:	90 93 1c 39 	sts	0x391C, r25	; 0x80391c <reactStr+0x1>
    reactStr[1][number]=length;
    3c00:	82 e0       	ldi	r24, 0x02	; 2
    3c02:	90 e0       	ldi	r25, 0x00	; 0
    3c04:	80 93 5b 39 	sts	0x395B, r24	; 0x80395b <reactStr+0x40>
    3c08:	90 93 5c 39 	sts	0x395C, r25	; 0x80395c <reactStr+0x41>
    reactStr[2][number]=type;
    3c0c:	81 e0       	ldi	r24, 0x01	; 1
    3c0e:	90 e0       	ldi	r25, 0x00	; 0
    3c10:	80 93 9b 39 	sts	0x399B, r24	; 0x80399b <reactStr+0x80>
    3c14:	90 93 9c 39 	sts	0x399C, r25	; 0x80399c <reactStr+0x81>
        SetResponse(0, A_LF, 2, TEASER);
        if (specialInput[0]) responseList = elements; else responseList = SetStandardResponse(elements);

    } else {
        SetResponse(0, A_LF, 2, TEASER);
        responseList = SetStandardResponse(1);
    3c18:	0e 94 ac 10 	call	0x2158	; 0x2158 <SetStandardResponse>
    3c1c:	80 93 1a 39 	sts	0x391A, r24	; 0x80391a <responseList>
    3c20:	82 c0       	rjmp	.+260    	; 0x3d26 <ProcessInput+0x1162>
    return 0;
}

//
void SetResponse(uint8_t number, uint16_t address, uint16_t length, uint8_t type){
    reactStr[0][number]=address;
    3c22:	83 ed       	ldi	r24, 0xD3	; 211
    3c24:	99 e7       	ldi	r25, 0x79	; 121
    3c26:	92 cd       	rjmp	.-1244   	; 0x374c <ProcessInput+0xb88>

        //Drop item if in inventory
        if (data[0] == 'd') {
            if ((inventory[0] == 0)&&(inventory[1] == 0)){
                SetResponse(elements++, A_EMPTYHANDS, L_EMPTYHANDS, TEASER);
            } else if (inputLen != 2) {
    3c28:	b2 e0       	ldi	r27, 0x02	; 2
    3c2a:	fb 12       	cpse	r15, r27
    3c2c:	0c 94 11 16 	jmp	0x2c22	; 0x2c22 <ProcessInput+0x5e>
                SetResponse(elements++, A_NOTPOSSIBLE, L_NOTPOSSIBLE, TEASER);
            } else {
                for (uint8_t x=0; x<2; ++x) {
                    if (inventory[x]) {
                        if (CheckLetter(inventory[x], data[1])) {
    3c30:	d8 01       	movw	r26, r16
    3c32:	11 96       	adiw	r26, 0x01	; 1
    3c34:	6c 91       	ld	r22, X
    3c36:	0e 94 9f 11 	call	0x233e	; 0x233e <CheckLetter>
    3c3a:	88 23       	and	r24, r24
    3c3c:	09 f4       	brne	.+2      	; 0x3c40 <ProcessInput+0x107c>
    3c3e:	5b c0       	rjmp	.+182    	; 0x3cf6 <ProcessInput+0x1132>
                SetResponse(elements++, A_EMPTYHANDS, L_EMPTYHANDS, TEASER);
            } else if (inputLen != 2) {
                SetResponse(elements++, A_NOTPOSSIBLE, L_NOTPOSSIBLE, TEASER);
            } else {
                for (uint8_t x=0; x<2; ++x) {
                    if (inventory[x]) {
    3c40:	80 e0       	ldi	r24, 0x00	; 0
    3c42:	90 e0       	ldi	r25, 0x00	; 0
                        if (CheckLetter(inventory[x], data[1])) {
                            PopulateObject(inventory[x], &actObj1);
    3c44:	88 0f       	add	r24, r24
    3c46:	99 1f       	adc	r25, r25
    3c48:	9c 01       	movw	r18, r24
    3c4a:	22 5c       	subi	r18, 0xC2	; 194
    3c4c:	37 4c       	sbci	r19, 0xC7	; 199
    3c4e:	79 01       	movw	r14, r18
    3c50:	6a ed       	ldi	r22, 0xDA	; 218
    3c52:	78 e3       	ldi	r23, 0x38	; 56
    3c54:	d9 01       	movw	r26, r18
    3c56:	8d 91       	ld	r24, X+
    3c58:	9c 91       	ld	r25, X
    3c5a:	0e 94 28 11 	call	0x2250	; 0x2250 <PopulateObject>
    return 0;
}

//
void SetResponse(uint8_t number, uint16_t address, uint16_t length, uint8_t type){
    reactStr[0][number]=address;
    3c5e:	83 ed       	ldi	r24, 0xD3	; 211
    3c60:	97 e7       	ldi	r25, 0x77	; 119
    3c62:	80 93 1d 39 	sts	0x391D, r24	; 0x80391d <reactStr+0x2>
    3c66:	90 93 1e 39 	sts	0x391E, r25	; 0x80391e <reactStr+0x3>
    reactStr[1][number]=length;
    3c6a:	80 e1       	ldi	r24, 0x10	; 16
    3c6c:	90 e0       	ldi	r25, 0x00	; 0
    3c6e:	80 93 5d 39 	sts	0x395D, r24	; 0x80395d <reactStr+0x42>
    3c72:	90 93 5e 39 	sts	0x395E, r25	; 0x80395e <reactStr+0x43>
    reactStr[2][number]=type;
    3c76:	81 e0       	ldi	r24, 0x01	; 1
    3c78:	90 e0       	ldi	r25, 0x00	; 0
    3c7a:	80 93 9d 39 	sts	0x399D, r24	; 0x80399d <reactStr+0x82>
    3c7e:	90 93 9e 39 	sts	0x399E, r25	; 0x80399e <reactStr+0x83>
                for (uint8_t x=0; x<2; ++x) {
                    if (inventory[x]) {
                        if (CheckLetter(inventory[x], data[1])) {
                            PopulateObject(inventory[x], &actObj1);
                            SetResponse(elements++, A_DROPPING, L_DROPPING, TEASER);
                            SetResponse(elements++, actObj1.addrStr[NAME], actObj1.lenStr[NAME], GAME);
    3c82:	20 91 f4 38 	lds	r18, 0x38F4	; 0x8038f4 <actObj1.3994+0x1a>
    3c86:	30 91 f5 38 	lds	r19, 0x38F5	; 0x8038f5 <actObj1.3994+0x1b>
    return 0;
}

//
void SetResponse(uint8_t number, uint16_t address, uint16_t length, uint8_t type){
    reactStr[0][number]=address;
    3c8a:	40 91 e6 38 	lds	r20, 0x38E6	; 0x8038e6 <actObj1.3994+0xc>
    3c8e:	50 91 e7 38 	lds	r21, 0x38E7	; 0x8038e7 <actObj1.3994+0xd>
    3c92:	40 93 1f 39 	sts	0x391F, r20	; 0x80391f <reactStr+0x4>
    3c96:	50 93 20 39 	sts	0x3920, r21	; 0x803920 <reactStr+0x5>
    reactStr[1][number]=length;
    3c9a:	20 93 5f 39 	sts	0x395F, r18	; 0x80395f <reactStr+0x44>
    3c9e:	30 93 60 39 	sts	0x3960, r19	; 0x803960 <reactStr+0x45>
    reactStr[2][number]=type;
    3ca2:	10 92 9f 39 	sts	0x399F, r1	; 0x80399f <reactStr+0x84>
    3ca6:	10 92 a0 39 	sts	0x39A0, r1	; 0x8039a0 <reactStr+0x85>
    return 0;
}

//
void SetResponse(uint8_t number, uint16_t address, uint16_t length, uint8_t type){
    reactStr[0][number]=address;
    3caa:	2b e5       	ldi	r18, 0x5B	; 91
    3cac:	3a e7       	ldi	r19, 0x7A	; 122
    3cae:	20 93 21 39 	sts	0x3921, r18	; 0x803921 <reactStr+0x6>
    3cb2:	30 93 22 39 	sts	0x3922, r19	; 0x803922 <reactStr+0x7>
    reactStr[1][number]=length;
    3cb6:	22 e0       	ldi	r18, 0x02	; 2
    3cb8:	30 e0       	ldi	r19, 0x00	; 0
    3cba:	20 93 61 39 	sts	0x3961, r18	; 0x803961 <reactStr+0x46>
    3cbe:	30 93 62 39 	sts	0x3962, r19	; 0x803962 <reactStr+0x47>
    reactStr[2][number]=type;
    3cc2:	80 93 a1 39 	sts	0x39A1, r24	; 0x8039a1 <reactStr+0x86>
    3cc6:	90 93 a2 39 	sts	0x39A2, r25	; 0x8039a2 <reactStr+0x87>
    return 0;
}

//
void SetResponse(uint8_t number, uint16_t address, uint16_t length, uint8_t type){
    reactStr[0][number]=address;
    3cca:	26 e9       	ldi	r18, 0x96	; 150
    3ccc:	37 e7       	ldi	r19, 0x77	; 119
    3cce:	20 93 23 39 	sts	0x3923, r18	; 0x803923 <reactStr+0x8>
    3cd2:	30 93 24 39 	sts	0x3924, r19	; 0x803924 <reactStr+0x9>
    reactStr[1][number]=length;
    3cd6:	2d e3       	ldi	r18, 0x3D	; 61
    3cd8:	30 e0       	ldi	r19, 0x00	; 0
    3cda:	20 93 63 39 	sts	0x3963, r18	; 0x803963 <reactStr+0x48>
    3cde:	30 93 64 39 	sts	0x3964, r19	; 0x803964 <reactStr+0x49>
    reactStr[2][number]=type;
    3ce2:	80 93 a3 39 	sts	0x39A3, r24	; 0x8039a3 <reactStr+0x88>
    3ce6:	90 93 a4 39 	sts	0x39A4, r25	; 0x8039a4 <reactStr+0x89>
                            PopulateObject(inventory[x], &actObj1);
                            SetResponse(elements++, A_DROPPING, L_DROPPING, TEASER);
                            SetResponse(elements++, actObj1.addrStr[NAME], actObj1.lenStr[NAME], GAME);
                            SetResponse(elements++, A_LF, 2, TEASER);
                            SetResponse(elements++, A_RETURNING, L_RETURNING, TEASER);
                            inventory[x] = 0;
    3cea:	f7 01       	movw	r30, r14
    3cec:	10 82       	st	Z, r1
    3cee:	11 82       	std	Z+1, r1	; 0x01
                        if (CheckLetter(inventory[x], data[1])) {
                            PopulateObject(inventory[x], &actObj1);
                            SetResponse(elements++, A_DROPPING, L_DROPPING, TEASER);
                            SetResponse(elements++, actObj1.addrStr[NAME], actObj1.lenStr[NAME], GAME);
                            SetResponse(elements++, A_LF, 2, TEASER);
                            SetResponse(elements++, A_RETURNING, L_RETURNING, TEASER);
    3cf0:	f5 e0       	ldi	r31, 0x05	; 5
    3cf2:	7f 2e       	mov	r7, r31
                            inventory[x] = 0;
                            break;
    3cf4:	64 cf       	rjmp	.-312    	; 0x3bbe <ProcessInput+0xffa>
                SetResponse(elements++, A_EMPTYHANDS, L_EMPTYHANDS, TEASER);
            } else if (inputLen != 2) {
                SetResponse(elements++, A_NOTPOSSIBLE, L_NOTPOSSIBLE, TEASER);
            } else {
                for (uint8_t x=0; x<2; ++x) {
                    if (inventory[x]) {
    3cf6:	80 91 40 38 	lds	r24, 0x3840	; 0x803840 <inventory+0x2>
    3cfa:	90 91 41 38 	lds	r25, 0x3841	; 0x803841 <inventory+0x3>
    3cfe:	00 97       	sbiw	r24, 0x00	; 0
    3d00:	49 f0       	breq	.+18     	; 0x3d14 <ProcessInput+0x1150>
                        if (CheckLetter(inventory[x], data[1])) {
    3d02:	f8 01       	movw	r30, r16
    3d04:	61 81       	ldd	r22, Z+1	; 0x01
    3d06:	0e 94 9f 11 	call	0x233e	; 0x233e <CheckLetter>
    3d0a:	88 23       	and	r24, r24
    3d0c:	19 f0       	breq	.+6      	; 0x3d14 <ProcessInput+0x1150>
                SetResponse(elements++, A_EMPTYHANDS, L_EMPTYHANDS, TEASER);
            } else if (inputLen != 2) {
                SetResponse(elements++, A_NOTPOSSIBLE, L_NOTPOSSIBLE, TEASER);
            } else {
                for (uint8_t x=0; x<2; ++x) {
                    if (inventory[x]) {
    3d0e:	81 e0       	ldi	r24, 0x01	; 1
    3d10:	90 e0       	ldi	r25, 0x00	; 0
    3d12:	98 cf       	rjmp	.-208    	; 0x3c44 <ProcessInput+0x1080>
    return 0;
}

//
void SetResponse(uint8_t number, uint16_t address, uint16_t length, uint8_t type){
    reactStr[0][number]=address;
    3d14:	83 e6       	ldi	r24, 0x63	; 99
    3d16:	99 e7       	ldi	r25, 0x79	; 121
    3d18:	80 93 1d 39 	sts	0x391D, r24	; 0x80391d <reactStr+0x2>
    3d1c:	90 93 1e 39 	sts	0x391E, r25	; 0x80391e <reactStr+0x3>
    reactStr[1][number]=length;
    3d20:	81 e2       	ldi	r24, 0x21	; 33
    3d22:	90 e0       	ldi	r25, 0x00	; 0
    3d24:	13 c8       	rjmp	.-4058   	; 0x2d4c <ProcessInput+0x188>
    } else {
        SetResponse(0, A_LF, 2, TEASER);
        responseList = SetStandardResponse(1);
    }

    data[0] = 0;
    3d26:	d8 01       	movw	r26, r16
    3d28:	1c 92       	st	X, r1
    serRxDone = 0;
    3d2a:	10 92 44 38 	sts	0x3844, r1	; 0x803844 <serRxDone>
    RXCNT = 0;    
    3d2e:	1d ba       	out	0x1d, r1	; 29
    return 0;
}
    3d30:	80 e0       	ldi	r24, 0x00	; 0
    3d32:	28 96       	adiw	r28, 0x08	; 8
    3d34:	cd bf       	out	0x3d, r28	; 61
    3d36:	de bf       	out	0x3e, r29	; 62
    3d38:	df 91       	pop	r29
    3d3a:	cf 91       	pop	r28
    3d3c:	1f 91       	pop	r17
    3d3e:	0f 91       	pop	r16
    3d40:	ff 90       	pop	r15
    3d42:	ef 90       	pop	r14
    3d44:	df 90       	pop	r13
    3d46:	cf 90       	pop	r12
    3d48:	bf 90       	pop	r11
    3d4a:	af 90       	pop	r10
    3d4c:	9f 90       	pop	r9
    3d4e:	8f 90       	pop	r8
    3d50:	7f 90       	pop	r7
    3d52:	6f 90       	pop	r6
    3d54:	5f 90       	pop	r5
    3d56:	08 95       	ret

00003d58 <TextAdventure>:


//MAIN GAME STRUCTURE
uint8_t TextAdventure(){
    3d58:	cf 93       	push	r28
    static uint8_t serInput[RXLEN];
    uint16_t PunishmentCount;
    
    /* Count down PunishmentTime on WING LEDs */
    if (PunishmentTime != 0) {
    3d5a:	80 91 07 39 	lds	r24, 0x3907	; 0x803907 <PunishmentTime>
    3d5e:	90 91 08 39 	lds	r25, 0x3908	; 0x803908 <PunishmentTime+0x1>
    3d62:	89 2b       	or	r24, r25
    3d64:	09 f1       	breq	.+66     	; 0x3da8 <TextAdventure+0x50>
        PunishmentCount = getClock();
    3d66:	0e 94 ab 0d 	call	0x1b56	; 0x1b56 <getClock>
        if (PunishmentCount < PunishmentTime)
    3d6a:	20 91 07 39 	lds	r18, 0x3907	; 0x803907 <PunishmentTime>
    3d6e:	30 91 08 39 	lds	r19, 0x3908	; 0x803908 <PunishmentTime+0x1>
    3d72:	82 17       	cp	r24, r18
    3d74:	93 07       	cpc	r25, r19
    3d76:	08 f4       	brcc	.+2      	; 0x3d7a <TextAdventure+0x22>
            PunishmentCount += 256 * 60;
    3d78:	94 5c       	subi	r25, 0xC4	; 196
        PunishmentCount -= PunishmentTime;
    3d7a:	ac 01       	movw	r20, r24
    3d7c:	42 1b       	sub	r20, r18
    3d7e:	53 0b       	sbc	r21, r19
    3d80:	9a 01       	movw	r18, r20
        if (PunishmentCount > 10) {
    3d82:	4b 30       	cpi	r20, 0x0B	; 11
    3d84:	51 05       	cpc	r21, r1
    3d86:	30 f0       	brcs	.+12     	; 0x3d94 <TextAdventure+0x3c>
            PunishmentTime = 0;
    3d88:	10 92 07 39 	sts	0x3907, r1	; 0x803907 <PunishmentTime>
    3d8c:	10 92 08 39 	sts	0x3908, r1	; 0x803908 <PunishmentTime+0x1>
            PunishmentCount = 10;
    3d90:	2a e0       	ldi	r18, 0x0A	; 10
    3d92:	30 e0       	ldi	r19, 0x00	; 0
        }
        if (gameNow == TEXT ) {
    3d94:	80 91 3c 38 	lds	r24, 0x383C	; 0x80383c <gameNow>
    3d98:	81 11       	cpse	r24, r1
    3d9a:	06 c0       	rjmp	.+12     	; 0x3da8 <TextAdventure+0x50>
            WingBar(10-PunishmentCount,5-PunishmentCount);
    3d9c:	65 e0       	ldi	r22, 0x05	; 5
    3d9e:	62 1b       	sub	r22, r18
    3da0:	8a e0       	ldi	r24, 0x0A	; 10
    3da2:	82 1b       	sub	r24, r18
    3da4:	0e 94 7d 0b 	call	0x16fa	; 0x16fa <WingBar>
        }
    }

    //Still sending data to serial?
    if (CheckSend()) return 1;
    3da8:	0e 94 7e 12 	call	0x24fc	; 0x24fc <CheckSend>
    3dac:	88 23       	and	r24, r24
    3dae:	11 f0       	breq	.+4      	; 0x3db4 <TextAdventure+0x5c>
    3db0:	c1 e0       	ldi	r28, 0x01	; 1
    3db2:	18 c0       	rjmp	.+48     	; 0x3de4 <TextAdventure+0x8c>

    //Not sending? Process next response part to send, if any.
    if (CheckResponse()) return 1;        
    3db4:	0e 94 ec 12 	call	0x25d8	; 0x25d8 <CheckResponse>
    3db8:	c8 2f       	mov	r28, r24
    3dba:	81 11       	cpse	r24, r1
    3dbc:	f9 cf       	rjmp	.-14     	; 0x3db0 <TextAdventure+0x58>

    if (PunishmentTime == 0) {
    3dbe:	80 91 07 39 	lds	r24, 0x3907	; 0x803907 <PunishmentTime>
    3dc2:	90 91 08 39 	lds	r25, 0x3908	; 0x803908 <PunishmentTime+0x1>
    3dc6:	89 2b       	or	r24, r25
    3dc8:	69 f4       	brne	.+26     	; 0x3de4 <TextAdventure+0x8c>
        //No responses to send, check if there is user input.
        if (CheckInput(&serInput[0])) return 2; 
    3dca:	8e e6       	ldi	r24, 0x6E	; 110
    3dcc:	98 e3       	ldi	r25, 0x38	; 56
    3dce:	0e 94 33 13 	call	0x2666	; 0x2666 <CheckInput>
    3dd2:	c8 2f       	mov	r28, r24
    3dd4:	81 11       	cpse	r24, r1
    3dd6:	05 c0       	rjmp	.+10     	; 0x3de2 <TextAdventure+0x8a>

        //Input found, process and save (changes only)
        ProcessInput(&serInput[0]);
    3dd8:	8e e6       	ldi	r24, 0x6E	; 110
    3dda:	98 e3       	ldi	r25, 0x38	; 56
    3ddc:	0e 94 e2 15 	call	0x2bc4	; 0x2bc4 <ProcessInput>
    3de0:	01 c0       	rjmp	.+2      	; 0x3de4 <TextAdventure+0x8c>
    //Not sending? Process next response part to send, if any.
    if (CheckResponse()) return 1;        

    if (PunishmentTime == 0) {
        //No responses to send, check if there is user input.
        if (CheckInput(&serInput[0])) return 2; 
    3de2:	c2 e0       	ldi	r28, 0x02	; 2
        //Input found, process and save (changes only)
        ProcessInput(&serInput[0]);
    }

    return 0;
}
    3de4:	8c 2f       	mov	r24, r28
    3de6:	cf 91       	pop	r28
    3de8:	08 95       	ret

00003dea <main>:


//This is where it begins, inits first and main program in while(1) loop.
int main(void)
{
    Setup();
    3dea:	0e 94 89 05 	call	0xb12	; 0xb12 <Setup>

    LoadGameState();
    3dee:	0e 94 eb 0a 	call	0x15d6	; 0x15d6 <LoadGameState>
            SaveGameState();

            //Check light sensor status (added hysteresis to preserve writing cycles to internal EEPROM)
            if (adcPhot < 10) WriteStatusBit(116, 1);
            if (adcPhot > 100) WriteStatusBit(116, 0);
            dimValue = 0 - QSINE[31-(adcPhot>>7)];
    3df2:	cf e1       	ldi	r28, 0x1F	; 31
    3df4:	d0 e0       	ldi	r29, 0x00	; 0
    Setup();

    LoadGameState();

    while (TRUE) {
        if (GenerateAudio()) {
    3df6:	0e 94 74 0c 	call	0x18e8	; 0x18e8 <GenerateAudio>
    3dfa:	88 23       	and	r24, r24
    3dfc:	e1 f3       	breq	.-8      	; 0x3df6 <main+0xc>
            buttonState = CheckButtons();
    3dfe:	0e 94 48 09 	call	0x1290	; 0x1290 <CheckButtons>
    3e02:	80 93 09 38 	sts	0x3809, r24	; 0x803809 <buttonState>
            buttonMark = 0;
    3e06:	10 92 42 38 	sts	0x3842, r1	; 0x803842 <buttonMark>

            if (VREF_CTRLA == 0x12) SelectAuIn(); else SelectTSens();
    3e0a:	80 91 a0 00 	lds	r24, 0x00A0	; 0x8000a0 <__TEXT_REGION_LENGTH__+0x7000a0>
    3e0e:	82 31       	cpi	r24, 0x12	; 18
    3e10:	19 f4       	brne	.+6      	; 0x3e18 <main+0x2e>
    3e12:	0e 94 39 09 	call	0x1272	; 0x1272 <SelectAuIn>
    3e16:	02 c0       	rjmp	.+4      	; 0x3e1c <main+0x32>
    3e18:	0e 94 2a 09 	call	0x1254	; 0x1254 <SelectTSens>

            GenerateBlinks();
    3e1c:	0e 94 bb 0b 	call	0x1776	; 0x1776 <GenerateBlinks>

            //Main game, to complete: Finish sub-game MagnetMaze and MakeFriends too.
            TextAdventure();
    3e20:	9b df       	rcall	.-202    	; 0x3d58 <TextAdventure>

            //Other games & user interaction checks
            MagnetMaze();
    3e22:	0e 94 7d 04 	call	0x8fa	; 0x8fa <MagnetMaze>
            LanyardCode();
    3e26:	0e 94 31 03 	call	0x662	; 0x662 <LanyardCode>
            BastetDictates();
    3e2a:	0e 94 50 0e 	call	0x1ca0	; 0x1ca0 <BastetDictates>
            MakeFriends();
    3e2e:	0e 94 7a 00 	call	0xf4	; 0xf4 <MakeFriends>

            //Save progress
            SaveGameState();
    3e32:	0e 94 f9 09 	call	0x13f2	; 0x13f2 <SaveGameState>

            //Check light sensor status (added hysteresis to preserve writing cycles to internal EEPROM)
            if (adcPhot < 10) WriteStatusBit(116, 1);
    3e36:	80 91 bd 3a 	lds	r24, 0x3ABD	; 0x803abd <adcPhot>
    3e3a:	90 91 be 3a 	lds	r25, 0x3ABE	; 0x803abe <adcPhot+0x1>
    3e3e:	0a 97       	sbiw	r24, 0x0a	; 10
    3e40:	20 f4       	brcc	.+8      	; 0x3e4a <main+0x60>
    3e42:	61 e0       	ldi	r22, 0x01	; 1
    3e44:	84 e7       	ldi	r24, 0x74	; 116
    3e46:	0e 94 80 0a 	call	0x1500	; 0x1500 <WriteStatusBit>
            if (adcPhot > 100) WriteStatusBit(116, 0);
    3e4a:	80 91 bd 3a 	lds	r24, 0x3ABD	; 0x803abd <adcPhot>
    3e4e:	90 91 be 3a 	lds	r25, 0x3ABE	; 0x803abe <adcPhot+0x1>
    3e52:	85 36       	cpi	r24, 0x65	; 101
    3e54:	91 05       	cpc	r25, r1
    3e56:	20 f0       	brcs	.+8      	; 0x3e60 <main+0x76>
    3e58:	60 e0       	ldi	r22, 0x00	; 0
    3e5a:	84 e7       	ldi	r24, 0x74	; 116
    3e5c:	0e 94 80 0a 	call	0x1500	; 0x1500 <WriteStatusBit>
            dimValue = 0 - QSINE[31-(adcPhot>>7)];
    3e60:	80 91 bd 3a 	lds	r24, 0x3ABD	; 0x803abd <adcPhot>
    3e64:	90 91 be 3a 	lds	r25, 0x3ABE	; 0x803abe <adcPhot+0x1>
    3e68:	88 0f       	add	r24, r24
    3e6a:	89 2f       	mov	r24, r25
    3e6c:	88 1f       	adc	r24, r24
    3e6e:	99 0b       	sbc	r25, r25
    3e70:	91 95       	neg	r25
    3e72:	fe 01       	movw	r30, r28
    3e74:	e8 1b       	sub	r30, r24
    3e76:	f9 0b       	sbc	r31, r25
    3e78:	ec 52       	subi	r30, 0x2C	; 44
    3e7a:	f1 44       	sbci	r31, 0x41	; 65
    3e7c:	80 81       	ld	r24, Z
    3e7e:	81 95       	neg	r24
    3e80:	80 93 0b 38 	sts	0x380B, r24	; 0x80380b <dimValue>

            //Check temperature
            HotSummer();
    3e84:	0e 94 18 0b 	call	0x1630	; 0x1630 <HotSummer>
    3e88:	b6 cf       	rjmp	.-148    	; 0x3df6 <main+0xc>

00003e8a <_exit>:
    3e8a:	f8 94       	cli

00003e8c <__stop_program>:
    3e8c:	ff cf       	rjmp	.-2      	; 0x3e8c <__stop_program>
