
ISR_IO.elf:     file format elf32-avr

Sections:
Idx Name          Size      VMA       LMA       File off  Algn
  0 .data         00000028  00803800  0000364c  00003700  2**0
                  CONTENTS, ALLOC, LOAD, DATA
  1 .text         00003572  00000000  00000000  000000b4  2**1
                  CONTENTS, ALLOC, LOAD, READONLY, CODE
  2 .rodata       000000da  0000b572  00003572  00003626  2**0
                  CONTENTS, ALLOC, LOAD, READONLY, DATA
  3 .bss          000002e3  00803828  00803828  00003728  2**0
                  ALLOC
  4 .comment      00000030  00000000  00000000  00003728  2**0
                  CONTENTS, READONLY
  5 .note.gnu.avr.deviceinfo 00000040  00000000  00000000  00003758  2**2
                  CONTENTS, READONLY
  6 .debug_aranges 000002c0  00000000  00000000  00003798  2**0
                  CONTENTS, READONLY, DEBUGGING
  7 .debug_info   000062c0  00000000  00000000  00003a58  2**0
                  CONTENTS, READONLY, DEBUGGING
  8 .debug_abbrev 000025df  00000000  00000000  00009d18  2**0
                  CONTENTS, READONLY, DEBUGGING
  9 .debug_line   000032c5  00000000  00000000  0000c2f7  2**0
                  CONTENTS, READONLY, DEBUGGING
 10 .debug_frame  00000888  00000000  00000000  0000f5bc  2**2
                  CONTENTS, READONLY, DEBUGGING
 11 .debug_str    000018bd  00000000  00000000  0000fe44  2**0
                  CONTENTS, READONLY, DEBUGGING
 12 .debug_loc    000040b0  00000000  00000000  00011701  2**0
                  CONTENTS, READONLY, DEBUGGING
 13 .debug_ranges 00000340  00000000  00000000  000157b1  2**0
                  CONTENTS, READONLY, DEBUGGING

Disassembly of section .text:

00000000 <__vectors>:
       0:	3d c0       	rjmp	.+122    	; 0x7c <__ctors_end>
       2:	00 00       	nop
       4:	58 c0       	rjmp	.+176    	; 0xb6 <__bad_interrupt>
       6:	00 00       	nop
       8:	56 c0       	rjmp	.+172    	; 0xb6 <__bad_interrupt>
       a:	00 00       	nop
       c:	54 c0       	rjmp	.+168    	; 0xb6 <__bad_interrupt>
       e:	00 00       	nop
      10:	52 c0       	rjmp	.+164    	; 0xb6 <__bad_interrupt>
      12:	00 00       	nop
      14:	50 c0       	rjmp	.+160    	; 0xb6 <__bad_interrupt>
      16:	00 00       	nop
      18:	9b c6       	rjmp	.+3382   	; 0xd50 <__vector_6>
      1a:	00 00       	nop
      1c:	e3 c6       	rjmp	.+3526   	; 0xde4 <__vector_7>
      1e:	00 00       	nop
      20:	ce c4       	rjmp	.+2460   	; 0x9be <__vector_8>
      22:	00 00       	nop
      24:	48 c0       	rjmp	.+144    	; 0xb6 <__bad_interrupt>
      26:	00 00       	nop
      28:	46 c0       	rjmp	.+140    	; 0xb6 <__bad_interrupt>
      2a:	00 00       	nop
      2c:	44 c0       	rjmp	.+136    	; 0xb6 <__bad_interrupt>
      2e:	00 00       	nop
      30:	42 c0       	rjmp	.+132    	; 0xb6 <__bad_interrupt>
      32:	00 00       	nop
      34:	15 c5       	rjmp	.+2602   	; 0xa60 <__vector_13>
      36:	00 00       	nop
      38:	46 c5       	rjmp	.+2700   	; 0xac6 <__vector_14>
      3a:	00 00       	nop
      3c:	3c c0       	rjmp	.+120    	; 0xb6 <__bad_interrupt>
      3e:	00 00       	nop
      40:	3a c0       	rjmp	.+116    	; 0xb6 <__bad_interrupt>
      42:	00 00       	nop
      44:	38 c0       	rjmp	.+112    	; 0xb6 <__bad_interrupt>
      46:	00 00       	nop
      48:	36 c0       	rjmp	.+108    	; 0xb6 <__bad_interrupt>
      4a:	00 00       	nop
      4c:	34 c0       	rjmp	.+104    	; 0xb6 <__bad_interrupt>
      4e:	00 00       	nop
      50:	04 c6       	rjmp	.+3080   	; 0xc5a <__vector_20>
      52:	00 00       	nop
      54:	30 c0       	rjmp	.+96     	; 0xb6 <__bad_interrupt>
      56:	00 00       	nop
      58:	33 c6       	rjmp	.+3174   	; 0xcc0 <__vector_22>
      5a:	00 00       	nop
      5c:	2c c0       	rjmp	.+88     	; 0xb6 <__bad_interrupt>
      5e:	00 00       	nop
      60:	2a c0       	rjmp	.+84     	; 0xb6 <__bad_interrupt>
      62:	00 00       	nop
      64:	28 c0       	rjmp	.+80     	; 0xb6 <__bad_interrupt>
      66:	00 00       	nop
      68:	26 c0       	rjmp	.+76     	; 0xb6 <__bad_interrupt>
      6a:	00 00       	nop
      6c:	7f c5       	rjmp	.+2814   	; 0xb6c <__vector_27>
      6e:	00 00       	nop
      70:	d8 c5       	rjmp	.+2992   	; 0xc22 <__vector_28>
      72:	00 00       	nop
      74:	20 c0       	rjmp	.+64     	; 0xb6 <__bad_interrupt>
      76:	00 00       	nop
      78:	1e c0       	rjmp	.+60     	; 0xb6 <__bad_interrupt>
	...

0000007c <__ctors_end>:
      7c:	11 24       	eor	r1, r1
      7e:	1f be       	out	0x3f, r1	; 63
      80:	cf ef       	ldi	r28, 0xFF	; 255
      82:	cd bf       	out	0x3d, r28	; 61
      84:	df e3       	ldi	r29, 0x3F	; 63
      86:	de bf       	out	0x3e, r29	; 62

00000088 <__do_copy_data>:
      88:	18 e3       	ldi	r17, 0x38	; 56
      8a:	a0 e0       	ldi	r26, 0x00	; 0
      8c:	b8 e3       	ldi	r27, 0x38	; 56
      8e:	ec e4       	ldi	r30, 0x4C	; 76
      90:	f6 e3       	ldi	r31, 0x36	; 54
      92:	02 c0       	rjmp	.+4      	; 0x98 <__do_copy_data+0x10>
      94:	05 90       	lpm	r0, Z+
      96:	0d 92       	st	X+, r0
      98:	a8 32       	cpi	r26, 0x28	; 40
      9a:	b1 07       	cpc	r27, r17
      9c:	d9 f7       	brne	.-10     	; 0x94 <__do_copy_data+0xc>

0000009e <__do_clear_bss>:
      9e:	2b e3       	ldi	r18, 0x3B	; 59
      a0:	a8 e2       	ldi	r26, 0x28	; 40
      a2:	b8 e3       	ldi	r27, 0x38	; 56
      a4:	01 c0       	rjmp	.+2      	; 0xa8 <.do_clear_bss_start>

000000a6 <.do_clear_bss_loop>:
      a6:	1d 92       	st	X+, r1

000000a8 <.do_clear_bss_start>:
      a8:	ab 30       	cpi	r26, 0x0B	; 11
      aa:	b2 07       	cpc	r27, r18
      ac:	e1 f7       	brne	.-8      	; 0xa6 <.do_clear_bss_loop>
      ae:	0e 94 d1 19 	call	0x33a2	; 0x33a2 <main>
      b2:	0c 94 b7 1a 	jmp	0x356e	; 0x356e <_exit>

000000b6 <__bad_interrupt>:
      b6:	a4 cf       	rjmp	.-184    	; 0x0 <__vectors>

000000b8 <I2C_init>:
// the Atmel device documentation mentions a special command for repeated start TWI_MCMD_REPSTART_gc,
// but this is not used in Atmel's demo code, so we don't use it either

void I2C_rep_start(uint8_t shifted_addr)						    // send repeated start, device_addr + LSB set if READ
{
	TWI0.MADDR = shifted_addr;	
      b8:	81 e0       	ldi	r24, 0x01	; 1
      ba:	80 93 22 04 	sts	0x0422, r24	; 0x800422 <__TEXT_REGION_LENGTH__+0x700422>
      be:	e6 e2       	ldi	r30, 0x26	; 38
      c0:	f4 e0       	ldi	r31, 0x04	; 4
      c2:	80 83       	st	Z, r24
      c4:	10 92 30 04 	sts	0x0430, r1	; 0x800430 <__TEXT_REGION_LENGTH__+0x700430>
      c8:	a1 e2       	ldi	r26, 0x21	; 33
      ca:	b4 e0       	ldi	r27, 0x04	; 4
      cc:	92 e0       	ldi	r25, 0x02	; 2
      ce:	9c 93       	st	X, r25
      d0:	90 83       	st	Z, r25
      d2:	10 92 31 04 	sts	0x0431, r1	; 0x800431 <__TEXT_REGION_LENGTH__+0x700431>
      d6:	e0 e1       	ldi	r30, 0x10	; 16
      d8:	f8 e0       	ldi	r31, 0x08	; 8
      da:	97 e0       	ldi	r25, 0x07	; 7
      dc:	96 83       	std	Z+6, r25	; 0x06
      de:	98 e0       	ldi	r25, 0x08	; 8
      e0:	94 83       	std	Z+4, r25	; 0x04
      e2:	83 83       	std	Z+3, r24	; 0x03
      e4:	8c 93       	st	X, r24
      e6:	85 81       	ldd	r24, Z+5	; 0x05
      e8:	81 60       	ori	r24, 0x01	; 1
      ea:	85 83       	std	Z+5, r24	; 0x05
      ec:	85 81       	ldd	r24, Z+5	; 0x05
      ee:	84 6c       	ori	r24, 0xC4	; 196
      f0:	85 83       	std	Z+5, r24	; 0x05
      f2:	08 95       	ret

000000f4 <I2C_recover>:
      f4:	80 91 14 08 	lds	r24, 0x0814	; 0x800814 <__TEXT_REGION_LENGTH__+0x700814>
      f8:	88 60       	ori	r24, 0x08	; 8
      fa:	80 93 14 08 	sts	0x0814, r24	; 0x800814 <__TEXT_REGION_LENGTH__+0x700814>
      fe:	10 92 13 08 	sts	0x0813, r1	; 0x800813 <__TEXT_REGION_LENGTH__+0x700813>
     102:	82 e0       	ldi	r24, 0x02	; 2
     104:	80 93 22 04 	sts	0x0422, r24	; 0x800422 <__TEXT_REGION_LENGTH__+0x700422>
     108:	99 e0       	ldi	r25, 0x09	; 9
     10a:	21 e0       	ldi	r18, 0x01	; 1
     10c:	81 e0       	ldi	r24, 0x01	; 1
     10e:	20 93 21 04 	sts	0x0421, r18	; 0x800421 <__TEXT_REGION_LENGTH__+0x700421>
     112:	30 e1       	ldi	r19, 0x10	; 16
     114:	3a 95       	dec	r19
     116:	f1 f7       	brne	.-4      	; 0x114 <I2C_recover+0x20>
     118:	00 c0       	rjmp	.+0      	; 0x11a <I2C_recover+0x26>
     11a:	20 93 22 04 	sts	0x0422, r18	; 0x800422 <__TEXT_REGION_LENGTH__+0x700422>
     11e:	30 e1       	ldi	r19, 0x10	; 16
     120:	3a 95       	dec	r19
     122:	f1 f7       	brne	.-4      	; 0x120 <I2C_recover+0x2c>
     124:	00 c0       	rjmp	.+0      	; 0x126 <I2C_recover+0x32>
     126:	91 50       	subi	r25, 0x01	; 1
     128:	89 f7       	brne	.-30     	; 0x10c <I2C_recover+0x18>
     12a:	28 e0       	ldi	r18, 0x08	; 8
     12c:	20 93 14 08 	sts	0x0814, r18	; 0x800814 <__TEXT_REGION_LENGTH__+0x700814>
     130:	80 93 13 08 	sts	0x0813, r24	; 0x800813 <__TEXT_REGION_LENGTH__+0x700813>
     134:	92 e0       	ldi	r25, 0x02	; 2
     136:	90 93 21 04 	sts	0x0421, r25	; 0x800421 <__TEXT_REGION_LENGTH__+0x700421>
     13a:	90 91 15 08 	lds	r25, 0x0815	; 0x800815 <__TEXT_REGION_LENGTH__+0x700815>
     13e:	91 60       	ori	r25, 0x01	; 1
     140:	90 93 15 08 	sts	0x0815, r25	; 0x800815 <__TEXT_REGION_LENGTH__+0x700815>
     144:	90 91 15 08 	lds	r25, 0x0815	; 0x800815 <__TEXT_REGION_LENGTH__+0x700815>
     148:	94 6c       	ori	r25, 0xC4	; 196
     14a:	90 93 15 08 	sts	0x0815, r25	; 0x800815 <__TEXT_REGION_LENGTH__+0x700815>
     14e:	20 93 14 08 	sts	0x0814, r18	; 0x800814 <__TEXT_REGION_LENGTH__+0x700814>
     152:	80 93 13 08 	sts	0x0813, r24	; 0x800813 <__TEXT_REGION_LENGTH__+0x700813>
     156:	80 93 21 04 	sts	0x0421, r24	; 0x800421 <__TEXT_REGION_LENGTH__+0x700421>
     15a:	80 91 15 08 	lds	r24, 0x0815	; 0x800815 <__TEXT_REGION_LENGTH__+0x700815>
     15e:	81 60       	ori	r24, 0x01	; 1
     160:	80 93 15 08 	sts	0x0815, r24	; 0x800815 <__TEXT_REGION_LENGTH__+0x700815>
     164:	80 91 15 08 	lds	r24, 0x0815	; 0x800815 <__TEXT_REGION_LENGTH__+0x700815>
     168:	84 6c       	ori	r24, 0xC4	; 196
     16a:	80 93 15 08 	sts	0x0815, r24	; 0x800815 <__TEXT_REGION_LENGTH__+0x700815>
     16e:	08 95       	ret

00000170 <I2C_start>:
     170:	28 2f       	mov	r18, r24
     172:	90 91 15 08 	lds	r25, 0x0815	; 0x800815 <__TEXT_REGION_LENGTH__+0x700815>
     176:	90 6c       	ori	r25, 0xC0	; 192
     178:	90 93 15 08 	sts	0x0815, r25	; 0x800815 <__TEXT_REGION_LENGTH__+0x700815>
     17c:	90 91 15 08 	lds	r25, 0x0815	; 0x800815 <__TEXT_REGION_LENGTH__+0x700815>
     180:	89 2f       	mov	r24, r25
     182:	84 70       	andi	r24, 0x04	; 4
     184:	92 fd       	sbrc	r25, 2
     186:	03 c0       	rjmp	.+6      	; 0x18e <I2C_start+0x1e>
     188:	20 93 17 08 	sts	0x0817, r18	; 0x800817 <__TEXT_REGION_LENGTH__+0x700817>
     18c:	08 95       	ret
     18e:	84 e0       	ldi	r24, 0x04	; 4
     190:	08 95       	ret

00000192 <I2C_wait_ACK>:
     192:	8c e0       	ldi	r24, 0x0C	; 12
     194:	80 93 39 3a 	sts	0x3A39, r24	; 0x803a39 <timeout_I2C>
     198:	80 91 15 08 	lds	r24, 0x0815	; 0x800815 <__TEXT_REGION_LENGTH__+0x700815>
     19c:	87 fd       	sbrc	r24, 7
     19e:	0a c0       	rjmp	.+20     	; 0x1b4 <I2C_wait_ACK+0x22>
     1a0:	80 91 15 08 	lds	r24, 0x0815	; 0x800815 <__TEXT_REGION_LENGTH__+0x700815>
     1a4:	86 fd       	sbrc	r24, 6
     1a6:	06 c0       	rjmp	.+12     	; 0x1b4 <I2C_wait_ACK+0x22>
     1a8:	80 91 39 3a 	lds	r24, 0x3A39	; 0x803a39 <timeout_I2C>
     1ac:	81 11       	cpse	r24, r1
     1ae:	f4 cf       	rjmp	.-24     	; 0x198 <I2C_wait_ACK+0x6>
     1b0:	8f ef       	ldi	r24, 0xFF	; 255
     1b2:	08 95       	ret
     1b4:	80 91 15 08 	lds	r24, 0x0815	; 0x800815 <__TEXT_REGION_LENGTH__+0x700815>
     1b8:	80 6c       	ori	r24, 0xC0	; 192
     1ba:	80 93 15 08 	sts	0x0815, r24	; 0x800815 <__TEXT_REGION_LENGTH__+0x700815>
     1be:	80 91 15 08 	lds	r24, 0x0815	; 0x800815 <__TEXT_REGION_LENGTH__+0x700815>
     1c2:	82 fd       	sbrc	r24, 2
     1c4:	09 c0       	rjmp	.+18     	; 0x1d8 <I2C_wait_ACK+0x46>
     1c6:	80 91 15 08 	lds	r24, 0x0815	; 0x800815 <__TEXT_REGION_LENGTH__+0x700815>
     1ca:	83 fd       	sbrc	r24, 3
     1cc:	07 c0       	rjmp	.+14     	; 0x1dc <I2C_wait_ACK+0x4a>
     1ce:	80 91 15 08 	lds	r24, 0x0815	; 0x800815 <__TEXT_REGION_LENGTH__+0x700815>
     1d2:	82 95       	swap	r24
     1d4:	81 70       	andi	r24, 0x01	; 1
     1d6:	08 95       	ret
     1d8:	84 e0       	ldi	r24, 0x04	; 4
     1da:	08 95       	ret
     1dc:	82 e0       	ldi	r24, 0x02	; 2
     1de:	08 95       	ret

000001e0 <I2C_read>:
}

uint8_t	I2C_read(uint8_t *data, uint8_t ack_flag)					// read data, ack_flag 0: send ACK, 1: send NACK, returns status
{
     1e0:	fc 01       	movw	r30, r24
	timeout_I2C = READ_TIMEOUT;										// reset timeout counter, will be decremented by LED matrix interrupt
     1e2:	8c e0       	ldi	r24, 0x0C	; 12
     1e4:	80 93 39 3a 	sts	0x3A39, r24	; 0x803a39 <timeout_I2C>
	if ((TWI0.MSTATUS & TWI_BUSSTATE_gm) == TWI_BUSSTATE_OWNER_gc)	// if master controls bus
     1e8:	90 91 15 08 	lds	r25, 0x0815	; 0x800815 <__TEXT_REGION_LENGTH__+0x700815>
     1ec:	89 2f       	mov	r24, r25
     1ee:	83 70       	andi	r24, 0x03	; 3
     1f0:	82 30       	cpi	r24, 0x02	; 2
     1f2:	11 f0       	breq	.+4      	; 0x1f8 <I2C_read+0x18>
		else		TWI0.MCTRLB |= TWI_ACKACT_NACK_gc;				// setup NACK (last byte read)
		*data = TWI0.MDATA;
		if (ack_flag == 0) TWI0.MCTRLB |= TWI_MCMD_RECVTRANS_gc;	// send ACK, more bytes to follow					
		return 0;
	}
	else return 8;													// master does not control bus
     1f4:	88 e0       	ldi	r24, 0x08	; 8
     1f6:	08 95       	ret
uint8_t	I2C_read(uint8_t *data, uint8_t ack_flag)					// read data, ack_flag 0: send ACK, 1: send NACK, returns status
{
	timeout_I2C = READ_TIMEOUT;										// reset timeout counter, will be decremented by LED matrix interrupt
	if ((TWI0.MSTATUS & TWI_BUSSTATE_gm) == TWI_BUSSTATE_OWNER_gc)	// if master controls bus
	{		
		while (!(TWI0.MSTATUS & TWI_RIF_bm))						// wait for RIF set (data byte received)
     1f8:	90 91 15 08 	lds	r25, 0x0815	; 0x800815 <__TEXT_REGION_LENGTH__+0x700815>
     1fc:	97 fd       	sbrc	r25, 7
     1fe:	06 c0       	rjmp	.+12     	; 0x20c <I2C_read+0x2c>
		{
			if (!(timeout_I2C)) return 0xff;			            // return timeout error
     200:	90 91 39 3a 	lds	r25, 0x3A39	; 0x803a39 <timeout_I2C>
     204:	91 11       	cpse	r25, r1
     206:	f8 cf       	rjmp	.-16     	; 0x1f8 <I2C_read+0x18>
     208:	8f ef       	ldi	r24, 0xFF	; 255
     20a:	08 95       	ret
		}
		TWI0.MSTATUS |= (TWI_RIF_bm | TWI_WIF_bm);					// clear Read and Write interrupt flags	
     20c:	90 91 15 08 	lds	r25, 0x0815	; 0x800815 <__TEXT_REGION_LENGTH__+0x700815>
     210:	90 6c       	ori	r25, 0xC0	; 192
     212:	90 93 15 08 	sts	0x0815, r25	; 0x800815 <__TEXT_REGION_LENGTH__+0x700815>
		if (TWI0.MSTATUS & TWI_BUSERR_bm) return 4;					// Bus Error, abort
     216:	90 91 15 08 	lds	r25, 0x0815	; 0x800815 <__TEXT_REGION_LENGTH__+0x700815>
     21a:	92 fd       	sbrc	r25, 2
     21c:	1e c0       	rjmp	.+60     	; 0x25a <I2C_read+0x7a>
		if (TWI0.MSTATUS & TWI_ARBLOST_bm) return 2;				// Arbitration Lost, abort
     21e:	90 91 15 08 	lds	r25, 0x0815	; 0x800815 <__TEXT_REGION_LENGTH__+0x700815>
     222:	93 fd       	sbrc	r25, 3
     224:	1d c0       	rjmp	.+58     	; 0x260 <I2C_read+0x80>
		if (TWI0.MSTATUS & TWI_RXACK_bm) return 1;					// Slave replied with NACK, abort				
     226:	90 91 15 08 	lds	r25, 0x0815	; 0x800815 <__TEXT_REGION_LENGTH__+0x700815>
     22a:	89 2f       	mov	r24, r25
     22c:	80 71       	andi	r24, 0x10	; 16
     22e:	94 fd       	sbrc	r25, 4
     230:	16 c0       	rjmp	.+44     	; 0x25e <I2C_read+0x7e>
		if (ack_flag == 0) TWI0.MCTRLB &= ~(1 << TWI_ACKACT_bp);	// setup ACK
     232:	90 91 14 08 	lds	r25, 0x0814	; 0x800814 <__TEXT_REGION_LENGTH__+0x700814>
     236:	61 11       	cpse	r22, r1
     238:	02 c0       	rjmp	.+4      	; 0x23e <I2C_read+0x5e>
     23a:	9b 7f       	andi	r25, 0xFB	; 251
     23c:	01 c0       	rjmp	.+2      	; 0x240 <I2C_read+0x60>
		else		TWI0.MCTRLB |= TWI_ACKACT_NACK_gc;				// setup NACK (last byte read)
     23e:	94 60       	ori	r25, 0x04	; 4
     240:	90 93 14 08 	sts	0x0814, r25	; 0x800814 <__TEXT_REGION_LENGTH__+0x700814>
		*data = TWI0.MDATA;
     244:	90 91 18 08 	lds	r25, 0x0818	; 0x800818 <__TEXT_REGION_LENGTH__+0x700818>
     248:	90 83       	st	Z, r25
		if (ack_flag == 0) TWI0.MCTRLB |= TWI_MCMD_RECVTRANS_gc;	// send ACK, more bytes to follow					
     24a:	61 11       	cpse	r22, r1
     24c:	09 c0       	rjmp	.+18     	; 0x260 <I2C_read+0x80>
     24e:	90 91 14 08 	lds	r25, 0x0814	; 0x800814 <__TEXT_REGION_LENGTH__+0x700814>
     252:	92 60       	ori	r25, 0x02	; 2
     254:	90 93 14 08 	sts	0x0814, r25	; 0x800814 <__TEXT_REGION_LENGTH__+0x700814>
     258:	08 95       	ret
		while (!(TWI0.MSTATUS & TWI_RIF_bm))						// wait for RIF set (data byte received)
		{
			if (!(timeout_I2C)) return 0xff;			            // return timeout error
		}
		TWI0.MSTATUS |= (TWI_RIF_bm | TWI_WIF_bm);					// clear Read and Write interrupt flags	
		if (TWI0.MSTATUS & TWI_BUSERR_bm) return 4;					// Bus Error, abort
     25a:	84 e0       	ldi	r24, 0x04	; 4
     25c:	08 95       	ret
		if (TWI0.MSTATUS & TWI_ARBLOST_bm) return 2;				// Arbitration Lost, abort
		if (TWI0.MSTATUS & TWI_RXACK_bm) return 1;					// Slave replied with NACK, abort				
     25e:	81 e0       	ldi	r24, 0x01	; 1
		*data = TWI0.MDATA;
		if (ack_flag == 0) TWI0.MCTRLB |= TWI_MCMD_RECVTRANS_gc;	// send ACK, more bytes to follow					
		return 0;
	}
	else return 8;													// master does not control bus
}
     260:	08 95       	ret

00000262 <I2C_write>:

uint8_t I2C_write(uint8_t *data)									// write data, return status
{
     262:	fc 01       	movw	r30, r24
	timeout_I2C = WRITE_TIMEOUT;									// reset timeout counter, will be decremented by LED matrix interrupt
     264:	8c e0       	ldi	r24, 0x0C	; 12
     266:	80 93 39 3a 	sts	0x3A39, r24	; 0x803a39 <timeout_I2C>
	if ((TWI0.MSTATUS & TWI_BUSSTATE_gm) == TWI_BUSSTATE_OWNER_gc)	// if master controls bus
     26a:	90 91 15 08 	lds	r25, 0x0815	; 0x800815 <__TEXT_REGION_LENGTH__+0x700815>
     26e:	93 70       	andi	r25, 0x03	; 3
     270:	92 30       	cpi	r25, 0x02	; 2
     272:	b1 f4       	brne	.+44     	; 0x2a0 <I2C_write+0x3e>
	{
		TWI0.MDATA = *data;		
     274:	80 81       	ld	r24, Z
     276:	80 93 18 08 	sts	0x0818, r24	; 0x800818 <__TEXT_REGION_LENGTH__+0x700818>
		while (!(TWI0.MSTATUS & TWI_WIF_bm))						// wait until WIF set, status register contains ACK/NACK bit
     27a:	80 91 15 08 	lds	r24, 0x0815	; 0x800815 <__TEXT_REGION_LENGTH__+0x700815>
     27e:	86 fd       	sbrc	r24, 6
     280:	06 c0       	rjmp	.+12     	; 0x28e <I2C_write+0x2c>
		{
			if (!(timeout_I2C)) return 0xff;			            // return timeout error
     282:	80 91 39 3a 	lds	r24, 0x3A39	; 0x803a39 <timeout_I2C>
     286:	81 11       	cpse	r24, r1
     288:	f8 cf       	rjmp	.-16     	; 0x27a <I2C_write+0x18>
     28a:	8f ef       	ldi	r24, 0xFF	; 255
     28c:	08 95       	ret
		}
		if (TWI0.MSTATUS & TWI_BUSERR_bm) return 4;					// Bus Error, abort
     28e:	80 91 15 08 	lds	r24, 0x0815	; 0x800815 <__TEXT_REGION_LENGTH__+0x700815>
     292:	82 fd       	sbrc	r24, 2
     294:	07 c0       	rjmp	.+14     	; 0x2a4 <I2C_write+0x42>
		if (TWI0.MSTATUS & TWI_RXACK_bm) return 1;					// Slave replied with NACK, abort
     296:	80 91 15 08 	lds	r24, 0x0815	; 0x800815 <__TEXT_REGION_LENGTH__+0x700815>
	if ((TWI0.MSTATUS & TWI_BUSSTATE_gm) == TWI_BUSSTATE_OWNER_gc)	// if master controls bus
	{
		TWI0.MDATA = *data;		
		while (!(TWI0.MSTATUS & TWI_WIF_bm))						// wait until WIF set, status register contains ACK/NACK bit
		{
			if (!(timeout_I2C)) return 0xff;			            // return timeout error
     29a:	82 95       	swap	r24
     29c:	81 70       	andi	r24, 0x01	; 1
     29e:	08 95       	ret
		}
		if (TWI0.MSTATUS & TWI_BUSERR_bm) return 4;					// Bus Error, abort
		if (TWI0.MSTATUS & TWI_RXACK_bm) return 1;					// Slave replied with NACK, abort
		return 0;													// no error	
	}
	else return 8;													// master does not control bus
     2a0:	88 e0       	ldi	r24, 0x08	; 8
     2a2:	08 95       	ret
		TWI0.MDATA = *data;		
		while (!(TWI0.MSTATUS & TWI_WIF_bm))						// wait until WIF set, status register contains ACK/NACK bit
		{
			if (!(timeout_I2C)) return 0xff;			            // return timeout error
		}
		if (TWI0.MSTATUS & TWI_BUSERR_bm) return 4;					// Bus Error, abort
     2a4:	84 e0       	ldi	r24, 0x04	; 4
		if (TWI0.MSTATUS & TWI_RXACK_bm) return 1;					// Slave replied with NACK, abort
		return 0;													// no error	
	}
	else return 8;													// master does not control bus
}
     2a6:	08 95       	ret

000002a8 <I2C_stop>:

void I2C_stop()
{
	TWI0.MCTRLB |= TWI_MCMD_STOP_gc;
     2a8:	e0 e1       	ldi	r30, 0x10	; 16
     2aa:	f8 e0       	ldi	r31, 0x08	; 8
     2ac:	84 81       	ldd	r24, Z+4	; 0x04
     2ae:	83 60       	ori	r24, 0x03	; 3
     2b0:	84 83       	std	Z+4, r24	; 0x04
     2b2:	08 95       	ret

000002b4 <I2C_read_bytes>:
// addr_ptr		address of first array element to transfer
// slave reg	starting slave register
// num_bytes	number of bytes to transfer

uint8_t	I2C_read_bytes(uint8_t slave_addr, uint8_t *reg_ptr, uint8_t reg_len, uint8_t *dat_ptr, uint8_t dat_len)
{
     2b4:	cf 92       	push	r12
     2b6:	df 92       	push	r13
     2b8:	ff 92       	push	r15
     2ba:	0f 93       	push	r16
     2bc:	1f 93       	push	r17
     2be:	cf 93       	push	r28
     2c0:	df 93       	push	r29
     2c2:	6b 01       	movw	r12, r22
     2c4:	f4 2e       	mov	r15, r20
     2c6:	e9 01       	movw	r28, r18
	uint8_t status;
	if (dat_len > MAX_LEN) dat_len = MAX_LEN;
	status = I2C_start(slave_addr << 1);							// slave write address, LSB 0
     2c8:	18 2f       	mov	r17, r24
     2ca:	11 0f       	add	r17, r17
     2cc:	81 2f       	mov	r24, r17
     2ce:	50 df       	rcall	.-352    	; 0x170 <I2C_start>
	if (status != 0) goto error;
     2d0:	81 11       	cpse	r24, r1
	status = I2C_wait_ACK();										// wait for slave ACK
     2d2:	2b c0       	rjmp	.+86     	; 0x32a <I2C_read_bytes+0x76>
     2d4:	5e df       	rcall	.-324    	; 0x192 <I2C_wait_ACK>
	if (status == 1) {
     2d6:	81 30       	cpi	r24, 0x01	; 1
		I2C_stop();													// NACK, abort
     2d8:	19 f4       	brne	.+6      	; 0x2e0 <I2C_read_bytes+0x2c>
     2da:	e6 df       	rcall	.-52     	; 0x2a8 <I2C_stop>
		return 1;
     2dc:	81 e0       	ldi	r24, 0x01	; 1
     2de:	27 c0       	rjmp	.+78     	; 0x32e <I2C_read_bytes+0x7a>
	}
	if (status != 0) goto error;
     2e0:	81 11       	cpse	r24, r1
     2e2:	23 c0       	rjmp	.+70     	; 0x32a <I2C_read_bytes+0x76>
    while(reg_len > 0){
     2e4:	ff 20       	and	r15, r15
	    status = I2C_write(reg_ptr);    							// send slave start register
     2e6:	49 f0       	breq	.+18     	; 0x2fa <I2C_read_bytes+0x46>
     2e8:	c6 01       	movw	r24, r12
     2ea:	bb df       	rcall	.-138    	; 0x262 <I2C_write>
	    if (status != 0) goto error;
     2ec:	81 11       	cpse	r24, r1
     2ee:	1d c0       	rjmp	.+58     	; 0x32a <I2C_read_bytes+0x76>
        ++reg_ptr;
     2f0:	8f ef       	ldi	r24, 0xFF	; 255
     2f2:	c8 1a       	sub	r12, r24
     2f4:	d8 0a       	sbc	r13, r24
        --reg_len;
     2f6:	fa 94       	dec	r15
     2f8:	f5 cf       	rjmp	.-22     	; 0x2e4 <I2C_read_bytes+0x30>
     2fa:	01 34       	cpi	r16, 0x41	; 65
     2fc:	08 f0       	brcs	.+2      	; 0x300 <I2C_read_bytes+0x4c>
     2fe:	00 e4       	ldi	r16, 0x40	; 64
    }
	I2C_rep_start((slave_addr << 1) + 1);							// slave read address, LSB 1
     300:	1f 5f       	subi	r17, 0xFF	; 255
// the Atmel device documentation mentions a special command for repeated start TWI_MCMD_REPSTART_gc,
// but this is not used in Atmel's demo code, so we don't use it either

void I2C_rep_start(uint8_t shifted_addr)						    // send repeated start, device_addr + LSB set if READ
{
	TWI0.MADDR = shifted_addr;	
     302:	10 93 17 08 	sts	0x0817, r17	; 0x800817 <__TEXT_REGION_LENGTH__+0x700817>
	    if (status != 0) goto error;
        ++reg_ptr;
        --reg_len;
    }
	I2C_rep_start((slave_addr << 1) + 1);							// slave read address, LSB 1
	while (dat_len > 1) {
     306:	02 30       	cpi	r16, 0x02	; 2
		status = I2C_read(dat_ptr, 0);								// first bytes, send ACK
     308:	40 f0       	brcs	.+16     	; 0x31a <I2C_read_bytes+0x66>
     30a:	60 e0       	ldi	r22, 0x00	; 0
     30c:	ce 01       	movw	r24, r28
     30e:	68 df       	rcall	.-304    	; 0x1e0 <I2C_read>
		if (status != 0) goto error;
     310:	81 11       	cpse	r24, r1
     312:	0b c0       	rjmp	.+22     	; 0x32a <I2C_read_bytes+0x76>
		++dat_ptr;
		--dat_len;
     314:	21 96       	adiw	r28, 0x01	; 1
     316:	01 50       	subi	r16, 0x01	; 1
	}
	status = I2C_read(dat_ptr, 1);									// single or last byte, send NACK
     318:	f6 cf       	rjmp	.-20     	; 0x306 <I2C_read_bytes+0x52>
     31a:	61 e0       	ldi	r22, 0x01	; 1
     31c:	ce 01       	movw	r24, r28
	if (status != 0) goto error;
     31e:	60 df       	rcall	.-320    	; 0x1e0 <I2C_read>
     320:	81 11       	cpse	r24, r1
	I2C_stop();
     322:	03 c0       	rjmp	.+6      	; 0x32a <I2C_read_bytes+0x76>
     324:	c1 df       	rcall	.-126    	; 0x2a8 <I2C_stop>
	return 0;
     326:	80 e0       	ldi	r24, 0x00	; 0
     328:	02 c0       	rjmp	.+4      	; 0x32e <I2C_read_bytes+0x7a>
	
error:
	I2C_recover();													// clock out possibly stuck slave, reset master
     32a:	e4 de       	rcall	.-568    	; 0xf4 <I2C_recover>
     32c:	8f ef       	ldi	r24, 0xFF	; 255
	return 0xff;													// flag error
     32e:	df 91       	pop	r29
}
     330:	cf 91       	pop	r28
     332:	1f 91       	pop	r17
     334:	0f 91       	pop	r16
     336:	ff 90       	pop	r15
     338:	df 90       	pop	r13
     33a:	cf 90       	pop	r12
     33c:	08 95       	ret

0000033e <LanyardCode>:
     33e:	cf 93       	push	r28
uint8_t         lastButtonState = 0xff;
uint8_t         digit = 0xff;

// Main game loop
uint8_t LanyardCode(){
    if (CheckState(LANYARD_COMPLETED)) {
     340:	8b e7       	ldi	r24, 0x7B	; 123
     342:	63 d7       	rcall	.+3782   	; 0x120a <CheckState>
     344:	81 11       	cpse	r24, r1
     346:	f0 c0       	rjmp	.+480    	; 0x528 <__LOCK_REGION_LENGTH__+0x128>
        }
        */
        return 0;
    }

    if ( gameNow != TEXT && gameNow != LANYARD )
     348:	80 91 2f 38 	lds	r24, 0x382F	; 0x80382f <gameNow>
     34c:	88 23       	and	r24, r24
     34e:	19 f0       	breq	.+6      	; 0x356 <LanyardCode+0x18>
     350:	83 30       	cpi	r24, 0x03	; 3
     352:	09 f0       	breq	.+2      	; 0x356 <LanyardCode+0x18>
     354:	e9 c0       	rjmp	.+466    	; 0x528 <__LOCK_REGION_LENGTH__+0x128>
        return 0;

    /* activate led for buttonstate */
    iLED[SCARAB[G]] = (buttonState==0xff ? 0 : dimValue);
     356:	c0 91 9d b5 	lds	r28, 0xB59D	; 0x80b59d <__bss_end+0x7a92>
     35a:	ec 2f       	mov	r30, r28
     35c:	f0 e0       	ldi	r31, 0x00	; 0
     35e:	80 91 07 38 	lds	r24, 0x3807	; 0x803807 <buttonState>
     362:	8f 3f       	cpi	r24, 0xFF	; 255
     364:	19 f0       	breq	.+6      	; 0x36c <LanyardCode+0x2e>
     366:	90 91 09 38 	lds	r25, 0x3809	; 0x803809 <dimValue>
     36a:	01 c0       	rjmp	.+2      	; 0x36e <LanyardCode+0x30>
     36c:	90 e0       	ldi	r25, 0x00	; 0
     36e:	e5 54       	subi	r30, 0x45	; 69
     370:	f5 4c       	sbci	r31, 0xC5	; 197
     372:	90 83       	st	Z, r25

    if ( (buttonState & 0xf0) == 0)
     374:	98 2f       	mov	r25, r24
     376:	90 7f       	andi	r25, 0xF0	; 240
     378:	09 f4       	brne	.+2      	; 0x37c <LanyardCode+0x3e>
     37a:	d6 c0       	rjmp	.+428    	; 0x528 <__LOCK_REGION_LENGTH__+0x128>
        return 0;

    if ((buttonState&0x0f) == (lastButtonState&0x0f))
     37c:	20 91 01 38 	lds	r18, 0x3801	; 0x803801 <lastButtonState>
     380:	98 2f       	mov	r25, r24
     382:	92 27       	eor	r25, r18
     384:	9f 70       	andi	r25, 0x0F	; 15
     386:	09 f4       	brne	.+2      	; 0x38a <LanyardCode+0x4c>
     388:	cf c0       	rjmp	.+414    	; 0x528 <__LOCK_REGION_LENGTH__+0x128>
        return 0;

    if (lastButtonState == 0xff){
     38a:	2f 3f       	cpi	r18, 0xFF	; 255
     38c:	09 f0       	breq	.+2      	; 0x390 <LanyardCode+0x52>
     38e:	c8 c0       	rjmp	.+400    	; 0x520 <__LOCK_REGION_LENGTH__+0x120>
        switch (buttonState & 0x0f) {
     390:	8f 70       	andi	r24, 0x0F	; 15
     392:	82 30       	cpi	r24, 0x02	; 2
     394:	61 f0       	breq	.+24     	; 0x3ae <LanyardCode+0x70>
     396:	28 f4       	brcc	.+10     	; 0x3a2 <LanyardCode+0x64>
     398:	81 30       	cpi	r24, 0x01	; 1
     39a:	69 f4       	brne	.+26     	; 0x3b6 <LanyardCode+0x78>
            case 0b0001: {
                digit = 0;
     39c:	10 92 00 38 	sts	0x3800, r1	; 0x803800 <__data_start>
                break;
     3a0:	0d c0       	rjmp	.+26     	; 0x3bc <LanyardCode+0x7e>

    if ((buttonState&0x0f) == (lastButtonState&0x0f))
        return 0;

    if (lastButtonState == 0xff){
        switch (buttonState & 0x0f) {
     3a2:	84 30       	cpi	r24, 0x04	; 4
     3a4:	31 f0       	breq	.+12     	; 0x3b2 <LanyardCode+0x74>
     3a6:	88 30       	cpi	r24, 0x08	; 8
     3a8:	31 f4       	brne	.+12     	; 0x3b6 <LanyardCode+0x78>
                digit = 3;
                break;
            }

            case 0b1000: {
                digit = 2;
     3aa:	82 e0       	ldi	r24, 0x02	; 2
     3ac:	05 c0       	rjmp	.+10     	; 0x3b8 <LanyardCode+0x7a>
                digit = 0;
                break;
            }

            case 0b0010: {
                digit = 1;
     3ae:	81 e0       	ldi	r24, 0x01	; 1
     3b0:	03 c0       	rjmp	.+6      	; 0x3b8 <LanyardCode+0x7a>
                break;
            }

            case 0b0100: {
                digit = 3;
     3b2:	83 e0       	ldi	r24, 0x03	; 3
     3b4:	01 c0       	rjmp	.+2      	; 0x3b8 <LanyardCode+0x7a>
                digit = 2;
                break;
            }

            default: {
                digit = 0xff;
     3b6:	8f ef       	ldi	r24, 0xFF	; 255
     3b8:	80 93 00 38 	sts	0x3800, r24	; 0x803800 <__data_start>
                break;
            }
        }
        gameNow = LANYARD;
     3bc:	83 e0       	ldi	r24, 0x03	; 3
     3be:	80 93 2f 38 	sts	0x382F, r24	; 0x80382f <gameNow>
        /* play tone for button */

        if (digit == lanyardCode[lanyardPos]) {
     3c2:	80 91 29 38 	lds	r24, 0x3829	; 0x803829 <lanyardPos>
     3c6:	e8 2f       	mov	r30, r24
     3c8:	f0 e0       	ldi	r31, 0x00	; 0
     3ca:	ee 57       	subi	r30, 0x7E	; 126
     3cc:	fa 44       	sbci	r31, 0x4A	; 74
     3ce:	20 81       	ld	r18, Z
     3d0:	90 91 00 38 	lds	r25, 0x3800	; 0x803800 <__data_start>
     3d4:	e0 91 9a b5 	lds	r30, 0xB59A	; 0x80b59a <__bss_end+0x7a8f>
     3d8:	29 13       	cpse	r18, r25
     3da:	17 c0       	rjmp	.+46     	; 0x40a <__LOCK_REGION_LENGTH__+0xa>
            lanyardState &= TRUE;
     3dc:	90 91 02 38 	lds	r25, 0x3802	; 0x803802 <lanyardState>
     3e0:	91 70       	andi	r25, 0x01	; 1
     3e2:	90 93 02 38 	sts	0x3802, r25	; 0x803802 <lanyardState>
            iLED[CAT]       = 128;
     3e6:	f0 e0       	ldi	r31, 0x00	; 0
     3e8:	e5 54       	subi	r30, 0x45	; 69
     3ea:	f5 4c       	sbci	r31, 0xC5	; 197
     3ec:	90 e8       	ldi	r25, 0x80	; 128
     3ee:	90 83       	st	Z, r25
            iLED[EYE[R][L]] = 0;
     3f0:	e0 91 a9 b5 	lds	r30, 0xB5A9	; 0x80b5a9 <__bss_end+0x7a9e>
     3f4:	f0 e0       	ldi	r31, 0x00	; 0
     3f6:	e5 54       	subi	r30, 0x45	; 69
     3f8:	f5 4c       	sbci	r31, 0xC5	; 197
     3fa:	10 82       	st	Z, r1
            iLED[EYE[R][R]] = 0;
     3fc:	e0 91 a8 b5 	lds	r30, 0xB5A8	; 0x80b5a8 <__bss_end+0x7a9d>
     400:	f0 e0       	ldi	r31, 0x00	; 0
     402:	e5 54       	subi	r30, 0x45	; 69
     404:	f5 4c       	sbci	r31, 0xC5	; 197
     406:	10 82       	st	Z, r1
     408:	13 c0       	rjmp	.+38     	; 0x430 <__LOCK_REGION_LENGTH__+0x30>
        } else {
            lanyardState = FALSE;
     40a:	10 92 02 38 	sts	0x3802, r1	; 0x803802 <lanyardState>
            iLED[CAT]       = 0;
     40e:	f0 e0       	ldi	r31, 0x00	; 0
     410:	e5 54       	subi	r30, 0x45	; 69
     412:	f5 4c       	sbci	r31, 0xC5	; 197
     414:	10 82       	st	Z, r1
            if (lanyardPos < 4 ) {
     416:	84 30       	cpi	r24, 0x04	; 4
     418:	58 f4       	brcc	.+22     	; 0x430 <__LOCK_REGION_LENGTH__+0x30>
                /*gameNow         = BASTET;*/
                gameNow         = TEXT;
     41a:	10 92 2f 38 	sts	0x382F, r1	; 0x80382f <gameNow>
                lanyardPos      = 0;
     41e:	10 92 29 38 	sts	0x3829, r1	; 0x803829 <lanyardPos>
                lanyardCnt      = 0;
     422:	10 92 28 38 	sts	0x3828, r1	; 0x803828 <__data_end>
                lanyardState    = TRUE;
     426:	81 e0       	ldi	r24, 0x01	; 1
     428:	80 93 02 38 	sts	0x3802, r24	; 0x803802 <lanyardState>
                lastButtonState = 0xff;
     42c:	8f ef       	ldi	r24, 0xFF	; 255
     42e:	7a c0       	rjmp	.+244    	; 0x524 <__LOCK_REGION_LENGTH__+0x124>
                return 0;
            }
        }
        lanyardPos++;
     430:	8f 5f       	subi	r24, 0xFF	; 255
     432:	80 93 29 38 	sts	0x3829, r24	; 0x803829 <lanyardPos>
        lanyardCnt++;            
     436:	90 91 28 38 	lds	r25, 0x3828	; 0x803828 <__data_end>
     43a:	9f 5f       	subi	r25, 0xFF	; 255
        if (lanyardCnt >= 4) {
     43c:	94 30       	cpi	r25, 0x04	; 4
     43e:	18 f4       	brcc	.+6      	; 0x446 <__LOCK_REGION_LENGTH__+0x46>
                lastButtonState = 0xff;
                return 0;
            }
        }
        lanyardPos++;
        lanyardCnt++;            
     440:	90 93 28 38 	sts	0x3828, r25	; 0x803828 <__data_end>
     444:	6d c0       	rjmp	.+218    	; 0x520 <__LOCK_REGION_LENGTH__+0x120>
        if (lanyardCnt >= 4) {
            lanyardCnt = 0;
     446:	10 92 28 38 	sts	0x3828, r1	; 0x803828 <__data_end>
            if (lanyardState == TRUE) {
     44a:	90 91 02 38 	lds	r25, 0x3802	; 0x803802 <lanyardState>
     44e:	91 30       	cpi	r25, 0x01	; 1
     450:	a1 f5       	brne	.+104    	; 0x4ba <__LOCK_REGION_LENGTH__+0xba>
                iLED[HCKR[G][(lanyardPos/4)-1]] = dimValue;
     452:	e8 2f       	mov	r30, r24
     454:	e6 95       	lsr	r30
     456:	e6 95       	lsr	r30
     458:	f0 e0       	ldi	r31, 0x00	; 0
     45a:	e4 55       	subi	r30, 0x54	; 84
     45c:	fa 44       	sbci	r31, 0x4A	; 74
     45e:	e5 81       	ldd	r30, Z+5	; 0x05
     460:	f0 e0       	ldi	r31, 0x00	; 0
     462:	90 91 09 38 	lds	r25, 0x3809	; 0x803809 <dimValue>
     466:	e5 54       	subi	r30, 0x45	; 69
     468:	f5 4c       	sbci	r31, 0xC5	; 197
     46a:	90 83       	st	Z, r25
                if (lanyardPos == sizeof(lanyardCode)) {
     46c:	88 31       	cpi	r24, 0x18	; 24
     46e:	09 f0       	breq	.+2      	; 0x472 <__LOCK_REGION_LENGTH__+0x72>
     470:	57 c0       	rjmp	.+174    	; 0x520 <__LOCK_REGION_LENGTH__+0x120>
                    UpdateState(LANYARD_COMPLETED);
     472:	8b e7       	ldi	r24, 0x7B	; 123
     474:	c0 d6       	rcall	.+3456   	; 0x11f6 <UpdateState>
                    iLED[SCARAB[G]] = 0;
     476:	ec 2f       	mov	r30, r28
     478:	f0 e0       	ldi	r31, 0x00	; 0
     47a:	e5 54       	subi	r30, 0x45	; 69
     47c:	f5 4c       	sbci	r31, 0xC5	; 197
     47e:	10 82       	st	Z, r1
                    iLED[EYE[R][L]] = 0;
     480:	e0 91 a9 b5 	lds	r30, 0xB5A9	; 0x80b5a9 <__bss_end+0x7a9e>
     484:	f0 e0       	ldi	r31, 0x00	; 0
     486:	e5 54       	subi	r30, 0x45	; 69
     488:	f5 4c       	sbci	r31, 0xC5	; 197
     48a:	10 82       	st	Z, r1
                    iLED[EYE[R][R]] = 0;
     48c:	e0 91 a8 b5 	lds	r30, 0xB5A8	; 0x80b5a8 <__bss_end+0x7a9d>
     490:	f0 e0       	ldi	r31, 0x00	; 0
     492:	e5 54       	subi	r30, 0x45	; 69
     494:	f5 4c       	sbci	r31, 0xC5	; 197
     496:	10 82       	st	Z, r1
                    iLED[EYE[G][L]] = dimValue;
     498:	e0 91 ab b5 	lds	r30, 0xB5AB	; 0x80b5ab <__bss_end+0x7aa0>
     49c:	f0 e0       	ldi	r31, 0x00	; 0
     49e:	80 91 09 38 	lds	r24, 0x3809	; 0x803809 <dimValue>
     4a2:	e5 54       	subi	r30, 0x45	; 69
     4a4:	f5 4c       	sbci	r31, 0xC5	; 197
     4a6:	80 83       	st	Z, r24
                    iLED[EYE[G][R]] = dimValue;
     4a8:	e0 91 aa b5 	lds	r30, 0xB5AA	; 0x80b5aa <__bss_end+0x7a9f>
     4ac:	f0 e0       	ldi	r31, 0x00	; 0
     4ae:	80 91 09 38 	lds	r24, 0x3809	; 0x803809 <dimValue>
     4b2:	e5 54       	subi	r30, 0x45	; 69
     4b4:	f5 4c       	sbci	r31, 0xC5	; 197
     4b6:	80 83       	st	Z, r24
     4b8:	33 c0       	rjmp	.+102    	; 0x520 <__LOCK_REGION_LENGTH__+0x120>
                    /*state = STATE_MUSIC;*/
                }
            } else {
                gameNow         = TEXT;
     4ba:	10 92 2f 38 	sts	0x382F, r1	; 0x80382f <gameNow>
                lanyardPos      = 0;
     4be:	10 92 29 38 	sts	0x3829, r1	; 0x803829 <lanyardPos>
                lanyardState    = TRUE;
     4c2:	81 e0       	ldi	r24, 0x01	; 1
     4c4:	80 93 02 38 	sts	0x3802, r24	; 0x803802 <lanyardState>
                lastButtonState = 0xff;
                iLED[SCARAB[G]] = 0;
     4c8:	ec 2f       	mov	r30, r28
     4ca:	f0 e0       	ldi	r31, 0x00	; 0
     4cc:	e5 54       	subi	r30, 0x45	; 69
     4ce:	f5 4c       	sbci	r31, 0xC5	; 197
     4d0:	10 82       	st	Z, r1
                iLED[EYE[G][L]] = 0;
     4d2:	e0 91 ab b5 	lds	r30, 0xB5AB	; 0x80b5ab <__bss_end+0x7aa0>
     4d6:	f0 e0       	ldi	r31, 0x00	; 0
     4d8:	e5 54       	subi	r30, 0x45	; 69
     4da:	f5 4c       	sbci	r31, 0xC5	; 197
     4dc:	10 82       	st	Z, r1
                iLED[EYE[G][R]] = 0;
     4de:	e0 91 aa b5 	lds	r30, 0xB5AA	; 0x80b5aa <__bss_end+0x7a9f>
     4e2:	f0 e0       	ldi	r31, 0x00	; 0
     4e4:	e5 54       	subi	r30, 0x45	; 69
     4e6:	f5 4c       	sbci	r31, 0xC5	; 197
     4e8:	10 82       	st	Z, r1
                iLED[EYE[R][L]] = dimValue;
     4ea:	e0 91 a9 b5 	lds	r30, 0xB5A9	; 0x80b5a9 <__bss_end+0x7a9e>
     4ee:	f0 e0       	ldi	r31, 0x00	; 0
     4f0:	80 91 09 38 	lds	r24, 0x3809	; 0x803809 <dimValue>
     4f4:	e5 54       	subi	r30, 0x45	; 69
     4f6:	f5 4c       	sbci	r31, 0xC5	; 197
     4f8:	80 83       	st	Z, r24
                iLED[EYE[R][R]] = dimValue;
     4fa:	e0 91 a8 b5 	lds	r30, 0xB5A8	; 0x80b5a8 <__bss_end+0x7a9d>
     4fe:	f0 e0       	ldi	r31, 0x00	; 0
     500:	80 91 09 38 	lds	r24, 0x3809	; 0x803809 <dimValue>
     504:	e5 54       	subi	r30, 0x45	; 69
     506:	f5 4c       	sbci	r31, 0xC5	; 197
     508:	80 83       	st	Z, r24
     50a:	a2 eb       	ldi	r26, 0xB2	; 178
     50c:	b5 eb       	ldi	r27, 0xB5	; 181
                for (int i=0; i<6; i++ )
                    iLED[HCKR[G][i]] = 0;
     50e:	ed 91       	ld	r30, X+
     510:	f0 e0       	ldi	r31, 0x00	; 0
     512:	e5 54       	subi	r30, 0x45	; 69
     514:	f5 4c       	sbci	r31, 0xC5	; 197
     516:	10 82       	st	Z, r1
                iLED[SCARAB[G]] = 0;
                iLED[EYE[G][L]] = 0;
                iLED[EYE[G][R]] = 0;
                iLED[EYE[R][L]] = dimValue;
                iLED[EYE[R][R]] = dimValue;
                for (int i=0; i<6; i++ )
     518:	85 eb       	ldi	r24, 0xB5	; 181
     51a:	a8 3b       	cpi	r26, 0xB8	; 184
     51c:	b8 07       	cpc	r27, r24
     51e:	b9 f7       	brne	.-18     	; 0x50e <__LOCK_REGION_LENGTH__+0x10e>
                    iLED[HCKR[G][i]] = 0;
            }
        }
    }

    lastButtonState = buttonState;
     520:	80 91 07 38 	lds	r24, 0x3807	; 0x803807 <buttonState>
     524:	80 93 01 38 	sts	0x3801, r24	; 0x803801 <lastButtonState>
    return 0;
}
     528:	80 e0       	ldi	r24, 0x00	; 0
     52a:	cf 91       	pop	r28
     52c:	08 95       	ret

0000052e <MagnetMaze>:
uint8_t         mazeCnt = 0;
uint8_t         mazeState = TRUE;
uint8_t         inverted  = FALSE;

// Main game loop
uint8_t MagnetMaze(){
     52e:	cf 93       	push	r28
     530:	df 93       	push	r29
    if (CheckState(MAZE_INACTIVE))
     532:	87 ef       	ldi	r24, 0xF7	; 247
     534:	6a d6       	rcall	.+3284   	; 0x120a <CheckState>
     536:	81 11       	cpse	r24, r1
     538:	3e c1       	rjmp	.+636    	; 0x7b6 <MagnetMaze+0x288>
        return 0;

    if (CheckState(MAZE_COMPLETED))
     53a:	8d e7       	ldi	r24, 0x7D	; 125
     53c:	66 d6       	rcall	.+3276   	; 0x120a <CheckState>
     53e:	81 11       	cpse	r24, r1
     540:	3a c1       	rjmp	.+628    	; 0x7b6 <MagnetMaze+0x288>
        return 0;

    if ( (gameNow != TEXT) && (gameNow != MAZE) )
     542:	80 91 2f 38 	lds	r24, 0x382F	; 0x80382f <gameNow>
     546:	82 30       	cpi	r24, 0x02	; 2
     548:	08 f0       	brcs	.+2      	; 0x54c <MagnetMaze+0x1e>
     54a:	35 c1       	rjmp	.+618    	; 0x7b6 <MagnetMaze+0x288>
        return 0;

    if (calHall == 0)
     54c:	80 91 e4 3a 	lds	r24, 0x3AE4	; 0x803ae4 <calHall>
     550:	90 91 e5 3a 	lds	r25, 0x3AE5	; 0x803ae5 <calHall+0x1>
     554:	89 2b       	or	r24, r25
     556:	41 f4       	brne	.+16     	; 0x568 <MagnetMaze+0x3a>
        calHall = adcHall;
     558:	80 91 94 3a 	lds	r24, 0x3A94	; 0x803a94 <adcHall>
     55c:	90 91 95 3a 	lds	r25, 0x3A95	; 0x803a95 <adcHall+0x1>
     560:	80 93 e4 3a 	sts	0x3AE4, r24	; 0x803ae4 <calHall>
     564:	90 93 e5 3a 	sts	0x3AE5, r25	; 0x803ae5 <calHall+0x1>

    int16_t valHall = adcHall - calHall;
     568:	80 91 94 3a 	lds	r24, 0x3A94	; 0x803a94 <adcHall>
     56c:	90 91 95 3a 	lds	r25, 0x3A95	; 0x803a95 <adcHall+0x1>
     570:	20 91 e4 3a 	lds	r18, 0x3AE4	; 0x803ae4 <calHall>
     574:	30 91 e5 3a 	lds	r19, 0x3AE5	; 0x803ae5 <calHall+0x1>
     578:	82 1b       	sub	r24, r18
     57a:	93 0b       	sbc	r25, r19
    switch (curHallState) {
     57c:	30 91 3c 38 	lds	r19, 0x383C	; 0x80383c <curHallState>
     580:	31 30       	cpi	r19, 0x01	; 1
     582:	89 f0       	breq	.+34     	; 0x5a6 <MagnetMaze+0x78>
     584:	18 f0       	brcs	.+6      	; 0x58c <MagnetMaze+0x5e>
     586:	32 30       	cpi	r19, 0x02	; 2
     588:	c1 f0       	breq	.+48     	; 0x5ba <MagnetMaze+0x8c>
     58a:	1f c0       	rjmp	.+62     	; 0x5ca <MagnetMaze+0x9c>
        case 0: {
            if ( valHall + HALL_HIGH < 0 ) {
     58c:	84 3d       	cpi	r24, 0xD4	; 212
     58e:	2e ef       	ldi	r18, 0xFE	; 254
     590:	92 07       	cpc	r25, r18
     592:	14 f4       	brge	.+4      	; 0x598 <MagnetMaze+0x6a>
                newHallState = 1;
     594:	81 e0       	ldi	r24, 0x01	; 1
     596:	04 c0       	rjmp	.+8      	; 0x5a0 <MagnetMaze+0x72>
            } else if ( valHall - HALL_HIGH > 0 ) {
     598:	8d 32       	cpi	r24, 0x2D	; 45
     59a:	91 40       	sbci	r25, 0x01	; 1
     59c:	5c f0       	brlt	.+22     	; 0x5b4 <MagnetMaze+0x86>
                newHallState = 2;
     59e:	82 e0       	ldi	r24, 0x02	; 2
     5a0:	80 93 3b 38 	sts	0x383B, r24	; 0x80383b <newHallState>
     5a4:	12 c0       	rjmp	.+36     	; 0x5ca <MagnetMaze+0x9c>
            }
            break;
        }
        
        case 1: {
            if ( valHall - HALL_HIGH > 0 ) {
     5a6:	8d 32       	cpi	r24, 0x2D	; 45
     5a8:	21 e0       	ldi	r18, 0x01	; 1
     5aa:	92 07       	cpc	r25, r18
     5ac:	c4 f7       	brge	.-16     	; 0x59e <MagnetMaze+0x70>
                newHallState = 2;
            } else if ( valHall + HALL_LOW > 0 ) {
     5ae:	89 38       	cpi	r24, 0x89	; 137
     5b0:	9f 4f       	sbci	r25, 0xFF	; 255
     5b2:	84 f3       	brlt	.-32     	; 0x594 <MagnetMaze+0x66>
            if ( valHall + HALL_HIGH < 0 ) {
                newHallState = 1;
            } else if ( valHall - HALL_HIGH > 0 ) {
                newHallState = 2;
            } else {
                newHallState = 0;
     5b4:	10 92 3b 38 	sts	0x383B, r1	; 0x80383b <newHallState>
     5b8:	08 c0       	rjmp	.+16     	; 0x5ca <MagnetMaze+0x9c>
            }
            break;
        }
        
        case 2: {
            if ( valHall + HALL_HIGH < 0 ) {
     5ba:	84 3d       	cpi	r24, 0xD4	; 212
     5bc:	2e ef       	ldi	r18, 0xFE	; 254
     5be:	92 07       	cpc	r25, r18
     5c0:	4c f3       	brlt	.-46     	; 0x594 <MagnetMaze+0x66>
                newHallState = 1;
            } else if ( valHall - HALL_LOW < 0 ) {
     5c2:	88 37       	cpi	r24, 0x78	; 120
     5c4:	91 05       	cpc	r25, r1
     5c6:	b4 f3       	brlt	.-20     	; 0x5b4 <MagnetMaze+0x86>
     5c8:	ea cf       	rjmp	.-44     	; 0x59e <MagnetMaze+0x70>
            break;
        }
    }

    /* activate led for hallstate */
    iLED[SCARAB[G]] = (newHallState ? dimValue : 0);
     5ca:	c0 91 9d b5 	lds	r28, 0xB59D	; 0x80b59d <__bss_end+0x7a92>
     5ce:	ec 2f       	mov	r30, r28
     5d0:	f0 e0       	ldi	r31, 0x00	; 0
     5d2:	80 91 3b 38 	lds	r24, 0x383B	; 0x80383b <newHallState>
     5d6:	88 23       	and	r24, r24
     5d8:	19 f0       	breq	.+6      	; 0x5e0 <MagnetMaze+0xb2>
     5da:	90 91 09 38 	lds	r25, 0x3809	; 0x803809 <dimValue>
     5de:	01 c0       	rjmp	.+2      	; 0x5e2 <MagnetMaze+0xb4>
     5e0:	90 e0       	ldi	r25, 0x00	; 0
     5e2:	e5 54       	subi	r30, 0x45	; 69
     5e4:	f5 4c       	sbci	r31, 0xC5	; 197
     5e6:	90 83       	st	Z, r25


    /* Make the maze work regardless of badge orientation */
    if (newHallState != 0 && mazePos == 0 )
     5e8:	88 23       	and	r24, r24
     5ea:	59 f0       	breq	.+22     	; 0x602 <MagnetMaze+0xd4>
     5ec:	20 91 3a 38 	lds	r18, 0x383A	; 0x80383a <mazePos>
     5f0:	21 11       	cpse	r18, r1
     5f2:	3d c0       	rjmp	.+122    	; 0x66e <MagnetMaze+0x140>
        inverted = (newHallState != mazeCode[0]) ? TRUE : FALSE;
     5f4:	91 e0       	ldi	r25, 0x01	; 1
     5f6:	81 30       	cpi	r24, 0x01	; 1
     5f8:	09 f4       	brne	.+2      	; 0x5fc <MagnetMaze+0xce>
     5fa:	90 e0       	ldi	r25, 0x00	; 0
     5fc:	90 93 38 38 	sts	0x3838, r25	; 0x803838 <inverted>
     600:	36 c0       	rjmp	.+108    	; 0x66e <MagnetMaze+0x140>

    if (newHallState != curHallState) {
     602:	33 23       	and	r19, r19
     604:	09 f4       	brne	.+2      	; 0x608 <MagnetMaze+0xda>
     606:	d7 c0       	rjmp	.+430    	; 0x7b6 <MagnetMaze+0x288>
        curHallState = newHallState;
     608:	10 92 3c 38 	sts	0x383C, r1	; 0x80383c <curHallState>
                    for (int i=0; i<6; i++ )
                        iLED[HCKR[G][i]] = 0;
                }
            }
        } else {
            if (mazePos == sizeof(mazeCode)) {
     60c:	80 91 3a 38 	lds	r24, 0x383A	; 0x80383a <mazePos>
     610:	82 31       	cpi	r24, 0x12	; 18
     612:	09 f0       	breq	.+2      	; 0x616 <MagnetMaze+0xe8>
     614:	d0 c0       	rjmp	.+416    	; 0x7b6 <MagnetMaze+0x288>
                gameNow   = TEXT;
     616:	10 92 2f 38 	sts	0x382F, r1	; 0x80382f <gameNow>
                mazePos   = 0;
     61a:	10 92 3a 38 	sts	0x383A, r1	; 0x80383a <mazePos>
                mazeState = TRUE;
     61e:	81 e0       	ldi	r24, 0x01	; 1
     620:	80 93 0a 38 	sts	0x380A, r24	; 0x80380a <mazeState>
                iLED[SCARAB[G]]    = 0;
     624:	10 82       	st	Z, r1
                iLED[EYE[G][L]] = 0;
     626:	e0 91 ab b5 	lds	r30, 0xB5AB	; 0x80b5ab <__bss_end+0x7aa0>
     62a:	f0 e0       	ldi	r31, 0x00	; 0
     62c:	e5 54       	subi	r30, 0x45	; 69
     62e:	f5 4c       	sbci	r31, 0xC5	; 197
     630:	10 82       	st	Z, r1
                iLED[EYE[G][R]] = 0;
     632:	e0 91 aa b5 	lds	r30, 0xB5AA	; 0x80b5aa <__bss_end+0x7a9f>
     636:	f0 e0       	ldi	r31, 0x00	; 0
     638:	e5 54       	subi	r30, 0x45	; 69
     63a:	f5 4c       	sbci	r31, 0xC5	; 197
     63c:	10 82       	st	Z, r1
                iLED[EYE[R][L]] = 0;
     63e:	e0 91 a9 b5 	lds	r30, 0xB5A9	; 0x80b5a9 <__bss_end+0x7a9e>
     642:	f0 e0       	ldi	r31, 0x00	; 0
     644:	e5 54       	subi	r30, 0x45	; 69
     646:	f5 4c       	sbci	r31, 0xC5	; 197
     648:	10 82       	st	Z, r1
                iLED[EYE[R][R]] = 0;
     64a:	e0 91 a8 b5 	lds	r30, 0xB5A8	; 0x80b5a8 <__bss_end+0x7a9d>
     64e:	f0 e0       	ldi	r31, 0x00	; 0
     650:	e5 54       	subi	r30, 0x45	; 69
     652:	f5 4c       	sbci	r31, 0xC5	; 197
     654:	10 82       	st	Z, r1
     656:	a2 eb       	ldi	r26, 0xB2	; 178
     658:	b5 eb       	ldi	r27, 0xB5	; 181
                for (int i=0; i<6; i++ )
                    iLED[HCKR[G][i]] = 0;
     65a:	ed 91       	ld	r30, X+
     65c:	f0 e0       	ldi	r31, 0x00	; 0
     65e:	e5 54       	subi	r30, 0x45	; 69
     660:	f5 4c       	sbci	r31, 0xC5	; 197
     662:	10 82       	st	Z, r1
                iLED[SCARAB[G]]    = 0;
                iLED[EYE[G][L]] = 0;
                iLED[EYE[G][R]] = 0;
                iLED[EYE[R][L]] = 0;
                iLED[EYE[R][R]] = 0;
                for (int i=0; i<6; i++ )
     664:	25 eb       	ldi	r18, 0xB5	; 181
     666:	a8 3b       	cpi	r26, 0xB8	; 184
     668:	b2 07       	cpc	r27, r18
     66a:	b9 f7       	brne	.-18     	; 0x65a <MagnetMaze+0x12c>
     66c:	a4 c0       	rjmp	.+328    	; 0x7b6 <MagnetMaze+0x288>

    /* Make the maze work regardless of badge orientation */
    if (newHallState != 0 && mazePos == 0 )
        inverted = (newHallState != mazeCode[0]) ? TRUE : FALSE;

    if (newHallState != curHallState) {
     66e:	38 17       	cp	r19, r24
     670:	09 f4       	brne	.+2      	; 0x674 <MagnetMaze+0x146>
     672:	a1 c0       	rjmp	.+322    	; 0x7b6 <MagnetMaze+0x288>
        curHallState = newHallState;
     674:	80 93 3c 38 	sts	0x383C, r24	; 0x80383c <curHallState>
        
        if (curHallState != 0) {
            gameNow = MAZE;
     678:	91 e0       	ldi	r25, 0x01	; 1
     67a:	90 93 2f 38 	sts	0x382F, r25	; 0x80382f <gameNow>
            if ( (inverted ? curHallState^3 : curHallState) == mazeCode[mazePos]) {
     67e:	90 91 38 38 	lds	r25, 0x3838	; 0x803838 <inverted>
     682:	99 23       	and	r25, r25
     684:	11 f0       	breq	.+4      	; 0x68a <MagnetMaze+0x15c>
     686:	93 e0       	ldi	r25, 0x03	; 3
     688:	89 27       	eor	r24, r25
     68a:	90 e0       	ldi	r25, 0x00	; 0
     68c:	e2 2f       	mov	r30, r18
     68e:	f0 e0       	ldi	r31, 0x00	; 0
     690:	e8 54       	subi	r30, 0x48	; 72
     692:	fa 44       	sbci	r31, 0x4A	; 74
     694:	40 81       	ld	r20, Z
     696:	50 e0       	ldi	r21, 0x00	; 0
     698:	84 17       	cp	r24, r20
     69a:	95 07       	cpc	r25, r21
     69c:	91 f4       	brne	.+36     	; 0x6c2 <MagnetMaze+0x194>
                mazeState &= TRUE;
     69e:	80 91 0a 38 	lds	r24, 0x380A	; 0x80380a <mazeState>
     6a2:	81 70       	andi	r24, 0x01	; 1
     6a4:	80 93 0a 38 	sts	0x380A, r24	; 0x80380a <mazeState>
                iLED[EYE[R][L]] = 0;
     6a8:	e0 91 a9 b5 	lds	r30, 0xB5A9	; 0x80b5a9 <__bss_end+0x7a9e>
     6ac:	f0 e0       	ldi	r31, 0x00	; 0
     6ae:	e5 54       	subi	r30, 0x45	; 69
     6b0:	f5 4c       	sbci	r31, 0xC5	; 197
     6b2:	10 82       	st	Z, r1
                iLED[EYE[R][R]] = 0;
     6b4:	e0 91 a8 b5 	lds	r30, 0xB5A8	; 0x80b5a8 <__bss_end+0x7a9d>
     6b8:	f0 e0       	ldi	r31, 0x00	; 0
     6ba:	e5 54       	subi	r30, 0x45	; 69
     6bc:	f5 4c       	sbci	r31, 0xC5	; 197
     6be:	10 82       	st	Z, r1
     6c0:	02 c0       	rjmp	.+4      	; 0x6c6 <MagnetMaze+0x198>
            } else {
                mazeState = FALSE;
     6c2:	10 92 0a 38 	sts	0x380A, r1	; 0x80380a <mazeState>
                /* play tone BAD */
            }
            mazePos++;
     6c6:	2f 5f       	subi	r18, 0xFF	; 255
     6c8:	20 93 3a 38 	sts	0x383A, r18	; 0x80383a <mazePos>
            mazeCnt++;            
     6cc:	80 91 39 38 	lds	r24, 0x3839	; 0x803839 <mazeCnt>
     6d0:	8f 5f       	subi	r24, 0xFF	; 255
            if (mazeCnt >= 3) {
     6d2:	83 30       	cpi	r24, 0x03	; 3
     6d4:	18 f4       	brcc	.+6      	; 0x6dc <MagnetMaze+0x1ae>
            } else {
                mazeState = FALSE;
                /* play tone BAD */
            }
            mazePos++;
            mazeCnt++;            
     6d6:	80 93 39 38 	sts	0x3839, r24	; 0x803839 <mazeCnt>
     6da:	6d c0       	rjmp	.+218    	; 0x7b6 <MagnetMaze+0x288>
            if (mazeCnt >= 3) {
                mazeCnt = 0;
     6dc:	10 92 39 38 	sts	0x3839, r1	; 0x803839 <mazeCnt>
                if (mazeState == TRUE) {
     6e0:	80 91 0a 38 	lds	r24, 0x380A	; 0x80380a <mazeState>
     6e4:	81 30       	cpi	r24, 0x01	; 1
     6e6:	a9 f5       	brne	.+106    	; 0x752 <MagnetMaze+0x224>
                    /* play tone GOOD */
                    iLED[HCKR[G][(mazePos/3)-1]] = dimValue;
     6e8:	eb ea       	ldi	r30, 0xAB	; 171
     6ea:	2e 9f       	mul	r18, r30
     6ec:	e1 2d       	mov	r30, r1
     6ee:	11 24       	eor	r1, r1
     6f0:	e6 95       	lsr	r30
     6f2:	f0 e0       	ldi	r31, 0x00	; 0
     6f4:	e4 55       	subi	r30, 0x54	; 84
     6f6:	fa 44       	sbci	r31, 0x4A	; 74
     6f8:	e5 81       	ldd	r30, Z+5	; 0x05
     6fa:	f0 e0       	ldi	r31, 0x00	; 0
     6fc:	80 91 09 38 	lds	r24, 0x3809	; 0x803809 <dimValue>
     700:	e5 54       	subi	r30, 0x45	; 69
     702:	f5 4c       	sbci	r31, 0xC5	; 197
     704:	80 83       	st	Z, r24
                    if (mazePos == sizeof(mazeCode)) {
     706:	22 31       	cpi	r18, 0x12	; 18
     708:	09 f0       	breq	.+2      	; 0x70c <MagnetMaze+0x1de>
                        UpdateState(MAZE_COMPLETED);
     70a:	55 c0       	rjmp	.+170    	; 0x7b6 <MagnetMaze+0x288>
     70c:	8d e7       	ldi	r24, 0x7D	; 125
     70e:	73 d5       	rcall	.+2790   	; 0x11f6 <UpdateState>
                        iLED[SCARAB[G]]    = 0;
     710:	d0 e0       	ldi	r29, 0x00	; 0
     712:	c5 54       	subi	r28, 0x45	; 69
     714:	d5 4c       	sbci	r29, 0xC5	; 197
     716:	18 82       	st	Y, r1
                        iLED[EYE[R][L]] = 0;
     718:	e0 91 a9 b5 	lds	r30, 0xB5A9	; 0x80b5a9 <__bss_end+0x7a9e>
     71c:	f0 e0       	ldi	r31, 0x00	; 0
     71e:	e5 54       	subi	r30, 0x45	; 69
     720:	f5 4c       	sbci	r31, 0xC5	; 197
     722:	10 82       	st	Z, r1
                        iLED[EYE[R][R]] = 0;
     724:	e0 91 a8 b5 	lds	r30, 0xB5A8	; 0x80b5a8 <__bss_end+0x7a9d>
     728:	f0 e0       	ldi	r31, 0x00	; 0
     72a:	e5 54       	subi	r30, 0x45	; 69
     72c:	f5 4c       	sbci	r31, 0xC5	; 197
     72e:	10 82       	st	Z, r1
                        iLED[EYE[G][L]] = dimValue;
     730:	e0 91 ab b5 	lds	r30, 0xB5AB	; 0x80b5ab <__bss_end+0x7aa0>
     734:	f0 e0       	ldi	r31, 0x00	; 0
     736:	80 91 09 38 	lds	r24, 0x3809	; 0x803809 <dimValue>
     73a:	e5 54       	subi	r30, 0x45	; 69
     73c:	f5 4c       	sbci	r31, 0xC5	; 197
     73e:	80 83       	st	Z, r24
                        iLED[EYE[G][R]] = dimValue;
     740:	e0 91 aa b5 	lds	r30, 0xB5AA	; 0x80b5aa <__bss_end+0x7a9f>
     744:	f0 e0       	ldi	r31, 0x00	; 0
     746:	80 91 09 38 	lds	r24, 0x3809	; 0x803809 <dimValue>
     74a:	e5 54       	subi	r30, 0x45	; 69
     74c:	f5 4c       	sbci	r31, 0xC5	; 197
     74e:	80 83       	st	Z, r24
     750:	32 c0       	rjmp	.+100    	; 0x7b6 <MagnetMaze+0x288>
                        /*state = STATE_MUSIC;*/
                    }
                } else {
                    gameNow   = TEXT;
     752:	10 92 2f 38 	sts	0x382F, r1	; 0x80382f <gameNow>
                    mazePos   = 0;
     756:	10 92 3a 38 	sts	0x383A, r1	; 0x80383a <mazePos>
                    mazeState = TRUE;
     75a:	81 e0       	ldi	r24, 0x01	; 1
     75c:	80 93 0a 38 	sts	0x380A, r24	; 0x80380a <mazeState>
                    iLED[SCARAB[G]]    = 0;
     760:	d0 e0       	ldi	r29, 0x00	; 0
     762:	c5 54       	subi	r28, 0x45	; 69
     764:	d5 4c       	sbci	r29, 0xC5	; 197
     766:	18 82       	st	Y, r1
                    iLED[EYE[G][L]] = 0;
     768:	e0 91 ab b5 	lds	r30, 0xB5AB	; 0x80b5ab <__bss_end+0x7aa0>
     76c:	f0 e0       	ldi	r31, 0x00	; 0
     76e:	e5 54       	subi	r30, 0x45	; 69
     770:	f5 4c       	sbci	r31, 0xC5	; 197
     772:	10 82       	st	Z, r1
                    iLED[EYE[G][R]] = 0;
     774:	e0 91 aa b5 	lds	r30, 0xB5AA	; 0x80b5aa <__bss_end+0x7a9f>
     778:	f0 e0       	ldi	r31, 0x00	; 0
     77a:	e5 54       	subi	r30, 0x45	; 69
     77c:	f5 4c       	sbci	r31, 0xC5	; 197
     77e:	10 82       	st	Z, r1
                    iLED[EYE[R][L]] = dimValue;
     780:	e0 91 a9 b5 	lds	r30, 0xB5A9	; 0x80b5a9 <__bss_end+0x7a9e>
     784:	f0 e0       	ldi	r31, 0x00	; 0
     786:	80 91 09 38 	lds	r24, 0x3809	; 0x803809 <dimValue>
     78a:	e5 54       	subi	r30, 0x45	; 69
     78c:	f5 4c       	sbci	r31, 0xC5	; 197
     78e:	80 83       	st	Z, r24
                    iLED[EYE[R][R]] = dimValue;
     790:	e0 91 a8 b5 	lds	r30, 0xB5A8	; 0x80b5a8 <__bss_end+0x7a9d>
     794:	f0 e0       	ldi	r31, 0x00	; 0
     796:	80 91 09 38 	lds	r24, 0x3809	; 0x803809 <dimValue>
     79a:	e5 54       	subi	r30, 0x45	; 69
     79c:	f5 4c       	sbci	r31, 0xC5	; 197
     79e:	80 83       	st	Z, r24
     7a0:	a2 eb       	ldi	r26, 0xB2	; 178
     7a2:	b5 eb       	ldi	r27, 0xB5	; 181
                    for (int i=0; i<6; i++ )
                        iLED[HCKR[G][i]] = 0;
     7a4:	ed 91       	ld	r30, X+
     7a6:	f0 e0       	ldi	r31, 0x00	; 0
     7a8:	e5 54       	subi	r30, 0x45	; 69
     7aa:	f5 4c       	sbci	r31, 0xC5	; 197
     7ac:	10 82       	st	Z, r1
                    iLED[SCARAB[G]]    = 0;
                    iLED[EYE[G][L]] = 0;
                    iLED[EYE[G][R]] = 0;
                    iLED[EYE[R][L]] = dimValue;
                    iLED[EYE[R][R]] = dimValue;
                    for (int i=0; i<6; i++ )
     7ae:	85 eb       	ldi	r24, 0xB5	; 181
     7b0:	a8 3b       	cpi	r26, 0xB8	; 184
     7b2:	b8 07       	cpc	r27, r24
     7b4:	b9 f7       	brne	.-18     	; 0x7a4 <MagnetMaze+0x276>
                    iLED[HCKR[G][i]] = 0;
            }
        }
    }
    return 0;
}
     7b6:	80 e0       	ldi	r24, 0x00	; 0
     7b8:	df 91       	pop	r29
     7ba:	cf 91       	pop	r28
     7bc:	08 95       	ret

000007be <Setup>:
#include <I2C.h>                //Fixed a semi-crappy lib found on internet, replace with interrupt driven one? If so, check hardware errata pdf!

volatile uint16_t tmp16bit;    
volatile uint8_t mask[8] = {0x01, 0x03, 0x07, 0x0f, 0x1f, 0x3f, 0x7f, 0xff};

void Setup(){
     7be:	cf 93       	push	r28
     7c0:	df 93       	push	r29
    cli();
     7c2:	f8 94       	cli

    //Set up clock at 10MHz
    CCP = CCP_IOREG_gc;
     7c4:	88 ed       	ldi	r24, 0xD8	; 216
     7c6:	84 bf       	out	0x34, r24	; 52
    CLKCTRL_MCLKCTRLB = 0x01;
     7c8:	c1 e0       	ldi	r28, 0x01	; 1
     7ca:	c0 93 61 00 	sts	0x0061, r28	; 0x800061 <__TEXT_REGION_LENGTH__+0x700061>

    //Set I/O direction registers
    PORTA_DIR = 0b01001010;
     7ce:	8a e4       	ldi	r24, 0x4A	; 74
     7d0:	80 93 00 04 	sts	0x0400, r24	; 0x800400 <__TEXT_REGION_LENGTH__+0x700400>
    PORTB_DIR = 0b01111100;
     7d4:	8c e7       	ldi	r24, 0x7C	; 124
     7d6:	80 93 20 04 	sts	0x0420, r24	; 0x800420 <__TEXT_REGION_LENGTH__+0x700420>
    PORTC_DIR = 0b00111111;
     7da:	9f e3       	ldi	r25, 0x3F	; 63
     7dc:	90 93 40 04 	sts	0x0440, r25	; 0x800440 <__TEXT_REGION_LENGTH__+0x700440>

    //Invert some pins for correcting LED reversal error
    PORTC_PIN3CTRL |= 0x80;
     7e0:	80 91 53 04 	lds	r24, 0x0453	; 0x800453 <__TEXT_REGION_LENGTH__+0x700453>
     7e4:	80 68       	ori	r24, 0x80	; 128
     7e6:	80 93 53 04 	sts	0x0453, r24	; 0x800453 <__TEXT_REGION_LENGTH__+0x700453>
    PORTC_PIN4CTRL |= 0x80;
     7ea:	80 91 54 04 	lds	r24, 0x0454	; 0x800454 <__TEXT_REGION_LENGTH__+0x700454>
     7ee:	80 68       	ori	r24, 0x80	; 128
     7f0:	80 93 54 04 	sts	0x0454, r24	; 0x800454 <__TEXT_REGION_LENGTH__+0x700454>
    PORTC_PIN5CTRL |= 0x80;
     7f4:	80 91 55 04 	lds	r24, 0x0455	; 0x800455 <__TEXT_REGION_LENGTH__+0x700455>
     7f8:	80 68       	ori	r24, 0x80	; 128
     7fa:	80 93 55 04 	sts	0x0455, r24	; 0x800455 <__TEXT_REGION_LENGTH__+0x700455>
    PORTB_PIN3CTRL |= 0x80;
     7fe:	80 91 33 04 	lds	r24, 0x0433	; 0x800433 <__TEXT_REGION_LENGTH__+0x700433>
     802:	80 68       	ori	r24, 0x80	; 128
     804:	80 93 33 04 	sts	0x0433, r24	; 0x800433 <__TEXT_REGION_LENGTH__+0x700433>
    PORTB_PIN4CTRL |= 0x80;
     808:	80 91 34 04 	lds	r24, 0x0434	; 0x800434 <__TEXT_REGION_LENGTH__+0x700434>
     80c:	80 68       	ori	r24, 0x80	; 128
     80e:	80 93 34 04 	sts	0x0434, r24	; 0x800434 <__TEXT_REGION_LENGTH__+0x700434>
    PORTB_PIN5CTRL |= 0x80;
     812:	80 91 35 04 	lds	r24, 0x0435	; 0x800435 <__TEXT_REGION_LENGTH__+0x700435>
     816:	80 68       	ori	r24, 0x80	; 128
     818:	80 93 35 04 	sts	0x0435, r24	; 0x800435 <__TEXT_REGION_LENGTH__+0x700435>
    PORTB_PIN2CTRL |= 0x80;
    PORTB_PIN6CTRL |= 0x80;
    */

    //UART (Alternative pins PA1=TxD, PA2=RxD, baudrate 9600, 8n1, RX and Buffer empty interrupts on)
    PORTMUX_CTRLB = 0x01;
     81c:	c0 93 01 02 	sts	0x0201, r28	; 0x800201 <__TEXT_REGION_LENGTH__+0x700201>
    PORTA_OUTSET = 0x02;
     820:	d2 e0       	ldi	r29, 0x02	; 2
     822:	d0 93 05 04 	sts	0x0405, r29	; 0x800405 <__TEXT_REGION_LENGTH__+0x700405>
    USART0_BAUD = (uint16_t)USART0_BAUD_RATE(115200);
     826:	2b e5       	ldi	r18, 0x5B	; 91
     828:	31 e0       	ldi	r19, 0x01	; 1
     82a:	20 93 08 08 	sts	0x0808, r18	; 0x800808 <__TEXT_REGION_LENGTH__+0x700808>
     82e:	30 93 09 08 	sts	0x0809, r19	; 0x800809 <__TEXT_REGION_LENGTH__+0x700809>
    USART0_CTRLA = 0xA0; //Interrupts on
     832:	80 ea       	ldi	r24, 0xA0	; 160
     834:	80 93 05 08 	sts	0x0805, r24	; 0x800805 <__TEXT_REGION_LENGTH__+0x700805>
    USART0_CTRLB = 0xC0; //RX and TX on
     838:	80 ec       	ldi	r24, 0xC0	; 192
     83a:	80 93 06 08 	sts	0x0806, r24	; 0x800806 <__TEXT_REGION_LENGTH__+0x700806>
    USART0_CTRLC = 0x03; //8 bits data, no parity, 1 stop bit
     83e:	83 e0       	ldi	r24, 0x03	; 3
     840:	80 93 07 08 	sts	0x0807, r24	; 0x800807 <__TEXT_REGION_LENGTH__+0x700807>
     
    //GPIO registers 0..3 can be used for global variables used in ISR routines (ASM capability: IN, OUT, SBI, CBI, SBIS, SBIC)
    L_COL = 0;     //Used in LED array to hold currently driven column value
     844:	1c ba       	out	0x1c, r1	; 28
    RXCNT = 0;     //Used as UART receive counter
     846:	1d ba       	out	0x1d, r1	; 29
    AUPOS = 0;     //Used as audio input/output buffer counter
     848:	1e ba       	out	0x1e, r1	; 30
    GPIOR3 = 0;    //
     84a:	1f ba       	out	0x1f, r1	; 31

    //Init TCA (split mode, f_CLK/16, PWM on 6 alternative pins, underflow int enabled, synced and started)
    TCA0_SPLIT_CTRLD = 1;
     84c:	c0 93 03 0a 	sts	0x0A03, r28	; 0x800a03 <__TEXT_REGION_LENGTH__+0x700a03>
    TCA0_SPLIT_CTRLA = (0x4)<<1;
     850:	88 e0       	ldi	r24, 0x08	; 8
     852:	80 93 00 0a 	sts	0x0A00, r24	; 0x800a00 <__TEXT_REGION_LENGTH__+0x700a00>
    PORTMUX_CTRLC = 0x3F;
     856:	90 93 02 02 	sts	0x0202, r25	; 0x800202 <__TEXT_REGION_LENGTH__+0x700202>
    TCA0_SPLIT_CTRLB = 0x77;
     85a:	87 e7       	ldi	r24, 0x77	; 119
     85c:	80 93 01 0a 	sts	0x0A01, r24	; 0x800a01 <__TEXT_REGION_LENGTH__+0x700a01>
    TCA0_SPLIT_INTCTRL = 0x1;
     860:	c0 93 0a 0a 	sts	0x0A0A, r28	; 0x800a0a <__TEXT_REGION_LENGTH__+0x700a0a>
    TCA0_SPLIT_CTRLESET = ((0x2)<<2)|0x3;
     864:	8b e0       	ldi	r24, 0x0B	; 11
     866:	80 93 05 0a 	sts	0x0A05, r24	; 0x800a05 <__TEXT_REGION_LENGTH__+0x700a05>
    TCA0_SPLIT_CTRLA |= 1;
     86a:	80 91 00 0a 	lds	r24, 0x0A00	; 0x800a00 <__TEXT_REGION_LENGTH__+0x700a00>
     86e:	81 60       	ori	r24, 0x01	; 1
     870:	80 93 00 0a 	sts	0x0A00, r24	; 0x800a00 <__TEXT_REGION_LENGTH__+0x700a00>
     
    //Init TCB0 (compare value sets serial Tx pause between characters, uses TCA0 prescaler, enabled, interrupt disabled)
    TCB0_CTRLA = ((0x02)<<1)|0x01;
     874:	85 e0       	ldi	r24, 0x05	; 5
     876:	80 93 40 0a 	sts	0x0A40, r24	; 0x800a40 <__TEXT_REGION_LENGTH__+0x700a40>
    TCB0_CTRLB = 0;
     87a:	10 92 41 0a 	sts	0x0A41, r1	; 0x800a41 <__TEXT_REGION_LENGTH__+0x700a41>
    TCB0_CCMP = 0x01FF;
     87e:	8f ef       	ldi	r24, 0xFF	; 255
     880:	91 e0       	ldi	r25, 0x01	; 1
     882:	80 93 4c 0a 	sts	0x0A4C, r24	; 0x800a4c <__TEXT_REGION_LENGTH__+0x700a4c>
     886:	90 93 4d 0a 	sts	0x0A4D, r25	; 0x800a4d <__TEXT_REGION_LENGTH__+0x700a4d>
    TCB0_INTCTRL = 0x00;     
     88a:	10 92 45 0a 	sts	0x0A45, r1	; 0x800a45 <__TEXT_REGION_LENGTH__+0x700a45>
     
    //Init TCB1 (compare value sets audio sample rate (0x038B = 11025sps), enabled, interrupt enabled)
    TCB1_CTRLA = 0x01;
     88e:	c0 93 50 0a 	sts	0x0A50, r28	; 0x800a50 <__TEXT_REGION_LENGTH__+0x700a50>
    TCB1_CTRLB = 0;
     892:	10 92 51 0a 	sts	0x0A51, r1	; 0x800a51 <__TEXT_REGION_LENGTH__+0x700a51>
    TCB1_CCMP = 0x038B;
     896:	8b e8       	ldi	r24, 0x8B	; 139
     898:	93 e0       	ldi	r25, 0x03	; 3
     89a:	80 93 5c 0a 	sts	0x0A5C, r24	; 0x800a5c <__TEXT_REGION_LENGTH__+0x700a5c>
     89e:	90 93 5d 0a 	sts	0x0A5D, r25	; 0x800a5d <__TEXT_REGION_LENGTH__+0x700a5d>
    TCB1_INTCTRL = 0x01;
     8a2:	c0 93 55 0a 	sts	0x0A55, r28	; 0x800a55 <__TEXT_REGION_LENGTH__+0x700a55>

    //Init I2C (100kHz)
    I2C_init();
     8a6:	08 dc       	rcall	.-2032   	; 0xb8 <I2C_init>

    //VREF (DAC, ADC's)
    VREF_CTRLA   = 0x12;    //0x22 for audio in/out (2.5V), 0x12 for temperature in, audio out (1.1V/2.5V)
     8a8:	82 e1       	ldi	r24, 0x12	; 18
     8aa:	80 93 a0 00 	sts	0x00A0, r24	; 0x8000a0 <__TEXT_REGION_LENGTH__+0x7000a0>
    VREF_CTRLC   = 0x20;    //ADC1 reference at 2.5V
     8ae:	80 e2       	ldi	r24, 0x20	; 32
     8b0:	80 93 a2 00 	sts	0x00A2, r24	; 0x8000a2 <__TEXT_REGION_LENGTH__+0x7000a2>
    VREF_CTRLB   = 0x01;    //DAC0 ref forced enabled
     8b4:	c0 93 a1 00 	sts	0x00A1, r28	; 0x8000a1 <__TEXT_REGION_LENGTH__+0x7000a1>

    //Init ADC0 (audio in, also controls DAC output rate, internal temperature?)
    ADC0_CTRLA   = 0x06;    //8 bit resolution, free running
     8b8:	86 e0       	ldi	r24, 0x06	; 6
     8ba:	80 93 00 06 	sts	0x0600, r24	; 0x800600 <__TEXT_REGION_LENGTH__+0x700600>
    ADC0_CTRLC   = 0x44;    //Reduced sample capacitor, internal reference, clock/32 => 24038sps
     8be:	84 e4       	ldi	r24, 0x44	; 68
     8c0:	80 93 02 06 	sts	0x0602, r24	; 0x800602 <__TEXT_REGION_LENGTH__+0x700602>
    ADC0_MUXPOS  = 0x1E;    //Audio in: AIN7 at (0x07), Temperature: Internal sensor at (0x1E)
     8c4:	8e e1       	ldi	r24, 0x1E	; 30
     8c6:	80 93 06 06 	sts	0x0606, r24	; 0x800606 <__TEXT_REGION_LENGTH__+0x700606>
    ADC0_INTCTRL = 0x01;    //Result ready interrupt enabled
     8ca:	c0 93 0a 06 	sts	0x060A, r28	; 0x80060a <__TEXT_REGION_LENGTH__+0x70060a>
    ADC0_CTRLA  |= 0x01;    //ADC0 enabled
     8ce:	80 91 00 06 	lds	r24, 0x0600	; 0x800600 <__TEXT_REGION_LENGTH__+0x700600>
     8d2:	81 60       	ori	r24, 0x01	; 1
     8d4:	80 93 00 06 	sts	0x0600, r24	; 0x800600 <__TEXT_REGION_LENGTH__+0x700600>
    ADC0_COMMAND = 0x01;    //Start first conversion, after that it will run periodically.
     8d8:	c0 93 08 06 	sts	0x0608, r28	; 0x800608 <__TEXT_REGION_LENGTH__+0x700608>

    //Init ADC1 (buttons and sensors: CH0=Photo transistor, CH1=Hall, CH4=Buttons)
    ADC1_CTRLA   = 0;
     8dc:	10 92 40 06 	sts	0x0640, r1	; 0x800640 <__TEXT_REGION_LENGTH__+0x700640>
    ADC1_CTRLB   = 0x02;    //4 results automatically accumulated
     8e0:	d0 93 41 06 	sts	0x0641, r29	; 0x800641 <__TEXT_REGION_LENGTH__+0x700641>
    ADC1_CTRLC   = 0x52;    //Reduced sample capacitor, VDD as reference, clock/8
     8e4:	82 e5       	ldi	r24, 0x52	; 82
     8e6:	80 93 42 06 	sts	0x0642, r24	; 0x800642 <__TEXT_REGION_LENGTH__+0x700642>
    ADC1_SAMPCTRL= 0x04;    //Extend sampling time with 4 cycles (6 total)
     8ea:	84 e0       	ldi	r24, 0x04	; 4
     8ec:	80 93 45 06 	sts	0x0645, r24	; 0x800645 <__TEXT_REGION_LENGTH__+0x700645>
    ADC1_MUXPOS  = 0x04;    //Start with Buttons, for sensors, activate sensor power first.
     8f0:	80 93 46 06 	sts	0x0646, r24	; 0x800646 <__TEXT_REGION_LENGTH__+0x700646>
    ADC1_INTCTRL = 0x01;    //Result ready interrupt enabled
     8f4:	c0 93 4a 06 	sts	0x064A, r28	; 0x80064a <__TEXT_REGION_LENGTH__+0x70064a>
    ADC1_CTRLA  |= 0x01;    //ADC0 enabled
     8f8:	80 91 40 06 	lds	r24, 0x0640	; 0x800640 <__TEXT_REGION_LENGTH__+0x700640>
     8fc:	81 60       	ori	r24, 0x01	; 1
     8fe:	80 93 40 06 	sts	0x0640, r24	; 0x800640 <__TEXT_REGION_LENGTH__+0x700640>
    ADC1_COMMAND = 0x01;    //Start single conversion
     902:	c0 93 48 06 	sts	0x0648, r28	; 0x800648 <__TEXT_REGION_LENGTH__+0x700648>

    //Init DAC0
    DAC0_CTRLA = 0x40;     //Enable output buffer (connect to pin)
     906:	80 e4       	ldi	r24, 0x40	; 64
     908:	80 93 a0 06 	sts	0x06A0, r24	; 0x8006a0 <__TEXT_REGION_LENGTH__+0x7006a0>
    DAC0_DATA = 0x80;      //Data value at half point (about 1.25V)
     90c:	80 e8       	ldi	r24, 0x80	; 128
     90e:	80 93 a1 06 	sts	0x06A1, r24	; 0x8006a1 <__TEXT_REGION_LENGTH__+0x7006a1>
    DAC0_CTRLA |= 0x01;    //Enable DAC
     912:	80 91 a0 06 	lds	r24, 0x06A0	; 0x8006a0 <__TEXT_REGION_LENGTH__+0x7006a0>
     916:	81 60       	ori	r24, 0x01	; 1
     918:	80 93 a0 06 	sts	0x06A0, r24	; 0x8006a0 <__TEXT_REGION_LENGTH__+0x7006a0>
     
    //PIT and RTC interrupts
    while(RTC_STATUS & RTC_CTRLABUSY_bm);
     91c:	80 91 41 01 	lds	r24, 0x0141	; 0x800141 <__TEXT_REGION_LENGTH__+0x700141>
     920:	80 fd       	sbrc	r24, 0
     922:	fc cf       	rjmp	.-8      	; 0x91c <Setup+0x15e>
    RTC_CTRLA          = (0x6)<<3;                         //Prescaler: /64
     924:	80 e3       	ldi	r24, 0x30	; 48
     926:	80 93 40 01 	sts	0x0140, r24	; 0x800140 <__TEXT_REGION_LENGTH__+0x700140>
    RTC_CLKSEL         = 0;                                //Clock source: internal 32768Hz clock
     92a:	10 92 47 01 	sts	0x0147, r1	; 0x800147 <__TEXT_REGION_LENGTH__+0x700147>
    while(RTC_STATUS & RTC_PERBUSY_bm);
     92e:	80 91 41 01 	lds	r24, 0x0141	; 0x800141 <__TEXT_REGION_LENGTH__+0x700141>
     932:	82 fd       	sbrc	r24, 2
     934:	fc cf       	rjmp	.-8      	; 0x92e <Setup+0x170>
    RTC_PER            = 512*60;                           //60 second period (for clocking how long the device has been running?)
     936:	80 e0       	ldi	r24, 0x00	; 0
     938:	98 e7       	ldi	r25, 0x78	; 120
     93a:	80 93 4a 01 	sts	0x014A, r24	; 0x80014a <__TEXT_REGION_LENGTH__+0x70014a>
     93e:	90 93 4b 01 	sts	0x014B, r25	; 0x80014b <__TEXT_REGION_LENGTH__+0x70014b>
    tmp16bit = (RTC_CNT + BTN_TMR)%RTC_PER;
     942:	80 91 48 01 	lds	r24, 0x0148	; 0x800148 <__TEXT_REGION_LENGTH__+0x700148>
     946:	90 91 49 01 	lds	r25, 0x0149	; 0x800149 <__TEXT_REGION_LENGTH__+0x700149>
     94a:	60 91 4a 01 	lds	r22, 0x014A	; 0x80014a <__TEXT_REGION_LENGTH__+0x70014a>
     94e:	70 91 4b 01 	lds	r23, 0x014B	; 0x80014b <__TEXT_REGION_LENGTH__+0x70014b>
     952:	82 96       	adiw	r24, 0x22	; 34
     954:	0e 94 6e 1a 	call	0x34dc	; 0x34dc <__udivmodhi4>
     958:	80 93 e8 3a 	sts	0x3AE8, r24	; 0x803ae8 <tmp16bit>
     95c:	90 93 e9 3a 	sts	0x3AE9, r25	; 0x803ae9 <tmp16bit+0x1>
    while(RTC_STATUS & RTC_CMPBUSY_bm);
     960:	80 91 41 01 	lds	r24, 0x0141	; 0x800141 <__TEXT_REGION_LENGTH__+0x700141>
     964:	83 fd       	sbrc	r24, 3
     966:	fc cf       	rjmp	.-8      	; 0x960 <Setup+0x1a2>
    RTC_CMP            = tmp16bit;                         //Button timing
     968:	80 91 e8 3a 	lds	r24, 0x3AE8	; 0x803ae8 <tmp16bit>
     96c:	90 91 e9 3a 	lds	r25, 0x3AE9	; 0x803ae9 <tmp16bit+0x1>
     970:	80 93 4c 01 	sts	0x014C, r24	; 0x80014c <__TEXT_REGION_LENGTH__+0x70014c>
     974:	90 93 4d 01 	sts	0x014D, r25	; 0x80014d <__TEXT_REGION_LENGTH__+0x70014d>
    RTC_INTCTRL        = 0x03;                             //RTC overflow interrupt enabled
     978:	83 e0       	ldi	r24, 0x03	; 3
     97a:	80 93 42 01 	sts	0x0142, r24	; 0x800142 <__TEXT_REGION_LENGTH__+0x700142>
    RTC_PITINTCTRL     = 0x01;                             //PIT interrupt enabled
     97e:	81 e0       	ldi	r24, 0x01	; 1
     980:	80 93 52 01 	sts	0x0152, r24	; 0x800152 <__TEXT_REGION_LENGTH__+0x700152>
    RTC_PITCTRLA       = (0x1)<<3;                         //Interrupt fires after 4 RTC clock cycles Rate=(RTCCLK/(PRESC*PERIOD)) 32768/256=128Hz
     984:	88 e0       	ldi	r24, 0x08	; 8
     986:	80 93 50 01 	sts	0x0150, r24	; 0x800150 <__TEXT_REGION_LENGTH__+0x700150>
    while(RTC_STATUS & RTC_CTRLABUSY_bm);      
     98a:	80 91 41 01 	lds	r24, 0x0141	; 0x800141 <__TEXT_REGION_LENGTH__+0x700141>
     98e:	80 fd       	sbrc	r24, 0
     990:	fc cf       	rjmp	.-8      	; 0x98a <Setup+0x1cc>
    RTC_CTRLA          |= 0x01;                            //Enable RTC
     992:	80 91 40 01 	lds	r24, 0x0140	; 0x800140 <__TEXT_REGION_LENGTH__+0x700140>
     996:	81 60       	ori	r24, 0x01	; 1
     998:	80 93 40 01 	sts	0x0140, r24	; 0x800140 <__TEXT_REGION_LENGTH__+0x700140>
    RTC_PITCTRLA       |= 0x01;                            //Enable PIT
     99c:	80 91 50 01 	lds	r24, 0x0150	; 0x800150 <__TEXT_REGION_LENGTH__+0x700150>
     9a0:	81 60       	ori	r24, 0x01	; 1
     9a2:	80 93 50 01 	sts	0x0150, r24	; 0x800150 <__TEXT_REGION_LENGTH__+0x700150>
     
    //Other inits
    serRx[0] = 0;           // Empty Rx buffer (first char is enough)
     9a6:	10 92 4e 3a 	sts	0x3A4E, r1	; 0x803a4e <serRx>
    serTxAddr = &serRx[0];  // Point to first address of the Rx buffer
     9aa:	8e e4       	ldi	r24, 0x4E	; 78
     9ac:	9a e3       	ldi	r25, 0x3A	; 58
     9ae:	80 93 92 3a 	sts	0x3A92, r24	; 0x803a92 <serTxAddr>
     9b2:	90 93 93 3a 	sts	0x3A93, r25	; 0x803a93 <serTxAddr+0x1>

    sei();
     9b6:	78 94       	sei
}
     9b8:	df 91       	pop	r29
     9ba:	cf 91       	pop	r28
     9bc:	08 95       	ret

000009be <__vector_8>:

// TCA0 is used for driving the LED matrix at 488Hz (* 5 columns = 2440Hz). The lower 8 bit underflow interrupt is used to load new values and shift between columns.
ISR(TCA0_LUNF_vect){
     9be:	1f 92       	push	r1
     9c0:	0f 92       	push	r0
     9c2:	0f b6       	in	r0, 0x3f	; 63
     9c4:	0f 92       	push	r0
     9c6:	11 24       	eor	r1, r1
     9c8:	8f 93       	push	r24
     9ca:	9f 93       	push	r25
     9cc:	af 93       	push	r26
     9ce:	bf 93       	push	r27
     9d0:	ef 93       	push	r30
     9d2:	ff 93       	push	r31
    //Turn off all columns
    PORTC_OUTCLR = 0x07;
     9d4:	87 e0       	ldi	r24, 0x07	; 7
     9d6:	80 93 46 04 	sts	0x0446, r24	; 0x800446 <__TEXT_REGION_LENGTH__+0x700446>
    PORTB_OUTCLR = 0x44;
     9da:	84 e4       	ldi	r24, 0x44	; 68
     9dc:	80 93 26 04 	sts	0x0426, r24	; 0x800426 <__TEXT_REGION_LENGTH__+0x700426>
    "ldi r25, 6        \n"
    "ld r24, %a[arr]+  \n"
    "st %a[wo]+, r24   \n"
    "dec r25           \n"
    "brne .-8          \n"
    :: [wo] "e" (&TCA0_SPLIT_LCMP0), [arr] "e" (&iLED[(L_COL<<3)]) : "r25", "r24", "cc", "memory");
     9e0:	ec b3       	in	r30, 0x1c	; 28
     9e2:	88 e0       	ldi	r24, 0x08	; 8
     9e4:	e8 9f       	mul	r30, r24
     9e6:	f0 01       	movw	r30, r0
     9e8:	11 24       	eor	r1, r1
     9ea:	e5 54       	subi	r30, 0x45	; 69
     9ec:	f5 4c       	sbci	r31, 0xC5	; 197
    //Turn off all columns
    PORTC_OUTCLR = 0x07;
    PORTB_OUTCLR = 0x44;

    //Write all of the compare registers of TCA0 with PWM values in array (rows)
    asm(
     9ee:	a8 e2       	ldi	r26, 0x28	; 40
     9f0:	ba e0       	ldi	r27, 0x0A	; 10
     9f2:	96 e0       	ldi	r25, 0x06	; 6
     9f4:	81 91       	ld	r24, Z+
     9f6:	8d 93       	st	X+, r24
     9f8:	9a 95       	dec	r25
     9fa:	e1 f7       	brne	.-8      	; 0x9f4 <__vector_8+0x36>
    "st %a[wo]+, r24   \n"
    "dec r25           \n"
    "brne .-8          \n"
    :: [wo] "e" (&TCA0_SPLIT_LCMP0), [arr] "e" (&iLED[(L_COL<<3)]) : "r25", "r24", "cc", "memory");

    TCA0_SPLIT_CTRLESET = ((0x2)<<2)|0x3; //Sync timers: Moved this below the PWM value loading to fix the data shifting in asm above.
     9fc:	8b e0       	ldi	r24, 0x0B	; 11
     9fe:	80 93 05 0a 	sts	0x0A05, r24	; 0x800a05 <__TEXT_REGION_LENGTH__+0x700a05>

    //Turn on the right column
    if (L_COL<3) {
     a02:	8c b3       	in	r24, 0x1c	; 28
     a04:	83 30       	cpi	r24, 0x03	; 3
     a06:	58 f4       	brcc	.+22     	; 0xa1e <__vector_8+0x60>
        asm(
     a08:	8c b3       	in	r24, 0x1c	; 28
     a0a:	91 e0       	ldi	r25, 0x01	; 1
     a0c:	01 c0       	rjmp	.+2      	; 0xa10 <__vector_8+0x52>
     a0e:	99 0f       	add	r25, r25
     a10:	8a 95       	dec	r24
     a12:	ea f7       	brpl	.-6      	; 0xa0e <__vector_8+0x50>
     a14:	99 b9       	out	0x09, r25	; 9
     a16:	8c b3       	in	r24, 0x1c	; 28
     a18:	83 95       	inc	r24
     a1a:	8c bb       	out	0x1c, r24	; 28
     a1c:	0a c0       	rjmp	.+20     	; 0xa32 <__vector_8+0x74>
        "in r24, %[io0]  \n"
        "inc r24         \n"
        "out %[io0], r24 \n"
        :: [io0] "I" (&L_COL), [vpc] "I" (&VPORTC_OUT) : "r24", "r25", "cc");
        } else {
        asm(
     a1e:	8c b3       	in	r24, 0x1c	; 28
     a20:	83 30       	cpi	r24, 0x03	; 3
     a22:	21 f4       	brne	.+8      	; 0xa2c <__vector_8+0x6e>
     a24:	2a 9a       	sbi	0x05, 2	; 5
     a26:	83 95       	inc	r24
     a28:	8c bb       	out	0x1c, r24	; 28
     a2a:	03 c0       	rjmp	.+6      	; 0xa32 <__vector_8+0x74>
     a2c:	2e 9a       	sbi	0x05, 6	; 5
     a2e:	88 27       	eor	r24, r24
     a30:	8c bb       	out	0x1c, r24	; 28
        "clr r24         \n"
        "out %[io0], r24 \n"
        :: [io0] "I" (&L_COL), [vpb] "I" (&VPORTB_OUT) : "r24", "cc");
    }
    
    if(timeout_I2C) --timeout_I2C;
     a32:	80 91 39 3a 	lds	r24, 0x3A39	; 0x803a39 <timeout_I2C>
     a36:	88 23       	and	r24, r24
     a38:	29 f0       	breq	.+10     	; 0xa44 <__vector_8+0x86>
     a3a:	80 91 39 3a 	lds	r24, 0x3A39	; 0x803a39 <timeout_I2C>
     a3e:	81 50       	subi	r24, 0x01	; 1
     a40:	80 93 39 3a 	sts	0x3A39, r24	; 0x803a39 <timeout_I2C>
    TCA0_SPLIT_INTFLAGS = 0xFF;
     a44:	8f ef       	ldi	r24, 0xFF	; 255
     a46:	80 93 0b 0a 	sts	0x0A0B, r24	; 0x800a0b <__TEXT_REGION_LENGTH__+0x700a0b>
}
     a4a:	ff 91       	pop	r31
     a4c:	ef 91       	pop	r30
     a4e:	bf 91       	pop	r27
     a50:	af 91       	pop	r26
     a52:	9f 91       	pop	r25
     a54:	8f 91       	pop	r24
     a56:	0f 90       	pop	r0
     a58:	0f be       	out	0x3f, r0	; 63
     a5a:	0f 90       	pop	r0
     a5c:	1f 90       	pop	r1
     a5e:	18 95       	reti

00000a60 <__vector_13>:

// TCB0 is used for (slowly) sending serial characters. A 0x00 character code is needed to terminate sending or it will leak memory to serial. It's a feature, honest! 
ISR(TCB0_INT_vect){
     a60:	1f 92       	push	r1
     a62:	0f 92       	push	r0
     a64:	0f b6       	in	r0, 0x3f	; 63
     a66:	0f 92       	push	r0
     a68:	11 24       	eor	r1, r1
     a6a:	8f 93       	push	r24
     a6c:	9f 93       	push	r25
     a6e:	ef 93       	push	r30
     a70:	ff 93       	push	r31
    if (*serTxAddr) {
     a72:	e0 91 92 3a 	lds	r30, 0x3A92	; 0x803a92 <serTxAddr>
     a76:	f0 91 93 3a 	lds	r31, 0x3A93	; 0x803a93 <serTxAddr+0x1>
     a7a:	80 81       	ld	r24, Z
     a7c:	88 23       	and	r24, r24
     a7e:	91 f0       	breq	.+36     	; 0xaa4 <__vector_13+0x44>
        USART0_TXDATAL = *serTxAddr;
     a80:	80 81       	ld	r24, Z
     a82:	80 93 02 08 	sts	0x0802, r24	; 0x800802 <__TEXT_REGION_LENGTH__+0x700802>
        serTxAddr++;
     a86:	80 91 92 3a 	lds	r24, 0x3A92	; 0x803a92 <serTxAddr>
     a8a:	90 91 93 3a 	lds	r25, 0x3A93	; 0x803a93 <serTxAddr+0x1>
     a8e:	01 96       	adiw	r24, 0x01	; 1
     a90:	80 93 92 3a 	sts	0x3A92, r24	; 0x803a92 <serTxAddr>
     a94:	90 93 93 3a 	sts	0x3A93, r25	; 0x803a93 <serTxAddr+0x1>
        USART0_CTRLA |= USART_DREIE_bm;
     a98:	80 91 05 08 	lds	r24, 0x0805	; 0x800805 <__TEXT_REGION_LENGTH__+0x700805>
     a9c:	80 62       	ori	r24, 0x20	; 32
     a9e:	80 93 05 08 	sts	0x0805, r24	; 0x800805 <__TEXT_REGION_LENGTH__+0x700805>
     aa2:	05 c0       	rjmp	.+10     	; 0xaae <__vector_13+0x4e>
    } else {
        serTxDone = 1;
     aa4:	81 e0       	ldi	r24, 0x01	; 1
     aa6:	80 93 08 38 	sts	0x3808, r24	; 0x803808 <serTxDone>
        TCB0_INTCTRL = 0x00;
     aaa:	10 92 45 0a 	sts	0x0A45, r1	; 0x800a45 <__TEXT_REGION_LENGTH__+0x700a45>
    }
    TCB0_INTFLAGS = TCB_CAPT_bm;
     aae:	81 e0       	ldi	r24, 0x01	; 1
     ab0:	80 93 46 0a 	sts	0x0A46, r24	; 0x800a46 <__TEXT_REGION_LENGTH__+0x700a46>
}
     ab4:	ff 91       	pop	r31
     ab6:	ef 91       	pop	r30
     ab8:	9f 91       	pop	r25
     aba:	8f 91       	pop	r24
     abc:	0f 90       	pop	r0
     abe:	0f be       	out	0x3f, r0	; 63
     ac0:	0f 90       	pop	r0
     ac2:	1f 90       	pop	r1
     ac4:	18 95       	reti

00000ac6 <__vector_14>:

// TCB1 is used for audio generation. Keeps playing "data" until 0 is reached. Audio sample data can contain 0x01 to 0xFF, centered around 0x80
ISR(TCB1_INT_vect){
     ac6:	1f 92       	push	r1
     ac8:	0f 92       	push	r0
     aca:	0f b6       	in	r0, 0x3f	; 63
     acc:	0f 92       	push	r0
     ace:	11 24       	eor	r1, r1
     ad0:	2f 93       	push	r18
     ad2:	3f 93       	push	r19
     ad4:	4f 93       	push	r20
     ad6:	8f 93       	push	r24
     ad8:	9f 93       	push	r25
     ada:	ef 93       	push	r30
     adc:	ff 93       	push	r31
    int16_t volCtrl;
    if (*auSmpAddr == 0) auSmpAddr = auRepAddr;
     ade:	e0 91 05 38 	lds	r30, 0x3805	; 0x803805 <auSmpAddr>
     ae2:	f0 91 06 38 	lds	r31, 0x3806	; 0x803806 <auSmpAddr+0x1>
     ae6:	80 81       	ld	r24, Z
     ae8:	81 11       	cpse	r24, r1
     aea:	08 c0       	rjmp	.+16     	; 0xafc <__vector_14+0x36>
     aec:	80 91 03 38 	lds	r24, 0x3803	; 0x803803 <auRepAddr>
     af0:	90 91 04 38 	lds	r25, 0x3804	; 0x803804 <auRepAddr+0x1>
     af4:	80 93 05 38 	sts	0x3805, r24	; 0x803805 <auSmpAddr>
     af8:	90 93 06 38 	sts	0x3806, r25	; 0x803806 <auSmpAddr+0x1>
    if (*auSmpAddr) {
     afc:	e0 91 05 38 	lds	r30, 0x3805	; 0x803805 <auSmpAddr>
     b00:	f0 91 06 38 	lds	r31, 0x3806	; 0x803806 <auSmpAddr+0x1>
     b04:	80 81       	ld	r24, Z
     b06:	88 23       	and	r24, r24
     b08:	e1 f0       	breq	.+56     	; 0xb42 <__vector_14+0x7c>
        volCtrl = ((((int16_t)(*auSmpAddr) - 0x7f) * auVolume) >> 8) + 0x80;
     b0a:	20 81       	ld	r18, Z
     b0c:	40 91 8f 3a 	lds	r20, 0x3A8F	; 0x803a8f <auVolume>
        DAC0_DATA = (uint8_t)(volCtrl);
     b10:	30 e0       	ldi	r19, 0x00	; 0
     b12:	2f 57       	subi	r18, 0x7F	; 127
     b14:	31 09       	sbc	r19, r1
     b16:	42 9f       	mul	r20, r18
     b18:	c0 01       	movw	r24, r0
     b1a:	43 9f       	mul	r20, r19
     b1c:	90 0d       	add	r25, r0
     b1e:	11 24       	eor	r1, r1
     b20:	89 2f       	mov	r24, r25
     b22:	99 0f       	add	r25, r25
     b24:	99 0b       	sbc	r25, r25
     b26:	80 58       	subi	r24, 0x80	; 128
     b28:	9f 4f       	sbci	r25, 0xFF	; 255
     b2a:	80 93 a1 06 	sts	0x06A1, r24	; 0x8006a1 <__TEXT_REGION_LENGTH__+0x7006a1>
        ++auSmpAddr;
     b2e:	80 91 05 38 	lds	r24, 0x3805	; 0x803805 <auSmpAddr>
     b32:	90 91 06 38 	lds	r25, 0x3806	; 0x803806 <auSmpAddr+0x1>
     b36:	01 96       	adiw	r24, 0x01	; 1
     b38:	80 93 05 38 	sts	0x3805, r24	; 0x803805 <auSmpAddr>
     b3c:	90 93 06 38 	sts	0x3806, r25	; 0x803806 <auSmpAddr+0x1>
     b40:	06 c0       	rjmp	.+12     	; 0xb4e <__vector_14+0x88>
    } else {
        DAC0_DATA = 0x80;
     b42:	80 e8       	ldi	r24, 0x80	; 128
     b44:	80 93 a1 06 	sts	0x06A1, r24	; 0x8006a1 <__TEXT_REGION_LENGTH__+0x7006a1>
        auPlayDone = 1;
     b48:	81 e0       	ldi	r24, 0x01	; 1
     b4a:	80 93 e3 3a 	sts	0x3AE3, r24	; 0x803ae3 <auPlayDone>
    }
    TCB1_INTFLAGS = TCB_CAPT_bm;
     b4e:	81 e0       	ldi	r24, 0x01	; 1
     b50:	80 93 56 0a 	sts	0x0A56, r24	; 0x800a56 <__TEXT_REGION_LENGTH__+0x700a56>
}
     b54:	ff 91       	pop	r31
     b56:	ef 91       	pop	r30
     b58:	9f 91       	pop	r25
     b5a:	8f 91       	pop	r24
     b5c:	4f 91       	pop	r20
     b5e:	3f 91       	pop	r19
     b60:	2f 91       	pop	r18
     b62:	0f 90       	pop	r0
     b64:	0f be       	out	0x3f, r0	; 63
     b66:	0f 90       	pop	r0
     b68:	1f 90       	pop	r1
     b6a:	18 95       	reti

00000b6c <__vector_27>:

// Reads up to RXLEN characters until LF is found, LF sets the serRxDone flag and writes 0 instead of LF.
ISR(USART0_RXC_vect){
     b6c:	1f 92       	push	r1
     b6e:	0f 92       	push	r0
     b70:	0f b6       	in	r0, 0x3f	; 63
     b72:	0f 92       	push	r0
     b74:	11 24       	eor	r1, r1
     b76:	8f 93       	push	r24
     b78:	ef 93       	push	r30
     b7a:	ff 93       	push	r31
    if (serRxDone == 0){
     b7c:	80 91 37 38 	lds	r24, 0x3837	; 0x803837 <serRxDone>
     b80:	81 11       	cpse	r24, r1
     b82:	44 c0       	rjmp	.+136    	; 0xc0c <__vector_27+0xa0>
        serRx[RXCNT] = USART0.RXDATAL;
     b84:	ed b3       	in	r30, 0x1d	; 29
     b86:	f0 e0       	ldi	r31, 0x00	; 0
     b88:	80 91 00 08 	lds	r24, 0x0800	; 0x800800 <__TEXT_REGION_LENGTH__+0x700800>
     b8c:	e2 5b       	subi	r30, 0xB2	; 178
     b8e:	f5 4c       	sbci	r31, 0xC5	; 197
     b90:	80 83       	st	Z, r24
        USART0_TXDATAL = serRx[RXCNT];
     b92:	ed b3       	in	r30, 0x1d	; 29
     b94:	f0 e0       	ldi	r31, 0x00	; 0
     b96:	e2 5b       	subi	r30, 0xB2	; 178
     b98:	f5 4c       	sbci	r31, 0xC5	; 197
     b9a:	80 81       	ld	r24, Z
     b9c:	80 93 02 08 	sts	0x0802, r24	; 0x800802 <__TEXT_REGION_LENGTH__+0x700802>
        if ((serRx[RXCNT] == 0x0A)||(serRx[RXCNT] == 0x0D)){
     ba0:	ed b3       	in	r30, 0x1d	; 29
     ba2:	f0 e0       	ldi	r31, 0x00	; 0
     ba4:	e2 5b       	subi	r30, 0xB2	; 178
     ba6:	f5 4c       	sbci	r31, 0xC5	; 197
     ba8:	80 81       	ld	r24, Z
     baa:	8a 30       	cpi	r24, 0x0A	; 10
     bac:	39 f0       	breq	.+14     	; 0xbbc <__vector_27+0x50>
     bae:	ed b3       	in	r30, 0x1d	; 29
     bb0:	f0 e0       	ldi	r31, 0x00	; 0
     bb2:	e2 5b       	subi	r30, 0xB2	; 178
     bb4:	f5 4c       	sbci	r31, 0xC5	; 197
     bb6:	80 81       	ld	r24, Z
     bb8:	8d 30       	cpi	r24, 0x0D	; 13
     bba:	49 f4       	brne	.+18     	; 0xbce <__vector_27+0x62>
            serRx[RXCNT] = 0;
     bbc:	ed b3       	in	r30, 0x1d	; 29
     bbe:	f0 e0       	ldi	r31, 0x00	; 0
     bc0:	e2 5b       	subi	r30, 0xB2	; 178
     bc2:	f5 4c       	sbci	r31, 0xC5	; 197
     bc4:	10 82       	st	Z, r1
            serRxDone = 1;
     bc6:	81 e0       	ldi	r24, 0x01	; 1
     bc8:	80 93 37 38 	sts	0x3837, r24	; 0x803837 <serRxDone>
     bcc:	1f c0       	rjmp	.+62     	; 0xc0c <__vector_27+0xa0>
        } else if (((serRx[RXCNT] == 0x08)||(serRx[RXCNT] == 0x7F))&&(RXCNT > 0)) {
     bce:	ed b3       	in	r30, 0x1d	; 29
     bd0:	f0 e0       	ldi	r31, 0x00	; 0
     bd2:	e2 5b       	subi	r30, 0xB2	; 178
     bd4:	f5 4c       	sbci	r31, 0xC5	; 197
     bd6:	80 81       	ld	r24, Z
     bd8:	88 30       	cpi	r24, 0x08	; 8
     bda:	39 f0       	breq	.+14     	; 0xbea <__vector_27+0x7e>
     bdc:	ed b3       	in	r30, 0x1d	; 29
     bde:	f0 e0       	ldi	r31, 0x00	; 0
     be0:	e2 5b       	subi	r30, 0xB2	; 178
     be2:	f5 4c       	sbci	r31, 0xC5	; 197
     be4:	80 81       	ld	r24, Z
     be6:	8f 37       	cpi	r24, 0x7F	; 127
     be8:	59 f4       	brne	.+22     	; 0xc00 <__vector_27+0x94>
     bea:	8d b3       	in	r24, 0x1d	; 29
     bec:	88 23       	and	r24, r24
     bee:	41 f0       	breq	.+16     	; 0xc00 <__vector_27+0x94>
            serRx[RXCNT] = 0;
     bf0:	ed b3       	in	r30, 0x1d	; 29
     bf2:	f0 e0       	ldi	r31, 0x00	; 0
     bf4:	e2 5b       	subi	r30, 0xB2	; 178
     bf6:	f5 4c       	sbci	r31, 0xC5	; 197
     bf8:	10 82       	st	Z, r1
            --RXCNT;
     bfa:	8d b3       	in	r24, 0x1d	; 29
     bfc:	81 50       	subi	r24, 0x01	; 1
     bfe:	05 c0       	rjmp	.+10     	; 0xc0a <__vector_27+0x9e>
        } else if (RXCNT < (RXLEN-1)) ++RXCNT;
     c00:	8d b3       	in	r24, 0x1d	; 29
     c02:	80 34       	cpi	r24, 0x40	; 64
     c04:	18 f4       	brcc	.+6      	; 0xc0c <__vector_27+0xa0>
     c06:	8d b3       	in	r24, 0x1d	; 29
     c08:	8f 5f       	subi	r24, 0xFF	; 255
     c0a:	8d bb       	out	0x1d, r24	; 29
    }
    USART0_STATUS = USART_RXCIF_bm;
     c0c:	80 e8       	ldi	r24, 0x80	; 128
     c0e:	80 93 04 08 	sts	0x0804, r24	; 0x800804 <__TEXT_REGION_LENGTH__+0x700804>
};
     c12:	ff 91       	pop	r31
     c14:	ef 91       	pop	r30
     c16:	8f 91       	pop	r24
     c18:	0f 90       	pop	r0
     c1a:	0f be       	out	0x3f, r0	; 63
     c1c:	0f 90       	pop	r0
     c1e:	1f 90       	pop	r1
     c20:	18 95       	reti

00000c22 <__vector_28>:

// Trigger new data write and turn off DRE interrupt.
ISR(USART0_DRE_vect){
     c22:	1f 92       	push	r1
     c24:	0f 92       	push	r0
     c26:	0f b6       	in	r0, 0x3f	; 63
     c28:	0f 92       	push	r0
     c2a:	11 24       	eor	r1, r1
     c2c:	8f 93       	push	r24
     c2e:	ef 93       	push	r30
     c30:	ff 93       	push	r31
    TCB0_CNT = 0;
     c32:	10 92 4a 0a 	sts	0x0A4A, r1	; 0x800a4a <__TEXT_REGION_LENGTH__+0x700a4a>
     c36:	10 92 4b 0a 	sts	0x0A4B, r1	; 0x800a4b <__TEXT_REGION_LENGTH__+0x700a4b>
    TCB0_INTCTRL = 0x01;
     c3a:	81 e0       	ldi	r24, 0x01	; 1
     c3c:	80 93 45 0a 	sts	0x0A45, r24	; 0x800a45 <__TEXT_REGION_LENGTH__+0x700a45>
    USART0_CTRLA &= ~(USART_DREIE_bm);
     c40:	e5 e0       	ldi	r30, 0x05	; 5
     c42:	f8 e0       	ldi	r31, 0x08	; 8
     c44:	80 81       	ld	r24, Z
     c46:	8f 7d       	andi	r24, 0xDF	; 223
     c48:	80 83       	st	Z, r24
};
     c4a:	ff 91       	pop	r31
     c4c:	ef 91       	pop	r30
     c4e:	8f 91       	pop	r24
     c50:	0f 90       	pop	r0
     c52:	0f be       	out	0x3f, r0	; 63
     c54:	0f 90       	pop	r0
     c56:	1f 90       	pop	r1
     c58:	18 95       	reti

00000c5a <__vector_20>:

// ADC used for audio input and temperature sensor.
ISR(ADC0_RESRDY_vect){
     c5a:	1f 92       	push	r1
     c5c:	0f 92       	push	r0
     c5e:	0f b6       	in	r0, 0x3f	; 63
     c60:	0f 92       	push	r0
     c62:	11 24       	eor	r1, r1
     c64:	8f 93       	push	r24
     c66:	9f 93       	push	r25
     c68:	ef 93       	push	r30
     c6a:	ff 93       	push	r31
    //If just switched reference, discard first sample
    if (adc0Chg == 0){
     c6c:	80 91 2a 38 	lds	r24, 0x382A	; 0x80382a <adc0Chg>
     c70:	81 11       	cpse	r24, r1
     c72:	18 c0       	rjmp	.+48     	; 0xca4 <__vector_20+0x4a>
        AUPOS = (AUPOS+1)&(AULEN-1);
     c74:	8e b3       	in	r24, 0x1e	; 30
     c76:	8f 5f       	subi	r24, 0xFF	; 255
     c78:	8f 71       	andi	r24, 0x1F	; 31
     c7a:	8e bb       	out	0x1e, r24	; 30
        if (ADC0_MUXPOS == 0x1E) adcTemp = ADC0_RESL; else auIn[AUPOS]=ADC0_RESL;
     c7c:	80 91 06 06 	lds	r24, 0x0606	; 0x800606 <__TEXT_REGION_LENGTH__+0x700606>
     c80:	8e 31       	cpi	r24, 0x1E	; 30
     c82:	41 f4       	brne	.+16     	; 0xc94 <__vector_20+0x3a>
     c84:	80 91 10 06 	lds	r24, 0x0610	; 0x800610 <__TEXT_REGION_LENGTH__+0x700610>
     c88:	90 e0       	ldi	r25, 0x00	; 0
     c8a:	80 93 e6 3a 	sts	0x3AE6, r24	; 0x803ae6 <adcTemp>
     c8e:	90 93 e7 3a 	sts	0x3AE7, r25	; 0x803ae7 <adcTemp+0x1>
     c92:	0a c0       	rjmp	.+20     	; 0xca8 <__vector_20+0x4e>
     c94:	ee b3       	in	r30, 0x1e	; 30
     c96:	f0 e0       	ldi	r31, 0x00	; 0
     c98:	80 91 10 06 	lds	r24, 0x0610	; 0x800610 <__TEXT_REGION_LENGTH__+0x700610>
     c9c:	e5 56       	subi	r30, 0x65	; 101
     c9e:	f5 4c       	sbci	r31, 0xC5	; 197
     ca0:	80 83       	st	Z, r24
     ca2:	02 c0       	rjmp	.+4      	; 0xca8 <__vector_20+0x4e>
    } else adc0Chg = 0;
     ca4:	10 92 2a 38 	sts	0x382A, r1	; 0x80382a <adc0Chg>
    ADC0_INTFLAGS = ADC_RESRDY_bm;
     ca8:	81 e0       	ldi	r24, 0x01	; 1
     caa:	80 93 0b 06 	sts	0x060B, r24	; 0x80060b <__TEXT_REGION_LENGTH__+0x70060b>
}
     cae:	ff 91       	pop	r31
     cb0:	ef 91       	pop	r30
     cb2:	9f 91       	pop	r25
     cb4:	8f 91       	pop	r24
     cb6:	0f 90       	pop	r0
     cb8:	0f be       	out	0x3f, r0	; 63
     cba:	0f 90       	pop	r0
     cbc:	1f 90       	pop	r1
     cbe:	18 95       	reti

00000cc0 <__vector_22>:

// Reads out sensors at 8Hz and buttons at 42Hz (timed by PIT), power for the sensors is on 1/8th of the time to save power.
ISR(ADC1_RESRDY_vect){
     cc0:	1f 92       	push	r1
     cc2:	0f 92       	push	r0
     cc4:	0f b6       	in	r0, 0x3f	; 63
     cc6:	0f 92       	push	r0
     cc8:	11 24       	eor	r1, r1
     cca:	8f 93       	push	r24
     ccc:	9f 93       	push	r25
    if (ADC1_MUXPOS == 0) {
     cce:	80 91 46 06 	lds	r24, 0x0646	; 0x800646 <__TEXT_REGION_LENGTH__+0x700646>
     cd2:	81 11       	cpse	r24, r1
     cd4:	0a c0       	rjmp	.+20     	; 0xcea <__vector_22+0x2a>
        adcPhot = ADC1_RES;
     cd6:	80 91 50 06 	lds	r24, 0x0650	; 0x800650 <__TEXT_REGION_LENGTH__+0x700650>
     cda:	90 91 51 06 	lds	r25, 0x0651	; 0x800651 <__TEXT_REGION_LENGTH__+0x700651>
     cde:	80 93 96 3a 	sts	0x3A96, r24	; 0x803a96 <adcPhot>
     ce2:	90 93 97 3a 	sts	0x3A97, r25	; 0x803a97 <adcPhot+0x1>
        ADC1_MUXPOS = 0x01;             //Select Hall sensor
     ce6:	81 e0       	ldi	r24, 0x01	; 1
     ce8:	10 c0       	rjmp	.+32     	; 0xd0a <__vector_22+0x4a>
    } else if (ADC1_MUXPOS == 1){
     cea:	80 91 46 06 	lds	r24, 0x0646	; 0x800646 <__TEXT_REGION_LENGTH__+0x700646>
     cee:	81 30       	cpi	r24, 0x01	; 1
     cf0:	79 f4       	brne	.+30     	; 0xd10 <__vector_22+0x50>
        PORTA_OUTCLR = 0b00001000;      //Turn off sensor power
     cf2:	88 e0       	ldi	r24, 0x08	; 8
     cf4:	80 93 06 04 	sts	0x0406, r24	; 0x800406 <__TEXT_REGION_LENGTH__+0x700406>
        adcHall = ADC1_RES;
     cf8:	80 91 50 06 	lds	r24, 0x0650	; 0x800650 <__TEXT_REGION_LENGTH__+0x700650>
     cfc:	90 91 51 06 	lds	r25, 0x0651	; 0x800651 <__TEXT_REGION_LENGTH__+0x700651>
     d00:	80 93 94 3a 	sts	0x3A94, r24	; 0x803a94 <adcHall>
     d04:	90 93 95 3a 	sts	0x3A95, r25	; 0x803a95 <adcHall+0x1>
        ADC1_MUXPOS = 0x04;             //select buttons
     d08:	84 e0       	ldi	r24, 0x04	; 4
     d0a:	80 93 46 06 	sts	0x0646, r24	; 0x800646 <__TEXT_REGION_LENGTH__+0x700646>
     d0e:	10 c0       	rjmp	.+32     	; 0xd30 <__vector_22+0x70>
    } else {
        adcBtns = ADC1_RES;
     d10:	80 91 50 06 	lds	r24, 0x0650	; 0x800650 <__TEXT_REGION_LENGTH__+0x700650>
     d14:	90 91 51 06 	lds	r25, 0x0651	; 0x800651 <__TEXT_REGION_LENGTH__+0x700651>
     d18:	80 93 90 3a 	sts	0x3A90, r24	; 0x803a90 <adcBtns>
     d1c:	90 93 91 3a 	sts	0x3A91, r25	; 0x803a91 <adcBtns+0x1>
        if (A1CNT == 15){
     d20:	8f b3       	in	r24, 0x1f	; 31
     d22:	8f 30       	cpi	r24, 0x0F	; 15
     d24:	29 f4       	brne	.+10     	; 0xd30 <__vector_22+0x70>
            ADC1_MUXPOS = 0x00;         //Select photo transistor
     d26:	10 92 46 06 	sts	0x0646, r1	; 0x800646 <__TEXT_REGION_LENGTH__+0x700646>
            PORTA_OUTSET = 0b00001000;  //Turn on sensor power
     d2a:	88 e0       	ldi	r24, 0x08	; 8
     d2c:	80 93 05 04 	sts	0x0405, r24	; 0x800405 <__TEXT_REGION_LENGTH__+0x700405>
        }
    }

    A1CNT=(A1CNT+1)%16;        
     d30:	8f b3       	in	r24, 0x1f	; 31
     d32:	90 e0       	ldi	r25, 0x00	; 0
     d34:	01 96       	adiw	r24, 0x01	; 1
     d36:	8f 70       	andi	r24, 0x0F	; 15
     d38:	99 27       	eor	r25, r25
     d3a:	8f bb       	out	0x1f, r24	; 31
    ADC1_INTFLAGS = ADC_RESRDY_bm;
     d3c:	81 e0       	ldi	r24, 0x01	; 1
     d3e:	80 93 4b 06 	sts	0x064B, r24	; 0x80064b <__TEXT_REGION_LENGTH__+0x70064b>
}
     d42:	9f 91       	pop	r25
     d44:	8f 91       	pop	r24
     d46:	0f 90       	pop	r0
     d48:	0f be       	out	0x3f, r0	; 63
     d4a:	0f 90       	pop	r0
     d4c:	1f 90       	pop	r1
     d4e:	18 95       	reti

00000d50 <__vector_6>:

// RTC compare interrupt, triggers at 512/BTN_TMR rate, also RTC overflow interrupt, triggers once a minute
ISR(RTC_CNT_vect) {
     d50:	1f 92       	push	r1
     d52:	0f 92       	push	r0
     d54:	0f b6       	in	r0, 0x3f	; 63
     d56:	0f 92       	push	r0
     d58:	11 24       	eor	r1, r1
     d5a:	5f 93       	push	r21
     d5c:	6f 93       	push	r22
     d5e:	7f 93       	push	r23
     d60:	8f 93       	push	r24
     d62:	9f 93       	push	r25
     d64:	af 93       	push	r26
     d66:	bf 93       	push	r27
    if (RTC_INTFLAGS & RTC_CMP_bm){
     d68:	80 91 43 01 	lds	r24, 0x0143	; 0x800143 <__TEXT_REGION_LENGTH__+0x700143>
     d6c:	81 ff       	sbrs	r24, 1
     d6e:	26 c0       	rjmp	.+76     	; 0xdbc <__vector_6+0x6c>
        if (buttonMark<0xff) buttonMark++;   // For button timing purposes
     d70:	80 91 35 38 	lds	r24, 0x3835	; 0x803835 <buttonMark>
     d74:	8f 3f       	cpi	r24, 0xFF	; 255
     d76:	29 f0       	breq	.+10     	; 0xd82 <__vector_6+0x32>
     d78:	80 91 35 38 	lds	r24, 0x3835	; 0x803835 <buttonMark>
     d7c:	8f 5f       	subi	r24, 0xFF	; 255
     d7e:	80 93 35 38 	sts	0x3835, r24	; 0x803835 <buttonMark>
        tmp16bit = (RTC_CNT + BTN_TMR)%RTC_PER;
     d82:	80 91 48 01 	lds	r24, 0x0148	; 0x800148 <__TEXT_REGION_LENGTH__+0x700148>
     d86:	90 91 49 01 	lds	r25, 0x0149	; 0x800149 <__TEXT_REGION_LENGTH__+0x700149>
     d8a:	60 91 4a 01 	lds	r22, 0x014A	; 0x80014a <__TEXT_REGION_LENGTH__+0x70014a>
     d8e:	70 91 4b 01 	lds	r23, 0x014B	; 0x80014b <__TEXT_REGION_LENGTH__+0x70014b>
     d92:	82 96       	adiw	r24, 0x22	; 34
     d94:	0e 94 6e 1a 	call	0x34dc	; 0x34dc <__udivmodhi4>
     d98:	80 93 e8 3a 	sts	0x3AE8, r24	; 0x803ae8 <tmp16bit>
     d9c:	90 93 e9 3a 	sts	0x3AE9, r25	; 0x803ae9 <tmp16bit+0x1>
        while(RTC_STATUS & RTC_CMPBUSY_bm);
     da0:	80 91 41 01 	lds	r24, 0x0141	; 0x800141 <__TEXT_REGION_LENGTH__+0x700141>
     da4:	83 fd       	sbrc	r24, 3
     da6:	fc cf       	rjmp	.-8      	; 0xda0 <__vector_6+0x50>
        RTC_CMP = tmp16bit;                 // Button timing: next interrupt set
     da8:	80 91 e8 3a 	lds	r24, 0x3AE8	; 0x803ae8 <tmp16bit>
     dac:	90 91 e9 3a 	lds	r25, 0x3AE9	; 0x803ae9 <tmp16bit+0x1>
     db0:	80 93 4c 01 	sts	0x014C, r24	; 0x80014c <__TEXT_REGION_LENGTH__+0x70014c>
     db4:	90 93 4d 01 	sts	0x014D, r25	; 0x80014d <__TEXT_REGION_LENGTH__+0x70014d>
        RTC_INTFLAGS = RTC_CMP_bm;		    // clear interrupt flag
     db8:	82 e0       	ldi	r24, 0x02	; 2
     dba:	06 c0       	rjmp	.+12     	; 0xdc8 <__vector_6+0x78>
    } else {
        minuteMark++;                       // For very slow timing purposes, overflows to 0
     dbc:	80 91 36 38 	lds	r24, 0x3836	; 0x803836 <minuteMark>
     dc0:	8f 5f       	subi	r24, 0xFF	; 255
     dc2:	80 93 36 38 	sts	0x3836, r24	; 0x803836 <minuteMark>
        RTC_INTFLAGS = RTC_OVF_bm;		    // clear interrupt flag
     dc6:	81 e0       	ldi	r24, 0x01	; 1
     dc8:	80 93 43 01 	sts	0x0143, r24	; 0x800143 <__TEXT_REGION_LENGTH__+0x700143>
    }
}
     dcc:	bf 91       	pop	r27
     dce:	af 91       	pop	r26
     dd0:	9f 91       	pop	r25
     dd2:	8f 91       	pop	r24
     dd4:	7f 91       	pop	r23
     dd6:	6f 91       	pop	r22
     dd8:	5f 91       	pop	r21
     dda:	0f 90       	pop	r0
     ddc:	0f be       	out	0x3f, r0	; 63
     dde:	0f 90       	pop	r0
     de0:	1f 90       	pop	r1
     de2:	18 95       	reti

00000de4 <__vector_7>:

// PIT interrupt (timing of ADC1: sensor values)
ISR(RTC_PIT_vect) {						// PIT interrupt handling code
     de4:	1f 92       	push	r1
     de6:	0f 92       	push	r0
     de8:	0f b6       	in	r0, 0x3f	; 63
     dea:	0f 92       	push	r0
     dec:	11 24       	eor	r1, r1
     dee:	8f 93       	push	r24
    ADC1_COMMAND = 0x01;
     df0:	81 e0       	ldi	r24, 0x01	; 1
     df2:	80 93 48 06 	sts	0x0648, r24	; 0x800648 <__TEXT_REGION_LENGTH__+0x700648>
    RTC_PITINTFLAGS = RTC_PI_bm;		// clear interrupt flag
     df6:	80 93 53 01 	sts	0x0153, r24	; 0x800153 <__TEXT_REGION_LENGTH__+0x700153>
}
     dfa:	8f 91       	pop	r24
     dfc:	0f 90       	pop	r0
     dfe:	0f be       	out	0x3f, r0	; 63
     e00:	0f 90       	pop	r0
     e02:	1f 90       	pop	r1
     e04:	18 95       	reti

00000e06 <EERead>:

// Read bytes from EEPROM
void EERead(uint8_t eeAddr, uint8_t *eeValues, uint8_t size)
{
    while(NVMCTRL_STATUS & NVMCTRL_EEBUSY_bm);              // Wait until any write operation has finished
     e06:	90 91 02 10 	lds	r25, 0x1002	; 0x801002 <__TEXT_REGION_LENGTH__+0x701002>
     e0a:	91 fd       	sbrc	r25, 1
     e0c:	fc cf       	rjmp	.-8      	; 0xe06 <EERead>
     e0e:	fb 01       	movw	r30, r22
     e10:	48 0f       	add	r20, r24

    while(size){
     e12:	84 17       	cp	r24, r20
     e14:	39 f0       	breq	.+14     	; 0xe24 <EERead+0x1e>
        *eeValues++ = *(uint8_t *)(EEPROM_START+eeAddr++);  // Read data from buffer
     e16:	a8 2f       	mov	r26, r24
     e18:	b0 e0       	ldi	r27, 0x00	; 0
     e1a:	bc 5e       	subi	r27, 0xEC	; 236
     e1c:	9c 91       	ld	r25, X
     e1e:	91 93       	st	Z+, r25
     e20:	8f 5f       	subi	r24, 0xFF	; 255
     e22:	f7 cf       	rjmp	.-18     	; 0xe12 <EERead+0xc>
        --size;
    }
}
     e24:	08 95       	ret

00000e26 <EEWrite>:
{
    uint8_t lastByteOfPage;
    while(size){
        lastByteOfPage = 0;
        while(NVMCTRL_STATUS & NVMCTRL_EEBUSY_bm);              // Wait until any write operation has finished
        CCP = CCP_SPM_gc;                                       // Gain access to NVMCTRL_CTRLA
     e26:	9d e9       	ldi	r25, 0x9D	; 157
        NVMCTRL_CTRLA = NVMCTRL_CMD_PAGEBUFCLR_gc;              // Clear page buffer
     e28:	24 e0       	ldi	r18, 0x04	; 4
            if ((eeAddr % EEPROM_PAGE_SIZE) == (EEPROM_PAGE_SIZE-1)) lastByteOfPage = 1;
            *(uint8_t *)(EEPROM_START+eeAddr++) = *eeValues++;  // Write data to buffer
            --size;
        }
        CCP = CCP_SPM_gc;
        NVMCTRL_CTRLA = NVMCTRL_CMD_PAGEERASEWRITE_gc;          // Erase old data and write new data to EEPROM
     e2a:	33 e0       	ldi	r19, 0x03	; 3

// Write bytes to the EEPROM, if address exceeds EEPROM space data wraps around
uint8_t EEWrite(uint8_t eeAddr, uint8_t *eeValues, uint8_t size)
{
    uint8_t lastByteOfPage;
    while(size){
     e2c:	44 23       	and	r20, r20
     e2e:	09 f1       	breq	.+66     	; 0xe72 <EEWrite+0x4c>
        lastByteOfPage = 0;
        while(NVMCTRL_STATUS & NVMCTRL_EEBUSY_bm);              // Wait until any write operation has finished
     e30:	50 91 02 10 	lds	r21, 0x1002	; 0x801002 <__TEXT_REGION_LENGTH__+0x701002>
     e34:	51 fd       	sbrc	r21, 1
     e36:	fc cf       	rjmp	.-8      	; 0xe30 <EEWrite+0xa>
        CCP = CCP_SPM_gc;                                       // Gain access to NVMCTRL_CTRLA
     e38:	94 bf       	out	0x34, r25	; 52
        NVMCTRL_CTRLA = NVMCTRL_CMD_PAGEBUFCLR_gc;              // Clear page buffer
     e3a:	20 93 00 10 	sts	0x1000, r18	; 0x801000 <__TEXT_REGION_LENGTH__+0x701000>
     e3e:	e8 2f       	mov	r30, r24
        while((size) && (lastByteOfPage == 0)){
            if ((eeAddr % EEPROM_PAGE_SIZE) == (EEPROM_PAGE_SIZE-1)) lastByteOfPage = 1;
     e40:	58 2f       	mov	r21, r24
     e42:	5f 71       	andi	r21, 0x1F	; 31
            *(uint8_t *)(EEPROM_START+eeAddr++) = *eeValues++;  // Write data to buffer
     e44:	8f 5f       	subi	r24, 0xFF	; 255
     e46:	6f 5f       	subi	r22, 0xFF	; 255
     e48:	7f 4f       	sbci	r23, 0xFF	; 255
     e4a:	db 01       	movw	r26, r22
     e4c:	11 97       	sbiw	r26, 0x01	; 1
     e4e:	ac 91       	ld	r26, X
     e50:	f0 e0       	ldi	r31, 0x00	; 0
     e52:	fc 5e       	subi	r31, 0xEC	; 236
     e54:	a0 83       	st	Z, r26
            --size;
     e56:	41 50       	subi	r20, 0x01	; 1
    while(size){
        lastByteOfPage = 0;
        while(NVMCTRL_STATUS & NVMCTRL_EEBUSY_bm);              // Wait until any write operation has finished
        CCP = CCP_SPM_gc;                                       // Gain access to NVMCTRL_CTRLA
        NVMCTRL_CTRLA = NVMCTRL_CMD_PAGEBUFCLR_gc;              // Clear page buffer
        while((size) && (lastByteOfPage == 0)){
     e58:	19 f0       	breq	.+6      	; 0xe60 <EEWrite+0x3a>
            if ((eeAddr % EEPROM_PAGE_SIZE) == (EEPROM_PAGE_SIZE-1)) lastByteOfPage = 1;
            *(uint8_t *)(EEPROM_START+eeAddr++) = *eeValues++;  // Write data to buffer
     e5a:	e8 2f       	mov	r30, r24
    while(size){
        lastByteOfPage = 0;
        while(NVMCTRL_STATUS & NVMCTRL_EEBUSY_bm);              // Wait until any write operation has finished
        CCP = CCP_SPM_gc;                                       // Gain access to NVMCTRL_CTRLA
        NVMCTRL_CTRLA = NVMCTRL_CMD_PAGEBUFCLR_gc;              // Clear page buffer
        while((size) && (lastByteOfPage == 0)){
     e5c:	5f 31       	cpi	r21, 0x1F	; 31
     e5e:	81 f7       	brne	.-32     	; 0xe40 <EEWrite+0x1a>
            if ((eeAddr % EEPROM_PAGE_SIZE) == (EEPROM_PAGE_SIZE-1)) lastByteOfPage = 1;
            *(uint8_t *)(EEPROM_START+eeAddr++) = *eeValues++;  // Write data to buffer
            --size;
        }
        CCP = CCP_SPM_gc;
     e60:	94 bf       	out	0x34, r25	; 52
        NVMCTRL_CTRLA = NVMCTRL_CMD_PAGEERASEWRITE_gc;          // Erase old data and write new data to EEPROM
     e62:	30 93 00 10 	sts	0x1000, r19	; 0x801000 <__TEXT_REGION_LENGTH__+0x701000>
        if (NVMCTRL_STATUS & NVMCTRL_WRERROR_bm) return 1;
     e66:	50 91 02 10 	lds	r21, 0x1002	; 0x801002 <__TEXT_REGION_LENGTH__+0x701002>
     e6a:	52 ff       	sbrs	r21, 2
     e6c:	df cf       	rjmp	.-66     	; 0xe2c <EEWrite+0x6>
     e6e:	81 e0       	ldi	r24, 0x01	; 1
    }
    return 0;
}
     e70:	08 95       	ret
        }
        CCP = CCP_SPM_gc;
        NVMCTRL_CTRLA = NVMCTRL_CMD_PAGEERASEWRITE_gc;          // Erase old data and write new data to EEPROM
        if (NVMCTRL_STATUS & NVMCTRL_WRERROR_bm) return 1;
    }
    return 0;
     e72:	80 e0       	ldi	r24, 0x00	; 0
     e74:	08 95       	ret

00000e76 <SerSend>:
}

// Sends a set of characters to the serial port, stops only when character value 0 is reached.
uint8_t SerSend(unsigned char *addr){
    if (serTxDone){
     e76:	20 91 08 38 	lds	r18, 0x3808	; 0x803808 <serTxDone>
     e7a:	22 23       	and	r18, r18
     e7c:	59 f0       	breq	.+22     	; 0xe94 <SerSend+0x1e>
        serTxAddr = addr;
     e7e:	80 93 92 3a 	sts	0x3A92, r24	; 0x803a92 <serTxAddr>
     e82:	90 93 93 3a 	sts	0x3A93, r25	; 0x803a93 <serTxAddr+0x1>
        serTxDone = 0;
     e86:	10 92 08 38 	sts	0x3808, r1	; 0x803808 <serTxDone>
        TCB0_INTCTRL = 0x01;
     e8a:	81 e0       	ldi	r24, 0x01	; 1
     e8c:	80 93 45 0a 	sts	0x0A45, r24	; 0x800a45 <__TEXT_REGION_LENGTH__+0x700a45>
        return 0;
     e90:	80 e0       	ldi	r24, 0x00	; 0
     e92:	08 95       	ret
    } else return 1;    //Error: Still sending data
     e94:	81 e0       	ldi	r24, 0x01	; 1
};
     e96:	08 95       	ret

00000e98 <SerSpeed>:

// Set serial character output speed, 255-0 (0.8 to 100ms delay between characters)
void SerSpeed(uint8_t serSpd){
     e98:	28 2f       	mov	r18, r24
    if (serSpd<1) serSpd = 1;
     e9a:	81 11       	cpse	r24, r1
     e9c:	01 c0       	rjmp	.+2      	; 0xea0 <SerSpeed+0x8>
     e9e:	21 e0       	ldi	r18, 0x01	; 1
    TCB0_CCMP = ((uint16_t)(0xFF-serSpd)<<8) + 0xFF;
     ea0:	8f ef       	ldi	r24, 0xFF	; 255
     ea2:	90 e0       	ldi	r25, 0x00	; 0
     ea4:	82 1b       	sub	r24, r18
     ea6:	91 09       	sbc	r25, r1
     ea8:	98 2f       	mov	r25, r24
     eaa:	88 27       	eor	r24, r24
     eac:	81 50       	subi	r24, 0x01	; 1
     eae:	9f 4f       	sbci	r25, 0xFF	; 255
     eb0:	80 93 4c 0a 	sts	0x0A4C, r24	; 0x800a4c <__TEXT_REGION_LENGTH__+0x700a4c>
     eb4:	90 93 4d 0a 	sts	0x0A4D, r25	; 0x800a4d <__TEXT_REGION_LENGTH__+0x700a4d>
     eb8:	08 95       	ret

00000eba <SelectTSens>:
};

// Select temperature sensor
void SelectTSens(){
     VREF_CTRLA   = 0x12;    //0x22 for audio in/out (2.5V), 0x12 for temperature in, audio out (1.1V/2.5V)
     eba:	82 e1       	ldi	r24, 0x12	; 18
     ebc:	80 93 a0 00 	sts	0x00A0, r24	; 0x8000a0 <__TEXT_REGION_LENGTH__+0x7000a0>
     ADC0_CTRLA   |= ADC_RESSEL_bm;
     ec0:	e0 e0       	ldi	r30, 0x00	; 0
     ec2:	f6 e0       	ldi	r31, 0x06	; 6
     ec4:	80 81       	ld	r24, Z
     ec6:	84 60       	ori	r24, 0x04	; 4
     ec8:	80 83       	st	Z, r24
     ADC0_MUXPOS  = 0x1E;    //Audio in: AIN7 at (0x07), Temperature: Internal sensor at (0x1E)
     eca:	8e e1       	ldi	r24, 0x1E	; 30
     ecc:	80 93 06 06 	sts	0x0606, r24	; 0x800606 <__TEXT_REGION_LENGTH__+0x700606>
     adc0Chg = 1;
     ed0:	81 e0       	ldi	r24, 0x01	; 1
     ed2:	80 93 2a 38 	sts	0x382A, r24	; 0x80382a <adc0Chg>
     ed6:	08 95       	ret

00000ed8 <SelectAuIn>:
};

// Select "audio" input (0-2.5V)
void SelectAuIn(){
     VREF_CTRLA   = 0x22;    //0x22 for audio in/out (2.5V), 0x12 for temperature in, audio out (1.1V/2.5V)
     ed8:	82 e2       	ldi	r24, 0x22	; 34
     eda:	80 93 a0 00 	sts	0x00A0, r24	; 0x8000a0 <__TEXT_REGION_LENGTH__+0x7000a0>
     ADC0_CTRLA   &= ~(ADC_RESSEL_bm);
     ede:	e0 e0       	ldi	r30, 0x00	; 0
     ee0:	f6 e0       	ldi	r31, 0x06	; 6
     ee2:	80 81       	ld	r24, Z
     ee4:	8b 7f       	andi	r24, 0xFB	; 251
     ee6:	80 83       	st	Z, r24
     ADC0_MUXPOS  = 0x07;    //Audio in: AIN7 at (0x07), Temperature: Internal sensor at (0x1E)
     ee8:	87 e0       	ldi	r24, 0x07	; 7
     eea:	80 93 06 06 	sts	0x0606, r24	; 0x800606 <__TEXT_REGION_LENGTH__+0x700606>
     adc0Chg = 1;
     eee:	81 e0       	ldi	r24, 0x01	; 1
     ef0:	80 93 2a 38 	sts	0x382A, r24	; 0x80382a <adc0Chg>
     ef4:	08 95       	ret

00000ef6 <CheckButtons>:
};

// Returns button combination (4LSB) and number of consecutive times this combination is detected. First read should always be ignored! 
uint8_t CheckButtons(uint8_t previousValue){
    uint8_t bADC = (uint8_t)(adcBtns>>4);
     ef6:	20 91 90 3a 	lds	r18, 0x3A90	; 0x803a90 <adcBtns>
     efa:	30 91 91 3a 	lds	r19, 0x3A91	; 0x803a91 <adcBtns+0x1>
    uint8_t bNibble = 0x0F;     //MSB to LSB: Bottom left, top left, top right, bottom right, 0F is error
    
    switch(bADC){
     efe:	94 e0       	ldi	r25, 0x04	; 4
     f00:	36 95       	lsr	r19
     f02:	27 95       	ror	r18
     f04:	9a 95       	dec	r25
     f06:	e1 f7       	brne	.-8      	; 0xf00 <CheckButtons+0xa>
     f08:	33 27       	eor	r19, r19
     f0a:	2c 35       	cpi	r18, 0x5C	; 92
     f0c:	31 05       	cpc	r19, r1
     f0e:	d0 f4       	brcc	.+52     	; 0xf44 <CheckButtons+0x4e>
     f10:	23 35       	cpi	r18, 0x53	; 83
     f12:	31 05       	cpc	r19, r1
     f14:	a8 f5       	brcc	.+106    	; 0xf80 <CheckButtons+0x8a>
     f16:	22 33       	cpi	r18, 0x32	; 50
     f18:	31 05       	cpc	r19, r1
     f1a:	50 f4       	brcc	.+20     	; 0xf30 <CheckButtons+0x3a>
     f1c:	2d 32       	cpi	r18, 0x2D	; 45
     f1e:	31 05       	cpc	r19, r1
     f20:	58 f5       	brcc	.+86     	; 0xf78 <CheckButtons+0x82>
     f22:	23 52       	subi	r18, 0x23	; 35
     f24:	31 09       	sbc	r19, r1
     f26:	25 30       	cpi	r18, 0x05	; 5
     f28:	31 05       	cpc	r19, r1
     f2a:	80 f5       	brcc	.+96     	; 0xf8c <CheckButtons+0x96>

        case 35 ... 39:          //37: Both left
        bNibble = 0b1100;
     f2c:	9c e0       	ldi	r25, 0x0C	; 12
     f2e:	2f c0       	rjmp	.+94     	; 0xf8e <CheckButtons+0x98>
// Returns button combination (4LSB) and number of consecutive times this combination is detected. First read should always be ignored! 
uint8_t CheckButtons(uint8_t previousValue){
    uint8_t bADC = (uint8_t)(adcBtns>>4);
    uint8_t bNibble = 0x0F;     //MSB to LSB: Bottom left, top left, top right, bottom right, 0F is error
    
    switch(bADC){
     f30:	27 33       	cpi	r18, 0x37	; 55
     f32:	31 05       	cpc	r19, r1
     f34:	18 f1       	brcs	.+70     	; 0xf7c <CheckButtons+0x86>
     f36:	2e 53       	subi	r18, 0x3E	; 62
     f38:	31 09       	sbc	r19, r1
     f3a:	27 30       	cpi	r18, 0x07	; 7
     f3c:	31 05       	cpc	r19, r1
     f3e:	30 f5       	brcc	.+76     	; 0xf8c <CheckButtons+0x96>
        case 50 ... 54:          //52: Bottom left
        bNibble = 0b1000;
        break;

        case 62 ... 68:          //65: Both top
        bNibble = 0b0110;
     f40:	96 e0       	ldi	r25, 0x06	; 6
        break;
     f42:	25 c0       	rjmp	.+74     	; 0xf8e <CheckButtons+0x98>
// Returns button combination (4LSB) and number of consecutive times this combination is detected. First read should always be ignored! 
uint8_t CheckButtons(uint8_t previousValue){
    uint8_t bADC = (uint8_t)(adcBtns>>4);
    uint8_t bNibble = 0x0F;     //MSB to LSB: Bottom left, top left, top right, bottom right, 0F is error
    
    switch(bADC){
     f44:	2a 38       	cpi	r18, 0x8A	; 138
     f46:	31 05       	cpc	r19, r1
     f48:	50 f4       	brcc	.+20     	; 0xf5e <CheckButtons+0x68>
     f4a:	29 37       	cpi	r18, 0x79	; 121
     f4c:	31 05       	cpc	r19, r1
     f4e:	d0 f4       	brcc	.+52     	; 0xf84 <CheckButtons+0x8e>
     f50:	23 56       	subi	r18, 0x63	; 99
     f52:	31 09       	sbc	r19, r1
     f54:	2b 30       	cpi	r18, 0x0B	; 11
     f56:	31 05       	cpc	r19, r1
     f58:	c8 f4       	brcc	.+50     	; 0xf8c <CheckButtons+0x96>
        case 83 ... 91:          //87: Top left
        bNibble = 0b0100;
        break;

        case 99 ... 109:         //104: Both right
        bNibble = 0b0011;
     f5a:	93 e0       	ldi	r25, 0x03	; 3
        break;
     f5c:	18 c0       	rjmp	.+48     	; 0xf8e <CheckButtons+0x98>
// Returns button combination (4LSB) and number of consecutive times this combination is detected. First read should always be ignored! 
uint8_t CheckButtons(uint8_t previousValue){
    uint8_t bADC = (uint8_t)(adcBtns>>4);
    uint8_t bNibble = 0x0F;     //MSB to LSB: Bottom left, top left, top right, bottom right, 0F is error
    
    switch(bADC){
     f5e:	22 3a       	cpi	r18, 0xA2	; 162
     f60:	31 05       	cpc	r19, r1
     f62:	a0 f0       	brcs	.+40     	; 0xf8c <CheckButtons+0x96>
     f64:	2b 3b       	cpi	r18, 0xBB	; 187
     f66:	31 05       	cpc	r19, r1
     f68:	78 f0       	brcs	.+30     	; 0xf88 <CheckButtons+0x92>
     f6a:	20 5f       	subi	r18, 0xF0	; 240
     f6c:	31 09       	sbc	r19, r1
     f6e:	20 31       	cpi	r18, 0x10	; 16
     f70:	31 05       	cpc	r19, r1
     f72:	60 f4       	brcc	.+24     	; 0xf8c <CheckButtons+0x96>
        case 162 ... 186:        //174: Bottom right
        bNibble = 0b0001;
        break;

        case 240 ... 255:        //255: No button pressed
        bNibble = 0b0000;
     f74:	90 e0       	ldi	r25, 0x00	; 0
        break;
     f76:	0b c0       	rjmp	.+22     	; 0xf8e <CheckButtons+0x98>
        case 35 ... 39:          //37: Both left
        bNibble = 0b1100;
        break;

        case 45 ... 49:          //47: Both bottom
        bNibble = 0b1001;
     f78:	99 e0       	ldi	r25, 0x09	; 9
        break;
     f7a:	09 c0       	rjmp	.+18     	; 0xf8e <CheckButtons+0x98>

        case 50 ... 54:          //52: Bottom left
        bNibble = 0b1000;
     f7c:	98 e0       	ldi	r25, 0x08	; 8
        break;
     f7e:	07 c0       	rjmp	.+14     	; 0xf8e <CheckButtons+0x98>
        case 62 ... 68:          //65: Both top
        bNibble = 0b0110;
        break;

        case 83 ... 91:          //87: Top left
        bNibble = 0b0100;
     f80:	94 e0       	ldi	r25, 0x04	; 4
        break;
     f82:	05 c0       	rjmp	.+10     	; 0xf8e <CheckButtons+0x98>
        case 99 ... 109:         //104: Both right
        bNibble = 0b0011;
        break;

        case 121 ... 137:        //129: Top right
        bNibble = 0b0010;
     f84:	92 e0       	ldi	r25, 0x02	; 2
        break;
     f86:	03 c0       	rjmp	.+6      	; 0xf8e <CheckButtons+0x98>

        case 162 ... 186:        //174: Bottom right
        bNibble = 0b0001;
     f88:	91 e0       	ldi	r25, 0x01	; 1
        break;
     f8a:	01 c0       	rjmp	.+2      	; 0xf8e <CheckButtons+0x98>
};

// Returns button combination (4LSB) and number of consecutive times this combination is detected. First read should always be ignored! 
uint8_t CheckButtons(uint8_t previousValue){
    uint8_t bADC = (uint8_t)(adcBtns>>4);
    uint8_t bNibble = 0x0F;     //MSB to LSB: Bottom left, top left, top right, bottom right, 0F is error
     f8c:	9f e0       	ldi	r25, 0x0F	; 15
        case 240 ... 255:        //255: No button pressed
        bNibble = 0b0000;
        break;
    }

    if ((previousValue&0x0F)==bNibble){
     f8e:	28 2f       	mov	r18, r24
     f90:	2f 70       	andi	r18, 0x0F	; 15
     f92:	92 13       	cpse	r25, r18
     f94:	06 c0       	rjmp	.+12     	; 0xfa2 <CheckButtons+0xac>
        if ((previousValue&0xF0) < 0xF0) previousValue += 0x10; //Same value? Increase time nibble
     f96:	98 2f       	mov	r25, r24
     f98:	90 7f       	andi	r25, 0xF0	; 240
     f9a:	90 3f       	cpi	r25, 0xF0	; 240
     f9c:	39 f0       	breq	.+14     	; 0xfac <CheckButtons+0xb6>
     f9e:	80 5f       	subi	r24, 0xF0	; 240
     fa0:	08 95       	ret
        return previousValue;       
    } else if (bNibble == 0) return 0xFF; //Buttons released, 0xFF triggers readout, previousValue holds last button value.
     fa2:	99 23       	and	r25, r25
     fa4:	11 f0       	breq	.+4      	; 0xfaa <CheckButtons+0xb4>
     fa6:	89 2f       	mov	r24, r25
     fa8:	08 95       	ret
     faa:	8f ef       	ldi	r24, 0xFF	; 255
              else return bNibble;  //New value  
}
     fac:	08 95       	ret

00000fae <lfsr>:

uint8_t lfsr(){
    static uint16_t state = 0xd401;
    state ^= (state << 13);
     fae:	80 91 1c 38 	lds	r24, 0x381C	; 0x80381c <state.3879>
     fb2:	90 91 1d 38 	lds	r25, 0x381D	; 0x80381d <state.3879+0x1>
     fb6:	9c 01       	movw	r18, r24
     fb8:	32 2f       	mov	r19, r18
     fba:	22 27       	eor	r18, r18
     fbc:	32 95       	swap	r19
     fbe:	33 0f       	add	r19, r19
     fc0:	30 7e       	andi	r19, 0xE0	; 224
     fc2:	82 27       	eor	r24, r18
     fc4:	93 27       	eor	r25, r19
    state ^= (state >> 9);
     fc6:	9c 01       	movw	r18, r24
     fc8:	23 2f       	mov	r18, r19
     fca:	33 27       	eor	r19, r19
     fcc:	26 95       	lsr	r18
     fce:	82 27       	eor	r24, r18
     fd0:	93 27       	eor	r25, r19
    state ^= (state << 7);
     fd2:	9c 01       	movw	r18, r24
     fd4:	36 95       	lsr	r19
     fd6:	32 2f       	mov	r19, r18
     fd8:	22 27       	eor	r18, r18
     fda:	37 95       	ror	r19
     fdc:	27 95       	ror	r18
     fde:	82 27       	eor	r24, r18
     fe0:	93 27       	eor	r25, r19
     fe2:	80 93 1c 38 	sts	0x381C, r24	; 0x80381c <state.3879>
     fe6:	90 93 1d 38 	sts	0x381D, r25	; 0x80381d <state.3879+0x1>
    return (state & 0xff);
}
     fea:	08 95       	ret

00000fec <floatSpeed>:

void floatSpeed(uint8_t bits, uint16_t min, uint16_t max){
     fec:	df 92       	push	r13
     fee:	ef 92       	push	r14
     ff0:	ff 92       	push	r15
     ff2:	0f 93       	push	r16
     ff4:	1f 93       	push	r17
     ff6:	cf 93       	push	r28
     ff8:	df 93       	push	r29
     ffa:	7b 01       	movw	r14, r22
     ffc:	8a 01       	movw	r16, r20
    uint16_t val = TCB1_CCMP;
     ffe:	c0 91 5c 0a 	lds	r28, 0x0A5C	; 0x800a5c <__TEXT_REGION_LENGTH__+0x700a5c>
    1002:	d0 91 5d 0a 	lds	r29, 0x0A5D	; 0x800a5d <__TEXT_REGION_LENGTH__+0x700a5d>
    bits = mask[(bits-1)&0x07];
    1006:	e8 2f       	mov	r30, r24
    1008:	f0 e0       	ldi	r31, 0x00	; 0
    100a:	31 97       	sbiw	r30, 0x01	; 1
    100c:	e7 70       	andi	r30, 0x07	; 7
    100e:	ff 27       	eor	r31, r31
    1010:	e2 5e       	subi	r30, 0xE2	; 226
    1012:	f7 4c       	sbci	r31, 0xC7	; 199
    1014:	d0 80       	ld	r13, Z
    val += (lfsr()&bits);
    1016:	cb df       	rcall	.-106    	; 0xfae <lfsr>
    1018:	8d 21       	and	r24, r13
    101a:	c8 0f       	add	r28, r24
    101c:	d1 1d       	adc	r29, r1
    val -= (lfsr()&bits);
    101e:	c7 df       	rcall	.-114    	; 0xfae <lfsr>
    1020:	8d 21       	and	r24, r13
    1022:	c8 1b       	sub	r28, r24
    1024:	d1 09       	sbc	r29, r1
    1026:	0c 17       	cp	r16, r28
    1028:	1d 07       	cpc	r17, r29
    102a:	08 f4       	brcc	.+2      	; 0x102e <floatSpeed+0x42>
    102c:	e8 01       	movw	r28, r16
    102e:	c7 01       	movw	r24, r14
    1030:	ec 16       	cp	r14, r28
    1032:	fd 06       	cpc	r15, r29
    1034:	08 f4       	brcc	.+2      	; 0x1038 <floatSpeed+0x4c>
    1036:	ce 01       	movw	r24, r28
    1038:	80 93 5c 0a 	sts	0x0A5C, r24	; 0x800a5c <__TEXT_REGION_LENGTH__+0x700a5c>
    if (val > max) val = max;    
    if (val < min) val = min;  
    TCB1_CCMP = val;
    103c:	90 93 5d 0a 	sts	0x0A5D, r25	; 0x800a5d <__TEXT_REGION_LENGTH__+0x700a5d>
    1040:	df 91       	pop	r29
}
    1042:	cf 91       	pop	r28
    1044:	1f 91       	pop	r17
    1046:	0f 91       	pop	r16
    1048:	ff 90       	pop	r15
    104a:	ef 90       	pop	r14
    104c:	df 90       	pop	r13
    104e:	08 95       	ret

00001050 <floatAround>:
    1050:	0f 93       	push	r16

uint8_t floatAround(uint8_t sample, uint8_t bits, uint8_t min, uint8_t max){
    1052:	1f 93       	push	r17
    1054:	cf 93       	push	r28
    1056:	df 93       	push	r29
    1058:	c8 2f       	mov	r28, r24
    105a:	d4 2f       	mov	r29, r20
    105c:	02 2f       	mov	r16, r18
    bits = mask[(bits-1)&0x07];
    105e:	e6 2f       	mov	r30, r22
    1060:	f0 e0       	ldi	r31, 0x00	; 0
    1062:	31 97       	sbiw	r30, 0x01	; 1
    1064:	e7 70       	andi	r30, 0x07	; 7
    1066:	ff 27       	eor	r31, r31
    1068:	e2 5e       	subi	r30, 0xE2	; 226
    106a:	f7 4c       	sbci	r31, 0xC7	; 199
    106c:	10 81       	ld	r17, Z
    sample += lfsr()&bits;
    106e:	9f df       	rcall	.-194    	; 0xfae <lfsr>
    1070:	81 23       	and	r24, r17
    1072:	c8 0f       	add	r28, r24
    sample -= lfsr()&bits;
    1074:	9c df       	rcall	.-200    	; 0xfae <lfsr>
    1076:	81 23       	and	r24, r17
    1078:	c8 1b       	sub	r28, r24
    107a:	8c 2f       	mov	r24, r28
    107c:	00 23       	and	r16, r16
    if (max){
    107e:	41 f0       	breq	.+16     	; 0x1090 <floatAround+0x40>
    1080:	9c 2f       	mov	r25, r28
    1082:	0c 17       	cp	r16, r28
    1084:	08 f4       	brcc	.+2      	; 0x1088 <floatAround+0x38>
    1086:	90 2f       	mov	r25, r16
    1088:	8d 2f       	mov	r24, r29
    108a:	d9 17       	cp	r29, r25
    108c:	08 f4       	brcc	.+2      	; 0x1090 <floatAround+0x40>
    108e:	89 2f       	mov	r24, r25
    1090:	41 e0       	ldi	r20, 0x01	; 1
        if (sample > max) sample = max;
        if (sample < min) sample = min;
    }
    if (min & (sample < min)) sample = min;
    1092:	50 e0       	ldi	r21, 0x00	; 0
    1094:	8d 17       	cp	r24, r29
    1096:	10 f0       	brcs	.+4      	; 0x109c <floatAround+0x4c>
    1098:	40 e0       	ldi	r20, 0x00	; 0
    109a:	50 e0       	ldi	r21, 0x00	; 0
    109c:	2d 2f       	mov	r18, r29
    109e:	30 e0       	ldi	r19, 0x00	; 0
    10a0:	24 23       	and	r18, r20
    10a2:	35 23       	and	r19, r21
    10a4:	23 2b       	or	r18, r19
    10a6:	09 f0       	breq	.+2      	; 0x10aa <floatAround+0x5a>
    10a8:	8d 2f       	mov	r24, r29
    10aa:	df 91       	pop	r29

    return sample;
}
    10ac:	cf 91       	pop	r28
    10ae:	1f 91       	pop	r17
    10b0:	0f 91       	pop	r16
    10b2:	08 95       	ret

000010b4 <SaveGameState>:
    10b4:	cf 92       	push	r12
    inventory[0] = (gameState[INVADDR]<<8|gameState[INVADDR+1]);
    inventory[1] = (gameState[INVADDR+2]<<8|gameState[INVADDR+3]);
}

//Save changed data to EEPROM
uint8_t SaveGameState(){
    10b6:	df 92       	push	r13
    10b8:	ff 92       	push	r15
    10ba:	0f 93       	push	r16
    10bc:	1f 93       	push	r17
    10be:	cf 93       	push	r28
    10c0:	df 93       	push	r29
    10c2:	cd b7       	in	r28, 0x3d	; 61
    10c4:	de b7       	in	r29, 0x3e	; 62
    10c6:	64 97       	sbiw	r28, 0x14	; 20
    10c8:	cd bf       	out	0x3d, r28	; 61
    10ca:	de bf       	out	0x3e, r29	; 62
    uint8_t gameCheck[BOOTCHK];

    //Read all data up to the boot/check result address from EEPROM
    EERead(0, &gameCheck[0], BOOTCHK);
    10cc:	44 e1       	ldi	r20, 0x14	; 20
    10ce:	be 01       	movw	r22, r28
    10d0:	6f 5f       	subi	r22, 0xFF	; 255
    10d2:	7f 4f       	sbci	r23, 0xFF	; 255
    10d4:	80 e0       	ldi	r24, 0x00	; 0
    10d6:	97 de       	rcall	.-722    	; 0xe06 <EERead>
    10d8:	8a e3       	ldi	r24, 0x3A	; 58
    10da:	c8 2e       	mov	r12, r24
    10dc:	8a e3       	ldi	r24, 0x3A	; 58
    10de:	d8 2e       	mov	r13, r24
    10e0:	8e 01       	movw	r16, r28
    10e2:	0f 5f       	subi	r16, 0xFF	; 255
    10e4:	1f 4f       	sbci	r17, 0xFF	; 255

    //Check game status bits
    for (uint8_t x=0; x<STATLEN; ++x){
    10e6:	f1 2c       	mov	r15, r1
        if (gameState[x] != gameCheck[x]){
    10e8:	f8 01       	movw	r30, r16
    10ea:	81 91       	ld	r24, Z+
    10ec:	8f 01       	movw	r16, r30
    10ee:	f6 01       	movw	r30, r12
    10f0:	90 81       	ld	r25, Z
    10f2:	98 13       	cpse	r25, r24
    10f4:	08 c0       	rjmp	.+16     	; 0x1106 <SaveGameState+0x52>

    //Read all data up to the boot/check result address from EEPROM
    EERead(0, &gameCheck[0], BOOTCHK);

    //Check game status bits
    for (uint8_t x=0; x<STATLEN; ++x){
    10f6:	f3 94       	inc	r15
    10f8:	ff ef       	ldi	r31, 0xFF	; 255
    10fa:	cf 1a       	sub	r12, r31
    10fc:	df 0a       	sbc	r13, r31
    10fe:	80 e1       	ldi	r24, 0x10	; 16
    1100:	f8 12       	cpse	r15, r24
    1102:	f2 cf       	rjmp	.-28     	; 0x10e8 <SaveGameState+0x34>
    1104:	08 c0       	rjmp	.+16     	; 0x1116 <SaveGameState+0x62>
        if (gameState[x] != gameCheck[x]){
            if (EEWrite(x, &gameState[x], 1)) return 1;
    1106:	41 e0       	ldi	r20, 0x01	; 1
    1108:	b6 01       	movw	r22, r12
    110a:	8f 2d       	mov	r24, r15
    110c:	8c de       	rcall	.-744    	; 0xe26 <EEWrite>
    110e:	88 23       	and	r24, r24
    1110:	91 f3       	breq	.-28     	; 0x10f6 <SaveGameState+0x42>
    1112:	91 e0       	ldi	r25, 0x01	; 1
    1114:	36 c0       	rjmp	.+108    	; 0x1182 <SaveGameState+0xce>
        }
    }

    //Check the inventory too
    gameState[INVADDR] = (uint8_t)(inventory[0]>>8);
    1116:	20 91 31 38 	lds	r18, 0x3831	; 0x803831 <inventory>
    111a:	30 91 32 38 	lds	r19, 0x3832	; 0x803832 <inventory+0x1>
    111e:	30 93 4a 3a 	sts	0x3A4A, r19	; 0x803a4a <gameState+0x10>
    gameState[INVADDR+1] = (uint8_t)(inventory[0]&0xff);
    1122:	20 93 4b 3a 	sts	0x3A4B, r18	; 0x803a4b <gameState+0x11>
    gameState[INVADDR+2] = (uint8_t)(inventory[1]>>8);
    1126:	80 91 33 38 	lds	r24, 0x3833	; 0x803833 <inventory+0x2>
    112a:	90 91 34 38 	lds	r25, 0x3834	; 0x803834 <inventory+0x3>
    112e:	90 93 4c 3a 	sts	0x3A4C, r25	; 0x803a4c <gameState+0x12>
    gameState[INVADDR+3] = (uint8_t)(inventory[1]&0xff);
    1132:	80 93 4d 3a 	sts	0x3A4D, r24	; 0x803a4d <gameState+0x13>
    if (inventory[0] != (gameCheck[INVADDR]<<8|gameCheck[INVADDR+1])) {
    1136:	89 89       	ldd	r24, Y+17	; 0x11
    1138:	9a 89       	ldd	r25, Y+18	; 0x12
    113a:	98 27       	eor	r25, r24
    113c:	89 27       	eor	r24, r25
    113e:	98 27       	eor	r25, r24
    1140:	28 17       	cp	r18, r24
    1142:	39 07       	cpc	r19, r25
    1144:	69 f4       	brne	.+26     	; 0x1160 <SaveGameState+0xac>
        if (EEWrite(INVADDR, &gameState[INVADDR], 2)) return 1;
    }
    if (inventory[1] != (gameCheck[INVADDR+2]<<8|gameCheck[INVADDR+3])) {
    1146:	8b 89       	ldd	r24, Y+19	; 0x13
    1148:	9c 89       	ldd	r25, Y+20	; 0x14
    114a:	98 27       	eor	r25, r24
    114c:	89 27       	eor	r24, r25
    114e:	98 27       	eor	r25, r24
    1150:	20 91 33 38 	lds	r18, 0x3833	; 0x803833 <inventory+0x2>
    1154:	30 91 34 38 	lds	r19, 0x3834	; 0x803834 <inventory+0x3>
    1158:	28 17       	cp	r18, r24
    115a:	39 07       	cpc	r19, r25
    115c:	49 f4       	brne	.+18     	; 0x1170 <SaveGameState+0xbc>
    115e:	10 c0       	rjmp	.+32     	; 0x1180 <SaveGameState+0xcc>
    gameState[INVADDR] = (uint8_t)(inventory[0]>>8);
    gameState[INVADDR+1] = (uint8_t)(inventory[0]&0xff);
    gameState[INVADDR+2] = (uint8_t)(inventory[1]>>8);
    gameState[INVADDR+3] = (uint8_t)(inventory[1]&0xff);
    if (inventory[0] != (gameCheck[INVADDR]<<8|gameCheck[INVADDR+1])) {
        if (EEWrite(INVADDR, &gameState[INVADDR], 2)) return 1;
    1160:	42 e0       	ldi	r20, 0x02	; 2
    1162:	6a e4       	ldi	r22, 0x4A	; 74
    1164:	7a e3       	ldi	r23, 0x3A	; 58
    1166:	80 e1       	ldi	r24, 0x10	; 16
    1168:	5e de       	rcall	.-836    	; 0xe26 <EEWrite>
    116a:	88 23       	and	r24, r24
    116c:	61 f3       	breq	.-40     	; 0x1146 <SaveGameState+0x92>
    116e:	d1 cf       	rjmp	.-94     	; 0x1112 <SaveGameState+0x5e>
    }
    if (inventory[1] != (gameCheck[INVADDR+2]<<8|gameCheck[INVADDR+3])) {
        if (EEWrite(INVADDR+2, &gameState[INVADDR+2], 2)) return 1;
    1170:	42 e0       	ldi	r20, 0x02	; 2
    1172:	6c e4       	ldi	r22, 0x4C	; 76
    1174:	7a e3       	ldi	r23, 0x3A	; 58
    1176:	82 e1       	ldi	r24, 0x12	; 18
    1178:	56 de       	rcall	.-852    	; 0xe26 <EEWrite>
    EERead(0, &gameCheck[0], BOOTCHK);

    //Check game status bits
    for (uint8_t x=0; x<STATLEN; ++x){
        if (gameState[x] != gameCheck[x]){
            if (EEWrite(x, &gameState[x], 1)) return 1;
    117a:	91 e0       	ldi	r25, 0x01	; 1
    117c:	81 11       	cpse	r24, r1
    117e:	01 c0       	rjmp	.+2      	; 0x1182 <SaveGameState+0xce>
    1180:	90 e0       	ldi	r25, 0x00	; 0
    if (inventory[1] != (gameCheck[INVADDR+2]<<8|gameCheck[INVADDR+3])) {
        if (EEWrite(INVADDR+2, &gameState[INVADDR+2], 2)) return 1;
    }

    return 0;
}
    1182:	89 2f       	mov	r24, r25
    1184:	64 96       	adiw	r28, 0x14	; 20
    1186:	cd bf       	out	0x3d, r28	; 61
    1188:	de bf       	out	0x3e, r29	; 62
    118a:	df 91       	pop	r29
    118c:	cf 91       	pop	r28
    118e:	1f 91       	pop	r17
    1190:	0f 91       	pop	r16
    1192:	ff 90       	pop	r15
    1194:	df 90       	pop	r13
    1196:	cf 90       	pop	r12
    1198:	08 95       	ret

0000119a <ReadStatusBit>:

uint8_t ReadStatusBit(uint8_t number){
    number &= 0x7f;
    if (gameState[number>>3] & (1<<(number&7))) return 1; else return 0;
    119a:	e8 2f       	mov	r30, r24
    119c:	ef 77       	andi	r30, 0x7F	; 127
    119e:	e6 95       	lsr	r30
    11a0:	e6 95       	lsr	r30
    11a2:	e6 95       	lsr	r30
    11a4:	f0 e0       	ldi	r31, 0x00	; 0
    11a6:	e6 5c       	subi	r30, 0xC6	; 198
    11a8:	f5 4c       	sbci	r31, 0xC5	; 197
    11aa:	20 81       	ld	r18, Z
    11ac:	30 e0       	ldi	r19, 0x00	; 0
    11ae:	87 70       	andi	r24, 0x07	; 7
    11b0:	a9 01       	movw	r20, r18
    11b2:	02 c0       	rjmp	.+4      	; 0x11b8 <ReadStatusBit+0x1e>
    11b4:	55 95       	asr	r21
    11b6:	47 95       	ror	r20
    11b8:	8a 95       	dec	r24
    11ba:	e2 f7       	brpl	.-8      	; 0x11b4 <ReadStatusBit+0x1a>
    11bc:	ca 01       	movw	r24, r20
}
    11be:	81 70       	andi	r24, 0x01	; 1
    11c0:	08 95       	ret

000011c2 <WriteStatusBit>:

void WriteStatusBit(uint8_t number, uint8_t state){
    number &= 0x7f;
    11c2:	e8 2f       	mov	r30, r24
    11c4:	ef 77       	andi	r30, 0x7F	; 127
    11c6:	e6 95       	lsr	r30
    11c8:	e6 95       	lsr	r30
    11ca:	e6 95       	lsr	r30
    11cc:	28 2f       	mov	r18, r24
    11ce:	27 70       	andi	r18, 0x07	; 7
    if (state) gameState[number>>3] |= 1<<(number&7);
    11d0:	f0 e0       	ldi	r31, 0x00	; 0
    11d2:	e6 5c       	subi	r30, 0xC6	; 198
    11d4:	f5 4c       	sbci	r31, 0xC5	; 197
    11d6:	81 e0       	ldi	r24, 0x01	; 1
    11d8:	90 e0       	ldi	r25, 0x00	; 0
    11da:	01 c0       	rjmp	.+2      	; 0x11de <WriteStatusBit+0x1c>
    11dc:	88 0f       	add	r24, r24
    11de:	2a 95       	dec	r18
    11e0:	ea f7       	brpl	.-6      	; 0x11dc <WriteStatusBit+0x1a>
    11e2:	66 23       	and	r22, r22
    11e4:	19 f0       	breq	.+6      	; 0x11ec <WriteStatusBit+0x2a>
    11e6:	90 81       	ld	r25, Z
    11e8:	89 2b       	or	r24, r25
    11ea:	03 c0       	rjmp	.+6      	; 0x11f2 <WriteStatusBit+0x30>
    else gameState[number>>3] &= ~(1<<(number&7));
    11ec:	80 95       	com	r24
    11ee:	90 81       	ld	r25, Z
    11f0:	89 23       	and	r24, r25
    11f2:	80 83       	st	Z, r24
    11f4:	08 95       	ret

000011f6 <UpdateState>:
}

//Update game state: num -> vBBBBbbb v=value(0 is set!), BBBB=Byte number, bbb=bit number
void UpdateState(uint8_t num){
    11f6:	98 2f       	mov	r25, r24
    uint8_t clearBit = num & 0x80;
    num &= 0x7f;
    11f8:	8f 77       	andi	r24, 0x7F	; 127
    if (num) {
    11fa:	31 f0       	breq	.+12     	; 0x1208 <UpdateState+0x12>
        if (clearBit) {
    11fc:	97 ff       	sbrs	r25, 7
    11fe:	02 c0       	rjmp	.+4      	; 0x1204 <UpdateState+0xe>
            WriteStatusBit(num, 0);
    1200:	60 e0       	ldi	r22, 0x00	; 0
    1202:	01 c0       	rjmp	.+2      	; 0x1206 <UpdateState+0x10>
        } else {
            WriteStatusBit(num, 1);
    1204:	61 e0       	ldi	r22, 0x01	; 1
    1206:	dd cf       	rjmp	.-70     	; 0x11c2 <WriteStatusBit>
    1208:	08 95       	ret

0000120a <CheckState>:
        }
    }
}

//Checks if state of bit BBBBbbb matches with v (inverted) bit
uint8_t CheckState(uint8_t num){
    120a:	cf 93       	push	r28
    120c:	c8 2f       	mov	r28, r24
    uint8_t bitSet = 0;
    if (ReadStatusBit(num & 0x7f)){
    120e:	8f 77       	andi	r24, 0x7F	; 127
    1210:	c4 df       	rcall	.-120    	; 0x119a <ReadStatusBit>
    1212:	2c 2f       	mov	r18, r28
    1214:	22 1f       	adc	r18, r18
    1216:	22 27       	eor	r18, r18
    1218:	22 1f       	adc	r18, r18
    121a:	91 e0       	ldi	r25, 0x01	; 1
    121c:	81 11       	cpse	r24, r1
    121e:	01 c0       	rjmp	.+2      	; 0x1222 <CheckState+0x18>
    1220:	90 e0       	ldi	r25, 0x00	; 0
    }
    if (((num & 0x80)>0)^(bitSet>0)){
        return 1;
    }
    return 0;
}
    1222:	82 2f       	mov	r24, r18
    1224:	89 27       	eor	r24, r25
    1226:	cf 91       	pop	r28
    1228:	08 95       	ret

0000122a <getID>:

//Give out a number 0..3, calculated using serial number fields
uint8_t getID(){
    uint8_t id = 0;
    uint8_t *serNum;
    serNum = (uint8_t*)&SIGROW_SERNUM0;
    122a:	e3 e0       	ldi	r30, 0x03	; 3
    122c:	f1 e1       	ldi	r31, 0x11	; 17
    return 0;
}

//Give out a number 0..3, calculated using serial number fields
uint8_t getID(){
    uint8_t id = 0;
    122e:	80 e0       	ldi	r24, 0x00	; 0
    uint8_t *serNum;
    serNum = (uint8_t*)&SIGROW_SERNUM0;

    for (uint8_t x=0; x<10; ++x){
        id += *serNum;
    1230:	91 91       	ld	r25, Z+
    1232:	89 0f       	add	r24, r25
uint8_t getID(){
    uint8_t id = 0;
    uint8_t *serNum;
    serNum = (uint8_t*)&SIGROW_SERNUM0;

    for (uint8_t x=0; x<10; ++x){
    1234:	ed 30       	cpi	r30, 0x0D	; 13
    1236:	91 e1       	ldi	r25, 0x11	; 17
    1238:	f9 07       	cpc	r31, r25
    123a:	d1 f7       	brne	.-12     	; 0x1230 <getID+0x6>
        id += *serNum;
        ++serNum;
    }
    id %= 4;
    whoami = id+1;
    123c:	83 70       	andi	r24, 0x03	; 3
    123e:	8f 5f       	subi	r24, 0xFF	; 255
    1240:	80 93 30 38 	sts	0x3830, r24	; 0x803830 <whoami>
    return whoami;
}
    1244:	08 95       	ret

00001246 <Reset>:

void Reset(){
    1246:	ea e3       	ldi	r30, 0x3A	; 58
    1248:	fa e3       	ldi	r31, 0x3A	; 58
    //# 110   set to 1 by FW if badge UUID mod 4 == 0
    //# 111   set to 1 by FW if badge UUID mod 4 == 1
    //# 112   set to 1 by FW if badge UUID mod 4 == 2
    //# 113   set to 1 by FW if badge UUID mod 4 == 3
    for (uint8_t x=0; x<sizeof(gameState); ++x){
        gameState[x] = 0;
    124a:	11 92       	st	Z+, r1
    //Reset game progress (all zeroes) and load some bits:
    //# 110   set to 1 by FW if badge UUID mod 4 == 0
    //# 111   set to 1 by FW if badge UUID mod 4 == 1
    //# 112   set to 1 by FW if badge UUID mod 4 == 2
    //# 113   set to 1 by FW if badge UUID mod 4 == 3
    for (uint8_t x=0; x<sizeof(gameState); ++x){
    124c:	8a e3       	ldi	r24, 0x3A	; 58
    124e:	ee 34       	cpi	r30, 0x4E	; 78
    1250:	f8 07       	cpc	r31, r24
    1252:	d9 f7       	brne	.-10     	; 0x124a <Reset+0x4>
        gameState[x] = 0;
    }

    uint8_t id = getID();
    1254:	ea df       	rcall	.-44     	; 0x122a <getID>

    //Write bit in gameState location 110..113
    if (id == 0) WriteStatusBit(110, 1);
    1256:	81 11       	cpse	r24, r1
    1258:	04 c0       	rjmp	.+8      	; 0x1262 <Reset+0x1c>
    if (gameState[number>>3] & (1<<(number&7))) return 1; else return 0;
}

void WriteStatusBit(uint8_t number, uint8_t state){
    number &= 0x7f;
    if (state) gameState[number>>3] |= 1<<(number&7);
    125a:	80 91 47 3a 	lds	r24, 0x3A47	; 0x803a47 <gameState+0xd>
    125e:	80 64       	ori	r24, 0x40	; 64
    1260:	05 c0       	rjmp	.+10     	; 0x126c <Reset+0x26>

    uint8_t id = getID();

    //Write bit in gameState location 110..113
    if (id == 0) WriteStatusBit(110, 1);
    else if (id == 1) WriteStatusBit(111, 1);
    1262:	81 30       	cpi	r24, 0x01	; 1
    1264:	31 f4       	brne	.+12     	; 0x1272 <Reset+0x2c>
    if (gameState[number>>3] & (1<<(number&7))) return 1; else return 0;
}

void WriteStatusBit(uint8_t number, uint8_t state){
    number &= 0x7f;
    if (state) gameState[number>>3] |= 1<<(number&7);
    1266:	80 91 47 3a 	lds	r24, 0x3A47	; 0x803a47 <gameState+0xd>
    126a:	80 68       	ori	r24, 0x80	; 128
    126c:	80 93 47 3a 	sts	0x3A47, r24	; 0x803a47 <gameState+0xd>
    1270:	0d c0       	rjmp	.+26     	; 0x128c <Reset+0x46>
    uint8_t id = getID();

    //Write bit in gameState location 110..113
    if (id == 0) WriteStatusBit(110, 1);
    else if (id == 1) WriteStatusBit(111, 1);
    else if (id == 2) WriteStatusBit(112, 1);
    1272:	82 30       	cpi	r24, 0x02	; 2
    1274:	21 f4       	brne	.+8      	; 0x127e <Reset+0x38>
    if (gameState[number>>3] & (1<<(number&7))) return 1; else return 0;
}

void WriteStatusBit(uint8_t number, uint8_t state){
    number &= 0x7f;
    if (state) gameState[number>>3] |= 1<<(number&7);
    1276:	80 91 48 3a 	lds	r24, 0x3A48	; 0x803a48 <gameState+0xe>
    127a:	81 60       	ori	r24, 0x01	; 1
    127c:	05 c0       	rjmp	.+10     	; 0x1288 <Reset+0x42>

    //Write bit in gameState location 110..113
    if (id == 0) WriteStatusBit(110, 1);
    else if (id == 1) WriteStatusBit(111, 1);
    else if (id == 2) WriteStatusBit(112, 1);
    else if (id == 3) WriteStatusBit(113, 1);
    127e:	83 30       	cpi	r24, 0x03	; 3
    1280:	29 f4       	brne	.+10     	; 0x128c <Reset+0x46>
    if (gameState[number>>3] & (1<<(number&7))) return 1; else return 0;
}

void WriteStatusBit(uint8_t number, uint8_t state){
    number &= 0x7f;
    if (state) gameState[number>>3] |= 1<<(number&7);
    1282:	80 91 48 3a 	lds	r24, 0x3A48	; 0x803a48 <gameState+0xe>
    1286:	82 60       	ori	r24, 0x02	; 2
    1288:	80 93 48 3a 	sts	0x3A48, r24	; 0x803a48 <gameState+0xe>
    128c:	80 91 3a 3a 	lds	r24, 0x3A3A	; 0x803a3a <gameState>
    1290:	81 60       	ori	r24, 0x01	; 1
    1292:	80 93 3a 3a 	sts	0x3A3A, r24	; 0x803a3a <gameState>
    1296:	08 95       	ret

00001298 <LoadGameState>:

    return sample;
}

//Load game status
void LoadGameState(){
    1298:	cf 93       	push	r28
    129a:	df 93       	push	r29
    EERead(0, &gameState[0], BOOTCHK);   //Load game status bits from EEPROM
    129c:	44 e1       	ldi	r20, 0x14	; 20
    129e:	6a e3       	ldi	r22, 0x3A	; 58
    12a0:	7a e3       	ldi	r23, 0x3A	; 58
    12a2:	80 e0       	ldi	r24, 0x00	; 0
    12a4:	b0 dd       	rcall	.-1184   	; 0xe06 <EERead>
    12a6:	ce e6       	ldi	r28, 0x6E	; 110

    uint8_t idSet = 0;
    12a8:	d0 e0       	ldi	r29, 0x00	; 0
    for (uint8_t x=0; x<4; ++x){
        idSet += ReadStatusBit(110+x);
    12aa:	8c 2f       	mov	r24, r28
    12ac:	76 df       	rcall	.-276    	; 0x119a <ReadStatusBit>
    12ae:	d8 0f       	add	r29, r24
    12b0:	cf 5f       	subi	r28, 0xFF	; 255
//Load game status
void LoadGameState(){
    EERead(0, &gameState[0], BOOTCHK);   //Load game status bits from EEPROM

    uint8_t idSet = 0;
    for (uint8_t x=0; x<4; ++x){
    12b2:	c2 37       	cpi	r28, 0x72	; 114
    12b4:	d1 f7       	brne	.-12     	; 0x12aa <LoadGameState+0x12>
        idSet += ReadStatusBit(110+x);
    }

    //Check if badge is reset(0 = cheated!) or new(3) or error(2)
    if (idSet != 1) {
    12b6:	d1 30       	cpi	r29, 0x01	; 1
        Reset();
    12b8:	11 f0       	breq	.+4      	; 0x12be <LoadGameState+0x26>
    12ba:	c5 df       	rcall	.-118    	; 0x1246 <Reset>
    } else getID();
    12bc:	01 c0       	rjmp	.+2      	; 0x12c0 <LoadGameState+0x28>
    12be:	b5 df       	rcall	.-150    	; 0x122a <getID>

    inventory[0] = (gameState[INVADDR]<<8|gameState[INVADDR+1]);
    12c0:	80 91 4a 3a 	lds	r24, 0x3A4A	; 0x803a4a <gameState+0x10>
    12c4:	90 91 4b 3a 	lds	r25, 0x3A4B	; 0x803a4b <gameState+0x11>
    12c8:	98 27       	eor	r25, r24
    12ca:	89 27       	eor	r24, r25
    12cc:	98 27       	eor	r25, r24
    12ce:	80 93 31 38 	sts	0x3831, r24	; 0x803831 <inventory>
    12d2:	90 93 32 38 	sts	0x3832, r25	; 0x803832 <inventory+0x1>
    inventory[1] = (gameState[INVADDR+2]<<8|gameState[INVADDR+3]);
    12d6:	80 91 4c 3a 	lds	r24, 0x3A4C	; 0x803a4c <gameState+0x12>
    12da:	90 91 4d 3a 	lds	r25, 0x3A4D	; 0x803a4d <gameState+0x13>
    12de:	98 27       	eor	r25, r24
    12e0:	89 27       	eor	r24, r25
    12e2:	98 27       	eor	r25, r24
    12e4:	80 93 33 38 	sts	0x3833, r24	; 0x803833 <inventory+0x2>
    12e8:	90 93 34 38 	sts	0x3834, r25	; 0x803834 <inventory+0x3>
}
    12ec:	df 91       	pop	r29
    12ee:	cf 91       	pop	r28
    12f0:	08 95       	ret

000012f2 <HotSummer>:
    //Write bit 0, must always be 1!
    WriteStatusBit(0, 1);
}

//Sets specific game bits after the badge is heated for one and two times.
uint8_t HotSummer(){
    12f2:	cf 93       	push	r28
    static uint8_t cooledDown = 0;

    if (CheckState(SUMMERS_COMPLETED)){
    12f4:	86 e7       	ldi	r24, 0x76	; 118
    12f6:	89 df       	rcall	.-238    	; 0x120a <CheckState>
    12f8:	c8 2f       	mov	r28, r24
    12fa:	88 23       	and	r24, r24
    12fc:	81 f0       	breq	.+32     	; 0x131e <HotSummer+0x2c>
        iLED[SCARAB[G]] = 0;
    12fe:	e0 91 9d b5 	lds	r30, 0xB59D	; 0x80b59d <__bss_end+0x7a92>
    1302:	f0 e0       	ldi	r31, 0x00	; 0
    1304:	e5 54       	subi	r30, 0x45	; 69
    1306:	f5 4c       	sbci	r31, 0xC5	; 197
    1308:	10 82       	st	Z, r1
        iLED[SCARAB[R]] = dimValue;
    130a:	e0 91 9c b5 	lds	r30, 0xB59C	; 0x80b59c <__bss_end+0x7a91>
    130e:	f0 e0       	ldi	r31, 0x00	; 0
    1310:	80 91 09 38 	lds	r24, 0x3809	; 0x803809 <dimValue>
    1314:	e5 54       	subi	r30, 0x45	; 69
    1316:	f5 4c       	sbci	r31, 0xC5	; 197
    1318:	80 83       	st	Z, r24
        return 1;
    131a:	c1 e0       	ldi	r28, 0x01	; 1
    131c:	4c c0       	rjmp	.+152    	; 0x13b6 <HotSummer+0xc4>
    }

    if (CheckState(FIRST_SUMMER)) {
    131e:	85 e7       	ldi	r24, 0x75	; 117
    1320:	74 df       	rcall	.-280    	; 0x120a <CheckState>
    1322:	88 23       	and	r24, r24
    1324:	59 f1       	breq	.+86     	; 0x137c <HotSummer+0x8a>
        iLED[SCARAB[G]] = dimValue;
    1326:	e0 91 9d b5 	lds	r30, 0xB59D	; 0x80b59d <__bss_end+0x7a92>
    132a:	f0 e0       	ldi	r31, 0x00	; 0
    132c:	80 91 09 38 	lds	r24, 0x3809	; 0x803809 <dimValue>
    1330:	e5 54       	subi	r30, 0x45	; 69
    1332:	f5 4c       	sbci	r31, 0xC5	; 197
    1334:	80 83       	st	Z, r24
        if ((cooledDown) && (adcTemp >= (calTemp + 8))) {
    1336:	80 91 48 38 	lds	r24, 0x3848	; 0x803848 <cooledDown.3938>
    133a:	88 23       	and	r24, r24
    133c:	79 f0       	breq	.+30     	; 0x135c <HotSummer+0x6a>
    133e:	80 91 99 3a 	lds	r24, 0x3A99	; 0x803a99 <calTemp>
    1342:	90 91 9a 3a 	lds	r25, 0x3A9A	; 0x803a9a <calTemp+0x1>
    1346:	20 91 e6 3a 	lds	r18, 0x3AE6	; 0x803ae6 <adcTemp>
    134a:	30 91 e7 3a 	lds	r19, 0x3AE7	; 0x803ae7 <adcTemp+0x1>
    134e:	08 96       	adiw	r24, 0x08	; 8
    1350:	28 17       	cp	r18, r24
    1352:	39 07       	cpc	r19, r25
            UpdateState(SUMMERS_COMPLETED);
    1354:	18 f0       	brcs	.+6      	; 0x135c <HotSummer+0x6a>
    1356:	86 e7       	ldi	r24, 0x76	; 118
    1358:	4e df       	rcall	.-356    	; 0x11f6 <UpdateState>
            return 0;
    135a:	2d c0       	rjmp	.+90     	; 0x13b6 <HotSummer+0xc4>
        }
        if (adcTemp <= (calTemp + 2)) cooledDown = 1;
    135c:	80 91 99 3a 	lds	r24, 0x3A99	; 0x803a99 <calTemp>
    1360:	90 91 9a 3a 	lds	r25, 0x3A9A	; 0x803a9a <calTemp+0x1>
    1364:	20 91 e6 3a 	lds	r18, 0x3AE6	; 0x803ae6 <adcTemp>
    1368:	30 91 e7 3a 	lds	r19, 0x3AE7	; 0x803ae7 <adcTemp+0x1>
    136c:	02 96       	adiw	r24, 0x02	; 2
    136e:	82 17       	cp	r24, r18
    1370:	93 07       	cpc	r25, r19
    1372:	08 f1       	brcs	.+66     	; 0x13b6 <HotSummer+0xc4>
    1374:	81 e0       	ldi	r24, 0x01	; 1
    1376:	80 93 48 38 	sts	0x3848, r24	; 0x803848 <cooledDown.3938>
    137a:	1d c0       	rjmp	.+58     	; 0x13b6 <HotSummer+0xc4>
                   
    } else {
        if (calTemp == 0) calTemp = adcTemp;
    137c:	80 91 99 3a 	lds	r24, 0x3A99	; 0x803a99 <calTemp>
    1380:	90 91 9a 3a 	lds	r25, 0x3A9A	; 0x803a9a <calTemp+0x1>
    1384:	89 2b       	or	r24, r25
    1386:	41 f4       	brne	.+16     	; 0x1398 <HotSummer+0xa6>
    1388:	80 91 e6 3a 	lds	r24, 0x3AE6	; 0x803ae6 <adcTemp>
    138c:	90 91 e7 3a 	lds	r25, 0x3AE7	; 0x803ae7 <adcTemp+0x1>
    1390:	80 93 99 3a 	sts	0x3A99, r24	; 0x803a99 <calTemp>
    1394:	90 93 9a 3a 	sts	0x3A9A, r25	; 0x803a9a <calTemp+0x1>
        if (adcTemp >= (calTemp + 8)) {
    1398:	80 91 99 3a 	lds	r24, 0x3A99	; 0x803a99 <calTemp>
    139c:	90 91 9a 3a 	lds	r25, 0x3A9A	; 0x803a9a <calTemp+0x1>
    13a0:	20 91 e6 3a 	lds	r18, 0x3AE6	; 0x803ae6 <adcTemp>
    13a4:	30 91 e7 3a 	lds	r19, 0x3AE7	; 0x803ae7 <adcTemp+0x1>
    13a8:	08 96       	adiw	r24, 0x08	; 8
    13aa:	28 17       	cp	r18, r24
    13ac:	39 07       	cpc	r19, r25
            UpdateState(FIRST_SUMMER);
    13ae:	18 f0       	brcs	.+6      	; 0x13b6 <HotSummer+0xc4>
    13b0:	85 e7       	ldi	r24, 0x75	; 117
    13b2:	21 df       	rcall	.-446    	; 0x11f6 <UpdateState>
        }
    }
    return 0;
    13b4:	c0 e0       	ldi	r28, 0x00	; 0
}
    13b6:	8c 2f       	mov	r24, r28
    13b8:	cf 91       	pop	r28
    13ba:	08 95       	ret

000013bc <GenerateBlinks>:

void GenerateBlinks(){
    13bc:	cf 93       	push	r28
    13be:	df 93       	push	r29
    static uint8_t test = 0;
    iLED[WING[L][test%5]] = 0;
    13c0:	20 91 47 38 	lds	r18, 0x3847	; 0x803847 <test.3941>
    13c4:	82 2f       	mov	r24, r18
    13c6:	65 e0       	ldi	r22, 0x05	; 5
    13c8:	0e 94 62 1a 	call	0x34c4	; 0x34c4 <__udivmodqi4>
    13cc:	e9 2f       	mov	r30, r25
    13ce:	f0 e0       	ldi	r31, 0x00	; 0
    13d0:	e2 56       	subi	r30, 0x62	; 98
    13d2:	fa 44       	sbci	r31, 0x4A	; 74
    13d4:	e5 81       	ldd	r30, Z+5	; 0x05
    13d6:	f0 e0       	ldi	r31, 0x00	; 0
    13d8:	e5 54       	subi	r30, 0x45	; 69
    13da:	f5 4c       	sbci	r31, 0xC5	; 197
    13dc:	10 82       	st	Z, r1
    iLED[WING[L][(test+1)%5]] = dimValue;
    13de:	82 2f       	mov	r24, r18
    13e0:	90 e0       	ldi	r25, 0x00	; 0
    13e2:	01 96       	adiw	r24, 0x01	; 1
    13e4:	65 e0       	ldi	r22, 0x05	; 5
    13e6:	70 e0       	ldi	r23, 0x00	; 0
    13e8:	0e 94 82 1a 	call	0x3504	; 0x3504 <__divmodhi4>
    13ec:	fc 01       	movw	r30, r24
    13ee:	e2 56       	subi	r30, 0x62	; 98
    13f0:	fa 44       	sbci	r31, 0x4A	; 74
    13f2:	e5 81       	ldd	r30, Z+5	; 0x05
    13f4:	f0 e0       	ldi	r31, 0x00	; 0
    13f6:	80 91 09 38 	lds	r24, 0x3809	; 0x803809 <dimValue>
    13fa:	e5 54       	subi	r30, 0x45	; 69
    13fc:	f5 4c       	sbci	r31, 0xC5	; 197
    13fe:	80 83       	st	Z, r24
    ++test;
    1400:	2f 5f       	subi	r18, 0xFF	; 255
    1402:	20 93 47 38 	sts	0x3847, r18	; 0x803847 <test.3941>
    1406:	8e e9       	ldi	r24, 0x9E	; 158
    1408:	95 eb       	ldi	r25, 0xB5	; 181
    140a:	c8 ea       	ldi	r28, 0xA8	; 168
    140c:	d5 eb       	ldi	r29, 0xB5	; 181

    for (uint8_t x=0; x<5; ++x){
        iLED[WING[R][x]] = iLED[WING[L][4-x]];
    140e:	dc 01       	movw	r26, r24
    1410:	ed 91       	ld	r30, X+
    1412:	cd 01       	movw	r24, r26
    1414:	f0 e0       	ldi	r31, 0x00	; 0
    1416:	aa 91       	ld	r26, -Y
    1418:	b0 e0       	ldi	r27, 0x00	; 0
    141a:	a5 54       	subi	r26, 0x45	; 69
    141c:	b5 4c       	sbci	r27, 0xC5	; 197
    141e:	2c 91       	ld	r18, X
    1420:	e5 54       	subi	r30, 0x45	; 69
    1422:	f5 4c       	sbci	r31, 0xC5	; 197
    1424:	20 83       	st	Z, r18
    static uint8_t test = 0;
    iLED[WING[L][test%5]] = 0;
    iLED[WING[L][(test+1)%5]] = dimValue;
    ++test;

    for (uint8_t x=0; x<5; ++x){
    1426:	b5 eb       	ldi	r27, 0xB5	; 181
    1428:	c3 3a       	cpi	r28, 0xA3	; 163
    142a:	db 07       	cpc	r29, r27
    142c:	81 f7       	brne	.-32     	; 0x140e <GenerateBlinks+0x52>
        iLED[WING[R][x]] = iLED[WING[L][4-x]];
    }
}
    142e:	df 91       	pop	r29
    1430:	cf 91       	pop	r28
    1432:	08 95       	ret

00001434 <GenerateAudio>:


uint8_t GenerateAudio(){
    1434:	0f 93       	push	r16
    1436:	1f 93       	push	r17
    1438:	cf 93       	push	r28
    143a:	df 93       	push	r29

    //auRepAddr = &auBuffer[0];

    //Audio for text adventure
    if ((effect&0xff00)==0) {
    143c:	80 91 2d 38 	lds	r24, 0x382D	; 0x80382d <effect>
    1440:	90 91 2e 38 	lds	r25, 0x382E	; 0x80382e <effect+0x1>
    1444:	88 27       	eor	r24, r24
    1446:	89 2b       	or	r24, r25
    1448:	09 f0       	breq	.+2      	; 0x144c <GenerateAudio+0x18>
    144a:	c3 c0       	rjmp	.+390    	; 0x15d2 <GenerateAudio+0x19e>

        //Silence
        if ((effect&0xE0)==0){
    144c:	80 91 2d 38 	lds	r24, 0x382D	; 0x80382d <effect>
    1450:	90 91 2e 38 	lds	r25, 0x382E	; 0x80382e <effect+0x1>
    1454:	80 7e       	andi	r24, 0xE0	; 224
    1456:	99 27       	eor	r25, r25
    1458:	89 2b       	or	r24, r25
    145a:	31 f4       	brne	.+12     	; 0x1468 <GenerateAudio+0x34>
            auRepAddr = &zero;
    145c:	8b e2       	ldi	r24, 0x2B	; 43
    145e:	98 e3       	ldi	r25, 0x38	; 56
    1460:	80 93 03 38 	sts	0x3803, r24	; 0x803803 <auRepAddr>
    1464:	90 93 04 38 	sts	0x3804, r25	; 0x803804 <auRepAddr+0x1>
        }

        //Bad (buzzer)
        if ((effect&0xE0)==32){
    1468:	80 91 2d 38 	lds	r24, 0x382D	; 0x80382d <effect>
    146c:	90 91 2e 38 	lds	r25, 0x382E	; 0x80382e <effect+0x1>
    1470:	80 7e       	andi	r24, 0xE0	; 224
    1472:	99 27       	eor	r25, r25
    1474:	80 97       	sbiw	r24, 0x20	; 32
    1476:	09 f0       	breq	.+2      	; 0x147a <GenerateAudio+0x46>
    1478:	59 c0       	rjmp	.+178    	; 0x152c <GenerateAudio+0xf8>
            static uint8_t auBuffer[17] = {1, 255, 128, 128, 192, 255, 64, 255, 192, 128, 64, 1, 192, 1, 64, 128, 0}; 
            static uint8_t loudness, duration, start;
            floatSpeed(1, 0x2000, 0x2200);
    147a:	40 e0       	ldi	r20, 0x00	; 0
    147c:	52 e2       	ldi	r21, 0x22	; 34
    147e:	60 e0       	ldi	r22, 0x00	; 0
    1480:	70 e2       	ldi	r23, 0x20	; 32
    1482:	81 e0       	ldi	r24, 0x01	; 1
    1484:	b3 dd       	rcall	.-1178   	; 0xfec <floatSpeed>
            auBuffer[2] = floatAround(0x80, 5, 0x01, 0x00);
    1486:	20 e0       	ldi	r18, 0x00	; 0
    1488:	41 e0       	ldi	r20, 0x01	; 1
    148a:	65 e0       	ldi	r22, 0x05	; 5
    148c:	80 e8       	ldi	r24, 0x80	; 128
    148e:	e0 dd       	rcall	.-1088   	; 0x1050 <floatAround>
    1490:	80 93 0d 38 	sts	0x380D, r24	; 0x80380d <auBuffer.3948+0x2>

            if (buttonMark) {
    1494:	80 91 35 38 	lds	r24, 0x3835	; 0x803835 <buttonMark>
    1498:	88 23       	and	r24, r24
    149a:	09 f4       	brne	.+2      	; 0x149e <GenerateAudio+0x6a>
    149c:	47 c0       	rjmp	.+142    	; 0x152c <GenerateAudio+0xf8>
                if (start == 0) {
    149e:	80 91 46 38 	lds	r24, 0x3846	; 0x803846 <start.3951>
    14a2:	81 11       	cpse	r24, r1
    14a4:	15 c0       	rjmp	.+42     	; 0x14d0 <GenerateAudio+0x9c>
                    duration = 4;
    14a6:	84 e0       	ldi	r24, 0x04	; 4
    14a8:	80 93 45 38 	sts	0x3845, r24	; 0x803845 <duration.3950>
                    loudness = 0xff;
    14ac:	8f ef       	ldi	r24, 0xFF	; 255
    14ae:	80 93 44 38 	sts	0x3844, r24	; 0x803844 <loudness.3949>
                    TCB1_CCMP = 0x2000;
    14b2:	80 e0       	ldi	r24, 0x00	; 0
    14b4:	90 e2       	ldi	r25, 0x20	; 32
    14b6:	80 93 5c 0a 	sts	0x0A5C, r24	; 0x800a5c <__TEXT_REGION_LENGTH__+0x700a5c>
    14ba:	90 93 5d 0a 	sts	0x0A5D, r25	; 0x800a5d <__TEXT_REGION_LENGTH__+0x700a5d>
                    auRepAddr = &auBuffer[0];
    14be:	8b e0       	ldi	r24, 0x0B	; 11
    14c0:	98 e3       	ldi	r25, 0x38	; 56
    14c2:	80 93 03 38 	sts	0x3803, r24	; 0x803803 <auRepAddr>
    14c6:	90 93 04 38 	sts	0x3804, r25	; 0x803804 <auRepAddr+0x1>
                    start = 1;
    14ca:	81 e0       	ldi	r24, 0x01	; 1
    14cc:	80 93 46 38 	sts	0x3846, r24	; 0x803846 <start.3951>
                }

                if (loudness) {
    14d0:	80 91 44 38 	lds	r24, 0x3844	; 0x803844 <loudness.3949>
    14d4:	88 23       	and	r24, r24
    14d6:	69 f0       	breq	.+26     	; 0x14f2 <GenerateAudio+0xbe>
                    auVolume = loudness;
    14d8:	80 93 8f 3a 	sts	0x3A8F, r24	; 0x803a8f <auVolume>
                    if (duration) duration--; else loudness >>= 1;
    14dc:	90 91 45 38 	lds	r25, 0x3845	; 0x803845 <duration.3950>
    14e0:	99 23       	and	r25, r25
    14e2:	21 f0       	breq	.+8      	; 0x14ec <GenerateAudio+0xb8>
    14e4:	91 50       	subi	r25, 0x01	; 1
    14e6:	90 93 45 38 	sts	0x3845, r25	; 0x803845 <duration.3950>
    14ea:	03 c0       	rjmp	.+6      	; 0x14f2 <GenerateAudio+0xbe>
    14ec:	86 95       	lsr	r24
    14ee:	80 93 44 38 	sts	0x3844, r24	; 0x803844 <loudness.3949>
                } 

                if (loudness == 0) {
    14f2:	80 91 44 38 	lds	r24, 0x3844	; 0x803844 <loudness.3949>
    14f6:	81 11       	cpse	r24, r1
    14f8:	19 c0       	rjmp	.+50     	; 0x152c <GenerateAudio+0xf8>
                    effect &= 0x10;
    14fa:	80 91 2d 38 	lds	r24, 0x382D	; 0x80382d <effect>
    14fe:	90 91 2e 38 	lds	r25, 0x382E	; 0x80382e <effect+0x1>
    1502:	80 71       	andi	r24, 0x10	; 16
    1504:	99 27       	eor	r25, r25
    1506:	80 93 2d 38 	sts	0x382D, r24	; 0x80382d <effect>
    150a:	90 93 2e 38 	sts	0x382E, r25	; 0x80382e <effect+0x1>
                    auRepAddr = &zero;
    150e:	8b e2       	ldi	r24, 0x2B	; 43
    1510:	98 e3       	ldi	r25, 0x38	; 56
    1512:	80 93 03 38 	sts	0x3803, r24	; 0x803803 <auRepAddr>
    1516:	90 93 04 38 	sts	0x3804, r25	; 0x803804 <auRepAddr+0x1>
                    auSmpAddr = &zero;
    151a:	80 93 05 38 	sts	0x3805, r24	; 0x803805 <auSmpAddr>
    151e:	90 93 06 38 	sts	0x3806, r25	; 0x803806 <auSmpAddr+0x1>
                    auVolume = 0xff;
    1522:	8f ef       	ldi	r24, 0xFF	; 255
    1524:	80 93 8f 3a 	sts	0x3A8F, r24	; 0x803a8f <auVolume>
                    start = 0;
    1528:	10 92 46 38 	sts	0x3846, r1	; 0x803846 <start.3951>
                }
            }
        }

        //Good (bell)
        if ((effect&0xE0)==64){
    152c:	80 91 2d 38 	lds	r24, 0x382D	; 0x80382d <effect>
    1530:	90 91 2e 38 	lds	r25, 0x382E	; 0x80382e <effect+0x1>
            //auBuffer = 
        }

        //Rain storm with whistling wind
        if ((effect&0xE0)==96){
    1534:	80 91 2d 38 	lds	r24, 0x382D	; 0x80382d <effect>
    1538:	90 91 2e 38 	lds	r25, 0x382E	; 0x80382e <effect+0x1>
    153c:	80 7e       	andi	r24, 0xE0	; 224
    153e:	99 27       	eor	r25, r25
    1540:	80 36       	cpi	r24, 0x60	; 96
    1542:	91 05       	cpc	r25, r1
    1544:	d1 f5       	brne	.+116    	; 0x15ba <GenerateAudio+0x186>
            static uint8_t auBuffer[7];
            auBuffer[6]= 0;        
    1546:	10 92 43 38 	sts	0x3843, r1	; 0x803843 <auBuffer.3952+0x6>
            auRepAddr = &auBuffer[0];
    154a:	8d e3       	ldi	r24, 0x3D	; 61
    154c:	98 e3       	ldi	r25, 0x38	; 56
    154e:	80 93 03 38 	sts	0x3803, r24	; 0x803803 <auRepAddr>
    1552:	90 93 04 38 	sts	0x3804, r25	; 0x803804 <auRepAddr+0x1>
    1556:	8c 01       	movw	r16, r24

            //Noise is to be generated fast, outside of buttonMark loop
            for (uint8_t x=1; x<6; ++x){
    1558:	c1 e0       	ldi	r28, 0x01	; 1
                if (x%3) auBuffer[x] = floatAround(0x80, 5, 0x01, 0x00);
    155a:	d3 e0       	ldi	r29, 0x03	; 3
    155c:	8c 2f       	mov	r24, r28
    155e:	6d 2f       	mov	r22, r29
    1560:	0e 94 62 1a 	call	0x34c4	; 0x34c4 <__udivmodqi4>
    1564:	99 23       	and	r25, r25
    1566:	39 f0       	breq	.+14     	; 0x1576 <GenerateAudio+0x142>
    1568:	20 e0       	ldi	r18, 0x00	; 0
    156a:	41 e0       	ldi	r20, 0x01	; 1
    156c:	65 e0       	ldi	r22, 0x05	; 5
    156e:	80 e8       	ldi	r24, 0x80	; 128
    1570:	6f dd       	rcall	.-1314   	; 0x1050 <floatAround>
    1572:	f8 01       	movw	r30, r16
    1574:	81 83       	std	Z+1, r24	; 0x01
            static uint8_t auBuffer[7];
            auBuffer[6]= 0;        
            auRepAddr = &auBuffer[0];

            //Noise is to be generated fast, outside of buttonMark loop
            for (uint8_t x=1; x<6; ++x){
    1576:	cf 5f       	subi	r28, 0xFF	; 255
    1578:	0f 5f       	subi	r16, 0xFF	; 255
    157a:	1f 4f       	sbci	r17, 0xFF	; 255
    157c:	c6 30       	cpi	r28, 0x06	; 6
    157e:	71 f7       	brne	.-36     	; 0x155c <GenerateAudio+0x128>
                if (x%3) auBuffer[x] = floatAround(0x80, 5, 0x01, 0x00);
            }

            if (buttonMark){
    1580:	80 91 35 38 	lds	r24, 0x3835	; 0x803835 <buttonMark>
    1584:	88 23       	and	r24, r24
    1586:	c9 f0       	breq	.+50     	; 0x15ba <GenerateAudio+0x186>
                //"Floating" speed for howl (and noise, but that's hardly audible)
                floatSpeed(5, 0x0280, 0x0400);
    1588:	40 e0       	ldi	r20, 0x00	; 0
    158a:	54 e0       	ldi	r21, 0x04	; 4
    158c:	60 e8       	ldi	r22, 0x80	; 128
    158e:	72 e0       	ldi	r23, 0x02	; 2
    1590:	85 e0       	ldi	r24, 0x05	; 5
    1592:	2c dd       	rcall	.-1448   	; 0xfec <floatSpeed>
            
                //"Floating" volume and wind howl during 8 bit rainstorm needs some randomness
                auVolume = floatAround(auVolume, 2, 0x10, 0xA0);
    1594:	80 91 8f 3a 	lds	r24, 0x3A8F	; 0x803a8f <auVolume>
    1598:	20 ea       	ldi	r18, 0xA0	; 160
    159a:	40 e1       	ldi	r20, 0x10	; 16
    159c:	62 e0       	ldi	r22, 0x02	; 2
    159e:	58 dd       	rcall	.-1360   	; 0x1050 <floatAround>
    15a0:	80 93 8f 3a 	sts	0x3A8F, r24	; 0x803a8f <auVolume>
                auBuffer[0] = floatAround(auBuffer[0], 2, 0x70, 0x90);
    15a4:	20 e9       	ldi	r18, 0x90	; 144
    15a6:	40 e7       	ldi	r20, 0x70	; 112
    15a8:	62 e0       	ldi	r22, 0x02	; 2
    15aa:	80 91 3d 38 	lds	r24, 0x383D	; 0x80383d <auBuffer.3952>
    15ae:	50 dd       	rcall	.-1376   	; 0x1050 <floatAround>
    15b0:	80 93 3d 38 	sts	0x383D, r24	; 0x80383d <auBuffer.3952>
                auBuffer[3] = 0xFF-auBuffer[0];  //Inverse value of wind[0] produces a whistle
    15b4:	80 95       	com	r24
    15b6:	80 93 40 38 	sts	0x3840, r24	; 0x803840 <auBuffer.3952+0x3>
            }
        }

        //Footsteps
        if ((effect&0xE0)==128){
    15ba:	80 91 2d 38 	lds	r24, 0x382D	; 0x80382d <effect>
    15be:	90 91 2e 38 	lds	r25, 0x382E	; 0x80382e <effect+0x1>

        }

        //
        if ((effect&0xE0)==160){
    15c2:	80 91 2d 38 	lds	r24, 0x382D	; 0x80382d <effect>
    15c6:	90 91 2e 38 	lds	r25, 0x382E	; 0x80382e <effect+0x1>

        }

        //
        if ((effect&0xE0)==192){
    15ca:	80 91 2d 38 	lds	r24, 0x382D	; 0x80382d <effect>
    15ce:	90 91 2e 38 	lds	r25, 0x382E	; 0x80382e <effect+0x1>
        //
        else {
        }
    }

    return buttonMark;
    15d2:	80 91 35 38 	lds	r24, 0x3835	; 0x803835 <buttonMark>
    15d6:	df 91       	pop	r29
    15d8:	cf 91       	pop	r28
    15da:	1f 91       	pop	r17
    15dc:	0f 91       	pop	r16
    15de:	08 95       	ret

000015e0 <BastetDictates>:

// Main game loop
uint8_t BastetDictates(){
  
    return 0;
}
    15e0:	80 e0       	ldi	r24, 0x00	; 0
    15e2:	08 95       	ret

000015e4 <Cheat>:

//
void SetResponse(uint8_t number, uint16_t address, uint16_t length, uint8_t type){
    reactStr[0][number]=address;
    reactStr[1][number]=length;
    reactStr[2][number]=type;
    15e4:	1f 93       	push	r17
    15e6:	cf 93       	push	r28
    15e8:	df 93       	push	r29
    15ea:	cd b7       	in	r28, 0x3d	; 61
    15ec:	de b7       	in	r29, 0x3e	; 62
    15ee:	62 97       	sbiw	r28, 0x12	; 18
    15f0:	cd bf       	out	0x3d, r28	; 61
    15f2:	de bf       	out	0x3e, r29	; 62
    15f4:	8a 8b       	std	Y+18, r24	; 0x12
    15f6:	80 e1       	ldi	r24, 0x10	; 16
    15f8:	e2 e7       	ldi	r30, 0x72	; 114
    15fa:	f5 eb       	ldi	r31, 0xB5	; 181
    15fc:	de 01       	movw	r26, r28
    15fe:	11 96       	adiw	r26, 0x01	; 1
    1600:	01 90       	ld	r0, Z+
    1602:	0d 92       	st	X+, r0
    1604:	8a 95       	dec	r24
    1606:	e1 f7       	brne	.-8      	; 0x1600 <Cheat+0x1c>
    1608:	fe 01       	movw	r30, r28
    160a:	31 96       	adiw	r30, 0x01	; 1
    160c:	90 e0       	ldi	r25, 0x00	; 0
    160e:	8f ef       	ldi	r24, 0xFF	; 255
    1610:	21 91       	ld	r18, Z+
    1612:	31 91       	ld	r19, Z+
    1614:	26 17       	cp	r18, r22
    1616:	37 07       	cpc	r19, r23
    1618:	09 f4       	brne	.+2      	; 0x161c <Cheat+0x38>
    161a:	89 2f       	mov	r24, r25
    161c:	9f 5f       	subi	r25, 0xFF	; 255
    161e:	98 30       	cpi	r25, 0x08	; 8
    1620:	b9 f7       	brne	.-18     	; 0x1610 <Cheat+0x2c>
    1622:	88 30       	cpi	r24, 0x08	; 8
    1624:	10 f0       	brcs	.+4      	; 0x162a <Cheat+0x46>
    1626:	80 e0       	ldi	r24, 0x00	; 0
    1628:	12 c0       	rjmp	.+36     	; 0x164e <Cheat+0x6a>
    162a:	18 e1       	ldi	r17, 0x18	; 24
    162c:	18 0f       	add	r17, r24
    162e:	41 e0       	ldi	r20, 0x01	; 1
    1630:	be 01       	movw	r22, r28
    1632:	6f 5e       	subi	r22, 0xEF	; 239
    1634:	7f 4f       	sbci	r23, 0xFF	; 255
    1636:	81 2f       	mov	r24, r17
    1638:	e6 db       	rcall	.-2100   	; 0xe06 <EERead>
    163a:	89 89       	ldd	r24, Y+17	; 0x11
    163c:	8f 3f       	cpi	r24, 0xFF	; 255
    163e:	99 f7       	brne	.-26     	; 0x1626 <Cheat+0x42>
    1640:	41 e0       	ldi	r20, 0x01	; 1
    1642:	be 01       	movw	r22, r28
    1644:	6e 5e       	subi	r22, 0xEE	; 238
    1646:	7f 4f       	sbci	r23, 0xFF	; 255
    1648:	81 2f       	mov	r24, r17
    164a:	ed db       	rcall	.-2086   	; 0xe26 <EEWrite>
    164c:	81 e0       	ldi	r24, 0x01	; 1
    164e:	62 96       	adiw	r28, 0x12	; 18
    1650:	cd bf       	out	0x3d, r28	; 61
    1652:	de bf       	out	0x3e, r29	; 62
    1654:	df 91       	pop	r29
    1656:	cf 91       	pop	r28
    1658:	1f 91       	pop	r17
    165a:	08 95       	ret

0000165c <DecryptData>:
    165c:	f9 01       	movw	r30, r18
    165e:	9c 01       	movw	r18, r24
    1660:	2e 1b       	sub	r18, r30
    1662:	3f 0b       	sbc	r19, r31
    1664:	88 e0       	ldi	r24, 0x08	; 8
    1666:	48 9f       	mul	r20, r24
    1668:	a0 01       	movw	r20, r0
    166a:	11 24       	eor	r1, r1
    166c:	44 5c       	subi	r20, 0xC4	; 196
    166e:	59 44       	sbci	r21, 0x49	; 73
    1670:	66 23       	and	r22, r22
    1672:	69 f0       	breq	.+26     	; 0x168e <DecryptData+0x32>
    1674:	df 01       	movw	r26, r30
    1676:	a2 0f       	add	r26, r18
    1678:	b3 1f       	adc	r27, r19
    167a:	a7 70       	andi	r26, 0x07	; 7
    167c:	bb 27       	eor	r27, r27
    167e:	a4 0f       	add	r26, r20
    1680:	b5 1f       	adc	r27, r21
    1682:	80 81       	ld	r24, Z
    1684:	9c 91       	ld	r25, X
    1686:	98 27       	eor	r25, r24
    1688:	91 93       	st	Z+, r25
    168a:	61 50       	subi	r22, 0x01	; 1
    168c:	f1 cf       	rjmp	.-30     	; 0x1670 <DecryptData+0x14>
    168e:	08 95       	ret

00001690 <UnflipData>:
    1690:	26 2f       	mov	r18, r22
    1692:	fb 01       	movw	r30, r22
    1694:	35 e5       	ldi	r19, 0x55	; 85
    1696:	9e 2f       	mov	r25, r30
    1698:	92 1b       	sub	r25, r18
    169a:	98 17       	cp	r25, r24
    169c:	28 f4       	brcc	.+10     	; 0x16a8 <UnflipData+0x18>
    169e:	90 81       	ld	r25, Z
    16a0:	92 95       	swap	r25
    16a2:	93 27       	eor	r25, r19
    16a4:	91 93       	st	Z+, r25
    16a6:	f7 cf       	rjmp	.-18     	; 0x1696 <UnflipData+0x6>
    16a8:	08 95       	ret

000016aa <ExtEERead>:
    16aa:	af 92       	push	r10
    16ac:	bf 92       	push	r11
    16ae:	cf 92       	push	r12
    16b0:	df 92       	push	r13
    16b2:	ef 92       	push	r14
    16b4:	ff 92       	push	r15
    16b6:	0f 93       	push	r16
    16b8:	1f 93       	push	r17
    16ba:	cf 93       	push	r28
    16bc:	df 93       	push	r29
    16be:	00 d0       	rcall	.+0      	; 0x16c0 <ExtEERead+0x16>
    16c0:	cd b7       	in	r28, 0x3d	; 61
    16c2:	de b7       	in	r29, 0x3e	; 62
    16c4:	d6 2e       	mov	r13, r22
    16c6:	c4 2e       	mov	r12, r20
    16c8:	59 01       	movw	r10, r18
    16ca:	7c 01       	movw	r14, r24
    16cc:	e8 94       	clt
    16ce:	f7 f8       	bld	r15, 7
    16d0:	f9 82       	std	Y+1, r15	; 0x01
    16d2:	ea 82       	std	Y+2, r14	; 0x02
    16d4:	06 2f       	mov	r16, r22
    16d6:	42 e0       	ldi	r20, 0x02	; 2
    16d8:	be 01       	movw	r22, r28
    16da:	6f 5f       	subi	r22, 0xFF	; 255
    16dc:	7f 4f       	sbci	r23, 0xFF	; 255
    16de:	80 e5       	ldi	r24, 0x50	; 80
    16e0:	0e 94 5a 01 	call	0x2b4	; 0x2b4 <I2C_read_bytes>
    16e4:	18 2f       	mov	r17, r24
    16e6:	81 11       	cpse	r24, r1
    16e8:	05 c0       	rjmp	.+10     	; 0x16f4 <ExtEERead+0x4a>
    16ea:	95 01       	movw	r18, r10
    16ec:	4c 2d       	mov	r20, r12
    16ee:	6d 2d       	mov	r22, r13
    16f0:	c7 01       	movw	r24, r14
    16f2:	b4 df       	rcall	.-152    	; 0x165c <DecryptData>
    16f4:	81 2f       	mov	r24, r17
    16f6:	0f 90       	pop	r0
    16f8:	0f 90       	pop	r0
    16fa:	df 91       	pop	r29
    16fc:	cf 91       	pop	r28
    16fe:	1f 91       	pop	r17
    1700:	0f 91       	pop	r16
    1702:	ff 90       	pop	r15
    1704:	ef 90       	pop	r14
    1706:	df 90       	pop	r13
    1708:	cf 90       	pop	r12
    170a:	bf 90       	pop	r11
    170c:	af 90       	pop	r10
    170e:	08 95       	ret

00001710 <ClearTxAfter>:
    1710:	8f 5f       	subi	r24, 0xFF	; 255
    1712:	88 30       	cpi	r24, 0x08	; 8
    1714:	30 f4       	brcc	.+12     	; 0x1722 <ClearTxAfter+0x12>
    1716:	e8 2f       	mov	r30, r24
    1718:	f0 e0       	ldi	r31, 0x00	; 0
    171a:	ef 5d       	subi	r30, 0xDF	; 223
    171c:	f5 4c       	sbci	r31, 0xC5	; 197
    171e:	10 82       	st	Z, r1
    1720:	f7 cf       	rjmp	.-18     	; 0x1710 <ClearTxAfter>
    1722:	08 95       	ret

00001724 <StartsWith>:
    1724:	ac 01       	movw	r20, r24
    1726:	90 e0       	ldi	r25, 0x00	; 0
    1728:	e9 2f       	mov	r30, r25
    172a:	f0 e0       	ldi	r31, 0x00	; 0
    172c:	da 01       	movw	r26, r20
    172e:	ae 0f       	add	r26, r30
    1730:	bf 1f       	adc	r27, r31
    1732:	3c 91       	ld	r19, X
    1734:	e6 0f       	add	r30, r22
    1736:	f7 1f       	adc	r31, r23
    1738:	31 11       	cpse	r19, r1
    173a:	05 c0       	rjmp	.+10     	; 0x1746 <StartsWith+0x22>
    173c:	81 e0       	ldi	r24, 0x01	; 1
    173e:	90 81       	ld	r25, Z
    1740:	99 23       	and	r25, r25
    1742:	49 f0       	breq	.+18     	; 0x1756 <StartsWith+0x32>
    1744:	07 c0       	rjmp	.+14     	; 0x1754 <StartsWith+0x30>
    1746:	20 81       	ld	r18, Z
    1748:	22 23       	and	r18, r18
    174a:	c1 f3       	breq	.-16     	; 0x173c <StartsWith+0x18>
    174c:	32 13       	cpse	r19, r18
    174e:	02 c0       	rjmp	.+4      	; 0x1754 <StartsWith+0x30>
    1750:	9f 5f       	subi	r25, 0xFF	; 255
    1752:	ea cf       	rjmp	.-44     	; 0x1728 <StartsWith+0x4>
    1754:	80 e0       	ldi	r24, 0x00	; 0
    1756:	08 95       	ret

00001758 <PrepareSending>:
    1758:	61 15       	cp	r22, r1
    175a:	71 05       	cpc	r23, r1
    175c:	51 f1       	breq	.+84     	; 0x17b2 <PrepareSending+0x5a>
    175e:	e9 e2       	ldi	r30, 0x29	; 41
    1760:	fa e3       	ldi	r31, 0x3A	; 58
    1762:	a1 e2       	ldi	r26, 0x21	; 33
    1764:	ba e3       	ldi	r27, 0x3A	; 58
    1766:	20 e0       	ldi	r18, 0x00	; 0
    1768:	3f ef       	ldi	r19, 0xFF	; 255
    176a:	6f 3f       	cpi	r22, 0xFF	; 255
    176c:	71 05       	cpc	r23, r1
    176e:	69 f0       	breq	.+26     	; 0x178a <PrepareSending+0x32>
    1770:	60 f0       	brcs	.+24     	; 0x178a <PrepareSending+0x32>
    1772:	81 93       	st	Z+, r24
    1774:	91 93       	st	Z+, r25
    1776:	3d 93       	st	X+, r19
    1778:	81 50       	subi	r24, 0x01	; 1
    177a:	9f 4f       	sbci	r25, 0xFF	; 255
    177c:	6f 5f       	subi	r22, 0xFF	; 255
    177e:	71 09       	sbc	r23, r1
    1780:	2f 5f       	subi	r18, 0xFF	; 255
    1782:	27 30       	cpi	r18, 0x07	; 7
    1784:	91 f7       	brne	.-28     	; 0x176a <PrepareSending+0x12>
    1786:	81 e0       	ldi	r24, 0x01	; 1
    1788:	08 95       	ret
    178a:	e2 2f       	mov	r30, r18
    178c:	f0 e0       	ldi	r31, 0x00	; 0
    178e:	df 01       	movw	r26, r30
    1790:	aa 0f       	add	r26, r26
    1792:	bb 1f       	adc	r27, r27
    1794:	a7 5d       	subi	r26, 0xD7	; 215
    1796:	b5 4c       	sbci	r27, 0xC5	; 197
    1798:	8d 93       	st	X+, r24
    179a:	9c 93       	st	X, r25
    179c:	ef 5d       	subi	r30, 0xDF	; 223
    179e:	f5 4c       	sbci	r31, 0xC5	; 197
    17a0:	cb 01       	movw	r24, r22
    17a2:	6f ef       	ldi	r22, 0xFF	; 255
    17a4:	70 e0       	ldi	r23, 0x00	; 0
    17a6:	0e 94 6e 1a 	call	0x34dc	; 0x34dc <__udivmodhi4>
    17aa:	80 83       	st	Z, r24
    17ac:	40 93 1f 3a 	sts	0x3A1F, r20	; 0x803a1f <txTypeNow>
    17b0:	05 c0       	rjmp	.+10     	; 0x17bc <PrepareSending+0x64>
    17b2:	10 92 29 3a 	sts	0x3A29, r1	; 0x803a29 <txAddrList>
    17b6:	10 92 2a 3a 	sts	0x3A2A, r1	; 0x803a2a <txAddrList+0x1>
    17ba:	20 e0       	ldi	r18, 0x00	; 0
    17bc:	82 2f       	mov	r24, r18
    17be:	a8 df       	rcall	.-176    	; 0x1710 <ClearTxAfter>
    17c0:	10 92 20 3a 	sts	0x3A20, r1	; 0x803a20 <txAddrNow>
    17c4:	80 e0       	ldi	r24, 0x00	; 0
    17c6:	08 95       	ret

000017c8 <SetStandardResponse>:
}

//
uint8_t SetStandardResponse(uint8_t custStrEnd){
    17c8:	cf 93       	push	r28
    17ca:	df 93       	push	r29
    return 0;
}

//
void SetResponse(uint8_t number, uint16_t address, uint16_t length, uint8_t type){
    reactStr[0][number]=address;
    17cc:	28 2f       	mov	r18, r24
    17ce:	30 e0       	ldi	r19, 0x00	; 0
    17d0:	f9 01       	movw	r30, r18
    17d2:	ee 0f       	add	r30, r30
    17d4:	ff 1f       	adc	r31, r31
    17d6:	ec 50       	subi	r30, 0x0C	; 12
    17d8:	f7 4c       	sbci	r31, 0xC7	; 199
    17da:	ab e5       	ldi	r26, 0x5B	; 91
    17dc:	ba e7       	ldi	r27, 0x7A	; 122
    17de:	a0 83       	st	Z, r26
    17e0:	b1 83       	std	Z+1, r27	; 0x01
    reactStr[1][number]=length;
    17e2:	f9 01       	movw	r30, r18
    17e4:	ee 0f       	add	r30, r30
    17e6:	ff 1f       	adc	r31, r31
    17e8:	ec 5c       	subi	r30, 0xCC	; 204
    17ea:	f6 4c       	sbci	r31, 0xC6	; 198
    17ec:	62 e0       	ldi	r22, 0x02	; 2
    17ee:	70 e0       	ldi	r23, 0x00	; 0
    17f0:	60 83       	st	Z, r22
    17f2:	71 83       	std	Z+1, r23	; 0x01
    reactStr[2][number]=type;
    17f4:	22 0f       	add	r18, r18
    17f6:	33 1f       	adc	r19, r19
    17f8:	f9 01       	movw	r30, r18
    17fa:	ec 58       	subi	r30, 0x8C	; 140
    17fc:	f6 4c       	sbci	r31, 0xC6	; 198
    17fe:	41 e0       	ldi	r20, 0x01	; 1
    1800:	50 e0       	ldi	r21, 0x00	; 0
    1802:	40 83       	st	Z, r20
    1804:	51 83       	std	Z+1, r21	; 0x01
    return 0;
}

//
void SetResponse(uint8_t number, uint16_t address, uint16_t length, uint8_t type){
    reactStr[0][number]=address;
    1806:	21 e0       	ldi	r18, 0x01	; 1
    1808:	28 0f       	add	r18, r24
    180a:	30 e0       	ldi	r19, 0x00	; 0
    180c:	f9 01       	movw	r30, r18
    180e:	ee 0f       	add	r30, r30
    1810:	ff 1f       	adc	r31, r31
    1812:	ec 50       	subi	r30, 0x0C	; 12
    1814:	f7 4c       	sbci	r31, 0xC7	; 199
    1816:	c4 e6       	ldi	r28, 0x64	; 100
    1818:	da e7       	ldi	r29, 0x7A	; 122
    181a:	c0 83       	st	Z, r28
    181c:	d1 83       	std	Z+1, r29	; 0x01
    reactStr[1][number]=length;
    181e:	f9 01       	movw	r30, r18
    1820:	ee 0f       	add	r30, r30
    1822:	ff 1f       	adc	r31, r31
    1824:	ec 5c       	subi	r30, 0xCC	; 204
    1826:	f6 4c       	sbci	r31, 0xC6	; 198
    1828:	ca e0       	ldi	r28, 0x0A	; 10
    182a:	d0 e0       	ldi	r29, 0x00	; 0
    182c:	c0 83       	st	Z, r28
    182e:	d1 83       	std	Z+1, r29	; 0x01
    reactStr[2][number]=type;
    1830:	22 0f       	add	r18, r18
    1832:	33 1f       	adc	r19, r19
    1834:	f9 01       	movw	r30, r18
    1836:	ec 58       	subi	r30, 0x8C	; 140
    1838:	f6 4c       	sbci	r31, 0xC6	; 198
    183a:	40 83       	st	Z, r20
    183c:	51 83       	std	Z+1, r21	; 0x01
uint8_t SetStandardResponse(uint8_t custStrEnd){

    SetResponse(custStrEnd++, A_LF, 2, TEASER);
    SetResponse(custStrEnd++, A_LOCATION, L_LOCATION, TEASER);
    //SetResponse(custStrEnd++, A_SPACE, L_SPACE, TEASER);
    reactStr[0][custStrEnd++] = CURR_LOC;
    183e:	e2 e0       	ldi	r30, 0x02	; 2
    1840:	e8 0f       	add	r30, r24
    1842:	f0 e0       	ldi	r31, 0x00	; 0
    1844:	ee 0f       	add	r30, r30
    1846:	ff 1f       	adc	r31, r31
    1848:	ec 50       	subi	r30, 0x0C	; 12
    184a:	f7 4c       	sbci	r31, 0xC7	; 199
    184c:	20 ef       	ldi	r18, 0xF0	; 240
    184e:	3f ef       	ldi	r19, 0xFF	; 255
    1850:	20 83       	st	Z, r18
    1852:	31 83       	std	Z+1, r19	; 0x01
    return 0;
}

//
void SetResponse(uint8_t number, uint16_t address, uint16_t length, uint8_t type){
    reactStr[0][number]=address;
    1854:	23 e0       	ldi	r18, 0x03	; 3
    1856:	28 0f       	add	r18, r24
    1858:	30 e0       	ldi	r19, 0x00	; 0
    185a:	f9 01       	movw	r30, r18
    185c:	ee 0f       	add	r30, r30
    185e:	ff 1f       	adc	r31, r31
    1860:	ec 50       	subi	r30, 0x0C	; 12
    1862:	f7 4c       	sbci	r31, 0xC7	; 199
    1864:	a0 83       	st	Z, r26
    1866:	b1 83       	std	Z+1, r27	; 0x01
    reactStr[1][number]=length;
    1868:	f9 01       	movw	r30, r18
    186a:	ee 0f       	add	r30, r30
    186c:	ff 1f       	adc	r31, r31
    186e:	ec 5c       	subi	r30, 0xCC	; 204
    1870:	f6 4c       	sbci	r31, 0xC6	; 198
    1872:	60 83       	st	Z, r22
    1874:	71 83       	std	Z+1, r23	; 0x01
    reactStr[2][number]=type;
    1876:	22 0f       	add	r18, r18
    1878:	33 1f       	adc	r19, r19
    187a:	f9 01       	movw	r30, r18
    187c:	ec 58       	subi	r30, 0x8C	; 140
    187e:	f6 4c       	sbci	r31, 0xC6	; 198
    1880:	40 83       	st	Z, r20
    1882:	51 83       	std	Z+1, r21	; 0x01
    return 0;
}

//
void SetResponse(uint8_t number, uint16_t address, uint16_t length, uint8_t type){
    reactStr[0][number]=address;
    1884:	24 e0       	ldi	r18, 0x04	; 4
    1886:	28 0f       	add	r18, r24
    1888:	30 e0       	ldi	r19, 0x00	; 0
    188a:	f9 01       	movw	r30, r18
    188c:	ee 0f       	add	r30, r30
    188e:	ff 1f       	adc	r31, r31
    1890:	ec 50       	subi	r30, 0x0C	; 12
    1892:	f7 4c       	sbci	r31, 0xC7	; 199
    1894:	a7 e5       	ldi	r26, 0x57	; 87
    1896:	ba e7       	ldi	r27, 0x7A	; 122
    1898:	a0 83       	st	Z, r26
    189a:	b1 83       	std	Z+1, r27	; 0x01
    reactStr[1][number]=length;
    189c:	f9 01       	movw	r30, r18
    189e:	ee 0f       	add	r30, r30
    18a0:	ff 1f       	adc	r31, r31
    18a2:	ec 5c       	subi	r30, 0xCC	; 204
    18a4:	f6 4c       	sbci	r31, 0xC6	; 198
    18a6:	60 83       	st	Z, r22
    18a8:	71 83       	std	Z+1, r23	; 0x01
    reactStr[2][number]=type;
    18aa:	22 0f       	add	r18, r18
    18ac:	33 1f       	adc	r19, r19
    18ae:	f9 01       	movw	r30, r18
    18b0:	ec 58       	subi	r30, 0x8C	; 140
    18b2:	f6 4c       	sbci	r31, 0xC6	; 198
    18b4:	40 83       	st	Z, r20
    18b6:	51 83       	std	Z+1, r21	; 0x01
    SetResponse(custStrEnd++, A_LF, 2, TEASER);
    SetResponse(custStrEnd++, A_PROMPT, L_PROMPT, TEASER);
    //SetResponse(custStrEnd++, A_SPACE, L_SPACE, TEASER);

    return custStrEnd;
}
    18b8:	8b 5f       	subi	r24, 0xFB	; 251
    18ba:	df 91       	pop	r29
    18bc:	cf 91       	pop	r28
    18be:	08 95       	ret

000018c0 <PopulateObject>:

//Get all the relevant data and string addresses of an object
void PopulateObject(uint16_t offset, object_model_t *object){
    18c0:	af 92       	push	r10
    18c2:	bf 92       	push	r11
    18c4:	df 92       	push	r13
    18c6:	ef 92       	push	r14
    18c8:	ff 92       	push	r15
    18ca:	0f 93       	push	r16
    18cc:	1f 93       	push	r17
    18ce:	cf 93       	push	r28
    18d0:	df 93       	push	r29
    18d2:	cd b7       	in	r28, 0x3d	; 61
    18d4:	de b7       	in	r29, 0x3e	; 62
    18d6:	2c 97       	sbiw	r28, 0x0c	; 12
    18d8:	cd bf       	out	0x3d, r28	; 61
    18da:	de bf       	out	0x3e, r29	; 62
    18dc:	7c 01       	movw	r14, r24
    18de:	8b 01       	movw	r16, r22
    uint16_t parStr;
    offset += L_BOILER;

    //Fill things with fixed distance to offset
    uint8_t data[OFF_STRINGFLDS];
    ExtEERead(offset, OFF_STRINGFLDS, GAME, &data[0]);
    18e0:	9e 01       	movw	r18, r28
    18e2:	2f 5f       	subi	r18, 0xFF	; 255
    18e4:	3f 4f       	sbci	r19, 0xFF	; 255
    18e6:	40 e0       	ldi	r20, 0x00	; 0
    18e8:	6c e0       	ldi	r22, 0x0C	; 12
    18ea:	80 96       	adiw	r24, 0x20	; 32
    18ec:	de de       	rcall	.-580    	; 0x16aa <ExtEERead>
    object->addrNextObj = (data[OFF_NEXTOBJ]<<8|data[OFF_NEXTOBJ+1])+L_BOILER;
    18ee:	89 81       	ldd	r24, Y+1	; 0x01
    18f0:	9a 81       	ldd	r25, Y+2	; 0x02
    18f2:	98 27       	eor	r25, r24
    18f4:	89 27       	eor	r24, r25
    18f6:	98 27       	eor	r25, r24
    18f8:	80 96       	adiw	r24, 0x20	; 32
    18fa:	f8 01       	movw	r30, r16
    18fc:	80 83       	st	Z, r24
    18fe:	91 83       	std	Z+1, r25	; 0x01
    object->addrNextLvl = (data[OFF_NEXTLVL]<<8|data[OFF_NEXTLVL+1])+L_BOILER;
    1900:	8b 81       	ldd	r24, Y+3	; 0x03
    1902:	9c 81       	ldd	r25, Y+4	; 0x04
    1904:	98 27       	eor	r25, r24
    1906:	89 27       	eor	r24, r25
    1908:	98 27       	eor	r25, r24
    190a:	80 96       	adiw	r24, 0x20	; 32
    190c:	82 83       	std	Z+2, r24	; 0x02
    190e:	93 83       	std	Z+3, r25	; 0x03
    1910:	de 01       	movw	r26, r28
    1912:	15 96       	adiw	r26, 0x05	; 5
    1914:	34 96       	adiw	r30, 0x04	; 4
    1916:	c8 01       	movw	r24, r16
    1918:	0c 96       	adiw	r24, 0x0c	; 12
    for (uint8_t x=0; x<BYTE_FIELDS_LEN; ++x){
        object->byteField[x]=data[x+OFF_BYTEFLDS];
    191a:	2d 91       	ld	r18, X+
    191c:	21 93       	st	Z+, r18
    //Fill things with fixed distance to offset
    uint8_t data[OFF_STRINGFLDS];
    ExtEERead(offset, OFF_STRINGFLDS, GAME, &data[0]);
    object->addrNextObj = (data[OFF_NEXTOBJ]<<8|data[OFF_NEXTOBJ+1])+L_BOILER;
    object->addrNextLvl = (data[OFF_NEXTLVL]<<8|data[OFF_NEXTLVL+1])+L_BOILER;
    for (uint8_t x=0; x<BYTE_FIELDS_LEN; ++x){
    191e:	e8 17       	cp	r30, r24
    1920:	f9 07       	cpc	r31, r25
    1922:	d9 f7       	brne	.-10     	; 0x191a <PopulateObject+0x5a>
        object->byteField[x]=data[x+OFF_BYTEFLDS];
    }

    //Find out where all of the strings begin and how long they are
    offset += OFF_STRINGFLDS;
    1924:	fc e2       	ldi	r31, 0x2C	; 44
    1926:	ef 0e       	add	r14, r31
    1928:	f1 1c       	adc	r15, r1
    192a:	58 01       	movw	r10, r16
    for(uint8_t x=0; x<STRING_FIELDS_LEN; ++x){
    192c:	d1 2c       	mov	r13, r1
        
        //Determine length
        ExtEERead(offset, 3, GAME, &data[0]);
    192e:	9e 01       	movw	r18, r28
    1930:	2f 5f       	subi	r18, 0xFF	; 255
    1932:	3f 4f       	sbci	r19, 0xFF	; 255
    1934:	40 e0       	ldi	r20, 0x00	; 0
    1936:	63 e0       	ldi	r22, 0x03	; 3
    1938:	c7 01       	movw	r24, r14
    193a:	b7 de       	rcall	.-658    	; 0x16aa <ExtEERead>
    193c:	89 81       	ldd	r24, Y+1	; 0x01
    193e:	9a 81       	ldd	r25, Y+2	; 0x02
    1940:	98 27       	eor	r25, r24
    1942:	89 27       	eor	r24, r25
    1944:	98 27       	eor	r25, r24
        parStr = (data[0]<<8|data[1]);
        offset += 2;
    1946:	97 01       	movw	r18, r14
    1948:	2e 5f       	subi	r18, 0xFE	; 254
    194a:	3f 4f       	sbci	r19, 0xFF	; 255
        if (x >= OPEN_ACL_MSG){
    194c:	43 e0       	ldi	r20, 0x03	; 3
    194e:	4d 15       	cp	r20, r13
    1950:	80 f4       	brcc	.+32     	; 0x1972 <PopulateObject+0xb2>
            object->lenStr[x]= parStr-1;
    1952:	ac 01       	movw	r20, r24
    1954:	41 50       	subi	r20, 0x01	; 1
    1956:	51 09       	sbc	r21, r1
    1958:	f8 01       	movw	r30, r16
    195a:	42 8f       	std	Z+26, r20	; 0x1a
    195c:	53 8f       	std	Z+27, r21	; 0x1b
            object->addrStr[x]=offset+1;
    195e:	f3 e0       	ldi	r31, 0x03	; 3
    1960:	ef 0e       	add	r14, r31
    1962:	f1 1c       	adc	r15, r1
    1964:	f8 01       	movw	r30, r16
    1966:	e4 86       	std	Z+12, r14	; 0x0c
    1968:	f5 86       	std	Z+13, r15	; 0x0d
            object->effect[x-OPEN_ACL_MSG] = data[2];
    196a:	4b 81       	ldd	r20, Y+3	; 0x03
    196c:	f5 01       	movw	r30, r10
    196e:	44 a3       	std	Z+36, r20	; 0x24
    1970:	05 c0       	rjmp	.+10     	; 0x197c <PopulateObject+0xbc>
        } else {
            object->lenStr[x]= parStr;
    1972:	f8 01       	movw	r30, r16
    1974:	82 8f       	std	Z+26, r24	; 0x1a
    1976:	93 8f       	std	Z+27, r25	; 0x1b
            object->addrStr[x]=offset;
    1978:	24 87       	std	Z+12, r18	; 0x0c
    197a:	35 87       	std	Z+13, r19	; 0x0d
        }
        
        //Determine string start location for next field
        offset += parStr;
    197c:	7c 01       	movw	r14, r24
    197e:	e2 0e       	add	r14, r18
    1980:	f3 1e       	adc	r15, r19
        object->byteField[x]=data[x+OFF_BYTEFLDS];
    }

    //Find out where all of the strings begin and how long they are
    offset += OFF_STRINGFLDS;
    for(uint8_t x=0; x<STRING_FIELDS_LEN; ++x){
    1982:	d3 94       	inc	r13
    1984:	0e 5f       	subi	r16, 0xFE	; 254
    1986:	1f 4f       	sbci	r17, 0xFF	; 255
    1988:	ff ef       	ldi	r31, 0xFF	; 255
    198a:	af 1a       	sub	r10, r31
    198c:	bf 0a       	sbc	r11, r31
    198e:	47 e0       	ldi	r20, 0x07	; 7
    1990:	d4 12       	cpse	r13, r20
    1992:	cd cf       	rjmp	.-102    	; 0x192e <PopulateObject+0x6e>
        }
        
        //Determine string start location for next field
        offset += parStr;
    }    
}
    1994:	2c 96       	adiw	r28, 0x0c	; 12
    1996:	cd bf       	out	0x3d, r28	; 61
    1998:	de bf       	out	0x3e, r29	; 62
    199a:	df 91       	pop	r29
    199c:	cf 91       	pop	r28
    199e:	1f 91       	pop	r17
    19a0:	0f 91       	pop	r16
    19a2:	ff 90       	pop	r15
    19a4:	ef 90       	pop	r14
    19a6:	df 90       	pop	r13
    19a8:	bf 90       	pop	r11
    19aa:	af 90       	pop	r10
    19ac:	08 95       	ret

000019ae <CheckLetter>:

//Check if the entered letter corresponds with a name
uint8_t CheckLetter(uint16_t object, uint8_t letter){
    19ae:	cf 92       	push	r12
    19b0:	df 92       	push	r13
    19b2:	ef 92       	push	r14
    19b4:	ff 92       	push	r15
    19b6:	0f 93       	push	r16
    19b8:	1f 93       	push	r17
    19ba:	cf 93       	push	r28
    19bc:	df 93       	push	r29
    19be:	cd b7       	in	r28, 0x3d	; 61
    19c0:	de b7       	in	r29, 0x3e	; 62
    19c2:	a0 97       	sbiw	r28, 0x20	; 32
    19c4:	cd bf       	out	0x3d, r28	; 61
    19c6:	de bf       	out	0x3e, r29	; 62
    19c8:	c6 2e       	mov	r12, r22
    
    uint8_t found = 0;
    uint8_t data[32];

    object += L_BOILER;
    19ca:	7c 01       	movw	r14, r24
    19cc:	20 e2       	ldi	r18, 0x20	; 32
    19ce:	e2 0e       	add	r14, r18
    19d0:	f1 1c       	adc	r15, r1
    ExtEERead(object+OFF_STRINGFLDS, 2, GAME, &data[0]);
    19d2:	9e 01       	movw	r18, r28
    19d4:	2f 5f       	subi	r18, 0xFF	; 255
    19d6:	3f 4f       	sbci	r19, 0xFF	; 255
    19d8:	40 e0       	ldi	r20, 0x00	; 0
    19da:	62 e0       	ldi	r22, 0x02	; 2
    19dc:	8c 96       	adiw	r24, 0x2c	; 44
    19de:	65 de       	rcall	.-822    	; 0x16aa <ExtEERead>
    uint8_t x = data[1]; //Assuming a name is not longer than 255 characters.
    19e0:	1a 81       	ldd	r17, Y+2	; 0x02
}

//Check if the entered letter corresponds with a name
uint8_t CheckLetter(uint16_t object, uint8_t letter){
    
    uint8_t found = 0;
    19e2:	d1 2c       	mov	r13, r1

    object += L_BOILER;
    ExtEERead(object+OFF_STRINGFLDS, 2, GAME, &data[0]);
    uint8_t x = data[1]; //Assuming a name is not longer than 255 characters.

    while (x){
    19e4:	11 23       	and	r17, r17
    19e6:	51 f1       	breq	.+84     	; 0x1a3c <CheckLetter+0x8e>
    19e8:	01 2f       	mov	r16, r17
    19ea:	11 32       	cpi	r17, 0x21	; 33
    19ec:	08 f0       	brcs	.+2      	; 0x19f0 <CheckLetter+0x42>
    19ee:	00 e2       	ldi	r16, 0x20	; 32
        uint8_t max;
        if (x>32) max = 32; else max = x;
        ExtEERead(object+OFF_STRINGFLDS+2, max, GAME, &data[0]);
    19f0:	9e 01       	movw	r18, r28
    19f2:	2f 5f       	subi	r18, 0xFF	; 255
    19f4:	3f 4f       	sbci	r19, 0xFF	; 255
    19f6:	40 e0       	ldi	r20, 0x00	; 0
    19f8:	60 2f       	mov	r22, r16
    19fa:	c7 01       	movw	r24, r14
    19fc:	0e 96       	adiw	r24, 0x0e	; 14
    19fe:	55 de       	rcall	.-854    	; 0x16aa <ExtEERead>
    1a00:	fe 01       	movw	r30, r28
    1a02:	31 96       	adiw	r30, 0x01	; 1
        for (uint8_t y=0; y<max; ++y){
    1a04:	80 e0       	ldi	r24, 0x00	; 0
            if (found){
    1a06:	dd 20       	and	r13, r13
    1a08:	61 f0       	breq	.+24     	; 0x1a22 <CheckLetter+0x74>
                if ((data[y]|0x20) == letter) return 1; else return 0;
    1a0a:	e1 e0       	ldi	r30, 0x01	; 1
    1a0c:	f0 e0       	ldi	r31, 0x00	; 0
    1a0e:	ec 0f       	add	r30, r28
    1a10:	fd 1f       	adc	r31, r29
    1a12:	e8 0f       	add	r30, r24
    1a14:	f1 1d       	adc	r31, r1
    1a16:	90 81       	ld	r25, Z
    1a18:	90 62       	ori	r25, 0x20	; 32
    1a1a:	81 e0       	ldi	r24, 0x01	; 1
    1a1c:	9c 11       	cpse	r25, r12
    1a1e:	0e c0       	rjmp	.+28     	; 0x1a3c <CheckLetter+0x8e>
    1a20:	0e c0       	rjmp	.+28     	; 0x1a3e <CheckLetter+0x90>
            }
            if (data[y] == '[') found = 1;
    1a22:	91 91       	ld	r25, Z+
    1a24:	dd 24       	eor	r13, r13
    1a26:	d3 94       	inc	r13
    1a28:	9b 35       	cpi	r25, 0x5B	; 91
    1a2a:	09 f0       	breq	.+2      	; 0x1a2e <CheckLetter+0x80>
    1a2c:	d1 2c       	mov	r13, r1

    while (x){
        uint8_t max;
        if (x>32) max = 32; else max = x;
        ExtEERead(object+OFF_STRINGFLDS+2, max, GAME, &data[0]);
        for (uint8_t y=0; y<max; ++y){
    1a2e:	8f 5f       	subi	r24, 0xFF	; 255
    1a30:	80 17       	cp	r24, r16
    1a32:	48 f3       	brcs	.-46     	; 0x1a06 <CheckLetter+0x58>
            if (found){
                if ((data[y]|0x20) == letter) return 1; else return 0;
            }
            if (data[y] == '[') found = 1;
        }
        object += max;
    1a34:	e0 0e       	add	r14, r16
    1a36:	f1 1c       	adc	r15, r1
        x -= max;
    1a38:	10 1b       	sub	r17, r16
    1a3a:	d4 cf       	rjmp	.-88     	; 0x19e4 <CheckLetter+0x36>
    }
    return 0;
    1a3c:	80 e0       	ldi	r24, 0x00	; 0
}
    1a3e:	a0 96       	adiw	r28, 0x20	; 32
    1a40:	cd bf       	out	0x3d, r28	; 61
    1a42:	de bf       	out	0x3e, r29	; 62
    1a44:	df 91       	pop	r29
    1a46:	cf 91       	pop	r28
    1a48:	1f 91       	pop	r17
    1a4a:	0f 91       	pop	r16
    1a4c:	ff 90       	pop	r15
    1a4e:	ef 90       	pop	r14
    1a50:	df 90       	pop	r13
    1a52:	cf 90       	pop	r12
    1a54:	08 95       	ret

00001a56 <FindChild>:

//Returns the child's address if the child is visible and the search letter matches
uint16_t FindChild(uint16_t parent, uint8_t letter, uint16_t start){
    1a56:	af 92       	push	r10
    1a58:	bf 92       	push	r11
    1a5a:	df 92       	push	r13
    1a5c:	ef 92       	push	r14
    1a5e:	ff 92       	push	r15
    1a60:	0f 93       	push	r16
    1a62:	1f 93       	push	r17
    1a64:	cf 93       	push	r28
    1a66:	df 93       	push	r29
    1a68:	00 d0       	rcall	.+0      	; 0x1a6a <FindChild+0x14>
    1a6a:	00 d0       	rcall	.+0      	; 0x1a6c <FindChild+0x16>
    1a6c:	cd b7       	in	r28, 0x3d	; 61
    1a6e:	de b7       	in	r29, 0x3e	; 62
    1a70:	d6 2e       	mov	r13, r22
    1a72:	5a 01       	movw	r10, r20
    
    uint16_t child = parent;
    uint8_t data[4];

    ExtEERead(child+L_BOILER, 4, GAME, &data[0]);
    1a74:	9e 01       	movw	r18, r28
    1a76:	2f 5f       	subi	r18, 0xFF	; 255
    1a78:	3f 4f       	sbci	r19, 0xFF	; 255
    1a7a:	40 e0       	ldi	r20, 0x00	; 0
    1a7c:	64 e0       	ldi	r22, 0x04	; 4
    1a7e:	80 96       	adiw	r24, 0x20	; 32
    1a80:	14 de       	rcall	.-984    	; 0x16aa <ExtEERead>
    1a82:	e9 80       	ldd	r14, Y+1	; 0x01
    1a84:	fa 80       	ldd	r15, Y+2	; 0x02
    1a86:	fe 24       	eor	r15, r14
    1a88:	ef 24       	eor	r14, r15
    1a8a:	fe 24       	eor	r15, r14
    1a8c:	0b 81       	ldd	r16, Y+3	; 0x03
    1a8e:	1c 81       	ldd	r17, Y+4	; 0x04
    1a90:	10 27       	eor	r17, r16
    1a92:	01 27       	eor	r16, r17
    1a94:	10 27       	eor	r17, r16
    parent = (data[0]<<8|data[1]);    //Next object on parent level
    child =  (data[2]<<8|data[3]);    //First object on child level

    //As long as the child is within the parent's range
    while (parent>child){
    1a96:	0e 15       	cp	r16, r14
    1a98:	1f 05       	cpc	r17, r15
    1a9a:	30 f5       	brcc	.+76     	; 0x1ae8 <FindChild+0x92>

        //If child's address is higher than the start address, perform search for letter
        if (child>start){
    1a9c:	a0 16       	cp	r10, r16
    1a9e:	b1 06       	cpc	r11, r17
    1aa0:	58 f0       	brcs	.+22     	; 0x1ab8 <FindChild+0x62>
                if ((letter == 0)||(CheckLetter(child, letter))) return child;
            }
        }

        //Not visible or name not right
        ExtEERead(child+L_BOILER, 2, GAME, &data[0]);
    1aa2:	9e 01       	movw	r18, r28
    1aa4:	2f 5f       	subi	r18, 0xFF	; 255
    1aa6:	3f 4f       	sbci	r19, 0xFF	; 255
    1aa8:	40 e0       	ldi	r20, 0x00	; 0
    1aaa:	62 e0       	ldi	r22, 0x02	; 2
    1aac:	c8 01       	movw	r24, r16
    1aae:	80 96       	adiw	r24, 0x20	; 32
    1ab0:	fc dd       	rcall	.-1032   	; 0x16aa <ExtEERead>
    1ab2:	09 81       	ldd	r16, Y+1	; 0x01
    1ab4:	1a 81       	ldd	r17, Y+2	; 0x02
    1ab6:	ec cf       	rjmp	.-40     	; 0x1a90 <FindChild+0x3a>
    //As long as the child is within the parent's range
    while (parent>child){

        //If child's address is higher than the start address, perform search for letter
        if (child>start){
            ExtEERead(child+OFF_BYTEFLDS+VISIBLE_ACL+L_BOILER, 1, GAME, &data[0]);
    1ab8:	9e 01       	movw	r18, r28
    1aba:	2f 5f       	subi	r18, 0xFF	; 255
    1abc:	3f 4f       	sbci	r19, 0xFF	; 255
    1abe:	40 e0       	ldi	r20, 0x00	; 0
    1ac0:	61 e0       	ldi	r22, 0x01	; 1
    1ac2:	c8 01       	movw	r24, r16
    1ac4:	85 96       	adiw	r24, 0x25	; 37
    1ac6:	f1 dd       	rcall	.-1054   	; 0x16aa <ExtEERead>
            if ((data[0] == 0)||(CheckState(data[0]))) {
    1ac8:	89 81       	ldd	r24, Y+1	; 0x01
    1aca:	81 11       	cpse	r24, r1
    1acc:	03 c0       	rjmp	.+6      	; 0x1ad4 <FindChild+0x7e>
                if ((letter == 0)||(CheckLetter(child, letter))) return child;
    1ace:	d1 10       	cpse	r13, r1
    1ad0:	05 c0       	rjmp	.+10     	; 0x1adc <FindChild+0x86>
    while (parent>child){

        //If child's address is higher than the start address, perform search for letter
        if (child>start){
            ExtEERead(child+OFF_BYTEFLDS+VISIBLE_ACL+L_BOILER, 1, GAME, &data[0]);
            if ((data[0] == 0)||(CheckState(data[0]))) {
    1ad2:	0d c0       	rjmp	.+26     	; 0x1aee <FindChild+0x98>
    1ad4:	9a db       	rcall	.-2252   	; 0x120a <CheckState>
    1ad6:	81 11       	cpse	r24, r1
    1ad8:	fa cf       	rjmp	.-12     	; 0x1ace <FindChild+0x78>
                if ((letter == 0)||(CheckLetter(child, letter))) return child;
    1ada:	e3 cf       	rjmp	.-58     	; 0x1aa2 <FindChild+0x4c>
    1adc:	6d 2d       	mov	r22, r13
    1ade:	c8 01       	movw	r24, r16
    1ae0:	66 df       	rcall	.-308    	; 0x19ae <CheckLetter>
    1ae2:	88 23       	and	r24, r24
    1ae4:	f1 f2       	breq	.-68     	; 0x1aa2 <FindChild+0x4c>
    1ae6:	03 c0       	rjmp	.+6      	; 0x1aee <FindChild+0x98>

        //Not visible or name not right
        ExtEERead(child+L_BOILER, 2, GAME, &data[0]);
        child = (data[0]<<8|data[1]);    //Next object on child level
        
    } return 0;
    1ae8:	80 e0       	ldi	r24, 0x00	; 0
    1aea:	90 e0       	ldi	r25, 0x00	; 0
    1aec:	01 c0       	rjmp	.+2      	; 0x1af0 <FindChild+0x9a>
    1aee:	c8 01       	movw	r24, r16
}
    1af0:	24 96       	adiw	r28, 0x04	; 4
    1af2:	cd bf       	out	0x3d, r28	; 61
    1af4:	de bf       	out	0x3e, r29	; 62
    1af6:	df 91       	pop	r29
    1af8:	cf 91       	pop	r28
    1afa:	1f 91       	pop	r17
    1afc:	0f 91       	pop	r16
    1afe:	ff 90       	pop	r15
    1b00:	ef 90       	pop	r14
    1b02:	df 90       	pop	r13
    1b04:	bf 90       	pop	r11
    1b06:	af 90       	pop	r10
    1b08:	08 95       	ret

00001b0a <InpOkChk>:

//Allow only a(A) to z(Z) and 0 to 9 as input
uint8_t InpOkChk(uint8_t test){
    test |= 0x20;
    1b0a:	80 62       	ori	r24, 0x20	; 32
    if ((test>='a')&&(test<='z')) return 1;
    1b0c:	9f e9       	ldi	r25, 0x9F	; 159
    1b0e:	98 0f       	add	r25, r24
    1b10:	9a 31       	cpi	r25, 0x1A	; 26
    1b12:	38 f0       	brcs	.+14     	; 0x1b22 <InpOkChk+0x18>
    1b14:	90 ed       	ldi	r25, 0xD0	; 208
    1b16:	98 0f       	add	r25, r24
    1b18:	81 e0       	ldi	r24, 0x01	; 1
    1b1a:	9a 30       	cpi	r25, 0x0A	; 10
    1b1c:	18 f0       	brcs	.+6      	; 0x1b24 <InpOkChk+0x1a>
    1b1e:	80 e0       	ldi	r24, 0x00	; 0
    1b20:	08 95       	ret
    1b22:	81 e0       	ldi	r24, 0x01	; 1
    if ((test>='0')&&(test<='9')) return 1;
    return 0;
}
    1b24:	08 95       	ret

00001b26 <CleanInput>:

//Cleans input of garbage and returns length of cleaned input "o->d2  !\0" becomes "od2\0"
uint8_t CleanInput(uint8_t *data){
    1b26:	0f 93       	push	r16
    1b28:	1f 93       	push	r17
    1b2a:	cf 93       	push	r28
    1b2c:	df 93       	push	r29
    1b2e:	8c 01       	movw	r16, r24
    uint8_t cnt = 0;
    for (uint8_t x=0; data[x]!=0; ++x){
    1b30:	d0 e0       	ldi	r29, 0x00	; 0
    return 0;
}

//Cleans input of garbage and returns length of cleaned input "o->d2  !\0" becomes "od2\0"
uint8_t CleanInput(uint8_t *data){
    uint8_t cnt = 0;
    1b32:	c0 e0       	ldi	r28, 0x00	; 0
    for (uint8_t x=0; data[x]!=0; ++x){
    1b34:	f8 01       	movw	r30, r16
    1b36:	ed 0f       	add	r30, r29
    1b38:	f1 1d       	adc	r31, r1
    1b3a:	20 81       	ld	r18, Z
    1b3c:	8c 2f       	mov	r24, r28
    1b3e:	90 e0       	ldi	r25, 0x00	; 0
    1b40:	22 23       	and	r18, r18
    1b42:	51 f0       	breq	.+20     	; 0x1b58 <CleanInput+0x32>
        data[cnt] = data[x];
    1b44:	d8 01       	movw	r26, r16
    1b46:	a8 0f       	add	r26, r24
    1b48:	b9 1f       	adc	r27, r25
    1b4a:	2c 93       	st	X, r18
        if (InpOkChk(data[x])) ++cnt;
    1b4c:	80 81       	ld	r24, Z
    1b4e:	dd df       	rcall	.-70     	; 0x1b0a <InpOkChk>
    1b50:	81 11       	cpse	r24, r1
    1b52:	cf 5f       	subi	r28, 0xFF	; 255
}

//Cleans input of garbage and returns length of cleaned input "o->d2  !\0" becomes "od2\0"
uint8_t CleanInput(uint8_t *data){
    uint8_t cnt = 0;
    for (uint8_t x=0; data[x]!=0; ++x){
    1b54:	df 5f       	subi	r29, 0xFF	; 255
    1b56:	ee cf       	rjmp	.-36     	; 0x1b34 <CleanInput+0xe>
        data[cnt] = data[x];
        if (InpOkChk(data[x])) ++cnt;
    }
    data[cnt] = 0;
    1b58:	f8 01       	movw	r30, r16
    1b5a:	e8 0f       	add	r30, r24
    1b5c:	f9 1f       	adc	r31, r25
    1b5e:	10 82       	st	Z, r1
    return cnt;
}
    1b60:	8c 2f       	mov	r24, r28
    1b62:	df 91       	pop	r29
    1b64:	cf 91       	pop	r28
    1b66:	1f 91       	pop	r17
    1b68:	0f 91       	pop	r16
    1b6a:	08 95       	ret

00001b6c <CheckSend>:

//Send routine, optimized for low memory usage
uint8_t CheckSend(){
    1b6c:	cf 93       	push	r28
    static uint8_t txPart;
    uint8_t EEreadLength=0;

    //Play effects if available and not already playing
    if (effect == 0){
    1b6e:	80 91 2d 38 	lds	r24, 0x382D	; 0x80382d <effect>
    1b72:	90 91 2e 38 	lds	r25, 0x382E	; 0x80382e <effect+0x1>
    1b76:	89 2b       	or	r24, r25
    1b78:	99 f4       	brne	.+38     	; 0x1ba0 <CheckSend+0x34>
        effect = currObj.byteField[EFFECTS];
    1b7a:	80 91 f8 39 	lds	r24, 0x39F8	; 0x8039f8 <currObj+0x4>
    1b7e:	90 e0       	ldi	r25, 0x00	; 0
    1b80:	80 93 2d 38 	sts	0x382D, r24	; 0x80382d <effect>
    1b84:	90 93 2e 38 	sts	0x382E, r25	; 0x80382e <effect+0x1>
        auStart = ((effect&0xE0)>0);
    1b88:	80 91 2d 38 	lds	r24, 0x382D	; 0x80382d <effect>
    1b8c:	90 91 2e 38 	lds	r25, 0x382E	; 0x80382e <effect+0x1>
    1b90:	80 7e       	andi	r24, 0xE0	; 224
    1b92:	99 27       	eor	r25, r25
    1b94:	21 e0       	ldi	r18, 0x01	; 1
    1b96:	89 2b       	or	r24, r25
    1b98:	09 f4       	brne	.+2      	; 0x1b9c <CheckSend+0x30>
    1b9a:	20 e0       	ldi	r18, 0x00	; 0
    1b9c:	20 93 2c 38 	sts	0x382C, r18	; 0x80382c <auStart>
    }

    //Check if more string(part)s have to be sent to the serial output if previous send operation is completed
    if ((txAddrNow < TXLISTLEN) && serTxDone){
    1ba0:	20 91 20 3a 	lds	r18, 0x3A20	; 0x803a20 <txAddrNow>
    1ba4:	28 30       	cpi	r18, 0x08	; 8
    1ba6:	08 f0       	brcs	.+2      	; 0x1baa <CheckSend+0x3e>
    1ba8:	47 c0       	rjmp	.+142    	; 0x1c38 <CheckSend+0xcc>
    1baa:	80 91 08 38 	lds	r24, 0x3808	; 0x803808 <serTxDone>
    1bae:	88 23       	and	r24, r24
    1bb0:	09 f4       	brne	.+2      	; 0x1bb4 <CheckSend+0x48>
    1bb2:	42 c0       	rjmp	.+132    	; 0x1c38 <CheckSend+0xcc>
        if (txStrLen[txAddrNow] == 0){
    1bb4:	82 2f       	mov	r24, r18
    1bb6:	90 e0       	ldi	r25, 0x00	; 0
    1bb8:	fc 01       	movw	r30, r24
    1bba:	ef 5d       	subi	r30, 0xDF	; 223
    1bbc:	f5 4c       	sbci	r31, 0xC5	; 197
    1bbe:	e0 81       	ld	r30, Z
    1bc0:	e1 11       	cpse	r30, r1
    1bc2:	06 c0       	rjmp	.+12     	; 0x1bd0 <CheckSend+0x64>
            txPart = 0;
    1bc4:	10 92 e1 38 	sts	0x38E1, r1	; 0x8038e1 <txPart.3937>
            txAddrNow = TXLISTLEN;
    1bc8:	88 e0       	ldi	r24, 0x08	; 8
    1bca:	80 93 20 3a 	sts	0x3A20, r24	; 0x803a20 <txAddrNow>
    1bce:	2c c0       	rjmp	.+88     	; 0x1c28 <CheckSend+0xbc>
        } else if (txPart < txStrLen[txAddrNow]){
    1bd0:	50 91 e1 38 	lds	r21, 0x38E1	; 0x8038e1 <txPart.3937>
    1bd4:	5e 17       	cp	r21, r30
    1bd6:	50 f5       	brcc	.+84     	; 0x1c2c <CheckSend+0xc0>
            EEreadLength = txStrLen[txAddrNow]-txPart;
    1bd8:	ce 2f       	mov	r28, r30
    1bda:	c5 1b       	sub	r28, r21
    1bdc:	c1 32       	cpi	r28, 0x21	; 33
    1bde:	08 f0       	brcs	.+2      	; 0x1be2 <CheckSend+0x76>
    1be0:	c0 e2       	ldi	r28, 0x20	; 32
            if (EEreadLength>=TXLEN) EEreadLength = TXLEN-1;
            ExtEERead(txAddrList[txAddrNow]+txPart, EEreadLength, txTypeNow, &txBuffer[0]);
    1be2:	88 0f       	add	r24, r24
    1be4:	99 1f       	adc	r25, r25
    1be6:	fc 01       	movw	r30, r24
    1be8:	e7 5d       	subi	r30, 0xD7	; 215
    1bea:	f5 4c       	sbci	r31, 0xC5	; 197
    1bec:	80 81       	ld	r24, Z
    1bee:	91 81       	ldd	r25, Z+1	; 0x01
    1bf0:	2a ee       	ldi	r18, 0xEA	; 234
    1bf2:	3a e3       	ldi	r19, 0x3A	; 58
    1bf4:	40 91 1f 3a 	lds	r20, 0x3A1F	; 0x803a1f <txTypeNow>
    1bf8:	6c 2f       	mov	r22, r28
    1bfa:	85 0f       	add	r24, r21
    1bfc:	91 1d       	adc	r25, r1
    1bfe:	55 dd       	rcall	.-1366   	; 0x16aa <ExtEERead>
            txPart += EEreadLength;
    1c00:	80 91 e1 38 	lds	r24, 0x38E1	; 0x8038e1 <txPart.3937>
    1c04:	8c 0f       	add	r24, r28
    1c06:	80 93 e1 38 	sts	0x38E1, r24	; 0x8038e1 <txPart.3937>
            txBuffer[EEreadLength] = 0; //Add string terminator after piece to send to plug memory leak
    1c0a:	ec 2f       	mov	r30, r28
    1c0c:	f0 e0       	ldi	r31, 0x00	; 0
    1c0e:	e6 51       	subi	r30, 0x16	; 22
    1c10:	f5 4c       	sbci	r31, 0xC5	; 197
    1c12:	10 82       	st	Z, r1
            if ((txBuffer[0] == 0) && (EEreadLength)) txBuffer[0] = 0xDB; //Block character when data wrong.
    1c14:	80 91 ea 3a 	lds	r24, 0x3AEA	; 0x803aea <txBuffer>
    1c18:	81 11       	cpse	r24, r1
    1c1a:	03 c0       	rjmp	.+6      	; 0x1c22 <CheckSend+0xb6>
    1c1c:	8b ed       	ldi	r24, 0xDB	; 219
    1c1e:	80 93 ea 3a 	sts	0x3AEA, r24	; 0x803aea <txBuffer>
            SerSend(&txBuffer[0]);
    1c22:	8a ee       	ldi	r24, 0xEA	; 234
    1c24:	9a e3       	ldi	r25, 0x3A	; 58
    1c26:	27 d9       	rcall	.-3506   	; 0xe76 <SerSend>
        } else {
            txPart = 0;
            ++txAddrNow;
        }
    } else if (serTxDone) return 0; //All is sent!
    return 1; //Still sending, do not change the data in the tx variables
    1c28:	81 e0       	ldi	r24, 0x01	; 1
    1c2a:	0b c0       	rjmp	.+22     	; 0x1c42 <CheckSend+0xd6>
            txPart += EEreadLength;
            txBuffer[EEreadLength] = 0; //Add string terminator after piece to send to plug memory leak
            if ((txBuffer[0] == 0) && (EEreadLength)) txBuffer[0] = 0xDB; //Block character when data wrong.
            SerSend(&txBuffer[0]);
        } else {
            txPart = 0;
    1c2c:	10 92 e1 38 	sts	0x38E1, r1	; 0x8038e1 <txPart.3937>
            ++txAddrNow;
    1c30:	2f 5f       	subi	r18, 0xFF	; 255
    1c32:	20 93 20 3a 	sts	0x3A20, r18	; 0x803a20 <txAddrNow>
    1c36:	f8 cf       	rjmp	.-16     	; 0x1c28 <CheckSend+0xbc>
        }
    } else if (serTxDone) return 0; //All is sent!
    1c38:	90 91 08 38 	lds	r25, 0x3808	; 0x803808 <serTxDone>
    1c3c:	81 e0       	ldi	r24, 0x01	; 1
    1c3e:	91 11       	cpse	r25, r1
    1c40:	80 e0       	ldi	r24, 0x00	; 0
    return 1; //Still sending, do not change the data in the tx variables
}
    1c42:	cf 91       	pop	r28
    1c44:	08 95       	ret

00001c46 <CheckResponse>:

//Send another part of the response and play the effect afterwards
uint8_t CheckResponse(){
    1c46:	cf 93       	push	r28
    1c48:	df 93       	push	r29
    static uint8_t number = 0;
    if (responseList){
    1c4a:	c0 91 f3 38 	lds	r28, 0x38F3	; 0x8038f3 <responseList>
    1c4e:	cc 23       	and	r28, r28
    1c50:	e9 f1       	breq	.+122    	; 0x1ccc <CheckResponse+0x86>
        --responseList;
    1c52:	c1 50       	subi	r28, 0x01	; 1
    1c54:	c0 93 f3 38 	sts	0x38F3, r28	; 0x8038f3 <responseList>
        if (reactStr[0][number] == CURR_LOC) {
    1c58:	d0 91 e0 38 	lds	r29, 0x38E0	; 0x8038e0 <number.3941>
    1c5c:	2d 2f       	mov	r18, r29
    1c5e:	30 e0       	ldi	r19, 0x00	; 0
    1c60:	f9 01       	movw	r30, r18
    1c62:	ee 0f       	add	r30, r30
    1c64:	ff 1f       	adc	r31, r31
    1c66:	ec 50       	subi	r30, 0x0C	; 12
    1c68:	f7 4c       	sbci	r31, 0xC7	; 199
    1c6a:	80 81       	ld	r24, Z
    1c6c:	91 81       	ldd	r25, Z+1	; 0x01
    1c6e:	80 3f       	cpi	r24, 0xF0	; 240
    1c70:	4f ef       	ldi	r20, 0xFF	; 255
    1c72:	94 07       	cpc	r25, r20
    1c74:	51 f4       	brne	.+20     	; 0x1c8a <CheckResponse+0x44>
            PrepareSending(currObj.addrStr[NAME], currObj.lenStr[NAME], GAME);
    1c76:	60 91 0e 3a 	lds	r22, 0x3A0E	; 0x803a0e <currObj+0x1a>
    1c7a:	70 91 0f 3a 	lds	r23, 0x3A0F	; 0x803a0f <currObj+0x1b>
    1c7e:	40 e0       	ldi	r20, 0x00	; 0
    1c80:	80 91 00 3a 	lds	r24, 0x3A00	; 0x803a00 <currObj+0xc>
    1c84:	90 91 01 3a 	lds	r25, 0x3A01	; 0x803a01 <currObj+0xd>
    1c88:	0d c0       	rjmp	.+26     	; 0x1ca4 <CheckResponse+0x5e>
        } else {
            PrepareSending(reactStr[0][number], reactStr[1][number], reactStr[2][number]);
    1c8a:	d9 01       	movw	r26, r18
    1c8c:	aa 0f       	add	r26, r26
    1c8e:	bb 1f       	adc	r27, r27
    1c90:	ac 58       	subi	r26, 0x8C	; 140
    1c92:	b6 4c       	sbci	r27, 0xC6	; 198
    1c94:	22 0f       	add	r18, r18
    1c96:	33 1f       	adc	r19, r19
    1c98:	f9 01       	movw	r30, r18
    1c9a:	ec 5c       	subi	r30, 0xCC	; 204
    1c9c:	f6 4c       	sbci	r31, 0xC6	; 198
    1c9e:	60 81       	ld	r22, Z
    1ca0:	71 81       	ldd	r23, Z+1	; 0x01
    1ca2:	4c 91       	ld	r20, X
    1ca4:	59 dd       	rcall	.-1358   	; 0x1758 <PrepareSending>
        }
        ++number;
    1ca6:	df 5f       	subi	r29, 0xFF	; 255
    1ca8:	d0 93 e0 38 	sts	0x38E0, r29	; 0x8038e0 <number.3941>

        if (responseList == 0) {
    1cac:	c1 11       	cpse	r28, r1
    1cae:	0d c0       	rjmp	.+26     	; 0x1cca <CheckResponse+0x84>
            effect = currObj.byteField[EFFECTS];
    1cb0:	80 91 f8 39 	lds	r24, 0x39F8	; 0x8039f8 <currObj+0x4>
    1cb4:	90 e0       	ldi	r25, 0x00	; 0
    1cb6:	80 93 2d 38 	sts	0x382D, r24	; 0x80382d <effect>
    1cba:	90 93 2e 38 	sts	0x382E, r25	; 0x80382e <effect+0x1>
            RXCNT = 0;
    1cbe:	1d ba       	out	0x1d, r1	; 29
            serRxDone = 0;
    1cc0:	10 92 37 38 	sts	0x3837, r1	; 0x803837 <serRxDone>
            number = 0;
    1cc4:	10 92 e0 38 	sts	0x38E0, r1	; 0x8038e0 <number.3941>
    1cc8:	01 c0       	rjmp	.+2      	; 0x1ccc <CheckResponse+0x86>
            return 0;
        }
        return 1;
    1cca:	c1 e0       	ldi	r28, 0x01	; 1
    }
    return 0;
}
    1ccc:	8c 2f       	mov	r24, r28
    1cce:	df 91       	pop	r29
    1cd0:	cf 91       	pop	r28
    1cd2:	08 95       	ret

00001cd4 <CheckInput>:

//User input check (and validation)
uint8_t CheckInput(uint8_t *data){
    1cd4:	4f 92       	push	r4
    1cd6:	5f 92       	push	r5
    1cd8:	6f 92       	push	r6
    1cda:	7f 92       	push	r7
    1cdc:	8f 92       	push	r8
    1cde:	9f 92       	push	r9
    1ce0:	af 92       	push	r10
    1ce2:	bf 92       	push	r11
    1ce4:	cf 92       	push	r12
    1ce6:	df 92       	push	r13
    1ce8:	ef 92       	push	r14
    1cea:	ff 92       	push	r15
    1cec:	0f 93       	push	r16
    1cee:	1f 93       	push	r17
    1cf0:	cf 93       	push	r28
    1cf2:	df 93       	push	r29
    1cf4:	cd b7       	in	r28, 0x3d	; 61
    1cf6:	de b7       	in	r29, 0x3e	; 62
    1cf8:	a1 97       	sbiw	r28, 0x21	; 33
    1cfa:	cd bf       	out	0x3d, r28	; 61
    1cfc:	de bf       	out	0x3e, r29	; 62
    1cfe:	8c 01       	movw	r16, r24
    
    //Load game data after reboot
    if (currDepth == 0xff) {
    1d00:	80 91 26 38 	lds	r24, 0x3826	; 0x803826 <currDepth>
    1d04:	8f 3f       	cpi	r24, 0xFF	; 255
    1d06:	49 f4       	brne	.+18     	; 0x1d1a <CheckInput+0x46>
        //Start at first location
        PopulateObject(route[0], &currObj);
    1d08:	64 ef       	ldi	r22, 0xF4	; 244
    1d0a:	79 e3       	ldi	r23, 0x39	; 57
    1d0c:	80 91 b4 39 	lds	r24, 0x39B4	; 0x8039b4 <route>
    1d10:	90 91 b5 39 	lds	r25, 0x39B5	; 0x8039b5 <route+0x1>
    1d14:	d5 dd       	rcall	.-1110   	; 0x18c0 <PopulateObject>
        currDepth = 0;
    1d16:	10 92 26 38 	sts	0x3826, r1	; 0x803826 <currDepth>
    }

    if (serRxDone){
    1d1a:	80 91 37 38 	lds	r24, 0x3837	; 0x803837 <serRxDone>
    1d1e:	88 23       	and	r24, r24
    1d20:	09 f4       	brne	.+2      	; 0x1d24 <CheckInput+0x50>
    1d22:	60 c2       	rjmp	.+1216   	; 0x21e4 <CheckInput+0x510>

        //Special input requested from user by game
        if (specialInput[0]){
    1d24:	80 91 e3 38 	lds	r24, 0x38E3	; 0x8038e3 <specialInput>
    1d28:	88 23       	and	r24, r24
    1d2a:	09 f4       	brne	.+2      	; 0x1d2e <CheckInput+0x5a>
    1d2c:	57 c0       	rjmp	.+174    	; 0x1ddc <CheckInput+0x108>
            specialPassed = 0;
    1d2e:	10 92 e2 38 	sts	0x38E2, r1	; 0x8038e2 <specialPassed>
            data[0] = 'a';
    1d32:	81 e6       	ldi	r24, 0x61	; 97
    1d34:	f8 01       	movw	r30, r16
    1d36:	80 83       	st	Z, r24
            
            //Normal code challenge
            if (StartsWith((uint8_t *)&serRx[0], &specialInput[0])) {
    1d38:	63 ee       	ldi	r22, 0xE3	; 227
    1d3a:	78 e3       	ldi	r23, 0x38	; 56
    1d3c:	8e e4       	ldi	r24, 0x4E	; 78
    1d3e:	9a e3       	ldi	r25, 0x3A	; 58
    1d40:	f1 dc       	rcall	.-1566   	; 0x1724 <StartsWith>
    1d42:	f8 2e       	mov	r15, r24
    1d44:	88 23       	and	r24, r24
    1d46:	21 f0       	breq	.+8      	; 0x1d50 <CheckInput+0x7c>
                specialPassed = 1;
    1d48:	81 e0       	ldi	r24, 0x01	; 1
    1d4a:	80 93 e2 38 	sts	0x38E2, r24	; 0x8038e2 <specialPassed>
    1d4e:	04 c0       	rjmp	.+8      	; 0x1d58 <CheckInput+0x84>
                //specialInput[0] = 0;
                //data[1] = 0;

            //Special challenge 1
            } else if ((specialInput[0] == '1')&&(specialInput[2] == 0)) {
    1d50:	80 91 e3 38 	lds	r24, 0x38E3	; 0x8038e3 <specialInput>
    1d54:	81 33       	cpi	r24, 0x31	; 49
    1d56:	11 f0       	breq	.+4      	; 0x1d5c <CheckInput+0x88>
                responseList = 32;
                return 1;
            }
        } 
        //Data received, but not any of the commands above
        return 0;
    1d58:	f1 2c       	mov	r15, r1
    1d5a:	46 c2       	rjmp	.+1164   	; 0x21e8 <CheckInput+0x514>
                specialPassed = 1;
                //specialInput[0] = 0;
                //data[1] = 0;

            //Special challenge 1
            } else if ((specialInput[0] == '1')&&(specialInput[2] == 0)) {
    1d5c:	80 91 e5 38 	lds	r24, 0x38E5	; 0x8038e5 <specialInput+0x2>
    1d60:	81 11       	cpse	r24, r1
    1d62:	fa cf       	rjmp	.-12     	; 0x1d58 <CheckInput+0x84>
                uint8_t inputLen = CleanInput((uint8_t *)&serRx[0]);
    1d64:	8e e4       	ldi	r24, 0x4E	; 78
    1d66:	9a e3       	ldi	r25, 0x3A	; 58
    1d68:	de de       	rcall	.-580    	; 0x1b26 <CleanInput>
                specialPassed = 2;
    1d6a:	92 e0       	ldi	r25, 0x02	; 2
    1d6c:	90 93 e2 38 	sts	0x38E2, r25	; 0x8038e2 <specialPassed>
                data[1] = 0;
    1d70:	f8 01       	movw	r30, r16
    1d72:	11 82       	std	Z+1, r1	; 0x01

                if (inputLen >= 2) {
    1d74:	82 30       	cpi	r24, 0x02	; 2
    1d76:	80 f3       	brcs	.-32     	; 0x1d58 <CheckInput+0x84>
                    if ((serRx[0] == '1')||(serRx[0] == '2')||(serRx[0] == '3')||(serRx[0] == '4')) {
    1d78:	80 91 4e 3a 	lds	r24, 0x3A4E	; 0x803a4e <serRx>
    1d7c:	81 33       	cpi	r24, 0x31	; 49
    1d7e:	61 f0       	breq	.+24     	; 0x1d98 <CheckInput+0xc4>
    1d80:	80 91 4e 3a 	lds	r24, 0x3A4E	; 0x803a4e <serRx>
    1d84:	82 33       	cpi	r24, 0x32	; 50
    1d86:	41 f0       	breq	.+16     	; 0x1d98 <CheckInput+0xc4>
    1d88:	80 91 4e 3a 	lds	r24, 0x3A4E	; 0x803a4e <serRx>
    1d8c:	83 33       	cpi	r24, 0x33	; 51
    1d8e:	21 f0       	breq	.+8      	; 0x1d98 <CheckInput+0xc4>
    1d90:	80 91 4e 3a 	lds	r24, 0x3A4E	; 0x803a4e <serRx>
    1d94:	84 33       	cpi	r24, 0x34	; 52
    1d96:	01 f7       	brne	.-64     	; 0x1d58 <CheckInput+0x84>
                        serRx[1] |= 0x20;
    1d98:	80 91 4f 3a 	lds	r24, 0x3A4F	; 0x803a4f <serRx+0x1>
    1d9c:	80 62       	ori	r24, 0x20	; 32
    1d9e:	80 93 4f 3a 	sts	0x3A4F, r24	; 0x803a4f <serRx+0x1>
                        if ((serRx[1] == 'a')||(serRx[1] == 'e')||(serRx[1] == 'f')||(serRx[1] == 'w')) {
    1da2:	80 91 4f 3a 	lds	r24, 0x3A4F	; 0x803a4f <serRx+0x1>
    1da6:	81 36       	cpi	r24, 0x61	; 97
    1da8:	61 f0       	breq	.+24     	; 0x1dc2 <CheckInput+0xee>
    1daa:	80 91 4f 3a 	lds	r24, 0x3A4F	; 0x803a4f <serRx+0x1>
    1dae:	85 36       	cpi	r24, 0x65	; 101
    1db0:	41 f0       	breq	.+16     	; 0x1dc2 <CheckInput+0xee>
    1db2:	80 91 4f 3a 	lds	r24, 0x3A4F	; 0x803a4f <serRx+0x1>
    1db6:	86 36       	cpi	r24, 0x66	; 102
    1db8:	21 f0       	breq	.+8      	; 0x1dc2 <CheckInput+0xee>
    1dba:	80 91 4f 3a 	lds	r24, 0x3A4F	; 0x803a4f <serRx+0x1>
    1dbe:	87 37       	cpi	r24, 0x77	; 119
    1dc0:	59 f6       	brne	.-106    	; 0x1d58 <CheckInput+0x84>
                            data[1] = specialInput[1]+0x11;
    1dc2:	80 91 e4 38 	lds	r24, 0x38E4	; 0x8038e4 <specialInput+0x1>
    1dc6:	8f 5e       	subi	r24, 0xEF	; 239
    1dc8:	f8 01       	movw	r30, r16
    1dca:	81 83       	std	Z+1, r24	; 0x01
                            data[2] = serRx[0];
    1dcc:	80 91 4e 3a 	lds	r24, 0x3A4E	; 0x803a4e <serRx>
    1dd0:	82 83       	std	Z+2, r24	; 0x02
                            data[3] = serRx[1];
    1dd2:	80 91 4f 3a 	lds	r24, 0x3A4F	; 0x803a4f <serRx+0x1>
    1dd6:	83 83       	std	Z+3, r24	; 0x03
                            data[4] = 0;
    1dd8:	14 82       	std	Z+4, r1	; 0x04
    1dda:	06 c2       	rjmp	.+1036   	; 0x21e8 <CheckInput+0x514>
        
        //Normal input
        } else {

            //Change status bit
            if ((serRx[0] == '#')&&(RXCNT == 6)){
    1ddc:	80 91 4e 3a 	lds	r24, 0x3A4E	; 0x803a4e <serRx>
    1de0:	83 32       	cpi	r24, 0x23	; 35
    1de2:	81 f5       	brne	.+96     	; 0x1e44 <CheckInput+0x170>
    1de4:	8d b3       	in	r24, 0x1d	; 29
    1de6:	86 30       	cpi	r24, 0x06	; 6
    1de8:	69 f5       	brne	.+90     	; 0x1e44 <CheckInput+0x170>
    1dea:	81 e0       	ldi	r24, 0x01	; 1
    1dec:	90 e0       	ldi	r25, 0x00	; 0
    1dee:	10 e0       	ldi	r17, 0x00	; 0
                uint8_t bitNr = 0;

                for (uint8_t x=1; x<4; ++x) {
                    serRx[x] -= '0';
    1df0:	fc 01       	movw	r30, r24
    1df2:	e2 5b       	subi	r30, 0xB2	; 178
    1df4:	f5 4c       	sbci	r31, 0xC5	; 197
    1df6:	20 81       	ld	r18, Z
    1df8:	20 53       	subi	r18, 0x30	; 48
    1dfa:	20 83       	st	Z, r18
                    bitNr *= 10;
    1dfc:	11 0f       	add	r17, r17
    1dfe:	21 2f       	mov	r18, r17
    1e00:	22 0f       	add	r18, r18
    1e02:	22 0f       	add	r18, r18
    1e04:	12 0f       	add	r17, r18
                    if (serRx[1] > 2) break;
    1e06:	20 91 4f 3a 	lds	r18, 0x3A4F	; 0x803a4f <serRx+0x1>
    1e0a:	23 30       	cpi	r18, 0x03	; 3
    1e0c:	48 f4       	brcc	.+18     	; 0x1e20 <CheckInput+0x14c>
                    if (serRx[x] < 10) {
    1e0e:	20 81       	ld	r18, Z
    1e10:	2a 30       	cpi	r18, 0x0A	; 10
    1e12:	b0 f4       	brcc	.+44     	; 0x1e40 <CheckInput+0x16c>
                        bitNr += serRx[x];
    1e14:	20 81       	ld	r18, Z
    1e16:	12 0f       	add	r17, r18
    1e18:	01 96       	adiw	r24, 0x01	; 1

            //Change status bit
            if ((serRx[0] == '#')&&(RXCNT == 6)){
                uint8_t bitNr = 0;

                for (uint8_t x=1; x<4; ++x) {
    1e1a:	84 30       	cpi	r24, 0x04	; 4
    1e1c:	91 05       	cpc	r25, r1
    1e1e:	41 f7       	brne	.-48     	; 0x1df0 <CheckInput+0x11c>
                        continue;
                    }
                    bitNr = 0;
                    break;
                }
                if ((bitNr)&&(bitNr!=128)) {
    1e20:	81 2f       	mov	r24, r17
    1e22:	8f 77       	andi	r24, 0x7F	; 127
    1e24:	69 f0       	breq	.+26     	; 0x1e40 <CheckInput+0x16c>
                    if (Cheat(0xff-bitNr, serRx[4]<<8|serRx[5])) UpdateState(bitNr);
    1e26:	80 91 52 3a 	lds	r24, 0x3A52	; 0x803a52 <serRx+0x4>
    1e2a:	60 91 53 3a 	lds	r22, 0x3A53	; 0x803a53 <serRx+0x5>
    1e2e:	70 e0       	ldi	r23, 0x00	; 0
    1e30:	78 2b       	or	r23, r24
    1e32:	81 2f       	mov	r24, r17
    1e34:	80 95       	com	r24
    1e36:	d6 db       	rcall	.-2132   	; 0x15e4 <Cheat>
    1e38:	88 23       	and	r24, r24
    1e3a:	11 f0       	breq	.+4      	; 0x1e40 <CheckInput+0x16c>
    1e3c:	81 2f       	mov	r24, r17
    1e3e:	db d9       	rcall	.-3146   	; 0x11f6 <UpdateState>
                }
                responseList = SetStandardResponse(0);
    1e40:	80 e0       	ldi	r24, 0x00	; 0
    1e42:	50 c0       	rjmp	.+160    	; 0x1ee4 <CheckInput+0x210>
    1e44:	d8 01       	movw	r26, r16
    1e46:	80 e0       	ldi	r24, 0x00	; 0
    1e48:	90 e0       	ldi	r25, 0x00	; 0
                return 1;            
            }
            
            //Read up to the \0 character and convert to lower case.
            for (uint8_t x=0; x<RXLEN; ++x){
                if ((serRx[x]<'A')||(serRx[x]>'Z')) data[x]=serRx[x]; else data[x]=serRx[x]|0x20;
    1e4a:	fc 01       	movw	r30, r24
    1e4c:	e2 5b       	subi	r30, 0xB2	; 178
    1e4e:	f5 4c       	sbci	r31, 0xC5	; 197
    1e50:	20 81       	ld	r18, Z
    1e52:	21 34       	cpi	r18, 0x41	; 65
    1e54:	18 f0       	brcs	.+6      	; 0x1e5c <CheckInput+0x188>
    1e56:	20 81       	ld	r18, Z
    1e58:	2b 35       	cpi	r18, 0x5B	; 91
    1e5a:	10 f0       	brcs	.+4      	; 0x1e60 <CheckInput+0x18c>
    1e5c:	20 81       	ld	r18, Z
    1e5e:	02 c0       	rjmp	.+4      	; 0x1e64 <CheckInput+0x190>
    1e60:	20 81       	ld	r18, Z
    1e62:	20 62       	ori	r18, 0x20	; 32
    1e64:	2c 93       	st	X, r18
                if (serRx[x] == 0) {
    1e66:	20 81       	ld	r18, Z
    1e68:	21 11       	cpse	r18, r1
    1e6a:	05 c0       	rjmp	.+10     	; 0x1e76 <CheckInput+0x1a2>
                    data[x] = 0;
    1e6c:	f8 01       	movw	r30, r16
    1e6e:	e8 0f       	add	r30, r24
    1e70:	f1 1d       	adc	r31, r1
    1e72:	10 82       	st	Z, r1
                    break;
    1e74:	05 c0       	rjmp	.+10     	; 0x1e80 <CheckInput+0x1ac>
    1e76:	01 96       	adiw	r24, 0x01	; 1
    1e78:	11 96       	adiw	r26, 0x01	; 1
                responseList = SetStandardResponse(0);
                return 1;            
            }
            
            //Read up to the \0 character and convert to lower case.
            for (uint8_t x=0; x<RXLEN; ++x){
    1e7a:	81 34       	cpi	r24, 0x41	; 65
    1e7c:	91 05       	cpc	r25, r1
    1e7e:	29 f7       	brne	.-54     	; 0x1e4a <CheckInput+0x176>
                    break;
                }
            }

            //No text
            if (serRx[0] == 0){
    1e80:	80 91 4e 3a 	lds	r24, 0x3A4E	; 0x803a4e <serRx>
                data[0] = 0;
    1e84:	f8 01       	movw	r30, r16
                    break;
                }
            }

            //No text
            if (serRx[0] == 0){
    1e86:	81 11       	cpse	r24, r1
    1e88:	05 c0       	rjmp	.+10     	; 0x1e94 <CheckInput+0x1c0>
                data[0] = 0;
    1e8a:	10 82       	st	Z, r1
                RXCNT = 0;
    1e8c:	1d ba       	out	0x1d, r1	; 29
                serRxDone = 0;
    1e8e:	10 92 37 38 	sts	0x3837, r1	; 0x803837 <serRxDone>
    1e92:	a8 c1       	rjmp	.+848    	; 0x21e4 <CheckInput+0x510>
                return 1;
            }

            //Help text
            if ((data[0] == '?')||(data[0] == 'h')){
    1e94:	80 81       	ld	r24, Z
    1e96:	8f 33       	cpi	r24, 0x3F	; 63
    1e98:	11 f0       	breq	.+4      	; 0x1e9e <CheckInput+0x1ca>
    1e9a:	88 36       	cpi	r24, 0x68	; 104
    1e9c:	39 f5       	brne	.+78     	; 0x1eec <CheckInput+0x218>
    return 0;
}

//
void SetResponse(uint8_t number, uint16_t address, uint16_t length, uint8_t type){
    reactStr[0][number]=address;
    1e9e:	8b e5       	ldi	r24, 0x5B	; 91
    1ea0:	9a e7       	ldi	r25, 0x7A	; 122
    1ea2:	80 93 f4 38 	sts	0x38F4, r24	; 0x8038f4 <reactStr>
    1ea6:	90 93 f5 38 	sts	0x38F5, r25	; 0x8038f5 <reactStr+0x1>
    reactStr[1][number]=length;
    1eaa:	84 e0       	ldi	r24, 0x04	; 4
    1eac:	90 e0       	ldi	r25, 0x00	; 0
    1eae:	80 93 34 39 	sts	0x3934, r24	; 0x803934 <reactStr+0x40>
    1eb2:	90 93 35 39 	sts	0x3935, r25	; 0x803935 <reactStr+0x41>
    reactStr[2][number]=type;
    1eb6:	81 e0       	ldi	r24, 0x01	; 1
    1eb8:	90 e0       	ldi	r25, 0x00	; 0
    1eba:	80 93 74 39 	sts	0x3974, r24	; 0x803974 <reactStr+0x80>
    1ebe:	90 93 75 39 	sts	0x3975, r25	; 0x803975 <reactStr+0x81>
    return 0;
}

//
void SetResponse(uint8_t number, uint16_t address, uint16_t length, uint8_t type){
    reactStr[0][number]=address;
    1ec2:	23 e9       	ldi	r18, 0x93	; 147
    1ec4:	3b e7       	ldi	r19, 0x7B	; 123
    1ec6:	20 93 f6 38 	sts	0x38F6, r18	; 0x8038f6 <reactStr+0x2>
    1eca:	30 93 f7 38 	sts	0x38F7, r19	; 0x8038f7 <reactStr+0x3>
    reactStr[1][number]=length;
    1ece:	2d e6       	ldi	r18, 0x6D	; 109
    1ed0:	34 e0       	ldi	r19, 0x04	; 4
    1ed2:	20 93 36 39 	sts	0x3936, r18	; 0x803936 <reactStr+0x42>
    1ed6:	30 93 37 39 	sts	0x3937, r19	; 0x803937 <reactStr+0x43>
    reactStr[2][number]=type;
    1eda:	80 93 76 39 	sts	0x3976, r24	; 0x803976 <reactStr+0x82>
    1ede:	90 93 77 39 	sts	0x3977, r25	; 0x803977 <reactStr+0x83>

            //Help text
            if ((data[0] == '?')||(data[0] == 'h')){
                SetResponse(0, A_LF, 4, TEASER);
                SetResponse(1, A_HELP, L_HELP, TEASER);
                responseList = SetStandardResponse(2);
    1ee2:	82 e0       	ldi	r24, 0x02	; 2
    1ee4:	71 dc       	rcall	.-1822   	; 0x17c8 <SetStandardResponse>
    1ee6:	80 93 f3 38 	sts	0x38F3, r24	; 0x8038f3 <responseList>
    1eea:	7c c1       	rjmp	.+760    	; 0x21e4 <CheckInput+0x510>
                return 1;
            }        
        
            //Alphabet text
            if (data[0] == 'a'){
    1eec:	81 36       	cpi	r24, 0x61	; 97
    1eee:	d9 f4       	brne	.+54     	; 0x1f26 <CheckInput+0x252>
    return 0;
}

//
void SetResponse(uint8_t number, uint16_t address, uint16_t length, uint8_t type){
    reactStr[0][number]=address;
    1ef0:	8b e5       	ldi	r24, 0x5B	; 91
    1ef2:	9a e7       	ldi	r25, 0x7A	; 122
    1ef4:	80 93 f4 38 	sts	0x38F4, r24	; 0x8038f4 <reactStr>
    1ef8:	90 93 f5 38 	sts	0x38F5, r25	; 0x8038f5 <reactStr+0x1>
    reactStr[1][number]=length;
    1efc:	84 e0       	ldi	r24, 0x04	; 4
    1efe:	90 e0       	ldi	r25, 0x00	; 0
    1f00:	80 93 34 39 	sts	0x3934, r24	; 0x803934 <reactStr+0x40>
    1f04:	90 93 35 39 	sts	0x3935, r25	; 0x803935 <reactStr+0x41>
    reactStr[2][number]=type;
    1f08:	81 e0       	ldi	r24, 0x01	; 1
    1f0a:	90 e0       	ldi	r25, 0x00	; 0
    1f0c:	80 93 74 39 	sts	0x3974, r24	; 0x803974 <reactStr+0x80>
    1f10:	90 93 75 39 	sts	0x3975, r25	; 0x803975 <reactStr+0x81>
    return 0;
}

//
void SetResponse(uint8_t number, uint16_t address, uint16_t length, uint8_t type){
    reactStr[0][number]=address;
    1f14:	2e e6       	ldi	r18, 0x6E	; 110
    1f16:	3a e7       	ldi	r19, 0x7A	; 122
    1f18:	20 93 f6 38 	sts	0x38F6, r18	; 0x8038f6 <reactStr+0x2>
    1f1c:	30 93 f7 38 	sts	0x38F7, r19	; 0x8038f7 <reactStr+0x3>
    reactStr[1][number]=length;
    1f20:	25 e2       	ldi	r18, 0x25	; 37
    1f22:	31 e0       	ldi	r19, 0x01	; 1
    1f24:	d6 cf       	rjmp	.-84     	; 0x1ed2 <CheckInput+0x1fe>
                responseList = SetStandardResponse(2);
                return 1;
            }

            //Whoami text
            if (data[0] == 'w'){
    1f26:	87 37       	cpi	r24, 0x77	; 119
    1f28:	09 f0       	breq	.+2      	; 0x1f2c <CheckInput+0x258>
    1f2a:	6e c0       	rjmp	.+220    	; 0x2008 <CheckInput+0x334>
    return 0;
}

//
void SetResponse(uint8_t number, uint16_t address, uint16_t length, uint8_t type){
    reactStr[0][number]=address;
    1f2c:	8b e5       	ldi	r24, 0x5B	; 91
    1f2e:	9a e7       	ldi	r25, 0x7A	; 122
    1f30:	80 93 f4 38 	sts	0x38F4, r24	; 0x8038f4 <reactStr>
    1f34:	90 93 f5 38 	sts	0x38F5, r25	; 0x8038f5 <reactStr+0x1>
    reactStr[1][number]=length;
    1f38:	84 e0       	ldi	r24, 0x04	; 4
    1f3a:	90 e0       	ldi	r25, 0x00	; 0
    1f3c:	80 93 34 39 	sts	0x3934, r24	; 0x803934 <reactStr+0x40>
    1f40:	90 93 35 39 	sts	0x3935, r25	; 0x803935 <reactStr+0x41>
    reactStr[2][number]=type;
    1f44:	21 e0       	ldi	r18, 0x01	; 1
    1f46:	30 e0       	ldi	r19, 0x00	; 0
    1f48:	20 93 74 39 	sts	0x3974, r18	; 0x803974 <reactStr+0x80>
    1f4c:	30 93 75 39 	sts	0x3975, r19	; 0x803975 <reactStr+0x81>
    return 0;
}

//
void SetResponse(uint8_t number, uint16_t address, uint16_t length, uint8_t type){
    reactStr[0][number]=address;
    1f50:	8b ec       	ldi	r24, 0xCB	; 203
    1f52:	96 e7       	ldi	r25, 0x76	; 118
    1f54:	80 93 f6 38 	sts	0x38F6, r24	; 0x8038f6 <reactStr+0x2>
    1f58:	90 93 f7 38 	sts	0x38F7, r25	; 0x8038f7 <reactStr+0x3>
    reactStr[1][number]=length;
    1f5c:	82 e1       	ldi	r24, 0x12	; 18
    1f5e:	90 e0       	ldi	r25, 0x00	; 0
    1f60:	80 93 36 39 	sts	0x3936, r24	; 0x803936 <reactStr+0x42>
    1f64:	90 93 37 39 	sts	0x3937, r25	; 0x803937 <reactStr+0x43>
    reactStr[2][number]=type;
    1f68:	20 93 76 39 	sts	0x3976, r18	; 0x803976 <reactStr+0x82>
    1f6c:	30 93 77 39 	sts	0x3977, r19	; 0x803977 <reactStr+0x83>

            //Whoami text
            if (data[0] == 'w'){
                SetResponse(0, A_LF, 4, TEASER);
                SetResponse(1, A_HELLO, L_HELLO, TEASER);
                if (whoami == 1) {
    1f70:	80 91 30 38 	lds	r24, 0x3830	; 0x803830 <whoami>
    1f74:	81 30       	cpi	r24, 0x01	; 1
    1f76:	19 f4       	brne	.+6      	; 0x1f7e <CheckInput+0x2aa>
    return 0;
}

//
void SetResponse(uint8_t number, uint16_t address, uint16_t length, uint8_t type){
    reactStr[0][number]=address;
    1f78:	85 ec       	ldi	r24, 0xC5	; 197
    1f7a:	96 e7       	ldi	r25, 0x76	; 118
    1f7c:	0f c0       	rjmp	.+30     	; 0x1f9c <CheckInput+0x2c8>
            if (data[0] == 'w'){
                SetResponse(0, A_LF, 4, TEASER);
                SetResponse(1, A_HELLO, L_HELLO, TEASER);
                if (whoami == 1) {
                    SetResponse(2, A_ANUBIS, L_ANUBIS, TEASER);
                } else if (whoami == 2) {
    1f7e:	82 30       	cpi	r24, 0x02	; 2
    1f80:	49 f4       	brne	.+18     	; 0x1f94 <CheckInput+0x2c0>
    return 0;
}

//
void SetResponse(uint8_t number, uint16_t address, uint16_t length, uint8_t type){
    reactStr[0][number]=address;
    1f82:	82 ec       	ldi	r24, 0xC2	; 194
    1f84:	96 e7       	ldi	r25, 0x76	; 118
    1f86:	80 93 f8 38 	sts	0x38F8, r24	; 0x8038f8 <reactStr+0x4>
    1f8a:	90 93 f9 38 	sts	0x38F9, r25	; 0x8038f9 <reactStr+0x5>
    reactStr[1][number]=length;
    1f8e:	83 e0       	ldi	r24, 0x03	; 3
    1f90:	90 e0       	ldi	r25, 0x00	; 0
    1f92:	1e c0       	rjmp	.+60     	; 0x1fd0 <CheckInput+0x2fc>
                SetResponse(1, A_HELLO, L_HELLO, TEASER);
                if (whoami == 1) {
                    SetResponse(2, A_ANUBIS, L_ANUBIS, TEASER);
                } else if (whoami == 2) {
                    SetResponse(2, A_BES, L_BES, TEASER);
                } else if (whoami == 3) {
    1f94:	83 30       	cpi	r24, 0x03	; 3
    1f96:	49 f4       	brne	.+18     	; 0x1faa <CheckInput+0x2d6>
    return 0;
}

//
void SetResponse(uint8_t number, uint16_t address, uint16_t length, uint8_t type){
    reactStr[0][number]=address;
    1f98:	8c eb       	ldi	r24, 0xBC	; 188
    1f9a:	96 e7       	ldi	r25, 0x76	; 118
    1f9c:	80 93 f8 38 	sts	0x38F8, r24	; 0x8038f8 <reactStr+0x4>
    1fa0:	90 93 f9 38 	sts	0x38F9, r25	; 0x8038f9 <reactStr+0x5>
    reactStr[1][number]=length;
    1fa4:	86 e0       	ldi	r24, 0x06	; 6
    1fa6:	90 e0       	ldi	r25, 0x00	; 0
    1fa8:	13 c0       	rjmp	.+38     	; 0x1fd0 <CheckInput+0x2fc>
                    SetResponse(2, A_ANUBIS, L_ANUBIS, TEASER);
                } else if (whoami == 2) {
                    SetResponse(2, A_BES, L_BES, TEASER);
                } else if (whoami == 3) {
                    SetResponse(2, A_KHONSU, L_KHONSU, TEASER);
                } else if (whoami == 4) {
    1faa:	84 30       	cpi	r24, 0x04	; 4
    1fac:	49 f4       	brne	.+18     	; 0x1fc0 <CheckInput+0x2ec>
    return 0;
}

//
void SetResponse(uint8_t number, uint16_t address, uint16_t length, uint8_t type){
    reactStr[0][number]=address;
    1fae:	87 eb       	ldi	r24, 0xB7	; 183
    1fb0:	96 e7       	ldi	r25, 0x76	; 118
    1fb2:	80 93 f8 38 	sts	0x38F8, r24	; 0x8038f8 <reactStr+0x4>
    1fb6:	90 93 f9 38 	sts	0x38F9, r25	; 0x8038f9 <reactStr+0x5>
    reactStr[1][number]=length;
    1fba:	85 e0       	ldi	r24, 0x05	; 5
    1fbc:	90 e0       	ldi	r25, 0x00	; 0
    1fbe:	08 c0       	rjmp	.+16     	; 0x1fd0 <CheckInput+0x2fc>
    return 0;
}

//
void SetResponse(uint8_t number, uint16_t address, uint16_t length, uint8_t type){
    reactStr[0][number]=address;
    1fc0:	80 e4       	ldi	r24, 0x40	; 64
    1fc2:	96 e7       	ldi	r25, 0x76	; 118
    1fc4:	80 93 f8 38 	sts	0x38F8, r24	; 0x8038f8 <reactStr+0x4>
    1fc8:	90 93 f9 38 	sts	0x38F9, r25	; 0x8038f9 <reactStr+0x5>
    reactStr[1][number]=length;
    1fcc:	82 e4       	ldi	r24, 0x42	; 66
    1fce:	90 e0       	ldi	r25, 0x00	; 0
    1fd0:	80 93 38 39 	sts	0x3938, r24	; 0x803938 <reactStr+0x44>
    1fd4:	90 93 39 39 	sts	0x3939, r25	; 0x803939 <reactStr+0x45>
    reactStr[2][number]=type;
    1fd8:	20 93 78 39 	sts	0x3978, r18	; 0x803978 <reactStr+0x84>
    1fdc:	30 93 79 39 	sts	0x3979, r19	; 0x803979 <reactStr+0x85>
    return 0;
}

//
void SetResponse(uint8_t number, uint16_t address, uint16_t length, uint8_t type){
    reactStr[0][number]=address;
    1fe0:	8d e9       	ldi	r24, 0x9D	; 157
    1fe2:	96 e7       	ldi	r25, 0x76	; 118
    1fe4:	80 93 fa 38 	sts	0x38FA, r24	; 0x8038fa <reactStr+0x6>
    1fe8:	90 93 fb 38 	sts	0x38FB, r25	; 0x8038fb <reactStr+0x7>
    reactStr[1][number]=length;
    1fec:	8a e1       	ldi	r24, 0x1A	; 26
    1fee:	90 e0       	ldi	r25, 0x00	; 0
    1ff0:	80 93 3a 39 	sts	0x393A, r24	; 0x80393a <reactStr+0x46>
    1ff4:	90 93 3b 39 	sts	0x393B, r25	; 0x80393b <reactStr+0x47>
    reactStr[2][number]=type;
    1ff8:	81 e0       	ldi	r24, 0x01	; 1
    1ffa:	90 e0       	ldi	r25, 0x00	; 0
    1ffc:	80 93 7a 39 	sts	0x397A, r24	; 0x80397a <reactStr+0x86>
    2000:	90 93 7b 39 	sts	0x397B, r25	; 0x80397b <reactStr+0x87>
                    SetResponse(2, A_THOTH, L_THOTH, TEASER);
                } else {
                    SetResponse(2, A_ERROR, L_ERROR, TEASER);
                }
                SetResponse(3, A_PLEASED, L_PLEASED, TEASER);
                responseList = SetStandardResponse(4);
    2004:	84 e0       	ldi	r24, 0x04	; 4
    2006:	6e cf       	rjmp	.-292    	; 0x1ee4 <CheckInput+0x210>
                return 1;
            }

            //Quit text
            if (data[0] == 'q'){
    2008:	81 37       	cpi	r24, 0x71	; 113
    200a:	d9 f4       	brne	.+54     	; 0x2042 <CheckInput+0x36e>
    return 0;
}

//
void SetResponse(uint8_t number, uint16_t address, uint16_t length, uint8_t type){
    reactStr[0][number]=address;
    200c:	8b e5       	ldi	r24, 0x5B	; 91
    200e:	9a e7       	ldi	r25, 0x7A	; 122
    2010:	80 93 f4 38 	sts	0x38F4, r24	; 0x8038f4 <reactStr>
    2014:	90 93 f5 38 	sts	0x38F5, r25	; 0x8038f5 <reactStr+0x1>
    reactStr[1][number]=length;
    2018:	84 e0       	ldi	r24, 0x04	; 4
    201a:	90 e0       	ldi	r25, 0x00	; 0
    201c:	80 93 34 39 	sts	0x3934, r24	; 0x803934 <reactStr+0x40>
    2020:	90 93 35 39 	sts	0x3935, r25	; 0x803935 <reactStr+0x41>
    reactStr[2][number]=type;
    2024:	81 e0       	ldi	r24, 0x01	; 1
    2026:	90 e0       	ldi	r25, 0x00	; 0
    2028:	80 93 74 39 	sts	0x3974, r24	; 0x803974 <reactStr+0x80>
    202c:	90 93 75 39 	sts	0x3975, r25	; 0x803975 <reactStr+0x81>
    return 0;
}

//
void SetResponse(uint8_t number, uint16_t address, uint16_t length, uint8_t type){
    reactStr[0][number]=address;
    2030:	23 e0       	ldi	r18, 0x03	; 3
    2032:	3a e7       	ldi	r19, 0x7A	; 122
    2034:	20 93 f6 38 	sts	0x38F6, r18	; 0x8038f6 <reactStr+0x2>
    2038:	30 93 f7 38 	sts	0x38F7, r19	; 0x8038f7 <reactStr+0x3>
    reactStr[1][number]=length;
    203c:	24 e5       	ldi	r18, 0x54	; 84
    203e:	30 e0       	ldi	r19, 0x00	; 0
                responseList = SetStandardResponse(2);
                return 1;
            }

            //Fake cheat = reset badge!
            if (StartsWith(&data[0], "iddqd")){
    2040:	48 cf       	rjmp	.-368    	; 0x1ed2 <CheckInput+0x1fe>
    2042:	6a ec       	ldi	r22, 0xCA	; 202
    2044:	75 eb       	ldi	r23, 0xB5	; 181
    2046:	c8 01       	movw	r24, r16
    2048:	6d db       	rcall	.-2342   	; 0x1724 <StartsWith>
    204a:	88 23       	and	r24, r24
    204c:	e9 f0       	breq	.+58     	; 0x2088 <CheckInput+0x3b4>
            
                //Reset game data by wiping the UUID bits
                for (uint8_t x=0; x<4; ++x){
                    WriteStatusBit(110+x, 0);
    204e:	1e e6       	ldi	r17, 0x6E	; 110
    2050:	60 e0       	ldi	r22, 0x00	; 0
    2052:	81 2f       	mov	r24, r17
    2054:	b6 d8       	rcall	.-3732   	; 0x11c2 <WriteStatusBit>
    2056:	1f 5f       	subi	r17, 0xFF	; 255

            //Fake cheat = reset badge!
            if (StartsWith(&data[0], "iddqd")){
            
                //Reset game data by wiping the UUID bits
                for (uint8_t x=0; x<4; ++x){
    2058:	12 37       	cpi	r17, 0x72	; 114
    205a:	d1 f7       	brne	.-12     	; 0x2050 <CheckInput+0x37c>
                    WriteStatusBit(110+x, 0);
                }
                SaveGameState();
    205c:	2b d8       	rcall	.-4010   	; 0x10b4 <SaveGameState>
    205e:	80 e2       	ldi	r24, 0x20	; 32

                uint8_t cheat[] = "Cheater! Contact badge team... ";
    2060:	ed e0       	ldi	r30, 0x0D	; 13
    2062:	f6 eb       	ldi	r31, 0xB6	; 182
    2064:	de 01       	movw	r26, r28
    2066:	11 96       	adiw	r26, 0x01	; 1
    2068:	01 90       	ld	r0, Z+
    206a:	0d 92       	st	X+, r0
    206c:	8a 95       	dec	r24
    206e:	e1 f7       	brne	.-8      	; 0x2068 <CheckInput+0x394>
    2070:	8c e3       	ldi	r24, 0x3C	; 60
                SerSpeed(60);
    2072:	0e 94 4c 07 	call	0xe98	; 0xe98 <SerSpeed>
    2076:	80 91 08 38 	lds	r24, 0x3808	; 0x803808 <serTxDone>
                while(1){
                    if (serTxDone) SerSend(&cheat[0]);
    207a:	88 23       	and	r24, r24
    207c:	e1 f3       	breq	.-8      	; 0x2076 <CheckInput+0x3a2>
    207e:	ce 01       	movw	r24, r28
    2080:	01 96       	adiw	r24, 0x01	; 1
    2082:	0e 94 3b 07 	call	0xe76	; 0xe76 <SerSend>
    2086:	f7 cf       	rjmp	.-18     	; 0x2076 <CheckInput+0x3a2>
                }
            }
            
            //Cheat reset (Quote from: Donald E. Westlake)
            if (StartsWith(&data[0], "the trouble with real life is, there's no reset button")){
    2088:	60 ed       	ldi	r22, 0xD0	; 208
    208a:	75 eb       	ldi	r23, 0xB5	; 181
    208c:	c8 01       	movw	r24, r16
    208e:	4a db       	rcall	.-2412   	; 0x1724 <StartsWith>
    2090:	68 2e       	mov	r6, r24
    2092:	88 23       	and	r24, r24
    2094:	59 f1       	breq	.+86     	; 0x20ec <CheckInput+0x418>
    2096:	8f ef       	ldi	r24, 0xFF	; 255
                
                //Reset cheat data by resetting the EEPROM bytes
                uint8_t empty=0xff;
    2098:	89 a3       	std	Y+33, r24	; 0x21
    209a:	18 e1       	ldi	r17, 0x18	; 24
    209c:	41 e0       	ldi	r20, 0x01	; 1
                for (uint8_t x=0; x<MAX_CHEATS; ++x){
                    EEWrite(CHEATS+x, &empty, 1);
    209e:	be 01       	movw	r22, r28
    20a0:	6f 5d       	subi	r22, 0xDF	; 223
    20a2:	7f 4f       	sbci	r23, 0xFF	; 255
    20a4:	81 2f       	mov	r24, r17
    20a6:	0e 94 13 07 	call	0xe26	; 0xe26 <EEWrite>
    20aa:	1f 5f       	subi	r17, 0xFF	; 255
            //Cheat reset (Quote from: Donald E. Westlake)
            if (StartsWith(&data[0], "the trouble with real life is, there's no reset button")){
                
                //Reset cheat data by resetting the EEPROM bytes
                uint8_t empty=0xff;
                for (uint8_t x=0; x<MAX_CHEATS; ++x){
    20ac:	10 32       	cpi	r17, 0x20	; 32
    20ae:	b1 f7       	brne	.-20     	; 0x209c <CheckInput+0x3c8>
    20b0:	1e e6       	ldi	r17, 0x6E	; 110
                    EEWrite(CHEATS+x, &empty, 1);
                }
                //Reset game data by wiping the UUID bits
                for (uint8_t x=0; x<4; ++x){
                    WriteStatusBit(110+x, 0);
    20b2:	60 e0       	ldi	r22, 0x00	; 0
    20b4:	81 2f       	mov	r24, r17
    20b6:	85 d8       	rcall	.-3830   	; 0x11c2 <WriteStatusBit>
    20b8:	1f 5f       	subi	r17, 0xFF	; 255
    20ba:	12 37       	cpi	r17, 0x72	; 114
                uint8_t empty=0xff;
                for (uint8_t x=0; x<MAX_CHEATS; ++x){
                    EEWrite(CHEATS+x, &empty, 1);
                }
                //Reset game data by wiping the UUID bits
                for (uint8_t x=0; x<4; ++x){
    20bc:	d1 f7       	brne	.-12     	; 0x20b2 <CheckInput+0x3de>
    20be:	0e 94 5a 08 	call	0x10b4	; 0x10b4 <SaveGameState>
                    WriteStatusBit(110+x, 0);
                }
                
                SaveGameState();
    20c2:	8f e0       	ldi	r24, 0x0F	; 15

                uint8_t cheat[] = "Reset please! ";
    20c4:	ed e2       	ldi	r30, 0x2D	; 45
    20c6:	f6 eb       	ldi	r31, 0xB6	; 182
    20c8:	de 01       	movw	r26, r28
    20ca:	11 96       	adiw	r26, 0x01	; 1
    20cc:	01 90       	ld	r0, Z+
    20ce:	0d 92       	st	X+, r0
    20d0:	8a 95       	dec	r24
    20d2:	e1 f7       	brne	.-8      	; 0x20cc <CheckInput+0x3f8>
    20d4:	8c e3       	ldi	r24, 0x3C	; 60
                SerSpeed(60);
    20d6:	0e 94 4c 07 	call	0xe98	; 0xe98 <SerSpeed>
    20da:	80 91 08 38 	lds	r24, 0x3808	; 0x803808 <serTxDone>
                while(1){
                    if (serTxDone) SerSend(&cheat[0]);
    20de:	88 23       	and	r24, r24
    20e0:	e1 f3       	breq	.-8      	; 0x20da <CheckInput+0x406>
    20e2:	ce 01       	movw	r24, r28
    20e4:	01 96       	adiw	r24, 0x01	; 1
    20e6:	0e 94 3b 07 	call	0xe76	; 0xe76 <SerSend>
    20ea:	f7 cf       	rjmp	.-18     	; 0x20da <CheckInput+0x406>
                }
            }
            if (StartsWith(&data[0], "cheat")){
    20ec:	67 e0       	ldi	r22, 0x07	; 7
    20ee:	76 eb       	ldi	r23, 0xB6	; 182
    20f0:	c8 01       	movw	r24, r16
    20f2:	18 db       	rcall	.-2512   	; 0x1724 <StartsWith>
    20f4:	88 23       	and	r24, r24
    20f6:	09 f4       	brne	.+2      	; 0x20fa <CheckInput+0x426>
    20f8:	2f ce       	rjmp	.-930    	; 0x1d58 <CheckInput+0x84>
    20fa:	04 ef       	ldi	r16, 0xF4	; 244
    20fc:	18 e3       	ldi	r17, 0x38	; 56
    20fe:	78 e1       	ldi	r23, 0x18	; 24
    2100:	77 2e       	mov	r7, r23
    2102:	ea e0       	ldi	r30, 0x0A	; 10
                    
                    //Set up sending out number
                    EERead(CHEATS+x, &bit, 1);
                    bit = 0xff-bit;
                    for (n=2; n>=0; --n) {
                        digit[n] = bit % 10;
    2104:	5e 2e       	mov	r5, r30
    2106:	f4 e6       	ldi	r31, 0x64	; 100
                        bit /= 10;
    2108:	4f 2e       	mov	r4, r31
    210a:	ee 24       	eor	r14, r14
}

//
void SetResponse(uint8_t number, uint16_t address, uint16_t length, uint8_t type){
    reactStr[0][number]=address;
    reactStr[1][number]=length;
    210c:	e3 94       	inc	r14
    210e:	f1 2c       	mov	r15, r1
    2110:	cc 24       	eor	r12, r12
    2112:	c3 94       	inc	r12
    2114:	d1 2c       	mov	r13, r1
    2116:	89 e5       	ldi	r24, 0x59	; 89
    return 0;
}

//
void SetResponse(uint8_t number, uint16_t address, uint16_t length, uint8_t type){
    reactStr[0][number]=address;
    2118:	88 2e       	mov	r8, r24
    211a:	8a e7       	ldi	r24, 0x7A	; 122
    211c:	98 2e       	mov	r9, r24
    211e:	92 e0       	ldi	r25, 0x02	; 2
    reactStr[1][number]=length;
    2120:	a9 2e       	mov	r10, r25
    2122:	b1 2c       	mov	r11, r1
    2124:	41 e0       	ldi	r20, 0x01	; 1
                uint8_t bit, digit[3];

                for (uint8_t x=0; x<MAX_CHEATS; ++x){
                    
                    //Set up sending out number
                    EERead(CHEATS+x, &bit, 1);
    2126:	be 01       	movw	r22, r28
    2128:	6f 5d       	subi	r22, 0xDF	; 223
    212a:	7f 4f       	sbci	r23, 0xFF	; 255
    212c:	87 2d       	mov	r24, r7
    212e:	0e 94 03 07 	call	0xe06	; 0xe06 <EERead>
    2132:	29 a1       	ldd	r18, Y+33	; 0x21
                    bit = 0xff-bit;
    2134:	20 95       	com	r18
    2136:	82 2f       	mov	r24, r18
                    for (n=2; n>=0; --n) {
                        digit[n] = bit % 10;
    2138:	65 2d       	mov	r22, r5
    213a:	0e 94 62 1a 	call	0x34c4	; 0x34c4 <__udivmodqi4>
    213e:	9b 83       	std	Y+3, r25	; 0x03
    2140:	0e 94 62 1a 	call	0x34c4	; 0x34c4 <__udivmodqi4>
    2144:	9a 83       	std	Y+2, r25	; 0x02
    2146:	82 2f       	mov	r24, r18
                        bit /= 10;
    2148:	64 2d       	mov	r22, r4
    214a:	0e 94 62 1a 	call	0x34c4	; 0x34c4 <__udivmodqi4>
    214e:	89 83       	std	Y+1, r24	; 0x01
                    
                    //Set up sending out number
                    EERead(CHEATS+x, &bit, 1);
                    bit = 0xff-bit;
                    for (n=2; n>=0; --n) {
                        digit[n] = bit % 10;
    2150:	19 a2       	std	Y+33, r1	; 0x21
    2152:	de 01       	movw	r26, r28
    2154:	11 96       	adiw	r26, 0x01	; 1
    2156:	40 e0       	ldi	r20, 0x00	; 0
    2158:	2d 91       	ld	r18, X+
                        bit /= 10;
                    }

                    for (n=0; n<3; ++n) {
                        SetResponse(x*4+n, A_DIGITS+digit[n], 1, TEASER);
    215a:	86 2d       	mov	r24, r6
    return 0;
}

//
void SetResponse(uint8_t number, uint16_t address, uint16_t length, uint8_t type){
    reactStr[0][number]=address;
    215c:	84 0f       	add	r24, r20
    215e:	90 e0       	ldi	r25, 0x00	; 0
    2160:	fc 01       	movw	r30, r24
    2162:	ee 0f       	add	r30, r30
    2164:	ff 1f       	adc	r31, r31
    2166:	ec 50       	subi	r30, 0x0C	; 12
    2168:	f7 4c       	sbci	r31, 0xC7	; 199
    216a:	30 e0       	ldi	r19, 0x00	; 0
    216c:	2d 52       	subi	r18, 0x2D	; 45
    216e:	3b 48       	sbci	r19, 0x8B	; 139
    2170:	20 83       	st	Z, r18
    2172:	31 83       	std	Z+1, r19	; 0x01
    2174:	fc 01       	movw	r30, r24
    reactStr[1][number]=length;
    2176:	ee 0f       	add	r30, r30
    2178:	ff 1f       	adc	r31, r31
    217a:	ec 5c       	subi	r30, 0xCC	; 204
    217c:	f6 4c       	sbci	r31, 0xC6	; 198
    217e:	e0 82       	st	Z, r14
    2180:	f1 82       	std	Z+1, r15	; 0x01
    2182:	88 0f       	add	r24, r24
    reactStr[2][number]=type;
    2184:	99 1f       	adc	r25, r25
    2186:	fc 01       	movw	r30, r24
    2188:	ec 58       	subi	r30, 0x8C	; 140
    218a:	f6 4c       	sbci	r31, 0xC6	; 198
    218c:	e0 82       	st	Z, r14
    218e:	f1 82       	std	Z+1, r15	; 0x01
    2190:	4f 5f       	subi	r20, 0xFF	; 255
    2192:	43 30       	cpi	r20, 0x03	; 3
                    for (n=2; n>=0; --n) {
                        digit[n] = bit % 10;
                        bit /= 10;
                    }

                    for (n=0; n<3; ++n) {
    2194:	09 f7       	brne	.-62     	; 0x2158 <CheckInput+0x484>
    2196:	f8 01       	movw	r30, r16
    return 0;
}

//
void SetResponse(uint8_t number, uint16_t address, uint16_t length, uint8_t type){
    reactStr[0][number]=address;
    2198:	86 82       	std	Z+6, r8	; 0x06
    219a:	97 82       	std	Z+7, r9	; 0x07
    219c:	ea 5b       	subi	r30, 0xBA	; 186
    reactStr[1][number]=length;
    219e:	ff 4f       	sbci	r31, 0xFF	; 255
    21a0:	a0 82       	st	Z, r10
    21a2:	b1 82       	std	Z+1, r11	; 0x01
    21a4:	e0 5c       	subi	r30, 0xC0	; 192
    reactStr[2][number]=type;
    21a6:	ff 4f       	sbci	r31, 0xFF	; 255
    21a8:	c0 82       	st	Z, r12
    21aa:	d1 82       	std	Z+1, r13	; 0x01
    21ac:	73 94       	inc	r7
    21ae:	08 5f       	subi	r16, 0xF8	; 248
    21b0:	1f 4f       	sbci	r17, 0xFF	; 255
    21b2:	f4 e0       	ldi	r31, 0x04	; 4
    21b4:	6f 0e       	add	r6, r31
    21b6:	80 e2       	ldi	r24, 0x20	; 32
            }
            if (StartsWith(&data[0], "cheat")){
                int8_t n;
                uint8_t bit, digit[3];

                for (uint8_t x=0; x<MAX_CHEATS; ++x){
    21b8:	78 12       	cpse	r7, r24
    21ba:	b4 cf       	rjmp	.-152    	; 0x2124 <CheckInput+0x450>
    21bc:	8b e5       	ldi	r24, 0x5B	; 91
    return 0;
}

//
void SetResponse(uint8_t number, uint16_t address, uint16_t length, uint8_t type){
    reactStr[0][number]=address;
    21be:	9a e7       	ldi	r25, 0x7A	; 122
    21c0:	80 93 32 39 	sts	0x3932, r24	; 0x803932 <reactStr+0x3e>
    21c4:	90 93 33 39 	sts	0x3933, r25	; 0x803933 <reactStr+0x3f>
    21c8:	84 e0       	ldi	r24, 0x04	; 4
    reactStr[1][number]=length;
    21ca:	90 e0       	ldi	r25, 0x00	; 0
    21cc:	80 93 72 39 	sts	0x3972, r24	; 0x803972 <reactStr+0x7e>
    21d0:	90 93 73 39 	sts	0x3973, r25	; 0x803973 <reactStr+0x7f>
    21d4:	81 e0       	ldi	r24, 0x01	; 1
    reactStr[2][number]=type;
    21d6:	90 e0       	ldi	r25, 0x00	; 0
    21d8:	80 93 b2 39 	sts	0x39B2, r24	; 0x8039b2 <reactStr+0xbe>
    21dc:	90 93 b3 39 	sts	0x39B3, r25	; 0x8039b3 <reactStr+0xbf>
    21e0:	70 92 f3 38 	sts	0x38F3, r7	; 0x8038f3 <responseList>
                        SetResponse(x*4+n, A_DIGITS+digit[n], 1, TEASER);
                    }                
                    SetResponse(x*4+3, A_COMMA, L_COMMA, TEASER);
                }
                SetResponse((4*MAX_CHEATS)-1, A_LF, 4, TEASER);
                responseList = 32;
    21e4:	ff 24       	eor	r15, r15
        //Data received, but not any of the commands above
        return 0;
    }

    //Serial input not available yet
    return 1;
    21e6:	f3 94       	inc	r15
    21e8:	8f 2d       	mov	r24, r15
}
    21ea:	a1 96       	adiw	r28, 0x21	; 33
    21ec:	cd bf       	out	0x3d, r28	; 61
    21ee:	de bf       	out	0x3e, r29	; 62
    21f0:	df 91       	pop	r29
    21f2:	cf 91       	pop	r28
    21f4:	1f 91       	pop	r17
    21f6:	0f 91       	pop	r16
    21f8:	ff 90       	pop	r15
    21fa:	ef 90       	pop	r14
    21fc:	df 90       	pop	r13
    21fe:	cf 90       	pop	r12
    2200:	bf 90       	pop	r11
    2202:	af 90       	pop	r10
    2204:	9f 90       	pop	r9
    2206:	8f 90       	pop	r8
    2208:	7f 90       	pop	r7
    220a:	6f 90       	pop	r6
    220c:	5f 90       	pop	r5
    220e:	4f 90       	pop	r4
    2210:	08 95       	ret

00002212 <ProcessInput>:
    2212:	4f 92       	push	r4

//The game logic!
uint8_t ProcessInput(uint8_t *data){
    2214:	5f 92       	push	r5
    2216:	6f 92       	push	r6
    2218:	7f 92       	push	r7
    221a:	8f 92       	push	r8
    221c:	9f 92       	push	r9
    221e:	af 92       	push	r10
    2220:	bf 92       	push	r11
    2222:	cf 92       	push	r12
    2224:	df 92       	push	r13
    2226:	ef 92       	push	r14
    2228:	ff 92       	push	r15
    222a:	0f 93       	push	r16
    222c:	1f 93       	push	r17
    222e:	cf 93       	push	r28
    2230:	df 93       	push	r29
    2232:	cd b7       	in	r28, 0x3d	; 61
    2234:	de b7       	in	r29, 0x3e	; 62
    2236:	2a 97       	sbiw	r28, 0x0a	; 10
    2238:	cd bf       	out	0x3d, r28	; 61
    223a:	de bf       	out	0x3e, r29	; 62
    223c:	8c 01       	movw	r16, r24
    static object_model_t actObj1, actObj2;
    uint8_t elements = 1;

    CleanInput(&data[0]);
    223e:	73 dc       	rcall	.-1818   	; 0x1b26 <CleanInput>
    uint8_t inputLen = CleanInput(&data[0]);
    2240:	c8 01       	movw	r24, r16
    2242:	71 dc       	rcall	.-1822   	; 0x1b26 <CleanInput>
    2244:	f8 2e       	mov	r15, r24

    if (inputLen) {
    2246:	88 23       	and	r24, r24
    2248:	09 f4       	brne	.+2      	; 0x224c <ProcessInput+0x3a>
    224a:	de c7       	rjmp	.+4028   	; 0x3208 <ProcessInput+0xff6>

        //eXit to previous location
        if (data[0] == 'x'){
    224c:	d8 01       	movw	r26, r16
    224e:	8c 91       	ld	r24, X
    2250:	88 37       	cpi	r24, 0x78	; 120
    2252:	09 f0       	breq	.+2      	; 0x2256 <ProcessInput+0x44>
    2254:	45 c0       	rjmp	.+138    	; 0x22e0 <ProcessInput+0xce>

            //Standing in the Lobby?
            if ((route[currDepth] == 0)||(currDepth == 0)){
    2256:	80 91 26 38 	lds	r24, 0x3826	; 0x803826 <currDepth>
    225a:	e8 2f       	mov	r30, r24
    225c:	f0 e0       	ldi	r31, 0x00	; 0
    225e:	ee 0f       	add	r30, r30
    2260:	ff 1f       	adc	r31, r31
    2262:	ec 54       	subi	r30, 0x4C	; 76
    2264:	f6 4c       	sbci	r31, 0xC6	; 198
    2266:	20 81       	ld	r18, Z
    2268:	31 81       	ldd	r19, Z+1	; 0x01
    226a:	23 2b       	or	r18, r19
    226c:	11 f0       	breq	.+4      	; 0x2272 <ProcessInput+0x60>
    226e:	81 11       	cpse	r24, r1
    2270:	03 c0       	rjmp	.+6      	; 0x2278 <ProcessInput+0x66>
    return 0;
}

//
void SetResponse(uint8_t number, uint16_t address, uint16_t length, uint8_t type){
    reactStr[0][number]=address;
    2272:	82 e8       	ldi	r24, 0x82	; 130
    2274:	96 e7       	ldi	r25, 0x76	; 118
    2276:	a1 c5       	rjmp	.+2882   	; 0x2dba <ProcessInput+0xba8>
            //Standing in the Lobby?
            if ((route[currDepth] == 0)||(currDepth == 0)){
                SetResponse(elements++, A_NOTPOSSIBLE, L_NOTPOSSIBLE, TEASER);
            
            //Is there a way to go back?
            } else if (CheckState(currObj.byteField[OPEN_ACL])){
    2278:	80 91 fa 39 	lds	r24, 0x39FA	; 0x8039fa <currObj+0x6>
    227c:	0e 94 05 09 	call	0x120a	; 0x120a <CheckState>
    2280:	88 23       	and	r24, r24
    2282:	b9 f0       	breq	.+46     	; 0x22b2 <ProcessInput+0xa0>
                --currDepth;
    2284:	e0 91 26 38 	lds	r30, 0x3826	; 0x803826 <currDepth>
    2288:	e1 50       	subi	r30, 0x01	; 1
    228a:	e0 93 26 38 	sts	0x3826, r30	; 0x803826 <currDepth>
                PopulateObject(route[currDepth], &currObj);
    228e:	f0 e0       	ldi	r31, 0x00	; 0
    2290:	ee 0f       	add	r30, r30
    2292:	ff 1f       	adc	r31, r31
    2294:	ec 54       	subi	r30, 0x4C	; 76
    2296:	f6 4c       	sbci	r31, 0xC6	; 198
    2298:	64 ef       	ldi	r22, 0xF4	; 244
    229a:	79 e3       	ldi	r23, 0x39	; 57
    229c:	80 81       	ld	r24, Z
    229e:	91 81       	ldd	r25, Z+1	; 0x01
    22a0:	0f db       	rcall	.-2530   	; 0x18c0 <PopulateObject>
                effect = currObj.byteField[EFFECTS];
    22a2:	80 91 f8 39 	lds	r24, 0x39F8	; 0x8039f8 <currObj+0x4>
    22a6:	90 e0       	ldi	r25, 0x00	; 0
    22a8:	80 93 2d 38 	sts	0x382D, r24	; 0x80382d <effect>
    22ac:	90 93 2e 38 	sts	0x382E, r25	; 0x80382e <effect+0x1>
    22b0:	31 c2       	rjmp	.+1122   	; 0x2714 <ProcessInput+0x502>
            
            //No way out, print denied message of location
            } else {
                SetResponse(elements++, currObj.addrStr[OPEN_ACL_MSG], currObj.lenStr[OPEN_ACL_MSG], GAME);
    22b2:	80 91 16 3a 	lds	r24, 0x3A16	; 0x803a16 <currObj+0x22>
    22b6:	90 91 17 3a 	lds	r25, 0x3A17	; 0x803a17 <currObj+0x23>
    return 0;
}

//
void SetResponse(uint8_t number, uint16_t address, uint16_t length, uint8_t type){
    reactStr[0][number]=address;
    22ba:	20 91 08 3a 	lds	r18, 0x3A08	; 0x803a08 <currObj+0x14>
    22be:	30 91 09 3a 	lds	r19, 0x3A09	; 0x803a09 <currObj+0x15>
    22c2:	20 93 f6 38 	sts	0x38F6, r18	; 0x8038f6 <reactStr+0x2>
    22c6:	30 93 f7 38 	sts	0x38F7, r19	; 0x8038f7 <reactStr+0x3>
    reactStr[1][number]=length;
    22ca:	80 93 36 39 	sts	0x3936, r24	; 0x803936 <reactStr+0x42>
    22ce:	90 93 37 39 	sts	0x3937, r25	; 0x803937 <reactStr+0x43>
    reactStr[2][number]=type;
    22d2:	10 92 76 39 	sts	0x3976, r1	; 0x803976 <reactStr+0x82>
    22d6:	10 92 77 39 	sts	0x3977, r1	; 0x803977 <reactStr+0x83>
                effect = currObj.byteField[EFFECTS];
            
            //No way out, print denied message of location
            } else {
                SetResponse(elements++, currObj.addrStr[OPEN_ACL_MSG], currObj.lenStr[OPEN_ACL_MSG], GAME);
                effect = currObj.effect[0];               
    22da:	80 91 1c 3a 	lds	r24, 0x3A1C	; 0x803a1c <currObj+0x28>
    22de:	3a c6       	rjmp	.+3188   	; 0x2f54 <ProcessInput+0xd42>
            }   
        
        //Enter locations or Open objects    
        } else if ((data[0] == 'e')||(data[0] == 'o')) {
    22e0:	85 36       	cpi	r24, 0x65	; 101
    22e2:	19 f0       	breq	.+6      	; 0x22ea <ProcessInput+0xd8>
    22e4:	8f 36       	cpi	r24, 0x6F	; 111
    22e6:	09 f0       	breq	.+2      	; 0x22ea <ProcessInput+0xd8>
    22e8:	df c0       	rjmp	.+446    	; 0x24a8 <ProcessInput+0x296>
                
            //Not possible, too many/little characters
            if (inputLen != 2){
    22ea:	b2 e0       	ldi	r27, 0x02	; 2
    22ec:	fb 12       	cpse	r15, r27
    22ee:	c1 cf       	rjmp	.-126    	; 0x2272 <ProcessInput+0x60>
                SetResponse(elements++, A_NOTPOSSIBLE, L_NOTPOSSIBLE, TEASER);
            } else {
                uint8_t canDo = 0;
                route[currDepth+1] = FindChild(route[currDepth], data[1], 0);
    22f0:	e0 90 26 38 	lds	r14, 0x3826	; 0x803826 <currDepth>
    22f4:	f1 2c       	mov	r15, r1
    22f6:	f7 01       	movw	r30, r14
    22f8:	ee 0f       	add	r30, r30
    22fa:	ff 1f       	adc	r31, r31
    22fc:	ec 54       	subi	r30, 0x4C	; 76
    22fe:	f6 4c       	sbci	r31, 0xC6	; 198
    2300:	40 e0       	ldi	r20, 0x00	; 0
    2302:	50 e0       	ldi	r21, 0x00	; 0
    2304:	d8 01       	movw	r26, r16
    2306:	11 96       	adiw	r26, 0x01	; 1
    2308:	6c 91       	ld	r22, X
    230a:	80 81       	ld	r24, Z
    230c:	91 81       	ldd	r25, Z+1	; 0x01
    230e:	a3 db       	rcall	.-2234   	; 0x1a56 <FindChild>
    2310:	f7 01       	movw	r30, r14
    2312:	ee 0f       	add	r30, r30
    2314:	ff 1f       	adc	r31, r31
    2316:	ea 54       	subi	r30, 0x4A	; 74
    2318:	f6 4c       	sbci	r31, 0xC6	; 198
    231a:	80 83       	st	Z, r24
    231c:	91 83       	std	Z+1, r25	; 0x01
                    
                //Child found?
                if (route[currDepth+1]) {
    231e:	90 91 26 38 	lds	r25, 0x3826	; 0x803826 <currDepth>
    2322:	29 2f       	mov	r18, r25
    2324:	30 e0       	ldi	r19, 0x00	; 0
    2326:	f9 01       	movw	r30, r18
    2328:	ee 0f       	add	r30, r30
    232a:	ff 1f       	adc	r31, r31
    232c:	ea 54       	subi	r30, 0x4A	; 74
    232e:	f6 4c       	sbci	r31, 0xC6	; 198
    2330:	40 81       	ld	r20, Z
    2332:	51 81       	ldd	r21, Z+1	; 0x01
    2334:	41 15       	cp	r20, r1
    2336:	51 05       	cpc	r21, r1
    2338:	21 f0       	breq	.+8      	; 0x2342 <ProcessInput+0x130>
                    PopulateObject(route[currDepth+1], &actObj1);
    233a:	65 eb       	ldi	r22, 0xB5	; 181
    233c:	78 e3       	ldi	r23, 0x38	; 56
    233e:	ca 01       	movw	r24, r20
    2340:	1c c0       	rjmp	.+56     	; 0x237a <ProcessInput+0x168>
                    canDo = 1;
                //No child, maybe a step back, letter ok?
                } else if (currDepth) {
    2342:	99 23       	and	r25, r25
    2344:	09 f4       	brne	.+2      	; 0x2348 <ProcessInput+0x136>
    2346:	77 c7       	rjmp	.+3822   	; 0x3236 <ProcessInput+0x1024>
                    if (CheckLetter(route[currDepth-1], data[1])) {
    2348:	22 0f       	add	r18, r18
    234a:	33 1f       	adc	r19, r19
    234c:	f9 01       	movw	r30, r18
    234e:	ee 54       	subi	r30, 0x4E	; 78
    2350:	f6 4c       	sbci	r31, 0xC6	; 198
    2352:	d8 01       	movw	r26, r16
    2354:	11 96       	adiw	r26, 0x01	; 1
    2356:	6c 91       	ld	r22, X
    2358:	80 81       	ld	r24, Z
    235a:	91 81       	ldd	r25, Z+1	; 0x01
    235c:	28 db       	rcall	.-2480   	; 0x19ae <CheckLetter>
    235e:	88 23       	and	r24, r24
    2360:	09 f4       	brne	.+2      	; 0x2364 <ProcessInput+0x152>
    2362:	69 c7       	rjmp	.+3794   	; 0x3236 <ProcessInput+0x1024>
                        PopulateObject(route[currDepth-1], &actObj1);
    2364:	e0 91 26 38 	lds	r30, 0x3826	; 0x803826 <currDepth>
    2368:	f0 e0       	ldi	r31, 0x00	; 0
    236a:	ee 0f       	add	r30, r30
    236c:	ff 1f       	adc	r31, r31
    236e:	ee 54       	subi	r30, 0x4E	; 78
    2370:	f6 4c       	sbci	r31, 0xC6	; 198
    2372:	65 eb       	ldi	r22, 0xB5	; 181
    2374:	78 e3       	ldi	r23, 0x38	; 56
    2376:	80 81       	ld	r24, Z
    2378:	91 81       	ldd	r25, Z+1	; 0x01
    237a:	a2 da       	rcall	.-2748   	; 0x18c0 <PopulateObject>
                    }
                }

                //The candidate is found! Let's check if the action is legit
                if (canDo) {
                    if ((data[0] == 'e') && ((actObj1.byteField[ACTION_MASK]&ENTER)==0)) {
    237c:	f8 01       	movw	r30, r16
    237e:	80 81       	ld	r24, Z
    2380:	85 36       	cpi	r24, 0x65	; 101
    2382:	c9 f4       	brne	.+50     	; 0x23b6 <ProcessInput+0x1a4>
    2384:	80 91 bd 38 	lds	r24, 0x38BD	; 0x8038bd <actObj1.3989+0x8>
    2388:	80 fd       	sbrc	r24, 0
    238a:	1e c0       	rjmp	.+60     	; 0x23c8 <ProcessInput+0x1b6>
    return 0;
}

//
void SetResponse(uint8_t number, uint16_t address, uint16_t length, uint8_t type){
    reactStr[0][number]=address;
    238c:	80 ea       	ldi	r24, 0xA0	; 160
    238e:	99 e7       	ldi	r25, 0x79	; 121
    2390:	80 93 f6 38 	sts	0x38F6, r24	; 0x8038f6 <reactStr+0x2>
    2394:	90 93 f7 38 	sts	0x38F7, r25	; 0x8038f7 <reactStr+0x3>
    reactStr[1][number]=length;
    2398:	8e e1       	ldi	r24, 0x1E	; 30
    239a:	90 e0       	ldi	r25, 0x00	; 0
    239c:	80 93 36 39 	sts	0x3936, r24	; 0x803936 <reactStr+0x42>
    23a0:	90 93 37 39 	sts	0x3937, r25	; 0x803937 <reactStr+0x43>
    reactStr[2][number]=type;
    23a4:	81 e0       	ldi	r24, 0x01	; 1
    23a6:	90 e0       	ldi	r25, 0x00	; 0
    23a8:	80 93 76 39 	sts	0x3976, r24	; 0x803976 <reactStr+0x82>
    23ac:	90 93 77 39 	sts	0x3977, r25	; 0x803977 <reactStr+0x83>
                }

                //The candidate is found! Let's check if the action is legit
                if (canDo) {
                    if ((data[0] == 'e') && ((actObj1.byteField[ACTION_MASK]&ENTER)==0)) {
                        SetResponse(elements++, A_CANTENTER, L_CANTENTER, TEASER);
    23b0:	72 e0       	ldi	r23, 0x02	; 2
    23b2:	77 2e       	mov	r7, r23
    23b4:	0e c7       	rjmp	.+3612   	; 0x31d2 <ProcessInput+0xfc0>
                    } else if ((data[0] == 'o') && ((actObj1.byteField[ACTION_MASK]&OPEN)==0)) {
    23b6:	8f 36       	cpi	r24, 0x6F	; 111
    23b8:	39 f4       	brne	.+14     	; 0x23c8 <ProcessInput+0x1b6>
    23ba:	80 91 bd 38 	lds	r24, 0x38BD	; 0x8038bd <actObj1.3989+0x8>
    23be:	81 fd       	sbrc	r24, 1
    23c0:	03 c0       	rjmp	.+6      	; 0x23c8 <ProcessInput+0x1b6>
    return 0;
}

//
void SetResponse(uint8_t number, uint16_t address, uint16_t length, uint8_t type){
    reactStr[0][number]=address;
    23c2:	85 e8       	ldi	r24, 0x85	; 133
    23c4:	99 e7       	ldi	r25, 0x79	; 121
    23c6:	f9 c4       	rjmp	.+2546   	; 0x2dba <ProcessInput+0xba8>
                        SetResponse(elements++, A_CANTENTER, L_CANTENTER, TEASER);
                    } else if ((data[0] == 'o') && ((actObj1.byteField[ACTION_MASK]&OPEN)==0)) {
                        SetResponse(elements++, A_CANTOPEN, L_CANTOPEN, TEASER);
                    
                    //Action legit, permission granted?
                    } else if (CheckState(actObj1.byteField[OPEN_ACL])) {
    23c8:	80 91 bb 38 	lds	r24, 0x38BB	; 0x8038bb <actObj1.3989+0x6>
    23cc:	0e 94 05 09 	call	0x120a	; 0x120a <CheckState>
    23d0:	e0 91 26 38 	lds	r30, 0x3826	; 0x803826 <currDepth>
    23d4:	88 23       	and	r24, r24
    23d6:	09 f4       	brne	.+2      	; 0x23da <ProcessInput+0x1c8>
    23d8:	49 c0       	rjmp	.+146    	; 0x246c <ProcessInput+0x25a>
                            
                        //Yes! Check if we must move forward or backwards.
                        if (route[currDepth+1]) ++currDepth; else --currDepth;
    23da:	ae 2f       	mov	r26, r30
    23dc:	b0 e0       	ldi	r27, 0x00	; 0
    23de:	aa 0f       	add	r26, r26
    23e0:	bb 1f       	adc	r27, r27
    23e2:	aa 54       	subi	r26, 0x4A	; 74
    23e4:	b6 4c       	sbci	r27, 0xC6	; 198
    23e6:	8d 91       	ld	r24, X+
    23e8:	9c 91       	ld	r25, X
    23ea:	89 2b       	or	r24, r25
    23ec:	11 f0       	breq	.+4      	; 0x23f2 <ProcessInput+0x1e0>
    23ee:	ef 5f       	subi	r30, 0xFF	; 255
    23f0:	01 c0       	rjmp	.+2      	; 0x23f4 <ProcessInput+0x1e2>
    23f2:	e1 50       	subi	r30, 0x01	; 1
    23f4:	e0 93 26 38 	sts	0x3826, r30	; 0x803826 <currDepth>
                        PopulateObject(route[currDepth], &currObj);
    23f8:	e0 91 26 38 	lds	r30, 0x3826	; 0x803826 <currDepth>
    23fc:	f0 e0       	ldi	r31, 0x00	; 0
    23fe:	ee 0f       	add	r30, r30
    2400:	ff 1f       	adc	r31, r31
    2402:	ec 54       	subi	r30, 0x4C	; 76
    2404:	f6 4c       	sbci	r31, 0xC6	; 198
    2406:	64 ef       	ldi	r22, 0xF4	; 244
    2408:	79 e3       	ldi	r23, 0x39	; 57
    240a:	80 81       	ld	r24, Z
    240c:	91 81       	ldd	r25, Z+1	; 0x01
    240e:	58 da       	rcall	.-2896   	; 0x18c0 <PopulateObject>
                        SetResponse(elements++, currObj.addrStr[DESC], currObj.lenStr[DESC],GAME);
    2410:	80 91 10 3a 	lds	r24, 0x3A10	; 0x803a10 <currObj+0x1c>
    2414:	90 91 11 3a 	lds	r25, 0x3A11	; 0x803a11 <currObj+0x1d>
    return 0;
}

//
void SetResponse(uint8_t number, uint16_t address, uint16_t length, uint8_t type){
    reactStr[0][number]=address;
    2418:	20 91 02 3a 	lds	r18, 0x3A02	; 0x803a02 <currObj+0xe>
    241c:	30 91 03 3a 	lds	r19, 0x3A03	; 0x803a03 <currObj+0xf>
    2420:	20 93 f6 38 	sts	0x38F6, r18	; 0x8038f6 <reactStr+0x2>
    2424:	30 93 f7 38 	sts	0x38F7, r19	; 0x8038f7 <reactStr+0x3>
    reactStr[1][number]=length;
    2428:	80 93 36 39 	sts	0x3936, r24	; 0x803936 <reactStr+0x42>
    242c:	90 93 37 39 	sts	0x3937, r25	; 0x803937 <reactStr+0x43>
    reactStr[2][number]=type;
    2430:	10 92 76 39 	sts	0x3976, r1	; 0x803976 <reactStr+0x82>
    2434:	10 92 77 39 	sts	0x3977, r1	; 0x803977 <reactStr+0x83>
    return 0;
}

//
void SetResponse(uint8_t number, uint16_t address, uint16_t length, uint8_t type){
    reactStr[0][number]=address;
    2438:	8b e5       	ldi	r24, 0x5B	; 91
    243a:	9a e7       	ldi	r25, 0x7A	; 122
    243c:	80 93 f8 38 	sts	0x38F8, r24	; 0x8038f8 <reactStr+0x4>
    2440:	90 93 f9 38 	sts	0x38F9, r25	; 0x8038f9 <reactStr+0x5>
    reactStr[1][number]=length;
    2444:	82 e0       	ldi	r24, 0x02	; 2
    2446:	90 e0       	ldi	r25, 0x00	; 0
    2448:	80 93 38 39 	sts	0x3938, r24	; 0x803938 <reactStr+0x44>
    244c:	90 93 39 39 	sts	0x3939, r25	; 0x803939 <reactStr+0x45>
    reactStr[2][number]=type;
    2450:	81 e0       	ldi	r24, 0x01	; 1
    2452:	90 e0       	ldi	r25, 0x00	; 0
    2454:	80 93 78 39 	sts	0x3978, r24	; 0x803978 <reactStr+0x84>
    2458:	90 93 79 39 	sts	0x3979, r25	; 0x803979 <reactStr+0x85>
                        //Yes! Check if we must move forward or backwards.
                        if (route[currDepth+1]) ++currDepth; else --currDepth;
                        PopulateObject(route[currDepth], &currObj);
                        SetResponse(elements++, currObj.addrStr[DESC], currObj.lenStr[DESC],GAME);
                        SetResponse(elements++, A_LF, 2, TEASER);
                        effect = currObj.byteField[EFFECTS];
    245c:	80 91 f8 39 	lds	r24, 0x39F8	; 0x8039f8 <currObj+0x4>
    2460:	90 e0       	ldi	r25, 0x00	; 0
    2462:	80 93 2d 38 	sts	0x382D, r24	; 0x80382d <effect>
    2466:	90 93 2e 38 	sts	0x382E, r25	; 0x80382e <effect+0x1>
    246a:	8d c4       	rjmp	.+2330   	; 0x2d86 <ProcessInput+0xb74>
                                                  
                    //Not granted!
                    } else {
                        route[currDepth+1] = 0;
    246c:	f0 e0       	ldi	r31, 0x00	; 0
    246e:	ee 0f       	add	r30, r30
    2470:	ff 1f       	adc	r31, r31
    2472:	ea 54       	subi	r30, 0x4A	; 74
    2474:	f6 4c       	sbci	r31, 0xC6	; 198
    2476:	10 82       	st	Z, r1
    2478:	11 82       	std	Z+1, r1	; 0x01
                        SetResponse(elements++, actObj1.addrStr[OPEN_ACL_MSG], actObj1.lenStr[OPEN_ACL_MSG], GAME);
    247a:	80 91 d7 38 	lds	r24, 0x38D7	; 0x8038d7 <actObj1.3989+0x22>
    247e:	90 91 d8 38 	lds	r25, 0x38D8	; 0x8038d8 <actObj1.3989+0x23>
    return 0;
}

//
void SetResponse(uint8_t number, uint16_t address, uint16_t length, uint8_t type){
    reactStr[0][number]=address;
    2482:	20 91 c9 38 	lds	r18, 0x38C9	; 0x8038c9 <actObj1.3989+0x14>
    2486:	30 91 ca 38 	lds	r19, 0x38CA	; 0x8038ca <actObj1.3989+0x15>
    248a:	20 93 f6 38 	sts	0x38F6, r18	; 0x8038f6 <reactStr+0x2>
    248e:	30 93 f7 38 	sts	0x38F7, r19	; 0x8038f7 <reactStr+0x3>
    reactStr[1][number]=length;
    2492:	80 93 36 39 	sts	0x3936, r24	; 0x803936 <reactStr+0x42>
    2496:	90 93 37 39 	sts	0x3937, r25	; 0x803937 <reactStr+0x43>
    reactStr[2][number]=type;
    249a:	10 92 76 39 	sts	0x3976, r1	; 0x803976 <reactStr+0x82>
    249e:	10 92 77 39 	sts	0x3977, r1	; 0x803977 <reactStr+0x83>
                                                  
                    //Not granted!
                    } else {
                        route[currDepth+1] = 0;
                        SetResponse(elements++, actObj1.addrStr[OPEN_ACL_MSG], actObj1.lenStr[OPEN_ACL_MSG], GAME);
                        effect = actObj1.effect[0];              
    24a2:	80 91 dd 38 	lds	r24, 0x38DD	; 0x8038dd <actObj1.3989+0x28>
    24a6:	56 c5       	rjmp	.+2732   	; 0x2f54 <ProcessInput+0xd42>
                    SetResponse(elements++, A_DONTSEE, L_DONTSEE, TEASER);                
                }
            }

        //Look around or at objects
        } else if (data[0] == 'l') {
    24a8:	8c 36       	cpi	r24, 0x6C	; 108
    24aa:	09 f0       	breq	.+2      	; 0x24ae <ProcessInput+0x29c>
    24ac:	57 c1       	rjmp	.+686    	; 0x275c <ProcessInput+0x54a>
    24ae:	e0 91 26 38 	lds	r30, 0x3826	; 0x803826 <currDepth>
            if (inputLen == 1) {
    24b2:	b1 e0       	ldi	r27, 0x01	; 1
    24b4:	fb 12       	cpse	r15, r27
    24b6:	f6 c0       	rjmp	.+492    	; 0x26a4 <ProcessInput+0x492>

                //Show info about this area first
                SetResponse(elements++, currObj.addrStr[DESC], currObj.lenStr[DESC],GAME);
    24b8:	80 91 10 3a 	lds	r24, 0x3A10	; 0x803a10 <currObj+0x1c>
    24bc:	90 91 11 3a 	lds	r25, 0x3A11	; 0x803a11 <currObj+0x1d>
    return 0;
}

//
void SetResponse(uint8_t number, uint16_t address, uint16_t length, uint8_t type){
    reactStr[0][number]=address;
    24c0:	20 91 02 3a 	lds	r18, 0x3A02	; 0x803a02 <currObj+0xe>
    24c4:	30 91 03 3a 	lds	r19, 0x3A03	; 0x803a03 <currObj+0xf>
    24c8:	20 93 f6 38 	sts	0x38F6, r18	; 0x8038f6 <reactStr+0x2>
    24cc:	30 93 f7 38 	sts	0x38F7, r19	; 0x8038f7 <reactStr+0x3>
    reactStr[1][number]=length;
    24d0:	80 93 36 39 	sts	0x3936, r24	; 0x803936 <reactStr+0x42>
    24d4:	90 93 37 39 	sts	0x3937, r25	; 0x803937 <reactStr+0x43>
    reactStr[2][number]=type;
    24d8:	10 92 76 39 	sts	0x3976, r1	; 0x803976 <reactStr+0x82>
    24dc:	10 92 77 39 	sts	0x3977, r1	; 0x803977 <reactStr+0x83>
    return 0;
}

//
void SetResponse(uint8_t number, uint16_t address, uint16_t length, uint8_t type){
    reactStr[0][number]=address;
    24e0:	8b e5       	ldi	r24, 0x5B	; 91
    24e2:	9a e7       	ldi	r25, 0x7A	; 122
    24e4:	80 93 f8 38 	sts	0x38F8, r24	; 0x8038f8 <reactStr+0x4>
    24e8:	90 93 f9 38 	sts	0x38F9, r25	; 0x8038f9 <reactStr+0x5>
    reactStr[1][number]=length;
    24ec:	82 e0       	ldi	r24, 0x02	; 2
    24ee:	90 e0       	ldi	r25, 0x00	; 0
    24f0:	80 93 38 39 	sts	0x3938, r24	; 0x803938 <reactStr+0x44>
    24f4:	90 93 39 39 	sts	0x3939, r25	; 0x803939 <reactStr+0x45>
    reactStr[2][number]=type;
    24f8:	81 e0       	ldi	r24, 0x01	; 1
    24fa:	90 e0       	ldi	r25, 0x00	; 0
    24fc:	80 93 78 39 	sts	0x3978, r24	; 0x803978 <reactStr+0x84>
    2500:	90 93 79 39 	sts	0x3979, r25	; 0x803979 <reactStr+0x85>
    return 0;
}

//
void SetResponse(uint8_t number, uint16_t address, uint16_t length, uint8_t type){
    reactStr[0][number]=address;
    2504:	2e ee       	ldi	r18, 0xEE	; 238
    2506:	39 e7       	ldi	r19, 0x79	; 121
    2508:	20 93 fa 38 	sts	0x38FA, r18	; 0x8038fa <reactStr+0x6>
    250c:	30 93 fb 38 	sts	0x38FB, r19	; 0x8038fb <reactStr+0x7>
    reactStr[1][number]=length;
    2510:	25 e1       	ldi	r18, 0x15	; 21
    2512:	30 e0       	ldi	r19, 0x00	; 0
    2514:	20 93 3a 39 	sts	0x393A, r18	; 0x80393a <reactStr+0x46>
    2518:	30 93 3b 39 	sts	0x393B, r19	; 0x80393b <reactStr+0x47>
    reactStr[2][number]=type;
    251c:	80 93 7a 39 	sts	0x397A, r24	; 0x80397a <reactStr+0x86>
    2520:	90 93 7b 39 	sts	0x397B, r25	; 0x80397b <reactStr+0x87>
                SetResponse(elements++, currObj.addrStr[DESC], currObj.lenStr[DESC],GAME);
                SetResponse(elements++, A_LF, 2, TEASER);
                SetResponse(elements++, A_LOOK, L_LOOK, TEASER);

                //Check the visible children first
                route[currDepth+1] = 0;
    2524:	f0 e0       	ldi	r31, 0x00	; 0
    2526:	ee 0f       	add	r30, r30
    2528:	ff 1f       	adc	r31, r31
    252a:	ea 54       	subi	r30, 0x4A	; 74
    252c:	f6 4c       	sbci	r31, 0xC6	; 198
    252e:	10 82       	st	Z, r1
    2530:	11 82       	std	Z+1, r1	; 0x01
            if (inputLen == 1) {

                //Show info about this area first
                SetResponse(elements++, currObj.addrStr[DESC], currObj.lenStr[DESC],GAME);
                SetResponse(elements++, A_LF, 2, TEASER);
                SetResponse(elements++, A_LOOK, L_LOOK, TEASER);
    2532:	84 e0       	ldi	r24, 0x04	; 4
    2534:	68 2e       	mov	r6, r24
    return 0;
}

//
void SetResponse(uint8_t number, uint16_t address, uint16_t length, uint8_t type){
    reactStr[0][number]=address;
    2536:	99 e5       	ldi	r25, 0x59	; 89
    2538:	c9 2e       	mov	r12, r25
    253a:	9a e7       	ldi	r25, 0x7A	; 122
    253c:	d9 2e       	mov	r13, r25
    reactStr[1][number]=length;
    253e:	22 e0       	ldi	r18, 0x02	; 2
    2540:	a2 2e       	mov	r10, r18
    2542:	b1 2c       	mov	r11, r1
    reactStr[2][number]=type;
    2544:	88 24       	eor	r8, r8
    2546:	83 94       	inc	r8
    2548:	91 2c       	mov	r9, r1
                SetResponse(elements++, A_LOOK, L_LOOK, TEASER);

                //Check the visible children first
                route[currDepth+1] = 0;
                do{
                    route[currDepth+1] = FindChild(route[currDepth], 0, route[currDepth+1]);
    254a:	80 91 26 38 	lds	r24, 0x3826	; 0x803826 <currDepth>
    254e:	90 e0       	ldi	r25, 0x00	; 0
    2550:	9c 01       	movw	r18, r24
    2552:	22 0f       	add	r18, r18
    2554:	33 1f       	adc	r19, r19
    2556:	f9 01       	movw	r30, r18
    2558:	ea 54       	subi	r30, 0x4A	; 74
    255a:	f6 4c       	sbci	r31, 0xC6	; 198
    255c:	7f 01       	movw	r14, r30
    255e:	40 81       	ld	r20, Z
    2560:	51 81       	ldd	r21, Z+1	; 0x01
    2562:	f9 01       	movw	r30, r18
    2564:	ec 54       	subi	r30, 0x4C	; 76
    2566:	f6 4c       	sbci	r31, 0xC6	; 198
    2568:	60 e0       	ldi	r22, 0x00	; 0
    256a:	80 81       	ld	r24, Z
    256c:	91 81       	ldd	r25, Z+1	; 0x01
    256e:	73 da       	rcall	.-2842   	; 0x1a56 <FindChild>
    2570:	d7 01       	movw	r26, r14
    2572:	8d 93       	st	X+, r24
    2574:	9c 93       	st	X, r25
                    if (route[currDepth+1]) {
    2576:	e0 91 26 38 	lds	r30, 0x3826	; 0x803826 <currDepth>
    257a:	f0 e0       	ldi	r31, 0x00	; 0
    257c:	ee 0f       	add	r30, r30
    257e:	ff 1f       	adc	r31, r31
    2580:	ea 54       	subi	r30, 0x4A	; 74
    2582:	f6 4c       	sbci	r31, 0xC6	; 198
    2584:	80 81       	ld	r24, Z
    2586:	91 81       	ldd	r25, Z+1	; 0x01
    2588:	00 97       	sbiw	r24, 0x00	; 0
    258a:	09 f4       	brne	.+2      	; 0x258e <ProcessInput+0x37c>
    258c:	4a c0       	rjmp	.+148    	; 0x2622 <ProcessInput+0x410>
                        if ((route[currDepth+1] != inventory[0])&&(route[currDepth+1] != inventory[1])) {
    258e:	20 91 31 38 	lds	r18, 0x3831	; 0x803831 <inventory>
    2592:	30 91 32 38 	lds	r19, 0x3832	; 0x803832 <inventory+0x1>
    2596:	82 17       	cp	r24, r18
    2598:	93 07       	cpc	r25, r19
    259a:	09 f4       	brne	.+2      	; 0x259e <ProcessInput+0x38c>
    259c:	42 c0       	rjmp	.+132    	; 0x2622 <ProcessInput+0x410>
    259e:	20 91 33 38 	lds	r18, 0x3833	; 0x803833 <inventory+0x2>
    25a2:	30 91 34 38 	lds	r19, 0x3834	; 0x803834 <inventory+0x3>
    25a6:	82 17       	cp	r24, r18
    25a8:	93 07       	cpc	r25, r19
                            PopulateObject(route[currDepth+1], &actObj1);
    25aa:	d9 f1       	breq	.+118    	; 0x2622 <ProcessInput+0x410>
    25ac:	65 eb       	ldi	r22, 0xB5	; 181
    25ae:	78 e3       	ldi	r23, 0x38	; 56
    25b0:	87 d9       	rcall	.-3314   	; 0x18c0 <PopulateObject>
                            SetResponse(elements++, actObj1.addrStr[NAME], actObj1.lenStr[NAME],GAME);
    25b2:	80 91 cf 38 	lds	r24, 0x38CF	; 0x8038cf <actObj1.3989+0x1a>
    25b6:	90 91 d0 38 	lds	r25, 0x38D0	; 0x8038d0 <actObj1.3989+0x1b>
    return 0;
}

//
void SetResponse(uint8_t number, uint16_t address, uint16_t length, uint8_t type){
    reactStr[0][number]=address;
    25ba:	e6 2d       	mov	r30, r6
    25bc:	f0 e0       	ldi	r31, 0x00	; 0
    25be:	df 01       	movw	r26, r30
    25c0:	aa 0f       	add	r26, r26
    25c2:	bb 1f       	adc	r27, r27
    25c4:	ac 50       	subi	r26, 0x0C	; 12
    25c6:	b7 4c       	sbci	r27, 0xC7	; 199
    25c8:	20 91 c1 38 	lds	r18, 0x38C1	; 0x8038c1 <actObj1.3989+0xc>
    25cc:	30 91 c2 38 	lds	r19, 0x38C2	; 0x8038c2 <actObj1.3989+0xd>
    25d0:	2d 93       	st	X+, r18
    25d2:	3c 93       	st	X, r19
    reactStr[1][number]=length;
    25d4:	df 01       	movw	r26, r30
    25d6:	aa 0f       	add	r26, r26
    25d8:	bb 1f       	adc	r27, r27
    25da:	ac 5c       	subi	r26, 0xCC	; 204
    25dc:	b6 4c       	sbci	r27, 0xC6	; 198
    25de:	8d 93       	st	X+, r24
    25e0:	9c 93       	st	X, r25
    reactStr[2][number]=type;
    25e2:	ee 0f       	add	r30, r30
    25e4:	ff 1f       	adc	r31, r31
    25e6:	ec 58       	subi	r30, 0x8C	; 140
    25e8:	f6 4c       	sbci	r31, 0xC6	; 198
    25ea:	10 82       	st	Z, r1
    25ec:	11 82       	std	Z+1, r1	; 0x01
    return 0;
}

//
void SetResponse(uint8_t number, uint16_t address, uint16_t length, uint8_t type){
    reactStr[0][number]=address;
    25ee:	81 e0       	ldi	r24, 0x01	; 1
    25f0:	86 0d       	add	r24, r6
    25f2:	90 e0       	ldi	r25, 0x00	; 0
    25f4:	63 94       	inc	r6
    25f6:	63 94       	inc	r6
    25f8:	fc 01       	movw	r30, r24
    25fa:	ee 0f       	add	r30, r30
    25fc:	ff 1f       	adc	r31, r31
    25fe:	ec 50       	subi	r30, 0x0C	; 12
    2600:	f7 4c       	sbci	r31, 0xC7	; 199
    2602:	c0 82       	st	Z, r12
    2604:	d1 82       	std	Z+1, r13	; 0x01
    reactStr[1][number]=length;
    2606:	fc 01       	movw	r30, r24
    2608:	ee 0f       	add	r30, r30
    260a:	ff 1f       	adc	r31, r31
    260c:	ec 5c       	subi	r30, 0xCC	; 204
    260e:	f6 4c       	sbci	r31, 0xC6	; 198
    2610:	a0 82       	st	Z, r10
    2612:	b1 82       	std	Z+1, r11	; 0x01
    reactStr[2][number]=type;
    2614:	88 0f       	add	r24, r24
    2616:	99 1f       	adc	r25, r25
    2618:	fc 01       	movw	r30, r24
    261a:	ec 58       	subi	r30, 0x8C	; 140
    261c:	f6 4c       	sbci	r31, 0xC6	; 198
    261e:	80 82       	st	Z, r8
    2620:	91 82       	std	Z+1, r9	; 0x01
                            PopulateObject(route[currDepth+1], &actObj1);
                            SetResponse(elements++, actObj1.addrStr[NAME], actObj1.lenStr[NAME],GAME);
                            SetResponse(elements++, A_COMMA, L_COMMA, TEASER);
                        }
                    }
                }while (route[currDepth+1]);
    2622:	20 91 26 38 	lds	r18, 0x3826	; 0x803826 <currDepth>
    2626:	82 2f       	mov	r24, r18
    2628:	90 e0       	ldi	r25, 0x00	; 0
    262a:	fc 01       	movw	r30, r24
    262c:	ee 0f       	add	r30, r30
    262e:	ff 1f       	adc	r31, r31
    2630:	ea 54       	subi	r30, 0x4A	; 74
    2632:	f6 4c       	sbci	r31, 0xC6	; 198
    2634:	40 81       	ld	r20, Z
    2636:	51 81       	ldd	r21, Z+1	; 0x01
    2638:	45 2b       	or	r20, r21
    263a:	09 f0       	breq	.+2      	; 0x263e <ProcessInput+0x42c>
    263c:	86 cf       	rjmp	.-244    	; 0x254a <ProcessInput+0x338>

                //Look back if not on level 0
                if (currDepth) {
    263e:	22 23       	and	r18, r18
    2640:	69 f1       	breq	.+90     	; 0x269c <ProcessInput+0x48a>
                    PopulateObject(route[currDepth-1], &actObj1);
    2642:	88 0f       	add	r24, r24
    2644:	99 1f       	adc	r25, r25
    2646:	fc 01       	movw	r30, r24
    2648:	ee 54       	subi	r30, 0x4E	; 78
    264a:	f6 4c       	sbci	r31, 0xC6	; 198
    264c:	65 eb       	ldi	r22, 0xB5	; 181
    264e:	78 e3       	ldi	r23, 0x38	; 56
    2650:	80 81       	ld	r24, Z
    2652:	91 81       	ldd	r25, Z+1	; 0x01
    2654:	35 d9       	rcall	.-3478   	; 0x18c0 <PopulateObject>
                    SetResponse(elements++, actObj1.addrStr[NAME], actObj1.lenStr[NAME],GAME);
    2656:	20 91 cf 38 	lds	r18, 0x38CF	; 0x8038cf <actObj1.3989+0x1a>
    265a:	30 91 d0 38 	lds	r19, 0x38D0	; 0x8038d0 <actObj1.3989+0x1b>
    265e:	77 24       	eor	r7, r7
    2660:	73 94       	inc	r7
    2662:	76 0c       	add	r7, r6
    return 0;
}

//
void SetResponse(uint8_t number, uint16_t address, uint16_t length, uint8_t type){
    reactStr[0][number]=address;
    2664:	86 2d       	mov	r24, r6
    2666:	90 e0       	ldi	r25, 0x00	; 0
    2668:	fc 01       	movw	r30, r24
    266a:	ee 0f       	add	r30, r30
    266c:	ff 1f       	adc	r31, r31
    266e:	ec 50       	subi	r30, 0x0C	; 12
    2670:	f7 4c       	sbci	r31, 0xC7	; 199
    2672:	40 91 c1 38 	lds	r20, 0x38C1	; 0x8038c1 <actObj1.3989+0xc>
    2676:	50 91 c2 38 	lds	r21, 0x38C2	; 0x8038c2 <actObj1.3989+0xd>
    267a:	40 83       	st	Z, r20
    267c:	51 83       	std	Z+1, r21	; 0x01
    reactStr[1][number]=length;
    267e:	fc 01       	movw	r30, r24
    2680:	ee 0f       	add	r30, r30
    2682:	ff 1f       	adc	r31, r31
    2684:	ec 5c       	subi	r30, 0xCC	; 204
    2686:	f6 4c       	sbci	r31, 0xC6	; 198
    2688:	20 83       	st	Z, r18
    268a:	31 83       	std	Z+1, r19	; 0x01
    reactStr[2][number]=type;
    268c:	88 0f       	add	r24, r24
    268e:	99 1f       	adc	r25, r25
    2690:	fc 01       	movw	r30, r24
    2692:	ec 58       	subi	r30, 0x8C	; 140
    2694:	f6 4c       	sbci	r31, 0xC6	; 198
    2696:	10 82       	st	Z, r1
    2698:	11 82       	std	Z+1, r1	; 0x01
    269a:	9b c5       	rjmp	.+2870   	; 0x31d2 <ProcessInput+0xfc0>

                //Look back if not on level 0
                if (currDepth) {
                    PopulateObject(route[currDepth-1], &actObj1);
                    SetResponse(elements++, actObj1.addrStr[NAME], actObj1.lenStr[NAME],GAME);
                } else elements-=1;
    269c:	77 24       	eor	r7, r7
    269e:	7a 94       	dec	r7
    26a0:	76 0c       	add	r7, r6
    26a2:	97 c5       	rjmp	.+2862   	; 0x31d2 <ProcessInput+0xfc0>

            } else {
                route[currDepth+1] = FindChild(route[currDepth], data[1], 0);
    26a4:	ee 2e       	mov	r14, r30
    26a6:	f1 2c       	mov	r15, r1
    26a8:	f7 01       	movw	r30, r14
    26aa:	ee 0f       	add	r30, r30
    26ac:	ff 1f       	adc	r31, r31
    26ae:	ec 54       	subi	r30, 0x4C	; 76
    26b0:	f6 4c       	sbci	r31, 0xC6	; 198
    26b2:	40 e0       	ldi	r20, 0x00	; 0
    26b4:	50 e0       	ldi	r21, 0x00	; 0
    26b6:	d8 01       	movw	r26, r16
    26b8:	11 96       	adiw	r26, 0x01	; 1
    26ba:	6c 91       	ld	r22, X
    26bc:	80 81       	ld	r24, Z
    26be:	91 81       	ldd	r25, Z+1	; 0x01
    26c0:	ca d9       	rcall	.-3180   	; 0x1a56 <FindChild>
    26c2:	f7 01       	movw	r30, r14
    26c4:	ee 0f       	add	r30, r30
    26c6:	ff 1f       	adc	r31, r31
    26c8:	ea 54       	subi	r30, 0x4A	; 74
    26ca:	f6 4c       	sbci	r31, 0xC6	; 198
    26cc:	80 83       	st	Z, r24
    26ce:	91 83       	std	Z+1, r25	; 0x01
                if (route[currDepth+1]) {
    26d0:	90 91 26 38 	lds	r25, 0x3826	; 0x803826 <currDepth>
    26d4:	29 2f       	mov	r18, r25
    26d6:	30 e0       	ldi	r19, 0x00	; 0
    26d8:	f9 01       	movw	r30, r18
    26da:	ee 0f       	add	r30, r30
    26dc:	ff 1f       	adc	r31, r31
    26de:	ea 54       	subi	r30, 0x4A	; 74
    26e0:	f6 4c       	sbci	r31, 0xC6	; 198
    26e2:	40 81       	ld	r20, Z
    26e4:	51 81       	ldd	r21, Z+1	; 0x01
    26e6:	41 15       	cp	r20, r1
    26e8:	51 05       	cpc	r21, r1
    26ea:	21 f0       	breq	.+8      	; 0x26f4 <ProcessInput+0x4e2>
                    PopulateObject(route[currDepth+1], &actObj1);
    26ec:	65 eb       	ldi	r22, 0xB5	; 181
    26ee:	78 e3       	ldi	r23, 0x38	; 56
    26f0:	ca 01       	movw	r24, r20
    26f2:	1e c0       	rjmp	.+60     	; 0x2730 <ProcessInput+0x51e>
//TODO: CHECKSTATE -> A_CANTLOOK item
                    SetResponse(elements++, actObj1.addrStr[DESC], actObj1.lenStr[DESC],GAME);   
                } else if (currDepth) {
    26f4:	99 23       	and	r25, r25
    26f6:	09 f4       	brne	.+2      	; 0x26fa <ProcessInput+0x4e8>
                    if (CheckLetter(route[currDepth-1], data[1])) {
    26f8:	9e c5       	rjmp	.+2876   	; 0x3236 <ProcessInput+0x1024>
    26fa:	22 0f       	add	r18, r18
    26fc:	33 1f       	adc	r19, r19
    26fe:	f9 01       	movw	r30, r18
    2700:	ee 54       	subi	r30, 0x4E	; 78
    2702:	f6 4c       	sbci	r31, 0xC6	; 198
    2704:	d8 01       	movw	r26, r16
    2706:	11 96       	adiw	r26, 0x01	; 1
    2708:	6c 91       	ld	r22, X
    270a:	80 81       	ld	r24, Z
    270c:	91 81       	ldd	r25, Z+1	; 0x01
    270e:	4f d9       	rcall	.-3426   	; 0x19ae <CheckLetter>
    2710:	81 11       	cpse	r24, r1
    2712:	03 c0       	rjmp	.+6      	; 0x271a <ProcessInput+0x508>
}

//The game logic!
uint8_t ProcessInput(uint8_t *data){
    static object_model_t actObj1, actObj2;
    uint8_t elements = 1;
    2714:	77 24       	eor	r7, r7
    2716:	73 94       	inc	r7
                    PopulateObject(route[currDepth+1], &actObj1);
//TODO: CHECKSTATE -> A_CANTLOOK item
                    SetResponse(elements++, actObj1.addrStr[DESC], actObj1.lenStr[DESC],GAME);   
                } else if (currDepth) {
                    if (CheckLetter(route[currDepth-1], data[1])) {
                        PopulateObject(route[currDepth-1], &actObj1);
    2718:	5c c5       	rjmp	.+2744   	; 0x31d2 <ProcessInput+0xfc0>
    271a:	e0 91 26 38 	lds	r30, 0x3826	; 0x803826 <currDepth>
    271e:	f0 e0       	ldi	r31, 0x00	; 0
    2720:	ee 0f       	add	r30, r30
    2722:	ff 1f       	adc	r31, r31
    2724:	ee 54       	subi	r30, 0x4E	; 78
    2726:	f6 4c       	sbci	r31, 0xC6	; 198
    2728:	65 eb       	ldi	r22, 0xB5	; 181
    272a:	78 e3       	ldi	r23, 0x38	; 56
    272c:	80 81       	ld	r24, Z
    272e:	91 81       	ldd	r25, Z+1	; 0x01
    2730:	c7 d8       	rcall	.-3698   	; 0x18c0 <PopulateObject>
                        SetResponse(elements++, actObj1.addrStr[DESC], actObj1.lenStr[DESC],GAME);
    2732:	80 91 d1 38 	lds	r24, 0x38D1	; 0x8038d1 <actObj1.3989+0x1c>
    2736:	90 91 d2 38 	lds	r25, 0x38D2	; 0x8038d2 <actObj1.3989+0x1d>
    return 0;
}

//
void SetResponse(uint8_t number, uint16_t address, uint16_t length, uint8_t type){
    reactStr[0][number]=address;
    273a:	20 91 c3 38 	lds	r18, 0x38C3	; 0x8038c3 <actObj1.3989+0xe>
    273e:	30 91 c4 38 	lds	r19, 0x38C4	; 0x8038c4 <actObj1.3989+0xf>
    2742:	20 93 f6 38 	sts	0x38F6, r18	; 0x8038f6 <reactStr+0x2>
    2746:	30 93 f7 38 	sts	0x38F7, r19	; 0x8038f7 <reactStr+0x3>
    reactStr[1][number]=length;
    274a:	80 93 36 39 	sts	0x3936, r24	; 0x803936 <reactStr+0x42>
    274e:	90 93 37 39 	sts	0x3937, r25	; 0x803937 <reactStr+0x43>
    reactStr[2][number]=type;
    2752:	10 92 76 39 	sts	0x3976, r1	; 0x803976 <reactStr+0x82>
    2756:	10 92 77 39 	sts	0x3977, r1	; 0x803977 <reactStr+0x83>
    275a:	2a ce       	rjmp	.-940    	; 0x23b0 <ProcessInput+0x19e>
                    SetResponse(elements++, A_DONTSEE, L_DONTSEE, TEASER);
                }
            }
        
        //Pick up an object
        } else if (data[0] == 'p') {
    275c:	80 37       	cpi	r24, 0x70	; 112
    275e:	09 f0       	breq	.+2      	; 0x2762 <ProcessInput+0x550>
    2760:	96 c0       	rjmp	.+300    	; 0x288e <ProcessInput+0x67c>
            if (inventory[0]&&inventory[1]) {
    2762:	80 91 31 38 	lds	r24, 0x3831	; 0x803831 <inventory>
    2766:	90 91 32 38 	lds	r25, 0x3832	; 0x803832 <inventory+0x1>
    276a:	89 2b       	or	r24, r25
    276c:	79 f0       	breq	.+30     	; 0x278c <ProcessInput+0x57a>
    276e:	80 91 33 38 	lds	r24, 0x3833	; 0x803833 <inventory+0x2>
    2772:	90 91 34 38 	lds	r25, 0x3834	; 0x803834 <inventory+0x3>
    2776:	89 2b       	or	r24, r25
    2778:	49 f0       	breq	.+18     	; 0x278c <ProcessInput+0x57a>
    return 0;
}

//
void SetResponse(uint8_t number, uint16_t address, uint16_t length, uint8_t type){
    reactStr[0][number]=address;
    277a:	85 e4       	ldi	r24, 0x45	; 69
    277c:	98 e7       	ldi	r25, 0x78	; 120
    277e:	80 93 f6 38 	sts	0x38F6, r24	; 0x8038f6 <reactStr+0x2>
    2782:	90 93 f7 38 	sts	0x38F7, r25	; 0x8038f7 <reactStr+0x3>
    reactStr[1][number]=length;
    2786:	89 e5       	ldi	r24, 0x59	; 89
    2788:	90 e0       	ldi	r25, 0x00	; 0
    278a:	08 ce       	rjmp	.-1008   	; 0x239c <ProcessInput+0x18a>
        
        //Pick up an object
        } else if (data[0] == 'p') {
            if (inventory[0]&&inventory[1]) {
                SetResponse(elements++, A_CARRYTWO, L_CARRYTWO, TEASER);
            } else if (inputLen != 2) {
    278c:	b2 e0       	ldi	r27, 0x02	; 2
    278e:	fb 12       	cpse	r15, r27
    2790:	70 cd       	rjmp	.-1312   	; 0x2272 <ProcessInput+0x60>
                SetResponse(elements++, A_NOTPOSSIBLE, L_NOTPOSSIBLE, TEASER);
            } else {
                route[currDepth+1] = FindChild(route[currDepth], data[1], 0);
    2792:	e0 90 26 38 	lds	r14, 0x3826	; 0x803826 <currDepth>
    2796:	f1 2c       	mov	r15, r1
    2798:	f7 01       	movw	r30, r14
    279a:	ee 0f       	add	r30, r30
    279c:	ff 1f       	adc	r31, r31
    279e:	ec 54       	subi	r30, 0x4C	; 76
    27a0:	f6 4c       	sbci	r31, 0xC6	; 198
    27a2:	40 e0       	ldi	r20, 0x00	; 0
    27a4:	50 e0       	ldi	r21, 0x00	; 0
    27a6:	d8 01       	movw	r26, r16
    27a8:	11 96       	adiw	r26, 0x01	; 1
    27aa:	6c 91       	ld	r22, X
    27ac:	80 81       	ld	r24, Z
    27ae:	91 81       	ldd	r25, Z+1	; 0x01
    27b0:	52 d9       	rcall	.-3420   	; 0x1a56 <FindChild>
    27b2:	f7 01       	movw	r30, r14
    27b4:	ee 0f       	add	r30, r30
    27b6:	ff 1f       	adc	r31, r31
    27b8:	ea 54       	subi	r30, 0x4A	; 74
    27ba:	f6 4c       	sbci	r31, 0xC6	; 198
    27bc:	80 83       	st	Z, r24
    27be:	91 83       	std	Z+1, r25	; 0x01
                if (route[currDepth+1]) {
    27c0:	20 91 26 38 	lds	r18, 0x3826	; 0x803826 <currDepth>
    27c4:	30 e0       	ldi	r19, 0x00	; 0
    27c6:	2f 5f       	subi	r18, 0xFF	; 255
    27c8:	3f 4f       	sbci	r19, 0xFF	; 255
    27ca:	22 0f       	add	r18, r18
    27cc:	33 1f       	adc	r19, r19
    27ce:	f9 01       	movw	r30, r18
    27d0:	ec 54       	subi	r30, 0x4C	; 76
    27d2:	f6 4c       	sbci	r31, 0xC6	; 198
    27d4:	80 81       	ld	r24, Z
    27d6:	91 81       	ldd	r25, Z+1	; 0x01
    27d8:	00 97       	sbiw	r24, 0x00	; 0
    27da:	09 f4       	brne	.+2      	; 0x27de <ProcessInput+0x5cc>
    27dc:	ca c3       	rjmp	.+1940   	; 0x2f72 <ProcessInput+0xd60>
                    if ((route[currDepth+1] == inventory[0])||(route[currDepth+1] == inventory[1])) {
    27de:	40 91 31 38 	lds	r20, 0x3831	; 0x803831 <inventory>
    27e2:	50 91 32 38 	lds	r21, 0x3832	; 0x803832 <inventory+0x1>
    27e6:	84 17       	cp	r24, r20
    27e8:	95 07       	cpc	r25, r21
    27ea:	39 f0       	breq	.+14     	; 0x27fa <ProcessInput+0x5e8>
    27ec:	40 91 33 38 	lds	r20, 0x3833	; 0x803833 <inventory+0x2>
    27f0:	50 91 34 38 	lds	r21, 0x3834	; 0x803834 <inventory+0x3>
    27f4:	84 17       	cp	r24, r20
    27f6:	95 07       	cpc	r25, r21
    27f8:	c1 f4       	brne	.+48     	; 0x282a <ProcessInput+0x618>
    return 0;
}

//
void SetResponse(uint8_t number, uint16_t address, uint16_t length, uint8_t type){
    reactStr[0][number]=address;
    27fa:	80 e2       	ldi	r24, 0x20	; 32
    27fc:	98 e7       	ldi	r25, 0x78	; 120
    27fe:	80 93 f6 38 	sts	0x38F6, r24	; 0x8038f6 <reactStr+0x2>
    2802:	90 93 f7 38 	sts	0x38F7, r25	; 0x8038f7 <reactStr+0x3>
    reactStr[1][number]=length;
    2806:	85 e2       	ldi	r24, 0x25	; 37
    2808:	90 e0       	ldi	r25, 0x00	; 0
    280a:	80 93 36 39 	sts	0x3936, r24	; 0x803936 <reactStr+0x42>
    280e:	90 93 37 39 	sts	0x3937, r25	; 0x803937 <reactStr+0x43>
    reactStr[2][number]=type;
    2812:	81 e0       	ldi	r24, 0x01	; 1
    2814:	90 e0       	ldi	r25, 0x00	; 0
    2816:	80 93 76 39 	sts	0x3976, r24	; 0x803976 <reactStr+0x82>
    281a:	90 93 77 39 	sts	0x3977, r25	; 0x803977 <reactStr+0x83>
            } else {
                route[currDepth+1] = FindChild(route[currDepth], data[1], 0);
                if (route[currDepth+1]) {
                    if ((route[currDepth+1] == inventory[0])||(route[currDepth+1] == inventory[1])) {
                        SetResponse(elements++, A_ALREADYCARRYING, L_ALREADYCARRYING, TEASER);
                        route[currDepth+1] = 0;
    281e:	f9 01       	movw	r30, r18
    2820:	ec 54       	subi	r30, 0x4C	; 76
    2822:	f6 4c       	sbci	r31, 0xC6	; 198
    2824:	10 82       	st	Z, r1
    2826:	11 82       	std	Z+1, r1	; 0x01
                    } else {
                        //Put item in the inventory if possible
                        PopulateObject(route[currDepth+1], &actObj1);  
    2828:	c3 cd       	rjmp	.-1146   	; 0x23b0 <ProcessInput+0x19e>
    282a:	65 eb       	ldi	r22, 0xB5	; 181
    282c:	78 e3       	ldi	r23, 0x38	; 56
    282e:	48 d8       	rcall	.-3952   	; 0x18c0 <PopulateObject>
                        if (CheckState(actObj1.byteField[ACTION_ACL])) {
    2830:	80 91 bc 38 	lds	r24, 0x38BC	; 0x8038bc <actObj1.3989+0x7>
    2834:	0e 94 05 09 	call	0x120a	; 0x120a <CheckState>
    2838:	88 23       	and	r24, r24
    283a:	09 f4       	brne	.+2      	; 0x283e <ProcessInput+0x62c>
    283c:	75 c3       	rjmp	.+1770   	; 0x2f28 <ProcessInput+0xd16>
                            if (actObj1.byteField[ITEM_NR]) {
    283e:	80 91 c0 38 	lds	r24, 0x38C0	; 0x8038c0 <actObj1.3989+0xb>
    2842:	88 23       	and	r24, r24
    2844:	09 f4       	brne	.+2      	; 0x2848 <ProcessInput+0x636>
    2846:	15 cd       	rjmp	.-1494   	; 0x2272 <ProcessInput+0x60>
                                if (inventory[0]) {
    2848:	80 91 31 38 	lds	r24, 0x3831	; 0x803831 <inventory>
    284c:	90 91 32 38 	lds	r25, 0x3832	; 0x803832 <inventory+0x1>
    2850:	e0 91 26 38 	lds	r30, 0x3826	; 0x803826 <currDepth>
                                    inventory[1] = route[currDepth+1];
    2854:	f0 e0       	ldi	r31, 0x00	; 0
    2856:	ee 0f       	add	r30, r30
    2858:	ff 1f       	adc	r31, r31
    285a:	ea 54       	subi	r30, 0x4A	; 74
    285c:	f6 4c       	sbci	r31, 0xC6	; 198
                    } else {
                        //Put item in the inventory if possible
                        PopulateObject(route[currDepth+1], &actObj1);  
                        if (CheckState(actObj1.byteField[ACTION_ACL])) {
                            if (actObj1.byteField[ITEM_NR]) {
                                if (inventory[0]) {
    285e:	89 2b       	or	r24, r25
    2860:	39 f0       	breq	.+14     	; 0x2870 <ProcessInput+0x65e>
                                    inventory[1] = route[currDepth+1];
    2862:	80 81       	ld	r24, Z
    2864:	91 81       	ldd	r25, Z+1	; 0x01
    2866:	80 93 33 38 	sts	0x3833, r24	; 0x803833 <inventory+0x2>
    286a:	90 93 34 38 	sts	0x3834, r25	; 0x803834 <inventory+0x3>
    286e:	06 c0       	rjmp	.+12     	; 0x287c <ProcessInput+0x66a>
                                } else {
                                    inventory[0] = route[currDepth+1];
    2870:	80 81       	ld	r24, Z
    2872:	91 81       	ldd	r25, Z+1	; 0x01
    2874:	80 93 31 38 	sts	0x3831, r24	; 0x803831 <inventory>
    2878:	90 93 32 38 	sts	0x3832, r25	; 0x803832 <inventory+0x1>
    return 0;
}

//
void SetResponse(uint8_t number, uint16_t address, uint16_t length, uint8_t type){
    reactStr[0][number]=address;
    287c:	8a e0       	ldi	r24, 0x0A	; 10
    287e:	98 e7       	ldi	r25, 0x78	; 120
    2880:	80 93 f6 38 	sts	0x38F6, r24	; 0x8038f6 <reactStr+0x2>
    2884:	90 93 f7 38 	sts	0x38F7, r25	; 0x8038f7 <reactStr+0x3>
    reactStr[1][number]=length;
    2888:	86 e1       	ldi	r24, 0x16	; 22
    288a:	90 e0       	ldi	r25, 0x00	; 0
    288c:	5e c2       	rjmp	.+1212   	; 0x2d4a <ProcessInput+0xb38>
                } else SetResponse(elements++, A_NOSUCHOBJECT, L_NOSUCHOBJECT, TEASER);
            }
        } else

        //Drop item if in inventory
        if (data[0] == 'd') {
    288e:	84 36       	cpi	r24, 0x64	; 100
    2890:	d9 f4       	brne	.+54     	; 0x28c8 <ProcessInput+0x6b6>
            if ((inventory[0] == 0)&&(inventory[1] == 0)){
    2892:	80 91 31 38 	lds	r24, 0x3831	; 0x803831 <inventory>
    2896:	90 91 32 38 	lds	r25, 0x3832	; 0x803832 <inventory+0x1>
    289a:	00 97       	sbiw	r24, 0x00	; 0
    289c:	09 f0       	breq	.+2      	; 0x28a0 <ProcessInput+0x68e>
    289e:	ce c4       	rjmp	.+2460   	; 0x323c <ProcessInput+0x102a>
    28a0:	80 91 33 38 	lds	r24, 0x3833	; 0x803833 <inventory+0x2>
    28a4:	90 91 34 38 	lds	r25, 0x3834	; 0x803834 <inventory+0x3>
    28a8:	89 2b       	or	r24, r25
    28aa:	49 f4       	brne	.+18     	; 0x28be <ProcessInput+0x6ac>
    return 0;
}

//
void SetResponse(uint8_t number, uint16_t address, uint16_t length, uint8_t type){
    reactStr[0][number]=address;
    28ac:	84 ee       	ldi	r24, 0xE4	; 228
    28ae:	97 e7       	ldi	r25, 0x77	; 119
    28b0:	80 93 f6 38 	sts	0x38F6, r24	; 0x8038f6 <reactStr+0x2>
    28b4:	90 93 f7 38 	sts	0x38F7, r25	; 0x8038f7 <reactStr+0x3>
    reactStr[1][number]=length;
    28b8:	86 e2       	ldi	r24, 0x26	; 38
    28ba:	90 e0       	ldi	r25, 0x00	; 0
    28bc:	6f cd       	rjmp	.-1314   	; 0x239c <ProcessInput+0x18a>

        //Drop item if in inventory
        if (data[0] == 'd') {
            if ((inventory[0] == 0)&&(inventory[1] == 0)){
                SetResponse(elements++, A_EMPTYHANDS, L_EMPTYHANDS, TEASER);
            } else if (inputLen != 2) {
    28be:	b2 e0       	ldi	r27, 0x02	; 2
    28c0:	fb 16       	cp	r15, r27
    28c2:	09 f4       	brne	.+2      	; 0x28c6 <ProcessInput+0x6b4>
    28c4:	21 c5       	rjmp	.+2626   	; 0x3308 <ProcessInput+0x10f6>
    28c6:	d5 cc       	rjmp	.-1622   	; 0x2272 <ProcessInput+0x60>
                    if (x) SetResponse(elements++, A_NOTCARRYING, L_NOTCARRYING, TEASER);
                }
            }

        //Inventory list
        } else if (data[0] == 'i') {
    28c8:	89 36       	cpi	r24, 0x69	; 105
    28ca:	09 f0       	breq	.+2      	; 0x28ce <ProcessInput+0x6bc>
    28cc:	7b c0       	rjmp	.+246    	; 0x29c4 <ProcessInput+0x7b2>
            if ((inventory[0] == 0)&&(inventory[1] == 0)){
    28ce:	80 91 31 38 	lds	r24, 0x3831	; 0x803831 <inventory>
    28d2:	90 91 32 38 	lds	r25, 0x3832	; 0x803832 <inventory+0x1>
    28d6:	89 2b       	or	r24, r25
    28d8:	31 f4       	brne	.+12     	; 0x28e6 <ProcessInput+0x6d4>
    28da:	80 91 33 38 	lds	r24, 0x3833	; 0x803833 <inventory+0x2>
    28de:	90 91 34 38 	lds	r25, 0x3834	; 0x803834 <inventory+0x3>
    28e2:	89 2b       	or	r24, r25
    28e4:	19 f3       	breq	.-58     	; 0x28ac <ProcessInput+0x69a>
    return 0;
}

//
void SetResponse(uint8_t number, uint16_t address, uint16_t length, uint8_t type){
    reactStr[0][number]=address;
    28e6:	8a e0       	ldi	r24, 0x0A	; 10
    28e8:	98 e7       	ldi	r25, 0x78	; 120
    28ea:	80 93 f6 38 	sts	0x38F6, r24	; 0x8038f6 <reactStr+0x2>
    28ee:	90 93 f7 38 	sts	0x38F7, r25	; 0x8038f7 <reactStr+0x3>
    reactStr[1][number]=length;
    28f2:	86 e1       	ldi	r24, 0x16	; 22
    28f4:	90 e0       	ldi	r25, 0x00	; 0
    28f6:	80 93 36 39 	sts	0x3936, r24	; 0x803936 <reactStr+0x42>
    28fa:	90 93 37 39 	sts	0x3937, r25	; 0x803937 <reactStr+0x43>
    reactStr[2][number]=type;
    28fe:	81 e0       	ldi	r24, 0x01	; 1
    2900:	90 e0       	ldi	r25, 0x00	; 0
    2902:	80 93 76 39 	sts	0x3976, r24	; 0x803976 <reactStr+0x82>
    2906:	90 93 77 39 	sts	0x3977, r25	; 0x803977 <reactStr+0x83>
    290a:	21 e3       	ldi	r18, 0x31	; 49
    290c:	e2 2e       	mov	r14, r18
    290e:	28 e3       	ldi	r18, 0x38	; 56
    2910:	f2 2e       	mov	r15, r18
    2912:	35 e3       	ldi	r19, 0x35	; 53
    2914:	63 2e       	mov	r6, r19
    2916:	38 e3       	ldi	r19, 0x38	; 56
    2918:	73 2e       	mov	r7, r19
        //Inventory list
        } else if (data[0] == 'i') {
            if ((inventory[0] == 0)&&(inventory[1] == 0)){
                SetResponse(elements++, A_EMPTYHANDS, L_EMPTYHANDS, TEASER);
            } else {
                SetResponse(elements++, A_NOWCARRING, L_NOWCARRING, TEASER);
    291a:	42 e0       	ldi	r20, 0x02	; 2
    291c:	54 2e       	mov	r5, r20
    return 0;
}

//
void SetResponse(uint8_t number, uint16_t address, uint16_t length, uint8_t type){
    reactStr[0][number]=address;
    291e:	59 e5       	ldi	r21, 0x59	; 89
    2920:	c5 2e       	mov	r12, r21
    2922:	5a e7       	ldi	r21, 0x7A	; 122
    2924:	d5 2e       	mov	r13, r21
    reactStr[1][number]=length;
    2926:	62 e0       	ldi	r22, 0x02	; 2
    2928:	a6 2e       	mov	r10, r22
    292a:	b1 2c       	mov	r11, r1
    reactStr[2][number]=type;
    292c:	88 24       	eor	r8, r8
    292e:	83 94       	inc	r8
    2930:	91 2c       	mov	r9, r1
            } else {
                SetResponse(elements++, A_NOWCARRING, L_NOWCARRING, TEASER);
                //SetResponse(elements++, A_SPACE, L_SPACE, TEASER);
                
                for (uint8_t x=0; x<2; ++x) {
                    if (inventory[x]) {
    2932:	d7 01       	movw	r26, r14
    2934:	8d 91       	ld	r24, X+
    2936:	9d 91       	ld	r25, X+
    2938:	7d 01       	movw	r14, r26
    293a:	00 97       	sbiw	r24, 0x00	; 0
    293c:	d9 f1       	breq	.+118    	; 0x29b4 <ProcessInput+0x7a2>
                        PopulateObject(inventory[x], &actObj1);
    293e:	65 eb       	ldi	r22, 0xB5	; 181
    2940:	78 e3       	ldi	r23, 0x38	; 56
    2942:	0e 94 60 0c 	call	0x18c0	; 0x18c0 <PopulateObject>
                        SetResponse(elements++, actObj1.addrStr[NAME], actObj1.lenStr[NAME], GAME);
    2946:	80 91 cf 38 	lds	r24, 0x38CF	; 0x8038cf <actObj1.3989+0x1a>
    294a:	90 91 d0 38 	lds	r25, 0x38D0	; 0x8038d0 <actObj1.3989+0x1b>
    return 0;
}

//
void SetResponse(uint8_t number, uint16_t address, uint16_t length, uint8_t type){
    reactStr[0][number]=address;
    294e:	e5 2d       	mov	r30, r5
    2950:	f0 e0       	ldi	r31, 0x00	; 0
    2952:	df 01       	movw	r26, r30
    2954:	aa 0f       	add	r26, r26
    2956:	bb 1f       	adc	r27, r27
    2958:	ac 50       	subi	r26, 0x0C	; 12
    295a:	b7 4c       	sbci	r27, 0xC7	; 199
    295c:	20 91 c1 38 	lds	r18, 0x38C1	; 0x8038c1 <actObj1.3989+0xc>
    2960:	30 91 c2 38 	lds	r19, 0x38C2	; 0x8038c2 <actObj1.3989+0xd>
    2964:	2d 93       	st	X+, r18
    2966:	3c 93       	st	X, r19
    reactStr[1][number]=length;
    2968:	df 01       	movw	r26, r30
    296a:	aa 0f       	add	r26, r26
    296c:	bb 1f       	adc	r27, r27
    296e:	ac 5c       	subi	r26, 0xCC	; 204
    2970:	b6 4c       	sbci	r27, 0xC6	; 198
    2972:	8d 93       	st	X+, r24
    2974:	9c 93       	st	X, r25
    reactStr[2][number]=type;
    2976:	ee 0f       	add	r30, r30
    2978:	ff 1f       	adc	r31, r31
    297a:	ec 58       	subi	r30, 0x8C	; 140
    297c:	f6 4c       	sbci	r31, 0xC6	; 198
    297e:	10 82       	st	Z, r1
    2980:	11 82       	std	Z+1, r1	; 0x01
    return 0;
}

//
void SetResponse(uint8_t number, uint16_t address, uint16_t length, uint8_t type){
    reactStr[0][number]=address;
    2982:	e1 e0       	ldi	r30, 0x01	; 1
    2984:	e5 0d       	add	r30, r5
    2986:	f0 e0       	ldi	r31, 0x00	; 0
    2988:	53 94       	inc	r5
    298a:	53 94       	inc	r5
    298c:	df 01       	movw	r26, r30
    298e:	aa 0f       	add	r26, r26
    2990:	bb 1f       	adc	r27, r27
    2992:	ac 50       	subi	r26, 0x0C	; 12
    2994:	b7 4c       	sbci	r27, 0xC7	; 199
    2996:	cd 92       	st	X+, r12
    2998:	dc 92       	st	X, r13
    reactStr[1][number]=length;
    299a:	df 01       	movw	r26, r30
    299c:	aa 0f       	add	r26, r26
    299e:	bb 1f       	adc	r27, r27
    29a0:	ac 5c       	subi	r26, 0xCC	; 204
    29a2:	b6 4c       	sbci	r27, 0xC6	; 198
    29a4:	ad 92       	st	X+, r10
    29a6:	bc 92       	st	X, r11
    reactStr[2][number]=type;
    29a8:	ee 0f       	add	r30, r30
    29aa:	ff 1f       	adc	r31, r31
    29ac:	ec 58       	subi	r30, 0x8C	; 140
    29ae:	f6 4c       	sbci	r31, 0xC6	; 198
    29b0:	80 82       	st	Z, r8
    29b2:	91 82       	std	Z+1, r9	; 0x01
                SetResponse(elements++, A_EMPTYHANDS, L_EMPTYHANDS, TEASER);
            } else {
                SetResponse(elements++, A_NOWCARRING, L_NOWCARRING, TEASER);
                //SetResponse(elements++, A_SPACE, L_SPACE, TEASER);
                
                for (uint8_t x=0; x<2; ++x) {
    29b4:	6e 14       	cp	r6, r14
    29b6:	7f 04       	cpc	r7, r15
    29b8:	09 f0       	breq	.+2      	; 0x29bc <ProcessInput+0x7aa>
    29ba:	bb cf       	rjmp	.-138    	; 0x2932 <ProcessInput+0x720>
                        SetResponse(elements++, actObj1.addrStr[NAME], actObj1.lenStr[NAME], GAME);
                        SetResponse(elements++, A_COMMA, L_COMMA, TEASER);
                        //SetResponse(elements++, A_SPACE, L_SPACE, TEASER);
                    }
                }
                elements -= 1;
    29bc:	77 24       	eor	r7, r7
    29be:	7a 94       	dec	r7
    29c0:	75 0c       	add	r7, r5
    29c2:	07 c4       	rjmp	.+2062   	; 0x31d2 <ProcessInput+0xfc0>
            }            
        
        //Talk, use, give, read
        } else if ((data[0] == 't')||(data[0] == 'u')||(data[0] == 'g')||(data[0] == 'r')) {
    29c4:	9c e8       	ldi	r25, 0x8C	; 140
    29c6:	98 0f       	add	r25, r24
    29c8:	92 30       	cpi	r25, 0x02	; 2
    29ca:	28 f0       	brcs	.+10     	; 0x29d6 <ProcessInput+0x7c4>
    29cc:	87 36       	cpi	r24, 0x67	; 103
    29ce:	19 f0       	breq	.+6      	; 0x29d6 <ProcessInput+0x7c4>
    29d0:	82 37       	cpi	r24, 0x72	; 114
    29d2:	09 f0       	breq	.+2      	; 0x29d6 <ProcessInput+0x7c4>
    29d4:	d7 c2       	rjmp	.+1454   	; 0x2f84 <ProcessInput+0xd72>
            if ((inputLen<2)||(inputLen>3)) {
    29d6:	8e ef       	ldi	r24, 0xFE	; 254
    29d8:	8f 0d       	add	r24, r15
    29da:	82 30       	cpi	r24, 0x02	; 2
    29dc:	08 f0       	brcs	.+2      	; 0x29e0 <ProcessInput+0x7ce>
    29de:	49 cc       	rjmp	.-1902   	; 0x2272 <ProcessInput+0x60>
                SetResponse(elements++, A_NOTPOSSIBLE, L_NOTPOSSIBLE, TEASER);                
            
            //Check for visible person or object first
            } else {
                route[currDepth+1] = FindChild(route[currDepth], data[inputLen-1], 0);
    29e0:	e0 91 26 38 	lds	r30, 0x3826	; 0x803826 <currDepth>
    29e4:	ce 2e       	mov	r12, r30
    29e6:	d1 2c       	mov	r13, r1
    29e8:	d8 01       	movw	r26, r16
    29ea:	af 0d       	add	r26, r15
    29ec:	b1 1d       	adc	r27, r1
    29ee:	11 97       	sbiw	r26, 0x01	; 1
    29f0:	f6 01       	movw	r30, r12
    29f2:	ee 0f       	add	r30, r30
    29f4:	ff 1f       	adc	r31, r31
    29f6:	ec 54       	subi	r30, 0x4C	; 76
    29f8:	f6 4c       	sbci	r31, 0xC6	; 198
    29fa:	40 e0       	ldi	r20, 0x00	; 0
    29fc:	50 e0       	ldi	r21, 0x00	; 0
    29fe:	6c 91       	ld	r22, X
    2a00:	80 81       	ld	r24, Z
    2a02:	91 81       	ldd	r25, Z+1	; 0x01
    2a04:	28 d8       	rcall	.-4016   	; 0x1a56 <FindChild>
    2a06:	f6 01       	movw	r30, r12
    2a08:	ee 0f       	add	r30, r30
    2a0a:	ff 1f       	adc	r31, r31
    2a0c:	ea 54       	subi	r30, 0x4A	; 74
    2a0e:	f6 4c       	sbci	r31, 0xC6	; 198
    2a10:	80 83       	st	Z, r24
    2a12:	91 83       	std	Z+1, r25	; 0x01
                if (route[currDepth+1]) {
    2a14:	e0 91 26 38 	lds	r30, 0x3826	; 0x803826 <currDepth>
    2a18:	f0 e0       	ldi	r31, 0x00	; 0
    2a1a:	ee 0f       	add	r30, r30
    2a1c:	ff 1f       	adc	r31, r31
    2a1e:	ea 54       	subi	r30, 0x4A	; 74
    2a20:	f6 4c       	sbci	r31, 0xC6	; 198
    2a22:	80 81       	ld	r24, Z
    2a24:	91 81       	ldd	r25, Z+1	; 0x01
    2a26:	00 97       	sbiw	r24, 0x00	; 0
    2a28:	09 f4       	brne	.+2      	; 0x2a2c <ProcessInput+0x81a>
    2a2a:	9a c2       	rjmp	.+1332   	; 0x2f60 <ProcessInput+0xd4e>
                    
                    //Give item to person / use item on object 
                    if ((inputLen == 3)&&((data[0] == 'u')||(data[0] == 'g'))) {
    2a2c:	b3 e0       	ldi	r27, 0x03	; 3
    2a2e:	fb 12       	cpse	r15, r27
    2a30:	78 c1       	rjmp	.+752    	; 0x2d22 <ProcessInput+0xb10>
    2a32:	f8 01       	movw	r30, r16
    2a34:	20 81       	ld	r18, Z
    2a36:	25 37       	cpi	r18, 0x75	; 117
    2a38:	19 f0       	breq	.+6      	; 0x2a40 <ProcessInput+0x82e>
    2a3a:	27 36       	cpi	r18, 0x67	; 103
    2a3c:	09 f0       	breq	.+2      	; 0x2a40 <ProcessInput+0x82e>
    2a3e:	71 c1       	rjmp	.+738    	; 0x2d22 <ProcessInput+0xb10>
    2a40:	61 2c       	mov	r6, r1
    2a42:	77 24       	eor	r7, r7
    2a44:	73 94       	inc	r7
    return 0;
}

//
void SetResponse(uint8_t number, uint16_t address, uint16_t length, uint8_t type){
    reactStr[0][number]=address;
    2a46:	54 e6       	ldi	r21, 0x64	; 100
    2a48:	c5 2e       	mov	r12, r21
    2a4a:	59 e7       	ldi	r21, 0x79	; 121
    2a4c:	d5 2e       	mov	r13, r21
    reactStr[1][number]=length;
    2a4e:	61 e2       	ldi	r22, 0x21	; 33
    2a50:	a6 2e       	mov	r10, r22
    2a52:	b1 2c       	mov	r11, r1
    reactStr[2][number]=type;
    2a54:	88 24       	eor	r8, r8
    2a56:	83 94       	inc	r8
    2a58:	91 2c       	mov	r9, r1
                if (route[currDepth+1]) {
                    
                    //Give item to person / use item on object 
                    if ((inputLen == 3)&&((data[0] == 'u')||(data[0] == 'g'))) {
                        for (uint8_t x=0; x<2; x++) {
                            if (inventory[x]) { 
    2a5a:	e6 2c       	mov	r14, r6
    2a5c:	f1 2c       	mov	r15, r1
    2a5e:	c7 01       	movw	r24, r14
    2a60:	88 0f       	add	r24, r24
    2a62:	99 1f       	adc	r25, r25
    2a64:	9c 01       	movw	r18, r24
    2a66:	2f 5c       	subi	r18, 0xCF	; 207
    2a68:	37 4c       	sbci	r19, 0xC7	; 199
    2a6a:	79 01       	movw	r14, r18
    2a6c:	d9 01       	movw	r26, r18
    2a6e:	8d 91       	ld	r24, X+
    2a70:	9c 91       	ld	r25, X
    2a72:	00 97       	sbiw	r24, 0x00	; 0
    2a74:	81 f0       	breq	.+32     	; 0x2a96 <ProcessInput+0x884>
                                if (CheckLetter(inventory[x], data[1])) {
    2a76:	f8 01       	movw	r30, r16
    2a78:	61 81       	ldd	r22, Z+1	; 0x01
    2a7a:	0e 94 d7 0c 	call	0x19ae	; 0x19ae <CheckLetter>
    2a7e:	88 23       	and	r24, r24
    2a80:	51 f0       	breq	.+20     	; 0x2a96 <ProcessInput+0x884>
                                    PopulateObject(inventory[x], &actObj2);
    2a82:	6a e8       	ldi	r22, 0x8A	; 138
    2a84:	78 e3       	ldi	r23, 0x38	; 56
    2a86:	d7 01       	movw	r26, r14
    2a88:	8d 91       	ld	r24, X+
    2a8a:	9c 91       	ld	r25, X
    2a8c:	0e 94 60 0c 	call	0x18c0	; 0x18c0 <PopulateObject>
                                    x = 2;
    2a90:	32 e0       	ldi	r19, 0x02	; 2
    2a92:	63 2e       	mov	r6, r19
    2a94:	1e c0       	rjmp	.+60     	; 0x2ad2 <ProcessInput+0x8c0>
                                }
                            }
                            if (x == 1) { 
    2a96:	b1 e0       	ldi	r27, 0x01	; 1
    2a98:	6b 12       	cpse	r6, r27
    2a9a:	1a c0       	rjmp	.+52     	; 0x2ad0 <ProcessInput+0x8be>
    return 0;
}

//
void SetResponse(uint8_t number, uint16_t address, uint16_t length, uint8_t type){
    reactStr[0][number]=address;
    2a9c:	e7 2d       	mov	r30, r7
    2a9e:	f0 e0       	ldi	r31, 0x00	; 0
    2aa0:	df 01       	movw	r26, r30
    2aa2:	aa 0f       	add	r26, r26
    2aa4:	bb 1f       	adc	r27, r27
    2aa6:	ac 50       	subi	r26, 0x0C	; 12
    2aa8:	b7 4c       	sbci	r27, 0xC7	; 199
    2aaa:	cd 92       	st	X+, r12
    2aac:	dc 92       	st	X, r13
    reactStr[1][number]=length;
    2aae:	df 01       	movw	r26, r30
    2ab0:	aa 0f       	add	r26, r26
    2ab2:	bb 1f       	adc	r27, r27
    2ab4:	ac 5c       	subi	r26, 0xCC	; 204
    2ab6:	b6 4c       	sbci	r27, 0xC6	; 198
    2ab8:	ad 92       	st	X+, r10
    2aba:	bc 92       	st	X, r11
    reactStr[2][number]=type;
    2abc:	ee 0f       	add	r30, r30
    2abe:	ff 1f       	adc	r31, r31
    2ac0:	ec 58       	subi	r30, 0x8C	; 140
    2ac2:	f6 4c       	sbci	r31, 0xC6	; 198
    2ac4:	80 82       	st	Z, r8
    2ac6:	91 82       	std	Z+1, r9	; 0x01
                                    x = 2;
                                }
                            }
                            if (x == 1) { 
                                SetResponse(elements++, A_NOTCARRYING, L_NOTCARRYING, TEASER);
                                data[0] = 0;
    2ac8:	f8 01       	movw	r30, r16
    2aca:	10 82       	st	Z, r1
                                    PopulateObject(inventory[x], &actObj2);
                                    x = 2;
                                }
                            }
                            if (x == 1) { 
                                SetResponse(elements++, A_NOTCARRYING, L_NOTCARRYING, TEASER);
    2acc:	73 94       	inc	r7
    2ace:	01 c0       	rjmp	.+2      	; 0x2ad2 <ProcessInput+0x8c0>
    2ad0:	61 2c       	mov	r6, r1
                route[currDepth+1] = FindChild(route[currDepth], data[inputLen-1], 0);
                if (route[currDepth+1]) {
                    
                    //Give item to person / use item on object 
                    if ((inputLen == 3)&&((data[0] == 'u')||(data[0] == 'g'))) {
                        for (uint8_t x=0; x<2; x++) {
    2ad2:	63 94       	inc	r6
    2ad4:	f1 e0       	ldi	r31, 0x01	; 1
    2ad6:	6f 16       	cp	r6, r31
    2ad8:	09 f4       	brne	.+2      	; 0x2adc <ProcessInput+0x8ca>
    2ada:	bf cf       	rjmp	.-130    	; 0x2a5a <ProcessInput+0x848>
                                data[0] = 0;
                            }
                        }

                        //Both the item and person/object are found, check if action is legit
                        if (data[0]){
    2adc:	d8 01       	movw	r26, r16
    2ade:	8c 91       	ld	r24, X
    2ae0:	88 23       	and	r24, r24
    2ae2:	09 f4       	brne	.+2      	; 0x2ae6 <ProcessInput+0x8d4>
    2ae4:	76 c3       	rjmp	.+1772   	; 0x31d2 <ProcessInput+0xfc0>
                            PopulateObject(route[currDepth+1], &actObj1);
    2ae6:	e0 91 26 38 	lds	r30, 0x3826	; 0x803826 <currDepth>
    2aea:	f0 e0       	ldi	r31, 0x00	; 0
    2aec:	ee 0f       	add	r30, r30
    2aee:	ff 1f       	adc	r31, r31
    2af0:	ea 54       	subi	r30, 0x4A	; 74
    2af2:	f6 4c       	sbci	r31, 0xC6	; 198
    2af4:	65 eb       	ldi	r22, 0xB5	; 181
    2af6:	78 e3       	ldi	r23, 0x38	; 56
    2af8:	80 81       	ld	r24, Z
    2afa:	91 81       	ldd	r25, Z+1	; 0x01
    2afc:	0e 94 60 0c 	call	0x18c0	; 0x18c0 <PopulateObject>

                            //Special game
                            if (actObj1.lenStr[ACTION_STR1] == 1) {
    2b00:	e0 90 d3 38 	lds	r14, 0x38D3	; 0x8038d3 <actObj1.3989+0x1e>
    2b04:	f0 90 d4 38 	lds	r15, 0x38D4	; 0x8038d4 <actObj1.3989+0x1f>
    2b08:	b1 e0       	ldi	r27, 0x01	; 1
    2b0a:	eb 16       	cp	r14, r27
    2b0c:	f1 04       	cpc	r15, r1
    2b0e:	09 f0       	breq	.+2      	; 0x2b12 <ProcessInput+0x900>
    2b10:	9a c0       	rjmp	.+308    	; 0x2c46 <ProcessInput+0xa34>
                                ExtEERead(actObj1.addrStr[ACTION_STR1], 1, GAME, &data[2]);
    2b12:	98 01       	movw	r18, r16
    2b14:	2e 5f       	subi	r18, 0xFE	; 254
    2b16:	3f 4f       	sbci	r19, 0xFF	; 255
    2b18:	40 e0       	ldi	r20, 0x00	; 0
    2b1a:	61 e0       	ldi	r22, 0x01	; 1
    2b1c:	80 91 c5 38 	lds	r24, 0x38C5	; 0x8038c5 <actObj1.3989+0x10>
    2b20:	90 91 c6 38 	lds	r25, 0x38C6	; 0x8038c6 <actObj1.3989+0x11>
    2b24:	0e 94 55 0b 	call	0x16aa	; 0x16aa <ExtEERead>
                                if (data[2] == '1') {
    2b28:	f8 01       	movw	r30, r16
    2b2a:	42 81       	ldd	r20, Z+2	; 0x02
    2b2c:	21 e0       	ldi	r18, 0x01	; 1
    2b2e:	27 0d       	add	r18, r7
    2b30:	87 2d       	mov	r24, r7
    2b32:	90 e0       	ldi	r25, 0x00	; 0
    2b34:	41 33       	cpi	r20, 0x31	; 49
    2b36:	09 f0       	breq	.+2      	; 0x2b3a <ProcessInput+0x928>
    2b38:	6b c0       	rjmp	.+214    	; 0x2c10 <ProcessInput+0x9fe>
                                    uint8_t item = actObj2.byteField[ITEM_NR];
    2b3a:	30 91 95 38 	lds	r19, 0x3895	; 0x803895 <actObj2.3990+0xb>
                                    if ((item < 31)||(item > 34)) {
    2b3e:	51 ee       	ldi	r21, 0xE1	; 225
    2b40:	53 0f       	add	r21, r19
    return 0;
}

//
void SetResponse(uint8_t number, uint16_t address, uint16_t length, uint8_t type){
    reactStr[0][number]=address;
    2b42:	fc 01       	movw	r30, r24
    2b44:	ee 0f       	add	r30, r30
    2b46:	ff 1f       	adc	r31, r31
    2b48:	ec 50       	subi	r30, 0x0C	; 12
    2b4a:	f7 4c       	sbci	r31, 0xC7	; 199
                            //Special game
                            if (actObj1.lenStr[ACTION_STR1] == 1) {
                                ExtEERead(actObj1.addrStr[ACTION_STR1], 1, GAME, &data[2]);
                                if (data[2] == '1') {
                                    uint8_t item = actObj2.byteField[ITEM_NR];
                                    if ((item < 31)||(item > 34)) {
    2b4c:	54 30       	cpi	r21, 0x04	; 4
    2b4e:	60 f0       	brcs	.+24     	; 0x2b68 <ProcessInput+0x956>
    return 0;
}

//
void SetResponse(uint8_t number, uint16_t address, uint16_t length, uint8_t type){
    reactStr[0][number]=address;
    2b50:	44 e0       	ldi	r20, 0x04	; 4
    2b52:	59 e7       	ldi	r21, 0x79	; 121
    2b54:	40 83       	st	Z, r20
    2b56:	51 83       	std	Z+1, r21	; 0x01
    reactStr[1][number]=length;
    2b58:	fc 01       	movw	r30, r24
    2b5a:	ee 0f       	add	r30, r30
    2b5c:	ff 1f       	adc	r31, r31
    2b5e:	ec 5c       	subi	r30, 0xCC	; 204
    2b60:	f6 4c       	sbci	r31, 0xC6	; 198
    2b62:	4a e1       	ldi	r20, 0x1A	; 26
    2b64:	50 e0       	ldi	r21, 0x00	; 0
    2b66:	64 c0       	rjmp	.+200    	; 0x2c30 <ProcessInput+0xa1e>
    return 0;
}

//
void SetResponse(uint8_t number, uint16_t address, uint16_t length, uint8_t type){
    reactStr[0][number]=address;
    2b68:	6e e8       	ldi	r22, 0x8E	; 142
    2b6a:	75 e7       	ldi	r23, 0x75	; 117
    2b6c:	60 83       	st	Z, r22
    2b6e:	71 83       	std	Z+1, r23	; 0x01
    reactStr[1][number]=length;
    2b70:	fc 01       	movw	r30, r24
    2b72:	ee 0f       	add	r30, r30
    2b74:	ff 1f       	adc	r31, r31
    2b76:	ec 5c       	subi	r30, 0xCC	; 204
    2b78:	f6 4c       	sbci	r31, 0xC6	; 198
    2b7a:	62 eb       	ldi	r22, 0xB2	; 178
    2b7c:	70 e0       	ldi	r23, 0x00	; 0
    2b7e:	60 83       	st	Z, r22
    2b80:	71 83       	std	Z+1, r23	; 0x01
    reactStr[2][number]=type;
    2b82:	88 0f       	add	r24, r24
    2b84:	99 1f       	adc	r25, r25
    2b86:	fc 01       	movw	r30, r24
    2b88:	ec 58       	subi	r30, 0x8C	; 140
    2b8a:	f6 4c       	sbci	r31, 0xC6	; 198
    2b8c:	e0 82       	st	Z, r14
    2b8e:	f1 82       	std	Z+1, r15	; 0x01
    return 0;
}

//
void SetResponse(uint8_t number, uint16_t address, uint16_t length, uint8_t type){
    reactStr[0][number]=address;
    2b90:	82 2f       	mov	r24, r18
    2b92:	90 e0       	ldi	r25, 0x00	; 0
    2b94:	fc 01       	movw	r30, r24
    2b96:	ee 0f       	add	r30, r30
    2b98:	ff 1f       	adc	r31, r31
    2b9a:	ec 50       	subi	r30, 0x0C	; 12
    2b9c:	f7 4c       	sbci	r31, 0xC7	; 199
    2b9e:	6b e5       	ldi	r22, 0x5B	; 91
    2ba0:	7a e7       	ldi	r23, 0x7A	; 122
    2ba2:	60 83       	st	Z, r22
    2ba4:	71 83       	std	Z+1, r23	; 0x01
    reactStr[1][number]=length;
    2ba6:	fc 01       	movw	r30, r24
    2ba8:	ee 0f       	add	r30, r30
    2baa:	ff 1f       	adc	r31, r31
    2bac:	ec 5c       	subi	r30, 0xCC	; 204
    2bae:	f6 4c       	sbci	r31, 0xC6	; 198
    2bb0:	62 e0       	ldi	r22, 0x02	; 2
    2bb2:	70 e0       	ldi	r23, 0x00	; 0
    2bb4:	60 83       	st	Z, r22
    2bb6:	71 83       	std	Z+1, r23	; 0x01
    reactStr[2][number]=type;
    2bb8:	88 0f       	add	r24, r24
    2bba:	99 1f       	adc	r25, r25
    2bbc:	fc 01       	movw	r30, r24
    2bbe:	ec 58       	subi	r30, 0x8C	; 140
    2bc0:	f6 4c       	sbci	r31, 0xC6	; 198
    2bc2:	e0 82       	st	Z, r14
    2bc4:	f1 82       	std	Z+1, r15	; 0x01
    return 0;
}

//
void SetResponse(uint8_t number, uint16_t address, uint16_t length, uint8_t type){
    reactStr[0][number]=address;
    2bc6:	82 e0       	ldi	r24, 0x02	; 2
    2bc8:	87 0d       	add	r24, r7
    2bca:	90 e0       	ldi	r25, 0x00	; 0
    2bcc:	f3 e0       	ldi	r31, 0x03	; 3
    2bce:	7f 0e       	add	r7, r31
    2bd0:	fc 01       	movw	r30, r24
    2bd2:	ee 0f       	add	r30, r30
    2bd4:	ff 1f       	adc	r31, r31
    2bd6:	ec 50       	subi	r30, 0x0C	; 12
    2bd8:	f7 4c       	sbci	r31, 0xC7	; 199
    2bda:	60 eb       	ldi	r22, 0xB0	; 176
    2bdc:	78 e7       	ldi	r23, 0x78	; 120
    2bde:	60 83       	st	Z, r22
    2be0:	71 83       	std	Z+1, r23	; 0x01
    reactStr[1][number]=length;
    2be2:	fc 01       	movw	r30, r24
    2be4:	ee 0f       	add	r30, r30
    2be6:	ff 1f       	adc	r31, r31
    2be8:	ec 5c       	subi	r30, 0xCC	; 204
    2bea:	f6 4c       	sbci	r31, 0xC6	; 198
    2bec:	62 e1       	ldi	r22, 0x12	; 18
    2bee:	70 e0       	ldi	r23, 0x00	; 0
    2bf0:	60 83       	st	Z, r22
    2bf2:	71 83       	std	Z+1, r23	; 0x01
    reactStr[2][number]=type;
    2bf4:	88 0f       	add	r24, r24
    2bf6:	99 1f       	adc	r25, r25
    2bf8:	fc 01       	movw	r30, r24
    2bfa:	ec 58       	subi	r30, 0x8C	; 140
    2bfc:	f6 4c       	sbci	r31, 0xC6	; 198
    2bfe:	e0 82       	st	Z, r14
    2c00:	f1 82       	std	Z+1, r15	; 0x01
                                        SetResponse(elements++, A_CANTUSE, L_CANTUSE, TEASER);
                                    } else {
                                        SetResponse(elements++, A_PRIEST, L_PRIEST, TEASER);
                                        SetResponse(elements++, A_LF, 2, TEASER);
                                        SetResponse(elements++, A_RESPONSE, L_RESPONSE, TEASER);
                                        specialInput[0] = '1';
    2c02:	40 93 e3 38 	sts	0x38E3, r20	; 0x8038e3 <specialInput>
                                        specialInput[1] = item;
    2c06:	30 93 e4 38 	sts	0x38E4, r19	; 0x8038e4 <specialInput+0x1>
                                        specialInput[2] = 0;
    2c0a:	10 92 e5 38 	sts	0x38E5, r1	; 0x8038e5 <specialInput+0x2>
    2c0e:	e1 c2       	rjmp	.+1474   	; 0x31d2 <ProcessInput+0xfc0>
    return 0;
}

//
void SetResponse(uint8_t number, uint16_t address, uint16_t length, uint8_t type){
    reactStr[0][number]=address;
    2c10:	fc 01       	movw	r30, r24
    2c12:	ee 0f       	add	r30, r30
    2c14:	ff 1f       	adc	r31, r31
    2c16:	ec 50       	subi	r30, 0x0C	; 12
    2c18:	f7 4c       	sbci	r31, 0xC7	; 199
    2c1a:	40 e4       	ldi	r20, 0x40	; 64
    2c1c:	56 e7       	ldi	r21, 0x76	; 118
    2c1e:	40 83       	st	Z, r20
    2c20:	51 83       	std	Z+1, r21	; 0x01
    reactStr[1][number]=length;
    2c22:	fc 01       	movw	r30, r24
    2c24:	ee 0f       	add	r30, r30
    2c26:	ff 1f       	adc	r31, r31
    2c28:	ec 5c       	subi	r30, 0xCC	; 204
    2c2a:	f6 4c       	sbci	r31, 0xC6	; 198
    2c2c:	42 e4       	ldi	r20, 0x42	; 66
    2c2e:	50 e0       	ldi	r21, 0x00	; 0
    2c30:	40 83       	st	Z, r20
    2c32:	51 83       	std	Z+1, r21	; 0x01
    reactStr[2][number]=type;
    2c34:	88 0f       	add	r24, r24
    2c36:	99 1f       	adc	r25, r25
    2c38:	fc 01       	movw	r30, r24
    2c3a:	ec 58       	subi	r30, 0x8C	; 140
    2c3c:	f6 4c       	sbci	r31, 0xC6	; 198
    2c3e:	e0 82       	st	Z, r14
    2c40:	f1 82       	std	Z+1, r15	; 0x01
                                        specialInput[2] = 0;
                                    }

                                //There should not be another special
                                } else {
                                    SetResponse(elements++, A_ERROR, L_ERROR, TEASER);
    2c42:	72 2e       	mov	r7, r18
    2c44:	c6 c2       	rjmp	.+1420   	; 0x31d2 <ProcessInput+0xfc0>
                                }

                            //Normal "use ... on ..." or "give ... to ..." action
                            } else if (actObj1.byteField[ACTION_ITEM] == actObj2.byteField[ITEM_NR]) {
    2c46:	90 91 be 38 	lds	r25, 0x38BE	; 0x8038be <actObj1.3989+0x9>
    2c4a:	80 91 95 38 	lds	r24, 0x3895	; 0x803895 <actObj2.3990+0xb>
    2c4e:	98 13       	cpse	r25, r24
    2c50:	2f c0       	rjmp	.+94     	; 0x2cb0 <ProcessInput+0xa9e>
                                SetResponse(elements++, actObj1.addrStr[ACTION_MSG], actObj1.lenStr[ACTION_MSG], GAME);
    2c52:	20 91 db 38 	lds	r18, 0x38DB	; 0x8038db <actObj1.3989+0x26>
    2c56:	30 91 dc 38 	lds	r19, 0x38DC	; 0x8038dc <actObj1.3989+0x27>
    2c5a:	ff 24       	eor	r15, r15
    2c5c:	f3 94       	inc	r15
    2c5e:	f7 0c       	add	r15, r7
    return 0;
}

//
void SetResponse(uint8_t number, uint16_t address, uint16_t length, uint8_t type){
    reactStr[0][number]=address;
    2c60:	87 2d       	mov	r24, r7
    2c62:	90 e0       	ldi	r25, 0x00	; 0
    2c64:	fc 01       	movw	r30, r24
    2c66:	ee 0f       	add	r30, r30
    2c68:	ff 1f       	adc	r31, r31
    2c6a:	ec 50       	subi	r30, 0x0C	; 12
    2c6c:	f7 4c       	sbci	r31, 0xC7	; 199
    2c6e:	40 91 cd 38 	lds	r20, 0x38CD	; 0x8038cd <actObj1.3989+0x18>
    2c72:	50 91 ce 38 	lds	r21, 0x38CE	; 0x8038ce <actObj1.3989+0x19>
    2c76:	40 83       	st	Z, r20
    2c78:	51 83       	std	Z+1, r21	; 0x01
    reactStr[1][number]=length;
    2c7a:	fc 01       	movw	r30, r24
    2c7c:	ee 0f       	add	r30, r30
    2c7e:	ff 1f       	adc	r31, r31
    2c80:	ec 5c       	subi	r30, 0xCC	; 204
    2c82:	f6 4c       	sbci	r31, 0xC6	; 198
    2c84:	20 83       	st	Z, r18
    2c86:	31 83       	std	Z+1, r19	; 0x01
    reactStr[2][number]=type;
    2c88:	88 0f       	add	r24, r24
    2c8a:	99 1f       	adc	r25, r25
    2c8c:	fc 01       	movw	r30, r24
    2c8e:	ec 58       	subi	r30, 0x8C	; 140
    2c90:	f6 4c       	sbci	r31, 0xC6	; 198
    2c92:	10 82       	st	Z, r1
    2c94:	11 82       	std	Z+1, r1	; 0x01
                                }

                            //Normal "use ... on ..." or "give ... to ..." action
                            } else if (actObj1.byteField[ACTION_ITEM] == actObj2.byteField[ITEM_NR]) {
                                SetResponse(elements++, actObj1.addrStr[ACTION_MSG], actObj1.lenStr[ACTION_MSG], GAME);
                                effect = actObj1.effect[2];
    2c96:	80 91 df 38 	lds	r24, 0x38DF	; 0x8038df <actObj1.3989+0x2a>
    2c9a:	90 e0       	ldi	r25, 0x00	; 0
    2c9c:	80 93 2d 38 	sts	0x382D, r24	; 0x80382d <effect>
    2ca0:	90 93 2e 38 	sts	0x382E, r25	; 0x80382e <effect+0x1>
                                UpdateState(actObj1.byteField[ACTION_STATE]);
    2ca4:	80 91 bf 38 	lds	r24, 0x38BF	; 0x8038bf <actObj1.3989+0xa>
    2ca8:	0e 94 fb 08 	call	0x11f6	; 0x11f6 <UpdateState>
                                    SetResponse(elements++, A_ERROR, L_ERROR, TEASER);
                                }

                            //Normal "use ... on ..." or "give ... to ..." action
                            } else if (actObj1.byteField[ACTION_ITEM] == actObj2.byteField[ITEM_NR]) {
                                SetResponse(elements++, actObj1.addrStr[ACTION_MSG], actObj1.lenStr[ACTION_MSG], GAME);
    2cac:	7f 2c       	mov	r7, r15
    2cae:	91 c2       	rjmp	.+1314   	; 0x31d2 <ProcessInput+0xfc0>
                                effect = actObj1.effect[2];
                                UpdateState(actObj1.byteField[ACTION_STATE]);
                                
                            } else {
                                if (data[0] == 'u') {
    2cb0:	d8 01       	movw	r26, r16
    2cb2:	8c 91       	ld	r24, X
    2cb4:	85 37       	cpi	r24, 0x75	; 117
    2cb6:	99 f4       	brne	.+38     	; 0x2cde <ProcessInput+0xacc>
    return 0;
}

//
void SetResponse(uint8_t number, uint16_t address, uint16_t length, uint8_t type){
    reactStr[0][number]=address;
    2cb8:	87 2d       	mov	r24, r7
    2cba:	90 e0       	ldi	r25, 0x00	; 0
    2cbc:	fc 01       	movw	r30, r24
    2cbe:	ee 0f       	add	r30, r30
    2cc0:	ff 1f       	adc	r31, r31
    2cc2:	ec 50       	subi	r30, 0x0C	; 12
    2cc4:	f7 4c       	sbci	r31, 0xC7	; 199
    2cc6:	24 e0       	ldi	r18, 0x04	; 4
    2cc8:	39 e7       	ldi	r19, 0x79	; 121
    2cca:	20 83       	st	Z, r18
    2ccc:	31 83       	std	Z+1, r19	; 0x01
    reactStr[1][number]=length;
    2cce:	fc 01       	movw	r30, r24
    2cd0:	ee 0f       	add	r30, r30
    2cd2:	ff 1f       	adc	r31, r31
    2cd4:	ec 5c       	subi	r30, 0xCC	; 204
    2cd6:	f6 4c       	sbci	r31, 0xC6	; 198
    2cd8:	2a e1       	ldi	r18, 0x1A	; 26
    2cda:	30 e0       	ldi	r19, 0x00	; 0
    2cdc:	15 c0       	rjmp	.+42     	; 0x2d08 <ProcessInput+0xaf6>
                                UpdateState(actObj1.byteField[ACTION_STATE]);
                                
                            } else {
                                if (data[0] == 'u') {
                                    SetResponse(elements++, A_CANTUSE, L_CANTUSE, TEASER);
                                } else if (data[0] == 'g') {
    2cde:	87 36       	cpi	r24, 0x67	; 103
    2ce0:	09 f0       	breq	.+2      	; 0x2ce4 <ProcessInput+0xad2>
    2ce2:	77 c2       	rjmp	.+1262   	; 0x31d2 <ProcessInput+0xfc0>
    return 0;
}

//
void SetResponse(uint8_t number, uint16_t address, uint16_t length, uint8_t type){
    reactStr[0][number]=address;
    2ce4:	87 2d       	mov	r24, r7
    2ce6:	90 e0       	ldi	r25, 0x00	; 0
    2ce8:	fc 01       	movw	r30, r24
    2cea:	ee 0f       	add	r30, r30
    2cec:	ff 1f       	adc	r31, r31
    2cee:	ec 50       	subi	r30, 0x0C	; 12
    2cf0:	f7 4c       	sbci	r31, 0xC7	; 199
    2cf2:	2d ed       	ldi	r18, 0xDD	; 221
    2cf4:	36 e7       	ldi	r19, 0x76	; 118
    2cf6:	20 83       	st	Z, r18
    2cf8:	31 83       	std	Z+1, r19	; 0x01
    reactStr[1][number]=length;
    2cfa:	fc 01       	movw	r30, r24
    2cfc:	ee 0f       	add	r30, r30
    2cfe:	ff 1f       	adc	r31, r31
    2d00:	ec 5c       	subi	r30, 0xCC	; 204
    2d02:	f6 4c       	sbci	r31, 0xC6	; 198
    2d04:	28 e2       	ldi	r18, 0x28	; 40
    2d06:	30 e0       	ldi	r19, 0x00	; 0
    2d08:	20 83       	st	Z, r18
    2d0a:	31 83       	std	Z+1, r19	; 0x01
    reactStr[2][number]=type;
    2d0c:	88 0f       	add	r24, r24
    2d0e:	99 1f       	adc	r25, r25
    2d10:	fc 01       	movw	r30, r24
    2d12:	ec 58       	subi	r30, 0x8C	; 140
    2d14:	f6 4c       	sbci	r31, 0xC6	; 198
    2d16:	81 e0       	ldi	r24, 0x01	; 1
    2d18:	90 e0       	ldi	r25, 0x00	; 0
    2d1a:	80 83       	st	Z, r24
    2d1c:	91 83       	std	Z+1, r25	; 0x01
                                
                            } else {
                                if (data[0] == 'u') {
                                    SetResponse(elements++, A_CANTUSE, L_CANTUSE, TEASER);
                                } else if (data[0] == 'g') {
                                    SetResponse(elements++, A_CANTGIVE, L_CANTGIVE, TEASER);                                    
    2d1e:	73 94       	inc	r7
    2d20:	58 c2       	rjmp	.+1200   	; 0x31d2 <ProcessInput+0xfc0>
                            }
                        }
                    
                    //Talk to person, read or use object (without item)                          
                    } else {
                        PopulateObject(route[currDepth+1], &actObj1);
    2d22:	65 eb       	ldi	r22, 0xB5	; 181
    2d24:	78 e3       	ldi	r23, 0x38	; 56
    2d26:	0e 94 60 0c 	call	0x18c0	; 0x18c0 <PopulateObject>
                        if ((data[0] == 't')&&((actObj1.byteField[ACTION_MASK]&TALK) == 0)) {
    2d2a:	f8 01       	movw	r30, r16
    2d2c:	80 81       	ld	r24, Z
    2d2e:	84 37       	cpi	r24, 0x74	; 116
    2d30:	69 f5       	brne	.+90     	; 0x2d8c <ProcessInput+0xb7a>
    2d32:	80 91 bd 38 	lds	r24, 0x38BD	; 0x8038bd <actObj1.3989+0x8>
    2d36:	83 fd       	sbrc	r24, 3
    2d38:	4a c0       	rjmp	.+148    	; 0x2dce <ProcessInput+0xbbc>
    return 0;
}

//
void SetResponse(uint8_t number, uint16_t address, uint16_t length, uint8_t type){
    reactStr[0][number]=address;
    2d3a:	8e e1       	ldi	r24, 0x1E	; 30
    2d3c:	99 e7       	ldi	r25, 0x79	; 121
    2d3e:	80 93 f6 38 	sts	0x38F6, r24	; 0x8038f6 <reactStr+0x2>
    2d42:	90 93 f7 38 	sts	0x38F7, r25	; 0x8038f7 <reactStr+0x3>
    reactStr[1][number]=length;
    2d46:	8e e1       	ldi	r24, 0x1E	; 30
    2d48:	90 e0       	ldi	r25, 0x00	; 0
    2d4a:	80 93 36 39 	sts	0x3936, r24	; 0x803936 <reactStr+0x42>
    2d4e:	90 93 37 39 	sts	0x3937, r25	; 0x803937 <reactStr+0x43>
    reactStr[2][number]=type;
    2d52:	81 e0       	ldi	r24, 0x01	; 1
    2d54:	90 e0       	ldi	r25, 0x00	; 0
    2d56:	80 93 76 39 	sts	0x3976, r24	; 0x803976 <reactStr+0x82>
    2d5a:	90 93 77 39 	sts	0x3977, r25	; 0x803977 <reactStr+0x83>
                    //Talk to person, read or use object (without item)                          
                    } else {
                        PopulateObject(route[currDepth+1], &actObj1);
                        if ((data[0] == 't')&&((actObj1.byteField[ACTION_MASK]&TALK) == 0)) {
                            SetResponse(elements++, A_WHYTALK, L_WHYTALK, TEASER);
                            SetResponse(elements++, actObj1.addrStr[NAME], actObj1.lenStr[NAME], GAME);
    2d5e:	80 91 cf 38 	lds	r24, 0x38CF	; 0x8038cf <actObj1.3989+0x1a>
    2d62:	90 91 d0 38 	lds	r25, 0x38D0	; 0x8038d0 <actObj1.3989+0x1b>
    return 0;
}

//
void SetResponse(uint8_t number, uint16_t address, uint16_t length, uint8_t type){
    reactStr[0][number]=address;
    2d66:	20 91 c1 38 	lds	r18, 0x38C1	; 0x8038c1 <actObj1.3989+0xc>
    2d6a:	30 91 c2 38 	lds	r19, 0x38C2	; 0x8038c2 <actObj1.3989+0xd>
    2d6e:	20 93 f8 38 	sts	0x38F8, r18	; 0x8038f8 <reactStr+0x4>
    2d72:	30 93 f9 38 	sts	0x38F9, r19	; 0x8038f9 <reactStr+0x5>
    reactStr[1][number]=length;
    2d76:	80 93 38 39 	sts	0x3938, r24	; 0x803938 <reactStr+0x44>
    2d7a:	90 93 39 39 	sts	0x3939, r25	; 0x803939 <reactStr+0x45>
    reactStr[2][number]=type;
    2d7e:	10 92 78 39 	sts	0x3978, r1	; 0x803978 <reactStr+0x84>
    2d82:	10 92 79 39 	sts	0x3979, r1	; 0x803979 <reactStr+0x85>
                    //Talk to person, read or use object (without item)                          
                    } else {
                        PopulateObject(route[currDepth+1], &actObj1);
                        if ((data[0] == 't')&&((actObj1.byteField[ACTION_MASK]&TALK) == 0)) {
                            SetResponse(elements++, A_WHYTALK, L_WHYTALK, TEASER);
                            SetResponse(elements++, actObj1.addrStr[NAME], actObj1.lenStr[NAME], GAME);
    2d86:	a3 e0       	ldi	r26, 0x03	; 3
    2d88:	7a 2e       	mov	r7, r26
    2d8a:	23 c2       	rjmp	.+1094   	; 0x31d2 <ProcessInput+0xfc0>
                        } else if ((data[0] == 'u')&&((actObj1.byteField[ACTION_MASK]&USE) == 0)) {
    2d8c:	85 37       	cpi	r24, 0x75	; 117
    2d8e:	69 f4       	brne	.+26     	; 0x2daa <ProcessInput+0xb98>
    2d90:	80 91 bd 38 	lds	r24, 0x38BD	; 0x8038bd <actObj1.3989+0x8>
    2d94:	84 fd       	sbrc	r24, 4
    2d96:	1b c0       	rjmp	.+54     	; 0x2dce <ProcessInput+0xbbc>
    return 0;
}

//
void SetResponse(uint8_t number, uint16_t address, uint16_t length, uint8_t type){
    reactStr[0][number]=address;
    2d98:	84 e0       	ldi	r24, 0x04	; 4
    2d9a:	99 e7       	ldi	r25, 0x79	; 121
    2d9c:	80 93 f6 38 	sts	0x38F6, r24	; 0x8038f6 <reactStr+0x2>
    2da0:	90 93 f7 38 	sts	0x38F7, r25	; 0x8038f7 <reactStr+0x3>
    reactStr[1][number]=length;
    2da4:	8a e1       	ldi	r24, 0x1A	; 26
    2da6:	90 e0       	ldi	r25, 0x00	; 0
    2da8:	f9 ca       	rjmp	.-2574   	; 0x239c <ProcessInput+0x18a>
                        if ((data[0] == 't')&&((actObj1.byteField[ACTION_MASK]&TALK) == 0)) {
                            SetResponse(elements++, A_WHYTALK, L_WHYTALK, TEASER);
                            SetResponse(elements++, actObj1.addrStr[NAME], actObj1.lenStr[NAME], GAME);
                        } else if ((data[0] == 'u')&&((actObj1.byteField[ACTION_MASK]&USE) == 0)) {
                            SetResponse(elements++, A_CANTUSE, L_CANTUSE, TEASER);
                        } else if ((data[0] == 'r')&&((actObj1.byteField[ACTION_MASK]&READ) == 0)) {
    2daa:	82 37       	cpi	r24, 0x72	; 114
    2dac:	69 f4       	brne	.+26     	; 0x2dc8 <ProcessInput+0xbb6>
    2dae:	80 91 bd 38 	lds	r24, 0x38BD	; 0x8038bd <actObj1.3989+0x8>
    2db2:	85 fd       	sbrc	r24, 5
    2db4:	0c c0       	rjmp	.+24     	; 0x2dce <ProcessInput+0xbbc>
    return 0;
}

//
void SetResponse(uint8_t number, uint16_t address, uint16_t length, uint8_t type){
    reactStr[0][number]=address;
    2db6:	89 ee       	ldi	r24, 0xE9	; 233
    2db8:	98 e7       	ldi	r25, 0x78	; 120
    2dba:	80 93 f6 38 	sts	0x38F6, r24	; 0x8038f6 <reactStr+0x2>
    2dbe:	90 93 f7 38 	sts	0x38F7, r25	; 0x8038f7 <reactStr+0x3>
    reactStr[1][number]=length;
    2dc2:	8b e1       	ldi	r24, 0x1B	; 27
    2dc4:	90 e0       	ldi	r25, 0x00	; 0
    2dc6:	ea ca       	rjmp	.-2604   	; 0x239c <ProcessInput+0x18a>
                            SetResponse(elements++, actObj1.addrStr[NAME], actObj1.lenStr[NAME], GAME);
                        } else if ((data[0] == 'u')&&((actObj1.byteField[ACTION_MASK]&USE) == 0)) {
                            SetResponse(elements++, A_CANTUSE, L_CANTUSE, TEASER);
                        } else if ((data[0] == 'r')&&((actObj1.byteField[ACTION_MASK]&READ) == 0)) {
                            SetResponse(elements++, A_CANTREAD, L_CANTREAD, TEASER);
                        } else if (data[0] == 'g'){ 
    2dc8:	87 36       	cpi	r24, 0x67	; 103
    2dca:	09 f4       	brne	.+2      	; 0x2dce <ProcessInput+0xbbc>
    2dcc:	52 ca       	rjmp	.-2908   	; 0x2272 <ProcessInput+0x60>
                            SetResponse(elements++, A_NOTPOSSIBLE, L_NOTPOSSIBLE, TEASER);  
                        } else {

                            //Special game, not enough characters
                            if (actObj1.lenStr[ACTION_STR1] == 1) {
    2dce:	e0 90 d3 38 	lds	r14, 0x38D3	; 0x8038d3 <actObj1.3989+0x1e>
    2dd2:	f0 90 d4 38 	lds	r15, 0x38D4	; 0x8038d4 <actObj1.3989+0x1f>
    2dd6:	f1 e0       	ldi	r31, 0x01	; 1
    2dd8:	ef 16       	cp	r14, r31
    2dda:	f1 04       	cpc	r15, r1
    2ddc:	11 f5       	brne	.+68     	; 0x2e22 <ProcessInput+0xc10>
                                ExtEERead(actObj1.addrStr[ACTION_STR1], 1, GAME, &data[2]);
    2dde:	98 01       	movw	r18, r16
    2de0:	2e 5f       	subi	r18, 0xFE	; 254
    2de2:	3f 4f       	sbci	r19, 0xFF	; 255
    2de4:	40 e0       	ldi	r20, 0x00	; 0
    2de6:	61 e0       	ldi	r22, 0x01	; 1
    2de8:	80 91 c5 38 	lds	r24, 0x38C5	; 0x8038c5 <actObj1.3989+0x10>
    2dec:	90 91 c6 38 	lds	r25, 0x38C6	; 0x8038c6 <actObj1.3989+0x11>
    2df0:	0e 94 55 0b 	call	0x16aa	; 0x16aa <ExtEERead>
                                if (data[2] == '1') {
    2df4:	d8 01       	movw	r26, r16
    2df6:	12 96       	adiw	r26, 0x02	; 2
    2df8:	8c 91       	ld	r24, X
    2dfa:	81 33       	cpi	r24, 0x31	; 49
    2dfc:	09 f0       	breq	.+2      	; 0x2e00 <ProcessInput+0xbee>
    2dfe:	8a cc       	rjmp	.-1772   	; 0x2714 <ProcessInput+0x502>
    return 0;
}

//
void SetResponse(uint8_t number, uint16_t address, uint16_t length, uint8_t type){
    reactStr[0][number]=address;
    2e00:	83 e6       	ldi	r24, 0x63	; 99
    2e02:	95 e7       	ldi	r25, 0x75	; 117
    2e04:	80 93 f6 38 	sts	0x38F6, r24	; 0x8038f6 <reactStr+0x2>
    2e08:	90 93 f7 38 	sts	0x38F7, r25	; 0x8038f7 <reactStr+0x3>
    reactStr[1][number]=length;
    2e0c:	8b e2       	ldi	r24, 0x2B	; 43
    2e0e:	90 e0       	ldi	r25, 0x00	; 0
    2e10:	80 93 36 39 	sts	0x3936, r24	; 0x803936 <reactStr+0x42>
    2e14:	90 93 37 39 	sts	0x3937, r25	; 0x803937 <reactStr+0x43>
    reactStr[2][number]=type;
    2e18:	e0 92 76 39 	sts	0x3976, r14	; 0x803976 <reactStr+0x82>
    2e1c:	f0 92 77 39 	sts	0x3977, r15	; 0x803977 <reactStr+0x83>
    2e20:	c7 ca       	rjmp	.-2674   	; 0x23b0 <ProcessInput+0x19e>
                                if (data[2] == '1') {
                                    SetResponse(elements++, A_PLEASEOFFER, L_PLEASEOFFER, TEASER);
                                }

                            //General request
                            } else if (actObj1.lenStr[ACTION_STR1]) {
    2e22:	e1 14       	cp	r14, r1
    2e24:	f1 04       	cpc	r15, r1
    2e26:	09 f4       	brne	.+2      	; 0x2e2a <ProcessInput+0xc18>
    2e28:	59 c0       	rjmp	.+178    	; 0x2edc <ProcessInput+0xcca>
    return 0;
}

//
void SetResponse(uint8_t number, uint16_t address, uint16_t length, uint8_t type){
    reactStr[0][number]=address;
    2e2a:	80 91 c5 38 	lds	r24, 0x38C5	; 0x8038c5 <actObj1.3989+0x10>
    2e2e:	90 91 c6 38 	lds	r25, 0x38C6	; 0x8038c6 <actObj1.3989+0x11>
    2e32:	80 93 f6 38 	sts	0x38F6, r24	; 0x8038f6 <reactStr+0x2>
    2e36:	90 93 f7 38 	sts	0x38F7, r25	; 0x8038f7 <reactStr+0x3>
    reactStr[1][number]=length;
    2e3a:	e0 92 36 39 	sts	0x3936, r14	; 0x803936 <reactStr+0x42>
    2e3e:	f0 92 37 39 	sts	0x3937, r15	; 0x803937 <reactStr+0x43>
    reactStr[2][number]=type;
    2e42:	10 92 76 39 	sts	0x3976, r1	; 0x803976 <reactStr+0x82>
    2e46:	10 92 77 39 	sts	0x3977, r1	; 0x803977 <reactStr+0x83>
    return 0;
}

//
void SetResponse(uint8_t number, uint16_t address, uint16_t length, uint8_t type){
    reactStr[0][number]=address;
    2e4a:	8b e5       	ldi	r24, 0x5B	; 91
    2e4c:	9a e7       	ldi	r25, 0x7A	; 122
    2e4e:	80 93 f8 38 	sts	0x38F8, r24	; 0x8038f8 <reactStr+0x4>
    2e52:	90 93 f9 38 	sts	0x38F9, r25	; 0x8038f9 <reactStr+0x5>
    reactStr[1][number]=length;
    2e56:	82 e0       	ldi	r24, 0x02	; 2
    2e58:	90 e0       	ldi	r25, 0x00	; 0
    2e5a:	80 93 38 39 	sts	0x3938, r24	; 0x803938 <reactStr+0x44>
    2e5e:	90 93 39 39 	sts	0x3939, r25	; 0x803939 <reactStr+0x45>
    reactStr[2][number]=type;
    2e62:	81 e0       	ldi	r24, 0x01	; 1
    2e64:	90 e0       	ldi	r25, 0x00	; 0
    2e66:	80 93 78 39 	sts	0x3978, r24	; 0x803978 <reactStr+0x84>
    2e6a:	90 93 79 39 	sts	0x3979, r25	; 0x803979 <reactStr+0x85>
    return 0;
}

//
void SetResponse(uint8_t number, uint16_t address, uint16_t length, uint8_t type){
    reactStr[0][number]=address;
    2e6e:	20 eb       	ldi	r18, 0xB0	; 176
    2e70:	38 e7       	ldi	r19, 0x78	; 120
    2e72:	20 93 fa 38 	sts	0x38FA, r18	; 0x8038fa <reactStr+0x6>
    2e76:	30 93 fb 38 	sts	0x38FB, r19	; 0x8038fb <reactStr+0x7>
    reactStr[1][number]=length;
    2e7a:	22 e1       	ldi	r18, 0x12	; 18
    2e7c:	30 e0       	ldi	r19, 0x00	; 0
    2e7e:	20 93 3a 39 	sts	0x393A, r18	; 0x80393a <reactStr+0x46>
    2e82:	30 93 3b 39 	sts	0x393B, r19	; 0x80393b <reactStr+0x47>
    reactStr[2][number]=type;
    2e86:	80 93 7a 39 	sts	0x397A, r24	; 0x80397a <reactStr+0x86>
    2e8a:	90 93 7b 39 	sts	0x397B, r25	; 0x80397b <reactStr+0x87>
                            //General request
                            } else if (actObj1.lenStr[ACTION_STR1]) {
                                SetResponse(elements++, actObj1.addrStr[ACTION_STR1], actObj1.lenStr[ACTION_STR1], GAME);
                                SetResponse(elements++, A_LF, 2, TEASER);
                                SetResponse(elements++, A_RESPONSE, L_RESPONSE, TEASER);
                                if (actObj1.lenStr[ACTION_STR2]>(INP_LENGTH-1)) actObj1.lenStr[ACTION_STR2] = (INP_LENGTH-1);
    2e8e:	80 91 d5 38 	lds	r24, 0x38D5	; 0x8038d5 <actObj1.3989+0x20>
    2e92:	90 91 d6 38 	lds	r25, 0x38D6	; 0x8038d6 <actObj1.3989+0x21>
    2e96:	40 97       	sbiw	r24, 0x10	; 16
    2e98:	30 f0       	brcs	.+12     	; 0x2ea6 <ProcessInput+0xc94>
    2e9a:	8f e0       	ldi	r24, 0x0F	; 15
    2e9c:	90 e0       	ldi	r25, 0x00	; 0
    2e9e:	80 93 d5 38 	sts	0x38D5, r24	; 0x8038d5 <actObj1.3989+0x20>
    2ea2:	90 93 d6 38 	sts	0x38D6, r25	; 0x8038d6 <actObj1.3989+0x21>
                                ExtEERead(actObj1.addrStr[ACTION_STR2], actObj1.lenStr[ACTION_STR2], GAME, (uint8_t *)&specialInput[0]);
    2ea6:	23 ee       	ldi	r18, 0xE3	; 227
    2ea8:	38 e3       	ldi	r19, 0x38	; 56
    2eaa:	40 e0       	ldi	r20, 0x00	; 0
    2eac:	60 91 d5 38 	lds	r22, 0x38D5	; 0x8038d5 <actObj1.3989+0x20>
    2eb0:	80 91 c7 38 	lds	r24, 0x38C7	; 0x8038c7 <actObj1.3989+0x12>
    2eb4:	90 91 c8 38 	lds	r25, 0x38C8	; 0x8038c8 <actObj1.3989+0x13>
    2eb8:	0e 94 55 0b 	call	0x16aa	; 0x16aa <ExtEERead>
                                UnflipData(actObj1.lenStr[ACTION_STR2], (uint8_t *)&specialInput[0]);
    2ebc:	63 ee       	ldi	r22, 0xE3	; 227
    2ebe:	78 e3       	ldi	r23, 0x38	; 56
    2ec0:	80 91 d5 38 	lds	r24, 0x38D5	; 0x8038d5 <actObj1.3989+0x20>
    2ec4:	0e 94 48 0b 	call	0x1690	; 0x1690 <UnflipData>
                                specialInput[actObj1.lenStr[ACTION_STR2]] = 0;
    2ec8:	e0 91 d5 38 	lds	r30, 0x38D5	; 0x8038d5 <actObj1.3989+0x20>
    2ecc:	f0 91 d6 38 	lds	r31, 0x38D6	; 0x8038d6 <actObj1.3989+0x21>
    2ed0:	ed 51       	subi	r30, 0x1D	; 29
    2ed2:	f7 4c       	sbci	r31, 0xC7	; 199
    2ed4:	10 82       	st	Z, r1

                            //General request
                            } else if (actObj1.lenStr[ACTION_STR1]) {
                                SetResponse(elements++, actObj1.addrStr[ACTION_STR1], actObj1.lenStr[ACTION_STR1], GAME);
                                SetResponse(elements++, A_LF, 2, TEASER);
                                SetResponse(elements++, A_RESPONSE, L_RESPONSE, TEASER);
    2ed6:	f4 e0       	ldi	r31, 0x04	; 4
    2ed8:	7f 2e       	mov	r7, r31
    2eda:	7b c1       	rjmp	.+758    	; 0x31d2 <ProcessInput+0xfc0>
                                ExtEERead(actObj1.addrStr[ACTION_STR2], actObj1.lenStr[ACTION_STR2], GAME, (uint8_t *)&specialInput[0]);
                                UnflipData(actObj1.lenStr[ACTION_STR2], (uint8_t *)&specialInput[0]);
                                specialInput[actObj1.lenStr[ACTION_STR2]] = 0;
                            
                            //Normal action    
                            } else if (CheckState(actObj1.byteField[ACTION_ACL])){
    2edc:	80 91 bc 38 	lds	r24, 0x38BC	; 0x8038bc <actObj1.3989+0x7>
    2ee0:	0e 94 05 09 	call	0x120a	; 0x120a <CheckState>
    2ee4:	88 23       	and	r24, r24
    2ee6:	01 f1       	breq	.+64     	; 0x2f28 <ProcessInput+0xd16>
                                SetResponse(elements++, actObj1.addrStr[ACTION_MSG], actObj1.lenStr[ACTION_MSG], GAME);
    2ee8:	80 91 db 38 	lds	r24, 0x38DB	; 0x8038db <actObj1.3989+0x26>
    2eec:	90 91 dc 38 	lds	r25, 0x38DC	; 0x8038dc <actObj1.3989+0x27>
    return 0;
}

//
void SetResponse(uint8_t number, uint16_t address, uint16_t length, uint8_t type){
    reactStr[0][number]=address;
    2ef0:	20 91 cd 38 	lds	r18, 0x38CD	; 0x8038cd <actObj1.3989+0x18>
    2ef4:	30 91 ce 38 	lds	r19, 0x38CE	; 0x8038ce <actObj1.3989+0x19>
    2ef8:	20 93 f6 38 	sts	0x38F6, r18	; 0x8038f6 <reactStr+0x2>
    2efc:	30 93 f7 38 	sts	0x38F7, r19	; 0x8038f7 <reactStr+0x3>
    reactStr[1][number]=length;
    2f00:	80 93 36 39 	sts	0x3936, r24	; 0x803936 <reactStr+0x42>
    2f04:	90 93 37 39 	sts	0x3937, r25	; 0x803937 <reactStr+0x43>
    reactStr[2][number]=type;
    2f08:	10 92 76 39 	sts	0x3976, r1	; 0x803976 <reactStr+0x82>
    2f0c:	10 92 77 39 	sts	0x3977, r1	; 0x803977 <reactStr+0x83>
                                specialInput[actObj1.lenStr[ACTION_STR2]] = 0;
                            
                            //Normal action    
                            } else if (CheckState(actObj1.byteField[ACTION_ACL])){
                                SetResponse(elements++, actObj1.addrStr[ACTION_MSG], actObj1.lenStr[ACTION_MSG], GAME);
                                effect = actObj1.effect[2];
    2f10:	80 91 df 38 	lds	r24, 0x38DF	; 0x8038df <actObj1.3989+0x2a>
    2f14:	90 e0       	ldi	r25, 0x00	; 0
    2f16:	80 93 2d 38 	sts	0x382D, r24	; 0x80382d <effect>
    2f1a:	90 93 2e 38 	sts	0x382E, r25	; 0x80382e <effect+0x1>
                                UpdateState(actObj1.byteField[ACTION_STATE]);
    2f1e:	80 91 bf 38 	lds	r24, 0x38BF	; 0x8038bf <actObj1.3989+0xa>
    2f22:	0e 94 fb 08 	call	0x11f6	; 0x11f6 <UpdateState>
    2f26:	44 ca       	rjmp	.-2936   	; 0x23b0 <ProcessInput+0x19e>
                            } else {
                                SetResponse(elements++, actObj1.addrStr[ACTION_ACL_MSG], actObj1.lenStr[ACTION_ACL_MSG], GAME);
    2f28:	80 91 d9 38 	lds	r24, 0x38D9	; 0x8038d9 <actObj1.3989+0x24>
    2f2c:	90 91 da 38 	lds	r25, 0x38DA	; 0x8038da <actObj1.3989+0x25>
    return 0;
}

//
void SetResponse(uint8_t number, uint16_t address, uint16_t length, uint8_t type){
    reactStr[0][number]=address;
    2f30:	20 91 cb 38 	lds	r18, 0x38CB	; 0x8038cb <actObj1.3989+0x16>
    2f34:	30 91 cc 38 	lds	r19, 0x38CC	; 0x8038cc <actObj1.3989+0x17>
    2f38:	20 93 f6 38 	sts	0x38F6, r18	; 0x8038f6 <reactStr+0x2>
    2f3c:	30 93 f7 38 	sts	0x38F7, r19	; 0x8038f7 <reactStr+0x3>
    reactStr[1][number]=length;
    2f40:	80 93 36 39 	sts	0x3936, r24	; 0x803936 <reactStr+0x42>
    2f44:	90 93 37 39 	sts	0x3937, r25	; 0x803937 <reactStr+0x43>
    reactStr[2][number]=type;
    2f48:	10 92 76 39 	sts	0x3976, r1	; 0x803976 <reactStr+0x82>
    2f4c:	10 92 77 39 	sts	0x3977, r1	; 0x803977 <reactStr+0x83>
                                SetResponse(elements++, actObj1.addrStr[ACTION_MSG], actObj1.lenStr[ACTION_MSG], GAME);
                                effect = actObj1.effect[2];
                                UpdateState(actObj1.byteField[ACTION_STATE]);
                            } else {
                                SetResponse(elements++, actObj1.addrStr[ACTION_ACL_MSG], actObj1.lenStr[ACTION_ACL_MSG], GAME);
                                effect = actObj1.effect[1];
    2f50:	80 91 de 38 	lds	r24, 0x38DE	; 0x8038de <actObj1.3989+0x29>
    2f54:	90 e0       	ldi	r25, 0x00	; 0
    2f56:	80 93 2d 38 	sts	0x382D, r24	; 0x80382d <effect>
    2f5a:	90 93 2e 38 	sts	0x382E, r25	; 0x80382e <effect+0x1>
    2f5e:	28 ca       	rjmp	.-2992   	; 0x23b0 <ProcessInput+0x19e>
                        }
                    }

                //Person or object not found
                } else {
                    if ((data[0] == 't')||(data[0] == 'g')){
    2f60:	f8 01       	movw	r30, r16
    2f62:	80 81       	ld	r24, Z
    2f64:	84 37       	cpi	r24, 0x74	; 116
    2f66:	11 f0       	breq	.+4      	; 0x2f6c <ProcessInput+0xd5a>
    2f68:	87 36       	cpi	r24, 0x67	; 103
    2f6a:	19 f4       	brne	.+6      	; 0x2f72 <ProcessInput+0xd60>
    return 0;
}

//
void SetResponse(uint8_t number, uint16_t address, uint16_t length, uint8_t type){
    reactStr[0][number]=address;
    2f6c:	8c e3       	ldi	r24, 0x3C	; 60
    2f6e:	99 e7       	ldi	r25, 0x79	; 121
    2f70:	02 c0       	rjmp	.+4      	; 0x2f76 <ProcessInput+0xd64>
    2f72:	80 e5       	ldi	r24, 0x50	; 80
    2f74:	99 e7       	ldi	r25, 0x79	; 121
    2f76:	80 93 f6 38 	sts	0x38F6, r24	; 0x8038f6 <reactStr+0x2>
    2f7a:	90 93 f7 38 	sts	0x38F7, r25	; 0x8038f7 <reactStr+0x3>
    reactStr[1][number]=length;
    2f7e:	84 e1       	ldi	r24, 0x14	; 20
    2f80:	90 e0       	ldi	r25, 0x00	; 0
    2f82:	0c ca       	rjmp	.-3048   	; 0x239c <ProcessInput+0x18a>
                    }
                }
            }
        
        //Special answer given
        } else if (data[0] == 'a'){
    2f84:	81 36       	cpi	r24, 0x61	; 97
    2f86:	09 f0       	breq	.+2      	; 0x2f8a <ProcessInput+0xd78>
    2f88:	c5 cb       	rjmp	.-2166   	; 0x2714 <ProcessInput+0x502>
            
            //Priest offerings
            if (specialPassed >= 2) {
    2f8a:	80 91 e2 38 	lds	r24, 0x38E2	; 0x8038e2 <specialPassed>
    2f8e:	82 30       	cpi	r24, 0x02	; 2
    2f90:	08 f4       	brcc	.+2      	; 0x2f94 <ProcessInput+0xd82>
    2f92:	b3 c0       	rjmp	.+358    	; 0x30fa <ProcessInput+0xee8>
                if (data[1] > 0) {
    2f94:	d8 01       	movw	r26, r16
    2f96:	11 96       	adiw	r26, 0x01	; 1
    2f98:	2c 91       	ld	r18, X
    2f9a:	22 23       	and	r18, r18
    2f9c:	09 f4       	brne	.+2      	; 0x2fa0 <ProcessInput+0xd8e>
    2f9e:	a4 c0       	rjmp	.+328    	; 0x30e8 <ProcessInput+0xed6>

                    uint8_t  digit[10] = {0, 0, 0, 0, 0, 0, 0, 0, 0, 0};
    2fa0:	fe 01       	movw	r30, r28
    2fa2:	31 96       	adiw	r30, 0x01	; 1
    2fa4:	7f 01       	movw	r14, r30
    2fa6:	8a e0       	ldi	r24, 0x0A	; 10
    2fa8:	df 01       	movw	r26, r30
    2faa:	1d 92       	st	X+, r1
    2fac:	8a 95       	dec	r24
    2fae:	e9 f7       	brne	.-6      	; 0x2faa <ProcessInput+0xd98>
                        answer = ((offering  & 2) << 19) + ((offering  & 1) << 8) + \
                        ((element   & 2) << 15) + ((element   & 1) << 4) + \
                        ((kneelings & 2) << 11) + ((kneelings & 1))
                        answer = answer << (3-person)
                    */
                    data[1]-='1';
    2fb0:	21 53       	subi	r18, 0x31	; 49
    2fb2:	f8 01       	movw	r30, r16
    2fb4:	21 83       	std	Z+1, r18	; 0x01
                    data[2]-='1';
    2fb6:	32 81       	ldd	r19, Z+2	; 0x02
    2fb8:	31 53       	subi	r19, 0x31	; 49
    2fba:	32 83       	std	Z+2, r19	; 0x02
                    if (data[3] == 'a') data[3] = 1;
    2fbc:	83 81       	ldd	r24, Z+3	; 0x03
    2fbe:	81 36       	cpi	r24, 0x61	; 97
    2fc0:	11 f4       	brne	.+4      	; 0x2fc6 <ProcessInput+0xdb4>
    2fc2:	81 e0       	ldi	r24, 0x01	; 1
    2fc4:	08 c0       	rjmp	.+16     	; 0x2fd6 <ProcessInput+0xdc4>
                    else if (data[3] == 'e') data[3] = 0;
    2fc6:	85 36       	cpi	r24, 0x65	; 101
    2fc8:	11 f4       	brne	.+4      	; 0x2fce <ProcessInput+0xdbc>
    2fca:	13 82       	std	Z+3, r1	; 0x03
    2fcc:	08 c0       	rjmp	.+16     	; 0x2fde <ProcessInput+0xdcc>
                    else if (data[3] == 'f') data[3] = 3;
    2fce:	86 36       	cpi	r24, 0x66	; 102
    2fd0:	21 f4       	brne	.+8      	; 0x2fda <ProcessInput+0xdc8>
    2fd2:	83 e0       	ldi	r24, 0x03	; 3
    2fd4:	f8 01       	movw	r30, r16
    2fd6:	83 83       	std	Z+3, r24	; 0x03
    2fd8:	02 c0       	rjmp	.+4      	; 0x2fde <ProcessInput+0xdcc>
                    else data[3] = 2;
    2fda:	82 e0       	ldi	r24, 0x02	; 2
    2fdc:	83 83       	std	Z+3, r24	; 0x03

                    if (data[1] & 2) answer += (1UL << 20);
    2fde:	21 fd       	sbrc	r18, 1
    2fe0:	04 c0       	rjmp	.+8      	; 0x2fea <ProcessInput+0xdd8>
            //Priest offerings
            if (specialPassed >= 2) {
                if (data[1] > 0) {

                    uint8_t  digit[10] = {0, 0, 0, 0, 0, 0, 0, 0, 0, 0};
                    uint32_t answer = 0;
    2fe2:	80 e0       	ldi	r24, 0x00	; 0
    2fe4:	90 e0       	ldi	r25, 0x00	; 0
    2fe6:	dc 01       	movw	r26, r24
    2fe8:	04 c0       	rjmp	.+8      	; 0x2ff2 <ProcessInput+0xde0>
                    if (data[3] == 'a') data[3] = 1;
                    else if (data[3] == 'e') data[3] = 0;
                    else if (data[3] == 'f') data[3] = 3;
                    else data[3] = 2;

                    if (data[1] & 2) answer += (1UL << 20);
    2fea:	80 e0       	ldi	r24, 0x00	; 0
    2fec:	90 e0       	ldi	r25, 0x00	; 0
    2fee:	a0 e1       	ldi	r26, 0x10	; 16
    2ff0:	b0 e0       	ldi	r27, 0x00	; 0
                    if (data[1] & 1) answer += (1 << 8);
    2ff2:	20 ff       	sbrs	r18, 0
    2ff4:	03 c0       	rjmp	.+6      	; 0x2ffc <ProcessInput+0xdea>
    2ff6:	9f 5f       	subi	r25, 0xFF	; 255
    2ff8:	af 4f       	sbci	r26, 0xFF	; 255
    2ffa:	bf 4f       	sbci	r27, 0xFF	; 255
                    if (data[3] & 2) answer += (1UL << 16);
    2ffc:	f8 01       	movw	r30, r16
    2ffe:	23 81       	ldd	r18, Z+3	; 0x03
    3000:	21 fd       	sbrc	r18, 1
    3002:	11 96       	adiw	r26, 0x01	; 1
                    if (data[3] & 1) answer += (1 << 4);
    3004:	20 ff       	sbrs	r18, 0
    3006:	03 c0       	rjmp	.+6      	; 0x300e <ProcessInput+0xdfc>
    3008:	40 96       	adiw	r24, 0x10	; 16
    300a:	a1 1d       	adc	r26, r1
    300c:	b1 1d       	adc	r27, r1
                    if (data[2] & 2) answer += (1 << 12);
    300e:	31 ff       	sbrs	r19, 1
    3010:	03 c0       	rjmp	.+6      	; 0x3018 <ProcessInput+0xe06>
    3012:	90 5f       	subi	r25, 0xF0	; 240
    3014:	af 4f       	sbci	r26, 0xFF	; 255
    3016:	bf 4f       	sbci	r27, 0xFF	; 255
                    if (data[2] & 1) answer += 1;
    3018:	30 ff       	sbrs	r19, 0
    301a:	03 c0       	rjmp	.+6      	; 0x3022 <ProcessInput+0xe10>
    301c:	01 96       	adiw	r24, 0x01	; 1
    301e:	a1 1d       	adc	r26, r1
    3020:	b1 1d       	adc	r27, r1
                    answer <<= (4 - whoami);            
    3022:	40 91 30 38 	lds	r20, 0x3830	; 0x803830 <whoami>
    3026:	24 e0       	ldi	r18, 0x04	; 4
    3028:	30 e0       	ldi	r19, 0x00	; 0
    302a:	24 1b       	sub	r18, r20
    302c:	31 09       	sbc	r19, r1
    302e:	bc 01       	movw	r22, r24
    3030:	cd 01       	movw	r24, r26
    3032:	04 c0       	rjmp	.+8      	; 0x303c <ProcessInput+0xe2a>
    3034:	66 0f       	add	r22, r22
    3036:	77 1f       	adc	r23, r23
    3038:	88 1f       	adc	r24, r24
    303a:	99 1f       	adc	r25, r25
    303c:	2a 95       	dec	r18
    303e:	d2 f7       	brpl	.-12     	; 0x3034 <ProcessInput+0xe22>
    return 0;
}

//
void SetResponse(uint8_t number, uint16_t address, uint16_t length, uint8_t type){
    reactStr[0][number]=address;
    3040:	26 e0       	ldi	r18, 0x06	; 6
    3042:	35 e7       	ldi	r19, 0x75	; 117
    3044:	20 93 f6 38 	sts	0x38F6, r18	; 0x8038f6 <reactStr+0x2>
    3048:	30 93 f7 38 	sts	0x38F7, r19	; 0x8038f7 <reactStr+0x3>
    reactStr[1][number]=length;
    304c:	20 e2       	ldi	r18, 0x20	; 32
    304e:	30 e0       	ldi	r19, 0x00	; 0
    3050:	20 93 36 39 	sts	0x3936, r18	; 0x803936 <reactStr+0x42>
    3054:	30 93 37 39 	sts	0x3937, r19	; 0x803937 <reactStr+0x43>
    reactStr[2][number]=type;
    3058:	21 e0       	ldi	r18, 0x01	; 1
    305a:	30 e0       	ldi	r19, 0x00	; 0
    305c:	20 93 76 39 	sts	0x3976, r18	; 0x803976 <reactStr+0x82>
    3060:	30 93 77 39 	sts	0x3977, r19	; 0x803977 <reactStr+0x83>
                    answer <<= (4 - whoami);            

                    SetResponse(elements++, A_YOURPART, L_YOURPART, TEASER);
                    
                    //Set up sending out number
                    for (n=9; n>=0; --n) {
    3064:	59 e0       	ldi	r21, 0x09	; 9
                        digit[n] = answer % 10;
    3066:	b5 2e       	mov	r11, r21
    3068:	ea e0       	ldi	r30, 0x0A	; 10
    306a:	4e 2e       	mov	r4, r30
    306c:	51 2c       	mov	r5, r1
    306e:	61 2c       	mov	r6, r1
    3070:	71 2c       	mov	r7, r1
    3072:	67 01       	movw	r12, r14
    3074:	cb 0c       	add	r12, r11
    3076:	d1 1c       	adc	r13, r1
    3078:	a3 01       	movw	r20, r6
    307a:	92 01       	movw	r18, r4
    307c:	56 d2       	rcall	.+1196   	; 0x352a <__udivmodsi4>
    307e:	d6 01       	movw	r26, r12
    3080:	6c 93       	st	X, r22
                        answer /= 10;
    3082:	b9 01       	movw	r22, r18
    3084:	ca 01       	movw	r24, r20
                        if (answer == 0) break;
    3086:	61 15       	cp	r22, r1
    3088:	71 05       	cpc	r23, r1
    308a:	81 05       	cpc	r24, r1
    308c:	91 05       	cpc	r25, r1
    308e:	51 f4       	brne	.+20     	; 0x30a4 <ProcessInput+0xe92>
    3090:	24 ef       	ldi	r18, 0xF4	; 244
    3092:	c2 2e       	mov	r12, r18
    3094:	28 e3       	ldi	r18, 0x38	; 56
    3096:	d2 2e       	mov	r13, r18
    3098:	32 e0       	ldi	r19, 0x02	; 2
    309a:	73 2e       	mov	r7, r19
}

//
void SetResponse(uint8_t number, uint16_t address, uint16_t length, uint8_t type){
    reactStr[0][number]=address;
    reactStr[1][number]=length;
    309c:	88 24       	eor	r8, r8
    309e:	83 94       	inc	r8
    30a0:	91 2c       	mov	r9, r1
    30a2:	02 c0       	rjmp	.+4      	; 0x30a8 <ProcessInput+0xe96>
                    answer <<= (4 - whoami);            

                    SetResponse(elements++, A_YOURPART, L_YOURPART, TEASER);
                    
                    //Set up sending out number
                    for (n=9; n>=0; --n) {
    30a4:	ba 94       	dec	r11
                        digit[n] = answer % 10;
                        answer /= 10;
                        if (answer == 0) break;
                    }
    30a6:	e5 cf       	rjmp	.-54     	; 0x3072 <ProcessInput+0xe60>
    30a8:	f2 e0       	ldi	r31, 0x02	; 2
    30aa:	cf 0e       	add	r12, r31
    30ac:	d1 1c       	adc	r13, r1
                    for (; n<10; ++n) {
    30ae:	29 e0       	ldi	r18, 0x09	; 9
    30b0:	2b 15       	cp	r18, r11
    30b2:	08 f4       	brcc	.+2      	; 0x30b6 <ProcessInput+0xea4>
    30b4:	8c c0       	rjmp	.+280    	; 0x31ce <ProcessInput+0xfbc>
                        SetResponse(elements++, A_DIGITS+digit[n], 1, TEASER);
    30b6:	73 94       	inc	r7
    30b8:	f7 01       	movw	r30, r14
    30ba:	eb 0d       	add	r30, r11
    30bc:	f1 1d       	adc	r31, r1
    return 0;
}

//
void SetResponse(uint8_t number, uint16_t address, uint16_t length, uint8_t type){
    reactStr[0][number]=address;
    30be:	80 81       	ld	r24, Z
    30c0:	90 e0       	ldi	r25, 0x00	; 0
    30c2:	8d 52       	subi	r24, 0x2D	; 45
    30c4:	9b 48       	sbci	r25, 0x8B	; 139
    30c6:	f6 01       	movw	r30, r12
    30c8:	82 83       	std	Z+2, r24	; 0x02
    30ca:	93 83       	std	Z+3, r25	; 0x03
    reactStr[1][number]=length;
    30cc:	ee 5b       	subi	r30, 0xBE	; 190
    30ce:	ff 4f       	sbci	r31, 0xFF	; 255
    30d0:	80 82       	st	Z, r8
    30d2:	91 82       	std	Z+1, r9	; 0x01
    reactStr[2][number]=type;
    30d4:	e0 5c       	subi	r30, 0xC0	; 192
    30d6:	ff 4f       	sbci	r31, 0xFF	; 255
    30d8:	80 82       	st	Z, r8
    30da:	91 82       	std	Z+1, r9	; 0x01
                        answer /= 10;
                        if (answer == 0) break;
                    }
                    for (; n<10; ++n) {
                        SetResponse(elements++, A_DIGITS+digit[n], 1, TEASER);
                        UpdateState(actObj1.byteField[ACTION_STATE]);
    30dc:	80 91 bf 38 	lds	r24, 0x38BF	; 0x8038bf <actObj1.3989+0xa>
    30e0:	0e 94 fb 08 	call	0x11f6	; 0x11f6 <UpdateState>
                    for (n=9; n>=0; --n) {
                        digit[n] = answer % 10;
                        answer /= 10;
                        if (answer == 0) break;
                    }
                    for (; n<10; ++n) {
    30e4:	b3 94       	inc	r11
    30e6:	e0 cf       	rjmp	.-64     	; 0x30a8 <ProcessInput+0xe96>
    return 0;
}

//
void SetResponse(uint8_t number, uint16_t address, uint16_t length, uint8_t type){
    reactStr[0][number]=address;
    30e8:	86 e2       	ldi	r24, 0x26	; 38
    30ea:	95 e7       	ldi	r25, 0x75	; 117
    30ec:	80 93 f6 38 	sts	0x38F6, r24	; 0x8038f6 <reactStr+0x2>
    30f0:	90 93 f7 38 	sts	0x38F7, r25	; 0x8038f7 <reactStr+0x3>
    reactStr[1][number]=length;
    30f4:	8d e3       	ldi	r24, 0x3D	; 61
    30f6:	90 e0       	ldi	r25, 0x00	; 0
    30f8:	5e c0       	rjmp	.+188    	; 0x31b6 <ProcessInput+0xfa4>
    30fa:	e0 91 26 38 	lds	r30, 0x3826	; 0x803826 <currDepth>
                    SetResponse(elements++, A_BADOFFERING, L_BADOFFERING, TEASER);
                }
            
            //Other questions    
            } else if (specialPassed == 1) {
                PopulateObject(route[currDepth+1], &actObj1);
    30fe:	f0 e0       	ldi	r31, 0x00	; 0
    3100:	ee 0f       	add	r30, r30
    3102:	ff 1f       	adc	r31, r31
    3104:	ea 54       	subi	r30, 0x4A	; 74
    3106:	f6 4c       	sbci	r31, 0xC6	; 198
    3108:	65 eb       	ldi	r22, 0xB5	; 181
    310a:	78 e3       	ldi	r23, 0x38	; 56
                } else {
                    SetResponse(elements++, A_BADOFFERING, L_BADOFFERING, TEASER);
                }
            
            //Other questions    
            } else if (specialPassed == 1) {
    310c:	81 30       	cpi	r24, 0x01	; 1
    310e:	09 f0       	breq	.+2      	; 0x3112 <ProcessInput+0xf00>
    3110:	46 c0       	rjmp	.+140    	; 0x319e <ProcessInput+0xf8c>
                PopulateObject(route[currDepth+1], &actObj1);
    3112:	80 81       	ld	r24, Z
    3114:	91 81       	ldd	r25, Z+1	; 0x01
    3116:	0e 94 60 0c 	call	0x18c0	; 0x18c0 <PopulateObject>
                if (CheckState(actObj1.byteField[ACTION_ACL])){
    311a:	80 91 bc 38 	lds	r24, 0x38BC	; 0x8038bc <actObj1.3989+0x7>
    311e:	0e 94 05 09 	call	0x120a	; 0x120a <CheckState>
    3122:	88 23       	and	r24, r24
    3124:	01 f1       	breq	.+64     	; 0x3166 <ProcessInput+0xf54>
                    SetResponse(elements++, actObj1.addrStr[ACTION_MSG], actObj1.lenStr[ACTION_MSG], GAME);
    3126:	80 91 db 38 	lds	r24, 0x38DB	; 0x8038db <actObj1.3989+0x26>
    312a:	90 91 dc 38 	lds	r25, 0x38DC	; 0x8038dc <actObj1.3989+0x27>
    return 0;
}

//
void SetResponse(uint8_t number, uint16_t address, uint16_t length, uint8_t type){
    reactStr[0][number]=address;
    312e:	20 91 cd 38 	lds	r18, 0x38CD	; 0x8038cd <actObj1.3989+0x18>
    3132:	30 91 ce 38 	lds	r19, 0x38CE	; 0x8038ce <actObj1.3989+0x19>
    3136:	20 93 f6 38 	sts	0x38F6, r18	; 0x8038f6 <reactStr+0x2>
    313a:	30 93 f7 38 	sts	0x38F7, r19	; 0x8038f7 <reactStr+0x3>
    reactStr[1][number]=length;
    313e:	80 93 36 39 	sts	0x3936, r24	; 0x803936 <reactStr+0x42>
    3142:	90 93 37 39 	sts	0x3937, r25	; 0x803937 <reactStr+0x43>
    reactStr[2][number]=type;
    3146:	10 92 76 39 	sts	0x3976, r1	; 0x803976 <reactStr+0x82>
    314a:	10 92 77 39 	sts	0x3977, r1	; 0x803977 <reactStr+0x83>
            //Other questions    
            } else if (specialPassed == 1) {
                PopulateObject(route[currDepth+1], &actObj1);
                if (CheckState(actObj1.byteField[ACTION_ACL])){
                    SetResponse(elements++, actObj1.addrStr[ACTION_MSG], actObj1.lenStr[ACTION_MSG], GAME);
                    effect = actObj1.effect[2];
    314e:	80 91 df 38 	lds	r24, 0x38DF	; 0x8038df <actObj1.3989+0x2a>
    3152:	90 e0       	ldi	r25, 0x00	; 0
    3154:	80 93 2d 38 	sts	0x382D, r24	; 0x80382d <effect>
    3158:	90 93 2e 38 	sts	0x382E, r25	; 0x80382e <effect+0x1>
                    UpdateState(actObj1.byteField[ACTION_STATE]);
    315c:	80 91 bf 38 	lds	r24, 0x38BF	; 0x8038bf <actObj1.3989+0xa>
    3160:	0e 94 fb 08 	call	0x11f6	; 0x11f6 <UpdateState>
    3164:	32 c0       	rjmp	.+100    	; 0x31ca <ProcessInput+0xfb8>
                } else {
                    SetResponse(elements++, actObj1.addrStr[ACTION_ACL_MSG], actObj1.lenStr[ACTION_ACL_MSG], GAME);
    3166:	80 91 d9 38 	lds	r24, 0x38D9	; 0x8038d9 <actObj1.3989+0x24>
    316a:	90 91 da 38 	lds	r25, 0x38DA	; 0x8038da <actObj1.3989+0x25>
    return 0;
}

//
void SetResponse(uint8_t number, uint16_t address, uint16_t length, uint8_t type){
    reactStr[0][number]=address;
    316e:	20 91 cb 38 	lds	r18, 0x38CB	; 0x8038cb <actObj1.3989+0x16>
    3172:	30 91 cc 38 	lds	r19, 0x38CC	; 0x8038cc <actObj1.3989+0x17>
    3176:	20 93 f6 38 	sts	0x38F6, r18	; 0x8038f6 <reactStr+0x2>
    317a:	30 93 f7 38 	sts	0x38F7, r19	; 0x8038f7 <reactStr+0x3>
    reactStr[1][number]=length;
    317e:	80 93 36 39 	sts	0x3936, r24	; 0x803936 <reactStr+0x42>
    3182:	90 93 37 39 	sts	0x3937, r25	; 0x803937 <reactStr+0x43>
    reactStr[2][number]=type;
    3186:	10 92 76 39 	sts	0x3976, r1	; 0x803976 <reactStr+0x82>
    318a:	10 92 77 39 	sts	0x3977, r1	; 0x803977 <reactStr+0x83>
                    SetResponse(elements++, actObj1.addrStr[ACTION_MSG], actObj1.lenStr[ACTION_MSG], GAME);
                    effect = actObj1.effect[2];
                    UpdateState(actObj1.byteField[ACTION_STATE]);
                } else {
                    SetResponse(elements++, actObj1.addrStr[ACTION_ACL_MSG], actObj1.lenStr[ACTION_ACL_MSG], GAME);
                    effect = actObj1.effect[1];
    318e:	80 91 de 38 	lds	r24, 0x38DE	; 0x8038de <actObj1.3989+0x29>
    3192:	90 e0       	ldi	r25, 0x00	; 0
    3194:	80 93 2d 38 	sts	0x382D, r24	; 0x80382d <effect>
    3198:	90 93 2e 38 	sts	0x382E, r25	; 0x80382e <effect+0x1>
    319c:	16 c0       	rjmp	.+44     	; 0x31ca <ProcessInput+0xfb8>
                }

            } else {
                PopulateObject(route[currDepth+1], &actObj1);
    319e:	80 81       	ld	r24, Z
    31a0:	91 81       	ldd	r25, Z+1	; 0x01
    31a2:	0e 94 60 0c 	call	0x18c0	; 0x18c0 <PopulateObject>
    return 0;
}

//
void SetResponse(uint8_t number, uint16_t address, uint16_t length, uint8_t type){
    reactStr[0][number]=address;
    31a6:	8e e9       	ldi	r24, 0x9E	; 158
    31a8:	98 e7       	ldi	r25, 0x78	; 120
    31aa:	80 93 f6 38 	sts	0x38F6, r24	; 0x8038f6 <reactStr+0x2>
    31ae:	90 93 f7 38 	sts	0x38F7, r25	; 0x8038f7 <reactStr+0x3>
    reactStr[1][number]=length;
    31b2:	82 e1       	ldi	r24, 0x12	; 18
    31b4:	90 e0       	ldi	r25, 0x00	; 0
    31b6:	80 93 36 39 	sts	0x3936, r24	; 0x803936 <reactStr+0x42>
    31ba:	90 93 37 39 	sts	0x3937, r25	; 0x803937 <reactStr+0x43>
    reactStr[2][number]=type;
    31be:	81 e0       	ldi	r24, 0x01	; 1
    31c0:	90 e0       	ldi	r25, 0x00	; 0
    31c2:	80 93 76 39 	sts	0x3976, r24	; 0x803976 <reactStr+0x82>
    31c6:	90 93 77 39 	sts	0x3977, r25	; 0x803977 <reactStr+0x83>
                    effect = actObj1.effect[1];
                }

            } else {
                PopulateObject(route[currDepth+1], &actObj1);
                SetResponse(elements++, A_INCORRECT, L_INCORRECT, TEASER);
    31ca:	82 e0       	ldi	r24, 0x02	; 2
    31cc:	78 2e       	mov	r7, r24
            }
            specialInput[0] = 0;
    31ce:	10 92 e3 38 	sts	0x38E3, r1	; 0x8038e3 <specialInput>
    return 0;
}

//
void SetResponse(uint8_t number, uint16_t address, uint16_t length, uint8_t type){
    reactStr[0][number]=address;
    31d2:	8b e5       	ldi	r24, 0x5B	; 91
    31d4:	9a e7       	ldi	r25, 0x7A	; 122
    31d6:	80 93 f4 38 	sts	0x38F4, r24	; 0x8038f4 <reactStr>
    31da:	90 93 f5 38 	sts	0x38F5, r25	; 0x8038f5 <reactStr+0x1>
    reactStr[1][number]=length;
    31de:	82 e0       	ldi	r24, 0x02	; 2
    31e0:	90 e0       	ldi	r25, 0x00	; 0
    31e2:	80 93 34 39 	sts	0x3934, r24	; 0x803934 <reactStr+0x40>
    31e6:	90 93 35 39 	sts	0x3935, r25	; 0x803935 <reactStr+0x41>
    reactStr[2][number]=type;
    31ea:	81 e0       	ldi	r24, 0x01	; 1
    31ec:	90 e0       	ldi	r25, 0x00	; 0
    31ee:	80 93 74 39 	sts	0x3974, r24	; 0x803974 <reactStr+0x80>
    31f2:	90 93 75 39 	sts	0x3975, r25	; 0x803975 <reactStr+0x81>
               
        }
            
        //Input handled
        SetResponse(0, A_LF, 2, TEASER);
        if (specialInput[0]) responseList = elements; else responseList = SetStandardResponse(elements);
    31f6:	80 91 e3 38 	lds	r24, 0x38E3	; 0x8038e3 <specialInput>
    31fa:	88 23       	and	r24, r24
    31fc:	19 f0       	breq	.+6      	; 0x3204 <ProcessInput+0xff2>
    31fe:	70 92 f3 38 	sts	0x38F3, r7	; 0x8038f3 <responseList>
    3202:	9a c0       	rjmp	.+308    	; 0x3338 <ProcessInput+0x1126>
    3204:	87 2d       	mov	r24, r7
    3206:	12 c0       	rjmp	.+36     	; 0x322c <ProcessInput+0x101a>
    return 0;
}

//
void SetResponse(uint8_t number, uint16_t address, uint16_t length, uint8_t type){
    reactStr[0][number]=address;
    3208:	8b e5       	ldi	r24, 0x5B	; 91
    320a:	9a e7       	ldi	r25, 0x7A	; 122
    320c:	80 93 f4 38 	sts	0x38F4, r24	; 0x8038f4 <reactStr>
    3210:	90 93 f5 38 	sts	0x38F5, r25	; 0x8038f5 <reactStr+0x1>
    reactStr[1][number]=length;
    3214:	82 e0       	ldi	r24, 0x02	; 2
    3216:	90 e0       	ldi	r25, 0x00	; 0
    3218:	80 93 34 39 	sts	0x3934, r24	; 0x803934 <reactStr+0x40>
    321c:	90 93 35 39 	sts	0x3935, r25	; 0x803935 <reactStr+0x41>
    reactStr[2][number]=type;
    3220:	81 e0       	ldi	r24, 0x01	; 1
    3222:	90 e0       	ldi	r25, 0x00	; 0
    3224:	80 93 74 39 	sts	0x3974, r24	; 0x803974 <reactStr+0x80>
    3228:	90 93 75 39 	sts	0x3975, r25	; 0x803975 <reactStr+0x81>
        SetResponse(0, A_LF, 2, TEASER);
        if (specialInput[0]) responseList = elements; else responseList = SetStandardResponse(elements);

    } else {
        SetResponse(0, A_LF, 2, TEASER);
        responseList = SetStandardResponse(1);
    322c:	0e 94 e4 0b 	call	0x17c8	; 0x17c8 <SetStandardResponse>
    3230:	80 93 f3 38 	sts	0x38F3, r24	; 0x8038f3 <responseList>
    3234:	81 c0       	rjmp	.+258    	; 0x3338 <ProcessInput+0x1126>
    return 0;
}

//
void SetResponse(uint8_t number, uint16_t address, uint16_t length, uint8_t type){
    reactStr[0][number]=address;
    3236:	84 ed       	ldi	r24, 0xD4	; 212
    3238:	99 e7       	ldi	r25, 0x79	; 121
    323a:	b0 cd       	rjmp	.-1184   	; 0x2d9c <ProcessInput+0xb8a>

        //Drop item if in inventory
        if (data[0] == 'd') {
            if ((inventory[0] == 0)&&(inventory[1] == 0)){
                SetResponse(elements++, A_EMPTYHANDS, L_EMPTYHANDS, TEASER);
            } else if (inputLen != 2) {
    323c:	b2 e0       	ldi	r27, 0x02	; 2
    323e:	fb 12       	cpse	r15, r27
    3240:	18 c8       	rjmp	.-4048   	; 0x2272 <ProcessInput+0x60>
                SetResponse(elements++, A_NOTPOSSIBLE, L_NOTPOSSIBLE, TEASER);
            } else {
                for (uint8_t x=0; x<2; ++x) {
                    if (inventory[x]) {
                        if (CheckLetter(inventory[x], data[1])) {
    3242:	d8 01       	movw	r26, r16
    3244:	11 96       	adiw	r26, 0x01	; 1
    3246:	6c 91       	ld	r22, X
    3248:	0e 94 d7 0c 	call	0x19ae	; 0x19ae <CheckLetter>
    324c:	88 23       	and	r24, r24
    324e:	09 f4       	brne	.+2      	; 0x3252 <ProcessInput+0x1040>
    3250:	5b c0       	rjmp	.+182    	; 0x3308 <ProcessInput+0x10f6>
                SetResponse(elements++, A_EMPTYHANDS, L_EMPTYHANDS, TEASER);
            } else if (inputLen != 2) {
                SetResponse(elements++, A_NOTPOSSIBLE, L_NOTPOSSIBLE, TEASER);
            } else {
                for (uint8_t x=0; x<2; ++x) {
                    if (inventory[x]) {
    3252:	80 e0       	ldi	r24, 0x00	; 0
    3254:	90 e0       	ldi	r25, 0x00	; 0
                        if (CheckLetter(inventory[x], data[1])) {
                            PopulateObject(inventory[x], &actObj1);
    3256:	88 0f       	add	r24, r24
    3258:	99 1f       	adc	r25, r25
    325a:	9c 01       	movw	r18, r24
    325c:	2f 5c       	subi	r18, 0xCF	; 207
    325e:	37 4c       	sbci	r19, 0xC7	; 199
    3260:	79 01       	movw	r14, r18
    3262:	65 eb       	ldi	r22, 0xB5	; 181
    3264:	78 e3       	ldi	r23, 0x38	; 56
    3266:	d9 01       	movw	r26, r18
    3268:	8d 91       	ld	r24, X+
    326a:	9c 91       	ld	r25, X
    326c:	0e 94 60 0c 	call	0x18c0	; 0x18c0 <PopulateObject>
    return 0;
}

//
void SetResponse(uint8_t number, uint16_t address, uint16_t length, uint8_t type){
    reactStr[0][number]=address;
    3270:	84 ed       	ldi	r24, 0xD4	; 212
    3272:	97 e7       	ldi	r25, 0x77	; 119
    3274:	80 93 f6 38 	sts	0x38F6, r24	; 0x8038f6 <reactStr+0x2>
    3278:	90 93 f7 38 	sts	0x38F7, r25	; 0x8038f7 <reactStr+0x3>
    reactStr[1][number]=length;
    327c:	80 e1       	ldi	r24, 0x10	; 16
    327e:	90 e0       	ldi	r25, 0x00	; 0
    3280:	80 93 36 39 	sts	0x3936, r24	; 0x803936 <reactStr+0x42>
    3284:	90 93 37 39 	sts	0x3937, r25	; 0x803937 <reactStr+0x43>
    reactStr[2][number]=type;
    3288:	81 e0       	ldi	r24, 0x01	; 1
    328a:	90 e0       	ldi	r25, 0x00	; 0
    328c:	80 93 76 39 	sts	0x3976, r24	; 0x803976 <reactStr+0x82>
    3290:	90 93 77 39 	sts	0x3977, r25	; 0x803977 <reactStr+0x83>
                for (uint8_t x=0; x<2; ++x) {
                    if (inventory[x]) {
                        if (CheckLetter(inventory[x], data[1])) {
                            PopulateObject(inventory[x], &actObj1);
                            SetResponse(elements++, A_DROPPING, L_DROPPING, TEASER);
                            SetResponse(elements++, actObj1.addrStr[NAME], actObj1.lenStr[NAME], GAME);
    3294:	20 91 cf 38 	lds	r18, 0x38CF	; 0x8038cf <actObj1.3989+0x1a>
    3298:	30 91 d0 38 	lds	r19, 0x38D0	; 0x8038d0 <actObj1.3989+0x1b>
    return 0;
}

//
void SetResponse(uint8_t number, uint16_t address, uint16_t length, uint8_t type){
    reactStr[0][number]=address;
    329c:	40 91 c1 38 	lds	r20, 0x38C1	; 0x8038c1 <actObj1.3989+0xc>
    32a0:	50 91 c2 38 	lds	r21, 0x38C2	; 0x8038c2 <actObj1.3989+0xd>
    32a4:	40 93 f8 38 	sts	0x38F8, r20	; 0x8038f8 <reactStr+0x4>
    32a8:	50 93 f9 38 	sts	0x38F9, r21	; 0x8038f9 <reactStr+0x5>
    reactStr[1][number]=length;
    32ac:	20 93 38 39 	sts	0x3938, r18	; 0x803938 <reactStr+0x44>
    32b0:	30 93 39 39 	sts	0x3939, r19	; 0x803939 <reactStr+0x45>
    reactStr[2][number]=type;
    32b4:	10 92 78 39 	sts	0x3978, r1	; 0x803978 <reactStr+0x84>
    32b8:	10 92 79 39 	sts	0x3979, r1	; 0x803979 <reactStr+0x85>
    return 0;
}

//
void SetResponse(uint8_t number, uint16_t address, uint16_t length, uint8_t type){
    reactStr[0][number]=address;
    32bc:	2b e5       	ldi	r18, 0x5B	; 91
    32be:	3a e7       	ldi	r19, 0x7A	; 122
    32c0:	20 93 fa 38 	sts	0x38FA, r18	; 0x8038fa <reactStr+0x6>
    32c4:	30 93 fb 38 	sts	0x38FB, r19	; 0x8038fb <reactStr+0x7>
    reactStr[1][number]=length;
    32c8:	22 e0       	ldi	r18, 0x02	; 2
    32ca:	30 e0       	ldi	r19, 0x00	; 0
    32cc:	20 93 3a 39 	sts	0x393A, r18	; 0x80393a <reactStr+0x46>
    32d0:	30 93 3b 39 	sts	0x393B, r19	; 0x80393b <reactStr+0x47>
    reactStr[2][number]=type;
    32d4:	80 93 7a 39 	sts	0x397A, r24	; 0x80397a <reactStr+0x86>
    32d8:	90 93 7b 39 	sts	0x397B, r25	; 0x80397b <reactStr+0x87>
    return 0;
}

//
void SetResponse(uint8_t number, uint16_t address, uint16_t length, uint8_t type){
    reactStr[0][number]=address;
    32dc:	27 e9       	ldi	r18, 0x97	; 151
    32de:	37 e7       	ldi	r19, 0x77	; 119
    32e0:	20 93 fc 38 	sts	0x38FC, r18	; 0x8038fc <reactStr+0x8>
    32e4:	30 93 fd 38 	sts	0x38FD, r19	; 0x8038fd <reactStr+0x9>
    reactStr[1][number]=length;
    32e8:	2d e3       	ldi	r18, 0x3D	; 61
    32ea:	30 e0       	ldi	r19, 0x00	; 0
    32ec:	20 93 3c 39 	sts	0x393C, r18	; 0x80393c <reactStr+0x48>
    32f0:	30 93 3d 39 	sts	0x393D, r19	; 0x80393d <reactStr+0x49>
    reactStr[2][number]=type;
    32f4:	80 93 7c 39 	sts	0x397C, r24	; 0x80397c <reactStr+0x88>
    32f8:	90 93 7d 39 	sts	0x397D, r25	; 0x80397d <reactStr+0x89>
                            PopulateObject(inventory[x], &actObj1);
                            SetResponse(elements++, A_DROPPING, L_DROPPING, TEASER);
                            SetResponse(elements++, actObj1.addrStr[NAME], actObj1.lenStr[NAME], GAME);
                            SetResponse(elements++, A_LF, 2, TEASER);
                            SetResponse(elements++, A_RETURNING, L_RETURNING, TEASER);
                            inventory[x] = 0;
    32fc:	f7 01       	movw	r30, r14
    32fe:	10 82       	st	Z, r1
    3300:	11 82       	std	Z+1, r1	; 0x01
                        if (CheckLetter(inventory[x], data[1])) {
                            PopulateObject(inventory[x], &actObj1);
                            SetResponse(elements++, A_DROPPING, L_DROPPING, TEASER);
                            SetResponse(elements++, actObj1.addrStr[NAME], actObj1.lenStr[NAME], GAME);
                            SetResponse(elements++, A_LF, 2, TEASER);
                            SetResponse(elements++, A_RETURNING, L_RETURNING, TEASER);
    3302:	f5 e0       	ldi	r31, 0x05	; 5
    3304:	7f 2e       	mov	r7, r31
                            inventory[x] = 0;
                            break;
    3306:	65 cf       	rjmp	.-310    	; 0x31d2 <ProcessInput+0xfc0>
                SetResponse(elements++, A_EMPTYHANDS, L_EMPTYHANDS, TEASER);
            } else if (inputLen != 2) {
                SetResponse(elements++, A_NOTPOSSIBLE, L_NOTPOSSIBLE, TEASER);
            } else {
                for (uint8_t x=0; x<2; ++x) {
                    if (inventory[x]) {
    3308:	80 91 33 38 	lds	r24, 0x3833	; 0x803833 <inventory+0x2>
    330c:	90 91 34 38 	lds	r25, 0x3834	; 0x803834 <inventory+0x3>
    3310:	00 97       	sbiw	r24, 0x00	; 0
    3312:	49 f0       	breq	.+18     	; 0x3326 <ProcessInput+0x1114>
                        if (CheckLetter(inventory[x], data[1])) {
    3314:	f8 01       	movw	r30, r16
    3316:	61 81       	ldd	r22, Z+1	; 0x01
    3318:	0e 94 d7 0c 	call	0x19ae	; 0x19ae <CheckLetter>
    331c:	88 23       	and	r24, r24
    331e:	19 f0       	breq	.+6      	; 0x3326 <ProcessInput+0x1114>
                SetResponse(elements++, A_EMPTYHANDS, L_EMPTYHANDS, TEASER);
            } else if (inputLen != 2) {
                SetResponse(elements++, A_NOTPOSSIBLE, L_NOTPOSSIBLE, TEASER);
            } else {
                for (uint8_t x=0; x<2; ++x) {
                    if (inventory[x]) {
    3320:	81 e0       	ldi	r24, 0x01	; 1
    3322:	90 e0       	ldi	r25, 0x00	; 0
    3324:	98 cf       	rjmp	.-208    	; 0x3256 <ProcessInput+0x1044>
    return 0;
}

//
void SetResponse(uint8_t number, uint16_t address, uint16_t length, uint8_t type){
    reactStr[0][number]=address;
    3326:	84 e6       	ldi	r24, 0x64	; 100
    3328:	99 e7       	ldi	r25, 0x79	; 121
    332a:	80 93 f6 38 	sts	0x38F6, r24	; 0x8038f6 <reactStr+0x2>
    332e:	90 93 f7 38 	sts	0x38F7, r25	; 0x8038f7 <reactStr+0x3>
    reactStr[1][number]=length;
    3332:	81 e2       	ldi	r24, 0x21	; 33
    3334:	90 e0       	ldi	r25, 0x00	; 0
    3336:	32 c8       	rjmp	.-3996   	; 0x239c <ProcessInput+0x18a>
    } else {
        SetResponse(0, A_LF, 2, TEASER);
        responseList = SetStandardResponse(1);
    }

    data[0] = 0;
    3338:	d8 01       	movw	r26, r16
    333a:	1c 92       	st	X, r1
    serRxDone = 0;
    333c:	10 92 37 38 	sts	0x3837, r1	; 0x803837 <serRxDone>
    RXCNT = 0;    
    3340:	1d ba       	out	0x1d, r1	; 29
    return 0;
}
    3342:	80 e0       	ldi	r24, 0x00	; 0
    3344:	2a 96       	adiw	r28, 0x0a	; 10
    3346:	cd bf       	out	0x3d, r28	; 61
    3348:	de bf       	out	0x3e, r29	; 62
    334a:	df 91       	pop	r29
    334c:	cf 91       	pop	r28
    334e:	1f 91       	pop	r17
    3350:	0f 91       	pop	r16
    3352:	ff 90       	pop	r15
    3354:	ef 90       	pop	r14
    3356:	df 90       	pop	r13
    3358:	cf 90       	pop	r12
    335a:	bf 90       	pop	r11
    335c:	af 90       	pop	r10
    335e:	9f 90       	pop	r9
    3360:	8f 90       	pop	r8
    3362:	7f 90       	pop	r7
    3364:	6f 90       	pop	r6
    3366:	5f 90       	pop	r5
    3368:	4f 90       	pop	r4
    336a:	08 95       	ret

0000336c <TextAdventure>:


//MAIN GAME STRUCTURE
uint8_t TextAdventure(){
    336c:	cf 93       	push	r28
    static uint8_t serInput[RXLEN];
    
    //Still sending data to serial?
    if (CheckSend()) return 1;
    336e:	0e 94 b6 0d 	call	0x1b6c	; 0x1b6c <CheckSend>
    3372:	88 23       	and	r24, r24
    3374:	11 f0       	breq	.+4      	; 0x337a <TextAdventure+0xe>
    3376:	c1 e0       	ldi	r28, 0x01	; 1
    3378:	11 c0       	rjmp	.+34     	; 0x339c <TextAdventure+0x30>

    //Not sending? Process next response part to send, if any.
    if (CheckResponse()) return 1;        
    337a:	0e 94 23 0e 	call	0x1c46	; 0x1c46 <CheckResponse>
    337e:	81 11       	cpse	r24, r1
    3380:	fa cf       	rjmp	.-12     	; 0x3376 <TextAdventure+0xa>

    //No responses to send, check if there is user input.
    if (CheckInput(&serInput[0])) return 2; 
    3382:	89 e4       	ldi	r24, 0x49	; 73
    3384:	98 e3       	ldi	r25, 0x38	; 56
    3386:	0e 94 6a 0e 	call	0x1cd4	; 0x1cd4 <CheckInput>
    338a:	c8 2f       	mov	r28, r24
    338c:	81 11       	cpse	r24, r1
    338e:	05 c0       	rjmp	.+10     	; 0x339a <TextAdventure+0x2e>

    //Input found, process and save (changes only)
    ProcessInput(&serInput[0]);
    3390:	89 e4       	ldi	r24, 0x49	; 73
    3392:	98 e3       	ldi	r25, 0x38	; 56
    3394:	0e 94 09 11 	call	0x2212	; 0x2212 <ProcessInput>

    return 0;
    3398:	01 c0       	rjmp	.+2      	; 0x339c <TextAdventure+0x30>

    //Not sending? Process next response part to send, if any.
    if (CheckResponse()) return 1;        

    //No responses to send, check if there is user input.
    if (CheckInput(&serInput[0])) return 2; 
    339a:	c2 e0       	ldi	r28, 0x02	; 2

    //Input found, process and save (changes only)
    ProcessInput(&serInput[0]);

    return 0;
    339c:	8c 2f       	mov	r24, r28
    339e:	cf 91       	pop	r28
    33a0:	08 95       	ret

000033a2 <main>:


//This is where it begins, inits first and main program in while(1) loop.
int main(void)
{
    Setup();
    33a2:	0e 94 df 03 	call	0x7be	; 0x7be <Setup>

    SerSpeed(0xff);
    33a6:	8f ef       	ldi	r24, 0xFF	; 255
    33a8:	0e 94 4c 07 	call	0xe98	; 0xe98 <SerSpeed>
    33ac:	ac ea       	ldi	r26, 0xAC	; 172
    33ae:	b5 eb       	ldi	r27, 0xB5	; 181
    ////Turn on LEDs on low setting to check for interrupt glitches

    //"Hacker"
    for (uint8_t n=0; n<6; n++){
        iLED[HCKR[R][n]] = 1;
    33b0:	81 e0       	ldi	r24, 0x01	; 1
    33b2:	ed 91       	ld	r30, X+
    33b4:	f0 e0       	ldi	r31, 0x00	; 0
    33b6:	e5 54       	subi	r30, 0x45	; 69
    33b8:	f5 4c       	sbci	r31, 0xC5	; 197
    33ba:	80 83       	st	Z, r24
        iLED[HCKR[G][n]] = 1;
    33bc:	15 96       	adiw	r26, 0x05	; 5
    33be:	ec 91       	ld	r30, X
    33c0:	15 97       	sbiw	r26, 0x05	; 5
    33c2:	f0 e0       	ldi	r31, 0x00	; 0
    33c4:	e5 54       	subi	r30, 0x45	; 69
    33c6:	f5 4c       	sbci	r31, 0xC5	; 197
    33c8:	80 83       	st	Z, r24

    SerSpeed(0xff);
    ////Turn on LEDs on low setting to check for interrupt glitches

    //"Hacker"
    for (uint8_t n=0; n<6; n++){
    33ca:	25 eb       	ldi	r18, 0xB5	; 181
    33cc:	a2 3b       	cpi	r26, 0xB2	; 178
    33ce:	b2 07       	cpc	r27, r18
    33d0:	81 f7       	brne	.-32     	; 0x33b2 <main+0x10>
    33d2:	ee e9       	ldi	r30, 0x9E	; 158
    33d4:	f5 eb       	ldi	r31, 0xB5	; 181
        iLED[HCKR[G][n]] = 1;
    }

    //"Wings"
    for (uint8_t n=0; n<5; n++){
        iLED[WING[L][n]] = 1;
    33d6:	91 e0       	ldi	r25, 0x01	; 1
    33d8:	ef 01       	movw	r28, r30
    33da:	a5 81       	ldd	r26, Z+5	; 0x05
    33dc:	b0 e0       	ldi	r27, 0x00	; 0
    33de:	a5 54       	subi	r26, 0x45	; 69
    33e0:	b5 4c       	sbci	r27, 0xC5	; 197
    33e2:	81 e0       	ldi	r24, 0x01	; 1
    33e4:	9c 93       	st	X, r25
    33e6:	31 96       	adiw	r30, 0x01	; 1
        iLED[WING[R][n]] = 1;
    33e8:	a8 81       	ld	r26, Y
    33ea:	b0 e0       	ldi	r27, 0x00	; 0
    33ec:	a5 54       	subi	r26, 0x45	; 69
    33ee:	b5 4c       	sbci	r27, 0xC5	; 197
    33f0:	9c 93       	st	X, r25
        iLED[HCKR[R][n]] = 1;
        iLED[HCKR[G][n]] = 1;
    }

    //"Wings"
    for (uint8_t n=0; n<5; n++){
    33f2:	25 eb       	ldi	r18, 0xB5	; 181
    33f4:	e3 3a       	cpi	r30, 0xA3	; 163
    33f6:	f2 07       	cpc	r31, r18
    33f8:	79 f7       	brne	.-34     	; 0x33d8 <main+0x36>
        iLED[WING[L][n]] = 1;
        iLED[WING[R][n]] = 1;
    }    

    //"Others"
    iLED[EYE[G][R]] = 1;
    33fa:	e0 91 aa b5 	lds	r30, 0xB5AA	; 0x80b5aa <__bss_end+0x7a9f>
    33fe:	f0 e0       	ldi	r31, 0x00	; 0
    3400:	e5 54       	subi	r30, 0x45	; 69
    3402:	f5 4c       	sbci	r31, 0xC5	; 197
    3404:	80 83       	st	Z, r24
    iLED[EYE[G][L]] = 1;
    3406:	e0 91 ab b5 	lds	r30, 0xB5AB	; 0x80b5ab <__bss_end+0x7aa0>
    340a:	f0 e0       	ldi	r31, 0x00	; 0
    340c:	e5 54       	subi	r30, 0x45	; 69
    340e:	f5 4c       	sbci	r31, 0xC5	; 197
    3410:	80 83       	st	Z, r24
    iLED[EYE[R][R]] = 1;
    3412:	e0 91 a8 b5 	lds	r30, 0xB5A8	; 0x80b5a8 <__bss_end+0x7a9d>
    3416:	f0 e0       	ldi	r31, 0x00	; 0
    3418:	e5 54       	subi	r30, 0x45	; 69
    341a:	f5 4c       	sbci	r31, 0xC5	; 197
    341c:	80 83       	st	Z, r24
    iLED[EYE[R][L]] = 1;
    341e:	e0 91 a9 b5 	lds	r30, 0xB5A9	; 0x80b5a9 <__bss_end+0x7a9e>
    3422:	f0 e0       	ldi	r31, 0x00	; 0
    3424:	e5 54       	subi	r30, 0x45	; 69
    3426:	f5 4c       	sbci	r31, 0xC5	; 197
    3428:	80 83       	st	Z, r24
    iLED[SCARAB[R]] = 1;
    342a:	e0 91 9c b5 	lds	r30, 0xB59C	; 0x80b59c <__bss_end+0x7a91>
    342e:	f0 e0       	ldi	r31, 0x00	; 0
    3430:	e5 54       	subi	r30, 0x45	; 69
    3432:	f5 4c       	sbci	r31, 0xC5	; 197
    3434:	80 83       	st	Z, r24
    iLED[SCARAB[G]] = 1;
    3436:	e0 91 9d b5 	lds	r30, 0xB59D	; 0x80b59d <__bss_end+0x7a92>
    343a:	f0 e0       	ldi	r31, 0x00	; 0
    343c:	e5 54       	subi	r30, 0x45	; 69
    343e:	f5 4c       	sbci	r31, 0xC5	; 197
    3440:	80 83       	st	Z, r24
    iLED[BADGER] = 1;
    3442:	e0 91 9b b5 	lds	r30, 0xB59B	; 0x80b59b <__bss_end+0x7a90>
    3446:	f0 e0       	ldi	r31, 0x00	; 0
    3448:	e5 54       	subi	r30, 0x45	; 69
    344a:	f5 4c       	sbci	r31, 0xC5	; 197
    344c:	80 83       	st	Z, r24
    iLED[CAT] = 1;
    344e:	e0 91 9a b5 	lds	r30, 0xB59A	; 0x80b59a <__bss_end+0x7a8f>
    3452:	f0 e0       	ldi	r31, 0x00	; 0
    3454:	e5 54       	subi	r30, 0x45	; 69
    3456:	f5 4c       	sbci	r31, 0xC5	; 197
    3458:	80 83       	st	Z, r24

    LoadGameState();
    345a:	0e 94 4c 09 	call	0x1298	; 0x1298 <LoadGameState>

    while (TRUE) {
        if (GenerateAudio()) {
    345e:	0e 94 1a 0a 	call	0x1434	; 0x1434 <GenerateAudio>
    3462:	88 23       	and	r24, r24
    3464:	e1 f3       	breq	.-8      	; 0x345e <main+0xbc>
            buttonState = CheckButtons(buttonState);
    3466:	80 91 07 38 	lds	r24, 0x3807	; 0x803807 <buttonState>
    346a:	0e 94 7b 07 	call	0xef6	; 0xef6 <CheckButtons>
    346e:	80 93 07 38 	sts	0x3807, r24	; 0x803807 <buttonState>
            buttonMark = 0;
    3472:	10 92 35 38 	sts	0x3835, r1	; 0x803835 <buttonMark>
            SelectTSens();
    3476:	0e 94 5d 07 	call	0xeba	; 0xeba <SelectTSens>

            GenerateBlinks();           
    347a:	0e 94 de 09 	call	0x13bc	; 0x13bc <GenerateBlinks>
            
            //Main game, to complete: Finish sub-game MagnetMaze and MakeFriends too.
            TextAdventure();
    347e:	76 df       	rcall	.-276    	; 0x336c <TextAdventure>
          
            //Other games & user interaction checks
            MagnetMaze();
    3480:	0e 94 97 02 	call	0x52e	; 0x52e <MagnetMaze>
            BastetDictates();
    3484:	0e 94 f0 0a 	call	0x15e0	; 0x15e0 <BastetDictates>
            LanyardCode();
    3488:	0e 94 9f 01 	call	0x33e	; 0x33e <LanyardCode>
            //MakeFriends();

            //Save progress
            SaveGameState(); 
    348c:	0e 94 5a 08 	call	0x10b4	; 0x10b4 <SaveGameState>
            
            //Check light sensor status (added hysteresis to preserve writing cycles to internal EEPROM)
            if (adcPhot < 10) WriteStatusBit(116, 1);
    3490:	80 91 96 3a 	lds	r24, 0x3A96	; 0x803a96 <adcPhot>
    3494:	90 91 97 3a 	lds	r25, 0x3A97	; 0x803a97 <adcPhot+0x1>
    3498:	0a 97       	sbiw	r24, 0x0a	; 10
    349a:	20 f4       	brcc	.+8      	; 0x34a4 <main+0x102>
    349c:	61 e0       	ldi	r22, 0x01	; 1
    349e:	84 e7       	ldi	r24, 0x74	; 116
    34a0:	0e 94 e1 08 	call	0x11c2	; 0x11c2 <WriteStatusBit>
            if (adcPhot > 100) WriteStatusBit(116, 0);
    34a4:	80 91 96 3a 	lds	r24, 0x3A96	; 0x803a96 <adcPhot>
    34a8:	90 91 97 3a 	lds	r25, 0x3A97	; 0x803a97 <adcPhot+0x1>
    34ac:	85 36       	cpi	r24, 0x65	; 101
    34ae:	91 05       	cpc	r25, r1
    34b0:	20 f0       	brcs	.+8      	; 0x34ba <main+0x118>
    34b2:	60 e0       	ldi	r22, 0x00	; 0
    34b4:	84 e7       	ldi	r24, 0x74	; 116
    34b6:	0e 94 e1 08 	call	0x11c2	; 0x11c2 <WriteStatusBit>

            //Check temperature 
            HotSummer();
    34ba:	0e 94 79 09 	call	0x12f2	; 0x12f2 <HotSummer>

            SelectAuIn();
    34be:	0e 94 6c 07 	call	0xed8	; 0xed8 <SelectAuIn>
    34c2:	cd cf       	rjmp	.-102    	; 0x345e <main+0xbc>

000034c4 <__udivmodqi4>:
    34c4:	99 1b       	sub	r25, r25
    34c6:	79 e0       	ldi	r23, 0x09	; 9
    34c8:	04 c0       	rjmp	.+8      	; 0x34d2 <__udivmodqi4_ep>

000034ca <__udivmodqi4_loop>:
    34ca:	99 1f       	adc	r25, r25
    34cc:	96 17       	cp	r25, r22
    34ce:	08 f0       	brcs	.+2      	; 0x34d2 <__udivmodqi4_ep>
    34d0:	96 1b       	sub	r25, r22

000034d2 <__udivmodqi4_ep>:
    34d2:	88 1f       	adc	r24, r24
    34d4:	7a 95       	dec	r23
    34d6:	c9 f7       	brne	.-14     	; 0x34ca <__udivmodqi4_loop>
    34d8:	80 95       	com	r24
    34da:	08 95       	ret

000034dc <__udivmodhi4>:
    34dc:	aa 1b       	sub	r26, r26
    34de:	bb 1b       	sub	r27, r27
    34e0:	51 e1       	ldi	r21, 0x11	; 17
    34e2:	07 c0       	rjmp	.+14     	; 0x34f2 <__udivmodhi4_ep>

000034e4 <__udivmodhi4_loop>:
    34e4:	aa 1f       	adc	r26, r26
    34e6:	bb 1f       	adc	r27, r27
    34e8:	a6 17       	cp	r26, r22
    34ea:	b7 07       	cpc	r27, r23
    34ec:	10 f0       	brcs	.+4      	; 0x34f2 <__udivmodhi4_ep>
    34ee:	a6 1b       	sub	r26, r22
    34f0:	b7 0b       	sbc	r27, r23

000034f2 <__udivmodhi4_ep>:
    34f2:	88 1f       	adc	r24, r24
    34f4:	99 1f       	adc	r25, r25
    34f6:	5a 95       	dec	r21
    34f8:	a9 f7       	brne	.-22     	; 0x34e4 <__udivmodhi4_loop>
    34fa:	80 95       	com	r24
    34fc:	90 95       	com	r25
    34fe:	bc 01       	movw	r22, r24
    3500:	cd 01       	movw	r24, r26
    3502:	08 95       	ret

00003504 <__divmodhi4>:
    3504:	97 fb       	bst	r25, 7
    3506:	07 2e       	mov	r0, r23
    3508:	16 f4       	brtc	.+4      	; 0x350e <__divmodhi4+0xa>
    350a:	00 94       	com	r0
    350c:	06 d0       	rcall	.+12     	; 0x351a <__divmodhi4_neg1>
    350e:	77 fd       	sbrc	r23, 7
    3510:	08 d0       	rcall	.+16     	; 0x3522 <__divmodhi4_neg2>
    3512:	e4 df       	rcall	.-56     	; 0x34dc <__udivmodhi4>
    3514:	07 fc       	sbrc	r0, 7
    3516:	05 d0       	rcall	.+10     	; 0x3522 <__divmodhi4_neg2>
    3518:	3e f4       	brtc	.+14     	; 0x3528 <__divmodhi4_exit>

0000351a <__divmodhi4_neg1>:
    351a:	90 95       	com	r25
    351c:	81 95       	neg	r24
    351e:	9f 4f       	sbci	r25, 0xFF	; 255
    3520:	08 95       	ret

00003522 <__divmodhi4_neg2>:
    3522:	70 95       	com	r23
    3524:	61 95       	neg	r22
    3526:	7f 4f       	sbci	r23, 0xFF	; 255

00003528 <__divmodhi4_exit>:
    3528:	08 95       	ret

0000352a <__udivmodsi4>:
    352a:	a1 e2       	ldi	r26, 0x21	; 33
    352c:	1a 2e       	mov	r1, r26
    352e:	aa 1b       	sub	r26, r26
    3530:	bb 1b       	sub	r27, r27
    3532:	fd 01       	movw	r30, r26
    3534:	0d c0       	rjmp	.+26     	; 0x3550 <__udivmodsi4_ep>

00003536 <__udivmodsi4_loop>:
    3536:	aa 1f       	adc	r26, r26
    3538:	bb 1f       	adc	r27, r27
    353a:	ee 1f       	adc	r30, r30
    353c:	ff 1f       	adc	r31, r31
    353e:	a2 17       	cp	r26, r18
    3540:	b3 07       	cpc	r27, r19
    3542:	e4 07       	cpc	r30, r20
    3544:	f5 07       	cpc	r31, r21
    3546:	20 f0       	brcs	.+8      	; 0x3550 <__udivmodsi4_ep>
    3548:	a2 1b       	sub	r26, r18
    354a:	b3 0b       	sbc	r27, r19
    354c:	e4 0b       	sbc	r30, r20
    354e:	f5 0b       	sbc	r31, r21

00003550 <__udivmodsi4_ep>:
    3550:	66 1f       	adc	r22, r22
    3552:	77 1f       	adc	r23, r23
    3554:	88 1f       	adc	r24, r24
    3556:	99 1f       	adc	r25, r25
    3558:	1a 94       	dec	r1
    355a:	69 f7       	brne	.-38     	; 0x3536 <__udivmodsi4_loop>
    355c:	60 95       	com	r22
    355e:	70 95       	com	r23
    3560:	80 95       	com	r24
    3562:	90 95       	com	r25
    3564:	9b 01       	movw	r18, r22
    3566:	ac 01       	movw	r20, r24
    3568:	bd 01       	movw	r22, r26
    356a:	cf 01       	movw	r24, r30
    356c:	08 95       	ret

0000356e <_exit>:
    356e:	f8 94       	cli

00003570 <__stop_program>:
    3570:	ff cf       	rjmp	.-2      	; 0x3570 <__stop_program>
