
ISR_IO.elf:     file format elf32-avr

Sections:
Idx Name          Size      VMA       LMA       File off  Algn
  0 .data         00000090  00803800  00001e90  00001f44  2**0
                  CONTENTS, ALLOC, LOAD, DATA
  1 .text         00001e52  00000000  00000000  000000b4  2**1
                  CONTENTS, ALLOC, LOAD, READONLY, CODE
  2 .rodata       0000003e  00009e52  00001e52  00001f06  2**0
                  CONTENTS, ALLOC, LOAD, READONLY, DATA
  3 .bss          00000280  00803890  00803890  00001fd4  2**0
                  ALLOC
  4 .comment      00000030  00000000  00000000  00001fd4  2**0
                  CONTENTS, READONLY
  5 .note.gnu.avr.deviceinfo 00000040  00000000  00000000  00002004  2**2
                  CONTENTS, READONLY
  6 .debug_aranges 00000258  00000000  00000000  00002044  2**0
                  CONTENTS, READONLY, DEBUGGING
  7 .debug_info   00004707  00000000  00000000  0000229c  2**0
                  CONTENTS, READONLY, DEBUGGING
  8 .debug_abbrev 0000232e  00000000  00000000  000069a3  2**0
                  CONTENTS, READONLY, DEBUGGING
  9 .debug_line   00001fa3  00000000  00000000  00008cd1  2**0
                  CONTENTS, READONLY, DEBUGGING
 10 .debug_frame  000007a8  00000000  00000000  0000ac74  2**2
                  CONTENTS, READONLY, DEBUGGING
 11 .debug_str    000016fa  00000000  00000000  0000b41c  2**0
                  CONTENTS, READONLY, DEBUGGING
 12 .debug_loc    000029de  00000000  00000000  0000cb16  2**0
                  CONTENTS, READONLY, DEBUGGING
 13 .debug_ranges 00000268  00000000  00000000  0000f4f4  2**0
                  CONTENTS, READONLY, DEBUGGING

Disassembly of section .text:

00000000 <__vectors>:
       0:	3d c0       	rjmp	.+122    	; 0x7c <__ctors_end>
       2:	00 00       	nop
       4:	58 c0       	rjmp	.+176    	; 0xb6 <__bad_interrupt>
       6:	00 00       	nop
       8:	56 c0       	rjmp	.+172    	; 0xb6 <__bad_interrupt>
       a:	00 00       	nop
       c:	54 c0       	rjmp	.+168    	; 0xb6 <__bad_interrupt>
       e:	00 00       	nop
      10:	52 c0       	rjmp	.+164    	; 0xb6 <__bad_interrupt>
      12:	00 00       	nop
      14:	50 c0       	rjmp	.+160    	; 0xb6 <__bad_interrupt>
      16:	00 00       	nop
      18:	5b c4       	rjmp	.+2230   	; 0x8d0 <__vector_6>
      1a:	00 00       	nop
      1c:	ae c4       	rjmp	.+2396   	; 0x97a <__vector_7>
      1e:	00 00       	nop
      20:	af c2       	rjmp	.+1374   	; 0x580 <__vector_8>
      22:	00 00       	nop
      24:	48 c0       	rjmp	.+144    	; 0xb6 <__bad_interrupt>
      26:	00 00       	nop
      28:	46 c0       	rjmp	.+140    	; 0xb6 <__bad_interrupt>
      2a:	00 00       	nop
      2c:	44 c0       	rjmp	.+136    	; 0xb6 <__bad_interrupt>
      2e:	00 00       	nop
      30:	42 c0       	rjmp	.+132    	; 0xb6 <__bad_interrupt>
      32:	00 00       	nop
      34:	f9 c2       	rjmp	.+1522   	; 0x628 <__vector_13>
      36:	00 00       	nop
      38:	2a c3       	rjmp	.+1620   	; 0x68e <__vector_14>
      3a:	00 00       	nop
      3c:	3c c0       	rjmp	.+120    	; 0xb6 <__bad_interrupt>
      3e:	00 00       	nop
      40:	3a c0       	rjmp	.+116    	; 0xb6 <__bad_interrupt>
      42:	00 00       	nop
      44:	38 c0       	rjmp	.+112    	; 0xb6 <__bad_interrupt>
      46:	00 00       	nop
      48:	36 c0       	rjmp	.+108    	; 0xb6 <__bad_interrupt>
      4a:	00 00       	nop
      4c:	34 c0       	rjmp	.+104    	; 0xb6 <__bad_interrupt>
      4e:	00 00       	nop
      50:	c1 c3       	rjmp	.+1922   	; 0x7d4 <__vector_20>
      52:	00 00       	nop
      54:	30 c0       	rjmp	.+96     	; 0xb6 <__bad_interrupt>
      56:	00 00       	nop
      58:	eb c3       	rjmp	.+2006   	; 0x830 <__vector_22>
      5a:	00 00       	nop
      5c:	2c c0       	rjmp	.+88     	; 0xb6 <__bad_interrupt>
      5e:	00 00       	nop
      60:	2a c0       	rjmp	.+84     	; 0xb6 <__bad_interrupt>
      62:	00 00       	nop
      64:	28 c0       	rjmp	.+80     	; 0xb6 <__bad_interrupt>
      66:	00 00       	nop
      68:	26 c0       	rjmp	.+76     	; 0xb6 <__bad_interrupt>
      6a:	00 00       	nop
      6c:	63 c3       	rjmp	.+1734   	; 0x734 <__vector_27>
      6e:	00 00       	nop
      70:	95 c3       	rjmp	.+1834   	; 0x79c <__vector_28>
      72:	00 00       	nop
      74:	20 c0       	rjmp	.+64     	; 0xb6 <__bad_interrupt>
      76:	00 00       	nop
      78:	1e c0       	rjmp	.+60     	; 0xb6 <__bad_interrupt>
	...

0000007c <__ctors_end>:
      7c:	11 24       	eor	r1, r1
      7e:	1f be       	out	0x3f, r1	; 63
      80:	cf ef       	ldi	r28, 0xFF	; 255
      82:	cd bf       	out	0x3d, r28	; 61
      84:	df e3       	ldi	r29, 0x3F	; 63
      86:	de bf       	out	0x3e, r29	; 62

00000088 <__do_copy_data>:
      88:	18 e3       	ldi	r17, 0x38	; 56
      8a:	a0 e0       	ldi	r26, 0x00	; 0
      8c:	b8 e3       	ldi	r27, 0x38	; 56
      8e:	e0 e9       	ldi	r30, 0x90	; 144
      90:	fe e1       	ldi	r31, 0x1E	; 30
      92:	02 c0       	rjmp	.+4      	; 0x98 <__do_copy_data+0x10>
      94:	05 90       	lpm	r0, Z+
      96:	0d 92       	st	X+, r0
      98:	a0 39       	cpi	r26, 0x90	; 144
      9a:	b1 07       	cpc	r27, r17
      9c:	d9 f7       	brne	.-10     	; 0x94 <__do_copy_data+0xc>

0000009e <__do_clear_bss>:
      9e:	2b e3       	ldi	r18, 0x3B	; 59
      a0:	a0 e9       	ldi	r26, 0x90	; 144
      a2:	b8 e3       	ldi	r27, 0x38	; 56
      a4:	01 c0       	rjmp	.+2      	; 0xa8 <.do_clear_bss_start>

000000a6 <.do_clear_bss_loop>:
      a6:	1d 92       	st	X+, r1

000000a8 <.do_clear_bss_start>:
      a8:	a0 31       	cpi	r26, 0x10	; 16
      aa:	b2 07       	cpc	r27, r18
      ac:	e1 f7       	brne	.-8      	; 0xa6 <.do_clear_bss_loop>
      ae:	0e 94 7c 0e 	call	0x1cf8	; 0x1cf8 <main>
      b2:	0c 94 27 0f 	jmp	0x1e4e	; 0x1e4e <_exit>

000000b6 <__bad_interrupt>:
      b6:	a4 cf       	rjmp	.-184    	; 0x0 <__vectors>

000000b8 <I2C_init>:
// the Atmel device documentation mentions a special command for repeated start TWI_MCMD_REPSTART_gc,
// but this is not used in Atmel's demo code, so we don't use it either

void I2C_rep_start(uint8_t shifted_addr)						    // send repeated start, device_addr + LSB set if READ
{
	TWI0.MADDR = shifted_addr;	
      b8:	81 e0       	ldi	r24, 0x01	; 1
      ba:	80 93 22 04 	sts	0x0422, r24	; 0x800422 <__TEXT_REGION_LENGTH__+0x700422>
      be:	e6 e2       	ldi	r30, 0x26	; 38
      c0:	f4 e0       	ldi	r31, 0x04	; 4
      c2:	80 83       	st	Z, r24
      c4:	10 92 30 04 	sts	0x0430, r1	; 0x800430 <__TEXT_REGION_LENGTH__+0x700430>
      c8:	a1 e2       	ldi	r26, 0x21	; 33
      ca:	b4 e0       	ldi	r27, 0x04	; 4
      cc:	92 e0       	ldi	r25, 0x02	; 2
      ce:	9c 93       	st	X, r25
      d0:	90 83       	st	Z, r25
      d2:	10 92 31 04 	sts	0x0431, r1	; 0x800431 <__TEXT_REGION_LENGTH__+0x700431>
      d6:	e0 e1       	ldi	r30, 0x10	; 16
      d8:	f8 e0       	ldi	r31, 0x08	; 8
      da:	9d e2       	ldi	r25, 0x2D	; 45
      dc:	96 83       	std	Z+6, r25	; 0x06
      de:	98 e0       	ldi	r25, 0x08	; 8
      e0:	94 83       	std	Z+4, r25	; 0x04
      e2:	83 83       	std	Z+3, r24	; 0x03
      e4:	8c 93       	st	X, r24
      e6:	85 81       	ldd	r24, Z+5	; 0x05
      e8:	81 60       	ori	r24, 0x01	; 1
      ea:	85 83       	std	Z+5, r24	; 0x05
      ec:	85 81       	ldd	r24, Z+5	; 0x05
      ee:	84 6c       	ori	r24, 0xC4	; 196
      f0:	85 83       	std	Z+5, r24	; 0x05
      f2:	08 95       	ret

000000f4 <I2C_recover>:
      f4:	e0 e1       	ldi	r30, 0x10	; 16
      f6:	f8 e0       	ldi	r31, 0x08	; 8
      f8:	84 81       	ldd	r24, Z+4	; 0x04
      fa:	88 60       	ori	r24, 0x08	; 8
      fc:	84 83       	std	Z+4, r24	; 0x04
      fe:	13 82       	std	Z+3, r1	; 0x03
     100:	82 e0       	ldi	r24, 0x02	; 2
     102:	80 93 22 04 	sts	0x0422, r24	; 0x800422 <__TEXT_REGION_LENGTH__+0x700422>
     106:	89 e0       	ldi	r24, 0x09	; 9
     108:	a1 e2       	ldi	r26, 0x21	; 33
     10a:	b4 e0       	ldi	r27, 0x04	; 4
     10c:	91 e0       	ldi	r25, 0x01	; 1
     10e:	e2 e2       	ldi	r30, 0x22	; 34
     110:	f4 e0       	ldi	r31, 0x04	; 4
     112:	9c 93       	st	X, r25
     114:	20 e1       	ldi	r18, 0x10	; 16
     116:	2a 95       	dec	r18
     118:	f1 f7       	brne	.-4      	; 0x116 <I2C_recover+0x22>
     11a:	00 c0       	rjmp	.+0      	; 0x11c <I2C_recover+0x28>
     11c:	90 83       	st	Z, r25
     11e:	20 e1       	ldi	r18, 0x10	; 16
     120:	2a 95       	dec	r18
     122:	f1 f7       	brne	.-4      	; 0x120 <I2C_recover+0x2c>
     124:	00 c0       	rjmp	.+0      	; 0x126 <I2C_recover+0x32>
     126:	81 50       	subi	r24, 0x01	; 1
     128:	a1 f7       	brne	.-24     	; 0x112 <I2C_recover+0x1e>
     12a:	e0 e1       	ldi	r30, 0x10	; 16
     12c:	f8 e0       	ldi	r31, 0x08	; 8
     12e:	28 e0       	ldi	r18, 0x08	; 8
     130:	24 83       	std	Z+4, r18	; 0x04
     132:	81 e0       	ldi	r24, 0x01	; 1
     134:	83 83       	std	Z+3, r24	; 0x03
     136:	a1 e2       	ldi	r26, 0x21	; 33
     138:	b4 e0       	ldi	r27, 0x04	; 4
     13a:	92 e0       	ldi	r25, 0x02	; 2
     13c:	9c 93       	st	X, r25
     13e:	95 81       	ldd	r25, Z+5	; 0x05
     140:	91 60       	ori	r25, 0x01	; 1
     142:	95 83       	std	Z+5, r25	; 0x05
     144:	95 81       	ldd	r25, Z+5	; 0x05
     146:	94 6c       	ori	r25, 0xC4	; 196
     148:	95 83       	std	Z+5, r25	; 0x05
     14a:	24 83       	std	Z+4, r18	; 0x04
     14c:	83 83       	std	Z+3, r24	; 0x03
     14e:	8c 93       	st	X, r24
     150:	85 81       	ldd	r24, Z+5	; 0x05
     152:	81 60       	ori	r24, 0x01	; 1
     154:	85 83       	std	Z+5, r24	; 0x05
     156:	85 81       	ldd	r24, Z+5	; 0x05
     158:	84 6c       	ori	r24, 0xC4	; 196
     15a:	85 83       	std	Z+5, r24	; 0x05
     15c:	08 95       	ret

0000015e <I2C_start>:
     15e:	28 2f       	mov	r18, r24
     160:	e0 e1       	ldi	r30, 0x10	; 16
     162:	f8 e0       	ldi	r31, 0x08	; 8
     164:	95 81       	ldd	r25, Z+5	; 0x05
     166:	90 6c       	ori	r25, 0xC0	; 192
     168:	95 83       	std	Z+5, r25	; 0x05
     16a:	95 81       	ldd	r25, Z+5	; 0x05
     16c:	89 2f       	mov	r24, r25
     16e:	84 70       	andi	r24, 0x04	; 4
     170:	92 fd       	sbrc	r25, 2
     172:	03 c0       	rjmp	.+6      	; 0x17a <I2C_start+0x1c>
     174:	20 93 17 08 	sts	0x0817, r18	; 0x800817 <__TEXT_REGION_LENGTH__+0x700817>
     178:	08 95       	ret
     17a:	84 e0       	ldi	r24, 0x04	; 4
     17c:	08 95       	ret

0000017e <I2C_wait_ACK>:
     17e:	8c e0       	ldi	r24, 0x0C	; 12
     180:	80 93 47 3a 	sts	0x3A47, r24	; 0x803a47 <timeout_I2C>
     184:	e0 e1       	ldi	r30, 0x10	; 16
     186:	f8 e0       	ldi	r31, 0x08	; 8
     188:	04 c0       	rjmp	.+8      	; 0x192 <I2C_wait_ACK+0x14>
     18a:	80 91 47 3a 	lds	r24, 0x3A47	; 0x803a47 <timeout_I2C>
     18e:	88 23       	and	r24, r24
     190:	b9 f0       	breq	.+46     	; 0x1c0 <I2C_wait_ACK+0x42>
     192:	85 81       	ldd	r24, Z+5	; 0x05
     194:	88 23       	and	r24, r24
     196:	1c f0       	brlt	.+6      	; 0x19e <I2C_wait_ACK+0x20>
     198:	85 81       	ldd	r24, Z+5	; 0x05
     19a:	86 ff       	sbrs	r24, 6
     19c:	f6 cf       	rjmp	.-20     	; 0x18a <I2C_wait_ACK+0xc>
     19e:	e0 e1       	ldi	r30, 0x10	; 16
     1a0:	f8 e0       	ldi	r31, 0x08	; 8
     1a2:	85 81       	ldd	r24, Z+5	; 0x05
     1a4:	80 6c       	ori	r24, 0xC0	; 192
     1a6:	85 83       	std	Z+5, r24	; 0x05
     1a8:	85 81       	ldd	r24, Z+5	; 0x05
     1aa:	82 fd       	sbrc	r24, 2
     1ac:	0b c0       	rjmp	.+22     	; 0x1c4 <I2C_wait_ACK+0x46>
     1ae:	80 91 15 08 	lds	r24, 0x0815	; 0x800815 <__TEXT_REGION_LENGTH__+0x700815>
     1b2:	83 fd       	sbrc	r24, 3
     1b4:	09 c0       	rjmp	.+18     	; 0x1c8 <I2C_wait_ACK+0x4a>
     1b6:	80 91 15 08 	lds	r24, 0x0815	; 0x800815 <__TEXT_REGION_LENGTH__+0x700815>
     1ba:	82 95       	swap	r24
     1bc:	81 70       	andi	r24, 0x01	; 1
     1be:	08 95       	ret
     1c0:	8f ef       	ldi	r24, 0xFF	; 255
     1c2:	08 95       	ret
     1c4:	84 e0       	ldi	r24, 0x04	; 4
     1c6:	08 95       	ret
     1c8:	82 e0       	ldi	r24, 0x02	; 2
     1ca:	08 95       	ret

000001cc <I2C_read>:
}

uint8_t	I2C_read(uint8_t *data, uint8_t ack_flag)					// read data, ack_flag 0: send ACK, 1: send NACK, returns status
{
     1cc:	dc 01       	movw	r26, r24
	timeout_I2C = READ_TIMEOUT;										// reset timeout counter, will be decremented by LED matrix interrupt
     1ce:	9c e0       	ldi	r25, 0x0C	; 12
     1d0:	90 93 47 3a 	sts	0x3A47, r25	; 0x803a47 <timeout_I2C>
	if ((TWI0.MSTATUS & TWI_BUSSTATE_gm) == TWI_BUSSTATE_OWNER_gc)	// if master controls bus
     1d4:	90 91 15 08 	lds	r25, 0x0815	; 0x800815 <__TEXT_REGION_LENGTH__+0x700815>
     1d8:	89 2f       	mov	r24, r25
     1da:	83 70       	andi	r24, 0x03	; 3
     1dc:	82 30       	cpi	r24, 0x02	; 2
     1de:	39 f0       	breq	.+14     	; 0x1ee <I2C_read+0x22>
		else		TWI0.MCTRLB |= TWI_ACKACT_NACK_gc;				// setup NACK (last byte read)
		*data = TWI0.MDATA;
		if (ack_flag == 0) TWI0.MCTRLB |= TWI_MCMD_RECVTRANS_gc;	// send ACK, more bytes to follow					
		return 0;
	}
	else return 8;													// master does not control bus
     1e0:	88 e0       	ldi	r24, 0x08	; 8
     1e2:	08 95       	ret
	timeout_I2C = READ_TIMEOUT;										// reset timeout counter, will be decremented by LED matrix interrupt
	if ((TWI0.MSTATUS & TWI_BUSSTATE_gm) == TWI_BUSSTATE_OWNER_gc)	// if master controls bus
	{		
		while (!(TWI0.MSTATUS & TWI_RIF_bm))						// wait for RIF set (data byte received)
		{
			if (!(timeout_I2C)) return 0xff;			            // return timeout error
     1e4:	90 91 47 3a 	lds	r25, 0x3A47	; 0x803a47 <timeout_I2C>
     1e8:	91 11       	cpse	r25, r1
     1ea:	03 c0       	rjmp	.+6      	; 0x1f2 <I2C_read+0x26>
     1ec:	2a c0       	rjmp	.+84     	; 0x242 <I2C_read+0x76>
uint8_t	I2C_read(uint8_t *data, uint8_t ack_flag)					// read data, ack_flag 0: send ACK, 1: send NACK, returns status
{
	timeout_I2C = READ_TIMEOUT;										// reset timeout counter, will be decremented by LED matrix interrupt
	if ((TWI0.MSTATUS & TWI_BUSSTATE_gm) == TWI_BUSSTATE_OWNER_gc)	// if master controls bus
	{		
		while (!(TWI0.MSTATUS & TWI_RIF_bm))						// wait for RIF set (data byte received)
     1ee:	e0 e1       	ldi	r30, 0x10	; 16
     1f0:	f8 e0       	ldi	r31, 0x08	; 8
     1f2:	95 81       	ldd	r25, Z+5	; 0x05
     1f4:	99 23       	and	r25, r25
     1f6:	b4 f7       	brge	.-20     	; 0x1e4 <I2C_read+0x18>
		{
			if (!(timeout_I2C)) return 0xff;			            // return timeout error
		}
		TWI0.MSTATUS |= (TWI_RIF_bm | TWI_WIF_bm);					// clear Read and Write interrupt flags	
     1f8:	e0 e1       	ldi	r30, 0x10	; 16
     1fa:	f8 e0       	ldi	r31, 0x08	; 8
     1fc:	95 81       	ldd	r25, Z+5	; 0x05
     1fe:	90 6c       	ori	r25, 0xC0	; 192
     200:	95 83       	std	Z+5, r25	; 0x05
		if (TWI0.MSTATUS & TWI_BUSERR_bm) return 4;					// Bus Error, abort
     202:	95 81       	ldd	r25, Z+5	; 0x05
     204:	92 fd       	sbrc	r25, 2
     206:	1f c0       	rjmp	.+62     	; 0x246 <I2C_read+0x7a>
		if (TWI0.MSTATUS & TWI_ARBLOST_bm) return 2;				// Arbitration Lost, abort
     208:	90 91 15 08 	lds	r25, 0x0815	; 0x800815 <__TEXT_REGION_LENGTH__+0x700815>
     20c:	93 fd       	sbrc	r25, 3
     20e:	1e c0       	rjmp	.+60     	; 0x24c <I2C_read+0x80>
		if (TWI0.MSTATUS & TWI_RXACK_bm) return 1;					// Slave replied with NACK, abort				
     210:	90 91 15 08 	lds	r25, 0x0815	; 0x800815 <__TEXT_REGION_LENGTH__+0x700815>
     214:	89 2f       	mov	r24, r25
     216:	80 71       	andi	r24, 0x10	; 16
     218:	94 fd       	sbrc	r25, 4
     21a:	17 c0       	rjmp	.+46     	; 0x24a <I2C_read+0x7e>
		if (ack_flag == 0) TWI0.MCTRLB &= ~(1 << TWI_ACKACT_bp);	// setup ACK
     21c:	61 11       	cpse	r22, r1
     21e:	09 c0       	rjmp	.+18     	; 0x232 <I2C_read+0x66>
     220:	94 81       	ldd	r25, Z+4	; 0x04
     222:	9b 7f       	andi	r25, 0xFB	; 251
     224:	94 83       	std	Z+4, r25	; 0x04
		else		TWI0.MCTRLB |= TWI_ACKACT_NACK_gc;				// setup NACK (last byte read)
		*data = TWI0.MDATA;
     226:	90 85       	ldd	r25, Z+8	; 0x08
     228:	9c 93       	st	X, r25
		if (ack_flag == 0) TWI0.MCTRLB |= TWI_MCMD_RECVTRANS_gc;	// send ACK, more bytes to follow					
     22a:	94 81       	ldd	r25, Z+4	; 0x04
     22c:	92 60       	ori	r25, 0x02	; 2
     22e:	94 83       	std	Z+4, r25	; 0x04
     230:	08 95       	ret
		TWI0.MSTATUS |= (TWI_RIF_bm | TWI_WIF_bm);					// clear Read and Write interrupt flags	
		if (TWI0.MSTATUS & TWI_BUSERR_bm) return 4;					// Bus Error, abort
		if (TWI0.MSTATUS & TWI_ARBLOST_bm) return 2;				// Arbitration Lost, abort
		if (TWI0.MSTATUS & TWI_RXACK_bm) return 1;					// Slave replied with NACK, abort				
		if (ack_flag == 0) TWI0.MCTRLB &= ~(1 << TWI_ACKACT_bp);	// setup ACK
		else		TWI0.MCTRLB |= TWI_ACKACT_NACK_gc;				// setup NACK (last byte read)
     232:	e0 e1       	ldi	r30, 0x10	; 16
     234:	f8 e0       	ldi	r31, 0x08	; 8
     236:	94 81       	ldd	r25, Z+4	; 0x04
     238:	94 60       	ori	r25, 0x04	; 4
     23a:	94 83       	std	Z+4, r25	; 0x04
		*data = TWI0.MDATA;
     23c:	90 85       	ldd	r25, Z+8	; 0x08
     23e:	9c 93       	st	X, r25
     240:	08 95       	ret
	timeout_I2C = READ_TIMEOUT;										// reset timeout counter, will be decremented by LED matrix interrupt
	if ((TWI0.MSTATUS & TWI_BUSSTATE_gm) == TWI_BUSSTATE_OWNER_gc)	// if master controls bus
	{		
		while (!(TWI0.MSTATUS & TWI_RIF_bm))						// wait for RIF set (data byte received)
		{
			if (!(timeout_I2C)) return 0xff;			            // return timeout error
     242:	8f ef       	ldi	r24, 0xFF	; 255
     244:	08 95       	ret
		}
		TWI0.MSTATUS |= (TWI_RIF_bm | TWI_WIF_bm);					// clear Read and Write interrupt flags	
		if (TWI0.MSTATUS & TWI_BUSERR_bm) return 4;					// Bus Error, abort
     246:	84 e0       	ldi	r24, 0x04	; 4
     248:	08 95       	ret
		if (TWI0.MSTATUS & TWI_ARBLOST_bm) return 2;				// Arbitration Lost, abort
		if (TWI0.MSTATUS & TWI_RXACK_bm) return 1;					// Slave replied with NACK, abort				
     24a:	81 e0       	ldi	r24, 0x01	; 1
		*data = TWI0.MDATA;
		if (ack_flag == 0) TWI0.MCTRLB |= TWI_MCMD_RECVTRANS_gc;	// send ACK, more bytes to follow					
		return 0;
	}
	else return 8;													// master does not control bus
}
     24c:	08 95       	ret

0000024e <I2C_write>:

uint8_t I2C_write(uint8_t *data)									// write data, return status
{
     24e:	fc 01       	movw	r30, r24
	timeout_I2C = WRITE_TIMEOUT;									// reset timeout counter, will be decremented by LED matrix interrupt
     250:	9c e0       	ldi	r25, 0x0C	; 12
     252:	90 93 47 3a 	sts	0x3A47, r25	; 0x803a47 <timeout_I2C>
	if ((TWI0.MSTATUS & TWI_BUSSTATE_gm) == TWI_BUSSTATE_OWNER_gc)	// if master controls bus
     256:	90 91 15 08 	lds	r25, 0x0815	; 0x800815 <__TEXT_REGION_LENGTH__+0x700815>
     25a:	93 70       	andi	r25, 0x03	; 3
     25c:	92 30       	cpi	r25, 0x02	; 2
     25e:	b1 f4       	brne	.+44     	; 0x28c <I2C_write+0x3e>
	{
		TWI0.MDATA = *data;		
     260:	80 81       	ld	r24, Z
     262:	80 93 18 08 	sts	0x0818, r24	; 0x800818 <__TEXT_REGION_LENGTH__+0x700818>
		while (!(TWI0.MSTATUS & TWI_WIF_bm))						// wait until WIF set, status register contains ACK/NACK bit
     266:	e0 e1       	ldi	r30, 0x10	; 16
     268:	f8 e0       	ldi	r31, 0x08	; 8
     26a:	04 c0       	rjmp	.+8      	; 0x274 <I2C_write+0x26>
		{
			if (!(timeout_I2C)) return 0xff;			            // return timeout error
     26c:	80 91 47 3a 	lds	r24, 0x3A47	; 0x803a47 <timeout_I2C>
     270:	88 23       	and	r24, r24
     272:	71 f0       	breq	.+28     	; 0x290 <I2C_write+0x42>
{
	timeout_I2C = WRITE_TIMEOUT;									// reset timeout counter, will be decremented by LED matrix interrupt
	if ((TWI0.MSTATUS & TWI_BUSSTATE_gm) == TWI_BUSSTATE_OWNER_gc)	// if master controls bus
	{
		TWI0.MDATA = *data;		
		while (!(TWI0.MSTATUS & TWI_WIF_bm))						// wait until WIF set, status register contains ACK/NACK bit
     274:	85 81       	ldd	r24, Z+5	; 0x05
     276:	86 ff       	sbrs	r24, 6
     278:	f9 cf       	rjmp	.-14     	; 0x26c <I2C_write+0x1e>
		{
			if (!(timeout_I2C)) return 0xff;			            // return timeout error
		}
		if (TWI0.MSTATUS & TWI_BUSERR_bm) return 4;					// Bus Error, abort
     27a:	80 91 15 08 	lds	r24, 0x0815	; 0x800815 <__TEXT_REGION_LENGTH__+0x700815>
     27e:	82 fd       	sbrc	r24, 2
     280:	09 c0       	rjmp	.+18     	; 0x294 <I2C_write+0x46>
		if (TWI0.MSTATUS & TWI_RXACK_bm) return 1;					// Slave replied with NACK, abort
     282:	80 91 15 08 	lds	r24, 0x0815	; 0x800815 <__TEXT_REGION_LENGTH__+0x700815>
	if ((TWI0.MSTATUS & TWI_BUSSTATE_gm) == TWI_BUSSTATE_OWNER_gc)	// if master controls bus
	{
		TWI0.MDATA = *data;		
		while (!(TWI0.MSTATUS & TWI_WIF_bm))						// wait until WIF set, status register contains ACK/NACK bit
		{
			if (!(timeout_I2C)) return 0xff;			            // return timeout error
     286:	82 95       	swap	r24
     288:	81 70       	andi	r24, 0x01	; 1
     28a:	08 95       	ret
		}
		if (TWI0.MSTATUS & TWI_BUSERR_bm) return 4;					// Bus Error, abort
		if (TWI0.MSTATUS & TWI_RXACK_bm) return 1;					// Slave replied with NACK, abort
		return 0;													// no error	
	}
	else return 8;													// master does not control bus
     28c:	88 e0       	ldi	r24, 0x08	; 8
     28e:	08 95       	ret
	if ((TWI0.MSTATUS & TWI_BUSSTATE_gm) == TWI_BUSSTATE_OWNER_gc)	// if master controls bus
	{
		TWI0.MDATA = *data;		
		while (!(TWI0.MSTATUS & TWI_WIF_bm))						// wait until WIF set, status register contains ACK/NACK bit
		{
			if (!(timeout_I2C)) return 0xff;			            // return timeout error
     290:	8f ef       	ldi	r24, 0xFF	; 255
     292:	08 95       	ret
		}
		if (TWI0.MSTATUS & TWI_BUSERR_bm) return 4;					// Bus Error, abort
     294:	84 e0       	ldi	r24, 0x04	; 4
		if (TWI0.MSTATUS & TWI_RXACK_bm) return 1;					// Slave replied with NACK, abort
		return 0;													// no error	
	}
	else return 8;													// master does not control bus
}
     296:	08 95       	ret

00000298 <I2C_stop>:

void I2C_stop()
{
	TWI0.MCTRLB |= TWI_MCMD_STOP_gc;
     298:	e0 e1       	ldi	r30, 0x10	; 16
     29a:	f8 e0       	ldi	r31, 0x08	; 8
     29c:	84 81       	ldd	r24, Z+4	; 0x04
     29e:	83 60       	ori	r24, 0x03	; 3
     2a0:	84 83       	std	Z+4, r24	; 0x04
     2a2:	08 95       	ret

000002a4 <I2C_read_bytes>:
// addr_ptr		address of first array element to transfer
// slave reg	starting slave register
// num_bytes	number of bytes to transfer

uint8_t	I2C_read_bytes(uint8_t slave_addr, uint8_t *reg_ptr, uint8_t reg_len, uint8_t *dat_ptr, uint8_t dat_len)
{
     2a4:	cf 92       	push	r12
     2a6:	df 92       	push	r13
     2a8:	ef 92       	push	r14
     2aa:	ff 92       	push	r15
     2ac:	0f 93       	push	r16
     2ae:	1f 93       	push	r17
     2b0:	cf 93       	push	r28
     2b2:	df 93       	push	r29
     2b4:	eb 01       	movw	r28, r22
     2b6:	c4 2e       	mov	r12, r20
     2b8:	79 01       	movw	r14, r18
	uint8_t status;
	if (dat_len > MAX_LEN) dat_len = MAX_LEN;
	status = I2C_start(slave_addr << 1);							// slave write address, LSB 0
     2ba:	18 2f       	mov	r17, r24
     2bc:	11 0f       	add	r17, r17
     2be:	81 2f       	mov	r24, r17
     2c0:	4e df       	rcall	.-356    	; 0x15e <I2C_start>
	if (status != 0) goto error;
     2c2:	81 11       	cpse	r24, r1
	status = I2C_wait_ACK();										// wait for slave ACK
     2c4:	3c c0       	rjmp	.+120    	; 0x33e <I2C_read_bytes+0x9a>
     2c6:	5b df       	rcall	.-330    	; 0x17e <I2C_wait_ACK>
	if (status == 1) {
     2c8:	81 30       	cpi	r24, 0x01	; 1
		I2C_stop();													// NACK, abort
     2ca:	19 f4       	brne	.+6      	; 0x2d2 <I2C_read_bytes+0x2e>
     2cc:	e5 df       	rcall	.-54     	; 0x298 <I2C_stop>
		return 1;
     2ce:	81 e0       	ldi	r24, 0x01	; 1
     2d0:	38 c0       	rjmp	.+112    	; 0x342 <I2C_read_bytes+0x9e>
	}
	if (status != 0) goto error;
     2d2:	81 11       	cpse	r24, r1
     2d4:	34 c0       	rjmp	.+104    	; 0x33e <I2C_read_bytes+0x9a>
    while(reg_len > 0){
     2d6:	cc 20       	and	r12, r12
     2d8:	79 f0       	breq	.+30     	; 0x2f8 <I2C_read_bytes+0x54>
     2da:	ca 94       	dec	r12
     2dc:	d1 2c       	mov	r13, r1
     2de:	8f ef       	ldi	r24, 0xFF	; 255
     2e0:	c8 1a       	sub	r12, r24
     2e2:	d8 0a       	sbc	r13, r24
     2e4:	cc 0e       	add	r12, r28
	    status = I2C_write(reg_ptr);    							// send slave start register
     2e6:	dd 1e       	adc	r13, r29
     2e8:	ce 01       	movw	r24, r28
     2ea:	b1 df       	rcall	.-158    	; 0x24e <I2C_write>
	    if (status != 0) goto error;
     2ec:	81 11       	cpse	r24, r1
     2ee:	27 c0       	rjmp	.+78     	; 0x33e <I2C_read_bytes+0x9a>
        ++reg_ptr;
     2f0:	21 96       	adiw	r28, 0x01	; 1
	if (status == 1) {
		I2C_stop();													// NACK, abort
		return 1;
	}
	if (status != 0) goto error;
    while(reg_len > 0){
     2f2:	cc 16       	cp	r12, r28
     2f4:	dd 06       	cpc	r13, r29
     2f6:	c1 f7       	brne	.-16     	; 0x2e8 <I2C_read_bytes+0x44>
     2f8:	01 34       	cpi	r16, 0x41	; 65
     2fa:	08 f0       	brcs	.+2      	; 0x2fe <I2C_read_bytes+0x5a>
     2fc:	00 e4       	ldi	r16, 0x40	; 64
	    status = I2C_write(reg_ptr);    							// send slave start register
	    if (status != 0) goto error;
        ++reg_ptr;
        --reg_len;
    }
	I2C_rep_start((slave_addr << 1) + 1);							// slave read address, LSB 1
     2fe:	1f 5f       	subi	r17, 0xFF	; 255
// the Atmel device documentation mentions a special command for repeated start TWI_MCMD_REPSTART_gc,
// but this is not used in Atmel's demo code, so we don't use it either

void I2C_rep_start(uint8_t shifted_addr)						    // send repeated start, device_addr + LSB set if READ
{
	TWI0.MADDR = shifted_addr;	
     300:	10 93 17 08 	sts	0x0817, r17	; 0x800817 <__TEXT_REGION_LENGTH__+0x700817>
	    if (status != 0) goto error;
        ++reg_ptr;
        --reg_len;
    }
	I2C_rep_start((slave_addr << 1) + 1);							// slave read address, LSB 1
	while (dat_len > 1) {
     304:	02 30       	cpi	r16, 0x02	; 2
     306:	90 f0       	brcs	.+36     	; 0x32c <I2C_read_bytes+0x88>
     308:	02 50       	subi	r16, 0x02	; 2
     30a:	c0 2f       	mov	r28, r16
     30c:	d0 e0       	ldi	r29, 0x00	; 0
     30e:	21 96       	adiw	r28, 0x01	; 1
     310:	ce 0d       	add	r28, r14
		status = I2C_read(dat_ptr, 0);								// first bytes, send ACK
     312:	df 1d       	adc	r29, r15
     314:	60 e0       	ldi	r22, 0x00	; 0
     316:	c7 01       	movw	r24, r14
     318:	59 df       	rcall	.-334    	; 0x1cc <I2C_read>
		if (status != 0) goto error;
     31a:	81 11       	cpse	r24, r1
     31c:	10 c0       	rjmp	.+32     	; 0x33e <I2C_read_bytes+0x9a>
		++dat_ptr;
     31e:	8f ef       	ldi	r24, 0xFF	; 255
     320:	e8 1a       	sub	r14, r24
     322:	f8 0a       	sbc	r15, r24
	    if (status != 0) goto error;
        ++reg_ptr;
        --reg_len;
    }
	I2C_rep_start((slave_addr << 1) + 1);							// slave read address, LSB 1
	while (dat_len > 1) {
     324:	ec 16       	cp	r14, r28
     326:	fd 06       	cpc	r15, r29
     328:	a9 f7       	brne	.-22     	; 0x314 <I2C_read_bytes+0x70>
     32a:	01 c0       	rjmp	.+2      	; 0x32e <I2C_read_bytes+0x8a>
		status = I2C_read(dat_ptr, 0);								// first bytes, send ACK
		if (status != 0) goto error;
		++dat_ptr;
		--dat_len;
	}
	status = I2C_read(dat_ptr, 1);									// single or last byte, send NACK
     32c:	e7 01       	movw	r28, r14
     32e:	61 e0       	ldi	r22, 0x01	; 1
     330:	ce 01       	movw	r24, r28
	if (status != 0) goto error;
     332:	4c df       	rcall	.-360    	; 0x1cc <I2C_read>
     334:	81 11       	cpse	r24, r1
	I2C_stop();
     336:	03 c0       	rjmp	.+6      	; 0x33e <I2C_read_bytes+0x9a>
     338:	af df       	rcall	.-162    	; 0x298 <I2C_stop>
	return 0;
     33a:	80 e0       	ldi	r24, 0x00	; 0
     33c:	02 c0       	rjmp	.+4      	; 0x342 <I2C_read_bytes+0x9e>
	
error:
	I2C_recover();													// clock out possibly stuck slave, reset master
     33e:	da de       	rcall	.-588    	; 0xf4 <I2C_recover>
     340:	8f ef       	ldi	r24, 0xFF	; 255
	return 0xff;													// flag error
     342:	df 91       	pop	r29
}
     344:	cf 91       	pop	r28
     346:	1f 91       	pop	r17
     348:	0f 91       	pop	r16
     34a:	ff 90       	pop	r15
     34c:	ef 90       	pop	r14
     34e:	df 90       	pop	r13
     350:	cf 90       	pop	r12
     352:	08 95       	ret

00000354 <Setup>:
     354:	cf 93       	push	r28
// Select "audio" input (0-2.5V)
void SelectAuIn(){
     VREF_CTRLA   = 0x22;    //0x22 for audio in/out (2.5V), 0x12 for temperature in, audio out (1.1V/2.5V)
     ADC0_CTRLA   &= ~(ADC_RESSEL_bm);
     ADC0_MUXPOS  = 0x07;    //Audio in: AIN7 at (0x07), Temperature: Internal sensor at (0x1E)
     adc0Chg = 1;
     356:	df 93       	push	r29
     358:	f8 94       	cli
     35a:	88 ed       	ldi	r24, 0xD8	; 216
     35c:	84 bf       	out	0x34, r24	; 52
     35e:	c1 e0       	ldi	r28, 0x01	; 1
     360:	c0 93 61 00 	sts	0x0061, r28	; 0x800061 <__TEXT_REGION_LENGTH__+0x700061>
     364:	8a e4       	ldi	r24, 0x4A	; 74
     366:	80 93 00 04 	sts	0x0400, r24	; 0x800400 <__TEXT_REGION_LENGTH__+0x700400>
     36a:	8c e7       	ldi	r24, 0x7C	; 124
     36c:	80 93 20 04 	sts	0x0420, r24	; 0x800420 <__TEXT_REGION_LENGTH__+0x700420>
     370:	9f e3       	ldi	r25, 0x3F	; 63
     372:	90 93 40 04 	sts	0x0440, r25	; 0x800440 <__TEXT_REGION_LENGTH__+0x700440>
     376:	e0 e5       	ldi	r30, 0x50	; 80
     378:	f4 e0       	ldi	r31, 0x04	; 4
     37a:	80 81       	ld	r24, Z
     37c:	80 68       	ori	r24, 0x80	; 128
     37e:	80 83       	st	Z, r24
     380:	e1 e5       	ldi	r30, 0x51	; 81
     382:	f4 e0       	ldi	r31, 0x04	; 4
     384:	80 81       	ld	r24, Z
     386:	80 68       	ori	r24, 0x80	; 128
     388:	80 83       	st	Z, r24
     38a:	e2 e5       	ldi	r30, 0x52	; 82
     38c:	f4 e0       	ldi	r31, 0x04	; 4
     38e:	80 81       	ld	r24, Z
     390:	80 68       	ori	r24, 0x80	; 128
     392:	80 83       	st	Z, r24
     394:	e3 e5       	ldi	r30, 0x53	; 83
     396:	f4 e0       	ldi	r31, 0x04	; 4
     398:	80 81       	ld	r24, Z
     39a:	80 68       	ori	r24, 0x80	; 128
     39c:	80 83       	st	Z, r24
     39e:	e4 e5       	ldi	r30, 0x54	; 84
     3a0:	f4 e0       	ldi	r31, 0x04	; 4
     3a2:	80 81       	ld	r24, Z
     3a4:	80 68       	ori	r24, 0x80	; 128
     3a6:	80 83       	st	Z, r24
     3a8:	e5 e5       	ldi	r30, 0x55	; 85
     3aa:	f4 e0       	ldi	r31, 0x04	; 4
     3ac:	80 81       	ld	r24, Z
     3ae:	80 68       	ori	r24, 0x80	; 128
     3b0:	80 83       	st	Z, r24
     3b2:	e2 e3       	ldi	r30, 0x32	; 50
     3b4:	f4 e0       	ldi	r31, 0x04	; 4
     3b6:	80 81       	ld	r24, Z
     3b8:	80 68       	ori	r24, 0x80	; 128
     3ba:	80 83       	st	Z, r24
     3bc:	e3 e3       	ldi	r30, 0x33	; 51
     3be:	f4 e0       	ldi	r31, 0x04	; 4
     3c0:	80 81       	ld	r24, Z
     3c2:	80 68       	ori	r24, 0x80	; 128
     3c4:	80 83       	st	Z, r24
     3c6:	e4 e3       	ldi	r30, 0x34	; 52
     3c8:	f4 e0       	ldi	r31, 0x04	; 4
     3ca:	80 81       	ld	r24, Z
     3cc:	80 68       	ori	r24, 0x80	; 128
     3ce:	80 83       	st	Z, r24
     3d0:	e5 e3       	ldi	r30, 0x35	; 53
     3d2:	f4 e0       	ldi	r31, 0x04	; 4
     3d4:	80 81       	ld	r24, Z
     3d6:	80 68       	ori	r24, 0x80	; 128
     3d8:	80 83       	st	Z, r24
     3da:	e6 e3       	ldi	r30, 0x36	; 54
     3dc:	f4 e0       	ldi	r31, 0x04	; 4
     3de:	80 81       	ld	r24, Z
     3e0:	80 68       	ori	r24, 0x80	; 128
     3e2:	80 83       	st	Z, r24
     3e4:	c0 93 01 02 	sts	0x0201, r28	; 0x800201 <__TEXT_REGION_LENGTH__+0x700201>
     3e8:	d2 e0       	ldi	r29, 0x02	; 2
     3ea:	d0 93 05 04 	sts	0x0405, r29	; 0x800405 <__TEXT_REGION_LENGTH__+0x700405>
     3ee:	2b e5       	ldi	r18, 0x5B	; 91
     3f0:	31 e0       	ldi	r19, 0x01	; 1
     3f2:	20 93 08 08 	sts	0x0808, r18	; 0x800808 <__TEXT_REGION_LENGTH__+0x700808>
     3f6:	30 93 09 08 	sts	0x0809, r19	; 0x800809 <__TEXT_REGION_LENGTH__+0x700809>
     3fa:	80 ea       	ldi	r24, 0xA0	; 160
     3fc:	80 93 05 08 	sts	0x0805, r24	; 0x800805 <__TEXT_REGION_LENGTH__+0x700805>
     400:	80 ec       	ldi	r24, 0xC0	; 192
     402:	80 93 06 08 	sts	0x0806, r24	; 0x800806 <__TEXT_REGION_LENGTH__+0x700806>
     406:	83 e0       	ldi	r24, 0x03	; 3
     408:	80 93 07 08 	sts	0x0807, r24	; 0x800807 <__TEXT_REGION_LENGTH__+0x700807>
     40c:	1c ba       	out	0x1c, r1	; 28
     40e:	1d ba       	out	0x1d, r1	; 29
     410:	1e ba       	out	0x1e, r1	; 30
     412:	1f ba       	out	0x1f, r1	; 31
     414:	c0 93 03 0a 	sts	0x0A03, r28	; 0x800a03 <__TEXT_REGION_LENGTH__+0x700a03>
     418:	e0 e0       	ldi	r30, 0x00	; 0
     41a:	fa e0       	ldi	r31, 0x0A	; 10
     41c:	88 e0       	ldi	r24, 0x08	; 8
     41e:	80 83       	st	Z, r24
     420:	90 93 02 02 	sts	0x0202, r25	; 0x800202 <__TEXT_REGION_LENGTH__+0x700202>
     424:	87 e7       	ldi	r24, 0x77	; 119
     426:	80 93 01 0a 	sts	0x0A01, r24	; 0x800a01 <__TEXT_REGION_LENGTH__+0x700a01>
     42a:	c0 93 0a 0a 	sts	0x0A0A, r28	; 0x800a0a <__TEXT_REGION_LENGTH__+0x700a0a>
     42e:	8b e0       	ldi	r24, 0x0B	; 11
     430:	80 93 05 0a 	sts	0x0A05, r24	; 0x800a05 <__TEXT_REGION_LENGTH__+0x700a05>
     434:	80 81       	ld	r24, Z
     436:	81 60       	ori	r24, 0x01	; 1
     438:	80 83       	st	Z, r24
     43a:	85 e0       	ldi	r24, 0x05	; 5
     43c:	80 93 40 0a 	sts	0x0A40, r24	; 0x800a40 <__TEXT_REGION_LENGTH__+0x700a40>
     440:	10 92 41 0a 	sts	0x0A41, r1	; 0x800a41 <__TEXT_REGION_LENGTH__+0x700a41>
     444:	8f ef       	ldi	r24, 0xFF	; 255
     446:	91 e0       	ldi	r25, 0x01	; 1
     448:	80 93 4c 0a 	sts	0x0A4C, r24	; 0x800a4c <__TEXT_REGION_LENGTH__+0x700a4c>
     44c:	90 93 4d 0a 	sts	0x0A4D, r25	; 0x800a4d <__TEXT_REGION_LENGTH__+0x700a4d>
     450:	10 92 45 0a 	sts	0x0A45, r1	; 0x800a45 <__TEXT_REGION_LENGTH__+0x700a45>
     454:	c0 93 50 0a 	sts	0x0A50, r28	; 0x800a50 <__TEXT_REGION_LENGTH__+0x700a50>
     458:	10 92 51 0a 	sts	0x0A51, r1	; 0x800a51 <__TEXT_REGION_LENGTH__+0x700a51>
     45c:	8b e8       	ldi	r24, 0x8B	; 139
     45e:	93 e0       	ldi	r25, 0x03	; 3
     460:	80 93 5c 0a 	sts	0x0A5C, r24	; 0x800a5c <__TEXT_REGION_LENGTH__+0x700a5c>
     464:	90 93 5d 0a 	sts	0x0A5D, r25	; 0x800a5d <__TEXT_REGION_LENGTH__+0x700a5d>
     468:	c0 93 55 0a 	sts	0x0A55, r28	; 0x800a55 <__TEXT_REGION_LENGTH__+0x700a55>
     46c:	25 de       	rcall	.-950    	; 0xb8 <I2C_init>
     46e:	82 e1       	ldi	r24, 0x12	; 18
     470:	80 93 a0 00 	sts	0x00A0, r24	; 0x8000a0 <__TEXT_REGION_LENGTH__+0x7000a0>
     474:	80 e2       	ldi	r24, 0x20	; 32
     476:	80 93 a2 00 	sts	0x00A2, r24	; 0x8000a2 <__TEXT_REGION_LENGTH__+0x7000a2>
     47a:	c0 93 a1 00 	sts	0x00A1, r28	; 0x8000a1 <__TEXT_REGION_LENGTH__+0x7000a1>
     47e:	e0 e0       	ldi	r30, 0x00	; 0
     480:	f6 e0       	ldi	r31, 0x06	; 6
     482:	86 e0       	ldi	r24, 0x06	; 6
     484:	80 83       	st	Z, r24
     486:	84 e4       	ldi	r24, 0x44	; 68
     488:	80 93 02 06 	sts	0x0602, r24	; 0x800602 <__TEXT_REGION_LENGTH__+0x700602>
     48c:	8e e1       	ldi	r24, 0x1E	; 30
     48e:	80 93 06 06 	sts	0x0606, r24	; 0x800606 <__TEXT_REGION_LENGTH__+0x700606>
     492:	c0 93 0a 06 	sts	0x060A, r28	; 0x80060a <__TEXT_REGION_LENGTH__+0x70060a>
     496:	80 81       	ld	r24, Z
     498:	81 60       	ori	r24, 0x01	; 1
     49a:	80 83       	st	Z, r24
     49c:	c0 93 08 06 	sts	0x0608, r28	; 0x800608 <__TEXT_REGION_LENGTH__+0x700608>
     4a0:	e0 e4       	ldi	r30, 0x40	; 64
     4a2:	f6 e0       	ldi	r31, 0x06	; 6
     4a4:	10 82       	st	Z, r1
     4a6:	d0 93 41 06 	sts	0x0641, r29	; 0x800641 <__TEXT_REGION_LENGTH__+0x700641>
     4aa:	82 e5       	ldi	r24, 0x52	; 82
     4ac:	80 93 42 06 	sts	0x0642, r24	; 0x800642 <__TEXT_REGION_LENGTH__+0x700642>
     4b0:	84 e0       	ldi	r24, 0x04	; 4
     4b2:	80 93 45 06 	sts	0x0645, r24	; 0x800645 <__TEXT_REGION_LENGTH__+0x700645>
     4b6:	80 93 46 06 	sts	0x0646, r24	; 0x800646 <__TEXT_REGION_LENGTH__+0x700646>
     4ba:	c0 93 4a 06 	sts	0x064A, r28	; 0x80064a <__TEXT_REGION_LENGTH__+0x70064a>
     4be:	80 81       	ld	r24, Z
     4c0:	81 60       	ori	r24, 0x01	; 1
     4c2:	80 83       	st	Z, r24
     4c4:	c0 93 48 06 	sts	0x0648, r28	; 0x800648 <__TEXT_REGION_LENGTH__+0x700648>
     4c8:	e0 ea       	ldi	r30, 0xA0	; 160
     4ca:	f6 e0       	ldi	r31, 0x06	; 6
     4cc:	80 e4       	ldi	r24, 0x40	; 64
     4ce:	80 83       	st	Z, r24
     4d0:	80 e8       	ldi	r24, 0x80	; 128
     4d2:	80 93 a1 06 	sts	0x06A1, r24	; 0x8006a1 <__TEXT_REGION_LENGTH__+0x7006a1>
     4d6:	80 81       	ld	r24, Z
     4d8:	81 60       	ori	r24, 0x01	; 1
     4da:	80 83       	st	Z, r24
     4dc:	e1 e4       	ldi	r30, 0x41	; 65
     4de:	f1 e0       	ldi	r31, 0x01	; 1
     4e0:	80 81       	ld	r24, Z
     4e2:	80 fd       	sbrc	r24, 0
     4e4:	fd cf       	rjmp	.-6      	; 0x4e0 <__LOCK_REGION_LENGTH__+0xe0>
     4e6:	80 e3       	ldi	r24, 0x30	; 48
     4e8:	80 93 40 01 	sts	0x0140, r24	; 0x800140 <__TEXT_REGION_LENGTH__+0x700140>
     4ec:	10 92 47 01 	sts	0x0147, r1	; 0x800147 <__TEXT_REGION_LENGTH__+0x700147>
     4f0:	e1 e4       	ldi	r30, 0x41	; 65
     4f2:	f1 e0       	ldi	r31, 0x01	; 1
     4f4:	80 81       	ld	r24, Z
     4f6:	82 fd       	sbrc	r24, 2
     4f8:	fd cf       	rjmp	.-6      	; 0x4f4 <__LOCK_REGION_LENGTH__+0xf4>
     4fa:	ea e4       	ldi	r30, 0x4A	; 74
     4fc:	f1 e0       	ldi	r31, 0x01	; 1
     4fe:	80 e0       	ldi	r24, 0x00	; 0
     500:	98 e7       	ldi	r25, 0x78	; 120
     502:	80 83       	st	Z, r24
     504:	91 83       	std	Z+1, r25	; 0x01
     506:	80 91 48 01 	lds	r24, 0x0148	; 0x800148 <__TEXT_REGION_LENGTH__+0x700148>
     50a:	90 91 49 01 	lds	r25, 0x0149	; 0x800149 <__TEXT_REGION_LENGTH__+0x700149>
     50e:	60 81       	ld	r22, Z
     510:	71 81       	ldd	r23, Z+1	; 0x01
     512:	82 96       	adiw	r24, 0x22	; 34
     514:	0e 94 04 0f 	call	0x1e08	; 0x1e08 <__udivmodhi4>
     518:	80 93 ed 3a 	sts	0x3AED, r24	; 0x803aed <tmp16bit>
     51c:	90 93 ee 3a 	sts	0x3AEE, r25	; 0x803aee <tmp16bit+0x1>
     520:	e1 e4       	ldi	r30, 0x41	; 65
     522:	f1 e0       	ldi	r31, 0x01	; 1
     524:	80 81       	ld	r24, Z
     526:	83 fd       	sbrc	r24, 3
     528:	fd cf       	rjmp	.-6      	; 0x524 <__LOCK_REGION_LENGTH__+0x124>
     52a:	80 91 ed 3a 	lds	r24, 0x3AED	; 0x803aed <tmp16bit>
     52e:	90 91 ee 3a 	lds	r25, 0x3AEE	; 0x803aee <tmp16bit+0x1>
     532:	80 93 4c 01 	sts	0x014C, r24	; 0x80014c <__TEXT_REGION_LENGTH__+0x70014c>
     536:	90 93 4d 01 	sts	0x014D, r25	; 0x80014d <__TEXT_REGION_LENGTH__+0x70014d>
     53a:	83 e0       	ldi	r24, 0x03	; 3
     53c:	80 93 42 01 	sts	0x0142, r24	; 0x800142 <__TEXT_REGION_LENGTH__+0x700142>
     540:	81 e0       	ldi	r24, 0x01	; 1
     542:	80 93 52 01 	sts	0x0152, r24	; 0x800152 <__TEXT_REGION_LENGTH__+0x700152>
     546:	88 e0       	ldi	r24, 0x08	; 8
     548:	80 93 50 01 	sts	0x0150, r24	; 0x800150 <__TEXT_REGION_LENGTH__+0x700150>
     54c:	e1 e4       	ldi	r30, 0x41	; 65
     54e:	f1 e0       	ldi	r31, 0x01	; 1
     550:	80 81       	ld	r24, Z
     552:	80 fd       	sbrc	r24, 0
     554:	fd cf       	rjmp	.-6      	; 0x550 <__LOCK_REGION_LENGTH__+0x150>
     556:	e0 e4       	ldi	r30, 0x40	; 64
     558:	f1 e0       	ldi	r31, 0x01	; 1
     55a:	80 81       	ld	r24, Z
     55c:	81 60       	ori	r24, 0x01	; 1
     55e:	80 83       	st	Z, r24
     560:	e0 e5       	ldi	r30, 0x50	; 80
     562:	f1 e0       	ldi	r31, 0x01	; 1
     564:	80 81       	ld	r24, Z
     566:	81 60       	ori	r24, 0x01	; 1
     568:	80 83       	st	Z, r24
     56a:	e8 e5       	ldi	r30, 0x58	; 88
     56c:	fa e3       	ldi	r31, 0x3A	; 58
     56e:	10 82       	st	Z, r1
     570:	e0 93 9c 3a 	sts	0x3A9C, r30	; 0x803a9c <serTxAddr>
     574:	f0 93 9d 3a 	sts	0x3A9D, r31	; 0x803a9d <serTxAddr+0x1>
     578:	78 94       	sei
     57a:	df 91       	pop	r29
     57c:	cf 91       	pop	r28
     57e:	08 95       	ret

00000580 <__vector_8>:
     580:	1f 92       	push	r1
     582:	0f 92       	push	r0
     584:	0f b6       	in	r0, 0x3f	; 63
     586:	0f 92       	push	r0
     588:	11 24       	eor	r1, r1
     58a:	8f 93       	push	r24
     58c:	9f 93       	push	r25
     58e:	af 93       	push	r26
     590:	bf 93       	push	r27
     592:	ef 93       	push	r30
     594:	ff 93       	push	r31
     596:	87 e0       	ldi	r24, 0x07	; 7
     598:	80 93 46 04 	sts	0x0446, r24	; 0x800446 <__TEXT_REGION_LENGTH__+0x700446>
     59c:	84 e4       	ldi	r24, 0x44	; 68
     59e:	80 93 26 04 	sts	0x0426, r24	; 0x800426 <__TEXT_REGION_LENGTH__+0x700426>
     5a2:	ec b3       	in	r30, 0x1c	; 28
     5a4:	f0 e0       	ldi	r31, 0x00	; 0
     5a6:	ee 0f       	add	r30, r30
     5a8:	ff 1f       	adc	r31, r31
     5aa:	ee 0f       	add	r30, r30
     5ac:	ff 1f       	adc	r31, r31
     5ae:	ee 0f       	add	r30, r30
     5b0:	ff 1f       	adc	r31, r31
     5b2:	ed 53       	subi	r30, 0x3D	; 61
     5b4:	f5 4c       	sbci	r31, 0xC5	; 197
     5b6:	a8 e2       	ldi	r26, 0x28	; 40
     5b8:	ba e0       	ldi	r27, 0x0A	; 10
     5ba:	96 e0       	ldi	r25, 0x06	; 6
     5bc:	81 91       	ld	r24, Z+
     5be:	8d 93       	st	X+, r24
     5c0:	9a 95       	dec	r25
     5c2:	e1 f7       	brne	.-8      	; 0x5bc <__vector_8+0x3c>
     5c4:	8b e0       	ldi	r24, 0x0B	; 11
     5c6:	80 93 05 0a 	sts	0x0A05, r24	; 0x800a05 <__TEXT_REGION_LENGTH__+0x700a05>
     5ca:	8c b3       	in	r24, 0x1c	; 28
     5cc:	83 30       	cpi	r24, 0x03	; 3
     5ce:	58 f4       	brcc	.+22     	; 0x5e6 <__vector_8+0x66>
     5d0:	8c b3       	in	r24, 0x1c	; 28
     5d2:	91 e0       	ldi	r25, 0x01	; 1
     5d4:	01 c0       	rjmp	.+2      	; 0x5d8 <__vector_8+0x58>
     5d6:	99 0f       	add	r25, r25
     5d8:	8a 95       	dec	r24
     5da:	ea f7       	brpl	.-6      	; 0x5d6 <__vector_8+0x56>
     5dc:	99 b9       	out	0x09, r25	; 9
     5de:	8c b3       	in	r24, 0x1c	; 28
     5e0:	83 95       	inc	r24
     5e2:	8c bb       	out	0x1c, r24	; 28
     5e4:	0a c0       	rjmp	.+20     	; 0x5fa <__vector_8+0x7a>
     5e6:	8c b3       	in	r24, 0x1c	; 28
     5e8:	83 30       	cpi	r24, 0x03	; 3
     5ea:	21 f4       	brne	.+8      	; 0x5f4 <__vector_8+0x74>
     5ec:	2a 9a       	sbi	0x05, 2	; 5
     5ee:	83 95       	inc	r24
     5f0:	8c bb       	out	0x1c, r24	; 28
     5f2:	03 c0       	rjmp	.+6      	; 0x5fa <__vector_8+0x7a>
     5f4:	2e 9a       	sbi	0x05, 6	; 5
     5f6:	88 27       	eor	r24, r24
     5f8:	8c bb       	out	0x1c, r24	; 28
     5fa:	80 91 47 3a 	lds	r24, 0x3A47	; 0x803a47 <timeout_I2C>
     5fe:	88 23       	and	r24, r24
     600:	29 f0       	breq	.+10     	; 0x60c <__vector_8+0x8c>
     602:	80 91 47 3a 	lds	r24, 0x3A47	; 0x803a47 <timeout_I2C>
     606:	81 50       	subi	r24, 0x01	; 1
     608:	80 93 47 3a 	sts	0x3A47, r24	; 0x803a47 <timeout_I2C>
     60c:	8f ef       	ldi	r24, 0xFF	; 255
     60e:	80 93 0b 0a 	sts	0x0A0B, r24	; 0x800a0b <__TEXT_REGION_LENGTH__+0x700a0b>
     612:	ff 91       	pop	r31
     614:	ef 91       	pop	r30
     616:	bf 91       	pop	r27
     618:	af 91       	pop	r26
     61a:	9f 91       	pop	r25
     61c:	8f 91       	pop	r24
     61e:	0f 90       	pop	r0
     620:	0f be       	out	0x3f, r0	; 63
     622:	0f 90       	pop	r0
     624:	1f 90       	pop	r1
     626:	18 95       	reti

00000628 <__vector_13>:
     628:	1f 92       	push	r1
     62a:	0f 92       	push	r0
     62c:	0f b6       	in	r0, 0x3f	; 63
     62e:	0f 92       	push	r0
     630:	11 24       	eor	r1, r1
     632:	8f 93       	push	r24
     634:	9f 93       	push	r25
     636:	ef 93       	push	r30
     638:	ff 93       	push	r31
     63a:	e0 91 9c 3a 	lds	r30, 0x3A9C	; 0x803a9c <serTxAddr>
     63e:	f0 91 9d 3a 	lds	r31, 0x3A9D	; 0x803a9d <serTxAddr+0x1>
     642:	80 81       	ld	r24, Z
     644:	88 23       	and	r24, r24
     646:	91 f0       	breq	.+36     	; 0x66c <__vector_13+0x44>
     648:	80 81       	ld	r24, Z
     64a:	80 93 02 08 	sts	0x0802, r24	; 0x800802 <__TEXT_REGION_LENGTH__+0x700802>
     64e:	80 91 9c 3a 	lds	r24, 0x3A9C	; 0x803a9c <serTxAddr>
     652:	90 91 9d 3a 	lds	r25, 0x3A9D	; 0x803a9d <serTxAddr+0x1>
     656:	01 96       	adiw	r24, 0x01	; 1
     658:	80 93 9c 3a 	sts	0x3A9C, r24	; 0x803a9c <serTxAddr>
     65c:	90 93 9d 3a 	sts	0x3A9D, r25	; 0x803a9d <serTxAddr+0x1>
     660:	e5 e0       	ldi	r30, 0x05	; 5
     662:	f8 e0       	ldi	r31, 0x08	; 8
     664:	80 81       	ld	r24, Z
     666:	80 62       	ori	r24, 0x20	; 32
     668:	80 83       	st	Z, r24
     66a:	05 c0       	rjmp	.+10     	; 0x676 <__vector_13+0x4e>
     66c:	81 e0       	ldi	r24, 0x01	; 1
     66e:	80 93 04 38 	sts	0x3804, r24	; 0x803804 <serTxDone>
     672:	10 92 45 0a 	sts	0x0A45, r1	; 0x800a45 <__TEXT_REGION_LENGTH__+0x700a45>
     676:	81 e0       	ldi	r24, 0x01	; 1
     678:	80 93 46 0a 	sts	0x0A46, r24	; 0x800a46 <__TEXT_REGION_LENGTH__+0x700a46>
     67c:	ff 91       	pop	r31
     67e:	ef 91       	pop	r30
     680:	9f 91       	pop	r25
     682:	8f 91       	pop	r24
     684:	0f 90       	pop	r0
     686:	0f be       	out	0x3f, r0	; 63
     688:	0f 90       	pop	r0
     68a:	1f 90       	pop	r1
     68c:	18 95       	reti

0000068e <__vector_14>:
     68e:	1f 92       	push	r1
     690:	0f 92       	push	r0
     692:	0f b6       	in	r0, 0x3f	; 63
     694:	0f 92       	push	r0
     696:	11 24       	eor	r1, r1
     698:	2f 93       	push	r18
     69a:	3f 93       	push	r19
     69c:	4f 93       	push	r20
     69e:	8f 93       	push	r24
     6a0:	9f 93       	push	r25
     6a2:	ef 93       	push	r30
     6a4:	ff 93       	push	r31
     6a6:	e0 91 02 38 	lds	r30, 0x3802	; 0x803802 <auSmpAddr>
     6aa:	f0 91 03 38 	lds	r31, 0x3803	; 0x803803 <auSmpAddr+0x1>
     6ae:	80 81       	ld	r24, Z
     6b0:	81 11       	cpse	r24, r1
     6b2:	08 c0       	rjmp	.+16     	; 0x6c4 <__vector_14+0x36>
     6b4:	80 91 00 38 	lds	r24, 0x3800	; 0x803800 <__data_start>
     6b8:	90 91 01 38 	lds	r25, 0x3801	; 0x803801 <__data_start+0x1>
     6bc:	80 93 02 38 	sts	0x3802, r24	; 0x803802 <auSmpAddr>
     6c0:	90 93 03 38 	sts	0x3803, r25	; 0x803803 <auSmpAddr+0x1>
     6c4:	e0 91 02 38 	lds	r30, 0x3802	; 0x803802 <auSmpAddr>
     6c8:	f0 91 03 38 	lds	r31, 0x3803	; 0x803803 <auSmpAddr+0x1>
     6cc:	80 81       	ld	r24, Z
     6ce:	88 23       	and	r24, r24
     6d0:	e1 f0       	breq	.+56     	; 0x70a <__vector_14+0x7c>
     6d2:	20 81       	ld	r18, Z
     6d4:	40 91 99 3a 	lds	r20, 0x3A99	; 0x803a99 <auVolume>
     6d8:	30 e0       	ldi	r19, 0x00	; 0
     6da:	2f 57       	subi	r18, 0x7F	; 127
     6dc:	31 09       	sbc	r19, r1
     6de:	42 9f       	mul	r20, r18
     6e0:	c0 01       	movw	r24, r0
     6e2:	43 9f       	mul	r20, r19
     6e4:	90 0d       	add	r25, r0
     6e6:	11 24       	eor	r1, r1
     6e8:	89 2f       	mov	r24, r25
     6ea:	99 0f       	add	r25, r25
     6ec:	99 0b       	sbc	r25, r25
     6ee:	80 58       	subi	r24, 0x80	; 128
     6f0:	9f 4f       	sbci	r25, 0xFF	; 255
     6f2:	80 93 a1 06 	sts	0x06A1, r24	; 0x8006a1 <__TEXT_REGION_LENGTH__+0x7006a1>
     6f6:	80 91 02 38 	lds	r24, 0x3802	; 0x803802 <auSmpAddr>
     6fa:	90 91 03 38 	lds	r25, 0x3803	; 0x803803 <auSmpAddr+0x1>
     6fe:	01 96       	adiw	r24, 0x01	; 1
     700:	80 93 02 38 	sts	0x3802, r24	; 0x803802 <auSmpAddr>
     704:	90 93 03 38 	sts	0x3803, r25	; 0x803803 <auSmpAddr+0x1>
     708:	06 c0       	rjmp	.+12     	; 0x716 <__vector_14+0x88>
     70a:	80 e8       	ldi	r24, 0x80	; 128
     70c:	80 93 a1 06 	sts	0x06A1, r24	; 0x8006a1 <__TEXT_REGION_LENGTH__+0x7006a1>
     710:	81 e0       	ldi	r24, 0x01	; 1
     712:	80 93 eb 3a 	sts	0x3AEB, r24	; 0x803aeb <auPlayDone>
     716:	81 e0       	ldi	r24, 0x01	; 1
     718:	80 93 56 0a 	sts	0x0A56, r24	; 0x800a56 <__TEXT_REGION_LENGTH__+0x700a56>
     71c:	ff 91       	pop	r31
     71e:	ef 91       	pop	r30
     720:	9f 91       	pop	r25
     722:	8f 91       	pop	r24
     724:	4f 91       	pop	r20
     726:	3f 91       	pop	r19
     728:	2f 91       	pop	r18
     72a:	0f 90       	pop	r0
     72c:	0f be       	out	0x3f, r0	; 63
     72e:	0f 90       	pop	r0
     730:	1f 90       	pop	r1
     732:	18 95       	reti

00000734 <__vector_27>:
     734:	1f 92       	push	r1
     736:	0f 92       	push	r0
     738:	0f b6       	in	r0, 0x3f	; 63
     73a:	0f 92       	push	r0
     73c:	11 24       	eor	r1, r1
     73e:	8f 93       	push	r24
     740:	ef 93       	push	r30
     742:	ff 93       	push	r31
     744:	80 91 97 38 	lds	r24, 0x3897	; 0x803897 <serRxDone>
     748:	81 11       	cpse	r24, r1
     74a:	1d c0       	rjmp	.+58     	; 0x786 <__vector_27+0x52>
     74c:	ed b3       	in	r30, 0x1d	; 29
     74e:	f0 e0       	ldi	r31, 0x00	; 0
     750:	80 91 00 08 	lds	r24, 0x0800	; 0x800800 <__TEXT_REGION_LENGTH__+0x700800>
     754:	e8 5a       	subi	r30, 0xA8	; 168
     756:	f5 4c       	sbci	r31, 0xC5	; 197
     758:	80 83       	st	Z, r24
     75a:	ed b3       	in	r30, 0x1d	; 29
     75c:	f0 e0       	ldi	r31, 0x00	; 0
     75e:	e8 5a       	subi	r30, 0xA8	; 168
     760:	f5 4c       	sbci	r31, 0xC5	; 197
     762:	80 81       	ld	r24, Z
     764:	8a 30       	cpi	r24, 0x0A	; 10
     766:	49 f4       	brne	.+18     	; 0x77a <__vector_27+0x46>
     768:	ed b3       	in	r30, 0x1d	; 29
     76a:	f0 e0       	ldi	r31, 0x00	; 0
     76c:	e8 5a       	subi	r30, 0xA8	; 168
     76e:	f5 4c       	sbci	r31, 0xC5	; 197
     770:	10 82       	st	Z, r1
     772:	81 e0       	ldi	r24, 0x01	; 1
     774:	80 93 97 38 	sts	0x3897, r24	; 0x803897 <serRxDone>
     778:	06 c0       	rjmp	.+12     	; 0x786 <__vector_27+0x52>
     77a:	8d b3       	in	r24, 0x1d	; 29
     77c:	80 34       	cpi	r24, 0x40	; 64
     77e:	18 f4       	brcc	.+6      	; 0x786 <__vector_27+0x52>
     780:	8d b3       	in	r24, 0x1d	; 29
     782:	8f 5f       	subi	r24, 0xFF	; 255
     784:	8d bb       	out	0x1d, r24	; 29
     786:	80 e8       	ldi	r24, 0x80	; 128
     788:	80 93 04 08 	sts	0x0804, r24	; 0x800804 <__TEXT_REGION_LENGTH__+0x700804>
     78c:	ff 91       	pop	r31
     78e:	ef 91       	pop	r30
     790:	8f 91       	pop	r24
     792:	0f 90       	pop	r0
     794:	0f be       	out	0x3f, r0	; 63
     796:	0f 90       	pop	r0
     798:	1f 90       	pop	r1
     79a:	18 95       	reti

0000079c <__vector_28>:
     79c:	1f 92       	push	r1
     79e:	0f 92       	push	r0
     7a0:	0f b6       	in	r0, 0x3f	; 63
     7a2:	0f 92       	push	r0
     7a4:	11 24       	eor	r1, r1
     7a6:	8f 93       	push	r24
     7a8:	ef 93       	push	r30
     7aa:	ff 93       	push	r31
     7ac:	10 92 4a 0a 	sts	0x0A4A, r1	; 0x800a4a <__TEXT_REGION_LENGTH__+0x700a4a>
     7b0:	10 92 4b 0a 	sts	0x0A4B, r1	; 0x800a4b <__TEXT_REGION_LENGTH__+0x700a4b>
     7b4:	81 e0       	ldi	r24, 0x01	; 1
     7b6:	80 93 45 0a 	sts	0x0A45, r24	; 0x800a45 <__TEXT_REGION_LENGTH__+0x700a45>
     7ba:	e5 e0       	ldi	r30, 0x05	; 5
     7bc:	f8 e0       	ldi	r31, 0x08	; 8
     7be:	80 81       	ld	r24, Z
     7c0:	8f 7d       	andi	r24, 0xDF	; 223
     7c2:	80 83       	st	Z, r24
     7c4:	ff 91       	pop	r31
     7c6:	ef 91       	pop	r30
     7c8:	8f 91       	pop	r24
     7ca:	0f 90       	pop	r0
     7cc:	0f be       	out	0x3f, r0	; 63
     7ce:	0f 90       	pop	r0
     7d0:	1f 90       	pop	r1
     7d2:	18 95       	reti

000007d4 <__vector_20>:
     7d4:	1f 92       	push	r1
     7d6:	0f 92       	push	r0
     7d8:	0f b6       	in	r0, 0x3f	; 63
     7da:	0f 92       	push	r0
     7dc:	11 24       	eor	r1, r1
     7de:	8f 93       	push	r24
     7e0:	ef 93       	push	r30
     7e2:	ff 93       	push	r31
     7e4:	80 91 90 38 	lds	r24, 0x3890	; 0x803890 <__data_end>
     7e8:	81 11       	cpse	r24, r1
     7ea:	15 c0       	rjmp	.+42     	; 0x816 <__vector_20+0x42>
     7ec:	8e b3       	in	r24, 0x1e	; 30
     7ee:	8f 5f       	subi	r24, 0xFF	; 255
     7f0:	8f 71       	andi	r24, 0x1F	; 31
     7f2:	8e bb       	out	0x1e, r24	; 30
     7f4:	80 91 06 06 	lds	r24, 0x0606	; 0x800606 <__TEXT_REGION_LENGTH__+0x700606>
     7f8:	8e 31       	cpi	r24, 0x1E	; 30
     7fa:	29 f4       	brne	.+10     	; 0x806 <__vector_20+0x32>
     7fc:	80 91 10 06 	lds	r24, 0x0610	; 0x800610 <__TEXT_REGION_LENGTH__+0x700610>
     800:	80 93 ec 3a 	sts	0x3AEC, r24	; 0x803aec <adcTemp>
     804:	0a c0       	rjmp	.+20     	; 0x81a <__vector_20+0x46>
     806:	ee b3       	in	r30, 0x1e	; 30
     808:	f0 e0       	ldi	r31, 0x00	; 0
     80a:	80 91 10 06 	lds	r24, 0x0610	; 0x800610 <__TEXT_REGION_LENGTH__+0x700610>
     80e:	ed 55       	subi	r30, 0x5D	; 93
     810:	f5 4c       	sbci	r31, 0xC5	; 197
     812:	80 83       	st	Z, r24
     814:	02 c0       	rjmp	.+4      	; 0x81a <__vector_20+0x46>
     816:	10 92 90 38 	sts	0x3890, r1	; 0x803890 <__data_end>
     81a:	81 e0       	ldi	r24, 0x01	; 1
     81c:	80 93 0b 06 	sts	0x060B, r24	; 0x80060b <__TEXT_REGION_LENGTH__+0x70060b>
     820:	ff 91       	pop	r31
     822:	ef 91       	pop	r30
     824:	8f 91       	pop	r24
     826:	0f 90       	pop	r0
     828:	0f be       	out	0x3f, r0	; 63
     82a:	0f 90       	pop	r0
     82c:	1f 90       	pop	r1
     82e:	18 95       	reti

00000830 <__vector_22>:
     830:	1f 92       	push	r1
     832:	0f 92       	push	r0
     834:	0f b6       	in	r0, 0x3f	; 63
     836:	0f 92       	push	r0
     838:	11 24       	eor	r1, r1
     83a:	8f 93       	push	r24
     83c:	9f 93       	push	r25
     83e:	80 91 46 06 	lds	r24, 0x0646	; 0x800646 <__TEXT_REGION_LENGTH__+0x700646>
     842:	81 11       	cpse	r24, r1
     844:	0c c0       	rjmp	.+24     	; 0x85e <__vector_22+0x2e>
     846:	80 91 50 06 	lds	r24, 0x0650	; 0x800650 <__TEXT_REGION_LENGTH__+0x700650>
     84a:	90 91 51 06 	lds	r25, 0x0651	; 0x800651 <__TEXT_REGION_LENGTH__+0x700651>
     84e:	80 93 a0 3a 	sts	0x3AA0, r24	; 0x803aa0 <adcPhot>
     852:	90 93 a1 3a 	sts	0x3AA1, r25	; 0x803aa1 <adcPhot+0x1>
     856:	81 e0       	ldi	r24, 0x01	; 1
     858:	80 93 46 06 	sts	0x0646, r24	; 0x800646 <__TEXT_REGION_LENGTH__+0x700646>
     85c:	23 c0       	rjmp	.+70     	; 0x8a4 <__vector_22+0x74>
     85e:	80 91 46 06 	lds	r24, 0x0646	; 0x800646 <__TEXT_REGION_LENGTH__+0x700646>
     862:	81 30       	cpi	r24, 0x01	; 1
     864:	79 f4       	brne	.+30     	; 0x884 <__vector_22+0x54>
     866:	88 e0       	ldi	r24, 0x08	; 8
     868:	80 93 06 04 	sts	0x0406, r24	; 0x800406 <__TEXT_REGION_LENGTH__+0x700406>
     86c:	80 91 50 06 	lds	r24, 0x0650	; 0x800650 <__TEXT_REGION_LENGTH__+0x700650>
     870:	90 91 51 06 	lds	r25, 0x0651	; 0x800651 <__TEXT_REGION_LENGTH__+0x700651>
     874:	80 93 9e 3a 	sts	0x3A9E, r24	; 0x803a9e <adcHall>
     878:	90 93 9f 3a 	sts	0x3A9F, r25	; 0x803a9f <adcHall+0x1>
     87c:	84 e0       	ldi	r24, 0x04	; 4
     87e:	80 93 46 06 	sts	0x0646, r24	; 0x800646 <__TEXT_REGION_LENGTH__+0x700646>
     882:	10 c0       	rjmp	.+32     	; 0x8a4 <__vector_22+0x74>
     884:	80 91 50 06 	lds	r24, 0x0650	; 0x800650 <__TEXT_REGION_LENGTH__+0x700650>
     888:	90 91 51 06 	lds	r25, 0x0651	; 0x800651 <__TEXT_REGION_LENGTH__+0x700651>
     88c:	80 93 9a 3a 	sts	0x3A9A, r24	; 0x803a9a <adcBtns>
     890:	90 93 9b 3a 	sts	0x3A9B, r25	; 0x803a9b <adcBtns+0x1>
     894:	8f b3       	in	r24, 0x1f	; 31
     896:	8f 30       	cpi	r24, 0x0F	; 15
     898:	29 f4       	brne	.+10     	; 0x8a4 <__vector_22+0x74>
     89a:	10 92 46 06 	sts	0x0646, r1	; 0x800646 <__TEXT_REGION_LENGTH__+0x700646>
     89e:	88 e0       	ldi	r24, 0x08	; 8
     8a0:	80 93 05 04 	sts	0x0405, r24	; 0x800405 <__TEXT_REGION_LENGTH__+0x700405>
     8a4:	8f b3       	in	r24, 0x1f	; 31
     8a6:	90 e0       	ldi	r25, 0x00	; 0
     8a8:	01 96       	adiw	r24, 0x01	; 1
     8aa:	8f 70       	andi	r24, 0x0F	; 15
     8ac:	90 78       	andi	r25, 0x80	; 128
     8ae:	99 23       	and	r25, r25
     8b0:	24 f4       	brge	.+8      	; 0x8ba <__vector_22+0x8a>
     8b2:	01 97       	sbiw	r24, 0x01	; 1
     8b4:	80 6f       	ori	r24, 0xF0	; 240
     8b6:	9f 6f       	ori	r25, 0xFF	; 255
     8b8:	01 96       	adiw	r24, 0x01	; 1
     8ba:	8f bb       	out	0x1f, r24	; 31
     8bc:	81 e0       	ldi	r24, 0x01	; 1
     8be:	80 93 4b 06 	sts	0x064B, r24	; 0x80064b <__TEXT_REGION_LENGTH__+0x70064b>
     8c2:	9f 91       	pop	r25
     8c4:	8f 91       	pop	r24
     8c6:	0f 90       	pop	r0
     8c8:	0f be       	out	0x3f, r0	; 63
     8ca:	0f 90       	pop	r0
     8cc:	1f 90       	pop	r1
     8ce:	18 95       	reti

000008d0 <__vector_6>:
     8d0:	1f 92       	push	r1
     8d2:	0f 92       	push	r0
     8d4:	0f b6       	in	r0, 0x3f	; 63
     8d6:	0f 92       	push	r0
     8d8:	11 24       	eor	r1, r1
     8da:	5f 93       	push	r21
     8dc:	6f 93       	push	r22
     8de:	7f 93       	push	r23
     8e0:	8f 93       	push	r24
     8e2:	9f 93       	push	r25
     8e4:	af 93       	push	r26
     8e6:	bf 93       	push	r27
     8e8:	ef 93       	push	r30
     8ea:	ff 93       	push	r31
     8ec:	80 91 43 01 	lds	r24, 0x0143	; 0x800143 <__TEXT_REGION_LENGTH__+0x700143>
     8f0:	81 ff       	sbrs	r24, 1
     8f2:	29 c0       	rjmp	.+82     	; 0x946 <__vector_6+0x76>
     8f4:	80 91 95 38 	lds	r24, 0x3895	; 0x803895 <buttonMark>
     8f8:	8f 3f       	cpi	r24, 0xFF	; 255
     8fa:	29 f0       	breq	.+10     	; 0x906 <__vector_6+0x36>
     8fc:	80 91 95 38 	lds	r24, 0x3895	; 0x803895 <buttonMark>
     900:	8f 5f       	subi	r24, 0xFF	; 255
     902:	80 93 95 38 	sts	0x3895, r24	; 0x803895 <buttonMark>
     906:	80 91 48 01 	lds	r24, 0x0148	; 0x800148 <__TEXT_REGION_LENGTH__+0x700148>
     90a:	90 91 49 01 	lds	r25, 0x0149	; 0x800149 <__TEXT_REGION_LENGTH__+0x700149>
     90e:	60 91 4a 01 	lds	r22, 0x014A	; 0x80014a <__TEXT_REGION_LENGTH__+0x70014a>
     912:	70 91 4b 01 	lds	r23, 0x014B	; 0x80014b <__TEXT_REGION_LENGTH__+0x70014b>
     916:	82 96       	adiw	r24, 0x22	; 34
     918:	0e 94 04 0f 	call	0x1e08	; 0x1e08 <__udivmodhi4>
     91c:	80 93 ed 3a 	sts	0x3AED, r24	; 0x803aed <tmp16bit>
     920:	90 93 ee 3a 	sts	0x3AEE, r25	; 0x803aee <tmp16bit+0x1>
     924:	e1 e4       	ldi	r30, 0x41	; 65
     926:	f1 e0       	ldi	r31, 0x01	; 1
     928:	80 81       	ld	r24, Z
     92a:	83 fd       	sbrc	r24, 3
     92c:	fd cf       	rjmp	.-6      	; 0x928 <__vector_6+0x58>
     92e:	80 91 ed 3a 	lds	r24, 0x3AED	; 0x803aed <tmp16bit>
     932:	90 91 ee 3a 	lds	r25, 0x3AEE	; 0x803aee <tmp16bit+0x1>
     936:	80 93 4c 01 	sts	0x014C, r24	; 0x80014c <__TEXT_REGION_LENGTH__+0x70014c>
     93a:	90 93 4d 01 	sts	0x014D, r25	; 0x80014d <__TEXT_REGION_LENGTH__+0x70014d>
     93e:	82 e0       	ldi	r24, 0x02	; 2
     940:	80 93 43 01 	sts	0x0143, r24	; 0x800143 <__TEXT_REGION_LENGTH__+0x700143>
     944:	0c c0       	rjmp	.+24     	; 0x95e <__vector_6+0x8e>
     946:	80 91 96 38 	lds	r24, 0x3896	; 0x803896 <minuteMark>
     94a:	8f 3f       	cpi	r24, 0xFF	; 255
     94c:	29 f0       	breq	.+10     	; 0x958 <__vector_6+0x88>
     94e:	80 91 96 38 	lds	r24, 0x3896	; 0x803896 <minuteMark>
     952:	8f 5f       	subi	r24, 0xFF	; 255
     954:	80 93 96 38 	sts	0x3896, r24	; 0x803896 <minuteMark>
     958:	81 e0       	ldi	r24, 0x01	; 1
     95a:	80 93 43 01 	sts	0x0143, r24	; 0x800143 <__TEXT_REGION_LENGTH__+0x700143>
     95e:	ff 91       	pop	r31
     960:	ef 91       	pop	r30
     962:	bf 91       	pop	r27
     964:	af 91       	pop	r26
     966:	9f 91       	pop	r25
     968:	8f 91       	pop	r24
     96a:	7f 91       	pop	r23
     96c:	6f 91       	pop	r22
     96e:	5f 91       	pop	r21
     970:	0f 90       	pop	r0
     972:	0f be       	out	0x3f, r0	; 63
     974:	0f 90       	pop	r0
     976:	1f 90       	pop	r1
     978:	18 95       	reti

0000097a <__vector_7>:
     97a:	1f 92       	push	r1
     97c:	0f 92       	push	r0
     97e:	0f b6       	in	r0, 0x3f	; 63
     980:	0f 92       	push	r0
     982:	11 24       	eor	r1, r1
     984:	8f 93       	push	r24
     986:	81 e0       	ldi	r24, 0x01	; 1
     988:	80 93 48 06 	sts	0x0648, r24	; 0x800648 <__TEXT_REGION_LENGTH__+0x700648>
     98c:	80 93 53 01 	sts	0x0153, r24	; 0x800153 <__TEXT_REGION_LENGTH__+0x700153>
     990:	8f 91       	pop	r24
     992:	0f 90       	pop	r0
     994:	0f be       	out	0x3f, r0	; 63
     996:	0f 90       	pop	r0
     998:	1f 90       	pop	r1
     99a:	18 95       	reti

0000099c <EERead>:
     99c:	e2 e0       	ldi	r30, 0x02	; 2
     99e:	f0 e1       	ldi	r31, 0x10	; 16
     9a0:	90 81       	ld	r25, Z
     9a2:	91 fd       	sbrc	r25, 1
     9a4:	fd cf       	rjmp	.-6      	; 0x9a0 <EERead+0x4>
     9a6:	44 23       	and	r20, r20
     9a8:	59 f0       	breq	.+22     	; 0x9c0 <EERead+0x24>
     9aa:	a6 2f       	mov	r26, r22
     9ac:	b7 2f       	mov	r27, r23
     9ae:	48 0f       	add	r20, r24
     9b0:	e8 2f       	mov	r30, r24
     9b2:	f0 e0       	ldi	r31, 0x00	; 0
     9b4:	fc 5e       	subi	r31, 0xEC	; 236
     9b6:	90 81       	ld	r25, Z
     9b8:	9d 93       	st	X+, r25
     9ba:	8f 5f       	subi	r24, 0xFF	; 255
     9bc:	48 13       	cpse	r20, r24
     9be:	f8 cf       	rjmp	.-16     	; 0x9b0 <EERead+0x14>
     9c0:	08 95       	ret

000009c2 <EEWrite>:
     9c2:	ff 92       	push	r15
     9c4:	0f 93       	push	r16
     9c6:	1f 93       	push	r17
     9c8:	cf 93       	push	r28
     9ca:	df 93       	push	r29
     9cc:	e8 2f       	mov	r30, r24
     9ce:	44 23       	and	r20, r20
     9d0:	79 f1       	breq	.+94     	; 0xa30 <EEWrite+0x6e>
     9d2:	c2 e0       	ldi	r28, 0x02	; 2
     9d4:	d0 e1       	ldi	r29, 0x10	; 16
     9d6:	3d e9       	ldi	r19, 0x9D	; 157
     9d8:	00 e0       	ldi	r16, 0x00	; 0
     9da:	10 e1       	ldi	r17, 0x10	; 16
     9dc:	54 e0       	ldi	r21, 0x04	; 4
     9de:	0f 2e       	mov	r0, r31
     9e0:	f3 e0       	ldi	r31, 0x03	; 3
     9e2:	ff 2e       	mov	r15, r31
     9e4:	f0 2d       	mov	r31, r0
     9e6:	88 81       	ld	r24, Y
     9e8:	81 fd       	sbrc	r24, 1
     9ea:	fd cf       	rjmp	.-6      	; 0x9e6 <EEWrite+0x24>
     9ec:	34 bf       	out	0x34, r19	; 52
     9ee:	d8 01       	movw	r26, r16
     9f0:	5c 93       	st	X, r21
     9f2:	44 23       	and	r20, r20
     9f4:	91 f0       	breq	.+36     	; 0xa1a <EEWrite+0x58>
     9f6:	2e 2f       	mov	r18, r30
     9f8:	2f 71       	andi	r18, 0x1F	; 31
     9fa:	91 e0       	ldi	r25, 0x01	; 1
     9fc:	9e 0f       	add	r25, r30
     9fe:	6f 5f       	subi	r22, 0xFF	; 255
     a00:	7f 4f       	sbci	r23, 0xFF	; 255
     a02:	db 01       	movw	r26, r22
     a04:	11 97       	sbiw	r26, 0x01	; 1
     a06:	8c 91       	ld	r24, X
     a08:	f0 e0       	ldi	r31, 0x00	; 0
     a0a:	fc 5e       	subi	r31, 0xEC	; 236
     a0c:	80 83       	st	Z, r24
     a0e:	41 50       	subi	r20, 0x01	; 1
     a10:	21 f0       	breq	.+8      	; 0xa1a <EEWrite+0x58>
     a12:	e9 2f       	mov	r30, r25
     a14:	2f 31       	cpi	r18, 0x1F	; 31
     a16:	79 f7       	brne	.-34     	; 0x9f6 <EEWrite+0x34>
     a18:	0f c0       	rjmp	.+30     	; 0xa38 <EEWrite+0x76>
     a1a:	8d e9       	ldi	r24, 0x9D	; 157
     a1c:	84 bf       	out	0x34, r24	; 52
     a1e:	83 e0       	ldi	r24, 0x03	; 3
     a20:	80 93 00 10 	sts	0x1000, r24	; 0x801000 <__TEXT_REGION_LENGTH__+0x701000>
     a24:	80 91 02 10 	lds	r24, 0x1002	; 0x801002 <__TEXT_REGION_LENGTH__+0x701002>
     a28:	82 fb       	bst	r24, 2
     a2a:	88 27       	eor	r24, r24
     a2c:	80 f9       	bld	r24, 0
     a2e:	0c c0       	rjmp	.+24     	; 0xa48 <EEWrite+0x86>
     a30:	80 e0       	ldi	r24, 0x00	; 0
     a32:	0a c0       	rjmp	.+20     	; 0xa48 <EEWrite+0x86>
     a34:	81 e0       	ldi	r24, 0x01	; 1
     a36:	08 c0       	rjmp	.+16     	; 0xa48 <EEWrite+0x86>
     a38:	34 bf       	out	0x34, r19	; 52
     a3a:	f8 01       	movw	r30, r16
     a3c:	f0 82       	st	Z, r15
     a3e:	88 81       	ld	r24, Y
     a40:	82 fd       	sbrc	r24, 2
     a42:	f8 cf       	rjmp	.-16     	; 0xa34 <EEWrite+0x72>
     a44:	e9 2f       	mov	r30, r25
     a46:	cf cf       	rjmp	.-98     	; 0x9e6 <EEWrite+0x24>
     a48:	df 91       	pop	r29
     a4a:	cf 91       	pop	r28
     a4c:	1f 91       	pop	r17
     a4e:	0f 91       	pop	r16
     a50:	ff 90       	pop	r15
     a52:	08 95       	ret

00000a54 <SerSend>:
     a54:	9c 01       	movw	r18, r24
     a56:	90 91 04 38 	lds	r25, 0x3804	; 0x803804 <serTxDone>
     a5a:	99 23       	and	r25, r25
     a5c:	59 f0       	breq	.+22     	; 0xa74 <SerSend+0x20>
     a5e:	20 93 9c 3a 	sts	0x3A9C, r18	; 0x803a9c <serTxAddr>
     a62:	30 93 9d 3a 	sts	0x3A9D, r19	; 0x803a9d <serTxAddr+0x1>
     a66:	10 92 04 38 	sts	0x3804, r1	; 0x803804 <serTxDone>
     a6a:	81 e0       	ldi	r24, 0x01	; 1
     a6c:	80 93 45 0a 	sts	0x0A45, r24	; 0x800a45 <__TEXT_REGION_LENGTH__+0x700a45>
     a70:	80 e0       	ldi	r24, 0x00	; 0
     a72:	08 95       	ret
     a74:	81 e0       	ldi	r24, 0x01	; 1
     a76:	08 95       	ret

00000a78 <SerSpeed>:
     a78:	28 2f       	mov	r18, r24
     a7a:	81 11       	cpse	r24, r1
     a7c:	01 c0       	rjmp	.+2      	; 0xa80 <SerSpeed+0x8>
     a7e:	21 e0       	ldi	r18, 0x01	; 1
     a80:	8f ef       	ldi	r24, 0xFF	; 255
     a82:	90 e0       	ldi	r25, 0x00	; 0
     a84:	82 1b       	sub	r24, r18
     a86:	91 09       	sbc	r25, r1
     a88:	98 2f       	mov	r25, r24
     a8a:	88 27       	eor	r24, r24
     a8c:	81 50       	subi	r24, 0x01	; 1
     a8e:	9f 4f       	sbci	r25, 0xFF	; 255
     a90:	80 93 4c 0a 	sts	0x0A4C, r24	; 0x800a4c <__TEXT_REGION_LENGTH__+0x700a4c>
     a94:	90 93 4d 0a 	sts	0x0A4D, r25	; 0x800a4d <__TEXT_REGION_LENGTH__+0x700a4d>
     a98:	08 95       	ret

00000a9a <CheckButtons>:
};

// Returns button combination (4LSB) and number of consecutive times this combination is detected. First read should always be ignored! 
uint8_t CheckButtons(uint8_t previousValue){
    uint8_t bADC = (uint8_t)(adcBtns>>4);
     a9a:	20 91 9a 3a 	lds	r18, 0x3A9A	; 0x803a9a <adcBtns>
     a9e:	30 91 9b 3a 	lds	r19, 0x3A9B	; 0x803a9b <adcBtns+0x1>
    uint8_t bNibble = 0x0F;     //MSB to LSB: Bottom left, top left, top right, bottom right, 0F is error
    
    switch(bADC){
     aa2:	32 95       	swap	r19
     aa4:	22 95       	swap	r18
     aa6:	2f 70       	andi	r18, 0x0F	; 15
     aa8:	23 27       	eor	r18, r19
     aaa:	3f 70       	andi	r19, 0x0F	; 15
     aac:	23 27       	eor	r18, r19
     aae:	33 27       	eor	r19, r19
     ab0:	2c 35       	cpi	r18, 0x5C	; 92
     ab2:	31 05       	cpc	r19, r1
     ab4:	d0 f4       	brcc	.+52     	; 0xaea <CheckButtons+0x50>
     ab6:	23 35       	cpi	r18, 0x53	; 83
     ab8:	31 05       	cpc	r19, r1
     aba:	98 f5       	brcc	.+102    	; 0xb22 <CheckButtons+0x88>
     abc:	22 33       	cpi	r18, 0x32	; 50
     abe:	31 05       	cpc	r19, r1
     ac0:	50 f4       	brcc	.+20     	; 0xad6 <CheckButtons+0x3c>
     ac2:	2d 32       	cpi	r18, 0x2D	; 45
     ac4:	31 05       	cpc	r19, r1
     ac6:	48 f5       	brcc	.+82     	; 0xb1a <CheckButtons+0x80>
     ac8:	23 52       	subi	r18, 0x23	; 35
     aca:	31 09       	sbc	r19, r1
     acc:	25 30       	cpi	r18, 0x05	; 5
     ace:	31 05       	cpc	r19, r1
     ad0:	08 f4       	brcc	.+2      	; 0xad4 <CheckButtons+0x3a>
     ad2:	42 c0       	rjmp	.+132    	; 0xb58 <CheckButtons+0xbe>
     ad4:	2e c0       	rjmp	.+92     	; 0xb32 <CheckButtons+0x98>
     ad6:	27 33       	cpi	r18, 0x37	; 55
     ad8:	31 05       	cpc	r19, r1
     ada:	08 f4       	brcc	.+2      	; 0xade <CheckButtons+0x44>
     adc:	3f c0       	rjmp	.+126    	; 0xb5c <CheckButtons+0xc2>
     ade:	2e 53       	subi	r18, 0x3E	; 62
     ae0:	31 09       	sbc	r19, r1
     ae2:	27 30       	cpi	r18, 0x07	; 7
     ae4:	31 05       	cpc	r19, r1
     ae6:	d8 f0       	brcs	.+54     	; 0xb1e <CheckButtons+0x84>
     ae8:	24 c0       	rjmp	.+72     	; 0xb32 <CheckButtons+0x98>
     aea:	2a 38       	cpi	r18, 0x8A	; 138
     aec:	31 05       	cpc	r19, r1
     aee:	48 f4       	brcc	.+18     	; 0xb02 <CheckButtons+0x68>
     af0:	29 37       	cpi	r18, 0x79	; 121
     af2:	31 05       	cpc	r19, r1
     af4:	d0 f4       	brcc	.+52     	; 0xb2a <CheckButtons+0x90>
     af6:	23 56       	subi	r18, 0x63	; 99
     af8:	31 09       	sbc	r19, r1
     afa:	2b 30       	cpi	r18, 0x0B	; 11
     afc:	31 05       	cpc	r19, r1
     afe:	98 f0       	brcs	.+38     	; 0xb26 <CheckButtons+0x8c>
     b00:	18 c0       	rjmp	.+48     	; 0xb32 <CheckButtons+0x98>
     b02:	22 3a       	cpi	r18, 0xA2	; 162
     b04:	31 05       	cpc	r19, r1
     b06:	a8 f0       	brcs	.+42     	; 0xb32 <CheckButtons+0x98>
     b08:	2b 3b       	cpi	r18, 0xBB	; 187
     b0a:	31 05       	cpc	r19, r1
     b0c:	80 f0       	brcs	.+32     	; 0xb2e <CheckButtons+0x94>
     b0e:	20 5f       	subi	r18, 0xF0	; 240
     b10:	31 09       	sbc	r19, r1
     b12:	20 31       	cpi	r18, 0x10	; 16
     b14:	31 05       	cpc	r19, r1
     b16:	d8 f0       	brcs	.+54     	; 0xb4e <CheckButtons+0xb4>
     b18:	0c c0       	rjmp	.+24     	; 0xb32 <CheckButtons+0x98>
        case 35 ... 39:          //37: Both left
        bNibble = 0b1100;
        break;

        case 45 ... 49:          //47: Both bottom
        bNibble = 0b1001;
     b1a:	99 e0       	ldi	r25, 0x09	; 9
     b1c:	20 c0       	rjmp	.+64     	; 0xb5e <CheckButtons+0xc4>
        case 50 ... 54:          //52: Bottom left
        bNibble = 0b1000;
        break;

        case 62 ... 68:          //65: Both top
        bNibble = 0b0110;
     b1e:	96 e0       	ldi	r25, 0x06	; 6
        break;
     b20:	1e c0       	rjmp	.+60     	; 0xb5e <CheckButtons+0xc4>

        case 83 ... 91:          //87: Top left
        bNibble = 0b0100;
     b22:	94 e0       	ldi	r25, 0x04	; 4
        break;
     b24:	1c c0       	rjmp	.+56     	; 0xb5e <CheckButtons+0xc4>

        case 99 ... 109:         //104: Both right
        bNibble = 0b0011;
     b26:	93 e0       	ldi	r25, 0x03	; 3
        break;
     b28:	1a c0       	rjmp	.+52     	; 0xb5e <CheckButtons+0xc4>

        case 121 ... 137:        //129: Top right
        bNibble = 0b0010;
     b2a:	92 e0       	ldi	r25, 0x02	; 2
        break;
     b2c:	18 c0       	rjmp	.+48     	; 0xb5e <CheckButtons+0xc4>

        case 162 ... 186:        //174: Bottom right
        bNibble = 0b0001;
     b2e:	91 e0       	ldi	r25, 0x01	; 1
        break;
     b30:	16 c0       	rjmp	.+44     	; 0xb5e <CheckButtons+0xc4>
        case 240 ... 255:        //255: No button pressed
        bNibble = 0b0000;
        break;
    }

    if ((previousValue&0x0F)==bNibble){
     b32:	98 2f       	mov	r25, r24
     b34:	9f 70       	andi	r25, 0x0F	; 15
     b36:	9f 30       	cpi	r25, 0x0F	; 15
     b38:	41 f4       	brne	.+16     	; 0xb4a <CheckButtons+0xb0>
        if ((previousValue&0xF0) < 0xF0) previousValue += 0x10; //Same value? Increase time nibble
     b3a:	28 2f       	mov	r18, r24
     b3c:	20 7f       	andi	r18, 0xF0	; 240
     b3e:	30 e0       	ldi	r19, 0x00	; 0
     b40:	20 3f       	cpi	r18, 0xF0	; 240
     b42:	31 05       	cpc	r19, r1
     b44:	8c f4       	brge	.+34     	; 0xb68 <CheckButtons+0xce>
     b46:	80 5f       	subi	r24, 0xF0	; 240
     b48:	08 95       	ret
};

// Returns button combination (4LSB) and number of consecutive times this combination is detected. First read should always be ignored! 
uint8_t CheckButtons(uint8_t previousValue){
    uint8_t bADC = (uint8_t)(adcBtns>>4);
    uint8_t bNibble = 0x0F;     //MSB to LSB: Bottom left, top left, top right, bottom right, 0F is error
     b4a:	8f e0       	ldi	r24, 0x0F	; 15
     b4c:	08 95       	ret
        case 240 ... 255:        //255: No button pressed
        bNibble = 0b0000;
        break;
    }

    if ((previousValue&0x0F)==bNibble){
     b4e:	98 2f       	mov	r25, r24
     b50:	9f 70       	andi	r25, 0x0F	; 15
     b52:	99 f3       	breq	.-26     	; 0xb3a <CheckButtons+0xa0>
        if ((previousValue&0xF0) < 0xF0) previousValue += 0x10; //Same value? Increase time nibble
        return previousValue;       
    } else if (bNibble == 0) return 0xFF; //Buttons released, 0xFF triggers readout, previousValue holds last button value.
     b54:	8f ef       	ldi	r24, 0xFF	; 255
     b56:	08 95       	ret
        case 28 ... 32:         //30: All buttons pressed
        bNibble = 0b1111;
        break;

        case 35 ... 39:          //37: Both left
        bNibble = 0b1100;
     b58:	9c e0       	ldi	r25, 0x0C	; 12
     b5a:	01 c0       	rjmp	.+2      	; 0xb5e <CheckButtons+0xc4>
        case 45 ... 49:          //47: Both bottom
        bNibble = 0b1001;
        break;

        case 50 ... 54:          //52: Bottom left
        bNibble = 0b1000;
     b5c:	98 e0       	ldi	r25, 0x08	; 8
        case 240 ... 255:        //255: No button pressed
        bNibble = 0b0000;
        break;
    }

    if ((previousValue&0x0F)==bNibble){
     b5e:	28 2f       	mov	r18, r24
     b60:	2f 70       	andi	r18, 0x0F	; 15
     b62:	92 17       	cp	r25, r18
     b64:	51 f3       	breq	.-44     	; 0xb3a <CheckButtons+0xa0>
     b66:	89 2f       	mov	r24, r25
        if ((previousValue&0xF0) < 0xF0) previousValue += 0x10; //Same value? Increase time nibble
        return previousValue;       
    } else if (bNibble == 0) return 0xFF; //Buttons released, 0xFF triggers readout, previousValue holds last button value.
              else return bNibble;  //New value  
}
     b68:	08 95       	ret

00000b6a <lfsr>:

uint8_t lfsr(){
    static uint16_t state = 0xd401;
    state ^= (state << 13);
     b6a:	80 91 85 38 	lds	r24, 0x3885	; 0x803885 <state.3860>
     b6e:	90 91 86 38 	lds	r25, 0x3886	; 0x803886 <state.3860+0x1>
     b72:	9c 01       	movw	r18, r24
     b74:	32 2f       	mov	r19, r18
     b76:	22 27       	eor	r18, r18
     b78:	32 95       	swap	r19
     b7a:	33 0f       	add	r19, r19
     b7c:	30 7e       	andi	r19, 0xE0	; 224
     b7e:	82 27       	eor	r24, r18
     b80:	93 27       	eor	r25, r19
    state ^= (state >> 9);
     b82:	9c 01       	movw	r18, r24
     b84:	23 2f       	mov	r18, r19
     b86:	33 27       	eor	r19, r19
     b88:	26 95       	lsr	r18
     b8a:	82 27       	eor	r24, r18
     b8c:	93 27       	eor	r25, r19
    state ^= (state << 7);
     b8e:	9c 01       	movw	r18, r24
     b90:	36 95       	lsr	r19
     b92:	32 2f       	mov	r19, r18
     b94:	22 27       	eor	r18, r18
     b96:	37 95       	ror	r19
     b98:	27 95       	ror	r18
     b9a:	82 27       	eor	r24, r18
     b9c:	93 27       	eor	r25, r19
     b9e:	80 93 85 38 	sts	0x3885, r24	; 0x803885 <state.3860>
     ba2:	90 93 86 38 	sts	0x3886, r25	; 0x803886 <state.3860+0x1>
    return (state & 0xff);
}
     ba6:	08 95       	ret

00000ba8 <floatSpeed>:

void floatSpeed(uint8_t bits, uint16_t min, uint16_t max){
     ba8:	df 92       	push	r13
     baa:	ef 92       	push	r14
     bac:	ff 92       	push	r15
     bae:	0f 93       	push	r16
     bb0:	1f 93       	push	r17
     bb2:	cf 93       	push	r28
     bb4:	df 93       	push	r29
     bb6:	e6 2e       	mov	r14, r22
     bb8:	f7 2e       	mov	r15, r23
     bba:	8a 01       	movw	r16, r20
    uint16_t val = TCB1_CCMP;
     bbc:	c0 91 5c 0a 	lds	r28, 0x0A5C	; 0x800a5c <__TEXT_REGION_LENGTH__+0x700a5c>
     bc0:	d0 91 5d 0a 	lds	r29, 0x0A5D	; 0x800a5d <__TEXT_REGION_LENGTH__+0x700a5d>
    bits = mask[(bits-1)&0x07];
     bc4:	e8 2f       	mov	r30, r24
     bc6:	f0 e0       	ldi	r31, 0x00	; 0
     bc8:	31 97       	sbiw	r30, 0x01	; 1
     bca:	e7 70       	andi	r30, 0x07	; 7
     bcc:	ff 27       	eor	r31, r31
     bce:	e9 57       	subi	r30, 0x79	; 121
     bd0:	f7 4c       	sbci	r31, 0xC7	; 199
     bd2:	d0 80       	ld	r13, Z
    val += (lfsr()&bits);
     bd4:	ca df       	rcall	.-108    	; 0xb6a <lfsr>
     bd6:	8d 21       	and	r24, r13
     bd8:	c8 0f       	add	r28, r24
     bda:	d1 1d       	adc	r29, r1
    val -= (lfsr()&bits);
     bdc:	c6 df       	rcall	.-116    	; 0xb6a <lfsr>
     bde:	8d 21       	and	r24, r13
     be0:	c8 1b       	sub	r28, r24
     be2:	d1 09       	sbc	r29, r1
     be4:	0c 17       	cp	r16, r28
     be6:	1d 07       	cpc	r17, r29
     be8:	08 f4       	brcc	.+2      	; 0xbec <floatSpeed+0x44>
     bea:	e8 01       	movw	r28, r16
     bec:	8e 2d       	mov	r24, r14
     bee:	9f 2d       	mov	r25, r15
     bf0:	8c 17       	cp	r24, r28
     bf2:	9d 07       	cpc	r25, r29
     bf4:	08 f4       	brcc	.+2      	; 0xbf8 <floatSpeed+0x50>
     bf6:	ce 01       	movw	r24, r28
     bf8:	80 93 5c 0a 	sts	0x0A5C, r24	; 0x800a5c <__TEXT_REGION_LENGTH__+0x700a5c>
    if (val > max) val = max;    //0x038B is normal rate, for wind we need to be a bit slower
    if (val < min) val = min;  
    TCB1_CCMP = val;
     bfc:	90 93 5d 0a 	sts	0x0A5D, r25	; 0x800a5d <__TEXT_REGION_LENGTH__+0x700a5d>
     c00:	df 91       	pop	r29
}
     c02:	cf 91       	pop	r28
     c04:	1f 91       	pop	r17
     c06:	0f 91       	pop	r16
     c08:	ff 90       	pop	r15
     c0a:	ef 90       	pop	r14
     c0c:	df 90       	pop	r13
     c0e:	08 95       	ret

00000c10 <floatAround>:
     c10:	0f 93       	push	r16

uint8_t floatAround(uint8_t sample, uint8_t bits, uint8_t min, uint8_t max){
     c12:	1f 93       	push	r17
     c14:	cf 93       	push	r28
     c16:	df 93       	push	r29
     c18:	c8 2f       	mov	r28, r24
     c1a:	04 2f       	mov	r16, r20
     c1c:	12 2f       	mov	r17, r18
    bits = mask[(bits-1)&0x07];
     c1e:	e6 2f       	mov	r30, r22
     c20:	f0 e0       	ldi	r31, 0x00	; 0
     c22:	31 97       	sbiw	r30, 0x01	; 1
     c24:	e7 70       	andi	r30, 0x07	; 7
     c26:	ff 27       	eor	r31, r31
     c28:	e9 57       	subi	r30, 0x79	; 121
     c2a:	f7 4c       	sbci	r31, 0xC7	; 199
     c2c:	d0 81       	ld	r29, Z
    sample += lfsr()&bits;
     c2e:	9d df       	rcall	.-198    	; 0xb6a <lfsr>
     c30:	8d 23       	and	r24, r29
     c32:	c8 0f       	add	r28, r24
    sample -= lfsr()&bits;
     c34:	9a df       	rcall	.-204    	; 0xb6a <lfsr>
     c36:	8d 23       	and	r24, r29
     c38:	c8 1b       	sub	r28, r24
     c3a:	8c 2f       	mov	r24, r28
     c3c:	11 23       	and	r17, r17
    if (max){
     c3e:	41 f0       	breq	.+16     	; 0xc50 <floatAround+0x40>
     c40:	9c 2f       	mov	r25, r28
     c42:	1c 17       	cp	r17, r28
     c44:	08 f4       	brcc	.+2      	; 0xc48 <floatAround+0x38>
     c46:	91 2f       	mov	r25, r17
     c48:	80 2f       	mov	r24, r16
     c4a:	09 17       	cp	r16, r25
     c4c:	08 f4       	brcc	.+2      	; 0xc50 <floatAround+0x40>
     c4e:	89 2f       	mov	r24, r25
     c50:	df 91       	pop	r29
        if (sample > max) sample = max;
        if (sample < min) sample = min;
    }
    return sample;
}
     c52:	cf 91       	pop	r28
     c54:	1f 91       	pop	r17
     c56:	0f 91       	pop	r16
     c58:	08 95       	ret

00000c5a <SaveGameState>:
     c5a:	cf 92       	push	r12

//Save changed data to EEPROM
uint8_t SaveGameState(){
     c5c:	df 92       	push	r13
     c5e:	ff 92       	push	r15
     c60:	0f 93       	push	r16
     c62:	1f 93       	push	r17
     c64:	cf 93       	push	r28
     c66:	df 93       	push	r29
     c68:	cd b7       	in	r28, 0x3d	; 61
     c6a:	de b7       	in	r29, 0x3e	; 62
     c6c:	60 97       	sbiw	r28, 0x10	; 16
     c6e:	cd bf       	out	0x3d, r28	; 61
     c70:	de bf       	out	0x3e, r29	; 62
    uint8_t gameCheck[16];
    EERead(0, &gameCheck[0], 16);
     c72:	40 e1       	ldi	r20, 0x10	; 16
     c74:	be 01       	movw	r22, r28
     c76:	6f 5f       	subi	r22, 0xFF	; 255
     c78:	7f 4f       	sbci	r23, 0xFF	; 255
     c7a:	80 e0       	ldi	r24, 0x00	; 0
     c7c:	8f de       	rcall	.-738    	; 0x99c <EERead>
     c7e:	08 e4       	ldi	r16, 0x48	; 72
     c80:	1a e3       	ldi	r17, 0x3A	; 58
     c82:	ce 01       	movw	r24, r28
     c84:	01 96       	adiw	r24, 0x01	; 1
     c86:	6c 01       	movw	r12, r24
    for (uint8_t x=0; x<16; ++x){
     c88:	f1 2c       	mov	r15, r1
        if (gameState[x] != gameCheck[x]){
     c8a:	f6 01       	movw	r30, r12
     c8c:	81 91       	ld	r24, Z+
     c8e:	6f 01       	movw	r12, r30
     c90:	f8 01       	movw	r30, r16
     c92:	90 81       	ld	r25, Z
     c94:	98 17       	cp	r25, r24
     c96:	31 f0       	breq	.+12     	; 0xca4 <SaveGameState+0x4a>
            if (EEWrite(x, &gameState[x], 1)) return 1;
     c98:	41 e0       	ldi	r20, 0x01	; 1
     c9a:	b8 01       	movw	r22, r16
     c9c:	8f 2d       	mov	r24, r15
     c9e:	91 de       	rcall	.-734    	; 0x9c2 <EEWrite>
     ca0:	81 11       	cpse	r24, r1
     ca2:	08 c0       	rjmp	.+16     	; 0xcb4 <SaveGameState+0x5a>

//Save changed data to EEPROM
uint8_t SaveGameState(){
    uint8_t gameCheck[16];
    EERead(0, &gameCheck[0], 16);
    for (uint8_t x=0; x<16; ++x){
     ca4:	f3 94       	inc	r15
     ca6:	0f 5f       	subi	r16, 0xFF	; 255
     ca8:	1f 4f       	sbci	r17, 0xFF	; 255
     caa:	f0 e1       	ldi	r31, 0x10	; 16
     cac:	ff 12       	cpse	r15, r31
     cae:	ed cf       	rjmp	.-38     	; 0xc8a <SaveGameState+0x30>
        if (gameState[x] != gameCheck[x]){
            if (EEWrite(x, &gameState[x], 1)) return 1;
        }
    }
    return 0;
     cb0:	80 e0       	ldi	r24, 0x00	; 0
     cb2:	01 c0       	rjmp	.+2      	; 0xcb6 <SaveGameState+0x5c>
uint8_t SaveGameState(){
    uint8_t gameCheck[16];
    EERead(0, &gameCheck[0], 16);
    for (uint8_t x=0; x<16; ++x){
        if (gameState[x] != gameCheck[x]){
            if (EEWrite(x, &gameState[x], 1)) return 1;
     cb4:	81 e0       	ldi	r24, 0x01	; 1
        }
    }
    return 0;
}
     cb6:	60 96       	adiw	r28, 0x10	; 16
     cb8:	cd bf       	out	0x3d, r28	; 61
     cba:	de bf       	out	0x3e, r29	; 62
     cbc:	df 91       	pop	r29
     cbe:	cf 91       	pop	r28
     cc0:	1f 91       	pop	r17
     cc2:	0f 91       	pop	r16
     cc4:	ff 90       	pop	r15
     cc6:	df 90       	pop	r13
     cc8:	cf 90       	pop	r12
     cca:	08 95       	ret

00000ccc <ReadStatusBit>:

uint8_t ReadStatusBit(uint8_t number){
    number &= 0x3f;
    if (gameState[number>>3] & (1<<(number&7))) return 1; else return 0;
     ccc:	e8 2f       	mov	r30, r24
     cce:	ef 73       	andi	r30, 0x3F	; 63
     cd0:	e6 95       	lsr	r30
     cd2:	e6 95       	lsr	r30
     cd4:	e6 95       	lsr	r30
     cd6:	f0 e0       	ldi	r31, 0x00	; 0
     cd8:	e8 5b       	subi	r30, 0xB8	; 184
     cda:	f5 4c       	sbci	r31, 0xC5	; 197
     cdc:	20 81       	ld	r18, Z
     cde:	30 e0       	ldi	r19, 0x00	; 0
     ce0:	87 70       	andi	r24, 0x07	; 7
     ce2:	a9 01       	movw	r20, r18
     ce4:	02 c0       	rjmp	.+4      	; 0xcea <ReadStatusBit+0x1e>
     ce6:	55 95       	asr	r21
     ce8:	47 95       	ror	r20
     cea:	8a 95       	dec	r24
     cec:	e2 f7       	brpl	.-8      	; 0xce6 <ReadStatusBit+0x1a>
     cee:	ca 01       	movw	r24, r20
}
     cf0:	81 70       	andi	r24, 0x01	; 1
     cf2:	08 95       	ret

00000cf4 <WriteStatusBit>:

void WriteStatusBit(uint8_t number, uint8_t state){
    number &= 0x3f;
     cf4:	e8 2f       	mov	r30, r24
     cf6:	ef 73       	andi	r30, 0x3F	; 63
    if (state) gameState[number>>3] |= 1<<(number&7);
     cf8:	66 23       	and	r22, r22
     cfa:	a1 f0       	breq	.+40     	; 0xd24 <WriteStatusBit+0x30>
     cfc:	e6 95       	lsr	r30
     cfe:	e6 95       	lsr	r30
     d00:	e6 95       	lsr	r30
     d02:	f0 e0       	ldi	r31, 0x00	; 0
     d04:	e8 5b       	subi	r30, 0xB8	; 184
     d06:	f5 4c       	sbci	r31, 0xC5	; 197
     d08:	87 70       	andi	r24, 0x07	; 7
     d0a:	21 e0       	ldi	r18, 0x01	; 1
     d0c:	30 e0       	ldi	r19, 0x00	; 0
     d0e:	a9 01       	movw	r20, r18
     d10:	02 c0       	rjmp	.+4      	; 0xd16 <WriteStatusBit+0x22>
     d12:	44 0f       	add	r20, r20
     d14:	55 1f       	adc	r21, r21
     d16:	8a 95       	dec	r24
     d18:	e2 f7       	brpl	.-8      	; 0xd12 <WriteStatusBit+0x1e>
     d1a:	ca 01       	movw	r24, r20
     d1c:	90 81       	ld	r25, Z
     d1e:	89 2b       	or	r24, r25
     d20:	80 83       	st	Z, r24
     d22:	08 95       	ret
    else gameState[number>>3] &= ~(1<<(number&7));
     d24:	e6 95       	lsr	r30
     d26:	e6 95       	lsr	r30
     d28:	e6 95       	lsr	r30
     d2a:	f0 e0       	ldi	r31, 0x00	; 0
     d2c:	e8 5b       	subi	r30, 0xB8	; 184
     d2e:	f5 4c       	sbci	r31, 0xC5	; 197
     d30:	87 70       	andi	r24, 0x07	; 7
     d32:	21 e0       	ldi	r18, 0x01	; 1
     d34:	30 e0       	ldi	r19, 0x00	; 0
     d36:	a9 01       	movw	r20, r18
     d38:	02 c0       	rjmp	.+4      	; 0xd3e <WriteStatusBit+0x4a>
     d3a:	44 0f       	add	r20, r20
     d3c:	55 1f       	adc	r21, r21
     d3e:	8a 95       	dec	r24
     d40:	e2 f7       	brpl	.-8      	; 0xd3a <WriteStatusBit+0x46>
     d42:	ca 01       	movw	r24, r20
     d44:	80 95       	com	r24
     d46:	90 81       	ld	r25, Z
     d48:	89 23       	and	r24, r25
     d4a:	80 83       	st	Z, r24
     d4c:	08 95       	ret

00000d4e <Reset>:
}

void Reset(){
     d4e:	e8 e4       	ldi	r30, 0x48	; 72
     d50:	fa e3       	ldi	r31, 0x3A	; 58
     d52:	88 e5       	ldi	r24, 0x58	; 88
     d54:	9a e3       	ldi	r25, 0x3A	; 58
    //# 110   set to 1 by FW if badge UUID mod 4 == 0
    //# 111   set to 1 by FW if badge UUID mod 4 == 1
    //# 112   set to 1 by FW if badge UUID mod 4 == 2
    //# 113   set to 1 by FW if badge UUID mod 4 == 3
    for (uint8_t x=0; x<sizeof(gameState); ++x){
        gameState[x] = 0;
     d56:	11 92       	st	Z+, r1
    //Reset game progress (all zeroes) and load some bits:
    //# 110   set to 1 by FW if badge UUID mod 4 == 0
    //# 111   set to 1 by FW if badge UUID mod 4 == 1
    //# 112   set to 1 by FW if badge UUID mod 4 == 2
    //# 113   set to 1 by FW if badge UUID mod 4 == 3
    for (uint8_t x=0; x<sizeof(gameState); ++x){
     d58:	8e 17       	cp	r24, r30
     d5a:	9f 07       	cpc	r25, r31
     d5c:	e1 f7       	brne	.-8      	; 0xd56 <Reset+0x8>
     d5e:	e3 e0       	ldi	r30, 0x03	; 3
     d60:	f1 e1       	ldi	r31, 0x11	; 17
     d62:	80 e0       	ldi	r24, 0x00	; 0
    uint8_t *serNum;
    serNum = (uint8_t*)&SIGROW_SERNUM0;
    
    //Give out a number 0..3, calculated using serial number fields
    for (uint8_t x=0; x<10; ++x){
        id += *serNum;
     d64:	91 91       	ld	r25, Z+
     d66:	89 0f       	add	r24, r25
    uint8_t id = 0;
    uint8_t *serNum;
    serNum = (uint8_t*)&SIGROW_SERNUM0;
    
    //Give out a number 0..3, calculated using serial number fields
    for (uint8_t x=0; x<10; ++x){
     d68:	ed 30       	cpi	r30, 0x0D	; 13
     d6a:	91 e1       	ldi	r25, 0x11	; 17
     d6c:	f9 07       	cpc	r31, r25
     d6e:	d1 f7       	brne	.-12     	; 0xd64 <Reset+0x16>
        id += *serNum;
        ++serNum;
    }
    id %= 4;
     d70:	83 70       	andi	r24, 0x03	; 3

    //Write bit in gameState location 110..113
    if (id == 0) WriteStatusBit(110, 1);
     d72:	31 f4       	brne	.+12     	; 0xd80 <Reset+0x32>
    if (gameState[number>>3] & (1<<(number&7))) return 1; else return 0;
}

void WriteStatusBit(uint8_t number, uint8_t state){
    number &= 0x3f;
    if (state) gameState[number>>3] |= 1<<(number&7);
     d74:	e8 e4       	ldi	r30, 0x48	; 72
     d76:	fa e3       	ldi	r31, 0x3A	; 58
     d78:	85 81       	ldd	r24, Z+5	; 0x05
     d7a:	80 64       	ori	r24, 0x40	; 64
     d7c:	85 83       	std	Z+5, r24	; 0x05
     d7e:	17 c0       	rjmp	.+46     	; 0xdae <Reset+0x60>
    }
    id %= 4;

    //Write bit in gameState location 110..113
    if (id == 0) WriteStatusBit(110, 1);
    else if (id == 1) WriteStatusBit(111, 1);
     d80:	81 30       	cpi	r24, 0x01	; 1
     d82:	31 f4       	brne	.+12     	; 0xd90 <Reset+0x42>
    if (gameState[number>>3] & (1<<(number&7))) return 1; else return 0;
}

void WriteStatusBit(uint8_t number, uint8_t state){
    number &= 0x3f;
    if (state) gameState[number>>3] |= 1<<(number&7);
     d84:	e8 e4       	ldi	r30, 0x48	; 72
     d86:	fa e3       	ldi	r31, 0x3A	; 58
     d88:	85 81       	ldd	r24, Z+5	; 0x05
     d8a:	80 68       	ori	r24, 0x80	; 128
     d8c:	85 83       	std	Z+5, r24	; 0x05
     d8e:	0f c0       	rjmp	.+30     	; 0xdae <Reset+0x60>
    id %= 4;

    //Write bit in gameState location 110..113
    if (id == 0) WriteStatusBit(110, 1);
    else if (id == 1) WriteStatusBit(111, 1);
    else if (id == 2) WriteStatusBit(112, 1);
     d90:	82 30       	cpi	r24, 0x02	; 2
     d92:	31 f4       	brne	.+12     	; 0xda0 <Reset+0x52>
    if (gameState[number>>3] & (1<<(number&7))) return 1; else return 0;
}

void WriteStatusBit(uint8_t number, uint8_t state){
    number &= 0x3f;
    if (state) gameState[number>>3] |= 1<<(number&7);
     d94:	e8 e4       	ldi	r30, 0x48	; 72
     d96:	fa e3       	ldi	r31, 0x3A	; 58
     d98:	86 81       	ldd	r24, Z+6	; 0x06
     d9a:	81 60       	ori	r24, 0x01	; 1
     d9c:	86 83       	std	Z+6, r24	; 0x06
     d9e:	07 c0       	rjmp	.+14     	; 0xdae <Reset+0x60>

    //Write bit in gameState location 110..113
    if (id == 0) WriteStatusBit(110, 1);
    else if (id == 1) WriteStatusBit(111, 1);
    else if (id == 2) WriteStatusBit(112, 1);
    else if (id == 3) WriteStatusBit(113, 1);
     da0:	83 30       	cpi	r24, 0x03	; 3
     da2:	29 f4       	brne	.+10     	; 0xdae <Reset+0x60>
    if (gameState[number>>3] & (1<<(number&7))) return 1; else return 0;
}

void WriteStatusBit(uint8_t number, uint8_t state){
    number &= 0x3f;
    if (state) gameState[number>>3] |= 1<<(number&7);
     da4:	e8 e4       	ldi	r30, 0x48	; 72
     da6:	fa e3       	ldi	r31, 0x3A	; 58
     da8:	86 81       	ldd	r24, Z+6	; 0x06
     daa:	82 60       	ori	r24, 0x02	; 2
     dac:	86 83       	std	Z+6, r24	; 0x06
     dae:	e8 e4       	ldi	r30, 0x48	; 72
     db0:	fa e3       	ldi	r31, 0x3A	; 58
     db2:	80 81       	ld	r24, Z
     db4:	81 60       	ori	r24, 0x01	; 1
     db6:	80 83       	st	Z, r24
     db8:	08 95       	ret

00000dba <GenerateAudio>:
    WriteStatusBit(0, 1);
}

//void setupSound(uint8_t number){

void GenerateAudio(){
     dba:	0f 93       	push	r16
     dbc:	1f 93       	push	r17
     dbe:	cf 93       	push	r28
     dc0:	df 93       	push	r29
    static uint8_t auBuffer[128] = {0x80, 0};
    //auRepAddr = &auBuffer[0];

    //Audio for text adventure
    if ((effect&0xff00)==0) {
     dc2:	80 91 93 38 	lds	r24, 0x3893	; 0x803893 <effect>
     dc6:	90 91 94 38 	lds	r25, 0x3894	; 0x803894 <effect+0x1>
     dca:	88 27       	eor	r24, r24
     dcc:	89 2b       	or	r24, r25
     dce:	09 f0       	breq	.+2      	; 0xdd2 <GenerateAudio+0x18>
     dd0:	68 c0       	rjmp	.+208    	; 0xea2 <GenerateAudio+0xe8>

        //Silence
        if ((effect&0xE0)==0){
     dd2:	80 91 93 38 	lds	r24, 0x3893	; 0x803893 <effect>
     dd6:	90 91 94 38 	lds	r25, 0x3894	; 0x803894 <effect+0x1>
     dda:	80 7e       	andi	r24, 0xE0	; 224
     ddc:	99 27       	eor	r25, r25
     dde:	89 2b       	or	r24, r25
     de0:	39 f4       	brne	.+14     	; 0xdf0 <GenerateAudio+0x36>
            auRepAddr = zero;
     de2:	80 91 91 38 	lds	r24, 0x3891	; 0x803891 <zero>
     de6:	90 e0       	ldi	r25, 0x00	; 0
     de8:	80 93 00 38 	sts	0x3800, r24	; 0x803800 <__data_start>
     dec:	90 93 01 38 	sts	0x3801, r25	; 0x803801 <__data_start+0x1>
        }

        //Bad (buzzer)
        if ((effect&0xE0)==32){
     df0:	80 91 93 38 	lds	r24, 0x3893	; 0x803893 <effect>
     df4:	90 91 94 38 	lds	r25, 0x3894	; 0x803894 <effect+0x1>

        }

        //Good (bell)
        if ((effect&0xE0)==64){
     df8:	80 91 93 38 	lds	r24, 0x3893	; 0x803893 <effect>
     dfc:	90 91 94 38 	lds	r25, 0x3894	; 0x803894 <effect+0x1>
            //auBuffer = 
        }

        //Rain storm with whistling wind
        if ((effect&0xE0)==96){
     e00:	80 91 93 38 	lds	r24, 0x3893	; 0x803893 <effect>
     e04:	90 91 94 38 	lds	r25, 0x3894	; 0x803894 <effect+0x1>
     e08:	80 7e       	andi	r24, 0xE0	; 224
     e0a:	99 27       	eor	r25, r25
     e0c:	80 36       	cpi	r24, 0x60	; 96
     e0e:	91 05       	cpc	r25, r1
     e10:	09 f0       	breq	.+2      	; 0xe14 <GenerateAudio+0x5a>
     e12:	3b c0       	rjmp	.+118    	; 0xe8a <GenerateAudio+0xd0>
            auBuffer[6]= 0;        
     e14:	e5 e0       	ldi	r30, 0x05	; 5
     e16:	f8 e3       	ldi	r31, 0x38	; 56
     e18:	16 82       	std	Z+6, r1	; 0x06
            auRepAddr = &auBuffer[0];
     e1a:	e0 93 00 38 	sts	0x3800, r30	; 0x803800 <__data_start>
     e1e:	f0 93 01 38 	sts	0x3801, r31	; 0x803801 <__data_start+0x1>
     e22:	8f 01       	movw	r16, r30

            //Noise is to be generated fast, outside of buttonMark loop
            for (uint8_t x=1; x<6; ++x){
     e24:	c1 e0       	ldi	r28, 0x01	; 1
                if (x%3) auBuffer[x] = floatAround(0x80, 5, 0x01, 0x00);
     e26:	db ea       	ldi	r29, 0xAB	; 171
     e28:	cd 9f       	mul	r28, r29
     e2a:	81 2d       	mov	r24, r1
     e2c:	11 24       	eor	r1, r1
     e2e:	86 95       	lsr	r24
     e30:	98 2f       	mov	r25, r24
     e32:	99 0f       	add	r25, r25
     e34:	89 0f       	add	r24, r25
     e36:	c8 17       	cp	r28, r24
     e38:	39 f0       	breq	.+14     	; 0xe48 <GenerateAudio+0x8e>
     e3a:	20 e0       	ldi	r18, 0x00	; 0
     e3c:	41 e0       	ldi	r20, 0x01	; 1
     e3e:	65 e0       	ldi	r22, 0x05	; 5
     e40:	80 e8       	ldi	r24, 0x80	; 128
     e42:	e6 de       	rcall	.-564    	; 0xc10 <floatAround>
     e44:	f8 01       	movw	r30, r16
     e46:	81 83       	std	Z+1, r24	; 0x01
        if ((effect&0xE0)==96){
            auBuffer[6]= 0;        
            auRepAddr = &auBuffer[0];

            //Noise is to be generated fast, outside of buttonMark loop
            for (uint8_t x=1; x<6; ++x){
     e48:	cf 5f       	subi	r28, 0xFF	; 255
     e4a:	0f 5f       	subi	r16, 0xFF	; 255
     e4c:	1f 4f       	sbci	r17, 0xFF	; 255
     e4e:	c6 30       	cpi	r28, 0x06	; 6
     e50:	59 f7       	brne	.-42     	; 0xe28 <GenerateAudio+0x6e>
                if (x%3) auBuffer[x] = floatAround(0x80, 5, 0x01, 0x00);
            }

            if (buttonMark){
     e52:	80 91 95 38 	lds	r24, 0x3895	; 0x803895 <buttonMark>
     e56:	88 23       	and	r24, r24
     e58:	c1 f0       	breq	.+48     	; 0xe8a <GenerateAudio+0xd0>
                //"Floating" speed for howl (and noise, but that's hardly audible)
                floatSpeed(5, 0x0280, 0x0400);
     e5a:	40 e0       	ldi	r20, 0x00	; 0
     e5c:	54 e0       	ldi	r21, 0x04	; 4
     e5e:	60 e8       	ldi	r22, 0x80	; 128
     e60:	72 e0       	ldi	r23, 0x02	; 2
     e62:	85 e0       	ldi	r24, 0x05	; 5
     e64:	a1 de       	rcall	.-702    	; 0xba8 <floatSpeed>
            
                //"Floating" volume and wind howl during 8 bit rainstorm needs some randomness
                auVolume = floatAround(auVolume, 2, 0x10, 0xA0);
     e66:	80 91 99 3a 	lds	r24, 0x3A99	; 0x803a99 <auVolume>
     e6a:	20 ea       	ldi	r18, 0xA0	; 160
     e6c:	40 e1       	ldi	r20, 0x10	; 16
     e6e:	62 e0       	ldi	r22, 0x02	; 2
     e70:	cf de       	rcall	.-610    	; 0xc10 <floatAround>
     e72:	80 93 99 3a 	sts	0x3A99, r24	; 0x803a99 <auVolume>
                auBuffer[0] = floatAround(auBuffer[0], 2, 0x70, 0x90);
     e76:	c5 e0       	ldi	r28, 0x05	; 5
     e78:	d8 e3       	ldi	r29, 0x38	; 56
     e7a:	20 e9       	ldi	r18, 0x90	; 144
     e7c:	40 e7       	ldi	r20, 0x70	; 112
     e7e:	62 e0       	ldi	r22, 0x02	; 2
     e80:	88 81       	ld	r24, Y
     e82:	c6 de       	rcall	.-628    	; 0xc10 <floatAround>
     e84:	88 83       	st	Y, r24
                auBuffer[3] = 0xFF-auBuffer[0];  //Inverse value of wind[0] produces a whistle
     e86:	80 95       	com	r24
     e88:	8b 83       	std	Y+3, r24	; 0x03
            }
        }

        //Footsteps
        if ((effect&0xE0)==128){
     e8a:	80 91 93 38 	lds	r24, 0x3893	; 0x803893 <effect>
     e8e:	90 91 94 38 	lds	r25, 0x3894	; 0x803894 <effect+0x1>

        }

        //Knocking
        if ((effect&0xE0)==160){
     e92:	80 91 93 38 	lds	r24, 0x3893	; 0x803893 <effect>
     e96:	90 91 94 38 	lds	r25, 0x3894	; 0x803894 <effect+0x1>

        }

        //Scream
        if ((effect&0xE0)==192){
     e9a:	80 91 93 38 	lds	r24, 0x3893	; 0x803893 <effect>
     e9e:	90 91 94 38 	lds	r25, 0x3894	; 0x803894 <effect+0x1>

        //Rain storm with whistling wind
        else {
        }
    }
     ea2:	df 91       	pop	r29
     ea4:	cf 91       	pop	r28
     ea6:	1f 91       	pop	r17
     ea8:	0f 91       	pop	r16
     eaa:	08 95       	ret

00000eac <BastetDictates>:

// Main game loop
uint8_t BastetDictates(){
  
    return 0;
}
     eac:	80 e0       	ldi	r24, 0x00	; 0
     eae:	08 95       	ret

00000eb0 <DecryptData>:
    uint8_t clearBit = num & STATUS_BITS;
    num &= (STATUS_BITS-1);
    if (clearBit) {
        WriteStatusBit(num, 0);
    } else {
        WriteStatusBit(num, 1);
     eb0:	cf 93       	push	r28
     eb2:	df 93       	push	r29
     eb4:	dc 01       	movw	r26, r24
     eb6:	e9 01       	movw	r28, r18
     eb8:	66 23       	and	r22, r22
     eba:	a9 f0       	breq	.+42     	; 0xee6 <DecryptData+0x36>
     ebc:	50 e0       	ldi	r21, 0x00	; 0
     ebe:	44 0f       	add	r20, r20
     ec0:	55 1f       	adc	r21, r21
     ec2:	44 0f       	add	r20, r20
     ec4:	55 1f       	adc	r21, r21
     ec6:	44 0f       	add	r20, r20
     ec8:	55 1f       	adc	r21, r21
     eca:	40 58       	subi	r20, 0x80	; 128
     ecc:	51 46       	sbci	r21, 0x61	; 97
     ece:	fd 01       	movw	r30, r26
     ed0:	e7 70       	andi	r30, 0x07	; 7
     ed2:	ff 27       	eor	r31, r31
     ed4:	e4 0f       	add	r30, r20
     ed6:	f5 1f       	adc	r31, r21
     ed8:	88 81       	ld	r24, Y
     eda:	90 81       	ld	r25, Z
     edc:	98 27       	eor	r25, r24
     ede:	99 93       	st	Y+, r25
     ee0:	11 96       	adiw	r26, 0x01	; 1
     ee2:	61 50       	subi	r22, 0x01	; 1
     ee4:	a1 f7       	brne	.-24     	; 0xece <DecryptData+0x1e>
     ee6:	df 91       	pop	r29
     ee8:	cf 91       	pop	r28
     eea:	08 95       	ret

00000eec <ExtEERead>:
     eec:	af 92       	push	r10
     eee:	bf 92       	push	r11
     ef0:	cf 92       	push	r12
     ef2:	df 92       	push	r13
     ef4:	ef 92       	push	r14
     ef6:	ff 92       	push	r15
     ef8:	0f 93       	push	r16
     efa:	1f 93       	push	r17
     efc:	cf 93       	push	r28
     efe:	df 93       	push	r29
     f00:	00 d0       	rcall	.+0      	; 0xf02 <ExtEERead+0x16>
     f02:	cd b7       	in	r28, 0x3d	; 61
     f04:	de b7       	in	r29, 0x3e	; 62
     f06:	d6 2e       	mov	r13, r22
     f08:	c4 2e       	mov	r12, r20
     f0a:	59 01       	movw	r10, r18
     f0c:	7c 01       	movw	r14, r24
     f0e:	e8 94       	clt
     f10:	f7 f8       	bld	r15, 7
     f12:	f9 82       	std	Y+1, r15	; 0x01
     f14:	ea 82       	std	Y+2, r14	; 0x02
     f16:	06 2f       	mov	r16, r22
     f18:	42 e0       	ldi	r20, 0x02	; 2
     f1a:	be 01       	movw	r22, r28
     f1c:	6f 5f       	subi	r22, 0xFF	; 255
     f1e:	7f 4f       	sbci	r23, 0xFF	; 255
     f20:	80 e5       	ldi	r24, 0x50	; 80
     f22:	c0 d9       	rcall	.-3200   	; 0x2a4 <I2C_read_bytes>
     f24:	18 2f       	mov	r17, r24
     f26:	81 11       	cpse	r24, r1
     f28:	05 c0       	rjmp	.+10     	; 0xf34 <ExtEERead+0x48>
     f2a:	95 01       	movw	r18, r10
     f2c:	4c 2d       	mov	r20, r12
     f2e:	6d 2d       	mov	r22, r13
     f30:	c7 01       	movw	r24, r14
     f32:	be df       	rcall	.-132    	; 0xeb0 <DecryptData>
     f34:	81 2f       	mov	r24, r17
     f36:	0f 90       	pop	r0
     f38:	0f 90       	pop	r0
     f3a:	df 91       	pop	r29
     f3c:	cf 91       	pop	r28
     f3e:	1f 91       	pop	r17
     f40:	0f 91       	pop	r16
     f42:	ff 90       	pop	r15
     f44:	ef 90       	pop	r14
     f46:	df 90       	pop	r13
     f48:	cf 90       	pop	r12
     f4a:	bf 90       	pop	r11
     f4c:	af 90       	pop	r10
     f4e:	08 95       	ret

00000f50 <ClearTxAfter>:
     f50:	8f 5f       	subi	r24, 0xFF	; 255
     f52:	88 30       	cpi	r24, 0x08	; 8
     f54:	40 f4       	brcc	.+16     	; 0xf66 <ClearTxAfter+0x16>
     f56:	e8 2f       	mov	r30, r24
     f58:	f0 e0       	ldi	r31, 0x00	; 0
     f5a:	e2 5d       	subi	r30, 0xD2	; 210
     f5c:	f5 4c       	sbci	r31, 0xC5	; 197
     f5e:	10 82       	st	Z, r1
     f60:	8f 5f       	subi	r24, 0xFF	; 255
     f62:	88 30       	cpi	r24, 0x08	; 8
     f64:	c1 f7       	brne	.-16     	; 0xf56 <ClearTxAfter+0x6>
     f66:	08 95       	ret

00000f68 <StartsWith>:
     f68:	fc 01       	movw	r30, r24
     f6a:	90 81       	ld	r25, Z
     f6c:	91 11       	cpse	r25, r1
     f6e:	07 c0       	rjmp	.+14     	; 0xf7e <StartsWith+0x16>
     f70:	81 e0       	ldi	r24, 0x01	; 1
     f72:	08 95       	ret
     f74:	81 e0       	ldi	r24, 0x01	; 1
     f76:	92 17       	cp	r25, r18
     f78:	39 f0       	breq	.+14     	; 0xf88 <StartsWith+0x20>
     f7a:	80 e0       	ldi	r24, 0x00	; 0
     f7c:	08 95       	ret
     f7e:	fb 01       	movw	r30, r22
     f80:	20 81       	ld	r18, Z
     f82:	21 11       	cpse	r18, r1
     f84:	f7 cf       	rjmp	.-18     	; 0xf74 <StartsWith+0xc>
     f86:	81 e0       	ldi	r24, 0x01	; 1
     f88:	08 95       	ret

00000f8a <PrepareSending>:
     f8a:	cf 93       	push	r28
     f8c:	df 93       	push	r29
     f8e:	fb 01       	movw	r30, r22
     f90:	30 97       	sbiw	r30, 0x00	; 0
     f92:	81 f4       	brne	.+32     	; 0xfb4 <PrepareSending+0x2a>
     f94:	24 c0       	rjmp	.+72     	; 0xfde <PrepareSending+0x54>
     f96:	89 93       	st	Y+, r24
     f98:	99 93       	st	Y+, r25
     f9a:	2d 93       	st	X+, r18
     f9c:	81 50       	subi	r24, 0x01	; 1
     f9e:	9f 4f       	sbci	r25, 0xFF	; 255
     fa0:	ef 5f       	subi	r30, 0xFF	; 255
     fa2:	f1 09       	sbc	r31, r1
     fa4:	5f 5f       	subi	r21, 0xFF	; 255
     fa6:	57 30       	cpi	r21, 0x07	; 7
     fa8:	29 f1       	breq	.+74     	; 0xff4 <PrepareSending+0x6a>
     faa:	ef 3f       	cpi	r30, 0xFF	; 255
     fac:	f1 05       	cpc	r31, r1
     fae:	09 f0       	breq	.+2      	; 0xfb2 <PrepareSending+0x28>
     fb0:	90 f7       	brcc	.-28     	; 0xf96 <PrepareSending+0xc>
     fb2:	23 c0       	rjmp	.+70     	; 0xffa <PrepareSending+0x70>
     fb4:	6f 3f       	cpi	r22, 0xFF	; 255
     fb6:	71 05       	cpc	r23, r1
     fb8:	f9 f0       	breq	.+62     	; 0xff8 <PrepareSending+0x6e>
     fba:	f0 f0       	brcs	.+60     	; 0xff8 <PrepareSending+0x6e>
     fbc:	80 93 36 3a 	sts	0x3A36, r24	; 0x803a36 <txAddrList>
     fc0:	90 93 37 3a 	sts	0x3A37, r25	; 0x803a37 <txAddrList+0x1>
     fc4:	2f ef       	ldi	r18, 0xFF	; 255
     fc6:	20 93 2e 3a 	sts	0x3A2E, r18	; 0x803a2e <txStrLen>
     fca:	81 50       	subi	r24, 0x01	; 1
     fcc:	9f 4f       	sbci	r25, 0xFF	; 255
     fce:	ef 5f       	subi	r30, 0xFF	; 255
     fd0:	f1 09       	sbc	r31, r1
     fd2:	c8 e3       	ldi	r28, 0x38	; 56
     fd4:	da e3       	ldi	r29, 0x3A	; 58
     fd6:	af e2       	ldi	r26, 0x2F	; 47
     fd8:	ba e3       	ldi	r27, 0x3A	; 58
     fda:	51 e0       	ldi	r21, 0x01	; 1
     fdc:	e6 cf       	rjmp	.-52     	; 0xfaa <PrepareSending+0x20>
     fde:	10 92 36 3a 	sts	0x3A36, r1	; 0x803a36 <txAddrList>
     fe2:	10 92 37 3a 	sts	0x3A37, r1	; 0x803a37 <txAddrList+0x1>
     fe6:	50 e0       	ldi	r21, 0x00	; 0
     fe8:	85 2f       	mov	r24, r21
     fea:	b2 df       	rcall	.-156    	; 0xf50 <ClearTxAfter>
     fec:	10 92 2d 3a 	sts	0x3A2D, r1	; 0x803a2d <txAddrNow>
     ff0:	80 e0       	ldi	r24, 0x00	; 0
     ff2:	24 c0       	rjmp	.+72     	; 0x103c <PrepareSending+0xb2>
     ff4:	81 e0       	ldi	r24, 0x01	; 1
     ff6:	22 c0       	rjmp	.+68     	; 0x103c <PrepareSending+0xb2>
     ff8:	50 e0       	ldi	r21, 0x00	; 0
     ffa:	25 2f       	mov	r18, r21
     ffc:	30 e0       	ldi	r19, 0x00	; 0
     ffe:	d9 01       	movw	r26, r18
    1000:	aa 0f       	add	r26, r26
    1002:	bb 1f       	adc	r27, r27
    1004:	aa 5c       	subi	r26, 0xCA	; 202
    1006:	b5 4c       	sbci	r27, 0xC5	; 197
    1008:	8d 93       	st	X+, r24
    100a:	9c 93       	st	X, r25
    100c:	e9 01       	movw	r28, r18
    100e:	c2 5d       	subi	r28, 0xD2	; 210
    1010:	d5 4c       	sbci	r29, 0xC5	; 197
    1012:	9f 01       	movw	r18, r30
    1014:	a1 e8       	ldi	r26, 0x81	; 129
    1016:	b0 e8       	ldi	r27, 0x80	; 128
    1018:	0b d7       	rcall	.+3606   	; 0x1e30 <__umulhisi3>
    101a:	88 0f       	add	r24, r24
    101c:	89 2f       	mov	r24, r25
    101e:	88 1f       	adc	r24, r24
    1020:	99 0b       	sbc	r25, r25
    1022:	91 95       	neg	r25
    1024:	6f ef       	ldi	r22, 0xFF	; 255
    1026:	68 9f       	mul	r22, r24
    1028:	90 01       	movw	r18, r0
    102a:	69 9f       	mul	r22, r25
    102c:	30 0d       	add	r19, r0
    102e:	11 24       	eor	r1, r1
    1030:	e2 1b       	sub	r30, r18
    1032:	f3 0b       	sbc	r31, r19
    1034:	e8 83       	st	Y, r30
    1036:	40 93 2c 3a 	sts	0x3A2C, r20	; 0x803a2c <txTypeNow>
    103a:	d6 cf       	rjmp	.-84     	; 0xfe8 <PrepareSending+0x5e>
    103c:	df 91       	pop	r29
    103e:	cf 91       	pop	r28
    1040:	08 95       	ret

00001042 <SetStandardResponse>:
    1042:	cf 93       	push	r28
    1044:	df 93       	push	r29
    1046:	28 2f       	mov	r18, r24
    1048:	30 e0       	ldi	r19, 0x00	; 0
    104a:	f9 01       	movw	r30, r18
    104c:	ee 0f       	add	r30, r30
    104e:	ff 1f       	adc	r31, r31
    1050:	ec 5f       	subi	r30, 0xFC	; 252
    1052:	f6 4c       	sbci	r31, 0xC6	; 198
    1054:	c6 e8       	ldi	r28, 0x86	; 134
    1056:	da e7       	ldi	r29, 0x7A	; 122
    1058:	c0 83       	st	Z, r28
    105a:	d1 83       	std	Z+1, r29	; 0x01
    105c:	f9 01       	movw	r30, r18
    105e:	ee 0f       	add	r30, r30
    1060:	ff 1f       	adc	r31, r31
    1062:	ec 5b       	subi	r30, 0xBC	; 188
    1064:	f6 4c       	sbci	r31, 0xC6	; 198
    1066:	a2 e0       	ldi	r26, 0x02	; 2
    1068:	b0 e0       	ldi	r27, 0x00	; 0
    106a:	a0 83       	st	Z, r26
    106c:	b1 83       	std	Z+1, r27	; 0x01
    106e:	22 0f       	add	r18, r18
    1070:	33 1f       	adc	r19, r19
    1072:	f9 01       	movw	r30, r18
    1074:	ec 57       	subi	r30, 0x7C	; 124
    1076:	f6 4c       	sbci	r31, 0xC6	; 198
    1078:	41 e0       	ldi	r20, 0x01	; 1
    107a:	50 e0       	ldi	r21, 0x00	; 0
    107c:	40 83       	st	Z, r20
    107e:	51 83       	std	Z+1, r21	; 0x01
    1080:	21 e0       	ldi	r18, 0x01	; 1
    1082:	28 0f       	add	r18, r24
    1084:	30 e0       	ldi	r19, 0x00	; 0
    1086:	f9 01       	movw	r30, r18
    1088:	ee 0f       	add	r30, r30
    108a:	ff 1f       	adc	r31, r31
    108c:	ec 5f       	subi	r30, 0xFC	; 252
    108e:	f6 4c       	sbci	r31, 0xC6	; 198
    1090:	6b e8       	ldi	r22, 0x8B	; 139
    1092:	7a e7       	ldi	r23, 0x7A	; 122
    1094:	60 83       	st	Z, r22
    1096:	71 83       	std	Z+1, r23	; 0x01
    1098:	f9 01       	movw	r30, r18
    109a:	ee 0f       	add	r30, r30
    109c:	ff 1f       	adc	r31, r31
    109e:	ec 5b       	subi	r30, 0xBC	; 188
    10a0:	f6 4c       	sbci	r31, 0xC6	; 198
    10a2:	6b e0       	ldi	r22, 0x0B	; 11
    10a4:	70 e0       	ldi	r23, 0x00	; 0
    10a6:	60 83       	st	Z, r22
    10a8:	71 83       	std	Z+1, r23	; 0x01
    10aa:	22 0f       	add	r18, r18
    10ac:	33 1f       	adc	r19, r19
    10ae:	f9 01       	movw	r30, r18
    10b0:	ec 57       	subi	r30, 0x7C	; 124
    10b2:	f6 4c       	sbci	r31, 0xC6	; 198
    10b4:	40 83       	st	Z, r20
    10b6:	51 83       	std	Z+1, r21	; 0x01
    10b8:	22 e0       	ldi	r18, 0x02	; 2
    10ba:	28 0f       	add	r18, r24
    10bc:	30 e0       	ldi	r19, 0x00	; 0
    10be:	f9 01       	movw	r30, r18
    10c0:	ee 0f       	add	r30, r30
    10c2:	ff 1f       	adc	r31, r31
    10c4:	ec 5f       	subi	r30, 0xFC	; 252
    10c6:	f6 4c       	sbci	r31, 0xC6	; 198
    10c8:	6a e8       	ldi	r22, 0x8A	; 138
    10ca:	7a e7       	ldi	r23, 0x7A	; 122
    10cc:	60 83       	st	Z, r22
    10ce:	71 83       	std	Z+1, r23	; 0x01
    10d0:	f9 01       	movw	r30, r18
    10d2:	ee 0f       	add	r30, r30
    10d4:	ff 1f       	adc	r31, r31
    10d6:	ec 5b       	subi	r30, 0xBC	; 188
    10d8:	f6 4c       	sbci	r31, 0xC6	; 198
    10da:	40 83       	st	Z, r20
    10dc:	51 83       	std	Z+1, r21	; 0x01
    10de:	22 0f       	add	r18, r18
    10e0:	33 1f       	adc	r19, r19
    10e2:	f9 01       	movw	r30, r18
    10e4:	ec 57       	subi	r30, 0x7C	; 124
    10e6:	f6 4c       	sbci	r31, 0xC6	; 198
    10e8:	40 83       	st	Z, r20
    10ea:	51 83       	std	Z+1, r21	; 0x01
    10ec:	e3 e0       	ldi	r30, 0x03	; 3
    10ee:	e8 0f       	add	r30, r24
    10f0:	f0 e0       	ldi	r31, 0x00	; 0
    10f2:	ee 0f       	add	r30, r30
    10f4:	ff 1f       	adc	r31, r31
    10f6:	ec 5f       	subi	r30, 0xFC	; 252
    10f8:	f6 4c       	sbci	r31, 0xC6	; 198
    10fa:	20 ef       	ldi	r18, 0xF0	; 240
    10fc:	3f ef       	ldi	r19, 0xFF	; 255
    10fe:	20 83       	st	Z, r18
    1100:	31 83       	std	Z+1, r19	; 0x01
    1102:	24 e0       	ldi	r18, 0x04	; 4
    1104:	28 0f       	add	r18, r24
    1106:	30 e0       	ldi	r19, 0x00	; 0
    1108:	f9 01       	movw	r30, r18
    110a:	ee 0f       	add	r30, r30
    110c:	ff 1f       	adc	r31, r31
    110e:	ec 5f       	subi	r30, 0xFC	; 252
    1110:	f6 4c       	sbci	r31, 0xC6	; 198
    1112:	c0 83       	st	Z, r28
    1114:	d1 83       	std	Z+1, r29	; 0x01
    1116:	f9 01       	movw	r30, r18
    1118:	ee 0f       	add	r30, r30
    111a:	ff 1f       	adc	r31, r31
    111c:	ec 5b       	subi	r30, 0xBC	; 188
    111e:	f6 4c       	sbci	r31, 0xC6	; 198
    1120:	40 83       	st	Z, r20
    1122:	51 83       	std	Z+1, r21	; 0x01
    1124:	22 0f       	add	r18, r18
    1126:	33 1f       	adc	r19, r19
    1128:	f9 01       	movw	r30, r18
    112a:	ec 57       	subi	r30, 0x7C	; 124
    112c:	f6 4c       	sbci	r31, 0xC6	; 198
    112e:	40 83       	st	Z, r20
    1130:	51 83       	std	Z+1, r21	; 0x01
    1132:	25 e0       	ldi	r18, 0x05	; 5
    1134:	28 0f       	add	r18, r24
    1136:	30 e0       	ldi	r19, 0x00	; 0
    1138:	f9 01       	movw	r30, r18
    113a:	ee 0f       	add	r30, r30
    113c:	ff 1f       	adc	r31, r31
    113e:	ec 5f       	subi	r30, 0xFC	; 252
    1140:	f6 4c       	sbci	r31, 0xC6	; 198
    1142:	c2 e8       	ldi	r28, 0x82	; 130
    1144:	da e7       	ldi	r29, 0x7A	; 122
    1146:	c0 83       	st	Z, r28
    1148:	d1 83       	std	Z+1, r29	; 0x01
    114a:	f9 01       	movw	r30, r18
    114c:	ee 0f       	add	r30, r30
    114e:	ff 1f       	adc	r31, r31
    1150:	ec 5b       	subi	r30, 0xBC	; 188
    1152:	f6 4c       	sbci	r31, 0xC6	; 198
    1154:	a0 83       	st	Z, r26
    1156:	b1 83       	std	Z+1, r27	; 0x01
    1158:	22 0f       	add	r18, r18
    115a:	33 1f       	adc	r19, r19
    115c:	f9 01       	movw	r30, r18
    115e:	ec 57       	subi	r30, 0x7C	; 124
    1160:	f6 4c       	sbci	r31, 0xC6	; 198
    1162:	40 83       	st	Z, r20
    1164:	51 83       	std	Z+1, r21	; 0x01
    1166:	26 e0       	ldi	r18, 0x06	; 6
    1168:	28 0f       	add	r18, r24
    116a:	30 e0       	ldi	r19, 0x00	; 0
    116c:	f9 01       	movw	r30, r18
    116e:	ee 0f       	add	r30, r30
    1170:	ff 1f       	adc	r31, r31
    1172:	ec 5f       	subi	r30, 0xFC	; 252
    1174:	f6 4c       	sbci	r31, 0xC6	; 198
    1176:	60 83       	st	Z, r22
    1178:	71 83       	std	Z+1, r23	; 0x01
    117a:	f9 01       	movw	r30, r18
    117c:	ee 0f       	add	r30, r30
    117e:	ff 1f       	adc	r31, r31
    1180:	ec 5b       	subi	r30, 0xBC	; 188
    1182:	f6 4c       	sbci	r31, 0xC6	; 198
    1184:	40 83       	st	Z, r20
    1186:	51 83       	std	Z+1, r21	; 0x01
    1188:	22 0f       	add	r18, r18
    118a:	33 1f       	adc	r19, r19
    118c:	f9 01       	movw	r30, r18
    118e:	ec 57       	subi	r30, 0x7C	; 124
    1190:	f6 4c       	sbci	r31, 0xC6	; 198
    1192:	40 83       	st	Z, r20
    1194:	51 83       	std	Z+1, r21	; 0x01
    1196:	89 5f       	subi	r24, 0xF9	; 249
    1198:	df 91       	pop	r29
    119a:	cf 91       	pop	r28
    119c:	08 95       	ret

0000119e <PopulateObject>:
    119e:	cf 92       	push	r12
    11a0:	df 92       	push	r13
    11a2:	ef 92       	push	r14
    11a4:	ff 92       	push	r15
    11a6:	0f 93       	push	r16
    11a8:	1f 93       	push	r17
    11aa:	cf 93       	push	r28
    11ac:	df 93       	push	r29
    11ae:	cd b7       	in	r28, 0x3d	; 61
    11b0:	de b7       	in	r29, 0x3e	; 62
    11b2:	2c 97       	sbiw	r28, 0x0c	; 12
    11b4:	cd bf       	out	0x3d, r28	; 61
    11b6:	de bf       	out	0x3e, r29	; 62
    11b8:	8c 01       	movw	r16, r24
    11ba:	6b 01       	movw	r12, r22
    11bc:	9e 01       	movw	r18, r28
    11be:	2f 5f       	subi	r18, 0xFF	; 255
    11c0:	3f 4f       	sbci	r19, 0xFF	; 255
    11c2:	40 e0       	ldi	r20, 0x00	; 0
    11c4:	6c e0       	ldi	r22, 0x0C	; 12
    11c6:	80 96       	adiw	r24, 0x20	; 32
    11c8:	91 de       	rcall	.-734    	; 0xeec <ExtEERead>
    11ca:	89 81       	ldd	r24, Y+1	; 0x01
    11cc:	90 e0       	ldi	r25, 0x00	; 0
    11ce:	98 2f       	mov	r25, r24
    11d0:	88 27       	eor	r24, r24
    11d2:	2a 81       	ldd	r18, Y+2	; 0x02
    11d4:	82 2b       	or	r24, r18
    11d6:	80 96       	adiw	r24, 0x20	; 32
    11d8:	f6 01       	movw	r30, r12
    11da:	80 83       	st	Z, r24
    11dc:	91 83       	std	Z+1, r25	; 0x01
    11de:	8b 81       	ldd	r24, Y+3	; 0x03
    11e0:	90 e0       	ldi	r25, 0x00	; 0
    11e2:	98 2f       	mov	r25, r24
    11e4:	88 27       	eor	r24, r24
    11e6:	2c 81       	ldd	r18, Y+4	; 0x04
    11e8:	82 2b       	or	r24, r18
    11ea:	80 96       	adiw	r24, 0x20	; 32
    11ec:	82 83       	std	Z+2, r24	; 0x02
    11ee:	93 83       	std	Z+3, r25	; 0x03
    11f0:	fe 01       	movw	r30, r28
    11f2:	35 96       	adiw	r30, 0x05	; 5
    11f4:	d6 01       	movw	r26, r12
    11f6:	14 96       	adiw	r26, 0x04	; 4
    11f8:	9e 01       	movw	r18, r28
    11fa:	23 5f       	subi	r18, 0xF3	; 243
    11fc:	3f 4f       	sbci	r19, 0xFF	; 255
    11fe:	81 91       	ld	r24, Z+
    1200:	8d 93       	st	X+, r24
    1202:	e2 17       	cp	r30, r18
    1204:	f3 07       	cpc	r31, r19
    1206:	d9 f7       	brne	.-10     	; 0x11fe <PopulateObject+0x60>
    1208:	04 5d       	subi	r16, 0xD4	; 212
    120a:	1f 4f       	sbci	r17, 0xFF	; 255
    120c:	76 01       	movw	r14, r12
    120e:	fc e0       	ldi	r31, 0x0C	; 12
    1210:	ef 0e       	add	r14, r31
    1212:	f1 1c       	adc	r15, r1
    1214:	8a e1       	ldi	r24, 0x1A	; 26
    1216:	c8 0e       	add	r12, r24
    1218:	d1 1c       	adc	r13, r1
    121a:	9e 01       	movw	r18, r28
    121c:	2f 5f       	subi	r18, 0xFF	; 255
    121e:	3f 4f       	sbci	r19, 0xFF	; 255
    1220:	40 e0       	ldi	r20, 0x00	; 0
    1222:	62 e0       	ldi	r22, 0x02	; 2
    1224:	c8 01       	movw	r24, r16
    1226:	62 de       	rcall	.-828    	; 0xeec <ExtEERead>
    1228:	29 81       	ldd	r18, Y+1	; 0x01
    122a:	30 e0       	ldi	r19, 0x00	; 0
    122c:	32 2f       	mov	r19, r18
    122e:	22 27       	eor	r18, r18
    1230:	8a 81       	ldd	r24, Y+2	; 0x02
    1232:	28 2b       	or	r18, r24
    1234:	f7 01       	movw	r30, r14
    1236:	26 87       	std	Z+14, r18	; 0x0e
    1238:	37 87       	std	Z+15, r19	; 0x0f
    123a:	0e 5f       	subi	r16, 0xFE	; 254
    123c:	1f 4f       	sbci	r17, 0xFF	; 255
    123e:	01 93       	st	Z+, r16
    1240:	11 93       	st	Z+, r17
    1242:	7f 01       	movw	r14, r30
    1244:	02 0f       	add	r16, r18
    1246:	13 1f       	adc	r17, r19
    1248:	ec 15       	cp	r30, r12
    124a:	fd 05       	cpc	r31, r13
    124c:	31 f7       	brne	.-52     	; 0x121a <PopulateObject+0x7c>
    124e:	2c 96       	adiw	r28, 0x0c	; 12
    1250:	cd bf       	out	0x3d, r28	; 61
    1252:	de bf       	out	0x3e, r29	; 62
    1254:	df 91       	pop	r29
    1256:	cf 91       	pop	r28
    1258:	1f 91       	pop	r17
    125a:	0f 91       	pop	r16
    125c:	ff 90       	pop	r15
    125e:	ef 90       	pop	r14
    1260:	df 90       	pop	r13
    1262:	cf 90       	pop	r12
    1264:	08 95       	ret

00001266 <GetState>:
    }
}

//Returns the state of the bit on position "num"
uint8_t GetState(uint8_t num){
    if ((num)&&(num<STATUS_BITS)){
    1266:	18 16       	cp	r1, r24
    1268:	14 f4       	brge	.+4      	; 0x126e <GetState+0x8>
        return ReadStatusBit(num);
    126a:	30 cd       	rjmp	.-1440   	; 0xccc <ReadStatusBit>
    126c:	08 95       	ret
    }
    return 1;
    126e:	81 e0       	ldi	r24, 0x01	; 1
}
    1270:	08 95       	ret

00001272 <CheckState>:

//Checks if state of bit BBBBbbb matches with v (inverted) bit
uint8_t CheckState(uint8_t num){
    1272:	cf 93       	push	r28
    1274:	c8 2f       	mov	r28, r24
    return (GetState(num&(STATUS_BITS-1)) == (1-(num&STATUS_BITS))); 
    1276:	8f 77       	andi	r24, 0x7F	; 127
    1278:	f6 df       	rcall	.-20     	; 0x1266 <GetState>
    127a:	c0 78       	andi	r28, 0x80	; 128
    127c:	41 e0       	ldi	r20, 0x01	; 1
    127e:	50 e0       	ldi	r21, 0x00	; 0
    1280:	4c 1b       	sub	r20, r28
    1282:	51 09       	sbc	r21, r1
    1284:	28 2f       	mov	r18, r24
    1286:	30 e0       	ldi	r19, 0x00	; 0
    1288:	81 e0       	ldi	r24, 0x01	; 1
    128a:	42 17       	cp	r20, r18
    128c:	53 07       	cpc	r21, r19
    128e:	09 f0       	breq	.+2      	; 0x1292 <CheckState+0x20>
    1290:	80 e0       	ldi	r24, 0x00	; 0
}
    1292:	cf 91       	pop	r28
    1294:	08 95       	ret

00001296 <CheckLetter>:

//Check if the entered letter corresponds with a name
uint8_t CheckLetter(uint16_t child, uint8_t letter){
    1296:	cf 92       	push	r12
    1298:	df 92       	push	r13
    129a:	ef 92       	push	r14
    129c:	ff 92       	push	r15
    129e:	0f 93       	push	r16
    12a0:	1f 93       	push	r17
    12a2:	cf 93       	push	r28
    12a4:	df 93       	push	r29
    12a6:	cd b7       	in	r28, 0x3d	; 61
    12a8:	de b7       	in	r29, 0x3e	; 62
    12aa:	a0 97       	sbiw	r28, 0x20	; 32
    12ac:	cd bf       	out	0x3d, r28	; 61
    12ae:	de bf       	out	0x3e, r29	; 62
    12b0:	c6 2e       	mov	r12, r22
    
    uint8_t found = 0;
    uint8_t data[32];

    child += L_BOILER;
    12b2:	7c 01       	movw	r14, r24
    12b4:	20 e2       	ldi	r18, 0x20	; 32
    12b6:	e2 0e       	add	r14, r18
    12b8:	f1 1c       	adc	r15, r1
    ExtEERead(child+OFF_STRINGFLDS, 2, GAME, &data[0]);
    12ba:	9e 01       	movw	r18, r28
    12bc:	2f 5f       	subi	r18, 0xFF	; 255
    12be:	3f 4f       	sbci	r19, 0xFF	; 255
    12c0:	40 e0       	ldi	r20, 0x00	; 0
    12c2:	62 e0       	ldi	r22, 0x02	; 2
    12c4:	8c 96       	adiw	r24, 0x2c	; 44
    12c6:	12 de       	rcall	.-988    	; 0xeec <ExtEERead>
    uint8_t x = data[1]; //Assuming a name is not longer than 255 characters.
    12c8:	0a 81       	ldd	r16, Y+2	; 0x02

    while (x){
    12ca:	00 23       	and	r16, r16
    12cc:	59 f1       	breq	.+86     	; 0x1324 <CheckLetter+0x8e>
    12ce:	d1 2c       	mov	r13, r1
        uint8_t max = (x>32)?32:x;
    12d0:	10 2f       	mov	r17, r16
    12d2:	01 32       	cpi	r16, 0x21	; 33
    12d4:	08 f0       	brcs	.+2      	; 0x12d8 <CheckLetter+0x42>
    12d6:	10 e2       	ldi	r17, 0x20	; 32
        ExtEERead(child+OFF_STRINGFLDS+1, max, GAME, &data[0]);
    12d8:	9e 01       	movw	r18, r28
    12da:	2f 5f       	subi	r18, 0xFF	; 255
    12dc:	3f 4f       	sbci	r19, 0xFF	; 255
    12de:	40 e0       	ldi	r20, 0x00	; 0
    12e0:	61 2f       	mov	r22, r17
    12e2:	c7 01       	movw	r24, r14
    12e4:	0d 96       	adiw	r24, 0x0d	; 13
    12e6:	02 de       	rcall	.-1020   	; 0xeec <ExtEERead>
        for (uint8_t y=0; y<max; ++y){
    12e8:	11 23       	and	r17, r17
    12ea:	b1 f0       	breq	.+44     	; 0x1318 <CheckLetter+0x82>
            if (found){
    12ec:	dd 20       	and	r13, r13
    12ee:	59 f0       	breq	.+22     	; 0x1306 <CheckLetter+0x70>
    uint8_t x = data[1]; //Assuming a name is not longer than 255 characters.

    while (x){
        uint8_t max = (x>32)?32:x;
        ExtEERead(child+OFF_STRINGFLDS+1, max, GAME, &data[0]);
        for (uint8_t y=0; y<max; ++y){
    12f0:	80 e0       	ldi	r24, 0x00	; 0
            if (found){
                if ((data[y]|0x20) == letter) return 1; else return 0;
    12f2:	fe 01       	movw	r30, r28
    12f4:	e8 0f       	add	r30, r24
    12f6:	f1 1d       	adc	r31, r1
    12f8:	91 81       	ldd	r25, Z+1	; 0x01
    12fa:	90 62       	ori	r25, 0x20	; 32
    12fc:	81 e0       	ldi	r24, 0x01	; 1
    12fe:	9c 15       	cp	r25, r12
    1300:	c9 f0       	breq	.+50     	; 0x1334 <CheckLetter+0x9e>
    1302:	80 e0       	ldi	r24, 0x00	; 0
    1304:	17 c0       	rjmp	.+46     	; 0x1334 <CheckLetter+0x9e>
    1306:	fe 01       	movw	r30, r28
    1308:	31 96       	adiw	r30, 0x01	; 1

    while (x){
        uint8_t max = (x>32)?32:x;
        ExtEERead(child+OFF_STRINGFLDS+1, max, GAME, &data[0]);
        for (uint8_t y=0; y<max; ++y){
            if (found){
    130a:	80 e0       	ldi	r24, 0x00	; 0
                if ((data[y]|0x20) == letter) return 1; else return 0;
            }
            if (data[y] == '[') found = 1;
    130c:	91 91       	ld	r25, Z+
    130e:	9b 35       	cpi	r25, 0x5B	; 91
    1310:	59 f0       	breq	.+22     	; 0x1328 <CheckLetter+0x92>
    uint8_t x = data[1]; //Assuming a name is not longer than 255 characters.

    while (x){
        uint8_t max = (x>32)?32:x;
        ExtEERead(child+OFF_STRINGFLDS+1, max, GAME, &data[0]);
        for (uint8_t y=0; y<max; ++y){
    1312:	8f 5f       	subi	r24, 0xFF	; 255
    1314:	18 13       	cpse	r17, r24
    1316:	fa cf       	rjmp	.-12     	; 0x130c <CheckLetter+0x76>
            if (found){
                if ((data[y]|0x20) == letter) return 1; else return 0;
            }
            if (data[y] == '[') found = 1;
        }
        child += max;
    1318:	e1 0e       	add	r14, r17
    131a:	f1 1c       	adc	r15, r1
        x -= max;
    131c:	01 1b       	sub	r16, r17

    child += L_BOILER;
    ExtEERead(child+OFF_STRINGFLDS, 2, GAME, &data[0]);
    uint8_t x = data[1]; //Assuming a name is not longer than 255 characters.

    while (x){
    131e:	c1 f6       	brne	.-80     	; 0x12d0 <CheckLetter+0x3a>
            if (data[y] == '[') found = 1;
        }
        child += max;
        x -= max;
    }
    return 0;
    1320:	80 e0       	ldi	r24, 0x00	; 0
    1322:	08 c0       	rjmp	.+16     	; 0x1334 <CheckLetter+0x9e>
    1324:	80 e0       	ldi	r24, 0x00	; 0
    1326:	06 c0       	rjmp	.+12     	; 0x1334 <CheckLetter+0x9e>
    uint8_t x = data[1]; //Assuming a name is not longer than 255 characters.

    while (x){
        uint8_t max = (x>32)?32:x;
        ExtEERead(child+OFF_STRINGFLDS+1, max, GAME, &data[0]);
        for (uint8_t y=0; y<max; ++y){
    1328:	8f 5f       	subi	r24, 0xFF	; 255
    132a:	81 17       	cp	r24, r17
    132c:	10 f3       	brcs	.-60     	; 0x12f2 <CheckLetter+0x5c>
            if (found){
                if ((data[y]|0x20) == letter) return 1; else return 0;
            }
            if (data[y] == '[') found = 1;
    132e:	dd 24       	eor	r13, r13
    1330:	d3 94       	inc	r13
    1332:	f2 cf       	rjmp	.-28     	; 0x1318 <CheckLetter+0x82>
        }
        child += max;
        x -= max;
    }
    return 0;
}
    1334:	a0 96       	adiw	r28, 0x20	; 32
    1336:	cd bf       	out	0x3d, r28	; 61
    1338:	de bf       	out	0x3e, r29	; 62
    133a:	df 91       	pop	r29
    133c:	cf 91       	pop	r28
    133e:	1f 91       	pop	r17
    1340:	0f 91       	pop	r16
    1342:	ff 90       	pop	r15
    1344:	ef 90       	pop	r14
    1346:	df 90       	pop	r13
    1348:	cf 90       	pop	r12
    134a:	08 95       	ret

0000134c <FindChild>:

//Returns the child's address if the child is visible and the search letter matches
uint16_t FindChild(uint16_t parent, uint8_t letter, uint16_t start){
    134c:	bf 92       	push	r11
    134e:	cf 92       	push	r12
    1350:	df 92       	push	r13
    1352:	ef 92       	push	r14
    1354:	ff 92       	push	r15
    1356:	0f 93       	push	r16
    1358:	1f 93       	push	r17
    135a:	cf 93       	push	r28
    135c:	df 93       	push	r29
    135e:	00 d0       	rcall	.+0      	; 0x1360 <FindChild+0x14>
    1360:	00 d0       	rcall	.+0      	; 0x1362 <FindChild+0x16>
    1362:	cd b7       	in	r28, 0x3d	; 61
    1364:	de b7       	in	r29, 0x3e	; 62
    1366:	b6 2e       	mov	r11, r22
    1368:	6a 01       	movw	r12, r20
    
    uint16_t child = parent;
    uint8_t data[4];

    ExtEERead(child+L_BOILER, 4, GAME, &data[0]);
    136a:	9e 01       	movw	r18, r28
    136c:	2f 5f       	subi	r18, 0xFF	; 255
    136e:	3f 4f       	sbci	r19, 0xFF	; 255
    1370:	40 e0       	ldi	r20, 0x00	; 0
    1372:	64 e0       	ldi	r22, 0x04	; 4
    1374:	80 96       	adiw	r24, 0x20	; 32
    1376:	ba dd       	rcall	.-1164   	; 0xeec <ExtEERead>
    parent = (data[0]<<8|data[1]);    //Next object on parent level
    1378:	e9 80       	ldd	r14, Y+1	; 0x01
    137a:	f1 2c       	mov	r15, r1
    137c:	fe 2c       	mov	r15, r14
    137e:	ee 24       	eor	r14, r14
    1380:	8a 81       	ldd	r24, Y+2	; 0x02
    1382:	e8 2a       	or	r14, r24
    child =  (data[2]<<8|data[3]);    //First object on child level
    1384:	0b 81       	ldd	r16, Y+3	; 0x03
    1386:	10 e0       	ldi	r17, 0x00	; 0
    1388:	10 2f       	mov	r17, r16
    138a:	00 27       	eor	r16, r16
    138c:	8c 81       	ldd	r24, Y+4	; 0x04
    138e:	08 2b       	or	r16, r24

    //As long as the child is within the parent's range
    while (parent>child){
    1390:	0e 15       	cp	r16, r14
    1392:	1f 05       	cpc	r17, r15
    1394:	60 f5       	brcc	.+88     	; 0x13ee <FindChild+0xa2>

        //If child's address is higher than the start address, perform search for letter
        if (child>start){
    1396:	c0 16       	cp	r12, r16
    1398:	d1 06       	cpc	r13, r17
    139a:	a8 f4       	brcc	.+42     	; 0x13c6 <FindChild+0x7a>
            ExtEERead(child+OFF_BYTEFLDS+VISIBLE_ACL+L_BOILER, 1, GAME, &data[0]);
    139c:	9e 01       	movw	r18, r28
    139e:	2f 5f       	subi	r18, 0xFF	; 255
    13a0:	3f 4f       	sbci	r19, 0xFF	; 255
    13a2:	40 e0       	ldi	r20, 0x00	; 0
    13a4:	61 e0       	ldi	r22, 0x01	; 1
    13a6:	c8 01       	movw	r24, r16
    13a8:	85 96       	adiw	r24, 0x25	; 37
    13aa:	a0 dd       	rcall	.-1216   	; 0xeec <ExtEERead>
            if ((data[0] == 0)||(CheckState(data[0]))) {
    13ac:	89 81       	ldd	r24, Y+1	; 0x01
    13ae:	88 23       	and	r24, r24
    13b0:	19 f0       	breq	.+6      	; 0x13b8 <FindChild+0x6c>
    13b2:	5f df       	rcall	.-322    	; 0x1272 <CheckState>
    13b4:	88 23       	and	r24, r24
    13b6:	39 f0       	breq	.+14     	; 0x13c6 <FindChild+0x7a>
                if ((letter == 0)||(CheckLetter(child, letter))) return child;
    13b8:	bb 20       	and	r11, r11
    13ba:	e1 f0       	breq	.+56     	; 0x13f4 <FindChild+0xa8>
    13bc:	6b 2d       	mov	r22, r11
    13be:	c8 01       	movw	r24, r16
    13c0:	6a df       	rcall	.-300    	; 0x1296 <CheckLetter>
    13c2:	81 11       	cpse	r24, r1
    13c4:	1a c0       	rjmp	.+52     	; 0x13fa <FindChild+0xae>
            }
        }

        //Not visible or name not right
        ExtEERead(child+L_BOILER, 2, GAME, &data[0]);
    13c6:	9e 01       	movw	r18, r28
    13c8:	2f 5f       	subi	r18, 0xFF	; 255
    13ca:	3f 4f       	sbci	r19, 0xFF	; 255
    13cc:	40 e0       	ldi	r20, 0x00	; 0
    13ce:	62 e0       	ldi	r22, 0x02	; 2
    13d0:	c8 01       	movw	r24, r16
    13d2:	80 96       	adiw	r24, 0x20	; 32
    13d4:	8b dd       	rcall	.-1258   	; 0xeec <ExtEERead>
        child = (data[0]<<8|data[1]);    //Next object on child level
    13d6:	09 81       	ldd	r16, Y+1	; 0x01
    13d8:	10 e0       	ldi	r17, 0x00	; 0
    13da:	10 2f       	mov	r17, r16
    13dc:	00 27       	eor	r16, r16
    13de:	8a 81       	ldd	r24, Y+2	; 0x02
    13e0:	08 2b       	or	r16, r24
    ExtEERead(child+L_BOILER, 4, GAME, &data[0]);
    parent = (data[0]<<8|data[1]);    //Next object on parent level
    child =  (data[2]<<8|data[3]);    //First object on child level

    //As long as the child is within the parent's range
    while (parent>child){
    13e2:	0e 15       	cp	r16, r14
    13e4:	1f 05       	cpc	r17, r15
    13e6:	b8 f2       	brcs	.-82     	; 0x1396 <FindChild+0x4a>

        //Not visible or name not right
        ExtEERead(child+L_BOILER, 2, GAME, &data[0]);
        child = (data[0]<<8|data[1]);    //Next object on child level
        
    } return 0;
    13e8:	80 e0       	ldi	r24, 0x00	; 0
    13ea:	90 e0       	ldi	r25, 0x00	; 0
    13ec:	08 c0       	rjmp	.+16     	; 0x13fe <FindChild+0xb2>
    13ee:	80 e0       	ldi	r24, 0x00	; 0
    13f0:	90 e0       	ldi	r25, 0x00	; 0
    13f2:	05 c0       	rjmp	.+10     	; 0x13fe <FindChild+0xb2>
    13f4:	80 2f       	mov	r24, r16
    13f6:	91 2f       	mov	r25, r17
    13f8:	02 c0       	rjmp	.+4      	; 0x13fe <FindChild+0xb2>
    13fa:	80 2f       	mov	r24, r16
    13fc:	91 2f       	mov	r25, r17
}
    13fe:	24 96       	adiw	r28, 0x04	; 4
    1400:	cd bf       	out	0x3d, r28	; 61
    1402:	de bf       	out	0x3e, r29	; 62
    1404:	df 91       	pop	r29
    1406:	cf 91       	pop	r28
    1408:	1f 91       	pop	r17
    140a:	0f 91       	pop	r16
    140c:	ff 90       	pop	r15
    140e:	ef 90       	pop	r14
    1410:	df 90       	pop	r13
    1412:	cf 90       	pop	r12
    1414:	bf 90       	pop	r11
    1416:	08 95       	ret

00001418 <InpOkChk>:

//
uint8_t InpOkChk(uint8_t test){
    if ((test>='a')&&(test<='z')) return 1;
    1418:	9f e9       	ldi	r25, 0x9F	; 159
    141a:	98 0f       	add	r25, r24
    141c:	9a 31       	cpi	r25, 0x1A	; 26
    141e:	38 f0       	brcs	.+14     	; 0x142e <InpOkChk+0x16>
    1420:	90 ed       	ldi	r25, 0xD0	; 208
    1422:	98 0f       	add	r25, r24
    1424:	81 e0       	ldi	r24, 0x01	; 1
    1426:	9a 30       	cpi	r25, 0x0A	; 10
    1428:	18 f0       	brcs	.+6      	; 0x1430 <InpOkChk+0x18>
    142a:	80 e0       	ldi	r24, 0x00	; 0
    142c:	08 95       	ret
    142e:	81 e0       	ldi	r24, 0x01	; 1
    if ((test>='0')&&(test<='9')) return 1;
    return 0;
}
    1430:	08 95       	ret

00001432 <CleanInput>:

//Cleans input of garbage and returns length of cleaned input "o->d2  !\0" becomes "od2\0"
uint8_t CleanInput(uint8_t *data){
    1432:	0f 93       	push	r16
    1434:	1f 93       	push	r17
    1436:	cf 93       	push	r28
    1438:	df 93       	push	r29
    143a:	8c 01       	movw	r16, r24
    uint8_t cnt = 0;
    for (uint8_t x=0; data[x]!=0; ++x){
    143c:	fc 01       	movw	r30, r24
    143e:	80 81       	ld	r24, Z
    1440:	88 23       	and	r24, r24
    1442:	91 f0       	breq	.+36     	; 0x1468 <CleanInput+0x36>
    1444:	c0 e0       	ldi	r28, 0x00	; 0
    1446:	d0 e0       	ldi	r29, 0x00	; 0
        data[cnt] = data[x];
    1448:	d8 01       	movw	r26, r16
    144a:	ad 0f       	add	r26, r29
    144c:	b1 1d       	adc	r27, r1
    144e:	8c 93       	st	X, r24
        if (InpOkChk(data[x])) ++cnt;
    1450:	80 81       	ld	r24, Z
    1452:	e2 df       	rcall	.-60     	; 0x1418 <InpOkChk>
    1454:	81 11       	cpse	r24, r1
    1456:	df 5f       	subi	r29, 0xFF	; 255
}

//Cleans input of garbage and returns length of cleaned input "o->d2  !\0" becomes "od2\0"
uint8_t CleanInput(uint8_t *data){
    uint8_t cnt = 0;
    for (uint8_t x=0; data[x]!=0; ++x){
    1458:	cf 5f       	subi	r28, 0xFF	; 255
    145a:	f8 01       	movw	r30, r16
    145c:	ec 0f       	add	r30, r28
    145e:	f1 1d       	adc	r31, r1
    1460:	80 81       	ld	r24, Z
    1462:	81 11       	cpse	r24, r1
    1464:	f1 cf       	rjmp	.-30     	; 0x1448 <CleanInput+0x16>
    1466:	01 c0       	rjmp	.+2      	; 0x146a <CleanInput+0x38>
    return 0;
}

//Cleans input of garbage and returns length of cleaned input "o->d2  !\0" becomes "od2\0"
uint8_t CleanInput(uint8_t *data){
    uint8_t cnt = 0;
    1468:	d0 e0       	ldi	r29, 0x00	; 0
    for (uint8_t x=0; data[x]!=0; ++x){
        data[cnt] = data[x];
        if (InpOkChk(data[x])) ++cnt;
    }
    data[cnt] = 0;
    146a:	f8 01       	movw	r30, r16
    146c:	ed 0f       	add	r30, r29
    146e:	f1 1d       	adc	r31, r1
    1470:	10 82       	st	Z, r1
    return cnt;
}
    1472:	8d 2f       	mov	r24, r29
    1474:	df 91       	pop	r29
    1476:	cf 91       	pop	r28
    1478:	1f 91       	pop	r17
    147a:	0f 91       	pop	r16
    147c:	08 95       	ret

0000147e <CheckSend>:

//Send routine, optimized for low memory usage
uint8_t CheckSend(){
    147e:	cf 93       	push	r28
    static uint8_t txPart;
    uint8_t EEreadLength=0;

    //Check if more string(part)s have to be sent to the serial output if previous send operation is completed
    if ((txAddrNow < TXLISTLEN) && serTxDone){
    1480:	80 91 2d 3a 	lds	r24, 0x3A2D	; 0x803a2d <txAddrNow>
    1484:	88 30       	cpi	r24, 0x08	; 8
    1486:	08 f0       	brcs	.+2      	; 0x148a <CheckSend+0xc>
    1488:	45 c0       	rjmp	.+138    	; 0x1514 <CheckSend+0x96>
    148a:	90 91 04 38 	lds	r25, 0x3804	; 0x803804 <serTxDone>
    148e:	99 23       	and	r25, r25
    1490:	09 f4       	brne	.+2      	; 0x1494 <CheckSend+0x16>
    1492:	40 c0       	rjmp	.+128    	; 0x1514 <CheckSend+0x96>
        if (txStrLen[txAddrNow] == 0){
    1494:	28 2f       	mov	r18, r24
    1496:	30 e0       	ldi	r19, 0x00	; 0
    1498:	f9 01       	movw	r30, r18
    149a:	e2 5d       	subi	r30, 0xD2	; 210
    149c:	f5 4c       	sbci	r31, 0xC5	; 197
    149e:	e0 81       	ld	r30, Z
    14a0:	e1 11       	cpse	r30, r1
    14a2:	07 c0       	rjmp	.+14     	; 0x14b2 <CheckSend+0x34>
            txPart = 0;
    14a4:	10 92 02 39 	sts	0x3902, r1	; 0x803902 <txPart.3910>
            txAddrNow = TXLISTLEN;
    14a8:	88 e0       	ldi	r24, 0x08	; 8
    14aa:	80 93 2d 3a 	sts	0x3A2D, r24	; 0x803a2d <txAddrNow>
        } else {
            txPart = 0;
            ++txAddrNow;
        }
    } else if (serTxDone) return 0; //All is sent!
    return 1; //Still sending, do not change the data in the tx variables
    14ae:	81 e0       	ldi	r24, 0x01	; 1
    14b0:	36 c0       	rjmp	.+108    	; 0x151e <CheckSend+0xa0>
    //Check if more string(part)s have to be sent to the serial output if previous send operation is completed
    if ((txAddrNow < TXLISTLEN) && serTxDone){
        if (txStrLen[txAddrNow] == 0){
            txPart = 0;
            txAddrNow = TXLISTLEN;
        } else if (txPart < txStrLen[txAddrNow]){
    14b2:	90 91 02 39 	lds	r25, 0x3902	; 0x803902 <txPart.3910>
    14b6:	9e 17       	cp	r25, r30
    14b8:	30 f5       	brcc	.+76     	; 0x1506 <CheckSend+0x88>
            EEreadLength = txStrLen[txAddrNow]-txPart;
    14ba:	ce 2f       	mov	r28, r30
    14bc:	c9 1b       	sub	r28, r25
    14be:	c1 32       	cpi	r28, 0x21	; 33
    14c0:	08 f0       	brcs	.+2      	; 0x14c4 <CheckSend+0x46>
    14c2:	c0 e2       	ldi	r28, 0x20	; 32
            if (EEreadLength>=TXLEN) EEreadLength = TXLEN-1;
            ExtEERead(txAddrList[txAddrNow]+txPart, EEreadLength, txTypeNow, &txBuffer[0]);
    14c4:	22 0f       	add	r18, r18
    14c6:	33 1f       	adc	r19, r19
    14c8:	f9 01       	movw	r30, r18
    14ca:	ea 5c       	subi	r30, 0xCA	; 202
    14cc:	f5 4c       	sbci	r31, 0xC5	; 197
    14ce:	01 90       	ld	r0, Z+
    14d0:	f0 81       	ld	r31, Z
    14d2:	e0 2d       	mov	r30, r0
    14d4:	2f ee       	ldi	r18, 0xEF	; 239
    14d6:	3a e3       	ldi	r19, 0x3A	; 58
    14d8:	40 91 2c 3a 	lds	r20, 0x3A2C	; 0x803a2c <txTypeNow>
    14dc:	6c 2f       	mov	r22, r28
    14de:	df 01       	movw	r26, r30
    14e0:	a9 0f       	add	r26, r25
    14e2:	b1 1d       	adc	r27, r1
    14e4:	cd 01       	movw	r24, r26
    14e6:	02 dd       	rcall	.-1532   	; 0xeec <ExtEERead>
            txPart += EEreadLength;
    14e8:	80 91 02 39 	lds	r24, 0x3902	; 0x803902 <txPart.3910>
    14ec:	8c 0f       	add	r24, r28
    14ee:	80 93 02 39 	sts	0x3902, r24	; 0x803902 <txPart.3910>
            txBuffer[EEreadLength] = 0; //Add string terminator after piece to send to plug memory leak
    14f2:	ec 2f       	mov	r30, r28
    14f4:	f0 e0       	ldi	r31, 0x00	; 0
    14f6:	e1 51       	subi	r30, 0x11	; 17
    14f8:	f5 4c       	sbci	r31, 0xC5	; 197
    14fa:	10 82       	st	Z, r1
            SerSend(&txBuffer[0]);
    14fc:	8f ee       	ldi	r24, 0xEF	; 239
    14fe:	9a e3       	ldi	r25, 0x3A	; 58
    1500:	a9 da       	rcall	.-2734   	; 0xa54 <SerSend>
        } else {
            txPart = 0;
            ++txAddrNow;
        }
    } else if (serTxDone) return 0; //All is sent!
    return 1; //Still sending, do not change the data in the tx variables
    1502:	81 e0       	ldi	r24, 0x01	; 1
    1504:	0c c0       	rjmp	.+24     	; 0x151e <CheckSend+0xa0>
            ExtEERead(txAddrList[txAddrNow]+txPart, EEreadLength, txTypeNow, &txBuffer[0]);
            txPart += EEreadLength;
            txBuffer[EEreadLength] = 0; //Add string terminator after piece to send to plug memory leak
            SerSend(&txBuffer[0]);
        } else {
            txPart = 0;
    1506:	10 92 02 39 	sts	0x3902, r1	; 0x803902 <txPart.3910>
            ++txAddrNow;
    150a:	8f 5f       	subi	r24, 0xFF	; 255
    150c:	80 93 2d 3a 	sts	0x3A2D, r24	; 0x803a2d <txAddrNow>
        }
    } else if (serTxDone) return 0; //All is sent!
    return 1; //Still sending, do not change the data in the tx variables
    1510:	81 e0       	ldi	r24, 0x01	; 1
    1512:	05 c0       	rjmp	.+10     	; 0x151e <CheckSend+0xa0>
            SerSend(&txBuffer[0]);
        } else {
            txPart = 0;
            ++txAddrNow;
        }
    } else if (serTxDone) return 0; //All is sent!
    1514:	90 91 04 38 	lds	r25, 0x3804	; 0x803804 <serTxDone>
    1518:	81 e0       	ldi	r24, 0x01	; 1
    151a:	91 11       	cpse	r25, r1
    151c:	80 e0       	ldi	r24, 0x00	; 0
    return 1; //Still sending, do not change the data in the tx variables
}
    151e:	cf 91       	pop	r28
    1520:	08 95       	ret

00001522 <CheckResponse>:

//Send another part of the response and play the effect afterwards
uint8_t CheckResponse(){
    1522:	cf 93       	push	r28
    1524:	df 93       	push	r29
    static uint8_t number = 0;
    if (responseList){
    1526:	c0 91 03 39 	lds	r28, 0x3903	; 0x803903 <responseList>
    152a:	cc 23       	and	r28, r28
    152c:	e1 f1       	breq	.+120    	; 0x15a6 <CheckResponse+0x84>
        --responseList;
    152e:	c1 50       	subi	r28, 0x01	; 1
    1530:	c0 93 03 39 	sts	0x3903, r28	; 0x803903 <responseList>
        if (reactStr[0][number] == CURR_LOC) {
    1534:	d0 91 01 39 	lds	r29, 0x3901	; 0x803901 <number.3914>
    1538:	2d 2f       	mov	r18, r29
    153a:	30 e0       	ldi	r19, 0x00	; 0
    153c:	f9 01       	movw	r30, r18
    153e:	ee 0f       	add	r30, r30
    1540:	ff 1f       	adc	r31, r31
    1542:	ec 5f       	subi	r30, 0xFC	; 252
    1544:	f6 4c       	sbci	r31, 0xC6	; 198
    1546:	80 81       	ld	r24, Z
    1548:	91 81       	ldd	r25, Z+1	; 0x01
    154a:	80 3f       	cpi	r24, 0xF0	; 240
    154c:	4f ef       	ldi	r20, 0xFF	; 255
    154e:	94 07       	cpc	r25, r20
    1550:	49 f4       	brne	.+18     	; 0x1564 <CheckResponse+0x42>
            PrepareSending(currObj.addrStr[NAME], currObj.lenStr[NAME], GAME);
    1552:	e4 e0       	ldi	r30, 0x04	; 4
    1554:	fa e3       	ldi	r31, 0x3A	; 58
    1556:	62 8d       	ldd	r22, Z+26	; 0x1a
    1558:	73 8d       	ldd	r23, Z+27	; 0x1b
    155a:	40 e0       	ldi	r20, 0x00	; 0
    155c:	84 85       	ldd	r24, Z+12	; 0x0c
    155e:	95 85       	ldd	r25, Z+13	; 0x0d
    1560:	14 dd       	rcall	.-1496   	; 0xf8a <PrepareSending>
    1562:	0e c0       	rjmp	.+28     	; 0x1580 <CheckResponse+0x5e>
        } else {
            PrepareSending(reactStr[0][number], reactStr[1][number], reactStr[2][number]);
    1564:	d9 01       	movw	r26, r18
    1566:	aa 0f       	add	r26, r26
    1568:	bb 1f       	adc	r27, r27
    156a:	ac 57       	subi	r26, 0x7C	; 124
    156c:	b6 4c       	sbci	r27, 0xC6	; 198
    156e:	22 0f       	add	r18, r18
    1570:	33 1f       	adc	r19, r19
    1572:	f9 01       	movw	r30, r18
    1574:	ec 5b       	subi	r30, 0xBC	; 188
    1576:	f6 4c       	sbci	r31, 0xC6	; 198
    1578:	60 81       	ld	r22, Z
    157a:	71 81       	ldd	r23, Z+1	; 0x01
    157c:	4c 91       	ld	r20, X
    157e:	05 dd       	rcall	.-1526   	; 0xf8a <PrepareSending>
        }
        ++number;
    1580:	df 5f       	subi	r29, 0xFF	; 255
    1582:	d0 93 01 39 	sts	0x3901, r29	; 0x803901 <number.3914>

        if (responseList == 0) {
    1586:	c1 11       	cpse	r28, r1
    1588:	0d c0       	rjmp	.+26     	; 0x15a4 <CheckResponse+0x82>
            effect = currObj.byteField[EFFECTS];
    158a:	80 91 08 3a 	lds	r24, 0x3A08	; 0x803a08 <currObj+0x4>
    158e:	90 e0       	ldi	r25, 0x00	; 0
    1590:	80 93 93 38 	sts	0x3893, r24	; 0x803893 <effect>
    1594:	90 93 94 38 	sts	0x3894, r25	; 0x803894 <effect+0x1>
            RXCNT = 0;
    1598:	1d ba       	out	0x1d, r1	; 29
            serRxDone = 0;
    159a:	10 92 97 38 	sts	0x3897, r1	; 0x803897 <serRxDone>
            number = 0;
    159e:	10 92 01 39 	sts	0x3901, r1	; 0x803901 <number.3914>
            return 0;
    15a2:	01 c0       	rjmp	.+2      	; 0x15a6 <CheckResponse+0x84>
        }
        return 1;
    15a4:	c1 e0       	ldi	r28, 0x01	; 1
    }
    return 0;
}
    15a6:	8c 2f       	mov	r24, r28
    15a8:	df 91       	pop	r29
    15aa:	cf 91       	pop	r28
    15ac:	08 95       	ret

000015ae <CheckInput>:

//User input check (and validation)
uint8_t CheckInput(uint8_t *data){
    15ae:	ef 92       	push	r14
    15b0:	ff 92       	push	r15
    15b2:	0f 93       	push	r16
    15b4:	1f 93       	push	r17
    15b6:	cf 93       	push	r28
    15b8:	df 93       	push	r29
    15ba:	cd b7       	in	r28, 0x3d	; 61
    15bc:	de b7       	in	r29, 0x3e	; 62
    15be:	2a 97       	sbiw	r28, 0x0a	; 10
    15c0:	cd bf       	out	0x3d, r28	; 61
    15c2:	de bf       	out	0x3e, r29	; 62
    15c4:	8c 01       	movw	r16, r24
    
    //Load game data after reboot
    if (currDepth == 0xff) {
    15c6:	80 91 8f 38 	lds	r24, 0x388F	; 0x80388f <currDepth>
    15ca:	8f 3f       	cpi	r24, 0xFF	; 255
    15cc:	19 f5       	brne	.+70     	; 0x1614 <CheckInput+0x66>
        //Load things from EEPROM
        EERead(0, &gameState[0], 16);   //Load game status bits from EEPROM
    15ce:	40 e1       	ldi	r20, 0x10	; 16
    15d0:	68 e4       	ldi	r22, 0x48	; 72
    15d2:	7a e3       	ldi	r23, 0x3A	; 58
    15d4:	80 e0       	ldi	r24, 0x00	; 0
    15d6:	e2 d9       	rcall	.-3132   	; 0x99c <EERead>
    15d8:	0f 2e       	mov	r0, r31
    15da:	fe e6       	ldi	r31, 0x6E	; 110
    15dc:	ef 2e       	mov	r14, r31
    15de:	f0 2d       	mov	r31, r0

        //idSet can be used to detect cheating. After cheating idSet will be 0, with a virgin badge idSet will be 3.
        uint8_t idSet = 0;
    15e0:	f1 2c       	mov	r15, r1
        for (uint8_t x=0; x<4; ++x){
            idSet += ReadStatusBit(110+x);
    15e2:	8e 2d       	mov	r24, r14
    15e4:	73 db       	rcall	.-2330   	; 0xccc <ReadStatusBit>
    15e6:	f8 0e       	add	r15, r24
    15e8:	e3 94       	inc	r14
        //Load things from EEPROM
        EERead(0, &gameState[0], 16);   //Load game status bits from EEPROM

        //idSet can be used to detect cheating. After cheating idSet will be 0, with a virgin badge idSet will be 3.
        uint8_t idSet = 0;
        for (uint8_t x=0; x<4; ++x){
    15ea:	82 e7       	ldi	r24, 0x72	; 114
    15ec:	e8 12       	cpse	r14, r24
    15ee:	f9 cf       	rjmp	.-14     	; 0x15e2 <CheckInput+0x34>
            idSet += ReadStatusBit(110+x);
        }

        if (idSet == 1) {
    15f0:	e1 e0       	ldi	r30, 0x01	; 1
    15f2:	fe 16       	cp	r15, r30
    15f4:	31 f0       	breq	.+12     	; 0x1602 <CheckInput+0x54>
            ;
        } else if (idSet == 3) {
    15f6:	f3 e0       	ldi	r31, 0x03	; 3
    15f8:	ff 12       	cpse	r15, r31
            //TODO: Test all functions program (for badge check during sweatshop), skip if already passed (save result + temperature calibration in EEPROM location)
            Reset();
    15fa:	02 c0       	rjmp	.+4      	; 0x1600 <CheckInput+0x52>
    15fc:	a8 db       	rcall	.-2224   	; 0xd4e <Reset>
        } else {
            //Data not as expected, cheated or corrupted memory
            Reset();
    15fe:	01 c0       	rjmp	.+2      	; 0x1602 <CheckInput+0x54>
    1600:	a6 db       	rcall	.-2228   	; 0xd4e <Reset>
        }

        //Start at first location
        PopulateObject(route[0], &currObj);
    1602:	64 e0       	ldi	r22, 0x04	; 4
    1604:	7a e3       	ldi	r23, 0x3A	; 58
    1606:	80 91 c4 39 	lds	r24, 0x39C4	; 0x8039c4 <route>
    160a:	90 91 c5 39 	lds	r25, 0x39C5	; 0x8039c5 <route+0x1>
    160e:	c7 dd       	rcall	.-1138   	; 0x119e <PopulateObject>
        currDepth = 0;
    1610:	10 92 8f 38 	sts	0x388F, r1	; 0x80388f <currDepth>
    }

    //Play an effect if configured (if )
    if ((effect < 0x0100) && (effect ^ currObj.byteField[EFFECTS])){
    1614:	80 91 93 38 	lds	r24, 0x3893	; 0x803893 <effect>
    1618:	90 91 94 38 	lds	r25, 0x3894	; 0x803894 <effect+0x1>
    161c:	8f 3f       	cpi	r24, 0xFF	; 255
    161e:	91 05       	cpc	r25, r1
    1620:	09 f0       	breq	.+2      	; 0x1624 <CheckInput+0x76>
    1622:	d0 f4       	brcc	.+52     	; 0x1658 <CheckInput+0xaa>
    1624:	80 91 08 3a 	lds	r24, 0x3A08	; 0x803a08 <currObj+0x4>
    1628:	90 e0       	ldi	r25, 0x00	; 0
    162a:	20 91 93 38 	lds	r18, 0x3893	; 0x803893 <effect>
    162e:	30 91 94 38 	lds	r19, 0x3894	; 0x803894 <effect+0x1>
    1632:	82 17       	cp	r24, r18
    1634:	93 07       	cpc	r25, r19
    1636:	81 f0       	breq	.+32     	; 0x1658 <CheckInput+0xaa>
        effect = currObj.byteField[EFFECTS];
    1638:	80 93 93 38 	sts	0x3893, r24	; 0x803893 <effect>
    163c:	90 93 94 38 	sts	0x3894, r25	; 0x803894 <effect+0x1>
        auStart = ((effect&0xE0)>0);
    1640:	80 91 93 38 	lds	r24, 0x3893	; 0x803893 <effect>
    1644:	90 91 94 38 	lds	r25, 0x3894	; 0x803894 <effect+0x1>
    1648:	80 7e       	andi	r24, 0xE0	; 224
    164a:	99 27       	eor	r25, r25
    164c:	21 e0       	ldi	r18, 0x01	; 1
    164e:	89 2b       	or	r24, r25
    1650:	09 f4       	brne	.+2      	; 0x1654 <CheckInput+0xa6>
    1652:	20 e0       	ldi	r18, 0x00	; 0
    1654:	20 93 92 38 	sts	0x3892, r18	; 0x803892 <auStart>
    }

    if (serRxDone){
    1658:	80 91 97 38 	lds	r24, 0x3897	; 0x803897 <serRxDone>
    165c:	88 23       	and	r24, r24
    165e:	09 f4       	brne	.+2      	; 0x1662 <CheckInput+0xb4>
    1660:	90 c0       	rjmp	.+288    	; 0x1782 <CheckInput+0x1d4>
        //Read up to the \0 character and convert to lower case.
        for (uint8_t x=0; serRx[x]!=0; ++x){
    1662:	80 91 58 3a 	lds	r24, 0x3A58	; 0x803a58 <serRx>
    1666:	88 23       	and	r24, r24
    1668:	51 f1       	breq	.+84     	; 0x16be <CheckInput+0x110>
    166a:	80 e0       	ldi	r24, 0x00	; 0
    166c:	90 e0       	ldi	r25, 0x00	; 0
    166e:	20 e0       	ldi	r18, 0x00	; 0
            if ((serRx[x]<'A')||(serRx[x]>'Z')) data[x]=serRx[x]; else data[x]=serRx[x]|0x20;
    1670:	fc 01       	movw	r30, r24
    1672:	e8 5a       	subi	r30, 0xA8	; 168
    1674:	f5 4c       	sbci	r31, 0xC5	; 197
    1676:	30 81       	ld	r19, Z
    1678:	31 34       	cpi	r19, 0x41	; 65
    167a:	30 f0       	brcs	.+12     	; 0x1688 <CheckInput+0xda>
    167c:	fc 01       	movw	r30, r24
    167e:	e8 5a       	subi	r30, 0xA8	; 168
    1680:	f5 4c       	sbci	r31, 0xC5	; 197
    1682:	30 81       	ld	r19, Z
    1684:	3b 35       	cpi	r19, 0x5B	; 91
    1686:	48 f0       	brcs	.+18     	; 0x169a <CheckInput+0xec>
    1688:	fc 01       	movw	r30, r24
    168a:	e8 5a       	subi	r30, 0xA8	; 168
    168c:	f5 4c       	sbci	r31, 0xC5	; 197
    168e:	80 81       	ld	r24, Z
    1690:	f8 01       	movw	r30, r16
    1692:	e2 0f       	add	r30, r18
    1694:	f1 1d       	adc	r31, r1
    1696:	80 83       	st	Z, r24
    1698:	09 c0       	rjmp	.+18     	; 0x16ac <CheckInput+0xfe>
    169a:	fc 01       	movw	r30, r24
    169c:	e8 5a       	subi	r30, 0xA8	; 168
    169e:	f5 4c       	sbci	r31, 0xC5	; 197
    16a0:	80 81       	ld	r24, Z
    16a2:	f8 01       	movw	r30, r16
    16a4:	e2 0f       	add	r30, r18
    16a6:	f1 1d       	adc	r31, r1
    16a8:	80 62       	ori	r24, 0x20	; 32
    16aa:	80 83       	st	Z, r24
        auStart = ((effect&0xE0)>0);
    }

    if (serRxDone){
        //Read up to the \0 character and convert to lower case.
        for (uint8_t x=0; serRx[x]!=0; ++x){
    16ac:	2f 5f       	subi	r18, 0xFF	; 255
    16ae:	82 2f       	mov	r24, r18
    16b0:	90 e0       	ldi	r25, 0x00	; 0
    16b2:	fc 01       	movw	r30, r24
    16b4:	e8 5a       	subi	r30, 0xA8	; 168
    16b6:	f5 4c       	sbci	r31, 0xC5	; 197
    16b8:	30 81       	ld	r19, Z
    16ba:	31 11       	cpse	r19, r1
    16bc:	d9 cf       	rjmp	.-78     	; 0x1670 <CheckInput+0xc2>
            if ((serRx[x]<'A')||(serRx[x]>'Z')) data[x]=serRx[x]; else data[x]=serRx[x]|0x20;
        }

        //No text
        if (serRx[0] == 0){
    16be:	80 91 58 3a 	lds	r24, 0x3A58	; 0x803a58 <serRx>
    16c2:	81 11       	cpse	r24, r1
    16c4:	07 c0       	rjmp	.+14     	; 0x16d4 <CheckInput+0x126>
            data[0] = 0;
    16c6:	f8 01       	movw	r30, r16
    16c8:	10 82       	st	Z, r1
            RXCNT = 0;
    16ca:	1d ba       	out	0x1d, r1	; 29
            serRxDone = 0;
    16cc:	10 92 97 38 	sts	0x3897, r1	; 0x803897 <serRxDone>
            return 1;
    16d0:	81 e0       	ldi	r24, 0x01	; 1
    16d2:	58 c0       	rjmp	.+176    	; 0x1784 <CheckInput+0x1d6>
        }

        //Help text
        if ((data[0] == '?')||(data[0] == 'h')){
    16d4:	f8 01       	movw	r30, r16
    16d6:	80 81       	ld	r24, Z
    16d8:	8f 33       	cpi	r24, 0x3F	; 63
    16da:	11 f0       	breq	.+4      	; 0x16e0 <CheckInput+0x132>
    16dc:	88 36       	cpi	r24, 0x68	; 104
    16de:	b9 f4       	brne	.+46     	; 0x170e <CheckInput+0x160>
    txAddrNow = 0;  //Start at first pointer, initiates sending in CheckSend
    return 0;
}

void SetResponse(uint8_t number, uint16_t address, uint16_t length, uint8_t type){
    reactStr[0][number]=address;
    16e0:	81 eb       	ldi	r24, 0xB1	; 177
    16e2:	9b e7       	ldi	r25, 0x7B	; 123
    16e4:	80 93 04 39 	sts	0x3904, r24	; 0x803904 <reactStr>
    16e8:	90 93 05 39 	sts	0x3905, r25	; 0x803905 <reactStr+0x1>
    reactStr[1][number]=length;
    16ec:	8f e4       	ldi	r24, 0x4F	; 79
    16ee:	94 e0       	ldi	r25, 0x04	; 4
    16f0:	80 93 44 39 	sts	0x3944, r24	; 0x803944 <reactStr+0x40>
    16f4:	90 93 45 39 	sts	0x3945, r25	; 0x803945 <reactStr+0x41>
    reactStr[2][number]=type;
    16f8:	81 e0       	ldi	r24, 0x01	; 1
    16fa:	90 e0       	ldi	r25, 0x00	; 0
    16fc:	80 93 84 39 	sts	0x3984, r24	; 0x803984 <reactStr+0x80>
    1700:	90 93 85 39 	sts	0x3985, r25	; 0x803985 <reactStr+0x81>

        //Help text
        if ((data[0] == '?')||(data[0] == 'h')){
            //Put help pointers/lengths in tx list
            SetResponse(0, A_HELP, L_HELP, TEASER);
            responseList = SetStandardResponse(1);
    1704:	9e dc       	rcall	.-1732   	; 0x1042 <SetStandardResponse>
    1706:	80 93 03 39 	sts	0x3903, r24	; 0x803903 <responseList>
            return 1;
    170a:	81 e0       	ldi	r24, 0x01	; 1
    170c:	3b c0       	rjmp	.+118    	; 0x1784 <CheckInput+0x1d6>
        }

        //Quit text
        if (data[0] == 'q'){
    170e:	81 37       	cpi	r24, 0x71	; 113
    1710:	b9 f4       	brne	.+46     	; 0x1740 <CheckInput+0x192>
    txAddrNow = 0;  //Start at first pointer, initiates sending in CheckSend
    return 0;
}

void SetResponse(uint8_t number, uint16_t address, uint16_t length, uint8_t type){
    reactStr[0][number]=address;
    1712:	8e e2       	ldi	r24, 0x2E	; 46
    1714:	9a e7       	ldi	r25, 0x7A	; 122
    1716:	80 93 04 39 	sts	0x3904, r24	; 0x803904 <reactStr>
    171a:	90 93 05 39 	sts	0x3905, r25	; 0x803905 <reactStr+0x1>
    reactStr[1][number]=length;
    171e:	84 e5       	ldi	r24, 0x54	; 84
    1720:	90 e0       	ldi	r25, 0x00	; 0
    1722:	80 93 44 39 	sts	0x3944, r24	; 0x803944 <reactStr+0x40>
    1726:	90 93 45 39 	sts	0x3945, r25	; 0x803945 <reactStr+0x41>
    reactStr[2][number]=type;
    172a:	81 e0       	ldi	r24, 0x01	; 1
    172c:	90 e0       	ldi	r25, 0x00	; 0
    172e:	80 93 84 39 	sts	0x3984, r24	; 0x803984 <reactStr+0x80>
    1732:	90 93 85 39 	sts	0x3985, r25	; 0x803985 <reactStr+0x81>

        //Quit text
        if (data[0] == 'q'){
            //Put quit pointers/lengths in tx list
            SetResponse(0, A_QUIT, L_QUIT, TEASER);
            responseList = SetStandardResponse(1);
    1736:	85 dc       	rcall	.-1782   	; 0x1042 <SetStandardResponse>
    1738:	80 93 03 39 	sts	0x3903, r24	; 0x803903 <responseList>
            return 1;
    173c:	81 e0       	ldi	r24, 0x01	; 1
        }

        //Cheat = reset badge!
        if (StartsWith(&data[0], "iddqd")){
    173e:	22 c0       	rjmp	.+68     	; 0x1784 <CheckInput+0x1d6>
    1740:	60 e7       	ldi	r22, 0x70	; 112
    1742:	7e e9       	ldi	r23, 0x9E	; 158
    1744:	c8 01       	movw	r24, r16
    1746:	10 dc       	rcall	.-2016   	; 0xf68 <StartsWith>
    1748:	88 23       	and	r24, r24
            
            //Reset game data by wiping the UUID bits
            for (uint8_t x=0; x<4; ++x){
                WriteStatusBit(110+x, 0);
    174a:	e1 f0       	breq	.+56     	; 0x1784 <CheckInput+0x1d6>
    174c:	1e e6       	ldi	r17, 0x6E	; 110
    174e:	60 e0       	ldi	r22, 0x00	; 0
    1750:	81 2f       	mov	r24, r17
    1752:	d0 da       	rcall	.-2656   	; 0xcf4 <WriteStatusBit>

        //Cheat = reset badge!
        if (StartsWith(&data[0], "iddqd")){
            
            //Reset game data by wiping the UUID bits
            for (uint8_t x=0; x<4; ++x){
    1754:	1f 5f       	subi	r17, 0xFF	; 255
    1756:	12 37       	cpi	r17, 0x72	; 114
                WriteStatusBit(110+x, 0);
            }
            SaveGameState();
    1758:	d1 f7       	brne	.-12     	; 0x174e <CheckInput+0x1a0>
    175a:	7f da       	rcall	.-2818   	; 0xc5a <SaveGameState>

            uint8_t cheat[] = "Cheater! ";
    175c:	8a e0       	ldi	r24, 0x0A	; 10
    175e:	e6 e7       	ldi	r30, 0x76	; 118
    1760:	fe e9       	ldi	r31, 0x9E	; 158
    1762:	de 01       	movw	r26, r28
    1764:	11 96       	adiw	r26, 0x01	; 1
    1766:	01 90       	ld	r0, Z+
    1768:	0d 92       	st	X+, r0
            SerSpeed(60);
    176a:	8a 95       	dec	r24
    176c:	e1 f7       	brne	.-8      	; 0x1766 <CheckInput+0x1b8>
    176e:	8c e3       	ldi	r24, 0x3C	; 60
            while(1){
                if (serTxDone) SerSend(&cheat[0]);
    1770:	83 d9       	rcall	.-3322   	; 0xa78 <SerSpeed>
    1772:	80 91 04 38 	lds	r24, 0x3804	; 0x803804 <serTxDone>
    1776:	88 23       	and	r24, r24
    1778:	e1 f3       	breq	.-8      	; 0x1772 <CheckInput+0x1c4>
    177a:	ce 01       	movw	r24, r28
    177c:	01 96       	adiw	r24, 0x01	; 1
    177e:	6a d9       	rcall	.-3372   	; 0xa54 <SerSend>
    1780:	f8 cf       	rjmp	.-16     	; 0x1772 <CheckInput+0x1c4>
        //Data received, but not any of the commands above
        return 0;
    }

    //Serial input not available yet
    return 1;
    1782:	81 e0       	ldi	r24, 0x01	; 1
}
    1784:	2a 96       	adiw	r28, 0x0a	; 10
    1786:	cd bf       	out	0x3d, r28	; 61
    1788:	de bf       	out	0x3e, r29	; 62
    178a:	df 91       	pop	r29
    178c:	cf 91       	pop	r28
    178e:	1f 91       	pop	r17
    1790:	0f 91       	pop	r16
    1792:	ff 90       	pop	r15
    1794:	ef 90       	pop	r14
    1796:	08 95       	ret

00001798 <ProcessInput>:

//The game logic!
uint8_t ProcessInput(uint8_t *data){
    1798:	5f 92       	push	r5
    179a:	6f 92       	push	r6
    179c:	7f 92       	push	r7
    179e:	8f 92       	push	r8
    17a0:	9f 92       	push	r9
    17a2:	af 92       	push	r10
    17a4:	bf 92       	push	r11
    17a6:	cf 92       	push	r12
    17a8:	df 92       	push	r13
    17aa:	ef 92       	push	r14
    17ac:	ff 92       	push	r15
    17ae:	0f 93       	push	r16
    17b0:	1f 93       	push	r17
    17b2:	cf 93       	push	r28
    17b4:	df 93       	push	r29
    17b6:	1f 92       	push	r1
    17b8:	cd b7       	in	r28, 0x3d	; 61
    17ba:	de b7       	in	r29, 0x3e	; 62
    17bc:	8c 01       	movw	r16, r24
//    enum {NAME, DESC, ACTION_STR1, ACTION_STR2, OPEN_ACL_MSG, ACTION_ACL_MSG, ACTION_MSG};
    static object_model_t actObj1, actObj2;

    CleanInput(&data[0]);
    17be:	39 de       	rcall	.-910    	; 0x1432 <CleanInput>
    uint8_t inputLen = CleanInput(&data[0]);
    17c0:	c8 01       	movw	r24, r16
    17c2:	37 de       	rcall	.-914    	; 0x1432 <CleanInput>

    if (inputLen) {
    17c4:	88 23       	and	r24, r24
    17c6:	09 f4       	brne	.+2      	; 0x17ca <ProcessInput+0x32>
    17c8:	6a c2       	rjmp	.+1236   	; 0x1c9e <ProcessInput+0x506>
        if (data[0] == 'x'){
    17ca:	d8 01       	movw	r26, r16
    17cc:	9c 91       	ld	r25, X
    17ce:	98 37       	cpi	r25, 0x78	; 120
    17d0:	09 f0       	breq	.+2      	; 0x17d4 <ProcessInput+0x3c>
    17d2:	54 c0       	rjmp	.+168    	; 0x187c <ProcessInput+0xe4>

            //Standing in the Lobby?
            if ((route[currDepth] == 0)||(currDepth == 0)){
    17d4:	80 91 8f 38 	lds	r24, 0x388F	; 0x80388f <currDepth>
    17d8:	e8 2f       	mov	r30, r24
    17da:	f0 e0       	ldi	r31, 0x00	; 0
    17dc:	ee 0f       	add	r30, r30
    17de:	ff 1f       	adc	r31, r31
    17e0:	ec 53       	subi	r30, 0x3C	; 60
    17e2:	f6 4c       	sbci	r31, 0xC6	; 198
    17e4:	20 81       	ld	r18, Z
    17e6:	31 81       	ldd	r19, Z+1	; 0x01
    17e8:	23 2b       	or	r18, r19
    17ea:	11 f0       	breq	.+4      	; 0x17f0 <ProcessInput+0x58>
    17ec:	81 11       	cpse	r24, r1
    17ee:	16 c0       	rjmp	.+44     	; 0x181c <ProcessInput+0x84>
    txAddrNow = 0;  //Start at first pointer, initiates sending in CheckSend
    return 0;
}

void SetResponse(uint8_t number, uint16_t address, uint16_t length, uint8_t type){
    reactStr[0][number]=address;
    17f0:	8e ea       	ldi	r24, 0xAE	; 174
    17f2:	96 e7       	ldi	r25, 0x76	; 118
    17f4:	80 93 04 39 	sts	0x3904, r24	; 0x803904 <reactStr>
    17f8:	90 93 05 39 	sts	0x3905, r25	; 0x803905 <reactStr+0x1>
    reactStr[1][number]=length;
    17fc:	8b e1       	ldi	r24, 0x1B	; 27
    17fe:	90 e0       	ldi	r25, 0x00	; 0
    1800:	80 93 44 39 	sts	0x3944, r24	; 0x803944 <reactStr+0x40>
    1804:	90 93 45 39 	sts	0x3945, r25	; 0x803945 <reactStr+0x41>
    reactStr[2][number]=type;
    1808:	81 e0       	ldi	r24, 0x01	; 1
    180a:	90 e0       	ldi	r25, 0x00	; 0
    180c:	80 93 84 39 	sts	0x3984, r24	; 0x803984 <reactStr+0x80>
    1810:	90 93 85 39 	sts	0x3985, r25	; 0x803985 <reactStr+0x81>
        if (data[0] == 'x'){

            //Standing in the Lobby?
            if ((route[currDepth] == 0)||(currDepth == 0)){
                SetResponse(0, A_NOTPOSSIBLE, L_NOTPOSSIBLE, TEASER);
                responseList = SetStandardResponse(1);
    1814:	16 dc       	rcall	.-2004   	; 0x1042 <SetStandardResponse>
    1816:	80 93 03 39 	sts	0x3903, r24	; 0x803903 <responseList>
            
            //Is there a way to go back?
            } else if (CheckState(currObj.byteField[OPEN_ACL])){
    181a:	3c c2       	rjmp	.+1144   	; 0x1c94 <ProcessInput+0x4fc>
    181c:	80 91 0a 3a 	lds	r24, 0x3A0A	; 0x803a0a <currObj+0x6>
    1820:	28 dd       	rcall	.-1456   	; 0x1272 <CheckState>
    1822:	88 23       	and	r24, r24
    1824:	a1 f0       	breq	.+40     	; 0x184e <ProcessInput+0xb6>
                --currDepth;
    1826:	e0 91 8f 38 	lds	r30, 0x388F	; 0x80388f <currDepth>
    182a:	e1 50       	subi	r30, 0x01	; 1
    182c:	e0 93 8f 38 	sts	0x388F, r30	; 0x80388f <currDepth>
                PopulateObject(route[currDepth], &currObj);
    1830:	f0 e0       	ldi	r31, 0x00	; 0
    1832:	ee 0f       	add	r30, r30
    1834:	ff 1f       	adc	r31, r31
    1836:	ec 53       	subi	r30, 0x3C	; 60
    1838:	f6 4c       	sbci	r31, 0xC6	; 198
    183a:	64 e0       	ldi	r22, 0x04	; 4
    183c:	7a e3       	ldi	r23, 0x3A	; 58
    183e:	80 81       	ld	r24, Z
    1840:	91 81       	ldd	r25, Z+1	; 0x01
                responseList = SetStandardResponse(0);
    1842:	ad dc       	rcall	.-1702   	; 0x119e <PopulateObject>
    1844:	80 e0       	ldi	r24, 0x00	; 0
    1846:	fd db       	rcall	.-2054   	; 0x1042 <SetStandardResponse>
    1848:	80 93 03 39 	sts	0x3903, r24	; 0x803903 <responseList>
    184c:	23 c2       	rjmp	.+1094   	; 0x1c94 <ProcessInput+0x4fc>
            
            //No way out, print denied message of location
            } else {
                SetResponse(0, currObj.addrStr[OPEN_ACL_MSG], currObj.lenStr[OPEN_ACL_MSG], GAME);               
    184e:	e4 e0       	ldi	r30, 0x04	; 4
    1850:	fa e3       	ldi	r31, 0x3A	; 58
    1852:	82 a1       	ldd	r24, Z+34	; 0x22
    1854:	93 a1       	ldd	r25, Z+35	; 0x23
    txAddrNow = 0;  //Start at first pointer, initiates sending in CheckSend
    return 0;
}

void SetResponse(uint8_t number, uint16_t address, uint16_t length, uint8_t type){
    reactStr[0][number]=address;
    1856:	24 89       	ldd	r18, Z+20	; 0x14
    1858:	35 89       	ldd	r19, Z+21	; 0x15
    185a:	20 93 04 39 	sts	0x3904, r18	; 0x803904 <reactStr>
    185e:	30 93 05 39 	sts	0x3905, r19	; 0x803905 <reactStr+0x1>
    reactStr[1][number]=length;
    1862:	80 93 44 39 	sts	0x3944, r24	; 0x803944 <reactStr+0x40>
    1866:	90 93 45 39 	sts	0x3945, r25	; 0x803945 <reactStr+0x41>
    reactStr[2][number]=type;
    186a:	10 92 84 39 	sts	0x3984, r1	; 0x803984 <reactStr+0x80>
    186e:	10 92 85 39 	sts	0x3985, r1	; 0x803985 <reactStr+0x81>
                responseList = SetStandardResponse(0);
            
            //No way out, print denied message of location
            } else {
                SetResponse(0, currObj.addrStr[OPEN_ACL_MSG], currObj.lenStr[OPEN_ACL_MSG], GAME);               
                responseList = SetStandardResponse(1);
    1872:	81 e0       	ldi	r24, 0x01	; 1
    1874:	e6 db       	rcall	.-2100   	; 0x1042 <SetStandardResponse>
    1876:	80 93 03 39 	sts	0x3903, r24	; 0x803903 <responseList>
    187a:	0c c2       	rjmp	.+1048   	; 0x1c94 <ProcessInput+0x4fc>
            }   
            
        } else if ((data[0] == 'e')||(data[0] == 'o')) {
    187c:	95 36       	cpi	r25, 0x65	; 101
    187e:	19 f0       	breq	.+6      	; 0x1886 <ProcessInput+0xee>
    1880:	9f 36       	cpi	r25, 0x6F	; 111
    1882:	09 f0       	breq	.+2      	; 0x1886 <ProcessInput+0xee>
    1884:	f0 c0       	rjmp	.+480    	; 0x1a66 <ProcessInput+0x2ce>
                
            //Not possible, too many/little characters
            if (inputLen != 2){
    1886:	82 30       	cpi	r24, 0x02	; 2
    1888:	b1 f0       	breq	.+44     	; 0x18b6 <ProcessInput+0x11e>
    txAddrNow = 0;  //Start at first pointer, initiates sending in CheckSend
    return 0;
}

void SetResponse(uint8_t number, uint16_t address, uint16_t length, uint8_t type){
    reactStr[0][number]=address;
    188a:	8e ea       	ldi	r24, 0xAE	; 174
    188c:	96 e7       	ldi	r25, 0x76	; 118
    188e:	80 93 04 39 	sts	0x3904, r24	; 0x803904 <reactStr>
    1892:	90 93 05 39 	sts	0x3905, r25	; 0x803905 <reactStr+0x1>
    reactStr[1][number]=length;
    1896:	8b e1       	ldi	r24, 0x1B	; 27
    1898:	90 e0       	ldi	r25, 0x00	; 0
    189a:	80 93 44 39 	sts	0x3944, r24	; 0x803944 <reactStr+0x40>
    189e:	90 93 45 39 	sts	0x3945, r25	; 0x803945 <reactStr+0x41>
    reactStr[2][number]=type;
    18a2:	81 e0       	ldi	r24, 0x01	; 1
    18a4:	90 e0       	ldi	r25, 0x00	; 0
    18a6:	80 93 84 39 	sts	0x3984, r24	; 0x803984 <reactStr+0x80>
    18aa:	90 93 85 39 	sts	0x3985, r25	; 0x803985 <reactStr+0x81>
        } else if ((data[0] == 'e')||(data[0] == 'o')) {
                
            //Not possible, too many/little characters
            if (inputLen != 2){
                SetResponse(0, A_NOTPOSSIBLE, L_NOTPOSSIBLE, TEASER);
                responseList = SetStandardResponse(1);
    18ae:	c9 db       	rcall	.-2158   	; 0x1042 <SetStandardResponse>
    18b0:	80 93 03 39 	sts	0x3903, r24	; 0x803903 <responseList>
    18b4:	ef c1       	rjmp	.+990    	; 0x1c94 <ProcessInput+0x4fc>
            } else {
                uint8_t canDo = 0;
                route[currDepth+1] = FindChild(route[currDepth], data[1], 0);
    18b6:	e0 90 8f 38 	lds	r14, 0x388F	; 0x80388f <currDepth>
    18ba:	f1 2c       	mov	r15, r1
    18bc:	f7 01       	movw	r30, r14
    18be:	ee 0f       	add	r30, r30
    18c0:	ff 1f       	adc	r31, r31
    18c2:	ec 53       	subi	r30, 0x3C	; 60
    18c4:	f6 4c       	sbci	r31, 0xC6	; 198
    18c6:	40 e0       	ldi	r20, 0x00	; 0
    18c8:	50 e0       	ldi	r21, 0x00	; 0
    18ca:	d8 01       	movw	r26, r16
    18cc:	11 96       	adiw	r26, 0x01	; 1
    18ce:	6c 91       	ld	r22, X
    18d0:	80 81       	ld	r24, Z
    18d2:	91 81       	ldd	r25, Z+1	; 0x01
    18d4:	3b dd       	rcall	.-1418   	; 0x134c <FindChild>
    18d6:	f7 01       	movw	r30, r14
    18d8:	ee 0f       	add	r30, r30
    18da:	ff 1f       	adc	r31, r31
    18dc:	ea 53       	subi	r30, 0x3A	; 58
    18de:	f6 4c       	sbci	r31, 0xC6	; 198
    18e0:	80 83       	st	Z, r24
    18e2:	91 83       	std	Z+1, r25	; 0x01
                    
                //Child found?
                if (route[currDepth+1]) {
    18e4:	90 91 8f 38 	lds	r25, 0x388F	; 0x80388f <currDepth>
    18e8:	29 2f       	mov	r18, r25
    18ea:	30 e0       	ldi	r19, 0x00	; 0
    18ec:	f9 01       	movw	r30, r18
    18ee:	ee 0f       	add	r30, r30
    18f0:	ff 1f       	adc	r31, r31
    18f2:	ea 53       	subi	r30, 0x3A	; 58
    18f4:	f6 4c       	sbci	r31, 0xC6	; 198
    18f6:	40 81       	ld	r20, Z
    18f8:	51 81       	ldd	r21, Z+1	; 0x01
    18fa:	41 15       	cp	r20, r1
    18fc:	51 05       	cpc	r21, r1
                    PopulateObject(route[currDepth+1], &actObj1);
    18fe:	29 f0       	breq	.+10     	; 0x190a <ProcessInput+0x172>
    1900:	69 ed       	ldi	r22, 0xD9	; 217
    1902:	78 e3       	ldi	r23, 0x38	; 56
    1904:	ca 01       	movw	r24, r20
    1906:	4b dc       	rcall	.-1898   	; 0x119e <PopulateObject>
    1908:	17 c0       	rjmp	.+46     	; 0x1938 <ProcessInput+0x1a0>
                    canDo = 1;
                //No child, maybe a step back, letter ok?
                } else if (currDepth) {
    190a:	99 23       	and	r25, r25
    190c:	09 f4       	brne	.+2      	; 0x1910 <ProcessInput+0x178>
                    PopulateObject(route[currDepth-1], &actObj1);
    190e:	95 c0       	rjmp	.+298    	; 0x1a3a <ProcessInput+0x2a2>
    1910:	22 0f       	add	r18, r18
    1912:	33 1f       	adc	r19, r19
    1914:	f9 01       	movw	r30, r18
    1916:	ee 53       	subi	r30, 0x3E	; 62
    1918:	f6 4c       	sbci	r31, 0xC6	; 198
    191a:	69 ed       	ldi	r22, 0xD9	; 217
    191c:	78 e3       	ldi	r23, 0x38	; 56
    191e:	80 81       	ld	r24, Z
    1920:	91 81       	ldd	r25, Z+1	; 0x01
                    if (CheckLetter(actObj1.addrStr[NAME], data[1])) {
    1922:	3d dc       	rcall	.-1926   	; 0x119e <PopulateObject>
    1924:	f8 01       	movw	r30, r16
    1926:	61 81       	ldd	r22, Z+1	; 0x01
    1928:	80 91 e5 38 	lds	r24, 0x38E5	; 0x8038e5 <actObj1.3936+0xc>
    192c:	90 91 e6 38 	lds	r25, 0x38E6	; 0x8038e6 <actObj1.3936+0xd>
    1930:	b2 dc       	rcall	.-1692   	; 0x1296 <CheckLetter>
                        canDo = 1; 
                    }
                }

                //The candidate is found! Let's check if the action is legit
                if (canDo) {
    1932:	88 23       	and	r24, r24
    1934:	09 f4       	brne	.+2      	; 0x1938 <ProcessInput+0x1a0>
    1936:	81 c0       	rjmp	.+258    	; 0x1a3a <ProcessInput+0x2a2>
                    volatile uint8_t bEnter = (data[0] == 'e');
    1938:	81 e0       	ldi	r24, 0x01	; 1
    193a:	d8 01       	movw	r26, r16
    193c:	9c 91       	ld	r25, X
    193e:	95 36       	cpi	r25, 0x65	; 101
    1940:	09 f0       	breq	.+2      	; 0x1944 <ProcessInput+0x1ac>
    1942:	80 e0       	ldi	r24, 0x00	; 0
    1944:	89 83       	std	Y+1, r24	; 0x01
                    if ((actObj1.byteField[ACTION_MASK]&(bEnter?ENTER:OPEN))==0) {
    1946:	80 91 e1 38 	lds	r24, 0x38E1	; 0x8038e1 <actObj1.3936+0x8>
    194a:	90 e0       	ldi	r25, 0x00	; 0
    194c:	29 81       	ldd	r18, Y+1	; 0x01
    194e:	21 11       	cpse	r18, r1
    1950:	03 c0       	rjmp	.+6      	; 0x1958 <ProcessInput+0x1c0>
    1952:	22 e0       	ldi	r18, 0x02	; 2
    1954:	30 e0       	ldi	r19, 0x00	; 0
    1956:	02 c0       	rjmp	.+4      	; 0x195c <ProcessInput+0x1c4>
    1958:	21 e0       	ldi	r18, 0x01	; 1
    195a:	30 e0       	ldi	r19, 0x00	; 0
    195c:	82 23       	and	r24, r18
    195e:	93 23       	and	r25, r19
    1960:	89 2b       	or	r24, r25
    1962:	11 f5       	brne	.+68     	; 0x19a8 <ProcessInput+0x210>
                        SetResponse(0, bEnter?A_CANTENTER:A_CANTOPEN, bEnter?L_CANTENTER:L_CANTOPEN, TEASER);
    1964:	89 81       	ldd	r24, Y+1	; 0x01
    1966:	81 11       	cpse	r24, r1
    1968:	03 c0       	rjmp	.+6      	; 0x1970 <ProcessInput+0x1d8>
    196a:	8b e1       	ldi	r24, 0x1B	; 27
    196c:	90 e0       	ldi	r25, 0x00	; 0
    196e:	02 c0       	rjmp	.+4      	; 0x1974 <ProcessInput+0x1dc>
    1970:	8e e1       	ldi	r24, 0x1E	; 30
    1972:	90 e0       	ldi	r25, 0x00	; 0
    1974:	29 81       	ldd	r18, Y+1	; 0x01
    1976:	21 11       	cpse	r18, r1
    1978:	03 c0       	rjmp	.+6      	; 0x1980 <ProcessInput+0x1e8>
    197a:	2f ea       	ldi	r18, 0xAF	; 175
    197c:	39 e7       	ldi	r19, 0x79	; 121
    197e:	02 c0       	rjmp	.+4      	; 0x1984 <ProcessInput+0x1ec>
    1980:	2a ec       	ldi	r18, 0xCA	; 202
    1982:	39 e7       	ldi	r19, 0x79	; 121
    txAddrNow = 0;  //Start at first pointer, initiates sending in CheckSend
    return 0;
}

void SetResponse(uint8_t number, uint16_t address, uint16_t length, uint8_t type){
    reactStr[0][number]=address;
    1984:	20 93 04 39 	sts	0x3904, r18	; 0x803904 <reactStr>
    1988:	30 93 05 39 	sts	0x3905, r19	; 0x803905 <reactStr+0x1>
    reactStr[1][number]=length;
    198c:	80 93 44 39 	sts	0x3944, r24	; 0x803944 <reactStr+0x40>
    1990:	90 93 45 39 	sts	0x3945, r25	; 0x803945 <reactStr+0x41>
    reactStr[2][number]=type;
    1994:	81 e0       	ldi	r24, 0x01	; 1
    1996:	90 e0       	ldi	r25, 0x00	; 0
    1998:	80 93 84 39 	sts	0x3984, r24	; 0x803984 <reactStr+0x80>
                //The candidate is found! Let's check if the action is legit
                if (canDo) {
                    volatile uint8_t bEnter = (data[0] == 'e');
                    if ((actObj1.byteField[ACTION_MASK]&(bEnter?ENTER:OPEN))==0) {
                        SetResponse(0, bEnter?A_CANTENTER:A_CANTOPEN, bEnter?L_CANTENTER:L_CANTOPEN, TEASER);
                        responseList = SetStandardResponse(1);
    199c:	90 93 85 39 	sts	0x3985, r25	; 0x803985 <reactStr+0x81>
    19a0:	50 db       	rcall	.-2400   	; 0x1042 <SetStandardResponse>
    19a2:	80 93 03 39 	sts	0x3903, r24	; 0x803903 <responseList>
                        
                    //Action legit, permission granted?
                    } else if (CheckState(actObj1.byteField[OPEN_ACL])) {
    19a6:	76 c1       	rjmp	.+748    	; 0x1c94 <ProcessInput+0x4fc>
    19a8:	80 91 df 38 	lds	r24, 0x38DF	; 0x8038df <actObj1.3936+0x6>
    19ac:	62 dc       	rcall	.-1852   	; 0x1272 <CheckState>
    19ae:	88 23       	and	r24, r24
    19b0:	21 f1       	breq	.+72     	; 0x19fa <ProcessInput+0x262>
                            
                        //Yes! Check if we must move forward or backwards.
                        if (route[currDepth+1]) ++currDepth; else --currDepth;
    19b2:	80 91 8f 38 	lds	r24, 0x388F	; 0x80388f <currDepth>
    19b6:	e8 2f       	mov	r30, r24
    19b8:	f0 e0       	ldi	r31, 0x00	; 0
    19ba:	ee 0f       	add	r30, r30
    19bc:	ff 1f       	adc	r31, r31
    19be:	ea 53       	subi	r30, 0x3A	; 58
    19c0:	f6 4c       	sbci	r31, 0xC6	; 198
    19c2:	20 81       	ld	r18, Z
    19c4:	31 81       	ldd	r19, Z+1	; 0x01
    19c6:	23 2b       	or	r18, r19
    19c8:	21 f0       	breq	.+8      	; 0x19d2 <ProcessInput+0x23a>
    19ca:	8f 5f       	subi	r24, 0xFF	; 255
    19cc:	80 93 8f 38 	sts	0x388F, r24	; 0x80388f <currDepth>
    19d0:	03 c0       	rjmp	.+6      	; 0x19d8 <ProcessInput+0x240>
    19d2:	81 50       	subi	r24, 0x01	; 1
    19d4:	80 93 8f 38 	sts	0x388F, r24	; 0x80388f <currDepth>
                        PopulateObject(route[currDepth], &currObj);
    19d8:	e0 91 8f 38 	lds	r30, 0x388F	; 0x80388f <currDepth>
    19dc:	f0 e0       	ldi	r31, 0x00	; 0
    19de:	ee 0f       	add	r30, r30
    19e0:	ff 1f       	adc	r31, r31
    19e2:	ec 53       	subi	r30, 0x3C	; 60
    19e4:	f6 4c       	sbci	r31, 0xC6	; 198
    19e6:	64 e0       	ldi	r22, 0x04	; 4
    19e8:	7a e3       	ldi	r23, 0x3A	; 58
    19ea:	80 81       	ld	r24, Z
    19ec:	91 81       	ldd	r25, Z+1	; 0x01
    19ee:	d7 db       	rcall	.-2130   	; 0x119e <PopulateObject>
                        responseList = SetStandardResponse(0);
    19f0:	80 e0       	ldi	r24, 0x00	; 0
    19f2:	27 db       	rcall	.-2482   	; 0x1042 <SetStandardResponse>
    19f4:	80 93 03 39 	sts	0x3903, r24	; 0x803903 <responseList>
    19f8:	4d c1       	rjmp	.+666    	; 0x1c94 <ProcessInput+0x4fc>
    19fa:	e0 91 8f 38 	lds	r30, 0x388F	; 0x80388f <currDepth>
                                                  
                    //Not granted!
                    } else {
                        route[currDepth+1] = 0;
    19fe:	f0 e0       	ldi	r31, 0x00	; 0
    1a00:	ee 0f       	add	r30, r30
    1a02:	ff 1f       	adc	r31, r31
    1a04:	ea 53       	subi	r30, 0x3A	; 58
    1a06:	f6 4c       	sbci	r31, 0xC6	; 198
    1a08:	10 82       	st	Z, r1
    1a0a:	11 82       	std	Z+1, r1	; 0x01
    1a0c:	e4 e0       	ldi	r30, 0x04	; 4
                        SetResponse(0, currObj.addrStr[OPEN_ACL_MSG], currObj.lenStr[OPEN_ACL_MSG], GAME);                
    1a0e:	fa e3       	ldi	r31, 0x3A	; 58
    1a10:	82 a1       	ldd	r24, Z+34	; 0x22
    1a12:	93 a1       	ldd	r25, Z+35	; 0x23
    txAddrNow = 0;  //Start at first pointer, initiates sending in CheckSend
    return 0;
}

void SetResponse(uint8_t number, uint16_t address, uint16_t length, uint8_t type){
    reactStr[0][number]=address;
    1a14:	24 89       	ldd	r18, Z+20	; 0x14
    1a16:	35 89       	ldd	r19, Z+21	; 0x15
    1a18:	20 93 04 39 	sts	0x3904, r18	; 0x803904 <reactStr>
    1a1c:	30 93 05 39 	sts	0x3905, r19	; 0x803905 <reactStr+0x1>
    reactStr[1][number]=length;
    1a20:	80 93 44 39 	sts	0x3944, r24	; 0x803944 <reactStr+0x40>
    1a24:	90 93 45 39 	sts	0x3945, r25	; 0x803945 <reactStr+0x41>
    reactStr[2][number]=type;
    1a28:	10 92 84 39 	sts	0x3984, r1	; 0x803984 <reactStr+0x80>
    1a2c:	10 92 85 39 	sts	0x3985, r1	; 0x803985 <reactStr+0x81>
                                                  
                    //Not granted!
                    } else {
                        route[currDepth+1] = 0;
                        SetResponse(0, currObj.addrStr[OPEN_ACL_MSG], currObj.lenStr[OPEN_ACL_MSG], GAME);                
                        responseList = SetStandardResponse(1);
    1a30:	81 e0       	ldi	r24, 0x01	; 1
    1a32:	07 db       	rcall	.-2546   	; 0x1042 <SetStandardResponse>
    1a34:	80 93 03 39 	sts	0x3903, r24	; 0x803903 <responseList>
    1a38:	2d c1       	rjmp	.+602    	; 0x1c94 <ProcessInput+0x4fc>
    1a3a:	8e ef       	ldi	r24, 0xFE	; 254
    txAddrNow = 0;  //Start at first pointer, initiates sending in CheckSend
    return 0;
}

void SetResponse(uint8_t number, uint16_t address, uint16_t length, uint8_t type){
    reactStr[0][number]=address;
    1a3c:	99 e7       	ldi	r25, 0x79	; 121
    1a3e:	80 93 04 39 	sts	0x3904, r24	; 0x803904 <reactStr>
    1a42:	90 93 05 39 	sts	0x3905, r25	; 0x803905 <reactStr+0x1>
    reactStr[1][number]=length;
    1a46:	8a e1       	ldi	r24, 0x1A	; 26
    1a48:	90 e0       	ldi	r25, 0x00	; 0
    1a4a:	80 93 44 39 	sts	0x3944, r24	; 0x803944 <reactStr+0x40>
    1a4e:	90 93 45 39 	sts	0x3945, r25	; 0x803945 <reactStr+0x41>
    reactStr[2][number]=type;
    1a52:	81 e0       	ldi	r24, 0x01	; 1
    1a54:	90 e0       	ldi	r25, 0x00	; 0
    1a56:	80 93 84 39 	sts	0x3984, r24	; 0x803984 <reactStr+0x80>
    1a5a:	90 93 85 39 	sts	0x3985, r25	; 0x803985 <reactStr+0x81>
                    }

                //No candidate
                } else {
                    SetResponse(0, A_DONTSEE, L_DONTSEE, TEASER);                
                    responseList = SetStandardResponse(1);
    1a5e:	f1 da       	rcall	.-2590   	; 0x1042 <SetStandardResponse>
    1a60:	80 93 03 39 	sts	0x3903, r24	; 0x803903 <responseList>
    1a64:	17 c1       	rjmp	.+558    	; 0x1c94 <ProcessInput+0x4fc>
    1a66:	9c 36       	cpi	r25, 0x6C	; 108
                }
            }

        } else if (data[0] == 'l') {
    1a68:	09 f0       	breq	.+2      	; 0x1a6c <ProcessInput+0x2d4>
    1a6a:	14 c1       	rjmp	.+552    	; 0x1c94 <ProcessInput+0x4fc>
    1a6c:	81 30       	cpi	r24, 0x01	; 1
            if (inputLen == 1) {
    1a6e:	09 f0       	breq	.+2      	; 0x1a72 <ProcessInput+0x2da>
    1a70:	11 c1       	rjmp	.+546    	; 0x1c94 <ProcessInput+0x4fc>
    1a72:	a4 e0       	ldi	r26, 0x04	; 4
                uint8_t elements = 0;

                //Show info about this area first
                SetResponse(elements++, currObj.addrStr[DESC], currObj.lenStr[DESC],GAME);
    1a74:	ba e3       	ldi	r27, 0x3A	; 58
    1a76:	5c 96       	adiw	r26, 0x1c	; 28
    1a78:	8d 91       	ld	r24, X+
    1a7a:	9c 91       	ld	r25, X
    1a7c:	5d 97       	sbiw	r26, 0x1d	; 29
    1a7e:	e4 e0       	ldi	r30, 0x04	; 4
    txAddrNow = 0;  //Start at first pointer, initiates sending in CheckSend
    return 0;
}

void SetResponse(uint8_t number, uint16_t address, uint16_t length, uint8_t type){
    reactStr[0][number]=address;
    1a80:	f9 e3       	ldi	r31, 0x39	; 57
    1a82:	1e 96       	adiw	r26, 0x0e	; 14
    1a84:	2d 91       	ld	r18, X+
    1a86:	3c 91       	ld	r19, X
    1a88:	1f 97       	sbiw	r26, 0x0f	; 15
    1a8a:	20 83       	st	Z, r18
    1a8c:	31 83       	std	Z+1, r19	; 0x01
    1a8e:	80 93 44 39 	sts	0x3944, r24	; 0x803944 <reactStr+0x40>
    reactStr[1][number]=length;
    1a92:	90 93 45 39 	sts	0x3945, r25	; 0x803945 <reactStr+0x41>
    1a96:	10 92 84 39 	sts	0x3984, r1	; 0x803984 <reactStr+0x80>
    reactStr[2][number]=type;
    1a9a:	10 92 85 39 	sts	0x3985, r1	; 0x803985 <reactStr+0x81>
    1a9e:	84 e8       	ldi	r24, 0x84	; 132
    txAddrNow = 0;  //Start at first pointer, initiates sending in CheckSend
    return 0;
}

void SetResponse(uint8_t number, uint16_t address, uint16_t length, uint8_t type){
    reactStr[0][number]=address;
    1aa0:	9a e7       	ldi	r25, 0x7A	; 122
    1aa2:	82 83       	std	Z+2, r24	; 0x02
    1aa4:	93 83       	std	Z+3, r25	; 0x03
    1aa6:	82 e0       	ldi	r24, 0x02	; 2
    reactStr[1][number]=length;
    1aa8:	90 e0       	ldi	r25, 0x00	; 0
    1aaa:	80 93 46 39 	sts	0x3946, r24	; 0x803946 <reactStr+0x42>
    1aae:	90 93 47 39 	sts	0x3947, r25	; 0x803947 <reactStr+0x43>
    1ab2:	81 e0       	ldi	r24, 0x01	; 1
    reactStr[2][number]=type;
    1ab4:	90 e0       	ldi	r25, 0x00	; 0
    1ab6:	80 93 86 39 	sts	0x3986, r24	; 0x803986 <reactStr+0x82>
    1aba:	90 93 87 39 	sts	0x3987, r25	; 0x803987 <reactStr+0x83>
    1abe:	2a e8       	ldi	r18, 0x8A	; 138
    txAddrNow = 0;  //Start at first pointer, initiates sending in CheckSend
    return 0;
}

void SetResponse(uint8_t number, uint16_t address, uint16_t length, uint8_t type){
    reactStr[0][number]=address;
    1ac0:	3a e7       	ldi	r19, 0x7A	; 122
    1ac2:	24 83       	std	Z+4, r18	; 0x04
    1ac4:	35 83       	std	Z+5, r19	; 0x05
    1ac6:	80 93 48 39 	sts	0x3948, r24	; 0x803948 <reactStr+0x44>
    reactStr[1][number]=length;
    1aca:	90 93 49 39 	sts	0x3949, r25	; 0x803949 <reactStr+0x45>
    1ace:	80 93 88 39 	sts	0x3988, r24	; 0x803988 <reactStr+0x84>
    reactStr[2][number]=type;
    1ad2:	90 93 89 39 	sts	0x3989, r25	; 0x803989 <reactStr+0x85>
    1ad6:	e0 91 8f 38 	lds	r30, 0x388F	; 0x80388f <currDepth>
                SetResponse(elements++, currObj.addrStr[DESC], currObj.lenStr[DESC],GAME);
                SetResponse(elements++, A_COMMA, L_COMMA, TEASER);
                SetResponse(elements++, A_SPACE, L_SPACE, TEASER);

                //Check the visible children first
                route[currDepth+1] = 0;
    1ada:	f0 e0       	ldi	r31, 0x00	; 0
    1adc:	ee 0f       	add	r30, r30
    1ade:	ff 1f       	adc	r31, r31
    1ae0:	ea 53       	subi	r30, 0x3A	; 58
    1ae2:	f6 4c       	sbci	r31, 0xC6	; 198
    1ae4:	10 82       	st	Z, r1
    1ae6:	11 82       	std	Z+1, r1	; 0x01
    1ae8:	0f 2e       	mov	r0, r31
                uint8_t elements = 0;

                //Show info about this area first
                SetResponse(elements++, currObj.addrStr[DESC], currObj.lenStr[DESC],GAME);
                SetResponse(elements++, A_COMMA, L_COMMA, TEASER);
                SetResponse(elements++, A_SPACE, L_SPACE, TEASER);
    1aea:	f3 e0       	ldi	r31, 0x03	; 3
    1aec:	5f 2e       	mov	r5, r31
    1aee:	f0 2d       	mov	r31, r0
    1af0:	0f 2e       	mov	r0, r31
    txAddrNow = 0;  //Start at first pointer, initiates sending in CheckSend
    return 0;
}

void SetResponse(uint8_t number, uint16_t address, uint16_t length, uint8_t type){
    reactStr[0][number]=address;
    1af2:	f4 e8       	ldi	r31, 0x84	; 132
    1af4:	8f 2e       	mov	r8, r31
    1af6:	fa e7       	ldi	r31, 0x7A	; 122
    1af8:	9f 2e       	mov	r9, r31
    1afa:	f0 2d       	mov	r31, r0
    1afc:	68 94       	set
    reactStr[1][number]=length;
    1afe:	aa 24       	eor	r10, r10
    1b00:	a1 f8       	bld	r10, 1
    1b02:	b1 2c       	mov	r11, r1
    1b04:	cc 24       	eor	r12, r12
    reactStr[2][number]=type;
    1b06:	c3 94       	inc	r12
    1b08:	d1 2c       	mov	r13, r1
    1b0a:	0f 2e       	mov	r0, r31
    txAddrNow = 0;  //Start at first pointer, initiates sending in CheckSend
    return 0;
}

void SetResponse(uint8_t number, uint16_t address, uint16_t length, uint8_t type){
    reactStr[0][number]=address;
    1b0c:	fa e8       	ldi	r31, 0x8A	; 138
    1b0e:	6f 2e       	mov	r6, r31
    1b10:	fa e7       	ldi	r31, 0x7A	; 122
    1b12:	7f 2e       	mov	r7, r31
    1b14:	f0 2d       	mov	r31, r0
    1b16:	80 91 8f 38 	lds	r24, 0x388F	; 0x80388f <currDepth>
                SetResponse(elements++, A_SPACE, L_SPACE, TEASER);

                //Check the visible children first
                route[currDepth+1] = 0;
                do{
                    route[currDepth+1] = FindChild(route[currDepth], 0, route[currDepth+1]);
    1b1a:	90 e0       	ldi	r25, 0x00	; 0
    1b1c:	9c 01       	movw	r18, r24
    1b1e:	22 0f       	add	r18, r18
    1b20:	33 1f       	adc	r19, r19
    1b22:	f9 01       	movw	r30, r18
    1b24:	ea 53       	subi	r30, 0x3A	; 58
    1b26:	f6 4c       	sbci	r31, 0xC6	; 198
    1b28:	7f 01       	movw	r14, r30
    1b2a:	40 81       	ld	r20, Z
    1b2c:	51 81       	ldd	r21, Z+1	; 0x01
    1b2e:	f9 01       	movw	r30, r18
    1b30:	ec 53       	subi	r30, 0x3C	; 60
    1b32:	f6 4c       	sbci	r31, 0xC6	; 198
    1b34:	60 e0       	ldi	r22, 0x00	; 0
    1b36:	80 81       	ld	r24, Z
    1b38:	91 81       	ldd	r25, Z+1	; 0x01
    1b3a:	08 dc       	rcall	.-2032   	; 0x134c <FindChild>
    1b3c:	d7 01       	movw	r26, r14
    1b3e:	8d 93       	st	X+, r24
    1b40:	9c 93       	st	X, r25
    1b42:	90 91 8f 38 	lds	r25, 0x388F	; 0x80388f <currDepth>
                    if (route[currDepth+1]) {
    1b46:	29 2f       	mov	r18, r25
    1b48:	30 e0       	ldi	r19, 0x00	; 0
    1b4a:	f9 01       	movw	r30, r18
    1b4c:	ee 0f       	add	r30, r30
    1b4e:	ff 1f       	adc	r31, r31
    1b50:	ea 53       	subi	r30, 0x3A	; 58
    1b52:	f6 4c       	sbci	r31, 0xC6	; 198
    1b54:	40 81       	ld	r20, Z
    1b56:	51 81       	ldd	r21, Z+1	; 0x01
    1b58:	41 15       	cp	r20, r1
    1b5a:	51 05       	cpc	r21, r1
    1b5c:	09 f4       	brne	.+2      	; 0x1b60 <ProcessInput+0x3c8>
    1b5e:	65 c0       	rjmp	.+202    	; 0x1c2a <ProcessInput+0x492>
    1b60:	69 ed       	ldi	r22, 0xD9	; 217
                        PopulateObject(route[currDepth+1], &actObj1);
    1b62:	78 e3       	ldi	r23, 0x38	; 56
    1b64:	ca 01       	movw	r24, r20
    1b66:	1b db       	rcall	.-2506   	; 0x119e <PopulateObject>
    1b68:	a9 ed       	ldi	r26, 0xD9	; 217
    1b6a:	b8 e3       	ldi	r27, 0x38	; 56
                        SetResponse(elements++, actObj1.addrStr[NAME], actObj1.lenStr[NAME],GAME);
    1b6c:	5a 96       	adiw	r26, 0x1a	; 26
    1b6e:	2d 91       	ld	r18, X+
    1b70:	3c 91       	ld	r19, X
    1b72:	5b 97       	sbiw	r26, 0x1b	; 27
    1b74:	85 2d       	mov	r24, r5
    1b76:	90 e0       	ldi	r25, 0x00	; 0
    txAddrNow = 0;  //Start at first pointer, initiates sending in CheckSend
    return 0;
}

void SetResponse(uint8_t number, uint16_t address, uint16_t length, uint8_t type){
    reactStr[0][number]=address;
    1b78:	fc 01       	movw	r30, r24
    1b7a:	ee 0f       	add	r30, r30
    1b7c:	ff 1f       	adc	r31, r31
    1b7e:	ec 5f       	subi	r30, 0xFC	; 252
    1b80:	f6 4c       	sbci	r31, 0xC6	; 198
    1b82:	1c 96       	adiw	r26, 0x0c	; 12
    1b84:	4d 91       	ld	r20, X+
    1b86:	5c 91       	ld	r21, X
    1b88:	1d 97       	sbiw	r26, 0x0d	; 13
    1b8a:	40 83       	st	Z, r20
    1b8c:	51 83       	std	Z+1, r21	; 0x01
    1b8e:	fc 01       	movw	r30, r24
    1b90:	ee 0f       	add	r30, r30
    reactStr[1][number]=length;
    1b92:	ff 1f       	adc	r31, r31
    1b94:	ec 5b       	subi	r30, 0xBC	; 188
    1b96:	f6 4c       	sbci	r31, 0xC6	; 198
    1b98:	20 83       	st	Z, r18
    1b9a:	31 83       	std	Z+1, r19	; 0x01
    1b9c:	88 0f       	add	r24, r24
    1b9e:	99 1f       	adc	r25, r25
    reactStr[2][number]=type;
    1ba0:	fc 01       	movw	r30, r24
    1ba2:	ec 57       	subi	r30, 0x7C	; 124
    1ba4:	f6 4c       	sbci	r31, 0xC6	; 198
    1ba6:	10 82       	st	Z, r1
    1ba8:	11 82       	std	Z+1, r1	; 0x01
    1baa:	81 e0       	ldi	r24, 0x01	; 1
    1bac:	85 0d       	add	r24, r5
    txAddrNow = 0;  //Start at first pointer, initiates sending in CheckSend
    return 0;
}

void SetResponse(uint8_t number, uint16_t address, uint16_t length, uint8_t type){
    reactStr[0][number]=address;
    1bae:	90 e0       	ldi	r25, 0x00	; 0
    1bb0:	fc 01       	movw	r30, r24
    1bb2:	ee 0f       	add	r30, r30
    1bb4:	ff 1f       	adc	r31, r31
    1bb6:	ec 5f       	subi	r30, 0xFC	; 252
    1bb8:	f6 4c       	sbci	r31, 0xC6	; 198
    1bba:	80 82       	st	Z, r8
    1bbc:	91 82       	std	Z+1, r9	; 0x01
    1bbe:	fc 01       	movw	r30, r24
    1bc0:	ee 0f       	add	r30, r30
    reactStr[1][number]=length;
    1bc2:	ff 1f       	adc	r31, r31
    1bc4:	ec 5b       	subi	r30, 0xBC	; 188
    1bc6:	f6 4c       	sbci	r31, 0xC6	; 198
    1bc8:	a0 82       	st	Z, r10
    1bca:	b1 82       	std	Z+1, r11	; 0x01
    1bcc:	88 0f       	add	r24, r24
    1bce:	99 1f       	adc	r25, r25
    reactStr[2][number]=type;
    1bd0:	fc 01       	movw	r30, r24
    1bd2:	ec 57       	subi	r30, 0x7C	; 124
    1bd4:	f6 4c       	sbci	r31, 0xC6	; 198
    1bd6:	c0 82       	st	Z, r12
    1bd8:	d1 82       	std	Z+1, r13	; 0x01
    1bda:	82 e0       	ldi	r24, 0x02	; 2
    1bdc:	85 0d       	add	r24, r5
    txAddrNow = 0;  //Start at first pointer, initiates sending in CheckSend
    return 0;
}

void SetResponse(uint8_t number, uint16_t address, uint16_t length, uint8_t type){
    reactStr[0][number]=address;
    1bde:	90 e0       	ldi	r25, 0x00	; 0
    1be0:	b3 e0       	ldi	r27, 0x03	; 3
    1be2:	5b 0e       	add	r5, r27
    1be4:	fc 01       	movw	r30, r24
    1be6:	ee 0f       	add	r30, r30
    1be8:	ff 1f       	adc	r31, r31
    1bea:	ec 5f       	subi	r30, 0xFC	; 252
    1bec:	f6 4c       	sbci	r31, 0xC6	; 198
    1bee:	60 82       	st	Z, r6
    1bf0:	71 82       	std	Z+1, r7	; 0x01
    1bf2:	fc 01       	movw	r30, r24
    1bf4:	ee 0f       	add	r30, r30
    reactStr[1][number]=length;
    1bf6:	ff 1f       	adc	r31, r31
    1bf8:	ec 5b       	subi	r30, 0xBC	; 188
    1bfa:	f6 4c       	sbci	r31, 0xC6	; 198
    1bfc:	c0 82       	st	Z, r12
    1bfe:	d1 82       	std	Z+1, r13	; 0x01
    1c00:	88 0f       	add	r24, r24
    1c02:	99 1f       	adc	r25, r25
    reactStr[2][number]=type;
    1c04:	fc 01       	movw	r30, r24
    1c06:	ec 57       	subi	r30, 0x7C	; 124
    1c08:	f6 4c       	sbci	r31, 0xC6	; 198
    1c0a:	c0 82       	st	Z, r12
    1c0c:	d1 82       	std	Z+1, r13	; 0x01
    1c0e:	90 91 8f 38 	lds	r25, 0x388F	; 0x80388f <currDepth>
                        PopulateObject(route[currDepth+1], &actObj1);
                        SetResponse(elements++, actObj1.addrStr[NAME], actObj1.lenStr[NAME],GAME);
                        SetResponse(elements++, A_COMMA, L_COMMA, TEASER);
                        SetResponse(elements++, A_SPACE, L_SPACE, TEASER);
                    }
                }while (route[currDepth+1]);
    1c12:	29 2f       	mov	r18, r25
    1c14:	30 e0       	ldi	r19, 0x00	; 0
    1c16:	f9 01       	movw	r30, r18
    1c18:	ee 0f       	add	r30, r30
    1c1a:	ff 1f       	adc	r31, r31
    1c1c:	ea 53       	subi	r30, 0x3A	; 58
    1c1e:	f6 4c       	sbci	r31, 0xC6	; 198
    1c20:	40 81       	ld	r20, Z
    1c22:	51 81       	ldd	r21, Z+1	; 0x01
    1c24:	45 2b       	or	r20, r21
    1c26:	09 f0       	breq	.+2      	; 0x1c2a <ProcessInput+0x492>
    1c28:	76 cf       	rjmp	.-276    	; 0x1b16 <ProcessInput+0x37e>
    1c2a:	99 23       	and	r25, r25

                //Look back if not on level 0
                if (currDepth) {
    1c2c:	71 f1       	breq	.+92     	; 0x1c8a <ProcessInput+0x4f2>
    1c2e:	f9 01       	movw	r30, r18
                    PopulateObject(route[currDepth-1], &actObj1);
    1c30:	ee 0f       	add	r30, r30
    1c32:	ff 1f       	adc	r31, r31
    1c34:	ee 53       	subi	r30, 0x3E	; 62
    1c36:	f6 4c       	sbci	r31, 0xC6	; 198
    1c38:	69 ed       	ldi	r22, 0xD9	; 217
    1c3a:	78 e3       	ldi	r23, 0x38	; 56
    1c3c:	80 81       	ld	r24, Z
    1c3e:	91 81       	ldd	r25, Z+1	; 0x01
    1c40:	ae da       	rcall	.-2724   	; 0x119e <PopulateObject>
    1c42:	a9 ed       	ldi	r26, 0xD9	; 217
    1c44:	b8 e3       	ldi	r27, 0x38	; 56
                    SetResponse(elements++, actObj1.addrStr[NAME], actObj1.lenStr[NAME],GAME);
    1c46:	5a 96       	adiw	r26, 0x1a	; 26
    1c48:	4d 91       	ld	r20, X+
    1c4a:	5c 91       	ld	r21, X
    1c4c:	5b 97       	sbiw	r26, 0x1b	; 27
    1c4e:	81 e0       	ldi	r24, 0x01	; 1
    1c50:	85 0d       	add	r24, r5
    1c52:	25 2d       	mov	r18, r5
    1c54:	30 e0       	ldi	r19, 0x00	; 0
    txAddrNow = 0;  //Start at first pointer, initiates sending in CheckSend
    return 0;
}

void SetResponse(uint8_t number, uint16_t address, uint16_t length, uint8_t type){
    reactStr[0][number]=address;
    1c56:	f9 01       	movw	r30, r18
    1c58:	ee 0f       	add	r30, r30
    1c5a:	ff 1f       	adc	r31, r31
    1c5c:	ec 5f       	subi	r30, 0xFC	; 252
    1c5e:	f6 4c       	sbci	r31, 0xC6	; 198
    1c60:	1c 96       	adiw	r26, 0x0c	; 12
    1c62:	6d 91       	ld	r22, X+
    1c64:	7c 91       	ld	r23, X
    1c66:	1d 97       	sbiw	r26, 0x0d	; 13
    1c68:	60 83       	st	Z, r22
    1c6a:	71 83       	std	Z+1, r23	; 0x01
    1c6c:	f9 01       	movw	r30, r18
    reactStr[1][number]=length;
    1c6e:	ee 0f       	add	r30, r30
    1c70:	ff 1f       	adc	r31, r31
    1c72:	ec 5b       	subi	r30, 0xBC	; 188
    1c74:	f6 4c       	sbci	r31, 0xC6	; 198
    1c76:	40 83       	st	Z, r20
    1c78:	51 83       	std	Z+1, r21	; 0x01
    1c7a:	22 0f       	add	r18, r18
    reactStr[2][number]=type;
    1c7c:	33 1f       	adc	r19, r19
    1c7e:	f9 01       	movw	r30, r18
    1c80:	ec 57       	subi	r30, 0x7C	; 124
    1c82:	f6 4c       	sbci	r31, 0xC6	; 198
    1c84:	10 82       	st	Z, r1
    1c86:	11 82       	std	Z+1, r1	; 0x01
    1c88:	02 c0       	rjmp	.+4      	; 0x1c8e <ProcessInput+0x4f6>
    1c8a:	8f ef       	ldi	r24, 0xFF	; 255

                //Look back if not on level 0
                if (currDepth) {
                    PopulateObject(route[currDepth-1], &actObj1);
                    SetResponse(elements++, actObj1.addrStr[NAME], actObj1.lenStr[NAME],GAME);
                } else --elements;
    1c8c:	85 0d       	add	r24, r5
    1c8e:	d9 d9       	rcall	.-3150   	; 0x1042 <SetStandardResponse>
                responseList = SetStandardResponse(elements);
    1c90:	80 93 03 39 	sts	0x3903, r24	; 0x803903 <responseList>
    1c94:	f8 01       	movw	r30, r16
    1c96:	10 82       	st	Z, r1
            ;//No clue, no valid input...
                
        }
            
        //Input handled
        data[0] = 0;
    1c98:	10 92 97 38 	sts	0x3897, r1	; 0x803897 <serRxDone>
        serRxDone = 0;
    1c9c:	1d ba       	out	0x1d, r1	; 29
    1c9e:	80 e0       	ldi	r24, 0x00	; 0
        RXCNT = 0;
    1ca0:	0f 90       	pop	r0
    }
    
    return 0;
}
    1ca2:	df 91       	pop	r29
    1ca4:	cf 91       	pop	r28
    1ca6:	1f 91       	pop	r17
    1ca8:	0f 91       	pop	r16
    1caa:	ff 90       	pop	r15
    1cac:	ef 90       	pop	r14
    1cae:	df 90       	pop	r13
    1cb0:	cf 90       	pop	r12
    1cb2:	bf 90       	pop	r11
    1cb4:	af 90       	pop	r10
    1cb6:	9f 90       	pop	r9
    1cb8:	8f 90       	pop	r8
    1cba:	7f 90       	pop	r7
    1cbc:	6f 90       	pop	r6
    1cbe:	5f 90       	pop	r5
    1cc0:	08 95       	ret

00001cc2 <TextAdventure>:
    1cc2:	cf 93       	push	r28
    1cc4:	dc db       	rcall	.-2120   	; 0x147e <CheckSend>
// Main game loop
uint8_t TextAdventure(){
    static uint8_t serInput[RXLEN];
    
    //Sending data to serial?
    if (CheckSend()) return 1;
    1cc6:	81 11       	cpse	r24, r1
    1cc8:	0f c0       	rjmp	.+30     	; 0x1ce8 <TextAdventure+0x26>

    //Not sending? Process next response part to send
    if (CheckResponse()) return 1;        
    1cca:	2b dc       	rcall	.-1962   	; 0x1522 <CheckResponse>
    1ccc:	81 11       	cpse	r24, r1
    1cce:	0e c0       	rjmp	.+28     	; 0x1cec <TextAdventure+0x2a>
    1cd0:	88 e9       	ldi	r24, 0x98	; 152

    //No responses to send, check if there is user input.
    if (CheckInput(&serInput[0])) return 2; //No (valid) input
    1cd2:	98 e3       	ldi	r25, 0x38	; 56
    1cd4:	6c dc       	rcall	.-1832   	; 0x15ae <CheckInput>
    1cd6:	c8 2f       	mov	r28, r24
    1cd8:	81 11       	cpse	r24, r1
    1cda:	0a c0       	rjmp	.+20     	; 0x1cf0 <TextAdventure+0x2e>
    1cdc:	88 e9       	ldi	r24, 0x98	; 152

    //Input found, process and save (changes only)
    ProcessInput(&serInput[0]);                     //Check which response to generate and fill tx arrays
    1cde:	98 e3       	ldi	r25, 0x38	; 56
    1ce0:	5b dd       	rcall	.-1354   	; 0x1798 <ProcessInput>
    1ce2:	0e 94 2d 06 	call	0xc5a	; 0xc5a <SaveGameState>
    SaveGameState();                                //Check if things are changed, write to EEPROM
    1ce6:	05 c0       	rjmp	.+10     	; 0x1cf2 <TextAdventure+0x30>
    1ce8:	c1 e0       	ldi	r28, 0x01	; 1

    return 0;
    1cea:	03 c0       	rjmp	.+6      	; 0x1cf2 <TextAdventure+0x30>
// Main game loop
uint8_t TextAdventure(){
    static uint8_t serInput[RXLEN];
    
    //Sending data to serial?
    if (CheckSend()) return 1;
    1cec:	c1 e0       	ldi	r28, 0x01	; 1
    1cee:	01 c0       	rjmp	.+2      	; 0x1cf2 <TextAdventure+0x30>

    //Not sending? Process next response part to send
    if (CheckResponse()) return 1;        
    1cf0:	c2 e0       	ldi	r28, 0x02	; 2
    1cf2:	8c 2f       	mov	r24, r28

    //No responses to send, check if there is user input.
    if (CheckInput(&serInput[0])) return 2; //No (valid) input
    1cf4:	cf 91       	pop	r28
    //Input found, process and save (changes only)
    ProcessInput(&serInput[0]);                     //Check which response to generate and fill tx arrays
    SaveGameState();                                //Check if things are changed, write to EEPROM

    return 0;
    1cf6:	08 95       	ret

00001cf8 <main>:
    1cf8:	0e 94 aa 01 	call	0x354	; 0x354 <Setup>

    //SerSpeed(1);
    //unsigned char strTest[]="\aHckerHotel2020 badge pest!\b\b\b\b\bt\n";
    //SerSend(&strTest[0]);

    SerSpeed(255);
    1cfc:	8f ef       	ldi	r24, 0xFF	; 255
    1cfe:	0e 94 3c 05 	call	0xa78	; 0xa78 <SerSpeed>
    1d02:	a4 e6       	ldi	r26, 0x64	; 100
    1d04:	be e9       	ldi	r27, 0x9E	; 158
    1d06:	2a e6       	ldi	r18, 0x6A	; 106
    1d08:	3e e9       	ldi	r19, 0x9E	; 158
    ////Turn on LEDs on low setting to check for interrupt glitches

    //"Hacker"
    for (uint8_t n=0; n<6; n++){
        iLED[HCKR[R][n]] = 1;
    1d0a:	81 e0       	ldi	r24, 0x01	; 1
    1d0c:	ed 91       	ld	r30, X+
    1d0e:	f0 e0       	ldi	r31, 0x00	; 0
    1d10:	ed 53       	subi	r30, 0x3D	; 61
    1d12:	f5 4c       	sbci	r31, 0xC5	; 197
    1d14:	80 83       	st	Z, r24
        iLED[HCKR[G][n]] = 1;
    1d16:	15 96       	adiw	r26, 0x05	; 5
    1d18:	ec 91       	ld	r30, X
    1d1a:	15 97       	sbiw	r26, 0x05	; 5
    1d1c:	f0 e0       	ldi	r31, 0x00	; 0
    1d1e:	ed 53       	subi	r30, 0x3D	; 61
    1d20:	f5 4c       	sbci	r31, 0xC5	; 197
    1d22:	80 83       	st	Z, r24

    SerSpeed(255);
    ////Turn on LEDs on low setting to check for interrupt glitches

    //"Hacker"
    for (uint8_t n=0; n<6; n++){
    1d24:	a2 17       	cp	r26, r18
    1d26:	b3 07       	cpc	r27, r19
    1d28:	89 f7       	brne	.-30     	; 0x1d0c <main+0x14>
    1d2a:	e6 e5       	ldi	r30, 0x56	; 86
    1d2c:	fe e9       	ldi	r31, 0x9E	; 158
    1d2e:	2b e5       	ldi	r18, 0x5B	; 91
    1d30:	3e e9       	ldi	r19, 0x9E	; 158
        iLED[HCKR[G][n]] = 1;
    }

    //"Wings"
    for (uint8_t n=0; n<5; n++){
        iLED[WING[L][n]] = 1;
    1d32:	81 e0       	ldi	r24, 0x01	; 1
    1d34:	ef 01       	movw	r28, r30
    1d36:	a5 81       	ldd	r26, Z+5	; 0x05
    1d38:	b0 e0       	ldi	r27, 0x00	; 0
    1d3a:	ad 53       	subi	r26, 0x3D	; 61
    1d3c:	b5 4c       	sbci	r27, 0xC5	; 197
    1d3e:	8c 93       	st	X, r24
    1d40:	31 96       	adiw	r30, 0x01	; 1
        iLED[WING[R][n]] = 1;
    1d42:	a8 81       	ld	r26, Y
    1d44:	b0 e0       	ldi	r27, 0x00	; 0
    1d46:	ad 53       	subi	r26, 0x3D	; 61
    1d48:	b5 4c       	sbci	r27, 0xC5	; 197
    1d4a:	8c 93       	st	X, r24
        iLED[HCKR[R][n]] = 1;
        iLED[HCKR[G][n]] = 1;
    }

    //"Wings"
    for (uint8_t n=0; n<5; n++){
    1d4c:	e2 17       	cp	r30, r18
    1d4e:	f3 07       	cpc	r31, r19
    1d50:	89 f7       	brne	.-30     	; 0x1d34 <main+0x3c>
        iLED[WING[L][n]] = 1;
        iLED[WING[R][n]] = 1;
    }    

    //"Others"
    iLED[EYE[G][R]] = 1;
    1d52:	a0 e6       	ldi	r26, 0x60	; 96
    1d54:	be e9       	ldi	r27, 0x9E	; 158
    1d56:	12 96       	adiw	r26, 0x02	; 2
    1d58:	ec 91       	ld	r30, X
    1d5a:	12 97       	sbiw	r26, 0x02	; 2
    1d5c:	f0 e0       	ldi	r31, 0x00	; 0
    1d5e:	ed 53       	subi	r30, 0x3D	; 61
    1d60:	f5 4c       	sbci	r31, 0xC5	; 197
    1d62:	81 e0       	ldi	r24, 0x01	; 1
    1d64:	80 83       	st	Z, r24
    iLED[EYE[G][L]] = 1;
    1d66:	13 96       	adiw	r26, 0x03	; 3
    1d68:	ec 91       	ld	r30, X
    1d6a:	13 97       	sbiw	r26, 0x03	; 3
    1d6c:	f0 e0       	ldi	r31, 0x00	; 0
    1d6e:	ed 53       	subi	r30, 0x3D	; 61
    1d70:	f5 4c       	sbci	r31, 0xC5	; 197
    1d72:	80 83       	st	Z, r24
    iLED[EYE[R][R]] = 1;
    1d74:	ec 91       	ld	r30, X
    1d76:	f0 e0       	ldi	r31, 0x00	; 0
    1d78:	ed 53       	subi	r30, 0x3D	; 61
    1d7a:	f5 4c       	sbci	r31, 0xC5	; 197
    1d7c:	80 83       	st	Z, r24
    iLED[EYE[R][L]] = 1;
    1d7e:	11 96       	adiw	r26, 0x01	; 1
    1d80:	ec 91       	ld	r30, X
    1d82:	f0 e0       	ldi	r31, 0x00	; 0
    1d84:	ed 53       	subi	r30, 0x3D	; 61
    1d86:	f5 4c       	sbci	r31, 0xC5	; 197
    1d88:	80 83       	st	Z, r24
    iLED[GEM[R]] = 1;
    1d8a:	a4 e5       	ldi	r26, 0x54	; 84
    1d8c:	be e9       	ldi	r27, 0x9E	; 158
    1d8e:	ec 91       	ld	r30, X
    1d90:	f0 e0       	ldi	r31, 0x00	; 0
    1d92:	ed 53       	subi	r30, 0x3D	; 61
    1d94:	f5 4c       	sbci	r31, 0xC5	; 197
    1d96:	80 83       	st	Z, r24
    iLED[GEM[G]] = 1;
    1d98:	11 96       	adiw	r26, 0x01	; 1
    1d9a:	ec 91       	ld	r30, X
    1d9c:	f0 e0       	ldi	r31, 0x00	; 0
    1d9e:	ed 53       	subi	r30, 0x3D	; 61
    1da0:	f5 4c       	sbci	r31, 0xC5	; 197
    1da2:	80 83       	st	Z, r24
    iLED[RAT] = 1;
    1da4:	e0 91 53 9e 	lds	r30, 0x9E53	; 0x809e53 <__bss_end+0x6343>
    1da8:	f0 e0       	ldi	r31, 0x00	; 0
    1daa:	ed 53       	subi	r30, 0x3D	; 61
    1dac:	f5 4c       	sbci	r31, 0xC5	; 197
    1dae:	80 83       	st	Z, r24
    iLED[CAT] = 1;
    1db0:	e0 91 52 9e 	lds	r30, 0x9E52	; 0x809e52 <__bss_end+0x6342>
    1db4:	f0 e0       	ldi	r31, 0x00	; 0
    1db6:	ed 53       	subi	r30, 0x3D	; 61
    1db8:	f5 4c       	sbci	r31, 0xC5	; 197
    1dba:	80 83       	st	Z, r24
    //uint8_t txBuffer[TXLEN];                    //Buffer for string data

    while (1)
    {
        GenerateAudio();
    1dbc:	0e 94 dd 06 	call	0xdba	; 0xdba <GenerateAudio>

        if (buttonMark){
    1dc0:	80 91 95 38 	lds	r24, 0x3895	; 0x803895 <buttonMark>
    1dc4:	88 23       	and	r24, r24
    1dc6:	d1 f3       	breq	.-12     	; 0x1dbc <main+0xc4>
            buttonState = CheckButtons(buttonState);
    1dc8:	80 91 46 3a 	lds	r24, 0x3A46	; 0x803a46 <buttonState>
    1dcc:	0e 94 4d 05 	call	0xa9a	; 0xa9a <CheckButtons>
    1dd0:	80 93 46 3a 	sts	0x3A46, r24	; 0x803a46 <buttonState>
            buttonMark = 0;
    1dd4:	10 92 95 38 	sts	0x3895, r1	; 0x803895 <buttonMark>
                    if (serTxDone){
                        txBuffer[0] = buttonState;
                        SerSend(&txBuffer[0]);
                    }
*/
            TextAdventure();
    1dd8:	74 df       	rcall	.-280    	; 0x1cc2 <TextAdventure>
          
            //Other games & user interaction checks
            //MagnetMaze();
            BastetDictates();
    1dda:	68 d8       	rcall	.-3888   	; 0xeac <BastetDictates>
    1ddc:	80 91 a0 3a 	lds	r24, 0x3AA0	; 0x803aa0 <adcPhot>
            //MasterMind-ishThing(); //Not sure if to be implemented
            //LanyardCode();
            //MakeFriends();
             
            //Check light sensor status (added hysteresis to preserve writing cycles to internal EEPROM)
            if (adcPhot < 10) WriteStatusBit(116, 1);
    1de0:	90 91 a1 3a 	lds	r25, 0x3AA1	; 0x803aa1 <adcPhot+0x1>
    1de4:	0a 97       	sbiw	r24, 0x0a	; 10
    1de6:	20 f4       	brcc	.+8      	; 0x1df0 <main+0xf8>
    1de8:	61 e0       	ldi	r22, 0x01	; 1
    1dea:	84 e7       	ldi	r24, 0x74	; 116
    1dec:	0e 94 7a 06 	call	0xcf4	; 0xcf4 <WriteStatusBit>
    1df0:	80 91 a0 3a 	lds	r24, 0x3AA0	; 0x803aa0 <adcPhot>
            if (adcPhot > 100) WriteStatusBit(116, 0);
    1df4:	90 91 a1 3a 	lds	r25, 0x3AA1	; 0x803aa1 <adcPhot+0x1>
    1df8:	85 36       	cpi	r24, 0x65	; 101
    1dfa:	91 05       	cpc	r25, r1
    1dfc:	f8 f2       	brcs	.-66     	; 0x1dbc <main+0xc4>
    1dfe:	60 e0       	ldi	r22, 0x00	; 0
    1e00:	84 e7       	ldi	r24, 0x74	; 116
    1e02:	0e 94 7a 06 	call	0xcf4	; 0xcf4 <WriteStatusBit>
    1e06:	da cf       	rjmp	.-76     	; 0x1dbc <main+0xc4>

00001e08 <__udivmodhi4>:
    1e08:	aa 1b       	sub	r26, r26
    1e0a:	bb 1b       	sub	r27, r27
    1e0c:	51 e1       	ldi	r21, 0x11	; 17
    1e0e:	07 c0       	rjmp	.+14     	; 0x1e1e <__udivmodhi4_ep>

00001e10 <__udivmodhi4_loop>:
    1e10:	aa 1f       	adc	r26, r26
    1e12:	bb 1f       	adc	r27, r27
    1e14:	a6 17       	cp	r26, r22
    1e16:	b7 07       	cpc	r27, r23
    1e18:	10 f0       	brcs	.+4      	; 0x1e1e <__udivmodhi4_ep>
    1e1a:	a6 1b       	sub	r26, r22
    1e1c:	b7 0b       	sbc	r27, r23

00001e1e <__udivmodhi4_ep>:
    1e1e:	88 1f       	adc	r24, r24
    1e20:	99 1f       	adc	r25, r25
    1e22:	5a 95       	dec	r21
    1e24:	a9 f7       	brne	.-22     	; 0x1e10 <__udivmodhi4_loop>
    1e26:	80 95       	com	r24
    1e28:	90 95       	com	r25
    1e2a:	bc 01       	movw	r22, r24
    1e2c:	cd 01       	movw	r24, r26
    1e2e:	08 95       	ret

00001e30 <__umulhisi3>:
    1e30:	a2 9f       	mul	r26, r18
    1e32:	b0 01       	movw	r22, r0
    1e34:	b3 9f       	mul	r27, r19
    1e36:	c0 01       	movw	r24, r0
    1e38:	a3 9f       	mul	r26, r19
    1e3a:	70 0d       	add	r23, r0
    1e3c:	81 1d       	adc	r24, r1
    1e3e:	11 24       	eor	r1, r1
    1e40:	91 1d       	adc	r25, r1
    1e42:	b2 9f       	mul	r27, r18
    1e44:	70 0d       	add	r23, r0
    1e46:	81 1d       	adc	r24, r1
    1e48:	11 24       	eor	r1, r1
    1e4a:	91 1d       	adc	r25, r1
    1e4c:	08 95       	ret

00001e4e <_exit>:
    1e4e:	f8 94       	cli

00001e50 <__stop_program>:
    1e50:	ff cf       	rjmp	.-2      	; 0x1e50 <__stop_program>
