
ISR_IO.elf:     file format elf32-avr

Sections:
Idx Name          Size      VMA       LMA       File off  Algn
  0 .data         00000028  00803800  000034d4  00003588  2**0
                  CONTENTS, ALLOC, LOAD, DATA
  1 .text         000033fa  00000000  00000000  000000b4  2**1
                  CONTENTS, ALLOC, LOAD, READONLY, CODE
  2 .rodata       000000da  0000b3fa  000033fa  000034ae  2**0
                  CONTENTS, ALLOC, LOAD, READONLY, DATA
  3 .bss          000002e2  00803828  00803828  000035b0  2**0
                  ALLOC
  4 .comment      00000030  00000000  00000000  000035b0  2**0
                  CONTENTS, READONLY
  5 .note.gnu.avr.deviceinfo 00000040  00000000  00000000  000035e0  2**2
                  CONTENTS, READONLY
  6 .debug_aranges 000002d8  00000000  00000000  00003620  2**0
                  CONTENTS, READONLY, DEBUGGING
  7 .debug_info   00006292  00000000  00000000  000038f8  2**0
                  CONTENTS, READONLY, DEBUGGING
  8 .debug_abbrev 00002648  00000000  00000000  00009b8a  2**0
                  CONTENTS, READONLY, DEBUGGING
  9 .debug_line   00003370  00000000  00000000  0000c1d2  2**0
                  CONTENTS, READONLY, DEBUGGING
 10 .debug_frame  00000890  00000000  00000000  0000f544  2**2
                  CONTENTS, READONLY, DEBUGGING
 11 .debug_str    000018ce  00000000  00000000  0000fdd4  2**0
                  CONTENTS, READONLY, DEBUGGING
 12 .debug_loc    00004061  00000000  00000000  000116a2  2**0
                  CONTENTS, READONLY, DEBUGGING
 13 .debug_ranges 00000348  00000000  00000000  00015703  2**0
                  CONTENTS, READONLY, DEBUGGING

Disassembly of section .text:

00000000 <__vectors>:
       0:	3d c0       	rjmp	.+122    	; 0x7c <__ctors_end>
       2:	00 00       	nop
       4:	58 c0       	rjmp	.+176    	; 0xb6 <__bad_interrupt>
       6:	00 00       	nop
       8:	56 c0       	rjmp	.+172    	; 0xb6 <__bad_interrupt>
       a:	00 00       	nop
       c:	54 c0       	rjmp	.+168    	; 0xb6 <__bad_interrupt>
       e:	00 00       	nop
      10:	52 c0       	rjmp	.+164    	; 0xb6 <__bad_interrupt>
      12:	00 00       	nop
      14:	50 c0       	rjmp	.+160    	; 0xb6 <__bad_interrupt>
      16:	00 00       	nop
      18:	9d c6       	rjmp	.+3386   	; 0xd54 <__vector_6>
      1a:	00 00       	nop
      1c:	e5 c6       	rjmp	.+3530   	; 0xde8 <__vector_7>
      1e:	00 00       	nop
      20:	d0 c4       	rjmp	.+2464   	; 0x9c2 <__vector_8>
      22:	00 00       	nop
      24:	48 c0       	rjmp	.+144    	; 0xb6 <__bad_interrupt>
      26:	00 00       	nop
      28:	46 c0       	rjmp	.+140    	; 0xb6 <__bad_interrupt>
      2a:	00 00       	nop
      2c:	44 c0       	rjmp	.+136    	; 0xb6 <__bad_interrupt>
      2e:	00 00       	nop
      30:	42 c0       	rjmp	.+132    	; 0xb6 <__bad_interrupt>
      32:	00 00       	nop
      34:	17 c5       	rjmp	.+2606   	; 0xa64 <__vector_13>
      36:	00 00       	nop
      38:	48 c5       	rjmp	.+2704   	; 0xaca <__vector_14>
      3a:	00 00       	nop
      3c:	3c c0       	rjmp	.+120    	; 0xb6 <__bad_interrupt>
      3e:	00 00       	nop
      40:	3a c0       	rjmp	.+116    	; 0xb6 <__bad_interrupt>
      42:	00 00       	nop
      44:	38 c0       	rjmp	.+112    	; 0xb6 <__bad_interrupt>
      46:	00 00       	nop
      48:	36 c0       	rjmp	.+108    	; 0xb6 <__bad_interrupt>
      4a:	00 00       	nop
      4c:	34 c0       	rjmp	.+104    	; 0xb6 <__bad_interrupt>
      4e:	00 00       	nop
      50:	06 c6       	rjmp	.+3084   	; 0xc5e <__vector_20>
      52:	00 00       	nop
      54:	30 c0       	rjmp	.+96     	; 0xb6 <__bad_interrupt>
      56:	00 00       	nop
      58:	35 c6       	rjmp	.+3178   	; 0xcc4 <__vector_22>
      5a:	00 00       	nop
      5c:	2c c0       	rjmp	.+88     	; 0xb6 <__bad_interrupt>
      5e:	00 00       	nop
      60:	2a c0       	rjmp	.+84     	; 0xb6 <__bad_interrupt>
      62:	00 00       	nop
      64:	28 c0       	rjmp	.+80     	; 0xb6 <__bad_interrupt>
      66:	00 00       	nop
      68:	26 c0       	rjmp	.+76     	; 0xb6 <__bad_interrupt>
      6a:	00 00       	nop
      6c:	81 c5       	rjmp	.+2818   	; 0xb70 <__vector_27>
      6e:	00 00       	nop
      70:	da c5       	rjmp	.+2996   	; 0xc26 <__vector_28>
      72:	00 00       	nop
      74:	20 c0       	rjmp	.+64     	; 0xb6 <__bad_interrupt>
      76:	00 00       	nop
      78:	1e c0       	rjmp	.+60     	; 0xb6 <__bad_interrupt>
	...

0000007c <__ctors_end>:
      7c:	11 24       	eor	r1, r1
      7e:	1f be       	out	0x3f, r1	; 63
      80:	cf ef       	ldi	r28, 0xFF	; 255
      82:	cd bf       	out	0x3d, r28	; 61
      84:	df e3       	ldi	r29, 0x3F	; 63
      86:	de bf       	out	0x3e, r29	; 62

00000088 <__do_copy_data>:
      88:	18 e3       	ldi	r17, 0x38	; 56
      8a:	a0 e0       	ldi	r26, 0x00	; 0
      8c:	b8 e3       	ldi	r27, 0x38	; 56
      8e:	e4 ed       	ldi	r30, 0xD4	; 212
      90:	f4 e3       	ldi	r31, 0x34	; 52
      92:	02 c0       	rjmp	.+4      	; 0x98 <__do_copy_data+0x10>
      94:	05 90       	lpm	r0, Z+
      96:	0d 92       	st	X+, r0
      98:	a8 32       	cpi	r26, 0x28	; 40
      9a:	b1 07       	cpc	r27, r17
      9c:	d9 f7       	brne	.-10     	; 0x94 <__do_copy_data+0xc>

0000009e <__do_clear_bss>:
      9e:	2b e3       	ldi	r18, 0x3B	; 59
      a0:	a8 e2       	ldi	r26, 0x28	; 40
      a2:	b8 e3       	ldi	r27, 0x38	; 56
      a4:	01 c0       	rjmp	.+2      	; 0xa8 <.do_clear_bss_start>

000000a6 <.do_clear_bss_loop>:
      a6:	1d 92       	st	X+, r1

000000a8 <.do_clear_bss_start>:
      a8:	aa 30       	cpi	r26, 0x0A	; 10
      aa:	b2 07       	cpc	r27, r18
      ac:	e1 f7       	brne	.-8      	; 0xa6 <.do_clear_bss_loop>
      ae:	0e 94 26 19 	call	0x324c	; 0x324c <main>
      b2:	0c 94 fb 19 	jmp	0x33f6	; 0x33f6 <_exit>

000000b6 <__bad_interrupt>:
      b6:	a4 cf       	rjmp	.-184    	; 0x0 <__vectors>

000000b8 <MakeFriends>:

// Main game loop
uint8_t MakeFriends(){
  
    return 0;
}
      b8:	80 e0       	ldi	r24, 0x00	; 0
      ba:	08 95       	ret

000000bc <I2C_init>:
// the Atmel device documentation mentions a special command for repeated start TWI_MCMD_REPSTART_gc,
// but this is not used in Atmel's demo code, so we don't use it either

void I2C_rep_start(uint8_t shifted_addr)						    // send repeated start, device_addr + LSB set if READ
{
	TWI0.MADDR = shifted_addr;	
      bc:	81 e0       	ldi	r24, 0x01	; 1
      be:	80 93 22 04 	sts	0x0422, r24	; 0x800422 <__TEXT_REGION_LENGTH__+0x700422>
      c2:	e6 e2       	ldi	r30, 0x26	; 38
      c4:	f4 e0       	ldi	r31, 0x04	; 4
      c6:	80 83       	st	Z, r24
      c8:	10 92 30 04 	sts	0x0430, r1	; 0x800430 <__TEXT_REGION_LENGTH__+0x700430>
      cc:	a1 e2       	ldi	r26, 0x21	; 33
      ce:	b4 e0       	ldi	r27, 0x04	; 4
      d0:	92 e0       	ldi	r25, 0x02	; 2
      d2:	9c 93       	st	X, r25
      d4:	90 83       	st	Z, r25
      d6:	10 92 31 04 	sts	0x0431, r1	; 0x800431 <__TEXT_REGION_LENGTH__+0x700431>
      da:	e0 e1       	ldi	r30, 0x10	; 16
      dc:	f8 e0       	ldi	r31, 0x08	; 8
      de:	97 e0       	ldi	r25, 0x07	; 7
      e0:	96 83       	std	Z+6, r25	; 0x06
      e2:	98 e0       	ldi	r25, 0x08	; 8
      e4:	94 83       	std	Z+4, r25	; 0x04
      e6:	83 83       	std	Z+3, r24	; 0x03
      e8:	8c 93       	st	X, r24
      ea:	85 81       	ldd	r24, Z+5	; 0x05
      ec:	81 60       	ori	r24, 0x01	; 1
      ee:	85 83       	std	Z+5, r24	; 0x05
      f0:	85 81       	ldd	r24, Z+5	; 0x05
      f2:	84 6c       	ori	r24, 0xC4	; 196
      f4:	85 83       	std	Z+5, r24	; 0x05
      f6:	08 95       	ret

000000f8 <I2C_recover>:
      f8:	80 91 14 08 	lds	r24, 0x0814	; 0x800814 <__TEXT_REGION_LENGTH__+0x700814>
      fc:	88 60       	ori	r24, 0x08	; 8
      fe:	80 93 14 08 	sts	0x0814, r24	; 0x800814 <__TEXT_REGION_LENGTH__+0x700814>
     102:	10 92 13 08 	sts	0x0813, r1	; 0x800813 <__TEXT_REGION_LENGTH__+0x700813>
     106:	82 e0       	ldi	r24, 0x02	; 2
     108:	80 93 22 04 	sts	0x0422, r24	; 0x800422 <__TEXT_REGION_LENGTH__+0x700422>
     10c:	99 e0       	ldi	r25, 0x09	; 9
     10e:	21 e0       	ldi	r18, 0x01	; 1
     110:	81 e0       	ldi	r24, 0x01	; 1
     112:	20 93 21 04 	sts	0x0421, r18	; 0x800421 <__TEXT_REGION_LENGTH__+0x700421>
     116:	30 e1       	ldi	r19, 0x10	; 16
     118:	3a 95       	dec	r19
     11a:	f1 f7       	brne	.-4      	; 0x118 <I2C_recover+0x20>
     11c:	00 c0       	rjmp	.+0      	; 0x11e <I2C_recover+0x26>
     11e:	20 93 22 04 	sts	0x0422, r18	; 0x800422 <__TEXT_REGION_LENGTH__+0x700422>
     122:	30 e1       	ldi	r19, 0x10	; 16
     124:	3a 95       	dec	r19
     126:	f1 f7       	brne	.-4      	; 0x124 <I2C_recover+0x2c>
     128:	00 c0       	rjmp	.+0      	; 0x12a <I2C_recover+0x32>
     12a:	91 50       	subi	r25, 0x01	; 1
     12c:	89 f7       	brne	.-30     	; 0x110 <I2C_recover+0x18>
     12e:	28 e0       	ldi	r18, 0x08	; 8
     130:	20 93 14 08 	sts	0x0814, r18	; 0x800814 <__TEXT_REGION_LENGTH__+0x700814>
     134:	80 93 13 08 	sts	0x0813, r24	; 0x800813 <__TEXT_REGION_LENGTH__+0x700813>
     138:	92 e0       	ldi	r25, 0x02	; 2
     13a:	90 93 21 04 	sts	0x0421, r25	; 0x800421 <__TEXT_REGION_LENGTH__+0x700421>
     13e:	90 91 15 08 	lds	r25, 0x0815	; 0x800815 <__TEXT_REGION_LENGTH__+0x700815>
     142:	91 60       	ori	r25, 0x01	; 1
     144:	90 93 15 08 	sts	0x0815, r25	; 0x800815 <__TEXT_REGION_LENGTH__+0x700815>
     148:	90 91 15 08 	lds	r25, 0x0815	; 0x800815 <__TEXT_REGION_LENGTH__+0x700815>
     14c:	94 6c       	ori	r25, 0xC4	; 196
     14e:	90 93 15 08 	sts	0x0815, r25	; 0x800815 <__TEXT_REGION_LENGTH__+0x700815>
     152:	20 93 14 08 	sts	0x0814, r18	; 0x800814 <__TEXT_REGION_LENGTH__+0x700814>
     156:	80 93 13 08 	sts	0x0813, r24	; 0x800813 <__TEXT_REGION_LENGTH__+0x700813>
     15a:	80 93 21 04 	sts	0x0421, r24	; 0x800421 <__TEXT_REGION_LENGTH__+0x700421>
     15e:	80 91 15 08 	lds	r24, 0x0815	; 0x800815 <__TEXT_REGION_LENGTH__+0x700815>
     162:	81 60       	ori	r24, 0x01	; 1
     164:	80 93 15 08 	sts	0x0815, r24	; 0x800815 <__TEXT_REGION_LENGTH__+0x700815>
     168:	80 91 15 08 	lds	r24, 0x0815	; 0x800815 <__TEXT_REGION_LENGTH__+0x700815>
     16c:	84 6c       	ori	r24, 0xC4	; 196
     16e:	80 93 15 08 	sts	0x0815, r24	; 0x800815 <__TEXT_REGION_LENGTH__+0x700815>
     172:	08 95       	ret

00000174 <I2C_start>:
     174:	28 2f       	mov	r18, r24
     176:	90 91 15 08 	lds	r25, 0x0815	; 0x800815 <__TEXT_REGION_LENGTH__+0x700815>
     17a:	90 6c       	ori	r25, 0xC0	; 192
     17c:	90 93 15 08 	sts	0x0815, r25	; 0x800815 <__TEXT_REGION_LENGTH__+0x700815>
     180:	90 91 15 08 	lds	r25, 0x0815	; 0x800815 <__TEXT_REGION_LENGTH__+0x700815>
     184:	89 2f       	mov	r24, r25
     186:	84 70       	andi	r24, 0x04	; 4
     188:	92 fd       	sbrc	r25, 2
     18a:	03 c0       	rjmp	.+6      	; 0x192 <I2C_start+0x1e>
     18c:	20 93 17 08 	sts	0x0817, r18	; 0x800817 <__TEXT_REGION_LENGTH__+0x700817>
     190:	08 95       	ret
     192:	84 e0       	ldi	r24, 0x04	; 4
     194:	08 95       	ret

00000196 <I2C_wait_ACK>:
     196:	8c e0       	ldi	r24, 0x0C	; 12
     198:	80 93 38 3a 	sts	0x3A38, r24	; 0x803a38 <timeout_I2C>
     19c:	80 91 15 08 	lds	r24, 0x0815	; 0x800815 <__TEXT_REGION_LENGTH__+0x700815>
     1a0:	87 fd       	sbrc	r24, 7
     1a2:	0a c0       	rjmp	.+20     	; 0x1b8 <I2C_wait_ACK+0x22>
     1a4:	80 91 15 08 	lds	r24, 0x0815	; 0x800815 <__TEXT_REGION_LENGTH__+0x700815>
     1a8:	86 fd       	sbrc	r24, 6
     1aa:	06 c0       	rjmp	.+12     	; 0x1b8 <I2C_wait_ACK+0x22>
     1ac:	80 91 38 3a 	lds	r24, 0x3A38	; 0x803a38 <timeout_I2C>
     1b0:	81 11       	cpse	r24, r1
     1b2:	f4 cf       	rjmp	.-24     	; 0x19c <I2C_wait_ACK+0x6>
     1b4:	8f ef       	ldi	r24, 0xFF	; 255
     1b6:	08 95       	ret
     1b8:	80 91 15 08 	lds	r24, 0x0815	; 0x800815 <__TEXT_REGION_LENGTH__+0x700815>
     1bc:	80 6c       	ori	r24, 0xC0	; 192
     1be:	80 93 15 08 	sts	0x0815, r24	; 0x800815 <__TEXT_REGION_LENGTH__+0x700815>
     1c2:	80 91 15 08 	lds	r24, 0x0815	; 0x800815 <__TEXT_REGION_LENGTH__+0x700815>
     1c6:	82 fd       	sbrc	r24, 2
     1c8:	09 c0       	rjmp	.+18     	; 0x1dc <I2C_wait_ACK+0x46>
     1ca:	80 91 15 08 	lds	r24, 0x0815	; 0x800815 <__TEXT_REGION_LENGTH__+0x700815>
     1ce:	83 fd       	sbrc	r24, 3
     1d0:	07 c0       	rjmp	.+14     	; 0x1e0 <I2C_wait_ACK+0x4a>
     1d2:	80 91 15 08 	lds	r24, 0x0815	; 0x800815 <__TEXT_REGION_LENGTH__+0x700815>
     1d6:	82 95       	swap	r24
     1d8:	81 70       	andi	r24, 0x01	; 1
     1da:	08 95       	ret
     1dc:	84 e0       	ldi	r24, 0x04	; 4
     1de:	08 95       	ret
     1e0:	82 e0       	ldi	r24, 0x02	; 2
     1e2:	08 95       	ret

000001e4 <I2C_read>:
}

uint8_t	I2C_read(uint8_t *data, uint8_t ack_flag)					// read data, ack_flag 0: send ACK, 1: send NACK, returns status
{
     1e4:	fc 01       	movw	r30, r24
	timeout_I2C = READ_TIMEOUT;										// reset timeout counter, will be decremented by LED matrix interrupt
     1e6:	8c e0       	ldi	r24, 0x0C	; 12
     1e8:	80 93 38 3a 	sts	0x3A38, r24	; 0x803a38 <timeout_I2C>
	if ((TWI0.MSTATUS & TWI_BUSSTATE_gm) == TWI_BUSSTATE_OWNER_gc)	// if master controls bus
     1ec:	90 91 15 08 	lds	r25, 0x0815	; 0x800815 <__TEXT_REGION_LENGTH__+0x700815>
     1f0:	89 2f       	mov	r24, r25
     1f2:	83 70       	andi	r24, 0x03	; 3
     1f4:	82 30       	cpi	r24, 0x02	; 2
     1f6:	11 f0       	breq	.+4      	; 0x1fc <I2C_read+0x18>
		else		TWI0.MCTRLB |= TWI_ACKACT_NACK_gc;				// setup NACK (last byte read)
		*data = TWI0.MDATA;
		if (ack_flag == 0) TWI0.MCTRLB |= TWI_MCMD_RECVTRANS_gc;	// send ACK, more bytes to follow					
		return 0;
	}
	else return 8;													// master does not control bus
     1f8:	88 e0       	ldi	r24, 0x08	; 8
     1fa:	08 95       	ret
uint8_t	I2C_read(uint8_t *data, uint8_t ack_flag)					// read data, ack_flag 0: send ACK, 1: send NACK, returns status
{
	timeout_I2C = READ_TIMEOUT;										// reset timeout counter, will be decremented by LED matrix interrupt
	if ((TWI0.MSTATUS & TWI_BUSSTATE_gm) == TWI_BUSSTATE_OWNER_gc)	// if master controls bus
	{		
		while (!(TWI0.MSTATUS & TWI_RIF_bm))						// wait for RIF set (data byte received)
     1fc:	90 91 15 08 	lds	r25, 0x0815	; 0x800815 <__TEXT_REGION_LENGTH__+0x700815>
     200:	97 fd       	sbrc	r25, 7
     202:	06 c0       	rjmp	.+12     	; 0x210 <I2C_read+0x2c>
		{
			if (!(timeout_I2C)) return 0xff;			            // return timeout error
     204:	90 91 38 3a 	lds	r25, 0x3A38	; 0x803a38 <timeout_I2C>
     208:	91 11       	cpse	r25, r1
     20a:	f8 cf       	rjmp	.-16     	; 0x1fc <I2C_read+0x18>
     20c:	8f ef       	ldi	r24, 0xFF	; 255
     20e:	08 95       	ret
		}
		TWI0.MSTATUS |= (TWI_RIF_bm | TWI_WIF_bm);					// clear Read and Write interrupt flags	
     210:	90 91 15 08 	lds	r25, 0x0815	; 0x800815 <__TEXT_REGION_LENGTH__+0x700815>
     214:	90 6c       	ori	r25, 0xC0	; 192
     216:	90 93 15 08 	sts	0x0815, r25	; 0x800815 <__TEXT_REGION_LENGTH__+0x700815>
		if (TWI0.MSTATUS & TWI_BUSERR_bm) return 4;					// Bus Error, abort
     21a:	90 91 15 08 	lds	r25, 0x0815	; 0x800815 <__TEXT_REGION_LENGTH__+0x700815>
     21e:	92 fd       	sbrc	r25, 2
     220:	1e c0       	rjmp	.+60     	; 0x25e <I2C_read+0x7a>
		if (TWI0.MSTATUS & TWI_ARBLOST_bm) return 2;				// Arbitration Lost, abort
     222:	90 91 15 08 	lds	r25, 0x0815	; 0x800815 <__TEXT_REGION_LENGTH__+0x700815>
     226:	93 fd       	sbrc	r25, 3
     228:	1d c0       	rjmp	.+58     	; 0x264 <I2C_read+0x80>
		if (TWI0.MSTATUS & TWI_RXACK_bm) return 1;					// Slave replied with NACK, abort				
     22a:	90 91 15 08 	lds	r25, 0x0815	; 0x800815 <__TEXT_REGION_LENGTH__+0x700815>
     22e:	89 2f       	mov	r24, r25
     230:	80 71       	andi	r24, 0x10	; 16
     232:	94 fd       	sbrc	r25, 4
     234:	16 c0       	rjmp	.+44     	; 0x262 <I2C_read+0x7e>
		if (ack_flag == 0) TWI0.MCTRLB &= ~(1 << TWI_ACKACT_bp);	// setup ACK
     236:	90 91 14 08 	lds	r25, 0x0814	; 0x800814 <__TEXT_REGION_LENGTH__+0x700814>
     23a:	61 11       	cpse	r22, r1
     23c:	02 c0       	rjmp	.+4      	; 0x242 <I2C_read+0x5e>
     23e:	9b 7f       	andi	r25, 0xFB	; 251
     240:	01 c0       	rjmp	.+2      	; 0x244 <I2C_read+0x60>
		else		TWI0.MCTRLB |= TWI_ACKACT_NACK_gc;				// setup NACK (last byte read)
     242:	94 60       	ori	r25, 0x04	; 4
     244:	90 93 14 08 	sts	0x0814, r25	; 0x800814 <__TEXT_REGION_LENGTH__+0x700814>
		*data = TWI0.MDATA;
     248:	90 91 18 08 	lds	r25, 0x0818	; 0x800818 <__TEXT_REGION_LENGTH__+0x700818>
     24c:	90 83       	st	Z, r25
		if (ack_flag == 0) TWI0.MCTRLB |= TWI_MCMD_RECVTRANS_gc;	// send ACK, more bytes to follow					
     24e:	61 11       	cpse	r22, r1
     250:	09 c0       	rjmp	.+18     	; 0x264 <I2C_read+0x80>
     252:	90 91 14 08 	lds	r25, 0x0814	; 0x800814 <__TEXT_REGION_LENGTH__+0x700814>
     256:	92 60       	ori	r25, 0x02	; 2
     258:	90 93 14 08 	sts	0x0814, r25	; 0x800814 <__TEXT_REGION_LENGTH__+0x700814>
     25c:	08 95       	ret
		while (!(TWI0.MSTATUS & TWI_RIF_bm))						// wait for RIF set (data byte received)
		{
			if (!(timeout_I2C)) return 0xff;			            // return timeout error
		}
		TWI0.MSTATUS |= (TWI_RIF_bm | TWI_WIF_bm);					// clear Read and Write interrupt flags	
		if (TWI0.MSTATUS & TWI_BUSERR_bm) return 4;					// Bus Error, abort
     25e:	84 e0       	ldi	r24, 0x04	; 4
     260:	08 95       	ret
		if (TWI0.MSTATUS & TWI_ARBLOST_bm) return 2;				// Arbitration Lost, abort
		if (TWI0.MSTATUS & TWI_RXACK_bm) return 1;					// Slave replied with NACK, abort				
     262:	81 e0       	ldi	r24, 0x01	; 1
		*data = TWI0.MDATA;
		if (ack_flag == 0) TWI0.MCTRLB |= TWI_MCMD_RECVTRANS_gc;	// send ACK, more bytes to follow					
		return 0;
	}
	else return 8;													// master does not control bus
}
     264:	08 95       	ret

00000266 <I2C_write>:

uint8_t I2C_write(uint8_t *data)									// write data, return status
{
     266:	fc 01       	movw	r30, r24
	timeout_I2C = WRITE_TIMEOUT;									// reset timeout counter, will be decremented by LED matrix interrupt
     268:	8c e0       	ldi	r24, 0x0C	; 12
     26a:	80 93 38 3a 	sts	0x3A38, r24	; 0x803a38 <timeout_I2C>
	if ((TWI0.MSTATUS & TWI_BUSSTATE_gm) == TWI_BUSSTATE_OWNER_gc)	// if master controls bus
     26e:	90 91 15 08 	lds	r25, 0x0815	; 0x800815 <__TEXT_REGION_LENGTH__+0x700815>
     272:	93 70       	andi	r25, 0x03	; 3
     274:	92 30       	cpi	r25, 0x02	; 2
     276:	b1 f4       	brne	.+44     	; 0x2a4 <I2C_write+0x3e>
	{
		TWI0.MDATA = *data;		
     278:	80 81       	ld	r24, Z
     27a:	80 93 18 08 	sts	0x0818, r24	; 0x800818 <__TEXT_REGION_LENGTH__+0x700818>
		while (!(TWI0.MSTATUS & TWI_WIF_bm))						// wait until WIF set, status register contains ACK/NACK bit
     27e:	80 91 15 08 	lds	r24, 0x0815	; 0x800815 <__TEXT_REGION_LENGTH__+0x700815>
     282:	86 fd       	sbrc	r24, 6
     284:	06 c0       	rjmp	.+12     	; 0x292 <I2C_write+0x2c>
		{
			if (!(timeout_I2C)) return 0xff;			            // return timeout error
     286:	80 91 38 3a 	lds	r24, 0x3A38	; 0x803a38 <timeout_I2C>
     28a:	81 11       	cpse	r24, r1
     28c:	f8 cf       	rjmp	.-16     	; 0x27e <I2C_write+0x18>
     28e:	8f ef       	ldi	r24, 0xFF	; 255
     290:	08 95       	ret
		}
		if (TWI0.MSTATUS & TWI_BUSERR_bm) return 4;					// Bus Error, abort
     292:	80 91 15 08 	lds	r24, 0x0815	; 0x800815 <__TEXT_REGION_LENGTH__+0x700815>
     296:	82 fd       	sbrc	r24, 2
     298:	07 c0       	rjmp	.+14     	; 0x2a8 <I2C_write+0x42>
		if (TWI0.MSTATUS & TWI_RXACK_bm) return 1;					// Slave replied with NACK, abort
     29a:	80 91 15 08 	lds	r24, 0x0815	; 0x800815 <__TEXT_REGION_LENGTH__+0x700815>
	if ((TWI0.MSTATUS & TWI_BUSSTATE_gm) == TWI_BUSSTATE_OWNER_gc)	// if master controls bus
	{
		TWI0.MDATA = *data;		
		while (!(TWI0.MSTATUS & TWI_WIF_bm))						// wait until WIF set, status register contains ACK/NACK bit
		{
			if (!(timeout_I2C)) return 0xff;			            // return timeout error
     29e:	82 95       	swap	r24
     2a0:	81 70       	andi	r24, 0x01	; 1
     2a2:	08 95       	ret
		}
		if (TWI0.MSTATUS & TWI_BUSERR_bm) return 4;					// Bus Error, abort
		if (TWI0.MSTATUS & TWI_RXACK_bm) return 1;					// Slave replied with NACK, abort
		return 0;													// no error	
	}
	else return 8;													// master does not control bus
     2a4:	88 e0       	ldi	r24, 0x08	; 8
     2a6:	08 95       	ret
		TWI0.MDATA = *data;		
		while (!(TWI0.MSTATUS & TWI_WIF_bm))						// wait until WIF set, status register contains ACK/NACK bit
		{
			if (!(timeout_I2C)) return 0xff;			            // return timeout error
		}
		if (TWI0.MSTATUS & TWI_BUSERR_bm) return 4;					// Bus Error, abort
     2a8:	84 e0       	ldi	r24, 0x04	; 4
		if (TWI0.MSTATUS & TWI_RXACK_bm) return 1;					// Slave replied with NACK, abort
		return 0;													// no error	
	}
	else return 8;													// master does not control bus
}
     2aa:	08 95       	ret

000002ac <I2C_stop>:

void I2C_stop()
{
	TWI0.MCTRLB |= TWI_MCMD_STOP_gc;
     2ac:	e0 e1       	ldi	r30, 0x10	; 16
     2ae:	f8 e0       	ldi	r31, 0x08	; 8
     2b0:	84 81       	ldd	r24, Z+4	; 0x04
     2b2:	83 60       	ori	r24, 0x03	; 3
     2b4:	84 83       	std	Z+4, r24	; 0x04
     2b6:	08 95       	ret

000002b8 <I2C_read_bytes>:
// addr_ptr		address of first array element to transfer
// slave reg	starting slave register
// num_bytes	number of bytes to transfer

uint8_t	I2C_read_bytes(uint8_t slave_addr, uint8_t *reg_ptr, uint8_t reg_len, uint8_t *dat_ptr, uint8_t dat_len)
{
     2b8:	cf 92       	push	r12
     2ba:	df 92       	push	r13
     2bc:	ff 92       	push	r15
     2be:	0f 93       	push	r16
     2c0:	1f 93       	push	r17
     2c2:	cf 93       	push	r28
     2c4:	df 93       	push	r29
     2c6:	6b 01       	movw	r12, r22
     2c8:	f4 2e       	mov	r15, r20
     2ca:	e9 01       	movw	r28, r18
	uint8_t status;
	if (dat_len > MAX_LEN) dat_len = MAX_LEN;
	status = I2C_start(slave_addr << 1);							// slave write address, LSB 0
     2cc:	18 2f       	mov	r17, r24
     2ce:	11 0f       	add	r17, r17
     2d0:	81 2f       	mov	r24, r17
     2d2:	50 df       	rcall	.-352    	; 0x174 <I2C_start>
	if (status != 0) goto error;
     2d4:	81 11       	cpse	r24, r1
	status = I2C_wait_ACK();										// wait for slave ACK
     2d6:	2b c0       	rjmp	.+86     	; 0x32e <I2C_read_bytes+0x76>
     2d8:	5e df       	rcall	.-324    	; 0x196 <I2C_wait_ACK>
	if (status == 1) {
     2da:	81 30       	cpi	r24, 0x01	; 1
		I2C_stop();													// NACK, abort
     2dc:	19 f4       	brne	.+6      	; 0x2e4 <I2C_read_bytes+0x2c>
     2de:	e6 df       	rcall	.-52     	; 0x2ac <I2C_stop>
		return 1;
     2e0:	81 e0       	ldi	r24, 0x01	; 1
     2e2:	27 c0       	rjmp	.+78     	; 0x332 <I2C_read_bytes+0x7a>
	}
	if (status != 0) goto error;
     2e4:	81 11       	cpse	r24, r1
     2e6:	23 c0       	rjmp	.+70     	; 0x32e <I2C_read_bytes+0x76>
    while(reg_len > 0){
     2e8:	ff 20       	and	r15, r15
	    status = I2C_write(reg_ptr);    							// send slave start register
     2ea:	49 f0       	breq	.+18     	; 0x2fe <I2C_read_bytes+0x46>
     2ec:	c6 01       	movw	r24, r12
     2ee:	bb df       	rcall	.-138    	; 0x266 <I2C_write>
	    if (status != 0) goto error;
     2f0:	81 11       	cpse	r24, r1
     2f2:	1d c0       	rjmp	.+58     	; 0x32e <I2C_read_bytes+0x76>
        ++reg_ptr;
     2f4:	8f ef       	ldi	r24, 0xFF	; 255
     2f6:	c8 1a       	sub	r12, r24
     2f8:	d8 0a       	sbc	r13, r24
        --reg_len;
     2fa:	fa 94       	dec	r15
     2fc:	f5 cf       	rjmp	.-22     	; 0x2e8 <I2C_read_bytes+0x30>
     2fe:	01 34       	cpi	r16, 0x41	; 65
     300:	08 f0       	brcs	.+2      	; 0x304 <I2C_read_bytes+0x4c>
     302:	00 e4       	ldi	r16, 0x40	; 64
    }
	I2C_rep_start((slave_addr << 1) + 1);							// slave read address, LSB 1
     304:	1f 5f       	subi	r17, 0xFF	; 255
// the Atmel device documentation mentions a special command for repeated start TWI_MCMD_REPSTART_gc,
// but this is not used in Atmel's demo code, so we don't use it either

void I2C_rep_start(uint8_t shifted_addr)						    // send repeated start, device_addr + LSB set if READ
{
	TWI0.MADDR = shifted_addr;	
     306:	10 93 17 08 	sts	0x0817, r17	; 0x800817 <__TEXT_REGION_LENGTH__+0x700817>
	    if (status != 0) goto error;
        ++reg_ptr;
        --reg_len;
    }
	I2C_rep_start((slave_addr << 1) + 1);							// slave read address, LSB 1
	while (dat_len > 1) {
     30a:	02 30       	cpi	r16, 0x02	; 2
		status = I2C_read(dat_ptr, 0);								// first bytes, send ACK
     30c:	40 f0       	brcs	.+16     	; 0x31e <I2C_read_bytes+0x66>
     30e:	60 e0       	ldi	r22, 0x00	; 0
     310:	ce 01       	movw	r24, r28
     312:	68 df       	rcall	.-304    	; 0x1e4 <I2C_read>
		if (status != 0) goto error;
     314:	81 11       	cpse	r24, r1
     316:	0b c0       	rjmp	.+22     	; 0x32e <I2C_read_bytes+0x76>
		++dat_ptr;
		--dat_len;
     318:	21 96       	adiw	r28, 0x01	; 1
     31a:	01 50       	subi	r16, 0x01	; 1
	}
	status = I2C_read(dat_ptr, 1);									// single or last byte, send NACK
     31c:	f6 cf       	rjmp	.-20     	; 0x30a <I2C_read_bytes+0x52>
     31e:	61 e0       	ldi	r22, 0x01	; 1
     320:	ce 01       	movw	r24, r28
	if (status != 0) goto error;
     322:	60 df       	rcall	.-320    	; 0x1e4 <I2C_read>
     324:	81 11       	cpse	r24, r1
	I2C_stop();
     326:	03 c0       	rjmp	.+6      	; 0x32e <I2C_read_bytes+0x76>
     328:	c1 df       	rcall	.-126    	; 0x2ac <I2C_stop>
	return 0;
     32a:	80 e0       	ldi	r24, 0x00	; 0
     32c:	02 c0       	rjmp	.+4      	; 0x332 <I2C_read_bytes+0x7a>
	
error:
	I2C_recover();													// clock out possibly stuck slave, reset master
     32e:	e4 de       	rcall	.-568    	; 0xf8 <I2C_recover>
     330:	8f ef       	ldi	r24, 0xFF	; 255
	return 0xff;													// flag error
     332:	df 91       	pop	r29
}
     334:	cf 91       	pop	r28
     336:	1f 91       	pop	r17
     338:	0f 91       	pop	r16
     33a:	ff 90       	pop	r15
     33c:	df 90       	pop	r13
     33e:	cf 90       	pop	r12
     340:	08 95       	ret

00000342 <LanyardCode>:
     342:	cf 93       	push	r28
uint8_t         lastButtonState = 0xff;
uint8_t         digit = 0xff;

// Main game loop
uint8_t LanyardCode(){
    if (CheckState(LANYARD_COMPLETED)) {
     344:	8b e7       	ldi	r24, 0x7B	; 123
     346:	38 d7       	rcall	.+3696   	; 0x11b8 <CheckState>
     348:	81 11       	cpse	r24, r1
     34a:	f0 c0       	rjmp	.+480    	; 0x52c <__LOCK_REGION_LENGTH__+0x12c>
        }
        */
        return 0;
    }

    if ( gameNow != TEXT && gameNow != LANYARD )
     34c:	80 91 2f 38 	lds	r24, 0x382F	; 0x80382f <gameNow>
     350:	88 23       	and	r24, r24
     352:	19 f0       	breq	.+6      	; 0x35a <LanyardCode+0x18>
     354:	83 30       	cpi	r24, 0x03	; 3
     356:	09 f0       	breq	.+2      	; 0x35a <LanyardCode+0x18>
     358:	e9 c0       	rjmp	.+466    	; 0x52c <__LOCK_REGION_LENGTH__+0x12c>
        return 0;

    /* activate led for buttonstate */
    iLED[SCARAB[G]] = (buttonState==0xff ? 0 : dimValue);
     35a:	c0 91 25 b4 	lds	r28, 0xB425	; 0x80b425 <__bss_end+0x791b>
     35e:	ec 2f       	mov	r30, r28
     360:	f0 e0       	ldi	r31, 0x00	; 0
     362:	80 91 07 38 	lds	r24, 0x3807	; 0x803807 <buttonState>
     366:	8f 3f       	cpi	r24, 0xFF	; 255
     368:	19 f0       	breq	.+6      	; 0x370 <LanyardCode+0x2e>
     36a:	90 91 09 38 	lds	r25, 0x3809	; 0x803809 <dimValue>
     36e:	01 c0       	rjmp	.+2      	; 0x372 <LanyardCode+0x30>
     370:	90 e0       	ldi	r25, 0x00	; 0
     372:	e6 54       	subi	r30, 0x46	; 70
     374:	f5 4c       	sbci	r31, 0xC5	; 197
     376:	90 83       	st	Z, r25

    if ( (buttonState & 0xf0) == 0)
     378:	98 2f       	mov	r25, r24
     37a:	90 7f       	andi	r25, 0xF0	; 240
     37c:	09 f4       	brne	.+2      	; 0x380 <LanyardCode+0x3e>
     37e:	d6 c0       	rjmp	.+428    	; 0x52c <__LOCK_REGION_LENGTH__+0x12c>
        return 0;

    if ((buttonState&0x0f) == (lastButtonState&0x0f))
     380:	20 91 01 38 	lds	r18, 0x3801	; 0x803801 <lastButtonState>
     384:	98 2f       	mov	r25, r24
     386:	92 27       	eor	r25, r18
     388:	9f 70       	andi	r25, 0x0F	; 15
     38a:	09 f4       	brne	.+2      	; 0x38e <LanyardCode+0x4c>
     38c:	cf c0       	rjmp	.+414    	; 0x52c <__LOCK_REGION_LENGTH__+0x12c>
        return 0;

    if (lastButtonState == 0xff){
     38e:	2f 3f       	cpi	r18, 0xFF	; 255
     390:	09 f0       	breq	.+2      	; 0x394 <LanyardCode+0x52>
     392:	c8 c0       	rjmp	.+400    	; 0x524 <__LOCK_REGION_LENGTH__+0x124>
        switch (buttonState & 0x0f) {
     394:	8f 70       	andi	r24, 0x0F	; 15
     396:	82 30       	cpi	r24, 0x02	; 2
     398:	61 f0       	breq	.+24     	; 0x3b2 <LanyardCode+0x70>
     39a:	28 f4       	brcc	.+10     	; 0x3a6 <LanyardCode+0x64>
     39c:	81 30       	cpi	r24, 0x01	; 1
     39e:	69 f4       	brne	.+26     	; 0x3ba <LanyardCode+0x78>
            case 0b0001: {
                digit = 0;
     3a0:	10 92 00 38 	sts	0x3800, r1	; 0x803800 <__data_start>
                break;
     3a4:	0d c0       	rjmp	.+26     	; 0x3c0 <LanyardCode+0x7e>

    if ((buttonState&0x0f) == (lastButtonState&0x0f))
        return 0;

    if (lastButtonState == 0xff){
        switch (buttonState & 0x0f) {
     3a6:	84 30       	cpi	r24, 0x04	; 4
     3a8:	31 f0       	breq	.+12     	; 0x3b6 <LanyardCode+0x74>
     3aa:	88 30       	cpi	r24, 0x08	; 8
     3ac:	31 f4       	brne	.+12     	; 0x3ba <LanyardCode+0x78>
                digit = 3;
                break;
            }

            case 0b1000: {
                digit = 2;
     3ae:	82 e0       	ldi	r24, 0x02	; 2
     3b0:	05 c0       	rjmp	.+10     	; 0x3bc <LanyardCode+0x7a>
                digit = 0;
                break;
            }

            case 0b0010: {
                digit = 1;
     3b2:	81 e0       	ldi	r24, 0x01	; 1
     3b4:	03 c0       	rjmp	.+6      	; 0x3bc <LanyardCode+0x7a>
                break;
            }

            case 0b0100: {
                digit = 3;
     3b6:	83 e0       	ldi	r24, 0x03	; 3
     3b8:	01 c0       	rjmp	.+2      	; 0x3bc <LanyardCode+0x7a>
                digit = 2;
                break;
            }

            default: {
                digit = 0xff;
     3ba:	8f ef       	ldi	r24, 0xFF	; 255
     3bc:	80 93 00 38 	sts	0x3800, r24	; 0x803800 <__data_start>
                break;
            }
        }
        gameNow = LANYARD;
     3c0:	83 e0       	ldi	r24, 0x03	; 3
     3c2:	80 93 2f 38 	sts	0x382F, r24	; 0x80382f <gameNow>
        /* play tone for button */

        if (digit == lanyardCode[lanyardPos]) {
     3c6:	80 91 29 38 	lds	r24, 0x3829	; 0x803829 <lanyardPos>
     3ca:	e8 2f       	mov	r30, r24
     3cc:	f0 e0       	ldi	r31, 0x00	; 0
     3ce:	e6 5f       	subi	r30, 0xF6	; 246
     3d0:	fb 44       	sbci	r31, 0x4B	; 75
     3d2:	20 81       	ld	r18, Z
     3d4:	90 91 00 38 	lds	r25, 0x3800	; 0x803800 <__data_start>
     3d8:	e0 91 22 b4 	lds	r30, 0xB422	; 0x80b422 <__bss_end+0x7918>
     3dc:	29 13       	cpse	r18, r25
     3de:	17 c0       	rjmp	.+46     	; 0x40e <__LOCK_REGION_LENGTH__+0xe>
            lanyardState &= TRUE;
     3e0:	90 91 02 38 	lds	r25, 0x3802	; 0x803802 <lanyardState>
     3e4:	91 70       	andi	r25, 0x01	; 1
     3e6:	90 93 02 38 	sts	0x3802, r25	; 0x803802 <lanyardState>
            iLED[CAT]       = 128;
     3ea:	f0 e0       	ldi	r31, 0x00	; 0
     3ec:	e6 54       	subi	r30, 0x46	; 70
     3ee:	f5 4c       	sbci	r31, 0xC5	; 197
     3f0:	90 e8       	ldi	r25, 0x80	; 128
     3f2:	90 83       	st	Z, r25
            iLED[EYE[R][L]] = 0;
     3f4:	e0 91 31 b4 	lds	r30, 0xB431	; 0x80b431 <__bss_end+0x7927>
     3f8:	f0 e0       	ldi	r31, 0x00	; 0
     3fa:	e6 54       	subi	r30, 0x46	; 70
     3fc:	f5 4c       	sbci	r31, 0xC5	; 197
     3fe:	10 82       	st	Z, r1
            iLED[EYE[R][R]] = 0;
     400:	e0 91 30 b4 	lds	r30, 0xB430	; 0x80b430 <__bss_end+0x7926>
     404:	f0 e0       	ldi	r31, 0x00	; 0
     406:	e6 54       	subi	r30, 0x46	; 70
     408:	f5 4c       	sbci	r31, 0xC5	; 197
     40a:	10 82       	st	Z, r1
     40c:	13 c0       	rjmp	.+38     	; 0x434 <__LOCK_REGION_LENGTH__+0x34>
        } else {
            lanyardState = FALSE;
     40e:	10 92 02 38 	sts	0x3802, r1	; 0x803802 <lanyardState>
            iLED[CAT]       = 0;
     412:	f0 e0       	ldi	r31, 0x00	; 0
     414:	e6 54       	subi	r30, 0x46	; 70
     416:	f5 4c       	sbci	r31, 0xC5	; 197
     418:	10 82       	st	Z, r1
            if (lanyardPos < 4 ) {
     41a:	84 30       	cpi	r24, 0x04	; 4
     41c:	58 f4       	brcc	.+22     	; 0x434 <__LOCK_REGION_LENGTH__+0x34>
                /*gameNow         = BASTET;*/
                gameNow         = TEXT;
     41e:	10 92 2f 38 	sts	0x382F, r1	; 0x80382f <gameNow>
                lanyardPos      = 0;
     422:	10 92 29 38 	sts	0x3829, r1	; 0x803829 <lanyardPos>
                lanyardCnt      = 0;
     426:	10 92 28 38 	sts	0x3828, r1	; 0x803828 <__data_end>
                lanyardState    = TRUE;
     42a:	81 e0       	ldi	r24, 0x01	; 1
     42c:	80 93 02 38 	sts	0x3802, r24	; 0x803802 <lanyardState>
                lastButtonState = 0xff;
     430:	8f ef       	ldi	r24, 0xFF	; 255
     432:	7a c0       	rjmp	.+244    	; 0x528 <__LOCK_REGION_LENGTH__+0x128>
                return 0;
            }
        }
        lanyardPos++;
     434:	8f 5f       	subi	r24, 0xFF	; 255
     436:	80 93 29 38 	sts	0x3829, r24	; 0x803829 <lanyardPos>
        lanyardCnt++;            
     43a:	90 91 28 38 	lds	r25, 0x3828	; 0x803828 <__data_end>
     43e:	9f 5f       	subi	r25, 0xFF	; 255
        if (lanyardCnt >= 4) {
     440:	94 30       	cpi	r25, 0x04	; 4
     442:	18 f4       	brcc	.+6      	; 0x44a <__LOCK_REGION_LENGTH__+0x4a>
                lastButtonState = 0xff;
                return 0;
            }
        }
        lanyardPos++;
        lanyardCnt++;            
     444:	90 93 28 38 	sts	0x3828, r25	; 0x803828 <__data_end>
     448:	6d c0       	rjmp	.+218    	; 0x524 <__LOCK_REGION_LENGTH__+0x124>
        if (lanyardCnt >= 4) {
            lanyardCnt = 0;
     44a:	10 92 28 38 	sts	0x3828, r1	; 0x803828 <__data_end>
            if (lanyardState == TRUE) {
     44e:	90 91 02 38 	lds	r25, 0x3802	; 0x803802 <lanyardState>
     452:	91 30       	cpi	r25, 0x01	; 1
     454:	a1 f5       	brne	.+104    	; 0x4be <__LOCK_REGION_LENGTH__+0xbe>
                iLED[HCKR[G][(lanyardPos/4)-1]] = dimValue;
     456:	e8 2f       	mov	r30, r24
     458:	e6 95       	lsr	r30
     45a:	e6 95       	lsr	r30
     45c:	f0 e0       	ldi	r31, 0x00	; 0
     45e:	ec 5c       	subi	r30, 0xCC	; 204
     460:	fb 44       	sbci	r31, 0x4B	; 75
     462:	e5 81       	ldd	r30, Z+5	; 0x05
     464:	f0 e0       	ldi	r31, 0x00	; 0
     466:	90 91 09 38 	lds	r25, 0x3809	; 0x803809 <dimValue>
     46a:	e6 54       	subi	r30, 0x46	; 70
     46c:	f5 4c       	sbci	r31, 0xC5	; 197
     46e:	90 83       	st	Z, r25
                if (lanyardPos == sizeof(lanyardCode)) {
     470:	88 31       	cpi	r24, 0x18	; 24
     472:	09 f0       	breq	.+2      	; 0x476 <__LOCK_REGION_LENGTH__+0x76>
     474:	57 c0       	rjmp	.+174    	; 0x524 <__LOCK_REGION_LENGTH__+0x124>
                    UpdateState(LANYARD_COMPLETED);
     476:	8b e7       	ldi	r24, 0x7B	; 123
     478:	95 d6       	rcall	.+3370   	; 0x11a4 <UpdateState>
                    iLED[SCARAB[G]] = 0;
     47a:	ec 2f       	mov	r30, r28
     47c:	f0 e0       	ldi	r31, 0x00	; 0
     47e:	e6 54       	subi	r30, 0x46	; 70
     480:	f5 4c       	sbci	r31, 0xC5	; 197
     482:	10 82       	st	Z, r1
                    iLED[EYE[R][L]] = 0;
     484:	e0 91 31 b4 	lds	r30, 0xB431	; 0x80b431 <__bss_end+0x7927>
     488:	f0 e0       	ldi	r31, 0x00	; 0
     48a:	e6 54       	subi	r30, 0x46	; 70
     48c:	f5 4c       	sbci	r31, 0xC5	; 197
     48e:	10 82       	st	Z, r1
                    iLED[EYE[R][R]] = 0;
     490:	e0 91 30 b4 	lds	r30, 0xB430	; 0x80b430 <__bss_end+0x7926>
     494:	f0 e0       	ldi	r31, 0x00	; 0
     496:	e6 54       	subi	r30, 0x46	; 70
     498:	f5 4c       	sbci	r31, 0xC5	; 197
     49a:	10 82       	st	Z, r1
                    iLED[EYE[G][L]] = dimValue;
     49c:	e0 91 33 b4 	lds	r30, 0xB433	; 0x80b433 <__bss_end+0x7929>
     4a0:	f0 e0       	ldi	r31, 0x00	; 0
     4a2:	80 91 09 38 	lds	r24, 0x3809	; 0x803809 <dimValue>
     4a6:	e6 54       	subi	r30, 0x46	; 70
     4a8:	f5 4c       	sbci	r31, 0xC5	; 197
     4aa:	80 83       	st	Z, r24
                    iLED[EYE[G][R]] = dimValue;
     4ac:	e0 91 32 b4 	lds	r30, 0xB432	; 0x80b432 <__bss_end+0x7928>
     4b0:	f0 e0       	ldi	r31, 0x00	; 0
     4b2:	80 91 09 38 	lds	r24, 0x3809	; 0x803809 <dimValue>
     4b6:	e6 54       	subi	r30, 0x46	; 70
     4b8:	f5 4c       	sbci	r31, 0xC5	; 197
     4ba:	80 83       	st	Z, r24
     4bc:	33 c0       	rjmp	.+102    	; 0x524 <__LOCK_REGION_LENGTH__+0x124>
                    /*state = STATE_MUSIC;*/
                }
            } else {
                gameNow         = TEXT;
     4be:	10 92 2f 38 	sts	0x382F, r1	; 0x80382f <gameNow>
                lanyardPos      = 0;
     4c2:	10 92 29 38 	sts	0x3829, r1	; 0x803829 <lanyardPos>
                lanyardState    = TRUE;
     4c6:	81 e0       	ldi	r24, 0x01	; 1
     4c8:	80 93 02 38 	sts	0x3802, r24	; 0x803802 <lanyardState>
                lastButtonState = 0xff;
                iLED[SCARAB[G]] = 0;
     4cc:	ec 2f       	mov	r30, r28
     4ce:	f0 e0       	ldi	r31, 0x00	; 0
     4d0:	e6 54       	subi	r30, 0x46	; 70
     4d2:	f5 4c       	sbci	r31, 0xC5	; 197
     4d4:	10 82       	st	Z, r1
                iLED[EYE[G][L]] = 0;
     4d6:	e0 91 33 b4 	lds	r30, 0xB433	; 0x80b433 <__bss_end+0x7929>
     4da:	f0 e0       	ldi	r31, 0x00	; 0
     4dc:	e6 54       	subi	r30, 0x46	; 70
     4de:	f5 4c       	sbci	r31, 0xC5	; 197
     4e0:	10 82       	st	Z, r1
                iLED[EYE[G][R]] = 0;
     4e2:	e0 91 32 b4 	lds	r30, 0xB432	; 0x80b432 <__bss_end+0x7928>
     4e6:	f0 e0       	ldi	r31, 0x00	; 0
     4e8:	e6 54       	subi	r30, 0x46	; 70
     4ea:	f5 4c       	sbci	r31, 0xC5	; 197
     4ec:	10 82       	st	Z, r1
                iLED[EYE[R][L]] = dimValue;
     4ee:	e0 91 31 b4 	lds	r30, 0xB431	; 0x80b431 <__bss_end+0x7927>
     4f2:	f0 e0       	ldi	r31, 0x00	; 0
     4f4:	80 91 09 38 	lds	r24, 0x3809	; 0x803809 <dimValue>
     4f8:	e6 54       	subi	r30, 0x46	; 70
     4fa:	f5 4c       	sbci	r31, 0xC5	; 197
     4fc:	80 83       	st	Z, r24
                iLED[EYE[R][R]] = dimValue;
     4fe:	e0 91 30 b4 	lds	r30, 0xB430	; 0x80b430 <__bss_end+0x7926>
     502:	f0 e0       	ldi	r31, 0x00	; 0
     504:	80 91 09 38 	lds	r24, 0x3809	; 0x803809 <dimValue>
     508:	e6 54       	subi	r30, 0x46	; 70
     50a:	f5 4c       	sbci	r31, 0xC5	; 197
     50c:	80 83       	st	Z, r24
     50e:	aa e3       	ldi	r26, 0x3A	; 58
     510:	b4 eb       	ldi	r27, 0xB4	; 180
                for (int i=0; i<6; i++ )
                    iLED[HCKR[G][i]] = 0;
     512:	ed 91       	ld	r30, X+
     514:	f0 e0       	ldi	r31, 0x00	; 0
     516:	e6 54       	subi	r30, 0x46	; 70
     518:	f5 4c       	sbci	r31, 0xC5	; 197
     51a:	10 82       	st	Z, r1
                iLED[SCARAB[G]] = 0;
                iLED[EYE[G][L]] = 0;
                iLED[EYE[G][R]] = 0;
                iLED[EYE[R][L]] = dimValue;
                iLED[EYE[R][R]] = dimValue;
                for (int i=0; i<6; i++ )
     51c:	84 eb       	ldi	r24, 0xB4	; 180
     51e:	a0 34       	cpi	r26, 0x40	; 64
     520:	b8 07       	cpc	r27, r24
     522:	b9 f7       	brne	.-18     	; 0x512 <__LOCK_REGION_LENGTH__+0x112>
                    iLED[HCKR[G][i]] = 0;
            }
        }
    }

    lastButtonState = buttonState;
     524:	80 91 07 38 	lds	r24, 0x3807	; 0x803807 <buttonState>
     528:	80 93 01 38 	sts	0x3801, r24	; 0x803801 <lastButtonState>
    return 0;
}
     52c:	80 e0       	ldi	r24, 0x00	; 0
     52e:	cf 91       	pop	r28
     530:	08 95       	ret

00000532 <MagnetMaze>:
uint8_t         mazeCnt = 0;
uint8_t         mazeState = TRUE;
uint8_t         inverted  = FALSE;

// Main game loop
uint8_t MagnetMaze(){
     532:	cf 93       	push	r28
     534:	df 93       	push	r29
    if (CheckState(MAZE_INACTIVE))
     536:	87 ef       	ldi	r24, 0xF7	; 247
     538:	3f d6       	rcall	.+3198   	; 0x11b8 <CheckState>
     53a:	81 11       	cpse	r24, r1
     53c:	3e c1       	rjmp	.+636    	; 0x7ba <MagnetMaze+0x288>
        return 0;

    if (CheckState(MAZE_COMPLETED))
     53e:	8d e7       	ldi	r24, 0x7D	; 125
     540:	3b d6       	rcall	.+3190   	; 0x11b8 <CheckState>
     542:	81 11       	cpse	r24, r1
     544:	3a c1       	rjmp	.+628    	; 0x7ba <MagnetMaze+0x288>
        return 0;

    if ( (gameNow != TEXT) && (gameNow != MAZE) )
     546:	80 91 2f 38 	lds	r24, 0x382F	; 0x80382f <gameNow>
     54a:	82 30       	cpi	r24, 0x02	; 2
     54c:	08 f0       	brcs	.+2      	; 0x550 <MagnetMaze+0x1e>
     54e:	35 c1       	rjmp	.+618    	; 0x7ba <MagnetMaze+0x288>
        return 0;

    if (calHall == 0)
     550:	80 91 e3 3a 	lds	r24, 0x3AE3	; 0x803ae3 <calHall>
     554:	90 91 e4 3a 	lds	r25, 0x3AE4	; 0x803ae4 <calHall+0x1>
     558:	89 2b       	or	r24, r25
     55a:	41 f4       	brne	.+16     	; 0x56c <MagnetMaze+0x3a>
        calHall = adcHall;
     55c:	80 91 93 3a 	lds	r24, 0x3A93	; 0x803a93 <adcHall>
     560:	90 91 94 3a 	lds	r25, 0x3A94	; 0x803a94 <adcHall+0x1>
     564:	80 93 e3 3a 	sts	0x3AE3, r24	; 0x803ae3 <calHall>
     568:	90 93 e4 3a 	sts	0x3AE4, r25	; 0x803ae4 <calHall+0x1>

    int16_t valHall = adcHall - calHall;
     56c:	80 91 93 3a 	lds	r24, 0x3A93	; 0x803a93 <adcHall>
     570:	90 91 94 3a 	lds	r25, 0x3A94	; 0x803a94 <adcHall+0x1>
     574:	20 91 e3 3a 	lds	r18, 0x3AE3	; 0x803ae3 <calHall>
     578:	30 91 e4 3a 	lds	r19, 0x3AE4	; 0x803ae4 <calHall+0x1>
     57c:	82 1b       	sub	r24, r18
     57e:	93 0b       	sbc	r25, r19
    switch (curHallState) {
     580:	30 91 3c 38 	lds	r19, 0x383C	; 0x80383c <curHallState>
     584:	31 30       	cpi	r19, 0x01	; 1
     586:	89 f0       	breq	.+34     	; 0x5aa <MagnetMaze+0x78>
     588:	18 f0       	brcs	.+6      	; 0x590 <MagnetMaze+0x5e>
     58a:	32 30       	cpi	r19, 0x02	; 2
     58c:	c1 f0       	breq	.+48     	; 0x5be <MagnetMaze+0x8c>
     58e:	1f c0       	rjmp	.+62     	; 0x5ce <MagnetMaze+0x9c>
        case 0: {
            if ( valHall + HALL_HIGH < 0 ) {
     590:	84 3d       	cpi	r24, 0xD4	; 212
     592:	2e ef       	ldi	r18, 0xFE	; 254
     594:	92 07       	cpc	r25, r18
     596:	14 f4       	brge	.+4      	; 0x59c <MagnetMaze+0x6a>
                newHallState = 1;
     598:	81 e0       	ldi	r24, 0x01	; 1
     59a:	04 c0       	rjmp	.+8      	; 0x5a4 <MagnetMaze+0x72>
            } else if ( valHall - HALL_HIGH > 0 ) {
     59c:	8d 32       	cpi	r24, 0x2D	; 45
     59e:	91 40       	sbci	r25, 0x01	; 1
     5a0:	5c f0       	brlt	.+22     	; 0x5b8 <MagnetMaze+0x86>
                newHallState = 2;
     5a2:	82 e0       	ldi	r24, 0x02	; 2
     5a4:	80 93 3b 38 	sts	0x383B, r24	; 0x80383b <newHallState>
     5a8:	12 c0       	rjmp	.+36     	; 0x5ce <MagnetMaze+0x9c>
            }
            break;
        }
        
        case 1: {
            if ( valHall - HALL_HIGH > 0 ) {
     5aa:	8d 32       	cpi	r24, 0x2D	; 45
     5ac:	21 e0       	ldi	r18, 0x01	; 1
     5ae:	92 07       	cpc	r25, r18
     5b0:	c4 f7       	brge	.-16     	; 0x5a2 <MagnetMaze+0x70>
                newHallState = 2;
            } else if ( valHall + HALL_LOW > 0 ) {
     5b2:	89 38       	cpi	r24, 0x89	; 137
     5b4:	9f 4f       	sbci	r25, 0xFF	; 255
     5b6:	84 f3       	brlt	.-32     	; 0x598 <MagnetMaze+0x66>
            if ( valHall + HALL_HIGH < 0 ) {
                newHallState = 1;
            } else if ( valHall - HALL_HIGH > 0 ) {
                newHallState = 2;
            } else {
                newHallState = 0;
     5b8:	10 92 3b 38 	sts	0x383B, r1	; 0x80383b <newHallState>
     5bc:	08 c0       	rjmp	.+16     	; 0x5ce <MagnetMaze+0x9c>
            }
            break;
        }
        
        case 2: {
            if ( valHall + HALL_HIGH < 0 ) {
     5be:	84 3d       	cpi	r24, 0xD4	; 212
     5c0:	2e ef       	ldi	r18, 0xFE	; 254
     5c2:	92 07       	cpc	r25, r18
     5c4:	4c f3       	brlt	.-46     	; 0x598 <MagnetMaze+0x66>
                newHallState = 1;
            } else if ( valHall - HALL_LOW < 0 ) {
     5c6:	88 37       	cpi	r24, 0x78	; 120
     5c8:	91 05       	cpc	r25, r1
     5ca:	b4 f3       	brlt	.-20     	; 0x5b8 <MagnetMaze+0x86>
     5cc:	ea cf       	rjmp	.-44     	; 0x5a2 <MagnetMaze+0x70>
            break;
        }
    }

    /* activate led for hallstate */
    iLED[SCARAB[G]] = (newHallState ? dimValue : 0);
     5ce:	c0 91 25 b4 	lds	r28, 0xB425	; 0x80b425 <__bss_end+0x791b>
     5d2:	ec 2f       	mov	r30, r28
     5d4:	f0 e0       	ldi	r31, 0x00	; 0
     5d6:	80 91 3b 38 	lds	r24, 0x383B	; 0x80383b <newHallState>
     5da:	88 23       	and	r24, r24
     5dc:	19 f0       	breq	.+6      	; 0x5e4 <MagnetMaze+0xb2>
     5de:	90 91 09 38 	lds	r25, 0x3809	; 0x803809 <dimValue>
     5e2:	01 c0       	rjmp	.+2      	; 0x5e6 <MagnetMaze+0xb4>
     5e4:	90 e0       	ldi	r25, 0x00	; 0
     5e6:	e6 54       	subi	r30, 0x46	; 70
     5e8:	f5 4c       	sbci	r31, 0xC5	; 197
     5ea:	90 83       	st	Z, r25


    /* Make the maze work regardless of badge orientation */
    if (newHallState != 0 && mazePos == 0 )
     5ec:	88 23       	and	r24, r24
     5ee:	59 f0       	breq	.+22     	; 0x606 <MagnetMaze+0xd4>
     5f0:	20 91 3a 38 	lds	r18, 0x383A	; 0x80383a <mazePos>
     5f4:	21 11       	cpse	r18, r1
     5f6:	3d c0       	rjmp	.+122    	; 0x672 <MagnetMaze+0x140>
        inverted = (newHallState != mazeCode[0]) ? TRUE : FALSE;
     5f8:	91 e0       	ldi	r25, 0x01	; 1
     5fa:	81 30       	cpi	r24, 0x01	; 1
     5fc:	09 f4       	brne	.+2      	; 0x600 <MagnetMaze+0xce>
     5fe:	90 e0       	ldi	r25, 0x00	; 0
     600:	90 93 38 38 	sts	0x3838, r25	; 0x803838 <inverted>
     604:	36 c0       	rjmp	.+108    	; 0x672 <MagnetMaze+0x140>

    if (newHallState != curHallState) {
     606:	33 23       	and	r19, r19
     608:	09 f4       	brne	.+2      	; 0x60c <MagnetMaze+0xda>
     60a:	d7 c0       	rjmp	.+430    	; 0x7ba <MagnetMaze+0x288>
        curHallState = newHallState;
     60c:	10 92 3c 38 	sts	0x383C, r1	; 0x80383c <curHallState>
                    for (int i=0; i<6; i++ )
                        iLED[HCKR[G][i]] = 0;
                }
            }
        } else {
            if (mazePos == sizeof(mazeCode)) {
     610:	80 91 3a 38 	lds	r24, 0x383A	; 0x80383a <mazePos>
     614:	82 31       	cpi	r24, 0x12	; 18
     616:	09 f0       	breq	.+2      	; 0x61a <MagnetMaze+0xe8>
     618:	d0 c0       	rjmp	.+416    	; 0x7ba <MagnetMaze+0x288>
                gameNow   = TEXT;
     61a:	10 92 2f 38 	sts	0x382F, r1	; 0x80382f <gameNow>
                mazePos   = 0;
     61e:	10 92 3a 38 	sts	0x383A, r1	; 0x80383a <mazePos>
                mazeState = TRUE;
     622:	81 e0       	ldi	r24, 0x01	; 1
     624:	80 93 0a 38 	sts	0x380A, r24	; 0x80380a <mazeState>
                iLED[SCARAB[G]]    = 0;
     628:	10 82       	st	Z, r1
                iLED[EYE[G][L]] = 0;
     62a:	e0 91 33 b4 	lds	r30, 0xB433	; 0x80b433 <__bss_end+0x7929>
     62e:	f0 e0       	ldi	r31, 0x00	; 0
     630:	e6 54       	subi	r30, 0x46	; 70
     632:	f5 4c       	sbci	r31, 0xC5	; 197
     634:	10 82       	st	Z, r1
                iLED[EYE[G][R]] = 0;
     636:	e0 91 32 b4 	lds	r30, 0xB432	; 0x80b432 <__bss_end+0x7928>
     63a:	f0 e0       	ldi	r31, 0x00	; 0
     63c:	e6 54       	subi	r30, 0x46	; 70
     63e:	f5 4c       	sbci	r31, 0xC5	; 197
     640:	10 82       	st	Z, r1
                iLED[EYE[R][L]] = 0;
     642:	e0 91 31 b4 	lds	r30, 0xB431	; 0x80b431 <__bss_end+0x7927>
     646:	f0 e0       	ldi	r31, 0x00	; 0
     648:	e6 54       	subi	r30, 0x46	; 70
     64a:	f5 4c       	sbci	r31, 0xC5	; 197
     64c:	10 82       	st	Z, r1
                iLED[EYE[R][R]] = 0;
     64e:	e0 91 30 b4 	lds	r30, 0xB430	; 0x80b430 <__bss_end+0x7926>
     652:	f0 e0       	ldi	r31, 0x00	; 0
     654:	e6 54       	subi	r30, 0x46	; 70
     656:	f5 4c       	sbci	r31, 0xC5	; 197
     658:	10 82       	st	Z, r1
     65a:	aa e3       	ldi	r26, 0x3A	; 58
     65c:	b4 eb       	ldi	r27, 0xB4	; 180
                for (int i=0; i<6; i++ )
                    iLED[HCKR[G][i]] = 0;
     65e:	ed 91       	ld	r30, X+
     660:	f0 e0       	ldi	r31, 0x00	; 0
     662:	e6 54       	subi	r30, 0x46	; 70
     664:	f5 4c       	sbci	r31, 0xC5	; 197
     666:	10 82       	st	Z, r1
                iLED[SCARAB[G]]    = 0;
                iLED[EYE[G][L]] = 0;
                iLED[EYE[G][R]] = 0;
                iLED[EYE[R][L]] = 0;
                iLED[EYE[R][R]] = 0;
                for (int i=0; i<6; i++ )
     668:	24 eb       	ldi	r18, 0xB4	; 180
     66a:	a0 34       	cpi	r26, 0x40	; 64
     66c:	b2 07       	cpc	r27, r18
     66e:	b9 f7       	brne	.-18     	; 0x65e <MagnetMaze+0x12c>
     670:	a4 c0       	rjmp	.+328    	; 0x7ba <MagnetMaze+0x288>

    /* Make the maze work regardless of badge orientation */
    if (newHallState != 0 && mazePos == 0 )
        inverted = (newHallState != mazeCode[0]) ? TRUE : FALSE;

    if (newHallState != curHallState) {
     672:	38 17       	cp	r19, r24
     674:	09 f4       	brne	.+2      	; 0x678 <MagnetMaze+0x146>
     676:	a1 c0       	rjmp	.+322    	; 0x7ba <MagnetMaze+0x288>
        curHallState = newHallState;
     678:	80 93 3c 38 	sts	0x383C, r24	; 0x80383c <curHallState>
        
        if (curHallState != 0) {
            gameNow = MAZE;
     67c:	91 e0       	ldi	r25, 0x01	; 1
     67e:	90 93 2f 38 	sts	0x382F, r25	; 0x80382f <gameNow>
            if ( (inverted ? curHallState^3 : curHallState) == mazeCode[mazePos]) {
     682:	90 91 38 38 	lds	r25, 0x3838	; 0x803838 <inverted>
     686:	99 23       	and	r25, r25
     688:	11 f0       	breq	.+4      	; 0x68e <MagnetMaze+0x15c>
     68a:	93 e0       	ldi	r25, 0x03	; 3
     68c:	89 27       	eor	r24, r25
     68e:	90 e0       	ldi	r25, 0x00	; 0
     690:	e2 2f       	mov	r30, r18
     692:	f0 e0       	ldi	r31, 0x00	; 0
     694:	e0 5c       	subi	r30, 0xC0	; 192
     696:	fb 44       	sbci	r31, 0x4B	; 75
     698:	40 81       	ld	r20, Z
     69a:	50 e0       	ldi	r21, 0x00	; 0
     69c:	84 17       	cp	r24, r20
     69e:	95 07       	cpc	r25, r21
     6a0:	91 f4       	brne	.+36     	; 0x6c6 <MagnetMaze+0x194>
                mazeState &= TRUE;
     6a2:	80 91 0a 38 	lds	r24, 0x380A	; 0x80380a <mazeState>
     6a6:	81 70       	andi	r24, 0x01	; 1
     6a8:	80 93 0a 38 	sts	0x380A, r24	; 0x80380a <mazeState>
                iLED[EYE[R][L]] = 0;
     6ac:	e0 91 31 b4 	lds	r30, 0xB431	; 0x80b431 <__bss_end+0x7927>
     6b0:	f0 e0       	ldi	r31, 0x00	; 0
     6b2:	e6 54       	subi	r30, 0x46	; 70
     6b4:	f5 4c       	sbci	r31, 0xC5	; 197
     6b6:	10 82       	st	Z, r1
                iLED[EYE[R][R]] = 0;
     6b8:	e0 91 30 b4 	lds	r30, 0xB430	; 0x80b430 <__bss_end+0x7926>
     6bc:	f0 e0       	ldi	r31, 0x00	; 0
     6be:	e6 54       	subi	r30, 0x46	; 70
     6c0:	f5 4c       	sbci	r31, 0xC5	; 197
     6c2:	10 82       	st	Z, r1
     6c4:	02 c0       	rjmp	.+4      	; 0x6ca <MagnetMaze+0x198>
            } else {
                mazeState = FALSE;
     6c6:	10 92 0a 38 	sts	0x380A, r1	; 0x80380a <mazeState>
                /* play tone BAD */
            }
            mazePos++;
     6ca:	2f 5f       	subi	r18, 0xFF	; 255
     6cc:	20 93 3a 38 	sts	0x383A, r18	; 0x80383a <mazePos>
            mazeCnt++;            
     6d0:	80 91 39 38 	lds	r24, 0x3839	; 0x803839 <mazeCnt>
     6d4:	8f 5f       	subi	r24, 0xFF	; 255
            if (mazeCnt >= 3) {
     6d6:	83 30       	cpi	r24, 0x03	; 3
     6d8:	18 f4       	brcc	.+6      	; 0x6e0 <MagnetMaze+0x1ae>
            } else {
                mazeState = FALSE;
                /* play tone BAD */
            }
            mazePos++;
            mazeCnt++;            
     6da:	80 93 39 38 	sts	0x3839, r24	; 0x803839 <mazeCnt>
     6de:	6d c0       	rjmp	.+218    	; 0x7ba <MagnetMaze+0x288>
            if (mazeCnt >= 3) {
                mazeCnt = 0;
     6e0:	10 92 39 38 	sts	0x3839, r1	; 0x803839 <mazeCnt>
                if (mazeState == TRUE) {
     6e4:	80 91 0a 38 	lds	r24, 0x380A	; 0x80380a <mazeState>
     6e8:	81 30       	cpi	r24, 0x01	; 1
     6ea:	a9 f5       	brne	.+106    	; 0x756 <MagnetMaze+0x224>
                    /* play tone GOOD */
                    iLED[HCKR[G][(mazePos/3)-1]] = dimValue;
     6ec:	eb ea       	ldi	r30, 0xAB	; 171
     6ee:	2e 9f       	mul	r18, r30
     6f0:	e1 2d       	mov	r30, r1
     6f2:	11 24       	eor	r1, r1
     6f4:	e6 95       	lsr	r30
     6f6:	f0 e0       	ldi	r31, 0x00	; 0
     6f8:	ec 5c       	subi	r30, 0xCC	; 204
     6fa:	fb 44       	sbci	r31, 0x4B	; 75
     6fc:	e5 81       	ldd	r30, Z+5	; 0x05
     6fe:	f0 e0       	ldi	r31, 0x00	; 0
     700:	80 91 09 38 	lds	r24, 0x3809	; 0x803809 <dimValue>
     704:	e6 54       	subi	r30, 0x46	; 70
     706:	f5 4c       	sbci	r31, 0xC5	; 197
     708:	80 83       	st	Z, r24
                    if (mazePos == sizeof(mazeCode)) {
     70a:	22 31       	cpi	r18, 0x12	; 18
     70c:	09 f0       	breq	.+2      	; 0x710 <MagnetMaze+0x1de>
                        UpdateState(MAZE_COMPLETED);
     70e:	55 c0       	rjmp	.+170    	; 0x7ba <MagnetMaze+0x288>
     710:	8d e7       	ldi	r24, 0x7D	; 125
     712:	48 d5       	rcall	.+2704   	; 0x11a4 <UpdateState>
                        iLED[SCARAB[G]]    = 0;
     714:	d0 e0       	ldi	r29, 0x00	; 0
     716:	c6 54       	subi	r28, 0x46	; 70
     718:	d5 4c       	sbci	r29, 0xC5	; 197
     71a:	18 82       	st	Y, r1
                        iLED[EYE[R][L]] = 0;
     71c:	e0 91 31 b4 	lds	r30, 0xB431	; 0x80b431 <__bss_end+0x7927>
     720:	f0 e0       	ldi	r31, 0x00	; 0
     722:	e6 54       	subi	r30, 0x46	; 70
     724:	f5 4c       	sbci	r31, 0xC5	; 197
     726:	10 82       	st	Z, r1
                        iLED[EYE[R][R]] = 0;
     728:	e0 91 30 b4 	lds	r30, 0xB430	; 0x80b430 <__bss_end+0x7926>
     72c:	f0 e0       	ldi	r31, 0x00	; 0
     72e:	e6 54       	subi	r30, 0x46	; 70
     730:	f5 4c       	sbci	r31, 0xC5	; 197
     732:	10 82       	st	Z, r1
                        iLED[EYE[G][L]] = dimValue;
     734:	e0 91 33 b4 	lds	r30, 0xB433	; 0x80b433 <__bss_end+0x7929>
     738:	f0 e0       	ldi	r31, 0x00	; 0
     73a:	80 91 09 38 	lds	r24, 0x3809	; 0x803809 <dimValue>
     73e:	e6 54       	subi	r30, 0x46	; 70
     740:	f5 4c       	sbci	r31, 0xC5	; 197
     742:	80 83       	st	Z, r24
                        iLED[EYE[G][R]] = dimValue;
     744:	e0 91 32 b4 	lds	r30, 0xB432	; 0x80b432 <__bss_end+0x7928>
     748:	f0 e0       	ldi	r31, 0x00	; 0
     74a:	80 91 09 38 	lds	r24, 0x3809	; 0x803809 <dimValue>
     74e:	e6 54       	subi	r30, 0x46	; 70
     750:	f5 4c       	sbci	r31, 0xC5	; 197
     752:	80 83       	st	Z, r24
     754:	32 c0       	rjmp	.+100    	; 0x7ba <MagnetMaze+0x288>
                        /*state = STATE_MUSIC;*/
                    }
                } else {
                    gameNow   = TEXT;
     756:	10 92 2f 38 	sts	0x382F, r1	; 0x80382f <gameNow>
                    mazePos   = 0;
     75a:	10 92 3a 38 	sts	0x383A, r1	; 0x80383a <mazePos>
                    mazeState = TRUE;
     75e:	81 e0       	ldi	r24, 0x01	; 1
     760:	80 93 0a 38 	sts	0x380A, r24	; 0x80380a <mazeState>
                    iLED[SCARAB[G]]    = 0;
     764:	d0 e0       	ldi	r29, 0x00	; 0
     766:	c6 54       	subi	r28, 0x46	; 70
     768:	d5 4c       	sbci	r29, 0xC5	; 197
     76a:	18 82       	st	Y, r1
                    iLED[EYE[G][L]] = 0;
     76c:	e0 91 33 b4 	lds	r30, 0xB433	; 0x80b433 <__bss_end+0x7929>
     770:	f0 e0       	ldi	r31, 0x00	; 0
     772:	e6 54       	subi	r30, 0x46	; 70
     774:	f5 4c       	sbci	r31, 0xC5	; 197
     776:	10 82       	st	Z, r1
                    iLED[EYE[G][R]] = 0;
     778:	e0 91 32 b4 	lds	r30, 0xB432	; 0x80b432 <__bss_end+0x7928>
     77c:	f0 e0       	ldi	r31, 0x00	; 0
     77e:	e6 54       	subi	r30, 0x46	; 70
     780:	f5 4c       	sbci	r31, 0xC5	; 197
     782:	10 82       	st	Z, r1
                    iLED[EYE[R][L]] = dimValue;
     784:	e0 91 31 b4 	lds	r30, 0xB431	; 0x80b431 <__bss_end+0x7927>
     788:	f0 e0       	ldi	r31, 0x00	; 0
     78a:	80 91 09 38 	lds	r24, 0x3809	; 0x803809 <dimValue>
     78e:	e6 54       	subi	r30, 0x46	; 70
     790:	f5 4c       	sbci	r31, 0xC5	; 197
     792:	80 83       	st	Z, r24
                    iLED[EYE[R][R]] = dimValue;
     794:	e0 91 30 b4 	lds	r30, 0xB430	; 0x80b430 <__bss_end+0x7926>
     798:	f0 e0       	ldi	r31, 0x00	; 0
     79a:	80 91 09 38 	lds	r24, 0x3809	; 0x803809 <dimValue>
     79e:	e6 54       	subi	r30, 0x46	; 70
     7a0:	f5 4c       	sbci	r31, 0xC5	; 197
     7a2:	80 83       	st	Z, r24
     7a4:	aa e3       	ldi	r26, 0x3A	; 58
     7a6:	b4 eb       	ldi	r27, 0xB4	; 180
                    for (int i=0; i<6; i++ )
                        iLED[HCKR[G][i]] = 0;
     7a8:	ed 91       	ld	r30, X+
     7aa:	f0 e0       	ldi	r31, 0x00	; 0
     7ac:	e6 54       	subi	r30, 0x46	; 70
     7ae:	f5 4c       	sbci	r31, 0xC5	; 197
     7b0:	10 82       	st	Z, r1
                    iLED[SCARAB[G]]    = 0;
                    iLED[EYE[G][L]] = 0;
                    iLED[EYE[G][R]] = 0;
                    iLED[EYE[R][L]] = dimValue;
                    iLED[EYE[R][R]] = dimValue;
                    for (int i=0; i<6; i++ )
     7b2:	84 eb       	ldi	r24, 0xB4	; 180
     7b4:	a0 34       	cpi	r26, 0x40	; 64
     7b6:	b8 07       	cpc	r27, r24
     7b8:	b9 f7       	brne	.-18     	; 0x7a8 <MagnetMaze+0x276>
                    iLED[HCKR[G][i]] = 0;
            }
        }
    }
    return 0;
}
     7ba:	80 e0       	ldi	r24, 0x00	; 0
     7bc:	df 91       	pop	r29
     7be:	cf 91       	pop	r28
     7c0:	08 95       	ret

000007c2 <Setup>:
// Select "audio" input (0-2.5V)
void SelectAuIn(){
     VREF_CTRLA   = 0x22;    //0x22 for audio in/out (2.5V), 0x12 for temperature in, audio out (1.1V/2.5V)
     ADC0_CTRLA   &= ~(ADC_RESSEL_bm);
     ADC0_MUXPOS  = 0x07;    //Audio in: AIN7 at (0x07), Temperature: Internal sensor at (0x1E)
     adc0Chg = 1;
     7c2:	cf 93       	push	r28
     7c4:	df 93       	push	r29
     7c6:	f8 94       	cli
     7c8:	88 ed       	ldi	r24, 0xD8	; 216
     7ca:	84 bf       	out	0x34, r24	; 52
     7cc:	c1 e0       	ldi	r28, 0x01	; 1
     7ce:	c0 93 61 00 	sts	0x0061, r28	; 0x800061 <__TEXT_REGION_LENGTH__+0x700061>
     7d2:	8a e4       	ldi	r24, 0x4A	; 74
     7d4:	80 93 00 04 	sts	0x0400, r24	; 0x800400 <__TEXT_REGION_LENGTH__+0x700400>
     7d8:	8c e7       	ldi	r24, 0x7C	; 124
     7da:	80 93 20 04 	sts	0x0420, r24	; 0x800420 <__TEXT_REGION_LENGTH__+0x700420>
     7de:	9f e3       	ldi	r25, 0x3F	; 63
     7e0:	90 93 40 04 	sts	0x0440, r25	; 0x800440 <__TEXT_REGION_LENGTH__+0x700440>
     7e4:	80 91 53 04 	lds	r24, 0x0453	; 0x800453 <__TEXT_REGION_LENGTH__+0x700453>
     7e8:	80 68       	ori	r24, 0x80	; 128
     7ea:	80 93 53 04 	sts	0x0453, r24	; 0x800453 <__TEXT_REGION_LENGTH__+0x700453>
     7ee:	80 91 54 04 	lds	r24, 0x0454	; 0x800454 <__TEXT_REGION_LENGTH__+0x700454>
     7f2:	80 68       	ori	r24, 0x80	; 128
     7f4:	80 93 54 04 	sts	0x0454, r24	; 0x800454 <__TEXT_REGION_LENGTH__+0x700454>
     7f8:	80 91 55 04 	lds	r24, 0x0455	; 0x800455 <__TEXT_REGION_LENGTH__+0x700455>
     7fc:	80 68       	ori	r24, 0x80	; 128
     7fe:	80 93 55 04 	sts	0x0455, r24	; 0x800455 <__TEXT_REGION_LENGTH__+0x700455>
     802:	80 91 33 04 	lds	r24, 0x0433	; 0x800433 <__TEXT_REGION_LENGTH__+0x700433>
     806:	80 68       	ori	r24, 0x80	; 128
     808:	80 93 33 04 	sts	0x0433, r24	; 0x800433 <__TEXT_REGION_LENGTH__+0x700433>
     80c:	80 91 34 04 	lds	r24, 0x0434	; 0x800434 <__TEXT_REGION_LENGTH__+0x700434>
     810:	80 68       	ori	r24, 0x80	; 128
     812:	80 93 34 04 	sts	0x0434, r24	; 0x800434 <__TEXT_REGION_LENGTH__+0x700434>
     816:	80 91 35 04 	lds	r24, 0x0435	; 0x800435 <__TEXT_REGION_LENGTH__+0x700435>
     81a:	80 68       	ori	r24, 0x80	; 128
     81c:	80 93 35 04 	sts	0x0435, r24	; 0x800435 <__TEXT_REGION_LENGTH__+0x700435>
     820:	c0 93 01 02 	sts	0x0201, r28	; 0x800201 <__TEXT_REGION_LENGTH__+0x700201>
     824:	d2 e0       	ldi	r29, 0x02	; 2
     826:	d0 93 05 04 	sts	0x0405, r29	; 0x800405 <__TEXT_REGION_LENGTH__+0x700405>
     82a:	2b e5       	ldi	r18, 0x5B	; 91
     82c:	31 e0       	ldi	r19, 0x01	; 1
     82e:	20 93 08 08 	sts	0x0808, r18	; 0x800808 <__TEXT_REGION_LENGTH__+0x700808>
     832:	30 93 09 08 	sts	0x0809, r19	; 0x800809 <__TEXT_REGION_LENGTH__+0x700809>
     836:	80 ea       	ldi	r24, 0xA0	; 160
     838:	80 93 05 08 	sts	0x0805, r24	; 0x800805 <__TEXT_REGION_LENGTH__+0x700805>
     83c:	80 ec       	ldi	r24, 0xC0	; 192
     83e:	80 93 06 08 	sts	0x0806, r24	; 0x800806 <__TEXT_REGION_LENGTH__+0x700806>
     842:	83 e0       	ldi	r24, 0x03	; 3
     844:	80 93 07 08 	sts	0x0807, r24	; 0x800807 <__TEXT_REGION_LENGTH__+0x700807>
     848:	1c ba       	out	0x1c, r1	; 28
     84a:	1d ba       	out	0x1d, r1	; 29
     84c:	1e ba       	out	0x1e, r1	; 30
     84e:	1f ba       	out	0x1f, r1	; 31
     850:	c0 93 03 0a 	sts	0x0A03, r28	; 0x800a03 <__TEXT_REGION_LENGTH__+0x700a03>
     854:	88 e0       	ldi	r24, 0x08	; 8
     856:	80 93 00 0a 	sts	0x0A00, r24	; 0x800a00 <__TEXT_REGION_LENGTH__+0x700a00>
     85a:	90 93 02 02 	sts	0x0202, r25	; 0x800202 <__TEXT_REGION_LENGTH__+0x700202>
     85e:	87 e7       	ldi	r24, 0x77	; 119
     860:	80 93 01 0a 	sts	0x0A01, r24	; 0x800a01 <__TEXT_REGION_LENGTH__+0x700a01>
     864:	c0 93 0a 0a 	sts	0x0A0A, r28	; 0x800a0a <__TEXT_REGION_LENGTH__+0x700a0a>
     868:	8b e0       	ldi	r24, 0x0B	; 11
     86a:	80 93 05 0a 	sts	0x0A05, r24	; 0x800a05 <__TEXT_REGION_LENGTH__+0x700a05>
     86e:	80 91 00 0a 	lds	r24, 0x0A00	; 0x800a00 <__TEXT_REGION_LENGTH__+0x700a00>
     872:	81 60       	ori	r24, 0x01	; 1
     874:	80 93 00 0a 	sts	0x0A00, r24	; 0x800a00 <__TEXT_REGION_LENGTH__+0x700a00>
     878:	85 e0       	ldi	r24, 0x05	; 5
     87a:	80 93 40 0a 	sts	0x0A40, r24	; 0x800a40 <__TEXT_REGION_LENGTH__+0x700a40>
     87e:	10 92 41 0a 	sts	0x0A41, r1	; 0x800a41 <__TEXT_REGION_LENGTH__+0x700a41>
     882:	8f ef       	ldi	r24, 0xFF	; 255
     884:	91 e0       	ldi	r25, 0x01	; 1
     886:	80 93 4c 0a 	sts	0x0A4C, r24	; 0x800a4c <__TEXT_REGION_LENGTH__+0x700a4c>
     88a:	90 93 4d 0a 	sts	0x0A4D, r25	; 0x800a4d <__TEXT_REGION_LENGTH__+0x700a4d>
     88e:	10 92 45 0a 	sts	0x0A45, r1	; 0x800a45 <__TEXT_REGION_LENGTH__+0x700a45>
     892:	c0 93 50 0a 	sts	0x0A50, r28	; 0x800a50 <__TEXT_REGION_LENGTH__+0x700a50>
     896:	10 92 51 0a 	sts	0x0A51, r1	; 0x800a51 <__TEXT_REGION_LENGTH__+0x700a51>
     89a:	8b e8       	ldi	r24, 0x8B	; 139
     89c:	93 e0       	ldi	r25, 0x03	; 3
     89e:	80 93 5c 0a 	sts	0x0A5C, r24	; 0x800a5c <__TEXT_REGION_LENGTH__+0x700a5c>
     8a2:	90 93 5d 0a 	sts	0x0A5D, r25	; 0x800a5d <__TEXT_REGION_LENGTH__+0x700a5d>
     8a6:	c0 93 55 0a 	sts	0x0A55, r28	; 0x800a55 <__TEXT_REGION_LENGTH__+0x700a55>
     8aa:	08 dc       	rcall	.-2032   	; 0xbc <I2C_init>
     8ac:	82 e1       	ldi	r24, 0x12	; 18
     8ae:	80 93 a0 00 	sts	0x00A0, r24	; 0x8000a0 <__TEXT_REGION_LENGTH__+0x7000a0>
     8b2:	80 e2       	ldi	r24, 0x20	; 32
     8b4:	80 93 a2 00 	sts	0x00A2, r24	; 0x8000a2 <__TEXT_REGION_LENGTH__+0x7000a2>
     8b8:	c0 93 a1 00 	sts	0x00A1, r28	; 0x8000a1 <__TEXT_REGION_LENGTH__+0x7000a1>
     8bc:	86 e0       	ldi	r24, 0x06	; 6
     8be:	80 93 00 06 	sts	0x0600, r24	; 0x800600 <__TEXT_REGION_LENGTH__+0x700600>
     8c2:	84 e4       	ldi	r24, 0x44	; 68
     8c4:	80 93 02 06 	sts	0x0602, r24	; 0x800602 <__TEXT_REGION_LENGTH__+0x700602>
     8c8:	8e e1       	ldi	r24, 0x1E	; 30
     8ca:	80 93 06 06 	sts	0x0606, r24	; 0x800606 <__TEXT_REGION_LENGTH__+0x700606>
     8ce:	c0 93 0a 06 	sts	0x060A, r28	; 0x80060a <__TEXT_REGION_LENGTH__+0x70060a>
     8d2:	80 91 00 06 	lds	r24, 0x0600	; 0x800600 <__TEXT_REGION_LENGTH__+0x700600>
     8d6:	81 60       	ori	r24, 0x01	; 1
     8d8:	80 93 00 06 	sts	0x0600, r24	; 0x800600 <__TEXT_REGION_LENGTH__+0x700600>
     8dc:	c0 93 08 06 	sts	0x0608, r28	; 0x800608 <__TEXT_REGION_LENGTH__+0x700608>
     8e0:	10 92 40 06 	sts	0x0640, r1	; 0x800640 <__TEXT_REGION_LENGTH__+0x700640>
     8e4:	d0 93 41 06 	sts	0x0641, r29	; 0x800641 <__TEXT_REGION_LENGTH__+0x700641>
     8e8:	82 e5       	ldi	r24, 0x52	; 82
     8ea:	80 93 42 06 	sts	0x0642, r24	; 0x800642 <__TEXT_REGION_LENGTH__+0x700642>
     8ee:	84 e0       	ldi	r24, 0x04	; 4
     8f0:	80 93 45 06 	sts	0x0645, r24	; 0x800645 <__TEXT_REGION_LENGTH__+0x700645>
     8f4:	80 93 46 06 	sts	0x0646, r24	; 0x800646 <__TEXT_REGION_LENGTH__+0x700646>
     8f8:	c0 93 4a 06 	sts	0x064A, r28	; 0x80064a <__TEXT_REGION_LENGTH__+0x70064a>
     8fc:	80 91 40 06 	lds	r24, 0x0640	; 0x800640 <__TEXT_REGION_LENGTH__+0x700640>
     900:	81 60       	ori	r24, 0x01	; 1
     902:	80 93 40 06 	sts	0x0640, r24	; 0x800640 <__TEXT_REGION_LENGTH__+0x700640>
     906:	c0 93 48 06 	sts	0x0648, r28	; 0x800648 <__TEXT_REGION_LENGTH__+0x700648>
     90a:	80 e4       	ldi	r24, 0x40	; 64
     90c:	80 93 a0 06 	sts	0x06A0, r24	; 0x8006a0 <__TEXT_REGION_LENGTH__+0x7006a0>
     910:	80 e8       	ldi	r24, 0x80	; 128
     912:	80 93 a1 06 	sts	0x06A1, r24	; 0x8006a1 <__TEXT_REGION_LENGTH__+0x7006a1>
     916:	80 91 a0 06 	lds	r24, 0x06A0	; 0x8006a0 <__TEXT_REGION_LENGTH__+0x7006a0>
     91a:	81 60       	ori	r24, 0x01	; 1
     91c:	80 93 a0 06 	sts	0x06A0, r24	; 0x8006a0 <__TEXT_REGION_LENGTH__+0x7006a0>
     920:	80 91 41 01 	lds	r24, 0x0141	; 0x800141 <__TEXT_REGION_LENGTH__+0x700141>
     924:	80 fd       	sbrc	r24, 0
     926:	fc cf       	rjmp	.-8      	; 0x920 <Setup+0x15e>
     928:	80 e3       	ldi	r24, 0x30	; 48
     92a:	80 93 40 01 	sts	0x0140, r24	; 0x800140 <__TEXT_REGION_LENGTH__+0x700140>
     92e:	10 92 47 01 	sts	0x0147, r1	; 0x800147 <__TEXT_REGION_LENGTH__+0x700147>
     932:	80 91 41 01 	lds	r24, 0x0141	; 0x800141 <__TEXT_REGION_LENGTH__+0x700141>
     936:	82 fd       	sbrc	r24, 2
     938:	fc cf       	rjmp	.-8      	; 0x932 <Setup+0x170>
     93a:	80 e0       	ldi	r24, 0x00	; 0
     93c:	98 e7       	ldi	r25, 0x78	; 120
     93e:	80 93 4a 01 	sts	0x014A, r24	; 0x80014a <__TEXT_REGION_LENGTH__+0x70014a>
     942:	90 93 4b 01 	sts	0x014B, r25	; 0x80014b <__TEXT_REGION_LENGTH__+0x70014b>
     946:	80 91 48 01 	lds	r24, 0x0148	; 0x800148 <__TEXT_REGION_LENGTH__+0x700148>
     94a:	90 91 49 01 	lds	r25, 0x0149	; 0x800149 <__TEXT_REGION_LENGTH__+0x700149>
     94e:	60 91 4a 01 	lds	r22, 0x014A	; 0x80014a <__TEXT_REGION_LENGTH__+0x70014a>
     952:	70 91 4b 01 	lds	r23, 0x014B	; 0x80014b <__TEXT_REGION_LENGTH__+0x70014b>
     956:	82 96       	adiw	r24, 0x22	; 34
     958:	0e 94 c5 19 	call	0x338a	; 0x338a <__udivmodhi4>
     95c:	80 93 e7 3a 	sts	0x3AE7, r24	; 0x803ae7 <tmp16bit>
     960:	90 93 e8 3a 	sts	0x3AE8, r25	; 0x803ae8 <tmp16bit+0x1>
     964:	80 91 41 01 	lds	r24, 0x0141	; 0x800141 <__TEXT_REGION_LENGTH__+0x700141>
     968:	83 fd       	sbrc	r24, 3
     96a:	fc cf       	rjmp	.-8      	; 0x964 <Setup+0x1a2>
     96c:	80 91 e7 3a 	lds	r24, 0x3AE7	; 0x803ae7 <tmp16bit>
     970:	90 91 e8 3a 	lds	r25, 0x3AE8	; 0x803ae8 <tmp16bit+0x1>
     974:	80 93 4c 01 	sts	0x014C, r24	; 0x80014c <__TEXT_REGION_LENGTH__+0x70014c>
     978:	90 93 4d 01 	sts	0x014D, r25	; 0x80014d <__TEXT_REGION_LENGTH__+0x70014d>
     97c:	83 e0       	ldi	r24, 0x03	; 3
     97e:	80 93 42 01 	sts	0x0142, r24	; 0x800142 <__TEXT_REGION_LENGTH__+0x700142>
     982:	81 e0       	ldi	r24, 0x01	; 1
     984:	80 93 52 01 	sts	0x0152, r24	; 0x800152 <__TEXT_REGION_LENGTH__+0x700152>
     988:	88 e0       	ldi	r24, 0x08	; 8
     98a:	80 93 50 01 	sts	0x0150, r24	; 0x800150 <__TEXT_REGION_LENGTH__+0x700150>
     98e:	80 91 41 01 	lds	r24, 0x0141	; 0x800141 <__TEXT_REGION_LENGTH__+0x700141>
     992:	80 fd       	sbrc	r24, 0
     994:	fc cf       	rjmp	.-8      	; 0x98e <Setup+0x1cc>
     996:	80 91 40 01 	lds	r24, 0x0140	; 0x800140 <__TEXT_REGION_LENGTH__+0x700140>
     99a:	81 60       	ori	r24, 0x01	; 1
     99c:	80 93 40 01 	sts	0x0140, r24	; 0x800140 <__TEXT_REGION_LENGTH__+0x700140>
     9a0:	80 91 50 01 	lds	r24, 0x0150	; 0x800150 <__TEXT_REGION_LENGTH__+0x700150>
     9a4:	81 60       	ori	r24, 0x01	; 1
     9a6:	80 93 50 01 	sts	0x0150, r24	; 0x800150 <__TEXT_REGION_LENGTH__+0x700150>
     9aa:	10 92 4d 3a 	sts	0x3A4D, r1	; 0x803a4d <serRx>
     9ae:	8d e4       	ldi	r24, 0x4D	; 77
     9b0:	9a e3       	ldi	r25, 0x3A	; 58
     9b2:	80 93 91 3a 	sts	0x3A91, r24	; 0x803a91 <serTxAddr>
     9b6:	90 93 92 3a 	sts	0x3A92, r25	; 0x803a92 <serTxAddr+0x1>
     9ba:	78 94       	sei
     9bc:	df 91       	pop	r29
     9be:	cf 91       	pop	r28
     9c0:	08 95       	ret

000009c2 <__vector_8>:
     9c2:	1f 92       	push	r1
     9c4:	0f 92       	push	r0
     9c6:	0f b6       	in	r0, 0x3f	; 63
     9c8:	0f 92       	push	r0
     9ca:	11 24       	eor	r1, r1
     9cc:	8f 93       	push	r24
     9ce:	9f 93       	push	r25
     9d0:	af 93       	push	r26
     9d2:	bf 93       	push	r27
     9d4:	ef 93       	push	r30
     9d6:	ff 93       	push	r31
     9d8:	87 e0       	ldi	r24, 0x07	; 7
     9da:	80 93 46 04 	sts	0x0446, r24	; 0x800446 <__TEXT_REGION_LENGTH__+0x700446>
     9de:	84 e4       	ldi	r24, 0x44	; 68
     9e0:	80 93 26 04 	sts	0x0426, r24	; 0x800426 <__TEXT_REGION_LENGTH__+0x700426>
     9e4:	ec b3       	in	r30, 0x1c	; 28
     9e6:	88 e0       	ldi	r24, 0x08	; 8
     9e8:	e8 9f       	mul	r30, r24
     9ea:	f0 01       	movw	r30, r0
     9ec:	11 24       	eor	r1, r1
     9ee:	e6 54       	subi	r30, 0x46	; 70
     9f0:	f5 4c       	sbci	r31, 0xC5	; 197
     9f2:	a8 e2       	ldi	r26, 0x28	; 40
     9f4:	ba e0       	ldi	r27, 0x0A	; 10
     9f6:	96 e0       	ldi	r25, 0x06	; 6
     9f8:	81 91       	ld	r24, Z+
     9fa:	8d 93       	st	X+, r24
     9fc:	9a 95       	dec	r25
     9fe:	e1 f7       	brne	.-8      	; 0x9f8 <__vector_8+0x36>
     a00:	8b e0       	ldi	r24, 0x0B	; 11
     a02:	80 93 05 0a 	sts	0x0A05, r24	; 0x800a05 <__TEXT_REGION_LENGTH__+0x700a05>
     a06:	8c b3       	in	r24, 0x1c	; 28
     a08:	83 30       	cpi	r24, 0x03	; 3
     a0a:	58 f4       	brcc	.+22     	; 0xa22 <__vector_8+0x60>
     a0c:	8c b3       	in	r24, 0x1c	; 28
     a0e:	91 e0       	ldi	r25, 0x01	; 1
     a10:	01 c0       	rjmp	.+2      	; 0xa14 <__vector_8+0x52>
     a12:	99 0f       	add	r25, r25
     a14:	8a 95       	dec	r24
     a16:	ea f7       	brpl	.-6      	; 0xa12 <__vector_8+0x50>
     a18:	99 b9       	out	0x09, r25	; 9
     a1a:	8c b3       	in	r24, 0x1c	; 28
     a1c:	83 95       	inc	r24
     a1e:	8c bb       	out	0x1c, r24	; 28
     a20:	0a c0       	rjmp	.+20     	; 0xa36 <__vector_8+0x74>
     a22:	8c b3       	in	r24, 0x1c	; 28
     a24:	83 30       	cpi	r24, 0x03	; 3
     a26:	21 f4       	brne	.+8      	; 0xa30 <__vector_8+0x6e>
     a28:	2a 9a       	sbi	0x05, 2	; 5
     a2a:	83 95       	inc	r24
     a2c:	8c bb       	out	0x1c, r24	; 28
     a2e:	03 c0       	rjmp	.+6      	; 0xa36 <__vector_8+0x74>
     a30:	2e 9a       	sbi	0x05, 6	; 5
     a32:	88 27       	eor	r24, r24
     a34:	8c bb       	out	0x1c, r24	; 28
     a36:	80 91 38 3a 	lds	r24, 0x3A38	; 0x803a38 <timeout_I2C>
     a3a:	88 23       	and	r24, r24
     a3c:	29 f0       	breq	.+10     	; 0xa48 <__vector_8+0x86>
     a3e:	80 91 38 3a 	lds	r24, 0x3A38	; 0x803a38 <timeout_I2C>
     a42:	81 50       	subi	r24, 0x01	; 1
     a44:	80 93 38 3a 	sts	0x3A38, r24	; 0x803a38 <timeout_I2C>
     a48:	8f ef       	ldi	r24, 0xFF	; 255
     a4a:	80 93 0b 0a 	sts	0x0A0B, r24	; 0x800a0b <__TEXT_REGION_LENGTH__+0x700a0b>
     a4e:	ff 91       	pop	r31
     a50:	ef 91       	pop	r30
     a52:	bf 91       	pop	r27
     a54:	af 91       	pop	r26
     a56:	9f 91       	pop	r25
     a58:	8f 91       	pop	r24
     a5a:	0f 90       	pop	r0
     a5c:	0f be       	out	0x3f, r0	; 63
     a5e:	0f 90       	pop	r0
     a60:	1f 90       	pop	r1
     a62:	18 95       	reti

00000a64 <__vector_13>:
     a64:	1f 92       	push	r1
     a66:	0f 92       	push	r0
     a68:	0f b6       	in	r0, 0x3f	; 63
     a6a:	0f 92       	push	r0
     a6c:	11 24       	eor	r1, r1
     a6e:	8f 93       	push	r24
     a70:	9f 93       	push	r25
     a72:	ef 93       	push	r30
     a74:	ff 93       	push	r31
     a76:	e0 91 91 3a 	lds	r30, 0x3A91	; 0x803a91 <serTxAddr>
     a7a:	f0 91 92 3a 	lds	r31, 0x3A92	; 0x803a92 <serTxAddr+0x1>
     a7e:	80 81       	ld	r24, Z
     a80:	88 23       	and	r24, r24
     a82:	91 f0       	breq	.+36     	; 0xaa8 <__vector_13+0x44>
     a84:	80 81       	ld	r24, Z
     a86:	80 93 02 08 	sts	0x0802, r24	; 0x800802 <__TEXT_REGION_LENGTH__+0x700802>
     a8a:	80 91 91 3a 	lds	r24, 0x3A91	; 0x803a91 <serTxAddr>
     a8e:	90 91 92 3a 	lds	r25, 0x3A92	; 0x803a92 <serTxAddr+0x1>
     a92:	01 96       	adiw	r24, 0x01	; 1
     a94:	80 93 91 3a 	sts	0x3A91, r24	; 0x803a91 <serTxAddr>
     a98:	90 93 92 3a 	sts	0x3A92, r25	; 0x803a92 <serTxAddr+0x1>
     a9c:	80 91 05 08 	lds	r24, 0x0805	; 0x800805 <__TEXT_REGION_LENGTH__+0x700805>
     aa0:	80 62       	ori	r24, 0x20	; 32
     aa2:	80 93 05 08 	sts	0x0805, r24	; 0x800805 <__TEXT_REGION_LENGTH__+0x700805>
     aa6:	05 c0       	rjmp	.+10     	; 0xab2 <__vector_13+0x4e>
     aa8:	81 e0       	ldi	r24, 0x01	; 1
     aaa:	80 93 08 38 	sts	0x3808, r24	; 0x803808 <serTxDone>
     aae:	10 92 45 0a 	sts	0x0A45, r1	; 0x800a45 <__TEXT_REGION_LENGTH__+0x700a45>
     ab2:	81 e0       	ldi	r24, 0x01	; 1
     ab4:	80 93 46 0a 	sts	0x0A46, r24	; 0x800a46 <__TEXT_REGION_LENGTH__+0x700a46>
     ab8:	ff 91       	pop	r31
     aba:	ef 91       	pop	r30
     abc:	9f 91       	pop	r25
     abe:	8f 91       	pop	r24
     ac0:	0f 90       	pop	r0
     ac2:	0f be       	out	0x3f, r0	; 63
     ac4:	0f 90       	pop	r0
     ac6:	1f 90       	pop	r1
     ac8:	18 95       	reti

00000aca <__vector_14>:
     aca:	1f 92       	push	r1
     acc:	0f 92       	push	r0
     ace:	0f b6       	in	r0, 0x3f	; 63
     ad0:	0f 92       	push	r0
     ad2:	11 24       	eor	r1, r1
     ad4:	2f 93       	push	r18
     ad6:	3f 93       	push	r19
     ad8:	4f 93       	push	r20
     ada:	8f 93       	push	r24
     adc:	9f 93       	push	r25
     ade:	ef 93       	push	r30
     ae0:	ff 93       	push	r31
     ae2:	e0 91 05 38 	lds	r30, 0x3805	; 0x803805 <auSmpAddr>
     ae6:	f0 91 06 38 	lds	r31, 0x3806	; 0x803806 <auSmpAddr+0x1>
     aea:	80 81       	ld	r24, Z
     aec:	81 11       	cpse	r24, r1
     aee:	08 c0       	rjmp	.+16     	; 0xb00 <__vector_14+0x36>
     af0:	80 91 03 38 	lds	r24, 0x3803	; 0x803803 <auRepAddr>
     af4:	90 91 04 38 	lds	r25, 0x3804	; 0x803804 <auRepAddr+0x1>
     af8:	80 93 05 38 	sts	0x3805, r24	; 0x803805 <auSmpAddr>
     afc:	90 93 06 38 	sts	0x3806, r25	; 0x803806 <auSmpAddr+0x1>
     b00:	e0 91 05 38 	lds	r30, 0x3805	; 0x803805 <auSmpAddr>
     b04:	f0 91 06 38 	lds	r31, 0x3806	; 0x803806 <auSmpAddr+0x1>
     b08:	80 81       	ld	r24, Z
     b0a:	88 23       	and	r24, r24
     b0c:	e1 f0       	breq	.+56     	; 0xb46 <__vector_14+0x7c>
     b0e:	20 81       	ld	r18, Z
     b10:	40 91 8e 3a 	lds	r20, 0x3A8E	; 0x803a8e <auVolume>
     b14:	30 e0       	ldi	r19, 0x00	; 0
     b16:	2f 57       	subi	r18, 0x7F	; 127
     b18:	31 09       	sbc	r19, r1
     b1a:	42 9f       	mul	r20, r18
     b1c:	c0 01       	movw	r24, r0
     b1e:	43 9f       	mul	r20, r19
     b20:	90 0d       	add	r25, r0
     b22:	11 24       	eor	r1, r1
     b24:	89 2f       	mov	r24, r25
     b26:	99 0f       	add	r25, r25
     b28:	99 0b       	sbc	r25, r25
     b2a:	80 58       	subi	r24, 0x80	; 128
     b2c:	9f 4f       	sbci	r25, 0xFF	; 255
     b2e:	80 93 a1 06 	sts	0x06A1, r24	; 0x8006a1 <__TEXT_REGION_LENGTH__+0x7006a1>
     b32:	80 91 05 38 	lds	r24, 0x3805	; 0x803805 <auSmpAddr>
     b36:	90 91 06 38 	lds	r25, 0x3806	; 0x803806 <auSmpAddr+0x1>
     b3a:	01 96       	adiw	r24, 0x01	; 1
     b3c:	80 93 05 38 	sts	0x3805, r24	; 0x803805 <auSmpAddr>
     b40:	90 93 06 38 	sts	0x3806, r25	; 0x803806 <auSmpAddr+0x1>
     b44:	06 c0       	rjmp	.+12     	; 0xb52 <__vector_14+0x88>
     b46:	80 e8       	ldi	r24, 0x80	; 128
     b48:	80 93 a1 06 	sts	0x06A1, r24	; 0x8006a1 <__TEXT_REGION_LENGTH__+0x7006a1>
     b4c:	81 e0       	ldi	r24, 0x01	; 1
     b4e:	80 93 e2 3a 	sts	0x3AE2, r24	; 0x803ae2 <auPlayDone>
     b52:	81 e0       	ldi	r24, 0x01	; 1
     b54:	80 93 56 0a 	sts	0x0A56, r24	; 0x800a56 <__TEXT_REGION_LENGTH__+0x700a56>
     b58:	ff 91       	pop	r31
     b5a:	ef 91       	pop	r30
     b5c:	9f 91       	pop	r25
     b5e:	8f 91       	pop	r24
     b60:	4f 91       	pop	r20
     b62:	3f 91       	pop	r19
     b64:	2f 91       	pop	r18
     b66:	0f 90       	pop	r0
     b68:	0f be       	out	0x3f, r0	; 63
     b6a:	0f 90       	pop	r0
     b6c:	1f 90       	pop	r1
     b6e:	18 95       	reti

00000b70 <__vector_27>:
     b70:	1f 92       	push	r1
     b72:	0f 92       	push	r0
     b74:	0f b6       	in	r0, 0x3f	; 63
     b76:	0f 92       	push	r0
     b78:	11 24       	eor	r1, r1
     b7a:	8f 93       	push	r24
     b7c:	ef 93       	push	r30
     b7e:	ff 93       	push	r31
     b80:	80 91 37 38 	lds	r24, 0x3837	; 0x803837 <serRxDone>
     b84:	81 11       	cpse	r24, r1
     b86:	44 c0       	rjmp	.+136    	; 0xc10 <__vector_27+0xa0>
     b88:	ed b3       	in	r30, 0x1d	; 29
     b8a:	f0 e0       	ldi	r31, 0x00	; 0
     b8c:	80 91 00 08 	lds	r24, 0x0800	; 0x800800 <__TEXT_REGION_LENGTH__+0x700800>
     b90:	e3 5b       	subi	r30, 0xB3	; 179
     b92:	f5 4c       	sbci	r31, 0xC5	; 197
     b94:	80 83       	st	Z, r24
     b96:	ed b3       	in	r30, 0x1d	; 29
     b98:	f0 e0       	ldi	r31, 0x00	; 0
     b9a:	e3 5b       	subi	r30, 0xB3	; 179
     b9c:	f5 4c       	sbci	r31, 0xC5	; 197
     b9e:	80 81       	ld	r24, Z
     ba0:	80 93 02 08 	sts	0x0802, r24	; 0x800802 <__TEXT_REGION_LENGTH__+0x700802>
     ba4:	ed b3       	in	r30, 0x1d	; 29
     ba6:	f0 e0       	ldi	r31, 0x00	; 0
     ba8:	e3 5b       	subi	r30, 0xB3	; 179
     baa:	f5 4c       	sbci	r31, 0xC5	; 197
     bac:	80 81       	ld	r24, Z
     bae:	8a 30       	cpi	r24, 0x0A	; 10
     bb0:	39 f0       	breq	.+14     	; 0xbc0 <__vector_27+0x50>
     bb2:	ed b3       	in	r30, 0x1d	; 29
     bb4:	f0 e0       	ldi	r31, 0x00	; 0
     bb6:	e3 5b       	subi	r30, 0xB3	; 179
     bb8:	f5 4c       	sbci	r31, 0xC5	; 197
     bba:	80 81       	ld	r24, Z
     bbc:	8d 30       	cpi	r24, 0x0D	; 13
     bbe:	49 f4       	brne	.+18     	; 0xbd2 <__vector_27+0x62>
     bc0:	ed b3       	in	r30, 0x1d	; 29
     bc2:	f0 e0       	ldi	r31, 0x00	; 0
     bc4:	e3 5b       	subi	r30, 0xB3	; 179
     bc6:	f5 4c       	sbci	r31, 0xC5	; 197
     bc8:	10 82       	st	Z, r1
     bca:	81 e0       	ldi	r24, 0x01	; 1
     bcc:	80 93 37 38 	sts	0x3837, r24	; 0x803837 <serRxDone>
     bd0:	1f c0       	rjmp	.+62     	; 0xc10 <__vector_27+0xa0>
     bd2:	ed b3       	in	r30, 0x1d	; 29
     bd4:	f0 e0       	ldi	r31, 0x00	; 0
     bd6:	e3 5b       	subi	r30, 0xB3	; 179
     bd8:	f5 4c       	sbci	r31, 0xC5	; 197
     bda:	80 81       	ld	r24, Z
     bdc:	88 30       	cpi	r24, 0x08	; 8
     bde:	39 f0       	breq	.+14     	; 0xbee <__vector_27+0x7e>
     be0:	ed b3       	in	r30, 0x1d	; 29
     be2:	f0 e0       	ldi	r31, 0x00	; 0
     be4:	e3 5b       	subi	r30, 0xB3	; 179
     be6:	f5 4c       	sbci	r31, 0xC5	; 197
     be8:	80 81       	ld	r24, Z
     bea:	8f 37       	cpi	r24, 0x7F	; 127
     bec:	59 f4       	brne	.+22     	; 0xc04 <__vector_27+0x94>
     bee:	8d b3       	in	r24, 0x1d	; 29
     bf0:	88 23       	and	r24, r24
     bf2:	41 f0       	breq	.+16     	; 0xc04 <__vector_27+0x94>
     bf4:	ed b3       	in	r30, 0x1d	; 29
     bf6:	f0 e0       	ldi	r31, 0x00	; 0
     bf8:	e3 5b       	subi	r30, 0xB3	; 179
     bfa:	f5 4c       	sbci	r31, 0xC5	; 197
     bfc:	10 82       	st	Z, r1
     bfe:	8d b3       	in	r24, 0x1d	; 29
     c00:	81 50       	subi	r24, 0x01	; 1
     c02:	05 c0       	rjmp	.+10     	; 0xc0e <__vector_27+0x9e>
     c04:	8d b3       	in	r24, 0x1d	; 29
     c06:	80 34       	cpi	r24, 0x40	; 64
     c08:	18 f4       	brcc	.+6      	; 0xc10 <__vector_27+0xa0>
     c0a:	8d b3       	in	r24, 0x1d	; 29
     c0c:	8f 5f       	subi	r24, 0xFF	; 255
     c0e:	8d bb       	out	0x1d, r24	; 29
     c10:	80 e8       	ldi	r24, 0x80	; 128
     c12:	80 93 04 08 	sts	0x0804, r24	; 0x800804 <__TEXT_REGION_LENGTH__+0x700804>
     c16:	ff 91       	pop	r31
     c18:	ef 91       	pop	r30
     c1a:	8f 91       	pop	r24
     c1c:	0f 90       	pop	r0
     c1e:	0f be       	out	0x3f, r0	; 63
     c20:	0f 90       	pop	r0
     c22:	1f 90       	pop	r1
     c24:	18 95       	reti

00000c26 <__vector_28>:
     c26:	1f 92       	push	r1
     c28:	0f 92       	push	r0
     c2a:	0f b6       	in	r0, 0x3f	; 63
     c2c:	0f 92       	push	r0
     c2e:	11 24       	eor	r1, r1
     c30:	8f 93       	push	r24
     c32:	ef 93       	push	r30
     c34:	ff 93       	push	r31
     c36:	10 92 4a 0a 	sts	0x0A4A, r1	; 0x800a4a <__TEXT_REGION_LENGTH__+0x700a4a>
     c3a:	10 92 4b 0a 	sts	0x0A4B, r1	; 0x800a4b <__TEXT_REGION_LENGTH__+0x700a4b>
     c3e:	81 e0       	ldi	r24, 0x01	; 1
     c40:	80 93 45 0a 	sts	0x0A45, r24	; 0x800a45 <__TEXT_REGION_LENGTH__+0x700a45>
     c44:	e5 e0       	ldi	r30, 0x05	; 5
     c46:	f8 e0       	ldi	r31, 0x08	; 8
     c48:	80 81       	ld	r24, Z
     c4a:	8f 7d       	andi	r24, 0xDF	; 223
     c4c:	80 83       	st	Z, r24
     c4e:	ff 91       	pop	r31
     c50:	ef 91       	pop	r30
     c52:	8f 91       	pop	r24
     c54:	0f 90       	pop	r0
     c56:	0f be       	out	0x3f, r0	; 63
     c58:	0f 90       	pop	r0
     c5a:	1f 90       	pop	r1
     c5c:	18 95       	reti

00000c5e <__vector_20>:
     c5e:	1f 92       	push	r1
     c60:	0f 92       	push	r0
     c62:	0f b6       	in	r0, 0x3f	; 63
     c64:	0f 92       	push	r0
     c66:	11 24       	eor	r1, r1
     c68:	8f 93       	push	r24
     c6a:	9f 93       	push	r25
     c6c:	ef 93       	push	r30
     c6e:	ff 93       	push	r31
     c70:	80 91 2a 38 	lds	r24, 0x382A	; 0x80382a <adc0Chg>
     c74:	81 11       	cpse	r24, r1
     c76:	18 c0       	rjmp	.+48     	; 0xca8 <__vector_20+0x4a>
     c78:	8e b3       	in	r24, 0x1e	; 30
     c7a:	8f 5f       	subi	r24, 0xFF	; 255
     c7c:	8f 71       	andi	r24, 0x1F	; 31
     c7e:	8e bb       	out	0x1e, r24	; 30
     c80:	80 91 06 06 	lds	r24, 0x0606	; 0x800606 <__TEXT_REGION_LENGTH__+0x700606>
     c84:	8e 31       	cpi	r24, 0x1E	; 30
     c86:	41 f4       	brne	.+16     	; 0xc98 <__vector_20+0x3a>
     c88:	80 91 10 06 	lds	r24, 0x0610	; 0x800610 <__TEXT_REGION_LENGTH__+0x700610>
     c8c:	90 e0       	ldi	r25, 0x00	; 0
     c8e:	80 93 e5 3a 	sts	0x3AE5, r24	; 0x803ae5 <adcTemp>
     c92:	90 93 e6 3a 	sts	0x3AE6, r25	; 0x803ae6 <adcTemp+0x1>
     c96:	0a c0       	rjmp	.+20     	; 0xcac <__vector_20+0x4e>
     c98:	ee b3       	in	r30, 0x1e	; 30
     c9a:	f0 e0       	ldi	r31, 0x00	; 0
     c9c:	80 91 10 06 	lds	r24, 0x0610	; 0x800610 <__TEXT_REGION_LENGTH__+0x700610>
     ca0:	e6 56       	subi	r30, 0x66	; 102
     ca2:	f5 4c       	sbci	r31, 0xC5	; 197
     ca4:	80 83       	st	Z, r24
     ca6:	02 c0       	rjmp	.+4      	; 0xcac <__vector_20+0x4e>
     ca8:	10 92 2a 38 	sts	0x382A, r1	; 0x80382a <adc0Chg>
     cac:	81 e0       	ldi	r24, 0x01	; 1
     cae:	80 93 0b 06 	sts	0x060B, r24	; 0x80060b <__TEXT_REGION_LENGTH__+0x70060b>
     cb2:	ff 91       	pop	r31
     cb4:	ef 91       	pop	r30
     cb6:	9f 91       	pop	r25
     cb8:	8f 91       	pop	r24
     cba:	0f 90       	pop	r0
     cbc:	0f be       	out	0x3f, r0	; 63
     cbe:	0f 90       	pop	r0
     cc0:	1f 90       	pop	r1
     cc2:	18 95       	reti

00000cc4 <__vector_22>:
     cc4:	1f 92       	push	r1
     cc6:	0f 92       	push	r0
     cc8:	0f b6       	in	r0, 0x3f	; 63
     cca:	0f 92       	push	r0
     ccc:	11 24       	eor	r1, r1
     cce:	8f 93       	push	r24
     cd0:	9f 93       	push	r25
     cd2:	80 91 46 06 	lds	r24, 0x0646	; 0x800646 <__TEXT_REGION_LENGTH__+0x700646>
     cd6:	81 11       	cpse	r24, r1
     cd8:	0a c0       	rjmp	.+20     	; 0xcee <__vector_22+0x2a>
     cda:	80 91 50 06 	lds	r24, 0x0650	; 0x800650 <__TEXT_REGION_LENGTH__+0x700650>
     cde:	90 91 51 06 	lds	r25, 0x0651	; 0x800651 <__TEXT_REGION_LENGTH__+0x700651>
     ce2:	80 93 95 3a 	sts	0x3A95, r24	; 0x803a95 <adcPhot>
     ce6:	90 93 96 3a 	sts	0x3A96, r25	; 0x803a96 <adcPhot+0x1>
     cea:	81 e0       	ldi	r24, 0x01	; 1
     cec:	10 c0       	rjmp	.+32     	; 0xd0e <__vector_22+0x4a>
     cee:	80 91 46 06 	lds	r24, 0x0646	; 0x800646 <__TEXT_REGION_LENGTH__+0x700646>
     cf2:	81 30       	cpi	r24, 0x01	; 1
     cf4:	79 f4       	brne	.+30     	; 0xd14 <__vector_22+0x50>
     cf6:	88 e0       	ldi	r24, 0x08	; 8
     cf8:	80 93 06 04 	sts	0x0406, r24	; 0x800406 <__TEXT_REGION_LENGTH__+0x700406>
     cfc:	80 91 50 06 	lds	r24, 0x0650	; 0x800650 <__TEXT_REGION_LENGTH__+0x700650>
     d00:	90 91 51 06 	lds	r25, 0x0651	; 0x800651 <__TEXT_REGION_LENGTH__+0x700651>
     d04:	80 93 93 3a 	sts	0x3A93, r24	; 0x803a93 <adcHall>
     d08:	90 93 94 3a 	sts	0x3A94, r25	; 0x803a94 <adcHall+0x1>
     d0c:	84 e0       	ldi	r24, 0x04	; 4
     d0e:	80 93 46 06 	sts	0x0646, r24	; 0x800646 <__TEXT_REGION_LENGTH__+0x700646>
     d12:	10 c0       	rjmp	.+32     	; 0xd34 <__vector_22+0x70>
     d14:	80 91 50 06 	lds	r24, 0x0650	; 0x800650 <__TEXT_REGION_LENGTH__+0x700650>
     d18:	90 91 51 06 	lds	r25, 0x0651	; 0x800651 <__TEXT_REGION_LENGTH__+0x700651>
     d1c:	80 93 8f 3a 	sts	0x3A8F, r24	; 0x803a8f <adcBtns>
     d20:	90 93 90 3a 	sts	0x3A90, r25	; 0x803a90 <adcBtns+0x1>
     d24:	8f b3       	in	r24, 0x1f	; 31
     d26:	8f 30       	cpi	r24, 0x0F	; 15
     d28:	29 f4       	brne	.+10     	; 0xd34 <__vector_22+0x70>
     d2a:	10 92 46 06 	sts	0x0646, r1	; 0x800646 <__TEXT_REGION_LENGTH__+0x700646>
     d2e:	88 e0       	ldi	r24, 0x08	; 8
     d30:	80 93 05 04 	sts	0x0405, r24	; 0x800405 <__TEXT_REGION_LENGTH__+0x700405>
     d34:	8f b3       	in	r24, 0x1f	; 31
     d36:	90 e0       	ldi	r25, 0x00	; 0
     d38:	01 96       	adiw	r24, 0x01	; 1
     d3a:	8f 70       	andi	r24, 0x0F	; 15
     d3c:	99 27       	eor	r25, r25
     d3e:	8f bb       	out	0x1f, r24	; 31
     d40:	81 e0       	ldi	r24, 0x01	; 1
     d42:	80 93 4b 06 	sts	0x064B, r24	; 0x80064b <__TEXT_REGION_LENGTH__+0x70064b>
     d46:	9f 91       	pop	r25
     d48:	8f 91       	pop	r24
     d4a:	0f 90       	pop	r0
     d4c:	0f be       	out	0x3f, r0	; 63
     d4e:	0f 90       	pop	r0
     d50:	1f 90       	pop	r1
     d52:	18 95       	reti

00000d54 <__vector_6>:
     d54:	1f 92       	push	r1
     d56:	0f 92       	push	r0
     d58:	0f b6       	in	r0, 0x3f	; 63
     d5a:	0f 92       	push	r0
     d5c:	11 24       	eor	r1, r1
     d5e:	5f 93       	push	r21
     d60:	6f 93       	push	r22
     d62:	7f 93       	push	r23
     d64:	8f 93       	push	r24
     d66:	9f 93       	push	r25
     d68:	af 93       	push	r26
     d6a:	bf 93       	push	r27
     d6c:	80 91 43 01 	lds	r24, 0x0143	; 0x800143 <__TEXT_REGION_LENGTH__+0x700143>
     d70:	81 ff       	sbrs	r24, 1
     d72:	26 c0       	rjmp	.+76     	; 0xdc0 <__vector_6+0x6c>
     d74:	80 91 35 38 	lds	r24, 0x3835	; 0x803835 <buttonMark>
     d78:	8f 3f       	cpi	r24, 0xFF	; 255
     d7a:	29 f0       	breq	.+10     	; 0xd86 <__vector_6+0x32>
     d7c:	80 91 35 38 	lds	r24, 0x3835	; 0x803835 <buttonMark>
     d80:	8f 5f       	subi	r24, 0xFF	; 255
     d82:	80 93 35 38 	sts	0x3835, r24	; 0x803835 <buttonMark>
     d86:	80 91 48 01 	lds	r24, 0x0148	; 0x800148 <__TEXT_REGION_LENGTH__+0x700148>
     d8a:	90 91 49 01 	lds	r25, 0x0149	; 0x800149 <__TEXT_REGION_LENGTH__+0x700149>
     d8e:	60 91 4a 01 	lds	r22, 0x014A	; 0x80014a <__TEXT_REGION_LENGTH__+0x70014a>
     d92:	70 91 4b 01 	lds	r23, 0x014B	; 0x80014b <__TEXT_REGION_LENGTH__+0x70014b>
     d96:	82 96       	adiw	r24, 0x22	; 34
     d98:	0e 94 c5 19 	call	0x338a	; 0x338a <__udivmodhi4>
     d9c:	80 93 e7 3a 	sts	0x3AE7, r24	; 0x803ae7 <tmp16bit>
     da0:	90 93 e8 3a 	sts	0x3AE8, r25	; 0x803ae8 <tmp16bit+0x1>
     da4:	80 91 41 01 	lds	r24, 0x0141	; 0x800141 <__TEXT_REGION_LENGTH__+0x700141>
     da8:	83 fd       	sbrc	r24, 3
     daa:	fc cf       	rjmp	.-8      	; 0xda4 <__vector_6+0x50>
     dac:	80 91 e7 3a 	lds	r24, 0x3AE7	; 0x803ae7 <tmp16bit>
     db0:	90 91 e8 3a 	lds	r25, 0x3AE8	; 0x803ae8 <tmp16bit+0x1>
     db4:	80 93 4c 01 	sts	0x014C, r24	; 0x80014c <__TEXT_REGION_LENGTH__+0x70014c>
     db8:	90 93 4d 01 	sts	0x014D, r25	; 0x80014d <__TEXT_REGION_LENGTH__+0x70014d>
     dbc:	82 e0       	ldi	r24, 0x02	; 2
     dbe:	06 c0       	rjmp	.+12     	; 0xdcc <__vector_6+0x78>
     dc0:	80 91 36 38 	lds	r24, 0x3836	; 0x803836 <minuteMark>
     dc4:	8f 5f       	subi	r24, 0xFF	; 255
     dc6:	80 93 36 38 	sts	0x3836, r24	; 0x803836 <minuteMark>
     dca:	81 e0       	ldi	r24, 0x01	; 1
     dcc:	80 93 43 01 	sts	0x0143, r24	; 0x800143 <__TEXT_REGION_LENGTH__+0x700143>
     dd0:	bf 91       	pop	r27
     dd2:	af 91       	pop	r26
     dd4:	9f 91       	pop	r25
     dd6:	8f 91       	pop	r24
     dd8:	7f 91       	pop	r23
     dda:	6f 91       	pop	r22
     ddc:	5f 91       	pop	r21
     dde:	0f 90       	pop	r0
     de0:	0f be       	out	0x3f, r0	; 63
     de2:	0f 90       	pop	r0
     de4:	1f 90       	pop	r1
     de6:	18 95       	reti

00000de8 <__vector_7>:
     de8:	1f 92       	push	r1
     dea:	0f 92       	push	r0
     dec:	0f b6       	in	r0, 0x3f	; 63
     dee:	0f 92       	push	r0
     df0:	11 24       	eor	r1, r1
     df2:	8f 93       	push	r24
     df4:	81 e0       	ldi	r24, 0x01	; 1
     df6:	80 93 48 06 	sts	0x0648, r24	; 0x800648 <__TEXT_REGION_LENGTH__+0x700648>
     dfa:	80 93 53 01 	sts	0x0153, r24	; 0x800153 <__TEXT_REGION_LENGTH__+0x700153>
     dfe:	8f 91       	pop	r24
     e00:	0f 90       	pop	r0
     e02:	0f be       	out	0x3f, r0	; 63
     e04:	0f 90       	pop	r0
     e06:	1f 90       	pop	r1
     e08:	18 95       	reti

00000e0a <EERead>:
     e0a:	90 91 02 10 	lds	r25, 0x1002	; 0x801002 <__TEXT_REGION_LENGTH__+0x701002>
     e0e:	91 fd       	sbrc	r25, 1
     e10:	fc cf       	rjmp	.-8      	; 0xe0a <EERead>
     e12:	fb 01       	movw	r30, r22
     e14:	48 0f       	add	r20, r24
     e16:	84 17       	cp	r24, r20
     e18:	39 f0       	breq	.+14     	; 0xe28 <EERead+0x1e>
     e1a:	a8 2f       	mov	r26, r24
     e1c:	b0 e0       	ldi	r27, 0x00	; 0
     e1e:	bc 5e       	subi	r27, 0xEC	; 236
     e20:	9c 91       	ld	r25, X
     e22:	91 93       	st	Z+, r25
     e24:	8f 5f       	subi	r24, 0xFF	; 255
     e26:	f7 cf       	rjmp	.-18     	; 0xe16 <EERead+0xc>
     e28:	08 95       	ret

00000e2a <EEWrite>:
     e2a:	9d e9       	ldi	r25, 0x9D	; 157
     e2c:	24 e0       	ldi	r18, 0x04	; 4
     e2e:	33 e0       	ldi	r19, 0x03	; 3
     e30:	44 23       	and	r20, r20
     e32:	09 f1       	breq	.+66     	; 0xe76 <EEWrite+0x4c>
     e34:	50 91 02 10 	lds	r21, 0x1002	; 0x801002 <__TEXT_REGION_LENGTH__+0x701002>
     e38:	51 fd       	sbrc	r21, 1
     e3a:	fc cf       	rjmp	.-8      	; 0xe34 <EEWrite+0xa>
     e3c:	94 bf       	out	0x34, r25	; 52
     e3e:	20 93 00 10 	sts	0x1000, r18	; 0x801000 <__TEXT_REGION_LENGTH__+0x701000>
     e42:	e8 2f       	mov	r30, r24
     e44:	58 2f       	mov	r21, r24
     e46:	5f 71       	andi	r21, 0x1F	; 31
     e48:	8f 5f       	subi	r24, 0xFF	; 255
     e4a:	6f 5f       	subi	r22, 0xFF	; 255
     e4c:	7f 4f       	sbci	r23, 0xFF	; 255
     e4e:	db 01       	movw	r26, r22
     e50:	11 97       	sbiw	r26, 0x01	; 1
     e52:	ac 91       	ld	r26, X
     e54:	f0 e0       	ldi	r31, 0x00	; 0
     e56:	fc 5e       	subi	r31, 0xEC	; 236
     e58:	a0 83       	st	Z, r26
     e5a:	41 50       	subi	r20, 0x01	; 1
     e5c:	19 f0       	breq	.+6      	; 0xe64 <EEWrite+0x3a>
     e5e:	e8 2f       	mov	r30, r24
     e60:	5f 31       	cpi	r21, 0x1F	; 31
     e62:	81 f7       	brne	.-32     	; 0xe44 <EEWrite+0x1a>
     e64:	94 bf       	out	0x34, r25	; 52
     e66:	30 93 00 10 	sts	0x1000, r19	; 0x801000 <__TEXT_REGION_LENGTH__+0x701000>
     e6a:	50 91 02 10 	lds	r21, 0x1002	; 0x801002 <__TEXT_REGION_LENGTH__+0x701002>
     e6e:	52 ff       	sbrs	r21, 2
     e70:	df cf       	rjmp	.-66     	; 0xe30 <EEWrite+0x6>
     e72:	81 e0       	ldi	r24, 0x01	; 1
     e74:	08 95       	ret
     e76:	80 e0       	ldi	r24, 0x00	; 0
     e78:	08 95       	ret

00000e7a <SerSend>:
     e7a:	20 91 08 38 	lds	r18, 0x3808	; 0x803808 <serTxDone>
     e7e:	22 23       	and	r18, r18
     e80:	59 f0       	breq	.+22     	; 0xe98 <SerSend+0x1e>
     e82:	80 93 91 3a 	sts	0x3A91, r24	; 0x803a91 <serTxAddr>
     e86:	90 93 92 3a 	sts	0x3A92, r25	; 0x803a92 <serTxAddr+0x1>
     e8a:	10 92 08 38 	sts	0x3808, r1	; 0x803808 <serTxDone>
     e8e:	81 e0       	ldi	r24, 0x01	; 1
     e90:	80 93 45 0a 	sts	0x0A45, r24	; 0x800a45 <__TEXT_REGION_LENGTH__+0x700a45>
     e94:	80 e0       	ldi	r24, 0x00	; 0
     e96:	08 95       	ret
     e98:	81 e0       	ldi	r24, 0x01	; 1
     e9a:	08 95       	ret

00000e9c <SerSpeed>:
     e9c:	28 2f       	mov	r18, r24
     e9e:	81 11       	cpse	r24, r1
     ea0:	01 c0       	rjmp	.+2      	; 0xea4 <SerSpeed+0x8>
     ea2:	21 e0       	ldi	r18, 0x01	; 1
     ea4:	8f ef       	ldi	r24, 0xFF	; 255
     ea6:	90 e0       	ldi	r25, 0x00	; 0
     ea8:	82 1b       	sub	r24, r18
     eaa:	91 09       	sbc	r25, r1
     eac:	98 2f       	mov	r25, r24
     eae:	88 27       	eor	r24, r24
     eb0:	81 50       	subi	r24, 0x01	; 1
     eb2:	9f 4f       	sbci	r25, 0xFF	; 255
     eb4:	80 93 4c 0a 	sts	0x0A4C, r24	; 0x800a4c <__TEXT_REGION_LENGTH__+0x700a4c>
     eb8:	90 93 4d 0a 	sts	0x0A4D, r25	; 0x800a4d <__TEXT_REGION_LENGTH__+0x700a4d>
     ebc:	08 95       	ret

00000ebe <CheckButtons>:
};

// Returns button combination (4LSB) and number of consecutive times this combination is detected. First read should always be ignored! 
uint8_t CheckButtons(uint8_t previousValue){
    uint8_t bADC = (uint8_t)(adcBtns>>4);
     ebe:	20 91 8f 3a 	lds	r18, 0x3A8F	; 0x803a8f <adcBtns>
     ec2:	30 91 90 3a 	lds	r19, 0x3A90	; 0x803a90 <adcBtns+0x1>
    uint8_t bNibble = 0x0F;     //MSB to LSB: Bottom left, top left, top right, bottom right, 0F is error
    
    switch(bADC){
     ec6:	94 e0       	ldi	r25, 0x04	; 4
     ec8:	36 95       	lsr	r19
     eca:	27 95       	ror	r18
     ecc:	9a 95       	dec	r25
     ece:	e1 f7       	brne	.-8      	; 0xec8 <CheckButtons+0xa>
     ed0:	33 27       	eor	r19, r19
     ed2:	2c 35       	cpi	r18, 0x5C	; 92
     ed4:	31 05       	cpc	r19, r1
     ed6:	d0 f4       	brcc	.+52     	; 0xf0c <CheckButtons+0x4e>
     ed8:	23 35       	cpi	r18, 0x53	; 83
     eda:	31 05       	cpc	r19, r1
     edc:	a8 f5       	brcc	.+106    	; 0xf48 <CheckButtons+0x8a>
     ede:	22 33       	cpi	r18, 0x32	; 50
     ee0:	31 05       	cpc	r19, r1
     ee2:	50 f4       	brcc	.+20     	; 0xef8 <CheckButtons+0x3a>
     ee4:	2d 32       	cpi	r18, 0x2D	; 45
     ee6:	31 05       	cpc	r19, r1
     ee8:	58 f5       	brcc	.+86     	; 0xf40 <CheckButtons+0x82>
     eea:	23 52       	subi	r18, 0x23	; 35
     eec:	31 09       	sbc	r19, r1
     eee:	25 30       	cpi	r18, 0x05	; 5
     ef0:	31 05       	cpc	r19, r1
     ef2:	80 f5       	brcc	.+96     	; 0xf54 <CheckButtons+0x96>

        case 35 ... 39:          //37: Both left
        bNibble = 0b1100;
     ef4:	9c e0       	ldi	r25, 0x0C	; 12
     ef6:	2f c0       	rjmp	.+94     	; 0xf56 <CheckButtons+0x98>
// Returns button combination (4LSB) and number of consecutive times this combination is detected. First read should always be ignored! 
uint8_t CheckButtons(uint8_t previousValue){
    uint8_t bADC = (uint8_t)(adcBtns>>4);
    uint8_t bNibble = 0x0F;     //MSB to LSB: Bottom left, top left, top right, bottom right, 0F is error
    
    switch(bADC){
     ef8:	27 33       	cpi	r18, 0x37	; 55
     efa:	31 05       	cpc	r19, r1
     efc:	18 f1       	brcs	.+70     	; 0xf44 <CheckButtons+0x86>
     efe:	2e 53       	subi	r18, 0x3E	; 62
     f00:	31 09       	sbc	r19, r1
     f02:	27 30       	cpi	r18, 0x07	; 7
     f04:	31 05       	cpc	r19, r1
     f06:	30 f5       	brcc	.+76     	; 0xf54 <CheckButtons+0x96>
        case 50 ... 54:          //52: Bottom left
        bNibble = 0b1000;
        break;

        case 62 ... 68:          //65: Both top
        bNibble = 0b0110;
     f08:	96 e0       	ldi	r25, 0x06	; 6
        break;
     f0a:	25 c0       	rjmp	.+74     	; 0xf56 <CheckButtons+0x98>
// Returns button combination (4LSB) and number of consecutive times this combination is detected. First read should always be ignored! 
uint8_t CheckButtons(uint8_t previousValue){
    uint8_t bADC = (uint8_t)(adcBtns>>4);
    uint8_t bNibble = 0x0F;     //MSB to LSB: Bottom left, top left, top right, bottom right, 0F is error
    
    switch(bADC){
     f0c:	2a 38       	cpi	r18, 0x8A	; 138
     f0e:	31 05       	cpc	r19, r1
     f10:	50 f4       	brcc	.+20     	; 0xf26 <CheckButtons+0x68>
     f12:	29 37       	cpi	r18, 0x79	; 121
     f14:	31 05       	cpc	r19, r1
     f16:	d0 f4       	brcc	.+52     	; 0xf4c <CheckButtons+0x8e>
     f18:	23 56       	subi	r18, 0x63	; 99
     f1a:	31 09       	sbc	r19, r1
     f1c:	2b 30       	cpi	r18, 0x0B	; 11
     f1e:	31 05       	cpc	r19, r1
     f20:	c8 f4       	brcc	.+50     	; 0xf54 <CheckButtons+0x96>
        case 83 ... 91:          //87: Top left
        bNibble = 0b0100;
        break;

        case 99 ... 109:         //104: Both right
        bNibble = 0b0011;
     f22:	93 e0       	ldi	r25, 0x03	; 3
        break;
     f24:	18 c0       	rjmp	.+48     	; 0xf56 <CheckButtons+0x98>
// Returns button combination (4LSB) and number of consecutive times this combination is detected. First read should always be ignored! 
uint8_t CheckButtons(uint8_t previousValue){
    uint8_t bADC = (uint8_t)(adcBtns>>4);
    uint8_t bNibble = 0x0F;     //MSB to LSB: Bottom left, top left, top right, bottom right, 0F is error
    
    switch(bADC){
     f26:	22 3a       	cpi	r18, 0xA2	; 162
     f28:	31 05       	cpc	r19, r1
     f2a:	a0 f0       	brcs	.+40     	; 0xf54 <CheckButtons+0x96>
     f2c:	2b 3b       	cpi	r18, 0xBB	; 187
     f2e:	31 05       	cpc	r19, r1
     f30:	78 f0       	brcs	.+30     	; 0xf50 <CheckButtons+0x92>
     f32:	20 5f       	subi	r18, 0xF0	; 240
     f34:	31 09       	sbc	r19, r1
     f36:	20 31       	cpi	r18, 0x10	; 16
     f38:	31 05       	cpc	r19, r1
     f3a:	60 f4       	brcc	.+24     	; 0xf54 <CheckButtons+0x96>
        case 162 ... 186:        //174: Bottom right
        bNibble = 0b0001;
        break;

        case 240 ... 255:        //255: No button pressed
        bNibble = 0b0000;
     f3c:	90 e0       	ldi	r25, 0x00	; 0
        break;
     f3e:	0b c0       	rjmp	.+22     	; 0xf56 <CheckButtons+0x98>
        case 35 ... 39:          //37: Both left
        bNibble = 0b1100;
        break;

        case 45 ... 49:          //47: Both bottom
        bNibble = 0b1001;
     f40:	99 e0       	ldi	r25, 0x09	; 9
        break;
     f42:	09 c0       	rjmp	.+18     	; 0xf56 <CheckButtons+0x98>

        case 50 ... 54:          //52: Bottom left
        bNibble = 0b1000;
     f44:	98 e0       	ldi	r25, 0x08	; 8
        break;
     f46:	07 c0       	rjmp	.+14     	; 0xf56 <CheckButtons+0x98>
        case 62 ... 68:          //65: Both top
        bNibble = 0b0110;
        break;

        case 83 ... 91:          //87: Top left
        bNibble = 0b0100;
     f48:	94 e0       	ldi	r25, 0x04	; 4
        break;
     f4a:	05 c0       	rjmp	.+10     	; 0xf56 <CheckButtons+0x98>
        case 99 ... 109:         //104: Both right
        bNibble = 0b0011;
        break;

        case 121 ... 137:        //129: Top right
        bNibble = 0b0010;
     f4c:	92 e0       	ldi	r25, 0x02	; 2
        break;
     f4e:	03 c0       	rjmp	.+6      	; 0xf56 <CheckButtons+0x98>

        case 162 ... 186:        //174: Bottom right
        bNibble = 0b0001;
     f50:	91 e0       	ldi	r25, 0x01	; 1
        break;
     f52:	01 c0       	rjmp	.+2      	; 0xf56 <CheckButtons+0x98>
};

// Returns button combination (4LSB) and number of consecutive times this combination is detected. First read should always be ignored! 
uint8_t CheckButtons(uint8_t previousValue){
    uint8_t bADC = (uint8_t)(adcBtns>>4);
    uint8_t bNibble = 0x0F;     //MSB to LSB: Bottom left, top left, top right, bottom right, 0F is error
     f54:	9f e0       	ldi	r25, 0x0F	; 15
        case 240 ... 255:        //255: No button pressed
        bNibble = 0b0000;
        break;
    }

    if ((previousValue&0x0F)==bNibble){
     f56:	28 2f       	mov	r18, r24
     f58:	2f 70       	andi	r18, 0x0F	; 15
     f5a:	92 13       	cpse	r25, r18
     f5c:	06 c0       	rjmp	.+12     	; 0xf6a <CheckButtons+0xac>
        if ((previousValue&0xF0) < 0xF0) previousValue += 0x10; //Same value? Increase time nibble
     f5e:	98 2f       	mov	r25, r24
     f60:	90 7f       	andi	r25, 0xF0	; 240
     f62:	90 3f       	cpi	r25, 0xF0	; 240
     f64:	39 f0       	breq	.+14     	; 0xf74 <CheckButtons+0xb6>
     f66:	80 5f       	subi	r24, 0xF0	; 240
     f68:	08 95       	ret
        return previousValue;       
    } else if (bNibble == 0) return 0xFF; //Buttons released, 0xFF triggers readout, previousValue holds last button value.
     f6a:	99 23       	and	r25, r25
     f6c:	11 f0       	breq	.+4      	; 0xf72 <CheckButtons+0xb4>
     f6e:	89 2f       	mov	r24, r25
     f70:	08 95       	ret
     f72:	8f ef       	ldi	r24, 0xFF	; 255
              else return bNibble;  //New value  
}
     f74:	08 95       	ret

00000f76 <lfsr>:

uint8_t lfsr(){
    static uint16_t state = 0xd401;
    state ^= (state << 13);
     f76:	80 91 1c 38 	lds	r24, 0x381C	; 0x80381c <state.3878>
     f7a:	90 91 1d 38 	lds	r25, 0x381D	; 0x80381d <state.3878+0x1>
     f7e:	9c 01       	movw	r18, r24
     f80:	32 2f       	mov	r19, r18
     f82:	22 27       	eor	r18, r18
     f84:	32 95       	swap	r19
     f86:	33 0f       	add	r19, r19
     f88:	30 7e       	andi	r19, 0xE0	; 224
     f8a:	82 27       	eor	r24, r18
     f8c:	93 27       	eor	r25, r19
    state ^= (state >> 9);
     f8e:	9c 01       	movw	r18, r24
     f90:	23 2f       	mov	r18, r19
     f92:	33 27       	eor	r19, r19
     f94:	26 95       	lsr	r18
     f96:	82 27       	eor	r24, r18
     f98:	93 27       	eor	r25, r19
    state ^= (state << 7);
     f9a:	9c 01       	movw	r18, r24
     f9c:	36 95       	lsr	r19
     f9e:	32 2f       	mov	r19, r18
     fa0:	22 27       	eor	r18, r18
     fa2:	37 95       	ror	r19
     fa4:	27 95       	ror	r18
     fa6:	82 27       	eor	r24, r18
     fa8:	93 27       	eor	r25, r19
     faa:	80 93 1c 38 	sts	0x381C, r24	; 0x80381c <state.3878>
     fae:	90 93 1d 38 	sts	0x381D, r25	; 0x80381d <state.3878+0x1>
    return (state & 0xff);
}
     fb2:	08 95       	ret

00000fb4 <floatSpeed>:

void floatSpeed(uint8_t bits, uint16_t min, uint16_t max){
     fb4:	df 92       	push	r13
     fb6:	ef 92       	push	r14
     fb8:	ff 92       	push	r15
     fba:	0f 93       	push	r16
     fbc:	1f 93       	push	r17
     fbe:	cf 93       	push	r28
     fc0:	df 93       	push	r29
     fc2:	7b 01       	movw	r14, r22
     fc4:	8a 01       	movw	r16, r20
    uint16_t val = TCB1_CCMP;
     fc6:	c0 91 5c 0a 	lds	r28, 0x0A5C	; 0x800a5c <__TEXT_REGION_LENGTH__+0x700a5c>
     fca:	d0 91 5d 0a 	lds	r29, 0x0A5D	; 0x800a5d <__TEXT_REGION_LENGTH__+0x700a5d>
    bits = mask[(bits-1)&0x07];
     fce:	e8 2f       	mov	r30, r24
     fd0:	f0 e0       	ldi	r31, 0x00	; 0
     fd2:	31 97       	sbiw	r30, 0x01	; 1
     fd4:	e7 70       	andi	r30, 0x07	; 7
     fd6:	ff 27       	eor	r31, r31
     fd8:	e2 5e       	subi	r30, 0xE2	; 226
     fda:	f7 4c       	sbci	r31, 0xC7	; 199
     fdc:	d0 80       	ld	r13, Z
    val += (lfsr()&bits);
     fde:	cb df       	rcall	.-106    	; 0xf76 <lfsr>
     fe0:	8d 21       	and	r24, r13
     fe2:	c8 0f       	add	r28, r24
     fe4:	d1 1d       	adc	r29, r1
    val -= (lfsr()&bits);
     fe6:	c7 df       	rcall	.-114    	; 0xf76 <lfsr>
     fe8:	8d 21       	and	r24, r13
     fea:	c8 1b       	sub	r28, r24
     fec:	d1 09       	sbc	r29, r1
     fee:	0c 17       	cp	r16, r28
     ff0:	1d 07       	cpc	r17, r29
     ff2:	08 f4       	brcc	.+2      	; 0xff6 <floatSpeed+0x42>
     ff4:	e8 01       	movw	r28, r16
     ff6:	c7 01       	movw	r24, r14
     ff8:	ec 16       	cp	r14, r28
     ffa:	fd 06       	cpc	r15, r29
     ffc:	08 f4       	brcc	.+2      	; 0x1000 <floatSpeed+0x4c>
     ffe:	ce 01       	movw	r24, r28
    1000:	80 93 5c 0a 	sts	0x0A5C, r24	; 0x800a5c <__TEXT_REGION_LENGTH__+0x700a5c>
    if (val > max) val = max;    //0x038B is normal rate, for wind we need to be a bit slower
    if (val < min) val = min;  
    TCB1_CCMP = val;
    1004:	90 93 5d 0a 	sts	0x0A5D, r25	; 0x800a5d <__TEXT_REGION_LENGTH__+0x700a5d>
    1008:	df 91       	pop	r29
}
    100a:	cf 91       	pop	r28
    100c:	1f 91       	pop	r17
    100e:	0f 91       	pop	r16
    1010:	ff 90       	pop	r15
    1012:	ef 90       	pop	r14
    1014:	df 90       	pop	r13
    1016:	08 95       	ret

00001018 <floatAround>:
    1018:	0f 93       	push	r16

uint8_t floatAround(uint8_t sample, uint8_t bits, uint8_t min, uint8_t max){
    101a:	1f 93       	push	r17
    101c:	cf 93       	push	r28
    101e:	df 93       	push	r29
    1020:	c8 2f       	mov	r28, r24
    1022:	04 2f       	mov	r16, r20
    1024:	12 2f       	mov	r17, r18
    bits = mask[(bits-1)&0x07];
    1026:	e6 2f       	mov	r30, r22
    1028:	f0 e0       	ldi	r31, 0x00	; 0
    102a:	31 97       	sbiw	r30, 0x01	; 1
    102c:	e7 70       	andi	r30, 0x07	; 7
    102e:	ff 27       	eor	r31, r31
    1030:	e2 5e       	subi	r30, 0xE2	; 226
    1032:	f7 4c       	sbci	r31, 0xC7	; 199
    1034:	d0 81       	ld	r29, Z
    sample += lfsr()&bits;
    1036:	9f df       	rcall	.-194    	; 0xf76 <lfsr>
    1038:	8d 23       	and	r24, r29
    103a:	c8 0f       	add	r28, r24
    sample -= lfsr()&bits;
    103c:	9c df       	rcall	.-200    	; 0xf76 <lfsr>
    103e:	8d 23       	and	r24, r29
    1040:	c8 1b       	sub	r28, r24
    1042:	8c 2f       	mov	r24, r28
    1044:	11 23       	and	r17, r17
    if (max){
    1046:	41 f0       	breq	.+16     	; 0x1058 <floatAround+0x40>
    1048:	9c 2f       	mov	r25, r28
    104a:	1c 17       	cp	r17, r28
    104c:	08 f4       	brcc	.+2      	; 0x1050 <floatAround+0x38>
    104e:	91 2f       	mov	r25, r17
    1050:	80 2f       	mov	r24, r16
    1052:	09 17       	cp	r16, r25
    1054:	08 f4       	brcc	.+2      	; 0x1058 <floatAround+0x40>
    1056:	89 2f       	mov	r24, r25
    1058:	df 91       	pop	r29
        if (sample > max) sample = max;
        if (sample < min) sample = min;
    }
    return sample;
}
    105a:	cf 91       	pop	r28
    105c:	1f 91       	pop	r17
    105e:	0f 91       	pop	r16
    1060:	08 95       	ret

00001062 <SaveGameState>:
    1062:	cf 92       	push	r12
    inventory[0] = (gameState[INVADDR]<<8|gameState[INVADDR+1]);
    inventory[1] = (gameState[INVADDR+2]<<8|gameState[INVADDR+3]);
}

//Save changed data to EEPROM
uint8_t SaveGameState(){
    1064:	df 92       	push	r13
    1066:	ff 92       	push	r15
    1068:	0f 93       	push	r16
    106a:	1f 93       	push	r17
    106c:	cf 93       	push	r28
    106e:	df 93       	push	r29
    1070:	cd b7       	in	r28, 0x3d	; 61
    1072:	de b7       	in	r29, 0x3e	; 62
    1074:	64 97       	sbiw	r28, 0x14	; 20
    1076:	cd bf       	out	0x3d, r28	; 61
    1078:	de bf       	out	0x3e, r29	; 62
    uint8_t gameCheck[BOOTCHK];

    //Read all data up to the boot/check result address from EEPROM
    EERead(0, &gameCheck[0], BOOTCHK);
    107a:	44 e1       	ldi	r20, 0x14	; 20
    107c:	be 01       	movw	r22, r28
    107e:	6f 5f       	subi	r22, 0xFF	; 255
    1080:	7f 4f       	sbci	r23, 0xFF	; 255
    1082:	80 e0       	ldi	r24, 0x00	; 0
    1084:	c2 de       	rcall	.-636    	; 0xe0a <EERead>
    1086:	89 e3       	ldi	r24, 0x39	; 57
    1088:	c8 2e       	mov	r12, r24
    108a:	8a e3       	ldi	r24, 0x3A	; 58
    108c:	d8 2e       	mov	r13, r24
    108e:	8e 01       	movw	r16, r28
    1090:	0f 5f       	subi	r16, 0xFF	; 255
    1092:	1f 4f       	sbci	r17, 0xFF	; 255

    //Check game status bits
    for (uint8_t x=0; x<STATLEN; ++x){
    1094:	f1 2c       	mov	r15, r1
        if (gameState[x] != gameCheck[x]){
    1096:	f8 01       	movw	r30, r16
    1098:	81 91       	ld	r24, Z+
    109a:	8f 01       	movw	r16, r30
    109c:	f6 01       	movw	r30, r12
    109e:	90 81       	ld	r25, Z
    10a0:	98 13       	cpse	r25, r24
    10a2:	08 c0       	rjmp	.+16     	; 0x10b4 <SaveGameState+0x52>

    //Read all data up to the boot/check result address from EEPROM
    EERead(0, &gameCheck[0], BOOTCHK);

    //Check game status bits
    for (uint8_t x=0; x<STATLEN; ++x){
    10a4:	f3 94       	inc	r15
    10a6:	ff ef       	ldi	r31, 0xFF	; 255
    10a8:	cf 1a       	sub	r12, r31
    10aa:	df 0a       	sbc	r13, r31
    10ac:	80 e1       	ldi	r24, 0x10	; 16
    10ae:	f8 12       	cpse	r15, r24
    10b0:	f2 cf       	rjmp	.-28     	; 0x1096 <SaveGameState+0x34>
    10b2:	08 c0       	rjmp	.+16     	; 0x10c4 <SaveGameState+0x62>
        if (gameState[x] != gameCheck[x]){
            if (EEWrite(x, &gameState[x], 1)) return 1;
    10b4:	41 e0       	ldi	r20, 0x01	; 1
    10b6:	b6 01       	movw	r22, r12
    10b8:	8f 2d       	mov	r24, r15
    10ba:	b7 de       	rcall	.-658    	; 0xe2a <EEWrite>
    10bc:	88 23       	and	r24, r24
    10be:	91 f3       	breq	.-28     	; 0x10a4 <SaveGameState+0x42>
    10c0:	91 e0       	ldi	r25, 0x01	; 1
    10c2:	36 c0       	rjmp	.+108    	; 0x1130 <SaveGameState+0xce>
        }
    }

    //Check the inventory too
    gameState[INVADDR] = (uint8_t)(inventory[0]>>8);
    10c4:	20 91 31 38 	lds	r18, 0x3831	; 0x803831 <inventory>
    10c8:	30 91 32 38 	lds	r19, 0x3832	; 0x803832 <inventory+0x1>
    10cc:	30 93 49 3a 	sts	0x3A49, r19	; 0x803a49 <gameState+0x10>
    gameState[INVADDR+1] = (uint8_t)(inventory[0]&0xff);
    10d0:	20 93 4a 3a 	sts	0x3A4A, r18	; 0x803a4a <gameState+0x11>
    gameState[INVADDR+2] = (uint8_t)(inventory[1]>>8);
    10d4:	80 91 33 38 	lds	r24, 0x3833	; 0x803833 <inventory+0x2>
    10d8:	90 91 34 38 	lds	r25, 0x3834	; 0x803834 <inventory+0x3>
    10dc:	90 93 4b 3a 	sts	0x3A4B, r25	; 0x803a4b <gameState+0x12>
    gameState[INVADDR+3] = (uint8_t)(inventory[1]&0xff);
    10e0:	80 93 4c 3a 	sts	0x3A4C, r24	; 0x803a4c <gameState+0x13>
    if (inventory[0] != (gameCheck[INVADDR]<<8|gameCheck[INVADDR+1])) {
    10e4:	89 89       	ldd	r24, Y+17	; 0x11
    10e6:	9a 89       	ldd	r25, Y+18	; 0x12
    10e8:	98 27       	eor	r25, r24
    10ea:	89 27       	eor	r24, r25
    10ec:	98 27       	eor	r25, r24
    10ee:	28 17       	cp	r18, r24
    10f0:	39 07       	cpc	r19, r25
    10f2:	69 f4       	brne	.+26     	; 0x110e <SaveGameState+0xac>
        if (EEWrite(INVADDR, &gameState[INVADDR], 2)) return 1;
    }
    if (inventory[1] != (gameCheck[INVADDR+2]<<8|gameCheck[INVADDR+3])) {
    10f4:	8b 89       	ldd	r24, Y+19	; 0x13
    10f6:	9c 89       	ldd	r25, Y+20	; 0x14
    10f8:	98 27       	eor	r25, r24
    10fa:	89 27       	eor	r24, r25
    10fc:	98 27       	eor	r25, r24
    10fe:	20 91 33 38 	lds	r18, 0x3833	; 0x803833 <inventory+0x2>
    1102:	30 91 34 38 	lds	r19, 0x3834	; 0x803834 <inventory+0x3>
    1106:	28 17       	cp	r18, r24
    1108:	39 07       	cpc	r19, r25
    110a:	49 f4       	brne	.+18     	; 0x111e <SaveGameState+0xbc>
    110c:	10 c0       	rjmp	.+32     	; 0x112e <SaveGameState+0xcc>
    gameState[INVADDR] = (uint8_t)(inventory[0]>>8);
    gameState[INVADDR+1] = (uint8_t)(inventory[0]&0xff);
    gameState[INVADDR+2] = (uint8_t)(inventory[1]>>8);
    gameState[INVADDR+3] = (uint8_t)(inventory[1]&0xff);
    if (inventory[0] != (gameCheck[INVADDR]<<8|gameCheck[INVADDR+1])) {
        if (EEWrite(INVADDR, &gameState[INVADDR], 2)) return 1;
    110e:	42 e0       	ldi	r20, 0x02	; 2
    1110:	69 e4       	ldi	r22, 0x49	; 73
    1112:	7a e3       	ldi	r23, 0x3A	; 58
    1114:	80 e1       	ldi	r24, 0x10	; 16
    1116:	89 de       	rcall	.-750    	; 0xe2a <EEWrite>
    1118:	88 23       	and	r24, r24
    111a:	61 f3       	breq	.-40     	; 0x10f4 <SaveGameState+0x92>
    111c:	d1 cf       	rjmp	.-94     	; 0x10c0 <SaveGameState+0x5e>
    }
    if (inventory[1] != (gameCheck[INVADDR+2]<<8|gameCheck[INVADDR+3])) {
        if (EEWrite(INVADDR+2, &gameState[INVADDR+2], 2)) return 1;
    111e:	42 e0       	ldi	r20, 0x02	; 2
    1120:	6b e4       	ldi	r22, 0x4B	; 75
    1122:	7a e3       	ldi	r23, 0x3A	; 58
    1124:	82 e1       	ldi	r24, 0x12	; 18
    1126:	81 de       	rcall	.-766    	; 0xe2a <EEWrite>
    EERead(0, &gameCheck[0], BOOTCHK);

    //Check game status bits
    for (uint8_t x=0; x<STATLEN; ++x){
        if (gameState[x] != gameCheck[x]){
            if (EEWrite(x, &gameState[x], 1)) return 1;
    1128:	91 e0       	ldi	r25, 0x01	; 1
    112a:	81 11       	cpse	r24, r1
    112c:	01 c0       	rjmp	.+2      	; 0x1130 <SaveGameState+0xce>
    112e:	90 e0       	ldi	r25, 0x00	; 0
    if (inventory[1] != (gameCheck[INVADDR+2]<<8|gameCheck[INVADDR+3])) {
        if (EEWrite(INVADDR+2, &gameState[INVADDR+2], 2)) return 1;
    }

    return 0;
}
    1130:	89 2f       	mov	r24, r25
    1132:	64 96       	adiw	r28, 0x14	; 20
    1134:	cd bf       	out	0x3d, r28	; 61
    1136:	de bf       	out	0x3e, r29	; 62
    1138:	df 91       	pop	r29
    113a:	cf 91       	pop	r28
    113c:	1f 91       	pop	r17
    113e:	0f 91       	pop	r16
    1140:	ff 90       	pop	r15
    1142:	df 90       	pop	r13
    1144:	cf 90       	pop	r12
    1146:	08 95       	ret

00001148 <ReadStatusBit>:

uint8_t ReadStatusBit(uint8_t number){
    number &= 0x7f;
    if (gameState[number>>3] & (1<<(number&7))) return 1; else return 0;
    1148:	e8 2f       	mov	r30, r24
    114a:	ef 77       	andi	r30, 0x7F	; 127
    114c:	e6 95       	lsr	r30
    114e:	e6 95       	lsr	r30
    1150:	e6 95       	lsr	r30
    1152:	f0 e0       	ldi	r31, 0x00	; 0
    1154:	e7 5c       	subi	r30, 0xC7	; 199
    1156:	f5 4c       	sbci	r31, 0xC5	; 197
    1158:	20 81       	ld	r18, Z
    115a:	30 e0       	ldi	r19, 0x00	; 0
    115c:	87 70       	andi	r24, 0x07	; 7
    115e:	a9 01       	movw	r20, r18
    1160:	02 c0       	rjmp	.+4      	; 0x1166 <ReadStatusBit+0x1e>
    1162:	55 95       	asr	r21
    1164:	47 95       	ror	r20
    1166:	8a 95       	dec	r24
    1168:	e2 f7       	brpl	.-8      	; 0x1162 <ReadStatusBit+0x1a>
    116a:	ca 01       	movw	r24, r20
}
    116c:	81 70       	andi	r24, 0x01	; 1
    116e:	08 95       	ret

00001170 <WriteStatusBit>:

void WriteStatusBit(uint8_t number, uint8_t state){
    number &= 0x7f;
    1170:	e8 2f       	mov	r30, r24
    1172:	ef 77       	andi	r30, 0x7F	; 127
    1174:	e6 95       	lsr	r30
    1176:	e6 95       	lsr	r30
    1178:	e6 95       	lsr	r30
    117a:	28 2f       	mov	r18, r24
    117c:	27 70       	andi	r18, 0x07	; 7
    if (state) gameState[number>>3] |= 1<<(number&7);
    117e:	f0 e0       	ldi	r31, 0x00	; 0
    1180:	e7 5c       	subi	r30, 0xC7	; 199
    1182:	f5 4c       	sbci	r31, 0xC5	; 197
    1184:	81 e0       	ldi	r24, 0x01	; 1
    1186:	90 e0       	ldi	r25, 0x00	; 0
    1188:	01 c0       	rjmp	.+2      	; 0x118c <WriteStatusBit+0x1c>
    118a:	88 0f       	add	r24, r24
    118c:	2a 95       	dec	r18
    118e:	ea f7       	brpl	.-6      	; 0x118a <WriteStatusBit+0x1a>
    1190:	66 23       	and	r22, r22
    1192:	19 f0       	breq	.+6      	; 0x119a <WriteStatusBit+0x2a>
    1194:	90 81       	ld	r25, Z
    1196:	89 2b       	or	r24, r25
    1198:	03 c0       	rjmp	.+6      	; 0x11a0 <WriteStatusBit+0x30>
    else gameState[number>>3] &= ~(1<<(number&7));
    119a:	80 95       	com	r24
    119c:	90 81       	ld	r25, Z
    119e:	89 23       	and	r24, r25
    11a0:	80 83       	st	Z, r24
    11a2:	08 95       	ret

000011a4 <UpdateState>:
}

//Update game state: num -> vBBBBbbb v=value(0 is set!), BBBB=Byte number, bbb=bit number
void UpdateState(uint8_t num){
    11a4:	98 2f       	mov	r25, r24
    uint8_t clearBit = num & 0x80;
    num &= 0x7f;
    11a6:	8f 77       	andi	r24, 0x7F	; 127
    if (num) {
    11a8:	31 f0       	breq	.+12     	; 0x11b6 <UpdateState+0x12>
        if (clearBit) {
    11aa:	97 ff       	sbrs	r25, 7
    11ac:	02 c0       	rjmp	.+4      	; 0x11b2 <UpdateState+0xe>
            WriteStatusBit(num, 0);
    11ae:	60 e0       	ldi	r22, 0x00	; 0
    11b0:	01 c0       	rjmp	.+2      	; 0x11b4 <UpdateState+0x10>
        } else {
            WriteStatusBit(num, 1);
    11b2:	61 e0       	ldi	r22, 0x01	; 1
    11b4:	dd cf       	rjmp	.-70     	; 0x1170 <WriteStatusBit>
    11b6:	08 95       	ret

000011b8 <CheckState>:
        }
    }
}

//Checks if state of bit BBBBbbb matches with v (inverted) bit
uint8_t CheckState(uint8_t num){
    11b8:	cf 93       	push	r28
    11ba:	c8 2f       	mov	r28, r24
    uint8_t bitSet = 0;
    if (ReadStatusBit(num & 0x7f)){
    11bc:	8f 77       	andi	r24, 0x7F	; 127
    11be:	c4 df       	rcall	.-120    	; 0x1148 <ReadStatusBit>
    11c0:	2c 2f       	mov	r18, r28
    11c2:	22 1f       	adc	r18, r18
    11c4:	22 27       	eor	r18, r18
    11c6:	22 1f       	adc	r18, r18
    11c8:	91 e0       	ldi	r25, 0x01	; 1
    11ca:	81 11       	cpse	r24, r1
    11cc:	01 c0       	rjmp	.+2      	; 0x11d0 <CheckState+0x18>
    11ce:	90 e0       	ldi	r25, 0x00	; 0
    }
    if (((num & 0x80)>0)^(bitSet>0)){
        return 1;
    }
    return 0;
}
    11d0:	82 2f       	mov	r24, r18
    11d2:	89 27       	eor	r24, r25
    11d4:	cf 91       	pop	r28
    11d6:	08 95       	ret

000011d8 <getID>:

//Give out a number 0..3, calculated using serial number fields
uint8_t getID(){
    uint8_t id = 0;
    uint8_t *serNum;
    serNum = (uint8_t*)&SIGROW_SERNUM0;
    11d8:	e3 e0       	ldi	r30, 0x03	; 3
    11da:	f1 e1       	ldi	r31, 0x11	; 17
    return 0;
}

//Give out a number 0..3, calculated using serial number fields
uint8_t getID(){
    uint8_t id = 0;
    11dc:	80 e0       	ldi	r24, 0x00	; 0
    uint8_t *serNum;
    serNum = (uint8_t*)&SIGROW_SERNUM0;

    for (uint8_t x=0; x<10; ++x){
        id += *serNum;
    11de:	91 91       	ld	r25, Z+
    11e0:	89 0f       	add	r24, r25
uint8_t getID(){
    uint8_t id = 0;
    uint8_t *serNum;
    serNum = (uint8_t*)&SIGROW_SERNUM0;

    for (uint8_t x=0; x<10; ++x){
    11e2:	ed 30       	cpi	r30, 0x0D	; 13
    11e4:	91 e1       	ldi	r25, 0x11	; 17
    11e6:	f9 07       	cpc	r31, r25
    11e8:	d1 f7       	brne	.-12     	; 0x11de <getID+0x6>
        id += *serNum;
        ++serNum;
    }
    id %= 4;
    whoami = id+1;
    11ea:	83 70       	andi	r24, 0x03	; 3
    11ec:	8f 5f       	subi	r24, 0xFF	; 255
    11ee:	80 93 30 38 	sts	0x3830, r24	; 0x803830 <whoami>
    return whoami;
}
    11f2:	08 95       	ret

000011f4 <Reset>:

void Reset(){
    11f4:	e9 e3       	ldi	r30, 0x39	; 57
    11f6:	fa e3       	ldi	r31, 0x3A	; 58
    //# 110   set to 1 by FW if badge UUID mod 4 == 0
    //# 111   set to 1 by FW if badge UUID mod 4 == 1
    //# 112   set to 1 by FW if badge UUID mod 4 == 2
    //# 113   set to 1 by FW if badge UUID mod 4 == 3
    for (uint8_t x=0; x<sizeof(gameState); ++x){
        gameState[x] = 0;
    11f8:	11 92       	st	Z+, r1
    //Reset game progress (all zeroes) and load some bits:
    //# 110   set to 1 by FW if badge UUID mod 4 == 0
    //# 111   set to 1 by FW if badge UUID mod 4 == 1
    //# 112   set to 1 by FW if badge UUID mod 4 == 2
    //# 113   set to 1 by FW if badge UUID mod 4 == 3
    for (uint8_t x=0; x<sizeof(gameState); ++x){
    11fa:	8a e3       	ldi	r24, 0x3A	; 58
    11fc:	ed 34       	cpi	r30, 0x4D	; 77
    11fe:	f8 07       	cpc	r31, r24
    1200:	d9 f7       	brne	.-10     	; 0x11f8 <Reset+0x4>
        gameState[x] = 0;
    }

    uint8_t id = getID();
    1202:	ea df       	rcall	.-44     	; 0x11d8 <getID>

    //Write bit in gameState location 110..113
    if (id == 0) WriteStatusBit(110, 1);
    1204:	81 11       	cpse	r24, r1
    1206:	04 c0       	rjmp	.+8      	; 0x1210 <Reset+0x1c>
    if (gameState[number>>3] & (1<<(number&7))) return 1; else return 0;
}

void WriteStatusBit(uint8_t number, uint8_t state){
    number &= 0x7f;
    if (state) gameState[number>>3] |= 1<<(number&7);
    1208:	80 91 46 3a 	lds	r24, 0x3A46	; 0x803a46 <gameState+0xd>
    120c:	80 64       	ori	r24, 0x40	; 64
    120e:	05 c0       	rjmp	.+10     	; 0x121a <Reset+0x26>

    uint8_t id = getID();

    //Write bit in gameState location 110..113
    if (id == 0) WriteStatusBit(110, 1);
    else if (id == 1) WriteStatusBit(111, 1);
    1210:	81 30       	cpi	r24, 0x01	; 1
    1212:	31 f4       	brne	.+12     	; 0x1220 <Reset+0x2c>
    if (gameState[number>>3] & (1<<(number&7))) return 1; else return 0;
}

void WriteStatusBit(uint8_t number, uint8_t state){
    number &= 0x7f;
    if (state) gameState[number>>3] |= 1<<(number&7);
    1214:	80 91 46 3a 	lds	r24, 0x3A46	; 0x803a46 <gameState+0xd>
    1218:	80 68       	ori	r24, 0x80	; 128
    121a:	80 93 46 3a 	sts	0x3A46, r24	; 0x803a46 <gameState+0xd>
    121e:	0d c0       	rjmp	.+26     	; 0x123a <Reset+0x46>
    uint8_t id = getID();

    //Write bit in gameState location 110..113
    if (id == 0) WriteStatusBit(110, 1);
    else if (id == 1) WriteStatusBit(111, 1);
    else if (id == 2) WriteStatusBit(112, 1);
    1220:	82 30       	cpi	r24, 0x02	; 2
    1222:	21 f4       	brne	.+8      	; 0x122c <Reset+0x38>
    if (gameState[number>>3] & (1<<(number&7))) return 1; else return 0;
}

void WriteStatusBit(uint8_t number, uint8_t state){
    number &= 0x7f;
    if (state) gameState[number>>3] |= 1<<(number&7);
    1224:	80 91 47 3a 	lds	r24, 0x3A47	; 0x803a47 <gameState+0xe>
    1228:	81 60       	ori	r24, 0x01	; 1
    122a:	05 c0       	rjmp	.+10     	; 0x1236 <Reset+0x42>

    //Write bit in gameState location 110..113
    if (id == 0) WriteStatusBit(110, 1);
    else if (id == 1) WriteStatusBit(111, 1);
    else if (id == 2) WriteStatusBit(112, 1);
    else if (id == 3) WriteStatusBit(113, 1);
    122c:	83 30       	cpi	r24, 0x03	; 3
    122e:	29 f4       	brne	.+10     	; 0x123a <Reset+0x46>
    if (gameState[number>>3] & (1<<(number&7))) return 1; else return 0;
}

void WriteStatusBit(uint8_t number, uint8_t state){
    number &= 0x7f;
    if (state) gameState[number>>3] |= 1<<(number&7);
    1230:	80 91 47 3a 	lds	r24, 0x3A47	; 0x803a47 <gameState+0xe>
    1234:	82 60       	ori	r24, 0x02	; 2
    1236:	80 93 47 3a 	sts	0x3A47, r24	; 0x803a47 <gameState+0xe>
    123a:	80 91 39 3a 	lds	r24, 0x3A39	; 0x803a39 <gameState>
    123e:	81 60       	ori	r24, 0x01	; 1
    1240:	80 93 39 3a 	sts	0x3A39, r24	; 0x803a39 <gameState>
    1244:	08 95       	ret

00001246 <LoadGameState>:
    }
    return sample;
}

//Load game status
void LoadGameState(){
    1246:	cf 93       	push	r28
    1248:	df 93       	push	r29
    EERead(0, &gameState[0], BOOTCHK);   //Load game status bits from EEPROM
    124a:	44 e1       	ldi	r20, 0x14	; 20
    124c:	69 e3       	ldi	r22, 0x39	; 57
    124e:	7a e3       	ldi	r23, 0x3A	; 58
    1250:	80 e0       	ldi	r24, 0x00	; 0
    1252:	db dd       	rcall	.-1098   	; 0xe0a <EERead>
    1254:	ce e6       	ldi	r28, 0x6E	; 110

    uint8_t idSet = 0;
    1256:	d0 e0       	ldi	r29, 0x00	; 0
    for (uint8_t x=0; x<4; ++x){
        idSet += ReadStatusBit(110+x);
    1258:	8c 2f       	mov	r24, r28
    125a:	76 df       	rcall	.-276    	; 0x1148 <ReadStatusBit>
    125c:	d8 0f       	add	r29, r24
    125e:	cf 5f       	subi	r28, 0xFF	; 255
//Load game status
void LoadGameState(){
    EERead(0, &gameState[0], BOOTCHK);   //Load game status bits from EEPROM

    uint8_t idSet = 0;
    for (uint8_t x=0; x<4; ++x){
    1260:	c2 37       	cpi	r28, 0x72	; 114
    1262:	d1 f7       	brne	.-12     	; 0x1258 <LoadGameState+0x12>
        idSet += ReadStatusBit(110+x);
    }

    //Check if badge is reset(0 = cheated!) or new(3) or error(2)
    if (idSet != 1) {
    1264:	d1 30       	cpi	r29, 0x01	; 1
        Reset();
    1266:	11 f0       	breq	.+4      	; 0x126c <LoadGameState+0x26>
    1268:	c5 df       	rcall	.-118    	; 0x11f4 <Reset>
    } else getID();
    126a:	01 c0       	rjmp	.+2      	; 0x126e <LoadGameState+0x28>
    126c:	b5 df       	rcall	.-150    	; 0x11d8 <getID>

    inventory[0] = (gameState[INVADDR]<<8|gameState[INVADDR+1]);
    126e:	80 91 49 3a 	lds	r24, 0x3A49	; 0x803a49 <gameState+0x10>
    1272:	90 91 4a 3a 	lds	r25, 0x3A4A	; 0x803a4a <gameState+0x11>
    1276:	98 27       	eor	r25, r24
    1278:	89 27       	eor	r24, r25
    127a:	98 27       	eor	r25, r24
    127c:	80 93 31 38 	sts	0x3831, r24	; 0x803831 <inventory>
    1280:	90 93 32 38 	sts	0x3832, r25	; 0x803832 <inventory+0x1>
    inventory[1] = (gameState[INVADDR+2]<<8|gameState[INVADDR+3]);
    1284:	80 91 4b 3a 	lds	r24, 0x3A4B	; 0x803a4b <gameState+0x12>
    1288:	90 91 4c 3a 	lds	r25, 0x3A4C	; 0x803a4c <gameState+0x13>
    128c:	98 27       	eor	r25, r24
    128e:	89 27       	eor	r24, r25
    1290:	98 27       	eor	r25, r24
    1292:	80 93 33 38 	sts	0x3833, r24	; 0x803833 <inventory+0x2>
    1296:	90 93 34 38 	sts	0x3834, r25	; 0x803834 <inventory+0x3>
}
    129a:	df 91       	pop	r29
    129c:	cf 91       	pop	r28
    129e:	08 95       	ret

000012a0 <HotSummer>:
    //Write bit 0, must always be 1!
    WriteStatusBit(0, 1);
}

//Sets specific game bits after the badge is heated for one and two times.
uint8_t HotSummer(){
    12a0:	cf 93       	push	r28
    static uint8_t cooledDown = 0;

    if (CheckState(SUMMERS_COMPLETED)){
    12a2:	86 e7       	ldi	r24, 0x76	; 118
    12a4:	89 df       	rcall	.-238    	; 0x11b8 <CheckState>
    12a6:	c8 2f       	mov	r28, r24
    12a8:	88 23       	and	r24, r24
    12aa:	81 f0       	breq	.+32     	; 0x12cc <HotSummer+0x2c>
        iLED[SCARAB[G]] = 0;
    12ac:	e0 91 25 b4 	lds	r30, 0xB425	; 0x80b425 <__bss_end+0x791b>
    12b0:	f0 e0       	ldi	r31, 0x00	; 0
    12b2:	e6 54       	subi	r30, 0x46	; 70
    12b4:	f5 4c       	sbci	r31, 0xC5	; 197
    12b6:	10 82       	st	Z, r1
        iLED[SCARAB[R]] = dimValue;
    12b8:	e0 91 24 b4 	lds	r30, 0xB424	; 0x80b424 <__bss_end+0x791a>
    12bc:	f0 e0       	ldi	r31, 0x00	; 0
    12be:	80 91 09 38 	lds	r24, 0x3809	; 0x803809 <dimValue>
    12c2:	e6 54       	subi	r30, 0x46	; 70
    12c4:	f5 4c       	sbci	r31, 0xC5	; 197
    12c6:	80 83       	st	Z, r24
        return 1;
    12c8:	c1 e0       	ldi	r28, 0x01	; 1
    12ca:	4c c0       	rjmp	.+152    	; 0x1364 <HotSummer+0xc4>
    }

    if (CheckState(FIRST_SUMMER)) {
    12cc:	85 e7       	ldi	r24, 0x75	; 117
    12ce:	74 df       	rcall	.-280    	; 0x11b8 <CheckState>
    12d0:	88 23       	and	r24, r24
    12d2:	59 f1       	breq	.+86     	; 0x132a <HotSummer+0x8a>
        iLED[SCARAB[G]] = dimValue;
    12d4:	e0 91 25 b4 	lds	r30, 0xB425	; 0x80b425 <__bss_end+0x791b>
    12d8:	f0 e0       	ldi	r31, 0x00	; 0
    12da:	80 91 09 38 	lds	r24, 0x3809	; 0x803809 <dimValue>
    12de:	e6 54       	subi	r30, 0x46	; 70
    12e0:	f5 4c       	sbci	r31, 0xC5	; 197
    12e2:	80 83       	st	Z, r24
        if ((cooledDown) && (adcTemp >= (calTemp + 8))) {
    12e4:	80 91 47 38 	lds	r24, 0x3847	; 0x803847 <cooledDown.3937>
    12e8:	88 23       	and	r24, r24
    12ea:	79 f0       	breq	.+30     	; 0x130a <HotSummer+0x6a>
    12ec:	80 91 98 3a 	lds	r24, 0x3A98	; 0x803a98 <calTemp>
    12f0:	90 91 99 3a 	lds	r25, 0x3A99	; 0x803a99 <calTemp+0x1>
    12f4:	20 91 e5 3a 	lds	r18, 0x3AE5	; 0x803ae5 <adcTemp>
    12f8:	30 91 e6 3a 	lds	r19, 0x3AE6	; 0x803ae6 <adcTemp+0x1>
    12fc:	08 96       	adiw	r24, 0x08	; 8
    12fe:	28 17       	cp	r18, r24
    1300:	39 07       	cpc	r19, r25
            UpdateState(SUMMERS_COMPLETED);
    1302:	18 f0       	brcs	.+6      	; 0x130a <HotSummer+0x6a>
    1304:	86 e7       	ldi	r24, 0x76	; 118
    1306:	4e df       	rcall	.-356    	; 0x11a4 <UpdateState>
            return 0;
    1308:	2d c0       	rjmp	.+90     	; 0x1364 <HotSummer+0xc4>
        }
        if (adcTemp <= (calTemp + 2)) cooledDown = 1;
    130a:	80 91 98 3a 	lds	r24, 0x3A98	; 0x803a98 <calTemp>
    130e:	90 91 99 3a 	lds	r25, 0x3A99	; 0x803a99 <calTemp+0x1>
    1312:	20 91 e5 3a 	lds	r18, 0x3AE5	; 0x803ae5 <adcTemp>
    1316:	30 91 e6 3a 	lds	r19, 0x3AE6	; 0x803ae6 <adcTemp+0x1>
    131a:	02 96       	adiw	r24, 0x02	; 2
    131c:	82 17       	cp	r24, r18
    131e:	93 07       	cpc	r25, r19
    1320:	08 f1       	brcs	.+66     	; 0x1364 <HotSummer+0xc4>
    1322:	81 e0       	ldi	r24, 0x01	; 1
    1324:	80 93 47 38 	sts	0x3847, r24	; 0x803847 <cooledDown.3937>
    1328:	1d c0       	rjmp	.+58     	; 0x1364 <HotSummer+0xc4>
                   
    } else {
        if (calTemp == 0) calTemp = adcTemp;
    132a:	80 91 98 3a 	lds	r24, 0x3A98	; 0x803a98 <calTemp>
    132e:	90 91 99 3a 	lds	r25, 0x3A99	; 0x803a99 <calTemp+0x1>
    1332:	89 2b       	or	r24, r25
    1334:	41 f4       	brne	.+16     	; 0x1346 <HotSummer+0xa6>
    1336:	80 91 e5 3a 	lds	r24, 0x3AE5	; 0x803ae5 <adcTemp>
    133a:	90 91 e6 3a 	lds	r25, 0x3AE6	; 0x803ae6 <adcTemp+0x1>
    133e:	80 93 98 3a 	sts	0x3A98, r24	; 0x803a98 <calTemp>
    1342:	90 93 99 3a 	sts	0x3A99, r25	; 0x803a99 <calTemp+0x1>
        if (adcTemp >= (calTemp + 8)) {
    1346:	80 91 98 3a 	lds	r24, 0x3A98	; 0x803a98 <calTemp>
    134a:	90 91 99 3a 	lds	r25, 0x3A99	; 0x803a99 <calTemp+0x1>
    134e:	20 91 e5 3a 	lds	r18, 0x3AE5	; 0x803ae5 <adcTemp>
    1352:	30 91 e6 3a 	lds	r19, 0x3AE6	; 0x803ae6 <adcTemp+0x1>
    1356:	08 96       	adiw	r24, 0x08	; 8
    1358:	28 17       	cp	r18, r24
    135a:	39 07       	cpc	r19, r25
            UpdateState(FIRST_SUMMER);
    135c:	18 f0       	brcs	.+6      	; 0x1364 <HotSummer+0xc4>
    135e:	85 e7       	ldi	r24, 0x75	; 117
    1360:	21 df       	rcall	.-446    	; 0x11a4 <UpdateState>
        }
    }
    return 0;
    1362:	c0 e0       	ldi	r28, 0x00	; 0
}
    1364:	8c 2f       	mov	r24, r28
    1366:	cf 91       	pop	r28
    1368:	08 95       	ret

0000136a <GenerateAudio>:

uint8_t GenerateAudio(){
    136a:	0f 93       	push	r16
    136c:	1f 93       	push	r17
    136e:	cf 93       	push	r28
    1370:	df 93       	push	r29

    //auRepAddr = &auBuffer[0];

    //Audio for text adventure
    if ((effect&0xff00)==0) {
    1372:	80 91 2d 38 	lds	r24, 0x382D	; 0x80382d <effect>
    1376:	90 91 2e 38 	lds	r25, 0x382E	; 0x80382e <effect+0x1>
    137a:	88 27       	eor	r24, r24
    137c:	89 2b       	or	r24, r25
    137e:	09 f0       	breq	.+2      	; 0x1382 <GenerateAudio+0x18>
    1380:	af c0       	rjmp	.+350    	; 0x14e0 <GenerateAudio+0x176>

        //Silence
        if ((effect&0xE0)==0){
    1382:	80 91 2d 38 	lds	r24, 0x382D	; 0x80382d <effect>
    1386:	90 91 2e 38 	lds	r25, 0x382E	; 0x80382e <effect+0x1>
    138a:	80 7e       	andi	r24, 0xE0	; 224
    138c:	99 27       	eor	r25, r25
    138e:	89 2b       	or	r24, r25
    1390:	31 f4       	brne	.+12     	; 0x139e <GenerateAudio+0x34>
            auRepAddr = &zero;
    1392:	8b e2       	ldi	r24, 0x2B	; 43
    1394:	98 e3       	ldi	r25, 0x38	; 56
    1396:	80 93 03 38 	sts	0x3803, r24	; 0x803803 <auRepAddr>
    139a:	90 93 04 38 	sts	0x3804, r25	; 0x803804 <auRepAddr+0x1>
        }

        //Bad (buzzer)
        if ((effect&0xE0)==32){
    139e:	80 91 2d 38 	lds	r24, 0x382D	; 0x80382d <effect>
    13a2:	90 91 2e 38 	lds	r25, 0x382E	; 0x80382e <effect+0x1>
    13a6:	80 7e       	andi	r24, 0xE0	; 224
    13a8:	99 27       	eor	r25, r25
    13aa:	80 97       	sbiw	r24, 0x20	; 32
    13ac:	09 f0       	breq	.+2      	; 0x13b0 <GenerateAudio+0x46>
    13ae:	45 c0       	rjmp	.+138    	; 0x143a <GenerateAudio+0xd0>
            static uint8_t auBuffer[17] = {1, 255, 128, 128, 192, 255, 192, 255, 192, 128, 64, 1, 64, 1, 64, 128, 0}; 
            static uint8_t loudness, duration, start;

            if (buttonMark) {
    13b0:	80 91 35 38 	lds	r24, 0x3835	; 0x803835 <buttonMark>
    13b4:	88 23       	and	r24, r24
    13b6:	09 f4       	brne	.+2      	; 0x13ba <GenerateAudio+0x50>
    13b8:	40 c0       	rjmp	.+128    	; 0x143a <GenerateAudio+0xd0>
                if (start == 0) {
    13ba:	80 91 46 38 	lds	r24, 0x3846	; 0x803846 <start.3943>
    13be:	81 11       	cpse	r24, r1
    13c0:	15 c0       	rjmp	.+42     	; 0x13ec <GenerateAudio+0x82>
                    duration = 8;
    13c2:	88 e0       	ldi	r24, 0x08	; 8
    13c4:	80 93 45 38 	sts	0x3845, r24	; 0x803845 <duration.3942>
                    loudness = 0xff;
    13c8:	8f ef       	ldi	r24, 0xFF	; 255
    13ca:	80 93 44 38 	sts	0x3844, r24	; 0x803844 <loudness.3941>
                    TCB1_CCMP = 0x2000;
    13ce:	80 e0       	ldi	r24, 0x00	; 0
    13d0:	90 e2       	ldi	r25, 0x20	; 32
    13d2:	80 93 5c 0a 	sts	0x0A5C, r24	; 0x800a5c <__TEXT_REGION_LENGTH__+0x700a5c>
    13d6:	90 93 5d 0a 	sts	0x0A5D, r25	; 0x800a5d <__TEXT_REGION_LENGTH__+0x700a5d>
                    auRepAddr = &auBuffer[0];
    13da:	8b e0       	ldi	r24, 0x0B	; 11
    13dc:	98 e3       	ldi	r25, 0x38	; 56
    13de:	80 93 03 38 	sts	0x3803, r24	; 0x803803 <auRepAddr>
    13e2:	90 93 04 38 	sts	0x3804, r25	; 0x803804 <auRepAddr+0x1>
                    start = 1;
    13e6:	81 e0       	ldi	r24, 0x01	; 1
    13e8:	80 93 46 38 	sts	0x3846, r24	; 0x803846 <start.3943>
                }

                if (loudness) {
    13ec:	80 91 44 38 	lds	r24, 0x3844	; 0x803844 <loudness.3941>
    13f0:	88 23       	and	r24, r24
    13f2:	71 f0       	breq	.+28     	; 0x1410 <GenerateAudio+0xa6>
                    auVolume = loudness;
    13f4:	80 93 8e 3a 	sts	0x3A8E, r24	; 0x803a8e <auVolume>
                    if (duration) duration--; else loudness <<= 1;
    13f8:	90 91 45 38 	lds	r25, 0x3845	; 0x803845 <duration.3942>
    13fc:	99 23       	and	r25, r25
    13fe:	21 f0       	breq	.+8      	; 0x1408 <GenerateAudio+0x9e>
    1400:	91 50       	subi	r25, 0x01	; 1
    1402:	90 93 45 38 	sts	0x3845, r25	; 0x803845 <duration.3942>
    1406:	19 c0       	rjmp	.+50     	; 0x143a <GenerateAudio+0xd0>
    1408:	88 0f       	add	r24, r24
    140a:	80 93 44 38 	sts	0x3844, r24	; 0x803844 <loudness.3941>
    140e:	15 c0       	rjmp	.+42     	; 0x143a <GenerateAudio+0xd0>
                } else {
                    auRepAddr = &zero;
    1410:	8b e2       	ldi	r24, 0x2B	; 43
    1412:	98 e3       	ldi	r25, 0x38	; 56
    1414:	80 93 03 38 	sts	0x3803, r24	; 0x803803 <auRepAddr>
    1418:	90 93 04 38 	sts	0x3804, r25	; 0x803804 <auRepAddr+0x1>
                    effect &= 0x10;
    141c:	80 91 2d 38 	lds	r24, 0x382D	; 0x80382d <effect>
    1420:	90 91 2e 38 	lds	r25, 0x382E	; 0x80382e <effect+0x1>
    1424:	80 71       	andi	r24, 0x10	; 16
    1426:	99 27       	eor	r25, r25
    1428:	80 93 2d 38 	sts	0x382D, r24	; 0x80382d <effect>
    142c:	90 93 2e 38 	sts	0x382E, r25	; 0x80382e <effect+0x1>
                    auVolume = 255;
    1430:	8f ef       	ldi	r24, 0xFF	; 255
    1432:	80 93 8e 3a 	sts	0x3A8E, r24	; 0x803a8e <auVolume>
                    start = 0;
    1436:	10 92 46 38 	sts	0x3846, r1	; 0x803846 <start.3943>
                }
            }
        }

        //Good (bell)
        if ((effect&0xE0)==64){
    143a:	80 91 2d 38 	lds	r24, 0x382D	; 0x80382d <effect>
    143e:	90 91 2e 38 	lds	r25, 0x382E	; 0x80382e <effect+0x1>
            //auBuffer = 
        }

        //Rain storm with whistling wind
        if ((effect&0xE0)==96){
    1442:	80 91 2d 38 	lds	r24, 0x382D	; 0x80382d <effect>
    1446:	90 91 2e 38 	lds	r25, 0x382E	; 0x80382e <effect+0x1>
    144a:	80 7e       	andi	r24, 0xE0	; 224
    144c:	99 27       	eor	r25, r25
    144e:	80 36       	cpi	r24, 0x60	; 96
    1450:	91 05       	cpc	r25, r1
    1452:	d1 f5       	brne	.+116    	; 0x14c8 <GenerateAudio+0x15e>
            static uint8_t auBuffer[7];
            auBuffer[6]= 0;        
    1454:	10 92 43 38 	sts	0x3843, r1	; 0x803843 <auBuffer.3944+0x6>
            auRepAddr = &auBuffer[0];
    1458:	8d e3       	ldi	r24, 0x3D	; 61
    145a:	98 e3       	ldi	r25, 0x38	; 56
    145c:	80 93 03 38 	sts	0x3803, r24	; 0x803803 <auRepAddr>
    1460:	90 93 04 38 	sts	0x3804, r25	; 0x803804 <auRepAddr+0x1>
    1464:	8c 01       	movw	r16, r24

            //Noise is to be generated fast, outside of buttonMark loop
            for (uint8_t x=1; x<6; ++x){
    1466:	c1 e0       	ldi	r28, 0x01	; 1
                if (x%3) auBuffer[x] = floatAround(0x80, 5, 0x01, 0x00);
    1468:	d3 e0       	ldi	r29, 0x03	; 3
    146a:	8c 2f       	mov	r24, r28
    146c:	6d 2f       	mov	r22, r29
    146e:	0e 94 b9 19 	call	0x3372	; 0x3372 <__udivmodqi4>
    1472:	99 23       	and	r25, r25
    1474:	39 f0       	breq	.+14     	; 0x1484 <GenerateAudio+0x11a>
    1476:	20 e0       	ldi	r18, 0x00	; 0
    1478:	41 e0       	ldi	r20, 0x01	; 1
    147a:	65 e0       	ldi	r22, 0x05	; 5
    147c:	80 e8       	ldi	r24, 0x80	; 128
    147e:	cc dd       	rcall	.-1128   	; 0x1018 <floatAround>
    1480:	f8 01       	movw	r30, r16
    1482:	81 83       	std	Z+1, r24	; 0x01
            static uint8_t auBuffer[7];
            auBuffer[6]= 0;        
            auRepAddr = &auBuffer[0];

            //Noise is to be generated fast, outside of buttonMark loop
            for (uint8_t x=1; x<6; ++x){
    1484:	cf 5f       	subi	r28, 0xFF	; 255
    1486:	0f 5f       	subi	r16, 0xFF	; 255
    1488:	1f 4f       	sbci	r17, 0xFF	; 255
    148a:	c6 30       	cpi	r28, 0x06	; 6
    148c:	71 f7       	brne	.-36     	; 0x146a <GenerateAudio+0x100>
                if (x%3) auBuffer[x] = floatAround(0x80, 5, 0x01, 0x00);
            }

            if (buttonMark){
    148e:	80 91 35 38 	lds	r24, 0x3835	; 0x803835 <buttonMark>
    1492:	88 23       	and	r24, r24
    1494:	c9 f0       	breq	.+50     	; 0x14c8 <GenerateAudio+0x15e>
                //"Floating" speed for howl (and noise, but that's hardly audible)
                floatSpeed(5, 0x0280, 0x0400);
    1496:	40 e0       	ldi	r20, 0x00	; 0
    1498:	54 e0       	ldi	r21, 0x04	; 4
    149a:	60 e8       	ldi	r22, 0x80	; 128
    149c:	72 e0       	ldi	r23, 0x02	; 2
    149e:	85 e0       	ldi	r24, 0x05	; 5
    14a0:	89 dd       	rcall	.-1262   	; 0xfb4 <floatSpeed>
            
                //"Floating" volume and wind howl during 8 bit rainstorm needs some randomness
                auVolume = floatAround(auVolume, 2, 0x10, 0xA0);
    14a2:	80 91 8e 3a 	lds	r24, 0x3A8E	; 0x803a8e <auVolume>
    14a6:	20 ea       	ldi	r18, 0xA0	; 160
    14a8:	40 e1       	ldi	r20, 0x10	; 16
    14aa:	62 e0       	ldi	r22, 0x02	; 2
    14ac:	b5 dd       	rcall	.-1174   	; 0x1018 <floatAround>
    14ae:	80 93 8e 3a 	sts	0x3A8E, r24	; 0x803a8e <auVolume>
                auBuffer[0] = floatAround(auBuffer[0], 2, 0x70, 0x90);
    14b2:	20 e9       	ldi	r18, 0x90	; 144
    14b4:	40 e7       	ldi	r20, 0x70	; 112
    14b6:	62 e0       	ldi	r22, 0x02	; 2
    14b8:	80 91 3d 38 	lds	r24, 0x383D	; 0x80383d <auBuffer.3944>
    14bc:	ad dd       	rcall	.-1190   	; 0x1018 <floatAround>
    14be:	80 93 3d 38 	sts	0x383D, r24	; 0x80383d <auBuffer.3944>
                auBuffer[3] = 0xFF-auBuffer[0];  //Inverse value of wind[0] produces a whistle
    14c2:	80 95       	com	r24
    14c4:	80 93 40 38 	sts	0x3840, r24	; 0x803840 <auBuffer.3944+0x3>
            }
        }

        //Footsteps
        if ((effect&0xE0)==128){
    14c8:	80 91 2d 38 	lds	r24, 0x382D	; 0x80382d <effect>
    14cc:	90 91 2e 38 	lds	r25, 0x382E	; 0x80382e <effect+0x1>

        }

        //Knocking
        if ((effect&0xE0)==160){
    14d0:	80 91 2d 38 	lds	r24, 0x382D	; 0x80382d <effect>
    14d4:	90 91 2e 38 	lds	r25, 0x382E	; 0x80382e <effect+0x1>

        }

        //Scream
        if ((effect&0xE0)==192){
    14d8:	80 91 2d 38 	lds	r24, 0x382D	; 0x80382d <effect>
    14dc:	90 91 2e 38 	lds	r25, 0x382E	; 0x80382e <effect+0x1>
        //Rain storm with whistling wind
        else {
        }
    }

    return buttonMark;
    14e0:	80 91 35 38 	lds	r24, 0x3835	; 0x803835 <buttonMark>
    14e4:	df 91       	pop	r29
    14e6:	cf 91       	pop	r28
    14e8:	1f 91       	pop	r17
    14ea:	0f 91       	pop	r16
    14ec:	08 95       	ret

000014ee <BastetDictates>:

// Main game loop
uint8_t BastetDictates(){
  
    return 0;
}
    14ee:	80 e0       	ldi	r24, 0x00	; 0
    14f0:	08 95       	ret

000014f2 <Cheat>:

//
void SetResponse(uint8_t number, uint16_t address, uint16_t length, uint8_t type){
    reactStr[0][number]=address;
    reactStr[1][number]=length;
    reactStr[2][number]=type;
    14f2:	1f 93       	push	r17
    14f4:	cf 93       	push	r28
    14f6:	df 93       	push	r29
    14f8:	cd b7       	in	r28, 0x3d	; 61
    14fa:	de b7       	in	r29, 0x3e	; 62
    14fc:	62 97       	sbiw	r28, 0x12	; 18
    14fe:	cd bf       	out	0x3d, r28	; 61
    1500:	de bf       	out	0x3e, r29	; 62
    1502:	8a 8b       	std	Y+18, r24	; 0x12
    1504:	80 e1       	ldi	r24, 0x10	; 16
    1506:	ea ef       	ldi	r30, 0xFA	; 250
    1508:	f3 eb       	ldi	r31, 0xB3	; 179
    150a:	de 01       	movw	r26, r28
    150c:	11 96       	adiw	r26, 0x01	; 1
    150e:	01 90       	ld	r0, Z+
    1510:	0d 92       	st	X+, r0
    1512:	8a 95       	dec	r24
    1514:	e1 f7       	brne	.-8      	; 0x150e <Cheat+0x1c>
    1516:	fe 01       	movw	r30, r28
    1518:	31 96       	adiw	r30, 0x01	; 1
    151a:	90 e0       	ldi	r25, 0x00	; 0
    151c:	8f ef       	ldi	r24, 0xFF	; 255
    151e:	21 91       	ld	r18, Z+
    1520:	31 91       	ld	r19, Z+
    1522:	26 17       	cp	r18, r22
    1524:	37 07       	cpc	r19, r23
    1526:	09 f4       	brne	.+2      	; 0x152a <Cheat+0x38>
    1528:	89 2f       	mov	r24, r25
    152a:	9f 5f       	subi	r25, 0xFF	; 255
    152c:	98 30       	cpi	r25, 0x08	; 8
    152e:	b9 f7       	brne	.-18     	; 0x151e <Cheat+0x2c>
    1530:	88 30       	cpi	r24, 0x08	; 8
    1532:	10 f0       	brcs	.+4      	; 0x1538 <Cheat+0x46>
    1534:	80 e0       	ldi	r24, 0x00	; 0
    1536:	12 c0       	rjmp	.+36     	; 0x155c <Cheat+0x6a>
    1538:	18 e1       	ldi	r17, 0x18	; 24
    153a:	18 0f       	add	r17, r24
    153c:	41 e0       	ldi	r20, 0x01	; 1
    153e:	be 01       	movw	r22, r28
    1540:	6f 5e       	subi	r22, 0xEF	; 239
    1542:	7f 4f       	sbci	r23, 0xFF	; 255
    1544:	81 2f       	mov	r24, r17
    1546:	61 dc       	rcall	.-1854   	; 0xe0a <EERead>
    1548:	89 89       	ldd	r24, Y+17	; 0x11
    154a:	8f 3f       	cpi	r24, 0xFF	; 255
    154c:	99 f7       	brne	.-26     	; 0x1534 <Cheat+0x42>
    154e:	41 e0       	ldi	r20, 0x01	; 1
    1550:	be 01       	movw	r22, r28
    1552:	6e 5e       	subi	r22, 0xEE	; 238
    1554:	7f 4f       	sbci	r23, 0xFF	; 255
    1556:	81 2f       	mov	r24, r17
    1558:	68 dc       	rcall	.-1840   	; 0xe2a <EEWrite>
    155a:	81 e0       	ldi	r24, 0x01	; 1
    155c:	62 96       	adiw	r28, 0x12	; 18
    155e:	cd bf       	out	0x3d, r28	; 61
    1560:	de bf       	out	0x3e, r29	; 62
    1562:	df 91       	pop	r29
    1564:	cf 91       	pop	r28
    1566:	1f 91       	pop	r17
    1568:	08 95       	ret

0000156a <DecryptData>:
    156a:	f9 01       	movw	r30, r18
    156c:	9c 01       	movw	r18, r24
    156e:	2e 1b       	sub	r18, r30
    1570:	3f 0b       	sbc	r19, r31
    1572:	88 e0       	ldi	r24, 0x08	; 8
    1574:	48 9f       	mul	r20, r24
    1576:	a0 01       	movw	r20, r0
    1578:	11 24       	eor	r1, r1
    157a:	4c 53       	subi	r20, 0x3C	; 60
    157c:	5b 44       	sbci	r21, 0x4B	; 75
    157e:	66 23       	and	r22, r22
    1580:	69 f0       	breq	.+26     	; 0x159c <DecryptData+0x32>
    1582:	df 01       	movw	r26, r30
    1584:	a2 0f       	add	r26, r18
    1586:	b3 1f       	adc	r27, r19
    1588:	a7 70       	andi	r26, 0x07	; 7
    158a:	bb 27       	eor	r27, r27
    158c:	a4 0f       	add	r26, r20
    158e:	b5 1f       	adc	r27, r21
    1590:	80 81       	ld	r24, Z
    1592:	9c 91       	ld	r25, X
    1594:	98 27       	eor	r25, r24
    1596:	91 93       	st	Z+, r25
    1598:	61 50       	subi	r22, 0x01	; 1
    159a:	f1 cf       	rjmp	.-30     	; 0x157e <DecryptData+0x14>
    159c:	08 95       	ret

0000159e <UnflipData>:
    159e:	26 2f       	mov	r18, r22
    15a0:	fb 01       	movw	r30, r22
    15a2:	35 e5       	ldi	r19, 0x55	; 85
    15a4:	9e 2f       	mov	r25, r30
    15a6:	92 1b       	sub	r25, r18
    15a8:	98 17       	cp	r25, r24
    15aa:	28 f4       	brcc	.+10     	; 0x15b6 <UnflipData+0x18>
    15ac:	90 81       	ld	r25, Z
    15ae:	92 95       	swap	r25
    15b0:	93 27       	eor	r25, r19
    15b2:	91 93       	st	Z+, r25
    15b4:	f7 cf       	rjmp	.-18     	; 0x15a4 <UnflipData+0x6>
    15b6:	08 95       	ret

000015b8 <ExtEERead>:
    15b8:	af 92       	push	r10
    15ba:	bf 92       	push	r11
    15bc:	cf 92       	push	r12
    15be:	df 92       	push	r13
    15c0:	ef 92       	push	r14
    15c2:	ff 92       	push	r15
    15c4:	0f 93       	push	r16
    15c6:	1f 93       	push	r17
    15c8:	cf 93       	push	r28
    15ca:	df 93       	push	r29
    15cc:	00 d0       	rcall	.+0      	; 0x15ce <ExtEERead+0x16>
    15ce:	cd b7       	in	r28, 0x3d	; 61
    15d0:	de b7       	in	r29, 0x3e	; 62
    15d2:	d6 2e       	mov	r13, r22
    15d4:	c4 2e       	mov	r12, r20
    15d6:	59 01       	movw	r10, r18
    15d8:	7c 01       	movw	r14, r24
    15da:	e8 94       	clt
    15dc:	f7 f8       	bld	r15, 7
    15de:	f9 82       	std	Y+1, r15	; 0x01
    15e0:	ea 82       	std	Y+2, r14	; 0x02
    15e2:	06 2f       	mov	r16, r22
    15e4:	42 e0       	ldi	r20, 0x02	; 2
    15e6:	be 01       	movw	r22, r28
    15e8:	6f 5f       	subi	r22, 0xFF	; 255
    15ea:	7f 4f       	sbci	r23, 0xFF	; 255
    15ec:	80 e5       	ldi	r24, 0x50	; 80
    15ee:	0e 94 5c 01 	call	0x2b8	; 0x2b8 <I2C_read_bytes>
    15f2:	18 2f       	mov	r17, r24
    15f4:	81 11       	cpse	r24, r1
    15f6:	05 c0       	rjmp	.+10     	; 0x1602 <ExtEERead+0x4a>
    15f8:	95 01       	movw	r18, r10
    15fa:	4c 2d       	mov	r20, r12
    15fc:	6d 2d       	mov	r22, r13
    15fe:	c7 01       	movw	r24, r14
    1600:	b4 df       	rcall	.-152    	; 0x156a <DecryptData>
    1602:	81 2f       	mov	r24, r17
    1604:	0f 90       	pop	r0
    1606:	0f 90       	pop	r0
    1608:	df 91       	pop	r29
    160a:	cf 91       	pop	r28
    160c:	1f 91       	pop	r17
    160e:	0f 91       	pop	r16
    1610:	ff 90       	pop	r15
    1612:	ef 90       	pop	r14
    1614:	df 90       	pop	r13
    1616:	cf 90       	pop	r12
    1618:	bf 90       	pop	r11
    161a:	af 90       	pop	r10
    161c:	08 95       	ret

0000161e <ClearTxAfter>:
    161e:	8f 5f       	subi	r24, 0xFF	; 255
    1620:	88 30       	cpi	r24, 0x08	; 8
    1622:	30 f4       	brcc	.+12     	; 0x1630 <ClearTxAfter+0x12>
    1624:	e8 2f       	mov	r30, r24
    1626:	f0 e0       	ldi	r31, 0x00	; 0
    1628:	e0 5e       	subi	r30, 0xE0	; 224
    162a:	f5 4c       	sbci	r31, 0xC5	; 197
    162c:	10 82       	st	Z, r1
    162e:	f7 cf       	rjmp	.-18     	; 0x161e <ClearTxAfter>
    1630:	08 95       	ret

00001632 <StartsWith>:
    1632:	ac 01       	movw	r20, r24
    1634:	90 e0       	ldi	r25, 0x00	; 0
    1636:	e9 2f       	mov	r30, r25
    1638:	f0 e0       	ldi	r31, 0x00	; 0
    163a:	da 01       	movw	r26, r20
    163c:	ae 0f       	add	r26, r30
    163e:	bf 1f       	adc	r27, r31
    1640:	3c 91       	ld	r19, X
    1642:	e6 0f       	add	r30, r22
    1644:	f7 1f       	adc	r31, r23
    1646:	31 11       	cpse	r19, r1
    1648:	05 c0       	rjmp	.+10     	; 0x1654 <StartsWith+0x22>
    164a:	81 e0       	ldi	r24, 0x01	; 1
    164c:	90 81       	ld	r25, Z
    164e:	99 23       	and	r25, r25
    1650:	49 f0       	breq	.+18     	; 0x1664 <StartsWith+0x32>
    1652:	07 c0       	rjmp	.+14     	; 0x1662 <StartsWith+0x30>
    1654:	20 81       	ld	r18, Z
    1656:	22 23       	and	r18, r18
    1658:	c1 f3       	breq	.-16     	; 0x164a <StartsWith+0x18>
    165a:	32 13       	cpse	r19, r18
    165c:	02 c0       	rjmp	.+4      	; 0x1662 <StartsWith+0x30>
    165e:	9f 5f       	subi	r25, 0xFF	; 255
    1660:	ea cf       	rjmp	.-44     	; 0x1636 <StartsWith+0x4>
    1662:	80 e0       	ldi	r24, 0x00	; 0
    1664:	08 95       	ret

00001666 <PrepareSending>:
    1666:	61 15       	cp	r22, r1
    1668:	71 05       	cpc	r23, r1
    166a:	51 f1       	breq	.+84     	; 0x16c0 <PrepareSending+0x5a>
    166c:	e8 e2       	ldi	r30, 0x28	; 40
    166e:	fa e3       	ldi	r31, 0x3A	; 58
    1670:	a0 e2       	ldi	r26, 0x20	; 32
    1672:	ba e3       	ldi	r27, 0x3A	; 58
    1674:	20 e0       	ldi	r18, 0x00	; 0
    1676:	3f ef       	ldi	r19, 0xFF	; 255
    1678:	6f 3f       	cpi	r22, 0xFF	; 255
    167a:	71 05       	cpc	r23, r1
    167c:	69 f0       	breq	.+26     	; 0x1698 <PrepareSending+0x32>
    167e:	60 f0       	brcs	.+24     	; 0x1698 <PrepareSending+0x32>
    1680:	81 93       	st	Z+, r24
    1682:	91 93       	st	Z+, r25
    1684:	3d 93       	st	X+, r19
    1686:	81 50       	subi	r24, 0x01	; 1
    1688:	9f 4f       	sbci	r25, 0xFF	; 255
    168a:	6f 5f       	subi	r22, 0xFF	; 255
    168c:	71 09       	sbc	r23, r1
    168e:	2f 5f       	subi	r18, 0xFF	; 255
    1690:	27 30       	cpi	r18, 0x07	; 7
    1692:	91 f7       	brne	.-28     	; 0x1678 <PrepareSending+0x12>
    1694:	81 e0       	ldi	r24, 0x01	; 1
    1696:	08 95       	ret
    1698:	e2 2f       	mov	r30, r18
    169a:	f0 e0       	ldi	r31, 0x00	; 0
    169c:	df 01       	movw	r26, r30
    169e:	aa 0f       	add	r26, r26
    16a0:	bb 1f       	adc	r27, r27
    16a2:	a8 5d       	subi	r26, 0xD8	; 216
    16a4:	b5 4c       	sbci	r27, 0xC5	; 197
    16a6:	8d 93       	st	X+, r24
    16a8:	9c 93       	st	X, r25
    16aa:	e0 5e       	subi	r30, 0xE0	; 224
    16ac:	f5 4c       	sbci	r31, 0xC5	; 197
    16ae:	cb 01       	movw	r24, r22
    16b0:	6f ef       	ldi	r22, 0xFF	; 255
    16b2:	70 e0       	ldi	r23, 0x00	; 0
    16b4:	0e 94 c5 19 	call	0x338a	; 0x338a <__udivmodhi4>
    16b8:	80 83       	st	Z, r24
    16ba:	40 93 1e 3a 	sts	0x3A1E, r20	; 0x803a1e <txTypeNow>
    16be:	05 c0       	rjmp	.+10     	; 0x16ca <PrepareSending+0x64>
    16c0:	10 92 28 3a 	sts	0x3A28, r1	; 0x803a28 <txAddrList>
    16c4:	10 92 29 3a 	sts	0x3A29, r1	; 0x803a29 <txAddrList+0x1>
    16c8:	20 e0       	ldi	r18, 0x00	; 0
    16ca:	82 2f       	mov	r24, r18
    16cc:	a8 df       	rcall	.-176    	; 0x161e <ClearTxAfter>
    16ce:	10 92 1f 3a 	sts	0x3A1F, r1	; 0x803a1f <txAddrNow>
    16d2:	80 e0       	ldi	r24, 0x00	; 0
    16d4:	08 95       	ret

000016d6 <SetStandardResponse>:
}

//
uint8_t SetStandardResponse(uint8_t custStrEnd){
    16d6:	cf 93       	push	r28
    16d8:	df 93       	push	r29
    return 0;
}

//
void SetResponse(uint8_t number, uint16_t address, uint16_t length, uint8_t type){
    reactStr[0][number]=address;
    16da:	28 2f       	mov	r18, r24
    16dc:	30 e0       	ldi	r19, 0x00	; 0
    16de:	f9 01       	movw	r30, r18
    16e0:	ee 0f       	add	r30, r30
    16e2:	ff 1f       	adc	r31, r31
    16e4:	ed 50       	subi	r30, 0x0D	; 13
    16e6:	f7 4c       	sbci	r31, 0xC7	; 199
    16e8:	ab e5       	ldi	r26, 0x5B	; 91
    16ea:	ba e7       	ldi	r27, 0x7A	; 122
    16ec:	a0 83       	st	Z, r26
    16ee:	b1 83       	std	Z+1, r27	; 0x01
    reactStr[1][number]=length;
    16f0:	f9 01       	movw	r30, r18
    16f2:	ee 0f       	add	r30, r30
    16f4:	ff 1f       	adc	r31, r31
    16f6:	ed 5c       	subi	r30, 0xCD	; 205
    16f8:	f6 4c       	sbci	r31, 0xC6	; 198
    16fa:	62 e0       	ldi	r22, 0x02	; 2
    16fc:	70 e0       	ldi	r23, 0x00	; 0
    16fe:	60 83       	st	Z, r22
    1700:	71 83       	std	Z+1, r23	; 0x01
    reactStr[2][number]=type;
    1702:	22 0f       	add	r18, r18
    1704:	33 1f       	adc	r19, r19
    1706:	f9 01       	movw	r30, r18
    1708:	ed 58       	subi	r30, 0x8D	; 141
    170a:	f6 4c       	sbci	r31, 0xC6	; 198
    170c:	41 e0       	ldi	r20, 0x01	; 1
    170e:	50 e0       	ldi	r21, 0x00	; 0
    1710:	40 83       	st	Z, r20
    1712:	51 83       	std	Z+1, r21	; 0x01
    return 0;
}

//
void SetResponse(uint8_t number, uint16_t address, uint16_t length, uint8_t type){
    reactStr[0][number]=address;
    1714:	21 e0       	ldi	r18, 0x01	; 1
    1716:	28 0f       	add	r18, r24
    1718:	30 e0       	ldi	r19, 0x00	; 0
    171a:	f9 01       	movw	r30, r18
    171c:	ee 0f       	add	r30, r30
    171e:	ff 1f       	adc	r31, r31
    1720:	ed 50       	subi	r30, 0x0D	; 13
    1722:	f7 4c       	sbci	r31, 0xC7	; 199
    1724:	c4 e6       	ldi	r28, 0x64	; 100
    1726:	da e7       	ldi	r29, 0x7A	; 122
    1728:	c0 83       	st	Z, r28
    172a:	d1 83       	std	Z+1, r29	; 0x01
    reactStr[1][number]=length;
    172c:	f9 01       	movw	r30, r18
    172e:	ee 0f       	add	r30, r30
    1730:	ff 1f       	adc	r31, r31
    1732:	ed 5c       	subi	r30, 0xCD	; 205
    1734:	f6 4c       	sbci	r31, 0xC6	; 198
    1736:	ca e0       	ldi	r28, 0x0A	; 10
    1738:	d0 e0       	ldi	r29, 0x00	; 0
    173a:	c0 83       	st	Z, r28
    173c:	d1 83       	std	Z+1, r29	; 0x01
    reactStr[2][number]=type;
    173e:	22 0f       	add	r18, r18
    1740:	33 1f       	adc	r19, r19
    1742:	f9 01       	movw	r30, r18
    1744:	ed 58       	subi	r30, 0x8D	; 141
    1746:	f6 4c       	sbci	r31, 0xC6	; 198
    1748:	40 83       	st	Z, r20
    174a:	51 83       	std	Z+1, r21	; 0x01
uint8_t SetStandardResponse(uint8_t custStrEnd){

    SetResponse(custStrEnd++, A_LF, 2, TEASER);
    SetResponse(custStrEnd++, A_LOCATION, L_LOCATION, TEASER);
    //SetResponse(custStrEnd++, A_SPACE, L_SPACE, TEASER);
    reactStr[0][custStrEnd++] = CURR_LOC;
    174c:	e2 e0       	ldi	r30, 0x02	; 2
    174e:	e8 0f       	add	r30, r24
    1750:	f0 e0       	ldi	r31, 0x00	; 0
    1752:	ee 0f       	add	r30, r30
    1754:	ff 1f       	adc	r31, r31
    1756:	ed 50       	subi	r30, 0x0D	; 13
    1758:	f7 4c       	sbci	r31, 0xC7	; 199
    175a:	20 ef       	ldi	r18, 0xF0	; 240
    175c:	3f ef       	ldi	r19, 0xFF	; 255
    175e:	20 83       	st	Z, r18
    1760:	31 83       	std	Z+1, r19	; 0x01
    return 0;
}

//
void SetResponse(uint8_t number, uint16_t address, uint16_t length, uint8_t type){
    reactStr[0][number]=address;
    1762:	23 e0       	ldi	r18, 0x03	; 3
    1764:	28 0f       	add	r18, r24
    1766:	30 e0       	ldi	r19, 0x00	; 0
    1768:	f9 01       	movw	r30, r18
    176a:	ee 0f       	add	r30, r30
    176c:	ff 1f       	adc	r31, r31
    176e:	ed 50       	subi	r30, 0x0D	; 13
    1770:	f7 4c       	sbci	r31, 0xC7	; 199
    1772:	a0 83       	st	Z, r26
    1774:	b1 83       	std	Z+1, r27	; 0x01
    reactStr[1][number]=length;
    1776:	f9 01       	movw	r30, r18
    1778:	ee 0f       	add	r30, r30
    177a:	ff 1f       	adc	r31, r31
    177c:	ed 5c       	subi	r30, 0xCD	; 205
    177e:	f6 4c       	sbci	r31, 0xC6	; 198
    1780:	60 83       	st	Z, r22
    1782:	71 83       	std	Z+1, r23	; 0x01
    reactStr[2][number]=type;
    1784:	22 0f       	add	r18, r18
    1786:	33 1f       	adc	r19, r19
    1788:	f9 01       	movw	r30, r18
    178a:	ed 58       	subi	r30, 0x8D	; 141
    178c:	f6 4c       	sbci	r31, 0xC6	; 198
    178e:	40 83       	st	Z, r20
    1790:	51 83       	std	Z+1, r21	; 0x01
    return 0;
}

//
void SetResponse(uint8_t number, uint16_t address, uint16_t length, uint8_t type){
    reactStr[0][number]=address;
    1792:	24 e0       	ldi	r18, 0x04	; 4
    1794:	28 0f       	add	r18, r24
    1796:	30 e0       	ldi	r19, 0x00	; 0
    1798:	f9 01       	movw	r30, r18
    179a:	ee 0f       	add	r30, r30
    179c:	ff 1f       	adc	r31, r31
    179e:	ed 50       	subi	r30, 0x0D	; 13
    17a0:	f7 4c       	sbci	r31, 0xC7	; 199
    17a2:	a7 e5       	ldi	r26, 0x57	; 87
    17a4:	ba e7       	ldi	r27, 0x7A	; 122
    17a6:	a0 83       	st	Z, r26
    17a8:	b1 83       	std	Z+1, r27	; 0x01
    reactStr[1][number]=length;
    17aa:	f9 01       	movw	r30, r18
    17ac:	ee 0f       	add	r30, r30
    17ae:	ff 1f       	adc	r31, r31
    17b0:	ed 5c       	subi	r30, 0xCD	; 205
    17b2:	f6 4c       	sbci	r31, 0xC6	; 198
    17b4:	60 83       	st	Z, r22
    17b6:	71 83       	std	Z+1, r23	; 0x01
    reactStr[2][number]=type;
    17b8:	22 0f       	add	r18, r18
    17ba:	33 1f       	adc	r19, r19
    17bc:	f9 01       	movw	r30, r18
    17be:	ed 58       	subi	r30, 0x8D	; 141
    17c0:	f6 4c       	sbci	r31, 0xC6	; 198
    17c2:	40 83       	st	Z, r20
    17c4:	51 83       	std	Z+1, r21	; 0x01
    SetResponse(custStrEnd++, A_LF, 2, TEASER);
    SetResponse(custStrEnd++, A_PROMPT, L_PROMPT, TEASER);
    //SetResponse(custStrEnd++, A_SPACE, L_SPACE, TEASER);

    return custStrEnd;
}
    17c6:	8b 5f       	subi	r24, 0xFB	; 251
    17c8:	df 91       	pop	r29
    17ca:	cf 91       	pop	r28
    17cc:	08 95       	ret

000017ce <PopulateObject>:

//Get all the relevant data and string addresses of an object
void PopulateObject(uint16_t offset, object_model_t *object){
    17ce:	af 92       	push	r10
    17d0:	bf 92       	push	r11
    17d2:	df 92       	push	r13
    17d4:	ef 92       	push	r14
    17d6:	ff 92       	push	r15
    17d8:	0f 93       	push	r16
    17da:	1f 93       	push	r17
    17dc:	cf 93       	push	r28
    17de:	df 93       	push	r29
    17e0:	cd b7       	in	r28, 0x3d	; 61
    17e2:	de b7       	in	r29, 0x3e	; 62
    17e4:	2c 97       	sbiw	r28, 0x0c	; 12
    17e6:	cd bf       	out	0x3d, r28	; 61
    17e8:	de bf       	out	0x3e, r29	; 62
    17ea:	7c 01       	movw	r14, r24
    17ec:	8b 01       	movw	r16, r22
    uint16_t parStr;
    offset += L_BOILER;

    //Fill things with fixed distance to offset
    uint8_t data[OFF_STRINGFLDS];
    ExtEERead(offset, OFF_STRINGFLDS, GAME, &data[0]);
    17ee:	9e 01       	movw	r18, r28
    17f0:	2f 5f       	subi	r18, 0xFF	; 255
    17f2:	3f 4f       	sbci	r19, 0xFF	; 255
    17f4:	40 e0       	ldi	r20, 0x00	; 0
    17f6:	6c e0       	ldi	r22, 0x0C	; 12
    17f8:	80 96       	adiw	r24, 0x20	; 32
    17fa:	de de       	rcall	.-580    	; 0x15b8 <ExtEERead>
    object->addrNextObj = (data[OFF_NEXTOBJ]<<8|data[OFF_NEXTOBJ+1])+L_BOILER;
    17fc:	89 81       	ldd	r24, Y+1	; 0x01
    17fe:	9a 81       	ldd	r25, Y+2	; 0x02
    1800:	98 27       	eor	r25, r24
    1802:	89 27       	eor	r24, r25
    1804:	98 27       	eor	r25, r24
    1806:	80 96       	adiw	r24, 0x20	; 32
    1808:	f8 01       	movw	r30, r16
    180a:	80 83       	st	Z, r24
    180c:	91 83       	std	Z+1, r25	; 0x01
    object->addrNextLvl = (data[OFF_NEXTLVL]<<8|data[OFF_NEXTLVL+1])+L_BOILER;
    180e:	8b 81       	ldd	r24, Y+3	; 0x03
    1810:	9c 81       	ldd	r25, Y+4	; 0x04
    1812:	98 27       	eor	r25, r24
    1814:	89 27       	eor	r24, r25
    1816:	98 27       	eor	r25, r24
    1818:	80 96       	adiw	r24, 0x20	; 32
    181a:	82 83       	std	Z+2, r24	; 0x02
    181c:	93 83       	std	Z+3, r25	; 0x03
    181e:	de 01       	movw	r26, r28
    1820:	15 96       	adiw	r26, 0x05	; 5
    1822:	34 96       	adiw	r30, 0x04	; 4
    1824:	c8 01       	movw	r24, r16
    1826:	0c 96       	adiw	r24, 0x0c	; 12
    for (uint8_t x=0; x<BYTE_FIELDS_LEN; ++x){
        object->byteField[x]=data[x+OFF_BYTEFLDS];
    1828:	2d 91       	ld	r18, X+
    182a:	21 93       	st	Z+, r18
    //Fill things with fixed distance to offset
    uint8_t data[OFF_STRINGFLDS];
    ExtEERead(offset, OFF_STRINGFLDS, GAME, &data[0]);
    object->addrNextObj = (data[OFF_NEXTOBJ]<<8|data[OFF_NEXTOBJ+1])+L_BOILER;
    object->addrNextLvl = (data[OFF_NEXTLVL]<<8|data[OFF_NEXTLVL+1])+L_BOILER;
    for (uint8_t x=0; x<BYTE_FIELDS_LEN; ++x){
    182c:	e8 17       	cp	r30, r24
    182e:	f9 07       	cpc	r31, r25
    1830:	d9 f7       	brne	.-10     	; 0x1828 <PopulateObject+0x5a>
        object->byteField[x]=data[x+OFF_BYTEFLDS];
    }

    //Find out where all of the strings begin and how long they are
    offset += OFF_STRINGFLDS;
    1832:	fc e2       	ldi	r31, 0x2C	; 44
    1834:	ef 0e       	add	r14, r31
    1836:	f1 1c       	adc	r15, r1
    1838:	58 01       	movw	r10, r16
    for(uint8_t x=0; x<STRING_FIELDS_LEN; ++x){
    183a:	d1 2c       	mov	r13, r1
        
        //Determine length
        ExtEERead(offset, 3, GAME, &data[0]);
    183c:	9e 01       	movw	r18, r28
    183e:	2f 5f       	subi	r18, 0xFF	; 255
    1840:	3f 4f       	sbci	r19, 0xFF	; 255
    1842:	40 e0       	ldi	r20, 0x00	; 0
    1844:	63 e0       	ldi	r22, 0x03	; 3
    1846:	c7 01       	movw	r24, r14
    1848:	b7 de       	rcall	.-658    	; 0x15b8 <ExtEERead>
    184a:	89 81       	ldd	r24, Y+1	; 0x01
    184c:	9a 81       	ldd	r25, Y+2	; 0x02
    184e:	98 27       	eor	r25, r24
    1850:	89 27       	eor	r24, r25
    1852:	98 27       	eor	r25, r24
        parStr = (data[0]<<8|data[1]);
        offset += 2;
    1854:	97 01       	movw	r18, r14
    1856:	2e 5f       	subi	r18, 0xFE	; 254
    1858:	3f 4f       	sbci	r19, 0xFF	; 255
        if (x >= OPEN_ACL_MSG){
    185a:	43 e0       	ldi	r20, 0x03	; 3
    185c:	4d 15       	cp	r20, r13
    185e:	80 f4       	brcc	.+32     	; 0x1880 <PopulateObject+0xb2>
            object->lenStr[x]= parStr-1;
    1860:	ac 01       	movw	r20, r24
    1862:	41 50       	subi	r20, 0x01	; 1
    1864:	51 09       	sbc	r21, r1
    1866:	f8 01       	movw	r30, r16
    1868:	42 8f       	std	Z+26, r20	; 0x1a
    186a:	53 8f       	std	Z+27, r21	; 0x1b
            object->addrStr[x]=offset+1;
    186c:	f3 e0       	ldi	r31, 0x03	; 3
    186e:	ef 0e       	add	r14, r31
    1870:	f1 1c       	adc	r15, r1
    1872:	f8 01       	movw	r30, r16
    1874:	e4 86       	std	Z+12, r14	; 0x0c
    1876:	f5 86       	std	Z+13, r15	; 0x0d
            object->effect[x-OPEN_ACL_MSG] = data[2];
    1878:	4b 81       	ldd	r20, Y+3	; 0x03
    187a:	f5 01       	movw	r30, r10
    187c:	44 a3       	std	Z+36, r20	; 0x24
    187e:	05 c0       	rjmp	.+10     	; 0x188a <PopulateObject+0xbc>
        } else {
            object->lenStr[x]= parStr;
    1880:	f8 01       	movw	r30, r16
    1882:	82 8f       	std	Z+26, r24	; 0x1a
    1884:	93 8f       	std	Z+27, r25	; 0x1b
            object->addrStr[x]=offset;
    1886:	24 87       	std	Z+12, r18	; 0x0c
    1888:	35 87       	std	Z+13, r19	; 0x0d
        }
        
        //Determine string start location for next field
        offset += parStr;
    188a:	7c 01       	movw	r14, r24
    188c:	e2 0e       	add	r14, r18
    188e:	f3 1e       	adc	r15, r19
        object->byteField[x]=data[x+OFF_BYTEFLDS];
    }

    //Find out where all of the strings begin and how long they are
    offset += OFF_STRINGFLDS;
    for(uint8_t x=0; x<STRING_FIELDS_LEN; ++x){
    1890:	d3 94       	inc	r13
    1892:	0e 5f       	subi	r16, 0xFE	; 254
    1894:	1f 4f       	sbci	r17, 0xFF	; 255
    1896:	ff ef       	ldi	r31, 0xFF	; 255
    1898:	af 1a       	sub	r10, r31
    189a:	bf 0a       	sbc	r11, r31
    189c:	47 e0       	ldi	r20, 0x07	; 7
    189e:	d4 12       	cpse	r13, r20
    18a0:	cd cf       	rjmp	.-102    	; 0x183c <PopulateObject+0x6e>
        }
        
        //Determine string start location for next field
        offset += parStr;
    }    
}
    18a2:	2c 96       	adiw	r28, 0x0c	; 12
    18a4:	cd bf       	out	0x3d, r28	; 61
    18a6:	de bf       	out	0x3e, r29	; 62
    18a8:	df 91       	pop	r29
    18aa:	cf 91       	pop	r28
    18ac:	1f 91       	pop	r17
    18ae:	0f 91       	pop	r16
    18b0:	ff 90       	pop	r15
    18b2:	ef 90       	pop	r14
    18b4:	df 90       	pop	r13
    18b6:	bf 90       	pop	r11
    18b8:	af 90       	pop	r10
    18ba:	08 95       	ret

000018bc <CheckLetter>:

//Check if the entered letter corresponds with a name
uint8_t CheckLetter(uint16_t object, uint8_t letter){
    18bc:	cf 92       	push	r12
    18be:	df 92       	push	r13
    18c0:	ef 92       	push	r14
    18c2:	ff 92       	push	r15
    18c4:	0f 93       	push	r16
    18c6:	1f 93       	push	r17
    18c8:	cf 93       	push	r28
    18ca:	df 93       	push	r29
    18cc:	cd b7       	in	r28, 0x3d	; 61
    18ce:	de b7       	in	r29, 0x3e	; 62
    18d0:	a0 97       	sbiw	r28, 0x20	; 32
    18d2:	cd bf       	out	0x3d, r28	; 61
    18d4:	de bf       	out	0x3e, r29	; 62
    18d6:	c6 2e       	mov	r12, r22
    
    uint8_t found = 0;
    uint8_t data[32];

    object += L_BOILER;
    18d8:	7c 01       	movw	r14, r24
    18da:	20 e2       	ldi	r18, 0x20	; 32
    18dc:	e2 0e       	add	r14, r18
    18de:	f1 1c       	adc	r15, r1
    ExtEERead(object+OFF_STRINGFLDS, 2, GAME, &data[0]);
    18e0:	9e 01       	movw	r18, r28
    18e2:	2f 5f       	subi	r18, 0xFF	; 255
    18e4:	3f 4f       	sbci	r19, 0xFF	; 255
    18e6:	40 e0       	ldi	r20, 0x00	; 0
    18e8:	62 e0       	ldi	r22, 0x02	; 2
    18ea:	8c 96       	adiw	r24, 0x2c	; 44
    18ec:	65 de       	rcall	.-822    	; 0x15b8 <ExtEERead>
    uint8_t x = data[1]; //Assuming a name is not longer than 255 characters.
    18ee:	1a 81       	ldd	r17, Y+2	; 0x02
}

//Check if the entered letter corresponds with a name
uint8_t CheckLetter(uint16_t object, uint8_t letter){
    
    uint8_t found = 0;
    18f0:	d1 2c       	mov	r13, r1

    object += L_BOILER;
    ExtEERead(object+OFF_STRINGFLDS, 2, GAME, &data[0]);
    uint8_t x = data[1]; //Assuming a name is not longer than 255 characters.

    while (x){
    18f2:	11 23       	and	r17, r17
    18f4:	51 f1       	breq	.+84     	; 0x194a <CheckLetter+0x8e>
    18f6:	01 2f       	mov	r16, r17
    18f8:	11 32       	cpi	r17, 0x21	; 33
    18fa:	08 f0       	brcs	.+2      	; 0x18fe <CheckLetter+0x42>
    18fc:	00 e2       	ldi	r16, 0x20	; 32
        uint8_t max;
        if (x>32) max = 32; else max = x;
        ExtEERead(object+OFF_STRINGFLDS+2, max, GAME, &data[0]);
    18fe:	9e 01       	movw	r18, r28
    1900:	2f 5f       	subi	r18, 0xFF	; 255
    1902:	3f 4f       	sbci	r19, 0xFF	; 255
    1904:	40 e0       	ldi	r20, 0x00	; 0
    1906:	60 2f       	mov	r22, r16
    1908:	c7 01       	movw	r24, r14
    190a:	0e 96       	adiw	r24, 0x0e	; 14
    190c:	55 de       	rcall	.-854    	; 0x15b8 <ExtEERead>
    190e:	fe 01       	movw	r30, r28
    1910:	31 96       	adiw	r30, 0x01	; 1
        for (uint8_t y=0; y<max; ++y){
    1912:	80 e0       	ldi	r24, 0x00	; 0
            if (found){
    1914:	dd 20       	and	r13, r13
    1916:	61 f0       	breq	.+24     	; 0x1930 <CheckLetter+0x74>
                if ((data[y]|0x20) == letter) return 1; else return 0;
    1918:	e1 e0       	ldi	r30, 0x01	; 1
    191a:	f0 e0       	ldi	r31, 0x00	; 0
    191c:	ec 0f       	add	r30, r28
    191e:	fd 1f       	adc	r31, r29
    1920:	e8 0f       	add	r30, r24
    1922:	f1 1d       	adc	r31, r1
    1924:	90 81       	ld	r25, Z
    1926:	90 62       	ori	r25, 0x20	; 32
    1928:	81 e0       	ldi	r24, 0x01	; 1
    192a:	9c 11       	cpse	r25, r12
    192c:	0e c0       	rjmp	.+28     	; 0x194a <CheckLetter+0x8e>
    192e:	0e c0       	rjmp	.+28     	; 0x194c <CheckLetter+0x90>
            }
            if (data[y] == '[') found = 1;
    1930:	91 91       	ld	r25, Z+
    1932:	dd 24       	eor	r13, r13
    1934:	d3 94       	inc	r13
    1936:	9b 35       	cpi	r25, 0x5B	; 91
    1938:	09 f0       	breq	.+2      	; 0x193c <CheckLetter+0x80>
    193a:	d1 2c       	mov	r13, r1

    while (x){
        uint8_t max;
        if (x>32) max = 32; else max = x;
        ExtEERead(object+OFF_STRINGFLDS+2, max, GAME, &data[0]);
        for (uint8_t y=0; y<max; ++y){
    193c:	8f 5f       	subi	r24, 0xFF	; 255
    193e:	80 17       	cp	r24, r16
    1940:	48 f3       	brcs	.-46     	; 0x1914 <CheckLetter+0x58>
            if (found){
                if ((data[y]|0x20) == letter) return 1; else return 0;
            }
            if (data[y] == '[') found = 1;
        }
        object += max;
    1942:	e0 0e       	add	r14, r16
    1944:	f1 1c       	adc	r15, r1
        x -= max;
    1946:	10 1b       	sub	r17, r16
    1948:	d4 cf       	rjmp	.-88     	; 0x18f2 <CheckLetter+0x36>
    }
    return 0;
    194a:	80 e0       	ldi	r24, 0x00	; 0
}
    194c:	a0 96       	adiw	r28, 0x20	; 32
    194e:	cd bf       	out	0x3d, r28	; 61
    1950:	de bf       	out	0x3e, r29	; 62
    1952:	df 91       	pop	r29
    1954:	cf 91       	pop	r28
    1956:	1f 91       	pop	r17
    1958:	0f 91       	pop	r16
    195a:	ff 90       	pop	r15
    195c:	ef 90       	pop	r14
    195e:	df 90       	pop	r13
    1960:	cf 90       	pop	r12
    1962:	08 95       	ret

00001964 <FindChild>:

//Returns the child's address if the child is visible and the search letter matches
uint16_t FindChild(uint16_t parent, uint8_t letter, uint16_t start){
    1964:	af 92       	push	r10
    1966:	bf 92       	push	r11
    1968:	df 92       	push	r13
    196a:	ef 92       	push	r14
    196c:	ff 92       	push	r15
    196e:	0f 93       	push	r16
    1970:	1f 93       	push	r17
    1972:	cf 93       	push	r28
    1974:	df 93       	push	r29
    1976:	00 d0       	rcall	.+0      	; 0x1978 <FindChild+0x14>
    1978:	00 d0       	rcall	.+0      	; 0x197a <FindChild+0x16>
    197a:	cd b7       	in	r28, 0x3d	; 61
    197c:	de b7       	in	r29, 0x3e	; 62
    197e:	d6 2e       	mov	r13, r22
    1980:	5a 01       	movw	r10, r20
    
    uint16_t child = parent;
    uint8_t data[4];

    ExtEERead(child+L_BOILER, 4, GAME, &data[0]);
    1982:	9e 01       	movw	r18, r28
    1984:	2f 5f       	subi	r18, 0xFF	; 255
    1986:	3f 4f       	sbci	r19, 0xFF	; 255
    1988:	40 e0       	ldi	r20, 0x00	; 0
    198a:	64 e0       	ldi	r22, 0x04	; 4
    198c:	80 96       	adiw	r24, 0x20	; 32
    198e:	14 de       	rcall	.-984    	; 0x15b8 <ExtEERead>
    1990:	e9 80       	ldd	r14, Y+1	; 0x01
    1992:	fa 80       	ldd	r15, Y+2	; 0x02
    1994:	fe 24       	eor	r15, r14
    1996:	ef 24       	eor	r14, r15
    1998:	fe 24       	eor	r15, r14
    199a:	0b 81       	ldd	r16, Y+3	; 0x03
    199c:	1c 81       	ldd	r17, Y+4	; 0x04
    199e:	10 27       	eor	r17, r16
    19a0:	01 27       	eor	r16, r17
    19a2:	10 27       	eor	r17, r16
    parent = (data[0]<<8|data[1]);    //Next object on parent level
    child =  (data[2]<<8|data[3]);    //First object on child level

    //As long as the child is within the parent's range
    while (parent>child){
    19a4:	0e 15       	cp	r16, r14
    19a6:	1f 05       	cpc	r17, r15
    19a8:	30 f5       	brcc	.+76     	; 0x19f6 <FindChild+0x92>

        //If child's address is higher than the start address, perform search for letter
        if (child>start){
    19aa:	a0 16       	cp	r10, r16
    19ac:	b1 06       	cpc	r11, r17
    19ae:	58 f0       	brcs	.+22     	; 0x19c6 <FindChild+0x62>
                if ((letter == 0)||(CheckLetter(child, letter))) return child;
            }
        }

        //Not visible or name not right
        ExtEERead(child+L_BOILER, 2, GAME, &data[0]);
    19b0:	9e 01       	movw	r18, r28
    19b2:	2f 5f       	subi	r18, 0xFF	; 255
    19b4:	3f 4f       	sbci	r19, 0xFF	; 255
    19b6:	40 e0       	ldi	r20, 0x00	; 0
    19b8:	62 e0       	ldi	r22, 0x02	; 2
    19ba:	c8 01       	movw	r24, r16
    19bc:	80 96       	adiw	r24, 0x20	; 32
    19be:	fc dd       	rcall	.-1032   	; 0x15b8 <ExtEERead>
    19c0:	09 81       	ldd	r16, Y+1	; 0x01
    19c2:	1a 81       	ldd	r17, Y+2	; 0x02
    19c4:	ec cf       	rjmp	.-40     	; 0x199e <FindChild+0x3a>
    //As long as the child is within the parent's range
    while (parent>child){

        //If child's address is higher than the start address, perform search for letter
        if (child>start){
            ExtEERead(child+OFF_BYTEFLDS+VISIBLE_ACL+L_BOILER, 1, GAME, &data[0]);
    19c6:	9e 01       	movw	r18, r28
    19c8:	2f 5f       	subi	r18, 0xFF	; 255
    19ca:	3f 4f       	sbci	r19, 0xFF	; 255
    19cc:	40 e0       	ldi	r20, 0x00	; 0
    19ce:	61 e0       	ldi	r22, 0x01	; 1
    19d0:	c8 01       	movw	r24, r16
    19d2:	85 96       	adiw	r24, 0x25	; 37
    19d4:	f1 dd       	rcall	.-1054   	; 0x15b8 <ExtEERead>
            if ((data[0] == 0)||(CheckState(data[0]))) {
    19d6:	89 81       	ldd	r24, Y+1	; 0x01
    19d8:	81 11       	cpse	r24, r1
    19da:	03 c0       	rjmp	.+6      	; 0x19e2 <FindChild+0x7e>
                if ((letter == 0)||(CheckLetter(child, letter))) return child;
    19dc:	d1 10       	cpse	r13, r1
    19de:	05 c0       	rjmp	.+10     	; 0x19ea <FindChild+0x86>
    while (parent>child){

        //If child's address is higher than the start address, perform search for letter
        if (child>start){
            ExtEERead(child+OFF_BYTEFLDS+VISIBLE_ACL+L_BOILER, 1, GAME, &data[0]);
            if ((data[0] == 0)||(CheckState(data[0]))) {
    19e0:	0d c0       	rjmp	.+26     	; 0x19fc <FindChild+0x98>
    19e2:	ea db       	rcall	.-2092   	; 0x11b8 <CheckState>
    19e4:	81 11       	cpse	r24, r1
    19e6:	fa cf       	rjmp	.-12     	; 0x19dc <FindChild+0x78>
                if ((letter == 0)||(CheckLetter(child, letter))) return child;
    19e8:	e3 cf       	rjmp	.-58     	; 0x19b0 <FindChild+0x4c>
    19ea:	6d 2d       	mov	r22, r13
    19ec:	c8 01       	movw	r24, r16
    19ee:	66 df       	rcall	.-308    	; 0x18bc <CheckLetter>
    19f0:	88 23       	and	r24, r24
    19f2:	f1 f2       	breq	.-68     	; 0x19b0 <FindChild+0x4c>
    19f4:	03 c0       	rjmp	.+6      	; 0x19fc <FindChild+0x98>

        //Not visible or name not right
        ExtEERead(child+L_BOILER, 2, GAME, &data[0]);
        child = (data[0]<<8|data[1]);    //Next object on child level
        
    } return 0;
    19f6:	80 e0       	ldi	r24, 0x00	; 0
    19f8:	90 e0       	ldi	r25, 0x00	; 0
    19fa:	01 c0       	rjmp	.+2      	; 0x19fe <FindChild+0x9a>
    19fc:	c8 01       	movw	r24, r16
}
    19fe:	24 96       	adiw	r28, 0x04	; 4
    1a00:	cd bf       	out	0x3d, r28	; 61
    1a02:	de bf       	out	0x3e, r29	; 62
    1a04:	df 91       	pop	r29
    1a06:	cf 91       	pop	r28
    1a08:	1f 91       	pop	r17
    1a0a:	0f 91       	pop	r16
    1a0c:	ff 90       	pop	r15
    1a0e:	ef 90       	pop	r14
    1a10:	df 90       	pop	r13
    1a12:	bf 90       	pop	r11
    1a14:	af 90       	pop	r10
    1a16:	08 95       	ret

00001a18 <InpOkChk>:

//Allow only a(A) to z(Z) and 0 to 9 as input
uint8_t InpOkChk(uint8_t test){
    test |= 0x20;
    1a18:	80 62       	ori	r24, 0x20	; 32
    if ((test>='a')&&(test<='z')) return 1;
    1a1a:	9f e9       	ldi	r25, 0x9F	; 159
    1a1c:	98 0f       	add	r25, r24
    1a1e:	9a 31       	cpi	r25, 0x1A	; 26
    1a20:	38 f0       	brcs	.+14     	; 0x1a30 <InpOkChk+0x18>
    1a22:	90 ed       	ldi	r25, 0xD0	; 208
    1a24:	98 0f       	add	r25, r24
    1a26:	81 e0       	ldi	r24, 0x01	; 1
    1a28:	9a 30       	cpi	r25, 0x0A	; 10
    1a2a:	18 f0       	brcs	.+6      	; 0x1a32 <InpOkChk+0x1a>
    1a2c:	80 e0       	ldi	r24, 0x00	; 0
    1a2e:	08 95       	ret
    1a30:	81 e0       	ldi	r24, 0x01	; 1
    if ((test>='0')&&(test<='9')) return 1;
    return 0;
}
    1a32:	08 95       	ret

00001a34 <CleanInput>:

//Cleans input of garbage and returns length of cleaned input "o->d2  !\0" becomes "od2\0"
uint8_t CleanInput(uint8_t *data){
    1a34:	0f 93       	push	r16
    1a36:	1f 93       	push	r17
    1a38:	cf 93       	push	r28
    1a3a:	df 93       	push	r29
    1a3c:	8c 01       	movw	r16, r24
    uint8_t cnt = 0;
    for (uint8_t x=0; data[x]!=0; ++x){
    1a3e:	d0 e0       	ldi	r29, 0x00	; 0
    return 0;
}

//Cleans input of garbage and returns length of cleaned input "o->d2  !\0" becomes "od2\0"
uint8_t CleanInput(uint8_t *data){
    uint8_t cnt = 0;
    1a40:	c0 e0       	ldi	r28, 0x00	; 0
    for (uint8_t x=0; data[x]!=0; ++x){
    1a42:	f8 01       	movw	r30, r16
    1a44:	ed 0f       	add	r30, r29
    1a46:	f1 1d       	adc	r31, r1
    1a48:	20 81       	ld	r18, Z
    1a4a:	8c 2f       	mov	r24, r28
    1a4c:	90 e0       	ldi	r25, 0x00	; 0
    1a4e:	22 23       	and	r18, r18
    1a50:	51 f0       	breq	.+20     	; 0x1a66 <CleanInput+0x32>
        data[cnt] = data[x];
    1a52:	d8 01       	movw	r26, r16
    1a54:	a8 0f       	add	r26, r24
    1a56:	b9 1f       	adc	r27, r25
    1a58:	2c 93       	st	X, r18
        if (InpOkChk(data[x])) ++cnt;
    1a5a:	80 81       	ld	r24, Z
    1a5c:	dd df       	rcall	.-70     	; 0x1a18 <InpOkChk>
    1a5e:	81 11       	cpse	r24, r1
    1a60:	cf 5f       	subi	r28, 0xFF	; 255
}

//Cleans input of garbage and returns length of cleaned input "o->d2  !\0" becomes "od2\0"
uint8_t CleanInput(uint8_t *data){
    uint8_t cnt = 0;
    for (uint8_t x=0; data[x]!=0; ++x){
    1a62:	df 5f       	subi	r29, 0xFF	; 255
    1a64:	ee cf       	rjmp	.-36     	; 0x1a42 <CleanInput+0xe>
        data[cnt] = data[x];
        if (InpOkChk(data[x])) ++cnt;
    }
    data[cnt] = 0;
    1a66:	f8 01       	movw	r30, r16
    1a68:	e8 0f       	add	r30, r24
    1a6a:	f9 1f       	adc	r31, r25
    1a6c:	10 82       	st	Z, r1
    return cnt;
}
    1a6e:	8c 2f       	mov	r24, r28
    1a70:	df 91       	pop	r29
    1a72:	cf 91       	pop	r28
    1a74:	1f 91       	pop	r17
    1a76:	0f 91       	pop	r16
    1a78:	08 95       	ret

00001a7a <CheckSend>:

//Send routine, optimized for low memory usage
uint8_t CheckSend(){
    1a7a:	cf 93       	push	r28
    static uint8_t txPart;
    uint8_t EEreadLength=0;

    //Check if more string(part)s have to be sent to the serial output if previous send operation is completed
    if ((txAddrNow < TXLISTLEN) && serTxDone){
    1a7c:	20 91 1f 3a 	lds	r18, 0x3A1F	; 0x803a1f <txAddrNow>
    1a80:	28 30       	cpi	r18, 0x08	; 8
    1a82:	08 f0       	brcs	.+2      	; 0x1a86 <CheckSend+0xc>
    1a84:	47 c0       	rjmp	.+142    	; 0x1b14 <CheckSend+0x9a>
    1a86:	80 91 08 38 	lds	r24, 0x3808	; 0x803808 <serTxDone>
    1a8a:	88 23       	and	r24, r24
    1a8c:	09 f4       	brne	.+2      	; 0x1a90 <CheckSend+0x16>
    1a8e:	42 c0       	rjmp	.+132    	; 0x1b14 <CheckSend+0x9a>
        if (txStrLen[txAddrNow] == 0){
    1a90:	82 2f       	mov	r24, r18
    1a92:	90 e0       	ldi	r25, 0x00	; 0
    1a94:	fc 01       	movw	r30, r24
    1a96:	e0 5e       	subi	r30, 0xE0	; 224
    1a98:	f5 4c       	sbci	r31, 0xC5	; 197
    1a9a:	e0 81       	ld	r30, Z
    1a9c:	e1 11       	cpse	r30, r1
    1a9e:	06 c0       	rjmp	.+12     	; 0x1aac <CheckSend+0x32>
            txPart = 0;
    1aa0:	10 92 e0 38 	sts	0x38E0, r1	; 0x8038e0 <txPart.3936>
            txAddrNow = TXLISTLEN;
    1aa4:	88 e0       	ldi	r24, 0x08	; 8
    1aa6:	80 93 1f 3a 	sts	0x3A1F, r24	; 0x803a1f <txAddrNow>
    1aaa:	2c c0       	rjmp	.+88     	; 0x1b04 <CheckSend+0x8a>
        } else if (txPart < txStrLen[txAddrNow]){
    1aac:	50 91 e0 38 	lds	r21, 0x38E0	; 0x8038e0 <txPart.3936>
    1ab0:	5e 17       	cp	r21, r30
    1ab2:	50 f5       	brcc	.+84     	; 0x1b08 <CheckSend+0x8e>
            EEreadLength = txStrLen[txAddrNow]-txPart;
    1ab4:	ce 2f       	mov	r28, r30
    1ab6:	c5 1b       	sub	r28, r21
    1ab8:	c1 32       	cpi	r28, 0x21	; 33
    1aba:	08 f0       	brcs	.+2      	; 0x1abe <CheckSend+0x44>
    1abc:	c0 e2       	ldi	r28, 0x20	; 32
            if (EEreadLength>=TXLEN) EEreadLength = TXLEN-1;
            ExtEERead(txAddrList[txAddrNow]+txPart, EEreadLength, txTypeNow, &txBuffer[0]);
    1abe:	88 0f       	add	r24, r24
    1ac0:	99 1f       	adc	r25, r25
    1ac2:	fc 01       	movw	r30, r24
    1ac4:	e8 5d       	subi	r30, 0xD8	; 216
    1ac6:	f5 4c       	sbci	r31, 0xC5	; 197
    1ac8:	80 81       	ld	r24, Z
    1aca:	91 81       	ldd	r25, Z+1	; 0x01
    1acc:	29 ee       	ldi	r18, 0xE9	; 233
    1ace:	3a e3       	ldi	r19, 0x3A	; 58
    1ad0:	40 91 1e 3a 	lds	r20, 0x3A1E	; 0x803a1e <txTypeNow>
    1ad4:	6c 2f       	mov	r22, r28
    1ad6:	85 0f       	add	r24, r21
    1ad8:	91 1d       	adc	r25, r1
    1ada:	6e dd       	rcall	.-1316   	; 0x15b8 <ExtEERead>
            txPart += EEreadLength;
    1adc:	80 91 e0 38 	lds	r24, 0x38E0	; 0x8038e0 <txPart.3936>
    1ae0:	8c 0f       	add	r24, r28
    1ae2:	80 93 e0 38 	sts	0x38E0, r24	; 0x8038e0 <txPart.3936>
            txBuffer[EEreadLength] = 0; //Add string terminator after piece to send to plug memory leak
    1ae6:	ec 2f       	mov	r30, r28
    1ae8:	f0 e0       	ldi	r31, 0x00	; 0
    1aea:	e7 51       	subi	r30, 0x17	; 23
    1aec:	f5 4c       	sbci	r31, 0xC5	; 197
    1aee:	10 82       	st	Z, r1
            if ((txBuffer[0] == 0) && (EEreadLength)) txBuffer[0] = 0xDB; //Block character when data wrong.
    1af0:	80 91 e9 3a 	lds	r24, 0x3AE9	; 0x803ae9 <txBuffer>
    1af4:	81 11       	cpse	r24, r1
    1af6:	03 c0       	rjmp	.+6      	; 0x1afe <CheckSend+0x84>
    1af8:	8b ed       	ldi	r24, 0xDB	; 219
    1afa:	80 93 e9 3a 	sts	0x3AE9, r24	; 0x803ae9 <txBuffer>
            SerSend(&txBuffer[0]);
    1afe:	89 ee       	ldi	r24, 0xE9	; 233
    1b00:	9a e3       	ldi	r25, 0x3A	; 58
    1b02:	bb d9       	rcall	.-3210   	; 0xe7a <SerSend>
        } else {
            txPart = 0;
            ++txAddrNow;
        }
    } else if (serTxDone) return 0; //All is sent!
    return 1; //Still sending, do not change the data in the tx variables
    1b04:	81 e0       	ldi	r24, 0x01	; 1
    1b06:	0b c0       	rjmp	.+22     	; 0x1b1e <CheckSend+0xa4>
            txPart += EEreadLength;
            txBuffer[EEreadLength] = 0; //Add string terminator after piece to send to plug memory leak
            if ((txBuffer[0] == 0) && (EEreadLength)) txBuffer[0] = 0xDB; //Block character when data wrong.
            SerSend(&txBuffer[0]);
        } else {
            txPart = 0;
    1b08:	10 92 e0 38 	sts	0x38E0, r1	; 0x8038e0 <txPart.3936>
            ++txAddrNow;
    1b0c:	2f 5f       	subi	r18, 0xFF	; 255
    1b0e:	20 93 1f 3a 	sts	0x3A1F, r18	; 0x803a1f <txAddrNow>
    1b12:	f8 cf       	rjmp	.-16     	; 0x1b04 <CheckSend+0x8a>
        }
    } else if (serTxDone) return 0; //All is sent!
    1b14:	90 91 08 38 	lds	r25, 0x3808	; 0x803808 <serTxDone>
    1b18:	81 e0       	ldi	r24, 0x01	; 1
    1b1a:	91 11       	cpse	r25, r1
    1b1c:	80 e0       	ldi	r24, 0x00	; 0
    return 1; //Still sending, do not change the data in the tx variables
}
    1b1e:	cf 91       	pop	r28
    1b20:	08 95       	ret

00001b22 <CheckResponse>:

//Send another part of the response and play the effect afterwards
uint8_t CheckResponse(){
    1b22:	cf 93       	push	r28
    1b24:	df 93       	push	r29
    static uint8_t number = 0;
    if (responseList){
    1b26:	c0 91 f2 38 	lds	r28, 0x38F2	; 0x8038f2 <responseList>
    1b2a:	cc 23       	and	r28, r28
    1b2c:	e9 f1       	breq	.+122    	; 0x1ba8 <CheckResponse+0x86>
        --responseList;
    1b2e:	c1 50       	subi	r28, 0x01	; 1
    1b30:	c0 93 f2 38 	sts	0x38F2, r28	; 0x8038f2 <responseList>
        if (reactStr[0][number] == CURR_LOC) {
    1b34:	d0 91 df 38 	lds	r29, 0x38DF	; 0x8038df <number.3940>
    1b38:	2d 2f       	mov	r18, r29
    1b3a:	30 e0       	ldi	r19, 0x00	; 0
    1b3c:	f9 01       	movw	r30, r18
    1b3e:	ee 0f       	add	r30, r30
    1b40:	ff 1f       	adc	r31, r31
    1b42:	ed 50       	subi	r30, 0x0D	; 13
    1b44:	f7 4c       	sbci	r31, 0xC7	; 199
    1b46:	80 81       	ld	r24, Z
    1b48:	91 81       	ldd	r25, Z+1	; 0x01
    1b4a:	80 3f       	cpi	r24, 0xF0	; 240
    1b4c:	4f ef       	ldi	r20, 0xFF	; 255
    1b4e:	94 07       	cpc	r25, r20
    1b50:	51 f4       	brne	.+20     	; 0x1b66 <CheckResponse+0x44>
            PrepareSending(currObj.addrStr[NAME], currObj.lenStr[NAME], GAME);
    1b52:	60 91 0d 3a 	lds	r22, 0x3A0D	; 0x803a0d <currObj+0x1a>
    1b56:	70 91 0e 3a 	lds	r23, 0x3A0E	; 0x803a0e <currObj+0x1b>
    1b5a:	40 e0       	ldi	r20, 0x00	; 0
    1b5c:	80 91 ff 39 	lds	r24, 0x39FF	; 0x8039ff <currObj+0xc>
    1b60:	90 91 00 3a 	lds	r25, 0x3A00	; 0x803a00 <currObj+0xd>
    1b64:	0d c0       	rjmp	.+26     	; 0x1b80 <CheckResponse+0x5e>
        } else {
            PrepareSending(reactStr[0][number], reactStr[1][number], reactStr[2][number]);
    1b66:	d9 01       	movw	r26, r18
    1b68:	aa 0f       	add	r26, r26
    1b6a:	bb 1f       	adc	r27, r27
    1b6c:	ad 58       	subi	r26, 0x8D	; 141
    1b6e:	b6 4c       	sbci	r27, 0xC6	; 198
    1b70:	22 0f       	add	r18, r18
    1b72:	33 1f       	adc	r19, r19
    1b74:	f9 01       	movw	r30, r18
    1b76:	ed 5c       	subi	r30, 0xCD	; 205
    1b78:	f6 4c       	sbci	r31, 0xC6	; 198
    1b7a:	60 81       	ld	r22, Z
    1b7c:	71 81       	ldd	r23, Z+1	; 0x01
    1b7e:	4c 91       	ld	r20, X
    1b80:	72 dd       	rcall	.-1308   	; 0x1666 <PrepareSending>
        }
        ++number;
    1b82:	df 5f       	subi	r29, 0xFF	; 255
    1b84:	d0 93 df 38 	sts	0x38DF, r29	; 0x8038df <number.3940>

        if (responseList == 0) {
    1b88:	c1 11       	cpse	r28, r1
    1b8a:	0d c0       	rjmp	.+26     	; 0x1ba6 <CheckResponse+0x84>
            effect = currObj.byteField[EFFECTS];
    1b8c:	80 91 f7 39 	lds	r24, 0x39F7	; 0x8039f7 <currObj+0x4>
    1b90:	90 e0       	ldi	r25, 0x00	; 0
    1b92:	80 93 2d 38 	sts	0x382D, r24	; 0x80382d <effect>
    1b96:	90 93 2e 38 	sts	0x382E, r25	; 0x80382e <effect+0x1>
            RXCNT = 0;
    1b9a:	1d ba       	out	0x1d, r1	; 29
            serRxDone = 0;
    1b9c:	10 92 37 38 	sts	0x3837, r1	; 0x803837 <serRxDone>
            number = 0;
    1ba0:	10 92 df 38 	sts	0x38DF, r1	; 0x8038df <number.3940>
    1ba4:	01 c0       	rjmp	.+2      	; 0x1ba8 <CheckResponse+0x86>
            return 0;
        }
        return 1;
    1ba6:	c1 e0       	ldi	r28, 0x01	; 1
    }
    return 0;
}
    1ba8:	8c 2f       	mov	r24, r28
    1baa:	df 91       	pop	r29
    1bac:	cf 91       	pop	r28
    1bae:	08 95       	ret

00001bb0 <CheckInput>:

//User input check (and validation)
uint8_t CheckInput(uint8_t *data){
    1bb0:	4f 92       	push	r4
    1bb2:	5f 92       	push	r5
    1bb4:	6f 92       	push	r6
    1bb6:	7f 92       	push	r7
    1bb8:	8f 92       	push	r8
    1bba:	9f 92       	push	r9
    1bbc:	af 92       	push	r10
    1bbe:	bf 92       	push	r11
    1bc0:	cf 92       	push	r12
    1bc2:	df 92       	push	r13
    1bc4:	ef 92       	push	r14
    1bc6:	ff 92       	push	r15
    1bc8:	0f 93       	push	r16
    1bca:	1f 93       	push	r17
    1bcc:	cf 93       	push	r28
    1bce:	df 93       	push	r29
    1bd0:	cd b7       	in	r28, 0x3d	; 61
    1bd2:	de b7       	in	r29, 0x3e	; 62
    1bd4:	a1 97       	sbiw	r28, 0x21	; 33
    1bd6:	cd bf       	out	0x3d, r28	; 61
    1bd8:	de bf       	out	0x3e, r29	; 62
    1bda:	8c 01       	movw	r16, r24
    
    //Load game data after reboot
    if (currDepth == 0xff) {
    1bdc:	80 91 26 38 	lds	r24, 0x3826	; 0x803826 <currDepth>
    1be0:	8f 3f       	cpi	r24, 0xFF	; 255
    1be2:	59 f5       	brne	.+86     	; 0x1c3a <CheckInput+0x8a>
        //Start at first location
        PopulateObject(route[0], &currObj);
    1be4:	63 ef       	ldi	r22, 0xF3	; 243
    1be6:	79 e3       	ldi	r23, 0x39	; 57
    1be8:	80 91 b3 39 	lds	r24, 0x39B3	; 0x8039b3 <route>
    1bec:	90 91 b4 39 	lds	r25, 0x39B4	; 0x8039b4 <route+0x1>
    1bf0:	ee dd       	rcall	.-1060   	; 0x17ce <PopulateObject>
        currDepth = 0;
    1bf2:	10 92 26 38 	sts	0x3826, r1	; 0x803826 <currDepth>

        //Play an effect if configured
        if ((effect < 0x0100) && (effect ^ currObj.byteField[EFFECTS])){
    1bf6:	80 91 2d 38 	lds	r24, 0x382D	; 0x80382d <effect>
    1bfa:	90 91 2e 38 	lds	r25, 0x382E	; 0x80382e <effect+0x1>
    1bfe:	8f 3f       	cpi	r24, 0xFF	; 255
    1c00:	91 05       	cpc	r25, r1
    1c02:	09 f0       	breq	.+2      	; 0x1c06 <CheckInput+0x56>
    1c04:	d0 f4       	brcc	.+52     	; 0x1c3a <CheckInput+0x8a>
    1c06:	80 91 f7 39 	lds	r24, 0x39F7	; 0x8039f7 <currObj+0x4>
    1c0a:	90 e0       	ldi	r25, 0x00	; 0
    1c0c:	20 91 2d 38 	lds	r18, 0x382D	; 0x80382d <effect>
    1c10:	30 91 2e 38 	lds	r19, 0x382E	; 0x80382e <effect+0x1>
    1c14:	82 17       	cp	r24, r18
    1c16:	93 07       	cpc	r25, r19
    1c18:	81 f0       	breq	.+32     	; 0x1c3a <CheckInput+0x8a>
            effect = currObj.byteField[EFFECTS];
    1c1a:	80 93 2d 38 	sts	0x382D, r24	; 0x80382d <effect>
    1c1e:	90 93 2e 38 	sts	0x382E, r25	; 0x80382e <effect+0x1>
            auStart = ((effect&0xE0)>0);
    1c22:	80 91 2d 38 	lds	r24, 0x382D	; 0x80382d <effect>
    1c26:	90 91 2e 38 	lds	r25, 0x382E	; 0x80382e <effect+0x1>
    1c2a:	80 7e       	andi	r24, 0xE0	; 224
    1c2c:	99 27       	eor	r25, r25
    1c2e:	21 e0       	ldi	r18, 0x01	; 1
    1c30:	89 2b       	or	r24, r25
    1c32:	09 f4       	brne	.+2      	; 0x1c36 <CheckInput+0x86>
    1c34:	20 e0       	ldi	r18, 0x00	; 0
    1c36:	20 93 2c 38 	sts	0x382C, r18	; 0x80382c <auStart>
        }
    }

    if (serRxDone){
    1c3a:	80 91 37 38 	lds	r24, 0x3837	; 0x803837 <serRxDone>
    1c3e:	88 23       	and	r24, r24
    1c40:	09 f4       	brne	.+2      	; 0x1c44 <CheckInput+0x94>
    1c42:	5f c2       	rjmp	.+1214   	; 0x2102 <CheckInput+0x552>

        //Special input requested from user by game
        if (specialInput[0]){
    1c44:	80 91 e2 38 	lds	r24, 0x38E2	; 0x8038e2 <specialInput>
    1c48:	88 23       	and	r24, r24
    1c4a:	09 f4       	brne	.+2      	; 0x1c4e <CheckInput+0x9e>
    1c4c:	57 c0       	rjmp	.+174    	; 0x1cfc <CheckInput+0x14c>
            specialPassed = 0;
    1c4e:	10 92 e1 38 	sts	0x38E1, r1	; 0x8038e1 <specialPassed>
            data[0] = 'a';
    1c52:	81 e6       	ldi	r24, 0x61	; 97
    1c54:	f8 01       	movw	r30, r16
    1c56:	80 83       	st	Z, r24
            
            //Normal code challenge
            if (StartsWith((uint8_t *)&serRx[0], &specialInput[0])) {
    1c58:	62 ee       	ldi	r22, 0xE2	; 226
    1c5a:	78 e3       	ldi	r23, 0x38	; 56
    1c5c:	8d e4       	ldi	r24, 0x4D	; 77
    1c5e:	9a e3       	ldi	r25, 0x3A	; 58
    1c60:	e8 dc       	rcall	.-1584   	; 0x1632 <StartsWith>
    1c62:	f8 2e       	mov	r15, r24
    1c64:	88 23       	and	r24, r24
    1c66:	21 f0       	breq	.+8      	; 0x1c70 <CheckInput+0xc0>
                specialPassed = 1;
    1c68:	81 e0       	ldi	r24, 0x01	; 1
    1c6a:	80 93 e1 38 	sts	0x38E1, r24	; 0x8038e1 <specialPassed>
    1c6e:	04 c0       	rjmp	.+8      	; 0x1c78 <CheckInput+0xc8>
                //specialInput[0] = 0;
                //data[1] = 0;

            //Special challenge 1
            } else if ((specialInput[0] == '1')&&(specialInput[2] == 0)) {
    1c70:	80 91 e2 38 	lds	r24, 0x38E2	; 0x8038e2 <specialInput>
    1c74:	81 33       	cpi	r24, 0x31	; 49
    1c76:	11 f0       	breq	.+4      	; 0x1c7c <CheckInput+0xcc>
                responseList = 32;
                return 1;
            }
        } 
        //Data received, but not any of the commands above
        return 0;
    1c78:	f1 2c       	mov	r15, r1
    1c7a:	45 c2       	rjmp	.+1162   	; 0x2106 <CheckInput+0x556>
                specialPassed = 1;
                //specialInput[0] = 0;
                //data[1] = 0;

            //Special challenge 1
            } else if ((specialInput[0] == '1')&&(specialInput[2] == 0)) {
    1c7c:	80 91 e4 38 	lds	r24, 0x38E4	; 0x8038e4 <specialInput+0x2>
    1c80:	81 11       	cpse	r24, r1
    1c82:	fa cf       	rjmp	.-12     	; 0x1c78 <CheckInput+0xc8>
                uint8_t inputLen = CleanInput((uint8_t *)&serRx[0]);
    1c84:	8d e4       	ldi	r24, 0x4D	; 77
    1c86:	9a e3       	ldi	r25, 0x3A	; 58
    1c88:	d5 de       	rcall	.-598    	; 0x1a34 <CleanInput>
                specialPassed = 2;
    1c8a:	92 e0       	ldi	r25, 0x02	; 2
    1c8c:	90 93 e1 38 	sts	0x38E1, r25	; 0x8038e1 <specialPassed>
                data[1] = 0;
    1c90:	f8 01       	movw	r30, r16
    1c92:	11 82       	std	Z+1, r1	; 0x01

                if (inputLen >= 2) {
    1c94:	82 30       	cpi	r24, 0x02	; 2
    1c96:	80 f3       	brcs	.-32     	; 0x1c78 <CheckInput+0xc8>
                    if ((serRx[0] == '1')||(serRx[0] == '2')||(serRx[0] == '3')||(serRx[0] == '4')) {
    1c98:	80 91 4d 3a 	lds	r24, 0x3A4D	; 0x803a4d <serRx>
    1c9c:	81 33       	cpi	r24, 0x31	; 49
    1c9e:	61 f0       	breq	.+24     	; 0x1cb8 <CheckInput+0x108>
    1ca0:	80 91 4d 3a 	lds	r24, 0x3A4D	; 0x803a4d <serRx>
    1ca4:	82 33       	cpi	r24, 0x32	; 50
    1ca6:	41 f0       	breq	.+16     	; 0x1cb8 <CheckInput+0x108>
    1ca8:	80 91 4d 3a 	lds	r24, 0x3A4D	; 0x803a4d <serRx>
    1cac:	83 33       	cpi	r24, 0x33	; 51
    1cae:	21 f0       	breq	.+8      	; 0x1cb8 <CheckInput+0x108>
    1cb0:	80 91 4d 3a 	lds	r24, 0x3A4D	; 0x803a4d <serRx>
    1cb4:	84 33       	cpi	r24, 0x34	; 52
    1cb6:	01 f7       	brne	.-64     	; 0x1c78 <CheckInput+0xc8>
                        serRx[1] |= 0x20;
    1cb8:	80 91 4e 3a 	lds	r24, 0x3A4E	; 0x803a4e <serRx+0x1>
    1cbc:	80 62       	ori	r24, 0x20	; 32
    1cbe:	80 93 4e 3a 	sts	0x3A4E, r24	; 0x803a4e <serRx+0x1>
                        if ((serRx[1] == 'a')||(serRx[1] == 'e')||(serRx[1] == 'f')||(serRx[1] == 'w')) {
    1cc2:	80 91 4e 3a 	lds	r24, 0x3A4E	; 0x803a4e <serRx+0x1>
    1cc6:	81 36       	cpi	r24, 0x61	; 97
    1cc8:	61 f0       	breq	.+24     	; 0x1ce2 <CheckInput+0x132>
    1cca:	80 91 4e 3a 	lds	r24, 0x3A4E	; 0x803a4e <serRx+0x1>
    1cce:	85 36       	cpi	r24, 0x65	; 101
    1cd0:	41 f0       	breq	.+16     	; 0x1ce2 <CheckInput+0x132>
    1cd2:	80 91 4e 3a 	lds	r24, 0x3A4E	; 0x803a4e <serRx+0x1>
    1cd6:	86 36       	cpi	r24, 0x66	; 102
    1cd8:	21 f0       	breq	.+8      	; 0x1ce2 <CheckInput+0x132>
    1cda:	80 91 4e 3a 	lds	r24, 0x3A4E	; 0x803a4e <serRx+0x1>
    1cde:	87 37       	cpi	r24, 0x77	; 119
    1ce0:	59 f6       	brne	.-106    	; 0x1c78 <CheckInput+0xc8>
                            data[1] = specialInput[1]+0x11;
    1ce2:	80 91 e3 38 	lds	r24, 0x38E3	; 0x8038e3 <specialInput+0x1>
    1ce6:	8f 5e       	subi	r24, 0xEF	; 239
    1ce8:	f8 01       	movw	r30, r16
    1cea:	81 83       	std	Z+1, r24	; 0x01
                            data[2] = serRx[0];
    1cec:	80 91 4d 3a 	lds	r24, 0x3A4D	; 0x803a4d <serRx>
    1cf0:	82 83       	std	Z+2, r24	; 0x02
                            data[3] = serRx[1];
    1cf2:	80 91 4e 3a 	lds	r24, 0x3A4E	; 0x803a4e <serRx+0x1>
    1cf6:	83 83       	std	Z+3, r24	; 0x03
                            data[4] = 0;
    1cf8:	14 82       	std	Z+4, r1	; 0x04
    1cfa:	05 c2       	rjmp	.+1034   	; 0x2106 <CheckInput+0x556>
        
        //Normal input
        } else {

            //Change status bit
            if ((serRx[0] == '#')&&(RXCNT == 6)){
    1cfc:	80 91 4d 3a 	lds	r24, 0x3A4D	; 0x803a4d <serRx>
    1d00:	83 32       	cpi	r24, 0x23	; 35
    1d02:	81 f5       	brne	.+96     	; 0x1d64 <CheckInput+0x1b4>
    1d04:	8d b3       	in	r24, 0x1d	; 29
    1d06:	86 30       	cpi	r24, 0x06	; 6
    1d08:	69 f5       	brne	.+90     	; 0x1d64 <CheckInput+0x1b4>
    1d0a:	81 e0       	ldi	r24, 0x01	; 1
    1d0c:	90 e0       	ldi	r25, 0x00	; 0
    1d0e:	10 e0       	ldi	r17, 0x00	; 0
                uint8_t bitNr = 0;

                for (uint8_t x=1; x<4; ++x) {
                    serRx[x] -= '0';
    1d10:	fc 01       	movw	r30, r24
    1d12:	e3 5b       	subi	r30, 0xB3	; 179
    1d14:	f5 4c       	sbci	r31, 0xC5	; 197
    1d16:	20 81       	ld	r18, Z
    1d18:	20 53       	subi	r18, 0x30	; 48
    1d1a:	20 83       	st	Z, r18
                    bitNr *= 10;
    1d1c:	11 0f       	add	r17, r17
    1d1e:	21 2f       	mov	r18, r17
    1d20:	22 0f       	add	r18, r18
    1d22:	22 0f       	add	r18, r18
    1d24:	12 0f       	add	r17, r18
                    if (serRx[1] > 2) break;
    1d26:	20 91 4e 3a 	lds	r18, 0x3A4E	; 0x803a4e <serRx+0x1>
    1d2a:	23 30       	cpi	r18, 0x03	; 3
    1d2c:	48 f4       	brcc	.+18     	; 0x1d40 <CheckInput+0x190>
                    if (serRx[x] < 10) {
    1d2e:	20 81       	ld	r18, Z
    1d30:	2a 30       	cpi	r18, 0x0A	; 10
    1d32:	b0 f4       	brcc	.+44     	; 0x1d60 <CheckInput+0x1b0>
                        bitNr += serRx[x];
    1d34:	20 81       	ld	r18, Z
    1d36:	12 0f       	add	r17, r18
    1d38:	01 96       	adiw	r24, 0x01	; 1

            //Change status bit
            if ((serRx[0] == '#')&&(RXCNT == 6)){
                uint8_t bitNr = 0;

                for (uint8_t x=1; x<4; ++x) {
    1d3a:	84 30       	cpi	r24, 0x04	; 4
    1d3c:	91 05       	cpc	r25, r1
    1d3e:	41 f7       	brne	.-48     	; 0x1d10 <CheckInput+0x160>
                        continue;
                    }
                    bitNr = 0;
                    break;
                }
                if ((bitNr)&&(bitNr!=128)) {
    1d40:	81 2f       	mov	r24, r17
    1d42:	8f 77       	andi	r24, 0x7F	; 127
    1d44:	69 f0       	breq	.+26     	; 0x1d60 <CheckInput+0x1b0>
                    if (Cheat(0xff-bitNr, serRx[4]<<8|serRx[5])) UpdateState(bitNr);
    1d46:	80 91 51 3a 	lds	r24, 0x3A51	; 0x803a51 <serRx+0x4>
    1d4a:	60 91 52 3a 	lds	r22, 0x3A52	; 0x803a52 <serRx+0x5>
    1d4e:	70 e0       	ldi	r23, 0x00	; 0
    1d50:	78 2b       	or	r23, r24
    1d52:	81 2f       	mov	r24, r17
    1d54:	80 95       	com	r24
    1d56:	cd db       	rcall	.-2150   	; 0x14f2 <Cheat>
    1d58:	88 23       	and	r24, r24
    1d5a:	11 f0       	breq	.+4      	; 0x1d60 <CheckInput+0x1b0>
    1d5c:	81 2f       	mov	r24, r17
    1d5e:	22 da       	rcall	.-3004   	; 0x11a4 <UpdateState>
                }
                responseList = SetStandardResponse(0);
    1d60:	80 e0       	ldi	r24, 0x00	; 0
    1d62:	50 c0       	rjmp	.+160    	; 0x1e04 <CheckInput+0x254>
    1d64:	d8 01       	movw	r26, r16
    1d66:	80 e0       	ldi	r24, 0x00	; 0
    1d68:	90 e0       	ldi	r25, 0x00	; 0
                return 1;            
            }
            
            //Read up to the \0 character and convert to lower case.
            for (uint8_t x=0; x<RXLEN; ++x){
                if ((serRx[x]<'A')||(serRx[x]>'Z')) data[x]=serRx[x]; else data[x]=serRx[x]|0x20;
    1d6a:	fc 01       	movw	r30, r24
    1d6c:	e3 5b       	subi	r30, 0xB3	; 179
    1d6e:	f5 4c       	sbci	r31, 0xC5	; 197
    1d70:	20 81       	ld	r18, Z
    1d72:	21 34       	cpi	r18, 0x41	; 65
    1d74:	18 f0       	brcs	.+6      	; 0x1d7c <CheckInput+0x1cc>
    1d76:	20 81       	ld	r18, Z
    1d78:	2b 35       	cpi	r18, 0x5B	; 91
    1d7a:	10 f0       	brcs	.+4      	; 0x1d80 <CheckInput+0x1d0>
    1d7c:	20 81       	ld	r18, Z
    1d7e:	02 c0       	rjmp	.+4      	; 0x1d84 <CheckInput+0x1d4>
    1d80:	20 81       	ld	r18, Z
    1d82:	20 62       	ori	r18, 0x20	; 32
    1d84:	2c 93       	st	X, r18
                if (serRx[x] == 0) {
    1d86:	20 81       	ld	r18, Z
    1d88:	21 11       	cpse	r18, r1
    1d8a:	05 c0       	rjmp	.+10     	; 0x1d96 <CheckInput+0x1e6>
                    data[x] = 0;
    1d8c:	f8 01       	movw	r30, r16
    1d8e:	e8 0f       	add	r30, r24
    1d90:	f1 1d       	adc	r31, r1
    1d92:	10 82       	st	Z, r1
                    break;
    1d94:	05 c0       	rjmp	.+10     	; 0x1da0 <CheckInput+0x1f0>
    1d96:	01 96       	adiw	r24, 0x01	; 1
    1d98:	11 96       	adiw	r26, 0x01	; 1
                responseList = SetStandardResponse(0);
                return 1;            
            }
            
            //Read up to the \0 character and convert to lower case.
            for (uint8_t x=0; x<RXLEN; ++x){
    1d9a:	81 34       	cpi	r24, 0x41	; 65
    1d9c:	91 05       	cpc	r25, r1
    1d9e:	29 f7       	brne	.-54     	; 0x1d6a <CheckInput+0x1ba>
                    break;
                }
            }

            //No text
            if (serRx[0] == 0){
    1da0:	80 91 4d 3a 	lds	r24, 0x3A4D	; 0x803a4d <serRx>
                data[0] = 0;
    1da4:	f8 01       	movw	r30, r16
                    break;
                }
            }

            //No text
            if (serRx[0] == 0){
    1da6:	81 11       	cpse	r24, r1
    1da8:	05 c0       	rjmp	.+10     	; 0x1db4 <CheckInput+0x204>
                data[0] = 0;
    1daa:	10 82       	st	Z, r1
                RXCNT = 0;
    1dac:	1d ba       	out	0x1d, r1	; 29
                serRxDone = 0;
    1dae:	10 92 37 38 	sts	0x3837, r1	; 0x803837 <serRxDone>
    1db2:	a7 c1       	rjmp	.+846    	; 0x2102 <CheckInput+0x552>
                return 1;
            }

            //Help text
            if ((data[0] == '?')||(data[0] == 'h')){
    1db4:	80 81       	ld	r24, Z
    1db6:	8f 33       	cpi	r24, 0x3F	; 63
    1db8:	11 f0       	breq	.+4      	; 0x1dbe <CheckInput+0x20e>
    1dba:	88 36       	cpi	r24, 0x68	; 104
    1dbc:	39 f5       	brne	.+78     	; 0x1e0c <CheckInput+0x25c>
    return 0;
}

//
void SetResponse(uint8_t number, uint16_t address, uint16_t length, uint8_t type){
    reactStr[0][number]=address;
    1dbe:	8b e5       	ldi	r24, 0x5B	; 91
    1dc0:	9a e7       	ldi	r25, 0x7A	; 122
    1dc2:	80 93 f3 38 	sts	0x38F3, r24	; 0x8038f3 <reactStr>
    1dc6:	90 93 f4 38 	sts	0x38F4, r25	; 0x8038f4 <reactStr+0x1>
    reactStr[1][number]=length;
    1dca:	84 e0       	ldi	r24, 0x04	; 4
    1dcc:	90 e0       	ldi	r25, 0x00	; 0
    1dce:	80 93 33 39 	sts	0x3933, r24	; 0x803933 <reactStr+0x40>
    1dd2:	90 93 34 39 	sts	0x3934, r25	; 0x803934 <reactStr+0x41>
    reactStr[2][number]=type;
    1dd6:	81 e0       	ldi	r24, 0x01	; 1
    1dd8:	90 e0       	ldi	r25, 0x00	; 0
    1dda:	80 93 73 39 	sts	0x3973, r24	; 0x803973 <reactStr+0x80>
    1dde:	90 93 74 39 	sts	0x3974, r25	; 0x803974 <reactStr+0x81>
    return 0;
}

//
void SetResponse(uint8_t number, uint16_t address, uint16_t length, uint8_t type){
    reactStr[0][number]=address;
    1de2:	23 e9       	ldi	r18, 0x93	; 147
    1de4:	3b e7       	ldi	r19, 0x7B	; 123
    1de6:	20 93 f5 38 	sts	0x38F5, r18	; 0x8038f5 <reactStr+0x2>
    1dea:	30 93 f6 38 	sts	0x38F6, r19	; 0x8038f6 <reactStr+0x3>
    reactStr[1][number]=length;
    1dee:	2d e6       	ldi	r18, 0x6D	; 109
    1df0:	34 e0       	ldi	r19, 0x04	; 4
    1df2:	20 93 35 39 	sts	0x3935, r18	; 0x803935 <reactStr+0x42>
    1df6:	30 93 36 39 	sts	0x3936, r19	; 0x803936 <reactStr+0x43>
    reactStr[2][number]=type;
    1dfa:	80 93 75 39 	sts	0x3975, r24	; 0x803975 <reactStr+0x82>
    1dfe:	90 93 76 39 	sts	0x3976, r25	; 0x803976 <reactStr+0x83>

            //Help text
            if ((data[0] == '?')||(data[0] == 'h')){
                SetResponse(0, A_LF, 4, TEASER);
                SetResponse(1, A_HELP, L_HELP, TEASER);
                responseList = SetStandardResponse(2);
    1e02:	82 e0       	ldi	r24, 0x02	; 2
    1e04:	68 dc       	rcall	.-1840   	; 0x16d6 <SetStandardResponse>
    1e06:	80 93 f2 38 	sts	0x38F2, r24	; 0x8038f2 <responseList>
    1e0a:	7b c1       	rjmp	.+758    	; 0x2102 <CheckInput+0x552>
                return 1;
            }        
        
            //Alphabet text
            if (data[0] == 'a'){
    1e0c:	81 36       	cpi	r24, 0x61	; 97
    1e0e:	d9 f4       	brne	.+54     	; 0x1e46 <CheckInput+0x296>
    return 0;
}

//
void SetResponse(uint8_t number, uint16_t address, uint16_t length, uint8_t type){
    reactStr[0][number]=address;
    1e10:	8b e5       	ldi	r24, 0x5B	; 91
    1e12:	9a e7       	ldi	r25, 0x7A	; 122
    1e14:	80 93 f3 38 	sts	0x38F3, r24	; 0x8038f3 <reactStr>
    1e18:	90 93 f4 38 	sts	0x38F4, r25	; 0x8038f4 <reactStr+0x1>
    reactStr[1][number]=length;
    1e1c:	84 e0       	ldi	r24, 0x04	; 4
    1e1e:	90 e0       	ldi	r25, 0x00	; 0
    1e20:	80 93 33 39 	sts	0x3933, r24	; 0x803933 <reactStr+0x40>
    1e24:	90 93 34 39 	sts	0x3934, r25	; 0x803934 <reactStr+0x41>
    reactStr[2][number]=type;
    1e28:	81 e0       	ldi	r24, 0x01	; 1
    1e2a:	90 e0       	ldi	r25, 0x00	; 0
    1e2c:	80 93 73 39 	sts	0x3973, r24	; 0x803973 <reactStr+0x80>
    1e30:	90 93 74 39 	sts	0x3974, r25	; 0x803974 <reactStr+0x81>
    return 0;
}

//
void SetResponse(uint8_t number, uint16_t address, uint16_t length, uint8_t type){
    reactStr[0][number]=address;
    1e34:	2e e6       	ldi	r18, 0x6E	; 110
    1e36:	3a e7       	ldi	r19, 0x7A	; 122
    1e38:	20 93 f5 38 	sts	0x38F5, r18	; 0x8038f5 <reactStr+0x2>
    1e3c:	30 93 f6 38 	sts	0x38F6, r19	; 0x8038f6 <reactStr+0x3>
    reactStr[1][number]=length;
    1e40:	25 e2       	ldi	r18, 0x25	; 37
    1e42:	31 e0       	ldi	r19, 0x01	; 1
    1e44:	d6 cf       	rjmp	.-84     	; 0x1df2 <CheckInput+0x242>
                responseList = SetStandardResponse(2);
                return 1;
            }

            //Whoami text
            if (data[0] == 'w'){
    1e46:	87 37       	cpi	r24, 0x77	; 119
    1e48:	09 f0       	breq	.+2      	; 0x1e4c <CheckInput+0x29c>
    1e4a:	6e c0       	rjmp	.+220    	; 0x1f28 <CheckInput+0x378>
    return 0;
}

//
void SetResponse(uint8_t number, uint16_t address, uint16_t length, uint8_t type){
    reactStr[0][number]=address;
    1e4c:	8b e5       	ldi	r24, 0x5B	; 91
    1e4e:	9a e7       	ldi	r25, 0x7A	; 122
    1e50:	80 93 f3 38 	sts	0x38F3, r24	; 0x8038f3 <reactStr>
    1e54:	90 93 f4 38 	sts	0x38F4, r25	; 0x8038f4 <reactStr+0x1>
    reactStr[1][number]=length;
    1e58:	84 e0       	ldi	r24, 0x04	; 4
    1e5a:	90 e0       	ldi	r25, 0x00	; 0
    1e5c:	80 93 33 39 	sts	0x3933, r24	; 0x803933 <reactStr+0x40>
    1e60:	90 93 34 39 	sts	0x3934, r25	; 0x803934 <reactStr+0x41>
    reactStr[2][number]=type;
    1e64:	21 e0       	ldi	r18, 0x01	; 1
    1e66:	30 e0       	ldi	r19, 0x00	; 0
    1e68:	20 93 73 39 	sts	0x3973, r18	; 0x803973 <reactStr+0x80>
    1e6c:	30 93 74 39 	sts	0x3974, r19	; 0x803974 <reactStr+0x81>
    return 0;
}

//
void SetResponse(uint8_t number, uint16_t address, uint16_t length, uint8_t type){
    reactStr[0][number]=address;
    1e70:	8b ec       	ldi	r24, 0xCB	; 203
    1e72:	96 e7       	ldi	r25, 0x76	; 118
    1e74:	80 93 f5 38 	sts	0x38F5, r24	; 0x8038f5 <reactStr+0x2>
    1e78:	90 93 f6 38 	sts	0x38F6, r25	; 0x8038f6 <reactStr+0x3>
    reactStr[1][number]=length;
    1e7c:	82 e1       	ldi	r24, 0x12	; 18
    1e7e:	90 e0       	ldi	r25, 0x00	; 0
    1e80:	80 93 35 39 	sts	0x3935, r24	; 0x803935 <reactStr+0x42>
    1e84:	90 93 36 39 	sts	0x3936, r25	; 0x803936 <reactStr+0x43>
    reactStr[2][number]=type;
    1e88:	20 93 75 39 	sts	0x3975, r18	; 0x803975 <reactStr+0x82>
    1e8c:	30 93 76 39 	sts	0x3976, r19	; 0x803976 <reactStr+0x83>

            //Whoami text
            if (data[0] == 'w'){
                SetResponse(0, A_LF, 4, TEASER);
                SetResponse(1, A_HELLO, L_HELLO, TEASER);
                if (whoami == 1) {
    1e90:	80 91 30 38 	lds	r24, 0x3830	; 0x803830 <whoami>
    1e94:	81 30       	cpi	r24, 0x01	; 1
    1e96:	19 f4       	brne	.+6      	; 0x1e9e <CheckInput+0x2ee>
    return 0;
}

//
void SetResponse(uint8_t number, uint16_t address, uint16_t length, uint8_t type){
    reactStr[0][number]=address;
    1e98:	85 ec       	ldi	r24, 0xC5	; 197
    1e9a:	96 e7       	ldi	r25, 0x76	; 118
    1e9c:	0f c0       	rjmp	.+30     	; 0x1ebc <CheckInput+0x30c>
            if (data[0] == 'w'){
                SetResponse(0, A_LF, 4, TEASER);
                SetResponse(1, A_HELLO, L_HELLO, TEASER);
                if (whoami == 1) {
                    SetResponse(2, A_ANUBIS, L_ANUBIS, TEASER);
                } else if (whoami == 2) {
    1e9e:	82 30       	cpi	r24, 0x02	; 2
    1ea0:	49 f4       	brne	.+18     	; 0x1eb4 <CheckInput+0x304>
    return 0;
}

//
void SetResponse(uint8_t number, uint16_t address, uint16_t length, uint8_t type){
    reactStr[0][number]=address;
    1ea2:	82 ec       	ldi	r24, 0xC2	; 194
    1ea4:	96 e7       	ldi	r25, 0x76	; 118
    1ea6:	80 93 f7 38 	sts	0x38F7, r24	; 0x8038f7 <reactStr+0x4>
    1eaa:	90 93 f8 38 	sts	0x38F8, r25	; 0x8038f8 <reactStr+0x5>
    reactStr[1][number]=length;
    1eae:	83 e0       	ldi	r24, 0x03	; 3
    1eb0:	90 e0       	ldi	r25, 0x00	; 0
    1eb2:	1e c0       	rjmp	.+60     	; 0x1ef0 <CheckInput+0x340>
                SetResponse(1, A_HELLO, L_HELLO, TEASER);
                if (whoami == 1) {
                    SetResponse(2, A_ANUBIS, L_ANUBIS, TEASER);
                } else if (whoami == 2) {
                    SetResponse(2, A_BES, L_BES, TEASER);
                } else if (whoami == 3) {
    1eb4:	83 30       	cpi	r24, 0x03	; 3
    1eb6:	49 f4       	brne	.+18     	; 0x1eca <CheckInput+0x31a>
    return 0;
}

//
void SetResponse(uint8_t number, uint16_t address, uint16_t length, uint8_t type){
    reactStr[0][number]=address;
    1eb8:	8c eb       	ldi	r24, 0xBC	; 188
    1eba:	96 e7       	ldi	r25, 0x76	; 118
    1ebc:	80 93 f7 38 	sts	0x38F7, r24	; 0x8038f7 <reactStr+0x4>
    1ec0:	90 93 f8 38 	sts	0x38F8, r25	; 0x8038f8 <reactStr+0x5>
    reactStr[1][number]=length;
    1ec4:	86 e0       	ldi	r24, 0x06	; 6
    1ec6:	90 e0       	ldi	r25, 0x00	; 0
    1ec8:	13 c0       	rjmp	.+38     	; 0x1ef0 <CheckInput+0x340>
                    SetResponse(2, A_ANUBIS, L_ANUBIS, TEASER);
                } else if (whoami == 2) {
                    SetResponse(2, A_BES, L_BES, TEASER);
                } else if (whoami == 3) {
                    SetResponse(2, A_KHONSU, L_KHONSU, TEASER);
                } else if (whoami == 4) {
    1eca:	84 30       	cpi	r24, 0x04	; 4
    1ecc:	49 f4       	brne	.+18     	; 0x1ee0 <CheckInput+0x330>
    return 0;
}

//
void SetResponse(uint8_t number, uint16_t address, uint16_t length, uint8_t type){
    reactStr[0][number]=address;
    1ece:	87 eb       	ldi	r24, 0xB7	; 183
    1ed0:	96 e7       	ldi	r25, 0x76	; 118
    1ed2:	80 93 f7 38 	sts	0x38F7, r24	; 0x8038f7 <reactStr+0x4>
    1ed6:	90 93 f8 38 	sts	0x38F8, r25	; 0x8038f8 <reactStr+0x5>
    reactStr[1][number]=length;
    1eda:	85 e0       	ldi	r24, 0x05	; 5
    1edc:	90 e0       	ldi	r25, 0x00	; 0
    1ede:	08 c0       	rjmp	.+16     	; 0x1ef0 <CheckInput+0x340>
    return 0;
}

//
void SetResponse(uint8_t number, uint16_t address, uint16_t length, uint8_t type){
    reactStr[0][number]=address;
    1ee0:	80 e4       	ldi	r24, 0x40	; 64
    1ee2:	96 e7       	ldi	r25, 0x76	; 118
    1ee4:	80 93 f7 38 	sts	0x38F7, r24	; 0x8038f7 <reactStr+0x4>
    1ee8:	90 93 f8 38 	sts	0x38F8, r25	; 0x8038f8 <reactStr+0x5>
    reactStr[1][number]=length;
    1eec:	82 e4       	ldi	r24, 0x42	; 66
    1eee:	90 e0       	ldi	r25, 0x00	; 0
    1ef0:	80 93 37 39 	sts	0x3937, r24	; 0x803937 <reactStr+0x44>
    1ef4:	90 93 38 39 	sts	0x3938, r25	; 0x803938 <reactStr+0x45>
    reactStr[2][number]=type;
    1ef8:	20 93 77 39 	sts	0x3977, r18	; 0x803977 <reactStr+0x84>
    1efc:	30 93 78 39 	sts	0x3978, r19	; 0x803978 <reactStr+0x85>
    return 0;
}

//
void SetResponse(uint8_t number, uint16_t address, uint16_t length, uint8_t type){
    reactStr[0][number]=address;
    1f00:	8d e9       	ldi	r24, 0x9D	; 157
    1f02:	96 e7       	ldi	r25, 0x76	; 118
    1f04:	80 93 f9 38 	sts	0x38F9, r24	; 0x8038f9 <reactStr+0x6>
    1f08:	90 93 fa 38 	sts	0x38FA, r25	; 0x8038fa <reactStr+0x7>
    reactStr[1][number]=length;
    1f0c:	8a e1       	ldi	r24, 0x1A	; 26
    1f0e:	90 e0       	ldi	r25, 0x00	; 0
    1f10:	80 93 39 39 	sts	0x3939, r24	; 0x803939 <reactStr+0x46>
    1f14:	90 93 3a 39 	sts	0x393A, r25	; 0x80393a <reactStr+0x47>
    reactStr[2][number]=type;
    1f18:	81 e0       	ldi	r24, 0x01	; 1
    1f1a:	90 e0       	ldi	r25, 0x00	; 0
    1f1c:	80 93 79 39 	sts	0x3979, r24	; 0x803979 <reactStr+0x86>
    1f20:	90 93 7a 39 	sts	0x397A, r25	; 0x80397a <reactStr+0x87>
                    SetResponse(2, A_THOTH, L_THOTH, TEASER);
                } else {
                    SetResponse(2, A_ERROR, L_ERROR, TEASER);
                }
                SetResponse(3, A_PLEASED, L_PLEASED, TEASER);
                responseList = SetStandardResponse(4);
    1f24:	84 e0       	ldi	r24, 0x04	; 4
    1f26:	6e cf       	rjmp	.-292    	; 0x1e04 <CheckInput+0x254>
                return 1;
            }

            //Quit text
            if (data[0] == 'q'){
    1f28:	81 37       	cpi	r24, 0x71	; 113
    1f2a:	d9 f4       	brne	.+54     	; 0x1f62 <CheckInput+0x3b2>
    return 0;
}

//
void SetResponse(uint8_t number, uint16_t address, uint16_t length, uint8_t type){
    reactStr[0][number]=address;
    1f2c:	8b e5       	ldi	r24, 0x5B	; 91
    1f2e:	9a e7       	ldi	r25, 0x7A	; 122
    1f30:	80 93 f3 38 	sts	0x38F3, r24	; 0x8038f3 <reactStr>
    1f34:	90 93 f4 38 	sts	0x38F4, r25	; 0x8038f4 <reactStr+0x1>
    reactStr[1][number]=length;
    1f38:	84 e0       	ldi	r24, 0x04	; 4
    1f3a:	90 e0       	ldi	r25, 0x00	; 0
    1f3c:	80 93 33 39 	sts	0x3933, r24	; 0x803933 <reactStr+0x40>
    1f40:	90 93 34 39 	sts	0x3934, r25	; 0x803934 <reactStr+0x41>
    reactStr[2][number]=type;
    1f44:	81 e0       	ldi	r24, 0x01	; 1
    1f46:	90 e0       	ldi	r25, 0x00	; 0
    1f48:	80 93 73 39 	sts	0x3973, r24	; 0x803973 <reactStr+0x80>
    1f4c:	90 93 74 39 	sts	0x3974, r25	; 0x803974 <reactStr+0x81>
    return 0;
}

//
void SetResponse(uint8_t number, uint16_t address, uint16_t length, uint8_t type){
    reactStr[0][number]=address;
    1f50:	23 e0       	ldi	r18, 0x03	; 3
    1f52:	3a e7       	ldi	r19, 0x7A	; 122
    1f54:	20 93 f5 38 	sts	0x38F5, r18	; 0x8038f5 <reactStr+0x2>
    1f58:	30 93 f6 38 	sts	0x38F6, r19	; 0x8038f6 <reactStr+0x3>
    reactStr[1][number]=length;
    1f5c:	24 e5       	ldi	r18, 0x54	; 84
    1f5e:	30 e0       	ldi	r19, 0x00	; 0
                responseList = SetStandardResponse(2);
                return 1;
            }

            //Fake cheat = reset badge!
            if (StartsWith(&data[0], "iddqd")){
    1f60:	48 cf       	rjmp	.-368    	; 0x1df2 <CheckInput+0x242>
    1f62:	62 e5       	ldi	r22, 0x52	; 82
    1f64:	74 eb       	ldi	r23, 0xB4	; 180
    1f66:	c8 01       	movw	r24, r16
    1f68:	64 db       	rcall	.-2360   	; 0x1632 <StartsWith>
    1f6a:	88 23       	and	r24, r24
    1f6c:	e9 f0       	breq	.+58     	; 0x1fa8 <CheckInput+0x3f8>
            
                //Reset game data by wiping the UUID bits
                for (uint8_t x=0; x<4; ++x){
                    WriteStatusBit(110+x, 0);
    1f6e:	1e e6       	ldi	r17, 0x6E	; 110
    1f70:	60 e0       	ldi	r22, 0x00	; 0
    1f72:	81 2f       	mov	r24, r17
    1f74:	fd d8       	rcall	.-3590   	; 0x1170 <WriteStatusBit>
    1f76:	1f 5f       	subi	r17, 0xFF	; 255

            //Fake cheat = reset badge!
            if (StartsWith(&data[0], "iddqd")){
            
                //Reset game data by wiping the UUID bits
                for (uint8_t x=0; x<4; ++x){
    1f78:	12 37       	cpi	r17, 0x72	; 114
    1f7a:	d1 f7       	brne	.-12     	; 0x1f70 <CheckInput+0x3c0>
                    WriteStatusBit(110+x, 0);
                }
                SaveGameState();
    1f7c:	72 d8       	rcall	.-3868   	; 0x1062 <SaveGameState>
    1f7e:	80 e2       	ldi	r24, 0x20	; 32

                uint8_t cheat[] = "Cheater! Contact badge team... ";
    1f80:	e5 e9       	ldi	r30, 0x95	; 149
    1f82:	f4 eb       	ldi	r31, 0xB4	; 180
    1f84:	de 01       	movw	r26, r28
    1f86:	11 96       	adiw	r26, 0x01	; 1
    1f88:	01 90       	ld	r0, Z+
    1f8a:	0d 92       	st	X+, r0
    1f8c:	8a 95       	dec	r24
    1f8e:	e1 f7       	brne	.-8      	; 0x1f88 <CheckInput+0x3d8>
    1f90:	8c e3       	ldi	r24, 0x3C	; 60
                SerSpeed(60);
    1f92:	0e 94 4e 07 	call	0xe9c	; 0xe9c <SerSpeed>
    1f96:	80 91 08 38 	lds	r24, 0x3808	; 0x803808 <serTxDone>
                while(1){
                    if (serTxDone) SerSend(&cheat[0]);
    1f9a:	88 23       	and	r24, r24
    1f9c:	e1 f3       	breq	.-8      	; 0x1f96 <CheckInput+0x3e6>
    1f9e:	ce 01       	movw	r24, r28
    1fa0:	01 96       	adiw	r24, 0x01	; 1
    1fa2:	0e 94 3d 07 	call	0xe7a	; 0xe7a <SerSend>
    1fa6:	f7 cf       	rjmp	.-18     	; 0x1f96 <CheckInput+0x3e6>
                }
            }
            
            //Cheat reset (Quote from: Donald E. Westlake)
            if (StartsWith(&data[0], "the trouble with real life is, there's no reset button")){
    1fa8:	68 e5       	ldi	r22, 0x58	; 88
    1faa:	74 eb       	ldi	r23, 0xB4	; 180
    1fac:	c8 01       	movw	r24, r16
    1fae:	41 db       	rcall	.-2430   	; 0x1632 <StartsWith>
    1fb0:	68 2e       	mov	r6, r24
    1fb2:	88 23       	and	r24, r24
    1fb4:	51 f1       	breq	.+84     	; 0x200a <CheckInput+0x45a>
    1fb6:	8f ef       	ldi	r24, 0xFF	; 255
                
                //Reset cheat data by resetting the EEPROM bytes
                uint8_t empty=0xff;
    1fb8:	89 a3       	std	Y+33, r24	; 0x21
    1fba:	18 e1       	ldi	r17, 0x18	; 24
    1fbc:	41 e0       	ldi	r20, 0x01	; 1
                for (uint8_t x=0; x<MAX_CHEATS; ++x){
                    EEWrite(CHEATS+x, &empty, 1);
    1fbe:	be 01       	movw	r22, r28
    1fc0:	6f 5d       	subi	r22, 0xDF	; 223
    1fc2:	7f 4f       	sbci	r23, 0xFF	; 255
    1fc4:	81 2f       	mov	r24, r17
    1fc6:	0e 94 15 07 	call	0xe2a	; 0xe2a <EEWrite>
    1fca:	1f 5f       	subi	r17, 0xFF	; 255
            //Cheat reset (Quote from: Donald E. Westlake)
            if (StartsWith(&data[0], "the trouble with real life is, there's no reset button")){
                
                //Reset cheat data by resetting the EEPROM bytes
                uint8_t empty=0xff;
                for (uint8_t x=0; x<MAX_CHEATS; ++x){
    1fcc:	10 32       	cpi	r17, 0x20	; 32
    1fce:	b1 f7       	brne	.-20     	; 0x1fbc <CheckInput+0x40c>
    1fd0:	1e e6       	ldi	r17, 0x6E	; 110
                    EEWrite(CHEATS+x, &empty, 1);
                }
                //Reset game data by wiping the UUID bits
                for (uint8_t x=0; x<4; ++x){
                    WriteStatusBit(110+x, 0);
    1fd2:	60 e0       	ldi	r22, 0x00	; 0
    1fd4:	81 2f       	mov	r24, r17
    1fd6:	cc d8       	rcall	.-3688   	; 0x1170 <WriteStatusBit>
    1fd8:	1f 5f       	subi	r17, 0xFF	; 255
    1fda:	12 37       	cpi	r17, 0x72	; 114
                uint8_t empty=0xff;
                for (uint8_t x=0; x<MAX_CHEATS; ++x){
                    EEWrite(CHEATS+x, &empty, 1);
                }
                //Reset game data by wiping the UUID bits
                for (uint8_t x=0; x<4; ++x){
    1fdc:	d1 f7       	brne	.-12     	; 0x1fd2 <CheckInput+0x422>
    1fde:	41 d8       	rcall	.-3966   	; 0x1062 <SaveGameState>
                    WriteStatusBit(110+x, 0);
                }
                
                SaveGameState();
    1fe0:	8f e0       	ldi	r24, 0x0F	; 15
    1fe2:	e5 eb       	ldi	r30, 0xB5	; 181

                uint8_t cheat[] = "Reset please! ";
    1fe4:	f4 eb       	ldi	r31, 0xB4	; 180
    1fe6:	de 01       	movw	r26, r28
    1fe8:	11 96       	adiw	r26, 0x01	; 1
    1fea:	01 90       	ld	r0, Z+
    1fec:	0d 92       	st	X+, r0
    1fee:	8a 95       	dec	r24
    1ff0:	e1 f7       	brne	.-8      	; 0x1fea <CheckInput+0x43a>
    1ff2:	8c e3       	ldi	r24, 0x3C	; 60
    1ff4:	0e 94 4e 07 	call	0xe9c	; 0xe9c <SerSpeed>
                SerSpeed(60);
    1ff8:	80 91 08 38 	lds	r24, 0x3808	; 0x803808 <serTxDone>
                while(1){
                    if (serTxDone) SerSend(&cheat[0]);
    1ffc:	88 23       	and	r24, r24
    1ffe:	e1 f3       	breq	.-8      	; 0x1ff8 <CheckInput+0x448>
    2000:	ce 01       	movw	r24, r28
    2002:	01 96       	adiw	r24, 0x01	; 1
    2004:	0e 94 3d 07 	call	0xe7a	; 0xe7a <SerSend>
    2008:	f7 cf       	rjmp	.-18     	; 0x1ff8 <CheckInput+0x448>
    200a:	6f e8       	ldi	r22, 0x8F	; 143
                }
            }
            if (StartsWith(&data[0], "cheat")){
    200c:	74 eb       	ldi	r23, 0xB4	; 180
    200e:	c8 01       	movw	r24, r16
    2010:	10 db       	rcall	.-2528   	; 0x1632 <StartsWith>
    2012:	88 23       	and	r24, r24
    2014:	09 f4       	brne	.+2      	; 0x2018 <CheckInput+0x468>
    2016:	30 ce       	rjmp	.-928    	; 0x1c78 <CheckInput+0xc8>
    2018:	03 ef       	ldi	r16, 0xF3	; 243
    201a:	18 e3       	ldi	r17, 0x38	; 56
    201c:	78 e1       	ldi	r23, 0x18	; 24
    201e:	77 2e       	mov	r7, r23
    2020:	ea e0       	ldi	r30, 0x0A	; 10
    2022:	5e 2e       	mov	r5, r30
                    
                    //Set up sending out number
                    EERead(CHEATS+x, &bit, 1);
                    bit = 0xff-bit;
                    for (n=2; n>=0; --n) {
                        digit[n] = bit % 10;
    2024:	f4 e6       	ldi	r31, 0x64	; 100
    2026:	4f 2e       	mov	r4, r31
                        bit /= 10;
    2028:	ee 24       	eor	r14, r14
    202a:	e3 94       	inc	r14
}

//
void SetResponse(uint8_t number, uint16_t address, uint16_t length, uint8_t type){
    reactStr[0][number]=address;
    reactStr[1][number]=length;
    202c:	f1 2c       	mov	r15, r1
    202e:	cc 24       	eor	r12, r12
    2030:	c3 94       	inc	r12
    2032:	d1 2c       	mov	r13, r1
    2034:	89 e5       	ldi	r24, 0x59	; 89
    2036:	88 2e       	mov	r8, r24
    return 0;
}

//
void SetResponse(uint8_t number, uint16_t address, uint16_t length, uint8_t type){
    reactStr[0][number]=address;
    2038:	8a e7       	ldi	r24, 0x7A	; 122
    203a:	98 2e       	mov	r9, r24
    203c:	92 e0       	ldi	r25, 0x02	; 2
    203e:	a9 2e       	mov	r10, r25
    reactStr[1][number]=length;
    2040:	b1 2c       	mov	r11, r1
    2042:	41 e0       	ldi	r20, 0x01	; 1
    2044:	be 01       	movw	r22, r28
                uint8_t bit, digit[3];

                for (uint8_t x=0; x<MAX_CHEATS; ++x){
                    
                    //Set up sending out number
                    EERead(CHEATS+x, &bit, 1);
    2046:	6f 5d       	subi	r22, 0xDF	; 223
    2048:	7f 4f       	sbci	r23, 0xFF	; 255
    204a:	87 2d       	mov	r24, r7
    204c:	0e 94 05 07 	call	0xe0a	; 0xe0a <EERead>
    2050:	29 a1       	ldd	r18, Y+33	; 0x21
    2052:	20 95       	com	r18
                    bit = 0xff-bit;
    2054:	82 2f       	mov	r24, r18
    2056:	65 2d       	mov	r22, r5
                    for (n=2; n>=0; --n) {
                        digit[n] = bit % 10;
    2058:	0e 94 b9 19 	call	0x3372	; 0x3372 <__udivmodqi4>
    205c:	9b 83       	std	Y+3, r25	; 0x03
    205e:	0e 94 b9 19 	call	0x3372	; 0x3372 <__udivmodqi4>
    2062:	9a 83       	std	Y+2, r25	; 0x02
    2064:	82 2f       	mov	r24, r18
    2066:	64 2d       	mov	r22, r4
                        bit /= 10;
    2068:	0e 94 b9 19 	call	0x3372	; 0x3372 <__udivmodqi4>
    206c:	89 83       	std	Y+1, r24	; 0x01
    206e:	19 a2       	std	Y+33, r1	; 0x21
                    
                    //Set up sending out number
                    EERead(CHEATS+x, &bit, 1);
                    bit = 0xff-bit;
                    for (n=2; n>=0; --n) {
                        digit[n] = bit % 10;
    2070:	de 01       	movw	r26, r28
    2072:	11 96       	adiw	r26, 0x01	; 1
    2074:	40 e0       	ldi	r20, 0x00	; 0
    2076:	2d 91       	ld	r18, X+
    2078:	86 2d       	mov	r24, r6
                        bit /= 10;
                    }

                    for (n=0; n<3; ++n) {
                        SetResponse(x*4+n, A_DIGITS+digit[n], 1, TEASER);
    207a:	84 0f       	add	r24, r20
    return 0;
}

//
void SetResponse(uint8_t number, uint16_t address, uint16_t length, uint8_t type){
    reactStr[0][number]=address;
    207c:	90 e0       	ldi	r25, 0x00	; 0
    207e:	fc 01       	movw	r30, r24
    2080:	ee 0f       	add	r30, r30
    2082:	ff 1f       	adc	r31, r31
    2084:	ed 50       	subi	r30, 0x0D	; 13
    2086:	f7 4c       	sbci	r31, 0xC7	; 199
    2088:	30 e0       	ldi	r19, 0x00	; 0
    208a:	2d 52       	subi	r18, 0x2D	; 45
    208c:	3b 48       	sbci	r19, 0x8B	; 139
    208e:	20 83       	st	Z, r18
    2090:	31 83       	std	Z+1, r19	; 0x01
    2092:	fc 01       	movw	r30, r24
    2094:	ee 0f       	add	r30, r30
    reactStr[1][number]=length;
    2096:	ff 1f       	adc	r31, r31
    2098:	ed 5c       	subi	r30, 0xCD	; 205
    209a:	f6 4c       	sbci	r31, 0xC6	; 198
    209c:	e0 82       	st	Z, r14
    209e:	f1 82       	std	Z+1, r15	; 0x01
    20a0:	88 0f       	add	r24, r24
    20a2:	99 1f       	adc	r25, r25
    reactStr[2][number]=type;
    20a4:	fc 01       	movw	r30, r24
    20a6:	ed 58       	subi	r30, 0x8D	; 141
    20a8:	f6 4c       	sbci	r31, 0xC6	; 198
    20aa:	e0 82       	st	Z, r14
    20ac:	f1 82       	std	Z+1, r15	; 0x01
    20ae:	4f 5f       	subi	r20, 0xFF	; 255
    20b0:	43 30       	cpi	r20, 0x03	; 3
    20b2:	09 f7       	brne	.-62     	; 0x2076 <CheckInput+0x4c6>
                    for (n=2; n>=0; --n) {
                        digit[n] = bit % 10;
                        bit /= 10;
                    }

                    for (n=0; n<3; ++n) {
    20b4:	f8 01       	movw	r30, r16
    20b6:	86 82       	std	Z+6, r8	; 0x06
    return 0;
}

//
void SetResponse(uint8_t number, uint16_t address, uint16_t length, uint8_t type){
    reactStr[0][number]=address;
    20b8:	97 82       	std	Z+7, r9	; 0x07
    20ba:	ea 5b       	subi	r30, 0xBA	; 186
    20bc:	ff 4f       	sbci	r31, 0xFF	; 255
    reactStr[1][number]=length;
    20be:	a0 82       	st	Z, r10
    20c0:	b1 82       	std	Z+1, r11	; 0x01
    20c2:	e0 5c       	subi	r30, 0xC0	; 192
    20c4:	ff 4f       	sbci	r31, 0xFF	; 255
    reactStr[2][number]=type;
    20c6:	c0 82       	st	Z, r12
    20c8:	d1 82       	std	Z+1, r13	; 0x01
    20ca:	73 94       	inc	r7
    20cc:	08 5f       	subi	r16, 0xF8	; 248
    20ce:	1f 4f       	sbci	r17, 0xFF	; 255
    20d0:	f4 e0       	ldi	r31, 0x04	; 4
    20d2:	6f 0e       	add	r6, r31
    20d4:	80 e2       	ldi	r24, 0x20	; 32
    20d6:	78 12       	cpse	r7, r24
            }
            if (StartsWith(&data[0], "cheat")){
                int8_t n;
                uint8_t bit, digit[3];

                for (uint8_t x=0; x<MAX_CHEATS; ++x){
    20d8:	b4 cf       	rjmp	.-152    	; 0x2042 <CheckInput+0x492>
    20da:	8b e5       	ldi	r24, 0x5B	; 91
    20dc:	9a e7       	ldi	r25, 0x7A	; 122
    return 0;
}

//
void SetResponse(uint8_t number, uint16_t address, uint16_t length, uint8_t type){
    reactStr[0][number]=address;
    20de:	80 93 31 39 	sts	0x3931, r24	; 0x803931 <reactStr+0x3e>
    20e2:	90 93 32 39 	sts	0x3932, r25	; 0x803932 <reactStr+0x3f>
    20e6:	84 e0       	ldi	r24, 0x04	; 4
    20e8:	90 e0       	ldi	r25, 0x00	; 0
    reactStr[1][number]=length;
    20ea:	80 93 71 39 	sts	0x3971, r24	; 0x803971 <reactStr+0x7e>
    20ee:	90 93 72 39 	sts	0x3972, r25	; 0x803972 <reactStr+0x7f>
    20f2:	81 e0       	ldi	r24, 0x01	; 1
    20f4:	90 e0       	ldi	r25, 0x00	; 0
    reactStr[2][number]=type;
    20f6:	80 93 b1 39 	sts	0x39B1, r24	; 0x8039b1 <reactStr+0xbe>
    20fa:	90 93 b2 39 	sts	0x39B2, r25	; 0x8039b2 <reactStr+0xbf>
    20fe:	70 92 f2 38 	sts	0x38F2, r7	; 0x8038f2 <responseList>
                        SetResponse(x*4+n, A_DIGITS+digit[n], 1, TEASER);
                    }                
                    SetResponse(x*4+3, A_COMMA, L_COMMA, TEASER);
                }
                SetResponse((4*MAX_CHEATS)-1, A_LF, 4, TEASER);
                responseList = 32;
    2102:	ff 24       	eor	r15, r15
    2104:	f3 94       	inc	r15
        //Data received, but not any of the commands above
        return 0;
    }

    //Serial input not available yet
    return 1;
    2106:	8f 2d       	mov	r24, r15
    2108:	a1 96       	adiw	r28, 0x21	; 33
}
    210a:	cd bf       	out	0x3d, r28	; 61
    210c:	de bf       	out	0x3e, r29	; 62
    210e:	df 91       	pop	r29
    2110:	cf 91       	pop	r28
    2112:	1f 91       	pop	r17
    2114:	0f 91       	pop	r16
    2116:	ff 90       	pop	r15
    2118:	ef 90       	pop	r14
    211a:	df 90       	pop	r13
    211c:	cf 90       	pop	r12
    211e:	bf 90       	pop	r11
    2120:	af 90       	pop	r10
    2122:	9f 90       	pop	r9
    2124:	8f 90       	pop	r8
    2126:	7f 90       	pop	r7
    2128:	6f 90       	pop	r6
    212a:	5f 90       	pop	r5
    212c:	4f 90       	pop	r4
    212e:	08 95       	ret

00002130 <ProcessInput>:
    2130:	4f 92       	push	r4
    2132:	5f 92       	push	r5

//The game logic!
uint8_t ProcessInput(uint8_t *data){
    2134:	6f 92       	push	r6
    2136:	7f 92       	push	r7
    2138:	8f 92       	push	r8
    213a:	9f 92       	push	r9
    213c:	af 92       	push	r10
    213e:	bf 92       	push	r11
    2140:	cf 92       	push	r12
    2142:	df 92       	push	r13
    2144:	ef 92       	push	r14
    2146:	ff 92       	push	r15
    2148:	0f 93       	push	r16
    214a:	1f 93       	push	r17
    214c:	cf 93       	push	r28
    214e:	df 93       	push	r29
    2150:	cd b7       	in	r28, 0x3d	; 61
    2152:	de b7       	in	r29, 0x3e	; 62
    2154:	2a 97       	sbiw	r28, 0x0a	; 10
    2156:	cd bf       	out	0x3d, r28	; 61
    2158:	de bf       	out	0x3e, r29	; 62
    215a:	8c 01       	movw	r16, r24
    static object_model_t actObj1, actObj2;
    uint8_t elements = 1;

    CleanInput(&data[0]);
    215c:	6b dc       	rcall	.-1834   	; 0x1a34 <CleanInput>
    uint8_t inputLen = CleanInput(&data[0]);
    215e:	c8 01       	movw	r24, r16
    2160:	69 dc       	rcall	.-1838   	; 0x1a34 <CleanInput>
    2162:	f8 2e       	mov	r15, r24

    if (inputLen) {
    2164:	88 23       	and	r24, r24
    2166:	09 f4       	brne	.+2      	; 0x216a <ProcessInput+0x3a>
    2168:	9f c7       	rjmp	.+3902   	; 0x30a8 <ProcessInput+0xf78>

        //eXit to previous location
        if (data[0] == 'x'){
    216a:	d8 01       	movw	r26, r16
    216c:	8c 91       	ld	r24, X
    216e:	88 37       	cpi	r24, 0x78	; 120
    2170:	09 f0       	breq	.+2      	; 0x2174 <ProcessInput+0x44>
    2172:	3d c0       	rjmp	.+122    	; 0x21ee <ProcessInput+0xbe>

            //Standing in the Lobby?
            if ((route[currDepth] == 0)||(currDepth == 0)){
    2174:	80 91 26 38 	lds	r24, 0x3826	; 0x803826 <currDepth>
    2178:	e8 2f       	mov	r30, r24
    217a:	f0 e0       	ldi	r31, 0x00	; 0
    217c:	ee 0f       	add	r30, r30
    217e:	ff 1f       	adc	r31, r31
    2180:	ed 54       	subi	r30, 0x4D	; 77
    2182:	f6 4c       	sbci	r31, 0xC6	; 198
    2184:	20 81       	ld	r18, Z
    2186:	31 81       	ldd	r19, Z+1	; 0x01
    2188:	23 2b       	or	r18, r19
    218a:	11 f0       	breq	.+4      	; 0x2190 <ProcessInput+0x60>
    218c:	81 11       	cpse	r24, r1
    218e:	03 c0       	rjmp	.+6      	; 0x2196 <ProcessInput+0x66>
    return 0;
}

//
void SetResponse(uint8_t number, uint16_t address, uint16_t length, uint8_t type){
    reactStr[0][number]=address;
    2190:	82 e8       	ldi	r24, 0x82	; 130
    2192:	96 e7       	ldi	r25, 0x76	; 118
    2194:	7a c5       	rjmp	.+2804   	; 0x2c8a <ProcessInput+0xb5a>
            //Standing in the Lobby?
            if ((route[currDepth] == 0)||(currDepth == 0)){
                SetResponse(elements++, A_NOTPOSSIBLE, L_NOTPOSSIBLE, TEASER);
            
            //Is there a way to go back?
            } else if (CheckState(currObj.byteField[OPEN_ACL])){
    2196:	80 91 f9 39 	lds	r24, 0x39F9	; 0x8039f9 <currObj+0x6>
    219a:	0e d8       	rcall	.-4068   	; 0x11b8 <CheckState>
    219c:	88 23       	and	r24, r24
    219e:	81 f0       	breq	.+32     	; 0x21c0 <ProcessInput+0x90>
                --currDepth;
    21a0:	e0 91 26 38 	lds	r30, 0x3826	; 0x803826 <currDepth>
    21a4:	e1 50       	subi	r30, 0x01	; 1
    21a6:	e0 93 26 38 	sts	0x3826, r30	; 0x803826 <currDepth>
                PopulateObject(route[currDepth], &currObj);
    21aa:	f0 e0       	ldi	r31, 0x00	; 0
    21ac:	ee 0f       	add	r30, r30
    21ae:	ff 1f       	adc	r31, r31
    21b0:	ed 54       	subi	r30, 0x4D	; 77
    21b2:	f6 4c       	sbci	r31, 0xC6	; 198
    21b4:	63 ef       	ldi	r22, 0xF3	; 243
    21b6:	79 e3       	ldi	r23, 0x39	; 57
    21b8:	80 81       	ld	r24, Z
    21ba:	91 81       	ldd	r25, Z+1	; 0x01
    21bc:	08 db       	rcall	.-2544   	; 0x17ce <PopulateObject>
    21be:	2f c2       	rjmp	.+1118   	; 0x261e <ProcessInput+0x4ee>
            
            //No way out, print denied message of location
            } else {
                SetResponse(elements++, currObj.addrStr[OPEN_ACL_MSG], currObj.lenStr[OPEN_ACL_MSG], GAME);
    21c0:	80 91 15 3a 	lds	r24, 0x3A15	; 0x803a15 <currObj+0x22>
    21c4:	90 91 16 3a 	lds	r25, 0x3A16	; 0x803a16 <currObj+0x23>
    return 0;
}

//
void SetResponse(uint8_t number, uint16_t address, uint16_t length, uint8_t type){
    reactStr[0][number]=address;
    21c8:	20 91 07 3a 	lds	r18, 0x3A07	; 0x803a07 <currObj+0x14>
    21cc:	30 91 08 3a 	lds	r19, 0x3A08	; 0x803a08 <currObj+0x15>
    21d0:	20 93 f5 38 	sts	0x38F5, r18	; 0x8038f5 <reactStr+0x2>
    21d4:	30 93 f6 38 	sts	0x38F6, r19	; 0x8038f6 <reactStr+0x3>
    reactStr[1][number]=length;
    21d8:	80 93 35 39 	sts	0x3935, r24	; 0x803935 <reactStr+0x42>
    21dc:	90 93 36 39 	sts	0x3936, r25	; 0x803936 <reactStr+0x43>
    reactStr[2][number]=type;
    21e0:	10 92 75 39 	sts	0x3975, r1	; 0x803975 <reactStr+0x82>
    21e4:	10 92 76 39 	sts	0x3976, r1	; 0x803976 <reactStr+0x83>
                PopulateObject(route[currDepth], &currObj);
            
            //No way out, print denied message of location
            } else {
                SetResponse(elements++, currObj.addrStr[OPEN_ACL_MSG], currObj.lenStr[OPEN_ACL_MSG], GAME);
                effect = currObj.effect[0];               
    21e8:	80 91 1b 3a 	lds	r24, 0x3A1B	; 0x803a1b <currObj+0x28>
    21ec:	dc c0       	rjmp	.+440    	; 0x23a6 <ProcessInput+0x276>
            }   
        
        //Enter locations or Open objects    
        } else if ((data[0] == 'e')||(data[0] == 'o')) {
    21ee:	85 36       	cpi	r24, 0x65	; 101
    21f0:	19 f0       	breq	.+6      	; 0x21f8 <ProcessInput+0xc8>
    21f2:	8f 36       	cpi	r24, 0x6F	; 111
    21f4:	09 f0       	breq	.+2      	; 0x21f8 <ProcessInput+0xc8>
    21f6:	dd c0       	rjmp	.+442    	; 0x23b2 <ProcessInput+0x282>
                
            //Not possible, too many/little characters
            if (inputLen != 2){
    21f8:	b2 e0       	ldi	r27, 0x02	; 2
    21fa:	fb 12       	cpse	r15, r27
    21fc:	c9 cf       	rjmp	.-110    	; 0x2190 <ProcessInput+0x60>
                SetResponse(elements++, A_NOTPOSSIBLE, L_NOTPOSSIBLE, TEASER);
            } else {
                uint8_t canDo = 0;
                route[currDepth+1] = FindChild(route[currDepth], data[1], 0);
    21fe:	e0 90 26 38 	lds	r14, 0x3826	; 0x803826 <currDepth>
    2202:	f1 2c       	mov	r15, r1
    2204:	f7 01       	movw	r30, r14
    2206:	ee 0f       	add	r30, r30
    2208:	ff 1f       	adc	r31, r31
    220a:	ed 54       	subi	r30, 0x4D	; 77
    220c:	f6 4c       	sbci	r31, 0xC6	; 198
    220e:	40 e0       	ldi	r20, 0x00	; 0
    2210:	50 e0       	ldi	r21, 0x00	; 0
    2212:	d8 01       	movw	r26, r16
    2214:	11 96       	adiw	r26, 0x01	; 1
    2216:	6c 91       	ld	r22, X
    2218:	80 81       	ld	r24, Z
    221a:	91 81       	ldd	r25, Z+1	; 0x01
    221c:	a3 db       	rcall	.-2234   	; 0x1964 <FindChild>
    221e:	f7 01       	movw	r30, r14
    2220:	ee 0f       	add	r30, r30
    2222:	ff 1f       	adc	r31, r31
    2224:	eb 54       	subi	r30, 0x4B	; 75
    2226:	f6 4c       	sbci	r31, 0xC6	; 198
    2228:	80 83       	st	Z, r24
    222a:	91 83       	std	Z+1, r25	; 0x01
                    
                //Child found?
                if (route[currDepth+1]) {
    222c:	90 91 26 38 	lds	r25, 0x3826	; 0x803826 <currDepth>
    2230:	29 2f       	mov	r18, r25
    2232:	30 e0       	ldi	r19, 0x00	; 0
    2234:	f9 01       	movw	r30, r18
    2236:	ee 0f       	add	r30, r30
    2238:	ff 1f       	adc	r31, r31
    223a:	eb 54       	subi	r30, 0x4B	; 75
    223c:	f6 4c       	sbci	r31, 0xC6	; 198
    223e:	40 81       	ld	r20, Z
    2240:	51 81       	ldd	r21, Z+1	; 0x01
    2242:	41 15       	cp	r20, r1
    2244:	51 05       	cpc	r21, r1
    2246:	21 f0       	breq	.+8      	; 0x2250 <ProcessInput+0x120>
                    PopulateObject(route[currDepth+1], &actObj1);
    2248:	64 eb       	ldi	r22, 0xB4	; 180
    224a:	78 e3       	ldi	r23, 0x38	; 56
    224c:	ca 01       	movw	r24, r20
    224e:	1c c0       	rjmp	.+56     	; 0x2288 <ProcessInput+0x158>
                    canDo = 1;
                //No child, maybe a step back, letter ok?
                } else if (currDepth) {
    2250:	99 23       	and	r25, r25
    2252:	09 f4       	brne	.+2      	; 0x2256 <ProcessInput+0x126>
    2254:	45 c7       	rjmp	.+3722   	; 0x30e0 <ProcessInput+0xfb0>
                    if (CheckLetter(route[currDepth-1], data[1])) {
    2256:	22 0f       	add	r18, r18
    2258:	33 1f       	adc	r19, r19
    225a:	f9 01       	movw	r30, r18
    225c:	ef 54       	subi	r30, 0x4F	; 79
    225e:	f6 4c       	sbci	r31, 0xC6	; 198
    2260:	d8 01       	movw	r26, r16
    2262:	11 96       	adiw	r26, 0x01	; 1
    2264:	6c 91       	ld	r22, X
    2266:	80 81       	ld	r24, Z
    2268:	91 81       	ldd	r25, Z+1	; 0x01
    226a:	28 db       	rcall	.-2480   	; 0x18bc <CheckLetter>
    226c:	88 23       	and	r24, r24
    226e:	09 f4       	brne	.+2      	; 0x2272 <ProcessInput+0x142>
    2270:	37 c7       	rjmp	.+3694   	; 0x30e0 <ProcessInput+0xfb0>
                        PopulateObject(route[currDepth-1], &actObj1);
    2272:	e0 91 26 38 	lds	r30, 0x3826	; 0x803826 <currDepth>
    2276:	f0 e0       	ldi	r31, 0x00	; 0
    2278:	ee 0f       	add	r30, r30
    227a:	ff 1f       	adc	r31, r31
    227c:	ef 54       	subi	r30, 0x4F	; 79
    227e:	f6 4c       	sbci	r31, 0xC6	; 198
    2280:	64 eb       	ldi	r22, 0xB4	; 180
    2282:	78 e3       	ldi	r23, 0x38	; 56
    2284:	80 81       	ld	r24, Z
    2286:	91 81       	ldd	r25, Z+1	; 0x01
    2288:	a2 da       	rcall	.-2748   	; 0x17ce <PopulateObject>
                    }
                }

                //The candidate is found! Let's check if the action is legit
                if (canDo) {
                    if ((data[0] == 'e') && ((actObj1.byteField[ACTION_MASK]&ENTER)==0)) {
    228a:	d8 01       	movw	r26, r16
    228c:	8c 91       	ld	r24, X
    228e:	85 36       	cpi	r24, 0x65	; 101
    2290:	c9 f4       	brne	.+50     	; 0x22c4 <ProcessInput+0x194>
    2292:	80 91 bc 38 	lds	r24, 0x38BC	; 0x8038bc <actObj1.3988+0x8>
    2296:	80 fd       	sbrc	r24, 0
    2298:	1e c0       	rjmp	.+60     	; 0x22d6 <ProcessInput+0x1a6>
    return 0;
}

//
void SetResponse(uint8_t number, uint16_t address, uint16_t length, uint8_t type){
    reactStr[0][number]=address;
    229a:	80 ea       	ldi	r24, 0xA0	; 160
    229c:	99 e7       	ldi	r25, 0x79	; 121
    229e:	80 93 f5 38 	sts	0x38F5, r24	; 0x8038f5 <reactStr+0x2>
    22a2:	90 93 f6 38 	sts	0x38F6, r25	; 0x8038f6 <reactStr+0x3>
    reactStr[1][number]=length;
    22a6:	8e e1       	ldi	r24, 0x1E	; 30
    22a8:	90 e0       	ldi	r25, 0x00	; 0
    22aa:	80 93 35 39 	sts	0x3935, r24	; 0x803935 <reactStr+0x42>
    22ae:	90 93 36 39 	sts	0x3936, r25	; 0x803936 <reactStr+0x43>
    reactStr[2][number]=type;
    22b2:	81 e0       	ldi	r24, 0x01	; 1
    22b4:	90 e0       	ldi	r25, 0x00	; 0
    22b6:	80 93 75 39 	sts	0x3975, r24	; 0x803975 <reactStr+0x82>
    22ba:	90 93 76 39 	sts	0x3976, r25	; 0x803976 <reactStr+0x83>
                }

                //The candidate is found! Let's check if the action is legit
                if (canDo) {
                    if ((data[0] == 'e') && ((actObj1.byteField[ACTION_MASK]&ENTER)==0)) {
                        SetResponse(elements++, A_CANTENTER, L_CANTENTER, TEASER);
    22be:	72 e0       	ldi	r23, 0x02	; 2
    22c0:	77 2e       	mov	r7, r23
    22c2:	d2 c6       	rjmp	.+3492   	; 0x3068 <ProcessInput+0xf38>
                    } else if ((data[0] == 'o') && ((actObj1.byteField[ACTION_MASK]&OPEN)==0)) {
    22c4:	8f 36       	cpi	r24, 0x6F	; 111
    22c6:	39 f4       	brne	.+14     	; 0x22d6 <ProcessInput+0x1a6>
    22c8:	80 91 bc 38 	lds	r24, 0x38BC	; 0x8038bc <actObj1.3988+0x8>
    22cc:	81 fd       	sbrc	r24, 1
    22ce:	03 c0       	rjmp	.+6      	; 0x22d6 <ProcessInput+0x1a6>
    return 0;
}

//
void SetResponse(uint8_t number, uint16_t address, uint16_t length, uint8_t type){
    reactStr[0][number]=address;
    22d0:	85 e8       	ldi	r24, 0x85	; 133
    22d2:	99 e7       	ldi	r25, 0x79	; 121
    22d4:	da c4       	rjmp	.+2484   	; 0x2c8a <ProcessInput+0xb5a>
                        SetResponse(elements++, A_CANTENTER, L_CANTENTER, TEASER);
                    } else if ((data[0] == 'o') && ((actObj1.byteField[ACTION_MASK]&OPEN)==0)) {
                        SetResponse(elements++, A_CANTOPEN, L_CANTOPEN, TEASER);
                    
                    //Action legit, permission granted?
                    } else if (CheckState(actObj1.byteField[OPEN_ACL])) {
    22d6:	80 91 ba 38 	lds	r24, 0x38BA	; 0x8038ba <actObj1.3988+0x6>
    22da:	0e 94 dc 08 	call	0x11b8	; 0x11b8 <CheckState>
    22de:	e0 91 26 38 	lds	r30, 0x3826	; 0x803826 <currDepth>
    22e2:	88 23       	and	r24, r24
    22e4:	09 f4       	brne	.+2      	; 0x22e8 <ProcessInput+0x1b8>
    22e6:	42 c0       	rjmp	.+132    	; 0x236c <ProcessInput+0x23c>
                            
                        //Yes! Check if we must move forward or backwards.
                        if (route[currDepth+1]) ++currDepth; else --currDepth;
    22e8:	ae 2f       	mov	r26, r30
    22ea:	b0 e0       	ldi	r27, 0x00	; 0
    22ec:	aa 0f       	add	r26, r26
    22ee:	bb 1f       	adc	r27, r27
    22f0:	ab 54       	subi	r26, 0x4B	; 75
    22f2:	b6 4c       	sbci	r27, 0xC6	; 198
    22f4:	8d 91       	ld	r24, X+
    22f6:	9c 91       	ld	r25, X
    22f8:	89 2b       	or	r24, r25
    22fa:	11 f0       	breq	.+4      	; 0x2300 <ProcessInput+0x1d0>
    22fc:	ef 5f       	subi	r30, 0xFF	; 255
    22fe:	01 c0       	rjmp	.+2      	; 0x2302 <ProcessInput+0x1d2>
    2300:	e1 50       	subi	r30, 0x01	; 1
    2302:	e0 93 26 38 	sts	0x3826, r30	; 0x803826 <currDepth>
                        PopulateObject(route[currDepth], &currObj);
    2306:	e0 91 26 38 	lds	r30, 0x3826	; 0x803826 <currDepth>
    230a:	f0 e0       	ldi	r31, 0x00	; 0
    230c:	ee 0f       	add	r30, r30
    230e:	ff 1f       	adc	r31, r31
    2310:	ed 54       	subi	r30, 0x4D	; 77
    2312:	f6 4c       	sbci	r31, 0xC6	; 198
    2314:	63 ef       	ldi	r22, 0xF3	; 243
    2316:	79 e3       	ldi	r23, 0x39	; 57
    2318:	80 81       	ld	r24, Z
    231a:	91 81       	ldd	r25, Z+1	; 0x01
    231c:	58 da       	rcall	.-2896   	; 0x17ce <PopulateObject>
                        SetResponse(elements++, currObj.addrStr[DESC], currObj.lenStr[DESC],GAME);
    231e:	80 91 0f 3a 	lds	r24, 0x3A0F	; 0x803a0f <currObj+0x1c>
    2322:	90 91 10 3a 	lds	r25, 0x3A10	; 0x803a10 <currObj+0x1d>
    return 0;
}

//
void SetResponse(uint8_t number, uint16_t address, uint16_t length, uint8_t type){
    reactStr[0][number]=address;
    2326:	20 91 01 3a 	lds	r18, 0x3A01	; 0x803a01 <currObj+0xe>
    232a:	30 91 02 3a 	lds	r19, 0x3A02	; 0x803a02 <currObj+0xf>
    232e:	20 93 f5 38 	sts	0x38F5, r18	; 0x8038f5 <reactStr+0x2>
    2332:	30 93 f6 38 	sts	0x38F6, r19	; 0x8038f6 <reactStr+0x3>
    reactStr[1][number]=length;
    2336:	80 93 35 39 	sts	0x3935, r24	; 0x803935 <reactStr+0x42>
    233a:	90 93 36 39 	sts	0x3936, r25	; 0x803936 <reactStr+0x43>
    reactStr[2][number]=type;
    233e:	10 92 75 39 	sts	0x3975, r1	; 0x803975 <reactStr+0x82>
    2342:	10 92 76 39 	sts	0x3976, r1	; 0x803976 <reactStr+0x83>
    return 0;
}

//
void SetResponse(uint8_t number, uint16_t address, uint16_t length, uint8_t type){
    reactStr[0][number]=address;
    2346:	8b e5       	ldi	r24, 0x5B	; 91
    2348:	9a e7       	ldi	r25, 0x7A	; 122
    234a:	80 93 f7 38 	sts	0x38F7, r24	; 0x8038f7 <reactStr+0x4>
    234e:	90 93 f8 38 	sts	0x38F8, r25	; 0x8038f8 <reactStr+0x5>
    reactStr[1][number]=length;
    2352:	82 e0       	ldi	r24, 0x02	; 2
    2354:	90 e0       	ldi	r25, 0x00	; 0
    2356:	80 93 37 39 	sts	0x3937, r24	; 0x803937 <reactStr+0x44>
    235a:	90 93 38 39 	sts	0x3938, r25	; 0x803938 <reactStr+0x45>
    reactStr[2][number]=type;
    235e:	81 e0       	ldi	r24, 0x01	; 1
    2360:	90 e0       	ldi	r25, 0x00	; 0
    2362:	80 93 77 39 	sts	0x3977, r24	; 0x803977 <reactStr+0x84>
    2366:	90 93 78 39 	sts	0x3978, r25	; 0x803978 <reactStr+0x85>
    236a:	7b c4       	rjmp	.+2294   	; 0x2c62 <ProcessInput+0xb32>
                        SetResponse(elements++, currObj.addrStr[DESC], currObj.lenStr[DESC],GAME);
                        SetResponse(elements++, A_LF, 2, TEASER);
                                                  
                    //Not granted!
                    } else {
                        route[currDepth+1] = 0;
    236c:	f0 e0       	ldi	r31, 0x00	; 0
    236e:	ee 0f       	add	r30, r30
    2370:	ff 1f       	adc	r31, r31
    2372:	eb 54       	subi	r30, 0x4B	; 75
    2374:	f6 4c       	sbci	r31, 0xC6	; 198
    2376:	10 82       	st	Z, r1
    2378:	11 82       	std	Z+1, r1	; 0x01
                        SetResponse(elements++, actObj1.addrStr[OPEN_ACL_MSG], actObj1.lenStr[OPEN_ACL_MSG], GAME);
    237a:	80 91 d6 38 	lds	r24, 0x38D6	; 0x8038d6 <actObj1.3988+0x22>
    237e:	90 91 d7 38 	lds	r25, 0x38D7	; 0x8038d7 <actObj1.3988+0x23>
    return 0;
}

//
void SetResponse(uint8_t number, uint16_t address, uint16_t length, uint8_t type){
    reactStr[0][number]=address;
    2382:	20 91 c8 38 	lds	r18, 0x38C8	; 0x8038c8 <actObj1.3988+0x14>
    2386:	30 91 c9 38 	lds	r19, 0x38C9	; 0x8038c9 <actObj1.3988+0x15>
    238a:	20 93 f5 38 	sts	0x38F5, r18	; 0x8038f5 <reactStr+0x2>
    238e:	30 93 f6 38 	sts	0x38F6, r19	; 0x8038f6 <reactStr+0x3>
    reactStr[1][number]=length;
    2392:	80 93 35 39 	sts	0x3935, r24	; 0x803935 <reactStr+0x42>
    2396:	90 93 36 39 	sts	0x3936, r25	; 0x803936 <reactStr+0x43>
    reactStr[2][number]=type;
    239a:	10 92 75 39 	sts	0x3975, r1	; 0x803975 <reactStr+0x82>
    239e:	10 92 76 39 	sts	0x3976, r1	; 0x803976 <reactStr+0x83>
                                                  
                    //Not granted!
                    } else {
                        route[currDepth+1] = 0;
                        SetResponse(elements++, actObj1.addrStr[OPEN_ACL_MSG], actObj1.lenStr[OPEN_ACL_MSG], GAME);
                        effect = actObj1.effect[0];              
    23a2:	80 91 dc 38 	lds	r24, 0x38DC	; 0x8038dc <actObj1.3988+0x28>
    23a6:	90 e0       	ldi	r25, 0x00	; 0
    23a8:	80 93 2d 38 	sts	0x382D, r24	; 0x80382d <effect>
    23ac:	90 93 2e 38 	sts	0x382E, r25	; 0x80382e <effect+0x1>
    23b0:	86 cf       	rjmp	.-244    	; 0x22be <ProcessInput+0x18e>
                    SetResponse(elements++, A_DONTSEE, L_DONTSEE, TEASER);                
                }
            }

        //Look around or at objects
        } else if (data[0] == 'l') {
    23b2:	8c 36       	cpi	r24, 0x6C	; 108
    23b4:	09 f0       	breq	.+2      	; 0x23b8 <ProcessInput+0x288>
    23b6:	4b c1       	rjmp	.+662    	; 0x264e <ProcessInput+0x51e>
    23b8:	e0 91 26 38 	lds	r30, 0x3826	; 0x803826 <currDepth>
            if (inputLen == 1) {
    23bc:	b1 e0       	ldi	r27, 0x01	; 1
    23be:	fb 12       	cpse	r15, r27
    23c0:	f6 c0       	rjmp	.+492    	; 0x25ae <ProcessInput+0x47e>

                //Show info about this area first
                SetResponse(elements++, currObj.addrStr[DESC], currObj.lenStr[DESC],GAME);
    23c2:	80 91 0f 3a 	lds	r24, 0x3A0F	; 0x803a0f <currObj+0x1c>
    23c6:	90 91 10 3a 	lds	r25, 0x3A10	; 0x803a10 <currObj+0x1d>
    return 0;
}

//
void SetResponse(uint8_t number, uint16_t address, uint16_t length, uint8_t type){
    reactStr[0][number]=address;
    23ca:	20 91 01 3a 	lds	r18, 0x3A01	; 0x803a01 <currObj+0xe>
    23ce:	30 91 02 3a 	lds	r19, 0x3A02	; 0x803a02 <currObj+0xf>
    23d2:	20 93 f5 38 	sts	0x38F5, r18	; 0x8038f5 <reactStr+0x2>
    23d6:	30 93 f6 38 	sts	0x38F6, r19	; 0x8038f6 <reactStr+0x3>
    reactStr[1][number]=length;
    23da:	80 93 35 39 	sts	0x3935, r24	; 0x803935 <reactStr+0x42>
    23de:	90 93 36 39 	sts	0x3936, r25	; 0x803936 <reactStr+0x43>
    reactStr[2][number]=type;
    23e2:	10 92 75 39 	sts	0x3975, r1	; 0x803975 <reactStr+0x82>
    23e6:	10 92 76 39 	sts	0x3976, r1	; 0x803976 <reactStr+0x83>
    return 0;
}

//
void SetResponse(uint8_t number, uint16_t address, uint16_t length, uint8_t type){
    reactStr[0][number]=address;
    23ea:	8b e5       	ldi	r24, 0x5B	; 91
    23ec:	9a e7       	ldi	r25, 0x7A	; 122
    23ee:	80 93 f7 38 	sts	0x38F7, r24	; 0x8038f7 <reactStr+0x4>
    23f2:	90 93 f8 38 	sts	0x38F8, r25	; 0x8038f8 <reactStr+0x5>
    reactStr[1][number]=length;
    23f6:	82 e0       	ldi	r24, 0x02	; 2
    23f8:	90 e0       	ldi	r25, 0x00	; 0
    23fa:	80 93 37 39 	sts	0x3937, r24	; 0x803937 <reactStr+0x44>
    23fe:	90 93 38 39 	sts	0x3938, r25	; 0x803938 <reactStr+0x45>
    reactStr[2][number]=type;
    2402:	81 e0       	ldi	r24, 0x01	; 1
    2404:	90 e0       	ldi	r25, 0x00	; 0
    2406:	80 93 77 39 	sts	0x3977, r24	; 0x803977 <reactStr+0x84>
    240a:	90 93 78 39 	sts	0x3978, r25	; 0x803978 <reactStr+0x85>
    return 0;
}

//
void SetResponse(uint8_t number, uint16_t address, uint16_t length, uint8_t type){
    reactStr[0][number]=address;
    240e:	2e ee       	ldi	r18, 0xEE	; 238
    2410:	39 e7       	ldi	r19, 0x79	; 121
    2412:	20 93 f9 38 	sts	0x38F9, r18	; 0x8038f9 <reactStr+0x6>
    2416:	30 93 fa 38 	sts	0x38FA, r19	; 0x8038fa <reactStr+0x7>
    reactStr[1][number]=length;
    241a:	25 e1       	ldi	r18, 0x15	; 21
    241c:	30 e0       	ldi	r19, 0x00	; 0
    241e:	20 93 39 39 	sts	0x3939, r18	; 0x803939 <reactStr+0x46>
    2422:	30 93 3a 39 	sts	0x393A, r19	; 0x80393a <reactStr+0x47>
    reactStr[2][number]=type;
    2426:	80 93 79 39 	sts	0x3979, r24	; 0x803979 <reactStr+0x86>
    242a:	90 93 7a 39 	sts	0x397A, r25	; 0x80397a <reactStr+0x87>
                SetResponse(elements++, currObj.addrStr[DESC], currObj.lenStr[DESC],GAME);
                SetResponse(elements++, A_LF, 2, TEASER);
                SetResponse(elements++, A_LOOK, L_LOOK, TEASER);

                //Check the visible children first
                route[currDepth+1] = 0;
    242e:	f0 e0       	ldi	r31, 0x00	; 0
    2430:	ee 0f       	add	r30, r30
    2432:	ff 1f       	adc	r31, r31
    2434:	eb 54       	subi	r30, 0x4B	; 75
    2436:	f6 4c       	sbci	r31, 0xC6	; 198
    2438:	10 82       	st	Z, r1
    243a:	11 82       	std	Z+1, r1	; 0x01
            if (inputLen == 1) {

                //Show info about this area first
                SetResponse(elements++, currObj.addrStr[DESC], currObj.lenStr[DESC],GAME);
                SetResponse(elements++, A_LF, 2, TEASER);
                SetResponse(elements++, A_LOOK, L_LOOK, TEASER);
    243c:	84 e0       	ldi	r24, 0x04	; 4
    243e:	68 2e       	mov	r6, r24
    return 0;
}

//
void SetResponse(uint8_t number, uint16_t address, uint16_t length, uint8_t type){
    reactStr[0][number]=address;
    2440:	99 e5       	ldi	r25, 0x59	; 89
    2442:	c9 2e       	mov	r12, r25
    2444:	9a e7       	ldi	r25, 0x7A	; 122
    2446:	d9 2e       	mov	r13, r25
    reactStr[1][number]=length;
    2448:	22 e0       	ldi	r18, 0x02	; 2
    244a:	a2 2e       	mov	r10, r18
    244c:	b1 2c       	mov	r11, r1
    reactStr[2][number]=type;
    244e:	88 24       	eor	r8, r8
    2450:	83 94       	inc	r8
    2452:	91 2c       	mov	r9, r1
                SetResponse(elements++, A_LOOK, L_LOOK, TEASER);

                //Check the visible children first
                route[currDepth+1] = 0;
                do{
                    route[currDepth+1] = FindChild(route[currDepth], 0, route[currDepth+1]);
    2454:	80 91 26 38 	lds	r24, 0x3826	; 0x803826 <currDepth>
    2458:	90 e0       	ldi	r25, 0x00	; 0
    245a:	9c 01       	movw	r18, r24
    245c:	22 0f       	add	r18, r18
    245e:	33 1f       	adc	r19, r19
    2460:	f9 01       	movw	r30, r18
    2462:	eb 54       	subi	r30, 0x4B	; 75
    2464:	f6 4c       	sbci	r31, 0xC6	; 198
    2466:	7f 01       	movw	r14, r30
    2468:	40 81       	ld	r20, Z
    246a:	51 81       	ldd	r21, Z+1	; 0x01
    246c:	f9 01       	movw	r30, r18
    246e:	ed 54       	subi	r30, 0x4D	; 77
    2470:	f6 4c       	sbci	r31, 0xC6	; 198
    2472:	60 e0       	ldi	r22, 0x00	; 0
    2474:	80 81       	ld	r24, Z
    2476:	91 81       	ldd	r25, Z+1	; 0x01
    2478:	75 da       	rcall	.-2838   	; 0x1964 <FindChild>
    247a:	d7 01       	movw	r26, r14
    247c:	8d 93       	st	X+, r24
    247e:	9c 93       	st	X, r25
                    if (route[currDepth+1]) {
    2480:	e0 91 26 38 	lds	r30, 0x3826	; 0x803826 <currDepth>
    2484:	f0 e0       	ldi	r31, 0x00	; 0
    2486:	ee 0f       	add	r30, r30
    2488:	ff 1f       	adc	r31, r31
    248a:	eb 54       	subi	r30, 0x4B	; 75
    248c:	f6 4c       	sbci	r31, 0xC6	; 198
    248e:	80 81       	ld	r24, Z
    2490:	91 81       	ldd	r25, Z+1	; 0x01
    2492:	00 97       	sbiw	r24, 0x00	; 0
    2494:	09 f4       	brne	.+2      	; 0x2498 <ProcessInput+0x368>
    2496:	4a c0       	rjmp	.+148    	; 0x252c <ProcessInput+0x3fc>
                        if ((route[currDepth+1] != inventory[0])&&(route[currDepth+1] != inventory[1])) {
    2498:	20 91 31 38 	lds	r18, 0x3831	; 0x803831 <inventory>
    249c:	30 91 32 38 	lds	r19, 0x3832	; 0x803832 <inventory+0x1>
    24a0:	82 17       	cp	r24, r18
    24a2:	93 07       	cpc	r25, r19
    24a4:	09 f4       	brne	.+2      	; 0x24a8 <ProcessInput+0x378>
    24a6:	42 c0       	rjmp	.+132    	; 0x252c <ProcessInput+0x3fc>
    24a8:	20 91 33 38 	lds	r18, 0x3833	; 0x803833 <inventory+0x2>
    24ac:	30 91 34 38 	lds	r19, 0x3834	; 0x803834 <inventory+0x3>
    24b0:	82 17       	cp	r24, r18
    24b2:	93 07       	cpc	r25, r19
                            PopulateObject(route[currDepth+1], &actObj1);
    24b4:	d9 f1       	breq	.+118    	; 0x252c <ProcessInput+0x3fc>
    24b6:	64 eb       	ldi	r22, 0xB4	; 180
    24b8:	78 e3       	ldi	r23, 0x38	; 56
    24ba:	89 d9       	rcall	.-3310   	; 0x17ce <PopulateObject>
                            SetResponse(elements++, actObj1.addrStr[NAME], actObj1.lenStr[NAME],GAME);
    24bc:	80 91 ce 38 	lds	r24, 0x38CE	; 0x8038ce <actObj1.3988+0x1a>
    24c0:	90 91 cf 38 	lds	r25, 0x38CF	; 0x8038cf <actObj1.3988+0x1b>
    return 0;
}

//
void SetResponse(uint8_t number, uint16_t address, uint16_t length, uint8_t type){
    reactStr[0][number]=address;
    24c4:	e6 2d       	mov	r30, r6
    24c6:	f0 e0       	ldi	r31, 0x00	; 0
    24c8:	df 01       	movw	r26, r30
    24ca:	aa 0f       	add	r26, r26
    24cc:	bb 1f       	adc	r27, r27
    24ce:	ad 50       	subi	r26, 0x0D	; 13
    24d0:	b7 4c       	sbci	r27, 0xC7	; 199
    24d2:	20 91 c0 38 	lds	r18, 0x38C0	; 0x8038c0 <actObj1.3988+0xc>
    24d6:	30 91 c1 38 	lds	r19, 0x38C1	; 0x8038c1 <actObj1.3988+0xd>
    24da:	2d 93       	st	X+, r18
    24dc:	3c 93       	st	X, r19
    reactStr[1][number]=length;
    24de:	df 01       	movw	r26, r30
    24e0:	aa 0f       	add	r26, r26
    24e2:	bb 1f       	adc	r27, r27
    24e4:	ad 5c       	subi	r26, 0xCD	; 205
    24e6:	b6 4c       	sbci	r27, 0xC6	; 198
    24e8:	8d 93       	st	X+, r24
    24ea:	9c 93       	st	X, r25
    reactStr[2][number]=type;
    24ec:	ee 0f       	add	r30, r30
    24ee:	ff 1f       	adc	r31, r31
    24f0:	ed 58       	subi	r30, 0x8D	; 141
    24f2:	f6 4c       	sbci	r31, 0xC6	; 198
    24f4:	10 82       	st	Z, r1
    24f6:	11 82       	std	Z+1, r1	; 0x01
    return 0;
}

//
void SetResponse(uint8_t number, uint16_t address, uint16_t length, uint8_t type){
    reactStr[0][number]=address;
    24f8:	81 e0       	ldi	r24, 0x01	; 1
    24fa:	86 0d       	add	r24, r6
    24fc:	90 e0       	ldi	r25, 0x00	; 0
    24fe:	63 94       	inc	r6
    2500:	63 94       	inc	r6
    2502:	fc 01       	movw	r30, r24
    2504:	ee 0f       	add	r30, r30
    2506:	ff 1f       	adc	r31, r31
    2508:	ed 50       	subi	r30, 0x0D	; 13
    250a:	f7 4c       	sbci	r31, 0xC7	; 199
    250c:	c0 82       	st	Z, r12
    250e:	d1 82       	std	Z+1, r13	; 0x01
    reactStr[1][number]=length;
    2510:	fc 01       	movw	r30, r24
    2512:	ee 0f       	add	r30, r30
    2514:	ff 1f       	adc	r31, r31
    2516:	ed 5c       	subi	r30, 0xCD	; 205
    2518:	f6 4c       	sbci	r31, 0xC6	; 198
    251a:	a0 82       	st	Z, r10
    251c:	b1 82       	std	Z+1, r11	; 0x01
    reactStr[2][number]=type;
    251e:	88 0f       	add	r24, r24
    2520:	99 1f       	adc	r25, r25
    2522:	fc 01       	movw	r30, r24
    2524:	ed 58       	subi	r30, 0x8D	; 141
    2526:	f6 4c       	sbci	r31, 0xC6	; 198
    2528:	80 82       	st	Z, r8
    252a:	91 82       	std	Z+1, r9	; 0x01
                            PopulateObject(route[currDepth+1], &actObj1);
                            SetResponse(elements++, actObj1.addrStr[NAME], actObj1.lenStr[NAME],GAME);
                            SetResponse(elements++, A_COMMA, L_COMMA, TEASER);
                        }
                    }
                }while (route[currDepth+1]);
    252c:	20 91 26 38 	lds	r18, 0x3826	; 0x803826 <currDepth>
    2530:	82 2f       	mov	r24, r18
    2532:	90 e0       	ldi	r25, 0x00	; 0
    2534:	fc 01       	movw	r30, r24
    2536:	ee 0f       	add	r30, r30
    2538:	ff 1f       	adc	r31, r31
    253a:	eb 54       	subi	r30, 0x4B	; 75
    253c:	f6 4c       	sbci	r31, 0xC6	; 198
    253e:	40 81       	ld	r20, Z
    2540:	51 81       	ldd	r21, Z+1	; 0x01
    2542:	45 2b       	or	r20, r21
    2544:	09 f0       	breq	.+2      	; 0x2548 <ProcessInput+0x418>
    2546:	86 cf       	rjmp	.-244    	; 0x2454 <ProcessInput+0x324>

                //Look back if not on level 0
                if (currDepth) {
    2548:	22 23       	and	r18, r18
    254a:	69 f1       	breq	.+90     	; 0x25a6 <ProcessInput+0x476>
                    PopulateObject(route[currDepth-1], &actObj1);
    254c:	88 0f       	add	r24, r24
    254e:	99 1f       	adc	r25, r25
    2550:	fc 01       	movw	r30, r24
    2552:	ef 54       	subi	r30, 0x4F	; 79
    2554:	f6 4c       	sbci	r31, 0xC6	; 198
    2556:	64 eb       	ldi	r22, 0xB4	; 180
    2558:	78 e3       	ldi	r23, 0x38	; 56
    255a:	80 81       	ld	r24, Z
    255c:	91 81       	ldd	r25, Z+1	; 0x01
    255e:	37 d9       	rcall	.-3474   	; 0x17ce <PopulateObject>
                    SetResponse(elements++, actObj1.addrStr[NAME], actObj1.lenStr[NAME],GAME);
    2560:	20 91 ce 38 	lds	r18, 0x38CE	; 0x8038ce <actObj1.3988+0x1a>
    2564:	30 91 cf 38 	lds	r19, 0x38CF	; 0x8038cf <actObj1.3988+0x1b>
    2568:	77 24       	eor	r7, r7
    256a:	73 94       	inc	r7
    256c:	76 0c       	add	r7, r6
    return 0;
}

//
void SetResponse(uint8_t number, uint16_t address, uint16_t length, uint8_t type){
    reactStr[0][number]=address;
    256e:	86 2d       	mov	r24, r6
    2570:	90 e0       	ldi	r25, 0x00	; 0
    2572:	fc 01       	movw	r30, r24
    2574:	ee 0f       	add	r30, r30
    2576:	ff 1f       	adc	r31, r31
    2578:	ed 50       	subi	r30, 0x0D	; 13
    257a:	f7 4c       	sbci	r31, 0xC7	; 199
    257c:	40 91 c0 38 	lds	r20, 0x38C0	; 0x8038c0 <actObj1.3988+0xc>
    2580:	50 91 c1 38 	lds	r21, 0x38C1	; 0x8038c1 <actObj1.3988+0xd>
    2584:	40 83       	st	Z, r20
    2586:	51 83       	std	Z+1, r21	; 0x01
    reactStr[1][number]=length;
    2588:	fc 01       	movw	r30, r24
    258a:	ee 0f       	add	r30, r30
    258c:	ff 1f       	adc	r31, r31
    258e:	ed 5c       	subi	r30, 0xCD	; 205
    2590:	f6 4c       	sbci	r31, 0xC6	; 198
    2592:	20 83       	st	Z, r18
    2594:	31 83       	std	Z+1, r19	; 0x01
    reactStr[2][number]=type;
    2596:	88 0f       	add	r24, r24
    2598:	99 1f       	adc	r25, r25
    259a:	fc 01       	movw	r30, r24
    259c:	ed 58       	subi	r30, 0x8D	; 141
    259e:	f6 4c       	sbci	r31, 0xC6	; 198
    25a0:	10 82       	st	Z, r1
    25a2:	11 82       	std	Z+1, r1	; 0x01
    25a4:	61 c5       	rjmp	.+2754   	; 0x3068 <ProcessInput+0xf38>

                //Look back if not on level 0
                if (currDepth) {
                    PopulateObject(route[currDepth-1], &actObj1);
                    SetResponse(elements++, actObj1.addrStr[NAME], actObj1.lenStr[NAME],GAME);
                } else elements-=1;
    25a6:	77 24       	eor	r7, r7
    25a8:	7a 94       	dec	r7
    25aa:	76 0c       	add	r7, r6
    25ac:	5d c5       	rjmp	.+2746   	; 0x3068 <ProcessInput+0xf38>

            } else {
                route[currDepth+1] = FindChild(route[currDepth], data[1], 0);
    25ae:	ee 2e       	mov	r14, r30
    25b0:	f1 2c       	mov	r15, r1
    25b2:	f7 01       	movw	r30, r14
    25b4:	ee 0f       	add	r30, r30
    25b6:	ff 1f       	adc	r31, r31
    25b8:	ed 54       	subi	r30, 0x4D	; 77
    25ba:	f6 4c       	sbci	r31, 0xC6	; 198
    25bc:	40 e0       	ldi	r20, 0x00	; 0
    25be:	50 e0       	ldi	r21, 0x00	; 0
    25c0:	d8 01       	movw	r26, r16
    25c2:	11 96       	adiw	r26, 0x01	; 1
    25c4:	6c 91       	ld	r22, X
    25c6:	80 81       	ld	r24, Z
    25c8:	91 81       	ldd	r25, Z+1	; 0x01
    25ca:	cc d9       	rcall	.-3176   	; 0x1964 <FindChild>
    25cc:	f7 01       	movw	r30, r14
    25ce:	ee 0f       	add	r30, r30
    25d0:	ff 1f       	adc	r31, r31
    25d2:	eb 54       	subi	r30, 0x4B	; 75
    25d4:	f6 4c       	sbci	r31, 0xC6	; 198
    25d6:	80 83       	st	Z, r24
    25d8:	91 83       	std	Z+1, r25	; 0x01
                if (route[currDepth+1]) {
    25da:	90 91 26 38 	lds	r25, 0x3826	; 0x803826 <currDepth>
    25de:	29 2f       	mov	r18, r25
    25e0:	30 e0       	ldi	r19, 0x00	; 0
    25e2:	f9 01       	movw	r30, r18
    25e4:	ee 0f       	add	r30, r30
    25e6:	ff 1f       	adc	r31, r31
    25e8:	eb 54       	subi	r30, 0x4B	; 75
    25ea:	f6 4c       	sbci	r31, 0xC6	; 198
    25ec:	40 81       	ld	r20, Z
    25ee:	51 81       	ldd	r21, Z+1	; 0x01
    25f0:	41 15       	cp	r20, r1
    25f2:	51 05       	cpc	r21, r1
    25f4:	21 f0       	breq	.+8      	; 0x25fe <ProcessInput+0x4ce>
                    PopulateObject(route[currDepth+1], &actObj1);
    25f6:	64 eb       	ldi	r22, 0xB4	; 180
    25f8:	78 e3       	ldi	r23, 0x38	; 56
    25fa:	ca 01       	movw	r24, r20
    25fc:	1e c0       	rjmp	.+60     	; 0x263a <ProcessInput+0x50a>
//TODO: CHECKSTATE -> A_CANTLOOK item
                    SetResponse(elements++, actObj1.addrStr[DESC], actObj1.lenStr[DESC],GAME);   
                } else if (currDepth) {
    25fe:	99 23       	and	r25, r25
    2600:	09 f4       	brne	.+2      	; 0x2604 <ProcessInput+0x4d4>
                    if (CheckLetter(route[currDepth-1], data[1])) {
    2602:	6e c5       	rjmp	.+2780   	; 0x30e0 <ProcessInput+0xfb0>
    2604:	22 0f       	add	r18, r18
    2606:	33 1f       	adc	r19, r19
    2608:	f9 01       	movw	r30, r18
    260a:	ef 54       	subi	r30, 0x4F	; 79
    260c:	f6 4c       	sbci	r31, 0xC6	; 198
    260e:	d8 01       	movw	r26, r16
    2610:	11 96       	adiw	r26, 0x01	; 1
    2612:	6c 91       	ld	r22, X
    2614:	80 81       	ld	r24, Z
    2616:	91 81       	ldd	r25, Z+1	; 0x01
    2618:	51 d9       	rcall	.-3422   	; 0x18bc <CheckLetter>
    261a:	81 11       	cpse	r24, r1
    261c:	03 c0       	rjmp	.+6      	; 0x2624 <ProcessInput+0x4f4>
}

//The game logic!
uint8_t ProcessInput(uint8_t *data){
    static object_model_t actObj1, actObj2;
    uint8_t elements = 1;
    261e:	77 24       	eor	r7, r7
    2620:	73 94       	inc	r7
                    PopulateObject(route[currDepth+1], &actObj1);
//TODO: CHECKSTATE -> A_CANTLOOK item
                    SetResponse(elements++, actObj1.addrStr[DESC], actObj1.lenStr[DESC],GAME);   
                } else if (currDepth) {
                    if (CheckLetter(route[currDepth-1], data[1])) {
                        PopulateObject(route[currDepth-1], &actObj1);
    2622:	22 c5       	rjmp	.+2628   	; 0x3068 <ProcessInput+0xf38>
    2624:	e0 91 26 38 	lds	r30, 0x3826	; 0x803826 <currDepth>
    2628:	f0 e0       	ldi	r31, 0x00	; 0
    262a:	ee 0f       	add	r30, r30
    262c:	ff 1f       	adc	r31, r31
    262e:	ef 54       	subi	r30, 0x4F	; 79
    2630:	f6 4c       	sbci	r31, 0xC6	; 198
    2632:	64 eb       	ldi	r22, 0xB4	; 180
    2634:	78 e3       	ldi	r23, 0x38	; 56
    2636:	80 81       	ld	r24, Z
    2638:	91 81       	ldd	r25, Z+1	; 0x01
    263a:	c9 d8       	rcall	.-3694   	; 0x17ce <PopulateObject>
                        SetResponse(elements++, actObj1.addrStr[DESC], actObj1.lenStr[DESC],GAME);
    263c:	80 91 d0 38 	lds	r24, 0x38D0	; 0x8038d0 <actObj1.3988+0x1c>
    2640:	90 91 d1 38 	lds	r25, 0x38D1	; 0x8038d1 <actObj1.3988+0x1d>
    return 0;
}

//
void SetResponse(uint8_t number, uint16_t address, uint16_t length, uint8_t type){
    reactStr[0][number]=address;
    2644:	20 91 c2 38 	lds	r18, 0x38C2	; 0x8038c2 <actObj1.3988+0xe>
    2648:	30 91 c3 38 	lds	r19, 0x38C3	; 0x8038c3 <actObj1.3988+0xf>
    264c:	d6 c3       	rjmp	.+1964   	; 0x2dfa <ProcessInput+0xcca>
                    SetResponse(elements++, A_DONTSEE, L_DONTSEE, TEASER);
                }
            }
        
        //Pick up an object
        } else if (data[0] == 'p') {
    264e:	80 37       	cpi	r24, 0x70	; 112
    2650:	09 f0       	breq	.+2      	; 0x2654 <ProcessInput+0x524>
    2652:	96 c0       	rjmp	.+300    	; 0x2780 <ProcessInput+0x650>
            if (inventory[0]&&inventory[1]) {
    2654:	80 91 31 38 	lds	r24, 0x3831	; 0x803831 <inventory>
    2658:	90 91 32 38 	lds	r25, 0x3832	; 0x803832 <inventory+0x1>
    265c:	89 2b       	or	r24, r25
    265e:	79 f0       	breq	.+30     	; 0x267e <ProcessInput+0x54e>
    2660:	80 91 33 38 	lds	r24, 0x3833	; 0x803833 <inventory+0x2>
    2664:	90 91 34 38 	lds	r25, 0x3834	; 0x803834 <inventory+0x3>
    2668:	89 2b       	or	r24, r25
    266a:	49 f0       	breq	.+18     	; 0x267e <ProcessInput+0x54e>
    return 0;
}

//
void SetResponse(uint8_t number, uint16_t address, uint16_t length, uint8_t type){
    reactStr[0][number]=address;
    266c:	85 e4       	ldi	r24, 0x45	; 69
    266e:	98 e7       	ldi	r25, 0x78	; 120
    2670:	80 93 f5 38 	sts	0x38F5, r24	; 0x8038f5 <reactStr+0x2>
    2674:	90 93 f6 38 	sts	0x38F6, r25	; 0x8038f6 <reactStr+0x3>
    reactStr[1][number]=length;
    2678:	89 e5       	ldi	r24, 0x59	; 89
    267a:	90 e0       	ldi	r25, 0x00	; 0
    267c:	16 ce       	rjmp	.-980    	; 0x22aa <ProcessInput+0x17a>
        
        //Pick up an object
        } else if (data[0] == 'p') {
            if (inventory[0]&&inventory[1]) {
                SetResponse(elements++, A_CARRYTWO, L_CARRYTWO, TEASER);
            } else if (inputLen != 2) {
    267e:	b2 e0       	ldi	r27, 0x02	; 2
    2680:	fb 12       	cpse	r15, r27
    2682:	86 cd       	rjmp	.-1268   	; 0x2190 <ProcessInput+0x60>
                SetResponse(elements++, A_NOTPOSSIBLE, L_NOTPOSSIBLE, TEASER);
            } else {
                route[currDepth+1] = FindChild(route[currDepth], data[1], 0);
    2684:	e0 90 26 38 	lds	r14, 0x3826	; 0x803826 <currDepth>
    2688:	f1 2c       	mov	r15, r1
    268a:	f7 01       	movw	r30, r14
    268c:	ee 0f       	add	r30, r30
    268e:	ff 1f       	adc	r31, r31
    2690:	ed 54       	subi	r30, 0x4D	; 77
    2692:	f6 4c       	sbci	r31, 0xC6	; 198
    2694:	40 e0       	ldi	r20, 0x00	; 0
    2696:	50 e0       	ldi	r21, 0x00	; 0
    2698:	d8 01       	movw	r26, r16
    269a:	11 96       	adiw	r26, 0x01	; 1
    269c:	6c 91       	ld	r22, X
    269e:	80 81       	ld	r24, Z
    26a0:	91 81       	ldd	r25, Z+1	; 0x01
    26a2:	60 d9       	rcall	.-3392   	; 0x1964 <FindChild>
    26a4:	f7 01       	movw	r30, r14
    26a6:	ee 0f       	add	r30, r30
    26a8:	ff 1f       	adc	r31, r31
    26aa:	eb 54       	subi	r30, 0x4B	; 75
    26ac:	f6 4c       	sbci	r31, 0xC6	; 198
    26ae:	80 83       	st	Z, r24
    26b0:	91 83       	std	Z+1, r25	; 0x01
                if (route[currDepth+1]) {
    26b2:	20 91 26 38 	lds	r18, 0x3826	; 0x803826 <currDepth>
    26b6:	30 e0       	ldi	r19, 0x00	; 0
    26b8:	2f 5f       	subi	r18, 0xFF	; 255
    26ba:	3f 4f       	sbci	r19, 0xFF	; 255
    26bc:	22 0f       	add	r18, r18
    26be:	33 1f       	adc	r19, r19
    26c0:	f9 01       	movw	r30, r18
    26c2:	ed 54       	subi	r30, 0x4D	; 77
    26c4:	f6 4c       	sbci	r31, 0xC6	; 198
    26c6:	80 81       	ld	r24, Z
    26c8:	91 81       	ldd	r25, Z+1	; 0x01
    26ca:	00 97       	sbiw	r24, 0x00	; 0
    26cc:	09 f4       	brne	.+2      	; 0x26d0 <ProcessInput+0x5a0>
    26ce:	ab c3       	rjmp	.+1878   	; 0x2e26 <ProcessInput+0xcf6>
                    if ((route[currDepth+1] == inventory[0])||(route[currDepth+1] == inventory[1])) {
    26d0:	40 91 31 38 	lds	r20, 0x3831	; 0x803831 <inventory>
    26d4:	50 91 32 38 	lds	r21, 0x3832	; 0x803832 <inventory+0x1>
    26d8:	84 17       	cp	r24, r20
    26da:	95 07       	cpc	r25, r21
    26dc:	39 f0       	breq	.+14     	; 0x26ec <ProcessInput+0x5bc>
    26de:	40 91 33 38 	lds	r20, 0x3833	; 0x803833 <inventory+0x2>
    26e2:	50 91 34 38 	lds	r21, 0x3834	; 0x803834 <inventory+0x3>
    26e6:	84 17       	cp	r24, r20
    26e8:	95 07       	cpc	r25, r21
    26ea:	c1 f4       	brne	.+48     	; 0x271c <ProcessInput+0x5ec>
    return 0;
}

//
void SetResponse(uint8_t number, uint16_t address, uint16_t length, uint8_t type){
    reactStr[0][number]=address;
    26ec:	80 e2       	ldi	r24, 0x20	; 32
    26ee:	98 e7       	ldi	r25, 0x78	; 120
    26f0:	80 93 f5 38 	sts	0x38F5, r24	; 0x8038f5 <reactStr+0x2>
    26f4:	90 93 f6 38 	sts	0x38F6, r25	; 0x8038f6 <reactStr+0x3>
    reactStr[1][number]=length;
    26f8:	85 e2       	ldi	r24, 0x25	; 37
    26fa:	90 e0       	ldi	r25, 0x00	; 0
    26fc:	80 93 35 39 	sts	0x3935, r24	; 0x803935 <reactStr+0x42>
    2700:	90 93 36 39 	sts	0x3936, r25	; 0x803936 <reactStr+0x43>
    reactStr[2][number]=type;
    2704:	81 e0       	ldi	r24, 0x01	; 1
    2706:	90 e0       	ldi	r25, 0x00	; 0
    2708:	80 93 75 39 	sts	0x3975, r24	; 0x803975 <reactStr+0x82>
    270c:	90 93 76 39 	sts	0x3976, r25	; 0x803976 <reactStr+0x83>
            } else {
                route[currDepth+1] = FindChild(route[currDepth], data[1], 0);
                if (route[currDepth+1]) {
                    if ((route[currDepth+1] == inventory[0])||(route[currDepth+1] == inventory[1])) {
                        SetResponse(elements++, A_ALREADYCARRYING, L_ALREADYCARRYING, TEASER);
                        route[currDepth+1] = 0;
    2710:	f9 01       	movw	r30, r18
    2712:	ed 54       	subi	r30, 0x4D	; 77
    2714:	f6 4c       	sbci	r31, 0xC6	; 198
    2716:	10 82       	st	Z, r1
    2718:	11 82       	std	Z+1, r1	; 0x01
                    } else {
                        //Put item in the inventory if possible
                        PopulateObject(route[currDepth+1], &actObj1);  
    271a:	d1 cd       	rjmp	.-1118   	; 0x22be <ProcessInput+0x18e>
    271c:	64 eb       	ldi	r22, 0xB4	; 180
    271e:	78 e3       	ldi	r23, 0x38	; 56
    2720:	56 d8       	rcall	.-3924   	; 0x17ce <PopulateObject>
                        if (CheckState(actObj1.byteField[ACTION_ACL])) {
    2722:	80 91 bb 38 	lds	r24, 0x38BB	; 0x8038bb <actObj1.3988+0x7>
    2726:	0e 94 dc 08 	call	0x11b8	; 0x11b8 <CheckState>
    272a:	88 23       	and	r24, r24
    272c:	09 f4       	brne	.+2      	; 0x2730 <ProcessInput+0x600>
    272e:	5d c3       	rjmp	.+1722   	; 0x2dea <ProcessInput+0xcba>
                            if (actObj1.byteField[ITEM_NR]) {
    2730:	80 91 bf 38 	lds	r24, 0x38BF	; 0x8038bf <actObj1.3988+0xb>
    2734:	88 23       	and	r24, r24
    2736:	09 f4       	brne	.+2      	; 0x273a <ProcessInput+0x60a>
    2738:	2b cd       	rjmp	.-1450   	; 0x2190 <ProcessInput+0x60>
                                if (inventory[0]) {
    273a:	80 91 31 38 	lds	r24, 0x3831	; 0x803831 <inventory>
    273e:	90 91 32 38 	lds	r25, 0x3832	; 0x803832 <inventory+0x1>
    2742:	e0 91 26 38 	lds	r30, 0x3826	; 0x803826 <currDepth>
                                    inventory[1] = route[currDepth+1];
    2746:	f0 e0       	ldi	r31, 0x00	; 0
    2748:	ee 0f       	add	r30, r30
    274a:	ff 1f       	adc	r31, r31
    274c:	eb 54       	subi	r30, 0x4B	; 75
    274e:	f6 4c       	sbci	r31, 0xC6	; 198
                    } else {
                        //Put item in the inventory if possible
                        PopulateObject(route[currDepth+1], &actObj1);  
                        if (CheckState(actObj1.byteField[ACTION_ACL])) {
                            if (actObj1.byteField[ITEM_NR]) {
                                if (inventory[0]) {
    2750:	89 2b       	or	r24, r25
    2752:	39 f0       	breq	.+14     	; 0x2762 <ProcessInput+0x632>
                                    inventory[1] = route[currDepth+1];
    2754:	80 81       	ld	r24, Z
    2756:	91 81       	ldd	r25, Z+1	; 0x01
    2758:	80 93 33 38 	sts	0x3833, r24	; 0x803833 <inventory+0x2>
    275c:	90 93 34 38 	sts	0x3834, r25	; 0x803834 <inventory+0x3>
    2760:	06 c0       	rjmp	.+12     	; 0x276e <ProcessInput+0x63e>
                                } else {
                                    inventory[0] = route[currDepth+1];
    2762:	80 81       	ld	r24, Z
    2764:	91 81       	ldd	r25, Z+1	; 0x01
    2766:	80 93 31 38 	sts	0x3831, r24	; 0x803831 <inventory>
    276a:	90 93 32 38 	sts	0x3832, r25	; 0x803832 <inventory+0x1>
    return 0;
}

//
void SetResponse(uint8_t number, uint16_t address, uint16_t length, uint8_t type){
    reactStr[0][number]=address;
    276e:	8a e0       	ldi	r24, 0x0A	; 10
    2770:	98 e7       	ldi	r25, 0x78	; 120
    2772:	80 93 f5 38 	sts	0x38F5, r24	; 0x8038f5 <reactStr+0x2>
    2776:	90 93 f6 38 	sts	0x38F6, r25	; 0x8038f6 <reactStr+0x3>
    reactStr[1][number]=length;
    277a:	86 e1       	ldi	r24, 0x16	; 22
    277c:	90 e0       	ldi	r25, 0x00	; 0
    277e:	53 c2       	rjmp	.+1190   	; 0x2c26 <ProcessInput+0xaf6>
                } else SetResponse(elements++, A_NOSUCHOBJECT, L_NOSUCHOBJECT, TEASER);
            }
        } else

        //Drop item if in inventory
        if (data[0] == 'd') {
    2780:	84 36       	cpi	r24, 0x64	; 100
    2782:	d9 f4       	brne	.+54     	; 0x27ba <ProcessInput+0x68a>
            if ((inventory[0] == 0)&&(inventory[1] == 0)){
    2784:	80 91 31 38 	lds	r24, 0x3831	; 0x803831 <inventory>
    2788:	90 91 32 38 	lds	r25, 0x3832	; 0x803832 <inventory+0x1>
    278c:	00 97       	sbiw	r24, 0x00	; 0
    278e:	09 f0       	breq	.+2      	; 0x2792 <ProcessInput+0x662>
    2790:	b0 c4       	rjmp	.+2400   	; 0x30f2 <ProcessInput+0xfc2>
    2792:	80 91 33 38 	lds	r24, 0x3833	; 0x803833 <inventory+0x2>
    2796:	90 91 34 38 	lds	r25, 0x3834	; 0x803834 <inventory+0x3>
    279a:	89 2b       	or	r24, r25
    279c:	49 f4       	brne	.+18     	; 0x27b0 <ProcessInput+0x680>
    return 0;
}

//
void SetResponse(uint8_t number, uint16_t address, uint16_t length, uint8_t type){
    reactStr[0][number]=address;
    279e:	84 ee       	ldi	r24, 0xE4	; 228
    27a0:	97 e7       	ldi	r25, 0x77	; 119
    27a2:	80 93 f5 38 	sts	0x38F5, r24	; 0x8038f5 <reactStr+0x2>
    27a6:	90 93 f6 38 	sts	0x38F6, r25	; 0x8038f6 <reactStr+0x3>
    reactStr[1][number]=length;
    27aa:	86 e2       	ldi	r24, 0x26	; 38
    27ac:	90 e0       	ldi	r25, 0x00	; 0
    27ae:	7d cd       	rjmp	.-1286   	; 0x22aa <ProcessInput+0x17a>

        //Drop item if in inventory
        if (data[0] == 'd') {
            if ((inventory[0] == 0)&&(inventory[1] == 0)){
                SetResponse(elements++, A_EMPTYHANDS, L_EMPTYHANDS, TEASER);
            } else if (inputLen != 2) {
    27b0:	b2 e0       	ldi	r27, 0x02	; 2
    27b2:	fb 16       	cp	r15, r27
    27b4:	09 f4       	brne	.+2      	; 0x27b8 <ProcessInput+0x688>
    27b6:	02 c5       	rjmp	.+2564   	; 0x31bc <ProcessInput+0x108c>
    27b8:	eb cc       	rjmp	.-1578   	; 0x2190 <ProcessInput+0x60>
                    if (x) SetResponse(elements++, A_NOTCARRYING, L_NOTCARRYING, TEASER);
                }
            }

        //Inventory list
        } else if (data[0] == 'i') {
    27ba:	89 36       	cpi	r24, 0x69	; 105
    27bc:	09 f0       	breq	.+2      	; 0x27c0 <ProcessInput+0x690>
    27be:	7b c0       	rjmp	.+246    	; 0x28b6 <ProcessInput+0x786>
            if ((inventory[0] == 0)&&(inventory[1] == 0)){
    27c0:	80 91 31 38 	lds	r24, 0x3831	; 0x803831 <inventory>
    27c4:	90 91 32 38 	lds	r25, 0x3832	; 0x803832 <inventory+0x1>
    27c8:	89 2b       	or	r24, r25
    27ca:	31 f4       	brne	.+12     	; 0x27d8 <ProcessInput+0x6a8>
    27cc:	80 91 33 38 	lds	r24, 0x3833	; 0x803833 <inventory+0x2>
    27d0:	90 91 34 38 	lds	r25, 0x3834	; 0x803834 <inventory+0x3>
    27d4:	89 2b       	or	r24, r25
    27d6:	19 f3       	breq	.-58     	; 0x279e <ProcessInput+0x66e>
    return 0;
}

//
void SetResponse(uint8_t number, uint16_t address, uint16_t length, uint8_t type){
    reactStr[0][number]=address;
    27d8:	8a e0       	ldi	r24, 0x0A	; 10
    27da:	98 e7       	ldi	r25, 0x78	; 120
    27dc:	80 93 f5 38 	sts	0x38F5, r24	; 0x8038f5 <reactStr+0x2>
    27e0:	90 93 f6 38 	sts	0x38F6, r25	; 0x8038f6 <reactStr+0x3>
    reactStr[1][number]=length;
    27e4:	86 e1       	ldi	r24, 0x16	; 22
    27e6:	90 e0       	ldi	r25, 0x00	; 0
    27e8:	80 93 35 39 	sts	0x3935, r24	; 0x803935 <reactStr+0x42>
    27ec:	90 93 36 39 	sts	0x3936, r25	; 0x803936 <reactStr+0x43>
    reactStr[2][number]=type;
    27f0:	81 e0       	ldi	r24, 0x01	; 1
    27f2:	90 e0       	ldi	r25, 0x00	; 0
    27f4:	80 93 75 39 	sts	0x3975, r24	; 0x803975 <reactStr+0x82>
    27f8:	90 93 76 39 	sts	0x3976, r25	; 0x803976 <reactStr+0x83>
    27fc:	21 e3       	ldi	r18, 0x31	; 49
    27fe:	e2 2e       	mov	r14, r18
    2800:	28 e3       	ldi	r18, 0x38	; 56
    2802:	f2 2e       	mov	r15, r18
    2804:	35 e3       	ldi	r19, 0x35	; 53
    2806:	63 2e       	mov	r6, r19
    2808:	38 e3       	ldi	r19, 0x38	; 56
    280a:	73 2e       	mov	r7, r19
        //Inventory list
        } else if (data[0] == 'i') {
            if ((inventory[0] == 0)&&(inventory[1] == 0)){
                SetResponse(elements++, A_EMPTYHANDS, L_EMPTYHANDS, TEASER);
            } else {
                SetResponse(elements++, A_NOWCARRING, L_NOWCARRING, TEASER);
    280c:	42 e0       	ldi	r20, 0x02	; 2
    280e:	54 2e       	mov	r5, r20
    return 0;
}

//
void SetResponse(uint8_t number, uint16_t address, uint16_t length, uint8_t type){
    reactStr[0][number]=address;
    2810:	59 e5       	ldi	r21, 0x59	; 89
    2812:	c5 2e       	mov	r12, r21
    2814:	5a e7       	ldi	r21, 0x7A	; 122
    2816:	d5 2e       	mov	r13, r21
    reactStr[1][number]=length;
    2818:	62 e0       	ldi	r22, 0x02	; 2
    281a:	a6 2e       	mov	r10, r22
    281c:	b1 2c       	mov	r11, r1
    reactStr[2][number]=type;
    281e:	88 24       	eor	r8, r8
    2820:	83 94       	inc	r8
    2822:	91 2c       	mov	r9, r1
            } else {
                SetResponse(elements++, A_NOWCARRING, L_NOWCARRING, TEASER);
                //SetResponse(elements++, A_SPACE, L_SPACE, TEASER);
                
                for (uint8_t x=0; x<2; ++x) {
                    if (inventory[x]) {
    2824:	d7 01       	movw	r26, r14
    2826:	8d 91       	ld	r24, X+
    2828:	9d 91       	ld	r25, X+
    282a:	7d 01       	movw	r14, r26
    282c:	00 97       	sbiw	r24, 0x00	; 0
    282e:	d9 f1       	breq	.+118    	; 0x28a6 <ProcessInput+0x776>
                        PopulateObject(inventory[x], &actObj1);
    2830:	64 eb       	ldi	r22, 0xB4	; 180
    2832:	78 e3       	ldi	r23, 0x38	; 56
    2834:	0e 94 e7 0b 	call	0x17ce	; 0x17ce <PopulateObject>
                        SetResponse(elements++, actObj1.addrStr[NAME], actObj1.lenStr[NAME], GAME);
    2838:	80 91 ce 38 	lds	r24, 0x38CE	; 0x8038ce <actObj1.3988+0x1a>
    283c:	90 91 cf 38 	lds	r25, 0x38CF	; 0x8038cf <actObj1.3988+0x1b>
    return 0;
}

//
void SetResponse(uint8_t number, uint16_t address, uint16_t length, uint8_t type){
    reactStr[0][number]=address;
    2840:	e5 2d       	mov	r30, r5
    2842:	f0 e0       	ldi	r31, 0x00	; 0
    2844:	df 01       	movw	r26, r30
    2846:	aa 0f       	add	r26, r26
    2848:	bb 1f       	adc	r27, r27
    284a:	ad 50       	subi	r26, 0x0D	; 13
    284c:	b7 4c       	sbci	r27, 0xC7	; 199
    284e:	20 91 c0 38 	lds	r18, 0x38C0	; 0x8038c0 <actObj1.3988+0xc>
    2852:	30 91 c1 38 	lds	r19, 0x38C1	; 0x8038c1 <actObj1.3988+0xd>
    2856:	2d 93       	st	X+, r18
    2858:	3c 93       	st	X, r19
    reactStr[1][number]=length;
    285a:	df 01       	movw	r26, r30
    285c:	aa 0f       	add	r26, r26
    285e:	bb 1f       	adc	r27, r27
    2860:	ad 5c       	subi	r26, 0xCD	; 205
    2862:	b6 4c       	sbci	r27, 0xC6	; 198
    2864:	8d 93       	st	X+, r24
    2866:	9c 93       	st	X, r25
    reactStr[2][number]=type;
    2868:	ee 0f       	add	r30, r30
    286a:	ff 1f       	adc	r31, r31
    286c:	ed 58       	subi	r30, 0x8D	; 141
    286e:	f6 4c       	sbci	r31, 0xC6	; 198
    2870:	10 82       	st	Z, r1
    2872:	11 82       	std	Z+1, r1	; 0x01
    return 0;
}

//
void SetResponse(uint8_t number, uint16_t address, uint16_t length, uint8_t type){
    reactStr[0][number]=address;
    2874:	e1 e0       	ldi	r30, 0x01	; 1
    2876:	e5 0d       	add	r30, r5
    2878:	f0 e0       	ldi	r31, 0x00	; 0
    287a:	53 94       	inc	r5
    287c:	53 94       	inc	r5
    287e:	df 01       	movw	r26, r30
    2880:	aa 0f       	add	r26, r26
    2882:	bb 1f       	adc	r27, r27
    2884:	ad 50       	subi	r26, 0x0D	; 13
    2886:	b7 4c       	sbci	r27, 0xC7	; 199
    2888:	cd 92       	st	X+, r12
    288a:	dc 92       	st	X, r13
    reactStr[1][number]=length;
    288c:	df 01       	movw	r26, r30
    288e:	aa 0f       	add	r26, r26
    2890:	bb 1f       	adc	r27, r27
    2892:	ad 5c       	subi	r26, 0xCD	; 205
    2894:	b6 4c       	sbci	r27, 0xC6	; 198
    2896:	ad 92       	st	X+, r10
    2898:	bc 92       	st	X, r11
    reactStr[2][number]=type;
    289a:	ee 0f       	add	r30, r30
    289c:	ff 1f       	adc	r31, r31
    289e:	ed 58       	subi	r30, 0x8D	; 141
    28a0:	f6 4c       	sbci	r31, 0xC6	; 198
    28a2:	80 82       	st	Z, r8
    28a4:	91 82       	std	Z+1, r9	; 0x01
                SetResponse(elements++, A_EMPTYHANDS, L_EMPTYHANDS, TEASER);
            } else {
                SetResponse(elements++, A_NOWCARRING, L_NOWCARRING, TEASER);
                //SetResponse(elements++, A_SPACE, L_SPACE, TEASER);
                
                for (uint8_t x=0; x<2; ++x) {
    28a6:	6e 14       	cp	r6, r14
    28a8:	7f 04       	cpc	r7, r15
    28aa:	09 f0       	breq	.+2      	; 0x28ae <ProcessInput+0x77e>
    28ac:	bb cf       	rjmp	.-138    	; 0x2824 <ProcessInput+0x6f4>
                        SetResponse(elements++, actObj1.addrStr[NAME], actObj1.lenStr[NAME], GAME);
                        SetResponse(elements++, A_COMMA, L_COMMA, TEASER);
                        //SetResponse(elements++, A_SPACE, L_SPACE, TEASER);
                    }
                }
                elements -= 1;
    28ae:	77 24       	eor	r7, r7
    28b0:	7a 94       	dec	r7
    28b2:	75 0c       	add	r7, r5
    28b4:	d9 c3       	rjmp	.+1970   	; 0x3068 <ProcessInput+0xf38>
            }            
        
        //Talk, use, give, read
        } else if ((data[0] == 't')||(data[0] == 'u')||(data[0] == 'g')||(data[0] == 'r')) {
    28b6:	9c e8       	ldi	r25, 0x8C	; 140
    28b8:	98 0f       	add	r25, r24
    28ba:	92 30       	cpi	r25, 0x02	; 2
    28bc:	28 f0       	brcs	.+10     	; 0x28c8 <ProcessInput+0x798>
    28be:	87 36       	cpi	r24, 0x67	; 103
    28c0:	19 f0       	breq	.+6      	; 0x28c8 <ProcessInput+0x798>
    28c2:	82 37       	cpi	r24, 0x72	; 114
    28c4:	09 f0       	breq	.+2      	; 0x28c8 <ProcessInput+0x798>
    28c6:	b8 c2       	rjmp	.+1392   	; 0x2e38 <ProcessInput+0xd08>
            if ((inputLen<2)||(inputLen>3)) {
    28c8:	8e ef       	ldi	r24, 0xFE	; 254
    28ca:	8f 0d       	add	r24, r15
    28cc:	82 30       	cpi	r24, 0x02	; 2
    28ce:	08 f0       	brcs	.+2      	; 0x28d2 <ProcessInput+0x7a2>
    28d0:	5f cc       	rjmp	.-1858   	; 0x2190 <ProcessInput+0x60>
                SetResponse(elements++, A_NOTPOSSIBLE, L_NOTPOSSIBLE, TEASER);                
            
            //Check for visible person or object first
            } else {
                route[currDepth+1] = FindChild(route[currDepth], data[inputLen-1], 0);
    28d2:	e0 91 26 38 	lds	r30, 0x3826	; 0x803826 <currDepth>
    28d6:	ce 2e       	mov	r12, r30
    28d8:	d1 2c       	mov	r13, r1
    28da:	d8 01       	movw	r26, r16
    28dc:	af 0d       	add	r26, r15
    28de:	b1 1d       	adc	r27, r1
    28e0:	11 97       	sbiw	r26, 0x01	; 1
    28e2:	f6 01       	movw	r30, r12
    28e4:	ee 0f       	add	r30, r30
    28e6:	ff 1f       	adc	r31, r31
    28e8:	ed 54       	subi	r30, 0x4D	; 77
    28ea:	f6 4c       	sbci	r31, 0xC6	; 198
    28ec:	40 e0       	ldi	r20, 0x00	; 0
    28ee:	50 e0       	ldi	r21, 0x00	; 0
    28f0:	6c 91       	ld	r22, X
    28f2:	80 81       	ld	r24, Z
    28f4:	91 81       	ldd	r25, Z+1	; 0x01
    28f6:	36 d8       	rcall	.-3988   	; 0x1964 <FindChild>
    28f8:	f6 01       	movw	r30, r12
    28fa:	ee 0f       	add	r30, r30
    28fc:	ff 1f       	adc	r31, r31
    28fe:	eb 54       	subi	r30, 0x4B	; 75
    2900:	f6 4c       	sbci	r31, 0xC6	; 198
    2902:	80 83       	st	Z, r24
    2904:	91 83       	std	Z+1, r25	; 0x01
                if (route[currDepth+1]) {
    2906:	e0 91 26 38 	lds	r30, 0x3826	; 0x803826 <currDepth>
    290a:	f0 e0       	ldi	r31, 0x00	; 0
    290c:	ee 0f       	add	r30, r30
    290e:	ff 1f       	adc	r31, r31
    2910:	eb 54       	subi	r30, 0x4B	; 75
    2912:	f6 4c       	sbci	r31, 0xC6	; 198
    2914:	80 81       	ld	r24, Z
    2916:	91 81       	ldd	r25, Z+1	; 0x01
    2918:	00 97       	sbiw	r24, 0x00	; 0
    291a:	09 f4       	brne	.+2      	; 0x291e <ProcessInput+0x7ee>
    291c:	7b c2       	rjmp	.+1270   	; 0x2e14 <ProcessInput+0xce4>
                    
                    //Give item to person / use item on object 
                    if ((inputLen == 3)&&((data[0] == 'u')||(data[0] == 'g'))) {
    291e:	b3 e0       	ldi	r27, 0x03	; 3
    2920:	fb 12       	cpse	r15, r27
    2922:	6d c1       	rjmp	.+730    	; 0x2bfe <ProcessInput+0xace>
    2924:	f8 01       	movw	r30, r16
    2926:	20 81       	ld	r18, Z
    2928:	25 37       	cpi	r18, 0x75	; 117
    292a:	19 f0       	breq	.+6      	; 0x2932 <ProcessInput+0x802>
    292c:	27 36       	cpi	r18, 0x67	; 103
    292e:	09 f0       	breq	.+2      	; 0x2932 <ProcessInput+0x802>
    2930:	66 c1       	rjmp	.+716    	; 0x2bfe <ProcessInput+0xace>
    2932:	61 2c       	mov	r6, r1
    2934:	77 24       	eor	r7, r7
    2936:	73 94       	inc	r7
    return 0;
}

//
void SetResponse(uint8_t number, uint16_t address, uint16_t length, uint8_t type){
    reactStr[0][number]=address;
    2938:	54 e6       	ldi	r21, 0x64	; 100
    293a:	c5 2e       	mov	r12, r21
    293c:	59 e7       	ldi	r21, 0x79	; 121
    293e:	d5 2e       	mov	r13, r21
    reactStr[1][number]=length;
    2940:	61 e2       	ldi	r22, 0x21	; 33
    2942:	a6 2e       	mov	r10, r22
    2944:	b1 2c       	mov	r11, r1
    reactStr[2][number]=type;
    2946:	88 24       	eor	r8, r8
    2948:	83 94       	inc	r8
    294a:	91 2c       	mov	r9, r1
                if (route[currDepth+1]) {
                    
                    //Give item to person / use item on object 
                    if ((inputLen == 3)&&((data[0] == 'u')||(data[0] == 'g'))) {
                        for (uint8_t x=0; x<2; x++) {
                            if (inventory[x]) { 
    294c:	e6 2c       	mov	r14, r6
    294e:	f1 2c       	mov	r15, r1
    2950:	c7 01       	movw	r24, r14
    2952:	88 0f       	add	r24, r24
    2954:	99 1f       	adc	r25, r25
    2956:	9c 01       	movw	r18, r24
    2958:	2f 5c       	subi	r18, 0xCF	; 207
    295a:	37 4c       	sbci	r19, 0xC7	; 199
    295c:	79 01       	movw	r14, r18
    295e:	d9 01       	movw	r26, r18
    2960:	8d 91       	ld	r24, X+
    2962:	9c 91       	ld	r25, X
    2964:	00 97       	sbiw	r24, 0x00	; 0
    2966:	81 f0       	breq	.+32     	; 0x2988 <ProcessInput+0x858>
                                if (CheckLetter(inventory[x], data[1])) {
    2968:	f8 01       	movw	r30, r16
    296a:	61 81       	ldd	r22, Z+1	; 0x01
    296c:	0e 94 5e 0c 	call	0x18bc	; 0x18bc <CheckLetter>
    2970:	88 23       	and	r24, r24
    2972:	51 f0       	breq	.+20     	; 0x2988 <ProcessInput+0x858>
                                    PopulateObject(inventory[x], &actObj2);
    2974:	69 e8       	ldi	r22, 0x89	; 137
    2976:	78 e3       	ldi	r23, 0x38	; 56
    2978:	d7 01       	movw	r26, r14
    297a:	8d 91       	ld	r24, X+
    297c:	9c 91       	ld	r25, X
    297e:	0e 94 e7 0b 	call	0x17ce	; 0x17ce <PopulateObject>
                                    x = 2;
    2982:	32 e0       	ldi	r19, 0x02	; 2
    2984:	63 2e       	mov	r6, r19
    2986:	1e c0       	rjmp	.+60     	; 0x29c4 <ProcessInput+0x894>
                                }
                            }
                            if (x == 1) { 
    2988:	b1 e0       	ldi	r27, 0x01	; 1
    298a:	6b 12       	cpse	r6, r27
    298c:	1a c0       	rjmp	.+52     	; 0x29c2 <ProcessInput+0x892>
    return 0;
}

//
void SetResponse(uint8_t number, uint16_t address, uint16_t length, uint8_t type){
    reactStr[0][number]=address;
    298e:	e7 2d       	mov	r30, r7
    2990:	f0 e0       	ldi	r31, 0x00	; 0
    2992:	df 01       	movw	r26, r30
    2994:	aa 0f       	add	r26, r26
    2996:	bb 1f       	adc	r27, r27
    2998:	ad 50       	subi	r26, 0x0D	; 13
    299a:	b7 4c       	sbci	r27, 0xC7	; 199
    299c:	cd 92       	st	X+, r12
    299e:	dc 92       	st	X, r13
    reactStr[1][number]=length;
    29a0:	df 01       	movw	r26, r30
    29a2:	aa 0f       	add	r26, r26
    29a4:	bb 1f       	adc	r27, r27
    29a6:	ad 5c       	subi	r26, 0xCD	; 205
    29a8:	b6 4c       	sbci	r27, 0xC6	; 198
    29aa:	ad 92       	st	X+, r10
    29ac:	bc 92       	st	X, r11
    reactStr[2][number]=type;
    29ae:	ee 0f       	add	r30, r30
    29b0:	ff 1f       	adc	r31, r31
    29b2:	ed 58       	subi	r30, 0x8D	; 141
    29b4:	f6 4c       	sbci	r31, 0xC6	; 198
    29b6:	80 82       	st	Z, r8
    29b8:	91 82       	std	Z+1, r9	; 0x01
                                    x = 2;
                                }
                            }
                            if (x == 1) { 
                                SetResponse(elements++, A_NOTCARRYING, L_NOTCARRYING, TEASER);
                                data[0] = 0;
    29ba:	f8 01       	movw	r30, r16
    29bc:	10 82       	st	Z, r1
                                    PopulateObject(inventory[x], &actObj2);
                                    x = 2;
                                }
                            }
                            if (x == 1) { 
                                SetResponse(elements++, A_NOTCARRYING, L_NOTCARRYING, TEASER);
    29be:	73 94       	inc	r7
    29c0:	01 c0       	rjmp	.+2      	; 0x29c4 <ProcessInput+0x894>
    29c2:	61 2c       	mov	r6, r1
                route[currDepth+1] = FindChild(route[currDepth], data[inputLen-1], 0);
                if (route[currDepth+1]) {
                    
                    //Give item to person / use item on object 
                    if ((inputLen == 3)&&((data[0] == 'u')||(data[0] == 'g'))) {
                        for (uint8_t x=0; x<2; x++) {
    29c4:	63 94       	inc	r6
    29c6:	f1 e0       	ldi	r31, 0x01	; 1
    29c8:	6f 16       	cp	r6, r31
    29ca:	09 f4       	brne	.+2      	; 0x29ce <ProcessInput+0x89e>
    29cc:	bf cf       	rjmp	.-130    	; 0x294c <ProcessInput+0x81c>
                                data[0] = 0;
                            }
                        }

                        //Both the item and person/object are found, check if action is legit
                        if (data[0]){
    29ce:	d8 01       	movw	r26, r16
    29d0:	8c 91       	ld	r24, X
    29d2:	88 23       	and	r24, r24
    29d4:	09 f4       	brne	.+2      	; 0x29d8 <ProcessInput+0x8a8>
    29d6:	48 c3       	rjmp	.+1680   	; 0x3068 <ProcessInput+0xf38>
                            PopulateObject(route[currDepth+1], &actObj1);
    29d8:	e0 91 26 38 	lds	r30, 0x3826	; 0x803826 <currDepth>
    29dc:	f0 e0       	ldi	r31, 0x00	; 0
    29de:	ee 0f       	add	r30, r30
    29e0:	ff 1f       	adc	r31, r31
    29e2:	eb 54       	subi	r30, 0x4B	; 75
    29e4:	f6 4c       	sbci	r31, 0xC6	; 198
    29e6:	64 eb       	ldi	r22, 0xB4	; 180
    29e8:	78 e3       	ldi	r23, 0x38	; 56
    29ea:	80 81       	ld	r24, Z
    29ec:	91 81       	ldd	r25, Z+1	; 0x01
    29ee:	0e 94 e7 0b 	call	0x17ce	; 0x17ce <PopulateObject>

                            //Special game
                            if (actObj1.lenStr[ACTION_STR1] == 1) {
    29f2:	e0 90 d2 38 	lds	r14, 0x38D2	; 0x8038d2 <actObj1.3988+0x1e>
    29f6:	f0 90 d3 38 	lds	r15, 0x38D3	; 0x8038d3 <actObj1.3988+0x1f>
    29fa:	b1 e0       	ldi	r27, 0x01	; 1
    29fc:	eb 16       	cp	r14, r27
    29fe:	f1 04       	cpc	r15, r1
    2a00:	09 f0       	breq	.+2      	; 0x2a04 <ProcessInput+0x8d4>
    2a02:	9a c0       	rjmp	.+308    	; 0x2b38 <ProcessInput+0xa08>
                                ExtEERead(actObj1.addrStr[ACTION_STR1], 1, GAME, &data[2]);
    2a04:	98 01       	movw	r18, r16
    2a06:	2e 5f       	subi	r18, 0xFE	; 254
    2a08:	3f 4f       	sbci	r19, 0xFF	; 255
    2a0a:	40 e0       	ldi	r20, 0x00	; 0
    2a0c:	61 e0       	ldi	r22, 0x01	; 1
    2a0e:	80 91 c4 38 	lds	r24, 0x38C4	; 0x8038c4 <actObj1.3988+0x10>
    2a12:	90 91 c5 38 	lds	r25, 0x38C5	; 0x8038c5 <actObj1.3988+0x11>
    2a16:	0e 94 dc 0a 	call	0x15b8	; 0x15b8 <ExtEERead>
                                if (data[2] == '1') {
    2a1a:	f8 01       	movw	r30, r16
    2a1c:	42 81       	ldd	r20, Z+2	; 0x02
    2a1e:	21 e0       	ldi	r18, 0x01	; 1
    2a20:	27 0d       	add	r18, r7
    2a22:	87 2d       	mov	r24, r7
    2a24:	90 e0       	ldi	r25, 0x00	; 0
    2a26:	41 33       	cpi	r20, 0x31	; 49
    2a28:	09 f0       	breq	.+2      	; 0x2a2c <ProcessInput+0x8fc>
    2a2a:	6b c0       	rjmp	.+214    	; 0x2b02 <ProcessInput+0x9d2>
                                    uint8_t item = actObj2.byteField[ITEM_NR];
    2a2c:	30 91 94 38 	lds	r19, 0x3894	; 0x803894 <actObj2.3989+0xb>
                                    if ((item < 31)||(item > 34)) {
    2a30:	51 ee       	ldi	r21, 0xE1	; 225
    2a32:	53 0f       	add	r21, r19
    return 0;
}

//
void SetResponse(uint8_t number, uint16_t address, uint16_t length, uint8_t type){
    reactStr[0][number]=address;
    2a34:	fc 01       	movw	r30, r24
    2a36:	ee 0f       	add	r30, r30
    2a38:	ff 1f       	adc	r31, r31
    2a3a:	ed 50       	subi	r30, 0x0D	; 13
    2a3c:	f7 4c       	sbci	r31, 0xC7	; 199
                            //Special game
                            if (actObj1.lenStr[ACTION_STR1] == 1) {
                                ExtEERead(actObj1.addrStr[ACTION_STR1], 1, GAME, &data[2]);
                                if (data[2] == '1') {
                                    uint8_t item = actObj2.byteField[ITEM_NR];
                                    if ((item < 31)||(item > 34)) {
    2a3e:	54 30       	cpi	r21, 0x04	; 4
    2a40:	60 f0       	brcs	.+24     	; 0x2a5a <ProcessInput+0x92a>
    return 0;
}

//
void SetResponse(uint8_t number, uint16_t address, uint16_t length, uint8_t type){
    reactStr[0][number]=address;
    2a42:	44 e0       	ldi	r20, 0x04	; 4
    2a44:	59 e7       	ldi	r21, 0x79	; 121
    2a46:	40 83       	st	Z, r20
    2a48:	51 83       	std	Z+1, r21	; 0x01
    reactStr[1][number]=length;
    2a4a:	fc 01       	movw	r30, r24
    2a4c:	ee 0f       	add	r30, r30
    2a4e:	ff 1f       	adc	r31, r31
    2a50:	ed 5c       	subi	r30, 0xCD	; 205
    2a52:	f6 4c       	sbci	r31, 0xC6	; 198
    2a54:	4a e1       	ldi	r20, 0x1A	; 26
    2a56:	50 e0       	ldi	r21, 0x00	; 0
    2a58:	64 c0       	rjmp	.+200    	; 0x2b22 <ProcessInput+0x9f2>
    return 0;
}

//
void SetResponse(uint8_t number, uint16_t address, uint16_t length, uint8_t type){
    reactStr[0][number]=address;
    2a5a:	6e e8       	ldi	r22, 0x8E	; 142
    2a5c:	75 e7       	ldi	r23, 0x75	; 117
    2a5e:	60 83       	st	Z, r22
    2a60:	71 83       	std	Z+1, r23	; 0x01
    reactStr[1][number]=length;
    2a62:	fc 01       	movw	r30, r24
    2a64:	ee 0f       	add	r30, r30
    2a66:	ff 1f       	adc	r31, r31
    2a68:	ed 5c       	subi	r30, 0xCD	; 205
    2a6a:	f6 4c       	sbci	r31, 0xC6	; 198
    2a6c:	62 eb       	ldi	r22, 0xB2	; 178
    2a6e:	70 e0       	ldi	r23, 0x00	; 0
    2a70:	60 83       	st	Z, r22
    2a72:	71 83       	std	Z+1, r23	; 0x01
    reactStr[2][number]=type;
    2a74:	88 0f       	add	r24, r24
    2a76:	99 1f       	adc	r25, r25
    2a78:	fc 01       	movw	r30, r24
    2a7a:	ed 58       	subi	r30, 0x8D	; 141
    2a7c:	f6 4c       	sbci	r31, 0xC6	; 198
    2a7e:	e0 82       	st	Z, r14
    2a80:	f1 82       	std	Z+1, r15	; 0x01
    return 0;
}

//
void SetResponse(uint8_t number, uint16_t address, uint16_t length, uint8_t type){
    reactStr[0][number]=address;
    2a82:	82 2f       	mov	r24, r18
    2a84:	90 e0       	ldi	r25, 0x00	; 0
    2a86:	fc 01       	movw	r30, r24
    2a88:	ee 0f       	add	r30, r30
    2a8a:	ff 1f       	adc	r31, r31
    2a8c:	ed 50       	subi	r30, 0x0D	; 13
    2a8e:	f7 4c       	sbci	r31, 0xC7	; 199
    2a90:	6b e5       	ldi	r22, 0x5B	; 91
    2a92:	7a e7       	ldi	r23, 0x7A	; 122
    2a94:	60 83       	st	Z, r22
    2a96:	71 83       	std	Z+1, r23	; 0x01
    reactStr[1][number]=length;
    2a98:	fc 01       	movw	r30, r24
    2a9a:	ee 0f       	add	r30, r30
    2a9c:	ff 1f       	adc	r31, r31
    2a9e:	ed 5c       	subi	r30, 0xCD	; 205
    2aa0:	f6 4c       	sbci	r31, 0xC6	; 198
    2aa2:	62 e0       	ldi	r22, 0x02	; 2
    2aa4:	70 e0       	ldi	r23, 0x00	; 0
    2aa6:	60 83       	st	Z, r22
    2aa8:	71 83       	std	Z+1, r23	; 0x01
    reactStr[2][number]=type;
    2aaa:	88 0f       	add	r24, r24
    2aac:	99 1f       	adc	r25, r25
    2aae:	fc 01       	movw	r30, r24
    2ab0:	ed 58       	subi	r30, 0x8D	; 141
    2ab2:	f6 4c       	sbci	r31, 0xC6	; 198
    2ab4:	e0 82       	st	Z, r14
    2ab6:	f1 82       	std	Z+1, r15	; 0x01
    return 0;
}

//
void SetResponse(uint8_t number, uint16_t address, uint16_t length, uint8_t type){
    reactStr[0][number]=address;
    2ab8:	82 e0       	ldi	r24, 0x02	; 2
    2aba:	87 0d       	add	r24, r7
    2abc:	90 e0       	ldi	r25, 0x00	; 0
    2abe:	f3 e0       	ldi	r31, 0x03	; 3
    2ac0:	7f 0e       	add	r7, r31
    2ac2:	fc 01       	movw	r30, r24
    2ac4:	ee 0f       	add	r30, r30
    2ac6:	ff 1f       	adc	r31, r31
    2ac8:	ed 50       	subi	r30, 0x0D	; 13
    2aca:	f7 4c       	sbci	r31, 0xC7	; 199
    2acc:	60 eb       	ldi	r22, 0xB0	; 176
    2ace:	78 e7       	ldi	r23, 0x78	; 120
    2ad0:	60 83       	st	Z, r22
    2ad2:	71 83       	std	Z+1, r23	; 0x01
    reactStr[1][number]=length;
    2ad4:	fc 01       	movw	r30, r24
    2ad6:	ee 0f       	add	r30, r30
    2ad8:	ff 1f       	adc	r31, r31
    2ada:	ed 5c       	subi	r30, 0xCD	; 205
    2adc:	f6 4c       	sbci	r31, 0xC6	; 198
    2ade:	62 e1       	ldi	r22, 0x12	; 18
    2ae0:	70 e0       	ldi	r23, 0x00	; 0
    2ae2:	60 83       	st	Z, r22
    2ae4:	71 83       	std	Z+1, r23	; 0x01
    reactStr[2][number]=type;
    2ae6:	88 0f       	add	r24, r24
    2ae8:	99 1f       	adc	r25, r25
    2aea:	fc 01       	movw	r30, r24
    2aec:	ed 58       	subi	r30, 0x8D	; 141
    2aee:	f6 4c       	sbci	r31, 0xC6	; 198
    2af0:	e0 82       	st	Z, r14
    2af2:	f1 82       	std	Z+1, r15	; 0x01
                                        SetResponse(elements++, A_CANTUSE, L_CANTUSE, TEASER);
                                    } else {
                                        SetResponse(elements++, A_PRIEST, L_PRIEST, TEASER);
                                        SetResponse(elements++, A_LF, 2, TEASER);
                                        SetResponse(elements++, A_RESPONSE, L_RESPONSE, TEASER);
                                        specialInput[0] = '1';
    2af4:	40 93 e2 38 	sts	0x38E2, r20	; 0x8038e2 <specialInput>
                                        specialInput[1] = item;
    2af8:	30 93 e3 38 	sts	0x38E3, r19	; 0x8038e3 <specialInput+0x1>
                                        specialInput[2] = 0;
    2afc:	10 92 e4 38 	sts	0x38E4, r1	; 0x8038e4 <specialInput+0x2>
    2b00:	b3 c2       	rjmp	.+1382   	; 0x3068 <ProcessInput+0xf38>
    return 0;
}

//
void SetResponse(uint8_t number, uint16_t address, uint16_t length, uint8_t type){
    reactStr[0][number]=address;
    2b02:	fc 01       	movw	r30, r24
    2b04:	ee 0f       	add	r30, r30
    2b06:	ff 1f       	adc	r31, r31
    2b08:	ed 50       	subi	r30, 0x0D	; 13
    2b0a:	f7 4c       	sbci	r31, 0xC7	; 199
    2b0c:	40 e4       	ldi	r20, 0x40	; 64
    2b0e:	56 e7       	ldi	r21, 0x76	; 118
    2b10:	40 83       	st	Z, r20
    2b12:	51 83       	std	Z+1, r21	; 0x01
    reactStr[1][number]=length;
    2b14:	fc 01       	movw	r30, r24
    2b16:	ee 0f       	add	r30, r30
    2b18:	ff 1f       	adc	r31, r31
    2b1a:	ed 5c       	subi	r30, 0xCD	; 205
    2b1c:	f6 4c       	sbci	r31, 0xC6	; 198
    2b1e:	42 e4       	ldi	r20, 0x42	; 66
    2b20:	50 e0       	ldi	r21, 0x00	; 0
    2b22:	40 83       	st	Z, r20
    2b24:	51 83       	std	Z+1, r21	; 0x01
    reactStr[2][number]=type;
    2b26:	88 0f       	add	r24, r24
    2b28:	99 1f       	adc	r25, r25
    2b2a:	fc 01       	movw	r30, r24
    2b2c:	ed 58       	subi	r30, 0x8D	; 141
    2b2e:	f6 4c       	sbci	r31, 0xC6	; 198
    2b30:	e0 82       	st	Z, r14
    2b32:	f1 82       	std	Z+1, r15	; 0x01
                                        specialInput[2] = 0;
                                    }

                                //There should not be another special
                                } else {
                                    SetResponse(elements++, A_ERROR, L_ERROR, TEASER);
    2b34:	72 2e       	mov	r7, r18
    2b36:	98 c2       	rjmp	.+1328   	; 0x3068 <ProcessInput+0xf38>
                                }

                            //Normal "use ... on ..." or "give ... to ..." action
                            } else if (actObj1.byteField[ACTION_ITEM] == actObj2.byteField[ITEM_NR]) {
    2b38:	90 91 bd 38 	lds	r25, 0x38BD	; 0x8038bd <actObj1.3988+0x9>
    2b3c:	80 91 94 38 	lds	r24, 0x3894	; 0x803894 <actObj2.3989+0xb>
    2b40:	98 13       	cpse	r25, r24
    2b42:	24 c0       	rjmp	.+72     	; 0x2b8c <ProcessInput+0xa5c>
                                UpdateState(actObj1.byteField[ACTION_STATE]);
    2b44:	80 91 be 38 	lds	r24, 0x38BE	; 0x8038be <actObj1.3988+0xa>
    2b48:	0e 94 d2 08 	call	0x11a4	; 0x11a4 <UpdateState>
                                SetResponse(elements++, actObj1.addrStr[ACTION_MSG], actObj1.lenStr[ACTION_MSG], GAME);
    2b4c:	20 91 da 38 	lds	r18, 0x38DA	; 0x8038da <actObj1.3988+0x26>
    2b50:	30 91 db 38 	lds	r19, 0x38DB	; 0x8038db <actObj1.3988+0x27>
    return 0;
}

//
void SetResponse(uint8_t number, uint16_t address, uint16_t length, uint8_t type){
    reactStr[0][number]=address;
    2b54:	87 2d       	mov	r24, r7
    2b56:	90 e0       	ldi	r25, 0x00	; 0
    2b58:	fc 01       	movw	r30, r24
    2b5a:	ee 0f       	add	r30, r30
    2b5c:	ff 1f       	adc	r31, r31
    2b5e:	ed 50       	subi	r30, 0x0D	; 13
    2b60:	f7 4c       	sbci	r31, 0xC7	; 199
    2b62:	40 91 cc 38 	lds	r20, 0x38CC	; 0x8038cc <actObj1.3988+0x18>
    2b66:	50 91 cd 38 	lds	r21, 0x38CD	; 0x8038cd <actObj1.3988+0x19>
    2b6a:	40 83       	st	Z, r20
    2b6c:	51 83       	std	Z+1, r21	; 0x01
    reactStr[1][number]=length;
    2b6e:	fc 01       	movw	r30, r24
    2b70:	ee 0f       	add	r30, r30
    2b72:	ff 1f       	adc	r31, r31
    2b74:	ed 5c       	subi	r30, 0xCD	; 205
    2b76:	f6 4c       	sbci	r31, 0xC6	; 198
    2b78:	20 83       	st	Z, r18
    2b7a:	31 83       	std	Z+1, r19	; 0x01
    reactStr[2][number]=type;
    2b7c:	88 0f       	add	r24, r24
    2b7e:	99 1f       	adc	r25, r25
    2b80:	fc 01       	movw	r30, r24
    2b82:	ed 58       	subi	r30, 0x8D	; 141
    2b84:	f6 4c       	sbci	r31, 0xC6	; 198
    2b86:	10 82       	st	Z, r1
    2b88:	11 82       	std	Z+1, r1	; 0x01
    2b8a:	37 c0       	rjmp	.+110    	; 0x2bfa <ProcessInput+0xaca>
                            //Normal "use ... on ..." or "give ... to ..." action
                            } else if (actObj1.byteField[ACTION_ITEM] == actObj2.byteField[ITEM_NR]) {
                                UpdateState(actObj1.byteField[ACTION_STATE]);
                                SetResponse(elements++, actObj1.addrStr[ACTION_MSG], actObj1.lenStr[ACTION_MSG], GAME);
                            } else {
                                if (data[0] == 'u') {
    2b8c:	d8 01       	movw	r26, r16
    2b8e:	8c 91       	ld	r24, X
    2b90:	85 37       	cpi	r24, 0x75	; 117
    2b92:	99 f4       	brne	.+38     	; 0x2bba <ProcessInput+0xa8a>
    return 0;
}

//
void SetResponse(uint8_t number, uint16_t address, uint16_t length, uint8_t type){
    reactStr[0][number]=address;
    2b94:	87 2d       	mov	r24, r7
    2b96:	90 e0       	ldi	r25, 0x00	; 0
    2b98:	fc 01       	movw	r30, r24
    2b9a:	ee 0f       	add	r30, r30
    2b9c:	ff 1f       	adc	r31, r31
    2b9e:	ed 50       	subi	r30, 0x0D	; 13
    2ba0:	f7 4c       	sbci	r31, 0xC7	; 199
    2ba2:	24 e0       	ldi	r18, 0x04	; 4
    2ba4:	39 e7       	ldi	r19, 0x79	; 121
    2ba6:	20 83       	st	Z, r18
    2ba8:	31 83       	std	Z+1, r19	; 0x01
    reactStr[1][number]=length;
    2baa:	fc 01       	movw	r30, r24
    2bac:	ee 0f       	add	r30, r30
    2bae:	ff 1f       	adc	r31, r31
    2bb0:	ed 5c       	subi	r30, 0xCD	; 205
    2bb2:	f6 4c       	sbci	r31, 0xC6	; 198
    2bb4:	2a e1       	ldi	r18, 0x1A	; 26
    2bb6:	30 e0       	ldi	r19, 0x00	; 0
    2bb8:	15 c0       	rjmp	.+42     	; 0x2be4 <ProcessInput+0xab4>
                                UpdateState(actObj1.byteField[ACTION_STATE]);
                                SetResponse(elements++, actObj1.addrStr[ACTION_MSG], actObj1.lenStr[ACTION_MSG], GAME);
                            } else {
                                if (data[0] == 'u') {
                                    SetResponse(elements++, A_CANTUSE, L_CANTUSE, TEASER);
                                } else if (data[0] == 'g') {
    2bba:	87 36       	cpi	r24, 0x67	; 103
    2bbc:	09 f0       	breq	.+2      	; 0x2bc0 <ProcessInput+0xa90>
    2bbe:	54 c2       	rjmp	.+1192   	; 0x3068 <ProcessInput+0xf38>
    return 0;
}

//
void SetResponse(uint8_t number, uint16_t address, uint16_t length, uint8_t type){
    reactStr[0][number]=address;
    2bc0:	87 2d       	mov	r24, r7
    2bc2:	90 e0       	ldi	r25, 0x00	; 0
    2bc4:	fc 01       	movw	r30, r24
    2bc6:	ee 0f       	add	r30, r30
    2bc8:	ff 1f       	adc	r31, r31
    2bca:	ed 50       	subi	r30, 0x0D	; 13
    2bcc:	f7 4c       	sbci	r31, 0xC7	; 199
    2bce:	2d ed       	ldi	r18, 0xDD	; 221
    2bd0:	36 e7       	ldi	r19, 0x76	; 118
    2bd2:	20 83       	st	Z, r18
    2bd4:	31 83       	std	Z+1, r19	; 0x01
    reactStr[1][number]=length;
    2bd6:	fc 01       	movw	r30, r24
    2bd8:	ee 0f       	add	r30, r30
    2bda:	ff 1f       	adc	r31, r31
    2bdc:	ed 5c       	subi	r30, 0xCD	; 205
    2bde:	f6 4c       	sbci	r31, 0xC6	; 198
    2be0:	28 e2       	ldi	r18, 0x28	; 40
    2be2:	30 e0       	ldi	r19, 0x00	; 0
    2be4:	20 83       	st	Z, r18
    2be6:	31 83       	std	Z+1, r19	; 0x01
    reactStr[2][number]=type;
    2be8:	88 0f       	add	r24, r24
    2bea:	99 1f       	adc	r25, r25
    2bec:	fc 01       	movw	r30, r24
    2bee:	ed 58       	subi	r30, 0x8D	; 141
    2bf0:	f6 4c       	sbci	r31, 0xC6	; 198
    2bf2:	81 e0       	ldi	r24, 0x01	; 1
    2bf4:	90 e0       	ldi	r25, 0x00	; 0
    2bf6:	80 83       	st	Z, r24
    2bf8:	91 83       	std	Z+1, r25	; 0x01
                                SetResponse(elements++, actObj1.addrStr[ACTION_MSG], actObj1.lenStr[ACTION_MSG], GAME);
                            } else {
                                if (data[0] == 'u') {
                                    SetResponse(elements++, A_CANTUSE, L_CANTUSE, TEASER);
                                } else if (data[0] == 'g') {
                                    SetResponse(elements++, A_CANTGIVE, L_CANTGIVE, TEASER);                                    
    2bfa:	73 94       	inc	r7
    2bfc:	35 c2       	rjmp	.+1130   	; 0x3068 <ProcessInput+0xf38>
                            }
                        }
                    
                    //Talk to person, read or use object (without item)                          
                    } else {
                        PopulateObject(route[currDepth+1], &actObj1);
    2bfe:	64 eb       	ldi	r22, 0xB4	; 180
    2c00:	78 e3       	ldi	r23, 0x38	; 56
    2c02:	0e 94 e7 0b 	call	0x17ce	; 0x17ce <PopulateObject>
                        if ((data[0] == 't')&&((actObj1.byteField[ACTION_MASK]&TALK) == 0)) {
    2c06:	f8 01       	movw	r30, r16
    2c08:	80 81       	ld	r24, Z
    2c0a:	84 37       	cpi	r24, 0x74	; 116
    2c0c:	69 f5       	brne	.+90     	; 0x2c68 <ProcessInput+0xb38>
    2c0e:	80 91 bc 38 	lds	r24, 0x38BC	; 0x8038bc <actObj1.3988+0x8>
    2c12:	83 fd       	sbrc	r24, 3
    2c14:	44 c0       	rjmp	.+136    	; 0x2c9e <ProcessInput+0xb6e>
    return 0;
}

//
void SetResponse(uint8_t number, uint16_t address, uint16_t length, uint8_t type){
    reactStr[0][number]=address;
    2c16:	8e e1       	ldi	r24, 0x1E	; 30
    2c18:	99 e7       	ldi	r25, 0x79	; 121
    2c1a:	80 93 f5 38 	sts	0x38F5, r24	; 0x8038f5 <reactStr+0x2>
    2c1e:	90 93 f6 38 	sts	0x38F6, r25	; 0x8038f6 <reactStr+0x3>
    reactStr[1][number]=length;
    2c22:	8e e1       	ldi	r24, 0x1E	; 30
    2c24:	90 e0       	ldi	r25, 0x00	; 0
    2c26:	80 93 35 39 	sts	0x3935, r24	; 0x803935 <reactStr+0x42>
    2c2a:	90 93 36 39 	sts	0x3936, r25	; 0x803936 <reactStr+0x43>
    reactStr[2][number]=type;
    2c2e:	81 e0       	ldi	r24, 0x01	; 1
    2c30:	90 e0       	ldi	r25, 0x00	; 0
    2c32:	80 93 75 39 	sts	0x3975, r24	; 0x803975 <reactStr+0x82>
    2c36:	90 93 76 39 	sts	0x3976, r25	; 0x803976 <reactStr+0x83>
                    //Talk to person, read or use object (without item)                          
                    } else {
                        PopulateObject(route[currDepth+1], &actObj1);
                        if ((data[0] == 't')&&((actObj1.byteField[ACTION_MASK]&TALK) == 0)) {
                            SetResponse(elements++, A_WHYTALK, L_WHYTALK, TEASER);
                            SetResponse(elements++, actObj1.addrStr[NAME], actObj1.lenStr[NAME], GAME);
    2c3a:	80 91 ce 38 	lds	r24, 0x38CE	; 0x8038ce <actObj1.3988+0x1a>
    2c3e:	90 91 cf 38 	lds	r25, 0x38CF	; 0x8038cf <actObj1.3988+0x1b>
    return 0;
}

//
void SetResponse(uint8_t number, uint16_t address, uint16_t length, uint8_t type){
    reactStr[0][number]=address;
    2c42:	20 91 c0 38 	lds	r18, 0x38C0	; 0x8038c0 <actObj1.3988+0xc>
    2c46:	30 91 c1 38 	lds	r19, 0x38C1	; 0x8038c1 <actObj1.3988+0xd>
    2c4a:	20 93 f7 38 	sts	0x38F7, r18	; 0x8038f7 <reactStr+0x4>
    2c4e:	30 93 f8 38 	sts	0x38F8, r19	; 0x8038f8 <reactStr+0x5>
    reactStr[1][number]=length;
    2c52:	80 93 37 39 	sts	0x3937, r24	; 0x803937 <reactStr+0x44>
    2c56:	90 93 38 39 	sts	0x3938, r25	; 0x803938 <reactStr+0x45>
    reactStr[2][number]=type;
    2c5a:	10 92 77 39 	sts	0x3977, r1	; 0x803977 <reactStr+0x84>
    2c5e:	10 92 78 39 	sts	0x3978, r1	; 0x803978 <reactStr+0x85>
                    //Talk to person, read or use object (without item)                          
                    } else {
                        PopulateObject(route[currDepth+1], &actObj1);
                        if ((data[0] == 't')&&((actObj1.byteField[ACTION_MASK]&TALK) == 0)) {
                            SetResponse(elements++, A_WHYTALK, L_WHYTALK, TEASER);
                            SetResponse(elements++, actObj1.addrStr[NAME], actObj1.lenStr[NAME], GAME);
    2c62:	a3 e0       	ldi	r26, 0x03	; 3
    2c64:	7a 2e       	mov	r7, r26
    2c66:	00 c2       	rjmp	.+1024   	; 0x3068 <ProcessInput+0xf38>
                        } else if ((data[0] == 'u')&&((actObj1.byteField[ACTION_MASK]&USE) == 0)) {
    2c68:	85 37       	cpi	r24, 0x75	; 117
    2c6a:	39 f4       	brne	.+14     	; 0x2c7a <ProcessInput+0xb4a>
    2c6c:	80 91 bc 38 	lds	r24, 0x38BC	; 0x8038bc <actObj1.3988+0x8>
    2c70:	84 fd       	sbrc	r24, 4
    2c72:	15 c0       	rjmp	.+42     	; 0x2c9e <ProcessInput+0xb6e>
    return 0;
}

//
void SetResponse(uint8_t number, uint16_t address, uint16_t length, uint8_t type){
    reactStr[0][number]=address;
    2c74:	84 e0       	ldi	r24, 0x04	; 4
    2c76:	99 e7       	ldi	r25, 0x79	; 121
    2c78:	35 c2       	rjmp	.+1130   	; 0x30e4 <ProcessInput+0xfb4>
                        if ((data[0] == 't')&&((actObj1.byteField[ACTION_MASK]&TALK) == 0)) {
                            SetResponse(elements++, A_WHYTALK, L_WHYTALK, TEASER);
                            SetResponse(elements++, actObj1.addrStr[NAME], actObj1.lenStr[NAME], GAME);
                        } else if ((data[0] == 'u')&&((actObj1.byteField[ACTION_MASK]&USE) == 0)) {
                            SetResponse(elements++, A_CANTUSE, L_CANTUSE, TEASER);
                        } else if ((data[0] == 'r')&&((actObj1.byteField[ACTION_MASK]&READ) == 0)) {
    2c7a:	82 37       	cpi	r24, 0x72	; 114
    2c7c:	69 f4       	brne	.+26     	; 0x2c98 <ProcessInput+0xb68>
    2c7e:	80 91 bc 38 	lds	r24, 0x38BC	; 0x8038bc <actObj1.3988+0x8>
    2c82:	85 fd       	sbrc	r24, 5
    2c84:	0c c0       	rjmp	.+24     	; 0x2c9e <ProcessInput+0xb6e>
    return 0;
}

//
void SetResponse(uint8_t number, uint16_t address, uint16_t length, uint8_t type){
    reactStr[0][number]=address;
    2c86:	89 ee       	ldi	r24, 0xE9	; 233
    2c88:	98 e7       	ldi	r25, 0x78	; 120
    2c8a:	80 93 f5 38 	sts	0x38F5, r24	; 0x8038f5 <reactStr+0x2>
    2c8e:	90 93 f6 38 	sts	0x38F6, r25	; 0x8038f6 <reactStr+0x3>
    reactStr[1][number]=length;
    2c92:	8b e1       	ldi	r24, 0x1B	; 27
    2c94:	90 e0       	ldi	r25, 0x00	; 0
    2c96:	09 cb       	rjmp	.-2542   	; 0x22aa <ProcessInput+0x17a>
                            SetResponse(elements++, actObj1.addrStr[NAME], actObj1.lenStr[NAME], GAME);
                        } else if ((data[0] == 'u')&&((actObj1.byteField[ACTION_MASK]&USE) == 0)) {
                            SetResponse(elements++, A_CANTUSE, L_CANTUSE, TEASER);
                        } else if ((data[0] == 'r')&&((actObj1.byteField[ACTION_MASK]&READ) == 0)) {
                            SetResponse(elements++, A_CANTREAD, L_CANTREAD, TEASER);
                        } else if (data[0] == 'g'){ 
    2c98:	87 36       	cpi	r24, 0x67	; 103
    2c9a:	09 f4       	brne	.+2      	; 0x2c9e <ProcessInput+0xb6e>
    2c9c:	79 ca       	rjmp	.-2830   	; 0x2190 <ProcessInput+0x60>
                            SetResponse(elements++, A_NOTPOSSIBLE, L_NOTPOSSIBLE, TEASER);  
                        } else {

                            //Special game, not enough characters
                            if (actObj1.lenStr[ACTION_STR1] == 1) {
    2c9e:	e0 90 d2 38 	lds	r14, 0x38D2	; 0x8038d2 <actObj1.3988+0x1e>
    2ca2:	f0 90 d3 38 	lds	r15, 0x38D3	; 0x8038d3 <actObj1.3988+0x1f>
    2ca6:	f1 e0       	ldi	r31, 0x01	; 1
    2ca8:	ef 16       	cp	r14, r31
    2caa:	f1 04       	cpc	r15, r1
    2cac:	11 f5       	brne	.+68     	; 0x2cf2 <ProcessInput+0xbc2>
                                ExtEERead(actObj1.addrStr[ACTION_STR1], 1, GAME, &data[2]);
    2cae:	98 01       	movw	r18, r16
    2cb0:	2e 5f       	subi	r18, 0xFE	; 254
    2cb2:	3f 4f       	sbci	r19, 0xFF	; 255
    2cb4:	40 e0       	ldi	r20, 0x00	; 0
    2cb6:	61 e0       	ldi	r22, 0x01	; 1
    2cb8:	80 91 c4 38 	lds	r24, 0x38C4	; 0x8038c4 <actObj1.3988+0x10>
    2cbc:	90 91 c5 38 	lds	r25, 0x38C5	; 0x8038c5 <actObj1.3988+0x11>
    2cc0:	0e 94 dc 0a 	call	0x15b8	; 0x15b8 <ExtEERead>
                                if (data[2] == '1') {
    2cc4:	d8 01       	movw	r26, r16
    2cc6:	12 96       	adiw	r26, 0x02	; 2
    2cc8:	8c 91       	ld	r24, X
    2cca:	81 33       	cpi	r24, 0x31	; 49
    2ccc:	09 f0       	breq	.+2      	; 0x2cd0 <ProcessInput+0xba0>
    2cce:	a7 cc       	rjmp	.-1714   	; 0x261e <ProcessInput+0x4ee>
    return 0;
}

//
void SetResponse(uint8_t number, uint16_t address, uint16_t length, uint8_t type){
    reactStr[0][number]=address;
    2cd0:	83 e6       	ldi	r24, 0x63	; 99
    2cd2:	95 e7       	ldi	r25, 0x75	; 117
    2cd4:	80 93 f5 38 	sts	0x38F5, r24	; 0x8038f5 <reactStr+0x2>
    2cd8:	90 93 f6 38 	sts	0x38F6, r25	; 0x8038f6 <reactStr+0x3>
    reactStr[1][number]=length;
    2cdc:	8b e2       	ldi	r24, 0x2B	; 43
    2cde:	90 e0       	ldi	r25, 0x00	; 0
    2ce0:	80 93 35 39 	sts	0x3935, r24	; 0x803935 <reactStr+0x42>
    2ce4:	90 93 36 39 	sts	0x3936, r25	; 0x803936 <reactStr+0x43>
    reactStr[2][number]=type;
    2ce8:	e0 92 75 39 	sts	0x3975, r14	; 0x803975 <reactStr+0x82>
    2cec:	f0 92 76 39 	sts	0x3976, r15	; 0x803976 <reactStr+0x83>
    2cf0:	e6 ca       	rjmp	.-2612   	; 0x22be <ProcessInput+0x18e>
                                if (data[2] == '1') {
                                    SetResponse(elements++, A_PLEASEOFFER, L_PLEASEOFFER, TEASER);
                                }

                            //General request
                            } else if (actObj1.lenStr[ACTION_STR1]) {
    2cf2:	e1 14       	cp	r14, r1
    2cf4:	f1 04       	cpc	r15, r1
    2cf6:	09 f4       	brne	.+2      	; 0x2cfa <ProcessInput+0xbca>
    2cf8:	59 c0       	rjmp	.+178    	; 0x2dac <ProcessInput+0xc7c>
    return 0;
}

//
void SetResponse(uint8_t number, uint16_t address, uint16_t length, uint8_t type){
    reactStr[0][number]=address;
    2cfa:	80 91 c4 38 	lds	r24, 0x38C4	; 0x8038c4 <actObj1.3988+0x10>
    2cfe:	90 91 c5 38 	lds	r25, 0x38C5	; 0x8038c5 <actObj1.3988+0x11>
    2d02:	80 93 f5 38 	sts	0x38F5, r24	; 0x8038f5 <reactStr+0x2>
    2d06:	90 93 f6 38 	sts	0x38F6, r25	; 0x8038f6 <reactStr+0x3>
    reactStr[1][number]=length;
    2d0a:	e0 92 35 39 	sts	0x3935, r14	; 0x803935 <reactStr+0x42>
    2d0e:	f0 92 36 39 	sts	0x3936, r15	; 0x803936 <reactStr+0x43>
    reactStr[2][number]=type;
    2d12:	10 92 75 39 	sts	0x3975, r1	; 0x803975 <reactStr+0x82>
    2d16:	10 92 76 39 	sts	0x3976, r1	; 0x803976 <reactStr+0x83>
    return 0;
}

//
void SetResponse(uint8_t number, uint16_t address, uint16_t length, uint8_t type){
    reactStr[0][number]=address;
    2d1a:	8b e5       	ldi	r24, 0x5B	; 91
    2d1c:	9a e7       	ldi	r25, 0x7A	; 122
    2d1e:	80 93 f7 38 	sts	0x38F7, r24	; 0x8038f7 <reactStr+0x4>
    2d22:	90 93 f8 38 	sts	0x38F8, r25	; 0x8038f8 <reactStr+0x5>
    reactStr[1][number]=length;
    2d26:	82 e0       	ldi	r24, 0x02	; 2
    2d28:	90 e0       	ldi	r25, 0x00	; 0
    2d2a:	80 93 37 39 	sts	0x3937, r24	; 0x803937 <reactStr+0x44>
    2d2e:	90 93 38 39 	sts	0x3938, r25	; 0x803938 <reactStr+0x45>
    reactStr[2][number]=type;
    2d32:	81 e0       	ldi	r24, 0x01	; 1
    2d34:	90 e0       	ldi	r25, 0x00	; 0
    2d36:	80 93 77 39 	sts	0x3977, r24	; 0x803977 <reactStr+0x84>
    2d3a:	90 93 78 39 	sts	0x3978, r25	; 0x803978 <reactStr+0x85>
    return 0;
}

//
void SetResponse(uint8_t number, uint16_t address, uint16_t length, uint8_t type){
    reactStr[0][number]=address;
    2d3e:	20 eb       	ldi	r18, 0xB0	; 176
    2d40:	38 e7       	ldi	r19, 0x78	; 120
    2d42:	20 93 f9 38 	sts	0x38F9, r18	; 0x8038f9 <reactStr+0x6>
    2d46:	30 93 fa 38 	sts	0x38FA, r19	; 0x8038fa <reactStr+0x7>
    reactStr[1][number]=length;
    2d4a:	22 e1       	ldi	r18, 0x12	; 18
    2d4c:	30 e0       	ldi	r19, 0x00	; 0
    2d4e:	20 93 39 39 	sts	0x3939, r18	; 0x803939 <reactStr+0x46>
    2d52:	30 93 3a 39 	sts	0x393A, r19	; 0x80393a <reactStr+0x47>
    reactStr[2][number]=type;
    2d56:	80 93 79 39 	sts	0x3979, r24	; 0x803979 <reactStr+0x86>
    2d5a:	90 93 7a 39 	sts	0x397A, r25	; 0x80397a <reactStr+0x87>
                            //General request
                            } else if (actObj1.lenStr[ACTION_STR1]) {
                                SetResponse(elements++, actObj1.addrStr[ACTION_STR1], actObj1.lenStr[ACTION_STR1], GAME);
                                SetResponse(elements++, A_LF, 2, TEASER);
                                SetResponse(elements++, A_RESPONSE, L_RESPONSE, TEASER);
                                if (actObj1.lenStr[ACTION_STR2]>(INP_LENGTH-1)) actObj1.lenStr[ACTION_STR2] = (INP_LENGTH-1);
    2d5e:	80 91 d4 38 	lds	r24, 0x38D4	; 0x8038d4 <actObj1.3988+0x20>
    2d62:	90 91 d5 38 	lds	r25, 0x38D5	; 0x8038d5 <actObj1.3988+0x21>
    2d66:	40 97       	sbiw	r24, 0x10	; 16
    2d68:	30 f0       	brcs	.+12     	; 0x2d76 <ProcessInput+0xc46>
    2d6a:	8f e0       	ldi	r24, 0x0F	; 15
    2d6c:	90 e0       	ldi	r25, 0x00	; 0
    2d6e:	80 93 d4 38 	sts	0x38D4, r24	; 0x8038d4 <actObj1.3988+0x20>
    2d72:	90 93 d5 38 	sts	0x38D5, r25	; 0x8038d5 <actObj1.3988+0x21>
                                ExtEERead(actObj1.addrStr[ACTION_STR2], actObj1.lenStr[ACTION_STR2], GAME, (uint8_t *)&specialInput[0]);
    2d76:	22 ee       	ldi	r18, 0xE2	; 226
    2d78:	38 e3       	ldi	r19, 0x38	; 56
    2d7a:	40 e0       	ldi	r20, 0x00	; 0
    2d7c:	60 91 d4 38 	lds	r22, 0x38D4	; 0x8038d4 <actObj1.3988+0x20>
    2d80:	80 91 c6 38 	lds	r24, 0x38C6	; 0x8038c6 <actObj1.3988+0x12>
    2d84:	90 91 c7 38 	lds	r25, 0x38C7	; 0x8038c7 <actObj1.3988+0x13>
    2d88:	0e 94 dc 0a 	call	0x15b8	; 0x15b8 <ExtEERead>
                                UnflipData(actObj1.lenStr[ACTION_STR2], (uint8_t *)&specialInput[0]);
    2d8c:	62 ee       	ldi	r22, 0xE2	; 226
    2d8e:	78 e3       	ldi	r23, 0x38	; 56
    2d90:	80 91 d4 38 	lds	r24, 0x38D4	; 0x8038d4 <actObj1.3988+0x20>
    2d94:	0e 94 cf 0a 	call	0x159e	; 0x159e <UnflipData>
                                specialInput[actObj1.lenStr[ACTION_STR2]] = 0;
    2d98:	e0 91 d4 38 	lds	r30, 0x38D4	; 0x8038d4 <actObj1.3988+0x20>
    2d9c:	f0 91 d5 38 	lds	r31, 0x38D5	; 0x8038d5 <actObj1.3988+0x21>
    2da0:	ee 51       	subi	r30, 0x1E	; 30
    2da2:	f7 4c       	sbci	r31, 0xC7	; 199
    2da4:	10 82       	st	Z, r1

                            //General request
                            } else if (actObj1.lenStr[ACTION_STR1]) {
                                SetResponse(elements++, actObj1.addrStr[ACTION_STR1], actObj1.lenStr[ACTION_STR1], GAME);
                                SetResponse(elements++, A_LF, 2, TEASER);
                                SetResponse(elements++, A_RESPONSE, L_RESPONSE, TEASER);
    2da6:	f4 e0       	ldi	r31, 0x04	; 4
    2da8:	7f 2e       	mov	r7, r31
    2daa:	5e c1       	rjmp	.+700    	; 0x3068 <ProcessInput+0xf38>
                                if (actObj1.lenStr[ACTION_STR2]>(INP_LENGTH-1)) actObj1.lenStr[ACTION_STR2] = (INP_LENGTH-1);
                                ExtEERead(actObj1.addrStr[ACTION_STR2], actObj1.lenStr[ACTION_STR2], GAME, (uint8_t *)&specialInput[0]);
                                UnflipData(actObj1.lenStr[ACTION_STR2], (uint8_t *)&specialInput[0]);
                                specialInput[actObj1.lenStr[ACTION_STR2]] = 0;
                                //specialPassed = 0;
                            } else if (CheckState(actObj1.byteField[ACTION_ACL])){
    2dac:	80 91 bb 38 	lds	r24, 0x38BB	; 0x8038bb <actObj1.3988+0x7>
    2db0:	0e 94 dc 08 	call	0x11b8	; 0x11b8 <CheckState>
    2db4:	88 23       	and	r24, r24
    2db6:	c9 f0       	breq	.+50     	; 0x2dea <ProcessInput+0xcba>
                                SetResponse(elements++, actObj1.addrStr[ACTION_MSG], actObj1.lenStr[ACTION_MSG], GAME);
    2db8:	80 91 da 38 	lds	r24, 0x38DA	; 0x8038da <actObj1.3988+0x26>
    2dbc:	90 91 db 38 	lds	r25, 0x38DB	; 0x8038db <actObj1.3988+0x27>
    return 0;
}

//
void SetResponse(uint8_t number, uint16_t address, uint16_t length, uint8_t type){
    reactStr[0][number]=address;
    2dc0:	20 91 cc 38 	lds	r18, 0x38CC	; 0x8038cc <actObj1.3988+0x18>
    2dc4:	30 91 cd 38 	lds	r19, 0x38CD	; 0x8038cd <actObj1.3988+0x19>
    2dc8:	20 93 f5 38 	sts	0x38F5, r18	; 0x8038f5 <reactStr+0x2>
    2dcc:	30 93 f6 38 	sts	0x38F6, r19	; 0x8038f6 <reactStr+0x3>
    reactStr[1][number]=length;
    2dd0:	80 93 35 39 	sts	0x3935, r24	; 0x803935 <reactStr+0x42>
    2dd4:	90 93 36 39 	sts	0x3936, r25	; 0x803936 <reactStr+0x43>
    reactStr[2][number]=type;
    2dd8:	10 92 75 39 	sts	0x3975, r1	; 0x803975 <reactStr+0x82>
    2ddc:	10 92 76 39 	sts	0x3976, r1	; 0x803976 <reactStr+0x83>
                                UnflipData(actObj1.lenStr[ACTION_STR2], (uint8_t *)&specialInput[0]);
                                specialInput[actObj1.lenStr[ACTION_STR2]] = 0;
                                //specialPassed = 0;
                            } else if (CheckState(actObj1.byteField[ACTION_ACL])){
                                SetResponse(elements++, actObj1.addrStr[ACTION_MSG], actObj1.lenStr[ACTION_MSG], GAME);
                                UpdateState(actObj1.byteField[ACTION_STATE]);
    2de0:	80 91 be 38 	lds	r24, 0x38BE	; 0x8038be <actObj1.3988+0xa>
    2de4:	0e 94 d2 08 	call	0x11a4	; 0x11a4 <UpdateState>
    2de8:	6a ca       	rjmp	.-2860   	; 0x22be <ProcessInput+0x18e>
                            } else {
                                SetResponse(elements++, actObj1.addrStr[ACTION_ACL_MSG], actObj1.lenStr[ACTION_ACL_MSG], GAME);
    2dea:	80 91 d8 38 	lds	r24, 0x38D8	; 0x8038d8 <actObj1.3988+0x24>
    2dee:	90 91 d9 38 	lds	r25, 0x38D9	; 0x8038d9 <actObj1.3988+0x25>
    return 0;
}

//
void SetResponse(uint8_t number, uint16_t address, uint16_t length, uint8_t type){
    reactStr[0][number]=address;
    2df2:	20 91 ca 38 	lds	r18, 0x38CA	; 0x8038ca <actObj1.3988+0x16>
    2df6:	30 91 cb 38 	lds	r19, 0x38CB	; 0x8038cb <actObj1.3988+0x17>
    2dfa:	20 93 f5 38 	sts	0x38F5, r18	; 0x8038f5 <reactStr+0x2>
    2dfe:	30 93 f6 38 	sts	0x38F6, r19	; 0x8038f6 <reactStr+0x3>
    reactStr[1][number]=length;
    2e02:	80 93 35 39 	sts	0x3935, r24	; 0x803935 <reactStr+0x42>
    2e06:	90 93 36 39 	sts	0x3936, r25	; 0x803936 <reactStr+0x43>
    reactStr[2][number]=type;
    2e0a:	10 92 75 39 	sts	0x3975, r1	; 0x803975 <reactStr+0x82>
    2e0e:	10 92 76 39 	sts	0x3976, r1	; 0x803976 <reactStr+0x83>
    2e12:	55 ca       	rjmp	.-2902   	; 0x22be <ProcessInput+0x18e>
                        }
                    }

                //Person or object not found
                } else {
                    if ((data[0] == 't')||(data[0] == 'g')){
    2e14:	f8 01       	movw	r30, r16
    2e16:	80 81       	ld	r24, Z
    2e18:	84 37       	cpi	r24, 0x74	; 116
    2e1a:	11 f0       	breq	.+4      	; 0x2e20 <ProcessInput+0xcf0>
    2e1c:	87 36       	cpi	r24, 0x67	; 103
    2e1e:	19 f4       	brne	.+6      	; 0x2e26 <ProcessInput+0xcf6>
    return 0;
}

//
void SetResponse(uint8_t number, uint16_t address, uint16_t length, uint8_t type){
    reactStr[0][number]=address;
    2e20:	8c e3       	ldi	r24, 0x3C	; 60
    2e22:	99 e7       	ldi	r25, 0x79	; 121
    2e24:	02 c0       	rjmp	.+4      	; 0x2e2a <ProcessInput+0xcfa>
    2e26:	80 e5       	ldi	r24, 0x50	; 80
    2e28:	99 e7       	ldi	r25, 0x79	; 121
    2e2a:	80 93 f5 38 	sts	0x38F5, r24	; 0x8038f5 <reactStr+0x2>
    2e2e:	90 93 f6 38 	sts	0x38F6, r25	; 0x8038f6 <reactStr+0x3>
    reactStr[1][number]=length;
    2e32:	84 e1       	ldi	r24, 0x14	; 20
    2e34:	90 e0       	ldi	r25, 0x00	; 0
    2e36:	39 ca       	rjmp	.-2958   	; 0x22aa <ProcessInput+0x17a>
                    }
                }
            }
        
        //Special answer given
        } else if (data[0] == 'a'){
    2e38:	81 36       	cpi	r24, 0x61	; 97
    2e3a:	09 f0       	breq	.+2      	; 0x2e3e <ProcessInput+0xd0e>
    2e3c:	f0 cb       	rjmp	.-2080   	; 0x261e <ProcessInput+0x4ee>
            
            //Priest offerings
            if (specialPassed >= 2) {
    2e3e:	80 91 e1 38 	lds	r24, 0x38E1	; 0x8038e1 <specialPassed>
    2e42:	82 30       	cpi	r24, 0x02	; 2
    2e44:	08 f4       	brcc	.+2      	; 0x2e48 <ProcessInput+0xd18>
    2e46:	b3 c0       	rjmp	.+358    	; 0x2fae <ProcessInput+0xe7e>
                if (data[1] > 0) {
    2e48:	d8 01       	movw	r26, r16
    2e4a:	11 96       	adiw	r26, 0x01	; 1
    2e4c:	2c 91       	ld	r18, X
    2e4e:	22 23       	and	r18, r18
    2e50:	09 f4       	brne	.+2      	; 0x2e54 <ProcessInput+0xd24>
    2e52:	a4 c0       	rjmp	.+328    	; 0x2f9c <ProcessInput+0xe6c>

                    uint8_t  digit[10] = {0, 0, 0, 0, 0, 0, 0, 0, 0, 0};
    2e54:	fe 01       	movw	r30, r28
    2e56:	31 96       	adiw	r30, 0x01	; 1
    2e58:	7f 01       	movw	r14, r30
    2e5a:	8a e0       	ldi	r24, 0x0A	; 10
    2e5c:	df 01       	movw	r26, r30
    2e5e:	1d 92       	st	X+, r1
    2e60:	8a 95       	dec	r24
    2e62:	e9 f7       	brne	.-6      	; 0x2e5e <ProcessInput+0xd2e>
                        answer = ((offering  & 2) << 19) + ((offering  & 1) << 8) + \
                        ((element   & 2) << 15) + ((element   & 1) << 4) + \
                        ((kneelings & 2) << 11) + ((kneelings & 1))
                        answer = answer << (3-person)
                    */
                    data[1]-='1';
    2e64:	21 53       	subi	r18, 0x31	; 49
    2e66:	f8 01       	movw	r30, r16
    2e68:	21 83       	std	Z+1, r18	; 0x01
                    data[2]-='1';
    2e6a:	32 81       	ldd	r19, Z+2	; 0x02
    2e6c:	31 53       	subi	r19, 0x31	; 49
    2e6e:	32 83       	std	Z+2, r19	; 0x02
                    if (data[3] == 'a') data[3] = 1;
    2e70:	83 81       	ldd	r24, Z+3	; 0x03
    2e72:	81 36       	cpi	r24, 0x61	; 97
    2e74:	11 f4       	brne	.+4      	; 0x2e7a <ProcessInput+0xd4a>
    2e76:	81 e0       	ldi	r24, 0x01	; 1
    2e78:	08 c0       	rjmp	.+16     	; 0x2e8a <ProcessInput+0xd5a>
                    else if (data[3] == 'e') data[3] = 0;
    2e7a:	85 36       	cpi	r24, 0x65	; 101
    2e7c:	11 f4       	brne	.+4      	; 0x2e82 <ProcessInput+0xd52>
    2e7e:	13 82       	std	Z+3, r1	; 0x03
    2e80:	08 c0       	rjmp	.+16     	; 0x2e92 <ProcessInput+0xd62>
                    else if (data[3] == 'f') data[3] = 3;
    2e82:	86 36       	cpi	r24, 0x66	; 102
    2e84:	21 f4       	brne	.+8      	; 0x2e8e <ProcessInput+0xd5e>
    2e86:	83 e0       	ldi	r24, 0x03	; 3
    2e88:	f8 01       	movw	r30, r16
    2e8a:	83 83       	std	Z+3, r24	; 0x03
    2e8c:	02 c0       	rjmp	.+4      	; 0x2e92 <ProcessInput+0xd62>
                    else data[3] = 2;
    2e8e:	82 e0       	ldi	r24, 0x02	; 2
    2e90:	83 83       	std	Z+3, r24	; 0x03

                    if (data[1] & 2) answer += (1UL << 20);
    2e92:	21 fd       	sbrc	r18, 1
    2e94:	04 c0       	rjmp	.+8      	; 0x2e9e <ProcessInput+0xd6e>
            //Priest offerings
            if (specialPassed >= 2) {
                if (data[1] > 0) {

                    uint8_t  digit[10] = {0, 0, 0, 0, 0, 0, 0, 0, 0, 0};
                    uint32_t answer = 0;
    2e96:	80 e0       	ldi	r24, 0x00	; 0
    2e98:	90 e0       	ldi	r25, 0x00	; 0
    2e9a:	dc 01       	movw	r26, r24
    2e9c:	04 c0       	rjmp	.+8      	; 0x2ea6 <ProcessInput+0xd76>
                    if (data[3] == 'a') data[3] = 1;
                    else if (data[3] == 'e') data[3] = 0;
                    else if (data[3] == 'f') data[3] = 3;
                    else data[3] = 2;

                    if (data[1] & 2) answer += (1UL << 20);
    2e9e:	80 e0       	ldi	r24, 0x00	; 0
    2ea0:	90 e0       	ldi	r25, 0x00	; 0
    2ea2:	a0 e1       	ldi	r26, 0x10	; 16
    2ea4:	b0 e0       	ldi	r27, 0x00	; 0
                    if (data[1] & 1) answer += (1 << 8);
    2ea6:	20 ff       	sbrs	r18, 0
    2ea8:	03 c0       	rjmp	.+6      	; 0x2eb0 <ProcessInput+0xd80>
    2eaa:	9f 5f       	subi	r25, 0xFF	; 255
    2eac:	af 4f       	sbci	r26, 0xFF	; 255
    2eae:	bf 4f       	sbci	r27, 0xFF	; 255
                    if (data[3] & 2) answer += (1UL << 16);
    2eb0:	f8 01       	movw	r30, r16
    2eb2:	23 81       	ldd	r18, Z+3	; 0x03
    2eb4:	21 fd       	sbrc	r18, 1
    2eb6:	11 96       	adiw	r26, 0x01	; 1
                    if (data[3] & 1) answer += (1 << 4);
    2eb8:	20 ff       	sbrs	r18, 0
    2eba:	03 c0       	rjmp	.+6      	; 0x2ec2 <ProcessInput+0xd92>
    2ebc:	40 96       	adiw	r24, 0x10	; 16
    2ebe:	a1 1d       	adc	r26, r1
    2ec0:	b1 1d       	adc	r27, r1
                    if (data[2] & 2) answer += (1 << 12);
    2ec2:	31 ff       	sbrs	r19, 1
    2ec4:	03 c0       	rjmp	.+6      	; 0x2ecc <ProcessInput+0xd9c>
    2ec6:	90 5f       	subi	r25, 0xF0	; 240
    2ec8:	af 4f       	sbci	r26, 0xFF	; 255
    2eca:	bf 4f       	sbci	r27, 0xFF	; 255
                    if (data[2] & 1) answer += 1;
    2ecc:	30 ff       	sbrs	r19, 0
    2ece:	03 c0       	rjmp	.+6      	; 0x2ed6 <ProcessInput+0xda6>
    2ed0:	01 96       	adiw	r24, 0x01	; 1
    2ed2:	a1 1d       	adc	r26, r1
    2ed4:	b1 1d       	adc	r27, r1
                    answer <<= (4 - whoami);            
    2ed6:	40 91 30 38 	lds	r20, 0x3830	; 0x803830 <whoami>
    2eda:	24 e0       	ldi	r18, 0x04	; 4
    2edc:	30 e0       	ldi	r19, 0x00	; 0
    2ede:	24 1b       	sub	r18, r20
    2ee0:	31 09       	sbc	r19, r1
    2ee2:	bc 01       	movw	r22, r24
    2ee4:	cd 01       	movw	r24, r26
    2ee6:	04 c0       	rjmp	.+8      	; 0x2ef0 <ProcessInput+0xdc0>
    2ee8:	66 0f       	add	r22, r22
    2eea:	77 1f       	adc	r23, r23
    2eec:	88 1f       	adc	r24, r24
    2eee:	99 1f       	adc	r25, r25
    2ef0:	2a 95       	dec	r18
    2ef2:	d2 f7       	brpl	.-12     	; 0x2ee8 <ProcessInput+0xdb8>
    return 0;
}

//
void SetResponse(uint8_t number, uint16_t address, uint16_t length, uint8_t type){
    reactStr[0][number]=address;
    2ef4:	26 e0       	ldi	r18, 0x06	; 6
    2ef6:	35 e7       	ldi	r19, 0x75	; 117
    2ef8:	20 93 f5 38 	sts	0x38F5, r18	; 0x8038f5 <reactStr+0x2>
    2efc:	30 93 f6 38 	sts	0x38F6, r19	; 0x8038f6 <reactStr+0x3>
    reactStr[1][number]=length;
    2f00:	20 e2       	ldi	r18, 0x20	; 32
    2f02:	30 e0       	ldi	r19, 0x00	; 0
    2f04:	20 93 35 39 	sts	0x3935, r18	; 0x803935 <reactStr+0x42>
    2f08:	30 93 36 39 	sts	0x3936, r19	; 0x803936 <reactStr+0x43>
    reactStr[2][number]=type;
    2f0c:	21 e0       	ldi	r18, 0x01	; 1
    2f0e:	30 e0       	ldi	r19, 0x00	; 0
    2f10:	20 93 75 39 	sts	0x3975, r18	; 0x803975 <reactStr+0x82>
    2f14:	30 93 76 39 	sts	0x3976, r19	; 0x803976 <reactStr+0x83>
                    answer <<= (4 - whoami);            

                    SetResponse(elements++, A_YOURPART, L_YOURPART, TEASER);
                    
                    //Set up sending out number
                    for (n=9; n>=0; --n) {
    2f18:	59 e0       	ldi	r21, 0x09	; 9
                        digit[n] = answer % 10;
    2f1a:	b5 2e       	mov	r11, r21
    2f1c:	ea e0       	ldi	r30, 0x0A	; 10
    2f1e:	4e 2e       	mov	r4, r30
    2f20:	51 2c       	mov	r5, r1
    2f22:	61 2c       	mov	r6, r1
    2f24:	71 2c       	mov	r7, r1
    2f26:	67 01       	movw	r12, r14
    2f28:	cb 0c       	add	r12, r11
    2f2a:	d1 1c       	adc	r13, r1
    2f2c:	a3 01       	movw	r20, r6
    2f2e:	92 01       	movw	r18, r4
    2f30:	40 d2       	rcall	.+1152   	; 0x33b2 <__udivmodsi4>
    2f32:	d6 01       	movw	r26, r12
    2f34:	6c 93       	st	X, r22
                        answer /= 10;
    2f36:	b9 01       	movw	r22, r18
    2f38:	ca 01       	movw	r24, r20
                        if (answer == 0) break;
    2f3a:	61 15       	cp	r22, r1
    2f3c:	71 05       	cpc	r23, r1
    2f3e:	81 05       	cpc	r24, r1
    2f40:	91 05       	cpc	r25, r1
    2f42:	51 f4       	brne	.+20     	; 0x2f58 <ProcessInput+0xe28>
    2f44:	23 ef       	ldi	r18, 0xF3	; 243
    2f46:	c2 2e       	mov	r12, r18
    2f48:	28 e3       	ldi	r18, 0x38	; 56
    2f4a:	d2 2e       	mov	r13, r18
    2f4c:	32 e0       	ldi	r19, 0x02	; 2
    2f4e:	73 2e       	mov	r7, r19
}

//
void SetResponse(uint8_t number, uint16_t address, uint16_t length, uint8_t type){
    reactStr[0][number]=address;
    reactStr[1][number]=length;
    2f50:	88 24       	eor	r8, r8
    2f52:	83 94       	inc	r8
    2f54:	91 2c       	mov	r9, r1
    2f56:	02 c0       	rjmp	.+4      	; 0x2f5c <ProcessInput+0xe2c>
                    answer <<= (4 - whoami);            

                    SetResponse(elements++, A_YOURPART, L_YOURPART, TEASER);
                    
                    //Set up sending out number
                    for (n=9; n>=0; --n) {
    2f58:	ba 94       	dec	r11
                        digit[n] = answer % 10;
                        answer /= 10;
                        if (answer == 0) break;
                    }
    2f5a:	e5 cf       	rjmp	.-54     	; 0x2f26 <ProcessInput+0xdf6>
    2f5c:	f2 e0       	ldi	r31, 0x02	; 2
    2f5e:	cf 0e       	add	r12, r31
    2f60:	d1 1c       	adc	r13, r1
                    for (; n<10; ++n) {
    2f62:	29 e0       	ldi	r18, 0x09	; 9
    2f64:	2b 15       	cp	r18, r11
    2f66:	08 f4       	brcc	.+2      	; 0x2f6a <ProcessInput+0xe3a>
    2f68:	7d c0       	rjmp	.+250    	; 0x3064 <ProcessInput+0xf34>
                        SetResponse(elements++, A_DIGITS+digit[n], 1, TEASER);
    2f6a:	73 94       	inc	r7
    2f6c:	f7 01       	movw	r30, r14
    2f6e:	eb 0d       	add	r30, r11
    2f70:	f1 1d       	adc	r31, r1
    return 0;
}

//
void SetResponse(uint8_t number, uint16_t address, uint16_t length, uint8_t type){
    reactStr[0][number]=address;
    2f72:	80 81       	ld	r24, Z
    2f74:	90 e0       	ldi	r25, 0x00	; 0
    2f76:	8d 52       	subi	r24, 0x2D	; 45
    2f78:	9b 48       	sbci	r25, 0x8B	; 139
    2f7a:	f6 01       	movw	r30, r12
    2f7c:	82 83       	std	Z+2, r24	; 0x02
    2f7e:	93 83       	std	Z+3, r25	; 0x03
    reactStr[1][number]=length;
    2f80:	ee 5b       	subi	r30, 0xBE	; 190
    2f82:	ff 4f       	sbci	r31, 0xFF	; 255
    2f84:	80 82       	st	Z, r8
    2f86:	91 82       	std	Z+1, r9	; 0x01
    reactStr[2][number]=type;
    2f88:	e0 5c       	subi	r30, 0xC0	; 192
    2f8a:	ff 4f       	sbci	r31, 0xFF	; 255
    2f8c:	80 82       	st	Z, r8
    2f8e:	91 82       	std	Z+1, r9	; 0x01
                        answer /= 10;
                        if (answer == 0) break;
                    }
                    for (; n<10; ++n) {
                        SetResponse(elements++, A_DIGITS+digit[n], 1, TEASER);
                        UpdateState(actObj1.byteField[ACTION_STATE]);
    2f90:	80 91 be 38 	lds	r24, 0x38BE	; 0x8038be <actObj1.3988+0xa>
    2f94:	0e 94 d2 08 	call	0x11a4	; 0x11a4 <UpdateState>
                    for (n=9; n>=0; --n) {
                        digit[n] = answer % 10;
                        answer /= 10;
                        if (answer == 0) break;
                    }
                    for (; n<10; ++n) {
    2f98:	b3 94       	inc	r11
    2f9a:	e0 cf       	rjmp	.-64     	; 0x2f5c <ProcessInput+0xe2c>
    return 0;
}

//
void SetResponse(uint8_t number, uint16_t address, uint16_t length, uint8_t type){
    reactStr[0][number]=address;
    2f9c:	86 e2       	ldi	r24, 0x26	; 38
    2f9e:	95 e7       	ldi	r25, 0x75	; 117
    2fa0:	80 93 f5 38 	sts	0x38F5, r24	; 0x8038f5 <reactStr+0x2>
    2fa4:	90 93 f6 38 	sts	0x38F6, r25	; 0x8038f6 <reactStr+0x3>
    reactStr[1][number]=length;
    2fa8:	8d e3       	ldi	r24, 0x3D	; 61
    2faa:	90 e0       	ldi	r25, 0x00	; 0
    2fac:	4f c0       	rjmp	.+158    	; 0x304c <ProcessInput+0xf1c>
    2fae:	e0 91 26 38 	lds	r30, 0x3826	; 0x803826 <currDepth>
                    SetResponse(elements++, A_BADOFFERING, L_BADOFFERING, TEASER);
                }
            
            //Other questions    
            } else if (specialPassed == 1) {
                PopulateObject(route[currDepth+1], &actObj1);
    2fb2:	f0 e0       	ldi	r31, 0x00	; 0
    2fb4:	ee 0f       	add	r30, r30
    2fb6:	ff 1f       	adc	r31, r31
    2fb8:	eb 54       	subi	r30, 0x4B	; 75
    2fba:	f6 4c       	sbci	r31, 0xC6	; 198
    2fbc:	64 eb       	ldi	r22, 0xB4	; 180
    2fbe:	78 e3       	ldi	r23, 0x38	; 56
                } else {
                    SetResponse(elements++, A_BADOFFERING, L_BADOFFERING, TEASER);
                }
            
            //Other questions    
            } else if (specialPassed == 1) {
    2fc0:	81 30       	cpi	r24, 0x01	; 1
    2fc2:	c1 f5       	brne	.+112    	; 0x3034 <ProcessInput+0xf04>
                PopulateObject(route[currDepth+1], &actObj1);
    2fc4:	80 81       	ld	r24, Z
    2fc6:	91 81       	ldd	r25, Z+1	; 0x01
    2fc8:	0e 94 e7 0b 	call	0x17ce	; 0x17ce <PopulateObject>
                if (CheckState(actObj1.byteField[ACTION_ACL])){
    2fcc:	80 91 bb 38 	lds	r24, 0x38BB	; 0x8038bb <actObj1.3988+0x7>
    2fd0:	0e 94 dc 08 	call	0x11b8	; 0x11b8 <CheckState>
    2fd4:	88 23       	and	r24, r24
    2fd6:	c9 f0       	breq	.+50     	; 0x300a <ProcessInput+0xeda>
                    SetResponse(elements++, actObj1.addrStr[ACTION_MSG], actObj1.lenStr[ACTION_MSG], GAME);
    2fd8:	80 91 da 38 	lds	r24, 0x38DA	; 0x8038da <actObj1.3988+0x26>
    2fdc:	90 91 db 38 	lds	r25, 0x38DB	; 0x8038db <actObj1.3988+0x27>
    return 0;
}

//
void SetResponse(uint8_t number, uint16_t address, uint16_t length, uint8_t type){
    reactStr[0][number]=address;
    2fe0:	20 91 cc 38 	lds	r18, 0x38CC	; 0x8038cc <actObj1.3988+0x18>
    2fe4:	30 91 cd 38 	lds	r19, 0x38CD	; 0x8038cd <actObj1.3988+0x19>
    2fe8:	20 93 f5 38 	sts	0x38F5, r18	; 0x8038f5 <reactStr+0x2>
    2fec:	30 93 f6 38 	sts	0x38F6, r19	; 0x8038f6 <reactStr+0x3>
    reactStr[1][number]=length;
    2ff0:	80 93 35 39 	sts	0x3935, r24	; 0x803935 <reactStr+0x42>
    2ff4:	90 93 36 39 	sts	0x3936, r25	; 0x803936 <reactStr+0x43>
    reactStr[2][number]=type;
    2ff8:	10 92 75 39 	sts	0x3975, r1	; 0x803975 <reactStr+0x82>
    2ffc:	10 92 76 39 	sts	0x3976, r1	; 0x803976 <reactStr+0x83>
            //Other questions    
            } else if (specialPassed == 1) {
                PopulateObject(route[currDepth+1], &actObj1);
                if (CheckState(actObj1.byteField[ACTION_ACL])){
                    SetResponse(elements++, actObj1.addrStr[ACTION_MSG], actObj1.lenStr[ACTION_MSG], GAME);
                    UpdateState(actObj1.byteField[ACTION_STATE]);
    3000:	80 91 be 38 	lds	r24, 0x38BE	; 0x8038be <actObj1.3988+0xa>
    3004:	0e 94 d2 08 	call	0x11a4	; 0x11a4 <UpdateState>
    3008:	2b c0       	rjmp	.+86     	; 0x3060 <ProcessInput+0xf30>
                } else {
                    SetResponse(elements++, actObj1.addrStr[ACTION_ACL_MSG], actObj1.lenStr[ACTION_ACL_MSG], GAME);
    300a:	80 91 d8 38 	lds	r24, 0x38D8	; 0x8038d8 <actObj1.3988+0x24>
    300e:	90 91 d9 38 	lds	r25, 0x38D9	; 0x8038d9 <actObj1.3988+0x25>
    return 0;
}

//
void SetResponse(uint8_t number, uint16_t address, uint16_t length, uint8_t type){
    reactStr[0][number]=address;
    3012:	20 91 ca 38 	lds	r18, 0x38CA	; 0x8038ca <actObj1.3988+0x16>
    3016:	30 91 cb 38 	lds	r19, 0x38CB	; 0x8038cb <actObj1.3988+0x17>
    301a:	20 93 f5 38 	sts	0x38F5, r18	; 0x8038f5 <reactStr+0x2>
    301e:	30 93 f6 38 	sts	0x38F6, r19	; 0x8038f6 <reactStr+0x3>
    reactStr[1][number]=length;
    3022:	80 93 35 39 	sts	0x3935, r24	; 0x803935 <reactStr+0x42>
    3026:	90 93 36 39 	sts	0x3936, r25	; 0x803936 <reactStr+0x43>
    reactStr[2][number]=type;
    302a:	10 92 75 39 	sts	0x3975, r1	; 0x803975 <reactStr+0x82>
    302e:	10 92 76 39 	sts	0x3976, r1	; 0x803976 <reactStr+0x83>
    3032:	16 c0       	rjmp	.+44     	; 0x3060 <ProcessInput+0xf30>
                } else {
                    SetResponse(elements++, actObj1.addrStr[ACTION_ACL_MSG], actObj1.lenStr[ACTION_ACL_MSG], GAME);
                }

            } else {
                PopulateObject(route[currDepth+1], &actObj1);
    3034:	80 81       	ld	r24, Z
    3036:	91 81       	ldd	r25, Z+1	; 0x01
    3038:	0e 94 e7 0b 	call	0x17ce	; 0x17ce <PopulateObject>
    return 0;
}

//
void SetResponse(uint8_t number, uint16_t address, uint16_t length, uint8_t type){
    reactStr[0][number]=address;
    303c:	8e e9       	ldi	r24, 0x9E	; 158
    303e:	98 e7       	ldi	r25, 0x78	; 120
    3040:	80 93 f5 38 	sts	0x38F5, r24	; 0x8038f5 <reactStr+0x2>
    3044:	90 93 f6 38 	sts	0x38F6, r25	; 0x8038f6 <reactStr+0x3>
    reactStr[1][number]=length;
    3048:	82 e1       	ldi	r24, 0x12	; 18
    304a:	90 e0       	ldi	r25, 0x00	; 0
    304c:	80 93 35 39 	sts	0x3935, r24	; 0x803935 <reactStr+0x42>
    3050:	90 93 36 39 	sts	0x3936, r25	; 0x803936 <reactStr+0x43>
    reactStr[2][number]=type;
    3054:	81 e0       	ldi	r24, 0x01	; 1
    3056:	90 e0       	ldi	r25, 0x00	; 0
    3058:	80 93 75 39 	sts	0x3975, r24	; 0x803975 <reactStr+0x82>
    305c:	90 93 76 39 	sts	0x3976, r25	; 0x803976 <reactStr+0x83>
                    SetResponse(elements++, actObj1.addrStr[ACTION_ACL_MSG], actObj1.lenStr[ACTION_ACL_MSG], GAME);
                }

            } else {
                PopulateObject(route[currDepth+1], &actObj1);
                SetResponse(elements++, A_INCORRECT, L_INCORRECT, TEASER);
    3060:	82 e0       	ldi	r24, 0x02	; 2
    3062:	78 2e       	mov	r7, r24
            }
            specialInput[0] = 0;
    3064:	10 92 e2 38 	sts	0x38E2, r1	; 0x8038e2 <specialInput>
        } else {
               
        }
            
        //Input handled
        data[0] = 0;
    3068:	d8 01       	movw	r26, r16
    306a:	1c 92       	st	X, r1
        serRxDone = 0;
    306c:	10 92 37 38 	sts	0x3837, r1	; 0x803837 <serRxDone>
        RXCNT = 0;
    3070:	1d ba       	out	0x1d, r1	; 29
    return 0;
}

//
void SetResponse(uint8_t number, uint16_t address, uint16_t length, uint8_t type){
    reactStr[0][number]=address;
    3072:	8b e5       	ldi	r24, 0x5B	; 91
    3074:	9a e7       	ldi	r25, 0x7A	; 122
    3076:	80 93 f3 38 	sts	0x38F3, r24	; 0x8038f3 <reactStr>
    307a:	90 93 f4 38 	sts	0x38F4, r25	; 0x8038f4 <reactStr+0x1>
    reactStr[1][number]=length;
    307e:	82 e0       	ldi	r24, 0x02	; 2
    3080:	90 e0       	ldi	r25, 0x00	; 0
    3082:	80 93 33 39 	sts	0x3933, r24	; 0x803933 <reactStr+0x40>
    3086:	90 93 34 39 	sts	0x3934, r25	; 0x803934 <reactStr+0x41>
    reactStr[2][number]=type;
    308a:	81 e0       	ldi	r24, 0x01	; 1
    308c:	90 e0       	ldi	r25, 0x00	; 0
    308e:	80 93 73 39 	sts	0x3973, r24	; 0x803973 <reactStr+0x80>
    3092:	90 93 74 39 	sts	0x3974, r25	; 0x803974 <reactStr+0x81>
        //Input handled
        data[0] = 0;
        serRxDone = 0;
        RXCNT = 0;
        SetResponse(0, A_LF, 2, TEASER);
        if (specialInput[0]) responseList = elements; else responseList = SetStandardResponse(elements);
    3096:	80 91 e2 38 	lds	r24, 0x38E2	; 0x8038e2 <specialInput>
    309a:	88 23       	and	r24, r24
    309c:	19 f0       	breq	.+6      	; 0x30a4 <ProcessInput+0xf74>
    309e:	70 92 f2 38 	sts	0x38F2, r7	; 0x8038f2 <responseList>
    30a2:	a4 c0       	rjmp	.+328    	; 0x31ec <ProcessInput+0x10bc>
    30a4:	87 2d       	mov	r24, r7
    30a6:	17 c0       	rjmp	.+46     	; 0x30d6 <ProcessInput+0xfa6>

    } else {
        data[0] = 0;
    30a8:	f8 01       	movw	r30, r16
    30aa:	10 82       	st	Z, r1
        serRxDone = 0;
    30ac:	10 92 37 38 	sts	0x3837, r1	; 0x803837 <serRxDone>
        RXCNT = 0;
    30b0:	1d ba       	out	0x1d, r1	; 29
    return 0;
}

//
void SetResponse(uint8_t number, uint16_t address, uint16_t length, uint8_t type){
    reactStr[0][number]=address;
    30b2:	8b e5       	ldi	r24, 0x5B	; 91
    30b4:	9a e7       	ldi	r25, 0x7A	; 122
    30b6:	80 93 f3 38 	sts	0x38F3, r24	; 0x8038f3 <reactStr>
    30ba:	90 93 f4 38 	sts	0x38F4, r25	; 0x8038f4 <reactStr+0x1>
    reactStr[1][number]=length;
    30be:	82 e0       	ldi	r24, 0x02	; 2
    30c0:	90 e0       	ldi	r25, 0x00	; 0
    30c2:	80 93 33 39 	sts	0x3933, r24	; 0x803933 <reactStr+0x40>
    30c6:	90 93 34 39 	sts	0x3934, r25	; 0x803934 <reactStr+0x41>
    reactStr[2][number]=type;
    30ca:	81 e0       	ldi	r24, 0x01	; 1
    30cc:	90 e0       	ldi	r25, 0x00	; 0
    30ce:	80 93 73 39 	sts	0x3973, r24	; 0x803973 <reactStr+0x80>
    30d2:	90 93 74 39 	sts	0x3974, r25	; 0x803974 <reactStr+0x81>
    } else {
        data[0] = 0;
        serRxDone = 0;
        RXCNT = 0;
        SetResponse(0, A_LF, 2, TEASER);
        responseList = SetStandardResponse(1);
    30d6:	0e 94 6b 0b 	call	0x16d6	; 0x16d6 <SetStandardResponse>
    30da:	80 93 f2 38 	sts	0x38F2, r24	; 0x8038f2 <responseList>
    }
    
    return 0;
    30de:	86 c0       	rjmp	.+268    	; 0x31ec <ProcessInput+0x10bc>
    return 0;
}

//
void SetResponse(uint8_t number, uint16_t address, uint16_t length, uint8_t type){
    reactStr[0][number]=address;
    30e0:	84 ed       	ldi	r24, 0xD4	; 212
    30e2:	99 e7       	ldi	r25, 0x79	; 121
    30e4:	80 93 f5 38 	sts	0x38F5, r24	; 0x8038f5 <reactStr+0x2>
    30e8:	90 93 f6 38 	sts	0x38F6, r25	; 0x8038f6 <reactStr+0x3>
    reactStr[1][number]=length;
    30ec:	8a e1       	ldi	r24, 0x1A	; 26
    30ee:	90 e0       	ldi	r25, 0x00	; 0
    30f0:	dc c8       	rjmp	.-3656   	; 0x22aa <ProcessInput+0x17a>

        //Drop item if in inventory
        if (data[0] == 'd') {
            if ((inventory[0] == 0)&&(inventory[1] == 0)){
                SetResponse(elements++, A_EMPTYHANDS, L_EMPTYHANDS, TEASER);
            } else if (inputLen != 2) {
    30f2:	f2 e0       	ldi	r31, 0x02	; 2
    30f4:	ff 12       	cpse	r15, r31
    30f6:	4c c8       	rjmp	.-3944   	; 0x2190 <ProcessInput+0x60>
                SetResponse(elements++, A_NOTPOSSIBLE, L_NOTPOSSIBLE, TEASER);
            } else {
                for (uint8_t x=0; x<2; ++x) {
                    if (inventory[x]) {
                        if (CheckLetter(inventory[x], data[1])) {
    30f8:	f8 01       	movw	r30, r16
    30fa:	61 81       	ldd	r22, Z+1	; 0x01
    30fc:	0e 94 5e 0c 	call	0x18bc	; 0x18bc <CheckLetter>
    3100:	88 23       	and	r24, r24
    3102:	09 f4       	brne	.+2      	; 0x3106 <ProcessInput+0xfd6>
    3104:	5b c0       	rjmp	.+182    	; 0x31bc <ProcessInput+0x108c>
                SetResponse(elements++, A_EMPTYHANDS, L_EMPTYHANDS, TEASER);
            } else if (inputLen != 2) {
                SetResponse(elements++, A_NOTPOSSIBLE, L_NOTPOSSIBLE, TEASER);
            } else {
                for (uint8_t x=0; x<2; ++x) {
                    if (inventory[x]) {
    3106:	80 e0       	ldi	r24, 0x00	; 0
    3108:	90 e0       	ldi	r25, 0x00	; 0
                        if (CheckLetter(inventory[x], data[1])) {
                            PopulateObject(inventory[x], &actObj1);
    310a:	88 0f       	add	r24, r24
    310c:	99 1f       	adc	r25, r25
    310e:	9c 01       	movw	r18, r24
    3110:	2f 5c       	subi	r18, 0xCF	; 207
    3112:	37 4c       	sbci	r19, 0xC7	; 199
    3114:	79 01       	movw	r14, r18
    3116:	64 eb       	ldi	r22, 0xB4	; 180
    3118:	78 e3       	ldi	r23, 0x38	; 56
    311a:	d9 01       	movw	r26, r18
    311c:	8d 91       	ld	r24, X+
    311e:	9c 91       	ld	r25, X
    3120:	0e 94 e7 0b 	call	0x17ce	; 0x17ce <PopulateObject>
    return 0;
}

//
void SetResponse(uint8_t number, uint16_t address, uint16_t length, uint8_t type){
    reactStr[0][number]=address;
    3124:	84 ed       	ldi	r24, 0xD4	; 212
    3126:	97 e7       	ldi	r25, 0x77	; 119
    3128:	80 93 f5 38 	sts	0x38F5, r24	; 0x8038f5 <reactStr+0x2>
    312c:	90 93 f6 38 	sts	0x38F6, r25	; 0x8038f6 <reactStr+0x3>
    reactStr[1][number]=length;
    3130:	80 e1       	ldi	r24, 0x10	; 16
    3132:	90 e0       	ldi	r25, 0x00	; 0
    3134:	80 93 35 39 	sts	0x3935, r24	; 0x803935 <reactStr+0x42>
    3138:	90 93 36 39 	sts	0x3936, r25	; 0x803936 <reactStr+0x43>
    reactStr[2][number]=type;
    313c:	81 e0       	ldi	r24, 0x01	; 1
    313e:	90 e0       	ldi	r25, 0x00	; 0
    3140:	80 93 75 39 	sts	0x3975, r24	; 0x803975 <reactStr+0x82>
    3144:	90 93 76 39 	sts	0x3976, r25	; 0x803976 <reactStr+0x83>
                for (uint8_t x=0; x<2; ++x) {
                    if (inventory[x]) {
                        if (CheckLetter(inventory[x], data[1])) {
                            PopulateObject(inventory[x], &actObj1);
                            SetResponse(elements++, A_DROPPING, L_DROPPING, TEASER);
                            SetResponse(elements++, actObj1.addrStr[NAME], actObj1.lenStr[NAME], GAME);
    3148:	20 91 ce 38 	lds	r18, 0x38CE	; 0x8038ce <actObj1.3988+0x1a>
    314c:	30 91 cf 38 	lds	r19, 0x38CF	; 0x8038cf <actObj1.3988+0x1b>
    return 0;
}

//
void SetResponse(uint8_t number, uint16_t address, uint16_t length, uint8_t type){
    reactStr[0][number]=address;
    3150:	40 91 c0 38 	lds	r20, 0x38C0	; 0x8038c0 <actObj1.3988+0xc>
    3154:	50 91 c1 38 	lds	r21, 0x38C1	; 0x8038c1 <actObj1.3988+0xd>
    3158:	40 93 f7 38 	sts	0x38F7, r20	; 0x8038f7 <reactStr+0x4>
    315c:	50 93 f8 38 	sts	0x38F8, r21	; 0x8038f8 <reactStr+0x5>
    reactStr[1][number]=length;
    3160:	20 93 37 39 	sts	0x3937, r18	; 0x803937 <reactStr+0x44>
    3164:	30 93 38 39 	sts	0x3938, r19	; 0x803938 <reactStr+0x45>
    reactStr[2][number]=type;
    3168:	10 92 77 39 	sts	0x3977, r1	; 0x803977 <reactStr+0x84>
    316c:	10 92 78 39 	sts	0x3978, r1	; 0x803978 <reactStr+0x85>
    return 0;
}

//
void SetResponse(uint8_t number, uint16_t address, uint16_t length, uint8_t type){
    reactStr[0][number]=address;
    3170:	2b e5       	ldi	r18, 0x5B	; 91
    3172:	3a e7       	ldi	r19, 0x7A	; 122
    3174:	20 93 f9 38 	sts	0x38F9, r18	; 0x8038f9 <reactStr+0x6>
    3178:	30 93 fa 38 	sts	0x38FA, r19	; 0x8038fa <reactStr+0x7>
    reactStr[1][number]=length;
    317c:	22 e0       	ldi	r18, 0x02	; 2
    317e:	30 e0       	ldi	r19, 0x00	; 0
    3180:	20 93 39 39 	sts	0x3939, r18	; 0x803939 <reactStr+0x46>
    3184:	30 93 3a 39 	sts	0x393A, r19	; 0x80393a <reactStr+0x47>
    reactStr[2][number]=type;
    3188:	80 93 79 39 	sts	0x3979, r24	; 0x803979 <reactStr+0x86>
    318c:	90 93 7a 39 	sts	0x397A, r25	; 0x80397a <reactStr+0x87>
    return 0;
}

//
void SetResponse(uint8_t number, uint16_t address, uint16_t length, uint8_t type){
    reactStr[0][number]=address;
    3190:	27 e9       	ldi	r18, 0x97	; 151
    3192:	37 e7       	ldi	r19, 0x77	; 119
    3194:	20 93 fb 38 	sts	0x38FB, r18	; 0x8038fb <reactStr+0x8>
    3198:	30 93 fc 38 	sts	0x38FC, r19	; 0x8038fc <reactStr+0x9>
    reactStr[1][number]=length;
    319c:	2d e3       	ldi	r18, 0x3D	; 61
    319e:	30 e0       	ldi	r19, 0x00	; 0
    31a0:	20 93 3b 39 	sts	0x393B, r18	; 0x80393b <reactStr+0x48>
    31a4:	30 93 3c 39 	sts	0x393C, r19	; 0x80393c <reactStr+0x49>
    reactStr[2][number]=type;
    31a8:	80 93 7b 39 	sts	0x397B, r24	; 0x80397b <reactStr+0x88>
    31ac:	90 93 7c 39 	sts	0x397C, r25	; 0x80397c <reactStr+0x89>
                            PopulateObject(inventory[x], &actObj1);
                            SetResponse(elements++, A_DROPPING, L_DROPPING, TEASER);
                            SetResponse(elements++, actObj1.addrStr[NAME], actObj1.lenStr[NAME], GAME);
                            SetResponse(elements++, A_LF, 2, TEASER);
                            SetResponse(elements++, A_RETURNING, L_RETURNING, TEASER);
                            inventory[x] = 0;
    31b0:	f7 01       	movw	r30, r14
    31b2:	10 82       	st	Z, r1
    31b4:	11 82       	std	Z+1, r1	; 0x01
                        if (CheckLetter(inventory[x], data[1])) {
                            PopulateObject(inventory[x], &actObj1);
                            SetResponse(elements++, A_DROPPING, L_DROPPING, TEASER);
                            SetResponse(elements++, actObj1.addrStr[NAME], actObj1.lenStr[NAME], GAME);
                            SetResponse(elements++, A_LF, 2, TEASER);
                            SetResponse(elements++, A_RETURNING, L_RETURNING, TEASER);
    31b6:	f5 e0       	ldi	r31, 0x05	; 5
    31b8:	7f 2e       	mov	r7, r31
                            inventory[x] = 0;
                            break;
    31ba:	56 cf       	rjmp	.-340    	; 0x3068 <ProcessInput+0xf38>
                SetResponse(elements++, A_EMPTYHANDS, L_EMPTYHANDS, TEASER);
            } else if (inputLen != 2) {
                SetResponse(elements++, A_NOTPOSSIBLE, L_NOTPOSSIBLE, TEASER);
            } else {
                for (uint8_t x=0; x<2; ++x) {
                    if (inventory[x]) {
    31bc:	80 91 33 38 	lds	r24, 0x3833	; 0x803833 <inventory+0x2>
    31c0:	90 91 34 38 	lds	r25, 0x3834	; 0x803834 <inventory+0x3>
    31c4:	00 97       	sbiw	r24, 0x00	; 0
    31c6:	49 f0       	breq	.+18     	; 0x31da <ProcessInput+0x10aa>
                        if (CheckLetter(inventory[x], data[1])) {
    31c8:	f8 01       	movw	r30, r16
    31ca:	61 81       	ldd	r22, Z+1	; 0x01
    31cc:	0e 94 5e 0c 	call	0x18bc	; 0x18bc <CheckLetter>
    31d0:	88 23       	and	r24, r24
    31d2:	19 f0       	breq	.+6      	; 0x31da <ProcessInput+0x10aa>
                SetResponse(elements++, A_EMPTYHANDS, L_EMPTYHANDS, TEASER);
            } else if (inputLen != 2) {
                SetResponse(elements++, A_NOTPOSSIBLE, L_NOTPOSSIBLE, TEASER);
            } else {
                for (uint8_t x=0; x<2; ++x) {
                    if (inventory[x]) {
    31d4:	81 e0       	ldi	r24, 0x01	; 1
    31d6:	90 e0       	ldi	r25, 0x00	; 0
    31d8:	98 cf       	rjmp	.-208    	; 0x310a <ProcessInput+0xfda>
    return 0;
}

//
void SetResponse(uint8_t number, uint16_t address, uint16_t length, uint8_t type){
    reactStr[0][number]=address;
    31da:	84 e6       	ldi	r24, 0x64	; 100
    31dc:	99 e7       	ldi	r25, 0x79	; 121
    31de:	80 93 f5 38 	sts	0x38F5, r24	; 0x8038f5 <reactStr+0x2>
    31e2:	90 93 f6 38 	sts	0x38F6, r25	; 0x8038f6 <reactStr+0x3>
    reactStr[1][number]=length;
    31e6:	81 e2       	ldi	r24, 0x21	; 33
    31e8:	90 e0       	ldi	r25, 0x00	; 0
    31ea:	5f c8       	rjmp	.-3906   	; 0x22aa <ProcessInput+0x17a>
        SetResponse(0, A_LF, 2, TEASER);
        responseList = SetStandardResponse(1);
    }
    
    return 0;
}
    31ec:	80 e0       	ldi	r24, 0x00	; 0
    31ee:	2a 96       	adiw	r28, 0x0a	; 10
    31f0:	cd bf       	out	0x3d, r28	; 61
    31f2:	de bf       	out	0x3e, r29	; 62
    31f4:	df 91       	pop	r29
    31f6:	cf 91       	pop	r28
    31f8:	1f 91       	pop	r17
    31fa:	0f 91       	pop	r16
    31fc:	ff 90       	pop	r15
    31fe:	ef 90       	pop	r14
    3200:	df 90       	pop	r13
    3202:	cf 90       	pop	r12
    3204:	bf 90       	pop	r11
    3206:	af 90       	pop	r10
    3208:	9f 90       	pop	r9
    320a:	8f 90       	pop	r8
    320c:	7f 90       	pop	r7
    320e:	6f 90       	pop	r6
    3210:	5f 90       	pop	r5
    3212:	4f 90       	pop	r4
    3214:	08 95       	ret

00003216 <TextAdventure>:


//MAIN GAME STRUCTURE
uint8_t TextAdventure(){
    3216:	cf 93       	push	r28
    static uint8_t serInput[RXLEN];
    
    //Still sending data to serial?
    if (CheckSend()) return 1;
    3218:	0e 94 3d 0d 	call	0x1a7a	; 0x1a7a <CheckSend>
    321c:	88 23       	and	r24, r24
    321e:	11 f0       	breq	.+4      	; 0x3224 <TextAdventure+0xe>
    3220:	c1 e0       	ldi	r28, 0x01	; 1
    3222:	11 c0       	rjmp	.+34     	; 0x3246 <TextAdventure+0x30>

    //Not sending? Process next response part to send, if any.
    if (CheckResponse()) return 1;        
    3224:	0e 94 91 0d 	call	0x1b22	; 0x1b22 <CheckResponse>
    3228:	81 11       	cpse	r24, r1
    322a:	fa cf       	rjmp	.-12     	; 0x3220 <TextAdventure+0xa>

    //No responses to send, check if there is user input.
    if (CheckInput(&serInput[0])) return 2; 
    322c:	88 e4       	ldi	r24, 0x48	; 72
    322e:	98 e3       	ldi	r25, 0x38	; 56
    3230:	0e 94 d8 0d 	call	0x1bb0	; 0x1bb0 <CheckInput>
    3234:	c8 2f       	mov	r28, r24
    3236:	81 11       	cpse	r24, r1
    3238:	05 c0       	rjmp	.+10     	; 0x3244 <TextAdventure+0x2e>

    //Input found, process and save (changes only)
    ProcessInput(&serInput[0]);
    323a:	88 e4       	ldi	r24, 0x48	; 72
    323c:	98 e3       	ldi	r25, 0x38	; 56
    323e:	0e 94 98 10 	call	0x2130	; 0x2130 <ProcessInput>

    return 0;
    3242:	01 c0       	rjmp	.+2      	; 0x3246 <TextAdventure+0x30>

    //Not sending? Process next response part to send, if any.
    if (CheckResponse()) return 1;        

    //No responses to send, check if there is user input.
    if (CheckInput(&serInput[0])) return 2; 
    3244:	c2 e0       	ldi	r28, 0x02	; 2

    //Input found, process and save (changes only)
    ProcessInput(&serInput[0]);

    return 0;
    3246:	8c 2f       	mov	r24, r28
    3248:	cf 91       	pop	r28
    324a:	08 95       	ret

0000324c <main>:


//This is where it begins, inits first and main program in while(1) loop.
int main(void)
{
    Setup();
    324c:	0e 94 e1 03 	call	0x7c2	; 0x7c2 <Setup>

    SerSpeed(0xff);
    3250:	8f ef       	ldi	r24, 0xFF	; 255
    3252:	0e 94 4e 07 	call	0xe9c	; 0xe9c <SerSpeed>
    3256:	a4 e3       	ldi	r26, 0x34	; 52
    3258:	b4 eb       	ldi	r27, 0xB4	; 180
    ////Turn on LEDs on low setting to check for interrupt glitches

    //"Hacker"
    for (uint8_t n=0; n<6; n++){
        iLED[HCKR[R][n]] = 1;
    325a:	81 e0       	ldi	r24, 0x01	; 1
    325c:	ed 91       	ld	r30, X+
    325e:	f0 e0       	ldi	r31, 0x00	; 0
    3260:	e6 54       	subi	r30, 0x46	; 70
    3262:	f5 4c       	sbci	r31, 0xC5	; 197
    3264:	80 83       	st	Z, r24
        iLED[HCKR[G][n]] = 1;
    3266:	15 96       	adiw	r26, 0x05	; 5
    3268:	ec 91       	ld	r30, X
    326a:	15 97       	sbiw	r26, 0x05	; 5
    326c:	f0 e0       	ldi	r31, 0x00	; 0
    326e:	e6 54       	subi	r30, 0x46	; 70
    3270:	f5 4c       	sbci	r31, 0xC5	; 197
    3272:	80 83       	st	Z, r24

    SerSpeed(0xff);
    ////Turn on LEDs on low setting to check for interrupt glitches

    //"Hacker"
    for (uint8_t n=0; n<6; n++){
    3274:	24 eb       	ldi	r18, 0xB4	; 180
    3276:	aa 33       	cpi	r26, 0x3A	; 58
    3278:	b2 07       	cpc	r27, r18
    327a:	81 f7       	brne	.-32     	; 0x325c <main+0x10>
    327c:	e6 e2       	ldi	r30, 0x26	; 38
    327e:	f4 eb       	ldi	r31, 0xB4	; 180
        iLED[HCKR[G][n]] = 1;
    }

    //"Wings"
    for (uint8_t n=0; n<5; n++){
        iLED[WING[L][n]] = 1;
    3280:	91 e0       	ldi	r25, 0x01	; 1
    3282:	ef 01       	movw	r28, r30
    3284:	a5 81       	ldd	r26, Z+5	; 0x05
    3286:	b0 e0       	ldi	r27, 0x00	; 0
    3288:	a6 54       	subi	r26, 0x46	; 70
    328a:	b5 4c       	sbci	r27, 0xC5	; 197
    328c:	81 e0       	ldi	r24, 0x01	; 1
    328e:	9c 93       	st	X, r25
    3290:	31 96       	adiw	r30, 0x01	; 1
        iLED[WING[R][n]] = 1;
    3292:	a8 81       	ld	r26, Y
    3294:	b0 e0       	ldi	r27, 0x00	; 0
    3296:	a6 54       	subi	r26, 0x46	; 70
    3298:	b5 4c       	sbci	r27, 0xC5	; 197
    329a:	9c 93       	st	X, r25
        iLED[HCKR[R][n]] = 1;
        iLED[HCKR[G][n]] = 1;
    }

    //"Wings"
    for (uint8_t n=0; n<5; n++){
    329c:	24 eb       	ldi	r18, 0xB4	; 180
    329e:	eb 32       	cpi	r30, 0x2B	; 43
    32a0:	f2 07       	cpc	r31, r18
    32a2:	79 f7       	brne	.-34     	; 0x3282 <main+0x36>
        iLED[WING[L][n]] = 1;
        iLED[WING[R][n]] = 1;
    }    

    //"Others"
    iLED[EYE[G][R]] = 1;
    32a4:	e0 91 32 b4 	lds	r30, 0xB432	; 0x80b432 <__bss_end+0x7928>
    32a8:	f0 e0       	ldi	r31, 0x00	; 0
    32aa:	e6 54       	subi	r30, 0x46	; 70
    32ac:	f5 4c       	sbci	r31, 0xC5	; 197
    32ae:	80 83       	st	Z, r24
    iLED[EYE[G][L]] = 1;
    32b0:	e0 91 33 b4 	lds	r30, 0xB433	; 0x80b433 <__bss_end+0x7929>
    32b4:	f0 e0       	ldi	r31, 0x00	; 0
    32b6:	e6 54       	subi	r30, 0x46	; 70
    32b8:	f5 4c       	sbci	r31, 0xC5	; 197
    32ba:	80 83       	st	Z, r24
    iLED[EYE[R][R]] = 1;
    32bc:	e0 91 30 b4 	lds	r30, 0xB430	; 0x80b430 <__bss_end+0x7926>
    32c0:	f0 e0       	ldi	r31, 0x00	; 0
    32c2:	e6 54       	subi	r30, 0x46	; 70
    32c4:	f5 4c       	sbci	r31, 0xC5	; 197
    32c6:	80 83       	st	Z, r24
    iLED[EYE[R][L]] = 1;
    32c8:	e0 91 31 b4 	lds	r30, 0xB431	; 0x80b431 <__bss_end+0x7927>
    32cc:	f0 e0       	ldi	r31, 0x00	; 0
    32ce:	e6 54       	subi	r30, 0x46	; 70
    32d0:	f5 4c       	sbci	r31, 0xC5	; 197
    32d2:	80 83       	st	Z, r24
    iLED[SCARAB[R]] = 1;
    32d4:	e0 91 24 b4 	lds	r30, 0xB424	; 0x80b424 <__bss_end+0x791a>
    32d8:	f0 e0       	ldi	r31, 0x00	; 0
    32da:	e6 54       	subi	r30, 0x46	; 70
    32dc:	f5 4c       	sbci	r31, 0xC5	; 197
    32de:	80 83       	st	Z, r24
    iLED[SCARAB[G]] = 1;
    32e0:	e0 91 25 b4 	lds	r30, 0xB425	; 0x80b425 <__bss_end+0x791b>
    32e4:	f0 e0       	ldi	r31, 0x00	; 0
    32e6:	e6 54       	subi	r30, 0x46	; 70
    32e8:	f5 4c       	sbci	r31, 0xC5	; 197
    32ea:	80 83       	st	Z, r24
    iLED[BADGER] = 1;
    32ec:	e0 91 23 b4 	lds	r30, 0xB423	; 0x80b423 <__bss_end+0x7919>
    32f0:	f0 e0       	ldi	r31, 0x00	; 0
    32f2:	e6 54       	subi	r30, 0x46	; 70
    32f4:	f5 4c       	sbci	r31, 0xC5	; 197
    32f6:	80 83       	st	Z, r24
    iLED[CAT] = 1;
    32f8:	e0 91 22 b4 	lds	r30, 0xB422	; 0x80b422 <__bss_end+0x7918>
    32fc:	f0 e0       	ldi	r31, 0x00	; 0
    32fe:	e6 54       	subi	r30, 0x46	; 70
    3300:	f5 4c       	sbci	r31, 0xC5	; 197
    3302:	80 83       	st	Z, r24

    effect = 32;
    3304:	80 e2       	ldi	r24, 0x20	; 32
    3306:	90 e0       	ldi	r25, 0x00	; 0
    3308:	80 93 2d 38 	sts	0x382D, r24	; 0x80382d <effect>
    330c:	90 93 2e 38 	sts	0x382E, r25	; 0x80382e <effect+0x1>
    LoadGameState();
    3310:	0e 94 23 09 	call	0x1246	; 0x1246 <LoadGameState>
    while (1)
    {
        


        if (GenerateAudio()){
    3314:	0e 94 b5 09 	call	0x136a	; 0x136a <GenerateAudio>
    3318:	88 23       	and	r24, r24
    331a:	e1 f3       	breq	.-8      	; 0x3314 <main+0xc8>
            buttonState = CheckButtons(buttonState);
    331c:	80 91 07 38 	lds	r24, 0x3807	; 0x803807 <buttonState>
    3320:	0e 94 5f 07 	call	0xebe	; 0xebe <CheckButtons>
    3324:	80 93 07 38 	sts	0x3807, r24	; 0x803807 <buttonState>
            buttonMark = 0;
    3328:	10 92 35 38 	sts	0x3835, r1	; 0x803835 <buttonMark>
            
            //GenerateBlinks();           
            
            //Main game, to complete: Finish sub-game MagnetMaze and MakeFriends too.
            TextAdventure();
    332c:	74 df       	rcall	.-280    	; 0x3216 <TextAdventure>
          
            //Other games & user interaction checks
            MagnetMaze();
    332e:	0e 94 99 02 	call	0x532	; 0x532 <MagnetMaze>
            BastetDictates();
    3332:	0e 94 77 0a 	call	0x14ee	; 0x14ee <BastetDictates>
            LanyardCode();
    3336:	0e 94 a1 01 	call	0x342	; 0x342 <LanyardCode>
            MakeFriends();
    333a:	0e 94 5c 00 	call	0xb8	; 0xb8 <MakeFriends>
            SaveGameState(); 
    333e:	0e 94 31 08 	call	0x1062	; 0x1062 <SaveGameState>
            
            //Check light sensor status (added hysteresis to preserve writing cycles to internal EEPROM)
            if (adcPhot < 10) WriteStatusBit(116, 1);
    3342:	80 91 95 3a 	lds	r24, 0x3A95	; 0x803a95 <adcPhot>
    3346:	90 91 96 3a 	lds	r25, 0x3A96	; 0x803a96 <adcPhot+0x1>
    334a:	0a 97       	sbiw	r24, 0x0a	; 10
    334c:	20 f4       	brcc	.+8      	; 0x3356 <main+0x10a>
    334e:	61 e0       	ldi	r22, 0x01	; 1
    3350:	84 e7       	ldi	r24, 0x74	; 116
    3352:	0e 94 b8 08 	call	0x1170	; 0x1170 <WriteStatusBit>
            if (adcPhot > 100) WriteStatusBit(116, 0);
    3356:	80 91 95 3a 	lds	r24, 0x3A95	; 0x803a95 <adcPhot>
    335a:	90 91 96 3a 	lds	r25, 0x3A96	; 0x803a96 <adcPhot+0x1>
    335e:	85 36       	cpi	r24, 0x65	; 101
    3360:	91 05       	cpc	r25, r1
    3362:	20 f0       	brcs	.+8      	; 0x336c <main+0x120>
    3364:	60 e0       	ldi	r22, 0x00	; 0
    3366:	84 e7       	ldi	r24, 0x74	; 116
    3368:	0e 94 b8 08 	call	0x1170	; 0x1170 <WriteStatusBit>

            //Check temperature 
            HotSummer();
    336c:	0e 94 50 09 	call	0x12a0	; 0x12a0 <HotSummer>
    3370:	d1 cf       	rjmp	.-94     	; 0x3314 <main+0xc8>

00003372 <__udivmodqi4>:
    3372:	99 1b       	sub	r25, r25
    3374:	79 e0       	ldi	r23, 0x09	; 9
    3376:	04 c0       	rjmp	.+8      	; 0x3380 <__udivmodqi4_ep>

00003378 <__udivmodqi4_loop>:
    3378:	99 1f       	adc	r25, r25
    337a:	96 17       	cp	r25, r22
    337c:	08 f0       	brcs	.+2      	; 0x3380 <__udivmodqi4_ep>
    337e:	96 1b       	sub	r25, r22

00003380 <__udivmodqi4_ep>:
    3380:	88 1f       	adc	r24, r24
    3382:	7a 95       	dec	r23
    3384:	c9 f7       	brne	.-14     	; 0x3378 <__udivmodqi4_loop>
    3386:	80 95       	com	r24
    3388:	08 95       	ret

0000338a <__udivmodhi4>:
    338a:	aa 1b       	sub	r26, r26
    338c:	bb 1b       	sub	r27, r27
    338e:	51 e1       	ldi	r21, 0x11	; 17
    3390:	07 c0       	rjmp	.+14     	; 0x33a0 <__udivmodhi4_ep>

00003392 <__udivmodhi4_loop>:
    3392:	aa 1f       	adc	r26, r26
    3394:	bb 1f       	adc	r27, r27
    3396:	a6 17       	cp	r26, r22
    3398:	b7 07       	cpc	r27, r23
    339a:	10 f0       	brcs	.+4      	; 0x33a0 <__udivmodhi4_ep>
    339c:	a6 1b       	sub	r26, r22
    339e:	b7 0b       	sbc	r27, r23

000033a0 <__udivmodhi4_ep>:
    33a0:	88 1f       	adc	r24, r24
    33a2:	99 1f       	adc	r25, r25
    33a4:	5a 95       	dec	r21
    33a6:	a9 f7       	brne	.-22     	; 0x3392 <__udivmodhi4_loop>
    33a8:	80 95       	com	r24
    33aa:	90 95       	com	r25
    33ac:	bc 01       	movw	r22, r24
    33ae:	cd 01       	movw	r24, r26
    33b0:	08 95       	ret

000033b2 <__udivmodsi4>:
    33b2:	a1 e2       	ldi	r26, 0x21	; 33
    33b4:	1a 2e       	mov	r1, r26
    33b6:	aa 1b       	sub	r26, r26
    33b8:	bb 1b       	sub	r27, r27
    33ba:	fd 01       	movw	r30, r26
    33bc:	0d c0       	rjmp	.+26     	; 0x33d8 <__udivmodsi4_ep>

000033be <__udivmodsi4_loop>:
    33be:	aa 1f       	adc	r26, r26
    33c0:	bb 1f       	adc	r27, r27
    33c2:	ee 1f       	adc	r30, r30
    33c4:	ff 1f       	adc	r31, r31
    33c6:	a2 17       	cp	r26, r18
    33c8:	b3 07       	cpc	r27, r19
    33ca:	e4 07       	cpc	r30, r20
    33cc:	f5 07       	cpc	r31, r21
    33ce:	20 f0       	brcs	.+8      	; 0x33d8 <__udivmodsi4_ep>
    33d0:	a2 1b       	sub	r26, r18
    33d2:	b3 0b       	sbc	r27, r19
    33d4:	e4 0b       	sbc	r30, r20
    33d6:	f5 0b       	sbc	r31, r21

000033d8 <__udivmodsi4_ep>:
    33d8:	66 1f       	adc	r22, r22
    33da:	77 1f       	adc	r23, r23
    33dc:	88 1f       	adc	r24, r24
    33de:	99 1f       	adc	r25, r25
    33e0:	1a 94       	dec	r1
    33e2:	69 f7       	brne	.-38     	; 0x33be <__udivmodsi4_loop>
    33e4:	60 95       	com	r22
    33e6:	70 95       	com	r23
    33e8:	80 95       	com	r24
    33ea:	90 95       	com	r25
    33ec:	9b 01       	movw	r18, r22
    33ee:	ac 01       	movw	r20, r24
    33f0:	bd 01       	movw	r22, r26
    33f2:	cf 01       	movw	r24, r30
    33f4:	08 95       	ret

000033f6 <_exit>:
    33f6:	f8 94       	cli

000033f8 <__stop_program>:
    33f8:	ff cf       	rjmp	.-2      	; 0x33f8 <__stop_program>
