
ISR_IO.elf:     file format elf32-avr

Sections:
Idx Name          Size      VMA       LMA       File off  Algn
  0 .data         00000002  00803800  00000f54  00001008  2**0
                  CONTENTS, ALLOC, LOAD, DATA
  1 .text         00000f10  00000000  00000000  000000b4  2**1
                  CONTENTS, ALLOC, LOAD, READONLY, CODE
  2 .rodata       00000044  00008f10  00000f10  00000fc4  2**0
                  CONTENTS, ALLOC, LOAD, READONLY, DATA
  3 .bss          00000130  00803802  00803802  0000100a  2**0
                  ALLOC
  4 .comment      00000030  00000000  00000000  0000100a  2**0
                  CONTENTS, READONLY
  5 .note.gnu.avr.deviceinfo 00000040  00000000  00000000  0000103c  2**2
                  CONTENTS, READONLY
  6 .debug_aranges 000001c0  00000000  00000000  0000107c  2**0
                  CONTENTS, READONLY, DEBUGGING
  7 .debug_info   0000348b  00000000  00000000  0000123c  2**0
                  CONTENTS, READONLY, DEBUGGING
  8 .debug_abbrev 0000203b  00000000  00000000  000046c7  2**0
                  CONTENTS, READONLY, DEBUGGING
  9 .debug_line   00001629  00000000  00000000  00006702  2**0
                  CONTENTS, READONLY, DEBUGGING
 10 .debug_frame  00000568  00000000  00000000  00007d2c  2**2
                  CONTENTS, READONLY, DEBUGGING
 11 .debug_str    00001525  00000000  00000000  00008294  2**0
                  CONTENTS, READONLY, DEBUGGING
 12 .debug_loc    000015a8  00000000  00000000  000097b9  2**0
                  CONTENTS, READONLY, DEBUGGING
 13 .debug_ranges 00000180  00000000  00000000  0000ad61  2**0
                  CONTENTS, READONLY, DEBUGGING

Disassembly of section .text:

00000000 <__vectors>:
   0:	3d c0       	rjmp	.+122    	; 0x7c <__ctors_end>
   2:	00 00       	nop
   4:	56 c0       	rjmp	.+172    	; 0xb2 <__bad_interrupt>
   6:	00 00       	nop
   8:	54 c0       	rjmp	.+168    	; 0xb2 <__bad_interrupt>
   a:	00 00       	nop
   c:	52 c0       	rjmp	.+164    	; 0xb2 <__bad_interrupt>
   e:	00 00       	nop
  10:	50 c0       	rjmp	.+160    	; 0xb2 <__bad_interrupt>
  12:	00 00       	nop
  14:	4e c0       	rjmp	.+156    	; 0xb2 <__bad_interrupt>
  16:	00 00       	nop
  18:	fd c3       	rjmp	.+2042   	; 0x814 <__vector_6>
  1a:	00 00       	nop
  1c:	4f c4       	rjmp	.+2206   	; 0x8bc <__vector_7>
  1e:	00 00       	nop
  20:	75 c2       	rjmp	.+1258   	; 0x50c <__vector_8>
  22:	00 00       	nop
  24:	46 c0       	rjmp	.+140    	; 0xb2 <__bad_interrupt>
  26:	00 00       	nop
  28:	44 c0       	rjmp	.+136    	; 0xb2 <__bad_interrupt>
  2a:	00 00       	nop
  2c:	42 c0       	rjmp	.+132    	; 0xb2 <__bad_interrupt>
  2e:	00 00       	nop
  30:	40 c0       	rjmp	.+128    	; 0xb2 <__bad_interrupt>
  32:	00 00       	nop
  34:	bf c2       	rjmp	.+1406   	; 0x5b4 <__vector_13>
  36:	00 00       	nop
  38:	f0 c2       	rjmp	.+1504   	; 0x61a <__vector_14>
  3a:	00 00       	nop
  3c:	3a c0       	rjmp	.+116    	; 0xb2 <__bad_interrupt>
  3e:	00 00       	nop
  40:	38 c0       	rjmp	.+112    	; 0xb2 <__bad_interrupt>
  42:	00 00       	nop
  44:	36 c0       	rjmp	.+108    	; 0xb2 <__bad_interrupt>
  46:	00 00       	nop
  48:	34 c0       	rjmp	.+104    	; 0xb2 <__bad_interrupt>
  4a:	00 00       	nop
  4c:	32 c0       	rjmp	.+100    	; 0xb2 <__bad_interrupt>
  4e:	00 00       	nop
  50:	63 c3       	rjmp	.+1734   	; 0x718 <__vector_20>
  52:	00 00       	nop
  54:	2e c0       	rjmp	.+92     	; 0xb2 <__bad_interrupt>
  56:	00 00       	nop
  58:	8d c3       	rjmp	.+1818   	; 0x774 <__vector_22>
  5a:	00 00       	nop
  5c:	2a c0       	rjmp	.+84     	; 0xb2 <__bad_interrupt>
  5e:	00 00       	nop
  60:	28 c0       	rjmp	.+80     	; 0xb2 <__bad_interrupt>
  62:	00 00       	nop
  64:	26 c0       	rjmp	.+76     	; 0xb2 <__bad_interrupt>
  66:	00 00       	nop
  68:	24 c0       	rjmp	.+72     	; 0xb2 <__bad_interrupt>
  6a:	00 00       	nop
  6c:	05 c3       	rjmp	.+1546   	; 0x678 <__vector_27>
  6e:	00 00       	nop
  70:	37 c3       	rjmp	.+1646   	; 0x6e0 <__vector_28>
  72:	00 00       	nop
  74:	1e c0       	rjmp	.+60     	; 0xb2 <__bad_interrupt>
  76:	00 00       	nop
  78:	1c c0       	rjmp	.+56     	; 0xb2 <__bad_interrupt>
	...

0000007c <__ctors_end>:
  7c:	11 24       	eor	r1, r1
  7e:	1f be       	out	0x3f, r1	; 63
  80:	cf ef       	ldi	r28, 0xFF	; 255
  82:	cd bf       	out	0x3d, r28	; 61
  84:	df e3       	ldi	r29, 0x3F	; 63
  86:	de bf       	out	0x3e, r29	; 62

00000088 <__do_copy_data>:
  88:	18 e3       	ldi	r17, 0x38	; 56
  8a:	a0 e0       	ldi	r26, 0x00	; 0
  8c:	b8 e3       	ldi	r27, 0x38	; 56
  8e:	e4 e5       	ldi	r30, 0x54	; 84
  90:	ff e0       	ldi	r31, 0x0F	; 15
  92:	02 c0       	rjmp	.+4      	; 0x98 <__do_copy_data+0x10>
  94:	05 90       	lpm	r0, Z+
  96:	0d 92       	st	X+, r0
  98:	a2 30       	cpi	r26, 0x02	; 2
  9a:	b1 07       	cpc	r27, r17
  9c:	d9 f7       	brne	.-10     	; 0x94 <__do_copy_data+0xc>

0000009e <__do_clear_bss>:
  9e:	29 e3       	ldi	r18, 0x39	; 57
  a0:	a2 e0       	ldi	r26, 0x02	; 2
  a2:	b8 e3       	ldi	r27, 0x38	; 56
  a4:	01 c0       	rjmp	.+2      	; 0xa8 <.do_clear_bss_start>

000000a6 <.do_clear_bss_loop>:
  a6:	1d 92       	st	X+, r1

000000a8 <.do_clear_bss_start>:
  a8:	a2 33       	cpi	r26, 0x32	; 50
  aa:	b2 07       	cpc	r27, r18
  ac:	e1 f7       	brne	.-8      	; 0xa6 <.do_clear_bss_loop>
  ae:	e3 d6       	rcall	.+3526   	; 0xe76 <main>
  b0:	2d c7       	rjmp	.+3674   	; 0xf0c <_exit>

000000b2 <__bad_interrupt>:
  b2:	a6 cf       	rjmp	.-180    	; 0x0 <__vectors>

000000b4 <I2C_init>:
// the Atmel device documentation mentions a special command for repeated start TWI_MCMD_REPSTART_gc,
// but this is not used in Atmel's demo code, so we don't use it either

void I2C_rep_start(uint8_t shifted_addr)						    // send repeated start, device_addr + LSB set if READ
{
	TWI0.MADDR = shifted_addr;	
  b4:	81 e0       	ldi	r24, 0x01	; 1
  b6:	80 93 22 04 	sts	0x0422, r24	; 0x800422 <__TEXT_REGION_LENGTH__+0x700422>
  ba:	e6 e2       	ldi	r30, 0x26	; 38
  bc:	f4 e0       	ldi	r31, 0x04	; 4
  be:	80 83       	st	Z, r24
  c0:	10 92 30 04 	sts	0x0430, r1	; 0x800430 <__TEXT_REGION_LENGTH__+0x700430>
  c4:	a1 e2       	ldi	r26, 0x21	; 33
  c6:	b4 e0       	ldi	r27, 0x04	; 4
  c8:	92 e0       	ldi	r25, 0x02	; 2
  ca:	9c 93       	st	X, r25
  cc:	90 83       	st	Z, r25
  ce:	10 92 31 04 	sts	0x0431, r1	; 0x800431 <__TEXT_REGION_LENGTH__+0x700431>
  d2:	e0 e1       	ldi	r30, 0x10	; 16
  d4:	f8 e0       	ldi	r31, 0x08	; 8
  d6:	9d e2       	ldi	r25, 0x2D	; 45
  d8:	96 83       	std	Z+6, r25	; 0x06
  da:	98 e0       	ldi	r25, 0x08	; 8
  dc:	94 83       	std	Z+4, r25	; 0x04
  de:	83 83       	std	Z+3, r24	; 0x03
  e0:	8c 93       	st	X, r24
  e2:	85 81       	ldd	r24, Z+5	; 0x05
  e4:	81 60       	ori	r24, 0x01	; 1
  e6:	85 83       	std	Z+5, r24	; 0x05
  e8:	85 81       	ldd	r24, Z+5	; 0x05
  ea:	84 6c       	ori	r24, 0xC4	; 196
  ec:	85 83       	std	Z+5, r24	; 0x05
  ee:	08 95       	ret

000000f0 <I2C_recover>:
  f0:	e0 e1       	ldi	r30, 0x10	; 16
  f2:	f8 e0       	ldi	r31, 0x08	; 8
  f4:	84 81       	ldd	r24, Z+4	; 0x04
  f6:	88 60       	ori	r24, 0x08	; 8
  f8:	84 83       	std	Z+4, r24	; 0x04
  fa:	13 82       	std	Z+3, r1	; 0x03
  fc:	82 e0       	ldi	r24, 0x02	; 2
  fe:	80 93 22 04 	sts	0x0422, r24	; 0x800422 <__TEXT_REGION_LENGTH__+0x700422>
 102:	89 e0       	ldi	r24, 0x09	; 9
 104:	a1 e2       	ldi	r26, 0x21	; 33
 106:	b4 e0       	ldi	r27, 0x04	; 4
 108:	91 e0       	ldi	r25, 0x01	; 1
 10a:	e2 e2       	ldi	r30, 0x22	; 34
 10c:	f4 e0       	ldi	r31, 0x04	; 4
 10e:	9c 93       	st	X, r25
 110:	20 e1       	ldi	r18, 0x10	; 16
 112:	2a 95       	dec	r18
 114:	f1 f7       	brne	.-4      	; 0x112 <I2C_recover+0x22>
 116:	00 c0       	rjmp	.+0      	; 0x118 <I2C_recover+0x28>
 118:	90 83       	st	Z, r25
 11a:	20 e1       	ldi	r18, 0x10	; 16
 11c:	2a 95       	dec	r18
 11e:	f1 f7       	brne	.-4      	; 0x11c <I2C_recover+0x2c>
 120:	00 c0       	rjmp	.+0      	; 0x122 <I2C_recover+0x32>
 122:	81 50       	subi	r24, 0x01	; 1
 124:	a1 f7       	brne	.-24     	; 0x10e <I2C_recover+0x1e>
 126:	e0 e1       	ldi	r30, 0x10	; 16
 128:	f8 e0       	ldi	r31, 0x08	; 8
 12a:	28 e0       	ldi	r18, 0x08	; 8
 12c:	24 83       	std	Z+4, r18	; 0x04
 12e:	81 e0       	ldi	r24, 0x01	; 1
 130:	83 83       	std	Z+3, r24	; 0x03
 132:	a1 e2       	ldi	r26, 0x21	; 33
 134:	b4 e0       	ldi	r27, 0x04	; 4
 136:	92 e0       	ldi	r25, 0x02	; 2
 138:	9c 93       	st	X, r25
 13a:	95 81       	ldd	r25, Z+5	; 0x05
 13c:	91 60       	ori	r25, 0x01	; 1
 13e:	95 83       	std	Z+5, r25	; 0x05
 140:	95 81       	ldd	r25, Z+5	; 0x05
 142:	94 6c       	ori	r25, 0xC4	; 196
 144:	95 83       	std	Z+5, r25	; 0x05
 146:	24 83       	std	Z+4, r18	; 0x04
 148:	83 83       	std	Z+3, r24	; 0x03
 14a:	8c 93       	st	X, r24
 14c:	85 81       	ldd	r24, Z+5	; 0x05
 14e:	81 60       	ori	r24, 0x01	; 1
 150:	85 83       	std	Z+5, r24	; 0x05
 152:	85 81       	ldd	r24, Z+5	; 0x05
 154:	84 6c       	ori	r24, 0xC4	; 196
 156:	85 83       	std	Z+5, r24	; 0x05
 158:	08 95       	ret

0000015a <I2C_start>:
 15a:	28 2f       	mov	r18, r24
 15c:	e0 e1       	ldi	r30, 0x10	; 16
 15e:	f8 e0       	ldi	r31, 0x08	; 8
 160:	95 81       	ldd	r25, Z+5	; 0x05
 162:	90 6c       	ori	r25, 0xC0	; 192
 164:	95 83       	std	Z+5, r25	; 0x05
 166:	95 81       	ldd	r25, Z+5	; 0x05
 168:	89 2f       	mov	r24, r25
 16a:	84 70       	andi	r24, 0x04	; 4
 16c:	92 fd       	sbrc	r25, 2
 16e:	03 c0       	rjmp	.+6      	; 0x176 <I2C_start+0x1c>
 170:	20 93 17 08 	sts	0x0817, r18	; 0x800817 <__TEXT_REGION_LENGTH__+0x700817>
 174:	08 95       	ret
 176:	84 e0       	ldi	r24, 0x04	; 4
 178:	08 95       	ret

0000017a <I2C_wait_ACK>:
 17a:	8c e0       	ldi	r24, 0x0C	; 12
 17c:	80 93 21 38 	sts	0x3821, r24	; 0x803821 <timeout_I2C>
 180:	e0 e1       	ldi	r30, 0x10	; 16
 182:	f8 e0       	ldi	r31, 0x08	; 8
 184:	04 c0       	rjmp	.+8      	; 0x18e <I2C_wait_ACK+0x14>
 186:	80 91 21 38 	lds	r24, 0x3821	; 0x803821 <timeout_I2C>
 18a:	88 23       	and	r24, r24
 18c:	b9 f0       	breq	.+46     	; 0x1bc <I2C_wait_ACK+0x42>
 18e:	85 81       	ldd	r24, Z+5	; 0x05
 190:	88 23       	and	r24, r24
 192:	1c f0       	brlt	.+6      	; 0x19a <I2C_wait_ACK+0x20>
 194:	85 81       	ldd	r24, Z+5	; 0x05
 196:	86 ff       	sbrs	r24, 6
 198:	f6 cf       	rjmp	.-20     	; 0x186 <I2C_wait_ACK+0xc>
 19a:	e0 e1       	ldi	r30, 0x10	; 16
 19c:	f8 e0       	ldi	r31, 0x08	; 8
 19e:	85 81       	ldd	r24, Z+5	; 0x05
 1a0:	80 6c       	ori	r24, 0xC0	; 192
 1a2:	85 83       	std	Z+5, r24	; 0x05
 1a4:	85 81       	ldd	r24, Z+5	; 0x05
 1a6:	82 fd       	sbrc	r24, 2
 1a8:	0b c0       	rjmp	.+22     	; 0x1c0 <I2C_wait_ACK+0x46>
 1aa:	80 91 15 08 	lds	r24, 0x0815	; 0x800815 <__TEXT_REGION_LENGTH__+0x700815>
 1ae:	83 fd       	sbrc	r24, 3
 1b0:	09 c0       	rjmp	.+18     	; 0x1c4 <I2C_wait_ACK+0x4a>
 1b2:	80 91 15 08 	lds	r24, 0x0815	; 0x800815 <__TEXT_REGION_LENGTH__+0x700815>
 1b6:	82 95       	swap	r24
 1b8:	81 70       	andi	r24, 0x01	; 1
 1ba:	08 95       	ret
 1bc:	8f ef       	ldi	r24, 0xFF	; 255
 1be:	08 95       	ret
 1c0:	84 e0       	ldi	r24, 0x04	; 4
 1c2:	08 95       	ret
 1c4:	82 e0       	ldi	r24, 0x02	; 2
 1c6:	08 95       	ret

000001c8 <I2C_read>:
}

uint8_t	I2C_read(uint8_t *data, uint8_t ack_flag)					// read data, ack_flag 0: send ACK, 1: send NACK, returns status
{
 1c8:	dc 01       	movw	r26, r24
	timeout_I2C = READ_TIMEOUT;										// reset timeout counter, will be decremented by LED matrix interrupt
 1ca:	9c e0       	ldi	r25, 0x0C	; 12
 1cc:	90 93 21 38 	sts	0x3821, r25	; 0x803821 <timeout_I2C>
	if ((TWI0.MSTATUS & TWI_BUSSTATE_gm) == TWI_BUSSTATE_OWNER_gc)	// if master controls bus
 1d0:	90 91 15 08 	lds	r25, 0x0815	; 0x800815 <__TEXT_REGION_LENGTH__+0x700815>
 1d4:	89 2f       	mov	r24, r25
 1d6:	83 70       	andi	r24, 0x03	; 3
 1d8:	82 30       	cpi	r24, 0x02	; 2
 1da:	39 f0       	breq	.+14     	; 0x1ea <I2C_read+0x22>
		else		TWI0.MCTRLB |= TWI_ACKACT_NACK_gc;				// setup NACK (last byte read)
		*data = TWI0.MDATA;
		if (ack_flag == 0) TWI0.MCTRLB |= TWI_MCMD_RECVTRANS_gc;	// send ACK, more bytes to follow					
		return 0;
	}
	else return 8;													// master does not control bus
 1dc:	88 e0       	ldi	r24, 0x08	; 8
 1de:	08 95       	ret
	timeout_I2C = READ_TIMEOUT;										// reset timeout counter, will be decremented by LED matrix interrupt
	if ((TWI0.MSTATUS & TWI_BUSSTATE_gm) == TWI_BUSSTATE_OWNER_gc)	// if master controls bus
	{		
		while (!(TWI0.MSTATUS & TWI_RIF_bm))						// wait for RIF set (data byte received)
		{
			if (!(timeout_I2C)) return 0xff;			            // return timeout error
 1e0:	90 91 21 38 	lds	r25, 0x3821	; 0x803821 <timeout_I2C>
 1e4:	91 11       	cpse	r25, r1
 1e6:	03 c0       	rjmp	.+6      	; 0x1ee <I2C_read+0x26>
 1e8:	2a c0       	rjmp	.+84     	; 0x23e <I2C_read+0x76>
uint8_t	I2C_read(uint8_t *data, uint8_t ack_flag)					// read data, ack_flag 0: send ACK, 1: send NACK, returns status
{
	timeout_I2C = READ_TIMEOUT;										// reset timeout counter, will be decremented by LED matrix interrupt
	if ((TWI0.MSTATUS & TWI_BUSSTATE_gm) == TWI_BUSSTATE_OWNER_gc)	// if master controls bus
	{		
		while (!(TWI0.MSTATUS & TWI_RIF_bm))						// wait for RIF set (data byte received)
 1ea:	e0 e1       	ldi	r30, 0x10	; 16
 1ec:	f8 e0       	ldi	r31, 0x08	; 8
 1ee:	95 81       	ldd	r25, Z+5	; 0x05
 1f0:	99 23       	and	r25, r25
 1f2:	b4 f7       	brge	.-20     	; 0x1e0 <I2C_read+0x18>
		{
			if (!(timeout_I2C)) return 0xff;			            // return timeout error
		}
		TWI0.MSTATUS |= (TWI_RIF_bm | TWI_WIF_bm);					// clear Read and Write interrupt flags	
 1f4:	e0 e1       	ldi	r30, 0x10	; 16
 1f6:	f8 e0       	ldi	r31, 0x08	; 8
 1f8:	95 81       	ldd	r25, Z+5	; 0x05
 1fa:	90 6c       	ori	r25, 0xC0	; 192
 1fc:	95 83       	std	Z+5, r25	; 0x05
		if (TWI0.MSTATUS & TWI_BUSERR_bm) return 4;					// Bus Error, abort
 1fe:	95 81       	ldd	r25, Z+5	; 0x05
 200:	92 fd       	sbrc	r25, 2
 202:	1f c0       	rjmp	.+62     	; 0x242 <I2C_read+0x7a>
		if (TWI0.MSTATUS & TWI_ARBLOST_bm) return 2;				// Arbitration Lost, abort
 204:	90 91 15 08 	lds	r25, 0x0815	; 0x800815 <__TEXT_REGION_LENGTH__+0x700815>
 208:	93 fd       	sbrc	r25, 3
 20a:	1e c0       	rjmp	.+60     	; 0x248 <I2C_read+0x80>
		if (TWI0.MSTATUS & TWI_RXACK_bm) return 1;					// Slave replied with NACK, abort				
 20c:	90 91 15 08 	lds	r25, 0x0815	; 0x800815 <__TEXT_REGION_LENGTH__+0x700815>
 210:	89 2f       	mov	r24, r25
 212:	80 71       	andi	r24, 0x10	; 16
 214:	94 fd       	sbrc	r25, 4
 216:	17 c0       	rjmp	.+46     	; 0x246 <I2C_read+0x7e>
		if (ack_flag == 0) TWI0.MCTRLB &= ~(1 << TWI_ACKACT_bp);	// setup ACK
 218:	61 11       	cpse	r22, r1
 21a:	09 c0       	rjmp	.+18     	; 0x22e <I2C_read+0x66>
 21c:	94 81       	ldd	r25, Z+4	; 0x04
 21e:	9b 7f       	andi	r25, 0xFB	; 251
 220:	94 83       	std	Z+4, r25	; 0x04
		else		TWI0.MCTRLB |= TWI_ACKACT_NACK_gc;				// setup NACK (last byte read)
		*data = TWI0.MDATA;
 222:	90 85       	ldd	r25, Z+8	; 0x08
 224:	9c 93       	st	X, r25
		if (ack_flag == 0) TWI0.MCTRLB |= TWI_MCMD_RECVTRANS_gc;	// send ACK, more bytes to follow					
 226:	94 81       	ldd	r25, Z+4	; 0x04
 228:	92 60       	ori	r25, 0x02	; 2
 22a:	94 83       	std	Z+4, r25	; 0x04
 22c:	08 95       	ret
		TWI0.MSTATUS |= (TWI_RIF_bm | TWI_WIF_bm);					// clear Read and Write interrupt flags	
		if (TWI0.MSTATUS & TWI_BUSERR_bm) return 4;					// Bus Error, abort
		if (TWI0.MSTATUS & TWI_ARBLOST_bm) return 2;				// Arbitration Lost, abort
		if (TWI0.MSTATUS & TWI_RXACK_bm) return 1;					// Slave replied with NACK, abort				
		if (ack_flag == 0) TWI0.MCTRLB &= ~(1 << TWI_ACKACT_bp);	// setup ACK
		else		TWI0.MCTRLB |= TWI_ACKACT_NACK_gc;				// setup NACK (last byte read)
 22e:	e0 e1       	ldi	r30, 0x10	; 16
 230:	f8 e0       	ldi	r31, 0x08	; 8
 232:	94 81       	ldd	r25, Z+4	; 0x04
 234:	94 60       	ori	r25, 0x04	; 4
 236:	94 83       	std	Z+4, r25	; 0x04
		*data = TWI0.MDATA;
 238:	90 85       	ldd	r25, Z+8	; 0x08
 23a:	9c 93       	st	X, r25
 23c:	08 95       	ret
	timeout_I2C = READ_TIMEOUT;										// reset timeout counter, will be decremented by LED matrix interrupt
	if ((TWI0.MSTATUS & TWI_BUSSTATE_gm) == TWI_BUSSTATE_OWNER_gc)	// if master controls bus
	{		
		while (!(TWI0.MSTATUS & TWI_RIF_bm))						// wait for RIF set (data byte received)
		{
			if (!(timeout_I2C)) return 0xff;			            // return timeout error
 23e:	8f ef       	ldi	r24, 0xFF	; 255
 240:	08 95       	ret
		}
		TWI0.MSTATUS |= (TWI_RIF_bm | TWI_WIF_bm);					// clear Read and Write interrupt flags	
		if (TWI0.MSTATUS & TWI_BUSERR_bm) return 4;					// Bus Error, abort
 242:	84 e0       	ldi	r24, 0x04	; 4
 244:	08 95       	ret
		if (TWI0.MSTATUS & TWI_ARBLOST_bm) return 2;				// Arbitration Lost, abort
		if (TWI0.MSTATUS & TWI_RXACK_bm) return 1;					// Slave replied with NACK, abort				
 246:	81 e0       	ldi	r24, 0x01	; 1
		*data = TWI0.MDATA;
		if (ack_flag == 0) TWI0.MCTRLB |= TWI_MCMD_RECVTRANS_gc;	// send ACK, more bytes to follow					
		return 0;
	}
	else return 8;													// master does not control bus
}
 248:	08 95       	ret

0000024a <I2C_write>:

uint8_t I2C_write(uint8_t *data)									// write data, return status
{
 24a:	fc 01       	movw	r30, r24
	timeout_I2C = WRITE_TIMEOUT;									// reset timeout counter, will be decremented by LED matrix interrupt
 24c:	9c e0       	ldi	r25, 0x0C	; 12
 24e:	90 93 21 38 	sts	0x3821, r25	; 0x803821 <timeout_I2C>
	if ((TWI0.MSTATUS & TWI_BUSSTATE_gm) == TWI_BUSSTATE_OWNER_gc)	// if master controls bus
 252:	90 91 15 08 	lds	r25, 0x0815	; 0x800815 <__TEXT_REGION_LENGTH__+0x700815>
 256:	93 70       	andi	r25, 0x03	; 3
 258:	92 30       	cpi	r25, 0x02	; 2
 25a:	b1 f4       	brne	.+44     	; 0x288 <I2C_write+0x3e>
	{
		TWI0.MDATA = *data;		
 25c:	80 81       	ld	r24, Z
 25e:	80 93 18 08 	sts	0x0818, r24	; 0x800818 <__TEXT_REGION_LENGTH__+0x700818>
		while (!(TWI0.MSTATUS & TWI_WIF_bm))						// wait until WIF set, status register contains ACK/NACK bit
 262:	e0 e1       	ldi	r30, 0x10	; 16
 264:	f8 e0       	ldi	r31, 0x08	; 8
 266:	04 c0       	rjmp	.+8      	; 0x270 <I2C_write+0x26>
		{
			if (!(timeout_I2C)) return 0xff;			            // return timeout error
 268:	80 91 21 38 	lds	r24, 0x3821	; 0x803821 <timeout_I2C>
 26c:	88 23       	and	r24, r24
 26e:	71 f0       	breq	.+28     	; 0x28c <I2C_write+0x42>
{
	timeout_I2C = WRITE_TIMEOUT;									// reset timeout counter, will be decremented by LED matrix interrupt
	if ((TWI0.MSTATUS & TWI_BUSSTATE_gm) == TWI_BUSSTATE_OWNER_gc)	// if master controls bus
	{
		TWI0.MDATA = *data;		
		while (!(TWI0.MSTATUS & TWI_WIF_bm))						// wait until WIF set, status register contains ACK/NACK bit
 270:	85 81       	ldd	r24, Z+5	; 0x05
 272:	86 ff       	sbrs	r24, 6
 274:	f9 cf       	rjmp	.-14     	; 0x268 <I2C_write+0x1e>
		{
			if (!(timeout_I2C)) return 0xff;			            // return timeout error
		}
		if (TWI0.MSTATUS & TWI_BUSERR_bm) return 4;					// Bus Error, abort
 276:	80 91 15 08 	lds	r24, 0x0815	; 0x800815 <__TEXT_REGION_LENGTH__+0x700815>
 27a:	82 fd       	sbrc	r24, 2
 27c:	09 c0       	rjmp	.+18     	; 0x290 <I2C_write+0x46>
		if (TWI0.MSTATUS & TWI_RXACK_bm) return 1;					// Slave replied with NACK, abort
 27e:	80 91 15 08 	lds	r24, 0x0815	; 0x800815 <__TEXT_REGION_LENGTH__+0x700815>
	if ((TWI0.MSTATUS & TWI_BUSSTATE_gm) == TWI_BUSSTATE_OWNER_gc)	// if master controls bus
	{
		TWI0.MDATA = *data;		
		while (!(TWI0.MSTATUS & TWI_WIF_bm))						// wait until WIF set, status register contains ACK/NACK bit
		{
			if (!(timeout_I2C)) return 0xff;			            // return timeout error
 282:	82 95       	swap	r24
 284:	81 70       	andi	r24, 0x01	; 1
 286:	08 95       	ret
		}
		if (TWI0.MSTATUS & TWI_BUSERR_bm) return 4;					// Bus Error, abort
		if (TWI0.MSTATUS & TWI_RXACK_bm) return 1;					// Slave replied with NACK, abort
		return 0;													// no error	
	}
	else return 8;													// master does not control bus
 288:	88 e0       	ldi	r24, 0x08	; 8
 28a:	08 95       	ret
	if ((TWI0.MSTATUS & TWI_BUSSTATE_gm) == TWI_BUSSTATE_OWNER_gc)	// if master controls bus
	{
		TWI0.MDATA = *data;		
		while (!(TWI0.MSTATUS & TWI_WIF_bm))						// wait until WIF set, status register contains ACK/NACK bit
		{
			if (!(timeout_I2C)) return 0xff;			            // return timeout error
 28c:	8f ef       	ldi	r24, 0xFF	; 255
 28e:	08 95       	ret
		}
		if (TWI0.MSTATUS & TWI_BUSERR_bm) return 4;					// Bus Error, abort
 290:	84 e0       	ldi	r24, 0x04	; 4
		if (TWI0.MSTATUS & TWI_RXACK_bm) return 1;					// Slave replied with NACK, abort
		return 0;													// no error	
	}
	else return 8;													// master does not control bus
}
 292:	08 95       	ret

00000294 <I2C_stop>:

void I2C_stop()
{
	TWI0.MCTRLB |= TWI_MCMD_STOP_gc;
 294:	e0 e1       	ldi	r30, 0x10	; 16
 296:	f8 e0       	ldi	r31, 0x08	; 8
 298:	84 81       	ldd	r24, Z+4	; 0x04
 29a:	83 60       	ori	r24, 0x03	; 3
 29c:	84 83       	std	Z+4, r24	; 0x04
 29e:	08 95       	ret

000002a0 <I2C_read_bytes>:
// addr_ptr		address of first array element to transfer
// slave reg	starting slave register
// num_bytes	number of bytes to transfer

uint8_t	I2C_read_bytes(uint8_t slave_addr, uint8_t *reg_ptr, uint8_t reg_len, uint8_t *dat_ptr, uint8_t dat_len)
{
 2a0:	cf 92       	push	r12
 2a2:	df 92       	push	r13
 2a4:	ef 92       	push	r14
 2a6:	ff 92       	push	r15
 2a8:	0f 93       	push	r16
 2aa:	1f 93       	push	r17
 2ac:	cf 93       	push	r28
 2ae:	df 93       	push	r29
 2b0:	eb 01       	movw	r28, r22
 2b2:	c4 2e       	mov	r12, r20
 2b4:	79 01       	movw	r14, r18
	uint8_t status;
	if (dat_len > MAX_LEN) dat_len = MAX_LEN;
	status = I2C_start(slave_addr << 1);							// slave write address, LSB 0
 2b6:	18 2f       	mov	r17, r24
 2b8:	11 0f       	add	r17, r17
 2ba:	81 2f       	mov	r24, r17
 2bc:	4e df       	rcall	.-356    	; 0x15a <I2C_start>
	if (status != 0) goto error;
 2be:	81 11       	cpse	r24, r1
	status = I2C_wait_ACK();										// wait for slave ACK
 2c0:	3c c0       	rjmp	.+120    	; 0x33a <I2C_read_bytes+0x9a>
 2c2:	5b df       	rcall	.-330    	; 0x17a <I2C_wait_ACK>
	if (status == 1) {
 2c4:	81 30       	cpi	r24, 0x01	; 1
		I2C_stop();													// NACK, abort
 2c6:	19 f4       	brne	.+6      	; 0x2ce <I2C_read_bytes+0x2e>
 2c8:	e5 df       	rcall	.-54     	; 0x294 <I2C_stop>
		return 1;
 2ca:	81 e0       	ldi	r24, 0x01	; 1
 2cc:	38 c0       	rjmp	.+112    	; 0x33e <I2C_read_bytes+0x9e>
	}
	if (status != 0) goto error;
 2ce:	81 11       	cpse	r24, r1
 2d0:	34 c0       	rjmp	.+104    	; 0x33a <I2C_read_bytes+0x9a>
    while(reg_len > 0){
 2d2:	cc 20       	and	r12, r12
 2d4:	79 f0       	breq	.+30     	; 0x2f4 <I2C_read_bytes+0x54>
 2d6:	ca 94       	dec	r12
 2d8:	d1 2c       	mov	r13, r1
 2da:	8f ef       	ldi	r24, 0xFF	; 255
 2dc:	c8 1a       	sub	r12, r24
 2de:	d8 0a       	sbc	r13, r24
 2e0:	cc 0e       	add	r12, r28
	    status = I2C_write(reg_ptr);    							// send slave start register
 2e2:	dd 1e       	adc	r13, r29
 2e4:	ce 01       	movw	r24, r28
 2e6:	b1 df       	rcall	.-158    	; 0x24a <I2C_write>
	    if (status != 0) goto error;
 2e8:	81 11       	cpse	r24, r1
 2ea:	27 c0       	rjmp	.+78     	; 0x33a <I2C_read_bytes+0x9a>
        ++reg_ptr;
 2ec:	21 96       	adiw	r28, 0x01	; 1
	if (status == 1) {
		I2C_stop();													// NACK, abort
		return 1;
	}
	if (status != 0) goto error;
    while(reg_len > 0){
 2ee:	cc 16       	cp	r12, r28
 2f0:	dd 06       	cpc	r13, r29
 2f2:	c1 f7       	brne	.-16     	; 0x2e4 <I2C_read_bytes+0x44>
 2f4:	01 34       	cpi	r16, 0x41	; 65
 2f6:	08 f0       	brcs	.+2      	; 0x2fa <I2C_read_bytes+0x5a>
 2f8:	00 e4       	ldi	r16, 0x40	; 64
	    status = I2C_write(reg_ptr);    							// send slave start register
	    if (status != 0) goto error;
        ++reg_ptr;
        --reg_len;
    }
	I2C_rep_start((slave_addr << 1) + 1);							// slave read address, LSB 1
 2fa:	1f 5f       	subi	r17, 0xFF	; 255
// the Atmel device documentation mentions a special command for repeated start TWI_MCMD_REPSTART_gc,
// but this is not used in Atmel's demo code, so we don't use it either

void I2C_rep_start(uint8_t shifted_addr)						    // send repeated start, device_addr + LSB set if READ
{
	TWI0.MADDR = shifted_addr;	
 2fc:	10 93 17 08 	sts	0x0817, r17	; 0x800817 <__TEXT_REGION_LENGTH__+0x700817>
	    if (status != 0) goto error;
        ++reg_ptr;
        --reg_len;
    }
	I2C_rep_start((slave_addr << 1) + 1);							// slave read address, LSB 1
	while (dat_len > 1) {
 300:	02 30       	cpi	r16, 0x02	; 2
 302:	90 f0       	brcs	.+36     	; 0x328 <I2C_read_bytes+0x88>
 304:	02 50       	subi	r16, 0x02	; 2
 306:	c0 2f       	mov	r28, r16
 308:	d0 e0       	ldi	r29, 0x00	; 0
 30a:	21 96       	adiw	r28, 0x01	; 1
 30c:	ce 0d       	add	r28, r14
		status = I2C_read(dat_ptr, 0);								// first bytes, send ACK
 30e:	df 1d       	adc	r29, r15
 310:	60 e0       	ldi	r22, 0x00	; 0
 312:	c7 01       	movw	r24, r14
 314:	59 df       	rcall	.-334    	; 0x1c8 <I2C_read>
		if (status != 0) goto error;
 316:	81 11       	cpse	r24, r1
 318:	10 c0       	rjmp	.+32     	; 0x33a <I2C_read_bytes+0x9a>
		++dat_ptr;
 31a:	8f ef       	ldi	r24, 0xFF	; 255
 31c:	e8 1a       	sub	r14, r24
 31e:	f8 0a       	sbc	r15, r24
	    if (status != 0) goto error;
        ++reg_ptr;
        --reg_len;
    }
	I2C_rep_start((slave_addr << 1) + 1);							// slave read address, LSB 1
	while (dat_len > 1) {
 320:	ec 16       	cp	r14, r28
 322:	fd 06       	cpc	r15, r29
 324:	a9 f7       	brne	.-22     	; 0x310 <I2C_read_bytes+0x70>
 326:	01 c0       	rjmp	.+2      	; 0x32a <I2C_read_bytes+0x8a>
		status = I2C_read(dat_ptr, 0);								// first bytes, send ACK
		if (status != 0) goto error;
		++dat_ptr;
		--dat_len;
	}
	status = I2C_read(dat_ptr, 1);									// single or last byte, send NACK
 328:	e7 01       	movw	r28, r14
 32a:	61 e0       	ldi	r22, 0x01	; 1
 32c:	ce 01       	movw	r24, r28
	if (status != 0) goto error;
 32e:	4c df       	rcall	.-360    	; 0x1c8 <I2C_read>
 330:	81 11       	cpse	r24, r1
	I2C_stop();
 332:	03 c0       	rjmp	.+6      	; 0x33a <I2C_read_bytes+0x9a>
 334:	af df       	rcall	.-162    	; 0x294 <I2C_stop>
	return 0;
 336:	80 e0       	ldi	r24, 0x00	; 0
 338:	02 c0       	rjmp	.+4      	; 0x33e <I2C_read_bytes+0x9e>
	
error:
	I2C_recover();													// clock out possibly stuck slave, reset master
 33a:	da de       	rcall	.-588    	; 0xf0 <I2C_recover>
 33c:	8f ef       	ldi	r24, 0xFF	; 255
	return 0xff;													// flag error
 33e:	df 91       	pop	r29
}
 340:	cf 91       	pop	r28
 342:	1f 91       	pop	r17
 344:	0f 91       	pop	r16
 346:	ff 90       	pop	r15
 348:	ef 90       	pop	r14
 34a:	df 90       	pop	r13
 34c:	cf 90       	pop	r12
 34e:	08 95       	ret

00000350 <setup>:
 350:	cf 93       	push	r28
        CCP = CCP_SPM_gc;
        NVMCTRL_CTRLA = NVMCTRL_CMD_PAGEERASEWRITE_gc;          // Erase old data and write new data to EEPROM
        if (NVMCTRL_STATUS & NVMCTRL_WRERROR_bm) return 1;
    }
    return 0;
}
 352:	df 93       	push	r29
 354:	f8 94       	cli
 356:	88 ed       	ldi	r24, 0xD8	; 216
 358:	84 bf       	out	0x34, r24	; 52
 35a:	c1 e0       	ldi	r28, 0x01	; 1
 35c:	c0 93 61 00 	sts	0x0061, r28	; 0x800061 <__TEXT_REGION_LENGTH__+0x700061>
 360:	8a e4       	ldi	r24, 0x4A	; 74
 362:	80 93 00 04 	sts	0x0400, r24	; 0x800400 <__TEXT_REGION_LENGTH__+0x700400>
 366:	8c e7       	ldi	r24, 0x7C	; 124
 368:	80 93 20 04 	sts	0x0420, r24	; 0x800420 <__TEXT_REGION_LENGTH__+0x700420>
 36c:	8f e3       	ldi	r24, 0x3F	; 63
 36e:	80 93 40 04 	sts	0x0440, r24	; 0x800440 <__TEXT_REGION_LENGTH__+0x700440>
 372:	c0 93 01 02 	sts	0x0201, r28	; 0x800201 <__TEXT_REGION_LENGTH__+0x700201>
 376:	d2 e0       	ldi	r29, 0x02	; 2
 378:	d0 93 05 04 	sts	0x0405, r29	; 0x800405 <__TEXT_REGION_LENGTH__+0x700405>
 37c:	2b e5       	ldi	r18, 0x5B	; 91
 37e:	31 e0       	ldi	r19, 0x01	; 1
 380:	20 93 08 08 	sts	0x0808, r18	; 0x800808 <__TEXT_REGION_LENGTH__+0x700808>
 384:	30 93 09 08 	sts	0x0809, r19	; 0x800809 <__TEXT_REGION_LENGTH__+0x700809>
 388:	90 ea       	ldi	r25, 0xA0	; 160
 38a:	90 93 05 08 	sts	0x0805, r25	; 0x800805 <__TEXT_REGION_LENGTH__+0x700805>
 38e:	90 ec       	ldi	r25, 0xC0	; 192
 390:	90 93 06 08 	sts	0x0806, r25	; 0x800806 <__TEXT_REGION_LENGTH__+0x700806>
 394:	93 e0       	ldi	r25, 0x03	; 3
 396:	90 93 07 08 	sts	0x0807, r25	; 0x800807 <__TEXT_REGION_LENGTH__+0x700807>
 39a:	1c ba       	out	0x1c, r1	; 28
 39c:	1d ba       	out	0x1d, r1	; 29
 39e:	1e ba       	out	0x1e, r1	; 30
 3a0:	1f ba       	out	0x1f, r1	; 31
 3a2:	c0 93 03 0a 	sts	0x0A03, r28	; 0x800a03 <__TEXT_REGION_LENGTH__+0x700a03>
 3a6:	e0 e0       	ldi	r30, 0x00	; 0
 3a8:	fa e0       	ldi	r31, 0x0A	; 10
 3aa:	98 e0       	ldi	r25, 0x08	; 8
 3ac:	90 83       	st	Z, r25
 3ae:	80 93 02 02 	sts	0x0202, r24	; 0x800202 <__TEXT_REGION_LENGTH__+0x700202>
 3b2:	87 e7       	ldi	r24, 0x77	; 119
 3b4:	80 93 01 0a 	sts	0x0A01, r24	; 0x800a01 <__TEXT_REGION_LENGTH__+0x700a01>
 3b8:	c0 93 0a 0a 	sts	0x0A0A, r28	; 0x800a0a <__TEXT_REGION_LENGTH__+0x700a0a>
 3bc:	8b e0       	ldi	r24, 0x0B	; 11
 3be:	80 93 05 0a 	sts	0x0A05, r24	; 0x800a05 <__TEXT_REGION_LENGTH__+0x700a05>
 3c2:	80 81       	ld	r24, Z
 3c4:	81 60       	ori	r24, 0x01	; 1
 3c6:	80 83       	st	Z, r24
 3c8:	85 e0       	ldi	r24, 0x05	; 5
 3ca:	80 93 40 0a 	sts	0x0A40, r24	; 0x800a40 <__TEXT_REGION_LENGTH__+0x700a40>
 3ce:	10 92 41 0a 	sts	0x0A41, r1	; 0x800a41 <__TEXT_REGION_LENGTH__+0x700a41>
 3d2:	8f ef       	ldi	r24, 0xFF	; 255
 3d4:	91 e0       	ldi	r25, 0x01	; 1
 3d6:	80 93 4c 0a 	sts	0x0A4C, r24	; 0x800a4c <__TEXT_REGION_LENGTH__+0x700a4c>
 3da:	90 93 4d 0a 	sts	0x0A4D, r25	; 0x800a4d <__TEXT_REGION_LENGTH__+0x700a4d>
 3de:	10 92 45 0a 	sts	0x0A45, r1	; 0x800a45 <__TEXT_REGION_LENGTH__+0x700a45>
 3e2:	c0 93 50 0a 	sts	0x0A50, r28	; 0x800a50 <__TEXT_REGION_LENGTH__+0x700a50>
 3e6:	10 92 51 0a 	sts	0x0A51, r1	; 0x800a51 <__TEXT_REGION_LENGTH__+0x700a51>
 3ea:	8b e8       	ldi	r24, 0x8B	; 139
 3ec:	93 e0       	ldi	r25, 0x03	; 3
 3ee:	80 93 5c 0a 	sts	0x0A5C, r24	; 0x800a5c <__TEXT_REGION_LENGTH__+0x700a5c>
 3f2:	90 93 5d 0a 	sts	0x0A5D, r25	; 0x800a5d <__TEXT_REGION_LENGTH__+0x700a5d>
 3f6:	c0 93 55 0a 	sts	0x0A55, r28	; 0x800a55 <__TEXT_REGION_LENGTH__+0x700a55>
 3fa:	5c de       	rcall	.-840    	; 0xb4 <I2C_init>
 3fc:	82 e1       	ldi	r24, 0x12	; 18
 3fe:	80 93 a0 00 	sts	0x00A0, r24	; 0x8000a0 <__TEXT_REGION_LENGTH__+0x7000a0>
 402:	80 e2       	ldi	r24, 0x20	; 32
 404:	80 93 a2 00 	sts	0x00A2, r24	; 0x8000a2 <__TEXT_REGION_LENGTH__+0x7000a2>
 408:	c0 93 a1 00 	sts	0x00A1, r28	; 0x8000a1 <__TEXT_REGION_LENGTH__+0x7000a1>
 40c:	e0 e0       	ldi	r30, 0x00	; 0
 40e:	f6 e0       	ldi	r31, 0x06	; 6
 410:	86 e0       	ldi	r24, 0x06	; 6
 412:	80 83       	st	Z, r24
 414:	84 e4       	ldi	r24, 0x44	; 68
 416:	80 93 02 06 	sts	0x0602, r24	; 0x800602 <__TEXT_REGION_LENGTH__+0x700602>
 41a:	8e e1       	ldi	r24, 0x1E	; 30
 41c:	80 93 06 06 	sts	0x0606, r24	; 0x800606 <__TEXT_REGION_LENGTH__+0x700606>
 420:	c0 93 0a 06 	sts	0x060A, r28	; 0x80060a <__TEXT_REGION_LENGTH__+0x70060a>
 424:	80 81       	ld	r24, Z
 426:	81 60       	ori	r24, 0x01	; 1
 428:	80 83       	st	Z, r24
 42a:	c0 93 08 06 	sts	0x0608, r28	; 0x800608 <__TEXT_REGION_LENGTH__+0x700608>
 42e:	e0 e4       	ldi	r30, 0x40	; 64
 430:	f6 e0       	ldi	r31, 0x06	; 6
 432:	10 82       	st	Z, r1
 434:	d0 93 41 06 	sts	0x0641, r29	; 0x800641 <__TEXT_REGION_LENGTH__+0x700641>
 438:	82 e5       	ldi	r24, 0x52	; 82
 43a:	80 93 42 06 	sts	0x0642, r24	; 0x800642 <__TEXT_REGION_LENGTH__+0x700642>
 43e:	84 e0       	ldi	r24, 0x04	; 4
 440:	80 93 45 06 	sts	0x0645, r24	; 0x800645 <__TEXT_REGION_LENGTH__+0x700645>
 444:	80 93 46 06 	sts	0x0646, r24	; 0x800646 <__TEXT_REGION_LENGTH__+0x700646>
 448:	c0 93 4a 06 	sts	0x064A, r28	; 0x80064a <__TEXT_REGION_LENGTH__+0x70064a>
 44c:	80 81       	ld	r24, Z
 44e:	81 60       	ori	r24, 0x01	; 1
 450:	80 83       	st	Z, r24
 452:	c0 93 48 06 	sts	0x0648, r28	; 0x800648 <__TEXT_REGION_LENGTH__+0x700648>
 456:	e0 ea       	ldi	r30, 0xA0	; 160
 458:	f6 e0       	ldi	r31, 0x06	; 6
 45a:	80 e4       	ldi	r24, 0x40	; 64
 45c:	80 83       	st	Z, r24
 45e:	80 e8       	ldi	r24, 0x80	; 128
 460:	80 93 a1 06 	sts	0x06A1, r24	; 0x8006a1 <__TEXT_REGION_LENGTH__+0x7006a1>
 464:	80 81       	ld	r24, Z
 466:	81 60       	ori	r24, 0x01	; 1
 468:	80 83       	st	Z, r24
 46a:	e1 e4       	ldi	r30, 0x41	; 65
 46c:	f1 e0       	ldi	r31, 0x01	; 1
 46e:	80 81       	ld	r24, Z
 470:	80 fd       	sbrc	r24, 0
 472:	fd cf       	rjmp	.-6      	; 0x46e <__LOCK_REGION_LENGTH__+0x6e>
 474:	80 e3       	ldi	r24, 0x30	; 48
 476:	80 93 40 01 	sts	0x0140, r24	; 0x800140 <__TEXT_REGION_LENGTH__+0x700140>
 47a:	10 92 47 01 	sts	0x0147, r1	; 0x800147 <__TEXT_REGION_LENGTH__+0x700147>
 47e:	e1 e4       	ldi	r30, 0x41	; 65
 480:	f1 e0       	ldi	r31, 0x01	; 1
 482:	80 81       	ld	r24, Z
 484:	82 fd       	sbrc	r24, 2
 486:	fd cf       	rjmp	.-6      	; 0x482 <__LOCK_REGION_LENGTH__+0x82>
 488:	ea e4       	ldi	r30, 0x4A	; 74
 48a:	f1 e0       	ldi	r31, 0x01	; 1
 48c:	80 e0       	ldi	r24, 0x00	; 0
 48e:	98 e7       	ldi	r25, 0x78	; 120
 490:	80 83       	st	Z, r24
 492:	91 83       	std	Z+1, r25	; 0x01
 494:	80 91 48 01 	lds	r24, 0x0148	; 0x800148 <__TEXT_REGION_LENGTH__+0x700148>
 498:	90 91 49 01 	lds	r25, 0x0149	; 0x800149 <__TEXT_REGION_LENGTH__+0x700149>
 49c:	60 81       	ld	r22, Z
 49e:	71 81       	ldd	r23, Z+1	; 0x01
 4a0:	82 96       	adiw	r24, 0x22	; 34
 4a2:	11 d5       	rcall	.+2594   	; 0xec6 <__udivmodhi4>
 4a4:	80 93 bf 38 	sts	0x38BF, r24	; 0x8038bf <tmp16bit>
 4a8:	90 93 c0 38 	sts	0x38C0, r25	; 0x8038c0 <tmp16bit+0x1>
 4ac:	e1 e4       	ldi	r30, 0x41	; 65
 4ae:	f1 e0       	ldi	r31, 0x01	; 1
 4b0:	80 81       	ld	r24, Z
 4b2:	83 fd       	sbrc	r24, 3
 4b4:	fd cf       	rjmp	.-6      	; 0x4b0 <__LOCK_REGION_LENGTH__+0xb0>
 4b6:	80 91 bf 38 	lds	r24, 0x38BF	; 0x8038bf <tmp16bit>
 4ba:	90 91 c0 38 	lds	r25, 0x38C0	; 0x8038c0 <tmp16bit+0x1>
 4be:	80 93 4c 01 	sts	0x014C, r24	; 0x80014c <__TEXT_REGION_LENGTH__+0x70014c>
 4c2:	90 93 4d 01 	sts	0x014D, r25	; 0x80014d <__TEXT_REGION_LENGTH__+0x70014d>
 4c6:	83 e0       	ldi	r24, 0x03	; 3
 4c8:	80 93 42 01 	sts	0x0142, r24	; 0x800142 <__TEXT_REGION_LENGTH__+0x700142>
 4cc:	81 e0       	ldi	r24, 0x01	; 1
 4ce:	80 93 52 01 	sts	0x0152, r24	; 0x800152 <__TEXT_REGION_LENGTH__+0x700152>
 4d2:	88 e0       	ldi	r24, 0x08	; 8
 4d4:	80 93 50 01 	sts	0x0150, r24	; 0x800150 <__TEXT_REGION_LENGTH__+0x700150>
 4d8:	e1 e4       	ldi	r30, 0x41	; 65
 4da:	f1 e0       	ldi	r31, 0x01	; 1
 4dc:	80 81       	ld	r24, Z
 4de:	80 fd       	sbrc	r24, 0
 4e0:	fd cf       	rjmp	.-6      	; 0x4dc <__LOCK_REGION_LENGTH__+0xdc>
 4e2:	e0 e4       	ldi	r30, 0x40	; 64
 4e4:	f1 e0       	ldi	r31, 0x01	; 1
 4e6:	80 81       	ld	r24, Z
 4e8:	81 60       	ori	r24, 0x01	; 1
 4ea:	80 83       	st	Z, r24
 4ec:	e0 e5       	ldi	r30, 0x50	; 80
 4ee:	f1 e0       	ldi	r31, 0x01	; 1
 4f0:	80 81       	ld	r24, Z
 4f2:	81 60       	ori	r24, 0x01	; 1
 4f4:	80 83       	st	Z, r24
 4f6:	e2 e2       	ldi	r30, 0x22	; 34
 4f8:	f8 e3       	ldi	r31, 0x38	; 56
 4fa:	10 82       	st	Z, r1
 4fc:	e0 93 6e 38 	sts	0x386E, r30	; 0x80386e <serTxAddr>
 500:	f0 93 6f 38 	sts	0x386F, r31	; 0x80386f <serTxAddr+0x1>
 504:	78 94       	sei
 506:	df 91       	pop	r29
 508:	cf 91       	pop	r28
 50a:	08 95       	ret

0000050c <__vector_8>:
 50c:	1f 92       	push	r1
 50e:	0f 92       	push	r0
 510:	0f b6       	in	r0, 0x3f	; 63
 512:	0f 92       	push	r0
 514:	11 24       	eor	r1, r1
 516:	8f 93       	push	r24
 518:	9f 93       	push	r25
 51a:	af 93       	push	r26
 51c:	bf 93       	push	r27
 51e:	ef 93       	push	r30
 520:	ff 93       	push	r31
 522:	87 e0       	ldi	r24, 0x07	; 7
 524:	80 93 46 04 	sts	0x0446, r24	; 0x800446 <__TEXT_REGION_LENGTH__+0x700446>
 528:	84 e4       	ldi	r24, 0x44	; 68
 52a:	80 93 26 04 	sts	0x0426, r24	; 0x800426 <__TEXT_REGION_LENGTH__+0x700426>
 52e:	ec b3       	in	r30, 0x1c	; 28
 530:	f0 e0       	ldi	r31, 0x00	; 0
 532:	ee 0f       	add	r30, r30
 534:	ff 1f       	adc	r31, r31
 536:	ee 0f       	add	r30, r30
 538:	ff 1f       	adc	r31, r31
 53a:	ee 0f       	add	r30, r30
 53c:	ff 1f       	adc	r31, r31
 53e:	eb 56       	subi	r30, 0x6B	; 107
 540:	f7 4c       	sbci	r31, 0xC7	; 199
 542:	a8 e2       	ldi	r26, 0x28	; 40
 544:	ba e0       	ldi	r27, 0x0A	; 10
 546:	96 e0       	ldi	r25, 0x06	; 6
 548:	81 91       	ld	r24, Z+
 54a:	8d 93       	st	X+, r24
 54c:	9a 95       	dec	r25
 54e:	e1 f7       	brne	.-8      	; 0x548 <__vector_8+0x3c>
 550:	8b e0       	ldi	r24, 0x0B	; 11
 552:	80 93 05 0a 	sts	0x0A05, r24	; 0x800a05 <__TEXT_REGION_LENGTH__+0x700a05>
 556:	8c b3       	in	r24, 0x1c	; 28
 558:	83 30       	cpi	r24, 0x03	; 3
 55a:	58 f4       	brcc	.+22     	; 0x572 <__vector_8+0x66>
 55c:	8c b3       	in	r24, 0x1c	; 28
 55e:	91 e0       	ldi	r25, 0x01	; 1
 560:	01 c0       	rjmp	.+2      	; 0x564 <__vector_8+0x58>
 562:	99 0f       	add	r25, r25
 564:	8a 95       	dec	r24
 566:	ea f7       	brpl	.-6      	; 0x562 <__vector_8+0x56>
 568:	99 b9       	out	0x09, r25	; 9
 56a:	8c b3       	in	r24, 0x1c	; 28
 56c:	83 95       	inc	r24
 56e:	8c bb       	out	0x1c, r24	; 28
 570:	0a c0       	rjmp	.+20     	; 0x586 <__vector_8+0x7a>
 572:	8c b3       	in	r24, 0x1c	; 28
 574:	83 30       	cpi	r24, 0x03	; 3
 576:	21 f4       	brne	.+8      	; 0x580 <__vector_8+0x74>
 578:	2a 9a       	sbi	0x05, 2	; 5
 57a:	83 95       	inc	r24
 57c:	8c bb       	out	0x1c, r24	; 28
 57e:	03 c0       	rjmp	.+6      	; 0x586 <__vector_8+0x7a>
 580:	2e 9a       	sbi	0x05, 6	; 5
 582:	88 27       	eor	r24, r24
 584:	8c bb       	out	0x1c, r24	; 28
 586:	80 91 21 38 	lds	r24, 0x3821	; 0x803821 <timeout_I2C>
 58a:	88 23       	and	r24, r24
 58c:	29 f0       	breq	.+10     	; 0x598 <__vector_8+0x8c>
 58e:	80 91 21 38 	lds	r24, 0x3821	; 0x803821 <timeout_I2C>
 592:	81 50       	subi	r24, 0x01	; 1
 594:	80 93 21 38 	sts	0x3821, r24	; 0x803821 <timeout_I2C>
 598:	8f ef       	ldi	r24, 0xFF	; 255
 59a:	80 93 0b 0a 	sts	0x0A0B, r24	; 0x800a0b <__TEXT_REGION_LENGTH__+0x700a0b>
 59e:	ff 91       	pop	r31
 5a0:	ef 91       	pop	r30
 5a2:	bf 91       	pop	r27
 5a4:	af 91       	pop	r26
 5a6:	9f 91       	pop	r25
 5a8:	8f 91       	pop	r24
 5aa:	0f 90       	pop	r0
 5ac:	0f be       	out	0x3f, r0	; 63
 5ae:	0f 90       	pop	r0
 5b0:	1f 90       	pop	r1
 5b2:	18 95       	reti

000005b4 <__vector_13>:
 5b4:	1f 92       	push	r1
 5b6:	0f 92       	push	r0
 5b8:	0f b6       	in	r0, 0x3f	; 63
 5ba:	0f 92       	push	r0
 5bc:	11 24       	eor	r1, r1
 5be:	8f 93       	push	r24
 5c0:	9f 93       	push	r25
 5c2:	ef 93       	push	r30
 5c4:	ff 93       	push	r31
 5c6:	e0 91 6e 38 	lds	r30, 0x386E	; 0x80386e <serTxAddr>
 5ca:	f0 91 6f 38 	lds	r31, 0x386F	; 0x80386f <serTxAddr+0x1>
 5ce:	80 81       	ld	r24, Z
 5d0:	88 23       	and	r24, r24
 5d2:	91 f0       	breq	.+36     	; 0x5f8 <__vector_13+0x44>
 5d4:	80 81       	ld	r24, Z
 5d6:	80 93 02 08 	sts	0x0802, r24	; 0x800802 <__TEXT_REGION_LENGTH__+0x700802>
 5da:	80 91 6e 38 	lds	r24, 0x386E	; 0x80386e <serTxAddr>
 5de:	90 91 6f 38 	lds	r25, 0x386F	; 0x80386f <serTxAddr+0x1>
 5e2:	01 96       	adiw	r24, 0x01	; 1
 5e4:	80 93 6e 38 	sts	0x386E, r24	; 0x80386e <serTxAddr>
 5e8:	90 93 6f 38 	sts	0x386F, r25	; 0x80386f <serTxAddr+0x1>
 5ec:	e5 e0       	ldi	r30, 0x05	; 5
 5ee:	f8 e0       	ldi	r31, 0x08	; 8
 5f0:	80 81       	ld	r24, Z
 5f2:	80 62       	ori	r24, 0x20	; 32
 5f4:	80 83       	st	Z, r24
 5f6:	05 c0       	rjmp	.+10     	; 0x602 <__vector_13+0x4e>
 5f8:	81 e0       	ldi	r24, 0x01	; 1
 5fa:	80 93 00 38 	sts	0x3800, r24	; 0x803800 <__data_start>
 5fe:	10 92 45 0a 	sts	0x0A45, r1	; 0x800a45 <__TEXT_REGION_LENGTH__+0x700a45>
 602:	81 e0       	ldi	r24, 0x01	; 1
 604:	80 93 46 0a 	sts	0x0A46, r24	; 0x800a46 <__TEXT_REGION_LENGTH__+0x700a46>
 608:	ff 91       	pop	r31
 60a:	ef 91       	pop	r30
 60c:	9f 91       	pop	r25
 60e:	8f 91       	pop	r24
 610:	0f 90       	pop	r0
 612:	0f be       	out	0x3f, r0	; 63
 614:	0f 90       	pop	r0
 616:	1f 90       	pop	r1
 618:	18 95       	reti

0000061a <__vector_14>:
 61a:	1f 92       	push	r1
 61c:	0f 92       	push	r0
 61e:	0f b6       	in	r0, 0x3f	; 63
 620:	0f 92       	push	r0
 622:	11 24       	eor	r1, r1
 624:	8f 93       	push	r24
 626:	9f 93       	push	r25
 628:	ef 93       	push	r30
 62a:	ff 93       	push	r31
 62c:	e0 91 6a 38 	lds	r30, 0x386A	; 0x80386a <auSmpAddr>
 630:	f0 91 6b 38 	lds	r31, 0x386B	; 0x80386b <auSmpAddr+0x1>
 634:	80 81       	ld	r24, Z
 636:	88 23       	and	r24, r24
 638:	69 f0       	breq	.+26     	; 0x654 <__vector_14+0x3a>
 63a:	80 81       	ld	r24, Z
 63c:	80 93 a1 06 	sts	0x06A1, r24	; 0x8006a1 <__TEXT_REGION_LENGTH__+0x7006a1>
 640:	80 91 6a 38 	lds	r24, 0x386A	; 0x80386a <auSmpAddr>
 644:	90 91 6b 38 	lds	r25, 0x386B	; 0x80386b <auSmpAddr+0x1>
 648:	01 96       	adiw	r24, 0x01	; 1
 64a:	80 93 6a 38 	sts	0x386A, r24	; 0x80386a <auSmpAddr>
 64e:	90 93 6b 38 	sts	0x386B, r25	; 0x80386b <auSmpAddr+0x1>
 652:	06 c0       	rjmp	.+12     	; 0x660 <__vector_14+0x46>
 654:	80 e8       	ldi	r24, 0x80	; 128
 656:	80 93 a1 06 	sts	0x06A1, r24	; 0x8006a1 <__TEXT_REGION_LENGTH__+0x7006a1>
 65a:	81 e0       	ldi	r24, 0x01	; 1
 65c:	80 93 bd 38 	sts	0x38BD, r24	; 0x8038bd <auPlayDone>
 660:	81 e0       	ldi	r24, 0x01	; 1
 662:	80 93 56 0a 	sts	0x0A56, r24	; 0x800a56 <__TEXT_REGION_LENGTH__+0x700a56>
 666:	ff 91       	pop	r31
 668:	ef 91       	pop	r30
 66a:	9f 91       	pop	r25
 66c:	8f 91       	pop	r24
 66e:	0f 90       	pop	r0
 670:	0f be       	out	0x3f, r0	; 63
 672:	0f 90       	pop	r0
 674:	1f 90       	pop	r1
 676:	18 95       	reti

00000678 <__vector_27>:
 678:	1f 92       	push	r1
 67a:	0f 92       	push	r0
 67c:	0f b6       	in	r0, 0x3f	; 63
 67e:	0f 92       	push	r0
 680:	11 24       	eor	r1, r1
 682:	8f 93       	push	r24
 684:	ef 93       	push	r30
 686:	ff 93       	push	r31
 688:	80 91 05 38 	lds	r24, 0x3805	; 0x803805 <serRxDone>
 68c:	81 11       	cpse	r24, r1
 68e:	1d c0       	rjmp	.+58     	; 0x6ca <__vector_27+0x52>
 690:	ed b3       	in	r30, 0x1d	; 29
 692:	f0 e0       	ldi	r31, 0x00	; 0
 694:	80 91 00 08 	lds	r24, 0x0800	; 0x800800 <__TEXT_REGION_LENGTH__+0x700800>
 698:	ee 5d       	subi	r30, 0xDE	; 222
 69a:	f7 4c       	sbci	r31, 0xC7	; 199
 69c:	80 83       	st	Z, r24
 69e:	ed b3       	in	r30, 0x1d	; 29
 6a0:	f0 e0       	ldi	r31, 0x00	; 0
 6a2:	ee 5d       	subi	r30, 0xDE	; 222
 6a4:	f7 4c       	sbci	r31, 0xC7	; 199
 6a6:	80 81       	ld	r24, Z
 6a8:	8a 30       	cpi	r24, 0x0A	; 10
 6aa:	49 f4       	brne	.+18     	; 0x6be <__vector_27+0x46>
 6ac:	ed b3       	in	r30, 0x1d	; 29
 6ae:	f0 e0       	ldi	r31, 0x00	; 0
 6b0:	ee 5d       	subi	r30, 0xDE	; 222
 6b2:	f7 4c       	sbci	r31, 0xC7	; 199
 6b4:	10 82       	st	Z, r1
 6b6:	81 e0       	ldi	r24, 0x01	; 1
 6b8:	80 93 05 38 	sts	0x3805, r24	; 0x803805 <serRxDone>
 6bc:	06 c0       	rjmp	.+12     	; 0x6ca <__vector_27+0x52>
 6be:	8d b3       	in	r24, 0x1d	; 29
 6c0:	87 34       	cpi	r24, 0x47	; 71
 6c2:	18 f4       	brcc	.+6      	; 0x6ca <__vector_27+0x52>
 6c4:	8d b3       	in	r24, 0x1d	; 29
 6c6:	8f 5f       	subi	r24, 0xFF	; 255
 6c8:	8d bb       	out	0x1d, r24	; 29
 6ca:	80 e8       	ldi	r24, 0x80	; 128
 6cc:	80 93 04 08 	sts	0x0804, r24	; 0x800804 <__TEXT_REGION_LENGTH__+0x700804>
 6d0:	ff 91       	pop	r31
 6d2:	ef 91       	pop	r30
 6d4:	8f 91       	pop	r24
 6d6:	0f 90       	pop	r0
 6d8:	0f be       	out	0x3f, r0	; 63
 6da:	0f 90       	pop	r0
 6dc:	1f 90       	pop	r1
 6de:	18 95       	reti

000006e0 <__vector_28>:
 6e0:	1f 92       	push	r1
 6e2:	0f 92       	push	r0
 6e4:	0f b6       	in	r0, 0x3f	; 63
 6e6:	0f 92       	push	r0
 6e8:	11 24       	eor	r1, r1
 6ea:	8f 93       	push	r24
 6ec:	ef 93       	push	r30
 6ee:	ff 93       	push	r31
 6f0:	10 92 4a 0a 	sts	0x0A4A, r1	; 0x800a4a <__TEXT_REGION_LENGTH__+0x700a4a>
 6f4:	10 92 4b 0a 	sts	0x0A4B, r1	; 0x800a4b <__TEXT_REGION_LENGTH__+0x700a4b>
 6f8:	81 e0       	ldi	r24, 0x01	; 1
 6fa:	80 93 45 0a 	sts	0x0A45, r24	; 0x800a45 <__TEXT_REGION_LENGTH__+0x700a45>
 6fe:	e5 e0       	ldi	r30, 0x05	; 5
 700:	f8 e0       	ldi	r31, 0x08	; 8
 702:	80 81       	ld	r24, Z
 704:	8f 7d       	andi	r24, 0xDF	; 223
 706:	80 83       	st	Z, r24
 708:	ff 91       	pop	r31
 70a:	ef 91       	pop	r30
 70c:	8f 91       	pop	r24
 70e:	0f 90       	pop	r0
 710:	0f be       	out	0x3f, r0	; 63
 712:	0f 90       	pop	r0
 714:	1f 90       	pop	r1
 716:	18 95       	reti

00000718 <__vector_20>:
 718:	1f 92       	push	r1
 71a:	0f 92       	push	r0
 71c:	0f b6       	in	r0, 0x3f	; 63
 71e:	0f 92       	push	r0
 720:	11 24       	eor	r1, r1
 722:	8f 93       	push	r24
 724:	ef 93       	push	r30
 726:	ff 93       	push	r31
 728:	8e b3       	in	r24, 0x1e	; 30
 72a:	8f 5f       	subi	r24, 0xFF	; 255
 72c:	8f 71       	andi	r24, 0x1F	; 31
 72e:	8e bb       	out	0x1e, r24	; 30
 730:	80 91 02 38 	lds	r24, 0x3802	; 0x803802 <__data_end>
 734:	81 11       	cpse	r24, r1
 736:	11 c0       	rjmp	.+34     	; 0x75a <__vector_20+0x42>
 738:	80 91 06 06 	lds	r24, 0x0606	; 0x800606 <__TEXT_REGION_LENGTH__+0x700606>
 73c:	8e 31       	cpi	r24, 0x1E	; 30
 73e:	29 f4       	brne	.+10     	; 0x74a <__vector_20+0x32>
 740:	80 91 10 06 	lds	r24, 0x0610	; 0x800610 <__TEXT_REGION_LENGTH__+0x700610>
 744:	80 93 be 38 	sts	0x38BE, r24	; 0x8038be <adcTemp>
 748:	0a c0       	rjmp	.+20     	; 0x75e <__vector_20+0x46>
 74a:	ee b3       	in	r30, 0x1e	; 30
 74c:	f0 e0       	ldi	r31, 0x00	; 0
 74e:	80 91 10 06 	lds	r24, 0x0610	; 0x800610 <__TEXT_REGION_LENGTH__+0x700610>
 752:	eb 58       	subi	r30, 0x8B	; 139
 754:	f7 4c       	sbci	r31, 0xC7	; 199
 756:	80 83       	st	Z, r24
 758:	02 c0       	rjmp	.+4      	; 0x75e <__vector_20+0x46>
 75a:	10 92 02 38 	sts	0x3802, r1	; 0x803802 <__data_end>
 75e:	81 e0       	ldi	r24, 0x01	; 1
 760:	80 93 0b 06 	sts	0x060B, r24	; 0x80060b <__TEXT_REGION_LENGTH__+0x70060b>
 764:	ff 91       	pop	r31
 766:	ef 91       	pop	r30
 768:	8f 91       	pop	r24
 76a:	0f 90       	pop	r0
 76c:	0f be       	out	0x3f, r0	; 63
 76e:	0f 90       	pop	r0
 770:	1f 90       	pop	r1
 772:	18 95       	reti

00000774 <__vector_22>:
 774:	1f 92       	push	r1
 776:	0f 92       	push	r0
 778:	0f b6       	in	r0, 0x3f	; 63
 77a:	0f 92       	push	r0
 77c:	11 24       	eor	r1, r1
 77e:	8f 93       	push	r24
 780:	9f 93       	push	r25
 782:	80 91 46 06 	lds	r24, 0x0646	; 0x800646 <__TEXT_REGION_LENGTH__+0x700646>
 786:	81 11       	cpse	r24, r1
 788:	0c c0       	rjmp	.+24     	; 0x7a2 <__vector_22+0x2e>
 78a:	80 91 50 06 	lds	r24, 0x0650	; 0x800650 <__TEXT_REGION_LENGTH__+0x700650>
 78e:	90 91 51 06 	lds	r25, 0x0651	; 0x800651 <__TEXT_REGION_LENGTH__+0x700651>
 792:	80 93 72 38 	sts	0x3872, r24	; 0x803872 <adcPhot>
 796:	90 93 73 38 	sts	0x3873, r25	; 0x803873 <adcPhot+0x1>
 79a:	81 e0       	ldi	r24, 0x01	; 1
 79c:	80 93 46 06 	sts	0x0646, r24	; 0x800646 <__TEXT_REGION_LENGTH__+0x700646>
 7a0:	23 c0       	rjmp	.+70     	; 0x7e8 <__vector_22+0x74>
 7a2:	80 91 46 06 	lds	r24, 0x0646	; 0x800646 <__TEXT_REGION_LENGTH__+0x700646>
 7a6:	81 30       	cpi	r24, 0x01	; 1
 7a8:	79 f4       	brne	.+30     	; 0x7c8 <__vector_22+0x54>
 7aa:	88 e0       	ldi	r24, 0x08	; 8
 7ac:	80 93 06 04 	sts	0x0406, r24	; 0x800406 <__TEXT_REGION_LENGTH__+0x700406>
 7b0:	80 91 50 06 	lds	r24, 0x0650	; 0x800650 <__TEXT_REGION_LENGTH__+0x700650>
 7b4:	90 91 51 06 	lds	r25, 0x0651	; 0x800651 <__TEXT_REGION_LENGTH__+0x700651>
 7b8:	80 93 70 38 	sts	0x3870, r24	; 0x803870 <adcHall>
 7bc:	90 93 71 38 	sts	0x3871, r25	; 0x803871 <adcHall+0x1>
 7c0:	84 e0       	ldi	r24, 0x04	; 4
 7c2:	80 93 46 06 	sts	0x0646, r24	; 0x800646 <__TEXT_REGION_LENGTH__+0x700646>
 7c6:	10 c0       	rjmp	.+32     	; 0x7e8 <__vector_22+0x74>
 7c8:	80 91 50 06 	lds	r24, 0x0650	; 0x800650 <__TEXT_REGION_LENGTH__+0x700650>
 7cc:	90 91 51 06 	lds	r25, 0x0651	; 0x800651 <__TEXT_REGION_LENGTH__+0x700651>
 7d0:	80 93 6c 38 	sts	0x386C, r24	; 0x80386c <adcBtns>
 7d4:	90 93 6d 38 	sts	0x386D, r25	; 0x80386d <adcBtns+0x1>
 7d8:	8f b3       	in	r24, 0x1f	; 31
 7da:	8f 30       	cpi	r24, 0x0F	; 15
 7dc:	29 f4       	brne	.+10     	; 0x7e8 <__vector_22+0x74>
 7de:	10 92 46 06 	sts	0x0646, r1	; 0x800646 <__TEXT_REGION_LENGTH__+0x700646>
 7e2:	88 e0       	ldi	r24, 0x08	; 8
 7e4:	80 93 05 04 	sts	0x0405, r24	; 0x800405 <__TEXT_REGION_LENGTH__+0x700405>
 7e8:	8f b3       	in	r24, 0x1f	; 31
 7ea:	90 e0       	ldi	r25, 0x00	; 0
 7ec:	01 96       	adiw	r24, 0x01	; 1
 7ee:	8f 70       	andi	r24, 0x0F	; 15
 7f0:	90 78       	andi	r25, 0x80	; 128
 7f2:	99 23       	and	r25, r25
 7f4:	24 f4       	brge	.+8      	; 0x7fe <__vector_22+0x8a>
 7f6:	01 97       	sbiw	r24, 0x01	; 1
 7f8:	80 6f       	ori	r24, 0xF0	; 240
 7fa:	9f 6f       	ori	r25, 0xFF	; 255
 7fc:	01 96       	adiw	r24, 0x01	; 1
 7fe:	8f bb       	out	0x1f, r24	; 31
 800:	81 e0       	ldi	r24, 0x01	; 1
 802:	80 93 4b 06 	sts	0x064B, r24	; 0x80064b <__TEXT_REGION_LENGTH__+0x70064b>
 806:	9f 91       	pop	r25
 808:	8f 91       	pop	r24
 80a:	0f 90       	pop	r0
 80c:	0f be       	out	0x3f, r0	; 63
 80e:	0f 90       	pop	r0
 810:	1f 90       	pop	r1
 812:	18 95       	reti

00000814 <__vector_6>:
 814:	1f 92       	push	r1
 816:	0f 92       	push	r0
 818:	0f b6       	in	r0, 0x3f	; 63
 81a:	0f 92       	push	r0
 81c:	11 24       	eor	r1, r1
 81e:	5f 93       	push	r21
 820:	6f 93       	push	r22
 822:	7f 93       	push	r23
 824:	8f 93       	push	r24
 826:	9f 93       	push	r25
 828:	af 93       	push	r26
 82a:	bf 93       	push	r27
 82c:	ef 93       	push	r30
 82e:	ff 93       	push	r31
 830:	80 91 43 01 	lds	r24, 0x0143	; 0x800143 <__TEXT_REGION_LENGTH__+0x700143>
 834:	81 ff       	sbrs	r24, 1
 836:	28 c0       	rjmp	.+80     	; 0x888 <__vector_6+0x74>
 838:	80 91 03 38 	lds	r24, 0x3803	; 0x803803 <buttonMark>
 83c:	8f 3f       	cpi	r24, 0xFF	; 255
 83e:	29 f0       	breq	.+10     	; 0x84a <__vector_6+0x36>
 840:	80 91 03 38 	lds	r24, 0x3803	; 0x803803 <buttonMark>
 844:	8f 5f       	subi	r24, 0xFF	; 255
 846:	80 93 03 38 	sts	0x3803, r24	; 0x803803 <buttonMark>
 84a:	80 91 48 01 	lds	r24, 0x0148	; 0x800148 <__TEXT_REGION_LENGTH__+0x700148>
 84e:	90 91 49 01 	lds	r25, 0x0149	; 0x800149 <__TEXT_REGION_LENGTH__+0x700149>
 852:	60 91 4a 01 	lds	r22, 0x014A	; 0x80014a <__TEXT_REGION_LENGTH__+0x70014a>
 856:	70 91 4b 01 	lds	r23, 0x014B	; 0x80014b <__TEXT_REGION_LENGTH__+0x70014b>
 85a:	82 96       	adiw	r24, 0x22	; 34
 85c:	34 d3       	rcall	.+1640   	; 0xec6 <__udivmodhi4>
 85e:	80 93 bf 38 	sts	0x38BF, r24	; 0x8038bf <tmp16bit>
 862:	90 93 c0 38 	sts	0x38C0, r25	; 0x8038c0 <tmp16bit+0x1>
 866:	e1 e4       	ldi	r30, 0x41	; 65
 868:	f1 e0       	ldi	r31, 0x01	; 1
 86a:	80 81       	ld	r24, Z
 86c:	83 fd       	sbrc	r24, 3
 86e:	fd cf       	rjmp	.-6      	; 0x86a <__vector_6+0x56>
 870:	80 91 bf 38 	lds	r24, 0x38BF	; 0x8038bf <tmp16bit>
 874:	90 91 c0 38 	lds	r25, 0x38C0	; 0x8038c0 <tmp16bit+0x1>
 878:	80 93 4c 01 	sts	0x014C, r24	; 0x80014c <__TEXT_REGION_LENGTH__+0x70014c>
 87c:	90 93 4d 01 	sts	0x014D, r25	; 0x80014d <__TEXT_REGION_LENGTH__+0x70014d>
 880:	82 e0       	ldi	r24, 0x02	; 2
 882:	80 93 43 01 	sts	0x0143, r24	; 0x800143 <__TEXT_REGION_LENGTH__+0x700143>
 886:	0c c0       	rjmp	.+24     	; 0x8a0 <__vector_6+0x8c>
 888:	80 91 04 38 	lds	r24, 0x3804	; 0x803804 <minuteMark>
 88c:	8f 3f       	cpi	r24, 0xFF	; 255
 88e:	29 f0       	breq	.+10     	; 0x89a <__vector_6+0x86>
 890:	80 91 04 38 	lds	r24, 0x3804	; 0x803804 <minuteMark>
 894:	8f 5f       	subi	r24, 0xFF	; 255
 896:	80 93 04 38 	sts	0x3804, r24	; 0x803804 <minuteMark>
 89a:	81 e0       	ldi	r24, 0x01	; 1
 89c:	80 93 43 01 	sts	0x0143, r24	; 0x800143 <__TEXT_REGION_LENGTH__+0x700143>
 8a0:	ff 91       	pop	r31
 8a2:	ef 91       	pop	r30
 8a4:	bf 91       	pop	r27
 8a6:	af 91       	pop	r26
 8a8:	9f 91       	pop	r25
 8aa:	8f 91       	pop	r24
 8ac:	7f 91       	pop	r23
 8ae:	6f 91       	pop	r22
 8b0:	5f 91       	pop	r21
 8b2:	0f 90       	pop	r0
 8b4:	0f be       	out	0x3f, r0	; 63
 8b6:	0f 90       	pop	r0
 8b8:	1f 90       	pop	r1
 8ba:	18 95       	reti

000008bc <__vector_7>:
 8bc:	1f 92       	push	r1
 8be:	0f 92       	push	r0
 8c0:	0f b6       	in	r0, 0x3f	; 63
 8c2:	0f 92       	push	r0
 8c4:	11 24       	eor	r1, r1
 8c6:	8f 93       	push	r24
 8c8:	81 e0       	ldi	r24, 0x01	; 1
 8ca:	80 93 48 06 	sts	0x0648, r24	; 0x800648 <__TEXT_REGION_LENGTH__+0x700648>
 8ce:	80 93 53 01 	sts	0x0153, r24	; 0x800153 <__TEXT_REGION_LENGTH__+0x700153>
 8d2:	8f 91       	pop	r24
 8d4:	0f 90       	pop	r0
 8d6:	0f be       	out	0x3f, r0	; 63
 8d8:	0f 90       	pop	r0
 8da:	1f 90       	pop	r1
 8dc:	18 95       	reti

000008de <SerSend>:

//Sends a set of characters to the serial port, stops only when character value 0 is reached.
uint8_t SerSend(unsigned char *addr){
 8de:	9c 01       	movw	r18, r24
    if (serTxDone){
 8e0:	90 91 00 38 	lds	r25, 0x3800	; 0x803800 <__data_start>
 8e4:	99 23       	and	r25, r25
 8e6:	59 f0       	breq	.+22     	; 0x8fe <SerSend+0x20>
        serTxAddr = addr;
 8e8:	20 93 6e 38 	sts	0x386E, r18	; 0x80386e <serTxAddr>
 8ec:	30 93 6f 38 	sts	0x386F, r19	; 0x80386f <serTxAddr+0x1>
        serTxDone = 0;
 8f0:	10 92 00 38 	sts	0x3800, r1	; 0x803800 <__data_start>
        TCB0_INTCTRL = 0x01;
 8f4:	81 e0       	ldi	r24, 0x01	; 1
 8f6:	80 93 45 0a 	sts	0x0A45, r24	; 0x800a45 <__TEXT_REGION_LENGTH__+0x700a45>
        return 0;
 8fa:	80 e0       	ldi	r24, 0x00	; 0
 8fc:	08 95       	ret
    } else return 1;    //Error: Still sending data
 8fe:	81 e0       	ldi	r24, 0x01	; 1
};
 900:	08 95       	ret

00000902 <SerSpeed>:

// Set serial character output speed, 255-0 (0.8 to 100ms delay between characters)
void SerSpeed(uint8_t serSpd){
 902:	28 2f       	mov	r18, r24
    if (serSpd<1) serSpd = 1;
 904:	81 11       	cpse	r24, r1
 906:	01 c0       	rjmp	.+2      	; 0x90a <SerSpeed+0x8>
 908:	21 e0       	ldi	r18, 0x01	; 1
    TCB0_CCMP = ((uint16_t)(0xFF-serSpd)<<8) + 0xFF;
 90a:	8f ef       	ldi	r24, 0xFF	; 255
 90c:	90 e0       	ldi	r25, 0x00	; 0
 90e:	82 1b       	sub	r24, r18
 910:	91 09       	sbc	r25, r1
 912:	98 2f       	mov	r25, r24
 914:	88 27       	eor	r24, r24
 916:	81 50       	subi	r24, 0x01	; 1
 918:	9f 4f       	sbci	r25, 0xFF	; 255
 91a:	80 93 4c 0a 	sts	0x0A4C, r24	; 0x800a4c <__TEXT_REGION_LENGTH__+0x700a4c>
 91e:	90 93 4d 0a 	sts	0x0A4D, r25	; 0x800a4d <__TEXT_REGION_LENGTH__+0x700a4d>
 922:	08 95       	ret

00000924 <SelectTSens>:
};

// Select temperature sensor
void SelectTSens(){
     VREF_CTRLA   = 0x12;    //0x22 for audio in/out (2.5V), 0x12 for temperature in, audio out (1.1V/2.5V)
 924:	82 e1       	ldi	r24, 0x12	; 18
 926:	80 93 a0 00 	sts	0x00A0, r24	; 0x8000a0 <__TEXT_REGION_LENGTH__+0x7000a0>
     ADC0_CTRLA   |= ADC_RESSEL_bm;
 92a:	e0 e0       	ldi	r30, 0x00	; 0
 92c:	f6 e0       	ldi	r31, 0x06	; 6
 92e:	80 81       	ld	r24, Z
 930:	84 60       	ori	r24, 0x04	; 4
 932:	80 83       	st	Z, r24
     ADC0_MUXPOS  = 0x1E;    //Audio in: AIN7 at (0x07), Temperature: Internal sensor at (0x1E)
 934:	8e e1       	ldi	r24, 0x1E	; 30
 936:	80 93 06 06 	sts	0x0606, r24	; 0x800606 <__TEXT_REGION_LENGTH__+0x700606>
     adc0Chg = 1;
 93a:	81 e0       	ldi	r24, 0x01	; 1
 93c:	80 93 02 38 	sts	0x3802, r24	; 0x803802 <__data_end>
 940:	08 95       	ret

00000942 <SelectAuIn>:
};

// Select "audio" input (0-2.5V)
void SelectAuIn(){
     VREF_CTRLA   = 0x22;    //0x22 for audio in/out (2.5V), 0x12 for temperature in, audio out (1.1V/2.5V)
 942:	82 e2       	ldi	r24, 0x22	; 34
 944:	80 93 a0 00 	sts	0x00A0, r24	; 0x8000a0 <__TEXT_REGION_LENGTH__+0x7000a0>
     ADC0_CTRLA   &= ~(ADC_RESSEL_bm);
 948:	e0 e0       	ldi	r30, 0x00	; 0
 94a:	f6 e0       	ldi	r31, 0x06	; 6
 94c:	80 81       	ld	r24, Z
 94e:	8b 7f       	andi	r24, 0xFB	; 251
 950:	80 83       	st	Z, r24
     ADC0_MUXPOS  = 0x07;    //Audio in: AIN7 at (0x07), Temperature: Internal sensor at (0x1E)
 952:	87 e0       	ldi	r24, 0x07	; 7
 954:	80 93 06 06 	sts	0x0606, r24	; 0x800606 <__TEXT_REGION_LENGTH__+0x700606>
     adc0Chg = 1;
 958:	81 e0       	ldi	r24, 0x01	; 1
 95a:	80 93 02 38 	sts	0x3802, r24	; 0x803802 <__data_end>
 95e:	08 95       	ret

00000960 <LoadGameState>:

//Reads an address from I2C EEPROM
uint16_t ReadAddr (uint16_t offset, uint8_t type){
    uint8_t data[2] = {0,0};
    if (ExtEERead(offset, 2, type, &data[0])) return 0xffff; else return (data[0]<<8|data[1]);
}
 960:	80 e0       	ldi	r24, 0x00	; 0
 962:	08 95       	ret

00000964 <DecryptData>:
 964:	cf 93       	push	r28
 966:	df 93       	push	r29
 968:	dc 01       	movw	r26, r24
 96a:	e9 01       	movw	r28, r18
 96c:	66 23       	and	r22, r22
 96e:	a9 f0       	breq	.+42     	; 0x99a <DecryptData+0x36>
 970:	50 e0       	ldi	r21, 0x00	; 0
 972:	44 0f       	add	r20, r20
 974:	55 1f       	adc	r21, r21
 976:	44 0f       	add	r20, r20
 978:	55 1f       	adc	r21, r21
 97a:	44 0f       	add	r20, r20
 97c:	55 1f       	adc	r21, r21
 97e:	40 5e       	subi	r20, 0xE0	; 224
 980:	50 47       	sbci	r21, 0x70	; 112
 982:	fd 01       	movw	r30, r26
 984:	e7 70       	andi	r30, 0x07	; 7
 986:	ff 27       	eor	r31, r31
 988:	e4 0f       	add	r30, r20
 98a:	f5 1f       	adc	r31, r21
 98c:	88 81       	ld	r24, Y
 98e:	90 81       	ld	r25, Z
 990:	98 27       	eor	r25, r24
 992:	99 93       	st	Y+, r25
 994:	11 96       	adiw	r26, 0x01	; 1
 996:	61 50       	subi	r22, 0x01	; 1
 998:	a1 f7       	brne	.-24     	; 0x982 <DecryptData+0x1e>
 99a:	df 91       	pop	r29
 99c:	cf 91       	pop	r28
 99e:	08 95       	ret

000009a0 <ExtEERead>:
 9a0:	af 92       	push	r10
 9a2:	bf 92       	push	r11
 9a4:	cf 92       	push	r12
 9a6:	df 92       	push	r13
 9a8:	ef 92       	push	r14
 9aa:	ff 92       	push	r15
 9ac:	0f 93       	push	r16
 9ae:	1f 93       	push	r17
 9b0:	cf 93       	push	r28
 9b2:	df 93       	push	r29
 9b4:	00 d0       	rcall	.+0      	; 0x9b6 <ExtEERead+0x16>
 9b6:	cd b7       	in	r28, 0x3d	; 61
 9b8:	de b7       	in	r29, 0x3e	; 62
 9ba:	d6 2e       	mov	r13, r22
 9bc:	c4 2e       	mov	r12, r20
 9be:	59 01       	movw	r10, r18
 9c0:	7c 01       	movw	r14, r24
 9c2:	e8 94       	clt
 9c4:	f7 f8       	bld	r15, 7
 9c6:	f9 82       	std	Y+1, r15	; 0x01
 9c8:	ea 82       	std	Y+2, r14	; 0x02
 9ca:	06 2f       	mov	r16, r22
 9cc:	42 e0       	ldi	r20, 0x02	; 2
 9ce:	be 01       	movw	r22, r28
 9d0:	6f 5f       	subi	r22, 0xFF	; 255
 9d2:	7f 4f       	sbci	r23, 0xFF	; 255
 9d4:	80 e5       	ldi	r24, 0x50	; 80
 9d6:	64 dc       	rcall	.-1848   	; 0x2a0 <I2C_read_bytes>
 9d8:	18 2f       	mov	r17, r24
 9da:	81 11       	cpse	r24, r1
 9dc:	05 c0       	rjmp	.+10     	; 0x9e8 <ExtEERead+0x48>
 9de:	95 01       	movw	r18, r10
 9e0:	4c 2d       	mov	r20, r12
 9e2:	6d 2d       	mov	r22, r13
 9e4:	c7 01       	movw	r24, r14
 9e6:	be df       	rcall	.-132    	; 0x964 <DecryptData>
 9e8:	81 2f       	mov	r24, r17
 9ea:	0f 90       	pop	r0
 9ec:	0f 90       	pop	r0
 9ee:	df 91       	pop	r29
 9f0:	cf 91       	pop	r28
 9f2:	1f 91       	pop	r17
 9f4:	0f 91       	pop	r16
 9f6:	ff 90       	pop	r15
 9f8:	ef 90       	pop	r14
 9fa:	df 90       	pop	r13
 9fc:	cf 90       	pop	r12
 9fe:	bf 90       	pop	r11
 a00:	af 90       	pop	r10
 a02:	08 95       	ret

00000a04 <ClearTxAfter>:

//Empty all other string
void ClearTxAfter(uint8_t nr){
    for (uint8_t x=(nr+1); x<TXLISTLEN; ++x) txStrLen[x]=0;
 a04:	8f 5f       	subi	r24, 0xFF	; 255
 a06:	88 30       	cpi	r24, 0x08	; 8
 a08:	40 f4       	brcc	.+16     	; 0xa1a <ClearTxAfter+0x16>
 a0a:	e8 2f       	mov	r30, r24
 a0c:	f0 e0       	ldi	r31, 0x00	; 0
 a0e:	e7 5f       	subi	r30, 0xF7	; 247
 a10:	f7 4c       	sbci	r31, 0xC7	; 199
 a12:	10 82       	st	Z, r1
 a14:	8f 5f       	subi	r24, 0xFF	; 255
 a16:	88 30       	cpi	r24, 0x08	; 8
 a18:	c1 f7       	brne	.-16     	; 0xa0a <ClearTxAfter+0x6>
 a1a:	08 95       	ret

00000a1c <StartsWith>:
}

//Check if a string starts with compare value
uint8_t StartsWith(uint8_t *data, char *compare){
    uint8_t x=0;
    while (data[x] && compare[x]){
 a1c:	fc 01       	movw	r30, r24
 a1e:	90 81       	ld	r25, Z
 a20:	91 11       	cpse	r25, r1
 a22:	07 c0       	rjmp	.+14     	; 0xa32 <StartsWith+0x16>
        if(data[x] != compare[x]) return 0;
        ++x;
        if ((x>=(sizeof(*compare)-1))||(x>=(sizeof(*data)))) break;
    }
    return 1;
 a24:	81 e0       	ldi	r24, 0x01	; 1
 a26:	08 95       	ret

//Check if a string starts with compare value
uint8_t StartsWith(uint8_t *data, char *compare){
    uint8_t x=0;
    while (data[x] && compare[x]){
        if(data[x] != compare[x]) return 0;
 a28:	81 e0       	ldi	r24, 0x01	; 1
 a2a:	92 17       	cp	r25, r18
 a2c:	39 f0       	breq	.+14     	; 0xa3c <StartsWith+0x20>
 a2e:	80 e0       	ldi	r24, 0x00	; 0
 a30:	08 95       	ret
}

//Check if a string starts with compare value
uint8_t StartsWith(uint8_t *data, char *compare){
    uint8_t x=0;
    while (data[x] && compare[x]){
 a32:	fb 01       	movw	r30, r22
 a34:	20 81       	ld	r18, Z
 a36:	21 11       	cpse	r18, r1
 a38:	f7 cf       	rjmp	.-18     	; 0xa28 <StartsWith+0xc>
        if(data[x] != compare[x]) return 0;
        ++x;
        if ((x>=(sizeof(*compare)-1))||(x>=(sizeof(*data)))) break;
    }
    return 1;
 a3a:	81 e0       	ldi	r24, 0x01	; 1
}
 a3c:	08 95       	ret

00000a3e <PrepareSending>:

//Put the addresses
uint8_t PrepareSending(uint16_t address, uint16_t length, uint8_t type, uint8_t speed){
 a3e:	1f 93       	push	r17
 a40:	cf 93       	push	r28
 a42:	df 93       	push	r29
 a44:	eb 01       	movw	r28, r22
 a46:	12 2f       	mov	r17, r18
    uint8_t x=0;
    while (length>255) {
 a48:	6f 3f       	cpi	r22, 0xFF	; 255
 a4a:	71 05       	cpc	r23, r1
 a4c:	d1 f0       	breq	.+52     	; 0xa82 <PrepareSending+0x44>
 a4e:	c8 f0       	brcs	.+50     	; 0xa82 <PrepareSending+0x44>
 a50:	50 e0       	ldi	r21, 0x00	; 0
        txAddrList[x] = address;
        txStrLen[x] = 255;
 a52:	6f ef       	ldi	r22, 0xFF	; 255

//Put the addresses
uint8_t PrepareSending(uint16_t address, uint16_t length, uint8_t type, uint8_t speed){
    uint8_t x=0;
    while (length>255) {
        txAddrList[x] = address;
 a54:	25 2f       	mov	r18, r21
 a56:	30 e0       	ldi	r19, 0x00	; 0
 a58:	f9 01       	movw	r30, r18
 a5a:	ee 0f       	add	r30, r30
 a5c:	ff 1f       	adc	r31, r31
 a5e:	ef 5e       	subi	r30, 0xEF	; 239
 a60:	f7 4c       	sbci	r31, 0xC7	; 199
 a62:	80 83       	st	Z, r24
 a64:	91 83       	std	Z+1, r25	; 0x01
        txStrLen[x] = 255;
 a66:	f9 01       	movw	r30, r18
 a68:	e7 5f       	subi	r30, 0xF7	; 247
 a6a:	f7 4c       	sbci	r31, 0xC7	; 199
 a6c:	60 83       	st	Z, r22
        address += 255;
 a6e:	81 50       	subi	r24, 0x01	; 1
 a70:	9f 4f       	sbci	r25, 0xFF	; 255
        length -= 255;
 a72:	cf 5f       	subi	r28, 0xFF	; 255
 a74:	d1 09       	sbc	r29, r1
        ++x;
 a76:	5f 5f       	subi	r21, 0xFF	; 255
}

//Put the addresses
uint8_t PrepareSending(uint16_t address, uint16_t length, uint8_t type, uint8_t speed){
    uint8_t x=0;
    while (length>255) {
 a78:	cf 3f       	cpi	r28, 0xFF	; 255
 a7a:	d1 05       	cpc	r29, r1
 a7c:	09 f0       	breq	.+2      	; 0xa80 <PrepareSending+0x42>
 a7e:	50 f7       	brcc	.-44     	; 0xa54 <PrepareSending+0x16>
 a80:	01 c0       	rjmp	.+2      	; 0xa84 <PrepareSending+0x46>
    return 1;
}

//Put the addresses
uint8_t PrepareSending(uint16_t address, uint16_t length, uint8_t type, uint8_t speed){
    uint8_t x=0;
 a82:	50 e0       	ldi	r21, 0x00	; 0
        address += 255;
        length -= 255;
        ++x;
        if (x==(TXLISTLEN-1));
    }
    txAddrList[x]=address;
 a84:	25 2f       	mov	r18, r21
 a86:	30 e0       	ldi	r19, 0x00	; 0
 a88:	f9 01       	movw	r30, r18
 a8a:	ee 0f       	add	r30, r30
 a8c:	ff 1f       	adc	r31, r31
 a8e:	ef 5e       	subi	r30, 0xEF	; 239
 a90:	f7 4c       	sbci	r31, 0xC7	; 199
 a92:	80 83       	st	Z, r24
 a94:	91 83       	std	Z+1, r25	; 0x01
    txStrLen[x]=length%255;
 a96:	f9 01       	movw	r30, r18
 a98:	e7 5f       	subi	r30, 0xF7	; 247
 a9a:	f7 4c       	sbci	r31, 0xC7	; 199
 a9c:	9e 01       	movw	r18, r28
 a9e:	a1 e8       	ldi	r26, 0x81	; 129
 aa0:	b0 e8       	ldi	r27, 0x80	; 128
 aa2:	25 d2       	rcall	.+1098   	; 0xeee <__umulhisi3>
 aa4:	88 0f       	add	r24, r24
 aa6:	89 2f       	mov	r24, r25
 aa8:	88 1f       	adc	r24, r24
 aaa:	99 0b       	sbc	r25, r25
 aac:	91 95       	neg	r25
 aae:	6f ef       	ldi	r22, 0xFF	; 255
 ab0:	68 9f       	mul	r22, r24
 ab2:	90 01       	movw	r18, r0
 ab4:	69 9f       	mul	r22, r25
 ab6:	30 0d       	add	r19, r0
 ab8:	11 24       	eor	r1, r1
 aba:	c2 1b       	sub	r28, r18
 abc:	d3 0b       	sbc	r29, r19
 abe:	c0 83       	st	Z, r28
    if (length>255) return 1; 
    txTypeNow = type;
 ac0:	40 93 07 38 	sts	0x3807, r20	; 0x803807 <txTypeNow>
    ClearTxAfter(x);
 ac4:	85 2f       	mov	r24, r21
 ac6:	9e df       	rcall	.-196    	; 0xa04 <ClearTxAfter>
    SerSpeed(speed);
 ac8:	81 2f       	mov	r24, r17
 aca:	1b df       	rcall	.-458    	; 0x902 <SerSpeed>
 acc:	10 92 08 38 	sts	0x3808, r1	; 0x803808 <txAddrNow>
    txAddrNow = 0;  //Start at first pointer, initiates sending in CheckSend
 ad0:	80 e0       	ldi	r24, 0x00	; 0
    return 0;
}
 ad2:	df 91       	pop	r29
 ad4:	cf 91       	pop	r28
 ad6:	1f 91       	pop	r17
 ad8:	08 95       	ret

00000ada <PopulateObject>:
 ada:	6f 92       	push	r6

//Get all the relevant data and string addresses of an object
void PopulateObject(uint16_t offset, object_model_t *object){
 adc:	7f 92       	push	r7
 ade:	8f 92       	push	r8
 ae0:	9f 92       	push	r9
 ae2:	af 92       	push	r10
 ae4:	bf 92       	push	r11
 ae6:	cf 92       	push	r12
 ae8:	df 92       	push	r13
 aea:	ef 92       	push	r14
 aec:	ff 92       	push	r15
 aee:	0f 93       	push	r16
 af0:	1f 93       	push	r17
 af2:	cf 93       	push	r28
 af4:	df 93       	push	r29
 af6:	cd b7       	in	r28, 0x3d	; 61
 af8:	de b7       	in	r29, 0x3e	; 62
 afa:	2c 97       	sbiw	r28, 0x0c	; 12
 afc:	cd bf       	out	0x3d, r28	; 61
 afe:	de bf       	out	0x3e, r29	; 62
 b00:	8c 01       	movw	r16, r24
 b02:	5b 01       	movw	r10, r22
    uint16_t addrStart;
    offset += L_BOILER;

    //Fill things with fixed distance to offset
    uint8_t data[OFF_STRINGFLDS];
    ExtEERead(offset, OFF_STRINGFLDS, GAME, &data[0]);
 b04:	9e 01       	movw	r18, r28
 b06:	2f 5f       	subi	r18, 0xFF	; 255
 b08:	3f 4f       	sbci	r19, 0xFF	; 255
 b0a:	40 e0       	ldi	r20, 0x00	; 0
 b0c:	6c e0       	ldi	r22, 0x0C	; 12
 b0e:	80 96       	adiw	r24, 0x20	; 32
 b10:	47 df       	rcall	.-370    	; 0x9a0 <ExtEERead>
    object->addrNextObj = (data[OFF_NEXTOBJ]<<8|data[OFF_NEXTOBJ+1])+L_BOILER;
 b12:	89 81       	ldd	r24, Y+1	; 0x01
 b14:	90 e0       	ldi	r25, 0x00	; 0
 b16:	98 2f       	mov	r25, r24
 b18:	88 27       	eor	r24, r24
 b1a:	2a 81       	ldd	r18, Y+2	; 0x02
 b1c:	82 2b       	or	r24, r18
 b1e:	80 96       	adiw	r24, 0x20	; 32
 b20:	f5 01       	movw	r30, r10
 b22:	80 83       	st	Z, r24
 b24:	91 83       	std	Z+1, r25	; 0x01
    object->addrNextLvl = (data[OFF_NEXTLVL]<<8|data[OFF_NEXTLVL+1])+L_BOILER;
 b26:	8b 81       	ldd	r24, Y+3	; 0x03
 b28:	90 e0       	ldi	r25, 0x00	; 0
 b2a:	98 2f       	mov	r25, r24
 b2c:	88 27       	eor	r24, r24
 b2e:	2c 81       	ldd	r18, Y+4	; 0x04
 b30:	82 2b       	or	r24, r18
 b32:	80 96       	adiw	r24, 0x20	; 32
 b34:	82 83       	std	Z+2, r24	; 0x02
 b36:	93 83       	std	Z+3, r25	; 0x03
 b38:	fe 01       	movw	r30, r28
 b3a:	35 96       	adiw	r30, 0x05	; 5
 b3c:	d5 01       	movw	r26, r10
 b3e:	14 96       	adiw	r26, 0x04	; 4
 b40:	9e 01       	movw	r18, r28
 b42:	23 5f       	subi	r18, 0xF3	; 243
 b44:	3f 4f       	sbci	r19, 0xFF	; 255
    for (uint8_t x=0; x<BYTE_FIELDS_LEN; ++x){
        object->byteField[x]=data[x+OFF_BYTEFLDS];
 b46:	81 91       	ld	r24, Z+
 b48:	8d 93       	st	X+, r24
    //Fill things with fixed distance to offset
    uint8_t data[OFF_STRINGFLDS];
    ExtEERead(offset, OFF_STRINGFLDS, GAME, &data[0]);
    object->addrNextObj = (data[OFF_NEXTOBJ]<<8|data[OFF_NEXTOBJ+1])+L_BOILER;
    object->addrNextLvl = (data[OFF_NEXTLVL]<<8|data[OFF_NEXTLVL+1])+L_BOILER;
    for (uint8_t x=0; x<BYTE_FIELDS_LEN; ++x){
 b4a:	e2 17       	cp	r30, r18
 b4c:	f3 07       	cpc	r31, r19
 b4e:	d9 f7       	brne	.-10     	; 0xb46 <PopulateObject+0x6c>
        object->byteField[x]=data[x+OFF_BYTEFLDS];
    }

    //Find out where all of the strings begin and how long they are
    offset += OFF_STRINGFLDS;
 b50:	38 01       	movw	r6, r16
 b52:	fc e2       	ldi	r31, 0x2C	; 44
 b54:	6f 0e       	add	r6, r31
 b56:	71 1c       	adc	r7, r1
    object->addrStrField[0]=offset+1;
 b58:	03 5d       	subi	r16, 0xD3	; 211
 b5a:	1f 4f       	sbci	r17, 0xFF	; 255
 b5c:	f5 01       	movw	r30, r10
 b5e:	04 87       	std	Z+12, r16	; 0x0c
 b60:	15 87       	std	Z+13, r17	; 0x0d
 b62:	65 01       	movw	r12, r10
 b64:	fe e0       	ldi	r31, 0x0E	; 14
 b66:	cf 0e       	add	r12, r31
 b68:	d1 1c       	adc	r13, r1
 b6a:	45 01       	movw	r8, r10
 b6c:	8a e1       	ldi	r24, 0x1A	; 26
 b6e:	88 0e       	add	r8, r24
 b70:	91 1c       	adc	r9, r1
    for (uint8_t x=0; x<BYTE_FIELDS_LEN; ++x){
        object->byteField[x]=data[x+OFF_BYTEFLDS];
    }

    //Find out where all of the strings begin and how long they are
    offset += OFF_STRINGFLDS;
 b72:	73 01       	movw	r14, r6
 b74:	02 c0       	rjmp	.+4      	; 0xb7a <PopulateObject+0xa0>
 b76:	78 01       	movw	r14, r16
 b78:	38 01       	movw	r6, r16
 b7a:	83 01       	movw	r16, r6
    object->addrStrField[0]=offset+1;
    for(uint8_t x=1; x<STRING_FIELDS_LEN; ++x){
        addrStart = offset;
        do {
            ExtEERead(offset, 1, GAME, &data[0]);
 b7c:	9e 01       	movw	r18, r28
 b7e:	2f 5f       	subi	r18, 0xFF	; 255
 b80:	3f 4f       	sbci	r19, 0xFF	; 255
 b82:	40 e0       	ldi	r20, 0x00	; 0
 b84:	61 e0       	ldi	r22, 0x01	; 1
 b86:	c8 01       	movw	r24, r16
 b88:	0b df       	rcall	.-490    	; 0x9a0 <ExtEERead>
            offset += (uint16_t)(data[0])+1;
 b8a:	29 81       	ldd	r18, Y+1	; 0x01
 b8c:	82 2f       	mov	r24, r18
 b8e:	90 e0       	ldi	r25, 0x00	; 0
 b90:	01 96       	adiw	r24, 0x01	; 1
 b92:	08 0f       	add	r16, r24
 b94:	19 1f       	adc	r17, r25
            if (offset>EXT_EE_MAX) break;
 b96:	11 23       	and	r17, r17
 b98:	14 f0       	brlt	.+4      	; 0xb9e <PopulateObject+0xc4>
        } while (data[0]==255);
 b9a:	2f 3f       	cpi	r18, 0xFF	; 255
 b9c:	79 f3       	breq	.-34     	; 0xb7c <PopulateObject+0xa2>
        object->lenStrField[x-1]=(offset-addrStart-1)&EXT_EE_MAX;
 b9e:	e0 94       	com	r14
 ba0:	f0 94       	com	r15
 ba2:	e0 0e       	add	r14, r16
 ba4:	f1 1e       	adc	r15, r17
 ba6:	e8 94       	clt
 ba8:	f7 f8       	bld	r15, 7
 baa:	f6 01       	movw	r30, r12
 bac:	e4 86       	std	Z+12, r14	; 0x0c
 bae:	f5 86       	std	Z+13, r15	; 0x0d
        object->addrStrField[x]=offset&EXT_EE_MAX;
 bb0:	c8 01       	movw	r24, r16
 bb2:	9f 77       	andi	r25, 0x7F	; 127
 bb4:	81 93       	st	Z+, r24
 bb6:	91 93       	st	Z+, r25
 bb8:	6f 01       	movw	r12, r30
    }

    //Find out where all of the strings begin and how long they are
    offset += OFF_STRINGFLDS;
    object->addrStrField[0]=offset+1;
    for(uint8_t x=1; x<STRING_FIELDS_LEN; ++x){
 bba:	e8 15       	cp	r30, r8
 bbc:	f9 05       	cpc	r31, r9
 bbe:	d9 f6       	brne	.-74     	; 0xb76 <PopulateObject+0x9c>
            if (offset>EXT_EE_MAX) break;
        } while (data[0]==255);
        object->lenStrField[x-1]=(offset-addrStart-1)&EXT_EE_MAX;
        object->addrStrField[x]=offset&EXT_EE_MAX;
    }
    object->lenStrField[STRING_FIELDS_LEN-1]=(offset-addrStart)&EXT_EE_MAX;
 bc0:	06 19       	sub	r16, r6
 bc2:	17 09       	sbc	r17, r7
 bc4:	1f 77       	andi	r17, 0x7F	; 127
 bc6:	f5 01       	movw	r30, r10
 bc8:	06 a3       	std	Z+38, r16	; 0x26
 bca:	17 a3       	std	Z+39, r17	; 0x27
}
 bcc:	2c 96       	adiw	r28, 0x0c	; 12
 bce:	cd bf       	out	0x3d, r28	; 61
 bd0:	de bf       	out	0x3e, r29	; 62
 bd2:	df 91       	pop	r29
 bd4:	cf 91       	pop	r28
 bd6:	1f 91       	pop	r17
 bd8:	0f 91       	pop	r16
 bda:	ff 90       	pop	r15
 bdc:	ef 90       	pop	r14
 bde:	df 90       	pop	r13
 be0:	cf 90       	pop	r12
 be2:	bf 90       	pop	r11
 be4:	af 90       	pop	r10
 be6:	9f 90       	pop	r9
 be8:	8f 90       	pop	r8
 bea:	7f 90       	pop	r7
 bec:	6f 90       	pop	r6
 bee:	08 95       	ret

00000bf0 <CheckSend>:

//Send routine, optimized for low memory usage
uint8_t CheckSend(){
 bf0:	cf 93       	push	r28
    static uint8_t txPart;
    uint8_t EEreadLength=0;

    //Check if more string(part)s have to be sent to the serial output if previous send operation is completed
    if ((txAddrNow < TXLISTLEN) && serTxDone){
 bf2:	80 91 08 38 	lds	r24, 0x3808	; 0x803808 <txAddrNow>
 bf6:	88 30       	cpi	r24, 0x08	; 8
 bf8:	d8 f5       	brcc	.+118    	; 0xc70 <CheckSend+0x80>
 bfa:	90 91 00 38 	lds	r25, 0x3800	; 0x803800 <__data_start>
 bfe:	99 23       	and	r25, r25
 c00:	b9 f1       	breq	.+110    	; 0xc70 <CheckSend+0x80>
        if (txPart < txStrLen[txAddrNow]){
 c02:	28 2f       	mov	r18, r24
 c04:	30 e0       	ldi	r19, 0x00	; 0
 c06:	f9 01       	movw	r30, r18
 c08:	e7 5f       	subi	r30, 0xF7	; 247
 c0a:	f7 4c       	sbci	r31, 0xC7	; 199
 c0c:	e0 81       	ld	r30, Z
 c0e:	90 91 06 38 	lds	r25, 0x3806	; 0x803806 <txPart.3990>
 c12:	9e 17       	cp	r25, r30
 c14:	30 f5       	brcc	.+76     	; 0xc62 <CheckSend+0x72>
            EEreadLength = txStrLen[txAddrNow]-txPart;
 c16:	ce 2f       	mov	r28, r30
 c18:	c9 1b       	sub	r28, r25
 c1a:	c1 32       	cpi	r28, 0x21	; 33
 c1c:	08 f0       	brcs	.+2      	; 0xc20 <CheckSend+0x30>
 c1e:	c0 e2       	ldi	r28, 0x20	; 32
            if (EEreadLength>=TXLEN) EEreadLength = TXLEN-1;
            ExtEERead(txAddrList[txAddrNow]+txPart, EEreadLength, txTypeNow, &txBuffer[0]);
 c20:	22 0f       	add	r18, r18
 c22:	33 1f       	adc	r19, r19
 c24:	f9 01       	movw	r30, r18
 c26:	ef 5e       	subi	r30, 0xEF	; 239
 c28:	f7 4c       	sbci	r31, 0xC7	; 199
 c2a:	01 90       	ld	r0, Z+
 c2c:	f0 81       	ld	r31, Z
 c2e:	e0 2d       	mov	r30, r0
 c30:	29 ee       	ldi	r18, 0xE9	; 233
 c32:	38 e3       	ldi	r19, 0x38	; 56
 c34:	40 91 07 38 	lds	r20, 0x3807	; 0x803807 <txTypeNow>
 c38:	6c 2f       	mov	r22, r28
 c3a:	df 01       	movw	r26, r30
 c3c:	a9 0f       	add	r26, r25
 c3e:	b1 1d       	adc	r27, r1
 c40:	cd 01       	movw	r24, r26
 c42:	ae de       	rcall	.-676    	; 0x9a0 <ExtEERead>
            txPart += EEreadLength;
 c44:	80 91 06 38 	lds	r24, 0x3806	; 0x803806 <txPart.3990>
 c48:	8c 0f       	add	r24, r28
 c4a:	80 93 06 38 	sts	0x3806, r24	; 0x803806 <txPart.3990>
            txBuffer[EEreadLength] = 0; //Add string terminator after piece to send to plug memory leak
 c4e:	ec 2f       	mov	r30, r28
 c50:	f0 e0       	ldi	r31, 0x00	; 0
 c52:	e7 51       	subi	r30, 0x17	; 23
 c54:	f7 4c       	sbci	r31, 0xC7	; 199
 c56:	10 82       	st	Z, r1
            SerSend(&txBuffer[0]);
 c58:	89 ee       	ldi	r24, 0xE9	; 233
 c5a:	98 e3       	ldi	r25, 0x38	; 56
 c5c:	40 de       	rcall	.-896    	; 0x8de <SerSend>
        } else {
            txPart = 0;
            ++txAddrNow;
        }
    } else if (serTxDone) return 0; //All is sent!
    return 1; //Still sending, do not change the data in the tx variables
 c5e:	81 e0       	ldi	r24, 0x01	; 1
 c60:	0c c0       	rjmp	.+24     	; 0xc7a <CheckSend+0x8a>
            ExtEERead(txAddrList[txAddrNow]+txPart, EEreadLength, txTypeNow, &txBuffer[0]);
            txPart += EEreadLength;
            txBuffer[EEreadLength] = 0; //Add string terminator after piece to send to plug memory leak
            SerSend(&txBuffer[0]);
        } else {
            txPart = 0;
 c62:	10 92 06 38 	sts	0x3806, r1	; 0x803806 <txPart.3990>
            ++txAddrNow;
 c66:	8f 5f       	subi	r24, 0xFF	; 255
 c68:	80 93 08 38 	sts	0x3808, r24	; 0x803808 <txAddrNow>
        }
    } else if (serTxDone) return 0; //All is sent!
    return 1; //Still sending, do not change the data in the tx variables
 c6c:	81 e0       	ldi	r24, 0x01	; 1
 c6e:	05 c0       	rjmp	.+10     	; 0xc7a <CheckSend+0x8a>
            SerSend(&txBuffer[0]);
        } else {
            txPart = 0;
            ++txAddrNow;
        }
    } else if (serTxDone) return 0; //All is sent!
 c70:	90 91 00 38 	lds	r25, 0x3800	; 0x803800 <__data_start>
 c74:	81 e0       	ldi	r24, 0x01	; 1
 c76:	91 11       	cpse	r25, r1
 c78:	80 e0       	ldi	r24, 0x00	; 0
    return 1; //Still sending, do not change the data in the tx variables
}
 c7a:	cf 91       	pop	r28
 c7c:	08 95       	ret

00000c7e <CheckInput>:

//User input check (and validation)
uint8_t CheckInput(uint8_t *data){
 c7e:	cf 93       	push	r28
 c80:	df 93       	push	r29
 c82:	cd b7       	in	r28, 0x3d	; 61
 c84:	de b7       	in	r29, 0x3e	; 62
 c86:	2a 97       	sbiw	r28, 0x0a	; 10
 c88:	cd bf       	out	0x3d, r28	; 61
 c8a:	de bf       	out	0x3e, r29	; 62
    if (serRxDone){
 c8c:	20 91 05 38 	lds	r18, 0x3805	; 0x803805 <serRxDone>
 c90:	22 23       	and	r18, r18
 c92:	09 f4       	brne	.+2      	; 0xc96 <CheckInput+0x18>
 c94:	63 c0       	rjmp	.+198    	; 0xd5c <CheckInput+0xde>
        //Read up to the \0 character and convert to lower case.
        for (uint8_t x=0; serRx[x]!=0; ++x){
 c96:	20 91 22 38 	lds	r18, 0x3822	; 0x803822 <serRx>
 c9a:	22 23       	and	r18, r18
 c9c:	51 f1       	breq	.+84     	; 0xcf2 <CheckInput+0x74>
 c9e:	20 e0       	ldi	r18, 0x00	; 0
 ca0:	30 e0       	ldi	r19, 0x00	; 0
 ca2:	40 e0       	ldi	r20, 0x00	; 0
            if ((serRx[x]<'A')||(serRx[x]>'Z')) data[x]=serRx[x]; else data[x]=serRx[x]|0x20;
 ca4:	f9 01       	movw	r30, r18
 ca6:	ee 5d       	subi	r30, 0xDE	; 222
 ca8:	f7 4c       	sbci	r31, 0xC7	; 199
 caa:	50 81       	ld	r21, Z
 cac:	51 34       	cpi	r21, 0x41	; 65
 cae:	30 f0       	brcs	.+12     	; 0xcbc <CheckInput+0x3e>
 cb0:	f9 01       	movw	r30, r18
 cb2:	ee 5d       	subi	r30, 0xDE	; 222
 cb4:	f7 4c       	sbci	r31, 0xC7	; 199
 cb6:	50 81       	ld	r21, Z
 cb8:	5b 35       	cpi	r21, 0x5B	; 91
 cba:	48 f0       	brcs	.+18     	; 0xcce <CheckInput+0x50>
 cbc:	f9 01       	movw	r30, r18
 cbe:	ee 5d       	subi	r30, 0xDE	; 222
 cc0:	f7 4c       	sbci	r31, 0xC7	; 199
 cc2:	20 81       	ld	r18, Z
 cc4:	fc 01       	movw	r30, r24
 cc6:	e4 0f       	add	r30, r20
 cc8:	f1 1d       	adc	r31, r1
 cca:	20 83       	st	Z, r18
 ccc:	09 c0       	rjmp	.+18     	; 0xce0 <CheckInput+0x62>
 cce:	f9 01       	movw	r30, r18
 cd0:	ee 5d       	subi	r30, 0xDE	; 222
 cd2:	f7 4c       	sbci	r31, 0xC7	; 199
 cd4:	20 81       	ld	r18, Z
 cd6:	fc 01       	movw	r30, r24
 cd8:	e4 0f       	add	r30, r20
 cda:	f1 1d       	adc	r31, r1
 cdc:	20 62       	ori	r18, 0x20	; 32
 cde:	20 83       	st	Z, r18

//User input check (and validation)
uint8_t CheckInput(uint8_t *data){
    if (serRxDone){
        //Read up to the \0 character and convert to lower case.
        for (uint8_t x=0; serRx[x]!=0; ++x){
 ce0:	4f 5f       	subi	r20, 0xFF	; 255
 ce2:	24 2f       	mov	r18, r20
 ce4:	30 e0       	ldi	r19, 0x00	; 0
 ce6:	f9 01       	movw	r30, r18
 ce8:	ee 5d       	subi	r30, 0xDE	; 222
 cea:	f7 4c       	sbci	r31, 0xC7	; 199
 cec:	50 81       	ld	r21, Z
 cee:	51 11       	cpse	r21, r1
 cf0:	d9 cf       	rjmp	.-78     	; 0xca4 <CheckInput+0x26>
            if ((serRx[x]<'A')||(serRx[x]>'Z')) data[x]=serRx[x]; else data[x]=serRx[x]|0x20;
        }

        //Reset serial input pointer and accept new input
        RXCNT = 0;
 cf2:	1d ba       	out	0x1d, r1	; 29
        serRxDone = 0;        
 cf4:	10 92 05 38 	sts	0x3805, r1	; 0x803805 <serRxDone>
        
        //Help text
        if ((data[0] == '?')||(data[0] == 'h')){
 cf8:	fc 01       	movw	r30, r24
 cfa:	20 81       	ld	r18, Z
 cfc:	2f 33       	cpi	r18, 0x3F	; 63
 cfe:	11 f0       	breq	.+4      	; 0xd04 <CheckInput+0x86>
 d00:	28 36       	cpi	r18, 0x68	; 104
 d02:	49 f4       	brne	.+18     	; 0xd16 <CheckInput+0x98>
            //Put help pointers/lengths in tx list
            PrepareSending(A_HELP, L_HELP, TEASER, 255);
 d04:	2f ef       	ldi	r18, 0xFF	; 255
 d06:	41 e0       	ldi	r20, 0x01	; 1
 d08:	65 ea       	ldi	r22, 0xA5	; 165
 d0a:	73 e0       	ldi	r23, 0x03	; 3
 d0c:	8b e5       	ldi	r24, 0x5B	; 91
 d0e:	9c e7       	ldi	r25, 0x7C	; 124
 d10:	96 de       	rcall	.-724    	; 0xa3e <PrepareSending>
            return 1;
 d12:	81 e0       	ldi	r24, 0x01	; 1
 d14:	24 c0       	rjmp	.+72     	; 0xd5e <CheckInput+0xe0>
        }

        //Quit text
        if (data[0] == 'q'){
 d16:	21 37       	cpi	r18, 0x71	; 113
 d18:	49 f4       	brne	.+18     	; 0xd2c <CheckInput+0xae>
            //Put quit pointers/lengths in tx list
            PrepareSending(A_QUIT, L_QUIT, TEASER, 255);
 d1a:	2f ef       	ldi	r18, 0xFF	; 255
 d1c:	41 e0       	ldi	r20, 0x01	; 1
 d1e:	64 e5       	ldi	r22, 0x54	; 84
 d20:	70 e0       	ldi	r23, 0x00	; 0
 d22:	89 ef       	ldi	r24, 0xF9	; 249
 d24:	9b e7       	ldi	r25, 0x7B	; 123
 d26:	8b de       	rcall	.-746    	; 0xa3e <PrepareSending>
            return 1;
 d28:	81 e0       	ldi	r24, 0x01	; 1
 d2a:	19 c0       	rjmp	.+50     	; 0xd5e <CheckInput+0xe0>
        }

        //Cheat = reset badge!
        if (StartsWith(&data[0], "iddqd")){
 d2c:	60 e1       	ldi	r22, 0x10	; 16
 d2e:	7f e8       	ldi	r23, 0x8F	; 143
 d30:	75 de       	rcall	.-790    	; 0xa1c <StartsWith>
 d32:	88 23       	and	r24, r24
 d34:	a1 f0       	breq	.+40     	; 0xd5e <CheckInput+0xe0>
            //Reset game(s) data (TODO)

            uint8_t cheat[] = "Cheater! ";
 d36:	8a e0       	ldi	r24, 0x0A	; 10
 d38:	e6 e1       	ldi	r30, 0x16	; 22
 d3a:	ff e8       	ldi	r31, 0x8F	; 143
 d3c:	de 01       	movw	r26, r28
 d3e:	11 96       	adiw	r26, 0x01	; 1
 d40:	01 90       	ld	r0, Z+
 d42:	0d 92       	st	X+, r0
 d44:	8a 95       	dec	r24
            SerSpeed(255);
 d46:	e1 f7       	brne	.-8      	; 0xd40 <CheckInput+0xc2>
 d48:	8f ef       	ldi	r24, 0xFF	; 255
 d4a:	db dd       	rcall	.-1098   	; 0x902 <SerSpeed>
            while(1){
                if (serTxDone) SerSend(&cheat[0]);
 d4c:	80 91 00 38 	lds	r24, 0x3800	; 0x803800 <__data_start>
 d50:	88 23       	and	r24, r24
 d52:	e1 f3       	breq	.-8      	; 0xd4c <CheckInput+0xce>
 d54:	ce 01       	movw	r24, r28
 d56:	01 96       	adiw	r24, 0x01	; 1
 d58:	c2 dd       	rcall	.-1148   	; 0x8de <SerSend>
 d5a:	f8 cf       	rjmp	.-16     	; 0xd4c <CheckInput+0xce>
        //Data received, but not any of the commands above
        return 0;
    }

    //Serial input not available yet
    return 1;
 d5c:	81 e0       	ldi	r24, 0x01	; 1
}
 d5e:	2a 96       	adiw	r28, 0x0a	; 10
 d60:	cd bf       	out	0x3d, r28	; 61
 d62:	de bf       	out	0x3e, r29	; 62
 d64:	df 91       	pop	r29
 d66:	cf 91       	pop	r28
 d68:	08 95       	ret

00000d6a <ProcessInput>:

//The game logic!
void ProcessInput(uint8_t *data){
 d6a:	cf 93       	push	r28
 d6c:	df 93       	push	r29
 d6e:	ec 01       	movw	r28, r24
//    enum {NAME, DESC, ACTION_STR1, ACTION_STR2, OPEN_ACL_MSG, ACTION_ACL_MSG, ACTION_MSG};

    PopulateObject(0, &currentObject);
 d70:	6a e0       	ldi	r22, 0x0A	; 10
 d72:	79 e3       	ldi	r23, 0x39	; 57
 d74:	80 e0       	ldi	r24, 0x00	; 0
 d76:	90 e0       	ldi	r25, 0x00	; 0
 d78:	b0 de       	rcall	.-672    	; 0xada <PopulateObject>

    if (data[0] == 'x'){
 d7a:	88 81       	ld	r24, Y
 d7c:	88 37       	cpi	r24, 0x78	; 120
 d7e:	51 f4       	brne	.+20     	; 0xd94 <ProcessInput+0x2a>
        PrepareSending(currentObject.addrStrField[NAME],currentObject.lenStrField[NAME], GAME, 255);
 d80:	ea e0       	ldi	r30, 0x0A	; 10
 d82:	f9 e3       	ldi	r31, 0x39	; 57
 d84:	62 8d       	ldd	r22, Z+26	; 0x1a
 d86:	73 8d       	ldd	r23, Z+27	; 0x1b
 d88:	2f ef       	ldi	r18, 0xFF	; 255
 d8a:	40 e0       	ldi	r20, 0x00	; 0
 d8c:	84 85       	ldd	r24, Z+12	; 0x0c
 d8e:	95 85       	ldd	r25, Z+13	; 0x0d
 d90:	56 de       	rcall	.-852    	; 0xa3e <PrepareSending>
 d92:	4a c0       	rjmp	.+148    	; 0xe28 <ProcessInput+0xbe>
        
    } else
    if ((data[0] == 'e')||(data[0] == 'o')){
 d94:	85 36       	cpi	r24, 0x65	; 101
 d96:	11 f0       	breq	.+4      	; 0xd9c <ProcessInput+0x32>
 d98:	8f 36       	cpi	r24, 0x6F	; 111
 d9a:	51 f4       	brne	.+20     	; 0xdb0 <ProcessInput+0x46>
        PrepareSending(currentObject.addrStrField[DESC],currentObject.lenStrField[DESC], GAME, 255);
 d9c:	ea e0       	ldi	r30, 0x0A	; 10
 d9e:	f9 e3       	ldi	r31, 0x39	; 57
 da0:	64 8d       	ldd	r22, Z+28	; 0x1c
 da2:	75 8d       	ldd	r23, Z+29	; 0x1d
 da4:	2f ef       	ldi	r18, 0xFF	; 255
 da6:	40 e0       	ldi	r20, 0x00	; 0
 da8:	86 85       	ldd	r24, Z+14	; 0x0e
 daa:	97 85       	ldd	r25, Z+15	; 0x0f
 dac:	48 de       	rcall	.-880    	; 0xa3e <PrepareSending>
 dae:	3c c0       	rjmp	.+120    	; 0xe28 <ProcessInput+0xbe>
        
    } else
    if (data[0] == 'l'){
 db0:	8c 36       	cpi	r24, 0x6C	; 108
 db2:	51 f4       	brne	.+20     	; 0xdc8 <ProcessInput+0x5e>
        PrepareSending(currentObject.addrStrField[ACTION_STR1],currentObject.lenStrField[ACTION_STR1], GAME, 255);
 db4:	ea e0       	ldi	r30, 0x0A	; 10
 db6:	f9 e3       	ldi	r31, 0x39	; 57
 db8:	66 8d       	ldd	r22, Z+30	; 0x1e
 dba:	77 8d       	ldd	r23, Z+31	; 0x1f
 dbc:	2f ef       	ldi	r18, 0xFF	; 255
 dbe:	40 e0       	ldi	r20, 0x00	; 0
 dc0:	80 89       	ldd	r24, Z+16	; 0x10
 dc2:	91 89       	ldd	r25, Z+17	; 0x11
 dc4:	3c de       	rcall	.-904    	; 0xa3e <PrepareSending>
 dc6:	30 c0       	rjmp	.+96     	; 0xe28 <ProcessInput+0xbe>
    } else
    if (data[0] == 'p'){
 dc8:	80 37       	cpi	r24, 0x70	; 112
 dca:	51 f4       	brne	.+20     	; 0xde0 <ProcessInput+0x76>
        PrepareSending(currentObject.addrStrField[ACTION_STR2],currentObject.lenStrField[ACTION_STR2], GAME, 255);
 dcc:	ea e0       	ldi	r30, 0x0A	; 10
 dce:	f9 e3       	ldi	r31, 0x39	; 57
 dd0:	60 a1       	ldd	r22, Z+32	; 0x20
 dd2:	71 a1       	ldd	r23, Z+33	; 0x21
 dd4:	2f ef       	ldi	r18, 0xFF	; 255
 dd6:	40 e0       	ldi	r20, 0x00	; 0
 dd8:	82 89       	ldd	r24, Z+18	; 0x12
 dda:	93 89       	ldd	r25, Z+19	; 0x13
 ddc:	30 de       	rcall	.-928    	; 0xa3e <PrepareSending>
 dde:	24 c0       	rjmp	.+72     	; 0xe28 <ProcessInput+0xbe>
        
    } else
    if (data[0] == 'd'){
 de0:	84 36       	cpi	r24, 0x64	; 100
 de2:	51 f4       	brne	.+20     	; 0xdf8 <ProcessInput+0x8e>
        PrepareSending(currentObject.addrStrField[OPEN_ACL_MSG],currentObject.lenStrField[OPEN_ACL_MSG], GAME, 255);
 de4:	ea e0       	ldi	r30, 0x0A	; 10
 de6:	f9 e3       	ldi	r31, 0x39	; 57
 de8:	62 a1       	ldd	r22, Z+34	; 0x22
 dea:	73 a1       	ldd	r23, Z+35	; 0x23
 dec:	2f ef       	ldi	r18, 0xFF	; 255
 dee:	40 e0       	ldi	r20, 0x00	; 0
 df0:	84 89       	ldd	r24, Z+20	; 0x14
 df2:	95 89       	ldd	r25, Z+21	; 0x15
 df4:	24 de       	rcall	.-952    	; 0xa3e <PrepareSending>
 df6:	18 c0       	rjmp	.+48     	; 0xe28 <ProcessInput+0xbe>
        
    } else
    if (data[0] == 'i'){
 df8:	89 36       	cpi	r24, 0x69	; 105
 dfa:	51 f4       	brne	.+20     	; 0xe10 <ProcessInput+0xa6>
        PrepareSending(currentObject.addrStrField[ACTION_ACL_MSG],currentObject.lenStrField[ACTION_ACL_MSG], GAME, 255);
 dfc:	ea e0       	ldi	r30, 0x0A	; 10
 dfe:	f9 e3       	ldi	r31, 0x39	; 57
 e00:	64 a1       	ldd	r22, Z+36	; 0x24
 e02:	75 a1       	ldd	r23, Z+37	; 0x25
 e04:	2f ef       	ldi	r18, 0xFF	; 255
 e06:	40 e0       	ldi	r20, 0x00	; 0
 e08:	86 89       	ldd	r24, Z+22	; 0x16
 e0a:	97 89       	ldd	r25, Z+23	; 0x17
 e0c:	18 de       	rcall	.-976    	; 0xa3e <PrepareSending>
 e0e:	0c c0       	rjmp	.+24     	; 0xe28 <ProcessInput+0xbe>
        
        
        
    } else
    if ((data[0] == 't')||(data[0] == 'u')){
 e10:	84 57       	subi	r24, 0x74	; 116
 e12:	82 30       	cpi	r24, 0x02	; 2
 e14:	48 f4       	brcc	.+18     	; 0xe28 <ProcessInput+0xbe>
        PrepareSending(currentObject.addrStrField[ACTION_MSG],currentObject.lenStrField[ACTION_MSG], GAME, 255);
 e16:	ea e0       	ldi	r30, 0x0A	; 10
 e18:	f9 e3       	ldi	r31, 0x39	; 57
 e1a:	66 a1       	ldd	r22, Z+38	; 0x26
 e1c:	77 a1       	ldd	r23, Z+39	; 0x27
 e1e:	2f ef       	ldi	r18, 0xFF	; 255
 e20:	40 e0       	ldi	r20, 0x00	; 0
 e22:	80 8d       	ldd	r24, Z+24	; 0x18
 e24:	91 8d       	ldd	r25, Z+25	; 0x19
 e26:	0b de       	rcall	.-1002   	; 0xa3e <PrepareSending>
        
    } 

    txAddrNow = 0;  //Start at first pointer, initiates sending in CheckSend
 e28:	10 92 08 38 	sts	0x3808, r1	; 0x803808 <txAddrNow>
}
 e2c:	df 91       	pop	r29
 e2e:	cf 91       	pop	r28
 e30:	08 95       	ret

00000e32 <TextAdventure>:


// Main game loop
uint8_t TextAdventure(){
 e32:	1f 93       	push	r17
 e34:	cf 93       	push	r28
 e36:	df 93       	push	r29
 e38:	cd b7       	in	r28, 0x3d	; 61
 e3a:	de b7       	in	r29, 0x3e	; 62
 e3c:	c8 54       	subi	r28, 0x48	; 72
 e3e:	d1 09       	sbc	r29, r1
 e40:	cd bf       	out	0x3d, r28	; 61
 e42:	de bf       	out	0x3e, r29	; 62
    uint8_t serInput[RXLEN];
    if (CheckSend()) return 1;                      //Still sending data to serial, return 1
 e44:	d5 de       	rcall	.-598    	; 0xbf0 <CheckSend>
 e46:	81 11       	cpse	r24, r1
 e48:	0a c0       	rjmp	.+20     	; 0xe5e <TextAdventure+0x2c>
    if (CheckInput(&serInput[0])) return 2;         //No valid input to process, return 2
 e4a:	ce 01       	movw	r24, r28
 e4c:	01 96       	adiw	r24, 0x01	; 1
 e4e:	17 df       	rcall	.-466    	; 0xc7e <CheckInput>
 e50:	18 2f       	mov	r17, r24
 e52:	81 11       	cpse	r24, r1
 e54:	06 c0       	rjmp	.+12     	; 0xe62 <TextAdventure+0x30>
    ProcessInput(&serInput[0]);                     //Check which response to generate and fill tx arrays
 e56:	ce 01       	movw	r24, r28
 e58:	01 96       	adiw	r24, 0x01	; 1
 e5a:	87 df       	rcall	.-242    	; 0xd6a <ProcessInput>
    //CheckChanges();                               //Check if things are changed, write to EEPROM
    return 0;
 e5c:	03 c0       	rjmp	.+6      	; 0xe64 <TextAdventure+0x32>


// Main game loop
uint8_t TextAdventure(){
    uint8_t serInput[RXLEN];
    if (CheckSend()) return 1;                      //Still sending data to serial, return 1
 e5e:	11 e0       	ldi	r17, 0x01	; 1
 e60:	01 c0       	rjmp	.+2      	; 0xe64 <TextAdventure+0x32>
    if (CheckInput(&serInput[0])) return 2;         //No valid input to process, return 2
 e62:	12 e0       	ldi	r17, 0x02	; 2
    ProcessInput(&serInput[0]);                     //Check which response to generate and fill tx arrays
    //CheckChanges();                               //Check if things are changed, write to EEPROM
    return 0;
 e64:	81 2f       	mov	r24, r17
 e66:	c8 5b       	subi	r28, 0xB8	; 184
 e68:	df 4f       	sbci	r29, 0xFF	; 255
 e6a:	cd bf       	out	0x3d, r28	; 61
 e6c:	de bf       	out	0x3e, r29	; 62
 e6e:	df 91       	pop	r29
 e70:	cf 91       	pop	r28
 e72:	1f 91       	pop	r17
 e74:	08 95       	ret

00000e76 <main>:



//This is where it begins, inits first and main program in while(1) loop.
int main(void)
{
 e76:	cf 93       	push	r28
 e78:	df 93       	push	r29
 e7a:	cd b7       	in	r28, 0x3d	; 61
 e7c:	de b7       	in	r29, 0x3e	; 62
 e7e:	a4 97       	sbiw	r28, 0x24	; 36
 e80:	cd bf       	out	0x3d, r28	; 61
 e82:	de bf       	out	0x3e, r29	; 62
    setup();
 e84:	65 da       	rcall	.-2870   	; 0x350 <setup>
    LoadGameState();
 e86:	6c dd       	rcall	.-1320   	; 0x960 <LoadGameState>

    SerSpeed(1);
 e88:	81 e0       	ldi	r24, 0x01	; 1
 e8a:	3b dd       	rcall	.-1418   	; 0x902 <SerSpeed>
 e8c:	84 e2       	ldi	r24, 0x24	; 36
    unsigned char strTest[]="\aHckerHotel2020 badge pest!\b\b\b\b\bt\n";
 e8e:	e0 e3       	ldi	r30, 0x30	; 48
 e90:	ff e8       	ldi	r31, 0x8F	; 143
 e92:	de 01       	movw	r26, r28
 e94:	11 96       	adiw	r26, 0x01	; 1
 e96:	01 90       	ld	r0, Z+
 e98:	0d 92       	st	X+, r0
 e9a:	8a 95       	dec	r24
 e9c:	e1 f7       	brne	.-8      	; 0xe96 <main+0x20>
    SerSend(&strTest[0]);
 e9e:	ce 01       	movw	r24, r28
 ea0:	01 96       	adiw	r24, 0x01	; 1
 ea2:	1d dd       	rcall	.-1478   	; 0x8de <SerSend>
    //volatile uint8_t retVal = 0;
    //uint8_t btns = 0;
    uint8_t bla = 0;

    //if (I2C_write_bytes(devAddr, &memAddr[0], 2, &strTest[0], sizeof(strTest))) retVal = 0xFA;
    SerSpeed(255);
 ea4:	8f ef       	ldi	r24, 0xFF	; 255
 ea6:	2d dd       	rcall	.-1446   	; 0x902 <SerSpeed>
 ea8:	10 e0       	ldi	r17, 0x00	; 0
    //I2C 
    //uint8_t devAddr = 0x50;
    //uint8_t memAddr[2] = {0,0};
    //volatile uint8_t retVal = 0;
    //uint8_t btns = 0;
    uint8_t bla = 0;
 eaa:	80 91 03 38 	lds	r24, 0x3803	; 0x803803 <buttonMark>
            RXCNT = 0;
            serRxDone = 0;         
        }*/

        //buttonMark is updated by hardware timer, every increment there is a new button value available  
        if (buttonMark){
 eae:	88 23       	and	r24, r24
 eb0:	e1 f3       	breq	.-8      	; 0xeaa <main+0x34>
 eb2:	10 92 03 38 	sts	0x3803, r1	; 0x803803 <buttonMark>
            */
            //btns = serRx[0]; 
            buttonMark = 0;

            bla++;
            if (bla%2) SelectAuIn(); else SelectTSens();    //Switch between audio in and temperature for testing
 eb6:	1f 5f       	subi	r17, 0xFF	; 255
 eb8:	10 ff       	sbrs	r17, 0
 eba:	02 c0       	rjmp	.+4      	; 0xec0 <main+0x4a>
 ebc:	42 dd       	rcall	.-1404   	; 0x942 <SelectAuIn>
 ebe:	01 c0       	rjmp	.+2      	; 0xec2 <main+0x4c>
 ec0:	31 dd       	rcall	.-1438   	; 0x924 <SelectTSens>
            EERead(17, (uint8_t*)&serRx[6], 1);                                                   //"H" character (second char of strTest)
            if (I2C_read_bytes(devAddr, &memAddr[0], 2, (uint8_t*)&serRx[7], 1)) retVal = 0xFA;   //Bell character (first char of strTest)
            serRx[8] = retVal;
            while (serTxDone == 0);
            //SerSend((uint8_t*) &serRx[0]);*/
            TextAdventure();
 ec2:	b7 df       	rcall	.-146    	; 0xe32 <TextAdventure>
 ec4:	f2 cf       	rjmp	.-28     	; 0xeaa <main+0x34>

00000ec6 <__udivmodhi4>:
 ec6:	aa 1b       	sub	r26, r26
 ec8:	bb 1b       	sub	r27, r27
 eca:	51 e1       	ldi	r21, 0x11	; 17
 ecc:	07 c0       	rjmp	.+14     	; 0xedc <__udivmodhi4_ep>

00000ece <__udivmodhi4_loop>:
 ece:	aa 1f       	adc	r26, r26
 ed0:	bb 1f       	adc	r27, r27
 ed2:	a6 17       	cp	r26, r22
 ed4:	b7 07       	cpc	r27, r23
 ed6:	10 f0       	brcs	.+4      	; 0xedc <__udivmodhi4_ep>
 ed8:	a6 1b       	sub	r26, r22
 eda:	b7 0b       	sbc	r27, r23

00000edc <__udivmodhi4_ep>:
 edc:	88 1f       	adc	r24, r24
 ede:	99 1f       	adc	r25, r25
 ee0:	5a 95       	dec	r21
 ee2:	a9 f7       	brne	.-22     	; 0xece <__udivmodhi4_loop>
 ee4:	80 95       	com	r24
 ee6:	90 95       	com	r25
 ee8:	bc 01       	movw	r22, r24
 eea:	cd 01       	movw	r24, r26
 eec:	08 95       	ret

00000eee <__umulhisi3>:
 eee:	a2 9f       	mul	r26, r18
 ef0:	b0 01       	movw	r22, r0
 ef2:	b3 9f       	mul	r27, r19
 ef4:	c0 01       	movw	r24, r0
 ef6:	a3 9f       	mul	r26, r19
 ef8:	70 0d       	add	r23, r0
 efa:	81 1d       	adc	r24, r1
 efc:	11 24       	eor	r1, r1
 efe:	91 1d       	adc	r25, r1
 f00:	b2 9f       	mul	r27, r18
 f02:	70 0d       	add	r23, r0
 f04:	81 1d       	adc	r24, r1
 f06:	11 24       	eor	r1, r1
 f08:	91 1d       	adc	r25, r1
 f0a:	08 95       	ret

00000f0c <_exit>:
 f0c:	f8 94       	cli

00000f0e <__stop_program>:
 f0e:	ff cf       	rjmp	.-2      	; 0xf0e <__stop_program>
