
ISR_IO.elf:     file format elf32-avr

Sections:
Idx Name          Size      VMA       LMA       File off  Algn
  0 .data         00000036  00803800  00003f46  00003ffa  2**0
                  CONTENTS, ALLOC, LOAD, DATA
  1 .text         00003e96  00000000  00000000  000000b4  2**1
                  CONTENTS, ALLOC, LOAD, READONLY, CODE
  2 .rodata       000000b0  0000be96  00003e96  00003f4a  2**0
                  CONTENTS, ALLOC, LOAD, READONLY, DATA
  3 .bss          000002e4  00803836  00803836  00004030  2**0
                  ALLOC
  4 .comment      00000030  00000000  00000000  00004030  2**0
                  CONTENTS, READONLY
  5 .note.gnu.avr.deviceinfo 00000040  00000000  00000000  00004060  2**2
                  CONTENTS, READONLY
  6 .debug_aranges 00000338  00000000  00000000  000040a0  2**0
                  CONTENTS, READONLY, DEBUGGING
  7 .debug_info   00006c99  00000000  00000000  000043d8  2**0
                  CONTENTS, READONLY, DEBUGGING
  8 .debug_abbrev 0000287a  00000000  00000000  0000b071  2**0
                  CONTENTS, READONLY, DEBUGGING
  9 .debug_line   00003d91  00000000  00000000  0000d8eb  2**0
                  CONTENTS, READONLY, DEBUGGING
 10 .debug_frame  00000908  00000000  00000000  0001167c  2**2
                  CONTENTS, READONLY, DEBUGGING
 11 .debug_str    00001a9a  00000000  00000000  00011f84  2**0
                  CONTENTS, READONLY, DEBUGGING
 12 .debug_loc    00003c35  00000000  00000000  00013a1e  2**0
                  CONTENTS, READONLY, DEBUGGING
 13 .debug_ranges 000003a8  00000000  00000000  00017653  2**0
                  CONTENTS, READONLY, DEBUGGING

Disassembly of section .text:

00000000 <__vectors>:
       0:	46 c0       	rjmp	.+140    	; 0x8e <__ctors_end>
       2:	00 00       	nop
       4:	61 c0       	rjmp	.+194    	; 0xc8 <__bad_interrupt>
       6:	00 00       	nop
       8:	5f c0       	rjmp	.+190    	; 0xc8 <__bad_interrupt>
       a:	00 00       	nop
       c:	5d c0       	rjmp	.+186    	; 0xc8 <__bad_interrupt>
       e:	00 00       	nop
      10:	5b c0       	rjmp	.+182    	; 0xc8 <__bad_interrupt>
      12:	00 00       	nop
      14:	59 c0       	rjmp	.+178    	; 0xc8 <__bad_interrupt>
      16:	00 00       	nop
      18:	9e c7       	rjmp	.+3900   	; 0xf56 <__vector_6>
      1a:	00 00       	nop
      1c:	f0 c7       	rjmp	.+4064   	; 0xffe <__vector_7>
      1e:	00 00       	nop
      20:	d8 c5       	rjmp	.+2992   	; 0xbd2 <__vector_8>
      22:	00 00       	nop
      24:	51 c0       	rjmp	.+162    	; 0xc8 <__bad_interrupt>
      26:	00 00       	nop
      28:	4f c0       	rjmp	.+158    	; 0xc8 <__bad_interrupt>
      2a:	00 00       	nop
      2c:	4d c0       	rjmp	.+154    	; 0xc8 <__bad_interrupt>
      2e:	00 00       	nop
      30:	4b c0       	rjmp	.+150    	; 0xc8 <__bad_interrupt>
      32:	00 00       	nop
      34:	1f c6       	rjmp	.+3134   	; 0xc74 <__vector_13>
      36:	00 00       	nop
      38:	50 c6       	rjmp	.+3232   	; 0xcda <__vector_14>
      3a:	00 00       	nop
      3c:	45 c0       	rjmp	.+138    	; 0xc8 <__bad_interrupt>
      3e:	00 00       	nop
      40:	43 c0       	rjmp	.+134    	; 0xc8 <__bad_interrupt>
      42:	00 00       	nop
      44:	41 c0       	rjmp	.+130    	; 0xc8 <__bad_interrupt>
      46:	00 00       	nop
      48:	3f c0       	rjmp	.+126    	; 0xc8 <__bad_interrupt>
      4a:	00 00       	nop
      4c:	3d c0       	rjmp	.+122    	; 0xc8 <__bad_interrupt>
      4e:	00 00       	nop
      50:	0e c7       	rjmp	.+3612   	; 0xe6e <__vector_20>
      52:	00 00       	nop
      54:	39 c0       	rjmp	.+114    	; 0xc8 <__bad_interrupt>
      56:	00 00       	nop
      58:	36 c7       	rjmp	.+3692   	; 0xec6 <__vector_22>
      5a:	00 00       	nop
      5c:	35 c0       	rjmp	.+106    	; 0xc8 <__bad_interrupt>
      5e:	00 00       	nop
      60:	33 c0       	rjmp	.+102    	; 0xc8 <__bad_interrupt>
      62:	00 00       	nop
      64:	31 c0       	rjmp	.+98     	; 0xc8 <__bad_interrupt>
      66:	00 00       	nop
      68:	2f c0       	rjmp	.+94     	; 0xc8 <__bad_interrupt>
      6a:	00 00       	nop
      6c:	89 c6       	rjmp	.+3346   	; 0xd80 <__vector_27>
      6e:	00 00       	nop
      70:	e2 c6       	rjmp	.+3524   	; 0xe36 <__vector_28>
      72:	00 00       	nop
      74:	29 c0       	rjmp	.+82     	; 0xc8 <__bad_interrupt>
      76:	00 00       	nop
      78:	27 c0       	rjmp	.+78     	; 0xc8 <__bad_interrupt>
      7a:	00 00       	nop
      7c:	b0 0b       	sbc	r27, r16
      7e:	de 0b       	sbc	r29, r30
      80:	e5 0b       	sbc	r30, r21
      82:	a0 0c       	add	r10, r0
      84:	a0 0c       	add	r10, r0
      86:	f4 0b       	sbc	r31, r20
      88:	01 0c       	add	r0, r1
      8a:	3f 0c       	add	r3, r15
      8c:	66 0c       	add	r6, r6

0000008e <__ctors_end>:
      8e:	11 24       	eor	r1, r1
      90:	1f be       	out	0x3f, r1	; 63
      92:	cf ef       	ldi	r28, 0xFF	; 255
      94:	cd bf       	out	0x3d, r28	; 61
      96:	df e3       	ldi	r29, 0x3F	; 63
      98:	de bf       	out	0x3e, r29	; 62

0000009a <__do_copy_data>:
      9a:	18 e3       	ldi	r17, 0x38	; 56
      9c:	a0 e0       	ldi	r26, 0x00	; 0
      9e:	b8 e3       	ldi	r27, 0x38	; 56
      a0:	e6 e4       	ldi	r30, 0x46	; 70
      a2:	ff e3       	ldi	r31, 0x3F	; 63
      a4:	02 c0       	rjmp	.+4      	; 0xaa <__do_copy_data+0x10>
      a6:	05 90       	lpm	r0, Z+
      a8:	0d 92       	st	X+, r0
      aa:	a6 33       	cpi	r26, 0x36	; 54
      ac:	b1 07       	cpc	r27, r17
      ae:	d9 f7       	brne	.-10     	; 0xa6 <__do_copy_data+0xc>

000000b0 <__do_clear_bss>:
      b0:	2b e3       	ldi	r18, 0x3B	; 59
      b2:	a6 e3       	ldi	r26, 0x36	; 54
      b4:	b8 e3       	ldi	r27, 0x38	; 56
      b6:	01 c0       	rjmp	.+2      	; 0xba <.do_clear_bss_start>

000000b8 <.do_clear_bss_loop>:
      b8:	1d 92       	st	X+, r1

000000ba <.do_clear_bss_start>:
      ba:	aa 31       	cpi	r26, 0x1A	; 26
      bc:	b2 07       	cpc	r27, r18
      be:	e1 f7       	brne	.-8      	; 0xb8 <.do_clear_bss_loop>
      c0:	0e 94 88 1e 	call	0x3d10	; 0x3d10 <main>
      c4:	0c 94 49 1f 	jmp	0x3e92	; 0x3e92 <_exit>

000000c8 <__bad_interrupt>:
      c8:	9b cf       	rjmp	.-202    	; 0x0 <__vectors>

000000ca <chkVolt250>:
#include <main_def.h>
#include <resources.h>
#include <I2C.h>

//Returns measured voltage * 4 (2V returns 8) if it is in the expected range (DELTA)
uint8_t chkVolt250(){
      ca:	28 ed       	ldi	r18, 0xD8	; 216
      cc:	30 e0       	ldi	r19, 0x00	; 0
    uint8_t avgVolt = 9;
      ce:	89 e0       	ldi	r24, 0x09	; 9
        
    for (uint8_t x=225; x>24; x-=25) {
        if ((auIn > (x-DELTA)) && (auIn < (x+DELTA))) {
      d0:	40 91 ca 3a 	lds	r20, 0x3ACA	; 0x803aca <auIn>
      d4:	50 e0       	ldi	r21, 0x00	; 0
      d6:	42 17       	cp	r20, r18
      d8:	53 07       	cpc	r21, r19
      da:	4c f0       	brlt	.+18     	; 0xee <chkVolt250+0x24>
      dc:	40 91 ca 3a 	lds	r20, 0x3ACA	; 0x803aca <auIn>
      e0:	50 e0       	ldi	r21, 0x00	; 0
      e2:	b9 01       	movw	r22, r18
      e4:	6e 5e       	subi	r22, 0xEE	; 238
      e6:	7f 4f       	sbci	r23, 0xFF	; 255
      e8:	64 17       	cp	r22, r20
      ea:	75 07       	cpc	r23, r21
      ec:	2c f4       	brge	.+10     	; 0xf8 <chkVolt250+0x2e>
            break;
        }
        --avgVolt;
      ee:	81 50       	subi	r24, 0x01	; 1
      f0:	29 51       	subi	r18, 0x19	; 25
      f2:	31 09       	sbc	r19, r1

//Returns measured voltage * 4 (2V returns 8) if it is in the expected range (DELTA)
uint8_t chkVolt250(){
    uint8_t avgVolt = 9;
        
    for (uint8_t x=225; x>24; x-=25) {
      f4:	81 11       	cpse	r24, r1
      f6:	ec cf       	rjmp	.-40     	; 0xd0 <chkVolt250+0x6>
            break;
        }
        --avgVolt;
    }
    return avgVolt;
}
      f8:	08 95       	ret

000000fa <MakeFriends>:

// Main game loop
uint8_t MakeFriends(){
      fa:	cf 93       	push	r28
      fc:	df 93       	push	r29
    static uint8_t setDAC[2] = {255, 0};
    static uint8_t chkTmr = 0;
    static uint8_t jackIn = 0;
    static uint8_t candidate = 0;

    ++chkTmr;
      fe:	80 91 39 38 	lds	r24, 0x3839	; 0x803839 <chkTmr.3790>
     102:	8f 5f       	subi	r24, 0xFF	; 255
     104:	80 93 39 38 	sts	0x3839, r24	; 0x803839 <chkTmr.3790>
     108:	c4 e6       	ldi	r28, 0x64	; 100

    //Check if badge has found 3 friends
    uint8_t foundAll = 1;
     10a:	d1 e0       	ldi	r29, 0x01	; 1
    for (uint8_t x=0; x<4; ++x){
        if (CheckState(100+x) == 0) foundAll = 0;
     10c:	8c 2f       	mov	r24, r28
     10e:	0e 94 19 0a 	call	0x1432	; 0x1432 <CheckState>
     112:	81 11       	cpse	r24, r1
     114:	01 c0       	rjmp	.+2      	; 0x118 <MakeFriends+0x1e>
     116:	d0 e0       	ldi	r29, 0x00	; 0
     118:	cf 5f       	subi	r28, 0xFF	; 255

    ++chkTmr;

    //Check if badge has found 3 friends
    uint8_t foundAll = 1;
    for (uint8_t x=0; x<4; ++x){
     11a:	c8 36       	cpi	r28, 0x68	; 104
     11c:	b9 f7       	brne	.-18     	; 0x10c <MakeFriends+0x12>
        if (CheckState(100+x) == 0) foundAll = 0;
    }
    if (foundAll) UpdateState(124);
     11e:	dd 23       	and	r29, r29
     120:	19 f0       	breq	.+6      	; 0x128 <MakeFriends+0x2e>
     122:	8c e7       	ldi	r24, 0x7C	; 124
     124:	0e 94 f8 09 	call	0x13f0	; 0x13f0 <UpdateState>

    //Set game state, must be able to hijack from other games.
    if (progress > FIRST_CONTACT) { 
     128:	80 91 38 38 	lds	r24, 0x3838	; 0x803838 <progress.3788>
     12c:	82 30       	cpi	r24, 0x02	; 2
     12e:	20 f0       	brcs	.+8      	; 0x138 <MakeFriends+0x3e>
        gameNow = FRIENDS; 
     130:	94 e0       	ldi	r25, 0x04	; 4
     132:	90 93 42 38 	sts	0x3842, r25	; 0x803842 <gameNow>
     136:	0d c0       	rjmp	.+26     	; 0x152 <MakeFriends+0x58>
    }
    
    //Clear game state if not communicating properly or headphones detected
    if (((progress == NO_OTHER) || detHdPh) && (gameNow == FRIENDS)) {
     138:	81 11       	cpse	r24, r1
     13a:	0b c0       	rjmp	.+22     	; 0x152 <MakeFriends+0x58>
     13c:	90 91 42 38 	lds	r25, 0x3842	; 0x803842 <gameNow>
     140:	94 30       	cpi	r25, 0x04	; 4
     142:	61 f4       	brne	.+24     	; 0x15c <MakeFriends+0x62>
        gameNow = TEXT; 
     144:	10 92 42 38 	sts	0x3842, r1	; 0x803842 <gameNow>
        effect = 0;
     148:	10 92 40 38 	sts	0x3840, r1	; 0x803840 <effect>
     14c:	10 92 41 38 	sts	0x3841, r1	; 0x803841 <effect+0x1>
     150:	05 c0       	rjmp	.+10     	; 0x15c <MakeFriends+0x62>
    if (progress > FIRST_CONTACT) { 
        gameNow = FRIENDS; 
    }
    
    //Clear game state if not communicating properly or headphones detected
    if (((progress == NO_OTHER) || detHdPh) && (gameNow == FRIENDS)) {
     152:	90 91 c7 3a 	lds	r25, 0x3AC7	; 0x803ac7 <detHdPh>
     156:	91 11       	cpse	r25, r1
     158:	f1 cf       	rjmp	.-30     	; 0x13c <MakeFriends+0x42>
     15a:	18 c0       	rjmp	.+48     	; 0x18c <MakeFriends+0x92>
        gameNow = TEXT; 
        effect = 0;
    }

    //Audio off, set voltage level (setDAC[0]*10mV)
    if ((progress == NO_OTHER) && (detHdPh == 0)) {
     15c:	81 11       	cpse	r24, r1
     15e:	16 c0       	rjmp	.+44     	; 0x18c <MakeFriends+0x92>
     160:	90 91 c7 3a 	lds	r25, 0x3AC7	; 0x803ac7 <detHdPh>
     164:	91 11       	cpse	r25, r1
     166:	12 c0       	rjmp	.+36     	; 0x18c <MakeFriends+0x92>
        setDAC[0] = whoami * 51;
     168:	80 91 43 38 	lds	r24, 0x3843	; 0x803843 <whoami>
     16c:	93 e3       	ldi	r25, 0x33	; 51
     16e:	89 9f       	mul	r24, r25
     170:	80 2d       	mov	r24, r0
     172:	11 24       	eor	r1, r1
     174:	80 93 00 38 	sts	0x3800, r24	; 0x803800 <__data_start>
        auRepAddr = &setDAC[0];
     178:	80 e0       	ldi	r24, 0x00	; 0
     17a:	98 e3       	ldi	r25, 0x38	; 56
     17c:	80 93 03 38 	sts	0x3803, r24	; 0x803803 <auRepAddr>
     180:	90 93 04 38 	sts	0x3804, r25	; 0x803804 <auRepAddr+0x1>
        auVolume = 255;
     184:	8f ef       	ldi	r24, 0xFF	; 255
     186:	80 93 be 3a 	sts	0x3ABE, r24	; 0x803abe <auVolume>
     18a:	09 c0       	rjmp	.+18     	; 0x19e <MakeFriends+0xa4>
    } else {
        if (progress & NEXT){
     18c:	98 2f       	mov	r25, r24
     18e:	90 7f       	andi	r25, 0xF0	; 240
     190:	31 f0       	breq	.+12     	; 0x19e <MakeFriends+0xa4>
            progress++;
            progress&=0x0f;
     192:	8f 5f       	subi	r24, 0xFF	; 255
     194:	8f 70       	andi	r24, 0x0F	; 15
     196:	80 93 38 38 	sts	0x3838, r24	; 0x803838 <progress.3788>
            chkTmr = 0;
     19a:	10 92 39 38 	sts	0x3839, r1	; 0x803839 <chkTmr.3790>
        }
    }

    //Check for other badges ()
    if ((auIn < (setDAC[0] - DELTA)) || (auIn > (setDAC[0] + DELTA)) || (progress > FIRST_CONTACT)) {
     19e:	40 91 ca 3a 	lds	r20, 0x3ACA	; 0x803aca <auIn>
     1a2:	20 91 00 38 	lds	r18, 0x3800	; 0x803800 <__data_start>
     1a6:	30 e0       	ldi	r19, 0x00	; 0
     1a8:	50 e0       	ldi	r21, 0x00	; 0
     1aa:	b9 01       	movw	r22, r18
     1ac:	6a 50       	subi	r22, 0x0A	; 10
     1ae:	71 09       	sbc	r23, r1
     1b0:	80 91 38 38 	lds	r24, 0x3838	; 0x803838 <progress.3788>
     1b4:	46 17       	cp	r20, r22
     1b6:	57 07       	cpc	r21, r23
     1b8:	5c f0       	brlt	.+22     	; 0x1d0 <MakeFriends+0xd6>
     1ba:	40 91 ca 3a 	lds	r20, 0x3ACA	; 0x803aca <auIn>
     1be:	50 e0       	ldi	r21, 0x00	; 0
     1c0:	26 5f       	subi	r18, 0xF6	; 246
     1c2:	3f 4f       	sbci	r19, 0xFF	; 255
     1c4:	24 17       	cp	r18, r20
     1c6:	35 07       	cpc	r19, r21
     1c8:	1c f0       	brlt	.+6      	; 0x1d0 <MakeFriends+0xd6>
     1ca:	82 30       	cpi	r24, 0x02	; 2
     1cc:	08 f4       	brcc	.+2      	; 0x1d0 <MakeFriends+0xd6>
     1ce:	43 c0       	rjmp	.+134    	; 0x256 <MakeFriends+0x15c>
        if ((progress == NO_OTHER) && (detHdPh == 0)) {
     1d0:	81 11       	cpse	r24, r1
     1d2:	0b c0       	rjmp	.+22     	; 0x1ea <MakeFriends+0xf0>
     1d4:	80 91 c7 3a 	lds	r24, 0x3AC7	; 0x803ac7 <detHdPh>
     1d8:	81 11       	cpse	r24, r1
     1da:	96 c0       	rjmp	.+300    	; 0x308 <MakeFriends+0x20e>
            if (chkTmr >= 8) {
     1dc:	80 91 39 38 	lds	r24, 0x3839	; 0x803839 <chkTmr.3790>
     1e0:	88 30       	cpi	r24, 0x08	; 8
     1e2:	08 f4       	brcc	.+2      	; 0x1e6 <MakeFriends+0xec>
     1e4:	91 c0       	rjmp	.+290    	; 0x308 <MakeFriends+0x20e>
                progress |= NEXT;
     1e6:	80 ef       	ldi	r24, 0xF0	; 240
     1e8:	64 c0       	rjmp	.+200    	; 0x2b2 <MakeFriends+0x1b8>
            }
        }

        //Candidate found, check ranges
        else if (progress == FIRST_CONTACT) {
     1ea:	81 30       	cpi	r24, 0x01	; 1
     1ec:	41 f5       	brne	.+80     	; 0x23e <MakeFriends+0x144>
            jackIn = chkVolt250();
     1ee:	6d df       	rcall	.-294    	; 0xca <chkVolt250>
     1f0:	80 93 37 38 	sts	0x3837, r24	; 0x803837 <jackIn.3791>
            if (jackIn) {
     1f4:	88 23       	and	r24, r24
     1f6:	79 f1       	breq	.+94     	; 0x256 <MakeFriends+0x15c>
                if (chkTmr >= SHORT_WAIT){
     1f8:	90 91 39 38 	lds	r25, 0x3839	; 0x803839 <chkTmr.3790>
     1fc:	98 30       	cpi	r25, 0x08	; 8
     1fe:	08 f4       	brcc	.+2      	; 0x202 <MakeFriends+0x108>
     200:	83 c0       	rjmp	.+262    	; 0x308 <MakeFriends+0x20e>
                    if (   ((whoami == 1)&&((jackIn >= 3)&&(jackIn <= 5))) 
     202:	90 91 43 38 	lds	r25, 0x3843	; 0x803843 <whoami>
     206:	91 30       	cpi	r25, 0x01	; 1
     208:	11 f4       	brne	.+4      	; 0x20e <MakeFriends+0x114>
     20a:	83 50       	subi	r24, 0x03	; 3
     20c:	14 c0       	rjmp	.+40     	; 0x236 <MakeFriends+0x13c>
                    || ((whoami == 2)&&((jackIn == 3)||(jackIn == 5)||(jackIn == 6)))  
     20e:	92 30       	cpi	r25, 0x02	; 2
     210:	31 f4       	brne	.+12     	; 0x21e <MakeFriends+0x124>
     212:	83 30       	cpi	r24, 0x03	; 3
     214:	91 f0       	breq	.+36     	; 0x23a <MakeFriends+0x140>
     216:	85 50       	subi	r24, 0x05	; 5
     218:	82 30       	cpi	r24, 0x02	; 2
     21a:	e8 f4       	brcc	.+58     	; 0x256 <MakeFriends+0x15c>
     21c:	0e c0       	rjmp	.+28     	; 0x23a <MakeFriends+0x140>
                    || ((whoami == 3)&&((jackIn == 4)||(jackIn == 5)||(jackIn == 7))) 
     21e:	93 30       	cpi	r25, 0x03	; 3
     220:	39 f4       	brne	.+14     	; 0x230 <MakeFriends+0x136>
     222:	9c ef       	ldi	r25, 0xFC	; 252
     224:	98 0f       	add	r25, r24
     226:	92 30       	cpi	r25, 0x02	; 2
     228:	40 f0       	brcs	.+16     	; 0x23a <MakeFriends+0x140>
     22a:	87 30       	cpi	r24, 0x07	; 7
     22c:	a1 f4       	brne	.+40     	; 0x256 <MakeFriends+0x15c>
     22e:	05 c0       	rjmp	.+10     	; 0x23a <MakeFriends+0x140>
                    || ((whoami == 4)&&((jackIn >= 5)&&(jackIn <= 7)))   ) {
     230:	94 30       	cpi	r25, 0x04	; 4
     232:	89 f4       	brne	.+34     	; 0x256 <MakeFriends+0x15c>
     234:	85 50       	subi	r24, 0x05	; 5
     236:	83 30       	cpi	r24, 0x03	; 3
     238:	70 f4       	brcc	.+28     	; 0x256 <MakeFriends+0x15c>
                        progress |= NEXT;
     23a:	81 ef       	ldi	r24, 0xF1	; 241
     23c:	3a c0       	rjmp	.+116    	; 0x2b2 <MakeFriends+0x1b8>
                progress = NO_OTHER;
            }
        }

        //Wait for the other badge (and a bit longer for effect)
        else if (progress == SECOND_LOVE){
     23e:	82 30       	cpi	r24, 0x02	; 2
     240:	69 f0       	breq	.+26     	; 0x25c <MakeFriends+0x162>
                progress |= NEXT;
            }
        } 
        
        //Wait a bit, check Voltage again, if ok show who you connected with and your own number, save, exit
        else if (progress == THIRD_KISS) {
     242:	83 30       	cpi	r24, 0x03	; 3
     244:	c9 f1       	breq	.+114    	; 0x2b8 <MakeFriends+0x1be>
                    progress |= NEXT;
                } else progress = NO_OTHER;                
            }

        //Wait for quit
        } else if (progress == FOURTH_BASE) {
     246:	84 30       	cpi	r24, 0x04	; 4
     248:	09 f0       	breq	.+2      	; 0x24c <MakeFriends+0x152>
     24a:	5e c0       	rjmp	.+188    	; 0x308 <MakeFriends+0x20e>
            if (chkTmr >= (SHORT_WAIT<<3)) {
     24c:	80 91 39 38 	lds	r24, 0x3839	; 0x803839 <chkTmr.3790>
     250:	80 34       	cpi	r24, 0x40	; 64
     252:	08 f4       	brcc	.+2      	; 0x256 <MakeFriends+0x15c>
     254:	59 c0       	rjmp	.+178    	; 0x308 <MakeFriends+0x20e>
                    if (   ((whoami == 1)&&((jackIn >= 3)&&(jackIn <= 5))) 
                    || ((whoami == 2)&&((jackIn == 3)||(jackIn == 5)||(jackIn == 6)))  
                    || ((whoami == 3)&&((jackIn == 4)||(jackIn == 5)||(jackIn == 7))) 
                    || ((whoami == 4)&&((jackIn >= 5)&&(jackIn <= 7)))   ) {
                        progress |= NEXT;
                    } else progress = NO_OTHER;
     256:	10 92 38 38 	sts	0x3838, r1	; 0x803838 <progress.3788>
     25a:	56 c0       	rjmp	.+172    	; 0x308 <MakeFriends+0x20e>
        }

        //Wait for the other badge (and a bit longer for effect)
        else if (progress == SECOND_LOVE){
            
            effect = 7;
     25c:	87 e0       	ldi	r24, 0x07	; 7
     25e:	90 e0       	ldi	r25, 0x00	; 0
     260:	80 93 40 38 	sts	0x3840, r24	; 0x803840 <effect>
     264:	90 93 41 38 	sts	0x3841, r25	; 0x803841 <effect+0x1>
            if (chkTmr >= SHORT_WAIT) {
     268:	80 91 39 38 	lds	r24, 0x3839	; 0x803839 <chkTmr.3790>
     26c:	88 30       	cpi	r24, 0x08	; 8
     26e:	40 f0       	brcs	.+16     	; 0x280 <MakeFriends+0x186>
                setDAC[0] = floatAround(0x80, 8, 100, 255); 
     270:	2f ef       	ldi	r18, 0xFF	; 255
     272:	44 e6       	ldi	r20, 0x64	; 100
     274:	68 e0       	ldi	r22, 0x08	; 8
     276:	80 e8       	ldi	r24, 0x80	; 128
     278:	0e 94 3f 09 	call	0x127e	; 0x127e <floatAround>
     27c:	80 93 00 38 	sts	0x3800, r24	; 0x803800 <__data_start>
            }

            //The badge with the lowest voltage will now go to 2.5V (impedance check, for people tricking the things with a power supply)
            if (chkTmr >= LONG_WAIT){
     280:	80 91 39 38 	lds	r24, 0x3839	; 0x803839 <chkTmr.3790>
     284:	8a 3f       	cpi	r24, 0xFA	; 250
     286:	08 f4       	brcc	.+2      	; 0x28a <MakeFriends+0x190>
     288:	3f c0       	rjmp	.+126    	; 0x308 <MakeFriends+0x20e>
                candidate = jackIn-whoami;
     28a:	80 91 43 38 	lds	r24, 0x3843	; 0x803843 <whoami>
     28e:	90 91 37 38 	lds	r25, 0x3837	; 0x803837 <jackIn.3791>
     292:	98 1b       	sub	r25, r24
     294:	90 93 36 38 	sts	0x3836, r25	; 0x803836 <__data_end>
                if (candidate > whoami) {
     298:	89 17       	cp	r24, r25
     29a:	10 f4       	brcc	.+4      	; 0x2a0 <MakeFriends+0x1a6>
                    setDAC[0] = 249;
     29c:	89 ef       	ldi	r24, 0xF9	; 249
     29e:	04 c0       	rjmp	.+8      	; 0x2a8 <MakeFriends+0x1ae>
                } else {
                    setDAC[0] = whoami * 51;
     2a0:	93 e3       	ldi	r25, 0x33	; 51
     2a2:	89 9f       	mul	r24, r25
     2a4:	80 2d       	mov	r24, r0
     2a6:	11 24       	eor	r1, r1
     2a8:	80 93 00 38 	sts	0x3800, r24	; 0x803800 <__data_start>
                }
                progress |= NEXT;
     2ac:	80 91 38 38 	lds	r24, 0x3838	; 0x803838 <progress.3788>
     2b0:	80 6f       	ori	r24, 0xF0	; 240
     2b2:	80 93 38 38 	sts	0x3838, r24	; 0x803838 <progress.3788>
     2b6:	28 c0       	rjmp	.+80     	; 0x308 <MakeFriends+0x20e>
            }
        } 
        
        //Wait a bit, check Voltage again, if ok show who you connected with and your own number, save, exit
        else if (progress == THIRD_KISS) {
            if (chkTmr >= SHORT_WAIT) {
     2b8:	80 91 39 38 	lds	r24, 0x3839	; 0x803839 <chkTmr.3790>
     2bc:	88 30       	cpi	r24, 0x08	; 8
                jackIn = chkVolt250();
     2be:	20 f1       	brcs	.+72     	; 0x308 <MakeFriends+0x20e>
     2c0:	04 df       	rcall	.-504    	; 0xca <chkVolt250>
     2c2:	80 93 37 38 	sts	0x3837, r24	; 0x803837 <jackIn.3791>
                if (jackIn == (((candidate > whoami)?candidate:whoami) + 5)) {
     2c6:	90 91 36 38 	lds	r25, 0x3836	; 0x803836 <__data_end>
     2ca:	48 2f       	mov	r20, r24
     2cc:	50 e0       	ldi	r21, 0x00	; 0
     2ce:	20 91 43 38 	lds	r18, 0x3843	; 0x803843 <whoami>
     2d2:	29 17       	cp	r18, r25
     2d4:	08 f4       	brcc	.+2      	; 0x2d8 <MakeFriends+0x1de>
     2d6:	29 2f       	mov	r18, r25
     2d8:	30 e0       	ldi	r19, 0x00	; 0
     2da:	2b 5f       	subi	r18, 0xFB	; 251
     2dc:	3f 4f       	sbci	r19, 0xFF	; 255
     2de:	42 17       	cp	r20, r18
     2e0:	53 07       	cpc	r21, r19
     2e2:	09 f0       	breq	.+2      	; 0x2e6 <MakeFriends+0x1ec>
     2e4:	b8 cf       	rjmp	.-144    	; 0x256 <MakeFriends+0x15c>
                    UpdateState(99+candidate);
     2e6:	83 e6       	ldi	r24, 0x63	; 99
     2e8:	89 0f       	add	r24, r25
     2ea:	0e 94 f8 09 	call	0x13f0	; 0x13f0 <UpdateState>
                 
                    effect = 31;
     2ee:	8f e1       	ldi	r24, 0x1F	; 31
     2f0:	90 e0       	ldi	r25, 0x00	; 0
     2f2:	80 93 40 38 	sts	0x3840, r24	; 0x803840 <effect>
     2f6:	90 93 41 38 	sts	0x3841, r25	; 0x803841 <effect+0x1>
                    WingBar(candidate, whoami);
     2fa:	60 91 43 38 	lds	r22, 0x3843	; 0x803843 <whoami>
     2fe:	80 91 36 38 	lds	r24, 0x3836	; 0x803836 <__data_end>
     302:	0e 94 e9 0a 	call	0x15d2	; 0x15d2 <WingBar>
     306:	d2 cf       	rjmp	.-92     	; 0x2ac <MakeFriends+0x1b2>
    } else {
        progress = NO_OTHER;
    }
      
    return 0;
}
     308:	80 e0       	ldi	r24, 0x00	; 0
     30a:	df 91       	pop	r29
     30c:	cf 91       	pop	r28
     30e:	08 95       	ret

00000310 <I2C_init>:
// the Atmel device documentation mentions a special command for repeated start TWI_MCMD_REPSTART_gc,
// but this is not used in Atmel's demo code, so we don't use it either

void I2C_rep_start(uint8_t shifted_addr)						    // send repeated start, device_addr + LSB set if READ
{
	TWI0.MADDR = shifted_addr;	
     310:	81 e0       	ldi	r24, 0x01	; 1
     312:	80 93 22 04 	sts	0x0422, r24	; 0x800422 <__TEXT_REGION_LENGTH__+0x700422>
     316:	e6 e2       	ldi	r30, 0x26	; 38
     318:	f4 e0       	ldi	r31, 0x04	; 4
     31a:	80 83       	st	Z, r24
     31c:	10 92 30 04 	sts	0x0430, r1	; 0x800430 <__TEXT_REGION_LENGTH__+0x700430>
     320:	a1 e2       	ldi	r26, 0x21	; 33
     322:	b4 e0       	ldi	r27, 0x04	; 4
     324:	92 e0       	ldi	r25, 0x02	; 2
     326:	9c 93       	st	X, r25
     328:	90 83       	st	Z, r25
     32a:	10 92 31 04 	sts	0x0431, r1	; 0x800431 <__TEXT_REGION_LENGTH__+0x700431>
     32e:	e0 e1       	ldi	r30, 0x10	; 16
     330:	f8 e0       	ldi	r31, 0x08	; 8
     332:	97 e0       	ldi	r25, 0x07	; 7
     334:	96 83       	std	Z+6, r25	; 0x06
     336:	98 e0       	ldi	r25, 0x08	; 8
     338:	94 83       	std	Z+4, r25	; 0x04
     33a:	83 83       	std	Z+3, r24	; 0x03
     33c:	8c 93       	st	X, r24
     33e:	85 81       	ldd	r24, Z+5	; 0x05
     340:	81 60       	ori	r24, 0x01	; 1
     342:	85 83       	std	Z+5, r24	; 0x05
     344:	85 81       	ldd	r24, Z+5	; 0x05
     346:	84 6c       	ori	r24, 0xC4	; 196
     348:	85 83       	std	Z+5, r24	; 0x05
     34a:	08 95       	ret

0000034c <I2C_recover>:
     34c:	80 91 14 08 	lds	r24, 0x0814	; 0x800814 <__TEXT_REGION_LENGTH__+0x700814>
     350:	88 60       	ori	r24, 0x08	; 8
     352:	80 93 14 08 	sts	0x0814, r24	; 0x800814 <__TEXT_REGION_LENGTH__+0x700814>
     356:	10 92 13 08 	sts	0x0813, r1	; 0x800813 <__TEXT_REGION_LENGTH__+0x700813>
     35a:	82 e0       	ldi	r24, 0x02	; 2
     35c:	80 93 22 04 	sts	0x0422, r24	; 0x800422 <__TEXT_REGION_LENGTH__+0x700422>
     360:	99 e0       	ldi	r25, 0x09	; 9
     362:	21 e0       	ldi	r18, 0x01	; 1
     364:	81 e0       	ldi	r24, 0x01	; 1
     366:	20 93 21 04 	sts	0x0421, r18	; 0x800421 <__TEXT_REGION_LENGTH__+0x700421>
     36a:	30 e1       	ldi	r19, 0x10	; 16
     36c:	3a 95       	dec	r19
     36e:	f1 f7       	brne	.-4      	; 0x36c <I2C_recover+0x20>
     370:	00 c0       	rjmp	.+0      	; 0x372 <I2C_recover+0x26>
     372:	20 93 22 04 	sts	0x0422, r18	; 0x800422 <__TEXT_REGION_LENGTH__+0x700422>
     376:	30 e1       	ldi	r19, 0x10	; 16
     378:	3a 95       	dec	r19
     37a:	f1 f7       	brne	.-4      	; 0x378 <I2C_recover+0x2c>
     37c:	00 c0       	rjmp	.+0      	; 0x37e <I2C_recover+0x32>
     37e:	91 50       	subi	r25, 0x01	; 1
     380:	89 f7       	brne	.-30     	; 0x364 <I2C_recover+0x18>
     382:	28 e0       	ldi	r18, 0x08	; 8
     384:	20 93 14 08 	sts	0x0814, r18	; 0x800814 <__TEXT_REGION_LENGTH__+0x700814>
     388:	80 93 13 08 	sts	0x0813, r24	; 0x800813 <__TEXT_REGION_LENGTH__+0x700813>
     38c:	92 e0       	ldi	r25, 0x02	; 2
     38e:	90 93 21 04 	sts	0x0421, r25	; 0x800421 <__TEXT_REGION_LENGTH__+0x700421>
     392:	90 91 15 08 	lds	r25, 0x0815	; 0x800815 <__TEXT_REGION_LENGTH__+0x700815>
     396:	91 60       	ori	r25, 0x01	; 1
     398:	90 93 15 08 	sts	0x0815, r25	; 0x800815 <__TEXT_REGION_LENGTH__+0x700815>
     39c:	90 91 15 08 	lds	r25, 0x0815	; 0x800815 <__TEXT_REGION_LENGTH__+0x700815>
     3a0:	94 6c       	ori	r25, 0xC4	; 196
     3a2:	90 93 15 08 	sts	0x0815, r25	; 0x800815 <__TEXT_REGION_LENGTH__+0x700815>
     3a6:	20 93 14 08 	sts	0x0814, r18	; 0x800814 <__TEXT_REGION_LENGTH__+0x700814>
     3aa:	80 93 13 08 	sts	0x0813, r24	; 0x800813 <__TEXT_REGION_LENGTH__+0x700813>
     3ae:	80 93 21 04 	sts	0x0421, r24	; 0x800421 <__TEXT_REGION_LENGTH__+0x700421>
     3b2:	80 91 15 08 	lds	r24, 0x0815	; 0x800815 <__TEXT_REGION_LENGTH__+0x700815>
     3b6:	81 60       	ori	r24, 0x01	; 1
     3b8:	80 93 15 08 	sts	0x0815, r24	; 0x800815 <__TEXT_REGION_LENGTH__+0x700815>
     3bc:	80 91 15 08 	lds	r24, 0x0815	; 0x800815 <__TEXT_REGION_LENGTH__+0x700815>
     3c0:	84 6c       	ori	r24, 0xC4	; 196
     3c2:	80 93 15 08 	sts	0x0815, r24	; 0x800815 <__TEXT_REGION_LENGTH__+0x700815>
     3c6:	08 95       	ret

000003c8 <I2C_start>:
     3c8:	28 2f       	mov	r18, r24
     3ca:	90 91 15 08 	lds	r25, 0x0815	; 0x800815 <__TEXT_REGION_LENGTH__+0x700815>
     3ce:	90 6c       	ori	r25, 0xC0	; 192
     3d0:	90 93 15 08 	sts	0x0815, r25	; 0x800815 <__TEXT_REGION_LENGTH__+0x700815>
     3d4:	90 91 15 08 	lds	r25, 0x0815	; 0x800815 <__TEXT_REGION_LENGTH__+0x700815>
     3d8:	89 2f       	mov	r24, r25
     3da:	84 70       	andi	r24, 0x04	; 4
     3dc:	92 fd       	sbrc	r25, 2
     3de:	03 c0       	rjmp	.+6      	; 0x3e6 <I2C_start+0x1e>
     3e0:	20 93 17 08 	sts	0x0817, r18	; 0x800817 <__TEXT_REGION_LENGTH__+0x700817>
     3e4:	08 95       	ret
     3e6:	84 e0       	ldi	r24, 0x04	; 4
     3e8:	08 95       	ret

000003ea <I2C_wait_ACK>:
     3ea:	8c e0       	ldi	r24, 0x0C	; 12
     3ec:	80 93 68 3a 	sts	0x3A68, r24	; 0x803a68 <timeout_I2C>
     3f0:	80 91 15 08 	lds	r24, 0x0815	; 0x800815 <__TEXT_REGION_LENGTH__+0x700815>
     3f4:	87 fd       	sbrc	r24, 7
     3f6:	0a c0       	rjmp	.+20     	; 0x40c <__LOCK_REGION_LENGTH__+0xc>
     3f8:	80 91 15 08 	lds	r24, 0x0815	; 0x800815 <__TEXT_REGION_LENGTH__+0x700815>
     3fc:	86 fd       	sbrc	r24, 6
     3fe:	06 c0       	rjmp	.+12     	; 0x40c <__LOCK_REGION_LENGTH__+0xc>
     400:	80 91 68 3a 	lds	r24, 0x3A68	; 0x803a68 <timeout_I2C>
     404:	81 11       	cpse	r24, r1
     406:	f4 cf       	rjmp	.-24     	; 0x3f0 <I2C_wait_ACK+0x6>
     408:	8f ef       	ldi	r24, 0xFF	; 255
     40a:	08 95       	ret
     40c:	80 91 15 08 	lds	r24, 0x0815	; 0x800815 <__TEXT_REGION_LENGTH__+0x700815>
     410:	80 6c       	ori	r24, 0xC0	; 192
     412:	80 93 15 08 	sts	0x0815, r24	; 0x800815 <__TEXT_REGION_LENGTH__+0x700815>
     416:	80 91 15 08 	lds	r24, 0x0815	; 0x800815 <__TEXT_REGION_LENGTH__+0x700815>
     41a:	82 fd       	sbrc	r24, 2
     41c:	09 c0       	rjmp	.+18     	; 0x430 <__LOCK_REGION_LENGTH__+0x30>
     41e:	80 91 15 08 	lds	r24, 0x0815	; 0x800815 <__TEXT_REGION_LENGTH__+0x700815>
     422:	83 fd       	sbrc	r24, 3
     424:	07 c0       	rjmp	.+14     	; 0x434 <__LOCK_REGION_LENGTH__+0x34>
     426:	80 91 15 08 	lds	r24, 0x0815	; 0x800815 <__TEXT_REGION_LENGTH__+0x700815>
     42a:	82 95       	swap	r24
     42c:	81 70       	andi	r24, 0x01	; 1
     42e:	08 95       	ret
     430:	84 e0       	ldi	r24, 0x04	; 4
     432:	08 95       	ret
     434:	82 e0       	ldi	r24, 0x02	; 2
     436:	08 95       	ret

00000438 <I2C_read>:
}

uint8_t	I2C_read(uint8_t *data, uint8_t ack_flag)					// read data, ack_flag 0: send ACK, 1: send NACK, returns status
{
     438:	fc 01       	movw	r30, r24
	timeout_I2C = READ_TIMEOUT;										// reset timeout counter, will be decremented by LED matrix interrupt
     43a:	8c e0       	ldi	r24, 0x0C	; 12
     43c:	80 93 68 3a 	sts	0x3A68, r24	; 0x803a68 <timeout_I2C>
	if ((TWI0.MSTATUS & TWI_BUSSTATE_gm) == TWI_BUSSTATE_OWNER_gc)	// if master controls bus
     440:	90 91 15 08 	lds	r25, 0x0815	; 0x800815 <__TEXT_REGION_LENGTH__+0x700815>
     444:	89 2f       	mov	r24, r25
     446:	83 70       	andi	r24, 0x03	; 3
     448:	82 30       	cpi	r24, 0x02	; 2
     44a:	11 f0       	breq	.+4      	; 0x450 <I2C_read+0x18>
		else		TWI0.MCTRLB |= TWI_ACKACT_NACK_gc;				// setup NACK (last byte read)
		*data = TWI0.MDATA;
		if (ack_flag == 0) TWI0.MCTRLB |= TWI_MCMD_RECVTRANS_gc;	// send ACK, more bytes to follow					
		return 0;
	}
	else return 8;													// master does not control bus
     44c:	88 e0       	ldi	r24, 0x08	; 8
     44e:	08 95       	ret
uint8_t	I2C_read(uint8_t *data, uint8_t ack_flag)					// read data, ack_flag 0: send ACK, 1: send NACK, returns status
{
	timeout_I2C = READ_TIMEOUT;										// reset timeout counter, will be decremented by LED matrix interrupt
	if ((TWI0.MSTATUS & TWI_BUSSTATE_gm) == TWI_BUSSTATE_OWNER_gc)	// if master controls bus
	{		
		while (!(TWI0.MSTATUS & TWI_RIF_bm))						// wait for RIF set (data byte received)
     450:	90 91 15 08 	lds	r25, 0x0815	; 0x800815 <__TEXT_REGION_LENGTH__+0x700815>
     454:	97 fd       	sbrc	r25, 7
     456:	06 c0       	rjmp	.+12     	; 0x464 <I2C_read+0x2c>
		{
			if (!(timeout_I2C)) return 0xff;			            // return timeout error
     458:	90 91 68 3a 	lds	r25, 0x3A68	; 0x803a68 <timeout_I2C>
     45c:	91 11       	cpse	r25, r1
     45e:	f8 cf       	rjmp	.-16     	; 0x450 <I2C_read+0x18>
     460:	8f ef       	ldi	r24, 0xFF	; 255
     462:	08 95       	ret
		}
		TWI0.MSTATUS |= (TWI_RIF_bm | TWI_WIF_bm);					// clear Read and Write interrupt flags	
     464:	90 91 15 08 	lds	r25, 0x0815	; 0x800815 <__TEXT_REGION_LENGTH__+0x700815>
     468:	90 6c       	ori	r25, 0xC0	; 192
     46a:	90 93 15 08 	sts	0x0815, r25	; 0x800815 <__TEXT_REGION_LENGTH__+0x700815>
		if (TWI0.MSTATUS & TWI_BUSERR_bm) return 4;					// Bus Error, abort
     46e:	90 91 15 08 	lds	r25, 0x0815	; 0x800815 <__TEXT_REGION_LENGTH__+0x700815>
     472:	92 fd       	sbrc	r25, 2
     474:	1e c0       	rjmp	.+60     	; 0x4b2 <I2C_read+0x7a>
		if (TWI0.MSTATUS & TWI_ARBLOST_bm) return 2;				// Arbitration Lost, abort
     476:	90 91 15 08 	lds	r25, 0x0815	; 0x800815 <__TEXT_REGION_LENGTH__+0x700815>
     47a:	93 fd       	sbrc	r25, 3
     47c:	1d c0       	rjmp	.+58     	; 0x4b8 <I2C_read+0x80>
		if (TWI0.MSTATUS & TWI_RXACK_bm) return 1;					// Slave replied with NACK, abort				
     47e:	90 91 15 08 	lds	r25, 0x0815	; 0x800815 <__TEXT_REGION_LENGTH__+0x700815>
     482:	89 2f       	mov	r24, r25
     484:	80 71       	andi	r24, 0x10	; 16
     486:	94 fd       	sbrc	r25, 4
     488:	16 c0       	rjmp	.+44     	; 0x4b6 <I2C_read+0x7e>
		if (ack_flag == 0) TWI0.MCTRLB &= ~(1 << TWI_ACKACT_bp);	// setup ACK
     48a:	90 91 14 08 	lds	r25, 0x0814	; 0x800814 <__TEXT_REGION_LENGTH__+0x700814>
     48e:	61 11       	cpse	r22, r1
     490:	02 c0       	rjmp	.+4      	; 0x496 <I2C_read+0x5e>
     492:	9b 7f       	andi	r25, 0xFB	; 251
     494:	01 c0       	rjmp	.+2      	; 0x498 <I2C_read+0x60>
		else		TWI0.MCTRLB |= TWI_ACKACT_NACK_gc;				// setup NACK (last byte read)
     496:	94 60       	ori	r25, 0x04	; 4
     498:	90 93 14 08 	sts	0x0814, r25	; 0x800814 <__TEXT_REGION_LENGTH__+0x700814>
		*data = TWI0.MDATA;
     49c:	90 91 18 08 	lds	r25, 0x0818	; 0x800818 <__TEXT_REGION_LENGTH__+0x700818>
     4a0:	90 83       	st	Z, r25
		if (ack_flag == 0) TWI0.MCTRLB |= TWI_MCMD_RECVTRANS_gc;	// send ACK, more bytes to follow					
     4a2:	61 11       	cpse	r22, r1
     4a4:	09 c0       	rjmp	.+18     	; 0x4b8 <I2C_read+0x80>
     4a6:	90 91 14 08 	lds	r25, 0x0814	; 0x800814 <__TEXT_REGION_LENGTH__+0x700814>
     4aa:	92 60       	ori	r25, 0x02	; 2
     4ac:	90 93 14 08 	sts	0x0814, r25	; 0x800814 <__TEXT_REGION_LENGTH__+0x700814>
     4b0:	08 95       	ret
		while (!(TWI0.MSTATUS & TWI_RIF_bm))						// wait for RIF set (data byte received)
		{
			if (!(timeout_I2C)) return 0xff;			            // return timeout error
		}
		TWI0.MSTATUS |= (TWI_RIF_bm | TWI_WIF_bm);					// clear Read and Write interrupt flags	
		if (TWI0.MSTATUS & TWI_BUSERR_bm) return 4;					// Bus Error, abort
     4b2:	84 e0       	ldi	r24, 0x04	; 4
     4b4:	08 95       	ret
		if (TWI0.MSTATUS & TWI_ARBLOST_bm) return 2;				// Arbitration Lost, abort
		if (TWI0.MSTATUS & TWI_RXACK_bm) return 1;					// Slave replied with NACK, abort				
     4b6:	81 e0       	ldi	r24, 0x01	; 1
		*data = TWI0.MDATA;
		if (ack_flag == 0) TWI0.MCTRLB |= TWI_MCMD_RECVTRANS_gc;	// send ACK, more bytes to follow					
		return 0;
	}
	else return 8;													// master does not control bus
}
     4b8:	08 95       	ret

000004ba <I2C_write>:

uint8_t I2C_write(uint8_t *data)									// write data, return status
{
     4ba:	fc 01       	movw	r30, r24
	timeout_I2C = WRITE_TIMEOUT;									// reset timeout counter, will be decremented by LED matrix interrupt
     4bc:	8c e0       	ldi	r24, 0x0C	; 12
     4be:	80 93 68 3a 	sts	0x3A68, r24	; 0x803a68 <timeout_I2C>
	if ((TWI0.MSTATUS & TWI_BUSSTATE_gm) == TWI_BUSSTATE_OWNER_gc)	// if master controls bus
     4c2:	90 91 15 08 	lds	r25, 0x0815	; 0x800815 <__TEXT_REGION_LENGTH__+0x700815>
     4c6:	93 70       	andi	r25, 0x03	; 3
     4c8:	92 30       	cpi	r25, 0x02	; 2
     4ca:	b1 f4       	brne	.+44     	; 0x4f8 <I2C_write+0x3e>
	{
		TWI0.MDATA = *data;		
     4cc:	80 81       	ld	r24, Z
     4ce:	80 93 18 08 	sts	0x0818, r24	; 0x800818 <__TEXT_REGION_LENGTH__+0x700818>
		while (!(TWI0.MSTATUS & TWI_WIF_bm))						// wait until WIF set, status register contains ACK/NACK bit
     4d2:	80 91 15 08 	lds	r24, 0x0815	; 0x800815 <__TEXT_REGION_LENGTH__+0x700815>
     4d6:	86 fd       	sbrc	r24, 6
     4d8:	06 c0       	rjmp	.+12     	; 0x4e6 <I2C_write+0x2c>
		{
			if (!(timeout_I2C)) return 0xff;			            // return timeout error
     4da:	80 91 68 3a 	lds	r24, 0x3A68	; 0x803a68 <timeout_I2C>
     4de:	81 11       	cpse	r24, r1
     4e0:	f8 cf       	rjmp	.-16     	; 0x4d2 <I2C_write+0x18>
     4e2:	8f ef       	ldi	r24, 0xFF	; 255
     4e4:	08 95       	ret
		}
		if (TWI0.MSTATUS & TWI_BUSERR_bm) return 4;					// Bus Error, abort
     4e6:	80 91 15 08 	lds	r24, 0x0815	; 0x800815 <__TEXT_REGION_LENGTH__+0x700815>
     4ea:	82 fd       	sbrc	r24, 2
     4ec:	07 c0       	rjmp	.+14     	; 0x4fc <I2C_write+0x42>
		if (TWI0.MSTATUS & TWI_RXACK_bm) return 1;					// Slave replied with NACK, abort
     4ee:	80 91 15 08 	lds	r24, 0x0815	; 0x800815 <__TEXT_REGION_LENGTH__+0x700815>
	if ((TWI0.MSTATUS & TWI_BUSSTATE_gm) == TWI_BUSSTATE_OWNER_gc)	// if master controls bus
	{
		TWI0.MDATA = *data;		
		while (!(TWI0.MSTATUS & TWI_WIF_bm))						// wait until WIF set, status register contains ACK/NACK bit
		{
			if (!(timeout_I2C)) return 0xff;			            // return timeout error
     4f2:	82 95       	swap	r24
     4f4:	81 70       	andi	r24, 0x01	; 1
     4f6:	08 95       	ret
		}
		if (TWI0.MSTATUS & TWI_BUSERR_bm) return 4;					// Bus Error, abort
		if (TWI0.MSTATUS & TWI_RXACK_bm) return 1;					// Slave replied with NACK, abort
		return 0;													// no error	
	}
	else return 8;													// master does not control bus
     4f8:	88 e0       	ldi	r24, 0x08	; 8
     4fa:	08 95       	ret
		TWI0.MDATA = *data;		
		while (!(TWI0.MSTATUS & TWI_WIF_bm))						// wait until WIF set, status register contains ACK/NACK bit
		{
			if (!(timeout_I2C)) return 0xff;			            // return timeout error
		}
		if (TWI0.MSTATUS & TWI_BUSERR_bm) return 4;					// Bus Error, abort
     4fc:	84 e0       	ldi	r24, 0x04	; 4
		if (TWI0.MSTATUS & TWI_RXACK_bm) return 1;					// Slave replied with NACK, abort
		return 0;													// no error	
	}
	else return 8;													// master does not control bus
}
     4fe:	08 95       	ret

00000500 <I2C_stop>:

void I2C_stop()
{
	TWI0.MCTRLB |= TWI_MCMD_STOP_gc;
     500:	e0 e1       	ldi	r30, 0x10	; 16
     502:	f8 e0       	ldi	r31, 0x08	; 8
     504:	84 81       	ldd	r24, Z+4	; 0x04
     506:	83 60       	ori	r24, 0x03	; 3
     508:	84 83       	std	Z+4, r24	; 0x04
     50a:	08 95       	ret

0000050c <I2C_read_bytes>:
// addr_ptr		address of first array element to transfer
// slave reg	starting slave register
// num_bytes	number of bytes to transfer

uint8_t	I2C_read_bytes(uint8_t slave_addr, uint8_t *reg_ptr, uint8_t reg_len, uint8_t *dat_ptr, uint8_t dat_len)
{
     50c:	cf 92       	push	r12
     50e:	df 92       	push	r13
     510:	ff 92       	push	r15
     512:	0f 93       	push	r16
     514:	1f 93       	push	r17
     516:	cf 93       	push	r28
     518:	df 93       	push	r29
     51a:	6b 01       	movw	r12, r22
     51c:	f4 2e       	mov	r15, r20
     51e:	e9 01       	movw	r28, r18
	uint8_t status;
	if (dat_len > MAX_LEN) dat_len = MAX_LEN;
	status = I2C_start(slave_addr << 1);							// slave write address, LSB 0
     520:	18 2f       	mov	r17, r24
     522:	11 0f       	add	r17, r17
     524:	81 2f       	mov	r24, r17
     526:	50 df       	rcall	.-352    	; 0x3c8 <I2C_start>
	if (status != 0) goto error;
     528:	81 11       	cpse	r24, r1
	status = I2C_wait_ACK();										// wait for slave ACK
     52a:	2b c0       	rjmp	.+86     	; 0x582 <I2C_read_bytes+0x76>
     52c:	5e df       	rcall	.-324    	; 0x3ea <I2C_wait_ACK>
	if (status == 1) {
     52e:	81 30       	cpi	r24, 0x01	; 1
		I2C_stop();													// NACK, abort
     530:	19 f4       	brne	.+6      	; 0x538 <I2C_read_bytes+0x2c>
     532:	e6 df       	rcall	.-52     	; 0x500 <I2C_stop>
		return 1;
     534:	81 e0       	ldi	r24, 0x01	; 1
     536:	27 c0       	rjmp	.+78     	; 0x586 <I2C_read_bytes+0x7a>
	}
	if (status != 0) goto error;
     538:	81 11       	cpse	r24, r1
     53a:	23 c0       	rjmp	.+70     	; 0x582 <I2C_read_bytes+0x76>
    while(reg_len > 0){
     53c:	ff 20       	and	r15, r15
	    status = I2C_write(reg_ptr);    							// send slave start register
     53e:	49 f0       	breq	.+18     	; 0x552 <I2C_read_bytes+0x46>
     540:	c6 01       	movw	r24, r12
     542:	bb df       	rcall	.-138    	; 0x4ba <I2C_write>
	    if (status != 0) goto error;
     544:	81 11       	cpse	r24, r1
     546:	1d c0       	rjmp	.+58     	; 0x582 <I2C_read_bytes+0x76>
        ++reg_ptr;
     548:	8f ef       	ldi	r24, 0xFF	; 255
     54a:	c8 1a       	sub	r12, r24
     54c:	d8 0a       	sbc	r13, r24
        --reg_len;
     54e:	fa 94       	dec	r15
     550:	f5 cf       	rjmp	.-22     	; 0x53c <I2C_read_bytes+0x30>
     552:	01 34       	cpi	r16, 0x41	; 65
     554:	08 f0       	brcs	.+2      	; 0x558 <I2C_read_bytes+0x4c>
     556:	00 e4       	ldi	r16, 0x40	; 64
    }
	I2C_rep_start((slave_addr << 1) + 1);							// slave read address, LSB 1
     558:	1f 5f       	subi	r17, 0xFF	; 255
// the Atmel device documentation mentions a special command for repeated start TWI_MCMD_REPSTART_gc,
// but this is not used in Atmel's demo code, so we don't use it either

void I2C_rep_start(uint8_t shifted_addr)						    // send repeated start, device_addr + LSB set if READ
{
	TWI0.MADDR = shifted_addr;	
     55a:	10 93 17 08 	sts	0x0817, r17	; 0x800817 <__TEXT_REGION_LENGTH__+0x700817>
	    if (status != 0) goto error;
        ++reg_ptr;
        --reg_len;
    }
	I2C_rep_start((slave_addr << 1) + 1);							// slave read address, LSB 1
	while (dat_len > 1) {
     55e:	02 30       	cpi	r16, 0x02	; 2
		status = I2C_read(dat_ptr, 0);								// first bytes, send ACK
     560:	40 f0       	brcs	.+16     	; 0x572 <I2C_read_bytes+0x66>
     562:	60 e0       	ldi	r22, 0x00	; 0
     564:	ce 01       	movw	r24, r28
     566:	68 df       	rcall	.-304    	; 0x438 <I2C_read>
		if (status != 0) goto error;
     568:	81 11       	cpse	r24, r1
     56a:	0b c0       	rjmp	.+22     	; 0x582 <I2C_read_bytes+0x76>
		++dat_ptr;
		--dat_len;
     56c:	21 96       	adiw	r28, 0x01	; 1
     56e:	01 50       	subi	r16, 0x01	; 1
	}
	status = I2C_read(dat_ptr, 1);									// single or last byte, send NACK
     570:	f6 cf       	rjmp	.-20     	; 0x55e <I2C_read_bytes+0x52>
     572:	61 e0       	ldi	r22, 0x01	; 1
     574:	ce 01       	movw	r24, r28
	if (status != 0) goto error;
     576:	60 df       	rcall	.-320    	; 0x438 <I2C_read>
     578:	81 11       	cpse	r24, r1
	I2C_stop();
     57a:	03 c0       	rjmp	.+6      	; 0x582 <I2C_read_bytes+0x76>
     57c:	c1 df       	rcall	.-126    	; 0x500 <I2C_stop>
	return 0;
     57e:	80 e0       	ldi	r24, 0x00	; 0
     580:	02 c0       	rjmp	.+4      	; 0x586 <I2C_read_bytes+0x7a>
	
error:
	I2C_recover();													// clock out possibly stuck slave, reset master
     582:	e4 de       	rcall	.-568    	; 0x34c <I2C_recover>
     584:	8f ef       	ldi	r24, 0xFF	; 255
	return 0xff;													// flag error
     586:	df 91       	pop	r29
}
     588:	cf 91       	pop	r28
     58a:	1f 91       	pop	r17
     58c:	0f 91       	pop	r16
     58e:	ff 90       	pop	r15
     590:	df 90       	pop	r13
     592:	cf 90       	pop	r12
     594:	08 95       	ret

00000596 <initLanyard>:
uint8_t         lanyardCnt = 0;
uint8_t         lanyardState = TRUE;
uint16_t        lanyardLastActive = 0;

void initLanyard() {
    lanyardPos      = 0;
     596:	10 92 3d 38 	sts	0x383D, r1	; 0x80383d <lanyardPos>
    lanyardCnt      = 0;
     59a:	10 92 3c 38 	sts	0x383C, r1	; 0x80383c <lanyardCnt>
    lanyardState    = TRUE;
     59e:	81 e0       	ldi	r24, 0x01	; 1
     5a0:	80 93 02 38 	sts	0x3802, r24	; 0x803802 <lanyardState>
    ClearHackerLeds();
     5a4:	0c 94 27 0b 	jmp	0x164e	; 0x164e <ClearHackerLeds>
     5a8:	08 95       	ret

000005aa <LanyardCode>:
}

// Main game loop
uint8_t LanyardCode(){
     5aa:	cf 93       	push	r28
    if (gameNow == LANYARD && idleTimeout(lanyardLastActive,LANYARD_MAX_IDLE)) {
     5ac:	80 91 42 38 	lds	r24, 0x3842	; 0x803842 <gameNow>
     5b0:	83 30       	cpi	r24, 0x03	; 3
     5b2:	81 f4       	brne	.+32     	; 0x5d4 <LanyardCode+0x2a>
     5b4:	6a e0       	ldi	r22, 0x0A	; 10
     5b6:	70 e0       	ldi	r23, 0x00	; 0
     5b8:	80 91 3a 38 	lds	r24, 0x383A	; 0x80383a <lanyardLastActive>
     5bc:	90 91 3b 38 	lds	r25, 0x383B	; 0x80383b <lanyardLastActive+0x1>
     5c0:	0e 94 41 0e 	call	0x1c82	; 0x1c82 <idleTimeout>
     5c4:	88 23       	and	r24, r24
     5c6:	31 f0       	breq	.+12     	; 0x5d4 <LanyardCode+0x2a>
        /* clean up maze game and go back to text game */
        initLanyard();
     5c8:	e6 df       	rcall	.-52     	; 0x596 <initLanyard>
        gameNow = TEXT;
     5ca:	10 92 42 38 	sts	0x3842, r1	; 0x803842 <gameNow>
        ClearHackerLeds();
     5ce:	0e 94 27 0b 	call	0x164e	; 0x164e <ClearHackerLeds>
        return 0;
     5d2:	a3 c0       	rjmp	.+326    	; 0x71a <LanyardCode+0x170>
    }

    if (CheckState(LANYARD_COMPLETED))
     5d4:	8b e7       	ldi	r24, 0x7B	; 123
     5d6:	2d d7       	rcall	.+3674   	; 0x1432 <CheckState>
     5d8:	81 11       	cpse	r24, r1
     5da:	9f c0       	rjmp	.+318    	; 0x71a <LanyardCode+0x170>
        return 0;

    if ( gameNow != TEXT && gameNow != LANYARD )
     5dc:	80 91 42 38 	lds	r24, 0x3842	; 0x803842 <gameNow>
     5e0:	88 23       	and	r24, r24
     5e2:	19 f0       	breq	.+6      	; 0x5ea <LanyardCode+0x40>
     5e4:	83 30       	cpi	r24, 0x03	; 3
     5e6:	09 f0       	breq	.+2      	; 0x5ea <LanyardCode+0x40>
     5e8:	98 c0       	rjmp	.+304    	; 0x71a <LanyardCode+0x170>
        return 0;

    /* activate led for buttonstate */
    iLED[CAT] = (buttonState==0xff ? 0 : dimValue);
     5ea:	c0 91 b2 be 	lds	r28, 0xBEB2	; 0x80beb2 <__bss_end+0x8398>
     5ee:	ec 2f       	mov	r30, r28
     5f0:	f0 e0       	ldi	r31, 0x00	; 0
     5f2:	80 91 08 38 	lds	r24, 0x3808	; 0x803808 <buttonState>
     5f6:	8f 3f       	cpi	r24, 0xFF	; 255
     5f8:	19 f0       	breq	.+6      	; 0x600 <LanyardCode+0x56>
     5fa:	90 91 0c 38 	lds	r25, 0x380C	; 0x80380c <dimValue>
     5fe:	01 c0       	rjmp	.+2      	; 0x602 <LanyardCode+0x58>
     600:	90 e0       	ldi	r25, 0x00	; 0
     602:	e5 53       	subi	r30, 0x35	; 53
     604:	f5 4c       	sbci	r31, 0xC5	; 197
     606:	90 83       	st	Z, r25

    if (buttonState == 0xff)
     608:	8f 3f       	cpi	r24, 0xFF	; 255
     60a:	09 f4       	brne	.+2      	; 0x60e <LanyardCode+0x64>
     60c:	86 c0       	rjmp	.+268    	; 0x71a <LanyardCode+0x170>
        return 0;

    if (buttonState == lastButtonState)
     60e:	90 91 07 38 	lds	r25, 0x3807	; 0x803807 <lastButtonState>
     612:	89 17       	cp	r24, r25
     614:	09 f4       	brne	.+2      	; 0x618 <LanyardCode+0x6e>
     616:	81 c0       	rjmp	.+258    	; 0x71a <LanyardCode+0x170>
        return 0;

    lanyardLastActive = getClock();
     618:	0e 94 32 0e 	call	0x1c64	; 0x1c64 <getClock>
     61c:	80 93 3a 38 	sts	0x383A, r24	; 0x80383a <lanyardLastActive>
     620:	90 93 3b 38 	sts	0x383B, r25	; 0x80383b <lanyardLastActive+0x1>

    if (lastButtonState == 0xff){
     624:	80 91 07 38 	lds	r24, 0x3807	; 0x803807 <lastButtonState>
     628:	8f 3f       	cpi	r24, 0xFF	; 255
     62a:	09 f0       	breq	.+2      	; 0x62e <LanyardCode+0x84>
     62c:	76 c0       	rjmp	.+236    	; 0x71a <LanyardCode+0x170>
        effect = 0x13f + (buttonState << 5);
     62e:	80 91 08 38 	lds	r24, 0x3808	; 0x803808 <buttonState>
     632:	20 e2       	ldi	r18, 0x20	; 32
     634:	82 9f       	mul	r24, r18
     636:	c0 01       	movw	r24, r0
     638:	11 24       	eor	r1, r1
     63a:	81 5c       	subi	r24, 0xC1	; 193
     63c:	9e 4f       	sbci	r25, 0xFE	; 254
     63e:	80 93 40 38 	sts	0x3840, r24	; 0x803840 <effect>
     642:	90 93 41 38 	sts	0x3841, r25	; 0x803841 <effect+0x1>

        if (gameNow != LANYARD)
     646:	80 91 42 38 	lds	r24, 0x3842	; 0x803842 <gameNow>
     64a:	83 30       	cpi	r24, 0x03	; 3
            initLanyard();
     64c:	09 f0       	breq	.+2      	; 0x650 <LanyardCode+0xa6>
     64e:	a3 df       	rcall	.-186    	; 0x596 <initLanyard>
        gameNow = LANYARD;
     650:	83 e0       	ldi	r24, 0x03	; 3
     652:	80 93 42 38 	sts	0x3842, r24	; 0x803842 <gameNow>

        if (buttonState == lanyardCode[lanyardPos]) {
     656:	80 91 3d 38 	lds	r24, 0x383D	; 0x80383d <lanyardPos>
     65a:	e8 2f       	mov	r30, r24
     65c:	f0 e0       	ldi	r31, 0x00	; 0
     65e:	ea 55       	subi	r30, 0x5A	; 90
     660:	f1 44       	sbci	r31, 0x41	; 65
     662:	20 81       	ld	r18, Z
     664:	90 91 08 38 	lds	r25, 0x3808	; 0x803808 <buttonState>
     668:	29 13       	cpse	r18, r25
     66a:	12 c0       	rjmp	.+36     	; 0x690 <LanyardCode+0xe6>
            lanyardState &= TRUE;
     66c:	90 91 02 38 	lds	r25, 0x3802	; 0x803802 <lanyardState>
     670:	91 70       	andi	r25, 0x01	; 1
     672:	90 93 02 38 	sts	0x3802, r25	; 0x803802 <lanyardState>
            iLED[EYE[R][L]] = 0;
     676:	e0 91 c1 be 	lds	r30, 0xBEC1	; 0x80bec1 <__bss_end+0x83a7>
     67a:	f0 e0       	ldi	r31, 0x00	; 0
     67c:	e5 53       	subi	r30, 0x35	; 53
     67e:	f5 4c       	sbci	r31, 0xC5	; 197
     680:	10 82       	st	Z, r1
            iLED[EYE[R][R]] = 0;
     682:	e0 91 c0 be 	lds	r30, 0xBEC0	; 0x80bec0 <__bss_end+0x83a6>
     686:	f0 e0       	ldi	r31, 0x00	; 0
     688:	e5 53       	subi	r30, 0x35	; 53
     68a:	f5 4c       	sbci	r31, 0xC5	; 197
     68c:	10 82       	st	Z, r1
     68e:	09 c0       	rjmp	.+18     	; 0x6a2 <LanyardCode+0xf8>
        } else {
            lanyardState = FALSE;
     690:	10 92 02 38 	sts	0x3802, r1	; 0x803802 <lanyardState>
            if (lanyardPos < 4 ) {
     694:	84 30       	cpi	r24, 0x04	; 4
                initLanyard();
     696:	28 f4       	brcc	.+10     	; 0x6a2 <LanyardCode+0xf8>
     698:	7e df       	rcall	.-260    	; 0x596 <initLanyard>
                gameNow         = BASTET;
     69a:	82 e0       	ldi	r24, 0x02	; 2
     69c:	80 93 42 38 	sts	0x3842, r24	; 0x803842 <gameNow>
                return 0;
     6a0:	3c c0       	rjmp	.+120    	; 0x71a <LanyardCode+0x170>
            }
        }
        lanyardPos++;
     6a2:	8f 5f       	subi	r24, 0xFF	; 255
     6a4:	80 93 3d 38 	sts	0x383D, r24	; 0x80383d <lanyardPos>
        lanyardCnt++;            
     6a8:	80 91 3c 38 	lds	r24, 0x383C	; 0x80383c <lanyardCnt>
     6ac:	8f 5f       	subi	r24, 0xFF	; 255
     6ae:	80 93 3c 38 	sts	0x383C, r24	; 0x80383c <lanyardCnt>
        WingBar(lanyardCnt,lanyardCnt);
     6b2:	68 2f       	mov	r22, r24
     6b4:	8e d7       	rcall	.+3868   	; 0x15d2 <WingBar>
        if (lanyardCnt >= 4) {
     6b6:	80 91 3c 38 	lds	r24, 0x383C	; 0x80383c <lanyardCnt>
     6ba:	84 30       	cpi	r24, 0x04	; 4
     6bc:	70 f1       	brcs	.+92     	; 0x71a <LanyardCode+0x170>
            lanyardCnt = 0;
     6be:	10 92 3c 38 	sts	0x383C, r1	; 0x80383c <lanyardCnt>
            if (lanyardState == TRUE) {
     6c2:	80 91 02 38 	lds	r24, 0x3802	; 0x803802 <lanyardState>
     6c6:	81 30       	cpi	r24, 0x01	; 1
     6c8:	09 f5       	brne	.+66     	; 0x70c <LanyardCode+0x162>
                if (lanyardCnt == 0) {
                    iLED[HCKR[G][(lanyardPos>>1)-2]] = dimValue;
     6ca:	80 91 3d 38 	lds	r24, 0x383D	; 0x80383d <lanyardPos>
     6ce:	e8 2f       	mov	r30, r24
     6d0:	e6 95       	lsr	r30
     6d2:	f0 e0       	ldi	r31, 0x00	; 0
     6d4:	ec 53       	subi	r30, 0x3C	; 60
     6d6:	f1 44       	sbci	r31, 0x41	; 65
     6d8:	a4 81       	ldd	r26, Z+4	; 0x04
     6da:	b0 e0       	ldi	r27, 0x00	; 0
     6dc:	90 91 0c 38 	lds	r25, 0x380C	; 0x80380c <dimValue>
     6e0:	a5 53       	subi	r26, 0x35	; 53
     6e2:	b5 4c       	sbci	r27, 0xC5	; 197
     6e4:	9c 93       	st	X, r25
                    iLED[HCKR[G][(lanyardPos>>1)-1]] = dimValue;
     6e6:	e5 81       	ldd	r30, Z+5	; 0x05
     6e8:	f0 e0       	ldi	r31, 0x00	; 0
     6ea:	90 91 0c 38 	lds	r25, 0x380C	; 0x80380c <dimValue>
     6ee:	e5 53       	subi	r30, 0x35	; 53
     6f0:	f5 4c       	sbci	r31, 0xC5	; 197
                }
                if (lanyardPos == LANYARD_LEN) {
     6f2:	90 83       	st	Z, r25
     6f4:	8c 30       	cpi	r24, 0x0C	; 12
                    UpdateState(LANYARD_COMPLETED);
     6f6:	89 f4       	brne	.+34     	; 0x71a <LanyardCode+0x170>
     6f8:	8b e7       	ldi	r24, 0x7B	; 123
     6fa:	7a d6       	rcall	.+3316   	; 0x13f0 <UpdateState>
                    iLED[CAT]       = 0;
     6fc:	ec 2f       	mov	r30, r28
     6fe:	f0 e0       	ldi	r31, 0x00	; 0
     700:	e5 53       	subi	r30, 0x35	; 53
     702:	f5 4c       	sbci	r31, 0xC5	; 197
                    effect = 0x42;
     704:	10 82       	st	Z, r1
     706:	82 e4       	ldi	r24, 0x42	; 66
     708:	90 e0       	ldi	r25, 0x00	; 0
                    /*TODO state = STATE_MUSIC;*/
                }
            } else {
                initLanyard();
     70a:	03 c0       	rjmp	.+6      	; 0x712 <LanyardCode+0x168>
     70c:	44 df       	rcall	.-376    	; 0x596 <initLanyard>
                effect = 0x21;
     70e:	81 e2       	ldi	r24, 0x21	; 33
     710:	90 e0       	ldi	r25, 0x00	; 0
     712:	80 93 40 38 	sts	0x3840, r24	; 0x803840 <effect>
     716:	90 93 41 38 	sts	0x3841, r25	; 0x803841 <effect+0x1>
            }
        }
    }

    return 0;
}
     71a:	80 e0       	ldi	r24, 0x00	; 0
     71c:	cf 91       	pop	r28
     71e:	08 95       	ret

00000720 <initMaze>:
uint8_t         mazeState = TRUE;
uint8_t         inverted  = FALSE;
uint16_t        mazeLastActive = 0;

void initMaze() {
    mazeHckrPos = 0;
     720:	10 92 4f 38 	sts	0x384F, r1	; 0x80384f <mazeHckrPos>
    mazePos = 0;
     724:	10 92 50 38 	sts	0x3850, r1	; 0x803850 <mazePos>
    mazeCnt = 0;
     728:	10 92 4e 38 	sts	0x384E, r1	; 0x80384e <mazeCnt>
    mazeState = TRUE;
     72c:	81 e0       	ldi	r24, 0x01	; 1
     72e:	80 93 0d 38 	sts	0x380D, r24	; 0x80380d <mazeState>
    inverted  = FALSE;
     732:	10 92 4d 38 	sts	0x384D, r1	; 0x80384d <inverted>
    ClearHackerLeds();
     736:	8b c7       	rjmp	.+3862   	; 0x164e <ClearHackerLeds>
     738:	08 95       	ret

0000073a <showFieldStrength>:
}

void showFieldStrength(int16_t val) {
     73a:	cf 93       	push	r28
     73c:	df 93       	push	r29
     73e:	ec 01       	movw	r28, r24
    int16_t field;
 
    field = abs(val);
     740:	97 ff       	sbrs	r25, 7
     742:	03 c0       	rjmp	.+6      	; 0x74a <showFieldStrength+0x10>
     744:	d1 95       	neg	r29
     746:	c1 95       	neg	r28
     748:	d1 09       	sbc	r29, r1
 
    if ( field > HALL_FIELD_0 ) {
     74a:	cd 33       	cpi	r28, 0x3D	; 61
     74c:	d1 05       	cpc	r29, r1
     74e:	44 f0       	brlt	.+16     	; 0x760 <showFieldStrength+0x26>
        if (gameNow == TEXT) {
     750:	80 91 42 38 	lds	r24, 0x3842	; 0x803842 <gameNow>
     754:	81 11       	cpse	r24, r1
     756:	04 c0       	rjmp	.+8      	; 0x760 <showFieldStrength+0x26>
            initMaze();
     758:	e3 df       	rcall	.-58     	; 0x720 <initMaze>
            gameNow = MAZE;
     75a:	81 e0       	ldi	r24, 0x01	; 1
     75c:	80 93 42 38 	sts	0x3842, r24	; 0x803842 <gameNow>
        }
    }

    if (gameNow == MAZE) {
     760:	80 91 42 38 	lds	r24, 0x3842	; 0x803842 <gameNow>
     764:	81 30       	cpi	r24, 0x01	; 1
     766:	09 f5       	brne	.+66     	; 0x7aa <showFieldStrength+0x70>
        if ( field < HALL_FIELD_0 )
     768:	cc 33       	cpi	r28, 0x3C	; 60
     76a:	d1 05       	cpc	r29, r1
     76c:	1c f4       	brge	.+6      	; 0x774 <showFieldStrength+0x3a>
            WingBar(0,0);
     76e:	60 e0       	ldi	r22, 0x00	; 0
     770:	80 e0       	ldi	r24, 0x00	; 0
     772:	1a c0       	rjmp	.+52     	; 0x7a8 <showFieldStrength+0x6e>
        else if ( field < HALL_FIELD_1 )
     774:	c8 37       	cpi	r28, 0x78	; 120
     776:	d1 05       	cpc	r29, r1
     778:	1c f4       	brge	.+6      	; 0x780 <showFieldStrength+0x46>
            WingBar(1,1);
     77a:	61 e0       	ldi	r22, 0x01	; 1
     77c:	81 e0       	ldi	r24, 0x01	; 1
     77e:	14 c0       	rjmp	.+40     	; 0x7a8 <showFieldStrength+0x6e>
        else if ( field < HALL_FIELD_2 )
     780:	c6 39       	cpi	r28, 0x96	; 150
     782:	d1 05       	cpc	r29, r1
     784:	1c f4       	brge	.+6      	; 0x78c <showFieldStrength+0x52>
            WingBar(2,2);
     786:	62 e0       	ldi	r22, 0x02	; 2
     788:	82 e0       	ldi	r24, 0x02	; 2
     78a:	0e c0       	rjmp	.+28     	; 0x7a8 <showFieldStrength+0x6e>
        else if ( field < HALL_FIELD_3 )
     78c:	c8 3c       	cpi	r28, 0xC8	; 200
     78e:	d1 05       	cpc	r29, r1
     790:	1c f4       	brge	.+6      	; 0x798 <showFieldStrength+0x5e>
            WingBar(3,3);
     792:	63 e0       	ldi	r22, 0x03	; 3
     794:	83 e0       	ldi	r24, 0x03	; 3
     796:	08 c0       	rjmp	.+16     	; 0x7a8 <showFieldStrength+0x6e>
        else if ( field < HALL_FIELD_4 )
     798:	cc 32       	cpi	r28, 0x2C	; 44
     79a:	d1 40       	sbci	r29, 0x01	; 1
     79c:	1c f4       	brge	.+6      	; 0x7a4 <showFieldStrength+0x6a>
            WingBar(4,4);
     79e:	64 e0       	ldi	r22, 0x04	; 4
     7a0:	84 e0       	ldi	r24, 0x04	; 4
     7a2:	02 c0       	rjmp	.+4      	; 0x7a8 <showFieldStrength+0x6e>
        else
            WingBar(5,5);
     7a4:	65 e0       	ldi	r22, 0x05	; 5
     7a6:	85 e0       	ldi	r24, 0x05	; 5
     7a8:	14 d7       	rcall	.+3624   	; 0x15d2 <WingBar>
    }
}
     7aa:	df 91       	pop	r29
     7ac:	cf 91       	pop	r28
     7ae:	08 95       	ret

000007b0 <MagnetMaze>:

// Main game loop
uint8_t MagnetMaze(){
     7b0:	cf 93       	push	r28
     7b2:	df 93       	push	r29
    if (gameNow == MAZE && idleTimeout(mazeLastActive,MAZE_MAX_IDLE)) {
     7b4:	80 91 42 38 	lds	r24, 0x3842	; 0x803842 <gameNow>
     7b8:	81 30       	cpi	r24, 0x01	; 1
     7ba:	71 f4       	brne	.+28     	; 0x7d8 <MagnetMaze+0x28>
     7bc:	6a e0       	ldi	r22, 0x0A	; 10
     7be:	70 e0       	ldi	r23, 0x00	; 0
     7c0:	80 91 4b 38 	lds	r24, 0x384B	; 0x80384b <mazeLastActive>
     7c4:	90 91 4c 38 	lds	r25, 0x384C	; 0x80384c <mazeLastActive+0x1>
     7c8:	0e 94 41 0e 	call	0x1c82	; 0x1c82 <idleTimeout>
     7cc:	88 23       	and	r24, r24
     7ce:	21 f0       	breq	.+8      	; 0x7d8 <MagnetMaze+0x28>
        /* clean up maze game and go back to text game */
        initMaze();
     7d0:	a7 df       	rcall	.-178    	; 0x720 <initMaze>
        gameNow = TEXT;
     7d2:	10 92 42 38 	sts	0x3842, r1	; 0x803842 <gameNow>
        return 0;
     7d6:	e5 c0       	rjmp	.+458    	; 0x9a2 <MagnetMaze+0x1f2>
    }
        
    if (CheckState(MAZE_INACTIVE))
     7d8:	87 ef       	ldi	r24, 0xF7	; 247
     7da:	2b d6       	rcall	.+3158   	; 0x1432 <CheckState>
     7dc:	81 11       	cpse	r24, r1
     7de:	e1 c0       	rjmp	.+450    	; 0x9a2 <MagnetMaze+0x1f2>
        return 0;

    if (CheckState(MAZE_COMPLETED))
     7e0:	8d e7       	ldi	r24, 0x7D	; 125
     7e2:	27 d6       	rcall	.+3150   	; 0x1432 <CheckState>
     7e4:	81 11       	cpse	r24, r1
     7e6:	dd c0       	rjmp	.+442    	; 0x9a2 <MagnetMaze+0x1f2>
     7e8:	80 91 42 38 	lds	r24, 0x3842	; 0x803842 <gameNow>
        return 0;

    if ( (gameNow != TEXT) && (gameNow != MAZE) )
     7ec:	82 30       	cpi	r24, 0x02	; 2
     7ee:	08 f0       	brcs	.+2      	; 0x7f2 <MagnetMaze+0x42>
     7f0:	d8 c0       	rjmp	.+432    	; 0x9a2 <MagnetMaze+0x1f2>
     7f2:	80 91 f3 3a 	lds	r24, 0x3AF3	; 0x803af3 <calHall>
        return 0;

    if (calHall == 0)
     7f6:	90 91 f4 3a 	lds	r25, 0x3AF4	; 0x803af4 <calHall+0x1>
     7fa:	89 2b       	or	r24, r25
     7fc:	41 f4       	brne	.+16     	; 0x80e <MagnetMaze+0x5e>
     7fe:	80 91 c3 3a 	lds	r24, 0x3AC3	; 0x803ac3 <adcHall>
        calHall = adcHall;
     802:	90 91 c4 3a 	lds	r25, 0x3AC4	; 0x803ac4 <adcHall+0x1>
     806:	80 93 f3 3a 	sts	0x3AF3, r24	; 0x803af3 <calHall>
     80a:	90 93 f4 3a 	sts	0x3AF4, r25	; 0x803af4 <calHall+0x1>
     80e:	c0 91 c3 3a 	lds	r28, 0x3AC3	; 0x803ac3 <adcHall>

    int16_t valHall = adcHall - calHall;
     812:	d0 91 c4 3a 	lds	r29, 0x3AC4	; 0x803ac4 <adcHall+0x1>
     816:	80 91 f3 3a 	lds	r24, 0x3AF3	; 0x803af3 <calHall>
     81a:	90 91 f4 3a 	lds	r25, 0x3AF4	; 0x803af4 <calHall+0x1>
     81e:	c8 1b       	sub	r28, r24
     820:	d9 0b       	sbc	r29, r25
    showFieldStrength(valHall);
     822:	ce 01       	movw	r24, r28
     824:	8a df       	rcall	.-236    	; 0x73a <showFieldStrength>
     826:	80 91 52 38 	lds	r24, 0x3852	; 0x803852 <curHallState>

    switch (curHallState) {
     82a:	81 30       	cpi	r24, 0x01	; 1
     82c:	89 f0       	breq	.+34     	; 0x850 <MagnetMaze+0xa0>
     82e:	18 f0       	brcs	.+6      	; 0x836 <MagnetMaze+0x86>
     830:	82 30       	cpi	r24, 0x02	; 2
     832:	c1 f0       	breq	.+48     	; 0x864 <MagnetMaze+0xb4>
     834:	1f c0       	rjmp	.+62     	; 0x874 <MagnetMaze+0xc4>
     836:	c4 3d       	cpi	r28, 0xD4	; 212
        case 0:
            if ( valHall + HALL_HIGH < 0 ) {
     838:	9e ef       	ldi	r25, 0xFE	; 254
     83a:	d9 07       	cpc	r29, r25
     83c:	14 f4       	brge	.+4      	; 0x842 <MagnetMaze+0x92>
     83e:	91 e0       	ldi	r25, 0x01	; 1
                newHallState = 1;
     840:	04 c0       	rjmp	.+8      	; 0x84a <MagnetMaze+0x9a>
     842:	cd 32       	cpi	r28, 0x2D	; 45
            } else if ( valHall - HALL_HIGH > 0 ) {
     844:	d1 40       	sbci	r29, 0x01	; 1
     846:	5c f0       	brlt	.+22     	; 0x85e <MagnetMaze+0xae>
     848:	92 e0       	ldi	r25, 0x02	; 2
                newHallState = 2;
     84a:	90 93 51 38 	sts	0x3851, r25	; 0x803851 <newHallState>
     84e:	12 c0       	rjmp	.+36     	; 0x874 <MagnetMaze+0xc4>
     850:	cd 32       	cpi	r28, 0x2D	; 45
                newHallState = 0;
            }
            break;
        
        case 1:
            if ( valHall - HALL_HIGH > 0 ) {
     852:	91 e0       	ldi	r25, 0x01	; 1
     854:	d9 07       	cpc	r29, r25
     856:	c4 f7       	brge	.-16     	; 0x848 <MagnetMaze+0x98>
     858:	c9 38       	cpi	r28, 0x89	; 137
                newHallState = 2;
            } else if ( valHall + HALL_LOW > 0 ) {
     85a:	df 4f       	sbci	r29, 0xFF	; 255
     85c:	84 f3       	brlt	.-32     	; 0x83e <MagnetMaze+0x8e>
     85e:	10 92 51 38 	sts	0x3851, r1	; 0x803851 <newHallState>
            if ( valHall + HALL_HIGH < 0 ) {
                newHallState = 1;
            } else if ( valHall - HALL_HIGH > 0 ) {
                newHallState = 2;
            } else {
                newHallState = 0;
     862:	08 c0       	rjmp	.+16     	; 0x874 <MagnetMaze+0xc4>
     864:	c4 3d       	cpi	r28, 0xD4	; 212
                newHallState = 1;
            }
            break;
        
        case 2:
            if ( valHall + HALL_HIGH < 0 ) {
     866:	9e ef       	ldi	r25, 0xFE	; 254
     868:	d9 07       	cpc	r29, r25
     86a:	4c f3       	brlt	.-46     	; 0x83e <MagnetMaze+0x8e>
     86c:	c8 37       	cpi	r28, 0x78	; 120
                newHallState = 1;
            } else if ( valHall - HALL_LOW < 0 ) {
     86e:	d1 05       	cpc	r29, r1
     870:	b4 f3       	brlt	.-20     	; 0x85e <MagnetMaze+0xae>
     872:	ea cf       	rjmp	.-44     	; 0x848 <MagnetMaze+0x98>
     874:	c0 91 b2 be 	lds	r28, 0xBEB2	; 0x80beb2 <__bss_end+0x8398>
            }
            break;
    }

    /* Indicate that the magnet was read succesfully */
    iLED[CAT] = (newHallState ? dimValue : 0);
     878:	ec 2f       	mov	r30, r28
     87a:	f0 e0       	ldi	r31, 0x00	; 0
     87c:	90 91 51 38 	lds	r25, 0x3851	; 0x803851 <newHallState>
     880:	99 23       	and	r25, r25
     882:	19 f0       	breq	.+6      	; 0x88a <MagnetMaze+0xda>
     884:	20 91 0c 38 	lds	r18, 0x380C	; 0x80380c <dimValue>
     888:	01 c0       	rjmp	.+2      	; 0x88c <MagnetMaze+0xdc>
     88a:	20 e0       	ldi	r18, 0x00	; 0
     88c:	e5 53       	subi	r30, 0x35	; 53
     88e:	f5 4c       	sbci	r31, 0xC5	; 197
     890:	20 83       	st	Z, r18
     892:	2f e9       	ldi	r18, 0x9F	; 159
    effect = 0x19f;
     894:	31 e0       	ldi	r19, 0x01	; 1
     896:	20 93 40 38 	sts	0x3840, r18	; 0x803840 <effect>
     89a:	30 93 41 38 	sts	0x3841, r19	; 0x803841 <effect+0x1>
     89e:	89 17       	cp	r24, r25

    if (newHallState != curHallState) {
     8a0:	09 f4       	brne	.+2      	; 0x8a4 <MagnetMaze+0xf4>
     8a2:	7f c0       	rjmp	.+254    	; 0x9a2 <MagnetMaze+0x1f2>
     8a4:	0e 94 32 0e 	call	0x1c64	; 0x1c64 <getClock>
        /* keep track of time to enable an idle timeout to exit the game */
        mazeLastActive = getClock();
     8a8:	80 93 4b 38 	sts	0x384B, r24	; 0x80384b <mazeLastActive>
     8ac:	90 93 4c 38 	sts	0x384C, r25	; 0x80384c <mazeLastActive+0x1>
     8b0:	90 91 50 38 	lds	r25, 0x3850	; 0x803850 <mazePos>

        /* Make the maze work regardless of badge orientation */
        if ((mazePos == 0) && (newHallState != 0))
     8b4:	80 91 51 38 	lds	r24, 0x3851	; 0x803851 <newHallState>
     8b8:	91 11       	cpse	r25, r1
     8ba:	08 c0       	rjmp	.+16     	; 0x8cc <MagnetMaze+0x11c>
     8bc:	88 23       	and	r24, r24
     8be:	31 f0       	breq	.+12     	; 0x8cc <MagnetMaze+0x11c>
     8c0:	91 e0       	ldi	r25, 0x01	; 1
            inverted = (newHallState != mazeCode[0]) ? TRUE : FALSE;
     8c2:	81 30       	cpi	r24, 0x01	; 1
     8c4:	09 f4       	brne	.+2      	; 0x8c8 <MagnetMaze+0x118>
     8c6:	90 e0       	ldi	r25, 0x00	; 0
     8c8:	90 93 4d 38 	sts	0x384D, r25	; 0x80384d <inverted>
     8cc:	80 93 52 38 	sts	0x3852, r24	; 0x803852 <curHallState>

        curHallState = newHallState;
     8d0:	88 23       	and	r24, r24
        
        if (curHallState != 0) {
     8d2:	09 f4       	brne	.+2      	; 0x8d6 <MagnetMaze+0x126>
     8d4:	66 c0       	rjmp	.+204    	; 0x9a2 <MagnetMaze+0x1f2>
     8d6:	80 91 42 38 	lds	r24, 0x3842	; 0x803842 <gameNow>
            if (gameNow == TEXT)
     8da:	81 11       	cpse	r24, r1
     8dc:	01 c0       	rjmp	.+2      	; 0x8e0 <MagnetMaze+0x130>
                initMaze();
     8de:	20 df       	rcall	.-448    	; 0x720 <initMaze>
     8e0:	81 e0       	ldi	r24, 0x01	; 1
            gameNow = MAZE;
     8e2:	80 93 42 38 	sts	0x3842, r24	; 0x803842 <gameNow>
     8e6:	80 91 4d 38 	lds	r24, 0x384D	; 0x80384d <inverted>

            if ( (inverted ? curHallState^3 : curHallState) == mazeCode[mazePos]) {
     8ea:	20 91 52 38 	lds	r18, 0x3852	; 0x803852 <curHallState>
     8ee:	88 23       	and	r24, r24
     8f0:	11 f0       	breq	.+4      	; 0x8f6 <MagnetMaze+0x146>
     8f2:	83 e0       	ldi	r24, 0x03	; 3
     8f4:	28 27       	eor	r18, r24
     8f6:	30 e0       	ldi	r19, 0x00	; 0
     8f8:	80 91 50 38 	lds	r24, 0x3850	; 0x803850 <mazePos>
     8fc:	e8 2f       	mov	r30, r24
     8fe:	f0 e0       	ldi	r31, 0x00	; 0
     900:	e0 50       	subi	r30, 0x00	; 0
     902:	f1 44       	sbci	r31, 0x41	; 65
     904:	40 81       	ld	r20, Z
     906:	50 e0       	ldi	r21, 0x00	; 0
     908:	24 17       	cp	r18, r20
     90a:	35 07       	cpc	r19, r21
     90c:	91 f4       	brne	.+36     	; 0x932 <MagnetMaze+0x182>
     90e:	90 91 0d 38 	lds	r25, 0x380D	; 0x80380d <mazeState>
                mazeState &= TRUE;
     912:	91 70       	andi	r25, 0x01	; 1
     914:	90 93 0d 38 	sts	0x380D, r25	; 0x80380d <mazeState>
     918:	e0 91 c1 be 	lds	r30, 0xBEC1	; 0x80bec1 <__bss_end+0x83a7>
                iLED[EYE[R][L]] = 0;
     91c:	f0 e0       	ldi	r31, 0x00	; 0
     91e:	e5 53       	subi	r30, 0x35	; 53
     920:	f5 4c       	sbci	r31, 0xC5	; 197
     922:	10 82       	st	Z, r1
     924:	e0 91 c0 be 	lds	r30, 0xBEC0	; 0x80bec0 <__bss_end+0x83a6>
                iLED[EYE[R][R]] = 0;
     928:	f0 e0       	ldi	r31, 0x00	; 0
     92a:	e5 53       	subi	r30, 0x35	; 53
     92c:	f5 4c       	sbci	r31, 0xC5	; 197
     92e:	10 82       	st	Z, r1
     930:	02 c0       	rjmp	.+4      	; 0x936 <MagnetMaze+0x186>
     932:	10 92 0d 38 	sts	0x380D, r1	; 0x80380d <mazeState>
            } else {
                mazeState = FALSE;
     936:	8f 5f       	subi	r24, 0xFF	; 255
            }
            mazePos++;
     938:	80 93 50 38 	sts	0x3850, r24	; 0x803850 <mazePos>
     93c:	90 91 4e 38 	lds	r25, 0x384E	; 0x80384e <mazeCnt>
            mazeCnt++;            
     940:	9f 5f       	subi	r25, 0xFF	; 255
     942:	93 30       	cpi	r25, 0x03	; 3
            if (mazeCnt >= 3) {
     944:	18 f4       	brcc	.+6      	; 0x94c <MagnetMaze+0x19c>
     946:	90 93 4e 38 	sts	0x384E, r25	; 0x80384e <mazeCnt>
                iLED[EYE[R][R]] = 0;
            } else {
                mazeState = FALSE;
            }
            mazePos++;
            mazeCnt++;            
     94a:	2b c0       	rjmp	.+86     	; 0x9a2 <MagnetMaze+0x1f2>
     94c:	10 92 4e 38 	sts	0x384E, r1	; 0x80384e <mazeCnt>
            if (mazeCnt >= 3) {
                mazeCnt = 0;
     950:	90 91 0d 38 	lds	r25, 0x380D	; 0x80380d <mazeState>
                if (mazeState == TRUE) {
     954:	91 30       	cpi	r25, 0x01	; 1
     956:	e1 f4       	brne	.+56     	; 0x990 <MagnetMaze+0x1e0>
     958:	90 91 4f 38 	lds	r25, 0x384F	; 0x80384f <mazeHckrPos>
                    iLED[HCKR[G][mazeHckrPos]] = dimValue;
     95c:	e9 2f       	mov	r30, r25
     95e:	f0 e0       	ldi	r31, 0x00	; 0
     960:	ec 53       	subi	r30, 0x3C	; 60
     962:	f1 44       	sbci	r31, 0x41	; 65
     964:	e6 81       	ldd	r30, Z+6	; 0x06
     966:	f0 e0       	ldi	r31, 0x00	; 0
     968:	20 91 0c 38 	lds	r18, 0x380C	; 0x80380c <dimValue>
     96c:	e5 53       	subi	r30, 0x35	; 53
     96e:	f5 4c       	sbci	r31, 0xC5	; 197
     970:	20 83       	st	Z, r18
     972:	9f 5f       	subi	r25, 0xFF	; 255
                    mazeHckrPos++;
     974:	90 93 4f 38 	sts	0x384F, r25	; 0x80384f <mazeHckrPos>
                    if (mazePos == sizeof(mazeCode)) {
     978:	82 31       	cpi	r24, 0x12	; 18
     97a:	99 f4       	brne	.+38     	; 0x9a2 <MagnetMaze+0x1f2>
                        UpdateState(MAZE_COMPLETED);
     97c:	8d e7       	ldi	r24, 0x7D	; 125
     97e:	38 d5       	rcall	.+2672   	; 0x13f0 <UpdateState>
     980:	ec 2f       	mov	r30, r28
                        iLED[CAT]       = 0;
     982:	f0 e0       	ldi	r31, 0x00	; 0
     984:	e5 53       	subi	r30, 0x35	; 53
     986:	f5 4c       	sbci	r31, 0xC5	; 197
     988:	10 82       	st	Z, r1
                        effect = 0x42;
     98a:	82 e4       	ldi	r24, 0x42	; 66
     98c:	90 e0       	ldi	r25, 0x00	; 0
     98e:	05 c0       	rjmp	.+10     	; 0x99a <MagnetMaze+0x1ea>
                        /*TODO state = STATE_MUSIC;*/
                    }
                } else {
                    initMaze();
     990:	c7 de       	rcall	.-626    	; 0x720 <initMaze>
     992:	10 92 42 38 	sts	0x3842, r1	; 0x803842 <gameNow>
                    gameNow   = TEXT;
     996:	81 e2       	ldi	r24, 0x21	; 33
                    effect = 0x21;
     998:	90 e0       	ldi	r25, 0x00	; 0
     99a:	80 93 40 38 	sts	0x3840, r24	; 0x803840 <effect>
     99e:	90 93 41 38 	sts	0x3841, r25	; 0x803841 <effect+0x1>
     9a2:	80 e0       	ldi	r24, 0x00	; 0
                }
            }
        }
    }
    return 0;
}
     9a4:	df 91       	pop	r29
     9a6:	cf 91       	pop	r28
     9a8:	08 95       	ret

000009aa <Setup>:
     9aa:	cf 93       	push	r28
static uint16_t lfsrSeed = 0;

uint8_t HeartCount = 0;
uint8_t LedCount = 0;

void Setup(){
     9ac:	df 93       	push	r29
    cli();
     9ae:	f8 94       	cli

    //Set up clock at 10MHz
    CCP = CCP_IOREG_gc;
     9b0:	88 ed       	ldi	r24, 0xD8	; 216
     9b2:	84 bf       	out	0x34, r24	; 52
    CLKCTRL_MCLKCTRLB = 0x01;
     9b4:	c1 e0       	ldi	r28, 0x01	; 1
     9b6:	c0 93 61 00 	sts	0x0061, r28	; 0x800061 <__TEXT_REGION_LENGTH__+0x700061>

    //Set I/O direction registers
    PORTA_DIR = 0b01001010;
     9ba:	8a e4       	ldi	r24, 0x4A	; 74
     9bc:	80 93 00 04 	sts	0x0400, r24	; 0x800400 <__TEXT_REGION_LENGTH__+0x700400>
    PORTB_DIR = 0b01111100;
     9c0:	8c e7       	ldi	r24, 0x7C	; 124
     9c2:	80 93 20 04 	sts	0x0420, r24	; 0x800420 <__TEXT_REGION_LENGTH__+0x700420>
    PORTC_DIR = 0b00111111;
     9c6:	9f e3       	ldi	r25, 0x3F	; 63
     9c8:	90 93 40 04 	sts	0x0440, r25	; 0x800440 <__TEXT_REGION_LENGTH__+0x700440>

    //Invert some pins for correcting LED reversal error
#ifndef PURIST_BADGE
    PORTC_PIN3CTRL |= 0x80;
     9cc:	80 91 53 04 	lds	r24, 0x0453	; 0x800453 <__TEXT_REGION_LENGTH__+0x700453>
     9d0:	80 68       	ori	r24, 0x80	; 128
     9d2:	80 93 53 04 	sts	0x0453, r24	; 0x800453 <__TEXT_REGION_LENGTH__+0x700453>
    PORTC_PIN4CTRL |= 0x80;
     9d6:	80 91 54 04 	lds	r24, 0x0454	; 0x800454 <__TEXT_REGION_LENGTH__+0x700454>
     9da:	80 68       	ori	r24, 0x80	; 128
     9dc:	80 93 54 04 	sts	0x0454, r24	; 0x800454 <__TEXT_REGION_LENGTH__+0x700454>
    PORTC_PIN5CTRL |= 0x80;
     9e0:	80 91 55 04 	lds	r24, 0x0455	; 0x800455 <__TEXT_REGION_LENGTH__+0x700455>
     9e4:	80 68       	ori	r24, 0x80	; 128
     9e6:	80 93 55 04 	sts	0x0455, r24	; 0x800455 <__TEXT_REGION_LENGTH__+0x700455>
    PORTB_PIN3CTRL |= 0x80;
     9ea:	80 91 33 04 	lds	r24, 0x0433	; 0x800433 <__TEXT_REGION_LENGTH__+0x700433>
     9ee:	80 68       	ori	r24, 0x80	; 128
     9f0:	80 93 33 04 	sts	0x0433, r24	; 0x800433 <__TEXT_REGION_LENGTH__+0x700433>
    PORTB_PIN4CTRL |= 0x80;
     9f4:	80 91 34 04 	lds	r24, 0x0434	; 0x800434 <__TEXT_REGION_LENGTH__+0x700434>
     9f8:	80 68       	ori	r24, 0x80	; 128
     9fa:	80 93 34 04 	sts	0x0434, r24	; 0x800434 <__TEXT_REGION_LENGTH__+0x700434>
    PORTB_PIN5CTRL |= 0x80;
     9fe:	80 91 35 04 	lds	r24, 0x0435	; 0x800435 <__TEXT_REGION_LENGTH__+0x700435>
     a02:	80 68       	ori	r24, 0x80	; 128
     a04:	80 93 35 04 	sts	0x0435, r24	; 0x800435 <__TEXT_REGION_LENGTH__+0x700435>
    PORTB_PIN2CTRL |= 0x80;
    PORTB_PIN6CTRL |= 0x80;
    */

    //UART (Alternative pins PA1=TxD, PA2=RxD, baudrate 9600, 8n1, RX and Buffer empty interrupts on)
    PORTMUX_CTRLB = 0x01;
     a08:	c0 93 01 02 	sts	0x0201, r28	; 0x800201 <__TEXT_REGION_LENGTH__+0x700201>
    PORTA_OUTSET = 0x02;
     a0c:	d2 e0       	ldi	r29, 0x02	; 2
     a0e:	d0 93 05 04 	sts	0x0405, r29	; 0x800405 <__TEXT_REGION_LENGTH__+0x700405>
    USART0_BAUD = (uint16_t)USART0_BAUD_RATE(115200);
     a12:	2b e5       	ldi	r18, 0x5B	; 91
     a14:	31 e0       	ldi	r19, 0x01	; 1
     a16:	20 93 08 08 	sts	0x0808, r18	; 0x800808 <__TEXT_REGION_LENGTH__+0x700808>
     a1a:	30 93 09 08 	sts	0x0809, r19	; 0x800809 <__TEXT_REGION_LENGTH__+0x700809>
    USART0_CTRLA = 0xA0; //Interrupts on
     a1e:	80 ea       	ldi	r24, 0xA0	; 160
     a20:	80 93 05 08 	sts	0x0805, r24	; 0x800805 <__TEXT_REGION_LENGTH__+0x700805>
    USART0_CTRLB = 0xC0; //RX and TX on
     a24:	80 ec       	ldi	r24, 0xC0	; 192
     a26:	80 93 06 08 	sts	0x0806, r24	; 0x800806 <__TEXT_REGION_LENGTH__+0x700806>
    USART0_CTRLC = 0x03; //8 bits data, no parity, 1 stop bit
     a2a:	83 e0       	ldi	r24, 0x03	; 3
     a2c:	80 93 07 08 	sts	0x0807, r24	; 0x800807 <__TEXT_REGION_LENGTH__+0x700807>
     
    //GPIO registers 0..3 can be used for global variables used in ISR routines (ASM capability: IN, OUT, SBI, CBI, SBIS, SBIC)
    L_COL = 0;     //Used in LED array to hold currently driven column value
     a30:	1c ba       	out	0x1c, r1	; 28
    RXCNT = 0;     //Used as UART receive counter
     a32:	1d ba       	out	0x1d, r1	; 29
    GPIOR3 = 0;    //
     a34:	1f ba       	out	0x1f, r1	; 31

    //Init TCA (split mode, f_CLK/16, PWM on 6 alternative pins, underflow int enabled, synced and started)
    TCA0_SPLIT_CTRLD = 1;
     a36:	c0 93 03 0a 	sts	0x0A03, r28	; 0x800a03 <__TEXT_REGION_LENGTH__+0x700a03>
    TCA0_SPLIT_CTRLA = (0x4)<<1;
     a3a:	88 e0       	ldi	r24, 0x08	; 8
     a3c:	80 93 00 0a 	sts	0x0A00, r24	; 0x800a00 <__TEXT_REGION_LENGTH__+0x700a00>
    PORTMUX_CTRLC = 0x3F;
     a40:	90 93 02 02 	sts	0x0202, r25	; 0x800202 <__TEXT_REGION_LENGTH__+0x700202>
    TCA0_SPLIT_CTRLB = 0x77;
     a44:	87 e7       	ldi	r24, 0x77	; 119
     a46:	80 93 01 0a 	sts	0x0A01, r24	; 0x800a01 <__TEXT_REGION_LENGTH__+0x700a01>
    TCA0_SPLIT_INTCTRL = 0x1;
     a4a:	c0 93 0a 0a 	sts	0x0A0A, r28	; 0x800a0a <__TEXT_REGION_LENGTH__+0x700a0a>
    TCA0_SPLIT_CTRLESET = ((0x2)<<2)|0x3;
     a4e:	8b e0       	ldi	r24, 0x0B	; 11
     a50:	80 93 05 0a 	sts	0x0A05, r24	; 0x800a05 <__TEXT_REGION_LENGTH__+0x700a05>
    TCA0_SPLIT_CTRLA |= 1;
     a54:	80 91 00 0a 	lds	r24, 0x0A00	; 0x800a00 <__TEXT_REGION_LENGTH__+0x700a00>
     a58:	81 60       	ori	r24, 0x01	; 1
     a5a:	80 93 00 0a 	sts	0x0A00, r24	; 0x800a00 <__TEXT_REGION_LENGTH__+0x700a00>
     
    //Init TCB0 (compare value sets serial Tx pause between characters, uses TCA0 prescaler, enabled, interrupt disabled)
    TCB0_CTRLA = ((0x02)<<1)|0x01;
     a5e:	85 e0       	ldi	r24, 0x05	; 5
     a60:	80 93 40 0a 	sts	0x0A40, r24	; 0x800a40 <__TEXT_REGION_LENGTH__+0x700a40>
    TCB0_CTRLB = 0;
     a64:	10 92 41 0a 	sts	0x0A41, r1	; 0x800a41 <__TEXT_REGION_LENGTH__+0x700a41>
    TCB0_CCMP = 0x01FF;
     a68:	8f ef       	ldi	r24, 0xFF	; 255
     a6a:	91 e0       	ldi	r25, 0x01	; 1
     a6c:	80 93 4c 0a 	sts	0x0A4C, r24	; 0x800a4c <__TEXT_REGION_LENGTH__+0x700a4c>
     a70:	90 93 4d 0a 	sts	0x0A4D, r25	; 0x800a4d <__TEXT_REGION_LENGTH__+0x700a4d>
    TCB0_INTCTRL = 0x00;     
     a74:	10 92 45 0a 	sts	0x0A45, r1	; 0x800a45 <__TEXT_REGION_LENGTH__+0x700a45>
     
    //Init TCB1 (compare value sets audio sample rate (0x038B = 11025sps), enabled, interrupt enabled)
    TCB1_CTRLA = 0x01;
     a78:	c0 93 50 0a 	sts	0x0A50, r28	; 0x800a50 <__TEXT_REGION_LENGTH__+0x700a50>
    TCB1_CTRLB = 0;
     a7c:	10 92 51 0a 	sts	0x0A51, r1	; 0x800a51 <__TEXT_REGION_LENGTH__+0x700a51>
    TCB1_CCMP = 0x038B;
     a80:	8b e8       	ldi	r24, 0x8B	; 139
     a82:	93 e0       	ldi	r25, 0x03	; 3
     a84:	80 93 5c 0a 	sts	0x0A5C, r24	; 0x800a5c <__TEXT_REGION_LENGTH__+0x700a5c>
     a88:	90 93 5d 0a 	sts	0x0A5D, r25	; 0x800a5d <__TEXT_REGION_LENGTH__+0x700a5d>
    TCB1_INTCTRL = 0x01;
     a8c:	c0 93 55 0a 	sts	0x0A55, r28	; 0x800a55 <__TEXT_REGION_LENGTH__+0x700a55>

    //Init I2C (100kHz)
    I2C_init();
     a90:	3f dc       	rcall	.-1922   	; 0x310 <I2C_init>

    //VREF (DAC, ADC's)
    VREF_CTRLA   = 0x12;    //0x22 for audio in/out (2.5V), 0x12 for temperature in, audio out (1.1V/2.5V)
     a92:	82 e1       	ldi	r24, 0x12	; 18
     a94:	80 93 a0 00 	sts	0x00A0, r24	; 0x8000a0 <__TEXT_REGION_LENGTH__+0x7000a0>
    VREF_CTRLC   = 0x20;    //ADC1 reference at 2.5V
     a98:	80 e2       	ldi	r24, 0x20	; 32
     a9a:	80 93 a2 00 	sts	0x00A2, r24	; 0x8000a2 <__TEXT_REGION_LENGTH__+0x7000a2>
    VREF_CTRLB   = 0x01;    //DAC0 ref forced enabled
     a9e:	c0 93 a1 00 	sts	0x00A1, r28	; 0x8000a1 <__TEXT_REGION_LENGTH__+0x7000a1>

    //Init ADC0 (audio in, also controls DAC output rate, internal temperature?)
    ADC0_CTRLA   = 0x02;    //10 bit resolution, free running
     aa2:	d0 93 00 06 	sts	0x0600, r29	; 0x800600 <__TEXT_REGION_LENGTH__+0x700600>
    ADC0_CTRLC   = 0x44;    //Reduced sample capacitor, internal reference, clock/32 => 24038sps
     aa6:	84 e4       	ldi	r24, 0x44	; 68
     aa8:	80 93 02 06 	sts	0x0602, r24	; 0x800602 <__TEXT_REGION_LENGTH__+0x700602>
    ADC0_MUXPOS  = 0x1E;    //Audio in: AIN7 at (0x07), Temperature: Internal sensor at (0x1E)
     aac:	8e e1       	ldi	r24, 0x1E	; 30
     aae:	80 93 06 06 	sts	0x0606, r24	; 0x800606 <__TEXT_REGION_LENGTH__+0x700606>
    ADC0_INTCTRL = 0x01;    //Result ready interrupt enabled
     ab2:	c0 93 0a 06 	sts	0x060A, r28	; 0x80060a <__TEXT_REGION_LENGTH__+0x70060a>
    ADC0_CTRLA  |= 0x01;    //ADC0 enabled
     ab6:	80 91 00 06 	lds	r24, 0x0600	; 0x800600 <__TEXT_REGION_LENGTH__+0x700600>
     aba:	81 60       	ori	r24, 0x01	; 1
     abc:	80 93 00 06 	sts	0x0600, r24	; 0x800600 <__TEXT_REGION_LENGTH__+0x700600>
    ADC0_COMMAND = 0x01;    //Start first conversion, after that it will run periodically.
     ac0:	c0 93 08 06 	sts	0x0608, r28	; 0x800608 <__TEXT_REGION_LENGTH__+0x700608>

    //Init ADC1 (buttons and sensors: CH0=Photo transistor, CH1=Hall, CH4=Buttons)
    ADC1_CTRLA   = 0;
     ac4:	10 92 40 06 	sts	0x0640, r1	; 0x800640 <__TEXT_REGION_LENGTH__+0x700640>
    ADC1_CTRLB   = 0x02;    //4 results automatically accumulated
     ac8:	d0 93 41 06 	sts	0x0641, r29	; 0x800641 <__TEXT_REGION_LENGTH__+0x700641>
    ADC1_CTRLC   = 0x52;    //Reduced sample capacitor, VDD as reference, clock/8
     acc:	82 e5       	ldi	r24, 0x52	; 82
     ace:	80 93 42 06 	sts	0x0642, r24	; 0x800642 <__TEXT_REGION_LENGTH__+0x700642>
    ADC1_SAMPCTRL= 0x04;    //Extend sampling time with 4 cycles (6 total)
     ad2:	84 e0       	ldi	r24, 0x04	; 4
     ad4:	80 93 45 06 	sts	0x0645, r24	; 0x800645 <__TEXT_REGION_LENGTH__+0x700645>
    ADC1_MUXPOS  = 0x04;    //Start with Buttons, for sensors, activate sensor power first.
     ad8:	80 93 46 06 	sts	0x0646, r24	; 0x800646 <__TEXT_REGION_LENGTH__+0x700646>
    ADC1_INTCTRL = 0x01;    //Result ready interrupt enabled
     adc:	c0 93 4a 06 	sts	0x064A, r28	; 0x80064a <__TEXT_REGION_LENGTH__+0x70064a>
    ADC1_CTRLA  |= 0x01;    //ADC0 enabled
     ae0:	80 91 40 06 	lds	r24, 0x0640	; 0x800640 <__TEXT_REGION_LENGTH__+0x700640>
     ae4:	81 60       	ori	r24, 0x01	; 1
     ae6:	80 93 40 06 	sts	0x0640, r24	; 0x800640 <__TEXT_REGION_LENGTH__+0x700640>
    ADC1_COMMAND = 0x01;    //Start single conversion
     aea:	c0 93 48 06 	sts	0x0648, r28	; 0x800648 <__TEXT_REGION_LENGTH__+0x700648>

    //Init DAC0
    DAC0_CTRLA = 0x40;     //Enable output buffer (connect to pin)
     aee:	80 e4       	ldi	r24, 0x40	; 64
     af0:	80 93 a0 06 	sts	0x06A0, r24	; 0x8006a0 <__TEXT_REGION_LENGTH__+0x7006a0>
    DAC0_DATA = 0x80;      //Data value at half point (about 1.25V)
     af4:	80 e8       	ldi	r24, 0x80	; 128
     af6:	80 93 a1 06 	sts	0x06A1, r24	; 0x8006a1 <__TEXT_REGION_LENGTH__+0x7006a1>
    DAC0_CTRLA |= 0x01;    //Enable DAC
     afa:	80 91 a0 06 	lds	r24, 0x06A0	; 0x8006a0 <__TEXT_REGION_LENGTH__+0x7006a0>
     afe:	81 60       	ori	r24, 0x01	; 1
     b00:	80 93 a0 06 	sts	0x06A0, r24	; 0x8006a0 <__TEXT_REGION_LENGTH__+0x7006a0>
     
    //PIT and RTC interrupts
    while(RTC_STATUS & RTC_CTRLABUSY_bm);
     b04:	80 91 41 01 	lds	r24, 0x0141	; 0x800141 <__TEXT_REGION_LENGTH__+0x700141>
     b08:	80 fd       	sbrc	r24, 0
     b0a:	fc cf       	rjmp	.-8      	; 0xb04 <Setup+0x15a>
    RTC_CTRLA          = (0x6)<<3;                         //Prescaler: /64
     b0c:	80 e3       	ldi	r24, 0x30	; 48
     b0e:	80 93 40 01 	sts	0x0140, r24	; 0x800140 <__TEXT_REGION_LENGTH__+0x700140>
    RTC_CLKSEL         = 0;                                //Clock source: internal 32768Hz clock
     b12:	10 92 47 01 	sts	0x0147, r1	; 0x800147 <__TEXT_REGION_LENGTH__+0x700147>
    while(RTC_STATUS & RTC_PERBUSY_bm);
     b16:	80 91 41 01 	lds	r24, 0x0141	; 0x800141 <__TEXT_REGION_LENGTH__+0x700141>
     b1a:	82 fd       	sbrc	r24, 2
     b1c:	fc cf       	rjmp	.-8      	; 0xb16 <Setup+0x16c>
    RTC_PER            = 512*60;                           //60 second period (for clocking how long the device has been running?)
     b1e:	80 e0       	ldi	r24, 0x00	; 0
     b20:	98 e7       	ldi	r25, 0x78	; 120
     b22:	80 93 4a 01 	sts	0x014A, r24	; 0x80014a <__TEXT_REGION_LENGTH__+0x70014a>
     b26:	90 93 4b 01 	sts	0x014B, r25	; 0x80014b <__TEXT_REGION_LENGTH__+0x70014b>
    tmp16bit = (RTC_CNT + BTN_TMR);
     b2a:	80 91 48 01 	lds	r24, 0x0148	; 0x800148 <__TEXT_REGION_LENGTH__+0x700148>
     b2e:	90 91 49 01 	lds	r25, 0x0149	; 0x800149 <__TEXT_REGION_LENGTH__+0x700149>
     b32:	82 96       	adiw	r24, 0x22	; 34
     b34:	80 93 f7 3a 	sts	0x3AF7, r24	; 0x803af7 <tmp16bit>
     b38:	90 93 f8 3a 	sts	0x3AF8, r25	; 0x803af8 <tmp16bit+0x1>
    if (tmp16bit > RTC_PER) tmp16bit -= RTC_PER;
     b3c:	20 91 4a 01 	lds	r18, 0x014A	; 0x80014a <__TEXT_REGION_LENGTH__+0x70014a>
     b40:	30 91 4b 01 	lds	r19, 0x014B	; 0x80014b <__TEXT_REGION_LENGTH__+0x70014b>
     b44:	80 91 f7 3a 	lds	r24, 0x3AF7	; 0x803af7 <tmp16bit>
     b48:	90 91 f8 3a 	lds	r25, 0x3AF8	; 0x803af8 <tmp16bit+0x1>
     b4c:	28 17       	cp	r18, r24
     b4e:	39 07       	cpc	r19, r25
     b50:	70 f4       	brcc	.+28     	; 0xb6e <Setup+0x1c4>
     b52:	20 91 4a 01 	lds	r18, 0x014A	; 0x80014a <__TEXT_REGION_LENGTH__+0x70014a>
     b56:	30 91 4b 01 	lds	r19, 0x014B	; 0x80014b <__TEXT_REGION_LENGTH__+0x70014b>
     b5a:	80 91 f7 3a 	lds	r24, 0x3AF7	; 0x803af7 <tmp16bit>
     b5e:	90 91 f8 3a 	lds	r25, 0x3AF8	; 0x803af8 <tmp16bit+0x1>
     b62:	82 1b       	sub	r24, r18
     b64:	93 0b       	sbc	r25, r19
     b66:	80 93 f7 3a 	sts	0x3AF7, r24	; 0x803af7 <tmp16bit>
     b6a:	90 93 f8 3a 	sts	0x3AF8, r25	; 0x803af8 <tmp16bit+0x1>
    while(RTC_STATUS & RTC_CMPBUSY_bm);
     b6e:	80 91 41 01 	lds	r24, 0x0141	; 0x800141 <__TEXT_REGION_LENGTH__+0x700141>
     b72:	83 fd       	sbrc	r24, 3
     b74:	fc cf       	rjmp	.-8      	; 0xb6e <Setup+0x1c4>
    RTC_CMP            = tmp16bit;                         //Button timing
     b76:	80 91 f7 3a 	lds	r24, 0x3AF7	; 0x803af7 <tmp16bit>
     b7a:	90 91 f8 3a 	lds	r25, 0x3AF8	; 0x803af8 <tmp16bit+0x1>
     b7e:	80 93 4c 01 	sts	0x014C, r24	; 0x80014c <__TEXT_REGION_LENGTH__+0x70014c>
     b82:	90 93 4d 01 	sts	0x014D, r25	; 0x80014d <__TEXT_REGION_LENGTH__+0x70014d>
    RTC_INTCTRL        = 0x03;                             //RTC overflow interrupt enabled
     b86:	83 e0       	ldi	r24, 0x03	; 3
     b88:	80 93 42 01 	sts	0x0142, r24	; 0x800142 <__TEXT_REGION_LENGTH__+0x700142>
    RTC_PITINTCTRL     = 0x01;                             //PIT interrupt enabled
     b8c:	81 e0       	ldi	r24, 0x01	; 1
     b8e:	80 93 52 01 	sts	0x0152, r24	; 0x800152 <__TEXT_REGION_LENGTH__+0x700152>
    RTC_PITCTRLA       = (0x1)<<3;                         //Interrupt fires after 4 RTC clock cycles Rate=(RTCCLK/(PRESC*PERIOD)) 32768/256=128Hz
     b92:	88 e0       	ldi	r24, 0x08	; 8
     b94:	80 93 50 01 	sts	0x0150, r24	; 0x800150 <__TEXT_REGION_LENGTH__+0x700150>
    while(RTC_STATUS & RTC_CTRLABUSY_bm);      
     b98:	80 91 41 01 	lds	r24, 0x0141	; 0x800141 <__TEXT_REGION_LENGTH__+0x700141>
     b9c:	80 fd       	sbrc	r24, 0
     b9e:	fc cf       	rjmp	.-8      	; 0xb98 <Setup+0x1ee>
    RTC_CTRLA          |= 0x01;                            //Enable RTC
     ba0:	80 91 40 01 	lds	r24, 0x0140	; 0x800140 <__TEXT_REGION_LENGTH__+0x700140>
     ba4:	81 60       	ori	r24, 0x01	; 1
     ba6:	80 93 40 01 	sts	0x0140, r24	; 0x800140 <__TEXT_REGION_LENGTH__+0x700140>
    RTC_PITCTRLA       |= 0x01;                            //Enable PIT
     baa:	80 91 50 01 	lds	r24, 0x0150	; 0x800150 <__TEXT_REGION_LENGTH__+0x700150>
     bae:	81 60       	ori	r24, 0x01	; 1
     bb0:	80 93 50 01 	sts	0x0150, r24	; 0x800150 <__TEXT_REGION_LENGTH__+0x700150>
     
    //Other inits
    serRx[0] = 0;           // Empty Rx buffer (first char is enough)
     bb4:	10 92 7d 3a 	sts	0x3A7D, r1	; 0x803a7d <serRx>
    serTxAddr = &serRx[0];  // Point to first address of the Rx buffer
     bb8:	8d e7       	ldi	r24, 0x7D	; 125
     bba:	9a e3       	ldi	r25, 0x3A	; 58
     bbc:	80 93 c1 3a 	sts	0x3AC1, r24	; 0x803ac1 <serTxAddr>
     bc0:	90 93 c2 3a 	sts	0x3AC2, r25	; 0x803ac2 <serTxAddr+0x1>
    adc0Chg = 255;          // Wait 10ms before taking samples from ADC0 (jack input / temperature sensor)
     bc4:	8f ef       	ldi	r24, 0xFF	; 255
     bc6:	80 93 3e 38 	sts	0x383E, r24	; 0x80383e <adc0Chg>

    sei();
     bca:	78 94       	sei
}
     bcc:	df 91       	pop	r29
     bce:	cf 91       	pop	r28
     bd0:	08 95       	ret

00000bd2 <__vector_8>:

// TCA0 is used for driving the LED matrix at 488Hz (* 5 columns = 2440Hz). The lower 8 bit underflow interrupt is used to load new values and shift between columns.
ISR(TCA0_LUNF_vect){
     bd2:	1f 92       	push	r1
     bd4:	0f 92       	push	r0
     bd6:	0f b6       	in	r0, 0x3f	; 63
     bd8:	0f 92       	push	r0
     bda:	11 24       	eor	r1, r1
     bdc:	8f 93       	push	r24
     bde:	9f 93       	push	r25
     be0:	af 93       	push	r26
     be2:	bf 93       	push	r27
     be4:	ef 93       	push	r30
     be6:	ff 93       	push	r31
    //Turn off all columns
    PORTC_OUTCLR = 0x07;
     be8:	87 e0       	ldi	r24, 0x07	; 7
     bea:	80 93 46 04 	sts	0x0446, r24	; 0x800446 <__TEXT_REGION_LENGTH__+0x700446>
    PORTB_OUTCLR = 0x44;
     bee:	84 e4       	ldi	r24, 0x44	; 68
     bf0:	80 93 26 04 	sts	0x0426, r24	; 0x800426 <__TEXT_REGION_LENGTH__+0x700426>
    "ldi r25, 6        \n"
    "ld r24, %a[arr]+  \n"
    "st %a[wo]+, r24   \n"
    "dec r25           \n"
    "brne .-8          \n"
    :: [wo] "e" (&TCA0_SPLIT_LCMP0), [arr] "e" (&iLED[(L_COL<<3)]) : "r25", "r24", "cc", "memory");
     bf4:	ec b3       	in	r30, 0x1c	; 28
     bf6:	88 e0       	ldi	r24, 0x08	; 8
     bf8:	e8 9f       	mul	r30, r24
     bfa:	f0 01       	movw	r30, r0
     bfc:	11 24       	eor	r1, r1
     bfe:	e5 53       	subi	r30, 0x35	; 53
     c00:	f5 4c       	sbci	r31, 0xC5	; 197
    //Turn off all columns
    PORTC_OUTCLR = 0x07;
    PORTB_OUTCLR = 0x44;

    //Write all of the compare registers of TCA0 with PWM values in array (rows)
    asm(
     c02:	a8 e2       	ldi	r26, 0x28	; 40
     c04:	ba e0       	ldi	r27, 0x0A	; 10
     c06:	96 e0       	ldi	r25, 0x06	; 6
     c08:	81 91       	ld	r24, Z+
     c0a:	8d 93       	st	X+, r24
     c0c:	9a 95       	dec	r25
     c0e:	e1 f7       	brne	.-8      	; 0xc08 <__vector_8+0x36>
    "st %a[wo]+, r24   \n"
    "dec r25           \n"
    "brne .-8          \n"
    :: [wo] "e" (&TCA0_SPLIT_LCMP0), [arr] "e" (&iLED[(L_COL<<3)]) : "r25", "r24", "cc", "memory");

    TCA0_SPLIT_CTRLESET = ((0x2)<<2)|0x3; //Sync timers: Moved this below the PWM value loading to fix the data shifting in asm above.
     c10:	8b e0       	ldi	r24, 0x0B	; 11
     c12:	80 93 05 0a 	sts	0x0A05, r24	; 0x800a05 <__TEXT_REGION_LENGTH__+0x700a05>

    //Turn on the right column
    if (L_COL<3) {
     c16:	8c b3       	in	r24, 0x1c	; 28
     c18:	83 30       	cpi	r24, 0x03	; 3
     c1a:	58 f4       	brcc	.+22     	; 0xc32 <__vector_8+0x60>
        asm(
     c1c:	8c b3       	in	r24, 0x1c	; 28
     c1e:	91 e0       	ldi	r25, 0x01	; 1
     c20:	01 c0       	rjmp	.+2      	; 0xc24 <__vector_8+0x52>
     c22:	99 0f       	add	r25, r25
     c24:	8a 95       	dec	r24
     c26:	ea f7       	brpl	.-6      	; 0xc22 <__vector_8+0x50>
     c28:	99 b9       	out	0x09, r25	; 9
     c2a:	8c b3       	in	r24, 0x1c	; 28
     c2c:	83 95       	inc	r24
     c2e:	8c bb       	out	0x1c, r24	; 28
     c30:	0a c0       	rjmp	.+20     	; 0xc46 <__vector_8+0x74>
        "in r24, %[io0]  \n"
        "inc r24         \n"
        "out %[io0], r24 \n"
        :: [io0] "I" (&L_COL), [vpc] "I" (&VPORTC_OUT) : "r24", "r25", "cc");
        } else {
        asm(
     c32:	8c b3       	in	r24, 0x1c	; 28
     c34:	83 30       	cpi	r24, 0x03	; 3
     c36:	21 f4       	brne	.+8      	; 0xc40 <__vector_8+0x6e>
     c38:	2a 9a       	sbi	0x05, 2	; 5
     c3a:	83 95       	inc	r24
     c3c:	8c bb       	out	0x1c, r24	; 28
     c3e:	03 c0       	rjmp	.+6      	; 0xc46 <__vector_8+0x74>
     c40:	2e 9a       	sbi	0x05, 6	; 5
     c42:	88 27       	eor	r24, r24
     c44:	8c bb       	out	0x1c, r24	; 28
        "clr r24         \n"
        "out %[io0], r24 \n"
        :: [io0] "I" (&L_COL), [vpb] "I" (&VPORTB_OUT) : "r24", "cc");
    }
    
    if(timeout_I2C) --timeout_I2C;
     c46:	80 91 68 3a 	lds	r24, 0x3A68	; 0x803a68 <timeout_I2C>
     c4a:	88 23       	and	r24, r24
     c4c:	29 f0       	breq	.+10     	; 0xc58 <__vector_8+0x86>
     c4e:	80 91 68 3a 	lds	r24, 0x3A68	; 0x803a68 <timeout_I2C>
     c52:	81 50       	subi	r24, 0x01	; 1
     c54:	80 93 68 3a 	sts	0x3A68, r24	; 0x803a68 <timeout_I2C>
    TCA0_SPLIT_INTFLAGS = 0xFF;
     c58:	8f ef       	ldi	r24, 0xFF	; 255
     c5a:	80 93 0b 0a 	sts	0x0A0B, r24	; 0x800a0b <__TEXT_REGION_LENGTH__+0x700a0b>
}
     c5e:	ff 91       	pop	r31
     c60:	ef 91       	pop	r30
     c62:	bf 91       	pop	r27
     c64:	af 91       	pop	r26
     c66:	9f 91       	pop	r25
     c68:	8f 91       	pop	r24
     c6a:	0f 90       	pop	r0
     c6c:	0f be       	out	0x3f, r0	; 63
     c6e:	0f 90       	pop	r0
     c70:	1f 90       	pop	r1
     c72:	18 95       	reti

00000c74 <__vector_13>:

// TCB0 is used for (slowly) sending serial characters. A 0x00 character code is needed to terminate sending or it will leak memory to serial. It's a feature, honest! 
ISR(TCB0_INT_vect){
     c74:	1f 92       	push	r1
     c76:	0f 92       	push	r0
     c78:	0f b6       	in	r0, 0x3f	; 63
     c7a:	0f 92       	push	r0
     c7c:	11 24       	eor	r1, r1
     c7e:	8f 93       	push	r24
     c80:	9f 93       	push	r25
     c82:	ef 93       	push	r30
     c84:	ff 93       	push	r31
    if (*serTxAddr) {
     c86:	e0 91 c1 3a 	lds	r30, 0x3AC1	; 0x803ac1 <serTxAddr>
     c8a:	f0 91 c2 3a 	lds	r31, 0x3AC2	; 0x803ac2 <serTxAddr+0x1>
     c8e:	80 81       	ld	r24, Z
     c90:	88 23       	and	r24, r24
     c92:	91 f0       	breq	.+36     	; 0xcb8 <__vector_13+0x44>
        USART0_TXDATAL = *serTxAddr;
     c94:	80 81       	ld	r24, Z
     c96:	80 93 02 08 	sts	0x0802, r24	; 0x800802 <__TEXT_REGION_LENGTH__+0x700802>
        ++serTxAddr;
     c9a:	80 91 c1 3a 	lds	r24, 0x3AC1	; 0x803ac1 <serTxAddr>
     c9e:	90 91 c2 3a 	lds	r25, 0x3AC2	; 0x803ac2 <serTxAddr+0x1>
     ca2:	01 96       	adiw	r24, 0x01	; 1
     ca4:	80 93 c1 3a 	sts	0x3AC1, r24	; 0x803ac1 <serTxAddr>
     ca8:	90 93 c2 3a 	sts	0x3AC2, r25	; 0x803ac2 <serTxAddr+0x1>
        USART0_CTRLA |= USART_DREIE_bm;
     cac:	80 91 05 08 	lds	r24, 0x0805	; 0x800805 <__TEXT_REGION_LENGTH__+0x700805>
     cb0:	80 62       	ori	r24, 0x20	; 32
     cb2:	80 93 05 08 	sts	0x0805, r24	; 0x800805 <__TEXT_REGION_LENGTH__+0x700805>
     cb6:	05 c0       	rjmp	.+10     	; 0xcc2 <__vector_13+0x4e>
    } else {
        serTxDone = 1;
     cb8:	81 e0       	ldi	r24, 0x01	; 1
     cba:	80 93 09 38 	sts	0x3809, r24	; 0x803809 <serTxDone>
        TCB0_INTCTRL = 0x00;
     cbe:	10 92 45 0a 	sts	0x0A45, r1	; 0x800a45 <__TEXT_REGION_LENGTH__+0x700a45>
    }
    TCB0_INTFLAGS = TCB_CAPT_bm;
     cc2:	81 e0       	ldi	r24, 0x01	; 1
     cc4:	80 93 46 0a 	sts	0x0A46, r24	; 0x800a46 <__TEXT_REGION_LENGTH__+0x700a46>
}
     cc8:	ff 91       	pop	r31
     cca:	ef 91       	pop	r30
     ccc:	9f 91       	pop	r25
     cce:	8f 91       	pop	r24
     cd0:	0f 90       	pop	r0
     cd2:	0f be       	out	0x3f, r0	; 63
     cd4:	0f 90       	pop	r0
     cd6:	1f 90       	pop	r1
     cd8:	18 95       	reti

00000cda <__vector_14>:

// TCB1 is used for audio generation. Keeps playing "data" until 0 is reached. Audio sample data can contain 0x01 to 0xFF, centered around 0x80
ISR(TCB1_INT_vect){
     cda:	1f 92       	push	r1
     cdc:	0f 92       	push	r0
     cde:	0f b6       	in	r0, 0x3f	; 63
     ce0:	0f 92       	push	r0
     ce2:	11 24       	eor	r1, r1
     ce4:	2f 93       	push	r18
     ce6:	3f 93       	push	r19
     ce8:	4f 93       	push	r20
     cea:	8f 93       	push	r24
     cec:	9f 93       	push	r25
     cee:	ef 93       	push	r30
     cf0:	ff 93       	push	r31
    int16_t volCtrl;
    if (*auSmpAddr == 0) auSmpAddr = auRepAddr;
     cf2:	e0 91 05 38 	lds	r30, 0x3805	; 0x803805 <auSmpAddr>
     cf6:	f0 91 06 38 	lds	r31, 0x3806	; 0x803806 <auSmpAddr+0x1>
     cfa:	80 81       	ld	r24, Z
     cfc:	81 11       	cpse	r24, r1
     cfe:	08 c0       	rjmp	.+16     	; 0xd10 <__vector_14+0x36>
     d00:	80 91 03 38 	lds	r24, 0x3803	; 0x803803 <auRepAddr>
     d04:	90 91 04 38 	lds	r25, 0x3804	; 0x803804 <auRepAddr+0x1>
     d08:	80 93 05 38 	sts	0x3805, r24	; 0x803805 <auSmpAddr>
     d0c:	90 93 06 38 	sts	0x3806, r25	; 0x803806 <auSmpAddr+0x1>
    if (*auSmpAddr) {
     d10:	e0 91 05 38 	lds	r30, 0x3805	; 0x803805 <auSmpAddr>
     d14:	f0 91 06 38 	lds	r31, 0x3806	; 0x803806 <auSmpAddr+0x1>
     d18:	80 81       	ld	r24, Z
     d1a:	88 23       	and	r24, r24
     d1c:	e1 f0       	breq	.+56     	; 0xd56 <__vector_14+0x7c>
        volCtrl = ((((int16_t)(*auSmpAddr) - 0x7f) * auVolume) >> 8) + 0x80;
     d1e:	20 81       	ld	r18, Z
     d20:	40 91 be 3a 	lds	r20, 0x3ABE	; 0x803abe <auVolume>
        DAC0_DATA = (uint8_t)(volCtrl);
     d24:	30 e0       	ldi	r19, 0x00	; 0
     d26:	2f 57       	subi	r18, 0x7F	; 127
     d28:	31 09       	sbc	r19, r1
     d2a:	42 9f       	mul	r20, r18
     d2c:	c0 01       	movw	r24, r0
     d2e:	43 9f       	mul	r20, r19
     d30:	90 0d       	add	r25, r0
     d32:	11 24       	eor	r1, r1
     d34:	89 2f       	mov	r24, r25
     d36:	99 0f       	add	r25, r25
     d38:	99 0b       	sbc	r25, r25
     d3a:	80 58       	subi	r24, 0x80	; 128
     d3c:	9f 4f       	sbci	r25, 0xFF	; 255
     d3e:	80 93 a1 06 	sts	0x06A1, r24	; 0x8006a1 <__TEXT_REGION_LENGTH__+0x7006a1>
        ++auSmpAddr;
     d42:	80 91 05 38 	lds	r24, 0x3805	; 0x803805 <auSmpAddr>
     d46:	90 91 06 38 	lds	r25, 0x3806	; 0x803806 <auSmpAddr+0x1>
     d4a:	01 96       	adiw	r24, 0x01	; 1
     d4c:	80 93 05 38 	sts	0x3805, r24	; 0x803805 <auSmpAddr>
     d50:	90 93 06 38 	sts	0x3806, r25	; 0x803806 <auSmpAddr+0x1>
     d54:	06 c0       	rjmp	.+12     	; 0xd62 <__vector_14+0x88>
    } else {
        auVolume = 0xff;
     d56:	8f ef       	ldi	r24, 0xFF	; 255
     d58:	80 93 be 3a 	sts	0x3ABE, r24	; 0x803abe <auVolume>
        DAC0_DATA = 0x80;
     d5c:	80 e8       	ldi	r24, 0x80	; 128
     d5e:	80 93 a1 06 	sts	0x06A1, r24	; 0x8006a1 <__TEXT_REGION_LENGTH__+0x7006a1>
    }
    TCB1_INTFLAGS = TCB_CAPT_bm;
     d62:	81 e0       	ldi	r24, 0x01	; 1
     d64:	80 93 56 0a 	sts	0x0A56, r24	; 0x800a56 <__TEXT_REGION_LENGTH__+0x700a56>
}
     d68:	ff 91       	pop	r31
     d6a:	ef 91       	pop	r30
     d6c:	9f 91       	pop	r25
     d6e:	8f 91       	pop	r24
     d70:	4f 91       	pop	r20
     d72:	3f 91       	pop	r19
     d74:	2f 91       	pop	r18
     d76:	0f 90       	pop	r0
     d78:	0f be       	out	0x3f, r0	; 63
     d7a:	0f 90       	pop	r0
     d7c:	1f 90       	pop	r1
     d7e:	18 95       	reti

00000d80 <__vector_27>:

// Reads up to RXLEN characters until LF is found, LF sets the serRxDone flag and writes 0 instead of LF.
ISR(USART0_RXC_vect){
     d80:	1f 92       	push	r1
     d82:	0f 92       	push	r0
     d84:	0f b6       	in	r0, 0x3f	; 63
     d86:	0f 92       	push	r0
     d88:	11 24       	eor	r1, r1
     d8a:	8f 93       	push	r24
     d8c:	ef 93       	push	r30
     d8e:	ff 93       	push	r31
    if (serRxDone == 0){
     d90:	80 91 4a 38 	lds	r24, 0x384A	; 0x80384a <serRxDone>
     d94:	81 11       	cpse	r24, r1
     d96:	44 c0       	rjmp	.+136    	; 0xe20 <__vector_27+0xa0>
        serRx[RXCNT] = USART0.RXDATAL;
     d98:	ed b3       	in	r30, 0x1d	; 29
     d9a:	f0 e0       	ldi	r31, 0x00	; 0
     d9c:	80 91 00 08 	lds	r24, 0x0800	; 0x800800 <__TEXT_REGION_LENGTH__+0x700800>
     da0:	e3 58       	subi	r30, 0x83	; 131
     da2:	f5 4c       	sbci	r31, 0xC5	; 197
     da4:	80 83       	st	Z, r24
        USART0_TXDATAL = serRx[RXCNT];
     da6:	ed b3       	in	r30, 0x1d	; 29
     da8:	f0 e0       	ldi	r31, 0x00	; 0
     daa:	e3 58       	subi	r30, 0x83	; 131
     dac:	f5 4c       	sbci	r31, 0xC5	; 197
     dae:	80 81       	ld	r24, Z
     db0:	80 93 02 08 	sts	0x0802, r24	; 0x800802 <__TEXT_REGION_LENGTH__+0x700802>
        if ((serRx[RXCNT] == 0x0A)||(serRx[RXCNT] == 0x0D)){
     db4:	ed b3       	in	r30, 0x1d	; 29
     db6:	f0 e0       	ldi	r31, 0x00	; 0
     db8:	e3 58       	subi	r30, 0x83	; 131
     dba:	f5 4c       	sbci	r31, 0xC5	; 197
     dbc:	80 81       	ld	r24, Z
     dbe:	8a 30       	cpi	r24, 0x0A	; 10
     dc0:	39 f0       	breq	.+14     	; 0xdd0 <__vector_27+0x50>
     dc2:	ed b3       	in	r30, 0x1d	; 29
     dc4:	f0 e0       	ldi	r31, 0x00	; 0
     dc6:	e3 58       	subi	r30, 0x83	; 131
     dc8:	f5 4c       	sbci	r31, 0xC5	; 197
     dca:	80 81       	ld	r24, Z
     dcc:	8d 30       	cpi	r24, 0x0D	; 13
     dce:	49 f4       	brne	.+18     	; 0xde2 <__vector_27+0x62>
            serRx[RXCNT] = 0;
     dd0:	ed b3       	in	r30, 0x1d	; 29
     dd2:	f0 e0       	ldi	r31, 0x00	; 0
     dd4:	e3 58       	subi	r30, 0x83	; 131
     dd6:	f5 4c       	sbci	r31, 0xC5	; 197
     dd8:	10 82       	st	Z, r1
            serRxDone = 1;
     dda:	81 e0       	ldi	r24, 0x01	; 1
     ddc:	80 93 4a 38 	sts	0x384A, r24	; 0x80384a <serRxDone>
     de0:	1f c0       	rjmp	.+62     	; 0xe20 <__vector_27+0xa0>
        } else if (((serRx[RXCNT] == 0x08)||(serRx[RXCNT] == 0x7F))&&(RXCNT > 0)) {
     de2:	ed b3       	in	r30, 0x1d	; 29
     de4:	f0 e0       	ldi	r31, 0x00	; 0
     de6:	e3 58       	subi	r30, 0x83	; 131
     de8:	f5 4c       	sbci	r31, 0xC5	; 197
     dea:	80 81       	ld	r24, Z
     dec:	88 30       	cpi	r24, 0x08	; 8
     dee:	39 f0       	breq	.+14     	; 0xdfe <__vector_27+0x7e>
     df0:	ed b3       	in	r30, 0x1d	; 29
     df2:	f0 e0       	ldi	r31, 0x00	; 0
     df4:	e3 58       	subi	r30, 0x83	; 131
     df6:	f5 4c       	sbci	r31, 0xC5	; 197
     df8:	80 81       	ld	r24, Z
     dfa:	8f 37       	cpi	r24, 0x7F	; 127
     dfc:	59 f4       	brne	.+22     	; 0xe14 <__vector_27+0x94>
     dfe:	8d b3       	in	r24, 0x1d	; 29
     e00:	88 23       	and	r24, r24
     e02:	41 f0       	breq	.+16     	; 0xe14 <__vector_27+0x94>
            serRx[RXCNT] = 0;
     e04:	ed b3       	in	r30, 0x1d	; 29
     e06:	f0 e0       	ldi	r31, 0x00	; 0
     e08:	e3 58       	subi	r30, 0x83	; 131
     e0a:	f5 4c       	sbci	r31, 0xC5	; 197
     e0c:	10 82       	st	Z, r1
            --RXCNT;
     e0e:	8d b3       	in	r24, 0x1d	; 29
     e10:	81 50       	subi	r24, 0x01	; 1
     e12:	05 c0       	rjmp	.+10     	; 0xe1e <__vector_27+0x9e>
        } else if (RXCNT < (RXLEN-1)) ++RXCNT;
     e14:	8d b3       	in	r24, 0x1d	; 29
     e16:	80 34       	cpi	r24, 0x40	; 64
     e18:	18 f4       	brcc	.+6      	; 0xe20 <__vector_27+0xa0>
     e1a:	8d b3       	in	r24, 0x1d	; 29
     e1c:	8f 5f       	subi	r24, 0xFF	; 255
     e1e:	8d bb       	out	0x1d, r24	; 29
    }
    USART0_STATUS = USART_RXCIF_bm;
     e20:	80 e8       	ldi	r24, 0x80	; 128
     e22:	80 93 04 08 	sts	0x0804, r24	; 0x800804 <__TEXT_REGION_LENGTH__+0x700804>
};
     e26:	ff 91       	pop	r31
     e28:	ef 91       	pop	r30
     e2a:	8f 91       	pop	r24
     e2c:	0f 90       	pop	r0
     e2e:	0f be       	out	0x3f, r0	; 63
     e30:	0f 90       	pop	r0
     e32:	1f 90       	pop	r1
     e34:	18 95       	reti

00000e36 <__vector_28>:

// Trigger new data write and turn off DRE interrupt.
ISR(USART0_DRE_vect){
     e36:	1f 92       	push	r1
     e38:	0f 92       	push	r0
     e3a:	0f b6       	in	r0, 0x3f	; 63
     e3c:	0f 92       	push	r0
     e3e:	11 24       	eor	r1, r1
     e40:	8f 93       	push	r24
     e42:	ef 93       	push	r30
     e44:	ff 93       	push	r31
    TCB0_CNT = 0;
     e46:	10 92 4a 0a 	sts	0x0A4A, r1	; 0x800a4a <__TEXT_REGION_LENGTH__+0x700a4a>
     e4a:	10 92 4b 0a 	sts	0x0A4B, r1	; 0x800a4b <__TEXT_REGION_LENGTH__+0x700a4b>
    TCB0_INTCTRL = 0x01;
     e4e:	81 e0       	ldi	r24, 0x01	; 1
     e50:	80 93 45 0a 	sts	0x0A45, r24	; 0x800a45 <__TEXT_REGION_LENGTH__+0x700a45>
    USART0_CTRLA &= ~(USART_DREIE_bm);
     e54:	e5 e0       	ldi	r30, 0x05	; 5
     e56:	f8 e0       	ldi	r31, 0x08	; 8
     e58:	80 81       	ld	r24, Z
     e5a:	8f 7d       	andi	r24, 0xDF	; 223
     e5c:	80 83       	st	Z, r24
};
     e5e:	ff 91       	pop	r31
     e60:	ef 91       	pop	r30
     e62:	8f 91       	pop	r24
     e64:	0f 90       	pop	r0
     e66:	0f be       	out	0x3f, r0	; 63
     e68:	0f 90       	pop	r0
     e6a:	1f 90       	pop	r1
     e6c:	18 95       	reti

00000e6e <__vector_20>:

// ADC used for audio input and temperature sensor.
ISR(ADC0_RESRDY_vect){
     e6e:	1f 92       	push	r1
     e70:	0f 92       	push	r0
     e72:	0f b6       	in	r0, 0x3f	; 63
     e74:	0f 92       	push	r0
     e76:	11 24       	eor	r1, r1
     e78:	8f 93       	push	r24
     e7a:	9f 93       	push	r25
    //If just switched reference, discard first few samples
    if (adc0Chg == 0){
     e7c:	80 91 3e 38 	lds	r24, 0x383E	; 0x80383e <adc0Chg>
     e80:	81 11       	cpse	r24, r1
     e82:	12 c0       	rjmp	.+36     	; 0xea8 <__vector_20+0x3a>
        if (ADC0_MUXPOS == 0x1E) adcTemp = ADC0_RES; else auIn=ADC0_RESL;
     e84:	80 91 06 06 	lds	r24, 0x0606	; 0x800606 <__TEXT_REGION_LENGTH__+0x700606>
     e88:	8e 31       	cpi	r24, 0x1E	; 30
     e8a:	49 f4       	brne	.+18     	; 0xe9e <__vector_20+0x30>
     e8c:	80 91 10 06 	lds	r24, 0x0610	; 0x800610 <__TEXT_REGION_LENGTH__+0x700610>
     e90:	90 91 11 06 	lds	r25, 0x0611	; 0x800611 <__TEXT_REGION_LENGTH__+0x700611>
     e94:	80 93 f5 3a 	sts	0x3AF5, r24	; 0x803af5 <adcTemp>
     e98:	90 93 f6 3a 	sts	0x3AF6, r25	; 0x803af6 <adcTemp+0x1>
     e9c:	0a c0       	rjmp	.+20     	; 0xeb2 <__vector_20+0x44>
     e9e:	80 91 10 06 	lds	r24, 0x0610	; 0x800610 <__TEXT_REGION_LENGTH__+0x700610>
     ea2:	80 93 ca 3a 	sts	0x3ACA, r24	; 0x803aca <auIn>
     ea6:	05 c0       	rjmp	.+10     	; 0xeb2 <__vector_20+0x44>
    } else --adc0Chg;
     ea8:	80 91 3e 38 	lds	r24, 0x383E	; 0x80383e <adc0Chg>
     eac:	81 50       	subi	r24, 0x01	; 1
     eae:	80 93 3e 38 	sts	0x383E, r24	; 0x80383e <adc0Chg>
    ADC0_INTFLAGS = ADC_RESRDY_bm;
     eb2:	81 e0       	ldi	r24, 0x01	; 1
     eb4:	80 93 0b 06 	sts	0x060B, r24	; 0x80060b <__TEXT_REGION_LENGTH__+0x70060b>
}
     eb8:	9f 91       	pop	r25
     eba:	8f 91       	pop	r24
     ebc:	0f 90       	pop	r0
     ebe:	0f be       	out	0x3f, r0	; 63
     ec0:	0f 90       	pop	r0
     ec2:	1f 90       	pop	r1
     ec4:	18 95       	reti

00000ec6 <__vector_22>:

// Reads out sensors at 8Hz and buttons at 42Hz (timed by PIT), power for the sensors is on 1/8th of the time to save power.
ISR(ADC1_RESRDY_vect){
     ec6:	1f 92       	push	r1
     ec8:	0f 92       	push	r0
     eca:	0f b6       	in	r0, 0x3f	; 63
     ecc:	0f 92       	push	r0
     ece:	11 24       	eor	r1, r1
     ed0:	8f 93       	push	r24
     ed2:	9f 93       	push	r25
    if (ADC1_MUXPOS == 0) {
     ed4:	80 91 46 06 	lds	r24, 0x0646	; 0x800646 <__TEXT_REGION_LENGTH__+0x700646>
     ed8:	81 11       	cpse	r24, r1
     eda:	0a c0       	rjmp	.+20     	; 0xef0 <__vector_22+0x2a>
        adcPhot = ADC1_RES;
     edc:	80 91 50 06 	lds	r24, 0x0650	; 0x800650 <__TEXT_REGION_LENGTH__+0x700650>
     ee0:	90 91 51 06 	lds	r25, 0x0651	; 0x800651 <__TEXT_REGION_LENGTH__+0x700651>
     ee4:	80 93 c5 3a 	sts	0x3AC5, r24	; 0x803ac5 <adcPhot>
     ee8:	90 93 c6 3a 	sts	0x3AC6, r25	; 0x803ac6 <adcPhot+0x1>
        ADC1_MUXPOS = 0x01;             //Select Hall sensor
     eec:	81 e0       	ldi	r24, 0x01	; 1
     eee:	10 c0       	rjmp	.+32     	; 0xf10 <__vector_22+0x4a>
    } else if (ADC1_MUXPOS == 1){
     ef0:	80 91 46 06 	lds	r24, 0x0646	; 0x800646 <__TEXT_REGION_LENGTH__+0x700646>
     ef4:	81 30       	cpi	r24, 0x01	; 1
     ef6:	79 f4       	brne	.+30     	; 0xf16 <__vector_22+0x50>
        PORTA_OUTCLR = 0b00001000;      //Turn off sensor power
     ef8:	88 e0       	ldi	r24, 0x08	; 8
     efa:	80 93 06 04 	sts	0x0406, r24	; 0x800406 <__TEXT_REGION_LENGTH__+0x700406>
        adcHall = ADC1_RES;
     efe:	80 91 50 06 	lds	r24, 0x0650	; 0x800650 <__TEXT_REGION_LENGTH__+0x700650>
     f02:	90 91 51 06 	lds	r25, 0x0651	; 0x800651 <__TEXT_REGION_LENGTH__+0x700651>
     f06:	80 93 c3 3a 	sts	0x3AC3, r24	; 0x803ac3 <adcHall>
     f0a:	90 93 c4 3a 	sts	0x3AC4, r25	; 0x803ac4 <adcHall+0x1>
        ADC1_MUXPOS = 0x04;             //select buttons
     f0e:	84 e0       	ldi	r24, 0x04	; 4
     f10:	80 93 46 06 	sts	0x0646, r24	; 0x800646 <__TEXT_REGION_LENGTH__+0x700646>
     f14:	10 c0       	rjmp	.+32     	; 0xf36 <__vector_22+0x70>
    } else {
        adcBtns = ADC1_RES;
     f16:	80 91 50 06 	lds	r24, 0x0650	; 0x800650 <__TEXT_REGION_LENGTH__+0x700650>
     f1a:	90 91 51 06 	lds	r25, 0x0651	; 0x800651 <__TEXT_REGION_LENGTH__+0x700651>
     f1e:	80 93 bf 3a 	sts	0x3ABF, r24	; 0x803abf <adcBtns>
     f22:	90 93 c0 3a 	sts	0x3AC0, r25	; 0x803ac0 <adcBtns+0x1>
        if (A1CNT == 15){
     f26:	8f b3       	in	r24, 0x1f	; 31
     f28:	8f 30       	cpi	r24, 0x0F	; 15
     f2a:	29 f4       	brne	.+10     	; 0xf36 <__vector_22+0x70>
            ADC1_MUXPOS = 0x00;         //Select photo transistor
     f2c:	10 92 46 06 	sts	0x0646, r1	; 0x800646 <__TEXT_REGION_LENGTH__+0x700646>
            PORTA_OUTSET = 0b00001000;  //Turn on sensor power
     f30:	88 e0       	ldi	r24, 0x08	; 8
     f32:	80 93 05 04 	sts	0x0405, r24	; 0x800405 <__TEXT_REGION_LENGTH__+0x700405>
        }
    }

    A1CNT=(A1CNT+1)%16;        
     f36:	8f b3       	in	r24, 0x1f	; 31
     f38:	90 e0       	ldi	r25, 0x00	; 0
     f3a:	01 96       	adiw	r24, 0x01	; 1
     f3c:	8f 70       	andi	r24, 0x0F	; 15
     f3e:	99 27       	eor	r25, r25
     f40:	8f bb       	out	0x1f, r24	; 31
    ADC1_INTFLAGS = ADC_RESRDY_bm;
     f42:	81 e0       	ldi	r24, 0x01	; 1
     f44:	80 93 4b 06 	sts	0x064B, r24	; 0x80064b <__TEXT_REGION_LENGTH__+0x70064b>
}
     f48:	9f 91       	pop	r25
     f4a:	8f 91       	pop	r24
     f4c:	0f 90       	pop	r0
     f4e:	0f be       	out	0x3f, r0	; 63
     f50:	0f 90       	pop	r0
     f52:	1f 90       	pop	r1
     f54:	18 95       	reti

00000f56 <__vector_6>:

// RTC compare interrupt, triggers at 512/BTN_TMR rate, also RTC overflow interrupt, triggers once a minute
ISR(RTC_CNT_vect) {
     f56:	1f 92       	push	r1
     f58:	0f 92       	push	r0
     f5a:	0f b6       	in	r0, 0x3f	; 63
     f5c:	0f 92       	push	r0
     f5e:	11 24       	eor	r1, r1
     f60:	2f 93       	push	r18
     f62:	3f 93       	push	r19
     f64:	8f 93       	push	r24
     f66:	9f 93       	push	r25
    if (RTC_INTFLAGS & RTC_CMP_bm){
     f68:	80 91 43 01 	lds	r24, 0x0143	; 0x800143 <__TEXT_REGION_LENGTH__+0x700143>
     f6c:	81 ff       	sbrs	r24, 1
     f6e:	36 c0       	rjmp	.+108    	; 0xfdc <__vector_6+0x86>
        if (buttonMark<0xff) ++buttonMark;   // For button timing purposes
     f70:	80 91 48 38 	lds	r24, 0x3848	; 0x803848 <buttonMark>
     f74:	8f 3f       	cpi	r24, 0xFF	; 255
     f76:	29 f0       	breq	.+10     	; 0xf82 <__vector_6+0x2c>
     f78:	80 91 48 38 	lds	r24, 0x3848	; 0x803848 <buttonMark>
     f7c:	8f 5f       	subi	r24, 0xFF	; 255
     f7e:	80 93 48 38 	sts	0x3848, r24	; 0x803848 <buttonMark>
        tmp16bit = (RTC_CNT + BTN_TMR);
     f82:	80 91 48 01 	lds	r24, 0x0148	; 0x800148 <__TEXT_REGION_LENGTH__+0x700148>
     f86:	90 91 49 01 	lds	r25, 0x0149	; 0x800149 <__TEXT_REGION_LENGTH__+0x700149>
     f8a:	82 96       	adiw	r24, 0x22	; 34
        while (tmp16bit > RTC_PER) tmp16bit -= RTC_PER;
     f8c:	80 93 f7 3a 	sts	0x3AF7, r24	; 0x803af7 <tmp16bit>
     f90:	90 93 f8 3a 	sts	0x3AF8, r25	; 0x803af8 <tmp16bit+0x1>
     f94:	20 91 4a 01 	lds	r18, 0x014A	; 0x80014a <__TEXT_REGION_LENGTH__+0x70014a>
     f98:	30 91 4b 01 	lds	r19, 0x014B	; 0x80014b <__TEXT_REGION_LENGTH__+0x70014b>
     f9c:	80 91 f7 3a 	lds	r24, 0x3AF7	; 0x803af7 <tmp16bit>
     fa0:	90 91 f8 3a 	lds	r25, 0x3AF8	; 0x803af8 <tmp16bit+0x1>
     fa4:	28 17       	cp	r18, r24
     fa6:	39 07       	cpc	r19, r25
     fa8:	58 f4       	brcc	.+22     	; 0xfc0 <__vector_6+0x6a>
     faa:	20 91 4a 01 	lds	r18, 0x014A	; 0x80014a <__TEXT_REGION_LENGTH__+0x70014a>
     fae:	30 91 4b 01 	lds	r19, 0x014B	; 0x80014b <__TEXT_REGION_LENGTH__+0x70014b>
     fb2:	80 91 f7 3a 	lds	r24, 0x3AF7	; 0x803af7 <tmp16bit>
     fb6:	90 91 f8 3a 	lds	r25, 0x3AF8	; 0x803af8 <tmp16bit+0x1>
     fba:	82 1b       	sub	r24, r18
     fbc:	93 0b       	sbc	r25, r19
     fbe:	e6 cf       	rjmp	.-52     	; 0xf8c <__vector_6+0x36>
        while(RTC_STATUS & RTC_CMPBUSY_bm);
     fc0:	80 91 41 01 	lds	r24, 0x0141	; 0x800141 <__TEXT_REGION_LENGTH__+0x700141>
     fc4:	83 fd       	sbrc	r24, 3
     fc6:	fc cf       	rjmp	.-8      	; 0xfc0 <__vector_6+0x6a>
        RTC_CMP = tmp16bit;                 // Button timing: next interrupt set
     fc8:	80 91 f7 3a 	lds	r24, 0x3AF7	; 0x803af7 <tmp16bit>
     fcc:	90 91 f8 3a 	lds	r25, 0x3AF8	; 0x803af8 <tmp16bit+0x1>
     fd0:	80 93 4c 01 	sts	0x014C, r24	; 0x80014c <__TEXT_REGION_LENGTH__+0x70014c>
     fd4:	90 93 4d 01 	sts	0x014D, r25	; 0x80014d <__TEXT_REGION_LENGTH__+0x70014d>
        RTC_INTFLAGS = RTC_CMP_bm;		    // clear interrupt flag
     fd8:	82 e0       	ldi	r24, 0x02	; 2
     fda:	06 c0       	rjmp	.+12     	; 0xfe8 <__vector_6+0x92>
    } else {
        ++minuteMark;                       // For very slow timing purposes, overflows to 0
     fdc:	80 91 49 38 	lds	r24, 0x3849	; 0x803849 <minuteMark>
     fe0:	8f 5f       	subi	r24, 0xFF	; 255
     fe2:	80 93 49 38 	sts	0x3849, r24	; 0x803849 <minuteMark>
        RTC_INTFLAGS = RTC_OVF_bm;		    // clear interrupt flag
     fe6:	81 e0       	ldi	r24, 0x01	; 1
     fe8:	80 93 43 01 	sts	0x0143, r24	; 0x800143 <__TEXT_REGION_LENGTH__+0x700143>
    }
}
     fec:	9f 91       	pop	r25
     fee:	8f 91       	pop	r24
     ff0:	3f 91       	pop	r19
     ff2:	2f 91       	pop	r18
     ff4:	0f 90       	pop	r0
     ff6:	0f be       	out	0x3f, r0	; 63
     ff8:	0f 90       	pop	r0
     ffa:	1f 90       	pop	r1
     ffc:	18 95       	reti

00000ffe <__vector_7>:

// PIT interrupt (timing of ADC1: sensor values)
ISR(RTC_PIT_vect) {						// PIT interrupt handling code
     ffe:	1f 92       	push	r1
    1000:	0f 92       	push	r0
    1002:	0f b6       	in	r0, 0x3f	; 63
    1004:	0f 92       	push	r0
    1006:	11 24       	eor	r1, r1
    1008:	8f 93       	push	r24
    ADC1_COMMAND = 0x01;
    100a:	81 e0       	ldi	r24, 0x01	; 1
    100c:	80 93 48 06 	sts	0x0648, r24	; 0x800648 <__TEXT_REGION_LENGTH__+0x700648>
    RTC_PITINTFLAGS = RTC_PI_bm;		// clear interrupt flag
    1010:	80 93 53 01 	sts	0x0153, r24	; 0x800153 <__TEXT_REGION_LENGTH__+0x700153>
}
    1014:	8f 91       	pop	r24
    1016:	0f 90       	pop	r0
    1018:	0f be       	out	0x3f, r0	; 63
    101a:	0f 90       	pop	r0
    101c:	1f 90       	pop	r1
    101e:	18 95       	reti

00001020 <EERead>:

// Read bytes from EEPROM
void EERead(uint8_t eeAddr, uint8_t *eeValues, uint8_t size)
{
    while(NVMCTRL_STATUS & NVMCTRL_EEBUSY_bm);              // Wait until any write operation has finished
    1020:	90 91 02 10 	lds	r25, 0x1002	; 0x801002 <__TEXT_REGION_LENGTH__+0x701002>
    1024:	91 fd       	sbrc	r25, 1
    1026:	fc cf       	rjmp	.-8      	; 0x1020 <EERead>
    1028:	fb 01       	movw	r30, r22
    102a:	48 0f       	add	r20, r24

    while(size){
    102c:	84 17       	cp	r24, r20
    102e:	39 f0       	breq	.+14     	; 0x103e <EERead+0x1e>
        *eeValues++ = *(uint8_t *)(EEPROM_START+eeAddr++);  // Read data from buffer
    1030:	a8 2f       	mov	r26, r24
    1032:	b0 e0       	ldi	r27, 0x00	; 0
    1034:	bc 5e       	subi	r27, 0xEC	; 236
    1036:	9c 91       	ld	r25, X
    1038:	91 93       	st	Z+, r25
    103a:	8f 5f       	subi	r24, 0xFF	; 255
    103c:	f7 cf       	rjmp	.-18     	; 0x102c <EERead+0xc>
        --size;
    }
}
    103e:	08 95       	ret

00001040 <EEWrite>:
{
    uint8_t lastByteOfPage;
    while(size){
        lastByteOfPage = 0;
        while(NVMCTRL_STATUS & NVMCTRL_EEBUSY_bm);              // Wait until any write operation has finished
        CCP = CCP_SPM_gc;                                       // Gain access to NVMCTRL_CTRLA
    1040:	9d e9       	ldi	r25, 0x9D	; 157
        NVMCTRL_CTRLA = NVMCTRL_CMD_PAGEBUFCLR_gc;              // Clear page buffer
    1042:	24 e0       	ldi	r18, 0x04	; 4
            if ((eeAddr % EEPROM_PAGE_SIZE) == (EEPROM_PAGE_SIZE-1)) lastByteOfPage = 1;
            *(uint8_t *)(EEPROM_START+eeAddr++) = *eeValues++;  // Write data to buffer
            --size;
        }
        CCP = CCP_SPM_gc;
        NVMCTRL_CTRLA = NVMCTRL_CMD_PAGEERASEWRITE_gc;          // Erase old data and write new data to EEPROM
    1044:	33 e0       	ldi	r19, 0x03	; 3

// Write bytes to the EEPROM, if address exceeds EEPROM space data wraps around
uint8_t EEWrite(uint8_t eeAddr, uint8_t *eeValues, uint8_t size)
{
    uint8_t lastByteOfPage;
    while(size){
    1046:	44 23       	and	r20, r20
    1048:	09 f1       	breq	.+66     	; 0x108c <EEWrite+0x4c>
        lastByteOfPage = 0;
        while(NVMCTRL_STATUS & NVMCTRL_EEBUSY_bm);              // Wait until any write operation has finished
    104a:	50 91 02 10 	lds	r21, 0x1002	; 0x801002 <__TEXT_REGION_LENGTH__+0x701002>
    104e:	51 fd       	sbrc	r21, 1
    1050:	fc cf       	rjmp	.-8      	; 0x104a <EEWrite+0xa>
        CCP = CCP_SPM_gc;                                       // Gain access to NVMCTRL_CTRLA
    1052:	94 bf       	out	0x34, r25	; 52
        NVMCTRL_CTRLA = NVMCTRL_CMD_PAGEBUFCLR_gc;              // Clear page buffer
    1054:	20 93 00 10 	sts	0x1000, r18	; 0x801000 <__TEXT_REGION_LENGTH__+0x701000>
    1058:	e8 2f       	mov	r30, r24
        while((size) && (lastByteOfPage == 0)){
            if ((eeAddr % EEPROM_PAGE_SIZE) == (EEPROM_PAGE_SIZE-1)) lastByteOfPage = 1;
    105a:	58 2f       	mov	r21, r24
    105c:	5f 71       	andi	r21, 0x1F	; 31
            *(uint8_t *)(EEPROM_START+eeAddr++) = *eeValues++;  // Write data to buffer
    105e:	8f 5f       	subi	r24, 0xFF	; 255
    1060:	6f 5f       	subi	r22, 0xFF	; 255
    1062:	7f 4f       	sbci	r23, 0xFF	; 255
    1064:	db 01       	movw	r26, r22
    1066:	11 97       	sbiw	r26, 0x01	; 1
    1068:	ac 91       	ld	r26, X
    106a:	f0 e0       	ldi	r31, 0x00	; 0
    106c:	fc 5e       	subi	r31, 0xEC	; 236
    106e:	a0 83       	st	Z, r26
            --size;
    1070:	41 50       	subi	r20, 0x01	; 1
    while(size){
        lastByteOfPage = 0;
        while(NVMCTRL_STATUS & NVMCTRL_EEBUSY_bm);              // Wait until any write operation has finished
        CCP = CCP_SPM_gc;                                       // Gain access to NVMCTRL_CTRLA
        NVMCTRL_CTRLA = NVMCTRL_CMD_PAGEBUFCLR_gc;              // Clear page buffer
        while((size) && (lastByteOfPage == 0)){
    1072:	19 f0       	breq	.+6      	; 0x107a <EEWrite+0x3a>
            if ((eeAddr % EEPROM_PAGE_SIZE) == (EEPROM_PAGE_SIZE-1)) lastByteOfPage = 1;
            *(uint8_t *)(EEPROM_START+eeAddr++) = *eeValues++;  // Write data to buffer
    1074:	e8 2f       	mov	r30, r24
    while(size){
        lastByteOfPage = 0;
        while(NVMCTRL_STATUS & NVMCTRL_EEBUSY_bm);              // Wait until any write operation has finished
        CCP = CCP_SPM_gc;                                       // Gain access to NVMCTRL_CTRLA
        NVMCTRL_CTRLA = NVMCTRL_CMD_PAGEBUFCLR_gc;              // Clear page buffer
        while((size) && (lastByteOfPage == 0)){
    1076:	5f 31       	cpi	r21, 0x1F	; 31
    1078:	81 f7       	brne	.-32     	; 0x105a <EEWrite+0x1a>
            if ((eeAddr % EEPROM_PAGE_SIZE) == (EEPROM_PAGE_SIZE-1)) lastByteOfPage = 1;
            *(uint8_t *)(EEPROM_START+eeAddr++) = *eeValues++;  // Write data to buffer
            --size;
        }
        CCP = CCP_SPM_gc;
    107a:	94 bf       	out	0x34, r25	; 52
        NVMCTRL_CTRLA = NVMCTRL_CMD_PAGEERASEWRITE_gc;          // Erase old data and write new data to EEPROM
    107c:	30 93 00 10 	sts	0x1000, r19	; 0x801000 <__TEXT_REGION_LENGTH__+0x701000>
        if (NVMCTRL_STATUS & NVMCTRL_WRERROR_bm) return 1;
    1080:	50 91 02 10 	lds	r21, 0x1002	; 0x801002 <__TEXT_REGION_LENGTH__+0x701002>
    1084:	52 ff       	sbrs	r21, 2
    1086:	df cf       	rjmp	.-66     	; 0x1046 <EEWrite+0x6>
    1088:	81 e0       	ldi	r24, 0x01	; 1
    }
    return 0;
}
    108a:	08 95       	ret
        }
        CCP = CCP_SPM_gc;
        NVMCTRL_CTRLA = NVMCTRL_CMD_PAGEERASEWRITE_gc;          // Erase old data and write new data to EEPROM
        if (NVMCTRL_STATUS & NVMCTRL_WRERROR_bm) return 1;
    }
    return 0;
    108c:	80 e0       	ldi	r24, 0x00	; 0
    108e:	08 95       	ret

00001090 <DecryptData>:
}

//Decrypts data read from I2C EEPROM, max 255 bytes at a time
void DecryptData(uint16_t offset, uint8_t length, uint8_t type, uint8_t *data){
    1090:	f9 01       	movw	r30, r18
    //offset += L_BOILER;
    while(length){
        *data ^= xor_key[type][(uint8_t)(offset%KEY_LENGTH)];
    1092:	9c 01       	movw	r18, r24
    1094:	2e 1b       	sub	r18, r30
    1096:	3f 0b       	sbc	r19, r31
    1098:	88 e0       	ldi	r24, 0x08	; 8
    109a:	48 9f       	mul	r20, r24
    109c:	a0 01       	movw	r20, r0
    109e:	11 24       	eor	r1, r1
    10a0:	40 51       	subi	r20, 0x10	; 16
    10a2:	51 44       	sbci	r21, 0x41	; 65
}

//Decrypts data read from I2C EEPROM, max 255 bytes at a time
void DecryptData(uint16_t offset, uint8_t length, uint8_t type, uint8_t *data){
    //offset += L_BOILER;
    while(length){
    10a4:	66 23       	and	r22, r22
    10a6:	69 f0       	breq	.+26     	; 0x10c2 <DecryptData+0x32>
        *data ^= xor_key[type][(uint8_t)(offset%KEY_LENGTH)];
    10a8:	df 01       	movw	r26, r30
    10aa:	a2 0f       	add	r26, r18
    10ac:	b3 1f       	adc	r27, r19
    10ae:	a7 70       	andi	r26, 0x07	; 7
    10b0:	bb 27       	eor	r27, r27
    10b2:	a4 0f       	add	r26, r20
    10b4:	b5 1f       	adc	r27, r21
    10b6:	80 81       	ld	r24, Z
    10b8:	9c 91       	ld	r25, X
    10ba:	98 27       	eor	r25, r24
    10bc:	91 93       	st	Z+, r25
        ++data;
        ++offset;
        --length;
    10be:	61 50       	subi	r22, 0x01	; 1
    10c0:	f1 cf       	rjmp	.-30     	; 0x10a4 <DecryptData+0x14>
    }
}
    10c2:	08 95       	ret

000010c4 <ExtEERead>:

//Game data: Read a number of bytes and decrypt
uint8_t ExtEERead(uint16_t offset, uint8_t length, uint8_t type, uint8_t *data){
    10c4:	a2 e0       	ldi	r26, 0x02	; 2
    10c6:	b0 e0       	ldi	r27, 0x00	; 0
    10c8:	e8 e6       	ldi	r30, 0x68	; 104
    10ca:	f8 e0       	ldi	r31, 0x08	; 8
    10cc:	0c 94 20 1f 	jmp	0x3e40	; 0x3e40 <__prologue_saves__+0x10>
    10d0:	d6 2e       	mov	r13, r22
    10d2:	c4 2e       	mov	r12, r20
    10d4:	59 01       	movw	r10, r18
    offset &=EXT_EE_MAX;
    10d6:	7c 01       	movw	r14, r24
    10d8:	e8 94       	clt
    10da:	f7 f8       	bld	r15, 7
    uint8_t reg[2] = {(uint8_t)(offset>>8), (uint8_t)(offset&0xff)};
    10dc:	f9 82       	std	Y+1, r15	; 0x01
    10de:	ea 82       	std	Y+2, r14	; 0x02
    uint8_t error = (I2C_read_bytes(EE_I2C_ADDR, &reg[0], 2, data, length));
    10e0:	06 2f       	mov	r16, r22
    10e2:	42 e0       	ldi	r20, 0x02	; 2
    10e4:	be 01       	movw	r22, r28
    10e6:	6f 5f       	subi	r22, 0xFF	; 255
    10e8:	7f 4f       	sbci	r23, 0xFF	; 255
    10ea:	80 e5       	ldi	r24, 0x50	; 80
    10ec:	0f da       	rcall	.-3042   	; 0x50c <I2C_read_bytes>
    10ee:	18 2f       	mov	r17, r24
    if (error) return error;
    10f0:	81 11       	cpse	r24, r1
    10f2:	05 c0       	rjmp	.+10     	; 0x10fe <ExtEERead+0x3a>
    DecryptData(offset, length, type, data);
    10f4:	95 01       	movw	r18, r10
    10f6:	4c 2d       	mov	r20, r12
    10f8:	6d 2d       	mov	r22, r13
    10fa:	c7 01       	movw	r24, r14
    10fc:	c9 df       	rcall	.-110    	; 0x1090 <DecryptData>
    return 0;
}
    10fe:	81 2f       	mov	r24, r17
    1100:	22 96       	adiw	r28, 0x02	; 2
    1102:	ea e0       	ldi	r30, 0x0A	; 10
    1104:	0c 94 39 1f 	jmp	0x3e72	; 0x3e72 <__epilogue_restores__+0x10>

00001108 <SerSend>:

// Sends a set of characters to the serial port, stops only when character value 0 is reached.
uint8_t SerSend(unsigned char *addr){
    if (serTxDone){
    1108:	20 91 09 38 	lds	r18, 0x3809	; 0x803809 <serTxDone>
    110c:	22 23       	and	r18, r18
    110e:	59 f0       	breq	.+22     	; 0x1126 <SerSend+0x1e>
        serTxAddr = addr;
    1110:	80 93 c1 3a 	sts	0x3AC1, r24	; 0x803ac1 <serTxAddr>
    1114:	90 93 c2 3a 	sts	0x3AC2, r25	; 0x803ac2 <serTxAddr+0x1>
        serTxDone = 0;
    1118:	10 92 09 38 	sts	0x3809, r1	; 0x803809 <serTxDone>
        TCB0_INTCTRL = 0x01;
    111c:	81 e0       	ldi	r24, 0x01	; 1
    111e:	80 93 45 0a 	sts	0x0A45, r24	; 0x800a45 <__TEXT_REGION_LENGTH__+0x700a45>
        return 0;
    1122:	80 e0       	ldi	r24, 0x00	; 0
    1124:	08 95       	ret
    } else return 1;    //Error: Still sending data
    1126:	81 e0       	ldi	r24, 0x01	; 1
};
    1128:	08 95       	ret

0000112a <SerSpeed>:

// Set serial character output speed, 255-0 (0.8 to 100ms delay between characters)
void SerSpeed(uint8_t serSpd){
    112a:	28 2f       	mov	r18, r24
    if (serSpd<1) serSpd = 1;
    112c:	81 11       	cpse	r24, r1
    112e:	01 c0       	rjmp	.+2      	; 0x1132 <SerSpeed+0x8>
    1130:	21 e0       	ldi	r18, 0x01	; 1
    TCB0_CCMP = ((uint16_t)(0xFF-serSpd)<<8) + 0xFF;
    1132:	8f ef       	ldi	r24, 0xFF	; 255
    1134:	90 e0       	ldi	r25, 0x00	; 0
    1136:	82 1b       	sub	r24, r18
    1138:	91 09       	sbc	r25, r1
    113a:	98 2f       	mov	r25, r24
    113c:	88 27       	eor	r24, r24
    113e:	81 50       	subi	r24, 0x01	; 1
    1140:	9f 4f       	sbci	r25, 0xFF	; 255
    1142:	80 93 4c 0a 	sts	0x0A4C, r24	; 0x800a4c <__TEXT_REGION_LENGTH__+0x700a4c>
    1146:	90 93 4d 0a 	sts	0x0A4D, r25	; 0x800a4d <__TEXT_REGION_LENGTH__+0x700a4d>
    114a:	08 95       	ret

0000114c <SelectTSens>:
};

// Select temperature sensor
void SelectTSens(){
     adc0Chg = 255;
    114c:	8f ef       	ldi	r24, 0xFF	; 255
    114e:	80 93 3e 38 	sts	0x383E, r24	; 0x80383e <adc0Chg>
     VREF_CTRLA   = 0x12;    //0x22 for audio in/out (2.5V), 0x12 for temperature in, audio out (1.1V/2.5V)
    1152:	82 e1       	ldi	r24, 0x12	; 18
    1154:	80 93 a0 00 	sts	0x00A0, r24	; 0x8000a0 <__TEXT_REGION_LENGTH__+0x7000a0>
     ADC0_CTRLA   &= ~(ADC_RESSEL_bm);
    1158:	e0 e0       	ldi	r30, 0x00	; 0
    115a:	f6 e0       	ldi	r31, 0x06	; 6
    115c:	80 81       	ld	r24, Z
    115e:	8b 7f       	andi	r24, 0xFB	; 251
    1160:	80 83       	st	Z, r24
     ADC0_MUXPOS  = 0x1E;    //Audio in: AIN7 at (0x07), Temperature: Internal sensor at (0x1E)
    1162:	8e e1       	ldi	r24, 0x1E	; 30
    1164:	80 93 06 06 	sts	0x0606, r24	; 0x800606 <__TEXT_REGION_LENGTH__+0x700606>
    1168:	08 95       	ret

0000116a <SelectAuIn>:
};

// Select "audio" input (0-2.5V)
void SelectAuIn(){
     adc0Chg = 255;
    116a:	8f ef       	ldi	r24, 0xFF	; 255
    116c:	80 93 3e 38 	sts	0x383E, r24	; 0x80383e <adc0Chg>
     VREF_CTRLA   = 0x22;    //0x22 for audio in/out (2.5V), 0x12 for temperature in, audio out (1.1V/2.5V)
    1170:	82 e2       	ldi	r24, 0x22	; 34
    1172:	80 93 a0 00 	sts	0x00A0, r24	; 0x8000a0 <__TEXT_REGION_LENGTH__+0x7000a0>
     ADC0_CTRLA   |= ADC_RESSEL_bm;
    1176:	e0 e0       	ldi	r30, 0x00	; 0
    1178:	f6 e0       	ldi	r31, 0x06	; 6
    117a:	80 81       	ld	r24, Z
    117c:	84 60       	ori	r24, 0x04	; 4
    117e:	80 83       	st	Z, r24
     ADC0_MUXPOS  = 0x07;    //Audio in: AIN7 at (0x07), Temperature: Internal sensor at (0x1E)
    1180:	87 e0       	ldi	r24, 0x07	; 7
    1182:	80 93 06 06 	sts	0x0606, r24	; 0x800606 <__TEXT_REGION_LENGTH__+0x700606>
    1186:	08 95       	ret

00001188 <CheckButtons>:
};

// Returns button combination (4LSB) and number of consecutive times this combination is detected. First read should always be ignored! 
uint8_t CheckButtons(){
    static uint8_t previousValue = 0xFF;
    uint8_t bADC = (uint8_t)(adcBtns>>4);
    1188:	80 91 bf 3a 	lds	r24, 0x3ABF	; 0x803abf <adcBtns>
    118c:	90 91 c0 3a 	lds	r25, 0x3AC0	; 0x803ac0 <adcBtns+0x1>
    uint8_t button = 0xFF;     //FF = released or error

        switch(bADC){
    1190:	24 e0       	ldi	r18, 0x04	; 4
    1192:	96 95       	lsr	r25
    1194:	87 95       	ror	r24
    1196:	2a 95       	dec	r18
    1198:	e1 f7       	brne	.-8      	; 0x1192 <CheckButtons+0xa>
    119a:	99 27       	eor	r25, r25
    119c:	80 36       	cpi	r24, 0x60	; 96
    119e:	91 05       	cpc	r25, r1
    11a0:	40 f4       	brcc	.+16     	; 0x11b2 <CheckButtons+0x2a>
    11a2:	8f 34       	cpi	r24, 0x4F	; 79
    11a4:	91 05       	cpc	r25, r1
    11a6:	88 f4       	brcc	.+34     	; 0x11ca <CheckButtons+0x42>
    11a8:	c0 97       	sbiw	r24, 0x30	; 48
    11aa:	09 97       	sbiw	r24, 0x09	; 9
    11ac:	90 f4       	brcc	.+36     	; 0x11d2 <CheckButtons+0x4a>

            case 48 ... 56:          //52: Bottom left (+/-4)
            button = 2;
    11ae:	92 e0       	ldi	r25, 0x02	; 2
    11b0:	11 c0       	rjmp	.+34     	; 0x11d4 <CheckButtons+0x4c>
uint8_t CheckButtons(){
    static uint8_t previousValue = 0xFF;
    uint8_t bADC = (uint8_t)(adcBtns>>4);
    uint8_t button = 0xFF;     //FF = released or error

        switch(bADC){
    11b2:	85 37       	cpi	r24, 0x75	; 117
    11b4:	91 05       	cpc	r25, r1
    11b6:	68 f0       	brcs	.+26     	; 0x11d2 <CheckButtons+0x4a>
    11b8:	8e 38       	cpi	r24, 0x8E	; 142
    11ba:	91 05       	cpc	r25, r1
    11bc:	40 f0       	brcs	.+16     	; 0x11ce <CheckButtons+0x46>
    11be:	8e 59       	subi	r24, 0x9E	; 158
    11c0:	91 09       	sbc	r25, r1
    11c2:	81 97       	sbiw	r24, 0x21	; 33
    11c4:	30 f4       	brcc	.+12     	; 0x11d2 <CheckButtons+0x4a>
            case 117 ... 141:        //129: Top right (+/- 12)
            button = 1;
            break;

            case 158 ... 190:        //174: Bottom right (+/- 16)
            button = 0;
    11c6:	90 e0       	ldi	r25, 0x00	; 0
            break;
    11c8:	05 c0       	rjmp	.+10     	; 0x11d4 <CheckButtons+0x4c>
            case 48 ... 56:          //52: Bottom left (+/-4)
            button = 2;
            break;

            case 79 ... 95:          //87: Top left (+/-8)
            button = 3;
    11ca:	93 e0       	ldi	r25, 0x03	; 3
            break;
    11cc:	03 c0       	rjmp	.+6      	; 0x11d4 <CheckButtons+0x4c>

            case 117 ... 141:        //129: Top right (+/- 12)
            button = 1;
    11ce:	91 e0       	ldi	r25, 0x01	; 1
            break;
    11d0:	01 c0       	rjmp	.+2      	; 0x11d4 <CheckButtons+0x4c>

// Returns button combination (4LSB) and number of consecutive times this combination is detected. First read should always be ignored! 
uint8_t CheckButtons(){
    static uint8_t previousValue = 0xFF;
    uint8_t bADC = (uint8_t)(adcBtns>>4);
    uint8_t button = 0xFF;     //FF = released or error
    11d2:	9f ef       	ldi	r25, 0xFF	; 255
            case 158 ... 190:        //174: Bottom right (+/- 16)
            button = 0;
            break;
        }

        if (((previousValue+1)== 0) || (button != previousValue)) {
    11d4:	80 91 2b 38 	lds	r24, 0x382B	; 0x80382b <previousValue.3904>
    11d8:	98 17       	cp	r25, r24
    11da:	19 f0       	breq	.+6      	; 0x11e2 <CheckButtons+0x5a>
            previousValue = button;
    11dc:	90 93 2b 38 	sts	0x382B, r25	; 0x80382b <previousValue.3904>
            return 0xFF;
    11e0:	8f ef       	ldi	r24, 0xFF	; 255
        } else return button;

}
    11e2:	08 95       	ret

000011e4 <lfsr>:

uint8_t lfsr(){
    lfsrSeed ^= (lfsrSeed << 13);
    11e4:	80 91 62 38 	lds	r24, 0x3862	; 0x803862 <lfsrSeed>
    11e8:	90 91 63 38 	lds	r25, 0x3863	; 0x803863 <lfsrSeed+0x1>
    11ec:	9c 01       	movw	r18, r24
    11ee:	32 2f       	mov	r19, r18
    11f0:	22 27       	eor	r18, r18
    11f2:	32 95       	swap	r19
    11f4:	33 0f       	add	r19, r19
    11f6:	30 7e       	andi	r19, 0xE0	; 224
    11f8:	82 27       	eor	r24, r18
    11fa:	93 27       	eor	r25, r19
    lfsrSeed ^= (lfsrSeed >> 9);
    11fc:	9c 01       	movw	r18, r24
    11fe:	23 2f       	mov	r18, r19
    1200:	33 27       	eor	r19, r19
    1202:	26 95       	lsr	r18
    1204:	82 27       	eor	r24, r18
    1206:	93 27       	eor	r25, r19
    lfsrSeed ^= (lfsrSeed << 7);
    1208:	9c 01       	movw	r18, r24
    120a:	36 95       	lsr	r19
    120c:	32 2f       	mov	r19, r18
    120e:	22 27       	eor	r18, r18
    1210:	37 95       	ror	r19
    1212:	27 95       	ror	r18
    1214:	82 27       	eor	r24, r18
    1216:	93 27       	eor	r25, r19
    1218:	80 93 62 38 	sts	0x3862, r24	; 0x803862 <lfsrSeed>
    121c:	90 93 63 38 	sts	0x3863, r25	; 0x803863 <lfsrSeed+0x1>
    return (lfsrSeed & 0xff);
}
    1220:	08 95       	ret

00001222 <floatSpeed>:

void floatSpeed(uint8_t bits, uint16_t min, uint16_t max){
    1222:	a0 e0       	ldi	r26, 0x00	; 0
    1224:	b0 e0       	ldi	r27, 0x00	; 0
    1226:	e7 e1       	ldi	r30, 0x17	; 23
    1228:	f9 e0       	ldi	r31, 0x09	; 9
    122a:	0c 94 23 1f 	jmp	0x3e46	; 0x3e46 <__prologue_saves__+0x16>
    122e:	7b 01       	movw	r14, r22
    1230:	8a 01       	movw	r16, r20
    uint16_t val = TCB1_CCMP;
    1232:	c0 91 5c 0a 	lds	r28, 0x0A5C	; 0x800a5c <__TEXT_REGION_LENGTH__+0x700a5c>
    1236:	d0 91 5d 0a 	lds	r29, 0x0A5D	; 0x800a5d <__TEXT_REGION_LENGTH__+0x700a5d>
    bits = mask[(bits-1)&0x07];
    123a:	e8 2f       	mov	r30, r24
    123c:	f0 e0       	ldi	r31, 0x00	; 0
    123e:	31 97       	sbiw	r30, 0x01	; 1
    1240:	e7 70       	andi	r30, 0x07	; 7
    1242:	ff 27       	eor	r31, r31
    1244:	e4 5d       	subi	r30, 0xD4	; 212
    1246:	f7 4c       	sbci	r31, 0xC7	; 199
    1248:	d0 80       	ld	r13, Z
    val += (lfsr()&bits);
    124a:	cc df       	rcall	.-104    	; 0x11e4 <lfsr>
    124c:	8d 21       	and	r24, r13
    124e:	c8 0f       	add	r28, r24
    1250:	d1 1d       	adc	r29, r1
    val -= (lfsr()&bits);
    1252:	c8 df       	rcall	.-112    	; 0x11e4 <lfsr>
    1254:	8d 21       	and	r24, r13
    1256:	c8 1b       	sub	r28, r24
    1258:	d1 09       	sbc	r29, r1
    125a:	0c 17       	cp	r16, r28
    125c:	1d 07       	cpc	r17, r29
    125e:	08 f4       	brcc	.+2      	; 0x1262 <floatSpeed+0x40>
    1260:	e8 01       	movw	r28, r16
    1262:	c7 01       	movw	r24, r14
    1264:	ec 16       	cp	r14, r28
    1266:	fd 06       	cpc	r15, r29
    1268:	08 f4       	brcc	.+2      	; 0x126c <floatSpeed+0x4a>
    126a:	ce 01       	movw	r24, r28
    126c:	80 93 5c 0a 	sts	0x0A5C, r24	; 0x800a5c <__TEXT_REGION_LENGTH__+0x700a5c>
    if (val > max) val = max;    
    if (val < min) val = min;  
    TCB1_CCMP = val;
    1270:	90 93 5d 0a 	sts	0x0A5D, r25	; 0x800a5d <__TEXT_REGION_LENGTH__+0x700a5d>
    1274:	cd b7       	in	r28, 0x3d	; 61
}
    1276:	de b7       	in	r29, 0x3e	; 62
    1278:	e7 e0       	ldi	r30, 0x07	; 7
    127a:	0c 94 3c 1f 	jmp	0x3e78	; 0x3e78 <__epilogue_restores__+0x16>

0000127e <floatAround>:
    127e:	0f 93       	push	r16

uint8_t floatAround(uint8_t sample, uint8_t bits, uint8_t min, uint8_t max){
    1280:	1f 93       	push	r17
    1282:	cf 93       	push	r28
    1284:	df 93       	push	r29
    1286:	c8 2f       	mov	r28, r24
    1288:	d4 2f       	mov	r29, r20
    128a:	02 2f       	mov	r16, r18
    bits = mask[(bits-1)&0x07];
    128c:	e6 2f       	mov	r30, r22
    128e:	f0 e0       	ldi	r31, 0x00	; 0
    1290:	31 97       	sbiw	r30, 0x01	; 1
    1292:	e7 70       	andi	r30, 0x07	; 7
    1294:	ff 27       	eor	r31, r31
    1296:	e4 5d       	subi	r30, 0xD4	; 212
    1298:	f7 4c       	sbci	r31, 0xC7	; 199
    129a:	10 81       	ld	r17, Z
    sample += lfsr()&bits;
    129c:	a3 df       	rcall	.-186    	; 0x11e4 <lfsr>
    129e:	81 23       	and	r24, r17
    12a0:	c8 0f       	add	r28, r24
    sample -= lfsr()&bits;
    12a2:	a0 df       	rcall	.-192    	; 0x11e4 <lfsr>
    12a4:	81 23       	and	r24, r17
    12a6:	c8 1b       	sub	r28, r24
    12a8:	8c 2f       	mov	r24, r28
    12aa:	00 23       	and	r16, r16
    if (max){
    12ac:	41 f0       	breq	.+16     	; 0x12be <floatAround+0x40>
    12ae:	9c 2f       	mov	r25, r28
    12b0:	0c 17       	cp	r16, r28
    12b2:	08 f4       	brcc	.+2      	; 0x12b6 <floatAround+0x38>
    12b4:	90 2f       	mov	r25, r16
    12b6:	8d 2f       	mov	r24, r29
    12b8:	d9 17       	cp	r29, r25
    12ba:	08 f4       	brcc	.+2      	; 0x12be <floatAround+0x40>
    12bc:	89 2f       	mov	r24, r25
    12be:	41 e0       	ldi	r20, 0x01	; 1
        if (sample > max) sample = max;
        if (sample < min) sample = min;
    }
    if (min & (sample < min)) sample = min;
    12c0:	50 e0       	ldi	r21, 0x00	; 0
    12c2:	8d 17       	cp	r24, r29
    12c4:	10 f0       	brcs	.+4      	; 0x12ca <floatAround+0x4c>
    12c6:	40 e0       	ldi	r20, 0x00	; 0
    12c8:	50 e0       	ldi	r21, 0x00	; 0
    12ca:	2d 2f       	mov	r18, r29
    12cc:	30 e0       	ldi	r19, 0x00	; 0
    12ce:	24 23       	and	r18, r20
    12d0:	35 23       	and	r19, r21
    12d2:	23 2b       	or	r18, r19
    12d4:	09 f0       	breq	.+2      	; 0x12d8 <floatAround+0x5a>
    12d6:	8d 2f       	mov	r24, r29
    12d8:	df 91       	pop	r29

    return sample;
}
    12da:	cf 91       	pop	r28
    12dc:	1f 91       	pop	r17
    12de:	0f 91       	pop	r16
    12e0:	08 95       	ret

000012e2 <SaveGameState>:
    12e2:	cf 92       	push	r12
    inventory[0] = (gameState[INVADDR]<<8|gameState[INVADDR+1]);
    inventory[1] = (gameState[INVADDR+2]<<8|gameState[INVADDR+3]);
}

//Save changed data to EEPROM
uint8_t SaveGameState(){
    12e4:	df 92       	push	r13
    12e6:	ff 92       	push	r15
    12e8:	0f 93       	push	r16
    12ea:	1f 93       	push	r17
    12ec:	cf 93       	push	r28
    12ee:	df 93       	push	r29
    12f0:	cd b7       	in	r28, 0x3d	; 61
    12f2:	de b7       	in	r29, 0x3e	; 62
    12f4:	64 97       	sbiw	r28, 0x14	; 20
    12f6:	cd bf       	out	0x3d, r28	; 61
    12f8:	de bf       	out	0x3e, r29	; 62
    uint8_t gameCheck[BOOTCHK];

    //Read all data up to the boot/check result address from EEPROM
    EERead(0, &gameCheck[0], BOOTCHK);
    12fa:	44 e1       	ldi	r20, 0x14	; 20
    12fc:	be 01       	movw	r22, r28
    12fe:	6f 5f       	subi	r22, 0xFF	; 255
    1300:	7f 4f       	sbci	r23, 0xFF	; 255
    1302:	80 e0       	ldi	r24, 0x00	; 0
    1304:	8d de       	rcall	.-742    	; 0x1020 <EERead>
    1306:	89 e6       	ldi	r24, 0x69	; 105
    1308:	c8 2e       	mov	r12, r24
    130a:	8a e3       	ldi	r24, 0x3A	; 58
    130c:	d8 2e       	mov	r13, r24
    130e:	8e 01       	movw	r16, r28
    1310:	0f 5f       	subi	r16, 0xFF	; 255
    1312:	1f 4f       	sbci	r17, 0xFF	; 255

    //Check game status bits
    for (uint8_t x=0; x<STATLEN; ++x){
    1314:	f1 2c       	mov	r15, r1
        if (gameState[x] != gameCheck[x]){
    1316:	f8 01       	movw	r30, r16
    1318:	81 91       	ld	r24, Z+
    131a:	8f 01       	movw	r16, r30
    131c:	f6 01       	movw	r30, r12
    131e:	90 81       	ld	r25, Z
    1320:	98 13       	cpse	r25, r24
    1322:	08 c0       	rjmp	.+16     	; 0x1334 <SaveGameState+0x52>

    //Read all data up to the boot/check result address from EEPROM
    EERead(0, &gameCheck[0], BOOTCHK);

    //Check game status bits
    for (uint8_t x=0; x<STATLEN; ++x){
    1324:	f3 94       	inc	r15
    1326:	ff ef       	ldi	r31, 0xFF	; 255
    1328:	cf 1a       	sub	r12, r31
    132a:	df 0a       	sbc	r13, r31
    132c:	80 e1       	ldi	r24, 0x10	; 16
    132e:	f8 12       	cpse	r15, r24
    1330:	f2 cf       	rjmp	.-28     	; 0x1316 <SaveGameState+0x34>
    1332:	08 c0       	rjmp	.+16     	; 0x1344 <SaveGameState+0x62>
        if (gameState[x] != gameCheck[x]){
            if (EEWrite(x, &gameState[x], 1)) return 1;
    1334:	41 e0       	ldi	r20, 0x01	; 1
    1336:	b6 01       	movw	r22, r12
    1338:	8f 2d       	mov	r24, r15
    133a:	82 de       	rcall	.-764    	; 0x1040 <EEWrite>
    133c:	88 23       	and	r24, r24
    133e:	91 f3       	breq	.-28     	; 0x1324 <SaveGameState+0x42>
    1340:	91 e0       	ldi	r25, 0x01	; 1
    1342:	36 c0       	rjmp	.+108    	; 0x13b0 <SaveGameState+0xce>
        }
    }

    //Check the inventory too
    gameState[INVADDR] = (uint8_t)(inventory[0]>>8);
    1344:	20 91 44 38 	lds	r18, 0x3844	; 0x803844 <inventory>
    1348:	30 91 45 38 	lds	r19, 0x3845	; 0x803845 <inventory+0x1>
    134c:	30 93 79 3a 	sts	0x3A79, r19	; 0x803a79 <gameState+0x10>
    gameState[INVADDR+1] = (uint8_t)(inventory[0]&0xff);
    1350:	20 93 7a 3a 	sts	0x3A7A, r18	; 0x803a7a <gameState+0x11>
    gameState[INVADDR+2] = (uint8_t)(inventory[1]>>8);
    1354:	80 91 46 38 	lds	r24, 0x3846	; 0x803846 <inventory+0x2>
    1358:	90 91 47 38 	lds	r25, 0x3847	; 0x803847 <inventory+0x3>
    135c:	90 93 7b 3a 	sts	0x3A7B, r25	; 0x803a7b <gameState+0x12>
    gameState[INVADDR+3] = (uint8_t)(inventory[1]&0xff);
    1360:	80 93 7c 3a 	sts	0x3A7C, r24	; 0x803a7c <gameState+0x13>
    if (inventory[0] != (gameCheck[INVADDR]<<8|gameCheck[INVADDR+1])) {
    1364:	89 89       	ldd	r24, Y+17	; 0x11
    1366:	9a 89       	ldd	r25, Y+18	; 0x12
    1368:	98 27       	eor	r25, r24
    136a:	89 27       	eor	r24, r25
    136c:	98 27       	eor	r25, r24
    136e:	28 17       	cp	r18, r24
    1370:	39 07       	cpc	r19, r25
    1372:	69 f4       	brne	.+26     	; 0x138e <SaveGameState+0xac>
        if (EEWrite(INVADDR, &gameState[INVADDR], 2)) return 1;
    }
    if (inventory[1] != (gameCheck[INVADDR+2]<<8|gameCheck[INVADDR+3])) {
    1374:	8b 89       	ldd	r24, Y+19	; 0x13
    1376:	9c 89       	ldd	r25, Y+20	; 0x14
    1378:	98 27       	eor	r25, r24
    137a:	89 27       	eor	r24, r25
    137c:	98 27       	eor	r25, r24
    137e:	20 91 46 38 	lds	r18, 0x3846	; 0x803846 <inventory+0x2>
    1382:	30 91 47 38 	lds	r19, 0x3847	; 0x803847 <inventory+0x3>
    1386:	28 17       	cp	r18, r24
    1388:	39 07       	cpc	r19, r25
    138a:	49 f4       	brne	.+18     	; 0x139e <SaveGameState+0xbc>
    138c:	10 c0       	rjmp	.+32     	; 0x13ae <SaveGameState+0xcc>
    gameState[INVADDR] = (uint8_t)(inventory[0]>>8);
    gameState[INVADDR+1] = (uint8_t)(inventory[0]&0xff);
    gameState[INVADDR+2] = (uint8_t)(inventory[1]>>8);
    gameState[INVADDR+3] = (uint8_t)(inventory[1]&0xff);
    if (inventory[0] != (gameCheck[INVADDR]<<8|gameCheck[INVADDR+1])) {
        if (EEWrite(INVADDR, &gameState[INVADDR], 2)) return 1;
    138e:	42 e0       	ldi	r20, 0x02	; 2
    1390:	69 e7       	ldi	r22, 0x79	; 121
    1392:	7a e3       	ldi	r23, 0x3A	; 58
    1394:	80 e1       	ldi	r24, 0x10	; 16
    1396:	54 de       	rcall	.-856    	; 0x1040 <EEWrite>
    1398:	88 23       	and	r24, r24
    139a:	61 f3       	breq	.-40     	; 0x1374 <SaveGameState+0x92>
    139c:	d1 cf       	rjmp	.-94     	; 0x1340 <SaveGameState+0x5e>
    }
    if (inventory[1] != (gameCheck[INVADDR+2]<<8|gameCheck[INVADDR+3])) {
        if (EEWrite(INVADDR+2, &gameState[INVADDR+2], 2)) return 1;
    139e:	42 e0       	ldi	r20, 0x02	; 2
    13a0:	6b e7       	ldi	r22, 0x7B	; 123
    13a2:	7a e3       	ldi	r23, 0x3A	; 58
    13a4:	82 e1       	ldi	r24, 0x12	; 18
    13a6:	4c de       	rcall	.-872    	; 0x1040 <EEWrite>
    EERead(0, &gameCheck[0], BOOTCHK);

    //Check game status bits
    for (uint8_t x=0; x<STATLEN; ++x){
        if (gameState[x] != gameCheck[x]){
            if (EEWrite(x, &gameState[x], 1)) return 1;
    13a8:	91 e0       	ldi	r25, 0x01	; 1
    13aa:	81 11       	cpse	r24, r1
    13ac:	01 c0       	rjmp	.+2      	; 0x13b0 <SaveGameState+0xce>
    13ae:	90 e0       	ldi	r25, 0x00	; 0
    if (inventory[1] != (gameCheck[INVADDR+2]<<8|gameCheck[INVADDR+3])) {
        if (EEWrite(INVADDR+2, &gameState[INVADDR+2], 2)) return 1;
    }

    return 0;
}
    13b0:	89 2f       	mov	r24, r25
    13b2:	64 96       	adiw	r28, 0x14	; 20
    13b4:	cd bf       	out	0x3d, r28	; 61
    13b6:	de bf       	out	0x3e, r29	; 62
    13b8:	df 91       	pop	r29
    13ba:	cf 91       	pop	r28
    13bc:	1f 91       	pop	r17
    13be:	0f 91       	pop	r16
    13c0:	ff 90       	pop	r15
    13c2:	df 90       	pop	r13
    13c4:	cf 90       	pop	r12
    13c6:	08 95       	ret

000013c8 <ReadStatusBit>:

uint8_t ReadStatusBit(uint8_t number){
    number &= 0x7f;
    if (gameState[number>>3] & (1<<(number&7))) return 1; else return 0;
    13c8:	e8 2f       	mov	r30, r24
    13ca:	ef 77       	andi	r30, 0x7F	; 127
    13cc:	e6 95       	lsr	r30
    13ce:	e6 95       	lsr	r30
    13d0:	e6 95       	lsr	r30
    13d2:	f0 e0       	ldi	r31, 0x00	; 0
    13d4:	e7 59       	subi	r30, 0x97	; 151
    13d6:	f5 4c       	sbci	r31, 0xC5	; 197
    13d8:	20 81       	ld	r18, Z
    13da:	30 e0       	ldi	r19, 0x00	; 0
    13dc:	87 70       	andi	r24, 0x07	; 7
    13de:	a9 01       	movw	r20, r18
    13e0:	02 c0       	rjmp	.+4      	; 0x13e6 <ReadStatusBit+0x1e>
    13e2:	55 95       	asr	r21
    13e4:	47 95       	ror	r20
    13e6:	8a 95       	dec	r24
    13e8:	e2 f7       	brpl	.-8      	; 0x13e2 <ReadStatusBit+0x1a>
    13ea:	ca 01       	movw	r24, r20
}
    13ec:	81 70       	andi	r24, 0x01	; 1
    13ee:	08 95       	ret

000013f0 <UpdateState>:

//Update game state: num -> vBBBBbbb v=value(0 is set!), BBBB=Byte number, bbb=bit number
void UpdateState(uint8_t num){
    uint8_t clearBit = num & 0x80;
    num &= 0x7f;
    13f0:	e8 2f       	mov	r30, r24
    13f2:	ef 77       	andi	r30, 0x7F	; 127
    
    if (num) {
    13f4:	e9 f0       	breq	.+58     	; 0x1430 <UpdateState+0x40>
    13f6:	e6 95       	lsr	r30
    13f8:	e6 95       	lsr	r30
    13fa:	e6 95       	lsr	r30
    13fc:	28 2f       	mov	r18, r24
    13fe:	27 70       	andi	r18, 0x07	; 7
        if (clearBit) {
            gameState[num>>3] &= ~(1<<(num&7));
    1400:	f0 e0       	ldi	r31, 0x00	; 0
    1402:	e7 59       	subi	r30, 0x97	; 151
    1404:	f5 4c       	sbci	r31, 0xC5	; 197
void UpdateState(uint8_t num){
    uint8_t clearBit = num & 0x80;
    num &= 0x7f;
    
    if (num) {
        if (clearBit) {
    1406:	87 ff       	sbrs	r24, 7
    1408:	0a c0       	rjmp	.+20     	; 0x141e <UpdateState+0x2e>
            gameState[num>>3] &= ~(1<<(num&7));
    140a:	81 e0       	ldi	r24, 0x01	; 1
    140c:	90 e0       	ldi	r25, 0x00	; 0
    140e:	01 c0       	rjmp	.+2      	; 0x1412 <UpdateState+0x22>
    1410:	88 0f       	add	r24, r24
    1412:	2a 95       	dec	r18
    1414:	ea f7       	brpl	.-6      	; 0x1410 <UpdateState+0x20>
    1416:	80 95       	com	r24
    1418:	90 81       	ld	r25, Z
    141a:	89 23       	and	r24, r25
    141c:	08 c0       	rjmp	.+16     	; 0x142e <UpdateState+0x3e>
        } else {
            gameState[num>>3] |= 1<<(num&7);
    141e:	81 e0       	ldi	r24, 0x01	; 1
    1420:	90 e0       	ldi	r25, 0x00	; 0
    1422:	01 c0       	rjmp	.+2      	; 0x1426 <UpdateState+0x36>
    1424:	88 0f       	add	r24, r24
    1426:	2a 95       	dec	r18
    1428:	ea f7       	brpl	.-6      	; 0x1424 <UpdateState+0x34>
    142a:	90 81       	ld	r25, Z
    142c:	89 2b       	or	r24, r25
    142e:	80 83       	st	Z, r24
    1430:	08 95       	ret

00001432 <CheckState>:
        }
    }
}

//Checks if state of bit BBBBbbb matches with v (inverted) bit
uint8_t CheckState(uint8_t num){
    1432:	cf 93       	push	r28
    1434:	c8 2f       	mov	r28, r24
    uint8_t bitSet = 0;
    if (ReadStatusBit(num & 0x7f)){
    1436:	8f 77       	andi	r24, 0x7F	; 127
    1438:	c7 df       	rcall	.-114    	; 0x13c8 <ReadStatusBit>
    143a:	2c 2f       	mov	r18, r28
    143c:	22 1f       	adc	r18, r18
    143e:	22 27       	eor	r18, r18
    1440:	22 1f       	adc	r18, r18
    1442:	91 e0       	ldi	r25, 0x01	; 1
    1444:	81 11       	cpse	r24, r1
    1446:	01 c0       	rjmp	.+2      	; 0x144a <CheckState+0x18>
    1448:	90 e0       	ldi	r25, 0x00	; 0
    }
    if (((num & 0x80)>0)^(bitSet>0)){
        return 1;
    }
    return 0;
}
    144a:	82 2f       	mov	r24, r18
    144c:	89 27       	eor	r24, r25
    144e:	cf 91       	pop	r28
    1450:	08 95       	ret

00001452 <getID>:

//Give out a number 0..3, calculated using serial number fields
uint8_t getID(){
    uint8_t id = 0;
    uint8_t *serNum;
    serNum = (uint8_t*)&SIGROW_SERNUM0;
    1452:	e3 e0       	ldi	r30, 0x03	; 3
    1454:	f1 e1       	ldi	r31, 0x11	; 17
    return 0;
}

//Give out a number 0..3, calculated using serial number fields
uint8_t getID(){
    uint8_t id = 0;
    1456:	80 e0       	ldi	r24, 0x00	; 0
    uint8_t *serNum;
    serNum = (uint8_t*)&SIGROW_SERNUM0;

    for (uint8_t x=0; x<10; ++x){
        id += *serNum;
    1458:	91 91       	ld	r25, Z+
    145a:	89 0f       	add	r24, r25
uint8_t getID(){
    uint8_t id = 0;
    uint8_t *serNum;
    serNum = (uint8_t*)&SIGROW_SERNUM0;

    for (uint8_t x=0; x<10; ++x){
    145c:	ed 30       	cpi	r30, 0x0D	; 13
    145e:	91 e1       	ldi	r25, 0x11	; 17
    1460:	f9 07       	cpc	r31, r25
    1462:	d1 f7       	brne	.-12     	; 0x1458 <getID+0x6>
        id += *serNum;
        ++serNum;
    }
    id %= 4;
    1464:	83 70       	andi	r24, 0x03	; 3
    whoami = id+1;
    1466:	91 e0       	ldi	r25, 0x01	; 1
    1468:	98 0f       	add	r25, r24
    146a:	90 93 43 38 	sts	0x3843, r25	; 0x803843 <whoami>
    return id;
}
    146e:	08 95       	ret

00001470 <Reset>:

void Reset(){
    1470:	cf 93       	push	r28
    1472:	e9 e6       	ldi	r30, 0x69	; 105
    1474:	fa e3       	ldi	r31, 0x3A	; 58
    //# 110   set to 1 by FW if badge UUID mod 4 == 0
    //# 111   set to 1 by FW if badge UUID mod 4 == 1
    //# 112   set to 1 by FW if badge UUID mod 4 == 2
    //# 113   set to 1 by FW if badge UUID mod 4 == 3
    for (uint8_t x=0; x<sizeof(gameState); ++x){
        gameState[x] = 0;
    1476:	11 92       	st	Z+, r1
    //Reset game progress (all zeros) and load some bits:
    //# 110   set to 1 by FW if badge UUID mod 4 == 0
    //# 111   set to 1 by FW if badge UUID mod 4 == 1
    //# 112   set to 1 by FW if badge UUID mod 4 == 2
    //# 113   set to 1 by FW if badge UUID mod 4 == 3
    for (uint8_t x=0; x<sizeof(gameState); ++x){
    1478:	8a e3       	ldi	r24, 0x3A	; 58
    147a:	ed 37       	cpi	r30, 0x7D	; 125
    147c:	f8 07       	cpc	r31, r24
    147e:	d9 f7       	brne	.-10     	; 0x1476 <Reset+0x6>
        gameState[x] = 0;
    }

    uint8_t id = getID();
    1480:	e8 df       	rcall	.-48     	; 0x1452 <getID>
    1482:	c8 2f       	mov	r28, r24

    //Write bit in gameState location 110..113
    if (id == 0) UpdateState(110);
    1484:	81 11       	cpse	r24, r1
    1486:	02 c0       	rjmp	.+4      	; 0x148c <Reset+0x1c>
    1488:	8e e6       	ldi	r24, 0x6E	; 110
    148a:	0b c0       	rjmp	.+22     	; 0x14a2 <Reset+0x32>
    else if (id == 1) UpdateState(111);
    148c:	81 30       	cpi	r24, 0x01	; 1
    148e:	11 f4       	brne	.+4      	; 0x1494 <Reset+0x24>
    1490:	8f e6       	ldi	r24, 0x6F	; 111
    1492:	07 c0       	rjmp	.+14     	; 0x14a2 <Reset+0x32>
    else if (id == 2) UpdateState(112);
    1494:	82 30       	cpi	r24, 0x02	; 2
    1496:	11 f4       	brne	.+4      	; 0x149c <Reset+0x2c>
    1498:	80 e7       	ldi	r24, 0x70	; 112
    149a:	03 c0       	rjmp	.+6      	; 0x14a2 <Reset+0x32>
    else if (id == 3) UpdateState(113);
    149c:	83 30       	cpi	r24, 0x03	; 3
    149e:	11 f4       	brne	.+4      	; 0x14a4 <Reset+0x34>
    14a0:	81 e7       	ldi	r24, 0x71	; 113
    14a2:	a6 df       	rcall	.-180    	; 0x13f0 <UpdateState>
    UpdateState(100+id);
    14a4:	84 e6       	ldi	r24, 0x64	; 100
    14a6:	8c 0f       	add	r24, r28
    14a8:	a3 df       	rcall	.-186    	; 0x13f0 <UpdateState>

    //Write bit 0, must always be 1!

}
    14aa:	cf 91       	pop	r28
    14ac:	08 95       	ret

000014ae <LoadGameState>:

    return sample;
}

//Load game status
void LoadGameState(){
    14ae:	cf 93       	push	r28
    14b0:	df 93       	push	r29
    EERead(0, &gameState[0], BOOTCHK);   //Load game status bits from EEPROM
    14b2:	44 e1       	ldi	r20, 0x14	; 20
    14b4:	69 e6       	ldi	r22, 0x69	; 105
    14b6:	7a e3       	ldi	r23, 0x3A	; 58
    14b8:	80 e0       	ldi	r24, 0x00	; 0
    14ba:	b2 dd       	rcall	.-1180   	; 0x1020 <EERead>
    14bc:	ce e6       	ldi	r28, 0x6E	; 110

    uint8_t idSet = 0;
    14be:	d0 e0       	ldi	r29, 0x00	; 0
    for (uint8_t x=0; x<4; ++x){
        idSet += ReadStatusBit(110+x);
    14c0:	8c 2f       	mov	r24, r28
    14c2:	82 df       	rcall	.-252    	; 0x13c8 <ReadStatusBit>
    14c4:	d8 0f       	add	r29, r24
    14c6:	cf 5f       	subi	r28, 0xFF	; 255
//Load game status
void LoadGameState(){
    EERead(0, &gameState[0], BOOTCHK);   //Load game status bits from EEPROM

    uint8_t idSet = 0;
    for (uint8_t x=0; x<4; ++x){
    14c8:	c2 37       	cpi	r28, 0x72	; 114
    14ca:	d1 f7       	brne	.-12     	; 0x14c0 <LoadGameState+0x12>
        idSet += ReadStatusBit(110+x);
    }

    //Check if badge is reset(0 = cheated!) or new(3) or error(2)
    if (idSet != 1) {
    14cc:	d1 30       	cpi	r29, 0x01	; 1
        Reset();
    14ce:	11 f0       	breq	.+4      	; 0x14d4 <LoadGameState+0x26>
    14d0:	cf df       	rcall	.-98     	; 0x1470 <Reset>
    } else getID();
    14d2:	01 c0       	rjmp	.+2      	; 0x14d6 <LoadGameState+0x28>
    14d4:	be df       	rcall	.-132    	; 0x1452 <getID>

    inventory[0] = (gameState[INVADDR]<<8|gameState[INVADDR+1]);
    14d6:	80 91 79 3a 	lds	r24, 0x3A79	; 0x803a79 <gameState+0x10>
    14da:	90 91 7a 3a 	lds	r25, 0x3A7A	; 0x803a7a <gameState+0x11>
    14de:	98 27       	eor	r25, r24
    14e0:	89 27       	eor	r24, r25
    14e2:	98 27       	eor	r25, r24
    14e4:	80 93 44 38 	sts	0x3844, r24	; 0x803844 <inventory>
    14e8:	90 93 45 38 	sts	0x3845, r25	; 0x803845 <inventory+0x1>
    inventory[1] = (gameState[INVADDR+2]<<8|gameState[INVADDR+3]);
    14ec:	80 91 7b 3a 	lds	r24, 0x3A7B	; 0x803a7b <gameState+0x12>
    14f0:	90 91 7c 3a 	lds	r25, 0x3A7C	; 0x803a7c <gameState+0x13>
    14f4:	98 27       	eor	r25, r24
    14f6:	89 27       	eor	r24, r25
    14f8:	98 27       	eor	r25, r24
    14fa:	80 93 46 38 	sts	0x3846, r24	; 0x803846 <inventory+0x2>
    14fe:	90 93 47 38 	sts	0x3847, r25	; 0x803847 <inventory+0x3>
}
    1502:	df 91       	pop	r29
    1504:	cf 91       	pop	r28
    1506:	08 95       	ret

00001508 <HotSummer>:
    //Write bit 0, must always be 1!

}

//Sets specific game bits after the badge is heated for one and two times.
uint8_t HotSummer(){
    1508:	cf 93       	push	r28
    static uint8_t cooledDown = 0;

    if (CheckState(SUMMERS_COMPLETED)){
    150a:	86 e7       	ldi	r24, 0x76	; 118
    150c:	92 df       	rcall	.-220    	; 0x1432 <CheckState>
    150e:	c8 2f       	mov	r28, r24
    1510:	88 23       	and	r24, r24
    1512:	81 f0       	breq	.+32     	; 0x1534 <HotSummer+0x2c>
        iLED[SCARAB[R]] = 0;
    1514:	e0 91 b4 be 	lds	r30, 0xBEB4	; 0x80beb4 <__bss_end+0x839a>
    1518:	f0 e0       	ldi	r31, 0x00	; 0
    151a:	e5 53       	subi	r30, 0x35	; 53
    151c:	f5 4c       	sbci	r31, 0xC5	; 197
    151e:	10 82       	st	Z, r1
        iLED[SCARAB[G]] = dimValue;
    1520:	e0 91 b5 be 	lds	r30, 0xBEB5	; 0x80beb5 <__bss_end+0x839b>
    1524:	f0 e0       	ldi	r31, 0x00	; 0
    1526:	80 91 0c 38 	lds	r24, 0x380C	; 0x80380c <dimValue>
    152a:	e5 53       	subi	r30, 0x35	; 53
    152c:	f5 4c       	sbci	r31, 0xC5	; 197
    152e:	80 83       	st	Z, r24
        return 1;
    1530:	c1 e0       	ldi	r28, 0x01	; 1
    1532:	4c c0       	rjmp	.+152    	; 0x15cc <HotSummer+0xc4>
    }

    if (CheckState(FIRST_SUMMER)) {
    1534:	85 e7       	ldi	r24, 0x75	; 117
    1536:	7d df       	rcall	.-262    	; 0x1432 <CheckState>
    1538:	88 23       	and	r24, r24
    153a:	59 f1       	breq	.+86     	; 0x1592 <HotSummer+0x8a>
        iLED[SCARAB[R]] = dimValue;
    153c:	e0 91 b4 be 	lds	r30, 0xBEB4	; 0x80beb4 <__bss_end+0x839a>
    1540:	f0 e0       	ldi	r31, 0x00	; 0
    1542:	80 91 0c 38 	lds	r24, 0x380C	; 0x80380c <dimValue>
    1546:	e5 53       	subi	r30, 0x35	; 53
    1548:	f5 4c       	sbci	r31, 0xC5	; 197
    154a:	80 83       	st	Z, r24
        if ((cooledDown) && (adcTemp >= (calTemp + 32))) {
    154c:	80 91 5f 38 	lds	r24, 0x385F	; 0x80385f <cooledDown.3968>
    1550:	88 23       	and	r24, r24
    1552:	79 f0       	breq	.+30     	; 0x1572 <HotSummer+0x6a>
    1554:	80 91 c8 3a 	lds	r24, 0x3AC8	; 0x803ac8 <calTemp>
    1558:	90 91 c9 3a 	lds	r25, 0x3AC9	; 0x803ac9 <calTemp+0x1>
    155c:	20 91 f5 3a 	lds	r18, 0x3AF5	; 0x803af5 <adcTemp>
    1560:	30 91 f6 3a 	lds	r19, 0x3AF6	; 0x803af6 <adcTemp+0x1>
    1564:	80 96       	adiw	r24, 0x20	; 32
    1566:	28 17       	cp	r18, r24
    1568:	39 07       	cpc	r19, r25
            UpdateState(SUMMERS_COMPLETED);
    156a:	18 f0       	brcs	.+6      	; 0x1572 <HotSummer+0x6a>
    156c:	86 e7       	ldi	r24, 0x76	; 118
    156e:	40 df       	rcall	.-384    	; 0x13f0 <UpdateState>
            return 0;
    1570:	2d c0       	rjmp	.+90     	; 0x15cc <HotSummer+0xc4>
        }
        if (adcTemp <= (calTemp + 8)) cooledDown = 1;
    1572:	80 91 c8 3a 	lds	r24, 0x3AC8	; 0x803ac8 <calTemp>
    1576:	90 91 c9 3a 	lds	r25, 0x3AC9	; 0x803ac9 <calTemp+0x1>
    157a:	20 91 f5 3a 	lds	r18, 0x3AF5	; 0x803af5 <adcTemp>
    157e:	30 91 f6 3a 	lds	r19, 0x3AF6	; 0x803af6 <adcTemp+0x1>
    1582:	08 96       	adiw	r24, 0x08	; 8
    1584:	82 17       	cp	r24, r18
    1586:	93 07       	cpc	r25, r19
    1588:	08 f1       	brcs	.+66     	; 0x15cc <HotSummer+0xc4>
    158a:	81 e0       	ldi	r24, 0x01	; 1
    158c:	80 93 5f 38 	sts	0x385F, r24	; 0x80385f <cooledDown.3968>
    1590:	1d c0       	rjmp	.+58     	; 0x15cc <HotSummer+0xc4>
                   
    } else {
        if (calTemp == 0) calTemp = adcTemp;
    1592:	80 91 c8 3a 	lds	r24, 0x3AC8	; 0x803ac8 <calTemp>
    1596:	90 91 c9 3a 	lds	r25, 0x3AC9	; 0x803ac9 <calTemp+0x1>
    159a:	89 2b       	or	r24, r25
    159c:	41 f4       	brne	.+16     	; 0x15ae <HotSummer+0xa6>
    159e:	80 91 f5 3a 	lds	r24, 0x3AF5	; 0x803af5 <adcTemp>
    15a2:	90 91 f6 3a 	lds	r25, 0x3AF6	; 0x803af6 <adcTemp+0x1>
    15a6:	80 93 c8 3a 	sts	0x3AC8, r24	; 0x803ac8 <calTemp>
    15aa:	90 93 c9 3a 	sts	0x3AC9, r25	; 0x803ac9 <calTemp+0x1>
        if (adcTemp >= (calTemp + 32)) {
    15ae:	80 91 c8 3a 	lds	r24, 0x3AC8	; 0x803ac8 <calTemp>
    15b2:	90 91 c9 3a 	lds	r25, 0x3AC9	; 0x803ac9 <calTemp+0x1>
    15b6:	20 91 f5 3a 	lds	r18, 0x3AF5	; 0x803af5 <adcTemp>
    15ba:	30 91 f6 3a 	lds	r19, 0x3AF6	; 0x803af6 <adcTemp+0x1>
    15be:	80 96       	adiw	r24, 0x20	; 32
    15c0:	28 17       	cp	r18, r24
    15c2:	39 07       	cpc	r19, r25
            UpdateState(FIRST_SUMMER);
    15c4:	18 f0       	brcs	.+6      	; 0x15cc <HotSummer+0xc4>
    15c6:	85 e7       	ldi	r24, 0x75	; 117
    15c8:	13 df       	rcall	.-474    	; 0x13f0 <UpdateState>
        }
    }
    return 0;
    15ca:	c0 e0       	ldi	r28, 0x00	; 0
}
    15cc:	8c 2f       	mov	r24, r28
    15ce:	cf 91       	pop	r28
    15d0:	08 95       	ret

000015d2 <WingBar>:

void WingBar(int8_t l, int8_t r) {
    15d2:	e6 eb       	ldi	r30, 0xB6	; 182
    15d4:	fe eb       	ldi	r31, 0xBE	; 190
    for (int8_t i=0; i<5; i++) {
    15d6:	90 e0       	ldi	r25, 0x00	; 0
        if (i<l)
            iLED[WING[L][i]] = dimValue;
    15d8:	a5 81       	ldd	r26, Z+5	; 0x05
    15da:	b0 e0       	ldi	r27, 0x00	; 0
    return 0;
}

void WingBar(int8_t l, int8_t r) {
    for (int8_t i=0; i<5; i++) {
        if (i<l)
    15dc:	98 17       	cp	r25, r24
    15de:	34 f4       	brge	.+12     	; 0x15ec <WingBar+0x1a>
            iLED[WING[L][i]] = dimValue;
    15e0:	20 91 0c 38 	lds	r18, 0x380C	; 0x80380c <dimValue>
    15e4:	a5 53       	subi	r26, 0x35	; 53
    15e6:	b5 4c       	sbci	r27, 0xC5	; 197
    15e8:	2c 93       	st	X, r18
    15ea:	03 c0       	rjmp	.+6      	; 0x15f2 <WingBar+0x20>
        else
            iLED[WING[L][i]] = 0;
    15ec:	a5 53       	subi	r26, 0x35	; 53
    15ee:	b5 4c       	sbci	r27, 0xC5	; 197
    15f0:	1c 92       	st	X, r1
        if (i<r)
            iLED[WING[R][i]] = dimValue;
    15f2:	a0 81       	ld	r26, Z
    15f4:	b0 e0       	ldi	r27, 0x00	; 0
    for (int8_t i=0; i<5; i++) {
        if (i<l)
            iLED[WING[L][i]] = dimValue;
        else
            iLED[WING[L][i]] = 0;
        if (i<r)
    15f6:	96 17       	cp	r25, r22
    15f8:	34 f4       	brge	.+12     	; 0x1606 <WingBar+0x34>
            iLED[WING[R][i]] = dimValue;
    15fa:	20 91 0c 38 	lds	r18, 0x380C	; 0x80380c <dimValue>
    15fe:	a5 53       	subi	r26, 0x35	; 53
    1600:	b5 4c       	sbci	r27, 0xC5	; 197
    1602:	2c 93       	st	X, r18
    1604:	03 c0       	rjmp	.+6      	; 0x160c <WingBar+0x3a>
        else
            iLED[WING[R][i]] = 0;
    1606:	a5 53       	subi	r26, 0x35	; 53
    1608:	b5 4c       	sbci	r27, 0xC5	; 197
    160a:	1c 92       	st	X, r1
    160c:	9f 5f       	subi	r25, 0xFF	; 255
    160e:	31 96       	adiw	r30, 0x01	; 1
    }
    return 0;
}

void WingBar(int8_t l, int8_t r) {
    for (int8_t i=0; i<5; i++) {
    1610:	95 30       	cpi	r25, 0x05	; 5
    1612:	11 f7       	brne	.-60     	; 0x15d8 <WingBar+0x6>
        if (i<r)
            iLED[WING[R][i]] = dimValue;
        else
            iLED[WING[R][i]] = 0;
    }
}
    1614:	08 95       	ret

00001616 <SetBothEyes>:

void SetBothEyes(uint8_t r, uint8_t g) {
    for (uint8_t i=0; i<2; i++) {
        iLED[EYE[R][i]] = r;
    1616:	a0 ec       	ldi	r26, 0xC0	; 192
    1618:	be eb       	ldi	r27, 0xBE	; 190
    161a:	ec 91       	ld	r30, X
    161c:	f0 e0       	ldi	r31, 0x00	; 0
    161e:	e5 53       	subi	r30, 0x35	; 53
    1620:	f5 4c       	sbci	r31, 0xC5	; 197
    1622:	80 83       	st	Z, r24
        iLED[EYE[G][i]] = g;
    1624:	12 96       	adiw	r26, 0x02	; 2
    1626:	ec 91       	ld	r30, X
    1628:	12 97       	sbiw	r26, 0x02	; 2
    162a:	f0 e0       	ldi	r31, 0x00	; 0
    162c:	e5 53       	subi	r30, 0x35	; 53
    162e:	f5 4c       	sbci	r31, 0xC5	; 197
    1630:	60 83       	st	Z, r22
    }
}

void SetBothEyes(uint8_t r, uint8_t g) {
    for (uint8_t i=0; i<2; i++) {
        iLED[EYE[R][i]] = r;
    1632:	11 96       	adiw	r26, 0x01	; 1
    1634:	ec 91       	ld	r30, X
    1636:	11 97       	sbiw	r26, 0x01	; 1
    1638:	f0 e0       	ldi	r31, 0x00	; 0
    163a:	e5 53       	subi	r30, 0x35	; 53
    163c:	f5 4c       	sbci	r31, 0xC5	; 197
    163e:	80 83       	st	Z, r24
        iLED[EYE[G][i]] = g;
    1640:	13 96       	adiw	r26, 0x03	; 3
    1642:	ec 91       	ld	r30, X
    1644:	f0 e0       	ldi	r31, 0x00	; 0
    1646:	e5 53       	subi	r30, 0x35	; 53
    1648:	f5 4c       	sbci	r31, 0xC5	; 197
    164a:	60 83       	st	Z, r22
    164c:	08 95       	ret

0000164e <ClearHackerLeds>:
    }
}

void ClearHackerLeds() {
    164e:	cf 93       	push	r28
    1650:	df 93       	push	r29
    1652:	e4 ec       	ldi	r30, 0xC4	; 196
    1654:	fe eb       	ldi	r31, 0xBE	; 190
    1656:	ef 01       	movw	r28, r30
    for (uint8_t i=0;i<6;i++) {
        iLED[HCKR[G][i]] = 0;
    1658:	a6 81       	ldd	r26, Z+6	; 0x06
    165a:	b0 e0       	ldi	r27, 0x00	; 0
    165c:	a5 53       	subi	r26, 0x35	; 53
    165e:	b5 4c       	sbci	r27, 0xC5	; 197
    1660:	1c 92       	st	X, r1
    1662:	31 96       	adiw	r30, 0x01	; 1
        iLED[HCKR[R][i]] = 0;
    1664:	a8 81       	ld	r26, Y
    1666:	b0 e0       	ldi	r27, 0x00	; 0
    1668:	a5 53       	subi	r26, 0x35	; 53
    166a:	b5 4c       	sbci	r27, 0xC5	; 197
    166c:	1c 92       	st	X, r1
        iLED[EYE[G][i]] = g;
    }
}

void ClearHackerLeds() {
    for (uint8_t i=0;i<6;i++) {
    166e:	8e eb       	ldi	r24, 0xBE	; 190
    1670:	ea 3c       	cpi	r30, 0xCA	; 202
    1672:	f8 07       	cpc	r31, r24
    1674:	81 f7       	brne	.-32     	; 0x1656 <ClearHackerLeds+0x8>
        iLED[HCKR[G][i]] = 0;
        iLED[HCKR[R][i]] = 0;
    }
}
    1676:	df 91       	pop	r29
    1678:	cf 91       	pop	r28
    167a:	08 95       	ret

0000167c <GenerateBlinks>:


void GenerateBlinks(){
    167c:	a0 e0       	ldi	r26, 0x00	; 0
    167e:	b0 e0       	ldi	r27, 0x00	; 0
    1680:	e4 e4       	ldi	r30, 0x44	; 68
    1682:	fb e0       	ldi	r31, 0x0B	; 11
    1684:	0c 94 22 1f 	jmp	0x3e44	; 0x3e44 <__prologue_saves__+0x14>
    used by the games, the other LEDs can be used by setting 
    effect (or be set directly)
    */

    //Activate HCKR & BADGER leds based on the state-bits
    if (gameNow == TEXT) {
    1688:	80 91 42 38 	lds	r24, 0x3842	; 0x803842 <gameNow>
    168c:	88 23       	and	r24, r24
    168e:	29 f0       	breq	.+10     	; 0x169a <GenerateBlinks+0x1e>
                iLED[HCKR[R][i]] = dimValue;
            }
        }
    }

    if (CheckState(GEM_STATE)) {
    1690:	80 e4       	ldi	r24, 0x40	; 64
    1692:	cf de       	rcall	.-610    	; 0x1432 <CheckState>
    1694:	81 11       	cpse	r24, r1
    1696:	24 c0       	rjmp	.+72     	; 0x16e0 <GenerateBlinks+0x64>
    1698:	50 c0       	rjmp	.+160    	; 0x173a <GenerateBlinks+0xbe>
    169a:	c4 ec       	ldi	r28, 0xC4	; 196
    169c:	de eb       	ldi	r29, 0xBE	; 190
    used by the games, the other LEDs can be used by setting 
    effect (or be set directly)
    */

    //Activate HCKR & BADGER leds based on the state-bits
    if (gameNow == TEXT) {
    169e:	1a e7       	ldi	r17, 0x7A	; 122
        for (uint8_t i=0;i<6;i++) {
            if(CheckState(HACKER_STATES + i)) {
    16a0:	81 2f       	mov	r24, r17
    16a2:	c7 de       	rcall	.-626    	; 0x1432 <CheckState>
                iLED[HCKR[G][i]] = dimValue;
    16a4:	ee 81       	ldd	r30, Y+6	; 0x06
    16a6:	f0 e0       	ldi	r31, 0x00	; 0
    */

    //Activate HCKR & BADGER leds based on the state-bits
    if (gameNow == TEXT) {
        for (uint8_t i=0;i<6;i++) {
            if(CheckState(HACKER_STATES + i)) {
    16a8:	88 23       	and	r24, r24
    16aa:	59 f0       	breq	.+22     	; 0x16c2 <GenerateBlinks+0x46>
                iLED[HCKR[G][i]] = dimValue;
    16ac:	80 91 0c 38 	lds	r24, 0x380C	; 0x80380c <dimValue>
    16b0:	e5 53       	subi	r30, 0x35	; 53
    16b2:	f5 4c       	sbci	r31, 0xC5	; 197
    16b4:	80 83       	st	Z, r24
                iLED[HCKR[R][i]] = 0;
    16b6:	e8 81       	ld	r30, Y
    16b8:	f0 e0       	ldi	r31, 0x00	; 0
    16ba:	e5 53       	subi	r30, 0x35	; 53
    16bc:	f5 4c       	sbci	r31, 0xC5	; 197
    16be:	10 82       	st	Z, r1
    16c0:	0a c0       	rjmp	.+20     	; 0x16d6 <GenerateBlinks+0x5a>
            } else {
                iLED[HCKR[G][i]] = 0;
    16c2:	e5 53       	subi	r30, 0x35	; 53
    16c4:	f5 4c       	sbci	r31, 0xC5	; 197
    16c6:	10 82       	st	Z, r1
                iLED[HCKR[R][i]] = dimValue;
    16c8:	e8 81       	ld	r30, Y
    16ca:	f0 e0       	ldi	r31, 0x00	; 0
    16cc:	80 91 0c 38 	lds	r24, 0x380C	; 0x80380c <dimValue>
    16d0:	e5 53       	subi	r30, 0x35	; 53
    16d2:	f5 4c       	sbci	r31, 0xC5	; 197
    16d4:	80 83       	st	Z, r24
    16d6:	1f 5f       	subi	r17, 0xFF	; 255
    16d8:	21 96       	adiw	r28, 0x01	; 1
    effect (or be set directly)
    */

    //Activate HCKR & BADGER leds based on the state-bits
    if (gameNow == TEXT) {
        for (uint8_t i=0;i<6;i++) {
    16da:	10 38       	cpi	r17, 0x80	; 128
    16dc:	09 f7       	brne	.-62     	; 0x16a0 <GenerateBlinks+0x24>
    16de:	d8 cf       	rjmp	.-80     	; 0x1690 <GenerateBlinks+0x14>
            }
        }
    }

    if (CheckState(GEM_STATE)) {
        if ( HeartCount == 1 || HeartCount == 3 || HeartCount == 5 )
    16e0:	80 91 61 38 	lds	r24, 0x3861	; 0x803861 <HeartCount>
    16e4:	98 2f       	mov	r25, r24
    16e6:	9d 7f       	andi	r25, 0xFD	; 253
    16e8:	e0 91 b3 be 	lds	r30, 0xBEB3	; 0x80beb3 <__bss_end+0x8399>
            iLED[BADGER] = dimValue>>1 ;
    16ec:	f0 e0       	ldi	r31, 0x00	; 0
            }
        }
    }

    if (CheckState(GEM_STATE)) {
        if ( HeartCount == 1 || HeartCount == 3 || HeartCount == 5 )
    16ee:	91 30       	cpi	r25, 0x01	; 1
    16f0:	11 f0       	breq	.+4      	; 0x16f6 <GenerateBlinks+0x7a>
    16f2:	85 30       	cpi	r24, 0x05	; 5
    16f4:	21 f4       	brne	.+8      	; 0x16fe <GenerateBlinks+0x82>
            iLED[BADGER] = dimValue>>1 ;
    16f6:	90 91 0c 38 	lds	r25, 0x380C	; 0x80380c <dimValue>
    16fa:	96 95       	lsr	r25
    16fc:	06 c0       	rjmp	.+12     	; 0x170a <GenerateBlinks+0x8e>
        else if ( HeartCount == 2 || HeartCount == 4 )
    16fe:	82 30       	cpi	r24, 0x02	; 2
    1700:	11 f0       	breq	.+4      	; 0x1706 <GenerateBlinks+0x8a>
    1702:	84 30       	cpi	r24, 0x04	; 4
    1704:	31 f4       	brne	.+12     	; 0x1712 <GenerateBlinks+0x96>
            iLED[BADGER] = dimValue;
    1706:	90 91 0c 38 	lds	r25, 0x380C	; 0x80380c <dimValue>
    170a:	e5 53       	subi	r30, 0x35	; 53
    170c:	f5 4c       	sbci	r31, 0xC5	; 197
    170e:	90 83       	st	Z, r25
    1710:	0c c0       	rjmp	.+24     	; 0x172a <GenerateBlinks+0xae>
        else if ( HeartCount == 0 || HeartCount == 6 )
    1712:	88 23       	and	r24, r24
    1714:	11 f0       	breq	.+4      	; 0x171a <GenerateBlinks+0x9e>
    1716:	86 30       	cpi	r24, 0x06	; 6
    1718:	29 f4       	brne	.+10     	; 0x1724 <GenerateBlinks+0xa8>
            iLED[BADGER] = dimValue>>2;
    171a:	90 91 0c 38 	lds	r25, 0x380C	; 0x80380c <dimValue>
    171e:	96 95       	lsr	r25
    1720:	96 95       	lsr	r25
    1722:	f3 cf       	rjmp	.-26     	; 0x170a <GenerateBlinks+0x8e>
        else
            iLED[BADGER] = 0;
    1724:	e5 53       	subi	r30, 0x35	; 53
    1726:	f5 4c       	sbci	r31, 0xC5	; 197
    1728:	10 82       	st	Z, r1
        if (HeartCount<32)
    172a:	80 32       	cpi	r24, 0x20	; 32
    172c:	20 f4       	brcc	.+8      	; 0x1736 <GenerateBlinks+0xba>
            HeartCount++;
    172e:	8f 5f       	subi	r24, 0xFF	; 255
    1730:	80 93 61 38 	sts	0x3861, r24	; 0x803861 <HeartCount>
    1734:	02 c0       	rjmp	.+4      	; 0x173a <GenerateBlinks+0xbe>
        else
            HeartCount = 0;
    1736:	10 92 61 38 	sts	0x3861, r1	; 0x803861 <HeartCount>
    }

    //LEDs effects for all games
    // Keep a counter for dynamic effects
    LedCount++;
    173a:	90 91 60 38 	lds	r25, 0x3860	; 0x803860 <LedCount>
    173e:	9f 5f       	subi	r25, 0xFF	; 255
    1740:	90 93 60 38 	sts	0x3860, r25	; 0x803860 <LedCount>
    
    switch (effect&0x1f) {
    1744:	e0 91 40 38 	lds	r30, 0x3840	; 0x803840 <effect>
    1748:	f0 91 41 38 	lds	r31, 0x3841	; 0x803841 <effect+0x1>
    174c:	ef 71       	andi	r30, 0x1F	; 31
    174e:	ff 27       	eor	r31, r31
    1750:	e9 30       	cpi	r30, 0x09	; 9
    1752:	f1 05       	cpc	r31, r1
    1754:	08 f0       	brcs	.+2      	; 0x1758 <GenerateBlinks+0xdc>
    1756:	f4 c0       	rjmp	.+488    	; 0x1940 <GenerateBlinks+0x2c4>
    1758:	e2 5c       	subi	r30, 0xC2	; 194
    175a:	ff 4f       	sbci	r31, 0xFF	; 255
    175c:	0c 94 12 1f 	jmp	0x3e24	; 0x3e24 <__tablejump2__>
        // All LEDs off
        case 0:
            WingBar(0,0);
    1760:	60 e0       	ldi	r22, 0x00	; 0
    1762:	80 e0       	ldi	r24, 0x00	; 0
    1764:	36 df       	rcall	.-404    	; 0x15d2 <WingBar>
            for (uint8_t i=0; i<2; i++) {
                iLED[EYE[R][i]] = 0;
    1766:	e0 91 c0 be 	lds	r30, 0xBEC0	; 0x80bec0 <__bss_end+0x83a6>
    176a:	f0 e0       	ldi	r31, 0x00	; 0
    176c:	e5 53       	subi	r30, 0x35	; 53
    176e:	f5 4c       	sbci	r31, 0xC5	; 197
    1770:	10 82       	st	Z, r1
                iLED[EYE[G][i]] = 0; 
    1772:	e0 91 c2 be 	lds	r30, 0xBEC2	; 0x80bec2 <__bss_end+0x83a8>
    1776:	f0 e0       	ldi	r31, 0x00	; 0
    1778:	e5 53       	subi	r30, 0x35	; 53
    177a:	f5 4c       	sbci	r31, 0xC5	; 197
    177c:	10 82       	st	Z, r1
                iLED[SCARAB[i]] = 0;
    177e:	e0 91 b4 be 	lds	r30, 0xBEB4	; 0x80beb4 <__bss_end+0x839a>
    1782:	f0 e0       	ldi	r31, 0x00	; 0
    1784:	e5 53       	subi	r30, 0x35	; 53
    1786:	f5 4c       	sbci	r31, 0xC5	; 197
    1788:	10 82       	st	Z, r1
    switch (effect&0x1f) {
        // All LEDs off
        case 0:
            WingBar(0,0);
            for (uint8_t i=0; i<2; i++) {
                iLED[EYE[R][i]] = 0;
    178a:	e0 91 c1 be 	lds	r30, 0xBEC1	; 0x80bec1 <__bss_end+0x83a7>
    178e:	f0 e0       	ldi	r31, 0x00	; 0
    1790:	e5 53       	subi	r30, 0x35	; 53
    1792:	f5 4c       	sbci	r31, 0xC5	; 197
    1794:	10 82       	st	Z, r1
                iLED[EYE[G][i]] = 0; 
    1796:	e0 91 c3 be 	lds	r30, 0xBEC3	; 0x80bec3 <__bss_end+0x83a9>
    179a:	f0 e0       	ldi	r31, 0x00	; 0
    179c:	e5 53       	subi	r30, 0x35	; 53
    179e:	f5 4c       	sbci	r31, 0xC5	; 197
    17a0:	10 82       	st	Z, r1
                iLED[SCARAB[i]] = 0;
    17a2:	e0 91 b5 be 	lds	r30, 0xBEB5	; 0x80beb5 <__bss_end+0x839b>
    17a6:	f0 e0       	ldi	r31, 0x00	; 0
    17a8:	e5 53       	subi	r30, 0x35	; 53
    17aa:	f5 4c       	sbci	r31, 0xC5	; 197
    17ac:	10 82       	st	Z, r1
            }
            iLED[CAT] = 0;
    17ae:	e0 91 b2 be 	lds	r30, 0xBEB2	; 0x80beb2 <__bss_end+0x8398>
    17b2:	f0 e0       	ldi	r31, 0x00	; 0
    17b4:	e5 53       	subi	r30, 0x35	; 53
    17b6:	f5 4c       	sbci	r31, 0xC5	; 197
    17b8:	10 82       	st	Z, r1
            break;
    17ba:	c2 c0       	rjmp	.+388    	; 0x1940 <GenerateBlinks+0x2c4>

        //'flashing red eyes',       # 1 can be used when a bad answer is given
        case 1:
            SetBothEyes((LedCount & 1 ? dimValue : 0),0);
    17bc:	89 2f       	mov	r24, r25
    17be:	81 70       	andi	r24, 0x01	; 1
    17c0:	90 fd       	sbrc	r25, 0
    17c2:	80 91 0c 38 	lds	r24, 0x380C	; 0x80380c <dimValue>
    17c6:	60 e0       	ldi	r22, 0x00	; 0
    17c8:	0d c0       	rjmp	.+26     	; 0x17e4 <GenerateBlinks+0x168>
    17ca:	69 2f       	mov	r22, r25
    17cc:	70 e0       	ldi	r23, 0x00	; 0
            break;

        //'flashing green eyes',     # 2 can be used when a good answer is given
        case 2:
            SetBothEyes(0, 0x1f + (((LedCount & 0x08) ? ((LedCount&0x07)^0x07) : (LedCount&0x07))<<5));
    17ce:	93 ff       	sbrs	r25, 3
    17d0:	02 c0       	rjmp	.+4      	; 0x17d6 <GenerateBlinks+0x15a>
    17d2:	60 95       	com	r22
    17d4:	70 95       	com	r23
    17d6:	95 e0       	ldi	r25, 0x05	; 5
    17d8:	66 0f       	add	r22, r22
    17da:	77 1f       	adc	r23, r23
    17dc:	9a 95       	dec	r25
    17de:	e1 f7       	brne	.-8      	; 0x17d8 <GenerateBlinks+0x15c>
    17e0:	61 5e       	subi	r22, 0xE1	; 225
    17e2:	80 e0       	ldi	r24, 0x00	; 0
    17e4:	18 df       	rcall	.-464    	; 0x1616 <SetBothEyes>
            break;
    17e6:	ac c0       	rjmp	.+344    	; 0x1940 <GenerateBlinks+0x2c4>

        //'flash both wings'
        case 5:
            if ((LedCount & 3) == 0) {
    17e8:	89 2f       	mov	r24, r25
    17ea:	83 70       	andi	r24, 0x03	; 3
    17ec:	09 f0       	breq	.+2      	; 0x17f0 <GenerateBlinks+0x174>
    17ee:	a8 c0       	rjmp	.+336    	; 0x1940 <GenerateBlinks+0x2c4>
                if (LedCount & 4)
    17f0:	92 ff       	sbrs	r25, 2
    17f2:	03 c0       	rjmp	.+6      	; 0x17fa <GenerateBlinks+0x17e>
                    WingBar(5,5);
    17f4:	65 e0       	ldi	r22, 0x05	; 5
    17f6:	85 e0       	ldi	r24, 0x05	; 5
                else
                    WingBar(0,0);
    17f8:	02 c0       	rjmp	.+4      	; 0x17fe <GenerateBlinks+0x182>
    17fa:	60 e0       	ldi	r22, 0x00	; 0
    17fc:	80 e0       	ldi	r24, 0x00	; 0
    17fe:	e9 de       	rcall	.-558    	; 0x15d2 <WingBar>
    1800:	9f c0       	rjmp	.+318    	; 0x1940 <GenerateBlinks+0x2c4>
            }
            break;

        //'circle the wing leds'
        case 6:
            if (LedCount > 4) LedCount = 0;
    1802:	95 30       	cpi	r25, 0x05	; 5
    1804:	10 f0       	brcs	.+4      	; 0x180a <GenerateBlinks+0x18e>
    1806:	10 92 60 38 	sts	0x3860, r1	; 0x803860 <LedCount>
            iLED[WING[L][LedCount]] = 0;
    180a:	40 91 60 38 	lds	r20, 0x3860	; 0x803860 <LedCount>
    180e:	24 2f       	mov	r18, r20
    1810:	30 e0       	ldi	r19, 0x00	; 0
    1812:	f9 01       	movw	r30, r18
    1814:	ea 54       	subi	r30, 0x4A	; 74
    1816:	f1 44       	sbci	r31, 0x41	; 65
    1818:	e5 81       	ldd	r30, Z+5	; 0x05
    181a:	f0 e0       	ldi	r31, 0x00	; 0
    181c:	e5 53       	subi	r30, 0x35	; 53
    181e:	f5 4c       	sbci	r31, 0xC5	; 197
    1820:	10 82       	st	Z, r1
            iLED[WING[L][LedCount == 4 ? 0 : LedCount+1]] = dimValue;
    1822:	44 30       	cpi	r20, 0x04	; 4
    1824:	19 f0       	breq	.+6      	; 0x182c <GenerateBlinks+0x1b0>
    1826:	c9 01       	movw	r24, r18
    1828:	01 96       	adiw	r24, 0x01	; 1
    182a:	02 c0       	rjmp	.+4      	; 0x1830 <GenerateBlinks+0x1b4>
    182c:	80 e0       	ldi	r24, 0x00	; 0
    182e:	90 e0       	ldi	r25, 0x00	; 0
    1830:	fc 01       	movw	r30, r24
    1832:	ea 54       	subi	r30, 0x4A	; 74
    1834:	f1 44       	sbci	r31, 0x41	; 65
    1836:	e5 81       	ldd	r30, Z+5	; 0x05
    1838:	f0 e0       	ldi	r31, 0x00	; 0
    183a:	80 91 0c 38 	lds	r24, 0x380C	; 0x80380c <dimValue>
    183e:	e5 53       	subi	r30, 0x35	; 53
    1840:	f5 4c       	sbci	r31, 0xC5	; 197
    1842:	80 83       	st	Z, r24
            iLED[WING[R][4-LedCount]] = 0;
    1844:	ea eb       	ldi	r30, 0xBA	; 186
    1846:	fe eb       	ldi	r31, 0xBE	; 190
    1848:	e2 1b       	sub	r30, r18
    184a:	f3 0b       	sbc	r31, r19
    184c:	e0 81       	ld	r30, Z
    184e:	f0 e0       	ldi	r31, 0x00	; 0
    1850:	e5 53       	subi	r30, 0x35	; 53
    1852:	f5 4c       	sbci	r31, 0xC5	; 197
    1854:	10 82       	st	Z, r1
            iLED[WING[R][LedCount == 4 ? 4 : 3-LedCount]] = dimValue;
    1856:	44 30       	cpi	r20, 0x04	; 4
    1858:	29 f0       	breq	.+10     	; 0x1864 <GenerateBlinks+0x1e8>
    185a:	83 e0       	ldi	r24, 0x03	; 3
    185c:	90 e0       	ldi	r25, 0x00	; 0
    185e:	82 1b       	sub	r24, r18
    1860:	93 0b       	sbc	r25, r19
    1862:	02 c0       	rjmp	.+4      	; 0x1868 <GenerateBlinks+0x1ec>
    1864:	84 e0       	ldi	r24, 0x04	; 4
    1866:	90 e0       	ldi	r25, 0x00	; 0
    1868:	fc 01       	movw	r30, r24
    186a:	ea 54       	subi	r30, 0x4A	; 74
    186c:	f1 44       	sbci	r31, 0x41	; 65
    186e:	e0 81       	ld	r30, Z
    1870:	f0 e0       	ldi	r31, 0x00	; 0
    1872:	80 91 0c 38 	lds	r24, 0x380C	; 0x80380c <dimValue>
    1876:	e5 53       	subi	r30, 0x35	; 53
    1878:	f5 4c       	sbci	r31, 0xC5	; 197
    187a:	80 83       	st	Z, r24
            break;
    187c:	61 c0       	rjmp	.+194    	; 0x1940 <GenerateBlinks+0x2c4>
    187e:	c6 eb       	ldi	r28, 0xB6	; 182
    1880:	de eb       	ldi	r29, 0xBE	; 190
    1882:	8b eb       	ldi	r24, 0xBB	; 187
    1884:	e8 2e       	mov	r14, r24
    1886:	8e eb       	ldi	r24, 0xBE	; 190
    1888:	f8 2e       	mov	r15, r24

        //'random wing leds'
        case 7:
            for (uint8_t x=0; x<5; ++x){
                iLED[WING[L][x]] = (lfsr() > 127)?dimValue:0;
    188a:	6e 01       	movw	r12, r28
    188c:	0d 81       	ldd	r16, Y+5	; 0x05
    188e:	10 e0       	ldi	r17, 0x00	; 0
    1890:	a9 dc       	rcall	.-1710   	; 0x11e4 <lfsr>
    1892:	87 ff       	sbrs	r24, 7
    1894:	03 c0       	rjmp	.+6      	; 0x189c <GenerateBlinks+0x220>
    1896:	80 91 0c 38 	lds	r24, 0x380C	; 0x80380c <dimValue>
    189a:	01 c0       	rjmp	.+2      	; 0x189e <GenerateBlinks+0x222>
    189c:	80 e0       	ldi	r24, 0x00	; 0
    189e:	f8 01       	movw	r30, r16
    18a0:	e5 53       	subi	r30, 0x35	; 53
    18a2:	f5 4c       	sbci	r31, 0xC5	; 197
    18a4:	80 83       	st	Z, r24
                iLED[WING[R][x]] = (lfsr() > 127)?dimValue:0;
    18a6:	21 96       	adiw	r28, 0x01	; 1
    18a8:	f6 01       	movw	r30, r12
    18aa:	00 81       	ld	r16, Z
    18ac:	10 e0       	ldi	r17, 0x00	; 0
    18ae:	9a dc       	rcall	.-1740   	; 0x11e4 <lfsr>
    18b0:	87 ff       	sbrs	r24, 7
    18b2:	03 c0       	rjmp	.+6      	; 0x18ba <GenerateBlinks+0x23e>
    18b4:	80 91 0c 38 	lds	r24, 0x380C	; 0x80380c <dimValue>
    18b8:	01 c0       	rjmp	.+2      	; 0x18bc <GenerateBlinks+0x240>
    18ba:	80 e0       	ldi	r24, 0x00	; 0
    18bc:	f8 01       	movw	r30, r16
    18be:	e5 53       	subi	r30, 0x35	; 53
    18c0:	f5 4c       	sbci	r31, 0xC5	; 197
    18c2:	80 83       	st	Z, r24
            iLED[WING[R][LedCount == 4 ? 4 : 3-LedCount]] = dimValue;
            break;

        //'random wing leds'
        case 7:
            for (uint8_t x=0; x<5; ++x){
    18c4:	ec 16       	cp	r14, r28
    18c6:	fd 06       	cpc	r15, r29
    18c8:	01 f7       	brne	.-64     	; 0x188a <GenerateBlinks+0x20e>
    18ca:	3a c0       	rjmp	.+116    	; 0x1940 <GenerateBlinks+0x2c4>
            }
            break;

        //'falling rain'
        case 8:
            if ((LedCount & 1) == 0) {
    18cc:	90 fd       	sbrc	r25, 0
    18ce:	38 c0       	rjmp	.+112    	; 0x1940 <GenerateBlinks+0x2c4>
    18d0:	e6 eb       	ldi	r30, 0xB6	; 182
    18d2:	fe eb       	ldi	r31, 0xBE	; 190
    18d4:	8a eb       	ldi	r24, 0xBA	; 186
    18d6:	9e eb       	ldi	r25, 0xBE	; 190
    18d8:	9f 01       	movw	r18, r30
                for (uint8_t x=0; x<4; ++x){
                    iLED[WING[L][x]] = iLED[WING[L][x+1]];
    18da:	a5 81       	ldd	r26, Z+5	; 0x05
    18dc:	b0 e0       	ldi	r27, 0x00	; 0
    18de:	c6 81       	ldd	r28, Z+6	; 0x06
    18e0:	d0 e0       	ldi	r29, 0x00	; 0
    18e2:	c5 53       	subi	r28, 0x35	; 53
    18e4:	d5 4c       	sbci	r29, 0xC5	; 197
    18e6:	48 81       	ld	r20, Y
    18e8:	a5 53       	subi	r26, 0x35	; 53
    18ea:	b5 4c       	sbci	r27, 0xC5	; 197
    18ec:	4c 93       	st	X, r20
    18ee:	31 96       	adiw	r30, 0x01	; 1
                    iLED[WING[R][x]] = iLED[WING[R][x+1]];
    18f0:	e9 01       	movw	r28, r18
    18f2:	a8 81       	ld	r26, Y
    18f4:	b0 e0       	ldi	r27, 0x00	; 0
    18f6:	c0 81       	ld	r28, Z
    18f8:	d0 e0       	ldi	r29, 0x00	; 0
    18fa:	c5 53       	subi	r28, 0x35	; 53
    18fc:	d5 4c       	sbci	r29, 0xC5	; 197
    18fe:	28 81       	ld	r18, Y
    1900:	a5 53       	subi	r26, 0x35	; 53
    1902:	b5 4c       	sbci	r27, 0xC5	; 197
            break;

        //'falling rain'
        case 8:
            if ((LedCount & 1) == 0) {
                for (uint8_t x=0; x<4; ++x){
    1904:	2c 93       	st	X, r18
    1906:	8e 17       	cp	r24, r30
    1908:	9f 07       	cpc	r25, r31
                    iLED[WING[L][x]] = iLED[WING[L][x+1]];
                    iLED[WING[R][x]] = iLED[WING[R][x+1]];
                }
                iLED[WING[L][4]] = (lfsr() > 224)?dimValue:0;
    190a:	31 f7       	brne	.-52     	; 0x18d8 <GenerateBlinks+0x25c>
    190c:	c0 91 bf be 	lds	r28, 0xBEBF	; 0x80bebf <__bss_end+0x83a5>
    1910:	d0 e0       	ldi	r29, 0x00	; 0
    1912:	68 dc       	rcall	.-1840   	; 0x11e4 <lfsr>
    1914:	81 3e       	cpi	r24, 0xE1	; 225
    1916:	18 f0       	brcs	.+6      	; 0x191e <GenerateBlinks+0x2a2>
    1918:	80 91 0c 38 	lds	r24, 0x380C	; 0x80380c <dimValue>
    191c:	01 c0       	rjmp	.+2      	; 0x1920 <GenerateBlinks+0x2a4>
    191e:	80 e0       	ldi	r24, 0x00	; 0
    1920:	c5 53       	subi	r28, 0x35	; 53
    1922:	d5 4c       	sbci	r29, 0xC5	; 197
                iLED[WING[R][4]] = (lfsr() > 224)?dimValue:0;
    1924:	88 83       	st	Y, r24
    1926:	c0 91 ba be 	lds	r28, 0xBEBA	; 0x80beba <__bss_end+0x83a0>
    192a:	d0 e0       	ldi	r29, 0x00	; 0
    192c:	5b dc       	rcall	.-1866   	; 0x11e4 <lfsr>
    192e:	81 3e       	cpi	r24, 0xE1	; 225
    1930:	18 f0       	brcs	.+6      	; 0x1938 <GenerateBlinks+0x2bc>
    1932:	80 91 0c 38 	lds	r24, 0x380C	; 0x80380c <dimValue>
    1936:	01 c0       	rjmp	.+2      	; 0x193a <GenerateBlinks+0x2be>
    1938:	80 e0       	ldi	r24, 0x00	; 0
    193a:	c5 53       	subi	r28, 0x35	; 53
    193c:	d5 4c       	sbci	r29, 0xC5	; 197
    193e:	88 83       	st	Y, r24
        case 31:
        default:
            break;
            
    }
}
    1940:	cd b7       	in	r28, 0x3d	; 61
    1942:	de b7       	in	r29, 0x3e	; 62
    1944:	e8 e0       	ldi	r30, 0x08	; 8
    1946:	0c 94 3b 1f 	jmp	0x3e76	; 0x3e76 <__epilogue_restores__+0x14>

0000194a <GenerateAudio>:


uint8_t GenerateAudio(){
    194a:	0f 93       	push	r16
    194c:	1f 93       	push	r17
    194e:	cf 93       	push	r28

    //Headphones detected?
    if (auIn < HPLVL) {
    1950:	80 91 ca 3a 	lds	r24, 0x3ACA	; 0x803aca <auIn>
    1954:	89 31       	cpi	r24, 0x19	; 25
    1956:	08 f0       	brcs	.+2      	; 0x195a <GenerateAudio+0x10>
    1958:	7d c1       	rjmp	.+762    	; 0x1c54 <GenerateAudio+0x30a>

        detHdPh = 1;
    195a:	c1 e0       	ldi	r28, 0x01	; 1
    195c:	c0 93 c7 3a 	sts	0x3AC7, r28	; 0x803ac7 <detHdPh>

        //Audio for text adventure
        if ((effect&0xff00)==0) {
    1960:	80 91 40 38 	lds	r24, 0x3840	; 0x803840 <effect>
    1964:	90 91 41 38 	lds	r25, 0x3841	; 0x803841 <effect+0x1>
    1968:	88 27       	eor	r24, r24
    196a:	89 2b       	or	r24, r25
    196c:	09 f0       	breq	.+2      	; 0x1970 <GenerateAudio+0x26>
    196e:	1f c1       	rjmp	.+574    	; 0x1bae <GenerateAudio+0x264>

            //Silence, I kill u
            if ((effect&0xE0)==0){
    1970:	80 91 40 38 	lds	r24, 0x3840	; 0x803840 <effect>
    1974:	90 91 41 38 	lds	r25, 0x3841	; 0x803841 <effect+0x1>
    1978:	80 7e       	andi	r24, 0xE0	; 224
    197a:	99 27       	eor	r25, r25
    197c:	89 2b       	or	r24, r25
    197e:	39 f4       	brne	.+14     	; 0x198e <GenerateAudio+0x44>
                auRepAddr = &zero;
    1980:	8f e3       	ldi	r24, 0x3F	; 63
    1982:	98 e3       	ldi	r25, 0x38	; 56
    1984:	80 93 03 38 	sts	0x3803, r24	; 0x803803 <auRepAddr>
    1988:	90 93 04 38 	sts	0x3804, r25	; 0x803804 <auRepAddr+0x1>
    198c:	65 c1       	rjmp	.+714    	; 0x1c58 <GenerateAudio+0x30e>
            }

            //Bad answer (buzzer, also used in other games)
            else if ((effect&0xE0)==32){
    198e:	80 91 40 38 	lds	r24, 0x3840	; 0x803840 <effect>
    1992:	90 91 41 38 	lds	r25, 0x3841	; 0x803841 <effect+0x1>
    1996:	80 7e       	andi	r24, 0xE0	; 224
    1998:	99 27       	eor	r25, r25
    199a:	80 97       	sbiw	r24, 0x20	; 32
    199c:	09 f0       	breq	.+2      	; 0x19a0 <GenerateAudio+0x56>
    199e:	4e c0       	rjmp	.+156    	; 0x1a3c <GenerateAudio+0xf2>
                static uint8_t auBuffer[17] = {1, 255, 128, 128, 192, 255, 64, 255, 192, 128, 64, 1, 192, 1, 64, 128, 0}; 
                static uint8_t duration, start;
                floatSpeed(1, 0x2000, 0x2200);
    19a0:	40 e0       	ldi	r20, 0x00	; 0
    19a2:	52 e2       	ldi	r21, 0x22	; 34
    19a4:	60 e0       	ldi	r22, 0x00	; 0
    19a6:	70 e2       	ldi	r23, 0x20	; 32
    19a8:	81 e0       	ldi	r24, 0x01	; 1
    19aa:	3b dc       	rcall	.-1930   	; 0x1222 <floatSpeed>
                auBuffer[2] = floatAround(0x80, 5, 0x01, 0x00);
    19ac:	20 e0       	ldi	r18, 0x00	; 0
    19ae:	41 e0       	ldi	r20, 0x01	; 1
    19b0:	65 e0       	ldi	r22, 0x05	; 5
    19b2:	80 e8       	ldi	r24, 0x80	; 128
    19b4:	64 dc       	rcall	.-1848   	; 0x127e <floatAround>
    19b6:	80 93 1c 38 	sts	0x381C, r24	; 0x80381c <auBuffer.4021+0x2>

                if (buttonMark){
    19ba:	80 91 48 38 	lds	r24, 0x3848	; 0x803848 <buttonMark>
    19be:	88 23       	and	r24, r24
    19c0:	09 f4       	brne	.+2      	; 0x19c4 <GenerateAudio+0x7a>
    19c2:	4a c1       	rjmp	.+660    	; 0x1c58 <GenerateAudio+0x30e>
                    if (start == 0) {
    19c4:	80 91 5e 38 	lds	r24, 0x385E	; 0x80385e <start.4023>
    19c8:	81 11       	cpse	r24, r1
    19ca:	0b c0       	rjmp	.+22     	; 0x19e2 <GenerateAudio+0x98>
                        duration = 4;
    19cc:	84 e0       	ldi	r24, 0x04	; 4
    19ce:	80 93 5d 38 	sts	0x385D, r24	; 0x80385d <duration.4022>
                        auRepAddr = &auBuffer[0];
    19d2:	8a e1       	ldi	r24, 0x1A	; 26
    19d4:	98 e3       	ldi	r25, 0x38	; 56
    19d6:	80 93 03 38 	sts	0x3803, r24	; 0x803803 <auRepAddr>
    19da:	90 93 04 38 	sts	0x3804, r25	; 0x803804 <auRepAddr+0x1>
                        start = 1;
    19de:	c0 93 5e 38 	sts	0x385E, r28	; 0x80385e <start.4023>
                    }
                    
                    if ((auVolume)&&(duration == 0)) auVolume >>= 1; 
    19e2:	80 91 be 3a 	lds	r24, 0x3ABE	; 0x803abe <auVolume>
    19e6:	88 23       	and	r24, r24
    19e8:	49 f0       	breq	.+18     	; 0x19fc <GenerateAudio+0xb2>
    19ea:	80 91 5d 38 	lds	r24, 0x385D	; 0x80385d <duration.4022>
    19ee:	81 11       	cpse	r24, r1
    19f0:	05 c0       	rjmp	.+10     	; 0x19fc <GenerateAudio+0xb2>
    19f2:	80 91 be 3a 	lds	r24, 0x3ABE	; 0x803abe <auVolume>
    19f6:	86 95       	lsr	r24
    19f8:	80 93 be 3a 	sts	0x3ABE, r24	; 0x803abe <auVolume>

                    if (auVolume == 0){
    19fc:	80 91 be 3a 	lds	r24, 0x3ABE	; 0x803abe <auVolume>
    1a00:	81 11       	cpse	r24, r1
    1a02:	13 c0       	rjmp	.+38     	; 0x1a2a <GenerateAudio+0xe0>
                        start = 0;
    1a04:	10 92 5e 38 	sts	0x385E, r1	; 0x80385e <start.4023>
                        auRepAddr = &zero;
    1a08:	8f e3       	ldi	r24, 0x3F	; 63
    1a0a:	98 e3       	ldi	r25, 0x38	; 56
    1a0c:	80 93 03 38 	sts	0x3803, r24	; 0x803803 <auRepAddr>
    1a10:	90 93 04 38 	sts	0x3804, r25	; 0x803804 <auRepAddr+0x1>
                        effect &= 0x1f;
    1a14:	80 91 40 38 	lds	r24, 0x3840	; 0x803840 <effect>
    1a18:	90 91 41 38 	lds	r25, 0x3841	; 0x803841 <effect+0x1>
    1a1c:	8f 71       	andi	r24, 0x1F	; 31
    1a1e:	99 27       	eor	r25, r25
    1a20:	80 93 40 38 	sts	0x3840, r24	; 0x803840 <effect>
    1a24:	90 93 41 38 	sts	0x3841, r25	; 0x803841 <effect+0x1>
    1a28:	17 c1       	rjmp	.+558    	; 0x1c58 <GenerateAudio+0x30e>
                    } else if (duration) --duration;
    1a2a:	80 91 5d 38 	lds	r24, 0x385D	; 0x80385d <duration.4022>
    1a2e:	88 23       	and	r24, r24
    1a30:	09 f4       	brne	.+2      	; 0x1a34 <GenerateAudio+0xea>
    1a32:	12 c1       	rjmp	.+548    	; 0x1c58 <GenerateAudio+0x30e>
    1a34:	81 50       	subi	r24, 0x01	; 1
    1a36:	80 93 5d 38 	sts	0x385D, r24	; 0x80385d <duration.4022>
    1a3a:	0e c1       	rjmp	.+540    	; 0x1c58 <GenerateAudio+0x30e>

                }
            }

            //Good (bell)
            else if ((effect&0xE0)==64){
    1a3c:	80 91 40 38 	lds	r24, 0x3840	; 0x803840 <effect>
    1a40:	90 91 41 38 	lds	r25, 0x3841	; 0x803841 <effect+0x1>
    1a44:	80 7e       	andi	r24, 0xE0	; 224
    1a46:	99 27       	eor	r25, r25
    1a48:	80 34       	cpi	r24, 0x40	; 64
    1a4a:	91 05       	cpc	r25, r1
    1a4c:	e1 f5       	brne	.+120    	; 0x1ac6 <GenerateAudio+0x17c>
                static uint8_t start, auBuffer[3] = {255, 1, 0};
                
                if (auVolume) --auVolume;
    1a4e:	80 91 be 3a 	lds	r24, 0x3ABE	; 0x803abe <auVolume>
    1a52:	88 23       	and	r24, r24
    1a54:	29 f0       	breq	.+10     	; 0x1a60 <GenerateAudio+0x116>
    1a56:	80 91 be 3a 	lds	r24, 0x3ABE	; 0x803abe <auVolume>
    1a5a:	81 50       	subi	r24, 0x01	; 1
    1a5c:	80 93 be 3a 	sts	0x3ABE, r24	; 0x803abe <auVolume>
                if (buttonMark){
    1a60:	80 91 48 38 	lds	r24, 0x3848	; 0x803848 <buttonMark>
    1a64:	88 23       	and	r24, r24
    1a66:	09 f4       	brne	.+2      	; 0x1a6a <GenerateAudio+0x120>
    1a68:	f7 c0       	rjmp	.+494    	; 0x1c58 <GenerateAudio+0x30e>
                    if (start == 0) {
    1a6a:	80 91 5c 38 	lds	r24, 0x385C	; 0x80385c <start.4024>
    1a6e:	81 11       	cpse	r24, r1
    1a70:	0f c0       	rjmp	.+30     	; 0x1a90 <GenerateAudio+0x146>
                        TCB1_CCMP = 0x0a00;
    1a72:	80 e0       	ldi	r24, 0x00	; 0
    1a74:	9a e0       	ldi	r25, 0x0A	; 10
    1a76:	80 93 5c 0a 	sts	0x0A5C, r24	; 0x800a5c <__TEXT_REGION_LENGTH__+0x700a5c>
    1a7a:	90 93 5d 0a 	sts	0x0A5D, r25	; 0x800a5d <__TEXT_REGION_LENGTH__+0x700a5d>
                        auRepAddr = &auBuffer[0];
    1a7e:	87 e1       	ldi	r24, 0x17	; 23
    1a80:	98 e3       	ldi	r25, 0x38	; 56
    1a82:	80 93 03 38 	sts	0x3803, r24	; 0x803803 <auRepAddr>
    1a86:	90 93 04 38 	sts	0x3804, r25	; 0x803804 <auRepAddr+0x1>
                        start = 1;
    1a8a:	81 e0       	ldi	r24, 0x01	; 1
    1a8c:	80 93 5c 38 	sts	0x385C, r24	; 0x80385c <start.4024>
                    }
                     
                    TCB1_CCMP -= (0x080);                    
    1a90:	80 91 5c 0a 	lds	r24, 0x0A5C	; 0x800a5c <__TEXT_REGION_LENGTH__+0x700a5c>
    1a94:	90 91 5d 0a 	lds	r25, 0x0A5D	; 0x800a5d <__TEXT_REGION_LENGTH__+0x700a5d>
    1a98:	80 58       	subi	r24, 0x80	; 128
    1a9a:	91 09       	sbc	r25, r1
    1a9c:	80 93 5c 0a 	sts	0x0A5C, r24	; 0x800a5c <__TEXT_REGION_LENGTH__+0x700a5c>
    1aa0:	90 93 5d 0a 	sts	0x0A5D, r25	; 0x800a5d <__TEXT_REGION_LENGTH__+0x700a5d>
                    //if (auVolume > 32) auVolume -=32; else 
                    if (auVolume == 0)
    1aa4:	80 91 be 3a 	lds	r24, 0x3ABE	; 0x803abe <auVolume>
    1aa8:	81 11       	cpse	r24, r1
    1aaa:	d6 c0       	rjmp	.+428    	; 0x1c58 <GenerateAudio+0x30e>
                    {
                        start = 0;
    1aac:	10 92 5c 38 	sts	0x385C, r1	; 0x80385c <start.4024>
                        auRepAddr = &zero;
    1ab0:	8f e3       	ldi	r24, 0x3F	; 63
    1ab2:	98 e3       	ldi	r25, 0x38	; 56
    1ab4:	80 93 03 38 	sts	0x3803, r24	; 0x803803 <auRepAddr>
    1ab8:	90 93 04 38 	sts	0x3804, r25	; 0x803804 <auRepAddr+0x1>
                        effect = 0;
    1abc:	10 92 40 38 	sts	0x3840, r1	; 0x803840 <effect>
    1ac0:	10 92 41 38 	sts	0x3841, r1	; 0x803841 <effect+0x1>
    1ac4:	c9 c0       	rjmp	.+402    	; 0x1c58 <GenerateAudio+0x30e>
                    }
                }
            }

            //Rain storm with whistling wind
            else if ((effect&0xE0)==96){
    1ac6:	80 91 40 38 	lds	r24, 0x3840	; 0x803840 <effect>
    1aca:	90 91 41 38 	lds	r25, 0x3841	; 0x803841 <effect+0x1>
    1ace:	80 7e       	andi	r24, 0xE0	; 224
    1ad0:	99 27       	eor	r25, r25
    1ad2:	80 36       	cpi	r24, 0x60	; 96
    1ad4:	91 05       	cpc	r25, r1
    1ad6:	b9 f5       	brne	.+110    	; 0x1b46 <GenerateAudio+0x1fc>
                static uint8_t auBuffer[7];
                auBuffer[6]= 0;        
    1ad8:	10 92 5b 38 	sts	0x385B, r1	; 0x80385b <auBuffer.4026+0x6>
                auRepAddr = &auBuffer[0];
    1adc:	85 e5       	ldi	r24, 0x55	; 85
    1ade:	98 e3       	ldi	r25, 0x38	; 56
    1ae0:	80 93 03 38 	sts	0x3803, r24	; 0x803803 <auRepAddr>
    1ae4:	90 93 04 38 	sts	0x3804, r25	; 0x803804 <auRepAddr+0x1>
    1ae8:	8c 01       	movw	r16, r24

                //Noise is to be generated fast, outside of buttonMark loop
                for (uint8_t x=1; x<6; ++x){
    1aea:	c1 e0       	ldi	r28, 0x01	; 1
                    if ((x>0) && (x!=3)) auBuffer[x] = floatAround(0x80, 5, 0x01, 0x00);
    1aec:	c3 30       	cpi	r28, 0x03	; 3
    1aee:	39 f0       	breq	.+14     	; 0x1afe <GenerateAudio+0x1b4>
    1af0:	20 e0       	ldi	r18, 0x00	; 0
    1af2:	41 e0       	ldi	r20, 0x01	; 1
    1af4:	65 e0       	ldi	r22, 0x05	; 5
    1af6:	80 e8       	ldi	r24, 0x80	; 128
    1af8:	c2 db       	rcall	.-2172   	; 0x127e <floatAround>
    1afa:	f8 01       	movw	r30, r16
    1afc:	81 83       	std	Z+1, r24	; 0x01
                static uint8_t auBuffer[7];
                auBuffer[6]= 0;        
                auRepAddr = &auBuffer[0];

                //Noise is to be generated fast, outside of buttonMark loop
                for (uint8_t x=1; x<6; ++x){
    1afe:	cf 5f       	subi	r28, 0xFF	; 255
    1b00:	0f 5f       	subi	r16, 0xFF	; 255
    1b02:	1f 4f       	sbci	r17, 0xFF	; 255
    1b04:	c6 30       	cpi	r28, 0x06	; 6
    1b06:	91 f7       	brne	.-28     	; 0x1aec <GenerateAudio+0x1a2>
                    if ((x>0) && (x!=3)) auBuffer[x] = floatAround(0x80, 5, 0x01, 0x00);
                }

                if (buttonMark){
    1b08:	80 91 48 38 	lds	r24, 0x3848	; 0x803848 <buttonMark>
    1b0c:	88 23       	and	r24, r24
    1b0e:	09 f4       	brne	.+2      	; 0x1b12 <GenerateAudio+0x1c8>
    1b10:	a3 c0       	rjmp	.+326    	; 0x1c58 <GenerateAudio+0x30e>
                    //"Floating" speed for howl (and noise, but that's hardly audible)
                    floatSpeed(5, 0x0280, 0x0400);
    1b12:	40 e0       	ldi	r20, 0x00	; 0
    1b14:	54 e0       	ldi	r21, 0x04	; 4
    1b16:	60 e8       	ldi	r22, 0x80	; 128
    1b18:	72 e0       	ldi	r23, 0x02	; 2
    1b1a:	85 e0       	ldi	r24, 0x05	; 5
    1b1c:	82 db       	rcall	.-2300   	; 0x1222 <floatSpeed>
            
                    //"Floating" volume and wind howl during 8 bit rainstorm needs some randomness
                    auVolume = floatAround(auVolume, 2, 0x10, 0xA0);
    1b1e:	80 91 be 3a 	lds	r24, 0x3ABE	; 0x803abe <auVolume>
    1b22:	20 ea       	ldi	r18, 0xA0	; 160
    1b24:	40 e1       	ldi	r20, 0x10	; 16
    1b26:	62 e0       	ldi	r22, 0x02	; 2
    1b28:	aa db       	rcall	.-2220   	; 0x127e <floatAround>
    1b2a:	80 93 be 3a 	sts	0x3ABE, r24	; 0x803abe <auVolume>
                    auBuffer[0] = floatAround(auBuffer[0], 2, 0x70, 0x90);
    1b2e:	20 e9       	ldi	r18, 0x90	; 144
    1b30:	40 e7       	ldi	r20, 0x70	; 112
    1b32:	62 e0       	ldi	r22, 0x02	; 2
    1b34:	80 91 55 38 	lds	r24, 0x3855	; 0x803855 <auBuffer.4026>
    1b38:	a2 db       	rcall	.-2236   	; 0x127e <floatAround>
    1b3a:	80 93 55 38 	sts	0x3855, r24	; 0x803855 <auBuffer.4026>
                    auBuffer[3] = 0xFF-auBuffer[0];  //Inverse value of wind[0] produces a whistle
    1b3e:	80 95       	com	r24
    1b40:	80 93 58 38 	sts	0x3858, r24	; 0x803858 <auBuffer.4026+0x3>
    1b44:	89 c0       	rjmp	.+274    	; 0x1c58 <GenerateAudio+0x30e>
                }
            }

            //Footsteps
            else if ((effect&0xE0)==128){
    1b46:	80 91 40 38 	lds	r24, 0x3840	; 0x803840 <effect>
    1b4a:	90 91 41 38 	lds	r25, 0x3841	; 0x803841 <effect+0x1>
    1b4e:	80 7e       	andi	r24, 0xE0	; 224
    1b50:	99 27       	eor	r25, r25
    1b52:	80 38       	cpi	r24, 0x80	; 128
    1b54:	91 05       	cpc	r25, r1
    1b56:	09 f4       	brne	.+2      	; 0x1b5a <GenerateAudio+0x210>
    1b58:	7f c0       	rjmp	.+254    	; 0x1c58 <GenerateAudio+0x30e>

            }

            //Bleeps
            else if ((effect&0xE0)==160){
    1b5a:	80 91 40 38 	lds	r24, 0x3840	; 0x803840 <effect>
    1b5e:	90 91 41 38 	lds	r25, 0x3841	; 0x803841 <effect+0x1>
    1b62:	80 7e       	andi	r24, 0xE0	; 224
    1b64:	99 27       	eor	r25, r25
    1b66:	80 3a       	cpi	r24, 0xA0	; 160
    1b68:	91 05       	cpc	r25, r1
    1b6a:	e1 f4       	brne	.+56     	; 0x1ba4 <GenerateAudio+0x25a>
                static uint8_t auBuffer[6] = {255, 192, 128, 64 ,1 ,0};
                auRepAddr = &auBuffer[0];
    1b6c:	81 e1       	ldi	r24, 0x11	; 17
    1b6e:	98 e3       	ldi	r25, 0x38	; 56
    1b70:	80 93 03 38 	sts	0x3803, r24	; 0x803803 <auRepAddr>
    1b74:	90 93 04 38 	sts	0x3804, r25	; 0x803804 <auRepAddr+0x1>
                if (buttonMark){
    1b78:	80 91 48 38 	lds	r24, 0x3848	; 0x803848 <buttonMark>
    1b7c:	88 23       	and	r24, r24
    1b7e:	09 f4       	brne	.+2      	; 0x1b82 <GenerateAudio+0x238>
                    floatSpeed(7, 0x0500, 0x2000);
    1b80:	6b c0       	rjmp	.+214    	; 0x1c58 <GenerateAudio+0x30e>
    1b82:	40 e0       	ldi	r20, 0x00	; 0
    1b84:	50 e2       	ldi	r21, 0x20	; 32
    1b86:	60 e0       	ldi	r22, 0x00	; 0
    1b88:	75 e0       	ldi	r23, 0x05	; 5
    1b8a:	87 e0       	ldi	r24, 0x07	; 7
    1b8c:	4a db       	rcall	.-2412   	; 0x1222 <floatSpeed>
                    if (auVolume) --auVolume;
    1b8e:	80 91 be 3a 	lds	r24, 0x3ABE	; 0x803abe <auVolume>
    1b92:	88 23       	and	r24, r24
    1b94:	09 f4       	brne	.+2      	; 0x1b98 <GenerateAudio+0x24e>
    1b96:	60 c0       	rjmp	.+192    	; 0x1c58 <GenerateAudio+0x30e>
    1b98:	80 91 be 3a 	lds	r24, 0x3ABE	; 0x803abe <auVolume>
    1b9c:	81 50       	subi	r24, 0x01	; 1
    1b9e:	80 93 be 3a 	sts	0x3ABE, r24	; 0x803abe <auVolume>
    1ba2:	5a c0       	rjmp	.+180    	; 0x1c58 <GenerateAudio+0x30e>
                }
            }

            //
            else if ((effect&0xE0)==192){
    1ba4:	80 91 40 38 	lds	r24, 0x3840	; 0x803840 <effect>
    1ba8:	90 91 41 38 	lds	r25, 0x3841	; 0x803841 <effect+0x1>
    1bac:	55 c0       	rjmp	.+170    	; 0x1c58 <GenerateAudio+0x30e>
            }

            //
            else {
            }
        } else if ((effect&0xff00)==0x0100) {
    1bae:	80 91 40 38 	lds	r24, 0x3840	; 0x803840 <effect>
    1bb2:	90 91 41 38 	lds	r25, 0x3841	; 0x803841 <effect+0x1>
    1bb6:	88 27       	eor	r24, r24
    1bb8:	81 15       	cp	r24, r1
    1bba:	91 40       	sbci	r25, 0x01	; 1
    1bbc:	09 f0       	breq	.+2      	; 0x1bc0 <GenerateAudio+0x276>
    1bbe:	4c c0       	rjmp	.+152    	; 0x1c58 <GenerateAudio+0x30e>
            if ((effect&0xE0) <= 0x90) {
    1bc0:	80 91 40 38 	lds	r24, 0x3840	; 0x803840 <effect>
    1bc4:	90 91 41 38 	lds	r25, 0x3841	; 0x803841 <effect+0x1>
    1bc8:	80 7e       	andi	r24, 0xE0	; 224
    1bca:	99 27       	eor	r25, r25
    1bcc:	81 39       	cpi	r24, 0x91	; 145
    1bce:	91 05       	cpc	r25, r1
    1bd0:	08 f0       	brcs	.+2      	; 0x1bd4 <GenerateAudio+0x28a>
    1bd2:	42 c0       	rjmp	.+132    	; 0x1c58 <GenerateAudio+0x30e>
                
                static uint8_t auBuffer[3] = {255, 1, 0};
                static uint8_t duration, start;
                uint16_t freq = ((effect&0xE0)+1)<<6;
    1bd4:	60 91 40 38 	lds	r22, 0x3840	; 0x803840 <effect>
    1bd8:	70 91 41 38 	lds	r23, 0x3841	; 0x803841 <effect+0x1>
    1bdc:	60 7e       	andi	r22, 0xE0	; 224
    1bde:	77 27       	eor	r23, r23
    1be0:	6f 5f       	subi	r22, 0xFF	; 255
    1be2:	7f 4f       	sbci	r23, 0xFF	; 255
    1be4:	86 e0       	ldi	r24, 0x06	; 6
    1be6:	66 0f       	add	r22, r22
    1be8:	77 1f       	adc	r23, r23
    1bea:	8a 95       	dec	r24
                floatSpeed(1, freq+0x0200, freq+0x0300);
    1bec:	e1 f7       	brne	.-8      	; 0x1be6 <GenerateAudio+0x29c>
    1bee:	ab 01       	movw	r20, r22
    1bf0:	5d 5f       	subi	r21, 0xFD	; 253
    1bf2:	7e 5f       	subi	r23, 0xFE	; 254
    1bf4:	81 e0       	ldi	r24, 0x01	; 1
    1bf6:	15 db       	rcall	.-2518   	; 0x1222 <floatSpeed>
                //auBuffer[] = floatAround(0x80, 5, 0x01, 0x00);

                if (buttonMark) {
    1bf8:	80 91 48 38 	lds	r24, 0x3848	; 0x803848 <buttonMark>
    1bfc:	88 23       	and	r24, r24
    1bfe:	61 f1       	breq	.+88     	; 0x1c58 <GenerateAudio+0x30e>
                    if (start == 0) {
    1c00:	80 91 54 38 	lds	r24, 0x3854	; 0x803854 <start.4034>
    1c04:	81 11       	cpse	r24, r1
    1c06:	0b c0       	rjmp	.+22     	; 0x1c1e <GenerateAudio+0x2d4>
                        duration = 3;
    1c08:	83 e0       	ldi	r24, 0x03	; 3
    1c0a:	80 93 53 38 	sts	0x3853, r24	; 0x803853 <duration.4033>
                        auRepAddr = &auBuffer[0];
    1c0e:	8e e0       	ldi	r24, 0x0E	; 14
    1c10:	98 e3       	ldi	r25, 0x38	; 56
    1c12:	80 93 03 38 	sts	0x3803, r24	; 0x803803 <auRepAddr>
    1c16:	90 93 04 38 	sts	0x3804, r25	; 0x803804 <auRepAddr+0x1>
                        start = 1;
    1c1a:	c0 93 54 38 	sts	0x3854, r28	; 0x803854 <start.4034>
                    }   if (duration == 0) {
    1c1e:	80 91 53 38 	lds	r24, 0x3853	; 0x803853 <duration.4033>
    1c22:	81 11       	cpse	r24, r1
    1c24:	13 c0       	rjmp	.+38     	; 0x1c4c <GenerateAudio+0x302>
                        effect &= 0x1f;
    1c26:	80 91 40 38 	lds	r24, 0x3840	; 0x803840 <effect>
    1c2a:	90 91 41 38 	lds	r25, 0x3841	; 0x803841 <effect+0x1>
    1c2e:	8f 71       	andi	r24, 0x1F	; 31
    1c30:	99 27       	eor	r25, r25
    1c32:	80 93 40 38 	sts	0x3840, r24	; 0x803840 <effect>
    1c36:	90 93 41 38 	sts	0x3841, r25	; 0x803841 <effect+0x1>
                        auRepAddr = &zero;
    1c3a:	8f e3       	ldi	r24, 0x3F	; 63
    1c3c:	98 e3       	ldi	r25, 0x38	; 56
    1c3e:	80 93 03 38 	sts	0x3803, r24	; 0x803803 <auRepAddr>
    1c42:	90 93 04 38 	sts	0x3804, r25	; 0x803804 <auRepAddr+0x1>
                        start = 0;
    1c46:	10 92 54 38 	sts	0x3854, r1	; 0x803854 <start.4034>
    1c4a:	06 c0       	rjmp	.+12     	; 0x1c58 <GenerateAudio+0x30e>
                    } else --duration;
    1c4c:	81 50       	subi	r24, 0x01	; 1
    1c4e:	80 93 53 38 	sts	0x3853, r24	; 0x803853 <duration.4033>
    1c52:	02 c0       	rjmp	.+4      	; 0x1c58 <GenerateAudio+0x30e>
                }
            }
        }
    } else {
        detHdPh = 0;
    1c54:	10 92 c7 3a 	sts	0x3AC7, r1	; 0x803ac7 <detHdPh>
    }
    return buttonMark;
    1c58:	80 91 48 38 	lds	r24, 0x3848	; 0x803848 <buttonMark>
}
    1c5c:	cf 91       	pop	r28
    1c5e:	1f 91       	pop	r17
    1c60:	0f 91       	pop	r16
    1c62:	08 95       	ret

00001c64 <getClock>:

uint16_t getClock() {
    uint16_t tmp = RTC_CNT;
    1c64:	80 91 48 01 	lds	r24, 0x0148	; 0x800148 <__TEXT_REGION_LENGTH__+0x700148>
    1c68:	90 91 49 01 	lds	r25, 0x0149	; 0x800149 <__TEXT_REGION_LENGTH__+0x700149>
    return 60 * minuteMark + (tmp>>9);
    1c6c:	20 91 49 38 	lds	r18, 0x3849	; 0x803849 <minuteMark>
    1c70:	89 2f       	mov	r24, r25
    1c72:	99 27       	eor	r25, r25
    1c74:	86 95       	lsr	r24
}
    1c76:	3c e3       	ldi	r19, 0x3C	; 60
    1c78:	23 9f       	mul	r18, r19
    1c7a:	80 0d       	add	r24, r0
    1c7c:	91 1d       	adc	r25, r1
    1c7e:	11 24       	eor	r1, r1
    1c80:	08 95       	ret

00001c82 <idleTimeout>:

uint8_t idleTimeout(uint16_t lastActive, uint16_t maxIdle) {
    1c82:	0f 93       	push	r16
    1c84:	1f 93       	push	r17
    1c86:	cf 93       	push	r28
    1c88:	df 93       	push	r29
    1c8a:	8c 01       	movw	r16, r24
    1c8c:	eb 01       	movw	r28, r22
    uint16_t curClock;

    curClock = getClock();
    1c8e:	ea df       	rcall	.-44     	; 0x1c64 <getClock>
    1c90:	9c 01       	movw	r18, r24
    if (curClock < lastActive)
    1c92:	80 17       	cp	r24, r16
    1c94:	91 07       	cpc	r25, r17
    1c96:	08 f4       	brcc	.+2      	; 0x1c9a <idleTimeout+0x18>
        curClock += 256 * 60;
    1c98:	34 5c       	subi	r19, 0xC4	; 196

    return (curClock > (lastActive + maxIdle));
    1c9a:	c0 0f       	add	r28, r16
    1c9c:	d1 1f       	adc	r29, r17
    1c9e:	81 e0       	ldi	r24, 0x01	; 1
    1ca0:	c2 17       	cp	r28, r18
    1ca2:	d3 07       	cpc	r29, r19
    1ca4:	08 f0       	brcs	.+2      	; 0x1ca8 <idleTimeout+0x26>
    1ca6:	80 e0       	ldi	r24, 0x00	; 0
}
    1ca8:	df 91       	pop	r29
    1caa:	cf 91       	pop	r28
    1cac:	1f 91       	pop	r17
    1cae:	0f 91       	pop	r16
    1cb0:	08 95       	ret

00001cb2 <SelfTest>:

uint8_t SelfTest(){
    1cb2:	a4 e0       	ldi	r26, 0x04	; 4
    1cb4:	b0 e0       	ldi	r27, 0x00	; 0
    1cb6:	ef e5       	ldi	r30, 0x5F	; 95
    1cb8:	fe e0       	ldi	r31, 0x0E	; 14
    1cba:	0c 94 28 1f 	jmp	0x3e50	; 0x3e50 <__prologue_saves__+0x20>
    uint8_t tstVal[4] = {0x01, 0};
    1cbe:	19 82       	std	Y+1, r1	; 0x01
    1cc0:	1a 82       	std	Y+2, r1	; 0x02
    1cc2:	1b 82       	std	Y+3, r1	; 0x03
    1cc4:	1c 82       	std	Y+4, r1	; 0x04
    1cc6:	a4 ec       	ldi	r26, 0xC4	; 196
    1cc8:	be eb       	ldi	r27, 0xBE	; 190
    1cca:	8a ec       	ldi	r24, 0xCA	; 202
    1ccc:	9e eb       	ldi	r25, 0xBE	; 190

    //Red HCKR all on 100%
    for (uint8_t x=0; x<6; ++x) {
        iLED[HCKR[R][x]] = 0xff;
    1cce:	2f ef       	ldi	r18, 0xFF	; 255
    1cd0:	ed 91       	ld	r30, X+
    1cd2:	f0 e0       	ldi	r31, 0x00	; 0
    1cd4:	e5 53       	subi	r30, 0x35	; 53
    1cd6:	f5 4c       	sbci	r31, 0xC5	; 197
    1cd8:	20 83       	st	Z, r18

uint8_t SelfTest(){
    uint8_t tstVal[4] = {0x01, 0};

    //Red HCKR all on 100%
    for (uint8_t x=0; x<6; ++x) {
    1cda:	8a 17       	cp	r24, r26
    1cdc:	9b 07       	cpc	r25, r27
    1cde:	c1 f7       	brne	.-16     	; 0x1cd0 <SelfTest+0x1e>
        iLED[HCKR[R][x]] = 0xff;
    }

    //Light sensor
    tstVal[0] = adcPhot&0xff;
    1ce0:	80 91 c5 3a 	lds	r24, 0x3AC5	; 0x803ac5 <adcPhot>
    1ce4:	90 91 c6 3a 	lds	r25, 0x3AC6	; 0x803ac6 <adcPhot+0x1>
    1ce8:	89 83       	std	Y+1, r24	; 0x01
    while (tstVal[0] == (adcPhot&0xff)) ;
    1cea:	99 27       	eor	r25, r25
    1cec:	20 91 c5 3a 	lds	r18, 0x3AC5	; 0x803ac5 <adcPhot>
    1cf0:	30 91 c6 3a 	lds	r19, 0x3AC6	; 0x803ac6 <adcPhot+0x1>
    1cf4:	33 27       	eor	r19, r19
    1cf6:	28 17       	cp	r18, r24
    1cf8:	39 07       	cpc	r19, r25
    1cfa:	c1 f3       	breq	.-16     	; 0x1cec <SelfTest+0x3a>
    iLED[HCKR[R][1]] = 0x00;
    1cfc:	e0 91 c5 be 	lds	r30, 0xBEC5	; 0x80bec5 <__bss_end+0x83ab>
    1d00:	f0 e0       	ldi	r31, 0x00	; 0
    1d02:	e5 53       	subi	r30, 0x35	; 53
    1d04:	f5 4c       	sbci	r31, 0xC5	; 197
    1d06:	10 82       	st	Z, r1

    //Buttons (none pressed / shorted)
    while ((adcBtns>>4) < 200) ;
    1d08:	80 91 bf 3a 	lds	r24, 0x3ABF	; 0x803abf <adcBtns>
    1d0c:	90 91 c0 3a 	lds	r25, 0x3AC0	; 0x803ac0 <adcBtns+0x1>
    1d10:	80 38       	cpi	r24, 0x80	; 128
    1d12:	9c 40       	sbci	r25, 0x0C	; 12
    1d14:	c8 f3       	brcs	.-14     	; 0x1d08 <SelfTest+0x56>
    iLED[HCKR[R][4]] = 0x00;
    1d16:	e0 91 c8 be 	lds	r30, 0xBEC8	; 0x80bec8 <__bss_end+0x83ae>
    1d1a:	f0 e0       	ldi	r31, 0x00	; 0
    1d1c:	e5 53       	subi	r30, 0x35	; 53
    1d1e:	f5 4c       	sbci	r31, 0xC5	; 197
    1d20:	10 82       	st	Z, r1
    
    ExtEERead(0x3CCC, 4, 0, (uint8_t *)&tstVal[0]);
    1d22:	9e 01       	movw	r18, r28
    1d24:	2f 5f       	subi	r18, 0xFF	; 255
    1d26:	3f 4f       	sbci	r19, 0xFF	; 255
    1d28:	40 e0       	ldi	r20, 0x00	; 0
    1d2a:	64 e0       	ldi	r22, 0x04	; 4
    1d2c:	8c ec       	ldi	r24, 0xCC	; 204
    1d2e:	9c e3       	ldi	r25, 0x3C	; 60
    1d30:	c9 d9       	rcall	.-3182   	; 0x10c4 <ExtEERead>
    if ((tstVal[0] != 63) || (tstVal[1] != 0) || (tstVal[2] != 192) || (tstVal[3] != 20)){
    1d32:	89 81       	ldd	r24, Y+1	; 0x01
    1d34:	8f 33       	cpi	r24, 0x3F	; 63
    1d36:	49 f4       	brne	.+18     	; 0x1d4a <SelfTest+0x98>
    1d38:	8a 81       	ldd	r24, Y+2	; 0x02
    1d3a:	81 11       	cpse	r24, r1
    1d3c:	06 c0       	rjmp	.+12     	; 0x1d4a <SelfTest+0x98>
    1d3e:	8b 81       	ldd	r24, Y+3	; 0x03
    1d40:	80 3c       	cpi	r24, 0xC0	; 192
    1d42:	19 f4       	brne	.+6      	; 0x1d4a <SelfTest+0x98>
    1d44:	8c 81       	ldd	r24, Y+4	; 0x04
    1d46:	84 31       	cpi	r24, 0x14	; 20
    1d48:	09 f0       	breq	.+2      	; 0x1d4c <SelfTest+0x9a>
    1d4a:	ff cf       	rjmp	.-2      	; 0x1d4a <SelfTest+0x98>
    1d4c:	80 e0       	ldi	r24, 0x00	; 0
    1d4e:	90 e0       	ldi	r25, 0x00	; 0
        while(1);
    }
    
    //All LEDs off
    for (uint8_t x=0; x<40; ++x) {
        iLED[x]=0;
    1d50:	fc 01       	movw	r30, r24
    1d52:	e5 53       	subi	r30, 0x35	; 53
    1d54:	f5 4c       	sbci	r31, 0xC5	; 197
    1d56:	10 82       	st	Z, r1
    1d58:	01 96       	adiw	r24, 0x01	; 1
    if ((tstVal[0] != 63) || (tstVal[1] != 0) || (tstVal[2] != 192) || (tstVal[3] != 20)){
        while(1);
    }
    
    //All LEDs off
    for (uint8_t x=0; x<40; ++x) {
    1d5a:	88 32       	cpi	r24, 0x28	; 40
    1d5c:	91 05       	cpc	r25, r1
    1d5e:	c1 f7       	brne	.-16     	; 0x1d50 <SelfTest+0x9e>
        iLED[x]=0;
    }

    //for(uint8_t x=0; x<(adcPhot&0x3f); ++x) lfsr();
    lfsrSeed = (adcPhot + adcTemp)<<1 | 0x0001; 
    1d60:	20 91 c5 3a 	lds	r18, 0x3AC5	; 0x803ac5 <adcPhot>
    1d64:	30 91 c6 3a 	lds	r19, 0x3AC6	; 0x803ac6 <adcPhot+0x1>
    1d68:	80 91 f5 3a 	lds	r24, 0x3AF5	; 0x803af5 <adcTemp>
    1d6c:	90 91 f6 3a 	lds	r25, 0x3AF6	; 0x803af6 <adcTemp+0x1>
    1d70:	82 0f       	add	r24, r18
    1d72:	93 1f       	adc	r25, r19
    1d74:	88 0f       	add	r24, r24
    1d76:	99 1f       	adc	r25, r25
    1d78:	81 60       	ori	r24, 0x01	; 1
    1d7a:	80 93 62 38 	sts	0x3862, r24	; 0x803862 <lfsrSeed>
    1d7e:	90 93 63 38 	sts	0x3863, r25	; 0x803863 <lfsrSeed+0x1>

    return 0;
}
    1d82:	80 e0       	ldi	r24, 0x00	; 0
    1d84:	24 96       	adiw	r28, 0x04	; 4
    1d86:	e2 e0       	ldi	r30, 0x02	; 2
    1d88:	0c 94 41 1f 	jmp	0x3e82	; 0x3e82 <__epilogue_restores__+0x20>

00001d8c <simonLed>:

/**
 * Set the wing LED blocks to selected option
 * @param val
 */
void simonLed(uint8_t val) {
    1d8c:	cf 93       	push	r28
    1d8e:	df 93       	push	r29
    1d90:	e6 eb       	ldi	r30, 0xB6	; 182
    1d92:	fe eb       	ldi	r31, 0xBE	; 190
    1d94:	ef 01       	movw	r28, r30
    for (uint8_t n = 0; n < 5; n++) {
        iLED[WING[L][n]] = 0;
    1d96:	a5 81       	ldd	r26, Z+5	; 0x05
    1d98:	b0 e0       	ldi	r27, 0x00	; 0
    1d9a:	a5 53       	subi	r26, 0x35	; 53
    1d9c:	b5 4c       	sbci	r27, 0xC5	; 197
    1d9e:	1c 92       	st	X, r1
    1da0:	31 96       	adiw	r30, 0x01	; 1
        iLED[WING[R][n]] = 0;
    1da2:	a8 81       	ld	r26, Y
    1da4:	b0 e0       	ldi	r27, 0x00	; 0
    1da6:	a5 53       	subi	r26, 0x35	; 53
    1da8:	b5 4c       	sbci	r27, 0xC5	; 197
    1daa:	1c 92       	st	X, r1
/**
 * Set the wing LED blocks to selected option
 * @param val
 */
void simonLed(uint8_t val) {
    for (uint8_t n = 0; n < 5; n++) {
    1dac:	9e eb       	ldi	r25, 0xBE	; 190
    1dae:	eb 3b       	cpi	r30, 0xBB	; 187
    1db0:	f9 07       	cpc	r31, r25
    1db2:	81 f7       	brne	.-32     	; 0x1d94 <simonLed+0x8>
        iLED[WING[L][n]] = 0;
        iLED[WING[R][n]] = 0;
    }
    if (val == 3) {         // II
    1db4:	83 30       	cpi	r24, 0x03	; 3
    1db6:	d9 f4       	brne	.+54     	; 0x1dee <simonLed+0x62>
        iLED[WING[L][0]] = dimValue;
    1db8:	e0 91 bb be 	lds	r30, 0xBEBB	; 0x80bebb <__bss_end+0x83a1>
    1dbc:	f0 e0       	ldi	r31, 0x00	; 0
    1dbe:	80 91 0c 38 	lds	r24, 0x380C	; 0x80380c <dimValue>
    1dc2:	e5 53       	subi	r30, 0x35	; 53
    1dc4:	f5 4c       	sbci	r31, 0xC5	; 197
    1dc6:	80 83       	st	Z, r24
        iLED[WING[L][1]] = dimValue;
    1dc8:	e0 91 bc be 	lds	r30, 0xBEBC	; 0x80bebc <__bss_end+0x83a2>
    1dcc:	f0 e0       	ldi	r31, 0x00	; 0
    1dce:	80 91 0c 38 	lds	r24, 0x380C	; 0x80380c <dimValue>
    1dd2:	e5 53       	subi	r30, 0x35	; 53
    1dd4:	f5 4c       	sbci	r31, 0xC5	; 197
    1dd6:	80 83       	st	Z, r24
        iLED[WING[L][2]] = dimValue;
    1dd8:	e0 91 bd be 	lds	r30, 0xBEBD	; 0x80bebd <__bss_end+0x83a3>
    1ddc:	f0 e0       	ldi	r31, 0x00	; 0
    1dde:	80 91 0c 38 	lds	r24, 0x380C	; 0x80380c <dimValue>
    1de2:	e5 53       	subi	r30, 0x35	; 53
    1de4:	f5 4c       	sbci	r31, 0xC5	; 197
    1de6:	80 83       	st	Z, r24
        effect = 0x013f;
    1de8:	8f e3       	ldi	r24, 0x3F	; 63
    1dea:	91 e0       	ldi	r25, 0x01	; 1
    1dec:	46 c0       	rjmp	.+140    	; 0x1e7a <simonLed+0xee>
    } else if (val == 1) {  //
    1dee:	81 30       	cpi	r24, 0x01	; 1
    1df0:	99 f4       	brne	.+38     	; 0x1e18 <simonLed+0x8c>
        iLED[WING[L][3]] = dimValue;
    1df2:	e0 91 be be 	lds	r30, 0xBEBE	; 0x80bebe <__bss_end+0x83a4>
    1df6:	f0 e0       	ldi	r31, 0x00	; 0
    1df8:	80 91 0c 38 	lds	r24, 0x380C	; 0x80380c <dimValue>
    1dfc:	e5 53       	subi	r30, 0x35	; 53
    1dfe:	f5 4c       	sbci	r31, 0xC5	; 197
    1e00:	80 83       	st	Z, r24
        iLED[WING[L][4]] = dimValue;
    1e02:	e0 91 bf be 	lds	r30, 0xBEBF	; 0x80bebf <__bss_end+0x83a5>
    1e06:	f0 e0       	ldi	r31, 0x00	; 0
    1e08:	80 91 0c 38 	lds	r24, 0x380C	; 0x80380c <dimValue>
    1e0c:	e5 53       	subi	r30, 0x35	; 53
    1e0e:	f5 4c       	sbci	r31, 0xC5	; 197
    1e10:	80 83       	st	Z, r24
        effect = 0x015f;
    1e12:	8f e5       	ldi	r24, 0x5F	; 95
    1e14:	91 e0       	ldi	r25, 0x01	; 1
    1e16:	31 c0       	rjmp	.+98     	; 0x1e7a <simonLed+0xee>
    } else if (val == 4) {  // III
    1e18:	84 30       	cpi	r24, 0x04	; 4
    1e1a:	d9 f4       	brne	.+54     	; 0x1e52 <simonLed+0xc6>
        iLED[WING[R][0]] = dimValue;
    1e1c:	e0 91 b6 be 	lds	r30, 0xBEB6	; 0x80beb6 <__bss_end+0x839c>
    1e20:	f0 e0       	ldi	r31, 0x00	; 0
    1e22:	80 91 0c 38 	lds	r24, 0x380C	; 0x80380c <dimValue>
    1e26:	e5 53       	subi	r30, 0x35	; 53
    1e28:	f5 4c       	sbci	r31, 0xC5	; 197
    1e2a:	80 83       	st	Z, r24
        iLED[WING[R][1]] = dimValue;
    1e2c:	e0 91 b7 be 	lds	r30, 0xBEB7	; 0x80beb7 <__bss_end+0x839d>
    1e30:	f0 e0       	ldi	r31, 0x00	; 0
    1e32:	80 91 0c 38 	lds	r24, 0x380C	; 0x80380c <dimValue>
    1e36:	e5 53       	subi	r30, 0x35	; 53
    1e38:	f5 4c       	sbci	r31, 0xC5	; 197
    1e3a:	80 83       	st	Z, r24
        iLED[WING[R][2]] = dimValue;
    1e3c:	e0 91 b8 be 	lds	r30, 0xBEB8	; 0x80beb8 <__bss_end+0x839e>
    1e40:	f0 e0       	ldi	r31, 0x00	; 0
    1e42:	80 91 0c 38 	lds	r24, 0x380C	; 0x80380c <dimValue>
    1e46:	e5 53       	subi	r30, 0x35	; 53
    1e48:	f5 4c       	sbci	r31, 0xC5	; 197
    1e4a:	80 83       	st	Z, r24
        effect = 0x017f;
    1e4c:	8f e7       	ldi	r24, 0x7F	; 127
    1e4e:	91 e0       	ldi	r25, 0x01	; 1
    1e50:	14 c0       	rjmp	.+40     	; 0x1e7a <simonLed+0xee>
    } else if (val == 2) {  // I
    1e52:	82 30       	cpi	r24, 0x02	; 2
    1e54:	b1 f4       	brne	.+44     	; 0x1e82 <simonLed+0xf6>
        iLED[WING[R][3]] = dimValue;
    1e56:	e0 91 b9 be 	lds	r30, 0xBEB9	; 0x80beb9 <__bss_end+0x839f>
    1e5a:	f0 e0       	ldi	r31, 0x00	; 0
    1e5c:	80 91 0c 38 	lds	r24, 0x380C	; 0x80380c <dimValue>
    1e60:	e5 53       	subi	r30, 0x35	; 53
    1e62:	f5 4c       	sbci	r31, 0xC5	; 197
    1e64:	80 83       	st	Z, r24
        iLED[WING[R][4]] = dimValue;
    1e66:	e0 91 ba be 	lds	r30, 0xBEBA	; 0x80beba <__bss_end+0x83a0>
    1e6a:	f0 e0       	ldi	r31, 0x00	; 0
    1e6c:	80 91 0c 38 	lds	r24, 0x380C	; 0x80380c <dimValue>
    1e70:	e5 53       	subi	r30, 0x35	; 53
    1e72:	f5 4c       	sbci	r31, 0xC5	; 197
    1e74:	80 83       	st	Z, r24
        effect = 0x019f;
    1e76:	8f e9       	ldi	r24, 0x9F	; 159
    1e78:	91 e0       	ldi	r25, 0x01	; 1
    1e7a:	80 93 40 38 	sts	0x3840, r24	; 0x803840 <effect>
    1e7e:	90 93 41 38 	sts	0x3841, r25	; 0x803841 <effect+0x1>
    }
}
    1e82:	df 91       	pop	r29
    1e84:	cf 91       	pop	r28
    1e86:	08 95       	ret

00001e88 <BastetDictates>:

/**
 * Main game loop
 * @return 0
 */
uint8_t BastetDictates() {
    1e88:	cf 93       	push	r28
    1e8a:	df 93       	push	r29
    if ((TEXT != gameNow) && (BASTET != gameNow))
    1e8c:	80 91 42 38 	lds	r24, 0x3842	; 0x803842 <gameNow>
    1e90:	8d 7f       	andi	r24, 0xFD	; 253
    1e92:	09 f0       	breq	.+2      	; 0x1e96 <BastetDictates+0xe>
    1e94:	73 c1       	rjmp	.+742    	; 0x217c <BastetDictates+0x2f4>
        return 0;

    if (CheckState(BASTET_COMPLETED)) {
    1e96:	8a e7       	ldi	r24, 0x7A	; 122
    1e98:	cc da       	rcall	.-2664   	; 0x1432 <CheckState>
    1e9a:	88 23       	and	r24, r24
    1e9c:	41 f0       	breq	.+16     	; 0x1eae <BastetDictates+0x26>
        if (BASTET == gameNow) {
    1e9e:	80 91 42 38 	lds	r24, 0x3842	; 0x803842 <gameNow>
    1ea2:	82 30       	cpi	r24, 0x02	; 2
    1ea4:	09 f0       	breq	.+2      	; 0x1ea8 <BastetDictates+0x20>
    1ea6:	6a c1       	rjmp	.+724    	; 0x217c <BastetDictates+0x2f4>
            gameNow = TEXT;
    1ea8:	10 92 42 38 	sts	0x3842, r1	; 0x803842 <gameNow>
    1eac:	67 c1       	rjmp	.+718    	; 0x217c <BastetDictates+0x2f4>
        }
        return 0;
    }

    if (CheckState(LANYARD_COMPLETED))
    1eae:	8b e7       	ldi	r24, 0x7B	; 123
    1eb0:	c0 da       	rcall	.-2688   	; 0x1432 <CheckState>
    1eb2:	90 91 08 38 	lds	r25, 0x3808	; 0x803808 <buttonState>
    1eb6:	88 23       	and	r24, r24
    1eb8:	29 f0       	breq	.+10     	; 0x1ec4 <BastetDictates+0x3c>
        if (buttonState!=0xff)
    1eba:	9f 3f       	cpi	r25, 0xFF	; 255
    1ebc:	19 f0       	breq	.+6      	; 0x1ec4 <BastetDictates+0x3c>
            gameNow = BASTET;
    1ebe:	82 e0       	ldi	r24, 0x02	; 2
    1ec0:	80 93 42 38 	sts	0x3842, r24	; 0x803842 <gameNow>

    iLED[CAT] = (buttonState==0xff ? 0 : dimValue);
    1ec4:	e0 91 b2 be 	lds	r30, 0xBEB2	; 0x80beb2 <__bss_end+0x8398>
    1ec8:	f0 e0       	ldi	r31, 0x00	; 0
    1eca:	9f 3f       	cpi	r25, 0xFF	; 255
    1ecc:	19 f0       	breq	.+6      	; 0x1ed4 <BastetDictates+0x4c>
    1ece:	80 91 0c 38 	lds	r24, 0x380C	; 0x80380c <dimValue>
    1ed2:	01 c0       	rjmp	.+2      	; 0x1ed6 <BastetDictates+0x4e>
    1ed4:	80 e0       	ldi	r24, 0x00	; 0
    1ed6:	e5 53       	subi	r30, 0x35	; 53
    1ed8:	f5 4c       	sbci	r31, 0xC5	; 197
    1eda:	80 83       	st	Z, r24

    if (BASTET_BOOT == simonGameState) {
    1edc:	80 91 64 38 	lds	r24, 0x3864	; 0x803864 <simonGameState>
    1ee0:	81 11       	cpse	r24, r1
    1ee2:	0c c0       	rjmp	.+24     	; 0x1efc <BastetDictates+0x74>
    1ee4:	ca e6       	ldi	r28, 0x6A	; 106
        for (uint8_t i = 0; i < BASTET_LENGTH; i++) {
            simonState[i] = (lfsr() % 4);
    1ee6:	d8 e3       	ldi	r29, 0x38	; 56
    1ee8:	7d d9       	rcall	.-3334   	; 0x11e4 <lfsr>
    1eea:	83 70       	andi	r24, 0x03	; 3
    1eec:	89 93       	st	Y+, r24
            gameNow = BASTET;

    iLED[CAT] = (buttonState==0xff ? 0 : dimValue);

    if (BASTET_BOOT == simonGameState) {
        for (uint8_t i = 0; i < BASTET_LENGTH; i++) {
    1eee:	88 e3       	ldi	r24, 0x38	; 56
    1ef0:	c6 37       	cpi	r28, 0x76	; 118
    1ef2:	d8 07       	cpc	r29, r24
    1ef4:	c9 f7       	brne	.-14     	; 0x1ee8 <BastetDictates+0x60>
            simonState[i] = (lfsr() % 4);
        }
        simonGameState = BASTET_GAME_START;
    1ef6:	81 e0       	ldi	r24, 0x01	; 1
    1ef8:	80 93 64 38 	sts	0x3864, r24	; 0x803864 <simonGameState>
    }

    if (BASTET_GAME_START == simonGameState && BASTET == gameNow) {
    1efc:	80 91 64 38 	lds	r24, 0x3864	; 0x803864 <simonGameState>
    1f00:	81 30       	cpi	r24, 0x01	; 1
    1f02:	71 f4       	brne	.+28     	; 0x1f20 <BastetDictates+0x98>
    1f04:	80 91 42 38 	lds	r24, 0x3842	; 0x803842 <gameNow>
    1f08:	82 30       	cpi	r24, 0x02	; 2
    1f0a:	51 f4       	brne	.+20     	; 0x1f20 <BastetDictates+0x98>
        simonGameState = BASTET_GAME_INTRO;
    1f0c:	80 93 64 38 	sts	0x3864, r24	; 0x803864 <simonGameState>
        simonPos = 0;
    1f10:	10 92 69 38 	sts	0x3869, r1	; 0x803869 <simonPos>
        simonInputPos = 0;
    1f14:	10 92 68 38 	sts	0x3868, r1	; 0x803868 <simonInputPos>
        simonTimer = 0;
    1f18:	10 92 67 38 	sts	0x3867, r1	; 0x803867 <simonTimer>
        simonCounter = 0;
    1f1c:	10 92 65 38 	sts	0x3865, r1	; 0x803865 <simonCounter>
    }

    if (BASTET_GAME_INTRO == simonGameState) {
    1f20:	80 91 64 38 	lds	r24, 0x3864	; 0x803864 <simonGameState>
    1f24:	82 30       	cpi	r24, 0x02	; 2
    1f26:	19 f5       	brne	.+70     	; 0x1f6e <BastetDictates+0xe6>
        if (simonTimer > 5) {   // .33 seconds
    1f28:	80 91 67 38 	lds	r24, 0x3867	; 0x803867 <simonTimer>
    1f2c:	86 30       	cpi	r24, 0x06	; 6
    1f2e:	38 f0       	brcs	.+14     	; 0x1f3e <BastetDictates+0xb6>
            simonCounter++;
    1f30:	80 91 65 38 	lds	r24, 0x3865	; 0x803865 <simonCounter>
    1f34:	8f 5f       	subi	r24, 0xFF	; 255
    1f36:	80 93 65 38 	sts	0x3865, r24	; 0x803865 <simonCounter>
            simonTimer = 0;
    1f3a:	10 92 67 38 	sts	0x3867, r1	; 0x803867 <simonTimer>
        }
        if (simonCounter > 5) {
    1f3e:	e0 91 65 38 	lds	r30, 0x3865	; 0x803865 <simonCounter>
    1f42:	e6 30       	cpi	r30, 0x06	; 6
    1f44:	48 f0       	brcs	.+18     	; 0x1f58 <BastetDictates+0xd0>
            simonGameState = BASTET_GAME_SHOW_PATTERN;
    1f46:	83 e0       	ldi	r24, 0x03	; 3
    1f48:	80 93 64 38 	sts	0x3864, r24	; 0x803864 <simonGameState>
            simonTimer = 0;
    1f4c:	10 92 67 38 	sts	0x3867, r1	; 0x803867 <simonTimer>
            simonCounter = 0;
    1f50:	10 92 65 38 	sts	0x3865, r1	; 0x803865 <simonCounter>
            ClearHackerLeds();
    1f54:	7c db       	rcall	.-2312   	; 0x164e <ClearHackerLeds>
            return 0;
    1f56:	12 c1       	rjmp	.+548    	; 0x217c <BastetDictates+0x2f4>
        }
        iLED[HCKR[R][simonCounter]] = dimValue;
    1f58:	f0 e0       	ldi	r31, 0x00	; 0
    1f5a:	ec 53       	subi	r30, 0x3C	; 60
    1f5c:	f1 44       	sbci	r31, 0x41	; 65
    1f5e:	e0 81       	ld	r30, Z
    1f60:	f0 e0       	ldi	r31, 0x00	; 0
    1f62:	80 91 0c 38 	lds	r24, 0x380C	; 0x80380c <dimValue>
    1f66:	e5 53       	subi	r30, 0x35	; 53
    1f68:	f5 4c       	sbci	r31, 0xC5	; 197
    1f6a:	80 83       	st	Z, r24
    1f6c:	2b c0       	rjmp	.+86     	; 0x1fc4 <BastetDictates+0x13c>
    }

    if (BASTET_GAME_SHOW_PATTERN == simonGameState) {
    1f6e:	83 30       	cpi	r24, 0x03	; 3
    1f70:	49 f5       	brne	.+82     	; 0x1fc4 <BastetDictates+0x13c>
        if (simonTimer > 7) {   // .5 second
    1f72:	80 91 67 38 	lds	r24, 0x3867	; 0x803867 <simonTimer>
    1f76:	88 30       	cpi	r24, 0x08	; 8
    1f78:	38 f0       	brcs	.+14     	; 0x1f88 <BastetDictates+0x100>
            simonCounter++;
    1f7a:	80 91 65 38 	lds	r24, 0x3865	; 0x803865 <simonCounter>
    1f7e:	8f 5f       	subi	r24, 0xFF	; 255
    1f80:	80 93 65 38 	sts	0x3865, r24	; 0x803865 <simonCounter>
            simonTimer = 0;
    1f84:	10 92 67 38 	sts	0x3867, r1	; 0x803867 <simonTimer>
        }
        if (simonCounter > simonPos) {
    1f88:	e0 91 65 38 	lds	r30, 0x3865	; 0x803865 <simonCounter>
    1f8c:	80 91 69 38 	lds	r24, 0x3869	; 0x803869 <simonPos>
    1f90:	8e 17       	cp	r24, r30
    1f92:	40 f4       	brcc	.+16     	; 0x1fa4 <BastetDictates+0x11c>
            simonInputPos = 0;
    1f94:	10 92 68 38 	sts	0x3868, r1	; 0x803868 <simonInputPos>
            simonGameState = BASTET_GAME_INPUT;
    1f98:	85 e0       	ldi	r24, 0x05	; 5
    1f9a:	80 93 64 38 	sts	0x3864, r24	; 0x803864 <simonGameState>
            simonLed(0);
    1f9e:	80 e0       	ldi	r24, 0x00	; 0
    1fa0:	f5 de       	rcall	.-534    	; 0x1d8c <simonLed>
    1fa2:	98 c0       	rjmp	.+304    	; 0x20d4 <BastetDictates+0x24c>
            simonTimer = 0;
            return 0;
        }
        if (simonTimer < 3) {
    1fa4:	80 91 67 38 	lds	r24, 0x3867	; 0x803867 <simonTimer>
    1fa8:	83 30       	cpi	r24, 0x03	; 3
    1faa:	30 f4       	brcc	.+12     	; 0x1fb8 <BastetDictates+0x130>
            simonLed(simonState[simonCounter] + 1);
    1fac:	f0 e0       	ldi	r31, 0x00	; 0
    1fae:	e6 59       	subi	r30, 0x96	; 150
    1fb0:	f7 4c       	sbci	r31, 0xC7	; 199
    1fb2:	80 81       	ld	r24, Z
    1fb4:	8f 5f       	subi	r24, 0xFF	; 255
    1fb6:	ea de       	rcall	.-556    	; 0x1d8c <simonLed>
        }
        if (simonTimer > 6) {
    1fb8:	80 91 67 38 	lds	r24, 0x3867	; 0x803867 <simonTimer>
    1fbc:	87 30       	cpi	r24, 0x07	; 7
    1fbe:	10 f0       	brcs	.+4      	; 0x1fc4 <BastetDictates+0x13c>
            simonLed(0);
    1fc0:	80 e0       	ldi	r24, 0x00	; 0
    1fc2:	e4 de       	rcall	.-568    	; 0x1d8c <simonLed>
    1fc4:	c0 91 64 38 	lds	r28, 0x3864	; 0x803864 <simonGameState>
        }
    }

    if (BASTET_GAME_INPUT == simonGameState) {
    1fc8:	c5 30       	cpi	r28, 0x05	; 5
    1fca:	09 f0       	breq	.+2      	; 0x1fce <BastetDictates+0x146>
    1fcc:	86 c0       	rjmp	.+268    	; 0x20da <BastetDictates+0x252>
    1fce:	80 91 08 38 	lds	r24, 0x3808	; 0x803808 <buttonState>
        //Button pressed
        if (lastButtonState != buttonState && (buttonState+1) > 0) {
    1fd2:	90 91 07 38 	lds	r25, 0x3807	; 0x803807 <lastButtonState>
    1fd6:	98 17       	cp	r25, r24
    1fd8:	09 f4       	brne	.+2      	; 0x1fdc <BastetDictates+0x154>
    1fda:	71 c0       	rjmp	.+226    	; 0x20be <BastetDictates+0x236>
    1fdc:	90 91 66 38 	lds	r25, 0x3866	; 0x803866 <simonWait>
            if (simonWait == 0 && buttonState < 4) {
    1fe0:	91 11       	cpse	r25, r1
    1fe2:	6f c0       	rjmp	.+222    	; 0x20c2 <BastetDictates+0x23a>
    1fe4:	84 30       	cpi	r24, 0x04	; 4
    1fe6:	08 f0       	brcs	.+2      	; 0x1fea <BastetDictates+0x162>
    1fe8:	6c c0       	rjmp	.+216    	; 0x20c2 <BastetDictates+0x23a>
                simonWait = 1;
    1fea:	91 e0       	ldi	r25, 0x01	; 1
    1fec:	90 93 66 38 	sts	0x3866, r25	; 0x803866 <simonWait>
                simonTimer = 0;
    1ff0:	10 92 67 38 	sts	0x3867, r1	; 0x803867 <simonTimer>
                simonLed(buttonState+1);
    1ff4:	8f 5f       	subi	r24, 0xFF	; 255
    1ff6:	ca de       	rcall	.-620    	; 0x1d8c <simonLed>
    1ff8:	84 e0       	ldi	r24, 0x04	; 4
                simonGameState = BASTET_GAME_WAIT_LEDS;
    1ffa:	80 93 64 38 	sts	0x3864, r24	; 0x803864 <simonGameState>
    1ffe:	c0 93 34 38 	sts	0x3834, r28	; 0x803834 <simonNextGameState>
                simonNextGameState = BASTET_GAME_INPUT;
    2002:	80 91 68 38 	lds	r24, 0x3868	; 0x803868 <simonInputPos>

                if (simonState[simonInputPos] == buttonState) {
    2006:	e8 2f       	mov	r30, r24
    2008:	f0 e0       	ldi	r31, 0x00	; 0
    200a:	e6 59       	subi	r30, 0x96	; 150
    200c:	f7 4c       	sbci	r31, 0xC7	; 199
    200e:	20 81       	ld	r18, Z
    2010:	90 91 08 38 	lds	r25, 0x3808	; 0x803808 <buttonState>
    2014:	29 13       	cpse	r18, r25
    2016:	1d c0       	rjmp	.+58     	; 0x2052 <BastetDictates+0x1ca>
    2018:	8f 5f       	subi	r24, 0xFF	; 255
                    simonInputPos++;
    201a:	80 93 68 38 	sts	0x3868, r24	; 0x803868 <simonInputPos>
    201e:	e0 91 69 38 	lds	r30, 0x3869	; 0x803869 <simonPos>
                    if (simonInputPos > simonPos) {
    2022:	e8 17       	cp	r30, r24
    2024:	a0 f5       	brcc	.+104    	; 0x208e <BastetDictates+0x206>
    2026:	ef 5f       	subi	r30, 0xFF	; 255
                        simonPos++;
    2028:	e0 93 69 38 	sts	0x3869, r30	; 0x803869 <simonPos>
    202c:	10 92 67 38 	sts	0x3867, r1	; 0x803867 <simonTimer>
                        simonTimer = 0;
    2030:	10 92 65 38 	sts	0x3865, r1	; 0x803865 <simonCounter>
                        simonCounter = 0;
    2034:	e1 30       	cpi	r30, 0x01	; 1
                        if (simonPos > 1) { // BASTET_LENGTH = 12
    2036:	59 f0       	breq	.+22     	; 0x204e <BastetDictates+0x1c6>
    2038:	e6 95       	lsr	r30
                            iLED[HCKR[G][(simonPos / 2) - 1]] = dimValue;
    203a:	f0 e0       	ldi	r31, 0x00	; 0
    203c:	ec 53       	subi	r30, 0x3C	; 60
    203e:	f1 44       	sbci	r31, 0x41	; 65
    2040:	e5 81       	ldd	r30, Z+5	; 0x05
    2042:	f0 e0       	ldi	r31, 0x00	; 0
    2044:	80 91 0c 38 	lds	r24, 0x380C	; 0x80380c <dimValue>
    2048:	e5 53       	subi	r30, 0x35	; 53
    204a:	f5 4c       	sbci	r31, 0xC5	; 197
    204c:	80 83       	st	Z, r24
    204e:	83 e0       	ldi	r24, 0x03	; 3
                        }
                        simonNextGameState = BASTET_GAME_SHOW_PATTERN;
    2050:	1c c0       	rjmp	.+56     	; 0x208a <BastetDictates+0x202>
    2052:	80 e2       	ldi	r24, 0x20	; 32
                    }
                } else {
                    effect = 32;
    2054:	90 e0       	ldi	r25, 0x00	; 0
    2056:	80 93 40 38 	sts	0x3840, r24	; 0x803840 <effect>
    205a:	90 93 41 38 	sts	0x3841, r25	; 0x803841 <effect+0x1>
    205e:	a4 ec       	ldi	r26, 0xC4	; 196
    2060:	be eb       	ldi	r27, 0xBE	; 190
    2062:	ed 91       	ld	r30, X+
                    for (uint8_t n=0; n<6; n++){
                        iLED[HCKR[R][n]] = dimValue;
    2064:	f0 e0       	ldi	r31, 0x00	; 0
    2066:	80 91 0c 38 	lds	r24, 0x380C	; 0x80380c <dimValue>
    206a:	e5 53       	subi	r30, 0x35	; 53
    206c:	f5 4c       	sbci	r31, 0xC5	; 197
    206e:	80 83       	st	Z, r24
    2070:	8e eb       	ldi	r24, 0xBE	; 190
                        }
                        simonNextGameState = BASTET_GAME_SHOW_PATTERN;
                    }
                } else {
                    effect = 32;
                    for (uint8_t n=0; n<6; n++){
    2072:	aa 3c       	cpi	r26, 0xCA	; 202
    2074:	b8 07       	cpc	r27, r24
    2076:	a9 f7       	brne	.-22     	; 0x2062 <BastetDictates+0x1da>
    2078:	10 92 68 38 	sts	0x3868, r1	; 0x803868 <simonInputPos>
                        iLED[HCKR[R][n]] = dimValue;
                    }
                    simonInputPos = 0;
    207c:	10 92 69 38 	sts	0x3869, r1	; 0x803869 <simonPos>
                    simonPos = 0;
    2080:	10 92 67 38 	sts	0x3867, r1	; 0x803867 <simonTimer>
                    simonTimer = 0;
    2084:	10 92 65 38 	sts	0x3865, r1	; 0x803865 <simonCounter>
                    simonCounter = 0;
    2088:	86 e0       	ldi	r24, 0x06	; 6
                    simonNextGameState = BASTET_GAME_OUTRO;
    208a:	80 93 34 38 	sts	0x3834, r24	; 0x803834 <simonNextGameState>
    208e:	80 91 68 38 	lds	r24, 0x3868	; 0x803868 <simonInputPos>
                }

                if (simonInputPos >= BASTET_LENGTH || simonPos >= BASTET_LENGTH) { // beetje dubbel
    2092:	8c 30       	cpi	r24, 0x0C	; 12
    2094:	20 f4       	brcc	.+8      	; 0x209e <BastetDictates+0x216>
    2096:	80 91 69 38 	lds	r24, 0x3869	; 0x803869 <simonPos>
    209a:	8c 30       	cpi	r24, 0x0C	; 12
    209c:	90 f0       	brcs	.+36     	; 0x20c2 <BastetDictates+0x23a>
                    effect = 64|2;
    209e:	82 e4       	ldi	r24, 0x42	; 66
    20a0:	90 e0       	ldi	r25, 0x00	; 0
    20a2:	80 93 40 38 	sts	0x3840, r24	; 0x803840 <effect>
    20a6:	90 93 41 38 	sts	0x3841, r25	; 0x803841 <effect+0x1>
                    UpdateState(BASTET_COMPLETED);
    20aa:	8a e7       	ldi	r24, 0x7A	; 122
    20ac:	a1 d9       	rcall	.-3262   	; 0x13f0 <UpdateState>
    20ae:	10 92 67 38 	sts	0x3867, r1	; 0x803867 <simonTimer>
                    simonTimer = 0;
    20b2:	10 92 65 38 	sts	0x3865, r1	; 0x803865 <simonCounter>
                    simonCounter = 0;
    20b6:	87 e0       	ldi	r24, 0x07	; 7
                    simonNextGameState = BASTET_GAME_OVER;
    20b8:	80 93 34 38 	sts	0x3834, r24	; 0x803834 <simonNextGameState>
    20bc:	02 c0       	rjmp	.+4      	; 0x20c2 <BastetDictates+0x23a>
    20be:	10 92 66 38 	sts	0x3866, r1	; 0x803866 <simonWait>
                }
            }
        
        //Button released, next or reset!
        } else {
            simonWait = 0;
    20c2:	80 91 67 38 	lds	r24, 0x3867	; 0x803867 <simonTimer>
        }

        if (simonTimer == 200) {    // did you forget about Bastet?
    20c6:	88 3c       	cpi	r24, 0xC8	; 200
    20c8:	41 f4       	brne	.+16     	; 0x20da <BastetDictates+0x252>
    20ca:	83 e0       	ldi	r24, 0x03	; 3
            simonGameState = BASTET_GAME_SHOW_PATTERN;
    20cc:	80 93 64 38 	sts	0x3864, r24	; 0x803864 <simonGameState>
    20d0:	10 92 65 38 	sts	0x3865, r1	; 0x803865 <simonCounter>
            simonCounter = 0;
    20d4:	10 92 67 38 	sts	0x3867, r1	; 0x803867 <simonTimer>
            simonTimer = 0;
    20d8:	51 c0       	rjmp	.+162    	; 0x217c <BastetDictates+0x2f4>
            return 0;
    20da:	80 91 64 38 	lds	r24, 0x3864	; 0x803864 <simonGameState>
        }
    }

    if (BASTET_GAME_WAIT_LEDS == simonGameState) {
    20de:	84 30       	cpi	r24, 0x04	; 4
    20e0:	81 f4       	brne	.+32     	; 0x2102 <BastetDictates+0x27a>
        if (simonTimer >= 7) {
    20e2:	80 91 67 38 	lds	r24, 0x3867	; 0x803867 <simonTimer>
    20e6:	87 30       	cpi	r24, 0x07	; 7
    20e8:	60 f0       	brcs	.+24     	; 0x2102 <BastetDictates+0x27a>
            // on to next state after .5 second
            simonLed(0);  // LEDs off
    20ea:	80 e0       	ldi	r24, 0x00	; 0
    20ec:	4f de       	rcall	.-866    	; 0x1d8c <simonLed>
    20ee:	10 92 66 38 	sts	0x3866, r1	; 0x803866 <simonWait>
            simonWait = 0;
    20f2:	10 92 67 38 	sts	0x3867, r1	; 0x803867 <simonTimer>
            simonTimer = 0;
    20f6:	10 92 65 38 	sts	0x3865, r1	; 0x803865 <simonCounter>
            simonCounter = 0;
    20fa:	80 91 34 38 	lds	r24, 0x3834	; 0x803834 <simonNextGameState>
            simonGameState = simonNextGameState;
    20fe:	80 93 64 38 	sts	0x3864, r24	; 0x803864 <simonGameState>
    2102:	80 91 64 38 	lds	r24, 0x3864	; 0x803864 <simonGameState>
        }
    }

    if (BASTET_GAME_OUTRO == simonGameState) {
    2106:	86 30       	cpi	r24, 0x06	; 6
    2108:	41 f5       	brne	.+80     	; 0x215a <BastetDictates+0x2d2>
    210a:	80 91 67 38 	lds	r24, 0x3867	; 0x803867 <simonTimer>
        if (simonTimer > 3) {
    210e:	84 30       	cpi	r24, 0x04	; 4
    2110:	38 f0       	brcs	.+14     	; 0x2120 <BastetDictates+0x298>
    2112:	80 91 65 38 	lds	r24, 0x3865	; 0x803865 <simonCounter>
            simonCounter++;
    2116:	8f 5f       	subi	r24, 0xFF	; 255
    2118:	80 93 65 38 	sts	0x3865, r24	; 0x803865 <simonCounter>
    211c:	10 92 67 38 	sts	0x3867, r1	; 0x803867 <simonTimer>
            simonTimer = 0;
    2120:	80 91 65 38 	lds	r24, 0x3865	; 0x803865 <simonCounter>
        }
        if (simonCounter > 5) {
    2124:	86 30       	cpi	r24, 0x06	; 6
    2126:	40 f0       	brcs	.+16     	; 0x2138 <BastetDictates+0x2b0>
    2128:	10 92 67 38 	sts	0x3867, r1	; 0x803867 <simonTimer>
            simonTimer = 0;
    212c:	10 92 65 38 	sts	0x3865, r1	; 0x803865 <simonCounter>
            simonCounter = 0;
    2130:	87 e0       	ldi	r24, 0x07	; 7
            simonGameState = BASTET_GAME_OVER;
    2132:	80 93 64 38 	sts	0x3864, r24	; 0x803864 <simonGameState>
    2136:	22 c0       	rjmp	.+68     	; 0x217c <BastetDictates+0x2f4>
            return 0;
    2138:	e5 e0       	ldi	r30, 0x05	; 5
        }
        iLED[HCKR[R][5-simonCounter]] = 0;
    213a:	f0 e0       	ldi	r31, 0x00	; 0
    213c:	e8 1b       	sub	r30, r24
    213e:	f1 09       	sbc	r31, r1
    2140:	ec 53       	subi	r30, 0x3C	; 60
    2142:	f1 44       	sbci	r31, 0x41	; 65
    2144:	a0 81       	ld	r26, Z
    2146:	b0 e0       	ldi	r27, 0x00	; 0
    2148:	a5 53       	subi	r26, 0x35	; 53
    214a:	b5 4c       	sbci	r27, 0xC5	; 197
    214c:	1c 92       	st	X, r1
    214e:	e6 81       	ldd	r30, Z+6	; 0x06
        iLED[HCKR[G][5-simonCounter]] = 0;
    2150:	f0 e0       	ldi	r31, 0x00	; 0
    2152:	e5 53       	subi	r30, 0x35	; 53
    2154:	f5 4c       	sbci	r31, 0xC5	; 197
    2156:	10 82       	st	Z, r1
    2158:	0c c0       	rjmp	.+24     	; 0x2172 <BastetDictates+0x2ea>
    215a:	87 30       	cpi	r24, 0x07	; 7
    }

    if (BASTET_GAME_OVER == simonGameState) {
    215c:	51 f4       	brne	.+20     	; 0x2172 <BastetDictates+0x2ea>
        simonInputPos = 0;
    215e:	10 92 68 38 	sts	0x3868, r1	; 0x803868 <simonInputPos>
        simonPos = 0;
    2162:	10 92 69 38 	sts	0x3869, r1	; 0x803869 <simonPos>
        simonGameState = BASTET_BOOT; // BASTET_GAME_START for stale "field" s
    2166:	10 92 64 38 	sts	0x3864, r1	; 0x803864 <simonGameState>
        gameNow = TEXT;
    216a:	10 92 42 38 	sts	0x3842, r1	; 0x803842 <gameNow>
        simonLed(0);
    216e:	80 e0       	ldi	r24, 0x00	; 0
    2170:	0d de       	rcall	.-998    	; 0x1d8c <simonLed>
    2172:	80 91 67 38 	lds	r24, 0x3867	; 0x803867 <simonTimer>
    }

    ++simonTimer;
    2176:	8f 5f       	subi	r24, 0xFF	; 255
    2178:	80 93 67 38 	sts	0x3867, r24	; 0x803867 <simonTimer>
    217c:	80 e0       	ldi	r24, 0x00	; 0
    return 0;
}
    217e:	df 91       	pop	r29
    2180:	cf 91       	pop	r28
    2182:	08 95       	ret

00002184 <Cheat>:
    2184:	a2 e1       	ldi	r26, 0x12	; 18

//
void SetResponse(uint8_t number, uint16_t address, uint16_t length, uint8_t type){
    reactStr[0][number]=address;
    reactStr[1][number]=length;
    reactStr[2][number]=type;
    2186:	b0 e0       	ldi	r27, 0x00	; 0
    2188:	e8 ec       	ldi	r30, 0xC8	; 200
    218a:	f0 e1       	ldi	r31, 0x10	; 16
    218c:	0c 94 27 1f 	jmp	0x3e4e	; 0x3e4e <__prologue_saves__+0x1e>
    2190:	8a 8b       	std	Y+18, r24	; 0x12
    2192:	80 e1       	ldi	r24, 0x10	; 16
    2194:	e6 e9       	ldi	r30, 0x96	; 150
    2196:	fe eb       	ldi	r31, 0xBE	; 190
    2198:	de 01       	movw	r26, r28
    219a:	11 96       	adiw	r26, 0x01	; 1
    219c:	01 90       	ld	r0, Z+
    219e:	0d 92       	st	X+, r0
    21a0:	8a 95       	dec	r24
    21a2:	e1 f7       	brne	.-8      	; 0x219c <Cheat+0x18>
    21a4:	fe 01       	movw	r30, r28
    21a6:	31 96       	adiw	r30, 0x01	; 1
    21a8:	90 e0       	ldi	r25, 0x00	; 0
    21aa:	8f ef       	ldi	r24, 0xFF	; 255
    21ac:	21 91       	ld	r18, Z+
    21ae:	31 91       	ld	r19, Z+
    21b0:	26 17       	cp	r18, r22
    21b2:	37 07       	cpc	r19, r23
    21b4:	09 f4       	brne	.+2      	; 0x21b8 <Cheat+0x34>
    21b6:	89 2f       	mov	r24, r25
    21b8:	9f 5f       	subi	r25, 0xFF	; 255
    21ba:	98 30       	cpi	r25, 0x08	; 8
    21bc:	b9 f7       	brne	.-18     	; 0x21ac <Cheat+0x28>
    21be:	88 30       	cpi	r24, 0x08	; 8
    21c0:	10 f0       	brcs	.+4      	; 0x21c6 <Cheat+0x42>
    21c2:	80 e0       	ldi	r24, 0x00	; 0
    21c4:	14 c0       	rjmp	.+40     	; 0x21ee <Cheat+0x6a>
    21c6:	18 e1       	ldi	r17, 0x18	; 24
    21c8:	18 0f       	add	r17, r24
    21ca:	41 e0       	ldi	r20, 0x01	; 1
    21cc:	be 01       	movw	r22, r28
    21ce:	6f 5e       	subi	r22, 0xEF	; 239
    21d0:	7f 4f       	sbci	r23, 0xFF	; 255
    21d2:	81 2f       	mov	r24, r17
    21d4:	0e 94 10 08 	call	0x1020	; 0x1020 <EERead>
    21d8:	89 89       	ldd	r24, Y+17	; 0x11
    21da:	8f 3f       	cpi	r24, 0xFF	; 255
    21dc:	91 f7       	brne	.-28     	; 0x21c2 <Cheat+0x3e>
    21de:	41 e0       	ldi	r20, 0x01	; 1
    21e0:	be 01       	movw	r22, r28
    21e2:	6e 5e       	subi	r22, 0xEE	; 238
    21e4:	7f 4f       	sbci	r23, 0xFF	; 255
    21e6:	81 2f       	mov	r24, r17
    21e8:	0e 94 20 08 	call	0x1040	; 0x1040 <EEWrite>
    21ec:	81 e0       	ldi	r24, 0x01	; 1
    21ee:	62 96       	adiw	r28, 0x12	; 18
    21f0:	e3 e0       	ldi	r30, 0x03	; 3
    21f2:	0c 94 40 1f 	jmp	0x3e80	; 0x3e80 <__epilogue_restores__+0x1e>

000021f6 <UnflipData>:
    21f6:	26 2f       	mov	r18, r22
    21f8:	fb 01       	movw	r30, r22
    21fa:	35 e5       	ldi	r19, 0x55	; 85
    21fc:	9e 2f       	mov	r25, r30
    21fe:	92 1b       	sub	r25, r18
    2200:	98 17       	cp	r25, r24
    2202:	28 f4       	brcc	.+10     	; 0x220e <UnflipData+0x18>
    2204:	90 81       	ld	r25, Z
    2206:	92 95       	swap	r25
    2208:	93 27       	eor	r25, r19
    220a:	91 93       	st	Z+, r25
    220c:	f7 cf       	rjmp	.-18     	; 0x21fc <UnflipData+0x6>
    220e:	08 95       	ret

00002210 <ClearTxAfter>:
    2210:	8f 5f       	subi	r24, 0xFF	; 255
    2212:	88 30       	cpi	r24, 0x08	; 8
    2214:	30 f4       	brcc	.+12     	; 0x2222 <ClearTxAfter+0x12>
    2216:	e8 2f       	mov	r30, r24
    2218:	f0 e0       	ldi	r31, 0x00	; 0
    221a:	e0 5b       	subi	r30, 0xB0	; 176
    221c:	f5 4c       	sbci	r31, 0xC5	; 197
    221e:	10 82       	st	Z, r1
    2220:	f7 cf       	rjmp	.-18     	; 0x2210 <ClearTxAfter>
    2222:	08 95       	ret

00002224 <StartsWith>:
    2224:	ac 01       	movw	r20, r24
    2226:	90 e0       	ldi	r25, 0x00	; 0
    2228:	e9 2f       	mov	r30, r25
    222a:	f0 e0       	ldi	r31, 0x00	; 0
    222c:	da 01       	movw	r26, r20
    222e:	ae 0f       	add	r26, r30
    2230:	bf 1f       	adc	r27, r31
    2232:	3c 91       	ld	r19, X
    2234:	e6 0f       	add	r30, r22
    2236:	f7 1f       	adc	r31, r23
    2238:	31 11       	cpse	r19, r1
    223a:	05 c0       	rjmp	.+10     	; 0x2246 <StartsWith+0x22>
    223c:	81 e0       	ldi	r24, 0x01	; 1
    223e:	90 81       	ld	r25, Z
    2240:	99 23       	and	r25, r25
    2242:	49 f0       	breq	.+18     	; 0x2256 <StartsWith+0x32>
    2244:	07 c0       	rjmp	.+14     	; 0x2254 <StartsWith+0x30>
    2246:	20 81       	ld	r18, Z
    2248:	22 23       	and	r18, r18
    224a:	c1 f3       	breq	.-16     	; 0x223c <StartsWith+0x18>
    224c:	32 13       	cpse	r19, r18
    224e:	02 c0       	rjmp	.+4      	; 0x2254 <StartsWith+0x30>
    2250:	9f 5f       	subi	r25, 0xFF	; 255
    2252:	ea cf       	rjmp	.-44     	; 0x2228 <StartsWith+0x4>
    2254:	80 e0       	ldi	r24, 0x00	; 0
    2256:	08 95       	ret

00002258 <PrepareSending>:
    2258:	cf 93       	push	r28
    225a:	df 93       	push	r29
    225c:	fc 01       	movw	r30, r24
    225e:	61 15       	cp	r22, r1
    2260:	71 05       	cpc	r23, r1
    2262:	59 f1       	breq	.+86     	; 0x22ba <PrepareSending+0x62>
    2264:	a8 e5       	ldi	r26, 0x58	; 88
    2266:	ba e3       	ldi	r27, 0x3A	; 58
    2268:	c0 e5       	ldi	r28, 0x50	; 80
    226a:	da e3       	ldi	r29, 0x3A	; 58
    226c:	80 e0       	ldi	r24, 0x00	; 0
    226e:	9f ef       	ldi	r25, 0xFF	; 255
    2270:	6f 3f       	cpi	r22, 0xFF	; 255
    2272:	71 05       	cpc	r23, r1
    2274:	69 f0       	breq	.+26     	; 0x2290 <PrepareSending+0x38>
    2276:	60 f0       	brcs	.+24     	; 0x2290 <PrepareSending+0x38>
    2278:	ed 93       	st	X+, r30
    227a:	fd 93       	st	X+, r31
    227c:	99 93       	st	Y+, r25
    227e:	e1 50       	subi	r30, 0x01	; 1
    2280:	ff 4f       	sbci	r31, 0xFF	; 255
    2282:	6f 5f       	subi	r22, 0xFF	; 255
    2284:	71 09       	sbc	r23, r1
    2286:	8f 5f       	subi	r24, 0xFF	; 255
    2288:	87 30       	cpi	r24, 0x07	; 7
    228a:	91 f7       	brne	.-28     	; 0x2270 <PrepareSending+0x18>
    228c:	81 e0       	ldi	r24, 0x01	; 1
    228e:	1e c0       	rjmp	.+60     	; 0x22cc <PrepareSending+0x74>
    2290:	28 2f       	mov	r18, r24
    2292:	30 e0       	ldi	r19, 0x00	; 0
    2294:	d9 01       	movw	r26, r18
    2296:	aa 0f       	add	r26, r26
    2298:	bb 1f       	adc	r27, r27
    229a:	a8 5a       	subi	r26, 0xA8	; 168
    229c:	b5 4c       	sbci	r27, 0xC5	; 197
    229e:	ed 93       	st	X+, r30
    22a0:	fc 93       	st	X, r31
    22a2:	6f 3f       	cpi	r22, 0xFF	; 255
    22a4:	71 05       	cpc	r23, r1
    22a6:	11 f4       	brne	.+4      	; 0x22ac <PrepareSending+0x54>
    22a8:	6e ef       	ldi	r22, 0xFE	; 254
    22aa:	70 e0       	ldi	r23, 0x00	; 0
    22ac:	f9 01       	movw	r30, r18
    22ae:	e0 5b       	subi	r30, 0xB0	; 176
    22b0:	f5 4c       	sbci	r31, 0xC5	; 197
    22b2:	60 83       	st	Z, r22
    22b4:	40 93 4e 3a 	sts	0x3A4E, r20	; 0x803a4e <txTypeNow>
    22b8:	05 c0       	rjmp	.+10     	; 0x22c4 <PrepareSending+0x6c>
    22ba:	10 92 58 3a 	sts	0x3A58, r1	; 0x803a58 <txAddrList>
    22be:	10 92 59 3a 	sts	0x3A59, r1	; 0x803a59 <txAddrList+0x1>
    22c2:	80 e0       	ldi	r24, 0x00	; 0
    22c4:	a5 df       	rcall	.-182    	; 0x2210 <ClearTxAfter>
    22c6:	10 92 4f 3a 	sts	0x3A4F, r1	; 0x803a4f <txAddrNow>
    22ca:	80 e0       	ldi	r24, 0x00	; 0
    22cc:	df 91       	pop	r29
    22ce:	cf 91       	pop	r28
    22d0:	08 95       	ret

000022d2 <SetStandardResponse>:
}

//
uint8_t SetStandardResponse(uint8_t custStrEnd){
    22d2:	cf 93       	push	r28
    22d4:	df 93       	push	r29
    return 0;
}

//
void SetResponse(uint8_t number, uint16_t address, uint16_t length, uint8_t type){
    reactStr[0][number]=address;
    22d6:	28 2f       	mov	r18, r24
    22d8:	30 e0       	ldi	r19, 0x00	; 0
    22da:	f9 01       	movw	r30, r18
    22dc:	ee 0f       	add	r30, r30
    22de:	ff 1f       	adc	r31, r31
    22e0:	ed 5d       	subi	r30, 0xDD	; 221
    22e2:	f6 4c       	sbci	r31, 0xC6	; 198
    22e4:	a9 e5       	ldi	r26, 0x59	; 89
    22e6:	ba e7       	ldi	r27, 0x7A	; 122
    22e8:	a0 83       	st	Z, r26
    22ea:	b1 83       	std	Z+1, r27	; 0x01
    reactStr[1][number]=length;
    22ec:	f9 01       	movw	r30, r18
    22ee:	ee 0f       	add	r30, r30
    22f0:	ff 1f       	adc	r31, r31
    22f2:	ed 59       	subi	r30, 0x9D	; 157
    22f4:	f6 4c       	sbci	r31, 0xC6	; 198
    22f6:	62 e0       	ldi	r22, 0x02	; 2
    22f8:	70 e0       	ldi	r23, 0x00	; 0
    22fa:	60 83       	st	Z, r22
    22fc:	71 83       	std	Z+1, r23	; 0x01
    reactStr[2][number]=type;
    22fe:	22 0f       	add	r18, r18
    2300:	33 1f       	adc	r19, r19
    2302:	f9 01       	movw	r30, r18
    2304:	ed 55       	subi	r30, 0x5D	; 93
    2306:	f6 4c       	sbci	r31, 0xC6	; 198
    2308:	41 e0       	ldi	r20, 0x01	; 1
    230a:	50 e0       	ldi	r21, 0x00	; 0
    230c:	40 83       	st	Z, r20
    230e:	51 83       	std	Z+1, r21	; 0x01
    return 0;
}

//
void SetResponse(uint8_t number, uint16_t address, uint16_t length, uint8_t type){
    reactStr[0][number]=address;
    2310:	21 e0       	ldi	r18, 0x01	; 1
    2312:	28 0f       	add	r18, r24
    2314:	30 e0       	ldi	r19, 0x00	; 0
    2316:	f9 01       	movw	r30, r18
    2318:	ee 0f       	add	r30, r30
    231a:	ff 1f       	adc	r31, r31
    231c:	ed 5d       	subi	r30, 0xDD	; 221
    231e:	f6 4c       	sbci	r31, 0xC6	; 198
    2320:	c2 e6       	ldi	r28, 0x62	; 98
    2322:	da e7       	ldi	r29, 0x7A	; 122
    2324:	c0 83       	st	Z, r28
    2326:	d1 83       	std	Z+1, r29	; 0x01
    reactStr[1][number]=length;
    2328:	f9 01       	movw	r30, r18
    232a:	ee 0f       	add	r30, r30
    232c:	ff 1f       	adc	r31, r31
    232e:	ed 59       	subi	r30, 0x9D	; 157
    2330:	f6 4c       	sbci	r31, 0xC6	; 198
    2332:	cc e0       	ldi	r28, 0x0C	; 12
    2334:	d0 e0       	ldi	r29, 0x00	; 0
    2336:	c0 83       	st	Z, r28
    2338:	d1 83       	std	Z+1, r29	; 0x01
    reactStr[2][number]=type;
    233a:	22 0f       	add	r18, r18
    233c:	33 1f       	adc	r19, r19
    233e:	f9 01       	movw	r30, r18
    2340:	ed 55       	subi	r30, 0x5D	; 93
    2342:	f6 4c       	sbci	r31, 0xC6	; 198
    2344:	40 83       	st	Z, r20
    2346:	51 83       	std	Z+1, r21	; 0x01
//
uint8_t SetStandardResponse(uint8_t custStrEnd){

    SetResponse(custStrEnd++, A_LF, 2, TEASER);
    SetResponse(custStrEnd++, A_LOCATION, L_LOCATION, TEASER);
    reactStr[0][custStrEnd++] = CURR_LOC;
    2348:	e2 e0       	ldi	r30, 0x02	; 2
    234a:	e8 0f       	add	r30, r24
    234c:	f0 e0       	ldi	r31, 0x00	; 0
    234e:	ee 0f       	add	r30, r30
    2350:	ff 1f       	adc	r31, r31
    2352:	ed 5d       	subi	r30, 0xDD	; 221
    2354:	f6 4c       	sbci	r31, 0xC6	; 198
    2356:	20 ef       	ldi	r18, 0xF0	; 240
    2358:	3f ef       	ldi	r19, 0xFF	; 255
    235a:	20 83       	st	Z, r18
    235c:	31 83       	std	Z+1, r19	; 0x01
    return 0;
}

//
void SetResponse(uint8_t number, uint16_t address, uint16_t length, uint8_t type){
    reactStr[0][number]=address;
    235e:	23 e0       	ldi	r18, 0x03	; 3
    2360:	28 0f       	add	r18, r24
    2362:	30 e0       	ldi	r19, 0x00	; 0
    2364:	f9 01       	movw	r30, r18
    2366:	ee 0f       	add	r30, r30
    2368:	ff 1f       	adc	r31, r31
    236a:	ed 5d       	subi	r30, 0xDD	; 221
    236c:	f6 4c       	sbci	r31, 0xC6	; 198
    236e:	a0 83       	st	Z, r26
    2370:	b1 83       	std	Z+1, r27	; 0x01
    reactStr[1][number]=length;
    2372:	f9 01       	movw	r30, r18
    2374:	ee 0f       	add	r30, r30
    2376:	ff 1f       	adc	r31, r31
    2378:	ed 59       	subi	r30, 0x9D	; 157
    237a:	f6 4c       	sbci	r31, 0xC6	; 198
    237c:	60 83       	st	Z, r22
    237e:	71 83       	std	Z+1, r23	; 0x01
    reactStr[2][number]=type;
    2380:	22 0f       	add	r18, r18
    2382:	33 1f       	adc	r19, r19
    2384:	f9 01       	movw	r30, r18
    2386:	ed 55       	subi	r30, 0x5D	; 93
    2388:	f6 4c       	sbci	r31, 0xC6	; 198
    238a:	40 83       	st	Z, r20
    238c:	51 83       	std	Z+1, r21	; 0x01
    return 0;
}

//
void SetResponse(uint8_t number, uint16_t address, uint16_t length, uint8_t type){
    reactStr[0][number]=address;
    238e:	24 e0       	ldi	r18, 0x04	; 4
    2390:	28 0f       	add	r18, r24
    2392:	30 e0       	ldi	r19, 0x00	; 0
    2394:	f9 01       	movw	r30, r18
    2396:	ee 0f       	add	r30, r30
    2398:	ff 1f       	adc	r31, r31
    239a:	ed 5d       	subi	r30, 0xDD	; 221
    239c:	f6 4c       	sbci	r31, 0xC6	; 198
    239e:	a5 e5       	ldi	r26, 0x55	; 85
    23a0:	ba e7       	ldi	r27, 0x7A	; 122
    23a2:	a0 83       	st	Z, r26
    23a4:	b1 83       	std	Z+1, r27	; 0x01
    reactStr[1][number]=length;
    23a6:	f9 01       	movw	r30, r18
    23a8:	ee 0f       	add	r30, r30
    23aa:	ff 1f       	adc	r31, r31
    23ac:	ed 59       	subi	r30, 0x9D	; 157
    23ae:	f6 4c       	sbci	r31, 0xC6	; 198
    23b0:	60 83       	st	Z, r22
    23b2:	71 83       	std	Z+1, r23	; 0x01
    reactStr[2][number]=type;
    23b4:	22 0f       	add	r18, r18
    23b6:	33 1f       	adc	r19, r19
    23b8:	f9 01       	movw	r30, r18
    23ba:	ed 55       	subi	r30, 0x5D	; 93
    23bc:	f6 4c       	sbci	r31, 0xC6	; 198
    23be:	40 83       	st	Z, r20
    23c0:	51 83       	std	Z+1, r21	; 0x01
    reactStr[0][custStrEnd++] = CURR_LOC;
    SetResponse(custStrEnd++, A_LF, 2, TEASER);
    SetResponse(custStrEnd++, A_PROMPT, L_PROMPT, TEASER);

    return custStrEnd;
}
    23c2:	8b 5f       	subi	r24, 0xFB	; 251
    23c4:	df 91       	pop	r29
    23c6:	cf 91       	pop	r28
    23c8:	08 95       	ret

000023ca <PopulateObject>:

//Get all the relevant data and string addresses of an object
void PopulateObject(uint16_t offset, object_model_t *object){
    23ca:	af 92       	push	r10
    23cc:	bf 92       	push	r11
    23ce:	df 92       	push	r13
    23d0:	ef 92       	push	r14
    23d2:	ff 92       	push	r15
    23d4:	0f 93       	push	r16
    23d6:	1f 93       	push	r17
    23d8:	cf 93       	push	r28
    23da:	df 93       	push	r29
    23dc:	cd b7       	in	r28, 0x3d	; 61
    23de:	de b7       	in	r29, 0x3e	; 62
    23e0:	2c 97       	sbiw	r28, 0x0c	; 12
    23e2:	cd bf       	out	0x3d, r28	; 61
    23e4:	de bf       	out	0x3e, r29	; 62
    23e6:	7c 01       	movw	r14, r24
    23e8:	8b 01       	movw	r16, r22
    uint16_t parStr;
    offset += L_BOILER;

    //Fill things with fixed distance to offset
    uint8_t data[OFF_STRINGFLDS];
    ExtEERead(offset, OFF_STRINGFLDS, GAME, &data[0]);
    23ea:	9e 01       	movw	r18, r28
    23ec:	2f 5f       	subi	r18, 0xFF	; 255
    23ee:	3f 4f       	sbci	r19, 0xFF	; 255
    23f0:	40 e0       	ldi	r20, 0x00	; 0
    23f2:	6c e0       	ldi	r22, 0x0C	; 12
    23f4:	80 96       	adiw	r24, 0x20	; 32
    23f6:	0e 94 62 08 	call	0x10c4	; 0x10c4 <ExtEERead>
    object->addrNextObj = (data[OFF_NEXTOBJ]<<8|data[OFF_NEXTOBJ+1])+L_BOILER;
    23fa:	89 81       	ldd	r24, Y+1	; 0x01
    23fc:	9a 81       	ldd	r25, Y+2	; 0x02
    23fe:	98 27       	eor	r25, r24
    2400:	89 27       	eor	r24, r25
    2402:	98 27       	eor	r25, r24
    2404:	80 96       	adiw	r24, 0x20	; 32
    2406:	f8 01       	movw	r30, r16
    2408:	80 83       	st	Z, r24
    240a:	91 83       	std	Z+1, r25	; 0x01
    object->addrNextLvl = (data[OFF_NEXTLVL]<<8|data[OFF_NEXTLVL+1])+L_BOILER;
    240c:	8b 81       	ldd	r24, Y+3	; 0x03
    240e:	9c 81       	ldd	r25, Y+4	; 0x04
    2410:	98 27       	eor	r25, r24
    2412:	89 27       	eor	r24, r25
    2414:	98 27       	eor	r25, r24
    2416:	80 96       	adiw	r24, 0x20	; 32
    2418:	82 83       	std	Z+2, r24	; 0x02
    241a:	93 83       	std	Z+3, r25	; 0x03
    241c:	de 01       	movw	r26, r28
    241e:	15 96       	adiw	r26, 0x05	; 5
    2420:	34 96       	adiw	r30, 0x04	; 4
    2422:	c8 01       	movw	r24, r16
    2424:	0c 96       	adiw	r24, 0x0c	; 12
    for (uint8_t x=0; x<BYTE_FIELDS_LEN; ++x){
        object->byteField[x]=data[x+OFF_BYTEFLDS];
    2426:	2d 91       	ld	r18, X+
    2428:	21 93       	st	Z+, r18
    //Fill things with fixed distance to offset
    uint8_t data[OFF_STRINGFLDS];
    ExtEERead(offset, OFF_STRINGFLDS, GAME, &data[0]);
    object->addrNextObj = (data[OFF_NEXTOBJ]<<8|data[OFF_NEXTOBJ+1])+L_BOILER;
    object->addrNextLvl = (data[OFF_NEXTLVL]<<8|data[OFF_NEXTLVL+1])+L_BOILER;
    for (uint8_t x=0; x<BYTE_FIELDS_LEN; ++x){
    242a:	e8 17       	cp	r30, r24
    242c:	f9 07       	cpc	r31, r25
    242e:	d9 f7       	brne	.-10     	; 0x2426 <PopulateObject+0x5c>
        object->byteField[x]=data[x+OFF_BYTEFLDS];
    }

    //Find out where all of the strings begin and how long they are
    offset += OFF_STRINGFLDS;
    2430:	fc e2       	ldi	r31, 0x2C	; 44
    2432:	ef 0e       	add	r14, r31
    2434:	f1 1c       	adc	r15, r1
    2436:	58 01       	movw	r10, r16
    for(uint8_t x=0; x<STRING_FIELDS_LEN; ++x){
    2438:	d1 2c       	mov	r13, r1
        
        //Determine length
        ExtEERead(offset, 3, GAME, &data[0]);
    243a:	9e 01       	movw	r18, r28
    243c:	2f 5f       	subi	r18, 0xFF	; 255
    243e:	3f 4f       	sbci	r19, 0xFF	; 255
    2440:	40 e0       	ldi	r20, 0x00	; 0
    2442:	63 e0       	ldi	r22, 0x03	; 3
    2444:	c7 01       	movw	r24, r14
    2446:	0e 94 62 08 	call	0x10c4	; 0x10c4 <ExtEERead>
    244a:	89 81       	ldd	r24, Y+1	; 0x01
    244c:	9a 81       	ldd	r25, Y+2	; 0x02
    244e:	98 27       	eor	r25, r24
    2450:	89 27       	eor	r24, r25
    2452:	98 27       	eor	r25, r24
        parStr = (data[0]<<8|data[1]);
        offset += 2;
    2454:	97 01       	movw	r18, r14
    2456:	2e 5f       	subi	r18, 0xFE	; 254
    2458:	3f 4f       	sbci	r19, 0xFF	; 255
        if (x >= OPEN_ACL_MSG){
    245a:	43 e0       	ldi	r20, 0x03	; 3
    245c:	4d 15       	cp	r20, r13
    245e:	80 f4       	brcc	.+32     	; 0x2480 <PopulateObject+0xb6>
            object->lenStr[x]= parStr-1;
    2460:	ac 01       	movw	r20, r24
    2462:	41 50       	subi	r20, 0x01	; 1
    2464:	51 09       	sbc	r21, r1
    2466:	f8 01       	movw	r30, r16
    2468:	42 8f       	std	Z+26, r20	; 0x1a
    246a:	53 8f       	std	Z+27, r21	; 0x1b
            object->addrStr[x]=offset+1;
    246c:	f3 e0       	ldi	r31, 0x03	; 3
    246e:	ef 0e       	add	r14, r31
    2470:	f1 1c       	adc	r15, r1
    2472:	f8 01       	movw	r30, r16
    2474:	e4 86       	std	Z+12, r14	; 0x0c
    2476:	f5 86       	std	Z+13, r15	; 0x0d
            object->effect[x-OPEN_ACL_MSG] = data[2];
    2478:	4b 81       	ldd	r20, Y+3	; 0x03
    247a:	f5 01       	movw	r30, r10
    247c:	44 a3       	std	Z+36, r20	; 0x24
    247e:	05 c0       	rjmp	.+10     	; 0x248a <PopulateObject+0xc0>
        } else {
            object->lenStr[x]= parStr;
    2480:	f8 01       	movw	r30, r16
    2482:	82 8f       	std	Z+26, r24	; 0x1a
    2484:	93 8f       	std	Z+27, r25	; 0x1b
            object->addrStr[x]=offset;
    2486:	24 87       	std	Z+12, r18	; 0x0c
    2488:	35 87       	std	Z+13, r19	; 0x0d
        }
        
        //Determine string start location for next field
        offset += parStr;
    248a:	7c 01       	movw	r14, r24
    248c:	e2 0e       	add	r14, r18
    248e:	f3 1e       	adc	r15, r19
        object->byteField[x]=data[x+OFF_BYTEFLDS];
    }

    //Find out where all of the strings begin and how long they are
    offset += OFF_STRINGFLDS;
    for(uint8_t x=0; x<STRING_FIELDS_LEN; ++x){
    2490:	d3 94       	inc	r13
    2492:	0e 5f       	subi	r16, 0xFE	; 254
    2494:	1f 4f       	sbci	r17, 0xFF	; 255
    2496:	ff ef       	ldi	r31, 0xFF	; 255
    2498:	af 1a       	sub	r10, r31
    249a:	bf 0a       	sbc	r11, r31
    249c:	47 e0       	ldi	r20, 0x07	; 7
    249e:	d4 12       	cpse	r13, r20
    24a0:	cc cf       	rjmp	.-104    	; 0x243a <PopulateObject+0x70>
        }
        
        //Determine string start location for next field
        offset += parStr;
    }    
}
    24a2:	2c 96       	adiw	r28, 0x0c	; 12
    24a4:	cd bf       	out	0x3d, r28	; 61
    24a6:	de bf       	out	0x3e, r29	; 62
    24a8:	df 91       	pop	r29
    24aa:	cf 91       	pop	r28
    24ac:	1f 91       	pop	r17
    24ae:	0f 91       	pop	r16
    24b0:	ff 90       	pop	r15
    24b2:	ef 90       	pop	r14
    24b4:	df 90       	pop	r13
    24b6:	bf 90       	pop	r11
    24b8:	af 90       	pop	r10
    24ba:	08 95       	ret

000024bc <CheckLetter>:

//Check if the entered letter corresponds with a name
uint8_t CheckLetter(uint16_t object, uint8_t letter){
    24bc:	a0 e2       	ldi	r26, 0x20	; 32
    24be:	b0 e0       	ldi	r27, 0x00	; 0
    24c0:	e4 e6       	ldi	r30, 0x64	; 100
    24c2:	f2 e1       	ldi	r31, 0x12	; 18
    24c4:	0c 94 22 1f 	jmp	0x3e44	; 0x3e44 <__prologue_saves__+0x14>
    24c8:	c6 2e       	mov	r12, r22
    
    uint8_t found = 0;
    uint8_t data[32];

    object += L_BOILER;
    24ca:	7c 01       	movw	r14, r24
    24cc:	20 e2       	ldi	r18, 0x20	; 32
    24ce:	e2 0e       	add	r14, r18
    24d0:	f1 1c       	adc	r15, r1
    ExtEERead(object+OFF_STRINGFLDS, 2, GAME, &data[0]);
    24d2:	9e 01       	movw	r18, r28
    24d4:	2f 5f       	subi	r18, 0xFF	; 255
    24d6:	3f 4f       	sbci	r19, 0xFF	; 255
    24d8:	40 e0       	ldi	r20, 0x00	; 0
    24da:	62 e0       	ldi	r22, 0x02	; 2
    24dc:	8c 96       	adiw	r24, 0x2c	; 44
    24de:	0e 94 62 08 	call	0x10c4	; 0x10c4 <ExtEERead>
    uint8_t x = data[1]; //Assuming a name is not longer than 255 characters.
    24e2:	1a 81       	ldd	r17, Y+2	; 0x02
}

//Check if the entered letter corresponds with a name
uint8_t CheckLetter(uint16_t object, uint8_t letter){
    
    uint8_t found = 0;
    24e4:	d1 2c       	mov	r13, r1

    object += L_BOILER;
    ExtEERead(object+OFF_STRINGFLDS, 2, GAME, &data[0]);
    uint8_t x = data[1]; //Assuming a name is not longer than 255 characters.

    while (x){
    24e6:	11 23       	and	r17, r17
    24e8:	59 f1       	breq	.+86     	; 0x2540 <CheckLetter+0x84>
    24ea:	01 2f       	mov	r16, r17
    24ec:	11 32       	cpi	r17, 0x21	; 33
    24ee:	08 f0       	brcs	.+2      	; 0x24f2 <CheckLetter+0x36>
    24f0:	00 e2       	ldi	r16, 0x20	; 32
        uint8_t max;
        if (x>32) max = 32; else max = x;
        ExtEERead(object+OFF_STRINGFLDS+2, max, GAME, &data[0]);
    24f2:	9e 01       	movw	r18, r28
    24f4:	2f 5f       	subi	r18, 0xFF	; 255
    24f6:	3f 4f       	sbci	r19, 0xFF	; 255
    24f8:	40 e0       	ldi	r20, 0x00	; 0
    24fa:	60 2f       	mov	r22, r16
    24fc:	c7 01       	movw	r24, r14
    24fe:	0e 96       	adiw	r24, 0x0e	; 14
    2500:	0e 94 62 08 	call	0x10c4	; 0x10c4 <ExtEERead>
    2504:	fe 01       	movw	r30, r28
    2506:	31 96       	adiw	r30, 0x01	; 1
        for (uint8_t y=0; y<max; ++y){
    2508:	80 e0       	ldi	r24, 0x00	; 0
            if (found){
    250a:	dd 20       	and	r13, r13
    250c:	61 f0       	breq	.+24     	; 0x2526 <CheckLetter+0x6a>
                if ((data[y]|0x20) == letter) return 1; else return 0;
    250e:	e1 e0       	ldi	r30, 0x01	; 1
    2510:	f0 e0       	ldi	r31, 0x00	; 0
    2512:	ec 0f       	add	r30, r28
    2514:	fd 1f       	adc	r31, r29
    2516:	e8 0f       	add	r30, r24
    2518:	f1 1d       	adc	r31, r1
    251a:	90 81       	ld	r25, Z
    251c:	90 62       	ori	r25, 0x20	; 32
    251e:	81 e0       	ldi	r24, 0x01	; 1
    2520:	9c 11       	cpse	r25, r12
    2522:	0e c0       	rjmp	.+28     	; 0x2540 <CheckLetter+0x84>
    2524:	0e c0       	rjmp	.+28     	; 0x2542 <CheckLetter+0x86>
            }
            if (data[y] == '[') found = 1;
    2526:	91 91       	ld	r25, Z+
    2528:	dd 24       	eor	r13, r13
    252a:	d3 94       	inc	r13
    252c:	9b 35       	cpi	r25, 0x5B	; 91
    252e:	09 f0       	breq	.+2      	; 0x2532 <CheckLetter+0x76>
    2530:	d1 2c       	mov	r13, r1

    while (x){
        uint8_t max;
        if (x>32) max = 32; else max = x;
        ExtEERead(object+OFF_STRINGFLDS+2, max, GAME, &data[0]);
        for (uint8_t y=0; y<max; ++y){
    2532:	8f 5f       	subi	r24, 0xFF	; 255
    2534:	80 17       	cp	r24, r16
    2536:	48 f3       	brcs	.-46     	; 0x250a <CheckLetter+0x4e>
            if (found){
                if ((data[y]|0x20) == letter) return 1; else return 0;
            }
            if (data[y] == '[') found = 1;
        }
        object += max;
    2538:	e0 0e       	add	r14, r16
    253a:	f1 1c       	adc	r15, r1
        x -= max;
    253c:	10 1b       	sub	r17, r16
    253e:	d3 cf       	rjmp	.-90     	; 0x24e6 <CheckLetter+0x2a>
    }
    return 0;
    2540:	80 e0       	ldi	r24, 0x00	; 0
}
    2542:	a0 96       	adiw	r28, 0x20	; 32
    2544:	e8 e0       	ldi	r30, 0x08	; 8
    2546:	0c 94 3b 1f 	jmp	0x3e76	; 0x3e76 <__epilogue_restores__+0x14>

0000254a <FindChild>:

//Returns the child's address if the child is visible and the search letter matches
uint16_t FindChild(uint16_t parent, uint8_t letter, uint16_t start){
    254a:	af 92       	push	r10
    254c:	bf 92       	push	r11
    254e:	df 92       	push	r13
    2550:	ef 92       	push	r14
    2552:	ff 92       	push	r15
    2554:	0f 93       	push	r16
    2556:	1f 93       	push	r17
    2558:	cf 93       	push	r28
    255a:	df 93       	push	r29
    255c:	00 d0       	rcall	.+0      	; 0x255e <FindChild+0x14>
    255e:	00 d0       	rcall	.+0      	; 0x2560 <FindChild+0x16>
    2560:	cd b7       	in	r28, 0x3d	; 61
    2562:	de b7       	in	r29, 0x3e	; 62
    2564:	d6 2e       	mov	r13, r22
    2566:	5a 01       	movw	r10, r20
    
    uint16_t child = parent;
    uint8_t data[4];

    ExtEERead(child+L_BOILER, 4, GAME, &data[0]);
    2568:	9e 01       	movw	r18, r28
    256a:	2f 5f       	subi	r18, 0xFF	; 255
    256c:	3f 4f       	sbci	r19, 0xFF	; 255
    256e:	40 e0       	ldi	r20, 0x00	; 0
    2570:	64 e0       	ldi	r22, 0x04	; 4
    2572:	80 96       	adiw	r24, 0x20	; 32
    2574:	0e 94 62 08 	call	0x10c4	; 0x10c4 <ExtEERead>
    2578:	e9 80       	ldd	r14, Y+1	; 0x01
    257a:	fa 80       	ldd	r15, Y+2	; 0x02
    257c:	fe 24       	eor	r15, r14
    257e:	ef 24       	eor	r14, r15
    2580:	fe 24       	eor	r15, r14
    2582:	0b 81       	ldd	r16, Y+3	; 0x03
    2584:	1c 81       	ldd	r17, Y+4	; 0x04
    2586:	10 27       	eor	r17, r16
    2588:	01 27       	eor	r16, r17
    258a:	10 27       	eor	r17, r16
    parent = (data[0]<<8|data[1]);    //Next object on parent level
    child =  (data[2]<<8|data[3]);    //First object on child level

    //As long as the child is within the parent's range
    while (parent>child){
    258c:	0e 15       	cp	r16, r14
    258e:	1f 05       	cpc	r17, r15
    2590:	48 f5       	brcc	.+82     	; 0x25e4 <FindChild+0x9a>

        //If child's address is higher than the start address, perform search for letter
        if (child>start){
    2592:	a0 16       	cp	r10, r16
    2594:	b1 06       	cpc	r11, r17
    2596:	60 f0       	brcs	.+24     	; 0x25b0 <FindChild+0x66>
                if ((letter == 0)||(CheckLetter(child, letter))) return child;
            }
        }

        //Not visible or name not right
        ExtEERead(child+L_BOILER, 2, GAME, &data[0]);
    2598:	9e 01       	movw	r18, r28
    259a:	2f 5f       	subi	r18, 0xFF	; 255
    259c:	3f 4f       	sbci	r19, 0xFF	; 255
    259e:	40 e0       	ldi	r20, 0x00	; 0
    25a0:	62 e0       	ldi	r22, 0x02	; 2
    25a2:	c8 01       	movw	r24, r16
    25a4:	80 96       	adiw	r24, 0x20	; 32
    25a6:	0e 94 62 08 	call	0x10c4	; 0x10c4 <ExtEERead>
    25aa:	09 81       	ldd	r16, Y+1	; 0x01
    25ac:	1a 81       	ldd	r17, Y+2	; 0x02
    25ae:	eb cf       	rjmp	.-42     	; 0x2586 <FindChild+0x3c>
    //As long as the child is within the parent's range
    while (parent>child){

        //If child's address is higher than the start address, perform search for letter
        if (child>start){
            ExtEERead(child+OFF_BYTEFLDS+VISIBLE_ACL+L_BOILER, 1, GAME, &data[0]);
    25b0:	9e 01       	movw	r18, r28
    25b2:	2f 5f       	subi	r18, 0xFF	; 255
    25b4:	3f 4f       	sbci	r19, 0xFF	; 255
    25b6:	40 e0       	ldi	r20, 0x00	; 0
    25b8:	61 e0       	ldi	r22, 0x01	; 1
    25ba:	c8 01       	movw	r24, r16
    25bc:	85 96       	adiw	r24, 0x25	; 37
    25be:	0e 94 62 08 	call	0x10c4	; 0x10c4 <ExtEERead>
            if ((data[0] == 0)||(CheckState(data[0]))) {
    25c2:	89 81       	ldd	r24, Y+1	; 0x01
    25c4:	81 11       	cpse	r24, r1
    25c6:	03 c0       	rjmp	.+6      	; 0x25ce <FindChild+0x84>
                if ((letter == 0)||(CheckLetter(child, letter))) return child;
    25c8:	d1 10       	cpse	r13, r1
    25ca:	06 c0       	rjmp	.+12     	; 0x25d8 <FindChild+0x8e>
    25cc:	0e c0       	rjmp	.+28     	; 0x25ea <FindChild+0xa0>
    while (parent>child){

        //If child's address is higher than the start address, perform search for letter
        if (child>start){
            ExtEERead(child+OFF_BYTEFLDS+VISIBLE_ACL+L_BOILER, 1, GAME, &data[0]);
            if ((data[0] == 0)||(CheckState(data[0]))) {
    25ce:	0e 94 19 0a 	call	0x1432	; 0x1432 <CheckState>
    25d2:	81 11       	cpse	r24, r1
    25d4:	f9 cf       	rjmp	.-14     	; 0x25c8 <FindChild+0x7e>
    25d6:	e0 cf       	rjmp	.-64     	; 0x2598 <FindChild+0x4e>
                if ((letter == 0)||(CheckLetter(child, letter))) return child;
    25d8:	6d 2d       	mov	r22, r13
    25da:	c8 01       	movw	r24, r16
    25dc:	6f df       	rcall	.-290    	; 0x24bc <CheckLetter>
    25de:	88 23       	and	r24, r24
    25e0:	d9 f2       	breq	.-74     	; 0x2598 <FindChild+0x4e>
    25e2:	03 c0       	rjmp	.+6      	; 0x25ea <FindChild+0xa0>

        //Not visible or name not right
        ExtEERead(child+L_BOILER, 2, GAME, &data[0]);
        child = (data[0]<<8|data[1]);    //Next object on child level
        
    } return 0;
    25e4:	80 e0       	ldi	r24, 0x00	; 0
    25e6:	90 e0       	ldi	r25, 0x00	; 0
    25e8:	01 c0       	rjmp	.+2      	; 0x25ec <FindChild+0xa2>
    25ea:	c8 01       	movw	r24, r16
}
    25ec:	24 96       	adiw	r28, 0x04	; 4
    25ee:	cd bf       	out	0x3d, r28	; 61
    25f0:	de bf       	out	0x3e, r29	; 62
    25f2:	df 91       	pop	r29
    25f4:	cf 91       	pop	r28
    25f6:	1f 91       	pop	r17
    25f8:	0f 91       	pop	r16
    25fa:	ff 90       	pop	r15
    25fc:	ef 90       	pop	r14
    25fe:	df 90       	pop	r13
    2600:	bf 90       	pop	r11
    2602:	af 90       	pop	r10
    2604:	08 95       	ret

00002606 <InpOkChk>:

//Allow only a(A) to z(Z) and 0 to 9 as input
uint8_t InpOkChk(uint8_t test){
    test |= 0x20;
    2606:	80 62       	ori	r24, 0x20	; 32
    if ((test>='a')&&(test<='z')) return 1;
    2608:	9f e9       	ldi	r25, 0x9F	; 159
    260a:	98 0f       	add	r25, r24
    260c:	9a 31       	cpi	r25, 0x1A	; 26
    260e:	38 f0       	brcs	.+14     	; 0x261e <InpOkChk+0x18>
    2610:	90 ed       	ldi	r25, 0xD0	; 208
    2612:	98 0f       	add	r25, r24
    2614:	81 e0       	ldi	r24, 0x01	; 1
    2616:	9a 30       	cpi	r25, 0x0A	; 10
    2618:	18 f0       	brcs	.+6      	; 0x2620 <InpOkChk+0x1a>
    261a:	80 e0       	ldi	r24, 0x00	; 0
    261c:	08 95       	ret
    261e:	81 e0       	ldi	r24, 0x01	; 1
    if ((test>='0')&&(test<='9')) return 1;
    return 0;
}
    2620:	08 95       	ret

00002622 <CleanInput>:

//Cleans input of garbage and returns length of cleaned input "o->d2  !\0" becomes "od2\0"
uint8_t CleanInput(uint8_t *data){
    2622:	0f 93       	push	r16
    2624:	1f 93       	push	r17
    2626:	cf 93       	push	r28
    2628:	df 93       	push	r29
    262a:	8c 01       	movw	r16, r24
    uint8_t cnt = 0;
    for (uint8_t x=0; data[x]!=0; ++x){
    262c:	d0 e0       	ldi	r29, 0x00	; 0
    return 0;
}

//Cleans input of garbage and returns length of cleaned input "o->d2  !\0" becomes "od2\0"
uint8_t CleanInput(uint8_t *data){
    uint8_t cnt = 0;
    262e:	c0 e0       	ldi	r28, 0x00	; 0
    for (uint8_t x=0; data[x]!=0; ++x){
    2630:	f8 01       	movw	r30, r16
    2632:	ed 0f       	add	r30, r29
    2634:	f1 1d       	adc	r31, r1
    2636:	20 81       	ld	r18, Z
    2638:	8c 2f       	mov	r24, r28
    263a:	90 e0       	ldi	r25, 0x00	; 0
    263c:	22 23       	and	r18, r18
    263e:	51 f0       	breq	.+20     	; 0x2654 <CleanInput+0x32>
        data[cnt] = data[x];
    2640:	d8 01       	movw	r26, r16
    2642:	a8 0f       	add	r26, r24
    2644:	b9 1f       	adc	r27, r25
    2646:	2c 93       	st	X, r18
        if (InpOkChk(data[x])) ++cnt;
    2648:	80 81       	ld	r24, Z
    264a:	dd df       	rcall	.-70     	; 0x2606 <InpOkChk>
    264c:	81 11       	cpse	r24, r1
    264e:	cf 5f       	subi	r28, 0xFF	; 255
}

//Cleans input of garbage and returns length of cleaned input "o->d2  !\0" becomes "od2\0"
uint8_t CleanInput(uint8_t *data){
    uint8_t cnt = 0;
    for (uint8_t x=0; data[x]!=0; ++x){
    2650:	df 5f       	subi	r29, 0xFF	; 255
    2652:	ee cf       	rjmp	.-36     	; 0x2630 <CleanInput+0xe>
        data[cnt] = data[x];
        if (InpOkChk(data[x])) ++cnt;
    }
    data[cnt] = 0;
    2654:	f8 01       	movw	r30, r16
    2656:	e8 0f       	add	r30, r24
    2658:	f9 1f       	adc	r31, r25
    265a:	10 82       	st	Z, r1
    return cnt;
}
    265c:	8c 2f       	mov	r24, r28
    265e:	df 91       	pop	r29
    2660:	cf 91       	pop	r28
    2662:	1f 91       	pop	r17
    2664:	0f 91       	pop	r16
    2666:	08 95       	ret

00002668 <CheckSend>:

//Send routine, optimized for low memory usage
uint8_t CheckSend(){
    2668:	cf 93       	push	r28
    /*if (effect == 0){
        effect = currObj.byteField[EFFECTS];
    }*/

    //Check if more string(part)s have to be sent to the serial output if previous send operation is completed
    if ((txAddrNow < TXLISTLEN) && serTxDone){
    266a:	20 91 4f 3a 	lds	r18, 0x3A4F	; 0x803a4f <txAddrNow>
    266e:	28 30       	cpi	r18, 0x08	; 8
    2670:	08 f0       	brcs	.+2      	; 0x2674 <CheckSend+0xc>
    2672:	49 c0       	rjmp	.+146    	; 0x2706 <CheckSend+0x9e>
    2674:	80 91 09 38 	lds	r24, 0x3809	; 0x803809 <serTxDone>
    2678:	88 23       	and	r24, r24
    267a:	09 f4       	brne	.+2      	; 0x267e <CheckSend+0x16>
    267c:	44 c0       	rjmp	.+136    	; 0x2706 <CheckSend+0x9e>
        if (txStrLen[txAddrNow] == 0){
    267e:	82 2f       	mov	r24, r18
    2680:	90 e0       	ldi	r25, 0x00	; 0
    2682:	fc 01       	movw	r30, r24
    2684:	e0 5b       	subi	r30, 0xB0	; 176
    2686:	f5 4c       	sbci	r31, 0xC5	; 197
    2688:	e0 81       	ld	r30, Z
    268a:	e1 11       	cpse	r30, r1
    268c:	06 c0       	rjmp	.+12     	; 0x269a <CheckSend+0x32>
            txPart = 0;
    268e:	10 92 0e 39 	sts	0x390E, r1	; 0x80390e <txPart.3937>
            txAddrNow = TXLISTLEN;
    2692:	88 e0       	ldi	r24, 0x08	; 8
    2694:	80 93 4f 3a 	sts	0x3A4F, r24	; 0x803a4f <txAddrNow>
    2698:	2e c0       	rjmp	.+92     	; 0x26f6 <CheckSend+0x8e>
        } else if (txPart < txStrLen[txAddrNow]){
    269a:	50 91 0e 39 	lds	r21, 0x390E	; 0x80390e <txPart.3937>
    269e:	5e 17       	cp	r21, r30
    26a0:	60 f5       	brcc	.+88     	; 0x26fa <CheckSend+0x92>
            EEreadLength = txStrLen[txAddrNow]-txPart;
    26a2:	ce 2f       	mov	r28, r30
    26a4:	c5 1b       	sub	r28, r21
    26a6:	c1 32       	cpi	r28, 0x21	; 33
    26a8:	08 f0       	brcs	.+2      	; 0x26ac <CheckSend+0x44>
    26aa:	c0 e2       	ldi	r28, 0x20	; 32
            if (EEreadLength>=TXLEN) EEreadLength = TXLEN-1;
            ExtEERead(txAddrList[txAddrNow]+txPart, EEreadLength, txTypeNow, &txBuffer[0]);
    26ac:	88 0f       	add	r24, r24
    26ae:	99 1f       	adc	r25, r25
    26b0:	fc 01       	movw	r30, r24
    26b2:	e8 5a       	subi	r30, 0xA8	; 168
    26b4:	f5 4c       	sbci	r31, 0xC5	; 197
    26b6:	80 81       	ld	r24, Z
    26b8:	91 81       	ldd	r25, Z+1	; 0x01
    26ba:	29 ef       	ldi	r18, 0xF9	; 249
    26bc:	3a e3       	ldi	r19, 0x3A	; 58
    26be:	40 91 4e 3a 	lds	r20, 0x3A4E	; 0x803a4e <txTypeNow>
    26c2:	6c 2f       	mov	r22, r28
    26c4:	85 0f       	add	r24, r21
    26c6:	91 1d       	adc	r25, r1
    26c8:	0e 94 62 08 	call	0x10c4	; 0x10c4 <ExtEERead>
            txPart += EEreadLength;
    26cc:	80 91 0e 39 	lds	r24, 0x390E	; 0x80390e <txPart.3937>
    26d0:	8c 0f       	add	r24, r28
    26d2:	80 93 0e 39 	sts	0x390E, r24	; 0x80390e <txPart.3937>
            txBuffer[EEreadLength] = 0; //Add string terminator after piece to send to plug memory leak
    26d6:	ec 2f       	mov	r30, r28
    26d8:	f0 e0       	ldi	r31, 0x00	; 0
    26da:	e7 50       	subi	r30, 0x07	; 7
    26dc:	f5 4c       	sbci	r31, 0xC5	; 197
    26de:	10 82       	st	Z, r1
            if ((txBuffer[0] == 0) && (EEreadLength)) txBuffer[0] = 0xDB; //Block character when data wrong.
    26e0:	80 91 f9 3a 	lds	r24, 0x3AF9	; 0x803af9 <txBuffer>
    26e4:	81 11       	cpse	r24, r1
    26e6:	03 c0       	rjmp	.+6      	; 0x26ee <CheckSend+0x86>
    26e8:	8b ed       	ldi	r24, 0xDB	; 219
    26ea:	80 93 f9 3a 	sts	0x3AF9, r24	; 0x803af9 <txBuffer>
            SerSend(&txBuffer[0]);
    26ee:	89 ef       	ldi	r24, 0xF9	; 249
    26f0:	9a e3       	ldi	r25, 0x3A	; 58
    26f2:	0e 94 84 08 	call	0x1108	; 0x1108 <SerSend>
        } else {
            txPart = 0;
            ++txAddrNow;
        }
    } else if (serTxDone) return 0; //All is sent!
    return 1; //Still sending, do not change the data in the tx variables
    26f6:	81 e0       	ldi	r24, 0x01	; 1
    26f8:	0b c0       	rjmp	.+22     	; 0x2710 <CheckSend+0xa8>
            txPart += EEreadLength;
            txBuffer[EEreadLength] = 0; //Add string terminator after piece to send to plug memory leak
            if ((txBuffer[0] == 0) && (EEreadLength)) txBuffer[0] = 0xDB; //Block character when data wrong.
            SerSend(&txBuffer[0]);
        } else {
            txPart = 0;
    26fa:	10 92 0e 39 	sts	0x390E, r1	; 0x80390e <txPart.3937>
            ++txAddrNow;
    26fe:	2f 5f       	subi	r18, 0xFF	; 255
    2700:	20 93 4f 3a 	sts	0x3A4F, r18	; 0x803a4f <txAddrNow>
    2704:	f8 cf       	rjmp	.-16     	; 0x26f6 <CheckSend+0x8e>
        }
    } else if (serTxDone) return 0; //All is sent!
    2706:	90 91 09 38 	lds	r25, 0x3809	; 0x803809 <serTxDone>
    270a:	81 e0       	ldi	r24, 0x01	; 1
    270c:	91 11       	cpse	r25, r1
    270e:	80 e0       	ldi	r24, 0x00	; 0
    return 1; //Still sending, do not change the data in the tx variables
}
    2710:	cf 91       	pop	r28
    2712:	08 95       	ret

00002714 <CheckResponse>:

//Send another part of the response and play the effect afterwards
uint8_t CheckResponse(){
    2714:	cf 93       	push	r28
    2716:	df 93       	push	r29
    static uint8_t number = 0;
    if (responseList){
    2718:	c0 91 22 39 	lds	r28, 0x3922	; 0x803922 <responseList>
    271c:	cc 23       	and	r28, r28
    271e:	b1 f1       	breq	.+108    	; 0x278c <CheckResponse+0x78>
        --responseList;
    2720:	c1 50       	subi	r28, 0x01	; 1
    2722:	c0 93 22 39 	sts	0x3922, r28	; 0x803922 <responseList>
        if (reactStr[0][number] == CURR_LOC) {
    2726:	d0 91 0d 39 	lds	r29, 0x390D	; 0x80390d <number.3941>
    272a:	2d 2f       	mov	r18, r29
    272c:	30 e0       	ldi	r19, 0x00	; 0
    272e:	f9 01       	movw	r30, r18
    2730:	ee 0f       	add	r30, r30
    2732:	ff 1f       	adc	r31, r31
    2734:	ed 5d       	subi	r30, 0xDD	; 221
    2736:	f6 4c       	sbci	r31, 0xC6	; 198
    2738:	80 81       	ld	r24, Z
    273a:	91 81       	ldd	r25, Z+1	; 0x01
    273c:	80 3f       	cpi	r24, 0xF0	; 240
    273e:	4f ef       	ldi	r20, 0xFF	; 255
    2740:	94 07       	cpc	r25, r20
    2742:	51 f4       	brne	.+20     	; 0x2758 <CheckResponse+0x44>
            PrepareSending(currObj.addrStr[NAME], currObj.lenStr[NAME], GAME);
    2744:	60 91 3d 3a 	lds	r22, 0x3A3D	; 0x803a3d <currObj+0x1a>
    2748:	70 91 3e 3a 	lds	r23, 0x3A3E	; 0x803a3e <currObj+0x1b>
    274c:	40 e0       	ldi	r20, 0x00	; 0
    274e:	80 91 2f 3a 	lds	r24, 0x3A2F	; 0x803a2f <currObj+0xc>
    2752:	90 91 30 3a 	lds	r25, 0x3A30	; 0x803a30 <currObj+0xd>
    2756:	0d c0       	rjmp	.+26     	; 0x2772 <CheckResponse+0x5e>
        } else {
            PrepareSending(reactStr[0][number], reactStr[1][number], reactStr[2][number]);
    2758:	d9 01       	movw	r26, r18
    275a:	aa 0f       	add	r26, r26
    275c:	bb 1f       	adc	r27, r27
    275e:	ad 55       	subi	r26, 0x5D	; 93
    2760:	b6 4c       	sbci	r27, 0xC6	; 198
    2762:	22 0f       	add	r18, r18
    2764:	33 1f       	adc	r19, r19
    2766:	f9 01       	movw	r30, r18
    2768:	ed 59       	subi	r30, 0x9D	; 157
    276a:	f6 4c       	sbci	r31, 0xC6	; 198
    276c:	60 81       	ld	r22, Z
    276e:	71 81       	ldd	r23, Z+1	; 0x01
    2770:	4c 91       	ld	r20, X
    2772:	72 dd       	rcall	.-1308   	; 0x2258 <PrepareSending>
        }
        ++number;
    2774:	df 5f       	subi	r29, 0xFF	; 255
    2776:	d0 93 0d 39 	sts	0x390D, r29	; 0x80390d <number.3941>

        if (responseList == 0) {
    277a:	c1 11       	cpse	r28, r1
    277c:	06 c0       	rjmp	.+12     	; 0x278a <CheckResponse+0x76>
            //effect = currObj.byteField[EFFECTS];
            RXCNT = 0;
    277e:	1d ba       	out	0x1d, r1	; 29
            serRxDone = 0;
    2780:	10 92 4a 38 	sts	0x384A, r1	; 0x80384a <serRxDone>
            number = 0;
    2784:	10 92 0d 39 	sts	0x390D, r1	; 0x80390d <number.3941>
    2788:	01 c0       	rjmp	.+2      	; 0x278c <CheckResponse+0x78>
            return 0;
        }
        return 1;
    278a:	c1 e0       	ldi	r28, 0x01	; 1
    }
    return 0;
}
    278c:	8c 2f       	mov	r24, r28
    278e:	df 91       	pop	r29
    2790:	cf 91       	pop	r28
    2792:	08 95       	ret

00002794 <CheckInput>:

//User input check (and validation)
uint8_t CheckInput(uint8_t *data){
    2794:	aa e0       	ldi	r26, 0x0A	; 10
    2796:	b0 e0       	ldi	r27, 0x00	; 0
    2798:	e0 ed       	ldi	r30, 0xD0	; 208
    279a:	f3 e1       	ldi	r31, 0x13	; 19
    279c:	0c 94 1b 1f 	jmp	0x3e36	; 0x3e36 <__prologue_saves__+0x6>
    27a0:	8c 01       	movw	r16, r24
    
    //Load game data after reboot
    if (currDepth == 0xff) {
    27a2:	80 91 35 38 	lds	r24, 0x3835	; 0x803835 <currDepth>
    27a6:	8f 3f       	cpi	r24, 0xFF	; 255
    27a8:	49 f4       	brne	.+18     	; 0x27bc <CheckInput+0x28>
        //Start at first location
        PopulateObject(route[0], &currObj);
    27aa:	63 e2       	ldi	r22, 0x23	; 35
    27ac:	7a e3       	ldi	r23, 0x3A	; 58
    27ae:	80 91 e3 39 	lds	r24, 0x39E3	; 0x8039e3 <route>
    27b2:	90 91 e4 39 	lds	r25, 0x39E4	; 0x8039e4 <route+0x1>
    27b6:	09 de       	rcall	.-1006   	; 0x23ca <PopulateObject>
        currDepth = 0;
    27b8:	10 92 35 38 	sts	0x3835, r1	; 0x803835 <currDepth>
    }

    if (serRxDone){
    27bc:	80 91 4a 38 	lds	r24, 0x384A	; 0x80384a <serRxDone>
    27c0:	88 23       	and	r24, r24
    27c2:	09 f4       	brne	.+2      	; 0x27c6 <CheckInput+0x32>
    27c4:	d4 c1       	rjmp	.+936    	; 0x2b6e <CheckInput+0x3da>

        //Special input requested from user by game
        if (specialInput[0]){
    27c6:	80 91 12 39 	lds	r24, 0x3912	; 0x803912 <specialInput>
    27ca:	88 23       	and	r24, r24
    27cc:	09 f4       	brne	.+2      	; 0x27d0 <CheckInput+0x3c>
    27ce:	4f c0       	rjmp	.+158    	; 0x286e <CheckInput+0xda>
            specialPassed = 0;
    27d0:	10 92 11 39 	sts	0x3911, r1	; 0x803911 <specialPassed>
            data[0] = 'a';
    27d4:	81 e6       	ldi	r24, 0x61	; 97
    27d6:	f8 01       	movw	r30, r16
    27d8:	80 83       	st	Z, r24
            
            //Normal code challenge
            if (StartsWith((uint8_t *)&serRx[0], &specialInput[0])) {
    27da:	62 e1       	ldi	r22, 0x12	; 18
    27dc:	79 e3       	ldi	r23, 0x39	; 57
    27de:	8d e7       	ldi	r24, 0x7D	; 125
    27e0:	9a e3       	ldi	r25, 0x3A	; 58
    27e2:	20 dd       	rcall	.-1472   	; 0x2224 <StartsWith>
    27e4:	f8 2e       	mov	r15, r24
    27e6:	88 23       	and	r24, r24
    27e8:	21 f0       	breq	.+8      	; 0x27f2 <CheckInput+0x5e>
                specialPassed = 1;
    27ea:	81 e0       	ldi	r24, 0x01	; 1
    27ec:	80 93 11 39 	sts	0x3911, r24	; 0x803911 <specialPassed>
    27f0:	04 c0       	rjmp	.+8      	; 0x27fa <CheckInput+0x66>

            //Special challenge 1
            } else if ((specialInput[0] == '1')&&(specialInput[2] == 0)) {
    27f2:	80 91 12 39 	lds	r24, 0x3912	; 0x803912 <specialInput>
    27f6:	81 33       	cpi	r24, 0x31	; 49
    27f8:	11 f0       	breq	.+4      	; 0x27fe <CheckInput+0x6a>
                responseList = SetStandardResponse((3*MAX_CHEATS));
                return 1;
            }
        } 
        //Data received, but not any of the commands above
        return 0;
    27fa:	f1 2c       	mov	r15, r1
    27fc:	ba c1       	rjmp	.+884    	; 0x2b72 <CheckInput+0x3de>
            //Normal code challenge
            if (StartsWith((uint8_t *)&serRx[0], &specialInput[0])) {
                specialPassed = 1;

            //Special challenge 1
            } else if ((specialInput[0] == '1')&&(specialInput[2] == 0)) {
    27fe:	80 91 14 39 	lds	r24, 0x3914	; 0x803914 <specialInput+0x2>
    2802:	81 11       	cpse	r24, r1
    2804:	fa cf       	rjmp	.-12     	; 0x27fa <CheckInput+0x66>
                uint8_t inputLen = CleanInput((uint8_t *)&serRx[0]);
    2806:	8d e7       	ldi	r24, 0x7D	; 125
    2808:	9a e3       	ldi	r25, 0x3A	; 58
    280a:	0b df       	rcall	.-490    	; 0x2622 <CleanInput>
                specialPassed = 2;
    280c:	92 e0       	ldi	r25, 0x02	; 2
    280e:	90 93 11 39 	sts	0x3911, r25	; 0x803911 <specialPassed>
                data[1] = 0;
    2812:	f8 01       	movw	r30, r16
    2814:	11 82       	std	Z+1, r1	; 0x01

                if (inputLen >= 2) {
    2816:	82 30       	cpi	r24, 0x02	; 2
    2818:	80 f3       	brcs	.-32     	; 0x27fa <CheckInput+0x66>
                    if ((serRx[0] >= '1') && (serRx[0] <= '4')) {
    281a:	80 91 7d 3a 	lds	r24, 0x3A7D	; 0x803a7d <serRx>
    281e:	81 33       	cpi	r24, 0x31	; 49
    2820:	60 f3       	brcs	.-40     	; 0x27fa <CheckInput+0x66>
    2822:	80 91 7d 3a 	lds	r24, 0x3A7D	; 0x803a7d <serRx>
    2826:	85 33       	cpi	r24, 0x35	; 53
    2828:	40 f7       	brcc	.-48     	; 0x27fa <CheckInput+0x66>
                        serRx[1] |= 0x20;
    282a:	80 91 7e 3a 	lds	r24, 0x3A7E	; 0x803a7e <serRx+0x1>
    282e:	80 62       	ori	r24, 0x20	; 32
    2830:	80 93 7e 3a 	sts	0x3A7E, r24	; 0x803a7e <serRx+0x1>
                        if ((serRx[1] == 'a')||(serRx[1] == 'e')||(serRx[1] == 'f')||(serRx[1] == 'w')) {
    2834:	80 91 7e 3a 	lds	r24, 0x3A7E	; 0x803a7e <serRx+0x1>
    2838:	81 36       	cpi	r24, 0x61	; 97
    283a:	61 f0       	breq	.+24     	; 0x2854 <CheckInput+0xc0>
    283c:	80 91 7e 3a 	lds	r24, 0x3A7E	; 0x803a7e <serRx+0x1>
    2840:	85 36       	cpi	r24, 0x65	; 101
    2842:	41 f0       	breq	.+16     	; 0x2854 <CheckInput+0xc0>
    2844:	80 91 7e 3a 	lds	r24, 0x3A7E	; 0x803a7e <serRx+0x1>
    2848:	86 36       	cpi	r24, 0x66	; 102
    284a:	21 f0       	breq	.+8      	; 0x2854 <CheckInput+0xc0>
    284c:	80 91 7e 3a 	lds	r24, 0x3A7E	; 0x803a7e <serRx+0x1>
    2850:	87 37       	cpi	r24, 0x77	; 119
    2852:	99 f6       	brne	.-90     	; 0x27fa <CheckInput+0x66>
                            data[1] = specialInput[1]+0x11;
    2854:	80 91 13 39 	lds	r24, 0x3913	; 0x803913 <specialInput+0x1>
    2858:	8f 5e       	subi	r24, 0xEF	; 239
    285a:	f8 01       	movw	r30, r16
    285c:	81 83       	std	Z+1, r24	; 0x01
                            data[2] = serRx[0];
    285e:	80 91 7d 3a 	lds	r24, 0x3A7D	; 0x803a7d <serRx>
    2862:	82 83       	std	Z+2, r24	; 0x02
                            data[3] = serRx[1];
    2864:	80 91 7e 3a 	lds	r24, 0x3A7E	; 0x803a7e <serRx+0x1>
    2868:	83 83       	std	Z+3, r24	; 0x03
                            data[4] = 0;
    286a:	14 82       	std	Z+4, r1	; 0x04
    286c:	82 c1       	rjmp	.+772    	; 0x2b72 <CheckInput+0x3de>
        } else {
      
            //SetResponse(0, A_LF, 4, TEASER);

            //Change status bit
            if ((serRx[0] == '#')&&(RXCNT == 6)){
    286e:	80 91 7d 3a 	lds	r24, 0x3A7D	; 0x803a7d <serRx>
    2872:	83 32       	cpi	r24, 0x23	; 35
    2874:	89 f5       	brne	.+98     	; 0x28d8 <CheckInput+0x144>
    2876:	8d b3       	in	r24, 0x1d	; 29
    2878:	86 30       	cpi	r24, 0x06	; 6
    287a:	71 f5       	brne	.+92     	; 0x28d8 <CheckInput+0x144>
    287c:	81 e0       	ldi	r24, 0x01	; 1
    287e:	90 e0       	ldi	r25, 0x00	; 0
    2880:	10 e0       	ldi	r17, 0x00	; 0
                uint8_t bitNr = 0;

                for (uint8_t x=1; x<4; ++x) {
                    serRx[x] -= '0';
    2882:	fc 01       	movw	r30, r24
    2884:	e3 58       	subi	r30, 0x83	; 131
    2886:	f5 4c       	sbci	r31, 0xC5	; 197
    2888:	20 81       	ld	r18, Z
    288a:	20 53       	subi	r18, 0x30	; 48
    288c:	20 83       	st	Z, r18
                    bitNr *= 10;
    288e:	11 0f       	add	r17, r17
    2890:	21 2f       	mov	r18, r17
    2892:	22 0f       	add	r18, r18
    2894:	22 0f       	add	r18, r18
    2896:	12 0f       	add	r17, r18
                    if (serRx[1] > 2) break;
    2898:	20 91 7e 3a 	lds	r18, 0x3A7E	; 0x803a7e <serRx+0x1>
    289c:	23 30       	cpi	r18, 0x03	; 3
    289e:	48 f4       	brcc	.+18     	; 0x28b2 <CheckInput+0x11e>
                    if (serRx[x] < 10) {
    28a0:	20 81       	ld	r18, Z
    28a2:	2a 30       	cpi	r18, 0x0A	; 10
    28a4:	b8 f4       	brcc	.+46     	; 0x28d4 <CheckInput+0x140>
                        bitNr += serRx[x];
    28a6:	20 81       	ld	r18, Z
    28a8:	12 0f       	add	r17, r18
    28aa:	01 96       	adiw	r24, 0x01	; 1

            //Change status bit
            if ((serRx[0] == '#')&&(RXCNT == 6)){
                uint8_t bitNr = 0;

                for (uint8_t x=1; x<4; ++x) {
    28ac:	84 30       	cpi	r24, 0x04	; 4
    28ae:	91 05       	cpc	r25, r1
    28b0:	41 f7       	brne	.-48     	; 0x2882 <CheckInput+0xee>
                        continue;
                    }
                    bitNr = 0;
                    break;
                }
                if ((bitNr)&&(bitNr!=128)) {
    28b2:	81 2f       	mov	r24, r17
    28b4:	8f 77       	andi	r24, 0x7F	; 127
    28b6:	71 f0       	breq	.+28     	; 0x28d4 <CheckInput+0x140>
                    if (Cheat(0xff-bitNr, serRx[4]<<8|serRx[5])) UpdateState(bitNr);
    28b8:	80 91 81 3a 	lds	r24, 0x3A81	; 0x803a81 <serRx+0x4>
    28bc:	60 91 82 3a 	lds	r22, 0x3A82	; 0x803a82 <serRx+0x5>
    28c0:	70 e0       	ldi	r23, 0x00	; 0
    28c2:	78 2b       	or	r23, r24
    28c4:	81 2f       	mov	r24, r17
    28c6:	80 95       	com	r24
    28c8:	5d dc       	rcall	.-1862   	; 0x2184 <Cheat>
    28ca:	88 23       	and	r24, r24
    28cc:	19 f0       	breq	.+6      	; 0x28d4 <CheckInput+0x140>
    28ce:	81 2f       	mov	r24, r17
    28d0:	0e 94 f8 09 	call	0x13f0	; 0x13f0 <UpdateState>
                }
                
                responseList = SetStandardResponse(1);
    28d4:	81 e0       	ldi	r24, 0x01	; 1
    28d6:	48 c1       	rjmp	.+656    	; 0x2b68 <CheckInput+0x3d4>
    28d8:	d8 01       	movw	r26, r16
    28da:	80 e0       	ldi	r24, 0x00	; 0
    28dc:	90 e0       	ldi	r25, 0x00	; 0
                return 1;            
            }
            
            //Read up to the \0 character and convert to lower case.
            for (uint8_t x=0; x<RXLEN; ++x){
                if ((serRx[x]<'A')||(serRx[x]>'Z')) data[x]=serRx[x]; else data[x]=serRx[x]|0x20;
    28de:	fc 01       	movw	r30, r24
    28e0:	e3 58       	subi	r30, 0x83	; 131
    28e2:	f5 4c       	sbci	r31, 0xC5	; 197
    28e4:	20 81       	ld	r18, Z
    28e6:	21 34       	cpi	r18, 0x41	; 65
    28e8:	18 f0       	brcs	.+6      	; 0x28f0 <CheckInput+0x15c>
    28ea:	20 81       	ld	r18, Z
    28ec:	2b 35       	cpi	r18, 0x5B	; 91
    28ee:	10 f0       	brcs	.+4      	; 0x28f4 <CheckInput+0x160>
    28f0:	20 81       	ld	r18, Z
    28f2:	02 c0       	rjmp	.+4      	; 0x28f8 <CheckInput+0x164>
    28f4:	20 81       	ld	r18, Z
    28f6:	20 62       	ori	r18, 0x20	; 32
    28f8:	2c 93       	st	X, r18
                if (serRx[x] == 0) {
    28fa:	20 81       	ld	r18, Z
    28fc:	21 11       	cpse	r18, r1
    28fe:	05 c0       	rjmp	.+10     	; 0x290a <CheckInput+0x176>
                    data[x] = 0;
    2900:	f8 01       	movw	r30, r16
    2902:	e8 0f       	add	r30, r24
    2904:	f1 1d       	adc	r31, r1
    2906:	10 82       	st	Z, r1
                    break;
    2908:	05 c0       	rjmp	.+10     	; 0x2914 <CheckInput+0x180>
    290a:	01 96       	adiw	r24, 0x01	; 1
    290c:	11 96       	adiw	r26, 0x01	; 1
                
                return 1;            
            }
            
            //Read up to the \0 character and convert to lower case.
            for (uint8_t x=0; x<RXLEN; ++x){
    290e:	81 34       	cpi	r24, 0x41	; 65
    2910:	91 05       	cpc	r25, r1
    2912:	29 f7       	brne	.-54     	; 0x28de <CheckInput+0x14a>
                    break;
                }
            }

            //No text
            if (serRx[0] == 0){
    2914:	80 91 7d 3a 	lds	r24, 0x3A7D	; 0x803a7d <serRx>
                data[0] = 0;
    2918:	f8 01       	movw	r30, r16
                    break;
                }
            }

            //No text
            if (serRx[0] == 0){
    291a:	81 11       	cpse	r24, r1
    291c:	05 c0       	rjmp	.+10     	; 0x2928 <CheckInput+0x194>
                data[0] = 0;
    291e:	10 82       	st	Z, r1
                RXCNT = 0;
    2920:	1d ba       	out	0x1d, r1	; 29
                serRxDone = 0;
    2922:	10 92 4a 38 	sts	0x384A, r1	; 0x80384a <serRxDone>
    2926:	23 c1       	rjmp	.+582    	; 0x2b6e <CheckInput+0x3da>
                return 1;
            }

            //Help text
            if ((data[0] == '?')||(data[0] == 'h')){
    2928:	80 81       	ld	r24, Z
    292a:	8f 33       	cpi	r24, 0x3F	; 63
    292c:	11 f0       	breq	.+4      	; 0x2932 <CheckInput+0x19e>
    292e:	88 36       	cpi	r24, 0x68	; 104
    2930:	49 f4       	brne	.+18     	; 0x2944 <CheckInput+0x1b0>
    return 0;
}

//
void SetResponse(uint8_t number, uint16_t address, uint16_t length, uint8_t type){
    reactStr[0][number]=address;
    2932:	83 e9       	ldi	r24, 0x93	; 147
    2934:	9b e7       	ldi	r25, 0x7B	; 123
    2936:	80 93 25 39 	sts	0x3925, r24	; 0x803925 <reactStr+0x2>
    293a:	90 93 26 39 	sts	0x3926, r25	; 0x803926 <reactStr+0x3>
    reactStr[1][number]=length;
    293e:	8d e6       	ldi	r24, 0x6D	; 109
    2940:	94 e0       	ldi	r25, 0x04	; 4
    2942:	0a c0       	rjmp	.+20     	; 0x2958 <CheckInput+0x1c4>
                responseList = SetStandardResponse(2);
                return 1;
            }        
        
            //Alphabet text
            if (data[0] == 'a'){
    2944:	81 36       	cpi	r24, 0x61	; 97
    2946:	a1 f4       	brne	.+40     	; 0x2970 <CheckInput+0x1dc>
    return 0;
}

//
void SetResponse(uint8_t number, uint16_t address, uint16_t length, uint8_t type){
    reactStr[0][number]=address;
    2948:	8e e6       	ldi	r24, 0x6E	; 110
    294a:	9a e7       	ldi	r25, 0x7A	; 122
    294c:	80 93 25 39 	sts	0x3925, r24	; 0x803925 <reactStr+0x2>
    2950:	90 93 26 39 	sts	0x3926, r25	; 0x803926 <reactStr+0x3>
    reactStr[1][number]=length;
    2954:	85 e2       	ldi	r24, 0x25	; 37
    2956:	91 e0       	ldi	r25, 0x01	; 1
    2958:	80 93 65 39 	sts	0x3965, r24	; 0x803965 <reactStr+0x42>
    295c:	90 93 66 39 	sts	0x3966, r25	; 0x803966 <reactStr+0x43>
    reactStr[2][number]=type;
    2960:	81 e0       	ldi	r24, 0x01	; 1
    2962:	90 e0       	ldi	r25, 0x00	; 0
    2964:	80 93 a5 39 	sts	0x39A5, r24	; 0x8039a5 <reactStr+0x82>
    2968:	90 93 a6 39 	sts	0x39A6, r25	; 0x8039a6 <reactStr+0x83>
            }        
        
            //Alphabet text
            if (data[0] == 'a'){
                SetResponse(1, A_ALPHABET, L_ALPHABET, TEASER);
                responseList = SetStandardResponse(2);
    296c:	82 e0       	ldi	r24, 0x02	; 2
    296e:	fc c0       	rjmp	.+504    	; 0x2b68 <CheckInput+0x3d4>
                return 1;
            }

            //Whoami text
            if (data[0] == 'w'){
    2970:	87 37       	cpi	r24, 0x77	; 119
    2972:	09 f0       	breq	.+2      	; 0x2976 <CheckInput+0x1e2>
    2974:	41 c0       	rjmp	.+130    	; 0x29f8 <CheckInput+0x264>
    return 0;
}

//
void SetResponse(uint8_t number, uint16_t address, uint16_t length, uint8_t type){
    reactStr[0][number]=address;
    2976:	8d e8       	ldi	r24, 0x8D	; 141
    2978:	96 e7       	ldi	r25, 0x76	; 118
    297a:	80 93 25 39 	sts	0x3925, r24	; 0x803925 <reactStr+0x2>
    297e:	90 93 26 39 	sts	0x3926, r25	; 0x803926 <reactStr+0x3>
    reactStr[1][number]=length;
    2982:	82 e1       	ldi	r24, 0x12	; 18
    2984:	90 e0       	ldi	r25, 0x00	; 0
    2986:	80 93 65 39 	sts	0x3965, r24	; 0x803965 <reactStr+0x42>
    298a:	90 93 66 39 	sts	0x3966, r25	; 0x803966 <reactStr+0x43>
    reactStr[2][number]=type;
    298e:	21 e0       	ldi	r18, 0x01	; 1
    2990:	30 e0       	ldi	r19, 0x00	; 0
    2992:	20 93 a5 39 	sts	0x39A5, r18	; 0x8039a5 <reactStr+0x82>
    2996:	30 93 a6 39 	sts	0x39A6, r19	; 0x8039a6 <reactStr+0x83>
            }

            //Whoami text
            if (data[0] == 'w'){
                SetResponse(1, A_HELLO, L_HELLO, TEASER);
                SetResponse(2, names[0][whoami-1], names[1][whoami-1], TEASER);
    299a:	80 91 43 38 	lds	r24, 0x3843	; 0x803843 <whoami>
    299e:	90 e0       	ldi	r25, 0x00	; 0
    29a0:	fc 01       	movw	r30, r24
    29a2:	ee 0f       	add	r30, r30
    29a4:	ff 1f       	adc	r31, r31
    29a6:	e4 5c       	subi	r30, 0xC4	; 196
    29a8:	f0 44       	sbci	r31, 0x40	; 64
    29aa:	40 81       	ld	r20, Z
    29ac:	51 81       	ldd	r21, Z+1	; 0x01
    29ae:	88 0f       	add	r24, r24
    29b0:	99 1f       	adc	r25, r25
    29b2:	fc 01       	movw	r30, r24
    29b4:	ec 5c       	subi	r30, 0xCC	; 204
    29b6:	f0 44       	sbci	r31, 0x40	; 64
    return 0;
}

//
void SetResponse(uint8_t number, uint16_t address, uint16_t length, uint8_t type){
    reactStr[0][number]=address;
    29b8:	80 81       	ld	r24, Z
    29ba:	91 81       	ldd	r25, Z+1	; 0x01
    29bc:	80 93 27 39 	sts	0x3927, r24	; 0x803927 <reactStr+0x4>
    29c0:	90 93 28 39 	sts	0x3928, r25	; 0x803928 <reactStr+0x5>
    reactStr[1][number]=length;
    29c4:	40 93 67 39 	sts	0x3967, r20	; 0x803967 <reactStr+0x44>
    29c8:	50 93 68 39 	sts	0x3968, r21	; 0x803968 <reactStr+0x45>
    reactStr[2][number]=type;
    29cc:	20 93 a7 39 	sts	0x39A7, r18	; 0x8039a7 <reactStr+0x84>
    29d0:	30 93 a8 39 	sts	0x39A8, r19	; 0x8039a8 <reactStr+0x85>
    return 0;
}

//
void SetResponse(uint8_t number, uint16_t address, uint16_t length, uint8_t type){
    reactStr[0][number]=address;
    29d4:	8f e5       	ldi	r24, 0x5F	; 95
    29d6:	96 e7       	ldi	r25, 0x76	; 118
    29d8:	80 93 29 39 	sts	0x3929, r24	; 0x803929 <reactStr+0x6>
    29dc:	90 93 2a 39 	sts	0x392A, r25	; 0x80392a <reactStr+0x7>
    reactStr[1][number]=length;
    29e0:	8a e1       	ldi	r24, 0x1A	; 26
    29e2:	90 e0       	ldi	r25, 0x00	; 0
    29e4:	80 93 69 39 	sts	0x3969, r24	; 0x803969 <reactStr+0x46>
    29e8:	90 93 6a 39 	sts	0x396A, r25	; 0x80396a <reactStr+0x47>
    reactStr[2][number]=type;
    29ec:	20 93 a9 39 	sts	0x39A9, r18	; 0x8039a9 <reactStr+0x86>
    29f0:	30 93 aa 39 	sts	0x39AA, r19	; 0x8039aa <reactStr+0x87>
                } else {
                    SetResponse(2, A_ERROR, L_ERROR, TEASER);
                }*/

                SetResponse(3, A_PLEASED, L_PLEASED, TEASER);
                responseList = SetStandardResponse(4);
    29f4:	84 e0       	ldi	r24, 0x04	; 4
                responseList = SetStandardResponse(2);
                return 1;
            }*/

            //Fake cheat = reset badge!
            if (StartsWith(&data[0], "iddqd")){
    29f6:	b8 c0       	rjmp	.+368    	; 0x2b68 <CheckInput+0x3d4>
    29f8:	62 e1       	ldi	r22, 0x12	; 18
    29fa:	7f eb       	ldi	r23, 0xBF	; 191
    29fc:	c8 01       	movw	r24, r16
    29fe:	12 dc       	rcall	.-2012   	; 0x2224 <StartsWith>
    2a00:	88 23       	and	r24, r24
    2a02:	19 f1       	breq	.+70     	; 0x2a4a <CheckInput+0x2b6>
            
                //Reset game data by wiping the UUID bits
                for (uint8_t x=0; x<4; ++x){
                    UpdateState(128+110+x);
    2a04:	8e ee       	ldi	r24, 0xEE	; 238
    2a06:	0e 94 f8 09 	call	0x13f0	; 0x13f0 <UpdateState>
    2a0a:	8f ee       	ldi	r24, 0xEF	; 239
    2a0c:	0e 94 f8 09 	call	0x13f0	; 0x13f0 <UpdateState>
    2a10:	80 ef       	ldi	r24, 0xF0	; 240
    2a12:	0e 94 f8 09 	call	0x13f0	; 0x13f0 <UpdateState>
    2a16:	81 ef       	ldi	r24, 0xF1	; 241
    2a18:	0e 94 f8 09 	call	0x13f0	; 0x13f0 <UpdateState>
                }
                SaveGameState();
    2a1c:	0e 94 71 09 	call	0x12e2	; 0x12e2 <SaveGameState>

                uint8_t cheat[] = "Gotcha! ";
    2a20:	89 e0       	ldi	r24, 0x09	; 9
    2a22:	e5 e2       	ldi	r30, 0x25	; 37
    2a24:	ff eb       	ldi	r31, 0xBF	; 191
    2a26:	de 01       	movw	r26, r28
    2a28:	11 96       	adiw	r26, 0x01	; 1
    2a2a:	01 90       	ld	r0, Z+
    2a2c:	0d 92       	st	X+, r0
    2a2e:	8a 95       	dec	r24
    2a30:	e1 f7       	brne	.-8      	; 0x2a2a <CheckInput+0x296>
                SerSpeed(60);
    2a32:	8c e3       	ldi	r24, 0x3C	; 60
    2a34:	0e 94 95 08 	call	0x112a	; 0x112a <SerSpeed>
                while(1){
                    if (serTxDone) SerSend(&cheat[0]);
    2a38:	80 91 09 38 	lds	r24, 0x3809	; 0x803809 <serTxDone>
    2a3c:	88 23       	and	r24, r24
    2a3e:	e1 f3       	breq	.-8      	; 0x2a38 <CheckInput+0x2a4>
    2a40:	ce 01       	movw	r24, r28
    2a42:	01 96       	adiw	r24, 0x01	; 1
    2a44:	0e 94 84 08 	call	0x1108	; 0x1108 <SerSend>
                }
            }
            
            //Cheat reset
            if (StartsWith(&data[0], "ikillu")){
    2a48:	f7 cf       	rjmp	.-18     	; 0x2a38 <CheckInput+0x2a4>
    2a4a:	68 e1       	ldi	r22, 0x18	; 24
    2a4c:	7f eb       	ldi	r23, 0xBF	; 191
    2a4e:	c8 01       	movw	r24, r16
    2a50:	e9 db       	rcall	.-2094   	; 0x2224 <StartsWith>
    2a52:	88 23       	and	r24, r24
    2a54:	81 f1       	breq	.+96     	; 0x2ab6 <CheckInput+0x322>
                
                //Reset cheat data by resetting the EEPROM bytes
                uint8_t empty=0xff;
    2a56:	8f ef       	ldi	r24, 0xFF	; 255
    2a58:	8a 87       	std	Y+10, r24	; 0x0a
    2a5a:	18 e1       	ldi	r17, 0x18	; 24
                for (uint8_t x=0; x<MAX_CHEATS; ++x){
                    EEWrite(CHEATS+x, &empty, 1);
    2a5c:	41 e0       	ldi	r20, 0x01	; 1
    2a5e:	be 01       	movw	r22, r28
    2a60:	66 5f       	subi	r22, 0xF6	; 246
    2a62:	7f 4f       	sbci	r23, 0xFF	; 255
    2a64:	81 2f       	mov	r24, r17
    2a66:	0e 94 20 08 	call	0x1040	; 0x1040 <EEWrite>
    2a6a:	1f 5f       	subi	r17, 0xFF	; 255
            //Cheat reset
            if (StartsWith(&data[0], "ikillu")){
                
                //Reset cheat data by resetting the EEPROM bytes
                uint8_t empty=0xff;
                for (uint8_t x=0; x<MAX_CHEATS; ++x){
    2a6c:	10 32       	cpi	r17, 0x20	; 32
    2a6e:	b1 f7       	brne	.-20     	; 0x2a5c <CheckInput+0x2c8>
                    EEWrite(CHEATS+x, &empty, 1);
                }
                //Reset game data by wiping the UUID bits
                for (uint8_t x=0; x<4; ++x){
                    UpdateState(128+110+x);
    2a70:	8e ee       	ldi	r24, 0xEE	; 238
    2a72:	0e 94 f8 09 	call	0x13f0	; 0x13f0 <UpdateState>
    2a76:	8f ee       	ldi	r24, 0xEF	; 239
    2a78:	0e 94 f8 09 	call	0x13f0	; 0x13f0 <UpdateState>
    2a7c:	80 ef       	ldi	r24, 0xF0	; 240
    2a7e:	0e 94 f8 09 	call	0x13f0	; 0x13f0 <UpdateState>
    2a82:	81 ef       	ldi	r24, 0xF1	; 241
    2a84:	0e 94 f8 09 	call	0x13f0	; 0x13f0 <UpdateState>
                }
                
                SaveGameState();
    2a88:	0e 94 71 09 	call	0x12e2	; 0x12e2 <SaveGameState>

                uint8_t cheat[] = "Reset! ";
    2a8c:	88 e0       	ldi	r24, 0x08	; 8
    2a8e:	ee e2       	ldi	r30, 0x2E	; 46
    2a90:	ff eb       	ldi	r31, 0xBF	; 191
    2a92:	de 01       	movw	r26, r28
    2a94:	11 96       	adiw	r26, 0x01	; 1
    2a96:	01 90       	ld	r0, Z+
    2a98:	0d 92       	st	X+, r0
    2a9a:	8a 95       	dec	r24
    2a9c:	e1 f7       	brne	.-8      	; 0x2a96 <CheckInput+0x302>
                SerSpeed(60);
    2a9e:	8c e3       	ldi	r24, 0x3C	; 60
    2aa0:	0e 94 95 08 	call	0x112a	; 0x112a <SerSpeed>
                while(1){
                    if (serTxDone) SerSend(&cheat[0]);
    2aa4:	80 91 09 38 	lds	r24, 0x3809	; 0x803809 <serTxDone>
    2aa8:	88 23       	and	r24, r24
    2aaa:	e1 f3       	breq	.-8      	; 0x2aa4 <CheckInput+0x310>
    2aac:	ce 01       	movw	r24, r28
    2aae:	01 96       	adiw	r24, 0x01	; 1
    2ab0:	0e 94 84 08 	call	0x1108	; 0x1108 <SerSend>
                }
            }

            //Show used cheat codes
            if (StartsWith(&data[0], "cheat")){
    2ab4:	f7 cf       	rjmp	.-18     	; 0x2aa4 <CheckInput+0x310>
    2ab6:	6f e1       	ldi	r22, 0x1F	; 31
    2ab8:	7f eb       	ldi	r23, 0xBF	; 191
    2aba:	c8 01       	movw	r24, r16
    2abc:	b3 db       	rcall	.-2202   	; 0x2224 <StartsWith>
    2abe:	88 23       	and	r24, r24
    2ac0:	09 f4       	brne	.+2      	; 0x2ac4 <CheckInput+0x330>
    2ac2:	9b ce       	rjmp	.-714    	; 0x27fa <CheckInput+0x66>
    2ac4:	83 e2       	ldi	r24, 0x23	; 35
    2ac6:	c8 2e       	mov	r12, r24
    2ac8:	89 e3       	ldi	r24, 0x39	; 57
    2aca:	d8 2e       	mov	r13, r24
    2acc:	93 e6       	ldi	r25, 0x63	; 99
    2ace:	e9 2e       	mov	r14, r25
    2ad0:	99 e3       	ldi	r25, 0x39	; 57
    2ad2:	f9 2e       	mov	r15, r25
    2ad4:	03 ea       	ldi	r16, 0xA3	; 163
    2ad6:	19 e3       	ldi	r17, 0x39	; 57
    2ad8:	28 e1       	ldi	r18, 0x18	; 24
    2ada:	52 2e       	mov	r5, r18
}

//
void SetResponse(uint8_t number, uint16_t address, uint16_t length, uint8_t type){
    reactStr[0][number]=address;
    reactStr[1][number]=length;
    2adc:	aa 24       	eor	r10, r10
    2ade:	a3 94       	inc	r10
    2ae0:	b1 2c       	mov	r11, r1
    return 0;
}

//
void SetResponse(uint8_t number, uint16_t address, uint16_t length, uint8_t type){
    reactStr[0][number]=address;
    2ae2:	47 e5       	ldi	r20, 0x57	; 87
    2ae4:	84 2e       	mov	r8, r20
    2ae6:	4a e7       	ldi	r20, 0x7A	; 122
    2ae8:	94 2e       	mov	r9, r20
    reactStr[1][number]=length;
    2aea:	52 e0       	ldi	r21, 0x02	; 2
    2aec:	65 2e       	mov	r6, r21
    2aee:	71 2c       	mov	r7, r1
            if (StartsWith(&data[0], "cheat")){
                uint8_t bit;
                for (uint8_t x=0; x<MAX_CHEATS; ++x){
                    
                    //Set up sending out number
                    EERead(CHEATS+x, &bit, 1);
    2af0:	41 e0       	ldi	r20, 0x01	; 1
    2af2:	be 01       	movw	r22, r28
    2af4:	6f 5f       	subi	r22, 0xFF	; 255
    2af6:	7f 4f       	sbci	r23, 0xFF	; 255
    2af8:	85 2d       	mov	r24, r5
    2afa:	0e 94 10 08 	call	0x1020	; 0x1020 <EERead>
                    bit = 0xff-bit;
    2afe:	89 81       	ldd	r24, Y+1	; 0x01
    2b00:	80 95       	com	r24
    2b02:	89 83       	std	Y+1, r24	; 0x01
    return 0;
}

//
void SetResponse(uint8_t number, uint16_t address, uint16_t length, uint8_t type){
    reactStr[0][number]=address;
    2b04:	28 2f       	mov	r18, r24
    2b06:	22 95       	swap	r18
    2b08:	2f 70       	andi	r18, 0x0F	; 15
    2b0a:	30 e0       	ldi	r19, 0x00	; 0
    2b0c:	23 57       	subi	r18, 0x73	; 115
    2b0e:	3b 48       	sbci	r19, 0x8B	; 139
    2b10:	f6 01       	movw	r30, r12
    2b12:	20 83       	st	Z, r18
    2b14:	31 83       	std	Z+1, r19	; 0x01
    reactStr[1][number]=length;
    2b16:	f7 01       	movw	r30, r14
    2b18:	a0 82       	st	Z, r10
    2b1a:	b1 82       	std	Z+1, r11	; 0x01
    reactStr[2][number]=type;
    2b1c:	f8 01       	movw	r30, r16
    2b1e:	a0 82       	st	Z, r10
    2b20:	b1 82       	std	Z+1, r11	; 0x01
    return 0;
}

//
void SetResponse(uint8_t number, uint16_t address, uint16_t length, uint8_t type){
    reactStr[0][number]=address;
    2b22:	8f 70       	andi	r24, 0x0F	; 15
    2b24:	90 e0       	ldi	r25, 0x00	; 0
    2b26:	83 57       	subi	r24, 0x73	; 115
    2b28:	9b 48       	sbci	r25, 0x8B	; 139
    2b2a:	f6 01       	movw	r30, r12
    2b2c:	82 83       	std	Z+2, r24	; 0x02
    2b2e:	93 83       	std	Z+3, r25	; 0x03
    reactStr[1][number]=length;
    2b30:	f7 01       	movw	r30, r14
    2b32:	a2 82       	std	Z+2, r10	; 0x02
    2b34:	b3 82       	std	Z+3, r11	; 0x03
    reactStr[2][number]=type;
    2b36:	f8 01       	movw	r30, r16
    2b38:	a2 82       	std	Z+2, r10	; 0x02
    2b3a:	b3 82       	std	Z+3, r11	; 0x03
    return 0;
}

//
void SetResponse(uint8_t number, uint16_t address, uint16_t length, uint8_t type){
    reactStr[0][number]=address;
    2b3c:	f6 01       	movw	r30, r12
    2b3e:	84 82       	std	Z+4, r8	; 0x04
    2b40:	95 82       	std	Z+5, r9	; 0x05
    reactStr[1][number]=length;
    2b42:	f7 01       	movw	r30, r14
    2b44:	64 82       	std	Z+4, r6	; 0x04
    2b46:	75 82       	std	Z+5, r7	; 0x05
    reactStr[2][number]=type;
    2b48:	f8 01       	movw	r30, r16
    2b4a:	a4 82       	std	Z+4, r10	; 0x04
    2b4c:	b5 82       	std	Z+5, r11	; 0x05
    2b4e:	53 94       	inc	r5
    2b50:	f6 e0       	ldi	r31, 0x06	; 6
    2b52:	cf 0e       	add	r12, r31
    2b54:	d1 1c       	adc	r13, r1
    2b56:	86 e0       	ldi	r24, 0x06	; 6
    2b58:	e8 0e       	add	r14, r24
    2b5a:	f1 1c       	adc	r15, r1
    2b5c:	0a 5f       	subi	r16, 0xFA	; 250
            }

            //Show used cheat codes
            if (StartsWith(&data[0], "cheat")){
                uint8_t bit;
                for (uint8_t x=0; x<MAX_CHEATS; ++x){
    2b5e:	1f 4f       	sbci	r17, 0xFF	; 255
    2b60:	e0 e2       	ldi	r30, 0x20	; 32
    2b62:	5e 12       	cpse	r5, r30
                    //SetResponse(x*4, A_HEXPREFIX, L_HEXPREFIX, TEASER);
                    SetResponse(x*3, A_DIGITS+(bit>>4), 1, TEASER);               
                    SetResponse(x*3+1, A_DIGITS+(bit%16), 1, TEASER);
                    SetResponse(x*3+2, A_COMMA, L_COMMA, TEASER);
                }
                responseList = SetStandardResponse((3*MAX_CHEATS));
    2b64:	c5 cf       	rjmp	.-118    	; 0x2af0 <CheckInput+0x35c>
    2b66:	88 e1       	ldi	r24, 0x18	; 24
    2b68:	b4 db       	rcall	.-2200   	; 0x22d2 <SetStandardResponse>
    2b6a:	80 93 22 39 	sts	0x3922, r24	; 0x803922 <responseList>
        //Data received, but not any of the commands above
        return 0;
    }

    //Serial input not available yet
    return 1;
    2b6e:	ff 24       	eor	r15, r15
    2b70:	f3 94       	inc	r15
}
    2b72:	8f 2d       	mov	r24, r15
    2b74:	2a 96       	adiw	r28, 0x0a	; 10
    2b76:	ef e0       	ldi	r30, 0x0F	; 15
    2b78:	0c 94 34 1f 	jmp	0x3e68	; 0x3e68 <__epilogue_restores__+0x6>

00002b7c <ShowInventory>:

uint8_t ShowInventory(uint8_t elements){
    2b7c:	ab e2       	ldi	r26, 0x2B	; 43
    2b7e:	b0 e0       	ldi	r27, 0x00	; 0
    2b80:	e4 ec       	ldi	r30, 0xC4	; 196
    2b82:	f5 e1       	ldi	r31, 0x15	; 21
    2b84:	0c 94 1f 1f 	jmp	0x3e3e	; 0x3e3e <__prologue_saves__+0xe>
    object_model_t actObj1;

    SetResponse(elements++, A_NOWCARRING, L_NOWCARRING, TEASER);
    2b88:	99 24       	eor	r9, r9
    2b8a:	93 94       	inc	r9
    2b8c:	98 0e       	add	r9, r24
    return 0;
}

//
void SetResponse(uint8_t number, uint16_t address, uint16_t length, uint8_t type){
    reactStr[0][number]=address;
    2b8e:	90 e0       	ldi	r25, 0x00	; 0
    2b90:	fc 01       	movw	r30, r24
    2b92:	ee 0f       	add	r30, r30
    2b94:	ff 1f       	adc	r31, r31
    2b96:	ed 5d       	subi	r30, 0xDD	; 221
    2b98:	f6 4c       	sbci	r31, 0xC6	; 198
    2b9a:	2c ec       	ldi	r18, 0xCC	; 204
    2b9c:	37 e7       	ldi	r19, 0x77	; 119
    2b9e:	20 83       	st	Z, r18
    2ba0:	31 83       	std	Z+1, r19	; 0x01
    reactStr[1][number]=length;
    2ba2:	fc 01       	movw	r30, r24
    2ba4:	ee 0f       	add	r30, r30
    2ba6:	ff 1f       	adc	r31, r31
    2ba8:	ed 59       	subi	r30, 0x9D	; 157
    2baa:	f6 4c       	sbci	r31, 0xC6	; 198
    2bac:	26 e1       	ldi	r18, 0x16	; 22
    2bae:	30 e0       	ldi	r19, 0x00	; 0
    2bb0:	20 83       	st	Z, r18
    2bb2:	31 83       	std	Z+1, r19	; 0x01
    reactStr[2][number]=type;
    2bb4:	88 0f       	add	r24, r24
    2bb6:	99 1f       	adc	r25, r25
    2bb8:	fc 01       	movw	r30, r24
    2bba:	ed 55       	subi	r30, 0x5D	; 93
    2bbc:	f6 4c       	sbci	r31, 0xC6	; 198
    2bbe:	81 e0       	ldi	r24, 0x01	; 1
    2bc0:	90 e0       	ldi	r25, 0x00	; 0
    2bc2:	80 83       	st	Z, r24
    2bc4:	91 83       	std	Z+1, r25	; 0x01
    2bc6:	04 e4       	ldi	r16, 0x44	; 68
    2bc8:	18 e3       	ldi	r17, 0x38	; 56
    return 0;
}

//
void SetResponse(uint8_t number, uint16_t address, uint16_t length, uint8_t type){
    reactStr[0][number]=address;
    2bca:	37 e5       	ldi	r19, 0x57	; 87
    2bcc:	e3 2e       	mov	r14, r19
    2bce:	3a e7       	ldi	r19, 0x7A	; 122
    2bd0:	f3 2e       	mov	r15, r19
    reactStr[1][number]=length;
    2bd2:	42 e0       	ldi	r20, 0x02	; 2
    2bd4:	c4 2e       	mov	r12, r20
    2bd6:	d1 2c       	mov	r13, r1
    reactStr[2][number]=type;
    2bd8:	aa 24       	eor	r10, r10
    2bda:	a3 94       	inc	r10
    2bdc:	b1 2c       	mov	r11, r1
    object_model_t actObj1;

    SetResponse(elements++, A_NOWCARRING, L_NOWCARRING, TEASER);

    for (uint8_t x=0; x<2; ++x) {
        if (inventory[x]) {
    2bde:	f8 01       	movw	r30, r16
    2be0:	81 91       	ld	r24, Z+
    2be2:	91 91       	ld	r25, Z+
    2be4:	8f 01       	movw	r16, r30
    2be6:	00 97       	sbiw	r24, 0x00	; 0
    2be8:	c9 f1       	breq	.+114    	; 0x2c5c <ShowInventory+0xe0>
            PopulateObject(inventory[x], &actObj1);
    2bea:	be 01       	movw	r22, r28
    2bec:	6f 5f       	subi	r22, 0xFF	; 255
    2bee:	7f 4f       	sbci	r23, 0xFF	; 255
    2bf0:	ec db       	rcall	.-2088   	; 0x23ca <PopulateObject>
            SetResponse(elements++, actObj1.addrStr[NAME], actObj1.lenStr[NAME], GAME);
    2bf2:	2b 8d       	ldd	r18, Y+27	; 0x1b
    2bf4:	3c 8d       	ldd	r19, Y+28	; 0x1c
    return 0;
}

//
void SetResponse(uint8_t number, uint16_t address, uint16_t length, uint8_t type){
    reactStr[0][number]=address;
    2bf6:	89 2d       	mov	r24, r9
    2bf8:	90 e0       	ldi	r25, 0x00	; 0
    2bfa:	fc 01       	movw	r30, r24
    2bfc:	ee 0f       	add	r30, r30
    2bfe:	ff 1f       	adc	r31, r31
    2c00:	ed 5d       	subi	r30, 0xDD	; 221
    2c02:	f6 4c       	sbci	r31, 0xC6	; 198
    2c04:	4d 85       	ldd	r20, Y+13	; 0x0d
    2c06:	5e 85       	ldd	r21, Y+14	; 0x0e
    2c08:	40 83       	st	Z, r20
    2c0a:	51 83       	std	Z+1, r21	; 0x01
    reactStr[1][number]=length;
    2c0c:	fc 01       	movw	r30, r24
    2c0e:	ee 0f       	add	r30, r30
    2c10:	ff 1f       	adc	r31, r31
    2c12:	ed 59       	subi	r30, 0x9D	; 157
    2c14:	f6 4c       	sbci	r31, 0xC6	; 198
    2c16:	20 83       	st	Z, r18
    2c18:	31 83       	std	Z+1, r19	; 0x01
    reactStr[2][number]=type;
    2c1a:	88 0f       	add	r24, r24
    2c1c:	99 1f       	adc	r25, r25
    2c1e:	fc 01       	movw	r30, r24
    2c20:	ed 55       	subi	r30, 0x5D	; 93
    2c22:	f6 4c       	sbci	r31, 0xC6	; 198
    2c24:	10 82       	st	Z, r1
    2c26:	11 82       	std	Z+1, r1	; 0x01
    return 0;
}

//
void SetResponse(uint8_t number, uint16_t address, uint16_t length, uint8_t type){
    reactStr[0][number]=address;
    2c28:	81 e0       	ldi	r24, 0x01	; 1
    2c2a:	89 0d       	add	r24, r9
    2c2c:	90 e0       	ldi	r25, 0x00	; 0
    2c2e:	93 94       	inc	r9
    2c30:	93 94       	inc	r9
    2c32:	fc 01       	movw	r30, r24
    2c34:	ee 0f       	add	r30, r30
    2c36:	ff 1f       	adc	r31, r31
    2c38:	ed 5d       	subi	r30, 0xDD	; 221
    2c3a:	f6 4c       	sbci	r31, 0xC6	; 198
    2c3c:	e0 82       	st	Z, r14
    2c3e:	f1 82       	std	Z+1, r15	; 0x01
    reactStr[1][number]=length;
    2c40:	fc 01       	movw	r30, r24
    2c42:	ee 0f       	add	r30, r30
    2c44:	ff 1f       	adc	r31, r31
    2c46:	ed 59       	subi	r30, 0x9D	; 157
    2c48:	f6 4c       	sbci	r31, 0xC6	; 198
    2c4a:	c0 82       	st	Z, r12
    2c4c:	d1 82       	std	Z+1, r13	; 0x01
    reactStr[2][number]=type;
    2c4e:	88 0f       	add	r24, r24
    2c50:	99 1f       	adc	r25, r25
    2c52:	fc 01       	movw	r30, r24
    2c54:	ed 55       	subi	r30, 0x5D	; 93
    2c56:	f6 4c       	sbci	r31, 0xC6	; 198
    2c58:	a0 82       	st	Z, r10
    2c5a:	b1 82       	std	Z+1, r11	; 0x01
uint8_t ShowInventory(uint8_t elements){
    object_model_t actObj1;

    SetResponse(elements++, A_NOWCARRING, L_NOWCARRING, TEASER);

    for (uint8_t x=0; x<2; ++x) {
    2c5c:	f8 e3       	ldi	r31, 0x38	; 56
    2c5e:	08 34       	cpi	r16, 0x48	; 72
    2c60:	1f 07       	cpc	r17, r31
    2c62:	09 f0       	breq	.+2      	; 0x2c66 <ShowInventory+0xea>
    2c64:	bc cf       	rjmp	.-136    	; 0x2bde <ShowInventory+0x62>
        }
    }
    elements -= 1;
            
    return elements;
}
    2c66:	8f ef       	ldi	r24, 0xFF	; 255
    2c68:	89 0d       	add	r24, r9
    2c6a:	ab 96       	adiw	r28, 0x2b	; 43
    2c6c:	eb e0       	ldi	r30, 0x0B	; 11
    2c6e:	0c 94 38 1f 	jmp	0x3e70	; 0x3e70 <__epilogue_restores__+0xe>

00002c72 <ProcessInput>:

//The game logic!
uint8_t ProcessInput(uint8_t *data){
    2c72:	a8 e0       	ldi	r26, 0x08	; 8
    2c74:	b0 e0       	ldi	r27, 0x00	; 0
    2c76:	ef e3       	ldi	r30, 0x3F	; 63
    2c78:	f6 e1       	ldi	r31, 0x16	; 22
    2c7a:	0c 94 1c 1f 	jmp	0x3e38	; 0x3e38 <__prologue_saves__+0x8>
    2c7e:	3c 01       	movw	r6, r24
    static object_model_t actObj1, actObj2;
    uint8_t elements = 1;

    CleanInput(&data[0]);
    2c80:	d0 dc       	rcall	.-1632   	; 0x2622 <CleanInput>
    uint8_t inputLen = CleanInput(&data[0]);
    2c82:	c3 01       	movw	r24, r6
    2c84:	ce dc       	rcall	.-1636   	; 0x2622 <CleanInput>
    2c86:	f8 2e       	mov	r15, r24
    return 0;
}

//
void SetResponse(uint8_t number, uint16_t address, uint16_t length, uint8_t type){
    reactStr[0][number]=address;
    2c88:	29 e5       	ldi	r18, 0x59	; 89
    2c8a:	3a e7       	ldi	r19, 0x7A	; 122
    2c8c:	20 93 23 39 	sts	0x3923, r18	; 0x803923 <reactStr>
    2c90:	30 93 24 39 	sts	0x3924, r19	; 0x803924 <reactStr+0x1>
    reactStr[1][number]=length;
    2c94:	84 e0       	ldi	r24, 0x04	; 4
    2c96:	90 e0       	ldi	r25, 0x00	; 0
    2c98:	80 93 63 39 	sts	0x3963, r24	; 0x803963 <reactStr+0x40>
    2c9c:	90 93 64 39 	sts	0x3964, r25	; 0x803964 <reactStr+0x41>
    reactStr[2][number]=type;
    2ca0:	01 e0       	ldi	r16, 0x01	; 1
    2ca2:	10 e0       	ldi	r17, 0x00	; 0
    2ca4:	00 93 a3 39 	sts	0x39A3, r16	; 0x8039a3 <reactStr+0x80>
    2ca8:	10 93 a4 39 	sts	0x39A4, r17	; 0x8039a4 <reactStr+0x81>

    CleanInput(&data[0]);
    uint8_t inputLen = CleanInput(&data[0]);
    SetResponse(0, A_LF, 4, TEASER);

    if (inputLen) {
    2cac:	ff 20       	and	r15, r15
    2cae:	09 f4       	brne	.+2      	; 0x2cb2 <ProcessInput+0x40>
    2cb0:	54 c7       	rjmp	.+3752   	; 0x3b5a <ProcessInput+0xee8>

        //eXit to previous location
        if (data[0] == 'x'){
    2cb2:	d3 01       	movw	r26, r6
    2cb4:	8c 91       	ld	r24, X
    2cb6:	88 37       	cpi	r24, 0x78	; 120
    2cb8:	09 f0       	breq	.+2      	; 0x2cbc <ProcessInput+0x4a>
    2cba:	45 c0       	rjmp	.+138    	; 0x2d46 <ProcessInput+0xd4>

            //Standing in the Lobby?
            if ((route[currDepth] == 0)||(currDepth == 0)){
    2cbc:	80 91 35 38 	lds	r24, 0x3835	; 0x803835 <currDepth>
    2cc0:	e8 2f       	mov	r30, r24
    2cc2:	f0 e0       	ldi	r31, 0x00	; 0
    2cc4:	ee 0f       	add	r30, r30
    2cc6:	ff 1f       	adc	r31, r31
    2cc8:	ed 51       	subi	r30, 0x1D	; 29
    2cca:	f6 4c       	sbci	r31, 0xC6	; 198
    2ccc:	20 81       	ld	r18, Z
    2cce:	31 81       	ldd	r19, Z+1	; 0x01
    2cd0:	23 2b       	or	r18, r19
    2cd2:	11 f0       	breq	.+4      	; 0x2cd8 <ProcessInput+0x66>
    2cd4:	81 11       	cpse	r24, r1
    2cd6:	03 c0       	rjmp	.+6      	; 0x2cde <ProcessInput+0x6c>
    return 0;
}

//
void SetResponse(uint8_t number, uint16_t address, uint16_t length, uint8_t type){
    reactStr[0][number]=address;
    2cd8:	84 e4       	ldi	r24, 0x44	; 68
    2cda:	96 e7       	ldi	r25, 0x76	; 118
    2cdc:	13 c5       	rjmp	.+2598   	; 0x3704 <ProcessInput+0xa92>
            //Standing in the Lobby?
            if ((route[currDepth] == 0)||(currDepth == 0)){
                SetResponse(elements++, A_NOTPOSSIBLE, L_NOTPOSSIBLE, TEASER);
            
            //Is there a way to go back?
            } else if (CheckState(currObj.byteField[OPEN_ACL])){
    2cde:	80 91 29 3a 	lds	r24, 0x3A29	; 0x803a29 <currObj+0x6>
    2ce2:	0e 94 19 0a 	call	0x1432	; 0x1432 <CheckState>
    2ce6:	88 23       	and	r24, r24
    2ce8:	b9 f0       	breq	.+46     	; 0x2d18 <ProcessInput+0xa6>
                --currDepth;
    2cea:	e0 91 35 38 	lds	r30, 0x3835	; 0x803835 <currDepth>
    2cee:	e1 50       	subi	r30, 0x01	; 1
    2cf0:	e0 93 35 38 	sts	0x3835, r30	; 0x803835 <currDepth>
                PopulateObject(route[currDepth], &currObj);
    2cf4:	f0 e0       	ldi	r31, 0x00	; 0
    2cf6:	ee 0f       	add	r30, r30
    2cf8:	ff 1f       	adc	r31, r31
    2cfa:	ed 51       	subi	r30, 0x1D	; 29
    2cfc:	f6 4c       	sbci	r31, 0xC6	; 198
    2cfe:	63 e2       	ldi	r22, 0x23	; 35
    2d00:	7a e3       	ldi	r23, 0x3A	; 58
    2d02:	80 81       	ld	r24, Z
    2d04:	91 81       	ldd	r25, Z+1	; 0x01
    2d06:	61 db       	rcall	.-2366   	; 0x23ca <PopulateObject>
                effect = currObj.byteField[EFFECTS];
    2d08:	80 91 27 3a 	lds	r24, 0x3A27	; 0x803a27 <currObj+0x4>
    2d0c:	90 e0       	ldi	r25, 0x00	; 0
    2d0e:	80 93 40 38 	sts	0x3840, r24	; 0x803840 <effect>
    2d12:	90 93 41 38 	sts	0x3841, r25	; 0x803841 <effect+0x1>
    2d16:	2a c2       	rjmp	.+1108   	; 0x316c <ProcessInput+0x4fa>
            
            //No way out, print denied message of location
            } else {
                SetResponse(elements++, currObj.addrStr[OPEN_ACL_MSG], currObj.lenStr[OPEN_ACL_MSG], GAME);
    2d18:	80 91 45 3a 	lds	r24, 0x3A45	; 0x803a45 <currObj+0x22>
    2d1c:	90 91 46 3a 	lds	r25, 0x3A46	; 0x803a46 <currObj+0x23>
    return 0;
}

//
void SetResponse(uint8_t number, uint16_t address, uint16_t length, uint8_t type){
    reactStr[0][number]=address;
    2d20:	20 91 37 3a 	lds	r18, 0x3A37	; 0x803a37 <currObj+0x14>
    2d24:	30 91 38 3a 	lds	r19, 0x3A38	; 0x803a38 <currObj+0x15>
    2d28:	20 93 25 39 	sts	0x3925, r18	; 0x803925 <reactStr+0x2>
    2d2c:	30 93 26 39 	sts	0x3926, r19	; 0x803926 <reactStr+0x3>
    reactStr[1][number]=length;
    2d30:	80 93 65 39 	sts	0x3965, r24	; 0x803965 <reactStr+0x42>
    2d34:	90 93 66 39 	sts	0x3966, r25	; 0x803966 <reactStr+0x43>
    reactStr[2][number]=type;
    2d38:	10 92 a5 39 	sts	0x39A5, r1	; 0x8039a5 <reactStr+0x82>
    2d3c:	10 92 a6 39 	sts	0x39A6, r1	; 0x8039a6 <reactStr+0x83>
                effect = currObj.byteField[EFFECTS];
            
            //No way out, print denied message of location
            } else {
                SetResponse(elements++, currObj.addrStr[OPEN_ACL_MSG], currObj.lenStr[OPEN_ACL_MSG], GAME);
                effect = currObj.effect[0];               
    2d40:	80 91 4b 3a 	lds	r24, 0x3A4B	; 0x803a4b <currObj+0x28>
    2d44:	a9 c5       	rjmp	.+2898   	; 0x3898 <ProcessInput+0xc26>
            }   
        
        //Enter locations or Open objects    
        } else if ((data[0] == 'e')||(data[0] == 'o')) {
    2d46:	85 36       	cpi	r24, 0x65	; 101
    2d48:	19 f0       	breq	.+6      	; 0x2d50 <ProcessInput+0xde>
    2d4a:	8f 36       	cpi	r24, 0x6F	; 111
    2d4c:	09 f0       	breq	.+2      	; 0x2d50 <ProcessInput+0xde>
    2d4e:	de c0       	rjmp	.+444    	; 0x2f0c <ProcessInput+0x29a>
                
            //Not possible, too many/little characters
            if (inputLen != 2){
    2d50:	b2 e0       	ldi	r27, 0x02	; 2
    2d52:	fb 12       	cpse	r15, r27
    2d54:	c1 cf       	rjmp	.-126    	; 0x2cd8 <ProcessInput+0x66>
                SetResponse(elements++, A_NOTPOSSIBLE, L_NOTPOSSIBLE, TEASER);
            } else {
                uint8_t canDo = 0;
                route[currDepth+1] = FindChild(route[currDepth], data[1], 0);
    2d56:	00 91 35 38 	lds	r16, 0x3835	; 0x803835 <currDepth>
    2d5a:	10 e0       	ldi	r17, 0x00	; 0
    2d5c:	f8 01       	movw	r30, r16
    2d5e:	ee 0f       	add	r30, r30
    2d60:	ff 1f       	adc	r31, r31
    2d62:	ed 51       	subi	r30, 0x1D	; 29
    2d64:	f6 4c       	sbci	r31, 0xC6	; 198
    2d66:	40 e0       	ldi	r20, 0x00	; 0
    2d68:	50 e0       	ldi	r21, 0x00	; 0
    2d6a:	d3 01       	movw	r26, r6
    2d6c:	11 96       	adiw	r26, 0x01	; 1
    2d6e:	6c 91       	ld	r22, X
    2d70:	80 81       	ld	r24, Z
    2d72:	91 81       	ldd	r25, Z+1	; 0x01
    2d74:	ea db       	rcall	.-2092   	; 0x254a <FindChild>
    2d76:	00 0f       	add	r16, r16
    2d78:	11 1f       	adc	r17, r17
    2d7a:	f8 01       	movw	r30, r16
    2d7c:	eb 51       	subi	r30, 0x1B	; 27
    2d7e:	f6 4c       	sbci	r31, 0xC6	; 198
    2d80:	80 83       	st	Z, r24
    2d82:	91 83       	std	Z+1, r25	; 0x01
                    
                //Child found?
                if (route[currDepth+1]) {
    2d84:	90 91 35 38 	lds	r25, 0x3835	; 0x803835 <currDepth>
    2d88:	29 2f       	mov	r18, r25
    2d8a:	30 e0       	ldi	r19, 0x00	; 0
    2d8c:	f9 01       	movw	r30, r18
    2d8e:	ee 0f       	add	r30, r30
    2d90:	ff 1f       	adc	r31, r31
    2d92:	eb 51       	subi	r30, 0x1B	; 27
    2d94:	f6 4c       	sbci	r31, 0xC6	; 198
    2d96:	40 81       	ld	r20, Z
    2d98:	51 81       	ldd	r21, Z+1	; 0x01
    2d9a:	41 15       	cp	r20, r1
    2d9c:	51 05       	cpc	r21, r1
    2d9e:	21 f0       	breq	.+8      	; 0x2da8 <ProcessInput+0x136>
                    PopulateObject(route[currDepth+1], &actObj1);
    2da0:	62 ee       	ldi	r22, 0xE2	; 226
    2da2:	78 e3       	ldi	r23, 0x38	; 56
    2da4:	ca 01       	movw	r24, r20
    2da6:	1c c0       	rjmp	.+56     	; 0x2de0 <ProcessInput+0x16e>
                    canDo = 1;
                //No child, maybe a step back, letter ok?
                } else if (currDepth) {
    2da8:	99 23       	and	r25, r25
    2daa:	09 f4       	brne	.+2      	; 0x2dae <ProcessInput+0x13c>
    2dac:	dc c6       	rjmp	.+3512   	; 0x3b66 <ProcessInput+0xef4>
                    if (CheckLetter(route[currDepth-1], data[1])) {
    2dae:	22 0f       	add	r18, r18
    2db0:	33 1f       	adc	r19, r19
    2db2:	f9 01       	movw	r30, r18
    2db4:	ef 51       	subi	r30, 0x1F	; 31
    2db6:	f6 4c       	sbci	r31, 0xC6	; 198
    2db8:	d3 01       	movw	r26, r6
    2dba:	11 96       	adiw	r26, 0x01	; 1
    2dbc:	6c 91       	ld	r22, X
    2dbe:	80 81       	ld	r24, Z
    2dc0:	91 81       	ldd	r25, Z+1	; 0x01
    2dc2:	7c db       	rcall	.-2312   	; 0x24bc <CheckLetter>
    2dc4:	88 23       	and	r24, r24
    2dc6:	09 f4       	brne	.+2      	; 0x2dca <ProcessInput+0x158>
    2dc8:	ce c6       	rjmp	.+3484   	; 0x3b66 <ProcessInput+0xef4>
                        PopulateObject(route[currDepth-1], &actObj1);
    2dca:	e0 91 35 38 	lds	r30, 0x3835	; 0x803835 <currDepth>
    2dce:	f0 e0       	ldi	r31, 0x00	; 0
    2dd0:	ee 0f       	add	r30, r30
    2dd2:	ff 1f       	adc	r31, r31
    2dd4:	ef 51       	subi	r30, 0x1F	; 31
    2dd6:	f6 4c       	sbci	r31, 0xC6	; 198
    2dd8:	62 ee       	ldi	r22, 0xE2	; 226
    2dda:	78 e3       	ldi	r23, 0x38	; 56
    2ddc:	80 81       	ld	r24, Z
    2dde:	91 81       	ldd	r25, Z+1	; 0x01
    2de0:	f4 da       	rcall	.-2584   	; 0x23ca <PopulateObject>
                    }
                }

                //The candidate is found! Let's check if the action is legit
                if (canDo) {
                    if ((data[0] == 'e') && ((actObj1.byteField[ACTION_MASK]&ENTER)==0)) {
    2de2:	d3 01       	movw	r26, r6
    2de4:	8c 91       	ld	r24, X
    2de6:	85 36       	cpi	r24, 0x65	; 101
    2de8:	c1 f4       	brne	.+48     	; 0x2e1a <ProcessInput+0x1a8>
    2dea:	80 91 ea 38 	lds	r24, 0x38EA	; 0x8038ea <actObj1.3989+0x8>
    2dee:	80 fd       	sbrc	r24, 0
    2df0:	1d c0       	rjmp	.+58     	; 0x2e2c <ProcessInput+0x1ba>
    return 0;
}

//
void SetResponse(uint8_t number, uint16_t address, uint16_t length, uint8_t type){
    reactStr[0][number]=address;
    2df2:	8d e9       	ldi	r24, 0x9D	; 157
    2df4:	99 e7       	ldi	r25, 0x79	; 121
    2df6:	80 93 25 39 	sts	0x3925, r24	; 0x803925 <reactStr+0x2>
    2dfa:	90 93 26 39 	sts	0x3926, r25	; 0x803926 <reactStr+0x3>
    reactStr[1][number]=length;
    2dfe:	8e e1       	ldi	r24, 0x1E	; 30
    2e00:	90 e0       	ldi	r25, 0x00	; 0
    2e02:	80 93 65 39 	sts	0x3965, r24	; 0x803965 <reactStr+0x42>
    2e06:	90 93 66 39 	sts	0x3966, r25	; 0x803966 <reactStr+0x43>
    reactStr[2][number]=type;
    2e0a:	81 e0       	ldi	r24, 0x01	; 1
    2e0c:	90 e0       	ldi	r25, 0x00	; 0
    2e0e:	80 93 a5 39 	sts	0x39A5, r24	; 0x8039a5 <reactStr+0x82>
    2e12:	90 93 a6 39 	sts	0x39A6, r25	; 0x8039a6 <reactStr+0x83>
                }

                //The candidate is found! Let's check if the action is legit
                if (canDo) {
                    if ((data[0] == 'e') && ((actObj1.byteField[ACTION_MASK]&ENTER)==0)) {
                        SetResponse(elements++, A_CANTENTER, L_CANTENTER, TEASER);
    2e16:	12 e0       	ldi	r17, 0x02	; 2
    2e18:	97 c6       	rjmp	.+3374   	; 0x3b48 <ProcessInput+0xed6>
                    } else if ((data[0] == 'o') && ((actObj1.byteField[ACTION_MASK]&OPEN)==0)) {
    2e1a:	8f 36       	cpi	r24, 0x6F	; 111
    2e1c:	39 f4       	brne	.+14     	; 0x2e2c <ProcessInput+0x1ba>
    2e1e:	80 91 ea 38 	lds	r24, 0x38EA	; 0x8038ea <actObj1.3989+0x8>
    2e22:	81 fd       	sbrc	r24, 1
    2e24:	03 c0       	rjmp	.+6      	; 0x2e2c <ProcessInput+0x1ba>
    return 0;
}

//
void SetResponse(uint8_t number, uint16_t address, uint16_t length, uint8_t type){
    reactStr[0][number]=address;
    2e26:	82 e8       	ldi	r24, 0x82	; 130
    2e28:	99 e7       	ldi	r25, 0x79	; 121
    2e2a:	6c c4       	rjmp	.+2264   	; 0x3704 <ProcessInput+0xa92>
                        SetResponse(elements++, A_CANTENTER, L_CANTENTER, TEASER);
                    } else if ((data[0] == 'o') && ((actObj1.byteField[ACTION_MASK]&OPEN)==0)) {
                        SetResponse(elements++, A_CANTOPEN, L_CANTOPEN, TEASER);
                    
                    //Action legit, permission granted?
                    } else if (CheckState(actObj1.byteField[OPEN_ACL])) {
    2e2c:	80 91 e8 38 	lds	r24, 0x38E8	; 0x8038e8 <actObj1.3989+0x6>
    2e30:	0e 94 19 0a 	call	0x1432	; 0x1432 <CheckState>
    2e34:	e0 91 35 38 	lds	r30, 0x3835	; 0x803835 <currDepth>
    2e38:	88 23       	and	r24, r24
    2e3a:	09 f4       	brne	.+2      	; 0x2e3e <ProcessInput+0x1cc>
    2e3c:	49 c0       	rjmp	.+146    	; 0x2ed0 <ProcessInput+0x25e>
                            
                        //Yes! Check if we must move forward or backwards.
                        if (route[currDepth+1]) ++currDepth; else --currDepth;
    2e3e:	ae 2f       	mov	r26, r30
    2e40:	b0 e0       	ldi	r27, 0x00	; 0
    2e42:	aa 0f       	add	r26, r26
    2e44:	bb 1f       	adc	r27, r27
    2e46:	ab 51       	subi	r26, 0x1B	; 27
    2e48:	b6 4c       	sbci	r27, 0xC6	; 198
    2e4a:	8d 91       	ld	r24, X+
    2e4c:	9c 91       	ld	r25, X
    2e4e:	89 2b       	or	r24, r25
    2e50:	11 f0       	breq	.+4      	; 0x2e56 <ProcessInput+0x1e4>
    2e52:	ef 5f       	subi	r30, 0xFF	; 255
    2e54:	01 c0       	rjmp	.+2      	; 0x2e58 <ProcessInput+0x1e6>
    2e56:	e1 50       	subi	r30, 0x01	; 1
    2e58:	e0 93 35 38 	sts	0x3835, r30	; 0x803835 <currDepth>
                        PopulateObject(route[currDepth], &currObj);
    2e5c:	e0 91 35 38 	lds	r30, 0x3835	; 0x803835 <currDepth>
    2e60:	f0 e0       	ldi	r31, 0x00	; 0
    2e62:	ee 0f       	add	r30, r30
    2e64:	ff 1f       	adc	r31, r31
    2e66:	ed 51       	subi	r30, 0x1D	; 29
    2e68:	f6 4c       	sbci	r31, 0xC6	; 198
    2e6a:	63 e2       	ldi	r22, 0x23	; 35
    2e6c:	7a e3       	ldi	r23, 0x3A	; 58
    2e6e:	80 81       	ld	r24, Z
    2e70:	91 81       	ldd	r25, Z+1	; 0x01
    2e72:	ab da       	rcall	.-2730   	; 0x23ca <PopulateObject>
                        SetResponse(elements++, currObj.addrStr[DESC], currObj.lenStr[DESC],GAME);
    2e74:	80 91 3f 3a 	lds	r24, 0x3A3F	; 0x803a3f <currObj+0x1c>
    2e78:	90 91 40 3a 	lds	r25, 0x3A40	; 0x803a40 <currObj+0x1d>
    return 0;
}

//
void SetResponse(uint8_t number, uint16_t address, uint16_t length, uint8_t type){
    reactStr[0][number]=address;
    2e7c:	20 91 31 3a 	lds	r18, 0x3A31	; 0x803a31 <currObj+0xe>
    2e80:	30 91 32 3a 	lds	r19, 0x3A32	; 0x803a32 <currObj+0xf>
    2e84:	20 93 25 39 	sts	0x3925, r18	; 0x803925 <reactStr+0x2>
    2e88:	30 93 26 39 	sts	0x3926, r19	; 0x803926 <reactStr+0x3>
    reactStr[1][number]=length;
    2e8c:	80 93 65 39 	sts	0x3965, r24	; 0x803965 <reactStr+0x42>
    2e90:	90 93 66 39 	sts	0x3966, r25	; 0x803966 <reactStr+0x43>
    reactStr[2][number]=type;
    2e94:	10 92 a5 39 	sts	0x39A5, r1	; 0x8039a5 <reactStr+0x82>
    2e98:	10 92 a6 39 	sts	0x39A6, r1	; 0x8039a6 <reactStr+0x83>
    return 0;
}

//
void SetResponse(uint8_t number, uint16_t address, uint16_t length, uint8_t type){
    reactStr[0][number]=address;
    2e9c:	89 e5       	ldi	r24, 0x59	; 89
    2e9e:	9a e7       	ldi	r25, 0x7A	; 122
    2ea0:	80 93 27 39 	sts	0x3927, r24	; 0x803927 <reactStr+0x4>
    2ea4:	90 93 28 39 	sts	0x3928, r25	; 0x803928 <reactStr+0x5>
    reactStr[1][number]=length;
    2ea8:	82 e0       	ldi	r24, 0x02	; 2
    2eaa:	90 e0       	ldi	r25, 0x00	; 0
    2eac:	80 93 67 39 	sts	0x3967, r24	; 0x803967 <reactStr+0x44>
    2eb0:	90 93 68 39 	sts	0x3968, r25	; 0x803968 <reactStr+0x45>
    reactStr[2][number]=type;
    2eb4:	81 e0       	ldi	r24, 0x01	; 1
    2eb6:	90 e0       	ldi	r25, 0x00	; 0
    2eb8:	80 93 a7 39 	sts	0x39A7, r24	; 0x8039a7 <reactStr+0x84>
    2ebc:	90 93 a8 39 	sts	0x39A8, r25	; 0x8039a8 <reactStr+0x85>
                        //Yes! Check if we must move forward or backwards.
                        if (route[currDepth+1]) ++currDepth; else --currDepth;
                        PopulateObject(route[currDepth], &currObj);
                        SetResponse(elements++, currObj.addrStr[DESC], currObj.lenStr[DESC],GAME);
                        SetResponse(elements++, A_LF, 2, TEASER);
                        effect = currObj.byteField[EFFECTS];
    2ec0:	80 91 27 3a 	lds	r24, 0x3A27	; 0x803a27 <currObj+0x4>
    2ec4:	90 e0       	ldi	r25, 0x00	; 0
    2ec6:	80 93 40 38 	sts	0x3840, r24	; 0x803840 <effect>
    2eca:	90 93 41 38 	sts	0x3841, r25	; 0x803841 <effect+0x1>
    2ece:	07 c4       	rjmp	.+2062   	; 0x36de <ProcessInput+0xa6c>
                                                  
                    //Not granted!
                    } else {
                        route[currDepth+1] = 0;
    2ed0:	f0 e0       	ldi	r31, 0x00	; 0
    2ed2:	ee 0f       	add	r30, r30
    2ed4:	ff 1f       	adc	r31, r31
    2ed6:	eb 51       	subi	r30, 0x1B	; 27
    2ed8:	f6 4c       	sbci	r31, 0xC6	; 198
    2eda:	10 82       	st	Z, r1
    2edc:	11 82       	std	Z+1, r1	; 0x01
                        SetResponse(elements++, actObj1.addrStr[OPEN_ACL_MSG], actObj1.lenStr[OPEN_ACL_MSG], GAME);
    2ede:	80 91 04 39 	lds	r24, 0x3904	; 0x803904 <actObj1.3989+0x22>
    2ee2:	90 91 05 39 	lds	r25, 0x3905	; 0x803905 <actObj1.3989+0x23>
    return 0;
}

//
void SetResponse(uint8_t number, uint16_t address, uint16_t length, uint8_t type){
    reactStr[0][number]=address;
    2ee6:	20 91 f6 38 	lds	r18, 0x38F6	; 0x8038f6 <actObj1.3989+0x14>
    2eea:	30 91 f7 38 	lds	r19, 0x38F7	; 0x8038f7 <actObj1.3989+0x15>
    2eee:	20 93 25 39 	sts	0x3925, r18	; 0x803925 <reactStr+0x2>
    2ef2:	30 93 26 39 	sts	0x3926, r19	; 0x803926 <reactStr+0x3>
    reactStr[1][number]=length;
    2ef6:	80 93 65 39 	sts	0x3965, r24	; 0x803965 <reactStr+0x42>
    2efa:	90 93 66 39 	sts	0x3966, r25	; 0x803966 <reactStr+0x43>
    reactStr[2][number]=type;
    2efe:	10 92 a5 39 	sts	0x39A5, r1	; 0x8039a5 <reactStr+0x82>
    2f02:	10 92 a6 39 	sts	0x39A6, r1	; 0x8039a6 <reactStr+0x83>
                                                  
                    //Not granted!
                    } else {
                        route[currDepth+1] = 0;
                        SetResponse(elements++, actObj1.addrStr[OPEN_ACL_MSG], actObj1.lenStr[OPEN_ACL_MSG], GAME);
                        effect = actObj1.effect[0];              
    2f06:	80 91 0a 39 	lds	r24, 0x390A	; 0x80390a <actObj1.3989+0x28>
    2f0a:	c6 c4       	rjmp	.+2444   	; 0x3898 <ProcessInput+0xc26>
                    SetResponse(elements++, A_DONTSEE, L_DONTSEE, TEASER);                
                }
            }

        //Look around or at objects
        } else if (data[0] == 'l') {
    2f0c:	8c 36       	cpi	r24, 0x6C	; 108
    2f0e:	09 f0       	breq	.+2      	; 0x2f12 <ProcessInput+0x2a0>
    2f10:	59 c1       	rjmp	.+690    	; 0x31c4 <ProcessInput+0x552>
    2f12:	e0 91 35 38 	lds	r30, 0x3835	; 0x803835 <currDepth>
            if (inputLen == 1) {
    2f16:	b1 e0       	ldi	r27, 0x01	; 1
    2f18:	fb 12       	cpse	r15, r27
    2f1a:	f1 c0       	rjmp	.+482    	; 0x30fe <ProcessInput+0x48c>

                //Show info about this area first
                SetResponse(elements++, currObj.addrStr[DESC], currObj.lenStr[DESC],GAME);
    2f1c:	80 91 3f 3a 	lds	r24, 0x3A3F	; 0x803a3f <currObj+0x1c>
    2f20:	90 91 40 3a 	lds	r25, 0x3A40	; 0x803a40 <currObj+0x1d>
    return 0;
}

//
void SetResponse(uint8_t number, uint16_t address, uint16_t length, uint8_t type){
    reactStr[0][number]=address;
    2f24:	40 91 31 3a 	lds	r20, 0x3A31	; 0x803a31 <currObj+0xe>
    2f28:	50 91 32 3a 	lds	r21, 0x3A32	; 0x803a32 <currObj+0xf>
    2f2c:	40 93 25 39 	sts	0x3925, r20	; 0x803925 <reactStr+0x2>
    2f30:	50 93 26 39 	sts	0x3926, r21	; 0x803926 <reactStr+0x3>
    reactStr[1][number]=length;
    2f34:	80 93 65 39 	sts	0x3965, r24	; 0x803965 <reactStr+0x42>
    2f38:	90 93 66 39 	sts	0x3966, r25	; 0x803966 <reactStr+0x43>
    reactStr[2][number]=type;
    2f3c:	10 92 a5 39 	sts	0x39A5, r1	; 0x8039a5 <reactStr+0x82>
    2f40:	10 92 a6 39 	sts	0x39A6, r1	; 0x8039a6 <reactStr+0x83>
    return 0;
}

//
void SetResponse(uint8_t number, uint16_t address, uint16_t length, uint8_t type){
    reactStr[0][number]=address;
    2f44:	20 93 27 39 	sts	0x3927, r18	; 0x803927 <reactStr+0x4>
    2f48:	30 93 28 39 	sts	0x3928, r19	; 0x803928 <reactStr+0x5>
    reactStr[1][number]=length;
    2f4c:	82 e0       	ldi	r24, 0x02	; 2
    2f4e:	90 e0       	ldi	r25, 0x00	; 0
    2f50:	80 93 67 39 	sts	0x3967, r24	; 0x803967 <reactStr+0x44>
    2f54:	90 93 68 39 	sts	0x3968, r25	; 0x803968 <reactStr+0x45>
    reactStr[2][number]=type;
    2f58:	00 93 a7 39 	sts	0x39A7, r16	; 0x8039a7 <reactStr+0x84>
    2f5c:	10 93 a8 39 	sts	0x39A8, r17	; 0x8039a8 <reactStr+0x85>
    return 0;
}

//
void SetResponse(uint8_t number, uint16_t address, uint16_t length, uint8_t type){
    reactStr[0][number]=address;
    2f60:	8b ee       	ldi	r24, 0xEB	; 235
    2f62:	99 e7       	ldi	r25, 0x79	; 121
    2f64:	80 93 29 39 	sts	0x3929, r24	; 0x803929 <reactStr+0x6>
    2f68:	90 93 2a 39 	sts	0x392A, r25	; 0x80392a <reactStr+0x7>
    reactStr[1][number]=length;
    2f6c:	85 e1       	ldi	r24, 0x15	; 21
    2f6e:	90 e0       	ldi	r25, 0x00	; 0
    2f70:	80 93 69 39 	sts	0x3969, r24	; 0x803969 <reactStr+0x46>
    2f74:	90 93 6a 39 	sts	0x396A, r25	; 0x80396a <reactStr+0x47>
    reactStr[2][number]=type;
    2f78:	00 93 a9 39 	sts	0x39A9, r16	; 0x8039a9 <reactStr+0x86>
    2f7c:	10 93 aa 39 	sts	0x39AA, r17	; 0x8039aa <reactStr+0x87>
                SetResponse(elements++, currObj.addrStr[DESC], currObj.lenStr[DESC],GAME);
                SetResponse(elements++, A_LF, 2, TEASER);
                SetResponse(elements++, A_LOOK, L_LOOK, TEASER);

                //Check the visible children first
                route[currDepth+1] = 0;
    2f80:	f0 e0       	ldi	r31, 0x00	; 0
    2f82:	ee 0f       	add	r30, r30
    2f84:	ff 1f       	adc	r31, r31
    2f86:	eb 51       	subi	r30, 0x1B	; 27
    2f88:	f6 4c       	sbci	r31, 0xC6	; 198
    2f8a:	10 82       	st	Z, r1
    2f8c:	11 82       	std	Z+1, r1	; 0x01
            if (inputLen == 1) {

                //Show info about this area first
                SetResponse(elements++, currObj.addrStr[DESC], currObj.lenStr[DESC],GAME);
                SetResponse(elements++, A_LF, 2, TEASER);
                SetResponse(elements++, A_LOOK, L_LOOK, TEASER);
    2f8e:	14 e0       	ldi	r17, 0x04	; 4
    2f90:	91 2e       	mov	r9, r17
    return 0;
}

//
void SetResponse(uint8_t number, uint16_t address, uint16_t length, uint8_t type){
    reactStr[0][number]=address;
    2f92:	07 e5       	ldi	r16, 0x57	; 87
    2f94:	e0 2e       	mov	r14, r16
    2f96:	0a e7       	ldi	r16, 0x7A	; 122
    2f98:	f0 2e       	mov	r15, r16
    reactStr[1][number]=length;
    2f9a:	82 e0       	ldi	r24, 0x02	; 2
    2f9c:	c8 2e       	mov	r12, r24
    2f9e:	d1 2c       	mov	r13, r1
    reactStr[2][number]=type;
    2fa0:	aa 24       	eor	r10, r10
    2fa2:	a3 94       	inc	r10
    2fa4:	b1 2c       	mov	r11, r1
                SetResponse(elements++, A_LOOK, L_LOOK, TEASER);

                //Check the visible children first
                route[currDepth+1] = 0;
                do{
                    route[currDepth+1] = FindChild(route[currDepth], 0, route[currDepth+1]);
    2fa6:	80 91 35 38 	lds	r24, 0x3835	; 0x803835 <currDepth>
    2faa:	90 e0       	ldi	r25, 0x00	; 0
    2fac:	8c 01       	movw	r16, r24
    2fae:	00 0f       	add	r16, r16
    2fb0:	11 1f       	adc	r17, r17
    2fb2:	0b 51       	subi	r16, 0x1B	; 27
    2fb4:	16 4c       	sbci	r17, 0xC6	; 198
    2fb6:	f8 01       	movw	r30, r16
    2fb8:	40 81       	ld	r20, Z
    2fba:	51 81       	ldd	r21, Z+1	; 0x01
    2fbc:	88 0f       	add	r24, r24
    2fbe:	99 1f       	adc	r25, r25
    2fc0:	fc 01       	movw	r30, r24
    2fc2:	ed 51       	subi	r30, 0x1D	; 29
    2fc4:	f6 4c       	sbci	r31, 0xC6	; 198
    2fc6:	60 e0       	ldi	r22, 0x00	; 0
    2fc8:	80 81       	ld	r24, Z
    2fca:	91 81       	ldd	r25, Z+1	; 0x01
    2fcc:	be da       	rcall	.-2692   	; 0x254a <FindChild>
    2fce:	d8 01       	movw	r26, r16
    2fd0:	8d 93       	st	X+, r24
    2fd2:	9c 93       	st	X, r25
                    if (route[currDepth+1]) {
    2fd4:	e0 91 35 38 	lds	r30, 0x3835	; 0x803835 <currDepth>
    2fd8:	f0 e0       	ldi	r31, 0x00	; 0
    2fda:	ee 0f       	add	r30, r30
    2fdc:	ff 1f       	adc	r31, r31
    2fde:	eb 51       	subi	r30, 0x1B	; 27
    2fe0:	f6 4c       	sbci	r31, 0xC6	; 198
    2fe2:	80 81       	ld	r24, Z
    2fe4:	91 81       	ldd	r25, Z+1	; 0x01
    2fe6:	00 97       	sbiw	r24, 0x00	; 0
    2fe8:	09 f4       	brne	.+2      	; 0x2fec <ProcessInput+0x37a>
    2fea:	4a c0       	rjmp	.+148    	; 0x3080 <ProcessInput+0x40e>
                        if ((route[currDepth+1] != inventory[0])&&(route[currDepth+1] != inventory[1])) {
    2fec:	20 91 44 38 	lds	r18, 0x3844	; 0x803844 <inventory>
    2ff0:	30 91 45 38 	lds	r19, 0x3845	; 0x803845 <inventory+0x1>
    2ff4:	82 17       	cp	r24, r18
    2ff6:	93 07       	cpc	r25, r19
    2ff8:	09 f4       	brne	.+2      	; 0x2ffc <ProcessInput+0x38a>
    2ffa:	42 c0       	rjmp	.+132    	; 0x3080 <ProcessInput+0x40e>
    2ffc:	20 91 46 38 	lds	r18, 0x3846	; 0x803846 <inventory+0x2>
    3000:	30 91 47 38 	lds	r19, 0x3847	; 0x803847 <inventory+0x3>
    3004:	82 17       	cp	r24, r18
    3006:	93 07       	cpc	r25, r19
                            PopulateObject(route[currDepth+1], &actObj1);
    3008:	d9 f1       	breq	.+118    	; 0x3080 <ProcessInput+0x40e>
    300a:	62 ee       	ldi	r22, 0xE2	; 226
    300c:	78 e3       	ldi	r23, 0x38	; 56
    300e:	dd d9       	rcall	.-3142   	; 0x23ca <PopulateObject>
                            SetResponse(elements++, actObj1.addrStr[NAME], actObj1.lenStr[NAME],GAME);
    3010:	80 91 fc 38 	lds	r24, 0x38FC	; 0x8038fc <actObj1.3989+0x1a>
    3014:	90 91 fd 38 	lds	r25, 0x38FD	; 0x8038fd <actObj1.3989+0x1b>
    return 0;
}

//
void SetResponse(uint8_t number, uint16_t address, uint16_t length, uint8_t type){
    reactStr[0][number]=address;
    3018:	e9 2d       	mov	r30, r9
    301a:	f0 e0       	ldi	r31, 0x00	; 0
    301c:	df 01       	movw	r26, r30
    301e:	aa 0f       	add	r26, r26
    3020:	bb 1f       	adc	r27, r27
    3022:	ad 5d       	subi	r26, 0xDD	; 221
    3024:	b6 4c       	sbci	r27, 0xC6	; 198
    3026:	20 91 ee 38 	lds	r18, 0x38EE	; 0x8038ee <actObj1.3989+0xc>
    302a:	30 91 ef 38 	lds	r19, 0x38EF	; 0x8038ef <actObj1.3989+0xd>
    302e:	2d 93       	st	X+, r18
    3030:	3c 93       	st	X, r19
    reactStr[1][number]=length;
    3032:	df 01       	movw	r26, r30
    3034:	aa 0f       	add	r26, r26
    3036:	bb 1f       	adc	r27, r27
    3038:	ad 59       	subi	r26, 0x9D	; 157
    303a:	b6 4c       	sbci	r27, 0xC6	; 198
    303c:	8d 93       	st	X+, r24
    303e:	9c 93       	st	X, r25
    reactStr[2][number]=type;
    3040:	ee 0f       	add	r30, r30
    3042:	ff 1f       	adc	r31, r31
    3044:	ed 55       	subi	r30, 0x5D	; 93
    3046:	f6 4c       	sbci	r31, 0xC6	; 198
    3048:	10 82       	st	Z, r1
    304a:	11 82       	std	Z+1, r1	; 0x01
    return 0;
}

//
void SetResponse(uint8_t number, uint16_t address, uint16_t length, uint8_t type){
    reactStr[0][number]=address;
    304c:	81 e0       	ldi	r24, 0x01	; 1
    304e:	89 0d       	add	r24, r9
    3050:	90 e0       	ldi	r25, 0x00	; 0
    3052:	93 94       	inc	r9
    3054:	93 94       	inc	r9
    3056:	fc 01       	movw	r30, r24
    3058:	ee 0f       	add	r30, r30
    305a:	ff 1f       	adc	r31, r31
    305c:	ed 5d       	subi	r30, 0xDD	; 221
    305e:	f6 4c       	sbci	r31, 0xC6	; 198
    3060:	e0 82       	st	Z, r14
    3062:	f1 82       	std	Z+1, r15	; 0x01
    reactStr[1][number]=length;
    3064:	fc 01       	movw	r30, r24
    3066:	ee 0f       	add	r30, r30
    3068:	ff 1f       	adc	r31, r31
    306a:	ed 59       	subi	r30, 0x9D	; 157
    306c:	f6 4c       	sbci	r31, 0xC6	; 198
    306e:	c0 82       	st	Z, r12
    3070:	d1 82       	std	Z+1, r13	; 0x01
    reactStr[2][number]=type;
    3072:	88 0f       	add	r24, r24
    3074:	99 1f       	adc	r25, r25
    3076:	fc 01       	movw	r30, r24
    3078:	ed 55       	subi	r30, 0x5D	; 93
    307a:	f6 4c       	sbci	r31, 0xC6	; 198
    307c:	a0 82       	st	Z, r10
    307e:	b1 82       	std	Z+1, r11	; 0x01
                            PopulateObject(route[currDepth+1], &actObj1);
                            SetResponse(elements++, actObj1.addrStr[NAME], actObj1.lenStr[NAME],GAME);
                            SetResponse(elements++, A_COMMA, L_COMMA, TEASER);
                        }
                    }
                }while (route[currDepth+1]);
    3080:	20 91 35 38 	lds	r18, 0x3835	; 0x803835 <currDepth>
    3084:	82 2f       	mov	r24, r18
    3086:	90 e0       	ldi	r25, 0x00	; 0
    3088:	fc 01       	movw	r30, r24
    308a:	ee 0f       	add	r30, r30
    308c:	ff 1f       	adc	r31, r31
    308e:	eb 51       	subi	r30, 0x1B	; 27
    3090:	f6 4c       	sbci	r31, 0xC6	; 198
    3092:	40 81       	ld	r20, Z
    3094:	51 81       	ldd	r21, Z+1	; 0x01
    3096:	45 2b       	or	r20, r21
    3098:	09 f0       	breq	.+2      	; 0x309c <ProcessInput+0x42a>
    309a:	85 cf       	rjmp	.-246    	; 0x2fa6 <ProcessInput+0x334>

                //Look back if not on level 0
                if (currDepth) {
    309c:	22 23       	and	r18, r18
    309e:	61 f1       	breq	.+88     	; 0x30f8 <ProcessInput+0x486>
                    PopulateObject(route[currDepth-1], &actObj1);
    30a0:	88 0f       	add	r24, r24
    30a2:	99 1f       	adc	r25, r25
    30a4:	fc 01       	movw	r30, r24
    30a6:	ef 51       	subi	r30, 0x1F	; 31
    30a8:	f6 4c       	sbci	r31, 0xC6	; 198
    30aa:	62 ee       	ldi	r22, 0xE2	; 226
    30ac:	78 e3       	ldi	r23, 0x38	; 56
    30ae:	80 81       	ld	r24, Z
    30b0:	91 81       	ldd	r25, Z+1	; 0x01
    30b2:	8b d9       	rcall	.-3306   	; 0x23ca <PopulateObject>
                    SetResponse(elements++, actObj1.addrStr[NAME], actObj1.lenStr[NAME],GAME);
    30b4:	20 91 fc 38 	lds	r18, 0x38FC	; 0x8038fc <actObj1.3989+0x1a>
    30b8:	30 91 fd 38 	lds	r19, 0x38FD	; 0x8038fd <actObj1.3989+0x1b>
    30bc:	11 e0       	ldi	r17, 0x01	; 1
    30be:	19 0d       	add	r17, r9
    return 0;
}

//
void SetResponse(uint8_t number, uint16_t address, uint16_t length, uint8_t type){
    reactStr[0][number]=address;
    30c0:	89 2d       	mov	r24, r9
    30c2:	90 e0       	ldi	r25, 0x00	; 0
    30c4:	fc 01       	movw	r30, r24
    30c6:	ee 0f       	add	r30, r30
    30c8:	ff 1f       	adc	r31, r31
    30ca:	ed 5d       	subi	r30, 0xDD	; 221
    30cc:	f6 4c       	sbci	r31, 0xC6	; 198
    30ce:	40 91 ee 38 	lds	r20, 0x38EE	; 0x8038ee <actObj1.3989+0xc>
    30d2:	50 91 ef 38 	lds	r21, 0x38EF	; 0x8038ef <actObj1.3989+0xd>
    30d6:	40 83       	st	Z, r20
    30d8:	51 83       	std	Z+1, r21	; 0x01
    reactStr[1][number]=length;
    30da:	fc 01       	movw	r30, r24
    30dc:	ee 0f       	add	r30, r30
    30de:	ff 1f       	adc	r31, r31
    30e0:	ed 59       	subi	r30, 0x9D	; 157
    30e2:	f6 4c       	sbci	r31, 0xC6	; 198
    30e4:	20 83       	st	Z, r18
    30e6:	31 83       	std	Z+1, r19	; 0x01
    reactStr[2][number]=type;
    30e8:	88 0f       	add	r24, r24
    30ea:	99 1f       	adc	r25, r25
    30ec:	fc 01       	movw	r30, r24
    30ee:	ed 55       	subi	r30, 0x5D	; 93
    30f0:	f6 4c       	sbci	r31, 0xC6	; 198
    30f2:	10 82       	st	Z, r1
    30f4:	11 82       	std	Z+1, r1	; 0x01
    30f6:	28 c5       	rjmp	.+2640   	; 0x3b48 <ProcessInput+0xed6>

                //Look back if not on level 0
                if (currDepth) {
                    PopulateObject(route[currDepth-1], &actObj1);
                    SetResponse(elements++, actObj1.addrStr[NAME], actObj1.lenStr[NAME],GAME);
                } else elements-=1;
    30f8:	1f ef       	ldi	r17, 0xFF	; 255
    30fa:	19 0d       	add	r17, r9
    30fc:	25 c5       	rjmp	.+2634   	; 0x3b48 <ProcessInput+0xed6>

            } else {
                route[currDepth+1] = FindChild(route[currDepth], data[1], 0);
    30fe:	ee 2e       	mov	r14, r30
    3100:	f1 2c       	mov	r15, r1
    3102:	f7 01       	movw	r30, r14
    3104:	ee 0f       	add	r30, r30
    3106:	ff 1f       	adc	r31, r31
    3108:	ed 51       	subi	r30, 0x1D	; 29
    310a:	f6 4c       	sbci	r31, 0xC6	; 198
    310c:	40 e0       	ldi	r20, 0x00	; 0
    310e:	50 e0       	ldi	r21, 0x00	; 0
    3110:	d3 01       	movw	r26, r6
    3112:	11 96       	adiw	r26, 0x01	; 1
    3114:	6c 91       	ld	r22, X
    3116:	80 81       	ld	r24, Z
    3118:	91 81       	ldd	r25, Z+1	; 0x01
    311a:	17 da       	rcall	.-3026   	; 0x254a <FindChild>
    311c:	f7 01       	movw	r30, r14
    311e:	ee 0f       	add	r30, r30
    3120:	ff 1f       	adc	r31, r31
    3122:	eb 51       	subi	r30, 0x1B	; 27
    3124:	f6 4c       	sbci	r31, 0xC6	; 198
    3126:	80 83       	st	Z, r24
    3128:	91 83       	std	Z+1, r25	; 0x01
                if (route[currDepth+1]) {
    312a:	90 91 35 38 	lds	r25, 0x3835	; 0x803835 <currDepth>
    312e:	29 2f       	mov	r18, r25
    3130:	30 e0       	ldi	r19, 0x00	; 0
    3132:	f9 01       	movw	r30, r18
    3134:	ee 0f       	add	r30, r30
    3136:	ff 1f       	adc	r31, r31
    3138:	eb 51       	subi	r30, 0x1B	; 27
    313a:	f6 4c       	sbci	r31, 0xC6	; 198
    313c:	40 81       	ld	r20, Z
    313e:	51 81       	ldd	r21, Z+1	; 0x01
    3140:	41 15       	cp	r20, r1
    3142:	51 05       	cpc	r21, r1
    3144:	21 f0       	breq	.+8      	; 0x314e <ProcessInput+0x4dc>
                    PopulateObject(route[currDepth+1], &actObj1);
    3146:	62 ee       	ldi	r22, 0xE2	; 226
    3148:	78 e3       	ldi	r23, 0x38	; 56
    314a:	ca 01       	movw	r24, r20
    314c:	1c c0       	rjmp	.+56     	; 0x3186 <ProcessInput+0x514>
                    SetResponse(elements++, actObj1.addrStr[DESC], actObj1.lenStr[DESC],GAME);   
                } else if (currDepth) {
    314e:	99 23       	and	r25, r25
                    if (CheckLetter(route[currDepth-1], data[1])) {
    3150:	81 f1       	breq	.+96     	; 0x31b2 <ProcessInput+0x540>
    3152:	22 0f       	add	r18, r18
    3154:	33 1f       	adc	r19, r19
    3156:	f9 01       	movw	r30, r18
    3158:	ef 51       	subi	r30, 0x1F	; 31
    315a:	f6 4c       	sbci	r31, 0xC6	; 198
    315c:	d3 01       	movw	r26, r6
    315e:	11 96       	adiw	r26, 0x01	; 1
    3160:	6c 91       	ld	r22, X
    3162:	80 81       	ld	r24, Z
    3164:	91 81       	ldd	r25, Z+1	; 0x01
    3166:	aa d9       	rcall	.-3244   	; 0x24bc <CheckLetter>
    3168:	81 11       	cpse	r24, r1
    316a:	02 c0       	rjmp	.+4      	; 0x3170 <ProcessInput+0x4fe>
}

//The game logic!
uint8_t ProcessInput(uint8_t *data){
    static object_model_t actObj1, actObj2;
    uint8_t elements = 1;
    316c:	11 e0       	ldi	r17, 0x01	; 1
                if (route[currDepth+1]) {
                    PopulateObject(route[currDepth+1], &actObj1);
                    SetResponse(elements++, actObj1.addrStr[DESC], actObj1.lenStr[DESC],GAME);   
                } else if (currDepth) {
                    if (CheckLetter(route[currDepth-1], data[1])) {
                        PopulateObject(route[currDepth-1], &actObj1);
    316e:	ec c4       	rjmp	.+2520   	; 0x3b48 <ProcessInput+0xed6>
    3170:	e0 91 35 38 	lds	r30, 0x3835	; 0x803835 <currDepth>
    3174:	f0 e0       	ldi	r31, 0x00	; 0
    3176:	ee 0f       	add	r30, r30
    3178:	ff 1f       	adc	r31, r31
    317a:	ef 51       	subi	r30, 0x1F	; 31
    317c:	f6 4c       	sbci	r31, 0xC6	; 198
    317e:	62 ee       	ldi	r22, 0xE2	; 226
    3180:	78 e3       	ldi	r23, 0x38	; 56
    3182:	80 81       	ld	r24, Z
    3184:	91 81       	ldd	r25, Z+1	; 0x01
    3186:	21 d9       	rcall	.-3518   	; 0x23ca <PopulateObject>
                        SetResponse(elements++, actObj1.addrStr[DESC], actObj1.lenStr[DESC],GAME);
    3188:	80 91 fe 38 	lds	r24, 0x38FE	; 0x8038fe <actObj1.3989+0x1c>
    318c:	90 91 ff 38 	lds	r25, 0x38FF	; 0x8038ff <actObj1.3989+0x1d>
    return 0;
}

//
void SetResponse(uint8_t number, uint16_t address, uint16_t length, uint8_t type){
    reactStr[0][number]=address;
    3190:	20 91 f0 38 	lds	r18, 0x38F0	; 0x8038f0 <actObj1.3989+0xe>
    3194:	30 91 f1 38 	lds	r19, 0x38F1	; 0x8038f1 <actObj1.3989+0xf>
    3198:	20 93 25 39 	sts	0x3925, r18	; 0x803925 <reactStr+0x2>
    319c:	30 93 26 39 	sts	0x3926, r19	; 0x803926 <reactStr+0x3>
    reactStr[1][number]=length;
    31a0:	80 93 65 39 	sts	0x3965, r24	; 0x803965 <reactStr+0x42>
    31a4:	90 93 66 39 	sts	0x3966, r25	; 0x803966 <reactStr+0x43>
    reactStr[2][number]=type;
    31a8:	10 92 a5 39 	sts	0x39A5, r1	; 0x8039a5 <reactStr+0x82>
    31ac:	10 92 a6 39 	sts	0x39A6, r1	; 0x8039a6 <reactStr+0x83>
    31b0:	32 ce       	rjmp	.-924    	; 0x2e16 <ProcessInput+0x1a4>
    return 0;
}

//
void SetResponse(uint8_t number, uint16_t address, uint16_t length, uint8_t type){
    reactStr[0][number]=address;
    31b2:	81 ed       	ldi	r24, 0xD1	; 209
    31b4:	99 e7       	ldi	r25, 0x79	; 121
    31b6:	80 93 25 39 	sts	0x3925, r24	; 0x803925 <reactStr+0x2>
    31ba:	90 93 26 39 	sts	0x3926, r25	; 0x803926 <reactStr+0x3>
    reactStr[1][number]=length;
    31be:	8a e1       	ldi	r24, 0x1A	; 26
    31c0:	90 e0       	ldi	r25, 0x00	; 0
    31c2:	c9 c2       	rjmp	.+1426   	; 0x3756 <ProcessInput+0xae4>
                    SetResponse(elements++, A_DONTSEE, L_DONTSEE, TEASER);
                }
            }
        
        //Pick up an object
        } else if (data[0] == 'p') {
    31c4:	80 37       	cpi	r24, 0x70	; 112
    31c6:	09 f0       	breq	.+2      	; 0x31ca <ProcessInput+0x558>
    31c8:	92 c0       	rjmp	.+292    	; 0x32ee <ProcessInput+0x67c>
            if (inventory[0]&&inventory[1]) {
    31ca:	80 91 44 38 	lds	r24, 0x3844	; 0x803844 <inventory>
    31ce:	90 91 45 38 	lds	r25, 0x3845	; 0x803845 <inventory+0x1>
    31d2:	89 2b       	or	r24, r25
    31d4:	79 f0       	breq	.+30     	; 0x31f4 <ProcessInput+0x582>
    31d6:	80 91 46 38 	lds	r24, 0x3846	; 0x803846 <inventory+0x2>
    31da:	90 91 47 38 	lds	r25, 0x3847	; 0x803847 <inventory+0x3>
    31de:	89 2b       	or	r24, r25
    31e0:	49 f0       	breq	.+18     	; 0x31f4 <ProcessInput+0x582>
    return 0;
}

//
void SetResponse(uint8_t number, uint16_t address, uint16_t length, uint8_t type){
    reactStr[0][number]=address;
    31e2:	87 e0       	ldi	r24, 0x07	; 7
    31e4:	98 e7       	ldi	r25, 0x78	; 120
    31e6:	80 93 25 39 	sts	0x3925, r24	; 0x803925 <reactStr+0x2>
    31ea:	90 93 26 39 	sts	0x3926, r25	; 0x803926 <reactStr+0x3>
    reactStr[1][number]=length;
    31ee:	89 e5       	ldi	r24, 0x59	; 89
    31f0:	90 e0       	ldi	r25, 0x00	; 0
    31f2:	b1 c2       	rjmp	.+1378   	; 0x3756 <ProcessInput+0xae4>
        
        //Pick up an object
        } else if (data[0] == 'p') {
            if (inventory[0]&&inventory[1]) {
                SetResponse(elements++, A_CARRYTWO, L_CARRYTWO, TEASER);
            } else if (inputLen != 2) {
    31f4:	b2 e0       	ldi	r27, 0x02	; 2
    31f6:	fb 12       	cpse	r15, r27
    31f8:	6f cd       	rjmp	.-1314   	; 0x2cd8 <ProcessInput+0x66>
                SetResponse(elements++, A_NOTPOSSIBLE, L_NOTPOSSIBLE, TEASER);
            } else {
                route[currDepth+1] = FindChild(route[currDepth], data[1], 0);
    31fa:	00 91 35 38 	lds	r16, 0x3835	; 0x803835 <currDepth>
    31fe:	10 e0       	ldi	r17, 0x00	; 0
    3200:	f8 01       	movw	r30, r16
    3202:	ee 0f       	add	r30, r30
    3204:	ff 1f       	adc	r31, r31
    3206:	ed 51       	subi	r30, 0x1D	; 29
    3208:	f6 4c       	sbci	r31, 0xC6	; 198
    320a:	40 e0       	ldi	r20, 0x00	; 0
    320c:	50 e0       	ldi	r21, 0x00	; 0
    320e:	d3 01       	movw	r26, r6
    3210:	11 96       	adiw	r26, 0x01	; 1
    3212:	6c 91       	ld	r22, X
    3214:	80 81       	ld	r24, Z
    3216:	91 81       	ldd	r25, Z+1	; 0x01
    3218:	98 d9       	rcall	.-3280   	; 0x254a <FindChild>
    321a:	00 0f       	add	r16, r16
    321c:	11 1f       	adc	r17, r17
    321e:	f8 01       	movw	r30, r16
    3220:	eb 51       	subi	r30, 0x1B	; 27
    3222:	f6 4c       	sbci	r31, 0xC6	; 198
    3224:	80 83       	st	Z, r24
    3226:	91 83       	std	Z+1, r25	; 0x01
                if (route[currDepth+1]) {
    3228:	20 91 35 38 	lds	r18, 0x3835	; 0x803835 <currDepth>
    322c:	30 e0       	ldi	r19, 0x00	; 0
    322e:	2f 5f       	subi	r18, 0xFF	; 255
    3230:	3f 4f       	sbci	r19, 0xFF	; 255
    3232:	22 0f       	add	r18, r18
    3234:	33 1f       	adc	r19, r19
    3236:	f9 01       	movw	r30, r18
    3238:	ed 51       	subi	r30, 0x1D	; 29
    323a:	f6 4c       	sbci	r31, 0xC6	; 198
    323c:	80 81       	ld	r24, Z
    323e:	91 81       	ldd	r25, Z+1	; 0x01
    3240:	00 97       	sbiw	r24, 0x00	; 0
    3242:	09 f4       	brne	.+2      	; 0x3246 <ProcessInput+0x5d4>
    3244:	38 c3       	rjmp	.+1648   	; 0x38b6 <ProcessInput+0xc44>
                    if ((route[currDepth+1] == inventory[0])||(route[currDepth+1] == inventory[1])) {
    3246:	40 91 44 38 	lds	r20, 0x3844	; 0x803844 <inventory>
    324a:	50 91 45 38 	lds	r21, 0x3845	; 0x803845 <inventory+0x1>
    324e:	84 17       	cp	r24, r20
    3250:	95 07       	cpc	r25, r21
    3252:	39 f0       	breq	.+14     	; 0x3262 <ProcessInput+0x5f0>
    3254:	40 91 46 38 	lds	r20, 0x3846	; 0x803846 <inventory+0x2>
    3258:	50 91 47 38 	lds	r21, 0x3847	; 0x803847 <inventory+0x3>
    325c:	84 17       	cp	r24, r20
    325e:	95 07       	cpc	r25, r21
    3260:	c1 f4       	brne	.+48     	; 0x3292 <ProcessInput+0x620>
    return 0;
}

//
void SetResponse(uint8_t number, uint16_t address, uint16_t length, uint8_t type){
    reactStr[0][number]=address;
    3262:	82 ee       	ldi	r24, 0xE2	; 226
    3264:	97 e7       	ldi	r25, 0x77	; 119
    3266:	80 93 25 39 	sts	0x3925, r24	; 0x803925 <reactStr+0x2>
    326a:	90 93 26 39 	sts	0x3926, r25	; 0x803926 <reactStr+0x3>
    reactStr[1][number]=length;
    326e:	85 e2       	ldi	r24, 0x25	; 37
    3270:	90 e0       	ldi	r25, 0x00	; 0
    3272:	80 93 65 39 	sts	0x3965, r24	; 0x803965 <reactStr+0x42>
    3276:	90 93 66 39 	sts	0x3966, r25	; 0x803966 <reactStr+0x43>
    reactStr[2][number]=type;
    327a:	81 e0       	ldi	r24, 0x01	; 1
    327c:	90 e0       	ldi	r25, 0x00	; 0
    327e:	80 93 a5 39 	sts	0x39A5, r24	; 0x8039a5 <reactStr+0x82>
    3282:	90 93 a6 39 	sts	0x39A6, r25	; 0x8039a6 <reactStr+0x83>
            } else {
                route[currDepth+1] = FindChild(route[currDepth], data[1], 0);
                if (route[currDepth+1]) {
                    if ((route[currDepth+1] == inventory[0])||(route[currDepth+1] == inventory[1])) {
                        SetResponse(elements++, A_ALREADYCARRYING, L_ALREADYCARRYING, TEASER);
                        route[currDepth+1] = 0;
    3286:	f9 01       	movw	r30, r18
    3288:	ed 51       	subi	r30, 0x1D	; 29
    328a:	f6 4c       	sbci	r31, 0xC6	; 198
    328c:	10 82       	st	Z, r1
    328e:	11 82       	std	Z+1, r1	; 0x01
                    } else {
                        //Put item in the inventory if possible
                        PopulateObject(route[currDepth+1], &actObj1);  
    3290:	c2 cd       	rjmp	.-1148   	; 0x2e16 <ProcessInput+0x1a4>
    3292:	62 ee       	ldi	r22, 0xE2	; 226
    3294:	78 e3       	ldi	r23, 0x38	; 56
    3296:	99 d8       	rcall	.-3790   	; 0x23ca <PopulateObject>
                        if (CheckState(actObj1.byteField[ACTION_ACL])) {
    3298:	80 91 e9 38 	lds	r24, 0x38E9	; 0x8038e9 <actObj1.3989+0x7>
    329c:	0e 94 19 0a 	call	0x1432	; 0x1432 <CheckState>
    32a0:	88 23       	and	r24, r24
    32a2:	09 f4       	brne	.+2      	; 0x32a6 <ProcessInput+0x634>
    32a4:	e3 c2       	rjmp	.+1478   	; 0x386c <ProcessInput+0xbfa>
                            if (actObj1.byteField[ITEM_NR]) {
    32a6:	80 91 ed 38 	lds	r24, 0x38ED	; 0x8038ed <actObj1.3989+0xb>
    32aa:	88 23       	and	r24, r24
    32ac:	09 f4       	brne	.+2      	; 0x32b0 <ProcessInput+0x63e>
    32ae:	14 cd       	rjmp	.-1496   	; 0x2cd8 <ProcessInput+0x66>
                                if (inventory[0]) {
    32b0:	80 91 44 38 	lds	r24, 0x3844	; 0x803844 <inventory>
    32b4:	90 91 45 38 	lds	r25, 0x3845	; 0x803845 <inventory+0x1>
    32b8:	e0 91 35 38 	lds	r30, 0x3835	; 0x803835 <currDepth>
                                    inventory[1] = route[currDepth+1];
    32bc:	f0 e0       	ldi	r31, 0x00	; 0
    32be:	ee 0f       	add	r30, r30
    32c0:	ff 1f       	adc	r31, r31
    32c2:	eb 51       	subi	r30, 0x1B	; 27
    32c4:	f6 4c       	sbci	r31, 0xC6	; 198
                    } else {
                        //Put item in the inventory if possible
                        PopulateObject(route[currDepth+1], &actObj1);  
                        if (CheckState(actObj1.byteField[ACTION_ACL])) {
                            if (actObj1.byteField[ITEM_NR]) {
                                if (inventory[0]) {
    32c6:	89 2b       	or	r24, r25
    32c8:	39 f0       	breq	.+14     	; 0x32d8 <ProcessInput+0x666>
                                    inventory[1] = route[currDepth+1];
    32ca:	80 81       	ld	r24, Z
    32cc:	91 81       	ldd	r25, Z+1	; 0x01
    32ce:	80 93 46 38 	sts	0x3846, r24	; 0x803846 <inventory+0x2>
    32d2:	90 93 47 38 	sts	0x3847, r25	; 0x803847 <inventory+0x3>
    32d6:	06 c0       	rjmp	.+12     	; 0x32e4 <ProcessInput+0x672>
                                } else {
                                    inventory[0] = route[currDepth+1];
    32d8:	80 81       	ld	r24, Z
    32da:	91 81       	ldd	r25, Z+1	; 0x01
    32dc:	80 93 44 38 	sts	0x3844, r24	; 0x803844 <inventory>
    32e0:	90 93 45 38 	sts	0x3845, r25	; 0x803845 <inventory+0x1>
                                }
                                UpdateState(actObj1.byteField[ACTION_STATE]);
    32e4:	80 91 ec 38 	lds	r24, 0x38EC	; 0x8038ec <actObj1.3989+0xa>
    32e8:	0e 94 f8 09 	call	0x13f0	; 0x13f0 <UpdateState>
    32ec:	2b c0       	rjmp	.+86     	; 0x3344 <ProcessInput+0x6d2>
                } else SetResponse(elements++, A_NOSUCHOBJECT, L_NOSUCHOBJECT, TEASER);
            }
        } else

        //Drop item if in inventory
        if (data[0] == 'd') {
    32ee:	84 36       	cpi	r24, 0x64	; 100
    32f0:	d9 f4       	brne	.+54     	; 0x3328 <ProcessInput+0x6b6>
            if ((inventory[0] == 0)&&(inventory[1] == 0)){
    32f2:	80 91 44 38 	lds	r24, 0x3844	; 0x803844 <inventory>
    32f6:	90 91 45 38 	lds	r25, 0x3845	; 0x803845 <inventory+0x1>
    32fa:	00 97       	sbiw	r24, 0x00	; 0
    32fc:	09 f0       	breq	.+2      	; 0x3300 <ProcessInput+0x68e>
    32fe:	3c c4       	rjmp	.+2168   	; 0x3b78 <ProcessInput+0xf06>
    3300:	80 91 46 38 	lds	r24, 0x3846	; 0x803846 <inventory+0x2>
    3304:	90 91 47 38 	lds	r25, 0x3847	; 0x803847 <inventory+0x3>
    3308:	89 2b       	or	r24, r25
    330a:	49 f4       	brne	.+18     	; 0x331e <ProcessInput+0x6ac>
    return 0;
}

//
void SetResponse(uint8_t number, uint16_t address, uint16_t length, uint8_t type){
    reactStr[0][number]=address;
    330c:	86 ea       	ldi	r24, 0xA6	; 166
    330e:	97 e7       	ldi	r25, 0x77	; 119
    3310:	80 93 25 39 	sts	0x3925, r24	; 0x803925 <reactStr+0x2>
    3314:	90 93 26 39 	sts	0x3926, r25	; 0x803926 <reactStr+0x3>
    reactStr[1][number]=length;
    3318:	86 e2       	ldi	r24, 0x26	; 38
    331a:	90 e0       	ldi	r25, 0x00	; 0
    331c:	72 cd       	rjmp	.-1308   	; 0x2e02 <ProcessInput+0x190>

        //Drop item if in inventory
        if (data[0] == 'd') {
            if ((inventory[0] == 0)&&(inventory[1] == 0)){
                SetResponse(elements++, A_EMPTYHANDS, L_EMPTYHANDS, TEASER);
            } else if (inputLen != 2) {
    331e:	b2 e0       	ldi	r27, 0x02	; 2
    3320:	fb 16       	cp	r15, r27
    3322:	09 f4       	brne	.+2      	; 0x3326 <ProcessInput+0x6b4>
    3324:	8b c4       	rjmp	.+2326   	; 0x3c3c <ProcessInput+0xfca>
    3326:	d8 cc       	rjmp	.-1616   	; 0x2cd8 <ProcessInput+0x66>
                }
            }
        } 

        //Inventory list
        else if (data[0] == 'i') {
    3328:	89 36       	cpi	r24, 0x69	; 105
            if ((inventory[0] == 0)&&(inventory[1] == 0)){
    332a:	81 f4       	brne	.+32     	; 0x334c <ProcessInput+0x6da>
    332c:	80 91 44 38 	lds	r24, 0x3844	; 0x803844 <inventory>
    3330:	90 91 45 38 	lds	r25, 0x3845	; 0x803845 <inventory+0x1>
    3334:	89 2b       	or	r24, r25
    3336:	31 f4       	brne	.+12     	; 0x3344 <ProcessInput+0x6d2>
    3338:	80 91 46 38 	lds	r24, 0x3846	; 0x803846 <inventory+0x2>
    333c:	90 91 47 38 	lds	r25, 0x3847	; 0x803847 <inventory+0x3>
    3340:	89 2b       	or	r24, r25
                SetResponse(elements++, A_EMPTYHANDS, L_EMPTYHANDS, TEASER);
                } else {
                    elements = ShowInventory(elements);
    3342:	21 f3       	breq	.-56     	; 0x330c <ProcessInput+0x69a>
    3344:	81 e0       	ldi	r24, 0x01	; 1
    3346:	1a dc       	rcall	.-1996   	; 0x2b7c <ShowInventory>
    3348:	18 2f       	mov	r17, r24
    334a:	fe c3       	rjmp	.+2044   	; 0x3b48 <ProcessInput+0xed6>
                }        
        
        //Talk, use, give, read
        } else if ((data[0] == 't')||(data[0] == 'u')||(data[0] == 'g')||(data[0] == 'r')) {
    334c:	9c e8       	ldi	r25, 0x8C	; 140
    334e:	98 0f       	add	r25, r24
    3350:	92 30       	cpi	r25, 0x02	; 2
    3352:	28 f0       	brcs	.+10     	; 0x335e <ProcessInput+0x6ec>
    3354:	87 36       	cpi	r24, 0x67	; 103
    3356:	19 f0       	breq	.+6      	; 0x335e <ProcessInput+0x6ec>
    3358:	82 37       	cpi	r24, 0x72	; 114
    335a:	09 f0       	breq	.+2      	; 0x335e <ProcessInput+0x6ec>
    335c:	b5 c2       	rjmp	.+1386   	; 0x38c8 <ProcessInput+0xc56>
            if ((inputLen<2)||(inputLen>3)) {
    335e:	8e ef       	ldi	r24, 0xFE	; 254
    3360:	8f 0d       	add	r24, r15
    3362:	82 30       	cpi	r24, 0x02	; 2
    3364:	08 f0       	brcs	.+2      	; 0x3368 <ProcessInput+0x6f6>
    3366:	b8 cc       	rjmp	.-1680   	; 0x2cd8 <ProcessInput+0x66>
                SetResponse(elements++, A_NOTPOSSIBLE, L_NOTPOSSIBLE, TEASER);                
            
            //Check for visible person or object first
            } else {
                route[currDepth+1] = FindChild(route[currDepth], data[inputLen-1], 0);
    3368:	e0 91 35 38 	lds	r30, 0x3835	; 0x803835 <currDepth>
    336c:	0e 2f       	mov	r16, r30
    336e:	10 e0       	ldi	r17, 0x00	; 0
    3370:	d3 01       	movw	r26, r6
    3372:	af 0d       	add	r26, r15
    3374:	b1 1d       	adc	r27, r1
    3376:	11 97       	sbiw	r26, 0x01	; 1
    3378:	f8 01       	movw	r30, r16
    337a:	ee 0f       	add	r30, r30
    337c:	ff 1f       	adc	r31, r31
    337e:	ed 51       	subi	r30, 0x1D	; 29
    3380:	f6 4c       	sbci	r31, 0xC6	; 198
    3382:	40 e0       	ldi	r20, 0x00	; 0
    3384:	50 e0       	ldi	r21, 0x00	; 0
    3386:	6c 91       	ld	r22, X
    3388:	80 81       	ld	r24, Z
    338a:	91 81       	ldd	r25, Z+1	; 0x01
    338c:	de d8       	rcall	.-3652   	; 0x254a <FindChild>
    338e:	f8 01       	movw	r30, r16
    3390:	ee 0f       	add	r30, r30
    3392:	ff 1f       	adc	r31, r31
    3394:	eb 51       	subi	r30, 0x1B	; 27
    3396:	f6 4c       	sbci	r31, 0xC6	; 198
    3398:	80 83       	st	Z, r24
    339a:	91 83       	std	Z+1, r25	; 0x01
                if (route[currDepth+1]) {
    339c:	e0 91 35 38 	lds	r30, 0x3835	; 0x803835 <currDepth>
    33a0:	f0 e0       	ldi	r31, 0x00	; 0
    33a2:	ee 0f       	add	r30, r30
    33a4:	ff 1f       	adc	r31, r31
    33a6:	eb 51       	subi	r30, 0x1B	; 27
    33a8:	f6 4c       	sbci	r31, 0xC6	; 198
    33aa:	80 81       	ld	r24, Z
    33ac:	91 81       	ldd	r25, Z+1	; 0x01
    33ae:	00 97       	sbiw	r24, 0x00	; 0
    33b0:	09 f4       	brne	.+2      	; 0x33b4 <ProcessInput+0x742>
    33b2:	78 c2       	rjmp	.+1264   	; 0x38a4 <ProcessInput+0xc32>
                    
                    //Give item to person / use item on object 
                    if ((inputLen == 3)&&((data[0] == 'u')||(data[0] == 'g'))) {
    33b4:	f3 e0       	ldi	r31, 0x03	; 3
    33b6:	ff 12       	cpse	r15, r31
    33b8:	60 c1       	rjmp	.+704    	; 0x367a <ProcessInput+0xa08>
    33ba:	d3 01       	movw	r26, r6
    33bc:	2c 91       	ld	r18, X
    33be:	25 37       	cpi	r18, 0x75	; 117
    33c0:	19 f0       	breq	.+6      	; 0x33c8 <ProcessInput+0x756>
    33c2:	27 36       	cpi	r18, 0x67	; 103
    33c4:	09 f0       	breq	.+2      	; 0x33c8 <ProcessInput+0x756>
    33c6:	59 c1       	rjmp	.+690    	; 0x367a <ProcessInput+0xa08>
    33c8:	00 e0       	ldi	r16, 0x00	; 0
    33ca:	11 e0       	ldi	r17, 0x01	; 1
    return 0;
}

//
void SetResponse(uint8_t number, uint16_t address, uint16_t length, uint8_t type){
    reactStr[0][number]=address;
    33cc:	41 e6       	ldi	r20, 0x61	; 97
    33ce:	c4 2e       	mov	r12, r20
    33d0:	49 e7       	ldi	r20, 0x79	; 121
    33d2:	d4 2e       	mov	r13, r20
    reactStr[1][number]=length;
    33d4:	51 e2       	ldi	r21, 0x21	; 33
    33d6:	a5 2e       	mov	r10, r21
    33d8:	b1 2c       	mov	r11, r1
    reactStr[2][number]=type;
    33da:	88 24       	eor	r8, r8
    33dc:	83 94       	inc	r8
                if (route[currDepth+1]) {
                    
                    //Give item to person / use item on object 
                    if ((inputLen == 3)&&((data[0] == 'u')||(data[0] == 'g'))) {
                        for (uint8_t x=0; x<2; ++x) {
                            if (inventory[x]) { 
    33de:	91 2c       	mov	r9, r1
    33e0:	e0 2e       	mov	r14, r16
    33e2:	f1 2c       	mov	r15, r1
    33e4:	c7 01       	movw	r24, r14
    33e6:	88 0f       	add	r24, r24
    33e8:	99 1f       	adc	r25, r25
    33ea:	fc 01       	movw	r30, r24
    33ec:	ec 5b       	subi	r30, 0xBC	; 188
    33ee:	f7 4c       	sbci	r31, 0xC7	; 199
    33f0:	7f 01       	movw	r14, r30
    33f2:	80 81       	ld	r24, Z
    33f4:	91 81       	ldd	r25, Z+1	; 0x01
    33f6:	00 97       	sbiw	r24, 0x00	; 0
                                if (CheckLetter(inventory[x], data[1])) {
    33f8:	79 f0       	breq	.+30     	; 0x3418 <ProcessInput+0x7a6>
    33fa:	d3 01       	movw	r26, r6
    33fc:	11 96       	adiw	r26, 0x01	; 1
    33fe:	6c 91       	ld	r22, X
    3400:	5d d8       	rcall	.-3910   	; 0x24bc <CheckLetter>
    3402:	88 23       	and	r24, r24
    3404:	49 f0       	breq	.+18     	; 0x3418 <ProcessInput+0x7a6>
                                    PopulateObject(inventory[x], &actObj2);
    3406:	67 eb       	ldi	r22, 0xB7	; 183
    3408:	78 e3       	ldi	r23, 0x38	; 56
    340a:	f7 01       	movw	r30, r14
    340c:	80 81       	ld	r24, Z
    340e:	91 81       	ldd	r25, Z+1	; 0x01
    3410:	0e 94 e5 11 	call	0x23ca	; 0x23ca <PopulateObject>
                                    x = 2;
    3414:	02 e0       	ldi	r16, 0x02	; 2
    3416:	1d c0       	rjmp	.+58     	; 0x3452 <ProcessInput+0x7e0>
                                }
                            }
                            if (x == 1) { 
    3418:	01 30       	cpi	r16, 0x01	; 1
    341a:	d1 f4       	brne	.+52     	; 0x3450 <ProcessInput+0x7de>
    return 0;
}

//
void SetResponse(uint8_t number, uint16_t address, uint16_t length, uint8_t type){
    reactStr[0][number]=address;
    341c:	e1 2f       	mov	r30, r17
    341e:	f0 e0       	ldi	r31, 0x00	; 0
    3420:	df 01       	movw	r26, r30
    3422:	aa 0f       	add	r26, r26
    3424:	bb 1f       	adc	r27, r27
    3426:	ad 5d       	subi	r26, 0xDD	; 221
    3428:	b6 4c       	sbci	r27, 0xC6	; 198
    342a:	cd 92       	st	X+, r12
    342c:	dc 92       	st	X, r13
    reactStr[1][number]=length;
    342e:	df 01       	movw	r26, r30
    3430:	aa 0f       	add	r26, r26
    3432:	bb 1f       	adc	r27, r27
    3434:	ad 59       	subi	r26, 0x9D	; 157
    3436:	b6 4c       	sbci	r27, 0xC6	; 198
    3438:	ad 92       	st	X+, r10
    343a:	bc 92       	st	X, r11
    reactStr[2][number]=type;
    343c:	ee 0f       	add	r30, r30
    343e:	ff 1f       	adc	r31, r31
    3440:	ed 55       	subi	r30, 0x5D	; 93
    3442:	f6 4c       	sbci	r31, 0xC6	; 198
    3444:	80 82       	st	Z, r8
    3446:	91 82       	std	Z+1, r9	; 0x01
                                    x = 2;
                                }
                            }
                            if (x == 1) { 
                                SetResponse(elements++, A_NOTCARRYING, L_NOTCARRYING, TEASER);
                                data[0] = 0;
    3448:	d3 01       	movw	r26, r6
    344a:	1c 92       	st	X, r1
                                    PopulateObject(inventory[x], &actObj2);
                                    x = 2;
                                }
                            }
                            if (x == 1) { 
                                SetResponse(elements++, A_NOTCARRYING, L_NOTCARRYING, TEASER);
    344c:	1f 5f       	subi	r17, 0xFF	; 255
    344e:	01 c0       	rjmp	.+2      	; 0x3452 <ProcessInput+0x7e0>
    3450:	00 e0       	ldi	r16, 0x00	; 0
                route[currDepth+1] = FindChild(route[currDepth], data[inputLen-1], 0);
                if (route[currDepth+1]) {
                    
                    //Give item to person / use item on object 
                    if ((inputLen == 3)&&((data[0] == 'u')||(data[0] == 'g'))) {
                        for (uint8_t x=0; x<2; ++x) {
    3452:	0f 5f       	subi	r16, 0xFF	; 255
    3454:	01 30       	cpi	r16, 0x01	; 1
    3456:	21 f2       	breq	.-120    	; 0x33e0 <ProcessInput+0x76e>
                                data[0] = 0;
                            }
                        }

                        //Both the item and person/object are found, check if action is legit
                        if (data[0]){
    3458:	f3 01       	movw	r30, r6
    345a:	80 81       	ld	r24, Z
    345c:	88 23       	and	r24, r24
    345e:	09 f4       	brne	.+2      	; 0x3462 <ProcessInput+0x7f0>
    3460:	73 c3       	rjmp	.+1766   	; 0x3b48 <ProcessInput+0xed6>
                            PopulateObject(route[currDepth+1], &actObj1);
    3462:	e0 91 35 38 	lds	r30, 0x3835	; 0x803835 <currDepth>
    3466:	f0 e0       	ldi	r31, 0x00	; 0
    3468:	ee 0f       	add	r30, r30
    346a:	ff 1f       	adc	r31, r31
    346c:	eb 51       	subi	r30, 0x1B	; 27
    346e:	f6 4c       	sbci	r31, 0xC6	; 198
    3470:	62 ee       	ldi	r22, 0xE2	; 226
    3472:	78 e3       	ldi	r23, 0x38	; 56
    3474:	80 81       	ld	r24, Z
    3476:	91 81       	ldd	r25, Z+1	; 0x01
    3478:	0e 94 e5 11 	call	0x23ca	; 0x23ca <PopulateObject>

                            //Special game
                            if (actObj1.lenStr[ACTION_STR1] == 1) {
    347c:	e0 90 00 39 	lds	r14, 0x3900	; 0x803900 <actObj1.3989+0x1e>
    3480:	f0 90 01 39 	lds	r15, 0x3901	; 0x803901 <actObj1.3989+0x1f>
    3484:	f1 e0       	ldi	r31, 0x01	; 1
    3486:	ef 16       	cp	r14, r31
    3488:	f1 04       	cpc	r15, r1
    348a:	09 f0       	breq	.+2      	; 0x348e <ProcessInput+0x81c>
    348c:	89 c0       	rjmp	.+274    	; 0x35a0 <ProcessInput+0x92e>
                                ExtEERead(actObj1.addrStr[ACTION_STR1], 1, GAME, &data[2]);
    348e:	93 01       	movw	r18, r6
    3490:	2e 5f       	subi	r18, 0xFE	; 254
    3492:	3f 4f       	sbci	r19, 0xFF	; 255
    3494:	40 e0       	ldi	r20, 0x00	; 0
    3496:	61 e0       	ldi	r22, 0x01	; 1
    3498:	80 91 f2 38 	lds	r24, 0x38F2	; 0x8038f2 <actObj1.3989+0x10>
    349c:	90 91 f3 38 	lds	r25, 0x38F3	; 0x8038f3 <actObj1.3989+0x11>
    34a0:	0e 94 62 08 	call	0x10c4	; 0x10c4 <ExtEERead>
                                if (data[2] == '1') {
    34a4:	d3 01       	movw	r26, r6
    34a6:	12 96       	adiw	r26, 0x02	; 2
    34a8:	3c 91       	ld	r19, X
    34aa:	31 33       	cpi	r19, 0x31	; 49
    34ac:	09 f0       	breq	.+2      	; 0x34b0 <ProcessInput+0x83e>
    34ae:	4c c3       	rjmp	.+1688   	; 0x3b48 <ProcessInput+0xed6>
                                    uint8_t item = actObj2.byteField[ITEM_NR];
    34b0:	20 91 c2 38 	lds	r18, 0x38C2	; 0x8038c2 <actObj2.3990+0xb>
                                    if ((item < 31)||(item > 34)) {
    34b4:	51 ee       	ldi	r21, 0xE1	; 225
    34b6:	52 0f       	add	r21, r18
    34b8:	41 e0       	ldi	r20, 0x01	; 1
    34ba:	41 0f       	add	r20, r17
    34bc:	81 2f       	mov	r24, r17
    34be:	90 e0       	ldi	r25, 0x00	; 0
    return 0;
}

//
void SetResponse(uint8_t number, uint16_t address, uint16_t length, uint8_t type){
    reactStr[0][number]=address;
    34c0:	fc 01       	movw	r30, r24
    34c2:	ee 0f       	add	r30, r30
    34c4:	ff 1f       	adc	r31, r31
    34c6:	ed 5d       	subi	r30, 0xDD	; 221
    34c8:	f6 4c       	sbci	r31, 0xC6	; 198
                            //Special game
                            if (actObj1.lenStr[ACTION_STR1] == 1) {
                                ExtEERead(actObj1.addrStr[ACTION_STR1], 1, GAME, &data[2]);
                                if (data[2] == '1') {
                                    uint8_t item = actObj2.byteField[ITEM_NR];
                                    if ((item < 31)||(item > 34)) {
    34ca:	54 30       	cpi	r21, 0x04	; 4
    34cc:	b0 f0       	brcs	.+44     	; 0x34fa <ProcessInput+0x888>
    return 0;
}

//
void SetResponse(uint8_t number, uint16_t address, uint16_t length, uint8_t type){
    reactStr[0][number]=address;
    34ce:	21 e0       	ldi	r18, 0x01	; 1
    34d0:	39 e7       	ldi	r19, 0x79	; 121
    34d2:	20 83       	st	Z, r18
    34d4:	31 83       	std	Z+1, r19	; 0x01
    reactStr[1][number]=length;
    34d6:	fc 01       	movw	r30, r24
    34d8:	ee 0f       	add	r30, r30
    34da:	ff 1f       	adc	r31, r31
    34dc:	ed 59       	subi	r30, 0x9D	; 157
    34de:	f6 4c       	sbci	r31, 0xC6	; 198
    34e0:	2a e1       	ldi	r18, 0x1A	; 26
    34e2:	30 e0       	ldi	r19, 0x00	; 0
    34e4:	20 83       	st	Z, r18
    34e6:	31 83       	std	Z+1, r19	; 0x01
    reactStr[2][number]=type;
    34e8:	88 0f       	add	r24, r24
    34ea:	99 1f       	adc	r25, r25
    34ec:	fc 01       	movw	r30, r24
    34ee:	ed 55       	subi	r30, 0x5D	; 93
    34f0:	f6 4c       	sbci	r31, 0xC6	; 198
    34f2:	e0 82       	st	Z, r14
    34f4:	f1 82       	std	Z+1, r15	; 0x01
                            if (actObj1.lenStr[ACTION_STR1] == 1) {
                                ExtEERead(actObj1.addrStr[ACTION_STR1], 1, GAME, &data[2]);
                                if (data[2] == '1') {
                                    uint8_t item = actObj2.byteField[ITEM_NR];
                                    if ((item < 31)||(item > 34)) {
                                        SetResponse(elements++, A_CANTUSE, L_CANTUSE, TEASER);
    34f6:	14 2f       	mov	r17, r20
    34f8:	27 c3       	rjmp	.+1614   	; 0x3b48 <ProcessInput+0xed6>
    return 0;
}

//
void SetResponse(uint8_t number, uint16_t address, uint16_t length, uint8_t type){
    reactStr[0][number]=address;
    34fa:	60 e5       	ldi	r22, 0x50	; 80
    34fc:	75 e7       	ldi	r23, 0x75	; 117
    34fe:	60 83       	st	Z, r22
    3500:	71 83       	std	Z+1, r23	; 0x01
    reactStr[1][number]=length;
    3502:	fc 01       	movw	r30, r24
    3504:	ee 0f       	add	r30, r30
    3506:	ff 1f       	adc	r31, r31
    3508:	ed 59       	subi	r30, 0x9D	; 157
    350a:	f6 4c       	sbci	r31, 0xC6	; 198
    350c:	62 eb       	ldi	r22, 0xB2	; 178
    350e:	70 e0       	ldi	r23, 0x00	; 0
    3510:	60 83       	st	Z, r22
    3512:	71 83       	std	Z+1, r23	; 0x01
    reactStr[2][number]=type;
    3514:	88 0f       	add	r24, r24
    3516:	99 1f       	adc	r25, r25
    3518:	fc 01       	movw	r30, r24
    351a:	ed 55       	subi	r30, 0x5D	; 93
    351c:	f6 4c       	sbci	r31, 0xC6	; 198
    351e:	e0 82       	st	Z, r14
    3520:	f1 82       	std	Z+1, r15	; 0x01
    return 0;
}

//
void SetResponse(uint8_t number, uint16_t address, uint16_t length, uint8_t type){
    reactStr[0][number]=address;
    3522:	84 2f       	mov	r24, r20
    3524:	90 e0       	ldi	r25, 0x00	; 0
    3526:	fc 01       	movw	r30, r24
    3528:	ee 0f       	add	r30, r30
    352a:	ff 1f       	adc	r31, r31
    352c:	ed 5d       	subi	r30, 0xDD	; 221
    352e:	f6 4c       	sbci	r31, 0xC6	; 198
    3530:	49 e5       	ldi	r20, 0x59	; 89
    3532:	5a e7       	ldi	r21, 0x7A	; 122
    3534:	40 83       	st	Z, r20
    3536:	51 83       	std	Z+1, r21	; 0x01
    reactStr[1][number]=length;
    3538:	fc 01       	movw	r30, r24
    353a:	ee 0f       	add	r30, r30
    353c:	ff 1f       	adc	r31, r31
    353e:	ed 59       	subi	r30, 0x9D	; 157
    3540:	f6 4c       	sbci	r31, 0xC6	; 198
    3542:	42 e0       	ldi	r20, 0x02	; 2
    3544:	50 e0       	ldi	r21, 0x00	; 0
    3546:	40 83       	st	Z, r20
    3548:	51 83       	std	Z+1, r21	; 0x01
    reactStr[2][number]=type;
    354a:	88 0f       	add	r24, r24
    354c:	99 1f       	adc	r25, r25
    354e:	fc 01       	movw	r30, r24
    3550:	ed 55       	subi	r30, 0x5D	; 93
    3552:	f6 4c       	sbci	r31, 0xC6	; 198
    3554:	e0 82       	st	Z, r14
    3556:	f1 82       	std	Z+1, r15	; 0x01
    return 0;
}

//
void SetResponse(uint8_t number, uint16_t address, uint16_t length, uint8_t type){
    reactStr[0][number]=address;
    3558:	82 e0       	ldi	r24, 0x02	; 2
    355a:	81 0f       	add	r24, r17
    355c:	90 e0       	ldi	r25, 0x00	; 0
    355e:	1d 5f       	subi	r17, 0xFD	; 253
    3560:	fc 01       	movw	r30, r24
    3562:	ee 0f       	add	r30, r30
    3564:	ff 1f       	adc	r31, r31
    3566:	ed 5d       	subi	r30, 0xDD	; 221
    3568:	f6 4c       	sbci	r31, 0xC6	; 198
    356a:	4d ea       	ldi	r20, 0xAD	; 173
    356c:	58 e7       	ldi	r21, 0x78	; 120
    356e:	40 83       	st	Z, r20
    3570:	51 83       	std	Z+1, r21	; 0x01
    reactStr[1][number]=length;
    3572:	fc 01       	movw	r30, r24
    3574:	ee 0f       	add	r30, r30
    3576:	ff 1f       	adc	r31, r31
    3578:	ed 59       	subi	r30, 0x9D	; 157
    357a:	f6 4c       	sbci	r31, 0xC6	; 198
    357c:	42 e1       	ldi	r20, 0x12	; 18
    357e:	50 e0       	ldi	r21, 0x00	; 0
    3580:	40 83       	st	Z, r20
    3582:	51 83       	std	Z+1, r21	; 0x01
    reactStr[2][number]=type;
    3584:	88 0f       	add	r24, r24
    3586:	99 1f       	adc	r25, r25
    3588:	fc 01       	movw	r30, r24
    358a:	ed 55       	subi	r30, 0x5D	; 93
    358c:	f6 4c       	sbci	r31, 0xC6	; 198
    358e:	e0 82       	st	Z, r14
    3590:	f1 82       	std	Z+1, r15	; 0x01
                                        SetResponse(elements++, A_CANTUSE, L_CANTUSE, TEASER);
                                    } else {
                                        SetResponse(elements++, A_PRIEST, L_PRIEST, TEASER);
                                        SetResponse(elements++, A_LF, 2, TEASER);
                                        SetResponse(elements++, A_RESPONSE, L_RESPONSE, TEASER);
                                        specialInput[0] = '1';
    3592:	30 93 12 39 	sts	0x3912, r19	; 0x803912 <specialInput>
                                        specialInput[1] = item;
    3596:	20 93 13 39 	sts	0x3913, r18	; 0x803913 <specialInput+0x1>
                                        specialInput[2] = 0;
    359a:	10 92 14 39 	sts	0x3914, r1	; 0x803914 <specialInput+0x2>
    359e:	d4 c2       	rjmp	.+1448   	; 0x3b48 <ProcessInput+0xed6>
                                    }
                                }

                            //Normal "use ... on ..." or "give ... to ..." action
                            } else if (actObj1.byteField[ACTION_ITEM] == actObj2.byteField[ITEM_NR]) {
    35a0:	90 91 eb 38 	lds	r25, 0x38EB	; 0x8038eb <actObj1.3989+0x9>
    35a4:	80 91 c2 38 	lds	r24, 0x38C2	; 0x8038c2 <actObj2.3990+0xb>
    35a8:	98 13       	cpse	r25, r24
    35aa:	2e c0       	rjmp	.+92     	; 0x3608 <ProcessInput+0x996>
                                SetResponse(elements++, actObj1.addrStr[ACTION_MSG], actObj1.lenStr[ACTION_MSG], GAME);
    35ac:	20 91 08 39 	lds	r18, 0x3908	; 0x803908 <actObj1.3989+0x26>
    35b0:	30 91 09 39 	lds	r19, 0x3909	; 0x803909 <actObj1.3989+0x27>
    35b4:	01 e0       	ldi	r16, 0x01	; 1
    35b6:	01 0f       	add	r16, r17
    return 0;
}

//
void SetResponse(uint8_t number, uint16_t address, uint16_t length, uint8_t type){
    reactStr[0][number]=address;
    35b8:	81 2f       	mov	r24, r17
    35ba:	90 e0       	ldi	r25, 0x00	; 0
    35bc:	fc 01       	movw	r30, r24
    35be:	ee 0f       	add	r30, r30
    35c0:	ff 1f       	adc	r31, r31
    35c2:	ed 5d       	subi	r30, 0xDD	; 221
    35c4:	f6 4c       	sbci	r31, 0xC6	; 198
    35c6:	40 91 fa 38 	lds	r20, 0x38FA	; 0x8038fa <actObj1.3989+0x18>
    35ca:	50 91 fb 38 	lds	r21, 0x38FB	; 0x8038fb <actObj1.3989+0x19>
    35ce:	40 83       	st	Z, r20
    35d0:	51 83       	std	Z+1, r21	; 0x01
    reactStr[1][number]=length;
    35d2:	fc 01       	movw	r30, r24
    35d4:	ee 0f       	add	r30, r30
    35d6:	ff 1f       	adc	r31, r31
    35d8:	ed 59       	subi	r30, 0x9D	; 157
    35da:	f6 4c       	sbci	r31, 0xC6	; 198
    35dc:	20 83       	st	Z, r18
    35de:	31 83       	std	Z+1, r19	; 0x01
    reactStr[2][number]=type;
    35e0:	88 0f       	add	r24, r24
    35e2:	99 1f       	adc	r25, r25
    35e4:	fc 01       	movw	r30, r24
    35e6:	ed 55       	subi	r30, 0x5D	; 93
    35e8:	f6 4c       	sbci	r31, 0xC6	; 198
    35ea:	10 82       	st	Z, r1
    35ec:	11 82       	std	Z+1, r1	; 0x01
                                }

                            //Normal "use ... on ..." or "give ... to ..." action
                            } else if (actObj1.byteField[ACTION_ITEM] == actObj2.byteField[ITEM_NR]) {
                                SetResponse(elements++, actObj1.addrStr[ACTION_MSG], actObj1.lenStr[ACTION_MSG], GAME);
                                effect = actObj1.effect[2];
    35ee:	80 91 0c 39 	lds	r24, 0x390C	; 0x80390c <actObj1.3989+0x2a>
    35f2:	90 e0       	ldi	r25, 0x00	; 0
    35f4:	80 93 40 38 	sts	0x3840, r24	; 0x803840 <effect>
    35f8:	90 93 41 38 	sts	0x3841, r25	; 0x803841 <effect+0x1>
                                UpdateState(actObj1.byteField[ACTION_STATE]);
    35fc:	80 91 ec 38 	lds	r24, 0x38EC	; 0x8038ec <actObj1.3989+0xa>
    3600:	0e 94 f8 09 	call	0x13f0	; 0x13f0 <UpdateState>
                                    }
                                }

                            //Normal "use ... on ..." or "give ... to ..." action
                            } else if (actObj1.byteField[ACTION_ITEM] == actObj2.byteField[ITEM_NR]) {
                                SetResponse(elements++, actObj1.addrStr[ACTION_MSG], actObj1.lenStr[ACTION_MSG], GAME);
    3604:	10 2f       	mov	r17, r16
    3606:	a0 c2       	rjmp	.+1344   	; 0x3b48 <ProcessInput+0xed6>
                                effect = actObj1.effect[2];
                                UpdateState(actObj1.byteField[ACTION_STATE]);
                                
                            } else {
                                if (data[0] == 'u') {
    3608:	f3 01       	movw	r30, r6
    360a:	80 81       	ld	r24, Z
    360c:	85 37       	cpi	r24, 0x75	; 117
    360e:	99 f4       	brne	.+38     	; 0x3636 <ProcessInput+0x9c4>
    return 0;
}

//
void SetResponse(uint8_t number, uint16_t address, uint16_t length, uint8_t type){
    reactStr[0][number]=address;
    3610:	81 2f       	mov	r24, r17
    3612:	90 e0       	ldi	r25, 0x00	; 0
    3614:	fc 01       	movw	r30, r24
    3616:	ee 0f       	add	r30, r30
    3618:	ff 1f       	adc	r31, r31
    361a:	ed 5d       	subi	r30, 0xDD	; 221
    361c:	f6 4c       	sbci	r31, 0xC6	; 198
    361e:	21 e0       	ldi	r18, 0x01	; 1
    3620:	39 e7       	ldi	r19, 0x79	; 121
    3622:	20 83       	st	Z, r18
    3624:	31 83       	std	Z+1, r19	; 0x01
    reactStr[1][number]=length;
    3626:	fc 01       	movw	r30, r24
    3628:	ee 0f       	add	r30, r30
    362a:	ff 1f       	adc	r31, r31
    362c:	ed 59       	subi	r30, 0x9D	; 157
    362e:	f6 4c       	sbci	r31, 0xC6	; 198
    3630:	2a e1       	ldi	r18, 0x1A	; 26
    3632:	30 e0       	ldi	r19, 0x00	; 0
    3634:	15 c0       	rjmp	.+42     	; 0x3660 <ProcessInput+0x9ee>
                                UpdateState(actObj1.byteField[ACTION_STATE]);
                                
                            } else {
                                if (data[0] == 'u') {
                                    SetResponse(elements++, A_CANTUSE, L_CANTUSE, TEASER);
                                } else if (data[0] == 'g') {
    3636:	87 36       	cpi	r24, 0x67	; 103
    3638:	09 f0       	breq	.+2      	; 0x363c <ProcessInput+0x9ca>
    363a:	86 c2       	rjmp	.+1292   	; 0x3b48 <ProcessInput+0xed6>
    return 0;
}

//
void SetResponse(uint8_t number, uint16_t address, uint16_t length, uint8_t type){
    reactStr[0][number]=address;
    363c:	81 2f       	mov	r24, r17
    363e:	90 e0       	ldi	r25, 0x00	; 0
    3640:	fc 01       	movw	r30, r24
    3642:	ee 0f       	add	r30, r30
    3644:	ff 1f       	adc	r31, r31
    3646:	ed 5d       	subi	r30, 0xDD	; 221
    3648:	f6 4c       	sbci	r31, 0xC6	; 198
    364a:	2f e9       	ldi	r18, 0x9F	; 159
    364c:	36 e7       	ldi	r19, 0x76	; 118
    364e:	20 83       	st	Z, r18
    3650:	31 83       	std	Z+1, r19	; 0x01
    reactStr[1][number]=length;
    3652:	fc 01       	movw	r30, r24
    3654:	ee 0f       	add	r30, r30
    3656:	ff 1f       	adc	r31, r31
    3658:	ed 59       	subi	r30, 0x9D	; 157
    365a:	f6 4c       	sbci	r31, 0xC6	; 198
    365c:	28 e2       	ldi	r18, 0x28	; 40
    365e:	30 e0       	ldi	r19, 0x00	; 0
    3660:	20 83       	st	Z, r18
    3662:	31 83       	std	Z+1, r19	; 0x01
    reactStr[2][number]=type;
    3664:	88 0f       	add	r24, r24
    3666:	99 1f       	adc	r25, r25
    3668:	fc 01       	movw	r30, r24
    366a:	ed 55       	subi	r30, 0x5D	; 93
    366c:	f6 4c       	sbci	r31, 0xC6	; 198
    366e:	81 e0       	ldi	r24, 0x01	; 1
    3670:	90 e0       	ldi	r25, 0x00	; 0
    3672:	80 83       	st	Z, r24
    3674:	91 83       	std	Z+1, r25	; 0x01
                                
                            } else {
                                if (data[0] == 'u') {
                                    SetResponse(elements++, A_CANTUSE, L_CANTUSE, TEASER);
                                } else if (data[0] == 'g') {
                                    SetResponse(elements++, A_CANTGIVE, L_CANTGIVE, TEASER);                                    
    3676:	1f 5f       	subi	r17, 0xFF	; 255
    3678:	67 c2       	rjmp	.+1230   	; 0x3b48 <ProcessInput+0xed6>
                            }
                        }
                    
                    //Talk to person, read or use object (without item)                          
                    } else {
                        PopulateObject(route[currDepth+1], &actObj1);
    367a:	62 ee       	ldi	r22, 0xE2	; 226
    367c:	78 e3       	ldi	r23, 0x38	; 56
    367e:	0e 94 e5 11 	call	0x23ca	; 0x23ca <PopulateObject>
                        if ((data[0] == 't')&&((actObj1.byteField[ACTION_MASK]&TALK) == 0)) {
    3682:	d3 01       	movw	r26, r6
    3684:	8c 91       	ld	r24, X
    3686:	84 37       	cpi	r24, 0x74	; 116
    3688:	61 f5       	brne	.+88     	; 0x36e2 <ProcessInput+0xa70>
    368a:	80 91 ea 38 	lds	r24, 0x38EA	; 0x8038ea <actObj1.3989+0x8>
    368e:	83 fd       	sbrc	r24, 3
    3690:	43 c0       	rjmp	.+134    	; 0x3718 <ProcessInput+0xaa6>
    return 0;
}

//
void SetResponse(uint8_t number, uint16_t address, uint16_t length, uint8_t type){
    reactStr[0][number]=address;
    3692:	8b e1       	ldi	r24, 0x1B	; 27
    3694:	99 e7       	ldi	r25, 0x79	; 121
    3696:	80 93 25 39 	sts	0x3925, r24	; 0x803925 <reactStr+0x2>
    369a:	90 93 26 39 	sts	0x3926, r25	; 0x803926 <reactStr+0x3>
    reactStr[1][number]=length;
    369e:	8e e1       	ldi	r24, 0x1E	; 30
    36a0:	90 e0       	ldi	r25, 0x00	; 0
    36a2:	80 93 65 39 	sts	0x3965, r24	; 0x803965 <reactStr+0x42>
    36a6:	90 93 66 39 	sts	0x3966, r25	; 0x803966 <reactStr+0x43>
    reactStr[2][number]=type;
    36aa:	81 e0       	ldi	r24, 0x01	; 1
    36ac:	90 e0       	ldi	r25, 0x00	; 0
    36ae:	80 93 a5 39 	sts	0x39A5, r24	; 0x8039a5 <reactStr+0x82>
    36b2:	90 93 a6 39 	sts	0x39A6, r25	; 0x8039a6 <reactStr+0x83>
                    //Talk to person, read or use object (without item)                          
                    } else {
                        PopulateObject(route[currDepth+1], &actObj1);
                        if ((data[0] == 't')&&((actObj1.byteField[ACTION_MASK]&TALK) == 0)) {
                            SetResponse(elements++, A_WHYTALK, L_WHYTALK, TEASER);
                            SetResponse(elements++, actObj1.addrStr[NAME], actObj1.lenStr[NAME], GAME);
    36b6:	80 91 fc 38 	lds	r24, 0x38FC	; 0x8038fc <actObj1.3989+0x1a>
    36ba:	90 91 fd 38 	lds	r25, 0x38FD	; 0x8038fd <actObj1.3989+0x1b>
    return 0;
}

//
void SetResponse(uint8_t number, uint16_t address, uint16_t length, uint8_t type){
    reactStr[0][number]=address;
    36be:	20 91 ee 38 	lds	r18, 0x38EE	; 0x8038ee <actObj1.3989+0xc>
    36c2:	30 91 ef 38 	lds	r19, 0x38EF	; 0x8038ef <actObj1.3989+0xd>
    36c6:	20 93 27 39 	sts	0x3927, r18	; 0x803927 <reactStr+0x4>
    36ca:	30 93 28 39 	sts	0x3928, r19	; 0x803928 <reactStr+0x5>
    reactStr[1][number]=length;
    36ce:	80 93 67 39 	sts	0x3967, r24	; 0x803967 <reactStr+0x44>
    36d2:	90 93 68 39 	sts	0x3968, r25	; 0x803968 <reactStr+0x45>
    reactStr[2][number]=type;
    36d6:	10 92 a7 39 	sts	0x39A7, r1	; 0x8039a7 <reactStr+0x84>
    36da:	10 92 a8 39 	sts	0x39A8, r1	; 0x8039a8 <reactStr+0x85>
                    //Talk to person, read or use object (without item)                          
                    } else {
                        PopulateObject(route[currDepth+1], &actObj1);
                        if ((data[0] == 't')&&((actObj1.byteField[ACTION_MASK]&TALK) == 0)) {
                            SetResponse(elements++, A_WHYTALK, L_WHYTALK, TEASER);
                            SetResponse(elements++, actObj1.addrStr[NAME], actObj1.lenStr[NAME], GAME);
    36de:	13 e0       	ldi	r17, 0x03	; 3
    36e0:	33 c2       	rjmp	.+1126   	; 0x3b48 <ProcessInput+0xed6>
                        } else if ((data[0] == 'u')&&((actObj1.byteField[ACTION_MASK]&USE) == 0)) {
    36e2:	85 37       	cpi	r24, 0x75	; 117
    36e4:	39 f4       	brne	.+14     	; 0x36f4 <ProcessInput+0xa82>
    36e6:	80 91 ea 38 	lds	r24, 0x38EA	; 0x8038ea <actObj1.3989+0x8>
    36ea:	84 fd       	sbrc	r24, 4
    36ec:	15 c0       	rjmp	.+42     	; 0x3718 <ProcessInput+0xaa6>
    return 0;
}

//
void SetResponse(uint8_t number, uint16_t address, uint16_t length, uint8_t type){
    reactStr[0][number]=address;
    36ee:	81 e0       	ldi	r24, 0x01	; 1
    36f0:	99 e7       	ldi	r25, 0x79	; 121
    36f2:	3b c2       	rjmp	.+1142   	; 0x3b6a <ProcessInput+0xef8>
                        if ((data[0] == 't')&&((actObj1.byteField[ACTION_MASK]&TALK) == 0)) {
                            SetResponse(elements++, A_WHYTALK, L_WHYTALK, TEASER);
                            SetResponse(elements++, actObj1.addrStr[NAME], actObj1.lenStr[NAME], GAME);
                        } else if ((data[0] == 'u')&&((actObj1.byteField[ACTION_MASK]&USE) == 0)) {
                            SetResponse(elements++, A_CANTUSE, L_CANTUSE, TEASER);
                        } else if ((data[0] == 'r')&&((actObj1.byteField[ACTION_MASK]&READ) == 0)) {
    36f4:	82 37       	cpi	r24, 0x72	; 114
    36f6:	69 f4       	brne	.+26     	; 0x3712 <ProcessInput+0xaa0>
    36f8:	80 91 ea 38 	lds	r24, 0x38EA	; 0x8038ea <actObj1.3989+0x8>
    36fc:	85 fd       	sbrc	r24, 5
    36fe:	0c c0       	rjmp	.+24     	; 0x3718 <ProcessInput+0xaa6>
    return 0;
}

//
void SetResponse(uint8_t number, uint16_t address, uint16_t length, uint8_t type){
    reactStr[0][number]=address;
    3700:	86 ee       	ldi	r24, 0xE6	; 230
    3702:	98 e7       	ldi	r25, 0x78	; 120
    3704:	80 93 25 39 	sts	0x3925, r24	; 0x803925 <reactStr+0x2>
    3708:	90 93 26 39 	sts	0x3926, r25	; 0x803926 <reactStr+0x3>
    reactStr[1][number]=length;
    370c:	8b e1       	ldi	r24, 0x1B	; 27
    370e:	90 e0       	ldi	r25, 0x00	; 0
    3710:	78 cb       	rjmp	.-2320   	; 0x2e02 <ProcessInput+0x190>
                            SetResponse(elements++, actObj1.addrStr[NAME], actObj1.lenStr[NAME], GAME);
                        } else if ((data[0] == 'u')&&((actObj1.byteField[ACTION_MASK]&USE) == 0)) {
                            SetResponse(elements++, A_CANTUSE, L_CANTUSE, TEASER);
                        } else if ((data[0] == 'r')&&((actObj1.byteField[ACTION_MASK]&READ) == 0)) {
                            SetResponse(elements++, A_CANTREAD, L_CANTREAD, TEASER);
                        } else if (data[0] == 'g'){ 
    3712:	87 36       	cpi	r24, 0x67	; 103
    3714:	09 f4       	brne	.+2      	; 0x3718 <ProcessInput+0xaa6>
    3716:	e0 ca       	rjmp	.-2624   	; 0x2cd8 <ProcessInput+0x66>
                            SetResponse(elements++, A_NOTPOSSIBLE, L_NOTPOSSIBLE, TEASER);  
                        } else {

                            //Special game, not enough characters
                            if (actObj1.lenStr[ACTION_STR1] == 1) {
    3718:	00 91 00 39 	lds	r16, 0x3900	; 0x803900 <actObj1.3989+0x1e>
    371c:	10 91 01 39 	lds	r17, 0x3901	; 0x803901 <actObj1.3989+0x1f>
    3720:	01 30       	cpi	r16, 0x01	; 1
    3722:	11 05       	cpc	r17, r1
    3724:	09 f5       	brne	.+66     	; 0x3768 <ProcessInput+0xaf6>
                                ExtEERead(actObj1.addrStr[ACTION_STR1], 1, GAME, &data[2]);
    3726:	93 01       	movw	r18, r6
    3728:	2e 5f       	subi	r18, 0xFE	; 254
    372a:	3f 4f       	sbci	r19, 0xFF	; 255
    372c:	40 e0       	ldi	r20, 0x00	; 0
    372e:	61 e0       	ldi	r22, 0x01	; 1
    3730:	80 91 f2 38 	lds	r24, 0x38F2	; 0x8038f2 <actObj1.3989+0x10>
    3734:	90 91 f3 38 	lds	r25, 0x38F3	; 0x8038f3 <actObj1.3989+0x11>
    3738:	0e 94 62 08 	call	0x10c4	; 0x10c4 <ExtEERead>
                                if (data[2] == '1') {
    373c:	f3 01       	movw	r30, r6
    373e:	82 81       	ldd	r24, Z+2	; 0x02
    3740:	81 33       	cpi	r24, 0x31	; 49
    3742:	09 f0       	breq	.+2      	; 0x3746 <ProcessInput+0xad4>
    3744:	13 cd       	rjmp	.-1498   	; 0x316c <ProcessInput+0x4fa>
    return 0;
}

//
void SetResponse(uint8_t number, uint16_t address, uint16_t length, uint8_t type){
    reactStr[0][number]=address;
    3746:	85 e2       	ldi	r24, 0x25	; 37
    3748:	95 e7       	ldi	r25, 0x75	; 117
    374a:	80 93 25 39 	sts	0x3925, r24	; 0x803925 <reactStr+0x2>
    374e:	90 93 26 39 	sts	0x3926, r25	; 0x803926 <reactStr+0x3>
    reactStr[1][number]=length;
    3752:	8b e2       	ldi	r24, 0x2B	; 43
    3754:	90 e0       	ldi	r25, 0x00	; 0
    3756:	80 93 65 39 	sts	0x3965, r24	; 0x803965 <reactStr+0x42>
    375a:	90 93 66 39 	sts	0x3966, r25	; 0x803966 <reactStr+0x43>
    reactStr[2][number]=type;
    375e:	00 93 a5 39 	sts	0x39A5, r16	; 0x8039a5 <reactStr+0x82>
    3762:	10 93 a6 39 	sts	0x39A6, r17	; 0x8039a6 <reactStr+0x83>
    3766:	57 cb       	rjmp	.-2386   	; 0x2e16 <ProcessInput+0x1a4>
                                if (data[2] == '1') {
                                    SetResponse(elements++, A_PLEASEOFFER, L_PLEASEOFFER, TEASER);
                                }

                            //General request
                            } else if (actObj1.lenStr[ACTION_STR1]) {
    3768:	01 15       	cp	r16, r1
    376a:	11 05       	cpc	r17, r1
    376c:	09 f4       	brne	.+2      	; 0x3770 <ProcessInput+0xafe>
    376e:	58 c0       	rjmp	.+176    	; 0x3820 <ProcessInput+0xbae>
    return 0;
}

//
void SetResponse(uint8_t number, uint16_t address, uint16_t length, uint8_t type){
    reactStr[0][number]=address;
    3770:	80 91 f2 38 	lds	r24, 0x38F2	; 0x8038f2 <actObj1.3989+0x10>
    3774:	90 91 f3 38 	lds	r25, 0x38F3	; 0x8038f3 <actObj1.3989+0x11>
    3778:	80 93 25 39 	sts	0x3925, r24	; 0x803925 <reactStr+0x2>
    377c:	90 93 26 39 	sts	0x3926, r25	; 0x803926 <reactStr+0x3>
    reactStr[1][number]=length;
    3780:	00 93 65 39 	sts	0x3965, r16	; 0x803965 <reactStr+0x42>
    3784:	10 93 66 39 	sts	0x3966, r17	; 0x803966 <reactStr+0x43>
    reactStr[2][number]=type;
    3788:	10 92 a5 39 	sts	0x39A5, r1	; 0x8039a5 <reactStr+0x82>
    378c:	10 92 a6 39 	sts	0x39A6, r1	; 0x8039a6 <reactStr+0x83>
    return 0;
}

//
void SetResponse(uint8_t number, uint16_t address, uint16_t length, uint8_t type){
    reactStr[0][number]=address;
    3790:	89 e5       	ldi	r24, 0x59	; 89
    3792:	9a e7       	ldi	r25, 0x7A	; 122
    3794:	80 93 27 39 	sts	0x3927, r24	; 0x803927 <reactStr+0x4>
    3798:	90 93 28 39 	sts	0x3928, r25	; 0x803928 <reactStr+0x5>
    reactStr[1][number]=length;
    379c:	82 e0       	ldi	r24, 0x02	; 2
    379e:	90 e0       	ldi	r25, 0x00	; 0
    37a0:	80 93 67 39 	sts	0x3967, r24	; 0x803967 <reactStr+0x44>
    37a4:	90 93 68 39 	sts	0x3968, r25	; 0x803968 <reactStr+0x45>
    reactStr[2][number]=type;
    37a8:	81 e0       	ldi	r24, 0x01	; 1
    37aa:	90 e0       	ldi	r25, 0x00	; 0
    37ac:	80 93 a7 39 	sts	0x39A7, r24	; 0x8039a7 <reactStr+0x84>
    37b0:	90 93 a8 39 	sts	0x39A8, r25	; 0x8039a8 <reactStr+0x85>
    return 0;
}

//
void SetResponse(uint8_t number, uint16_t address, uint16_t length, uint8_t type){
    reactStr[0][number]=address;
    37b4:	2d ea       	ldi	r18, 0xAD	; 173
    37b6:	38 e7       	ldi	r19, 0x78	; 120
    37b8:	20 93 29 39 	sts	0x3929, r18	; 0x803929 <reactStr+0x6>
    37bc:	30 93 2a 39 	sts	0x392A, r19	; 0x80392a <reactStr+0x7>
    reactStr[1][number]=length;
    37c0:	22 e1       	ldi	r18, 0x12	; 18
    37c2:	30 e0       	ldi	r19, 0x00	; 0
    37c4:	20 93 69 39 	sts	0x3969, r18	; 0x803969 <reactStr+0x46>
    37c8:	30 93 6a 39 	sts	0x396A, r19	; 0x80396a <reactStr+0x47>
    reactStr[2][number]=type;
    37cc:	80 93 a9 39 	sts	0x39A9, r24	; 0x8039a9 <reactStr+0x86>
    37d0:	90 93 aa 39 	sts	0x39AA, r25	; 0x8039aa <reactStr+0x87>
                            //General request
                            } else if (actObj1.lenStr[ACTION_STR1]) {
                                SetResponse(elements++, actObj1.addrStr[ACTION_STR1], actObj1.lenStr[ACTION_STR1], GAME);
                                SetResponse(elements++, A_LF, 2, TEASER);
                                SetResponse(elements++, A_RESPONSE, L_RESPONSE, TEASER);
                                if (actObj1.lenStr[ACTION_STR2]>(INP_LENGTH-1)) actObj1.lenStr[ACTION_STR2] = (INP_LENGTH-1);
    37d4:	80 91 02 39 	lds	r24, 0x3902	; 0x803902 <actObj1.3989+0x20>
    37d8:	90 91 03 39 	lds	r25, 0x3903	; 0x803903 <actObj1.3989+0x21>
    37dc:	40 97       	sbiw	r24, 0x10	; 16
    37de:	30 f0       	brcs	.+12     	; 0x37ec <ProcessInput+0xb7a>
    37e0:	8f e0       	ldi	r24, 0x0F	; 15
    37e2:	90 e0       	ldi	r25, 0x00	; 0
    37e4:	80 93 02 39 	sts	0x3902, r24	; 0x803902 <actObj1.3989+0x20>
    37e8:	90 93 03 39 	sts	0x3903, r25	; 0x803903 <actObj1.3989+0x21>
                                ExtEERead(actObj1.addrStr[ACTION_STR2], actObj1.lenStr[ACTION_STR2], GAME, (uint8_t *)&specialInput[0]);
    37ec:	22 e1       	ldi	r18, 0x12	; 18
    37ee:	39 e3       	ldi	r19, 0x39	; 57
    37f0:	40 e0       	ldi	r20, 0x00	; 0
    37f2:	60 91 02 39 	lds	r22, 0x3902	; 0x803902 <actObj1.3989+0x20>
    37f6:	80 91 f4 38 	lds	r24, 0x38F4	; 0x8038f4 <actObj1.3989+0x12>
    37fa:	90 91 f5 38 	lds	r25, 0x38F5	; 0x8038f5 <actObj1.3989+0x13>
    37fe:	0e 94 62 08 	call	0x10c4	; 0x10c4 <ExtEERead>
                                UnflipData(actObj1.lenStr[ACTION_STR2], (uint8_t *)&specialInput[0]);
    3802:	62 e1       	ldi	r22, 0x12	; 18
    3804:	79 e3       	ldi	r23, 0x39	; 57
    3806:	80 91 02 39 	lds	r24, 0x3902	; 0x803902 <actObj1.3989+0x20>
    380a:	0e 94 fb 10 	call	0x21f6	; 0x21f6 <UnflipData>
                                specialInput[actObj1.lenStr[ACTION_STR2]] = 0;
    380e:	e0 91 02 39 	lds	r30, 0x3902	; 0x803902 <actObj1.3989+0x20>
    3812:	f0 91 03 39 	lds	r31, 0x3903	; 0x803903 <actObj1.3989+0x21>
    3816:	ee 5e       	subi	r30, 0xEE	; 238
    3818:	f6 4c       	sbci	r31, 0xC6	; 198
    381a:	10 82       	st	Z, r1

                            //General request
                            } else if (actObj1.lenStr[ACTION_STR1]) {
                                SetResponse(elements++, actObj1.addrStr[ACTION_STR1], actObj1.lenStr[ACTION_STR1], GAME);
                                SetResponse(elements++, A_LF, 2, TEASER);
                                SetResponse(elements++, A_RESPONSE, L_RESPONSE, TEASER);
    381c:	14 e0       	ldi	r17, 0x04	; 4
    381e:	94 c1       	rjmp	.+808    	; 0x3b48 <ProcessInput+0xed6>
                                ExtEERead(actObj1.addrStr[ACTION_STR2], actObj1.lenStr[ACTION_STR2], GAME, (uint8_t *)&specialInput[0]);
                                UnflipData(actObj1.lenStr[ACTION_STR2], (uint8_t *)&specialInput[0]);
                                specialInput[actObj1.lenStr[ACTION_STR2]] = 0;
                            
                            //Normal action    
                            } else if (CheckState(actObj1.byteField[ACTION_ACL])){
    3820:	80 91 e9 38 	lds	r24, 0x38E9	; 0x8038e9 <actObj1.3989+0x7>
    3824:	0e 94 19 0a 	call	0x1432	; 0x1432 <CheckState>
    3828:	88 23       	and	r24, r24
    382a:	01 f1       	breq	.+64     	; 0x386c <ProcessInput+0xbfa>
                                SetResponse(elements++, actObj1.addrStr[ACTION_MSG], actObj1.lenStr[ACTION_MSG], GAME);
    382c:	80 91 08 39 	lds	r24, 0x3908	; 0x803908 <actObj1.3989+0x26>
    3830:	90 91 09 39 	lds	r25, 0x3909	; 0x803909 <actObj1.3989+0x27>
    return 0;
}

//
void SetResponse(uint8_t number, uint16_t address, uint16_t length, uint8_t type){
    reactStr[0][number]=address;
    3834:	20 91 fa 38 	lds	r18, 0x38FA	; 0x8038fa <actObj1.3989+0x18>
    3838:	30 91 fb 38 	lds	r19, 0x38FB	; 0x8038fb <actObj1.3989+0x19>
    383c:	20 93 25 39 	sts	0x3925, r18	; 0x803925 <reactStr+0x2>
    3840:	30 93 26 39 	sts	0x3926, r19	; 0x803926 <reactStr+0x3>
    reactStr[1][number]=length;
    3844:	80 93 65 39 	sts	0x3965, r24	; 0x803965 <reactStr+0x42>
    3848:	90 93 66 39 	sts	0x3966, r25	; 0x803966 <reactStr+0x43>
    reactStr[2][number]=type;
    384c:	10 92 a5 39 	sts	0x39A5, r1	; 0x8039a5 <reactStr+0x82>
    3850:	10 92 a6 39 	sts	0x39A6, r1	; 0x8039a6 <reactStr+0x83>
                                specialInput[actObj1.lenStr[ACTION_STR2]] = 0;
                            
                            //Normal action    
                            } else if (CheckState(actObj1.byteField[ACTION_ACL])){
                                SetResponse(elements++, actObj1.addrStr[ACTION_MSG], actObj1.lenStr[ACTION_MSG], GAME);
                                effect = actObj1.effect[2];
    3854:	80 91 0c 39 	lds	r24, 0x390C	; 0x80390c <actObj1.3989+0x2a>
    3858:	90 e0       	ldi	r25, 0x00	; 0
    385a:	80 93 40 38 	sts	0x3840, r24	; 0x803840 <effect>
    385e:	90 93 41 38 	sts	0x3841, r25	; 0x803841 <effect+0x1>
                                UpdateState(actObj1.byteField[ACTION_STATE]);
    3862:	80 91 ec 38 	lds	r24, 0x38EC	; 0x8038ec <actObj1.3989+0xa>
    3866:	0e 94 f8 09 	call	0x13f0	; 0x13f0 <UpdateState>
    386a:	d5 ca       	rjmp	.-2646   	; 0x2e16 <ProcessInput+0x1a4>
                            } else {
                                SetResponse(elements++, actObj1.addrStr[ACTION_ACL_MSG], actObj1.lenStr[ACTION_ACL_MSG], GAME);
    386c:	80 91 06 39 	lds	r24, 0x3906	; 0x803906 <actObj1.3989+0x24>
    3870:	90 91 07 39 	lds	r25, 0x3907	; 0x803907 <actObj1.3989+0x25>
    return 0;
}

//
void SetResponse(uint8_t number, uint16_t address, uint16_t length, uint8_t type){
    reactStr[0][number]=address;
    3874:	20 91 f8 38 	lds	r18, 0x38F8	; 0x8038f8 <actObj1.3989+0x16>
    3878:	30 91 f9 38 	lds	r19, 0x38F9	; 0x8038f9 <actObj1.3989+0x17>
    387c:	20 93 25 39 	sts	0x3925, r18	; 0x803925 <reactStr+0x2>
    3880:	30 93 26 39 	sts	0x3926, r19	; 0x803926 <reactStr+0x3>
    reactStr[1][number]=length;
    3884:	80 93 65 39 	sts	0x3965, r24	; 0x803965 <reactStr+0x42>
    3888:	90 93 66 39 	sts	0x3966, r25	; 0x803966 <reactStr+0x43>
    reactStr[2][number]=type;
    388c:	10 92 a5 39 	sts	0x39A5, r1	; 0x8039a5 <reactStr+0x82>
    3890:	10 92 a6 39 	sts	0x39A6, r1	; 0x8039a6 <reactStr+0x83>
                                SetResponse(elements++, actObj1.addrStr[ACTION_MSG], actObj1.lenStr[ACTION_MSG], GAME);
                                effect = actObj1.effect[2];
                                UpdateState(actObj1.byteField[ACTION_STATE]);
                            } else {
                                SetResponse(elements++, actObj1.addrStr[ACTION_ACL_MSG], actObj1.lenStr[ACTION_ACL_MSG], GAME);
                                effect = actObj1.effect[1];
    3894:	80 91 0b 39 	lds	r24, 0x390B	; 0x80390b <actObj1.3989+0x29>
    3898:	90 e0       	ldi	r25, 0x00	; 0
    389a:	80 93 40 38 	sts	0x3840, r24	; 0x803840 <effect>
    389e:	90 93 41 38 	sts	0x3841, r25	; 0x803841 <effect+0x1>
    38a2:	b9 ca       	rjmp	.-2702   	; 0x2e16 <ProcessInput+0x1a4>
                        }
                    }

                //Person or object not found
                } else {
                    if ((data[0] == 't')||(data[0] == 'g')){
    38a4:	d3 01       	movw	r26, r6
    38a6:	8c 91       	ld	r24, X
    38a8:	84 37       	cpi	r24, 0x74	; 116
    38aa:	11 f0       	breq	.+4      	; 0x38b0 <ProcessInput+0xc3e>
    38ac:	87 36       	cpi	r24, 0x67	; 103
    38ae:	19 f4       	brne	.+6      	; 0x38b6 <ProcessInput+0xc44>
    return 0;
}

//
void SetResponse(uint8_t number, uint16_t address, uint16_t length, uint8_t type){
    reactStr[0][number]=address;
    38b0:	89 e3       	ldi	r24, 0x39	; 57
    38b2:	99 e7       	ldi	r25, 0x79	; 121
    38b4:	02 c0       	rjmp	.+4      	; 0x38ba <ProcessInput+0xc48>
    38b6:	8d e4       	ldi	r24, 0x4D	; 77
    38b8:	99 e7       	ldi	r25, 0x79	; 121
    38ba:	80 93 25 39 	sts	0x3925, r24	; 0x803925 <reactStr+0x2>
    38be:	90 93 26 39 	sts	0x3926, r25	; 0x803926 <reactStr+0x3>
    reactStr[1][number]=length;
    38c2:	84 e1       	ldi	r24, 0x14	; 20
    38c4:	90 e0       	ldi	r25, 0x00	; 0
    38c6:	9d ca       	rjmp	.-2758   	; 0x2e02 <ProcessInput+0x190>
                    }
                }
            }
        
        //Special answer given
        } else if (data[0] == 'a'){
    38c8:	81 36       	cpi	r24, 0x61	; 97
    38ca:	09 f0       	breq	.+2      	; 0x38ce <ProcessInput+0xc5c>
    38cc:	4f cc       	rjmp	.-1890   	; 0x316c <ProcessInput+0x4fa>
            
            //Priest offerings
            if (specialPassed >= 2) {
    38ce:	80 91 11 39 	lds	r24, 0x3911	; 0x803911 <specialPassed>
    38d2:	82 30       	cpi	r24, 0x02	; 2
    38d4:	08 f4       	brcc	.+2      	; 0x38d8 <ProcessInput+0xc66>
    38d6:	c7 c0       	rjmp	.+398    	; 0x3a66 <ProcessInput+0xdf4>
                if (data[1] > 0) {
    38d8:	f3 01       	movw	r30, r6
    38da:	21 81       	ldd	r18, Z+1	; 0x01
    38dc:	22 23       	and	r18, r18
    38de:	09 f4       	brne	.+2      	; 0x38e2 <ProcessInput+0xc70>
    38e0:	af c0       	rjmp	.+350    	; 0x3a40 <ProcessInput+0xdce>

                    //uint8_t  digit[10] = {0, 0, 0, 0, 0, 0, 0, 0, 0, 0};
                    uint8_t  digit[8] = {0, 0, 0, 0, 0, 0, 0, 0};
    38e2:	ce 01       	movw	r24, r28
    38e4:	01 96       	adiw	r24, 0x01	; 1
    38e6:	7c 01       	movw	r14, r24
    38e8:	88 e0       	ldi	r24, 0x08	; 8
    38ea:	d7 01       	movw	r26, r14
    38ec:	1d 92       	st	X+, r1
    38ee:	8a 95       	dec	r24
    38f0:	e9 f7       	brne	.-6      	; 0x38ec <ProcessInput+0xc7a>
                        answer = ((offering  & 2) << 19) + ((offering  & 1) << 8) + \
                        ((element   & 2) << 15) + ((element   & 1) << 4) + \
                        ((kneelings & 2) << 11) + ((kneelings & 1))
                        answer = answer << (3-person)
                    */
                    data[1]-='0'; // item 31 needs to become something that results in 0 when doing %4
    38f2:	20 53       	subi	r18, 0x30	; 48
    38f4:	21 83       	std	Z+1, r18	; 0x01
                    data[2]-='1';
    38f6:	32 81       	ldd	r19, Z+2	; 0x02
    38f8:	31 53       	subi	r19, 0x31	; 49
    38fa:	32 83       	std	Z+2, r19	; 0x02
                    if (data[3] == 'a') data[3] = 1;
    38fc:	83 81       	ldd	r24, Z+3	; 0x03
    38fe:	81 36       	cpi	r24, 0x61	; 97
    3900:	11 f4       	brne	.+4      	; 0x3906 <ProcessInput+0xc94>
    3902:	81 e0       	ldi	r24, 0x01	; 1
    3904:	0c c0       	rjmp	.+24     	; 0x391e <ProcessInput+0xcac>
                    else if (data[3] == 'e') data[3] = 0;
    3906:	85 36       	cpi	r24, 0x65	; 101
    3908:	19 f4       	brne	.+6      	; 0x3910 <ProcessInput+0xc9e>
    390a:	f3 01       	movw	r30, r6
    390c:	13 82       	std	Z+3, r1	; 0x03
    390e:	08 c0       	rjmp	.+16     	; 0x3920 <ProcessInput+0xcae>
                    else if (data[3] == 'f') data[3] = 3;
    3910:	86 36       	cpi	r24, 0x66	; 102
    3912:	19 f4       	brne	.+6      	; 0x391a <ProcessInput+0xca8>
    3914:	83 e0       	ldi	r24, 0x03	; 3
    3916:	83 83       	std	Z+3, r24	; 0x03
    3918:	03 c0       	rjmp	.+6      	; 0x3920 <ProcessInput+0xcae>
                    else data[3] = 2;
    391a:	82 e0       	ldi	r24, 0x02	; 2
    391c:	f3 01       	movw	r30, r6
    391e:	83 83       	std	Z+3, r24	; 0x03

                    if (data[1] & 2) answer += (1UL << 20);
    3920:	21 fd       	sbrc	r18, 1
    3922:	04 c0       	rjmp	.+8      	; 0x392c <ProcessInput+0xcba>
            if (specialPassed >= 2) {
                if (data[1] > 0) {

                    //uint8_t  digit[10] = {0, 0, 0, 0, 0, 0, 0, 0, 0, 0};
                    uint8_t  digit[8] = {0, 0, 0, 0, 0, 0, 0, 0};
                    uint32_t answer = 0;
    3924:	80 e0       	ldi	r24, 0x00	; 0
    3926:	90 e0       	ldi	r25, 0x00	; 0
    3928:	dc 01       	movw	r26, r24
    392a:	04 c0       	rjmp	.+8      	; 0x3934 <ProcessInput+0xcc2>
                    if (data[3] == 'a') data[3] = 1;
                    else if (data[3] == 'e') data[3] = 0;
                    else if (data[3] == 'f') data[3] = 3;
                    else data[3] = 2;

                    if (data[1] & 2) answer += (1UL << 20);
    392c:	80 e0       	ldi	r24, 0x00	; 0
    392e:	90 e0       	ldi	r25, 0x00	; 0
    3930:	a0 e1       	ldi	r26, 0x10	; 16
    3932:	b0 e0       	ldi	r27, 0x00	; 0
                    if (data[1] & 1) answer += (1 << 8);
    3934:	20 ff       	sbrs	r18, 0
    3936:	03 c0       	rjmp	.+6      	; 0x393e <ProcessInput+0xccc>
    3938:	9f 5f       	subi	r25, 0xFF	; 255
    393a:	af 4f       	sbci	r26, 0xFF	; 255
    393c:	bf 4f       	sbci	r27, 0xFF	; 255
                    if (data[3] & 2) answer += (1UL << 16);
    393e:	f3 01       	movw	r30, r6
    3940:	23 81       	ldd	r18, Z+3	; 0x03
    3942:	21 fd       	sbrc	r18, 1
    3944:	11 96       	adiw	r26, 0x01	; 1
                    if (data[3] & 1) answer += (1 << 4);
    3946:	20 ff       	sbrs	r18, 0
    3948:	03 c0       	rjmp	.+6      	; 0x3950 <ProcessInput+0xcde>
    394a:	40 96       	adiw	r24, 0x10	; 16
    394c:	a1 1d       	adc	r26, r1
    394e:	b1 1d       	adc	r27, r1
                    if (data[2] & 2) answer += (1 << 12);
    3950:	31 ff       	sbrs	r19, 1
    3952:	03 c0       	rjmp	.+6      	; 0x395a <ProcessInput+0xce8>
    3954:	90 5f       	subi	r25, 0xF0	; 240
    3956:	af 4f       	sbci	r26, 0xFF	; 255
    3958:	bf 4f       	sbci	r27, 0xFF	; 255
                    if (data[2] & 1) answer += 1;
    395a:	30 ff       	sbrs	r19, 0
    395c:	03 c0       	rjmp	.+6      	; 0x3964 <ProcessInput+0xcf2>
    395e:	01 96       	adiw	r24, 0x01	; 1
    3960:	a1 1d       	adc	r26, r1
    3962:	b1 1d       	adc	r27, r1
                    answer <<= (4 - whoami);            
    3964:	40 91 43 38 	lds	r20, 0x3843	; 0x803843 <whoami>
    3968:	24 e0       	ldi	r18, 0x04	; 4
    396a:	30 e0       	ldi	r19, 0x00	; 0
    396c:	24 1b       	sub	r18, r20
    396e:	31 09       	sbc	r19, r1
    3970:	04 c0       	rjmp	.+8      	; 0x397a <ProcessInput+0xd08>
    3972:	88 0f       	add	r24, r24
    3974:	99 1f       	adc	r25, r25
    3976:	aa 1f       	adc	r26, r26
    3978:	bb 1f       	adc	r27, r27
    397a:	2a 95       	dec	r18
    397c:	d2 f7       	brpl	.-12     	; 0x3972 <ProcessInput+0xd00>
    return 0;
}

//
void SetResponse(uint8_t number, uint16_t address, uint16_t length, uint8_t type){
    reactStr[0][number]=address;
    397e:	28 ec       	ldi	r18, 0xC8	; 200
    3980:	34 e7       	ldi	r19, 0x74	; 116
    3982:	20 93 25 39 	sts	0x3925, r18	; 0x803925 <reactStr+0x2>
    3986:	30 93 26 39 	sts	0x3926, r19	; 0x803926 <reactStr+0x3>
    reactStr[1][number]=length;
    398a:	20 e2       	ldi	r18, 0x20	; 32
    398c:	30 e0       	ldi	r19, 0x00	; 0
    398e:	20 93 65 39 	sts	0x3965, r18	; 0x803965 <reactStr+0x42>
    3992:	30 93 66 39 	sts	0x3966, r19	; 0x803966 <reactStr+0x43>
    reactStr[2][number]=type;
    3996:	21 e0       	ldi	r18, 0x01	; 1
    3998:	30 e0       	ldi	r19, 0x00	; 0
    399a:	20 93 a5 39 	sts	0x39A5, r18	; 0x8039a5 <reactStr+0x82>
    399e:	30 93 a6 39 	sts	0x39A6, r19	; 0x8039a6 <reactStr+0x83>
    return 0;
}

//
void SetResponse(uint8_t number, uint16_t address, uint16_t length, uint8_t type){
    reactStr[0][number]=address;
    39a2:	4d e9       	ldi	r20, 0x9D	; 157
    39a4:	54 e7       	ldi	r21, 0x74	; 116
    39a6:	40 93 27 39 	sts	0x3927, r20	; 0x803927 <reactStr+0x4>
    39aa:	50 93 28 39 	sts	0x3928, r21	; 0x803928 <reactStr+0x5>
    reactStr[1][number]=length;
    39ae:	42 e0       	ldi	r20, 0x02	; 2
    39b0:	50 e0       	ldi	r21, 0x00	; 0
    39b2:	40 93 67 39 	sts	0x3967, r20	; 0x803967 <reactStr+0x44>
    39b6:	50 93 68 39 	sts	0x3968, r21	; 0x803968 <reactStr+0x45>
    reactStr[2][number]=type;
    39ba:	20 93 a7 39 	sts	0x39A7, r18	; 0x8039a7 <reactStr+0x84>
    39be:	30 93 a8 39 	sts	0x39A8, r19	; 0x8039a8 <reactStr+0x85>

                    SetResponse(elements++, A_YOURPART, L_YOURPART, TEASER);
                    SetResponse(elements++, A_HEXPREFIX, L_HEXPREFIX, TEASER);
                    
                    //Set up sending out number
                    for (n=7; n>=0; --n) {
    39c2:	07 e0       	ldi	r16, 0x07	; 7
                        digit[n] = answer % 16;
    39c4:	f7 01       	movw	r30, r14
    39c6:	e0 0f       	add	r30, r16
    39c8:	f1 1d       	adc	r31, r1
    39ca:	28 2f       	mov	r18, r24
    39cc:	2f 70       	andi	r18, 0x0F	; 15
    39ce:	20 83       	st	Z, r18
                        answer /= 16;
    39d0:	44 e0       	ldi	r20, 0x04	; 4
    39d2:	b6 95       	lsr	r27
    39d4:	a7 95       	ror	r26
    39d6:	97 95       	ror	r25
    39d8:	87 95       	ror	r24
    39da:	4a 95       	dec	r20
    39dc:	d1 f7       	brne	.-12     	; 0x39d2 <ProcessInput+0xd60>
                        if (answer == 0) break;
    39de:	00 97       	sbiw	r24, 0x00	; 0
    39e0:	a1 05       	cpc	r26, r1
    39e2:	b1 05       	cpc	r27, r1
    39e4:	49 f4       	brne	.+18     	; 0x39f8 <ProcessInput+0xd86>
    39e6:	23 e2       	ldi	r18, 0x23	; 35
    39e8:	c2 2e       	mov	r12, r18
    39ea:	29 e3       	ldi	r18, 0x39	; 57
    39ec:	d2 2e       	mov	r13, r18
    39ee:	13 e0       	ldi	r17, 0x03	; 3
}

//
void SetResponse(uint8_t number, uint16_t address, uint16_t length, uint8_t type){
    reactStr[0][number]=address;
    reactStr[1][number]=length;
    39f0:	aa 24       	eor	r10, r10
    39f2:	a3 94       	inc	r10
    39f4:	b1 2c       	mov	r11, r1
    39f6:	02 c0       	rjmp	.+4      	; 0x39fc <ProcessInput+0xd8a>

                    SetResponse(elements++, A_YOURPART, L_YOURPART, TEASER);
                    SetResponse(elements++, A_HEXPREFIX, L_HEXPREFIX, TEASER);
                    
                    //Set up sending out number
                    for (n=7; n>=0; --n) {
    39f8:	01 50       	subi	r16, 0x01	; 1
                        digit[n] = answer % 16;
                        answer /= 16;
                        if (answer == 0) break;
                    }
    39fa:	e4 cf       	rjmp	.-56     	; 0x39c4 <ProcessInput+0xd52>
    39fc:	b2 e0       	ldi	r27, 0x02	; 2
    39fe:	cb 0e       	add	r12, r27
    3a00:	d1 1c       	adc	r13, r1

                    for (; n<8; ++n) {
    3a02:	08 30       	cpi	r16, 0x08	; 8
    3a04:	08 f0       	brcs	.+2      	; 0x3a08 <ProcessInput+0xd96>
    3a06:	9e c0       	rjmp	.+316    	; 0x3b44 <ProcessInput+0xed2>
                        SetResponse(elements++, A_DIGITS+digit[n], 1, TEASER);
    3a08:	1f 5f       	subi	r17, 0xFF	; 255
    3a0a:	f7 01       	movw	r30, r14
    3a0c:	e0 0f       	add	r30, r16
    3a0e:	f1 1d       	adc	r31, r1
    return 0;
}

//
void SetResponse(uint8_t number, uint16_t address, uint16_t length, uint8_t type){
    reactStr[0][number]=address;
    3a10:	80 81       	ld	r24, Z
    3a12:	90 e0       	ldi	r25, 0x00	; 0
    3a14:	83 57       	subi	r24, 0x73	; 115
    3a16:	9b 48       	sbci	r25, 0x8B	; 139
    3a18:	d6 01       	movw	r26, r12
    3a1a:	14 96       	adiw	r26, 0x04	; 4
    3a1c:	8d 93       	st	X+, r24
    3a1e:	9c 93       	st	X, r25
    3a20:	15 97       	sbiw	r26, 0x05	; 5
    reactStr[1][number]=length;
    3a22:	f6 01       	movw	r30, r12
    3a24:	ec 5b       	subi	r30, 0xBC	; 188
    3a26:	ff 4f       	sbci	r31, 0xFF	; 255
    3a28:	a0 82       	st	Z, r10
    3a2a:	b1 82       	std	Z+1, r11	; 0x01
    reactStr[2][number]=type;
    3a2c:	e0 5c       	subi	r30, 0xC0	; 192
    3a2e:	ff 4f       	sbci	r31, 0xFF	; 255
    3a30:	a0 82       	st	Z, r10
    3a32:	b1 82       	std	Z+1, r11	; 0x01
                        if (answer == 0) break;
                    }

                    for (; n<8; ++n) {
                        SetResponse(elements++, A_DIGITS+digit[n], 1, TEASER);
                        UpdateState(actObj1.byteField[ACTION_STATE]);
    3a34:	80 91 ec 38 	lds	r24, 0x38EC	; 0x8038ec <actObj1.3989+0xa>
    3a38:	0e 94 f8 09 	call	0x13f0	; 0x13f0 <UpdateState>
                        digit[n] = answer % 16;
                        answer /= 16;
                        if (answer == 0) break;
                    }

                    for (; n<8; ++n) {
    3a3c:	0f 5f       	subi	r16, 0xFF	; 255
    3a3e:	de cf       	rjmp	.-68     	; 0x39fc <ProcessInput+0xd8a>
    return 0;
}

//
void SetResponse(uint8_t number, uint16_t address, uint16_t length, uint8_t type){
    reactStr[0][number]=address;
    3a40:	88 ee       	ldi	r24, 0xE8	; 232
    3a42:	94 e7       	ldi	r25, 0x74	; 116
    3a44:	80 93 25 39 	sts	0x3925, r24	; 0x803925 <reactStr+0x2>
    3a48:	90 93 26 39 	sts	0x3926, r25	; 0x803926 <reactStr+0x3>
    reactStr[1][number]=length;
    3a4c:	8d e3       	ldi	r24, 0x3D	; 61
    3a4e:	90 e0       	ldi	r25, 0x00	; 0
    3a50:	80 93 65 39 	sts	0x3965, r24	; 0x803965 <reactStr+0x42>
    3a54:	90 93 66 39 	sts	0x3966, r25	; 0x803966 <reactStr+0x43>
    reactStr[2][number]=type;
    3a58:	81 e0       	ldi	r24, 0x01	; 1
    3a5a:	90 e0       	ldi	r25, 0x00	; 0
    3a5c:	80 93 a5 39 	sts	0x39A5, r24	; 0x8039a5 <reactStr+0x82>
    3a60:	90 93 a6 39 	sts	0x39A6, r25	; 0x8039a6 <reactStr+0x83>
    3a64:	6e c0       	rjmp	.+220    	; 0x3b42 <ProcessInput+0xed0>
    3a66:	e0 91 35 38 	lds	r30, 0x3835	; 0x803835 <currDepth>
                    SetResponse(elements++, A_BADOFFERING, L_BADOFFERING, TEASER);
                }
            
            //Other questions    
            } else if (specialPassed == 1) {
                PopulateObject(route[currDepth+1], &actObj1);
    3a6a:	f0 e0       	ldi	r31, 0x00	; 0
    3a6c:	ee 0f       	add	r30, r30
    3a6e:	ff 1f       	adc	r31, r31
    3a70:	eb 51       	subi	r30, 0x1B	; 27
    3a72:	f6 4c       	sbci	r31, 0xC6	; 198
    3a74:	62 ee       	ldi	r22, 0xE2	; 226
    3a76:	78 e3       	ldi	r23, 0x38	; 56
                } else {
                    SetResponse(elements++, A_BADOFFERING, L_BADOFFERING, TEASER);
                }
            
            //Other questions    
            } else if (specialPassed == 1) {
    3a78:	81 30       	cpi	r24, 0x01	; 1
    3a7a:	09 f0       	breq	.+2      	; 0x3a7e <ProcessInput+0xe0c>
    3a7c:	46 c0       	rjmp	.+140    	; 0x3b0a <ProcessInput+0xe98>
                PopulateObject(route[currDepth+1], &actObj1);
    3a7e:	80 81       	ld	r24, Z
    3a80:	91 81       	ldd	r25, Z+1	; 0x01
    3a82:	0e 94 e5 11 	call	0x23ca	; 0x23ca <PopulateObject>
                if (CheckState(actObj1.byteField[ACTION_ACL])){
    3a86:	80 91 e9 38 	lds	r24, 0x38E9	; 0x8038e9 <actObj1.3989+0x7>
    3a8a:	0e 94 19 0a 	call	0x1432	; 0x1432 <CheckState>
    3a8e:	88 23       	and	r24, r24
    3a90:	01 f1       	breq	.+64     	; 0x3ad2 <ProcessInput+0xe60>
                    SetResponse(elements++, actObj1.addrStr[ACTION_MSG], actObj1.lenStr[ACTION_MSG], GAME);
    3a92:	80 91 08 39 	lds	r24, 0x3908	; 0x803908 <actObj1.3989+0x26>
    3a96:	90 91 09 39 	lds	r25, 0x3909	; 0x803909 <actObj1.3989+0x27>
    return 0;
}

//
void SetResponse(uint8_t number, uint16_t address, uint16_t length, uint8_t type){
    reactStr[0][number]=address;
    3a9a:	20 91 fa 38 	lds	r18, 0x38FA	; 0x8038fa <actObj1.3989+0x18>
    3a9e:	30 91 fb 38 	lds	r19, 0x38FB	; 0x8038fb <actObj1.3989+0x19>
    3aa2:	20 93 25 39 	sts	0x3925, r18	; 0x803925 <reactStr+0x2>
    3aa6:	30 93 26 39 	sts	0x3926, r19	; 0x803926 <reactStr+0x3>
    reactStr[1][number]=length;
    3aaa:	80 93 65 39 	sts	0x3965, r24	; 0x803965 <reactStr+0x42>
    3aae:	90 93 66 39 	sts	0x3966, r25	; 0x803966 <reactStr+0x43>
    reactStr[2][number]=type;
    3ab2:	10 92 a5 39 	sts	0x39A5, r1	; 0x8039a5 <reactStr+0x82>
    3ab6:	10 92 a6 39 	sts	0x39A6, r1	; 0x8039a6 <reactStr+0x83>
            //Other questions    
            } else if (specialPassed == 1) {
                PopulateObject(route[currDepth+1], &actObj1);
                if (CheckState(actObj1.byteField[ACTION_ACL])){
                    SetResponse(elements++, actObj1.addrStr[ACTION_MSG], actObj1.lenStr[ACTION_MSG], GAME);
                    effect = actObj1.effect[2];
    3aba:	80 91 0c 39 	lds	r24, 0x390C	; 0x80390c <actObj1.3989+0x2a>
    3abe:	90 e0       	ldi	r25, 0x00	; 0
    3ac0:	80 93 40 38 	sts	0x3840, r24	; 0x803840 <effect>
    3ac4:	90 93 41 38 	sts	0x3841, r25	; 0x803841 <effect+0x1>
                    UpdateState(actObj1.byteField[ACTION_STATE]);
    3ac8:	80 91 ec 38 	lds	r24, 0x38EC	; 0x8038ec <actObj1.3989+0xa>
    3acc:	0e 94 f8 09 	call	0x13f0	; 0x13f0 <UpdateState>
    3ad0:	38 c0       	rjmp	.+112    	; 0x3b42 <ProcessInput+0xed0>
                } else {
                    SetResponse(elements++, actObj1.addrStr[ACTION_ACL_MSG], actObj1.lenStr[ACTION_ACL_MSG], GAME);
    3ad2:	80 91 06 39 	lds	r24, 0x3906	; 0x803906 <actObj1.3989+0x24>
    3ad6:	90 91 07 39 	lds	r25, 0x3907	; 0x803907 <actObj1.3989+0x25>
    return 0;
}

//
void SetResponse(uint8_t number, uint16_t address, uint16_t length, uint8_t type){
    reactStr[0][number]=address;
    3ada:	20 91 f8 38 	lds	r18, 0x38F8	; 0x8038f8 <actObj1.3989+0x16>
    3ade:	30 91 f9 38 	lds	r19, 0x38F9	; 0x8038f9 <actObj1.3989+0x17>
    3ae2:	20 93 25 39 	sts	0x3925, r18	; 0x803925 <reactStr+0x2>
    3ae6:	30 93 26 39 	sts	0x3926, r19	; 0x803926 <reactStr+0x3>
    reactStr[1][number]=length;
    3aea:	80 93 65 39 	sts	0x3965, r24	; 0x803965 <reactStr+0x42>
    3aee:	90 93 66 39 	sts	0x3966, r25	; 0x803966 <reactStr+0x43>
    reactStr[2][number]=type;
    3af2:	10 92 a5 39 	sts	0x39A5, r1	; 0x8039a5 <reactStr+0x82>
    3af6:	10 92 a6 39 	sts	0x39A6, r1	; 0x8039a6 <reactStr+0x83>
                    SetResponse(elements++, actObj1.addrStr[ACTION_MSG], actObj1.lenStr[ACTION_MSG], GAME);
                    effect = actObj1.effect[2];
                    UpdateState(actObj1.byteField[ACTION_STATE]);
                } else {
                    SetResponse(elements++, actObj1.addrStr[ACTION_ACL_MSG], actObj1.lenStr[ACTION_ACL_MSG], GAME);
                    effect = actObj1.effect[1];
    3afa:	80 91 0b 39 	lds	r24, 0x390B	; 0x80390b <actObj1.3989+0x29>
    3afe:	90 e0       	ldi	r25, 0x00	; 0
    3b00:	80 93 40 38 	sts	0x3840, r24	; 0x803840 <effect>
    3b04:	90 93 41 38 	sts	0x3841, r25	; 0x803841 <effect+0x1>
    3b08:	1c c0       	rjmp	.+56     	; 0x3b42 <ProcessInput+0xed0>
                }

            } else {
                PopulateObject(route[currDepth+1], &actObj1);
    3b0a:	80 81       	ld	r24, Z
    3b0c:	91 81       	ldd	r25, Z+1	; 0x01
    3b0e:	0e 94 e5 11 	call	0x23ca	; 0x23ca <PopulateObject>
    return 0;
}

//
void SetResponse(uint8_t number, uint16_t address, uint16_t length, uint8_t type){
    reactStr[0][number]=address;
    3b12:	80 e6       	ldi	r24, 0x60	; 96
    3b14:	98 e7       	ldi	r25, 0x78	; 120
    3b16:	80 93 25 39 	sts	0x3925, r24	; 0x803925 <reactStr+0x2>
    3b1a:	90 93 26 39 	sts	0x3926, r25	; 0x803926 <reactStr+0x3>
    reactStr[1][number]=length;
    3b1e:	8d e4       	ldi	r24, 0x4D	; 77
    3b20:	90 e0       	ldi	r25, 0x00	; 0
    3b22:	80 93 65 39 	sts	0x3965, r24	; 0x803965 <reactStr+0x42>
    3b26:	90 93 66 39 	sts	0x3966, r25	; 0x803966 <reactStr+0x43>
    reactStr[2][number]=type;
    3b2a:	81 e0       	ldi	r24, 0x01	; 1
    3b2c:	90 e0       	ldi	r25, 0x00	; 0
    3b2e:	80 93 a5 39 	sts	0x39A5, r24	; 0x8039a5 <reactStr+0x82>
    3b32:	90 93 a6 39 	sts	0x39A6, r25	; 0x8039a6 <reactStr+0x83>
                }

            } else {
                PopulateObject(route[currDepth+1], &actObj1);
                SetResponse(elements++, A_INCORRECT, L_INCORRECT, TEASER);
                PunishmentTime = getClock();
    3b36:	0e 94 32 0e 	call	0x1c64	; 0x1c64 <getClock>
    3b3a:	80 93 0f 39 	sts	0x390F, r24	; 0x80390f <PunishmentTime>
    3b3e:	90 93 10 39 	sts	0x3910, r25	; 0x803910 <PunishmentTime+0x1>
                    effect = actObj1.effect[1];
                }

            } else {
                PopulateObject(route[currDepth+1], &actObj1);
                SetResponse(elements++, A_INCORRECT, L_INCORRECT, TEASER);
    3b42:	12 e0       	ldi	r17, 0x02	; 2
                PunishmentTime = getClock();
            }
            specialInput[0] = 0;
    3b44:	10 92 12 39 	sts	0x3912, r1	; 0x803912 <specialInput>

        }
                    
        //Input handled
        if (specialInput[0]) responseList = elements; else responseList = SetStandardResponse(elements);
    3b48:	80 91 12 39 	lds	r24, 0x3912	; 0x803912 <specialInput>
    3b4c:	88 23       	and	r24, r24
    3b4e:	19 f0       	breq	.+6      	; 0x3b56 <ProcessInput+0xee4>
    3b50:	10 93 22 39 	sts	0x3922, r17	; 0x803922 <responseList>
    3b54:	8b c0       	rjmp	.+278    	; 0x3c6c <ProcessInput+0xffa>
    3b56:	81 2f       	mov	r24, r17
    3b58:	01 c0       	rjmp	.+2      	; 0x3b5c <ProcessInput+0xeea>

    } else {

        responseList = SetStandardResponse(1);
    3b5a:	81 e0       	ldi	r24, 0x01	; 1
    3b5c:	0e 94 69 11 	call	0x22d2	; 0x22d2 <SetStandardResponse>
    3b60:	80 93 22 39 	sts	0x3922, r24	; 0x803922 <responseList>
    3b64:	83 c0       	rjmp	.+262    	; 0x3c6c <ProcessInput+0xffa>
    return 0;
}

//
void SetResponse(uint8_t number, uint16_t address, uint16_t length, uint8_t type){
    reactStr[0][number]=address;
    3b66:	81 ed       	ldi	r24, 0xD1	; 209
    3b68:	99 e7       	ldi	r25, 0x79	; 121
    3b6a:	80 93 25 39 	sts	0x3925, r24	; 0x803925 <reactStr+0x2>
    3b6e:	90 93 26 39 	sts	0x3926, r25	; 0x803926 <reactStr+0x3>
    reactStr[1][number]=length;
    3b72:	8a e1       	ldi	r24, 0x1A	; 26
    3b74:	90 e0       	ldi	r25, 0x00	; 0
    3b76:	45 c9       	rjmp	.-3446   	; 0x2e02 <ProcessInput+0x190>

        //Drop item if in inventory
        if (data[0] == 'd') {
            if ((inventory[0] == 0)&&(inventory[1] == 0)){
                SetResponse(elements++, A_EMPTYHANDS, L_EMPTYHANDS, TEASER);
            } else if (inputLen != 2) {
    3b78:	f2 e0       	ldi	r31, 0x02	; 2
    3b7a:	ff 12       	cpse	r15, r31
    3b7c:	ad c8       	rjmp	.-3750   	; 0x2cd8 <ProcessInput+0x66>
                SetResponse(elements++, A_NOTPOSSIBLE, L_NOTPOSSIBLE, TEASER);
            } else {
                for (uint8_t x=0; x<2; ++x) {
                    if (inventory[x]) {
                        if (CheckLetter(inventory[x], data[1])) {
    3b7e:	f3 01       	movw	r30, r6
    3b80:	61 81       	ldd	r22, Z+1	; 0x01
    3b82:	0e 94 5e 12 	call	0x24bc	; 0x24bc <CheckLetter>
    3b86:	88 23       	and	r24, r24
    3b88:	09 f4       	brne	.+2      	; 0x3b8c <ProcessInput+0xf1a>
    3b8a:	58 c0       	rjmp	.+176    	; 0x3c3c <ProcessInput+0xfca>
                SetResponse(elements++, A_EMPTYHANDS, L_EMPTYHANDS, TEASER);
            } else if (inputLen != 2) {
                SetResponse(elements++, A_NOTPOSSIBLE, L_NOTPOSSIBLE, TEASER);
            } else {
                for (uint8_t x=0; x<2; ++x) {
                    if (inventory[x]) {
    3b8c:	00 e0       	ldi	r16, 0x00	; 0
    3b8e:	10 e0       	ldi	r17, 0x00	; 0
                        if (CheckLetter(inventory[x], data[1])) {
                            PopulateObject(inventory[x], &actObj1);
    3b90:	00 0f       	add	r16, r16
    3b92:	11 1f       	adc	r17, r17
    3b94:	0c 5b       	subi	r16, 0xBC	; 188
    3b96:	17 4c       	sbci	r17, 0xC7	; 199
    3b98:	62 ee       	ldi	r22, 0xE2	; 226
    3b9a:	78 e3       	ldi	r23, 0x38	; 56
    3b9c:	d8 01       	movw	r26, r16
    3b9e:	8d 91       	ld	r24, X+
    3ba0:	9c 91       	ld	r25, X
    3ba2:	0e 94 e5 11 	call	0x23ca	; 0x23ca <PopulateObject>
    return 0;
}

//
void SetResponse(uint8_t number, uint16_t address, uint16_t length, uint8_t type){
    reactStr[0][number]=address;
    3ba6:	86 e9       	ldi	r24, 0x96	; 150
    3ba8:	97 e7       	ldi	r25, 0x77	; 119
    3baa:	80 93 25 39 	sts	0x3925, r24	; 0x803925 <reactStr+0x2>
    3bae:	90 93 26 39 	sts	0x3926, r25	; 0x803926 <reactStr+0x3>
    reactStr[1][number]=length;
    3bb2:	80 e1       	ldi	r24, 0x10	; 16
    3bb4:	90 e0       	ldi	r25, 0x00	; 0
    3bb6:	80 93 65 39 	sts	0x3965, r24	; 0x803965 <reactStr+0x42>
    3bba:	90 93 66 39 	sts	0x3966, r25	; 0x803966 <reactStr+0x43>
    reactStr[2][number]=type;
    3bbe:	81 e0       	ldi	r24, 0x01	; 1
    3bc0:	90 e0       	ldi	r25, 0x00	; 0
    3bc2:	80 93 a5 39 	sts	0x39A5, r24	; 0x8039a5 <reactStr+0x82>
    3bc6:	90 93 a6 39 	sts	0x39A6, r25	; 0x8039a6 <reactStr+0x83>
                for (uint8_t x=0; x<2; ++x) {
                    if (inventory[x]) {
                        if (CheckLetter(inventory[x], data[1])) {
                            PopulateObject(inventory[x], &actObj1);
                            SetResponse(elements++, A_DROPPING, L_DROPPING, TEASER);
                            SetResponse(elements++, actObj1.addrStr[NAME], actObj1.lenStr[NAME], GAME);
    3bca:	20 91 fc 38 	lds	r18, 0x38FC	; 0x8038fc <actObj1.3989+0x1a>
    3bce:	30 91 fd 38 	lds	r19, 0x38FD	; 0x8038fd <actObj1.3989+0x1b>
    return 0;
}

//
void SetResponse(uint8_t number, uint16_t address, uint16_t length, uint8_t type){
    reactStr[0][number]=address;
    3bd2:	40 91 ee 38 	lds	r20, 0x38EE	; 0x8038ee <actObj1.3989+0xc>
    3bd6:	50 91 ef 38 	lds	r21, 0x38EF	; 0x8038ef <actObj1.3989+0xd>
    3bda:	40 93 27 39 	sts	0x3927, r20	; 0x803927 <reactStr+0x4>
    3bde:	50 93 28 39 	sts	0x3928, r21	; 0x803928 <reactStr+0x5>
    reactStr[1][number]=length;
    3be2:	20 93 67 39 	sts	0x3967, r18	; 0x803967 <reactStr+0x44>
    3be6:	30 93 68 39 	sts	0x3968, r19	; 0x803968 <reactStr+0x45>
    reactStr[2][number]=type;
    3bea:	10 92 a7 39 	sts	0x39A7, r1	; 0x8039a7 <reactStr+0x84>
    3bee:	10 92 a8 39 	sts	0x39A8, r1	; 0x8039a8 <reactStr+0x85>
    return 0;
}

//
void SetResponse(uint8_t number, uint16_t address, uint16_t length, uint8_t type){
    reactStr[0][number]=address;
    3bf2:	29 e5       	ldi	r18, 0x59	; 89
    3bf4:	3a e7       	ldi	r19, 0x7A	; 122
    3bf6:	20 93 29 39 	sts	0x3929, r18	; 0x803929 <reactStr+0x6>
    3bfa:	30 93 2a 39 	sts	0x392A, r19	; 0x80392a <reactStr+0x7>
    reactStr[1][number]=length;
    3bfe:	22 e0       	ldi	r18, 0x02	; 2
    3c00:	30 e0       	ldi	r19, 0x00	; 0
    3c02:	20 93 69 39 	sts	0x3969, r18	; 0x803969 <reactStr+0x46>
    3c06:	30 93 6a 39 	sts	0x396A, r19	; 0x80396a <reactStr+0x47>
    reactStr[2][number]=type;
    3c0a:	80 93 a9 39 	sts	0x39A9, r24	; 0x8039a9 <reactStr+0x86>
    3c0e:	90 93 aa 39 	sts	0x39AA, r25	; 0x8039aa <reactStr+0x87>
    return 0;
}

//
void SetResponse(uint8_t number, uint16_t address, uint16_t length, uint8_t type){
    reactStr[0][number]=address;
    3c12:	29 e5       	ldi	r18, 0x59	; 89
    3c14:	37 e7       	ldi	r19, 0x77	; 119
    3c16:	20 93 2b 39 	sts	0x392B, r18	; 0x80392b <reactStr+0x8>
    3c1a:	30 93 2c 39 	sts	0x392C, r19	; 0x80392c <reactStr+0x9>
    reactStr[1][number]=length;
    3c1e:	2d e3       	ldi	r18, 0x3D	; 61
    3c20:	30 e0       	ldi	r19, 0x00	; 0
    3c22:	20 93 6b 39 	sts	0x396B, r18	; 0x80396b <reactStr+0x48>
    3c26:	30 93 6c 39 	sts	0x396C, r19	; 0x80396c <reactStr+0x49>
    reactStr[2][number]=type;
    3c2a:	80 93 ab 39 	sts	0x39AB, r24	; 0x8039ab <reactStr+0x88>
    3c2e:	90 93 ac 39 	sts	0x39AC, r25	; 0x8039ac <reactStr+0x89>
                            PopulateObject(inventory[x], &actObj1);
                            SetResponse(elements++, A_DROPPING, L_DROPPING, TEASER);
                            SetResponse(elements++, actObj1.addrStr[NAME], actObj1.lenStr[NAME], GAME);
                            SetResponse(elements++, A_LF, 2, TEASER);
                            SetResponse(elements++, A_RETURNING, L_RETURNING, TEASER);
                            inventory[x] = 0;
    3c32:	f8 01       	movw	r30, r16
    3c34:	10 82       	st	Z, r1
    3c36:	11 82       	std	Z+1, r1	; 0x01
                        if (CheckLetter(inventory[x], data[1])) {
                            PopulateObject(inventory[x], &actObj1);
                            SetResponse(elements++, A_DROPPING, L_DROPPING, TEASER);
                            SetResponse(elements++, actObj1.addrStr[NAME], actObj1.lenStr[NAME], GAME);
                            SetResponse(elements++, A_LF, 2, TEASER);
                            SetResponse(elements++, A_RETURNING, L_RETURNING, TEASER);
    3c38:	15 e0       	ldi	r17, 0x05	; 5
                            inventory[x] = 0;
                            break;
    3c3a:	86 cf       	rjmp	.-244    	; 0x3b48 <ProcessInput+0xed6>
                SetResponse(elements++, A_EMPTYHANDS, L_EMPTYHANDS, TEASER);
            } else if (inputLen != 2) {
                SetResponse(elements++, A_NOTPOSSIBLE, L_NOTPOSSIBLE, TEASER);
            } else {
                for (uint8_t x=0; x<2; ++x) {
                    if (inventory[x]) {
    3c3c:	80 91 46 38 	lds	r24, 0x3846	; 0x803846 <inventory+0x2>
    3c40:	90 91 47 38 	lds	r25, 0x3847	; 0x803847 <inventory+0x3>
    3c44:	00 97       	sbiw	r24, 0x00	; 0
    3c46:	49 f0       	breq	.+18     	; 0x3c5a <ProcessInput+0xfe8>
                        if (CheckLetter(inventory[x], data[1])) {
    3c48:	f3 01       	movw	r30, r6
    3c4a:	61 81       	ldd	r22, Z+1	; 0x01
    3c4c:	0e 94 5e 12 	call	0x24bc	; 0x24bc <CheckLetter>
    3c50:	88 23       	and	r24, r24
    3c52:	19 f0       	breq	.+6      	; 0x3c5a <ProcessInput+0xfe8>
                SetResponse(elements++, A_EMPTYHANDS, L_EMPTYHANDS, TEASER);
            } else if (inputLen != 2) {
                SetResponse(elements++, A_NOTPOSSIBLE, L_NOTPOSSIBLE, TEASER);
            } else {
                for (uint8_t x=0; x<2; ++x) {
                    if (inventory[x]) {
    3c54:	01 e0       	ldi	r16, 0x01	; 1
    3c56:	10 e0       	ldi	r17, 0x00	; 0
    3c58:	9b cf       	rjmp	.-202    	; 0x3b90 <ProcessInput+0xf1e>
    return 0;
}

//
void SetResponse(uint8_t number, uint16_t address, uint16_t length, uint8_t type){
    reactStr[0][number]=address;
    3c5a:	81 e6       	ldi	r24, 0x61	; 97
    3c5c:	99 e7       	ldi	r25, 0x79	; 121
    3c5e:	80 93 25 39 	sts	0x3925, r24	; 0x803925 <reactStr+0x2>
    3c62:	90 93 26 39 	sts	0x3926, r25	; 0x803926 <reactStr+0x3>
    reactStr[1][number]=length;
    3c66:	81 e2       	ldi	r24, 0x21	; 33
    3c68:	90 e0       	ldi	r25, 0x00	; 0
    } else {

        responseList = SetStandardResponse(1);
    }

    data[0] = 0;
    3c6a:	cb c8       	rjmp	.-3690   	; 0x2e02 <ProcessInput+0x190>
    3c6c:	f3 01       	movw	r30, r6
    serRxDone = 0;
    3c6e:	10 82       	st	Z, r1
    3c70:	10 92 4a 38 	sts	0x384A, r1	; 0x80384a <serRxDone>
    RXCNT = 0;    
    return 0;
}
    3c74:	1d ba       	out	0x1d, r1	; 29
    3c76:	80 e0       	ldi	r24, 0x00	; 0
    3c78:	28 96       	adiw	r28, 0x08	; 8
    3c7a:	ee e0       	ldi	r30, 0x0E	; 14
    3c7c:	f6 c0       	rjmp	.+492    	; 0x3e6a <__epilogue_restores__+0x8>

00003c7e <TextAdventure>:


//MAIN GAME STRUCTURE
uint8_t TextAdventure(){
    3c7e:	cf 93       	push	r28
    static uint8_t serInput[RXLEN];
    uint16_t PunishmentCount;
    
    /* Count down PunishmentTime on WING LEDs */
    if (PunishmentTime != 0) {
    3c80:	80 91 0f 39 	lds	r24, 0x390F	; 0x80390f <PunishmentTime>
    3c84:	90 91 10 39 	lds	r25, 0x3910	; 0x803910 <PunishmentTime+0x1>
    3c88:	89 2b       	or	r24, r25
    3c8a:	09 f1       	breq	.+66     	; 0x3cce <TextAdventure+0x50>
        PunishmentCount = getClock();
    3c8c:	0e 94 32 0e 	call	0x1c64	; 0x1c64 <getClock>
        if (PunishmentCount < PunishmentTime)
    3c90:	20 91 0f 39 	lds	r18, 0x390F	; 0x80390f <PunishmentTime>
    3c94:	30 91 10 39 	lds	r19, 0x3910	; 0x803910 <PunishmentTime+0x1>
    3c98:	82 17       	cp	r24, r18
    3c9a:	93 07       	cpc	r25, r19
    3c9c:	08 f4       	brcc	.+2      	; 0x3ca0 <TextAdventure+0x22>
            PunishmentCount += 256 * 60;
    3c9e:	94 5c       	subi	r25, 0xC4	; 196
        PunishmentCount -= PunishmentTime;
    3ca0:	ac 01       	movw	r20, r24
    3ca2:	42 1b       	sub	r20, r18
    3ca4:	53 0b       	sbc	r21, r19
    3ca6:	9a 01       	movw	r18, r20
        if (PunishmentCount > 10) {
    3ca8:	4b 30       	cpi	r20, 0x0B	; 11
    3caa:	51 05       	cpc	r21, r1
    3cac:	30 f0       	brcs	.+12     	; 0x3cba <TextAdventure+0x3c>
            PunishmentTime = 0;
    3cae:	10 92 0f 39 	sts	0x390F, r1	; 0x80390f <PunishmentTime>
    3cb2:	10 92 10 39 	sts	0x3910, r1	; 0x803910 <PunishmentTime+0x1>
            PunishmentCount = 10;
    3cb6:	2a e0       	ldi	r18, 0x0A	; 10
    3cb8:	30 e0       	ldi	r19, 0x00	; 0
        }
        if (gameNow == TEXT ) {
    3cba:	80 91 42 38 	lds	r24, 0x3842	; 0x803842 <gameNow>
    3cbe:	81 11       	cpse	r24, r1
    3cc0:	06 c0       	rjmp	.+12     	; 0x3cce <TextAdventure+0x50>
            WingBar(10-PunishmentCount,5-PunishmentCount);
    3cc2:	65 e0       	ldi	r22, 0x05	; 5
    3cc4:	62 1b       	sub	r22, r18
    3cc6:	8a e0       	ldi	r24, 0x0A	; 10
    3cc8:	82 1b       	sub	r24, r18
    3cca:	0e 94 e9 0a 	call	0x15d2	; 0x15d2 <WingBar>
        }
    }

    //Still sending data to serial?
    if (CheckSend()) return 1;
    3cce:	0e 94 34 13 	call	0x2668	; 0x2668 <CheckSend>
    3cd2:	88 23       	and	r24, r24
    3cd4:	11 f0       	breq	.+4      	; 0x3cda <TextAdventure+0x5c>
    3cd6:	c1 e0       	ldi	r28, 0x01	; 1
    3cd8:	18 c0       	rjmp	.+48     	; 0x3d0a <TextAdventure+0x8c>

    //Not sending? Process next response part to send, if any.
    if (CheckResponse()) return 1;        
    3cda:	0e 94 8a 13 	call	0x2714	; 0x2714 <CheckResponse>
    3cde:	c8 2f       	mov	r28, r24
    3ce0:	81 11       	cpse	r24, r1
    3ce2:	f9 cf       	rjmp	.-14     	; 0x3cd6 <TextAdventure+0x58>

    if (PunishmentTime == 0) {
    3ce4:	80 91 0f 39 	lds	r24, 0x390F	; 0x80390f <PunishmentTime>
    3ce8:	90 91 10 39 	lds	r25, 0x3910	; 0x803910 <PunishmentTime+0x1>
    3cec:	89 2b       	or	r24, r25
    3cee:	69 f4       	brne	.+26     	; 0x3d0a <TextAdventure+0x8c>
        //No responses to send, check if there is user input.
        if (CheckInput(&serInput[0])) return 2; 
    3cf0:	86 e7       	ldi	r24, 0x76	; 118
    3cf2:	98 e3       	ldi	r25, 0x38	; 56
    3cf4:	0e 94 ca 13 	call	0x2794	; 0x2794 <CheckInput>
    3cf8:	c8 2f       	mov	r28, r24
    3cfa:	81 11       	cpse	r24, r1
    3cfc:	05 c0       	rjmp	.+10     	; 0x3d08 <TextAdventure+0x8a>

        //Input found, process and save (changes only)
        ProcessInput(&serInput[0]);
    3cfe:	86 e7       	ldi	r24, 0x76	; 118
    3d00:	98 e3       	ldi	r25, 0x38	; 56
    3d02:	0e 94 39 16 	call	0x2c72	; 0x2c72 <ProcessInput>
    3d06:	01 c0       	rjmp	.+2      	; 0x3d0a <TextAdventure+0x8c>
    //Not sending? Process next response part to send, if any.
    if (CheckResponse()) return 1;        

    if (PunishmentTime == 0) {
        //No responses to send, check if there is user input.
        if (CheckInput(&serInput[0])) return 2; 
    3d08:	c2 e0       	ldi	r28, 0x02	; 2
        //Input found, process and save (changes only)
        ProcessInput(&serInput[0]);
    }

    return 0;
}
    3d0a:	8c 2f       	mov	r24, r28
    3d0c:	cf 91       	pop	r28
    3d0e:	08 95       	ret

00003d10 <main>:


//This is where it begins, inits first and main program in while(1) loop.
int main(void)
{
    Setup();
    3d10:	0e 94 d5 04 	call	0x9aa	; 0x9aa <Setup>
    LoadGameState();
    3d14:	0e 94 57 0a 	call	0x14ae	; 0x14ae <LoadGameState>
    gameState[0]|=1;
    3d18:	80 91 69 3a 	lds	r24, 0x3A69	; 0x803a69 <gameState>
    3d1c:	81 60       	ori	r24, 0x01	; 1
    3d1e:	80 93 69 3a 	sts	0x3A69, r24	; 0x803a69 <gameState>
    SelfTest();
    3d22:	0e 94 59 0e 	call	0x1cb2	; 0x1cb2 <SelfTest>
            if (adcPhot < 10) UpdateState(116);
            if (adcPhot > 100) UpdateState(128+116);

            dimValueSum -= (dimValueSum>>6);
            dimValueSum += 256;
            dimValueSum -= QSINE[31-(adcPhot>>7)];
    3d26:	cf e1       	ldi	r28, 0x1F	; 31
    3d28:	d0 e0       	ldi	r29, 0x00	; 0
    LoadGameState();
    gameState[0]|=1;
    SelfTest();

    while (TRUE) {
        if (GenerateAudio()) {
    3d2a:	0e 94 a5 0c 	call	0x194a	; 0x194a <GenerateAudio>
    3d2e:	88 23       	and	r24, r24
    3d30:	e1 f3       	breq	.-8      	; 0x3d2a <main+0x1a>
            lastButtonState = buttonState;
    3d32:	80 91 08 38 	lds	r24, 0x3808	; 0x803808 <buttonState>
    3d36:	80 93 07 38 	sts	0x3807, r24	; 0x803807 <lastButtonState>
            buttonState = CheckButtons();
    3d3a:	0e 94 c4 08 	call	0x1188	; 0x1188 <CheckButtons>
    3d3e:	80 93 08 38 	sts	0x3808, r24	; 0x803808 <buttonState>
            --buttonMark;
    3d42:	80 91 48 38 	lds	r24, 0x3848	; 0x803848 <buttonMark>
    3d46:	81 50       	subi	r24, 0x01	; 1
    3d48:	80 93 48 38 	sts	0x3848, r24	; 0x803848 <buttonMark>

            if (VREF_CTRLA == 0x12) SelectAuIn(); else SelectTSens();
    3d4c:	80 91 a0 00 	lds	r24, 0x00A0	; 0x8000a0 <__TEXT_REGION_LENGTH__+0x7000a0>
    3d50:	82 31       	cpi	r24, 0x12	; 18
    3d52:	19 f4       	brne	.+6      	; 0x3d5a <main+0x4a>
    3d54:	0e 94 b5 08 	call	0x116a	; 0x116a <SelectAuIn>
    3d58:	02 c0       	rjmp	.+4      	; 0x3d5e <main+0x4e>
    3d5a:	0e 94 a6 08 	call	0x114c	; 0x114c <SelectTSens>

            GenerateBlinks();
    3d5e:	0e 94 3e 0b 	call	0x167c	; 0x167c <GenerateBlinks>

            //Main game, to complete: Finish sub-game MagnetMaze and MakeFriends too.
            TextAdventure();
    3d62:	8d df       	rcall	.-230    	; 0x3c7e <TextAdventure>

            //Other games & user interaction checks
            MagnetMaze();
    3d64:	0e 94 d8 03 	call	0x7b0	; 0x7b0 <MagnetMaze>
            LanyardCode();
    3d68:	0e 94 d5 02 	call	0x5aa	; 0x5aa <LanyardCode>
            BastetDictates();
    3d6c:	0e 94 44 0f 	call	0x1e88	; 0x1e88 <BastetDictates>
            MakeFriends();
    3d70:	0e 94 7d 00 	call	0xfa	; 0xfa <MakeFriends>

            //Save progress
            SaveGameState();
    3d74:	0e 94 71 09 	call	0x12e2	; 0x12e2 <SaveGameState>

            //Check light sensor status (added hysteresis to preserve writing cycles to internal EEPROM)
            if (adcPhot < 10) UpdateState(116);
    3d78:	80 91 c5 3a 	lds	r24, 0x3AC5	; 0x803ac5 <adcPhot>
    3d7c:	90 91 c6 3a 	lds	r25, 0x3AC6	; 0x803ac6 <adcPhot+0x1>
    3d80:	0a 97       	sbiw	r24, 0x0a	; 10
    3d82:	18 f4       	brcc	.+6      	; 0x3d8a <main+0x7a>
    3d84:	84 e7       	ldi	r24, 0x74	; 116
    3d86:	0e 94 f8 09 	call	0x13f0	; 0x13f0 <UpdateState>
            if (adcPhot > 100) UpdateState(128+116);
    3d8a:	80 91 c5 3a 	lds	r24, 0x3AC5	; 0x803ac5 <adcPhot>
    3d8e:	90 91 c6 3a 	lds	r25, 0x3AC6	; 0x803ac6 <adcPhot+0x1>
    3d92:	85 36       	cpi	r24, 0x65	; 101
    3d94:	91 05       	cpc	r25, r1
    3d96:	18 f0       	brcs	.+6      	; 0x3d9e <main+0x8e>
    3d98:	84 ef       	ldi	r24, 0xF4	; 244
    3d9a:	0e 94 f8 09 	call	0x13f0	; 0x13f0 <UpdateState>

            dimValueSum -= (dimValueSum>>6);
    3d9e:	20 91 0a 38 	lds	r18, 0x380A	; 0x80380a <dimValueSum>
    3da2:	30 91 0b 38 	lds	r19, 0x380B	; 0x80380b <dimValueSum+0x1>
    3da6:	80 91 0a 38 	lds	r24, 0x380A	; 0x80380a <dimValueSum>
    3daa:	90 91 0b 38 	lds	r25, 0x380B	; 0x80380b <dimValueSum+0x1>
    3dae:	46 e0       	ldi	r20, 0x06	; 6
    3db0:	36 95       	lsr	r19
    3db2:	27 95       	ror	r18
    3db4:	4a 95       	dec	r20
    3db6:	e1 f7       	brne	.-8      	; 0x3db0 <main+0xa0>
    3db8:	82 1b       	sub	r24, r18
    3dba:	93 0b       	sbc	r25, r19
    3dbc:	80 93 0a 38 	sts	0x380A, r24	; 0x80380a <dimValueSum>
    3dc0:	90 93 0b 38 	sts	0x380B, r25	; 0x80380b <dimValueSum+0x1>
            dimValueSum += 256;
    3dc4:	80 91 0a 38 	lds	r24, 0x380A	; 0x80380a <dimValueSum>
    3dc8:	90 91 0b 38 	lds	r25, 0x380B	; 0x80380b <dimValueSum+0x1>
    3dcc:	93 95       	inc	r25
    3dce:	80 93 0a 38 	sts	0x380A, r24	; 0x80380a <dimValueSum>
    3dd2:	90 93 0b 38 	sts	0x380B, r25	; 0x80380b <dimValueSum+0x1>
            dimValueSum -= QSINE[31-(adcPhot>>7)];
    3dd6:	20 91 c5 3a 	lds	r18, 0x3AC5	; 0x803ac5 <adcPhot>
    3dda:	30 91 c6 3a 	lds	r19, 0x3AC6	; 0x803ac6 <adcPhot+0x1>
    3dde:	80 91 0a 38 	lds	r24, 0x380A	; 0x80380a <dimValueSum>
    3de2:	90 91 0b 38 	lds	r25, 0x380B	; 0x80380b <dimValueSum+0x1>
    3de6:	22 0f       	add	r18, r18
    3de8:	23 2f       	mov	r18, r19
    3dea:	22 1f       	adc	r18, r18
    3dec:	33 0b       	sbc	r19, r19
    3dee:	31 95       	neg	r19
    3df0:	fe 01       	movw	r30, r28
    3df2:	e2 1b       	sub	r30, r18
    3df4:	f3 0b       	sbc	r31, r19
    3df6:	e0 53       	subi	r30, 0x30	; 48
    3df8:	f1 44       	sbci	r31, 0x41	; 65
    3dfa:	20 81       	ld	r18, Z
    3dfc:	82 1b       	sub	r24, r18
    3dfe:	91 09       	sbc	r25, r1
    3e00:	80 93 0a 38 	sts	0x380A, r24	; 0x80380a <dimValueSum>
    3e04:	90 93 0b 38 	sts	0x380B, r25	; 0x80380b <dimValueSum+0x1>
            dimValue     = dimValueSum>>6;
    3e08:	80 91 0a 38 	lds	r24, 0x380A	; 0x80380a <dimValueSum>
    3e0c:	90 91 0b 38 	lds	r25, 0x380B	; 0x80380b <dimValueSum+0x1>
    3e10:	66 e0       	ldi	r22, 0x06	; 6
    3e12:	96 95       	lsr	r25
    3e14:	87 95       	ror	r24
    3e16:	6a 95       	dec	r22
    3e18:	e1 f7       	brne	.-8      	; 0x3e12 <main+0x102>
    3e1a:	80 93 0c 38 	sts	0x380C, r24	; 0x80380c <dimValue>

            //Check temperature
            HotSummer();
    3e1e:	0e 94 84 0a 	call	0x1508	; 0x1508 <HotSummer>
    3e22:	83 cf       	rjmp	.-250    	; 0x3d2a <main+0x1a>

00003e24 <__tablejump2__>:
    3e24:	ee 0f       	add	r30, r30
    3e26:	ff 1f       	adc	r31, r31
    3e28:	05 90       	lpm	r0, Z+
    3e2a:	f4 91       	lpm	r31, Z
    3e2c:	e0 2d       	mov	r30, r0
    3e2e:	09 94       	ijmp

00003e30 <__prologue_saves__>:
    3e30:	2f 92       	push	r2
    3e32:	3f 92       	push	r3
    3e34:	4f 92       	push	r4
    3e36:	5f 92       	push	r5
    3e38:	6f 92       	push	r6
    3e3a:	7f 92       	push	r7
    3e3c:	8f 92       	push	r8
    3e3e:	9f 92       	push	r9
    3e40:	af 92       	push	r10
    3e42:	bf 92       	push	r11
    3e44:	cf 92       	push	r12
    3e46:	df 92       	push	r13
    3e48:	ef 92       	push	r14
    3e4a:	ff 92       	push	r15
    3e4c:	0f 93       	push	r16
    3e4e:	1f 93       	push	r17
    3e50:	cf 93       	push	r28
    3e52:	df 93       	push	r29
    3e54:	cd b7       	in	r28, 0x3d	; 61
    3e56:	de b7       	in	r29, 0x3e	; 62
    3e58:	ca 1b       	sub	r28, r26
    3e5a:	db 0b       	sbc	r29, r27
    3e5c:	cd bf       	out	0x3d, r28	; 61
    3e5e:	de bf       	out	0x3e, r29	; 62
    3e60:	09 94       	ijmp

00003e62 <__epilogue_restores__>:
    3e62:	2a 88       	ldd	r2, Y+18	; 0x12
    3e64:	39 88       	ldd	r3, Y+17	; 0x11
    3e66:	48 88       	ldd	r4, Y+16	; 0x10
    3e68:	5f 84       	ldd	r5, Y+15	; 0x0f
    3e6a:	6e 84       	ldd	r6, Y+14	; 0x0e
    3e6c:	7d 84       	ldd	r7, Y+13	; 0x0d
    3e6e:	8c 84       	ldd	r8, Y+12	; 0x0c
    3e70:	9b 84       	ldd	r9, Y+11	; 0x0b
    3e72:	aa 84       	ldd	r10, Y+10	; 0x0a
    3e74:	b9 84       	ldd	r11, Y+9	; 0x09
    3e76:	c8 84       	ldd	r12, Y+8	; 0x08
    3e78:	df 80       	ldd	r13, Y+7	; 0x07
    3e7a:	ee 80       	ldd	r14, Y+6	; 0x06
    3e7c:	fd 80       	ldd	r15, Y+5	; 0x05
    3e7e:	0c 81       	ldd	r16, Y+4	; 0x04
    3e80:	1b 81       	ldd	r17, Y+3	; 0x03
    3e82:	aa 81       	ldd	r26, Y+2	; 0x02
    3e84:	b9 81       	ldd	r27, Y+1	; 0x01
    3e86:	ce 0f       	add	r28, r30
    3e88:	d1 1d       	adc	r29, r1
    3e8a:	cd bf       	out	0x3d, r28	; 61
    3e8c:	de bf       	out	0x3e, r29	; 62
    3e8e:	ed 01       	movw	r28, r26
    3e90:	08 95       	ret

00003e92 <_exit>:
    3e92:	f8 94       	cli

00003e94 <__stop_program>:
    3e94:	ff cf       	rjmp	.-2      	; 0x3e94 <__stop_program>
