
ISR_IO.elf:     file format elf32-avr

Sections:
Idx Name          Size      VMA       LMA       File off  Algn
  0 .data         00000090  00803800  00001a5c  00001b10  2**0
                  CONTENTS, ALLOC, LOAD, DATA
  1 .text         00001a18  00000000  00000000  000000b4  2**1
                  CONTENTS, ALLOC, LOAD, READONLY, CODE
  2 .rodata       00000044  00009a18  00001a18  00001acc  2**0
                  CONTENTS, ALLOC, LOAD, READONLY, DATA
  3 .bss          000001f2  00803890  00803890  00001ba0  2**0
                  ALLOC
  4 .comment      00000030  00000000  00000000  00001ba0  2**0
                  CONTENTS, READONLY
  5 .note.gnu.avr.deviceinfo 00000040  00000000  00000000  00001bd0  2**2
                  CONTENTS, READONLY
  6 .debug_aranges 00000250  00000000  00000000  00001c10  2**0
                  CONTENTS, READONLY, DEBUGGING
  7 .debug_info   0000432a  00000000  00000000  00001e60  2**0
                  CONTENTS, READONLY, DEBUGGING
  8 .debug_abbrev 000022a3  00000000  00000000  0000618a  2**0
                  CONTENTS, READONLY, DEBUGGING
  9 .debug_line   00001d99  00000000  00000000  0000842d  2**0
                  CONTENTS, READONLY, DEBUGGING
 10 .debug_frame  00000790  00000000  00000000  0000a1c8  2**2
                  CONTENTS, READONLY, DEBUGGING
 11 .debug_str    0000170a  00000000  00000000  0000a958  2**0
                  CONTENTS, READONLY, DEBUGGING
 12 .debug_loc    00002429  00000000  00000000  0000c062  2**0
                  CONTENTS, READONLY, DEBUGGING
 13 .debug_ranges 000002a8  00000000  00000000  0000e48b  2**0
                  CONTENTS, READONLY, DEBUGGING

Disassembly of section .text:

00000000 <__vectors>:
       0:	3d c0       	rjmp	.+122    	; 0x7c <__ctors_end>
       2:	00 00       	nop
       4:	58 c0       	rjmp	.+176    	; 0xb6 <__bad_interrupt>
       6:	00 00       	nop
       8:	56 c0       	rjmp	.+172    	; 0xb6 <__bad_interrupt>
       a:	00 00       	nop
       c:	54 c0       	rjmp	.+168    	; 0xb6 <__bad_interrupt>
       e:	00 00       	nop
      10:	52 c0       	rjmp	.+164    	; 0xb6 <__bad_interrupt>
      12:	00 00       	nop
      14:	50 c0       	rjmp	.+160    	; 0xb6 <__bad_interrupt>
      16:	00 00       	nop
      18:	5b c4       	rjmp	.+2230   	; 0x8d0 <__vector_6>
      1a:	00 00       	nop
      1c:	ae c4       	rjmp	.+2396   	; 0x97a <__vector_7>
      1e:	00 00       	nop
      20:	af c2       	rjmp	.+1374   	; 0x580 <__vector_8>
      22:	00 00       	nop
      24:	48 c0       	rjmp	.+144    	; 0xb6 <__bad_interrupt>
      26:	00 00       	nop
      28:	46 c0       	rjmp	.+140    	; 0xb6 <__bad_interrupt>
      2a:	00 00       	nop
      2c:	44 c0       	rjmp	.+136    	; 0xb6 <__bad_interrupt>
      2e:	00 00       	nop
      30:	42 c0       	rjmp	.+132    	; 0xb6 <__bad_interrupt>
      32:	00 00       	nop
      34:	f9 c2       	rjmp	.+1522   	; 0x628 <__vector_13>
      36:	00 00       	nop
      38:	2a c3       	rjmp	.+1620   	; 0x68e <__vector_14>
      3a:	00 00       	nop
      3c:	3c c0       	rjmp	.+120    	; 0xb6 <__bad_interrupt>
      3e:	00 00       	nop
      40:	3a c0       	rjmp	.+116    	; 0xb6 <__bad_interrupt>
      42:	00 00       	nop
      44:	38 c0       	rjmp	.+112    	; 0xb6 <__bad_interrupt>
      46:	00 00       	nop
      48:	36 c0       	rjmp	.+108    	; 0xb6 <__bad_interrupt>
      4a:	00 00       	nop
      4c:	34 c0       	rjmp	.+104    	; 0xb6 <__bad_interrupt>
      4e:	00 00       	nop
      50:	c1 c3       	rjmp	.+1922   	; 0x7d4 <__vector_20>
      52:	00 00       	nop
      54:	30 c0       	rjmp	.+96     	; 0xb6 <__bad_interrupt>
      56:	00 00       	nop
      58:	eb c3       	rjmp	.+2006   	; 0x830 <__vector_22>
      5a:	00 00       	nop
      5c:	2c c0       	rjmp	.+88     	; 0xb6 <__bad_interrupt>
      5e:	00 00       	nop
      60:	2a c0       	rjmp	.+84     	; 0xb6 <__bad_interrupt>
      62:	00 00       	nop
      64:	28 c0       	rjmp	.+80     	; 0xb6 <__bad_interrupt>
      66:	00 00       	nop
      68:	26 c0       	rjmp	.+76     	; 0xb6 <__bad_interrupt>
      6a:	00 00       	nop
      6c:	63 c3       	rjmp	.+1734   	; 0x734 <__vector_27>
      6e:	00 00       	nop
      70:	95 c3       	rjmp	.+1834   	; 0x79c <__vector_28>
      72:	00 00       	nop
      74:	20 c0       	rjmp	.+64     	; 0xb6 <__bad_interrupt>
      76:	00 00       	nop
      78:	1e c0       	rjmp	.+60     	; 0xb6 <__bad_interrupt>
	...

0000007c <__ctors_end>:
      7c:	11 24       	eor	r1, r1
      7e:	1f be       	out	0x3f, r1	; 63
      80:	cf ef       	ldi	r28, 0xFF	; 255
      82:	cd bf       	out	0x3d, r28	; 61
      84:	df e3       	ldi	r29, 0x3F	; 63
      86:	de bf       	out	0x3e, r29	; 62

00000088 <__do_copy_data>:
      88:	18 e3       	ldi	r17, 0x38	; 56
      8a:	a0 e0       	ldi	r26, 0x00	; 0
      8c:	b8 e3       	ldi	r27, 0x38	; 56
      8e:	ec e5       	ldi	r30, 0x5C	; 92
      90:	fa e1       	ldi	r31, 0x1A	; 26
      92:	02 c0       	rjmp	.+4      	; 0x98 <__do_copy_data+0x10>
      94:	05 90       	lpm	r0, Z+
      96:	0d 92       	st	X+, r0
      98:	a0 39       	cpi	r26, 0x90	; 144
      9a:	b1 07       	cpc	r27, r17
      9c:	d9 f7       	brne	.-10     	; 0x94 <__do_copy_data+0xc>

0000009e <__do_clear_bss>:
      9e:	2a e3       	ldi	r18, 0x3A	; 58
      a0:	a0 e9       	ldi	r26, 0x90	; 144
      a2:	b8 e3       	ldi	r27, 0x38	; 56
      a4:	01 c0       	rjmp	.+2      	; 0xa8 <.do_clear_bss_start>

000000a6 <.do_clear_bss_loop>:
      a6:	1d 92       	st	X+, r1

000000a8 <.do_clear_bss_start>:
      a8:	a2 38       	cpi	r26, 0x82	; 130
      aa:	b2 07       	cpc	r27, r18
      ac:	e1 f7       	brne	.-8      	; 0xa6 <.do_clear_bss_loop>
      ae:	0e 94 88 0c 	call	0x1910	; 0x1910 <main>
      b2:	0c 94 0a 0d 	jmp	0x1a14	; 0x1a14 <_exit>

000000b6 <__bad_interrupt>:
      b6:	a4 cf       	rjmp	.-184    	; 0x0 <__vectors>

000000b8 <I2C_init>:
// the Atmel device documentation mentions a special command for repeated start TWI_MCMD_REPSTART_gc,
// but this is not used in Atmel's demo code, so we don't use it either

void I2C_rep_start(uint8_t shifted_addr)						    // send repeated start, device_addr + LSB set if READ
{
	TWI0.MADDR = shifted_addr;	
      b8:	81 e0       	ldi	r24, 0x01	; 1
      ba:	80 93 22 04 	sts	0x0422, r24	; 0x800422 <__TEXT_REGION_LENGTH__+0x700422>
      be:	e6 e2       	ldi	r30, 0x26	; 38
      c0:	f4 e0       	ldi	r31, 0x04	; 4
      c2:	80 83       	st	Z, r24
      c4:	10 92 30 04 	sts	0x0430, r1	; 0x800430 <__TEXT_REGION_LENGTH__+0x700430>
      c8:	a1 e2       	ldi	r26, 0x21	; 33
      ca:	b4 e0       	ldi	r27, 0x04	; 4
      cc:	92 e0       	ldi	r25, 0x02	; 2
      ce:	9c 93       	st	X, r25
      d0:	90 83       	st	Z, r25
      d2:	10 92 31 04 	sts	0x0431, r1	; 0x800431 <__TEXT_REGION_LENGTH__+0x700431>
      d6:	e0 e1       	ldi	r30, 0x10	; 16
      d8:	f8 e0       	ldi	r31, 0x08	; 8
      da:	9d e2       	ldi	r25, 0x2D	; 45
      dc:	96 83       	std	Z+6, r25	; 0x06
      de:	98 e0       	ldi	r25, 0x08	; 8
      e0:	94 83       	std	Z+4, r25	; 0x04
      e2:	83 83       	std	Z+3, r24	; 0x03
      e4:	8c 93       	st	X, r24
      e6:	85 81       	ldd	r24, Z+5	; 0x05
      e8:	81 60       	ori	r24, 0x01	; 1
      ea:	85 83       	std	Z+5, r24	; 0x05
      ec:	85 81       	ldd	r24, Z+5	; 0x05
      ee:	84 6c       	ori	r24, 0xC4	; 196
      f0:	85 83       	std	Z+5, r24	; 0x05
      f2:	08 95       	ret

000000f4 <I2C_recover>:
      f4:	e0 e1       	ldi	r30, 0x10	; 16
      f6:	f8 e0       	ldi	r31, 0x08	; 8
      f8:	84 81       	ldd	r24, Z+4	; 0x04
      fa:	88 60       	ori	r24, 0x08	; 8
      fc:	84 83       	std	Z+4, r24	; 0x04
      fe:	13 82       	std	Z+3, r1	; 0x03
     100:	82 e0       	ldi	r24, 0x02	; 2
     102:	80 93 22 04 	sts	0x0422, r24	; 0x800422 <__TEXT_REGION_LENGTH__+0x700422>
     106:	89 e0       	ldi	r24, 0x09	; 9
     108:	a1 e2       	ldi	r26, 0x21	; 33
     10a:	b4 e0       	ldi	r27, 0x04	; 4
     10c:	91 e0       	ldi	r25, 0x01	; 1
     10e:	e2 e2       	ldi	r30, 0x22	; 34
     110:	f4 e0       	ldi	r31, 0x04	; 4
     112:	9c 93       	st	X, r25
     114:	20 e1       	ldi	r18, 0x10	; 16
     116:	2a 95       	dec	r18
     118:	f1 f7       	brne	.-4      	; 0x116 <I2C_recover+0x22>
     11a:	00 c0       	rjmp	.+0      	; 0x11c <I2C_recover+0x28>
     11c:	90 83       	st	Z, r25
     11e:	20 e1       	ldi	r18, 0x10	; 16
     120:	2a 95       	dec	r18
     122:	f1 f7       	brne	.-4      	; 0x120 <I2C_recover+0x2c>
     124:	00 c0       	rjmp	.+0      	; 0x126 <I2C_recover+0x32>
     126:	81 50       	subi	r24, 0x01	; 1
     128:	a1 f7       	brne	.-24     	; 0x112 <I2C_recover+0x1e>
     12a:	e0 e1       	ldi	r30, 0x10	; 16
     12c:	f8 e0       	ldi	r31, 0x08	; 8
     12e:	28 e0       	ldi	r18, 0x08	; 8
     130:	24 83       	std	Z+4, r18	; 0x04
     132:	81 e0       	ldi	r24, 0x01	; 1
     134:	83 83       	std	Z+3, r24	; 0x03
     136:	a1 e2       	ldi	r26, 0x21	; 33
     138:	b4 e0       	ldi	r27, 0x04	; 4
     13a:	92 e0       	ldi	r25, 0x02	; 2
     13c:	9c 93       	st	X, r25
     13e:	95 81       	ldd	r25, Z+5	; 0x05
     140:	91 60       	ori	r25, 0x01	; 1
     142:	95 83       	std	Z+5, r25	; 0x05
     144:	95 81       	ldd	r25, Z+5	; 0x05
     146:	94 6c       	ori	r25, 0xC4	; 196
     148:	95 83       	std	Z+5, r25	; 0x05
     14a:	24 83       	std	Z+4, r18	; 0x04
     14c:	83 83       	std	Z+3, r24	; 0x03
     14e:	8c 93       	st	X, r24
     150:	85 81       	ldd	r24, Z+5	; 0x05
     152:	81 60       	ori	r24, 0x01	; 1
     154:	85 83       	std	Z+5, r24	; 0x05
     156:	85 81       	ldd	r24, Z+5	; 0x05
     158:	84 6c       	ori	r24, 0xC4	; 196
     15a:	85 83       	std	Z+5, r24	; 0x05
     15c:	08 95       	ret

0000015e <I2C_start>:
     15e:	28 2f       	mov	r18, r24
     160:	e0 e1       	ldi	r30, 0x10	; 16
     162:	f8 e0       	ldi	r31, 0x08	; 8
     164:	95 81       	ldd	r25, Z+5	; 0x05
     166:	90 6c       	ori	r25, 0xC0	; 192
     168:	95 83       	std	Z+5, r25	; 0x05
     16a:	95 81       	ldd	r25, Z+5	; 0x05
     16c:	89 2f       	mov	r24, r25
     16e:	84 70       	andi	r24, 0x04	; 4
     170:	92 fd       	sbrc	r25, 2
     172:	03 c0       	rjmp	.+6      	; 0x17a <I2C_start+0x1c>
     174:	20 93 17 08 	sts	0x0817, r18	; 0x800817 <__TEXT_REGION_LENGTH__+0x700817>
     178:	08 95       	ret
     17a:	84 e0       	ldi	r24, 0x04	; 4
     17c:	08 95       	ret

0000017e <I2C_wait_ACK>:
     17e:	8c e0       	ldi	r24, 0x0C	; 12
     180:	80 93 b9 39 	sts	0x39B9, r24	; 0x8039b9 <timeout_I2C>
     184:	e0 e1       	ldi	r30, 0x10	; 16
     186:	f8 e0       	ldi	r31, 0x08	; 8
     188:	04 c0       	rjmp	.+8      	; 0x192 <I2C_wait_ACK+0x14>
     18a:	80 91 b9 39 	lds	r24, 0x39B9	; 0x8039b9 <timeout_I2C>
     18e:	88 23       	and	r24, r24
     190:	b9 f0       	breq	.+46     	; 0x1c0 <I2C_wait_ACK+0x42>
     192:	85 81       	ldd	r24, Z+5	; 0x05
     194:	88 23       	and	r24, r24
     196:	1c f0       	brlt	.+6      	; 0x19e <I2C_wait_ACK+0x20>
     198:	85 81       	ldd	r24, Z+5	; 0x05
     19a:	86 ff       	sbrs	r24, 6
     19c:	f6 cf       	rjmp	.-20     	; 0x18a <I2C_wait_ACK+0xc>
     19e:	e0 e1       	ldi	r30, 0x10	; 16
     1a0:	f8 e0       	ldi	r31, 0x08	; 8
     1a2:	85 81       	ldd	r24, Z+5	; 0x05
     1a4:	80 6c       	ori	r24, 0xC0	; 192
     1a6:	85 83       	std	Z+5, r24	; 0x05
     1a8:	85 81       	ldd	r24, Z+5	; 0x05
     1aa:	82 fd       	sbrc	r24, 2
     1ac:	0b c0       	rjmp	.+22     	; 0x1c4 <I2C_wait_ACK+0x46>
     1ae:	80 91 15 08 	lds	r24, 0x0815	; 0x800815 <__TEXT_REGION_LENGTH__+0x700815>
     1b2:	83 fd       	sbrc	r24, 3
     1b4:	09 c0       	rjmp	.+18     	; 0x1c8 <I2C_wait_ACK+0x4a>
     1b6:	80 91 15 08 	lds	r24, 0x0815	; 0x800815 <__TEXT_REGION_LENGTH__+0x700815>
     1ba:	82 95       	swap	r24
     1bc:	81 70       	andi	r24, 0x01	; 1
     1be:	08 95       	ret
     1c0:	8f ef       	ldi	r24, 0xFF	; 255
     1c2:	08 95       	ret
     1c4:	84 e0       	ldi	r24, 0x04	; 4
     1c6:	08 95       	ret
     1c8:	82 e0       	ldi	r24, 0x02	; 2
     1ca:	08 95       	ret

000001cc <I2C_read>:
}

uint8_t	I2C_read(uint8_t *data, uint8_t ack_flag)					// read data, ack_flag 0: send ACK, 1: send NACK, returns status
{
     1cc:	dc 01       	movw	r26, r24
	timeout_I2C = READ_TIMEOUT;										// reset timeout counter, will be decremented by LED matrix interrupt
     1ce:	9c e0       	ldi	r25, 0x0C	; 12
     1d0:	90 93 b9 39 	sts	0x39B9, r25	; 0x8039b9 <timeout_I2C>
	if ((TWI0.MSTATUS & TWI_BUSSTATE_gm) == TWI_BUSSTATE_OWNER_gc)	// if master controls bus
     1d4:	90 91 15 08 	lds	r25, 0x0815	; 0x800815 <__TEXT_REGION_LENGTH__+0x700815>
     1d8:	89 2f       	mov	r24, r25
     1da:	83 70       	andi	r24, 0x03	; 3
     1dc:	82 30       	cpi	r24, 0x02	; 2
     1de:	39 f0       	breq	.+14     	; 0x1ee <I2C_read+0x22>
		else		TWI0.MCTRLB |= TWI_ACKACT_NACK_gc;				// setup NACK (last byte read)
		*data = TWI0.MDATA;
		if (ack_flag == 0) TWI0.MCTRLB |= TWI_MCMD_RECVTRANS_gc;	// send ACK, more bytes to follow					
		return 0;
	}
	else return 8;													// master does not control bus
     1e0:	88 e0       	ldi	r24, 0x08	; 8
     1e2:	08 95       	ret
	timeout_I2C = READ_TIMEOUT;										// reset timeout counter, will be decremented by LED matrix interrupt
	if ((TWI0.MSTATUS & TWI_BUSSTATE_gm) == TWI_BUSSTATE_OWNER_gc)	// if master controls bus
	{		
		while (!(TWI0.MSTATUS & TWI_RIF_bm))						// wait for RIF set (data byte received)
		{
			if (!(timeout_I2C)) return 0xff;			            // return timeout error
     1e4:	90 91 b9 39 	lds	r25, 0x39B9	; 0x8039b9 <timeout_I2C>
     1e8:	91 11       	cpse	r25, r1
     1ea:	03 c0       	rjmp	.+6      	; 0x1f2 <I2C_read+0x26>
     1ec:	2a c0       	rjmp	.+84     	; 0x242 <I2C_read+0x76>
uint8_t	I2C_read(uint8_t *data, uint8_t ack_flag)					// read data, ack_flag 0: send ACK, 1: send NACK, returns status
{
	timeout_I2C = READ_TIMEOUT;										// reset timeout counter, will be decremented by LED matrix interrupt
	if ((TWI0.MSTATUS & TWI_BUSSTATE_gm) == TWI_BUSSTATE_OWNER_gc)	// if master controls bus
	{		
		while (!(TWI0.MSTATUS & TWI_RIF_bm))						// wait for RIF set (data byte received)
     1ee:	e0 e1       	ldi	r30, 0x10	; 16
     1f0:	f8 e0       	ldi	r31, 0x08	; 8
     1f2:	95 81       	ldd	r25, Z+5	; 0x05
     1f4:	99 23       	and	r25, r25
     1f6:	b4 f7       	brge	.-20     	; 0x1e4 <I2C_read+0x18>
		{
			if (!(timeout_I2C)) return 0xff;			            // return timeout error
		}
		TWI0.MSTATUS |= (TWI_RIF_bm | TWI_WIF_bm);					// clear Read and Write interrupt flags	
     1f8:	e0 e1       	ldi	r30, 0x10	; 16
     1fa:	f8 e0       	ldi	r31, 0x08	; 8
     1fc:	95 81       	ldd	r25, Z+5	; 0x05
     1fe:	90 6c       	ori	r25, 0xC0	; 192
     200:	95 83       	std	Z+5, r25	; 0x05
		if (TWI0.MSTATUS & TWI_BUSERR_bm) return 4;					// Bus Error, abort
     202:	95 81       	ldd	r25, Z+5	; 0x05
     204:	92 fd       	sbrc	r25, 2
     206:	1f c0       	rjmp	.+62     	; 0x246 <I2C_read+0x7a>
		if (TWI0.MSTATUS & TWI_ARBLOST_bm) return 2;				// Arbitration Lost, abort
     208:	90 91 15 08 	lds	r25, 0x0815	; 0x800815 <__TEXT_REGION_LENGTH__+0x700815>
     20c:	93 fd       	sbrc	r25, 3
     20e:	1e c0       	rjmp	.+60     	; 0x24c <I2C_read+0x80>
		if (TWI0.MSTATUS & TWI_RXACK_bm) return 1;					// Slave replied with NACK, abort				
     210:	90 91 15 08 	lds	r25, 0x0815	; 0x800815 <__TEXT_REGION_LENGTH__+0x700815>
     214:	89 2f       	mov	r24, r25
     216:	80 71       	andi	r24, 0x10	; 16
     218:	94 fd       	sbrc	r25, 4
     21a:	17 c0       	rjmp	.+46     	; 0x24a <I2C_read+0x7e>
		if (ack_flag == 0) TWI0.MCTRLB &= ~(1 << TWI_ACKACT_bp);	// setup ACK
     21c:	61 11       	cpse	r22, r1
     21e:	09 c0       	rjmp	.+18     	; 0x232 <I2C_read+0x66>
     220:	94 81       	ldd	r25, Z+4	; 0x04
     222:	9b 7f       	andi	r25, 0xFB	; 251
     224:	94 83       	std	Z+4, r25	; 0x04
		else		TWI0.MCTRLB |= TWI_ACKACT_NACK_gc;				// setup NACK (last byte read)
		*data = TWI0.MDATA;
     226:	90 85       	ldd	r25, Z+8	; 0x08
     228:	9c 93       	st	X, r25
		if (ack_flag == 0) TWI0.MCTRLB |= TWI_MCMD_RECVTRANS_gc;	// send ACK, more bytes to follow					
     22a:	94 81       	ldd	r25, Z+4	; 0x04
     22c:	92 60       	ori	r25, 0x02	; 2
     22e:	94 83       	std	Z+4, r25	; 0x04
     230:	08 95       	ret
		TWI0.MSTATUS |= (TWI_RIF_bm | TWI_WIF_bm);					// clear Read and Write interrupt flags	
		if (TWI0.MSTATUS & TWI_BUSERR_bm) return 4;					// Bus Error, abort
		if (TWI0.MSTATUS & TWI_ARBLOST_bm) return 2;				// Arbitration Lost, abort
		if (TWI0.MSTATUS & TWI_RXACK_bm) return 1;					// Slave replied with NACK, abort				
		if (ack_flag == 0) TWI0.MCTRLB &= ~(1 << TWI_ACKACT_bp);	// setup ACK
		else		TWI0.MCTRLB |= TWI_ACKACT_NACK_gc;				// setup NACK (last byte read)
     232:	e0 e1       	ldi	r30, 0x10	; 16
     234:	f8 e0       	ldi	r31, 0x08	; 8
     236:	94 81       	ldd	r25, Z+4	; 0x04
     238:	94 60       	ori	r25, 0x04	; 4
     23a:	94 83       	std	Z+4, r25	; 0x04
		*data = TWI0.MDATA;
     23c:	90 85       	ldd	r25, Z+8	; 0x08
     23e:	9c 93       	st	X, r25
     240:	08 95       	ret
	timeout_I2C = READ_TIMEOUT;										// reset timeout counter, will be decremented by LED matrix interrupt
	if ((TWI0.MSTATUS & TWI_BUSSTATE_gm) == TWI_BUSSTATE_OWNER_gc)	// if master controls bus
	{		
		while (!(TWI0.MSTATUS & TWI_RIF_bm))						// wait for RIF set (data byte received)
		{
			if (!(timeout_I2C)) return 0xff;			            // return timeout error
     242:	8f ef       	ldi	r24, 0xFF	; 255
     244:	08 95       	ret
		}
		TWI0.MSTATUS |= (TWI_RIF_bm | TWI_WIF_bm);					// clear Read and Write interrupt flags	
		if (TWI0.MSTATUS & TWI_BUSERR_bm) return 4;					// Bus Error, abort
     246:	84 e0       	ldi	r24, 0x04	; 4
     248:	08 95       	ret
		if (TWI0.MSTATUS & TWI_ARBLOST_bm) return 2;				// Arbitration Lost, abort
		if (TWI0.MSTATUS & TWI_RXACK_bm) return 1;					// Slave replied with NACK, abort				
     24a:	81 e0       	ldi	r24, 0x01	; 1
		*data = TWI0.MDATA;
		if (ack_flag == 0) TWI0.MCTRLB |= TWI_MCMD_RECVTRANS_gc;	// send ACK, more bytes to follow					
		return 0;
	}
	else return 8;													// master does not control bus
}
     24c:	08 95       	ret

0000024e <I2C_write>:

uint8_t I2C_write(uint8_t *data)									// write data, return status
{
     24e:	fc 01       	movw	r30, r24
	timeout_I2C = WRITE_TIMEOUT;									// reset timeout counter, will be decremented by LED matrix interrupt
     250:	9c e0       	ldi	r25, 0x0C	; 12
     252:	90 93 b9 39 	sts	0x39B9, r25	; 0x8039b9 <timeout_I2C>
	if ((TWI0.MSTATUS & TWI_BUSSTATE_gm) == TWI_BUSSTATE_OWNER_gc)	// if master controls bus
     256:	90 91 15 08 	lds	r25, 0x0815	; 0x800815 <__TEXT_REGION_LENGTH__+0x700815>
     25a:	93 70       	andi	r25, 0x03	; 3
     25c:	92 30       	cpi	r25, 0x02	; 2
     25e:	b1 f4       	brne	.+44     	; 0x28c <I2C_write+0x3e>
	{
		TWI0.MDATA = *data;		
     260:	80 81       	ld	r24, Z
     262:	80 93 18 08 	sts	0x0818, r24	; 0x800818 <__TEXT_REGION_LENGTH__+0x700818>
		while (!(TWI0.MSTATUS & TWI_WIF_bm))						// wait until WIF set, status register contains ACK/NACK bit
     266:	e0 e1       	ldi	r30, 0x10	; 16
     268:	f8 e0       	ldi	r31, 0x08	; 8
     26a:	04 c0       	rjmp	.+8      	; 0x274 <I2C_write+0x26>
		{
			if (!(timeout_I2C)) return 0xff;			            // return timeout error
     26c:	80 91 b9 39 	lds	r24, 0x39B9	; 0x8039b9 <timeout_I2C>
     270:	88 23       	and	r24, r24
     272:	71 f0       	breq	.+28     	; 0x290 <I2C_write+0x42>
{
	timeout_I2C = WRITE_TIMEOUT;									// reset timeout counter, will be decremented by LED matrix interrupt
	if ((TWI0.MSTATUS & TWI_BUSSTATE_gm) == TWI_BUSSTATE_OWNER_gc)	// if master controls bus
	{
		TWI0.MDATA = *data;		
		while (!(TWI0.MSTATUS & TWI_WIF_bm))						// wait until WIF set, status register contains ACK/NACK bit
     274:	85 81       	ldd	r24, Z+5	; 0x05
     276:	86 ff       	sbrs	r24, 6
     278:	f9 cf       	rjmp	.-14     	; 0x26c <I2C_write+0x1e>
		{
			if (!(timeout_I2C)) return 0xff;			            // return timeout error
		}
		if (TWI0.MSTATUS & TWI_BUSERR_bm) return 4;					// Bus Error, abort
     27a:	80 91 15 08 	lds	r24, 0x0815	; 0x800815 <__TEXT_REGION_LENGTH__+0x700815>
     27e:	82 fd       	sbrc	r24, 2
     280:	09 c0       	rjmp	.+18     	; 0x294 <I2C_write+0x46>
		if (TWI0.MSTATUS & TWI_RXACK_bm) return 1;					// Slave replied with NACK, abort
     282:	80 91 15 08 	lds	r24, 0x0815	; 0x800815 <__TEXT_REGION_LENGTH__+0x700815>
	if ((TWI0.MSTATUS & TWI_BUSSTATE_gm) == TWI_BUSSTATE_OWNER_gc)	// if master controls bus
	{
		TWI0.MDATA = *data;		
		while (!(TWI0.MSTATUS & TWI_WIF_bm))						// wait until WIF set, status register contains ACK/NACK bit
		{
			if (!(timeout_I2C)) return 0xff;			            // return timeout error
     286:	82 95       	swap	r24
     288:	81 70       	andi	r24, 0x01	; 1
     28a:	08 95       	ret
		}
		if (TWI0.MSTATUS & TWI_BUSERR_bm) return 4;					// Bus Error, abort
		if (TWI0.MSTATUS & TWI_RXACK_bm) return 1;					// Slave replied with NACK, abort
		return 0;													// no error	
	}
	else return 8;													// master does not control bus
     28c:	88 e0       	ldi	r24, 0x08	; 8
     28e:	08 95       	ret
	if ((TWI0.MSTATUS & TWI_BUSSTATE_gm) == TWI_BUSSTATE_OWNER_gc)	// if master controls bus
	{
		TWI0.MDATA = *data;		
		while (!(TWI0.MSTATUS & TWI_WIF_bm))						// wait until WIF set, status register contains ACK/NACK bit
		{
			if (!(timeout_I2C)) return 0xff;			            // return timeout error
     290:	8f ef       	ldi	r24, 0xFF	; 255
     292:	08 95       	ret
		}
		if (TWI0.MSTATUS & TWI_BUSERR_bm) return 4;					// Bus Error, abort
     294:	84 e0       	ldi	r24, 0x04	; 4
		if (TWI0.MSTATUS & TWI_RXACK_bm) return 1;					// Slave replied with NACK, abort
		return 0;													// no error	
	}
	else return 8;													// master does not control bus
}
     296:	08 95       	ret

00000298 <I2C_stop>:

void I2C_stop()
{
	TWI0.MCTRLB |= TWI_MCMD_STOP_gc;
     298:	e0 e1       	ldi	r30, 0x10	; 16
     29a:	f8 e0       	ldi	r31, 0x08	; 8
     29c:	84 81       	ldd	r24, Z+4	; 0x04
     29e:	83 60       	ori	r24, 0x03	; 3
     2a0:	84 83       	std	Z+4, r24	; 0x04
     2a2:	08 95       	ret

000002a4 <I2C_read_bytes>:
// addr_ptr		address of first array element to transfer
// slave reg	starting slave register
// num_bytes	number of bytes to transfer

uint8_t	I2C_read_bytes(uint8_t slave_addr, uint8_t *reg_ptr, uint8_t reg_len, uint8_t *dat_ptr, uint8_t dat_len)
{
     2a4:	cf 92       	push	r12
     2a6:	df 92       	push	r13
     2a8:	ef 92       	push	r14
     2aa:	ff 92       	push	r15
     2ac:	0f 93       	push	r16
     2ae:	1f 93       	push	r17
     2b0:	cf 93       	push	r28
     2b2:	df 93       	push	r29
     2b4:	eb 01       	movw	r28, r22
     2b6:	c4 2e       	mov	r12, r20
     2b8:	79 01       	movw	r14, r18
	uint8_t status;
	if (dat_len > MAX_LEN) dat_len = MAX_LEN;
	status = I2C_start(slave_addr << 1);							// slave write address, LSB 0
     2ba:	18 2f       	mov	r17, r24
     2bc:	11 0f       	add	r17, r17
     2be:	81 2f       	mov	r24, r17
     2c0:	4e df       	rcall	.-356    	; 0x15e <I2C_start>
	if (status != 0) goto error;
     2c2:	81 11       	cpse	r24, r1
	status = I2C_wait_ACK();										// wait for slave ACK
     2c4:	3c c0       	rjmp	.+120    	; 0x33e <I2C_read_bytes+0x9a>
     2c6:	5b df       	rcall	.-330    	; 0x17e <I2C_wait_ACK>
	if (status == 1) {
     2c8:	81 30       	cpi	r24, 0x01	; 1
		I2C_stop();													// NACK, abort
     2ca:	19 f4       	brne	.+6      	; 0x2d2 <I2C_read_bytes+0x2e>
     2cc:	e5 df       	rcall	.-54     	; 0x298 <I2C_stop>
		return 1;
     2ce:	81 e0       	ldi	r24, 0x01	; 1
     2d0:	38 c0       	rjmp	.+112    	; 0x342 <I2C_read_bytes+0x9e>
	}
	if (status != 0) goto error;
     2d2:	81 11       	cpse	r24, r1
     2d4:	34 c0       	rjmp	.+104    	; 0x33e <I2C_read_bytes+0x9a>
    while(reg_len > 0){
     2d6:	cc 20       	and	r12, r12
     2d8:	79 f0       	breq	.+30     	; 0x2f8 <I2C_read_bytes+0x54>
     2da:	ca 94       	dec	r12
     2dc:	d1 2c       	mov	r13, r1
     2de:	8f ef       	ldi	r24, 0xFF	; 255
     2e0:	c8 1a       	sub	r12, r24
     2e2:	d8 0a       	sbc	r13, r24
     2e4:	cc 0e       	add	r12, r28
	    status = I2C_write(reg_ptr);    							// send slave start register
     2e6:	dd 1e       	adc	r13, r29
     2e8:	ce 01       	movw	r24, r28
     2ea:	b1 df       	rcall	.-158    	; 0x24e <I2C_write>
	    if (status != 0) goto error;
     2ec:	81 11       	cpse	r24, r1
     2ee:	27 c0       	rjmp	.+78     	; 0x33e <I2C_read_bytes+0x9a>
        ++reg_ptr;
     2f0:	21 96       	adiw	r28, 0x01	; 1
	if (status == 1) {
		I2C_stop();													// NACK, abort
		return 1;
	}
	if (status != 0) goto error;
    while(reg_len > 0){
     2f2:	cc 16       	cp	r12, r28
     2f4:	dd 06       	cpc	r13, r29
     2f6:	c1 f7       	brne	.-16     	; 0x2e8 <I2C_read_bytes+0x44>
     2f8:	01 34       	cpi	r16, 0x41	; 65
     2fa:	08 f0       	brcs	.+2      	; 0x2fe <I2C_read_bytes+0x5a>
     2fc:	00 e4       	ldi	r16, 0x40	; 64
	    status = I2C_write(reg_ptr);    							// send slave start register
	    if (status != 0) goto error;
        ++reg_ptr;
        --reg_len;
    }
	I2C_rep_start((slave_addr << 1) + 1);							// slave read address, LSB 1
     2fe:	1f 5f       	subi	r17, 0xFF	; 255
// the Atmel device documentation mentions a special command for repeated start TWI_MCMD_REPSTART_gc,
// but this is not used in Atmel's demo code, so we don't use it either

void I2C_rep_start(uint8_t shifted_addr)						    // send repeated start, device_addr + LSB set if READ
{
	TWI0.MADDR = shifted_addr;	
     300:	10 93 17 08 	sts	0x0817, r17	; 0x800817 <__TEXT_REGION_LENGTH__+0x700817>
	    if (status != 0) goto error;
        ++reg_ptr;
        --reg_len;
    }
	I2C_rep_start((slave_addr << 1) + 1);							// slave read address, LSB 1
	while (dat_len > 1) {
     304:	02 30       	cpi	r16, 0x02	; 2
     306:	90 f0       	brcs	.+36     	; 0x32c <I2C_read_bytes+0x88>
     308:	02 50       	subi	r16, 0x02	; 2
     30a:	c0 2f       	mov	r28, r16
     30c:	d0 e0       	ldi	r29, 0x00	; 0
     30e:	21 96       	adiw	r28, 0x01	; 1
     310:	ce 0d       	add	r28, r14
		status = I2C_read(dat_ptr, 0);								// first bytes, send ACK
     312:	df 1d       	adc	r29, r15
     314:	60 e0       	ldi	r22, 0x00	; 0
     316:	c7 01       	movw	r24, r14
     318:	59 df       	rcall	.-334    	; 0x1cc <I2C_read>
		if (status != 0) goto error;
     31a:	81 11       	cpse	r24, r1
     31c:	10 c0       	rjmp	.+32     	; 0x33e <I2C_read_bytes+0x9a>
		++dat_ptr;
     31e:	8f ef       	ldi	r24, 0xFF	; 255
     320:	e8 1a       	sub	r14, r24
     322:	f8 0a       	sbc	r15, r24
	    if (status != 0) goto error;
        ++reg_ptr;
        --reg_len;
    }
	I2C_rep_start((slave_addr << 1) + 1);							// slave read address, LSB 1
	while (dat_len > 1) {
     324:	ec 16       	cp	r14, r28
     326:	fd 06       	cpc	r15, r29
     328:	a9 f7       	brne	.-22     	; 0x314 <I2C_read_bytes+0x70>
     32a:	01 c0       	rjmp	.+2      	; 0x32e <I2C_read_bytes+0x8a>
		status = I2C_read(dat_ptr, 0);								// first bytes, send ACK
		if (status != 0) goto error;
		++dat_ptr;
		--dat_len;
	}
	status = I2C_read(dat_ptr, 1);									// single or last byte, send NACK
     32c:	e7 01       	movw	r28, r14
     32e:	61 e0       	ldi	r22, 0x01	; 1
     330:	ce 01       	movw	r24, r28
	if (status != 0) goto error;
     332:	4c df       	rcall	.-360    	; 0x1cc <I2C_read>
     334:	81 11       	cpse	r24, r1
	I2C_stop();
     336:	03 c0       	rjmp	.+6      	; 0x33e <I2C_read_bytes+0x9a>
     338:	af df       	rcall	.-162    	; 0x298 <I2C_stop>
	return 0;
     33a:	80 e0       	ldi	r24, 0x00	; 0
     33c:	02 c0       	rjmp	.+4      	; 0x342 <I2C_read_bytes+0x9e>
	
error:
	I2C_recover();													// clock out possibly stuck slave, reset master
     33e:	da de       	rcall	.-588    	; 0xf4 <I2C_recover>
     340:	8f ef       	ldi	r24, 0xFF	; 255
	return 0xff;													// flag error
     342:	df 91       	pop	r29
}
     344:	cf 91       	pop	r28
     346:	1f 91       	pop	r17
     348:	0f 91       	pop	r16
     34a:	ff 90       	pop	r15
     34c:	ef 90       	pop	r14
     34e:	df 90       	pop	r13
     350:	cf 90       	pop	r12
     352:	08 95       	ret

00000354 <Setup>:
     354:	cf 93       	push	r28
// Select "audio" input (0-2.5V)
void SelectAuIn(){
     VREF_CTRLA   = 0x22;    //0x22 for audio in/out (2.5V), 0x12 for temperature in, audio out (1.1V/2.5V)
     ADC0_CTRLA   &= ~(ADC_RESSEL_bm);
     ADC0_MUXPOS  = 0x07;    //Audio in: AIN7 at (0x07), Temperature: Internal sensor at (0x1E)
     adc0Chg = 1;
     356:	df 93       	push	r29
     358:	f8 94       	cli
     35a:	88 ed       	ldi	r24, 0xD8	; 216
     35c:	84 bf       	out	0x34, r24	; 52
     35e:	c1 e0       	ldi	r28, 0x01	; 1
     360:	c0 93 61 00 	sts	0x0061, r28	; 0x800061 <__TEXT_REGION_LENGTH__+0x700061>
     364:	8a e4       	ldi	r24, 0x4A	; 74
     366:	80 93 00 04 	sts	0x0400, r24	; 0x800400 <__TEXT_REGION_LENGTH__+0x700400>
     36a:	8c e7       	ldi	r24, 0x7C	; 124
     36c:	80 93 20 04 	sts	0x0420, r24	; 0x800420 <__TEXT_REGION_LENGTH__+0x700420>
     370:	9f e3       	ldi	r25, 0x3F	; 63
     372:	90 93 40 04 	sts	0x0440, r25	; 0x800440 <__TEXT_REGION_LENGTH__+0x700440>
     376:	e0 e5       	ldi	r30, 0x50	; 80
     378:	f4 e0       	ldi	r31, 0x04	; 4
     37a:	80 81       	ld	r24, Z
     37c:	80 68       	ori	r24, 0x80	; 128
     37e:	80 83       	st	Z, r24
     380:	e1 e5       	ldi	r30, 0x51	; 81
     382:	f4 e0       	ldi	r31, 0x04	; 4
     384:	80 81       	ld	r24, Z
     386:	80 68       	ori	r24, 0x80	; 128
     388:	80 83       	st	Z, r24
     38a:	e2 e5       	ldi	r30, 0x52	; 82
     38c:	f4 e0       	ldi	r31, 0x04	; 4
     38e:	80 81       	ld	r24, Z
     390:	80 68       	ori	r24, 0x80	; 128
     392:	80 83       	st	Z, r24
     394:	e3 e5       	ldi	r30, 0x53	; 83
     396:	f4 e0       	ldi	r31, 0x04	; 4
     398:	80 81       	ld	r24, Z
     39a:	80 68       	ori	r24, 0x80	; 128
     39c:	80 83       	st	Z, r24
     39e:	e4 e5       	ldi	r30, 0x54	; 84
     3a0:	f4 e0       	ldi	r31, 0x04	; 4
     3a2:	80 81       	ld	r24, Z
     3a4:	80 68       	ori	r24, 0x80	; 128
     3a6:	80 83       	st	Z, r24
     3a8:	e5 e5       	ldi	r30, 0x55	; 85
     3aa:	f4 e0       	ldi	r31, 0x04	; 4
     3ac:	80 81       	ld	r24, Z
     3ae:	80 68       	ori	r24, 0x80	; 128
     3b0:	80 83       	st	Z, r24
     3b2:	e2 e3       	ldi	r30, 0x32	; 50
     3b4:	f4 e0       	ldi	r31, 0x04	; 4
     3b6:	80 81       	ld	r24, Z
     3b8:	80 68       	ori	r24, 0x80	; 128
     3ba:	80 83       	st	Z, r24
     3bc:	e3 e3       	ldi	r30, 0x33	; 51
     3be:	f4 e0       	ldi	r31, 0x04	; 4
     3c0:	80 81       	ld	r24, Z
     3c2:	80 68       	ori	r24, 0x80	; 128
     3c4:	80 83       	st	Z, r24
     3c6:	e4 e3       	ldi	r30, 0x34	; 52
     3c8:	f4 e0       	ldi	r31, 0x04	; 4
     3ca:	80 81       	ld	r24, Z
     3cc:	80 68       	ori	r24, 0x80	; 128
     3ce:	80 83       	st	Z, r24
     3d0:	e5 e3       	ldi	r30, 0x35	; 53
     3d2:	f4 e0       	ldi	r31, 0x04	; 4
     3d4:	80 81       	ld	r24, Z
     3d6:	80 68       	ori	r24, 0x80	; 128
     3d8:	80 83       	st	Z, r24
     3da:	e6 e3       	ldi	r30, 0x36	; 54
     3dc:	f4 e0       	ldi	r31, 0x04	; 4
     3de:	80 81       	ld	r24, Z
     3e0:	80 68       	ori	r24, 0x80	; 128
     3e2:	80 83       	st	Z, r24
     3e4:	c0 93 01 02 	sts	0x0201, r28	; 0x800201 <__TEXT_REGION_LENGTH__+0x700201>
     3e8:	d2 e0       	ldi	r29, 0x02	; 2
     3ea:	d0 93 05 04 	sts	0x0405, r29	; 0x800405 <__TEXT_REGION_LENGTH__+0x700405>
     3ee:	2b e5       	ldi	r18, 0x5B	; 91
     3f0:	31 e0       	ldi	r19, 0x01	; 1
     3f2:	20 93 08 08 	sts	0x0808, r18	; 0x800808 <__TEXT_REGION_LENGTH__+0x700808>
     3f6:	30 93 09 08 	sts	0x0809, r19	; 0x800809 <__TEXT_REGION_LENGTH__+0x700809>
     3fa:	80 ea       	ldi	r24, 0xA0	; 160
     3fc:	80 93 05 08 	sts	0x0805, r24	; 0x800805 <__TEXT_REGION_LENGTH__+0x700805>
     400:	80 ec       	ldi	r24, 0xC0	; 192
     402:	80 93 06 08 	sts	0x0806, r24	; 0x800806 <__TEXT_REGION_LENGTH__+0x700806>
     406:	83 e0       	ldi	r24, 0x03	; 3
     408:	80 93 07 08 	sts	0x0807, r24	; 0x800807 <__TEXT_REGION_LENGTH__+0x700807>
     40c:	1c ba       	out	0x1c, r1	; 28
     40e:	1d ba       	out	0x1d, r1	; 29
     410:	1e ba       	out	0x1e, r1	; 30
     412:	1f ba       	out	0x1f, r1	; 31
     414:	c0 93 03 0a 	sts	0x0A03, r28	; 0x800a03 <__TEXT_REGION_LENGTH__+0x700a03>
     418:	e0 e0       	ldi	r30, 0x00	; 0
     41a:	fa e0       	ldi	r31, 0x0A	; 10
     41c:	88 e0       	ldi	r24, 0x08	; 8
     41e:	80 83       	st	Z, r24
     420:	90 93 02 02 	sts	0x0202, r25	; 0x800202 <__TEXT_REGION_LENGTH__+0x700202>
     424:	87 e7       	ldi	r24, 0x77	; 119
     426:	80 93 01 0a 	sts	0x0A01, r24	; 0x800a01 <__TEXT_REGION_LENGTH__+0x700a01>
     42a:	c0 93 0a 0a 	sts	0x0A0A, r28	; 0x800a0a <__TEXT_REGION_LENGTH__+0x700a0a>
     42e:	8b e0       	ldi	r24, 0x0B	; 11
     430:	80 93 05 0a 	sts	0x0A05, r24	; 0x800a05 <__TEXT_REGION_LENGTH__+0x700a05>
     434:	80 81       	ld	r24, Z
     436:	81 60       	ori	r24, 0x01	; 1
     438:	80 83       	st	Z, r24
     43a:	85 e0       	ldi	r24, 0x05	; 5
     43c:	80 93 40 0a 	sts	0x0A40, r24	; 0x800a40 <__TEXT_REGION_LENGTH__+0x700a40>
     440:	10 92 41 0a 	sts	0x0A41, r1	; 0x800a41 <__TEXT_REGION_LENGTH__+0x700a41>
     444:	8f ef       	ldi	r24, 0xFF	; 255
     446:	91 e0       	ldi	r25, 0x01	; 1
     448:	80 93 4c 0a 	sts	0x0A4C, r24	; 0x800a4c <__TEXT_REGION_LENGTH__+0x700a4c>
     44c:	90 93 4d 0a 	sts	0x0A4D, r25	; 0x800a4d <__TEXT_REGION_LENGTH__+0x700a4d>
     450:	10 92 45 0a 	sts	0x0A45, r1	; 0x800a45 <__TEXT_REGION_LENGTH__+0x700a45>
     454:	c0 93 50 0a 	sts	0x0A50, r28	; 0x800a50 <__TEXT_REGION_LENGTH__+0x700a50>
     458:	10 92 51 0a 	sts	0x0A51, r1	; 0x800a51 <__TEXT_REGION_LENGTH__+0x700a51>
     45c:	8b e8       	ldi	r24, 0x8B	; 139
     45e:	93 e0       	ldi	r25, 0x03	; 3
     460:	80 93 5c 0a 	sts	0x0A5C, r24	; 0x800a5c <__TEXT_REGION_LENGTH__+0x700a5c>
     464:	90 93 5d 0a 	sts	0x0A5D, r25	; 0x800a5d <__TEXT_REGION_LENGTH__+0x700a5d>
     468:	c0 93 55 0a 	sts	0x0A55, r28	; 0x800a55 <__TEXT_REGION_LENGTH__+0x700a55>
     46c:	25 de       	rcall	.-950    	; 0xb8 <I2C_init>
     46e:	82 e1       	ldi	r24, 0x12	; 18
     470:	80 93 a0 00 	sts	0x00A0, r24	; 0x8000a0 <__TEXT_REGION_LENGTH__+0x7000a0>
     474:	80 e2       	ldi	r24, 0x20	; 32
     476:	80 93 a2 00 	sts	0x00A2, r24	; 0x8000a2 <__TEXT_REGION_LENGTH__+0x7000a2>
     47a:	c0 93 a1 00 	sts	0x00A1, r28	; 0x8000a1 <__TEXT_REGION_LENGTH__+0x7000a1>
     47e:	e0 e0       	ldi	r30, 0x00	; 0
     480:	f6 e0       	ldi	r31, 0x06	; 6
     482:	86 e0       	ldi	r24, 0x06	; 6
     484:	80 83       	st	Z, r24
     486:	84 e4       	ldi	r24, 0x44	; 68
     488:	80 93 02 06 	sts	0x0602, r24	; 0x800602 <__TEXT_REGION_LENGTH__+0x700602>
     48c:	8e e1       	ldi	r24, 0x1E	; 30
     48e:	80 93 06 06 	sts	0x0606, r24	; 0x800606 <__TEXT_REGION_LENGTH__+0x700606>
     492:	c0 93 0a 06 	sts	0x060A, r28	; 0x80060a <__TEXT_REGION_LENGTH__+0x70060a>
     496:	80 81       	ld	r24, Z
     498:	81 60       	ori	r24, 0x01	; 1
     49a:	80 83       	st	Z, r24
     49c:	c0 93 08 06 	sts	0x0608, r28	; 0x800608 <__TEXT_REGION_LENGTH__+0x700608>
     4a0:	e0 e4       	ldi	r30, 0x40	; 64
     4a2:	f6 e0       	ldi	r31, 0x06	; 6
     4a4:	10 82       	st	Z, r1
     4a6:	d0 93 41 06 	sts	0x0641, r29	; 0x800641 <__TEXT_REGION_LENGTH__+0x700641>
     4aa:	82 e5       	ldi	r24, 0x52	; 82
     4ac:	80 93 42 06 	sts	0x0642, r24	; 0x800642 <__TEXT_REGION_LENGTH__+0x700642>
     4b0:	84 e0       	ldi	r24, 0x04	; 4
     4b2:	80 93 45 06 	sts	0x0645, r24	; 0x800645 <__TEXT_REGION_LENGTH__+0x700645>
     4b6:	80 93 46 06 	sts	0x0646, r24	; 0x800646 <__TEXT_REGION_LENGTH__+0x700646>
     4ba:	c0 93 4a 06 	sts	0x064A, r28	; 0x80064a <__TEXT_REGION_LENGTH__+0x70064a>
     4be:	80 81       	ld	r24, Z
     4c0:	81 60       	ori	r24, 0x01	; 1
     4c2:	80 83       	st	Z, r24
     4c4:	c0 93 48 06 	sts	0x0648, r28	; 0x800648 <__TEXT_REGION_LENGTH__+0x700648>
     4c8:	e0 ea       	ldi	r30, 0xA0	; 160
     4ca:	f6 e0       	ldi	r31, 0x06	; 6
     4cc:	80 e4       	ldi	r24, 0x40	; 64
     4ce:	80 83       	st	Z, r24
     4d0:	80 e8       	ldi	r24, 0x80	; 128
     4d2:	80 93 a1 06 	sts	0x06A1, r24	; 0x8006a1 <__TEXT_REGION_LENGTH__+0x7006a1>
     4d6:	80 81       	ld	r24, Z
     4d8:	81 60       	ori	r24, 0x01	; 1
     4da:	80 83       	st	Z, r24
     4dc:	e1 e4       	ldi	r30, 0x41	; 65
     4de:	f1 e0       	ldi	r31, 0x01	; 1
     4e0:	80 81       	ld	r24, Z
     4e2:	80 fd       	sbrc	r24, 0
     4e4:	fd cf       	rjmp	.-6      	; 0x4e0 <__LOCK_REGION_LENGTH__+0xe0>
     4e6:	80 e3       	ldi	r24, 0x30	; 48
     4e8:	80 93 40 01 	sts	0x0140, r24	; 0x800140 <__TEXT_REGION_LENGTH__+0x700140>
     4ec:	10 92 47 01 	sts	0x0147, r1	; 0x800147 <__TEXT_REGION_LENGTH__+0x700147>
     4f0:	e1 e4       	ldi	r30, 0x41	; 65
     4f2:	f1 e0       	ldi	r31, 0x01	; 1
     4f4:	80 81       	ld	r24, Z
     4f6:	82 fd       	sbrc	r24, 2
     4f8:	fd cf       	rjmp	.-6      	; 0x4f4 <__LOCK_REGION_LENGTH__+0xf4>
     4fa:	ea e4       	ldi	r30, 0x4A	; 74
     4fc:	f1 e0       	ldi	r31, 0x01	; 1
     4fe:	80 e0       	ldi	r24, 0x00	; 0
     500:	98 e7       	ldi	r25, 0x78	; 120
     502:	80 83       	st	Z, r24
     504:	91 83       	std	Z+1, r25	; 0x01
     506:	80 91 48 01 	lds	r24, 0x0148	; 0x800148 <__TEXT_REGION_LENGTH__+0x700148>
     50a:	90 91 49 01 	lds	r25, 0x0149	; 0x800149 <__TEXT_REGION_LENGTH__+0x700149>
     50e:	60 81       	ld	r22, Z
     510:	71 81       	ldd	r23, Z+1	; 0x01
     512:	82 96       	adiw	r24, 0x22	; 34
     514:	0e 94 e7 0c 	call	0x19ce	; 0x19ce <__udivmodhi4>
     518:	80 93 5f 3a 	sts	0x3A5F, r24	; 0x803a5f <tmp16bit>
     51c:	90 93 60 3a 	sts	0x3A60, r25	; 0x803a60 <tmp16bit+0x1>
     520:	e1 e4       	ldi	r30, 0x41	; 65
     522:	f1 e0       	ldi	r31, 0x01	; 1
     524:	80 81       	ld	r24, Z
     526:	83 fd       	sbrc	r24, 3
     528:	fd cf       	rjmp	.-6      	; 0x524 <__LOCK_REGION_LENGTH__+0x124>
     52a:	80 91 5f 3a 	lds	r24, 0x3A5F	; 0x803a5f <tmp16bit>
     52e:	90 91 60 3a 	lds	r25, 0x3A60	; 0x803a60 <tmp16bit+0x1>
     532:	80 93 4c 01 	sts	0x014C, r24	; 0x80014c <__TEXT_REGION_LENGTH__+0x70014c>
     536:	90 93 4d 01 	sts	0x014D, r25	; 0x80014d <__TEXT_REGION_LENGTH__+0x70014d>
     53a:	83 e0       	ldi	r24, 0x03	; 3
     53c:	80 93 42 01 	sts	0x0142, r24	; 0x800142 <__TEXT_REGION_LENGTH__+0x700142>
     540:	81 e0       	ldi	r24, 0x01	; 1
     542:	80 93 52 01 	sts	0x0152, r24	; 0x800152 <__TEXT_REGION_LENGTH__+0x700152>
     546:	88 e0       	ldi	r24, 0x08	; 8
     548:	80 93 50 01 	sts	0x0150, r24	; 0x800150 <__TEXT_REGION_LENGTH__+0x700150>
     54c:	e1 e4       	ldi	r30, 0x41	; 65
     54e:	f1 e0       	ldi	r31, 0x01	; 1
     550:	80 81       	ld	r24, Z
     552:	80 fd       	sbrc	r24, 0
     554:	fd cf       	rjmp	.-6      	; 0x550 <__LOCK_REGION_LENGTH__+0x150>
     556:	e0 e4       	ldi	r30, 0x40	; 64
     558:	f1 e0       	ldi	r31, 0x01	; 1
     55a:	80 81       	ld	r24, Z
     55c:	81 60       	ori	r24, 0x01	; 1
     55e:	80 83       	st	Z, r24
     560:	e0 e5       	ldi	r30, 0x50	; 80
     562:	f1 e0       	ldi	r31, 0x01	; 1
     564:	80 81       	ld	r24, Z
     566:	81 60       	ori	r24, 0x01	; 1
     568:	80 83       	st	Z, r24
     56a:	ea ec       	ldi	r30, 0xCA	; 202
     56c:	f9 e3       	ldi	r31, 0x39	; 57
     56e:	10 82       	st	Z, r1
     570:	e0 93 0e 3a 	sts	0x3A0E, r30	; 0x803a0e <serTxAddr>
     574:	f0 93 0f 3a 	sts	0x3A0F, r31	; 0x803a0f <serTxAddr+0x1>
     578:	78 94       	sei
     57a:	df 91       	pop	r29
     57c:	cf 91       	pop	r28
     57e:	08 95       	ret

00000580 <__vector_8>:
     580:	1f 92       	push	r1
     582:	0f 92       	push	r0
     584:	0f b6       	in	r0, 0x3f	; 63
     586:	0f 92       	push	r0
     588:	11 24       	eor	r1, r1
     58a:	8f 93       	push	r24
     58c:	9f 93       	push	r25
     58e:	af 93       	push	r26
     590:	bf 93       	push	r27
     592:	ef 93       	push	r30
     594:	ff 93       	push	r31
     596:	87 e0       	ldi	r24, 0x07	; 7
     598:	80 93 46 04 	sts	0x0446, r24	; 0x800446 <__TEXT_REGION_LENGTH__+0x700446>
     59c:	84 e4       	ldi	r24, 0x44	; 68
     59e:	80 93 26 04 	sts	0x0426, r24	; 0x800426 <__TEXT_REGION_LENGTH__+0x700426>
     5a2:	ec b3       	in	r30, 0x1c	; 28
     5a4:	f0 e0       	ldi	r31, 0x00	; 0
     5a6:	ee 0f       	add	r30, r30
     5a8:	ff 1f       	adc	r31, r31
     5aa:	ee 0f       	add	r30, r30
     5ac:	ff 1f       	adc	r31, r31
     5ae:	ee 0f       	add	r30, r30
     5b0:	ff 1f       	adc	r31, r31
     5b2:	eb 5c       	subi	r30, 0xCB	; 203
     5b4:	f5 4c       	sbci	r31, 0xC5	; 197
     5b6:	a8 e2       	ldi	r26, 0x28	; 40
     5b8:	ba e0       	ldi	r27, 0x0A	; 10
     5ba:	96 e0       	ldi	r25, 0x06	; 6
     5bc:	81 91       	ld	r24, Z+
     5be:	8d 93       	st	X+, r24
     5c0:	9a 95       	dec	r25
     5c2:	e1 f7       	brne	.-8      	; 0x5bc <__vector_8+0x3c>
     5c4:	8b e0       	ldi	r24, 0x0B	; 11
     5c6:	80 93 05 0a 	sts	0x0A05, r24	; 0x800a05 <__TEXT_REGION_LENGTH__+0x700a05>
     5ca:	8c b3       	in	r24, 0x1c	; 28
     5cc:	83 30       	cpi	r24, 0x03	; 3
     5ce:	58 f4       	brcc	.+22     	; 0x5e6 <__vector_8+0x66>
     5d0:	8c b3       	in	r24, 0x1c	; 28
     5d2:	91 e0       	ldi	r25, 0x01	; 1
     5d4:	01 c0       	rjmp	.+2      	; 0x5d8 <__vector_8+0x58>
     5d6:	99 0f       	add	r25, r25
     5d8:	8a 95       	dec	r24
     5da:	ea f7       	brpl	.-6      	; 0x5d6 <__vector_8+0x56>
     5dc:	99 b9       	out	0x09, r25	; 9
     5de:	8c b3       	in	r24, 0x1c	; 28
     5e0:	83 95       	inc	r24
     5e2:	8c bb       	out	0x1c, r24	; 28
     5e4:	0a c0       	rjmp	.+20     	; 0x5fa <__vector_8+0x7a>
     5e6:	8c b3       	in	r24, 0x1c	; 28
     5e8:	83 30       	cpi	r24, 0x03	; 3
     5ea:	21 f4       	brne	.+8      	; 0x5f4 <__vector_8+0x74>
     5ec:	2a 9a       	sbi	0x05, 2	; 5
     5ee:	83 95       	inc	r24
     5f0:	8c bb       	out	0x1c, r24	; 28
     5f2:	03 c0       	rjmp	.+6      	; 0x5fa <__vector_8+0x7a>
     5f4:	2e 9a       	sbi	0x05, 6	; 5
     5f6:	88 27       	eor	r24, r24
     5f8:	8c bb       	out	0x1c, r24	; 28
     5fa:	80 91 b9 39 	lds	r24, 0x39B9	; 0x8039b9 <timeout_I2C>
     5fe:	88 23       	and	r24, r24
     600:	29 f0       	breq	.+10     	; 0x60c <__vector_8+0x8c>
     602:	80 91 b9 39 	lds	r24, 0x39B9	; 0x8039b9 <timeout_I2C>
     606:	81 50       	subi	r24, 0x01	; 1
     608:	80 93 b9 39 	sts	0x39B9, r24	; 0x8039b9 <timeout_I2C>
     60c:	8f ef       	ldi	r24, 0xFF	; 255
     60e:	80 93 0b 0a 	sts	0x0A0B, r24	; 0x800a0b <__TEXT_REGION_LENGTH__+0x700a0b>
     612:	ff 91       	pop	r31
     614:	ef 91       	pop	r30
     616:	bf 91       	pop	r27
     618:	af 91       	pop	r26
     61a:	9f 91       	pop	r25
     61c:	8f 91       	pop	r24
     61e:	0f 90       	pop	r0
     620:	0f be       	out	0x3f, r0	; 63
     622:	0f 90       	pop	r0
     624:	1f 90       	pop	r1
     626:	18 95       	reti

00000628 <__vector_13>:
     628:	1f 92       	push	r1
     62a:	0f 92       	push	r0
     62c:	0f b6       	in	r0, 0x3f	; 63
     62e:	0f 92       	push	r0
     630:	11 24       	eor	r1, r1
     632:	8f 93       	push	r24
     634:	9f 93       	push	r25
     636:	ef 93       	push	r30
     638:	ff 93       	push	r31
     63a:	e0 91 0e 3a 	lds	r30, 0x3A0E	; 0x803a0e <serTxAddr>
     63e:	f0 91 0f 3a 	lds	r31, 0x3A0F	; 0x803a0f <serTxAddr+0x1>
     642:	80 81       	ld	r24, Z
     644:	88 23       	and	r24, r24
     646:	91 f0       	breq	.+36     	; 0x66c <__vector_13+0x44>
     648:	80 81       	ld	r24, Z
     64a:	80 93 02 08 	sts	0x0802, r24	; 0x800802 <__TEXT_REGION_LENGTH__+0x700802>
     64e:	80 91 0e 3a 	lds	r24, 0x3A0E	; 0x803a0e <serTxAddr>
     652:	90 91 0f 3a 	lds	r25, 0x3A0F	; 0x803a0f <serTxAddr+0x1>
     656:	01 96       	adiw	r24, 0x01	; 1
     658:	80 93 0e 3a 	sts	0x3A0E, r24	; 0x803a0e <serTxAddr>
     65c:	90 93 0f 3a 	sts	0x3A0F, r25	; 0x803a0f <serTxAddr+0x1>
     660:	e5 e0       	ldi	r30, 0x05	; 5
     662:	f8 e0       	ldi	r31, 0x08	; 8
     664:	80 81       	ld	r24, Z
     666:	80 62       	ori	r24, 0x20	; 32
     668:	80 83       	st	Z, r24
     66a:	05 c0       	rjmp	.+10     	; 0x676 <__vector_13+0x4e>
     66c:	81 e0       	ldi	r24, 0x01	; 1
     66e:	80 93 04 38 	sts	0x3804, r24	; 0x803804 <serTxDone>
     672:	10 92 45 0a 	sts	0x0A45, r1	; 0x800a45 <__TEXT_REGION_LENGTH__+0x700a45>
     676:	81 e0       	ldi	r24, 0x01	; 1
     678:	80 93 46 0a 	sts	0x0A46, r24	; 0x800a46 <__TEXT_REGION_LENGTH__+0x700a46>
     67c:	ff 91       	pop	r31
     67e:	ef 91       	pop	r30
     680:	9f 91       	pop	r25
     682:	8f 91       	pop	r24
     684:	0f 90       	pop	r0
     686:	0f be       	out	0x3f, r0	; 63
     688:	0f 90       	pop	r0
     68a:	1f 90       	pop	r1
     68c:	18 95       	reti

0000068e <__vector_14>:
     68e:	1f 92       	push	r1
     690:	0f 92       	push	r0
     692:	0f b6       	in	r0, 0x3f	; 63
     694:	0f 92       	push	r0
     696:	11 24       	eor	r1, r1
     698:	2f 93       	push	r18
     69a:	3f 93       	push	r19
     69c:	4f 93       	push	r20
     69e:	8f 93       	push	r24
     6a0:	9f 93       	push	r25
     6a2:	ef 93       	push	r30
     6a4:	ff 93       	push	r31
     6a6:	e0 91 02 38 	lds	r30, 0x3802	; 0x803802 <auSmpAddr>
     6aa:	f0 91 03 38 	lds	r31, 0x3803	; 0x803803 <auSmpAddr+0x1>
     6ae:	80 81       	ld	r24, Z
     6b0:	81 11       	cpse	r24, r1
     6b2:	08 c0       	rjmp	.+16     	; 0x6c4 <__vector_14+0x36>
     6b4:	80 91 00 38 	lds	r24, 0x3800	; 0x803800 <__data_start>
     6b8:	90 91 01 38 	lds	r25, 0x3801	; 0x803801 <__data_start+0x1>
     6bc:	80 93 02 38 	sts	0x3802, r24	; 0x803802 <auSmpAddr>
     6c0:	90 93 03 38 	sts	0x3803, r25	; 0x803803 <auSmpAddr+0x1>
     6c4:	e0 91 02 38 	lds	r30, 0x3802	; 0x803802 <auSmpAddr>
     6c8:	f0 91 03 38 	lds	r31, 0x3803	; 0x803803 <auSmpAddr+0x1>
     6cc:	80 81       	ld	r24, Z
     6ce:	88 23       	and	r24, r24
     6d0:	e1 f0       	breq	.+56     	; 0x70a <__vector_14+0x7c>
     6d2:	20 81       	ld	r18, Z
     6d4:	40 91 0b 3a 	lds	r20, 0x3A0B	; 0x803a0b <auVolume>
     6d8:	30 e0       	ldi	r19, 0x00	; 0
     6da:	2f 57       	subi	r18, 0x7F	; 127
     6dc:	31 09       	sbc	r19, r1
     6de:	42 9f       	mul	r20, r18
     6e0:	c0 01       	movw	r24, r0
     6e2:	43 9f       	mul	r20, r19
     6e4:	90 0d       	add	r25, r0
     6e6:	11 24       	eor	r1, r1
     6e8:	89 2f       	mov	r24, r25
     6ea:	99 0f       	add	r25, r25
     6ec:	99 0b       	sbc	r25, r25
     6ee:	80 58       	subi	r24, 0x80	; 128
     6f0:	9f 4f       	sbci	r25, 0xFF	; 255
     6f2:	80 93 a1 06 	sts	0x06A1, r24	; 0x8006a1 <__TEXT_REGION_LENGTH__+0x7006a1>
     6f6:	80 91 02 38 	lds	r24, 0x3802	; 0x803802 <auSmpAddr>
     6fa:	90 91 03 38 	lds	r25, 0x3803	; 0x803803 <auSmpAddr+0x1>
     6fe:	01 96       	adiw	r24, 0x01	; 1
     700:	80 93 02 38 	sts	0x3802, r24	; 0x803802 <auSmpAddr>
     704:	90 93 03 38 	sts	0x3803, r25	; 0x803803 <auSmpAddr+0x1>
     708:	06 c0       	rjmp	.+12     	; 0x716 <__vector_14+0x88>
     70a:	80 e8       	ldi	r24, 0x80	; 128
     70c:	80 93 a1 06 	sts	0x06A1, r24	; 0x8006a1 <__TEXT_REGION_LENGTH__+0x7006a1>
     710:	81 e0       	ldi	r24, 0x01	; 1
     712:	80 93 5d 3a 	sts	0x3A5D, r24	; 0x803a5d <auPlayDone>
     716:	81 e0       	ldi	r24, 0x01	; 1
     718:	80 93 56 0a 	sts	0x0A56, r24	; 0x800a56 <__TEXT_REGION_LENGTH__+0x700a56>
     71c:	ff 91       	pop	r31
     71e:	ef 91       	pop	r30
     720:	9f 91       	pop	r25
     722:	8f 91       	pop	r24
     724:	4f 91       	pop	r20
     726:	3f 91       	pop	r19
     728:	2f 91       	pop	r18
     72a:	0f 90       	pop	r0
     72c:	0f be       	out	0x3f, r0	; 63
     72e:	0f 90       	pop	r0
     730:	1f 90       	pop	r1
     732:	18 95       	reti

00000734 <__vector_27>:
     734:	1f 92       	push	r1
     736:	0f 92       	push	r0
     738:	0f b6       	in	r0, 0x3f	; 63
     73a:	0f 92       	push	r0
     73c:	11 24       	eor	r1, r1
     73e:	8f 93       	push	r24
     740:	ef 93       	push	r30
     742:	ff 93       	push	r31
     744:	80 91 97 38 	lds	r24, 0x3897	; 0x803897 <serRxDone>
     748:	81 11       	cpse	r24, r1
     74a:	1d c0       	rjmp	.+58     	; 0x786 <__vector_27+0x52>
     74c:	ed b3       	in	r30, 0x1d	; 29
     74e:	f0 e0       	ldi	r31, 0x00	; 0
     750:	80 91 00 08 	lds	r24, 0x0800	; 0x800800 <__TEXT_REGION_LENGTH__+0x700800>
     754:	e6 53       	subi	r30, 0x36	; 54
     756:	f6 4c       	sbci	r31, 0xC6	; 198
     758:	80 83       	st	Z, r24
     75a:	ed b3       	in	r30, 0x1d	; 29
     75c:	f0 e0       	ldi	r31, 0x00	; 0
     75e:	e6 53       	subi	r30, 0x36	; 54
     760:	f6 4c       	sbci	r31, 0xC6	; 198
     762:	80 81       	ld	r24, Z
     764:	8a 30       	cpi	r24, 0x0A	; 10
     766:	49 f4       	brne	.+18     	; 0x77a <__vector_27+0x46>
     768:	ed b3       	in	r30, 0x1d	; 29
     76a:	f0 e0       	ldi	r31, 0x00	; 0
     76c:	e6 53       	subi	r30, 0x36	; 54
     76e:	f6 4c       	sbci	r31, 0xC6	; 198
     770:	10 82       	st	Z, r1
     772:	81 e0       	ldi	r24, 0x01	; 1
     774:	80 93 97 38 	sts	0x3897, r24	; 0x803897 <serRxDone>
     778:	06 c0       	rjmp	.+12     	; 0x786 <__vector_27+0x52>
     77a:	8d b3       	in	r24, 0x1d	; 29
     77c:	80 34       	cpi	r24, 0x40	; 64
     77e:	18 f4       	brcc	.+6      	; 0x786 <__vector_27+0x52>
     780:	8d b3       	in	r24, 0x1d	; 29
     782:	8f 5f       	subi	r24, 0xFF	; 255
     784:	8d bb       	out	0x1d, r24	; 29
     786:	80 e8       	ldi	r24, 0x80	; 128
     788:	80 93 04 08 	sts	0x0804, r24	; 0x800804 <__TEXT_REGION_LENGTH__+0x700804>
     78c:	ff 91       	pop	r31
     78e:	ef 91       	pop	r30
     790:	8f 91       	pop	r24
     792:	0f 90       	pop	r0
     794:	0f be       	out	0x3f, r0	; 63
     796:	0f 90       	pop	r0
     798:	1f 90       	pop	r1
     79a:	18 95       	reti

0000079c <__vector_28>:
     79c:	1f 92       	push	r1
     79e:	0f 92       	push	r0
     7a0:	0f b6       	in	r0, 0x3f	; 63
     7a2:	0f 92       	push	r0
     7a4:	11 24       	eor	r1, r1
     7a6:	8f 93       	push	r24
     7a8:	ef 93       	push	r30
     7aa:	ff 93       	push	r31
     7ac:	10 92 4a 0a 	sts	0x0A4A, r1	; 0x800a4a <__TEXT_REGION_LENGTH__+0x700a4a>
     7b0:	10 92 4b 0a 	sts	0x0A4B, r1	; 0x800a4b <__TEXT_REGION_LENGTH__+0x700a4b>
     7b4:	81 e0       	ldi	r24, 0x01	; 1
     7b6:	80 93 45 0a 	sts	0x0A45, r24	; 0x800a45 <__TEXT_REGION_LENGTH__+0x700a45>
     7ba:	e5 e0       	ldi	r30, 0x05	; 5
     7bc:	f8 e0       	ldi	r31, 0x08	; 8
     7be:	80 81       	ld	r24, Z
     7c0:	8f 7d       	andi	r24, 0xDF	; 223
     7c2:	80 83       	st	Z, r24
     7c4:	ff 91       	pop	r31
     7c6:	ef 91       	pop	r30
     7c8:	8f 91       	pop	r24
     7ca:	0f 90       	pop	r0
     7cc:	0f be       	out	0x3f, r0	; 63
     7ce:	0f 90       	pop	r0
     7d0:	1f 90       	pop	r1
     7d2:	18 95       	reti

000007d4 <__vector_20>:
     7d4:	1f 92       	push	r1
     7d6:	0f 92       	push	r0
     7d8:	0f b6       	in	r0, 0x3f	; 63
     7da:	0f 92       	push	r0
     7dc:	11 24       	eor	r1, r1
     7de:	8f 93       	push	r24
     7e0:	ef 93       	push	r30
     7e2:	ff 93       	push	r31
     7e4:	80 91 90 38 	lds	r24, 0x3890	; 0x803890 <__data_end>
     7e8:	81 11       	cpse	r24, r1
     7ea:	15 c0       	rjmp	.+42     	; 0x816 <__vector_20+0x42>
     7ec:	8e b3       	in	r24, 0x1e	; 30
     7ee:	8f 5f       	subi	r24, 0xFF	; 255
     7f0:	8f 71       	andi	r24, 0x1F	; 31
     7f2:	8e bb       	out	0x1e, r24	; 30
     7f4:	80 91 06 06 	lds	r24, 0x0606	; 0x800606 <__TEXT_REGION_LENGTH__+0x700606>
     7f8:	8e 31       	cpi	r24, 0x1E	; 30
     7fa:	29 f4       	brne	.+10     	; 0x806 <__vector_20+0x32>
     7fc:	80 91 10 06 	lds	r24, 0x0610	; 0x800610 <__TEXT_REGION_LENGTH__+0x700610>
     800:	80 93 5e 3a 	sts	0x3A5E, r24	; 0x803a5e <adcTemp>
     804:	0a c0       	rjmp	.+20     	; 0x81a <__vector_20+0x46>
     806:	ee b3       	in	r30, 0x1e	; 30
     808:	f0 e0       	ldi	r31, 0x00	; 0
     80a:	80 91 10 06 	lds	r24, 0x0610	; 0x800610 <__TEXT_REGION_LENGTH__+0x700610>
     80e:	eb 5e       	subi	r30, 0xEB	; 235
     810:	f5 4c       	sbci	r31, 0xC5	; 197
     812:	80 83       	st	Z, r24
     814:	02 c0       	rjmp	.+4      	; 0x81a <__vector_20+0x46>
     816:	10 92 90 38 	sts	0x3890, r1	; 0x803890 <__data_end>
     81a:	81 e0       	ldi	r24, 0x01	; 1
     81c:	80 93 0b 06 	sts	0x060B, r24	; 0x80060b <__TEXT_REGION_LENGTH__+0x70060b>
     820:	ff 91       	pop	r31
     822:	ef 91       	pop	r30
     824:	8f 91       	pop	r24
     826:	0f 90       	pop	r0
     828:	0f be       	out	0x3f, r0	; 63
     82a:	0f 90       	pop	r0
     82c:	1f 90       	pop	r1
     82e:	18 95       	reti

00000830 <__vector_22>:
     830:	1f 92       	push	r1
     832:	0f 92       	push	r0
     834:	0f b6       	in	r0, 0x3f	; 63
     836:	0f 92       	push	r0
     838:	11 24       	eor	r1, r1
     83a:	8f 93       	push	r24
     83c:	9f 93       	push	r25
     83e:	80 91 46 06 	lds	r24, 0x0646	; 0x800646 <__TEXT_REGION_LENGTH__+0x700646>
     842:	81 11       	cpse	r24, r1
     844:	0c c0       	rjmp	.+24     	; 0x85e <__vector_22+0x2e>
     846:	80 91 50 06 	lds	r24, 0x0650	; 0x800650 <__TEXT_REGION_LENGTH__+0x700650>
     84a:	90 91 51 06 	lds	r25, 0x0651	; 0x800651 <__TEXT_REGION_LENGTH__+0x700651>
     84e:	80 93 12 3a 	sts	0x3A12, r24	; 0x803a12 <adcPhot>
     852:	90 93 13 3a 	sts	0x3A13, r25	; 0x803a13 <adcPhot+0x1>
     856:	81 e0       	ldi	r24, 0x01	; 1
     858:	80 93 46 06 	sts	0x0646, r24	; 0x800646 <__TEXT_REGION_LENGTH__+0x700646>
     85c:	23 c0       	rjmp	.+70     	; 0x8a4 <__vector_22+0x74>
     85e:	80 91 46 06 	lds	r24, 0x0646	; 0x800646 <__TEXT_REGION_LENGTH__+0x700646>
     862:	81 30       	cpi	r24, 0x01	; 1
     864:	79 f4       	brne	.+30     	; 0x884 <__vector_22+0x54>
     866:	88 e0       	ldi	r24, 0x08	; 8
     868:	80 93 06 04 	sts	0x0406, r24	; 0x800406 <__TEXT_REGION_LENGTH__+0x700406>
     86c:	80 91 50 06 	lds	r24, 0x0650	; 0x800650 <__TEXT_REGION_LENGTH__+0x700650>
     870:	90 91 51 06 	lds	r25, 0x0651	; 0x800651 <__TEXT_REGION_LENGTH__+0x700651>
     874:	80 93 10 3a 	sts	0x3A10, r24	; 0x803a10 <adcHall>
     878:	90 93 11 3a 	sts	0x3A11, r25	; 0x803a11 <adcHall+0x1>
     87c:	84 e0       	ldi	r24, 0x04	; 4
     87e:	80 93 46 06 	sts	0x0646, r24	; 0x800646 <__TEXT_REGION_LENGTH__+0x700646>
     882:	10 c0       	rjmp	.+32     	; 0x8a4 <__vector_22+0x74>
     884:	80 91 50 06 	lds	r24, 0x0650	; 0x800650 <__TEXT_REGION_LENGTH__+0x700650>
     888:	90 91 51 06 	lds	r25, 0x0651	; 0x800651 <__TEXT_REGION_LENGTH__+0x700651>
     88c:	80 93 0c 3a 	sts	0x3A0C, r24	; 0x803a0c <adcBtns>
     890:	90 93 0d 3a 	sts	0x3A0D, r25	; 0x803a0d <adcBtns+0x1>
     894:	8f b3       	in	r24, 0x1f	; 31
     896:	8f 30       	cpi	r24, 0x0F	; 15
     898:	29 f4       	brne	.+10     	; 0x8a4 <__vector_22+0x74>
     89a:	10 92 46 06 	sts	0x0646, r1	; 0x800646 <__TEXT_REGION_LENGTH__+0x700646>
     89e:	88 e0       	ldi	r24, 0x08	; 8
     8a0:	80 93 05 04 	sts	0x0405, r24	; 0x800405 <__TEXT_REGION_LENGTH__+0x700405>
     8a4:	8f b3       	in	r24, 0x1f	; 31
     8a6:	90 e0       	ldi	r25, 0x00	; 0
     8a8:	01 96       	adiw	r24, 0x01	; 1
     8aa:	8f 70       	andi	r24, 0x0F	; 15
     8ac:	90 78       	andi	r25, 0x80	; 128
     8ae:	99 23       	and	r25, r25
     8b0:	24 f4       	brge	.+8      	; 0x8ba <__vector_22+0x8a>
     8b2:	01 97       	sbiw	r24, 0x01	; 1
     8b4:	80 6f       	ori	r24, 0xF0	; 240
     8b6:	9f 6f       	ori	r25, 0xFF	; 255
     8b8:	01 96       	adiw	r24, 0x01	; 1
     8ba:	8f bb       	out	0x1f, r24	; 31
     8bc:	81 e0       	ldi	r24, 0x01	; 1
     8be:	80 93 4b 06 	sts	0x064B, r24	; 0x80064b <__TEXT_REGION_LENGTH__+0x70064b>
     8c2:	9f 91       	pop	r25
     8c4:	8f 91       	pop	r24
     8c6:	0f 90       	pop	r0
     8c8:	0f be       	out	0x3f, r0	; 63
     8ca:	0f 90       	pop	r0
     8cc:	1f 90       	pop	r1
     8ce:	18 95       	reti

000008d0 <__vector_6>:
     8d0:	1f 92       	push	r1
     8d2:	0f 92       	push	r0
     8d4:	0f b6       	in	r0, 0x3f	; 63
     8d6:	0f 92       	push	r0
     8d8:	11 24       	eor	r1, r1
     8da:	5f 93       	push	r21
     8dc:	6f 93       	push	r22
     8de:	7f 93       	push	r23
     8e0:	8f 93       	push	r24
     8e2:	9f 93       	push	r25
     8e4:	af 93       	push	r26
     8e6:	bf 93       	push	r27
     8e8:	ef 93       	push	r30
     8ea:	ff 93       	push	r31
     8ec:	80 91 43 01 	lds	r24, 0x0143	; 0x800143 <__TEXT_REGION_LENGTH__+0x700143>
     8f0:	81 ff       	sbrs	r24, 1
     8f2:	29 c0       	rjmp	.+82     	; 0x946 <__vector_6+0x76>
     8f4:	80 91 95 38 	lds	r24, 0x3895	; 0x803895 <buttonMark>
     8f8:	8f 3f       	cpi	r24, 0xFF	; 255
     8fa:	29 f0       	breq	.+10     	; 0x906 <__vector_6+0x36>
     8fc:	80 91 95 38 	lds	r24, 0x3895	; 0x803895 <buttonMark>
     900:	8f 5f       	subi	r24, 0xFF	; 255
     902:	80 93 95 38 	sts	0x3895, r24	; 0x803895 <buttonMark>
     906:	80 91 48 01 	lds	r24, 0x0148	; 0x800148 <__TEXT_REGION_LENGTH__+0x700148>
     90a:	90 91 49 01 	lds	r25, 0x0149	; 0x800149 <__TEXT_REGION_LENGTH__+0x700149>
     90e:	60 91 4a 01 	lds	r22, 0x014A	; 0x80014a <__TEXT_REGION_LENGTH__+0x70014a>
     912:	70 91 4b 01 	lds	r23, 0x014B	; 0x80014b <__TEXT_REGION_LENGTH__+0x70014b>
     916:	82 96       	adiw	r24, 0x22	; 34
     918:	0e 94 e7 0c 	call	0x19ce	; 0x19ce <__udivmodhi4>
     91c:	80 93 5f 3a 	sts	0x3A5F, r24	; 0x803a5f <tmp16bit>
     920:	90 93 60 3a 	sts	0x3A60, r25	; 0x803a60 <tmp16bit+0x1>
     924:	e1 e4       	ldi	r30, 0x41	; 65
     926:	f1 e0       	ldi	r31, 0x01	; 1
     928:	80 81       	ld	r24, Z
     92a:	83 fd       	sbrc	r24, 3
     92c:	fd cf       	rjmp	.-6      	; 0x928 <__vector_6+0x58>
     92e:	80 91 5f 3a 	lds	r24, 0x3A5F	; 0x803a5f <tmp16bit>
     932:	90 91 60 3a 	lds	r25, 0x3A60	; 0x803a60 <tmp16bit+0x1>
     936:	80 93 4c 01 	sts	0x014C, r24	; 0x80014c <__TEXT_REGION_LENGTH__+0x70014c>
     93a:	90 93 4d 01 	sts	0x014D, r25	; 0x80014d <__TEXT_REGION_LENGTH__+0x70014d>
     93e:	82 e0       	ldi	r24, 0x02	; 2
     940:	80 93 43 01 	sts	0x0143, r24	; 0x800143 <__TEXT_REGION_LENGTH__+0x700143>
     944:	0c c0       	rjmp	.+24     	; 0x95e <__vector_6+0x8e>
     946:	80 91 96 38 	lds	r24, 0x3896	; 0x803896 <minuteMark>
     94a:	8f 3f       	cpi	r24, 0xFF	; 255
     94c:	29 f0       	breq	.+10     	; 0x958 <__vector_6+0x88>
     94e:	80 91 96 38 	lds	r24, 0x3896	; 0x803896 <minuteMark>
     952:	8f 5f       	subi	r24, 0xFF	; 255
     954:	80 93 96 38 	sts	0x3896, r24	; 0x803896 <minuteMark>
     958:	81 e0       	ldi	r24, 0x01	; 1
     95a:	80 93 43 01 	sts	0x0143, r24	; 0x800143 <__TEXT_REGION_LENGTH__+0x700143>
     95e:	ff 91       	pop	r31
     960:	ef 91       	pop	r30
     962:	bf 91       	pop	r27
     964:	af 91       	pop	r26
     966:	9f 91       	pop	r25
     968:	8f 91       	pop	r24
     96a:	7f 91       	pop	r23
     96c:	6f 91       	pop	r22
     96e:	5f 91       	pop	r21
     970:	0f 90       	pop	r0
     972:	0f be       	out	0x3f, r0	; 63
     974:	0f 90       	pop	r0
     976:	1f 90       	pop	r1
     978:	18 95       	reti

0000097a <__vector_7>:
     97a:	1f 92       	push	r1
     97c:	0f 92       	push	r0
     97e:	0f b6       	in	r0, 0x3f	; 63
     980:	0f 92       	push	r0
     982:	11 24       	eor	r1, r1
     984:	8f 93       	push	r24
     986:	81 e0       	ldi	r24, 0x01	; 1
     988:	80 93 48 06 	sts	0x0648, r24	; 0x800648 <__TEXT_REGION_LENGTH__+0x700648>
     98c:	80 93 53 01 	sts	0x0153, r24	; 0x800153 <__TEXT_REGION_LENGTH__+0x700153>
     990:	8f 91       	pop	r24
     992:	0f 90       	pop	r0
     994:	0f be       	out	0x3f, r0	; 63
     996:	0f 90       	pop	r0
     998:	1f 90       	pop	r1
     99a:	18 95       	reti

0000099c <EERead>:
     99c:	e2 e0       	ldi	r30, 0x02	; 2
     99e:	f0 e1       	ldi	r31, 0x10	; 16
     9a0:	90 81       	ld	r25, Z
     9a2:	91 fd       	sbrc	r25, 1
     9a4:	fd cf       	rjmp	.-6      	; 0x9a0 <EERead+0x4>
     9a6:	44 23       	and	r20, r20
     9a8:	59 f0       	breq	.+22     	; 0x9c0 <EERead+0x24>
     9aa:	a6 2f       	mov	r26, r22
     9ac:	b7 2f       	mov	r27, r23
     9ae:	48 0f       	add	r20, r24
     9b0:	e8 2f       	mov	r30, r24
     9b2:	f0 e0       	ldi	r31, 0x00	; 0
     9b4:	fc 5e       	subi	r31, 0xEC	; 236
     9b6:	90 81       	ld	r25, Z
     9b8:	9d 93       	st	X+, r25
     9ba:	8f 5f       	subi	r24, 0xFF	; 255
     9bc:	48 13       	cpse	r20, r24
     9be:	f8 cf       	rjmp	.-16     	; 0x9b0 <EERead+0x14>
     9c0:	08 95       	ret

000009c2 <EEWrite>:
     9c2:	ff 92       	push	r15
     9c4:	0f 93       	push	r16
     9c6:	1f 93       	push	r17
     9c8:	cf 93       	push	r28
     9ca:	df 93       	push	r29
     9cc:	e8 2f       	mov	r30, r24
     9ce:	44 23       	and	r20, r20
     9d0:	79 f1       	breq	.+94     	; 0xa30 <EEWrite+0x6e>
     9d2:	c2 e0       	ldi	r28, 0x02	; 2
     9d4:	d0 e1       	ldi	r29, 0x10	; 16
     9d6:	3d e9       	ldi	r19, 0x9D	; 157
     9d8:	00 e0       	ldi	r16, 0x00	; 0
     9da:	10 e1       	ldi	r17, 0x10	; 16
     9dc:	54 e0       	ldi	r21, 0x04	; 4
     9de:	0f 2e       	mov	r0, r31
     9e0:	f3 e0       	ldi	r31, 0x03	; 3
     9e2:	ff 2e       	mov	r15, r31
     9e4:	f0 2d       	mov	r31, r0
     9e6:	88 81       	ld	r24, Y
     9e8:	81 fd       	sbrc	r24, 1
     9ea:	fd cf       	rjmp	.-6      	; 0x9e6 <EEWrite+0x24>
     9ec:	34 bf       	out	0x34, r19	; 52
     9ee:	d8 01       	movw	r26, r16
     9f0:	5c 93       	st	X, r21
     9f2:	44 23       	and	r20, r20
     9f4:	91 f0       	breq	.+36     	; 0xa1a <EEWrite+0x58>
     9f6:	2e 2f       	mov	r18, r30
     9f8:	2f 71       	andi	r18, 0x1F	; 31
     9fa:	91 e0       	ldi	r25, 0x01	; 1
     9fc:	9e 0f       	add	r25, r30
     9fe:	6f 5f       	subi	r22, 0xFF	; 255
     a00:	7f 4f       	sbci	r23, 0xFF	; 255
     a02:	db 01       	movw	r26, r22
     a04:	11 97       	sbiw	r26, 0x01	; 1
     a06:	8c 91       	ld	r24, X
     a08:	f0 e0       	ldi	r31, 0x00	; 0
     a0a:	fc 5e       	subi	r31, 0xEC	; 236
     a0c:	80 83       	st	Z, r24
     a0e:	41 50       	subi	r20, 0x01	; 1
     a10:	21 f0       	breq	.+8      	; 0xa1a <EEWrite+0x58>
     a12:	e9 2f       	mov	r30, r25
     a14:	2f 31       	cpi	r18, 0x1F	; 31
     a16:	79 f7       	brne	.-34     	; 0x9f6 <EEWrite+0x34>
     a18:	0f c0       	rjmp	.+30     	; 0xa38 <EEWrite+0x76>
     a1a:	8d e9       	ldi	r24, 0x9D	; 157
     a1c:	84 bf       	out	0x34, r24	; 52
     a1e:	83 e0       	ldi	r24, 0x03	; 3
     a20:	80 93 00 10 	sts	0x1000, r24	; 0x801000 <__TEXT_REGION_LENGTH__+0x701000>
     a24:	80 91 02 10 	lds	r24, 0x1002	; 0x801002 <__TEXT_REGION_LENGTH__+0x701002>
     a28:	82 fb       	bst	r24, 2
     a2a:	88 27       	eor	r24, r24
     a2c:	80 f9       	bld	r24, 0
     a2e:	0c c0       	rjmp	.+24     	; 0xa48 <EEWrite+0x86>
     a30:	80 e0       	ldi	r24, 0x00	; 0
     a32:	0a c0       	rjmp	.+20     	; 0xa48 <EEWrite+0x86>
     a34:	81 e0       	ldi	r24, 0x01	; 1
     a36:	08 c0       	rjmp	.+16     	; 0xa48 <EEWrite+0x86>
     a38:	34 bf       	out	0x34, r19	; 52
     a3a:	f8 01       	movw	r30, r16
     a3c:	f0 82       	st	Z, r15
     a3e:	88 81       	ld	r24, Y
     a40:	82 fd       	sbrc	r24, 2
     a42:	f8 cf       	rjmp	.-16     	; 0xa34 <EEWrite+0x72>
     a44:	e9 2f       	mov	r30, r25
     a46:	cf cf       	rjmp	.-98     	; 0x9e6 <EEWrite+0x24>
     a48:	df 91       	pop	r29
     a4a:	cf 91       	pop	r28
     a4c:	1f 91       	pop	r17
     a4e:	0f 91       	pop	r16
     a50:	ff 90       	pop	r15
     a52:	08 95       	ret

00000a54 <SerSend>:
     a54:	9c 01       	movw	r18, r24
     a56:	90 91 04 38 	lds	r25, 0x3804	; 0x803804 <serTxDone>
     a5a:	99 23       	and	r25, r25
     a5c:	59 f0       	breq	.+22     	; 0xa74 <SerSend+0x20>
     a5e:	20 93 0e 3a 	sts	0x3A0E, r18	; 0x803a0e <serTxAddr>
     a62:	30 93 0f 3a 	sts	0x3A0F, r19	; 0x803a0f <serTxAddr+0x1>
     a66:	10 92 04 38 	sts	0x3804, r1	; 0x803804 <serTxDone>
     a6a:	81 e0       	ldi	r24, 0x01	; 1
     a6c:	80 93 45 0a 	sts	0x0A45, r24	; 0x800a45 <__TEXT_REGION_LENGTH__+0x700a45>
     a70:	80 e0       	ldi	r24, 0x00	; 0
     a72:	08 95       	ret
     a74:	81 e0       	ldi	r24, 0x01	; 1
     a76:	08 95       	ret

00000a78 <SerSpeed>:
     a78:	28 2f       	mov	r18, r24
     a7a:	81 11       	cpse	r24, r1
     a7c:	01 c0       	rjmp	.+2      	; 0xa80 <SerSpeed+0x8>
     a7e:	21 e0       	ldi	r18, 0x01	; 1
     a80:	8f ef       	ldi	r24, 0xFF	; 255
     a82:	90 e0       	ldi	r25, 0x00	; 0
     a84:	82 1b       	sub	r24, r18
     a86:	91 09       	sbc	r25, r1
     a88:	98 2f       	mov	r25, r24
     a8a:	88 27       	eor	r24, r24
     a8c:	81 50       	subi	r24, 0x01	; 1
     a8e:	9f 4f       	sbci	r25, 0xFF	; 255
     a90:	80 93 4c 0a 	sts	0x0A4C, r24	; 0x800a4c <__TEXT_REGION_LENGTH__+0x700a4c>
     a94:	90 93 4d 0a 	sts	0x0A4D, r25	; 0x800a4d <__TEXT_REGION_LENGTH__+0x700a4d>
     a98:	08 95       	ret

00000a9a <CheckButtons>:
};

// Returns button combination (4LSB) and number of consecutive times this combination is detected. First read should always be ignored! 
uint8_t CheckButtons(uint8_t previousValue){
    uint8_t bADC = (uint8_t)(adcBtns>>4);
     a9a:	20 91 0c 3a 	lds	r18, 0x3A0C	; 0x803a0c <adcBtns>
     a9e:	30 91 0d 3a 	lds	r19, 0x3A0D	; 0x803a0d <adcBtns+0x1>
    uint8_t bNibble = 0x0F;     //MSB to LSB: Bottom left, top left, top right, bottom right, 0F is error
    
    switch(bADC){
     aa2:	32 95       	swap	r19
     aa4:	22 95       	swap	r18
     aa6:	2f 70       	andi	r18, 0x0F	; 15
     aa8:	23 27       	eor	r18, r19
     aaa:	3f 70       	andi	r19, 0x0F	; 15
     aac:	23 27       	eor	r18, r19
     aae:	33 27       	eor	r19, r19
     ab0:	2c 35       	cpi	r18, 0x5C	; 92
     ab2:	31 05       	cpc	r19, r1
     ab4:	d0 f4       	brcc	.+52     	; 0xaea <CheckButtons+0x50>
     ab6:	23 35       	cpi	r18, 0x53	; 83
     ab8:	31 05       	cpc	r19, r1
     aba:	98 f5       	brcc	.+102    	; 0xb22 <CheckButtons+0x88>
     abc:	22 33       	cpi	r18, 0x32	; 50
     abe:	31 05       	cpc	r19, r1
     ac0:	50 f4       	brcc	.+20     	; 0xad6 <CheckButtons+0x3c>
     ac2:	2d 32       	cpi	r18, 0x2D	; 45
     ac4:	31 05       	cpc	r19, r1
     ac6:	48 f5       	brcc	.+82     	; 0xb1a <CheckButtons+0x80>
     ac8:	23 52       	subi	r18, 0x23	; 35
     aca:	31 09       	sbc	r19, r1
     acc:	25 30       	cpi	r18, 0x05	; 5
     ace:	31 05       	cpc	r19, r1
     ad0:	08 f4       	brcc	.+2      	; 0xad4 <CheckButtons+0x3a>
     ad2:	42 c0       	rjmp	.+132    	; 0xb58 <CheckButtons+0xbe>
     ad4:	2e c0       	rjmp	.+92     	; 0xb32 <CheckButtons+0x98>
     ad6:	27 33       	cpi	r18, 0x37	; 55
     ad8:	31 05       	cpc	r19, r1
     ada:	08 f4       	brcc	.+2      	; 0xade <CheckButtons+0x44>
     adc:	3f c0       	rjmp	.+126    	; 0xb5c <CheckButtons+0xc2>
     ade:	2e 53       	subi	r18, 0x3E	; 62
     ae0:	31 09       	sbc	r19, r1
     ae2:	27 30       	cpi	r18, 0x07	; 7
     ae4:	31 05       	cpc	r19, r1
     ae6:	d8 f0       	brcs	.+54     	; 0xb1e <CheckButtons+0x84>
     ae8:	24 c0       	rjmp	.+72     	; 0xb32 <CheckButtons+0x98>
     aea:	2a 38       	cpi	r18, 0x8A	; 138
     aec:	31 05       	cpc	r19, r1
     aee:	48 f4       	brcc	.+18     	; 0xb02 <CheckButtons+0x68>
     af0:	29 37       	cpi	r18, 0x79	; 121
     af2:	31 05       	cpc	r19, r1
     af4:	d0 f4       	brcc	.+52     	; 0xb2a <CheckButtons+0x90>
     af6:	23 56       	subi	r18, 0x63	; 99
     af8:	31 09       	sbc	r19, r1
     afa:	2b 30       	cpi	r18, 0x0B	; 11
     afc:	31 05       	cpc	r19, r1
     afe:	98 f0       	brcs	.+38     	; 0xb26 <CheckButtons+0x8c>
     b00:	18 c0       	rjmp	.+48     	; 0xb32 <CheckButtons+0x98>
     b02:	22 3a       	cpi	r18, 0xA2	; 162
     b04:	31 05       	cpc	r19, r1
     b06:	a8 f0       	brcs	.+42     	; 0xb32 <CheckButtons+0x98>
     b08:	2b 3b       	cpi	r18, 0xBB	; 187
     b0a:	31 05       	cpc	r19, r1
     b0c:	80 f0       	brcs	.+32     	; 0xb2e <CheckButtons+0x94>
     b0e:	20 5f       	subi	r18, 0xF0	; 240
     b10:	31 09       	sbc	r19, r1
     b12:	20 31       	cpi	r18, 0x10	; 16
     b14:	31 05       	cpc	r19, r1
     b16:	d8 f0       	brcs	.+54     	; 0xb4e <CheckButtons+0xb4>
     b18:	0c c0       	rjmp	.+24     	; 0xb32 <CheckButtons+0x98>
        case 35 ... 39:          //37: Both left
        bNibble = 0b1100;
        break;

        case 45 ... 49:          //47: Both bottom
        bNibble = 0b1001;
     b1a:	99 e0       	ldi	r25, 0x09	; 9
     b1c:	20 c0       	rjmp	.+64     	; 0xb5e <CheckButtons+0xc4>
        case 50 ... 54:          //52: Bottom left
        bNibble = 0b1000;
        break;

        case 62 ... 68:          //65: Both top
        bNibble = 0b0110;
     b1e:	96 e0       	ldi	r25, 0x06	; 6
        break;
     b20:	1e c0       	rjmp	.+60     	; 0xb5e <CheckButtons+0xc4>

        case 83 ... 91:          //87: Top left
        bNibble = 0b0100;
     b22:	94 e0       	ldi	r25, 0x04	; 4
        break;
     b24:	1c c0       	rjmp	.+56     	; 0xb5e <CheckButtons+0xc4>

        case 99 ... 109:         //104: Both right
        bNibble = 0b0011;
     b26:	93 e0       	ldi	r25, 0x03	; 3
        break;
     b28:	1a c0       	rjmp	.+52     	; 0xb5e <CheckButtons+0xc4>

        case 121 ... 137:        //129: Top right
        bNibble = 0b0010;
     b2a:	92 e0       	ldi	r25, 0x02	; 2
        break;
     b2c:	18 c0       	rjmp	.+48     	; 0xb5e <CheckButtons+0xc4>

        case 162 ... 186:        //174: Bottom right
        bNibble = 0b0001;
     b2e:	91 e0       	ldi	r25, 0x01	; 1
        break;
     b30:	16 c0       	rjmp	.+44     	; 0xb5e <CheckButtons+0xc4>
        case 240 ... 255:        //255: No button pressed
        bNibble = 0b0000;
        break;
    }

    if ((previousValue&0x0F)==bNibble){
     b32:	98 2f       	mov	r25, r24
     b34:	9f 70       	andi	r25, 0x0F	; 15
     b36:	9f 30       	cpi	r25, 0x0F	; 15
     b38:	41 f4       	brne	.+16     	; 0xb4a <CheckButtons+0xb0>
        if ((previousValue&0xF0) < 0xF0) previousValue += 0x10; //Same value? Increase time nibble
     b3a:	28 2f       	mov	r18, r24
     b3c:	20 7f       	andi	r18, 0xF0	; 240
     b3e:	30 e0       	ldi	r19, 0x00	; 0
     b40:	20 3f       	cpi	r18, 0xF0	; 240
     b42:	31 05       	cpc	r19, r1
     b44:	8c f4       	brge	.+34     	; 0xb68 <CheckButtons+0xce>
     b46:	80 5f       	subi	r24, 0xF0	; 240
     b48:	08 95       	ret
};

// Returns button combination (4LSB) and number of consecutive times this combination is detected. First read should always be ignored! 
uint8_t CheckButtons(uint8_t previousValue){
    uint8_t bADC = (uint8_t)(adcBtns>>4);
    uint8_t bNibble = 0x0F;     //MSB to LSB: Bottom left, top left, top right, bottom right, 0F is error
     b4a:	8f e0       	ldi	r24, 0x0F	; 15
     b4c:	08 95       	ret
        case 240 ... 255:        //255: No button pressed
        bNibble = 0b0000;
        break;
    }

    if ((previousValue&0x0F)==bNibble){
     b4e:	98 2f       	mov	r25, r24
     b50:	9f 70       	andi	r25, 0x0F	; 15
     b52:	99 f3       	breq	.-26     	; 0xb3a <CheckButtons+0xa0>
        if ((previousValue&0xF0) < 0xF0) previousValue += 0x10; //Same value? Increase time nibble
        return previousValue;       
    } else if (bNibble == 0) return 0xFF; //Buttons released, 0xFF triggers readout, previousValue holds last button value.
     b54:	8f ef       	ldi	r24, 0xFF	; 255
     b56:	08 95       	ret
        case 28 ... 32:         //30: All buttons pressed
        bNibble = 0b1111;
        break;

        case 35 ... 39:          //37: Both left
        bNibble = 0b1100;
     b58:	9c e0       	ldi	r25, 0x0C	; 12
     b5a:	01 c0       	rjmp	.+2      	; 0xb5e <CheckButtons+0xc4>
        case 45 ... 49:          //47: Both bottom
        bNibble = 0b1001;
        break;

        case 50 ... 54:          //52: Bottom left
        bNibble = 0b1000;
     b5c:	98 e0       	ldi	r25, 0x08	; 8
        case 240 ... 255:        //255: No button pressed
        bNibble = 0b0000;
        break;
    }

    if ((previousValue&0x0F)==bNibble){
     b5e:	28 2f       	mov	r18, r24
     b60:	2f 70       	andi	r18, 0x0F	; 15
     b62:	92 17       	cp	r25, r18
     b64:	51 f3       	breq	.-44     	; 0xb3a <CheckButtons+0xa0>
     b66:	89 2f       	mov	r24, r25
        if ((previousValue&0xF0) < 0xF0) previousValue += 0x10; //Same value? Increase time nibble
        return previousValue;       
    } else if (bNibble == 0) return 0xFF; //Buttons released, 0xFF triggers readout, previousValue holds last button value.
              else return bNibble;  //New value  
}
     b68:	08 95       	ret

00000b6a <lfsr>:

uint8_t lfsr(){
    static uint16_t state = 0xd401;
    state ^= (state << 13);
     b6a:	80 91 85 38 	lds	r24, 0x3885	; 0x803885 <state.3860>
     b6e:	90 91 86 38 	lds	r25, 0x3886	; 0x803886 <state.3860+0x1>
     b72:	9c 01       	movw	r18, r24
     b74:	32 2f       	mov	r19, r18
     b76:	22 27       	eor	r18, r18
     b78:	32 95       	swap	r19
     b7a:	33 0f       	add	r19, r19
     b7c:	30 7e       	andi	r19, 0xE0	; 224
     b7e:	82 27       	eor	r24, r18
     b80:	93 27       	eor	r25, r19
    state ^= (state >> 9);
     b82:	9c 01       	movw	r18, r24
     b84:	23 2f       	mov	r18, r19
     b86:	33 27       	eor	r19, r19
     b88:	26 95       	lsr	r18
     b8a:	82 27       	eor	r24, r18
     b8c:	93 27       	eor	r25, r19
    state ^= (state << 7);
     b8e:	9c 01       	movw	r18, r24
     b90:	36 95       	lsr	r19
     b92:	32 2f       	mov	r19, r18
     b94:	22 27       	eor	r18, r18
     b96:	37 95       	ror	r19
     b98:	27 95       	ror	r18
     b9a:	82 27       	eor	r24, r18
     b9c:	93 27       	eor	r25, r19
     b9e:	80 93 85 38 	sts	0x3885, r24	; 0x803885 <state.3860>
     ba2:	90 93 86 38 	sts	0x3886, r25	; 0x803886 <state.3860+0x1>
    return (state & 0xff);
}
     ba6:	08 95       	ret

00000ba8 <floatSpeed>:

void floatSpeed(uint8_t bits, uint16_t min, uint16_t max){
     ba8:	df 92       	push	r13
     baa:	ef 92       	push	r14
     bac:	ff 92       	push	r15
     bae:	0f 93       	push	r16
     bb0:	1f 93       	push	r17
     bb2:	cf 93       	push	r28
     bb4:	df 93       	push	r29
     bb6:	e6 2e       	mov	r14, r22
     bb8:	f7 2e       	mov	r15, r23
     bba:	8a 01       	movw	r16, r20
    uint16_t val = TCB1_CCMP;
     bbc:	c0 91 5c 0a 	lds	r28, 0x0A5C	; 0x800a5c <__TEXT_REGION_LENGTH__+0x700a5c>
     bc0:	d0 91 5d 0a 	lds	r29, 0x0A5D	; 0x800a5d <__TEXT_REGION_LENGTH__+0x700a5d>
    bits = mask[(bits-1)&0x07];
     bc4:	e8 2f       	mov	r30, r24
     bc6:	f0 e0       	ldi	r31, 0x00	; 0
     bc8:	31 97       	sbiw	r30, 0x01	; 1
     bca:	e7 70       	andi	r30, 0x07	; 7
     bcc:	ff 27       	eor	r31, r31
     bce:	e9 57       	subi	r30, 0x79	; 121
     bd0:	f7 4c       	sbci	r31, 0xC7	; 199
     bd2:	d0 80       	ld	r13, Z
    val += (lfsr()&bits);
     bd4:	ca df       	rcall	.-108    	; 0xb6a <lfsr>
     bd6:	8d 21       	and	r24, r13
     bd8:	c8 0f       	add	r28, r24
     bda:	d1 1d       	adc	r29, r1
    val -= (lfsr()&bits);
     bdc:	c6 df       	rcall	.-116    	; 0xb6a <lfsr>
     bde:	8d 21       	and	r24, r13
     be0:	c8 1b       	sub	r28, r24
     be2:	d1 09       	sbc	r29, r1
     be4:	0c 17       	cp	r16, r28
     be6:	1d 07       	cpc	r17, r29
     be8:	08 f4       	brcc	.+2      	; 0xbec <floatSpeed+0x44>
     bea:	e8 01       	movw	r28, r16
     bec:	8e 2d       	mov	r24, r14
     bee:	9f 2d       	mov	r25, r15
     bf0:	8c 17       	cp	r24, r28
     bf2:	9d 07       	cpc	r25, r29
     bf4:	08 f4       	brcc	.+2      	; 0xbf8 <floatSpeed+0x50>
     bf6:	ce 01       	movw	r24, r28
     bf8:	80 93 5c 0a 	sts	0x0A5C, r24	; 0x800a5c <__TEXT_REGION_LENGTH__+0x700a5c>
    if (val > max) val = max;    //0x038B is normal rate, for wind we need to be a bit slower
    if (val < min) val = min;  
    TCB1_CCMP = val;
     bfc:	90 93 5d 0a 	sts	0x0A5D, r25	; 0x800a5d <__TEXT_REGION_LENGTH__+0x700a5d>
     c00:	df 91       	pop	r29
}
     c02:	cf 91       	pop	r28
     c04:	1f 91       	pop	r17
     c06:	0f 91       	pop	r16
     c08:	ff 90       	pop	r15
     c0a:	ef 90       	pop	r14
     c0c:	df 90       	pop	r13
     c0e:	08 95       	ret

00000c10 <floatAround>:
     c10:	0f 93       	push	r16

uint8_t floatAround(uint8_t sample, uint8_t bits, uint8_t min, uint8_t max){
     c12:	1f 93       	push	r17
     c14:	cf 93       	push	r28
     c16:	df 93       	push	r29
     c18:	c8 2f       	mov	r28, r24
     c1a:	04 2f       	mov	r16, r20
     c1c:	12 2f       	mov	r17, r18
    bits = mask[(bits-1)&0x07];
     c1e:	e6 2f       	mov	r30, r22
     c20:	f0 e0       	ldi	r31, 0x00	; 0
     c22:	31 97       	sbiw	r30, 0x01	; 1
     c24:	e7 70       	andi	r30, 0x07	; 7
     c26:	ff 27       	eor	r31, r31
     c28:	e9 57       	subi	r30, 0x79	; 121
     c2a:	f7 4c       	sbci	r31, 0xC7	; 199
     c2c:	d0 81       	ld	r29, Z
    sample += lfsr()&bits;
     c2e:	9d df       	rcall	.-198    	; 0xb6a <lfsr>
     c30:	8d 23       	and	r24, r29
     c32:	c8 0f       	add	r28, r24
    sample -= lfsr()&bits;
     c34:	9a df       	rcall	.-204    	; 0xb6a <lfsr>
     c36:	8d 23       	and	r24, r29
     c38:	c8 1b       	sub	r28, r24
     c3a:	8c 2f       	mov	r24, r28
     c3c:	11 23       	and	r17, r17
    if (max){
     c3e:	41 f0       	breq	.+16     	; 0xc50 <floatAround+0x40>
     c40:	9c 2f       	mov	r25, r28
     c42:	1c 17       	cp	r17, r28
     c44:	08 f4       	brcc	.+2      	; 0xc48 <floatAround+0x38>
     c46:	91 2f       	mov	r25, r17
     c48:	80 2f       	mov	r24, r16
     c4a:	09 17       	cp	r16, r25
     c4c:	08 f4       	brcc	.+2      	; 0xc50 <floatAround+0x40>
     c4e:	89 2f       	mov	r24, r25
     c50:	df 91       	pop	r29
        if (sample > max) sample = max;
        if (sample < min) sample = min;
    }
    return sample;
}
     c52:	cf 91       	pop	r28
     c54:	1f 91       	pop	r17
     c56:	0f 91       	pop	r16
     c58:	08 95       	ret

00000c5a <SaveGameState>:
     c5a:	cf 92       	push	r12

//Save changed data to EEPROM
uint8_t SaveGameState(){
     c5c:	df 92       	push	r13
     c5e:	ff 92       	push	r15
     c60:	0f 93       	push	r16
     c62:	1f 93       	push	r17
     c64:	cf 93       	push	r28
     c66:	df 93       	push	r29
     c68:	cd b7       	in	r28, 0x3d	; 61
     c6a:	de b7       	in	r29, 0x3e	; 62
     c6c:	60 97       	sbiw	r28, 0x10	; 16
     c6e:	cd bf       	out	0x3d, r28	; 61
     c70:	de bf       	out	0x3e, r29	; 62
    uint8_t gameCheck[16];
    EERead(0, &gameCheck[0], 16);
     c72:	40 e1       	ldi	r20, 0x10	; 16
     c74:	be 01       	movw	r22, r28
     c76:	6f 5f       	subi	r22, 0xFF	; 255
     c78:	7f 4f       	sbci	r23, 0xFF	; 255
     c7a:	80 e0       	ldi	r24, 0x00	; 0
     c7c:	8f de       	rcall	.-738    	; 0x99c <EERead>
     c7e:	0a eb       	ldi	r16, 0xBA	; 186
     c80:	19 e3       	ldi	r17, 0x39	; 57
     c82:	ce 01       	movw	r24, r28
     c84:	01 96       	adiw	r24, 0x01	; 1
     c86:	6c 01       	movw	r12, r24
    for (uint8_t x=0; x<16; ++x){
     c88:	f1 2c       	mov	r15, r1
        if (gameState[x] != gameCheck[x]){
     c8a:	f6 01       	movw	r30, r12
     c8c:	81 91       	ld	r24, Z+
     c8e:	6f 01       	movw	r12, r30
     c90:	f8 01       	movw	r30, r16
     c92:	90 81       	ld	r25, Z
     c94:	98 17       	cp	r25, r24
     c96:	31 f0       	breq	.+12     	; 0xca4 <SaveGameState+0x4a>
            if (EEWrite(x, &gameState[x], 1)) return 1;
     c98:	41 e0       	ldi	r20, 0x01	; 1
     c9a:	b8 01       	movw	r22, r16
     c9c:	8f 2d       	mov	r24, r15
     c9e:	91 de       	rcall	.-734    	; 0x9c2 <EEWrite>
     ca0:	81 11       	cpse	r24, r1
     ca2:	08 c0       	rjmp	.+16     	; 0xcb4 <SaveGameState+0x5a>

//Save changed data to EEPROM
uint8_t SaveGameState(){
    uint8_t gameCheck[16];
    EERead(0, &gameCheck[0], 16);
    for (uint8_t x=0; x<16; ++x){
     ca4:	f3 94       	inc	r15
     ca6:	0f 5f       	subi	r16, 0xFF	; 255
     ca8:	1f 4f       	sbci	r17, 0xFF	; 255
     caa:	f0 e1       	ldi	r31, 0x10	; 16
     cac:	ff 12       	cpse	r15, r31
     cae:	ed cf       	rjmp	.-38     	; 0xc8a <SaveGameState+0x30>
        if (gameState[x] != gameCheck[x]){
            if (EEWrite(x, &gameState[x], 1)) return 1;
        }
    }
    return 0;
     cb0:	80 e0       	ldi	r24, 0x00	; 0
     cb2:	01 c0       	rjmp	.+2      	; 0xcb6 <SaveGameState+0x5c>
uint8_t SaveGameState(){
    uint8_t gameCheck[16];
    EERead(0, &gameCheck[0], 16);
    for (uint8_t x=0; x<16; ++x){
        if (gameState[x] != gameCheck[x]){
            if (EEWrite(x, &gameState[x], 1)) return 1;
     cb4:	81 e0       	ldi	r24, 0x01	; 1
        }
    }
    return 0;
}
     cb6:	60 96       	adiw	r28, 0x10	; 16
     cb8:	cd bf       	out	0x3d, r28	; 61
     cba:	de bf       	out	0x3e, r29	; 62
     cbc:	df 91       	pop	r29
     cbe:	cf 91       	pop	r28
     cc0:	1f 91       	pop	r17
     cc2:	0f 91       	pop	r16
     cc4:	ff 90       	pop	r15
     cc6:	df 90       	pop	r13
     cc8:	cf 90       	pop	r12
     cca:	08 95       	ret

00000ccc <ReadStatusBit>:

uint8_t ReadStatusBit(uint8_t number){
    number &= 0x3f;
    if (gameState[number>>3] & (1<<(number&7))) return 1; else return 0;
     ccc:	e8 2f       	mov	r30, r24
     cce:	ef 73       	andi	r30, 0x3F	; 63
     cd0:	e6 95       	lsr	r30
     cd2:	e6 95       	lsr	r30
     cd4:	e6 95       	lsr	r30
     cd6:	f0 e0       	ldi	r31, 0x00	; 0
     cd8:	e6 54       	subi	r30, 0x46	; 70
     cda:	f6 4c       	sbci	r31, 0xC6	; 198
     cdc:	20 81       	ld	r18, Z
     cde:	30 e0       	ldi	r19, 0x00	; 0
     ce0:	87 70       	andi	r24, 0x07	; 7
     ce2:	a9 01       	movw	r20, r18
     ce4:	02 c0       	rjmp	.+4      	; 0xcea <ReadStatusBit+0x1e>
     ce6:	55 95       	asr	r21
     ce8:	47 95       	ror	r20
     cea:	8a 95       	dec	r24
     cec:	e2 f7       	brpl	.-8      	; 0xce6 <ReadStatusBit+0x1a>
     cee:	ca 01       	movw	r24, r20
}
     cf0:	81 70       	andi	r24, 0x01	; 1
     cf2:	08 95       	ret

00000cf4 <WriteStatusBit>:

void WriteStatusBit(uint8_t number, uint8_t state){
    number &= 0x3f;
     cf4:	e8 2f       	mov	r30, r24
     cf6:	ef 73       	andi	r30, 0x3F	; 63
    if (state) gameState[number>>3] |= 1<<(number&7);
     cf8:	66 23       	and	r22, r22
     cfa:	a1 f0       	breq	.+40     	; 0xd24 <WriteStatusBit+0x30>
     cfc:	e6 95       	lsr	r30
     cfe:	e6 95       	lsr	r30
     d00:	e6 95       	lsr	r30
     d02:	f0 e0       	ldi	r31, 0x00	; 0
     d04:	e6 54       	subi	r30, 0x46	; 70
     d06:	f6 4c       	sbci	r31, 0xC6	; 198
     d08:	87 70       	andi	r24, 0x07	; 7
     d0a:	21 e0       	ldi	r18, 0x01	; 1
     d0c:	30 e0       	ldi	r19, 0x00	; 0
     d0e:	a9 01       	movw	r20, r18
     d10:	02 c0       	rjmp	.+4      	; 0xd16 <WriteStatusBit+0x22>
     d12:	44 0f       	add	r20, r20
     d14:	55 1f       	adc	r21, r21
     d16:	8a 95       	dec	r24
     d18:	e2 f7       	brpl	.-8      	; 0xd12 <WriteStatusBit+0x1e>
     d1a:	ca 01       	movw	r24, r20
     d1c:	90 81       	ld	r25, Z
     d1e:	89 2b       	or	r24, r25
     d20:	80 83       	st	Z, r24
     d22:	08 95       	ret
    else gameState[number>>3] &= ~(1<<(number&7));
     d24:	e6 95       	lsr	r30
     d26:	e6 95       	lsr	r30
     d28:	e6 95       	lsr	r30
     d2a:	f0 e0       	ldi	r31, 0x00	; 0
     d2c:	e6 54       	subi	r30, 0x46	; 70
     d2e:	f6 4c       	sbci	r31, 0xC6	; 198
     d30:	87 70       	andi	r24, 0x07	; 7
     d32:	21 e0       	ldi	r18, 0x01	; 1
     d34:	30 e0       	ldi	r19, 0x00	; 0
     d36:	a9 01       	movw	r20, r18
     d38:	02 c0       	rjmp	.+4      	; 0xd3e <WriteStatusBit+0x4a>
     d3a:	44 0f       	add	r20, r20
     d3c:	55 1f       	adc	r21, r21
     d3e:	8a 95       	dec	r24
     d40:	e2 f7       	brpl	.-8      	; 0xd3a <WriteStatusBit+0x46>
     d42:	ca 01       	movw	r24, r20
     d44:	80 95       	com	r24
     d46:	90 81       	ld	r25, Z
     d48:	89 23       	and	r24, r25
     d4a:	80 83       	st	Z, r24
     d4c:	08 95       	ret

00000d4e <Reset>:
}

void Reset(){
     d4e:	ea eb       	ldi	r30, 0xBA	; 186
     d50:	f9 e3       	ldi	r31, 0x39	; 57
     d52:	8a ec       	ldi	r24, 0xCA	; 202
     d54:	99 e3       	ldi	r25, 0x39	; 57
    //# 110   set to 1 by FW if badge UUID mod 4 == 0
    //# 111   set to 1 by FW if badge UUID mod 4 == 1
    //# 112   set to 1 by FW if badge UUID mod 4 == 2
    //# 113   set to 1 by FW if badge UUID mod 4 == 3
    for (uint8_t x=0; x<sizeof(gameState); ++x){
        gameState[x] = 0;
     d56:	11 92       	st	Z+, r1
    //Reset game progress (all zeroes) and load some bits:
    //# 110   set to 1 by FW if badge UUID mod 4 == 0
    //# 111   set to 1 by FW if badge UUID mod 4 == 1
    //# 112   set to 1 by FW if badge UUID mod 4 == 2
    //# 113   set to 1 by FW if badge UUID mod 4 == 3
    for (uint8_t x=0; x<sizeof(gameState); ++x){
     d58:	8e 17       	cp	r24, r30
     d5a:	9f 07       	cpc	r25, r31
     d5c:	e1 f7       	brne	.-8      	; 0xd56 <Reset+0x8>
     d5e:	e3 e0       	ldi	r30, 0x03	; 3
     d60:	f1 e1       	ldi	r31, 0x11	; 17
     d62:	80 e0       	ldi	r24, 0x00	; 0
    uint8_t *serNum;
    serNum = (uint8_t*)&SIGROW_SERNUM0;
    
    //Give out a number 0..3, calculated using serial number fields
    for (uint8_t x=0; x<10; ++x){
        id += *serNum;
     d64:	91 91       	ld	r25, Z+
     d66:	89 0f       	add	r24, r25
    uint8_t id = 0;
    uint8_t *serNum;
    serNum = (uint8_t*)&SIGROW_SERNUM0;
    
    //Give out a number 0..3, calculated using serial number fields
    for (uint8_t x=0; x<10; ++x){
     d68:	ed 30       	cpi	r30, 0x0D	; 13
     d6a:	91 e1       	ldi	r25, 0x11	; 17
     d6c:	f9 07       	cpc	r31, r25
     d6e:	d1 f7       	brne	.-12     	; 0xd64 <Reset+0x16>
        id += *serNum;
        ++serNum;
    }
    id %= 4;
     d70:	83 70       	andi	r24, 0x03	; 3

    //Write bit in gameState location 110..113
    if (id == 0) WriteStatusBit(110, 1);
     d72:	31 f4       	brne	.+12     	; 0xd80 <Reset+0x32>
    if (gameState[number>>3] & (1<<(number&7))) return 1; else return 0;
}

void WriteStatusBit(uint8_t number, uint8_t state){
    number &= 0x3f;
    if (state) gameState[number>>3] |= 1<<(number&7);
     d74:	ea eb       	ldi	r30, 0xBA	; 186
     d76:	f9 e3       	ldi	r31, 0x39	; 57
     d78:	85 81       	ldd	r24, Z+5	; 0x05
     d7a:	80 64       	ori	r24, 0x40	; 64
     d7c:	85 83       	std	Z+5, r24	; 0x05
     d7e:	17 c0       	rjmp	.+46     	; 0xdae <Reset+0x60>
    }
    id %= 4;

    //Write bit in gameState location 110..113
    if (id == 0) WriteStatusBit(110, 1);
    else if (id == 1) WriteStatusBit(111, 1);
     d80:	81 30       	cpi	r24, 0x01	; 1
     d82:	31 f4       	brne	.+12     	; 0xd90 <Reset+0x42>
    if (gameState[number>>3] & (1<<(number&7))) return 1; else return 0;
}

void WriteStatusBit(uint8_t number, uint8_t state){
    number &= 0x3f;
    if (state) gameState[number>>3] |= 1<<(number&7);
     d84:	ea eb       	ldi	r30, 0xBA	; 186
     d86:	f9 e3       	ldi	r31, 0x39	; 57
     d88:	85 81       	ldd	r24, Z+5	; 0x05
     d8a:	80 68       	ori	r24, 0x80	; 128
     d8c:	85 83       	std	Z+5, r24	; 0x05
     d8e:	0f c0       	rjmp	.+30     	; 0xdae <Reset+0x60>
    id %= 4;

    //Write bit in gameState location 110..113
    if (id == 0) WriteStatusBit(110, 1);
    else if (id == 1) WriteStatusBit(111, 1);
    else if (id == 2) WriteStatusBit(112, 1);
     d90:	82 30       	cpi	r24, 0x02	; 2
     d92:	31 f4       	brne	.+12     	; 0xda0 <Reset+0x52>
    if (gameState[number>>3] & (1<<(number&7))) return 1; else return 0;
}

void WriteStatusBit(uint8_t number, uint8_t state){
    number &= 0x3f;
    if (state) gameState[number>>3] |= 1<<(number&7);
     d94:	ea eb       	ldi	r30, 0xBA	; 186
     d96:	f9 e3       	ldi	r31, 0x39	; 57
     d98:	86 81       	ldd	r24, Z+6	; 0x06
     d9a:	81 60       	ori	r24, 0x01	; 1
     d9c:	86 83       	std	Z+6, r24	; 0x06
     d9e:	07 c0       	rjmp	.+14     	; 0xdae <Reset+0x60>

    //Write bit in gameState location 110..113
    if (id == 0) WriteStatusBit(110, 1);
    else if (id == 1) WriteStatusBit(111, 1);
    else if (id == 2) WriteStatusBit(112, 1);
    else if (id == 3) WriteStatusBit(113, 1);
     da0:	83 30       	cpi	r24, 0x03	; 3
     da2:	29 f4       	brne	.+10     	; 0xdae <Reset+0x60>
    if (gameState[number>>3] & (1<<(number&7))) return 1; else return 0;
}

void WriteStatusBit(uint8_t number, uint8_t state){
    number &= 0x3f;
    if (state) gameState[number>>3] |= 1<<(number&7);
     da4:	ea eb       	ldi	r30, 0xBA	; 186
     da6:	f9 e3       	ldi	r31, 0x39	; 57
     da8:	86 81       	ldd	r24, Z+6	; 0x06
     daa:	82 60       	ori	r24, 0x02	; 2
     dac:	86 83       	std	Z+6, r24	; 0x06
     dae:	ea eb       	ldi	r30, 0xBA	; 186
     db0:	f9 e3       	ldi	r31, 0x39	; 57
     db2:	80 81       	ld	r24, Z
     db4:	81 60       	ori	r24, 0x01	; 1
     db6:	80 83       	st	Z, r24
     db8:	08 95       	ret

00000dba <GenerateAudio>:
    WriteStatusBit(0, 1);
}

//void setupSound(uint8_t number){

void GenerateAudio(){
     dba:	0f 93       	push	r16
     dbc:	1f 93       	push	r17
     dbe:	cf 93       	push	r28
     dc0:	df 93       	push	r29
    static uint8_t auBuffer[128] = {0x80, 0};
    auRepAddr = &auBuffer[0];
     dc2:	85 e0       	ldi	r24, 0x05	; 5
     dc4:	98 e3       	ldi	r25, 0x38	; 56
     dc6:	80 93 00 38 	sts	0x3800, r24	; 0x803800 <__data_start>
     dca:	90 93 01 38 	sts	0x3801, r25	; 0x803801 <__data_start+0x1>

    //Audio for text adventure
    if ((effect&0xff00)==0) {
     dce:	80 91 93 38 	lds	r24, 0x3893	; 0x803893 <effect>
     dd2:	90 91 94 38 	lds	r25, 0x3894	; 0x803894 <effect+0x1>
     dd6:	88 27       	eor	r24, r24
     dd8:	89 2b       	or	r24, r25
     dda:	09 f0       	breq	.+2      	; 0xdde <GenerateAudio+0x24>
     ddc:	68 c0       	rjmp	.+208    	; 0xeae <GenerateAudio+0xf4>

        //Silence
        if ((effect&0xE0)==0){
     dde:	80 91 93 38 	lds	r24, 0x3893	; 0x803893 <effect>
     de2:	90 91 94 38 	lds	r25, 0x3894	; 0x803894 <effect+0x1>
     de6:	80 7e       	andi	r24, 0xE0	; 224
     de8:	99 27       	eor	r25, r25
     dea:	89 2b       	or	r24, r25
     dec:	39 f4       	brne	.+14     	; 0xdfc <GenerateAudio+0x42>
            auRepAddr = zero;
     dee:	80 91 91 38 	lds	r24, 0x3891	; 0x803891 <zero>
     df2:	90 e0       	ldi	r25, 0x00	; 0
     df4:	80 93 00 38 	sts	0x3800, r24	; 0x803800 <__data_start>
     df8:	90 93 01 38 	sts	0x3801, r25	; 0x803801 <__data_start+0x1>
        }

        //Bad (buzzer)
        if ((effect&0xE0)==32){
     dfc:	80 91 93 38 	lds	r24, 0x3893	; 0x803893 <effect>
     e00:	90 91 94 38 	lds	r25, 0x3894	; 0x803894 <effect+0x1>

        }

        //Good (bell)
        if ((effect&0xE0)==64){
     e04:	80 91 93 38 	lds	r24, 0x3893	; 0x803893 <effect>
     e08:	90 91 94 38 	lds	r25, 0x3894	; 0x803894 <effect+0x1>
            //auBuffer = 
        }

        //Rain storm with whistling wind
        if ((effect&0xE0)==96){
     e0c:	80 91 93 38 	lds	r24, 0x3893	; 0x803893 <effect>
     e10:	90 91 94 38 	lds	r25, 0x3894	; 0x803894 <effect+0x1>
     e14:	80 7e       	andi	r24, 0xE0	; 224
     e16:	99 27       	eor	r25, r25
     e18:	80 36       	cpi	r24, 0x60	; 96
     e1a:	91 05       	cpc	r25, r1
     e1c:	09 f0       	breq	.+2      	; 0xe20 <GenerateAudio+0x66>
     e1e:	3b c0       	rjmp	.+118    	; 0xe96 <GenerateAudio+0xdc>
            auBuffer[6]= 0;        
     e20:	e5 e0       	ldi	r30, 0x05	; 5
     e22:	f8 e3       	ldi	r31, 0x38	; 56
     e24:	16 82       	std	Z+6, r1	; 0x06
            auRepAddr = &auBuffer[0];
     e26:	e0 93 00 38 	sts	0x3800, r30	; 0x803800 <__data_start>
     e2a:	f0 93 01 38 	sts	0x3801, r31	; 0x803801 <__data_start+0x1>
     e2e:	8f 01       	movw	r16, r30

            //Noise is to be generated fast, outside of buttonMark loop
            for (uint8_t x=1; x<6; ++x){
     e30:	c1 e0       	ldi	r28, 0x01	; 1
                if (x%3) auBuffer[x] = floatAround(0x80, 5, 0x01, 0x00);
     e32:	db ea       	ldi	r29, 0xAB	; 171
     e34:	cd 9f       	mul	r28, r29
     e36:	81 2d       	mov	r24, r1
     e38:	11 24       	eor	r1, r1
     e3a:	86 95       	lsr	r24
     e3c:	98 2f       	mov	r25, r24
     e3e:	99 0f       	add	r25, r25
     e40:	89 0f       	add	r24, r25
     e42:	c8 17       	cp	r28, r24
     e44:	39 f0       	breq	.+14     	; 0xe54 <GenerateAudio+0x9a>
     e46:	20 e0       	ldi	r18, 0x00	; 0
     e48:	41 e0       	ldi	r20, 0x01	; 1
     e4a:	65 e0       	ldi	r22, 0x05	; 5
     e4c:	80 e8       	ldi	r24, 0x80	; 128
     e4e:	e0 de       	rcall	.-576    	; 0xc10 <floatAround>
     e50:	f8 01       	movw	r30, r16
     e52:	81 83       	std	Z+1, r24	; 0x01
        if ((effect&0xE0)==96){
            auBuffer[6]= 0;        
            auRepAddr = &auBuffer[0];

            //Noise is to be generated fast, outside of buttonMark loop
            for (uint8_t x=1; x<6; ++x){
     e54:	cf 5f       	subi	r28, 0xFF	; 255
     e56:	0f 5f       	subi	r16, 0xFF	; 255
     e58:	1f 4f       	sbci	r17, 0xFF	; 255
     e5a:	c6 30       	cpi	r28, 0x06	; 6
     e5c:	59 f7       	brne	.-42     	; 0xe34 <GenerateAudio+0x7a>
                if (x%3) auBuffer[x] = floatAround(0x80, 5, 0x01, 0x00);
            }

            if (buttonMark){
     e5e:	80 91 95 38 	lds	r24, 0x3895	; 0x803895 <buttonMark>
     e62:	88 23       	and	r24, r24
     e64:	c1 f0       	breq	.+48     	; 0xe96 <GenerateAudio+0xdc>
                //"Floating" speed for howl (and noise, but that's hardly audible)
                floatSpeed(5, 0x0280, 0x0400);
     e66:	40 e0       	ldi	r20, 0x00	; 0
     e68:	54 e0       	ldi	r21, 0x04	; 4
     e6a:	60 e8       	ldi	r22, 0x80	; 128
     e6c:	72 e0       	ldi	r23, 0x02	; 2
     e6e:	85 e0       	ldi	r24, 0x05	; 5
     e70:	9b de       	rcall	.-714    	; 0xba8 <floatSpeed>
            
                //"Floating" volume and wind howl during 8 bit rainstorm needs some randomness
                auVolume = floatAround(auVolume, 2, 0x10, 0xA0);
     e72:	80 91 0b 3a 	lds	r24, 0x3A0B	; 0x803a0b <auVolume>
     e76:	20 ea       	ldi	r18, 0xA0	; 160
     e78:	40 e1       	ldi	r20, 0x10	; 16
     e7a:	62 e0       	ldi	r22, 0x02	; 2
     e7c:	c9 de       	rcall	.-622    	; 0xc10 <floatAround>
     e7e:	80 93 0b 3a 	sts	0x3A0B, r24	; 0x803a0b <auVolume>
                auBuffer[0] = floatAround(auBuffer[0], 2, 0x70, 0x90);
     e82:	c5 e0       	ldi	r28, 0x05	; 5
     e84:	d8 e3       	ldi	r29, 0x38	; 56
     e86:	20 e9       	ldi	r18, 0x90	; 144
     e88:	40 e7       	ldi	r20, 0x70	; 112
     e8a:	62 e0       	ldi	r22, 0x02	; 2
     e8c:	88 81       	ld	r24, Y
     e8e:	c0 de       	rcall	.-640    	; 0xc10 <floatAround>
     e90:	88 83       	st	Y, r24
                auBuffer[3] = 0xFF-auBuffer[0];  //Inverse value of wind[0] produces a whistle
     e92:	80 95       	com	r24
     e94:	8b 83       	std	Y+3, r24	; 0x03
            }
        }

        //Footsteps
        if ((effect&0xE0)==128){
     e96:	80 91 93 38 	lds	r24, 0x3893	; 0x803893 <effect>
     e9a:	90 91 94 38 	lds	r25, 0x3894	; 0x803894 <effect+0x1>

        }

        //Knocking
        if ((effect&0xE0)==160){
     e9e:	80 91 93 38 	lds	r24, 0x3893	; 0x803893 <effect>
     ea2:	90 91 94 38 	lds	r25, 0x3894	; 0x803894 <effect+0x1>

        }

        //Scream
        if ((effect&0xE0)==192){
     ea6:	80 91 93 38 	lds	r24, 0x3893	; 0x803893 <effect>
     eaa:	90 91 94 38 	lds	r25, 0x3894	; 0x803894 <effect+0x1>

        //Rain storm with whistling wind
        else {
        }
    }
     eae:	df 91       	pop	r29
     eb0:	cf 91       	pop	r28
     eb2:	1f 91       	pop	r17
     eb4:	0f 91       	pop	r16
     eb6:	08 95       	ret

00000eb8 <BastetDictates>:

// Main game loop
uint8_t BastetDictates(){
  
    return 0;
}
     eb8:	80 e0       	ldi	r24, 0x00	; 0
     eba:	08 95       	ret

00000ebc <DecryptData>:
    uint8_t clearBit = num & STATUS_BITS;
    num &= (STATUS_BITS-1);
    if (clearBit) {
        WriteStatusBit(num, 0);
    } else {
        WriteStatusBit(num, 1);
     ebc:	cf 93       	push	r28
     ebe:	df 93       	push	r29
     ec0:	dc 01       	movw	r26, r24
     ec2:	e9 01       	movw	r28, r18
     ec4:	66 23       	and	r22, r22
     ec6:	a9 f0       	breq	.+42     	; 0xef2 <DecryptData+0x36>
     ec8:	50 e0       	ldi	r21, 0x00	; 0
     eca:	44 0f       	add	r20, r20
     ecc:	55 1f       	adc	r21, r21
     ece:	44 0f       	add	r20, r20
     ed0:	55 1f       	adc	r21, r21
     ed2:	44 0f       	add	r20, r20
     ed4:	55 1f       	adc	r21, r21
     ed6:	48 5d       	subi	r20, 0xD8	; 216
     ed8:	55 46       	sbci	r21, 0x65	; 101
     eda:	fd 01       	movw	r30, r26
     edc:	e7 70       	andi	r30, 0x07	; 7
     ede:	ff 27       	eor	r31, r31
     ee0:	e4 0f       	add	r30, r20
     ee2:	f5 1f       	adc	r31, r21
     ee4:	88 81       	ld	r24, Y
     ee6:	90 81       	ld	r25, Z
     ee8:	98 27       	eor	r25, r24
     eea:	99 93       	st	Y+, r25
     eec:	11 96       	adiw	r26, 0x01	; 1
     eee:	61 50       	subi	r22, 0x01	; 1
     ef0:	a1 f7       	brne	.-24     	; 0xeda <DecryptData+0x1e>
     ef2:	df 91       	pop	r29
     ef4:	cf 91       	pop	r28
     ef6:	08 95       	ret

00000ef8 <ExtEERead>:
     ef8:	af 92       	push	r10
     efa:	bf 92       	push	r11
     efc:	cf 92       	push	r12
     efe:	df 92       	push	r13
     f00:	ef 92       	push	r14
     f02:	ff 92       	push	r15
     f04:	0f 93       	push	r16
     f06:	1f 93       	push	r17
     f08:	cf 93       	push	r28
     f0a:	df 93       	push	r29
     f0c:	00 d0       	rcall	.+0      	; 0xf0e <ExtEERead+0x16>
     f0e:	cd b7       	in	r28, 0x3d	; 61
     f10:	de b7       	in	r29, 0x3e	; 62
     f12:	d6 2e       	mov	r13, r22
     f14:	c4 2e       	mov	r12, r20
     f16:	59 01       	movw	r10, r18
     f18:	7c 01       	movw	r14, r24
     f1a:	e8 94       	clt
     f1c:	f7 f8       	bld	r15, 7
     f1e:	f9 82       	std	Y+1, r15	; 0x01
     f20:	ea 82       	std	Y+2, r14	; 0x02
     f22:	06 2f       	mov	r16, r22
     f24:	42 e0       	ldi	r20, 0x02	; 2
     f26:	be 01       	movw	r22, r28
     f28:	6f 5f       	subi	r22, 0xFF	; 255
     f2a:	7f 4f       	sbci	r23, 0xFF	; 255
     f2c:	80 e5       	ldi	r24, 0x50	; 80
     f2e:	ba d9       	rcall	.-3212   	; 0x2a4 <I2C_read_bytes>
     f30:	18 2f       	mov	r17, r24
     f32:	81 11       	cpse	r24, r1
     f34:	05 c0       	rjmp	.+10     	; 0xf40 <ExtEERead+0x48>
     f36:	95 01       	movw	r18, r10
     f38:	4c 2d       	mov	r20, r12
     f3a:	6d 2d       	mov	r22, r13
     f3c:	c7 01       	movw	r24, r14
     f3e:	be df       	rcall	.-132    	; 0xebc <DecryptData>
     f40:	81 2f       	mov	r24, r17
     f42:	0f 90       	pop	r0
     f44:	0f 90       	pop	r0
     f46:	df 91       	pop	r29
     f48:	cf 91       	pop	r28
     f4a:	1f 91       	pop	r17
     f4c:	0f 91       	pop	r16
     f4e:	ff 90       	pop	r15
     f50:	ef 90       	pop	r14
     f52:	df 90       	pop	r13
     f54:	cf 90       	pop	r12
     f56:	bf 90       	pop	r11
     f58:	af 90       	pop	r10
     f5a:	08 95       	ret

00000f5c <ClearTxAfter>:
     f5c:	8f 5f       	subi	r24, 0xFF	; 255
     f5e:	88 30       	cpi	r24, 0x08	; 8
     f60:	40 f4       	brcc	.+16     	; 0xf72 <ClearTxAfter+0x16>
     f62:	e8 2f       	mov	r30, r24
     f64:	f0 e0       	ldi	r31, 0x00	; 0
     f66:	e0 56       	subi	r30, 0x60	; 96
     f68:	f6 4c       	sbci	r31, 0xC6	; 198
     f6a:	10 82       	st	Z, r1
     f6c:	8f 5f       	subi	r24, 0xFF	; 255
     f6e:	88 30       	cpi	r24, 0x08	; 8
     f70:	c1 f7       	brne	.-16     	; 0xf62 <ClearTxAfter+0x6>
     f72:	08 95       	ret

00000f74 <StartsWith>:
     f74:	fc 01       	movw	r30, r24
     f76:	90 81       	ld	r25, Z
     f78:	91 11       	cpse	r25, r1
     f7a:	07 c0       	rjmp	.+14     	; 0xf8a <StartsWith+0x16>
     f7c:	81 e0       	ldi	r24, 0x01	; 1
     f7e:	08 95       	ret
     f80:	81 e0       	ldi	r24, 0x01	; 1
     f82:	92 17       	cp	r25, r18
     f84:	39 f0       	breq	.+14     	; 0xf94 <StartsWith+0x20>
     f86:	80 e0       	ldi	r24, 0x00	; 0
     f88:	08 95       	ret
     f8a:	fb 01       	movw	r30, r22
     f8c:	20 81       	ld	r18, Z
     f8e:	21 11       	cpse	r18, r1
     f90:	f7 cf       	rjmp	.-18     	; 0xf80 <StartsWith+0xc>
     f92:	81 e0       	ldi	r24, 0x01	; 1
     f94:	08 95       	ret

00000f96 <PrepareSending>:
     f96:	1f 93       	push	r17
     f98:	cf 93       	push	r28
     f9a:	df 93       	push	r29
     f9c:	eb 01       	movw	r28, r22
     f9e:	12 2f       	mov	r17, r18
     fa0:	20 97       	sbiw	r28, 0x00	; 0
     fa2:	e9 f0       	breq	.+58     	; 0xfde <PrepareSending+0x48>
     fa4:	6f 3f       	cpi	r22, 0xFF	; 255
     fa6:	71 05       	cpc	r23, r1
     fa8:	01 f1       	breq	.+64     	; 0xfea <PrepareSending+0x54>
     faa:	f8 f0       	brcs	.+62     	; 0xfea <PrepareSending+0x54>
     fac:	50 e0       	ldi	r21, 0x00	; 0
     fae:	6f ef       	ldi	r22, 0xFF	; 255
     fb0:	25 2f       	mov	r18, r21
     fb2:	30 e0       	ldi	r19, 0x00	; 0
     fb4:	f9 01       	movw	r30, r18
     fb6:	ee 0f       	add	r30, r30
     fb8:	ff 1f       	adc	r31, r31
     fba:	e8 55       	subi	r30, 0x58	; 88
     fbc:	f6 4c       	sbci	r31, 0xC6	; 198
     fbe:	80 83       	st	Z, r24
     fc0:	91 83       	std	Z+1, r25	; 0x01
     fc2:	f9 01       	movw	r30, r18
     fc4:	e0 56       	subi	r30, 0x60	; 96
     fc6:	f6 4c       	sbci	r31, 0xC6	; 198
     fc8:	60 83       	st	Z, r22
     fca:	81 50       	subi	r24, 0x01	; 1
     fcc:	9f 4f       	sbci	r25, 0xFF	; 255
     fce:	cf 5f       	subi	r28, 0xFF	; 255
     fd0:	d1 09       	sbc	r29, r1
     fd2:	5f 5f       	subi	r21, 0xFF	; 255
     fd4:	cf 3f       	cpi	r28, 0xFF	; 255
     fd6:	d1 05       	cpc	r29, r1
     fd8:	09 f0       	breq	.+2      	; 0xfdc <PrepareSending+0x46>
     fda:	50 f7       	brcc	.-44     	; 0xfb0 <PrepareSending+0x1a>
     fdc:	07 c0       	rjmp	.+14     	; 0xfec <PrepareSending+0x56>
     fde:	10 92 a8 39 	sts	0x39A8, r1	; 0x8039a8 <txAddrList>
     fe2:	10 92 a9 39 	sts	0x39A9, r1	; 0x8039a9 <txAddrList+0x1>
     fe6:	50 e0       	ldi	r21, 0x00	; 0
     fe8:	21 c0       	rjmp	.+66     	; 0x102c <PrepareSending+0x96>
     fea:	50 e0       	ldi	r21, 0x00	; 0
     fec:	25 2f       	mov	r18, r21
     fee:	30 e0       	ldi	r19, 0x00	; 0
     ff0:	f9 01       	movw	r30, r18
     ff2:	ee 0f       	add	r30, r30
     ff4:	ff 1f       	adc	r31, r31
     ff6:	e8 55       	subi	r30, 0x58	; 88
     ff8:	f6 4c       	sbci	r31, 0xC6	; 198
     ffa:	80 83       	st	Z, r24
     ffc:	91 83       	std	Z+1, r25	; 0x01
     ffe:	f9 01       	movw	r30, r18
    1000:	e0 56       	subi	r30, 0x60	; 96
    1002:	f6 4c       	sbci	r31, 0xC6	; 198
    1004:	9e 01       	movw	r18, r28
    1006:	a1 e8       	ldi	r26, 0x81	; 129
    1008:	b0 e8       	ldi	r27, 0x80	; 128
    100a:	f5 d4       	rcall	.+2538   	; 0x19f6 <__umulhisi3>
    100c:	88 0f       	add	r24, r24
    100e:	89 2f       	mov	r24, r25
    1010:	88 1f       	adc	r24, r24
    1012:	99 0b       	sbc	r25, r25
    1014:	91 95       	neg	r25
    1016:	6f ef       	ldi	r22, 0xFF	; 255
    1018:	68 9f       	mul	r22, r24
    101a:	90 01       	movw	r18, r0
    101c:	69 9f       	mul	r22, r25
    101e:	30 0d       	add	r19, r0
    1020:	11 24       	eor	r1, r1
    1022:	c2 1b       	sub	r28, r18
    1024:	d3 0b       	sbc	r29, r19
    1026:	c0 83       	st	Z, r28
    1028:	40 93 9d 39 	sts	0x399D, r20	; 0x80399d <txTypeNow>
    102c:	85 2f       	mov	r24, r21
    102e:	96 df       	rcall	.-212    	; 0xf5c <ClearTxAfter>
    1030:	10 93 9e 39 	sts	0x399E, r17	; 0x80399e <sendPrompt>
    1034:	10 92 9f 39 	sts	0x399F, r1	; 0x80399f <txAddrNow>
    1038:	80 e0       	ldi	r24, 0x00	; 0
    103a:	df 91       	pop	r29
    103c:	cf 91       	pop	r28
    103e:	1f 91       	pop	r17
    1040:	08 95       	ret

00001042 <PopulateObject>:
    1042:	6f 92       	push	r6
    1044:	7f 92       	push	r7
    1046:	8f 92       	push	r8
    1048:	9f 92       	push	r9
    104a:	af 92       	push	r10
    104c:	bf 92       	push	r11
    104e:	cf 92       	push	r12
    1050:	df 92       	push	r13
    1052:	ef 92       	push	r14
    1054:	ff 92       	push	r15
    1056:	0f 93       	push	r16
    1058:	1f 93       	push	r17
    105a:	cf 93       	push	r28
    105c:	df 93       	push	r29
    105e:	cd b7       	in	r28, 0x3d	; 61
    1060:	de b7       	in	r29, 0x3e	; 62
    1062:	2c 97       	sbiw	r28, 0x0c	; 12
    1064:	cd bf       	out	0x3d, r28	; 61
    1066:	de bf       	out	0x3e, r29	; 62
    1068:	8c 01       	movw	r16, r24
    106a:	5b 01       	movw	r10, r22
    106c:	9e 01       	movw	r18, r28
    106e:	2f 5f       	subi	r18, 0xFF	; 255
    1070:	3f 4f       	sbci	r19, 0xFF	; 255
    1072:	40 e0       	ldi	r20, 0x00	; 0
    1074:	6c e0       	ldi	r22, 0x0C	; 12
    1076:	80 96       	adiw	r24, 0x20	; 32
    1078:	3f df       	rcall	.-386    	; 0xef8 <ExtEERead>
    107a:	89 81       	ldd	r24, Y+1	; 0x01
    107c:	90 e0       	ldi	r25, 0x00	; 0
    107e:	98 2f       	mov	r25, r24
    1080:	88 27       	eor	r24, r24
    1082:	2a 81       	ldd	r18, Y+2	; 0x02
    1084:	82 2b       	or	r24, r18
    1086:	80 96       	adiw	r24, 0x20	; 32
    1088:	f5 01       	movw	r30, r10
    108a:	80 83       	st	Z, r24
    108c:	91 83       	std	Z+1, r25	; 0x01
    108e:	8b 81       	ldd	r24, Y+3	; 0x03
    1090:	90 e0       	ldi	r25, 0x00	; 0
    1092:	98 2f       	mov	r25, r24
    1094:	88 27       	eor	r24, r24
    1096:	2c 81       	ldd	r18, Y+4	; 0x04
    1098:	82 2b       	or	r24, r18
    109a:	80 96       	adiw	r24, 0x20	; 32
    109c:	82 83       	std	Z+2, r24	; 0x02
    109e:	93 83       	std	Z+3, r25	; 0x03
    10a0:	fe 01       	movw	r30, r28
    10a2:	35 96       	adiw	r30, 0x05	; 5
    10a4:	d5 01       	movw	r26, r10
    10a6:	14 96       	adiw	r26, 0x04	; 4
    10a8:	9e 01       	movw	r18, r28
    10aa:	23 5f       	subi	r18, 0xF3	; 243
    10ac:	3f 4f       	sbci	r19, 0xFF	; 255
    10ae:	81 91       	ld	r24, Z+
    10b0:	8d 93       	st	X+, r24
    10b2:	e2 17       	cp	r30, r18
    10b4:	f3 07       	cpc	r31, r19
    10b6:	d9 f7       	brne	.-10     	; 0x10ae <PopulateObject+0x6c>
    10b8:	38 01       	movw	r6, r16
    10ba:	fc e2       	ldi	r31, 0x2C	; 44
    10bc:	6f 0e       	add	r6, r31
    10be:	71 1c       	adc	r7, r1
    10c0:	03 5d       	subi	r16, 0xD3	; 211
    10c2:	1f 4f       	sbci	r17, 0xFF	; 255
    10c4:	f5 01       	movw	r30, r10
    10c6:	04 87       	std	Z+12, r16	; 0x0c
    10c8:	15 87       	std	Z+13, r17	; 0x0d
    10ca:	65 01       	movw	r12, r10
    10cc:	fe e0       	ldi	r31, 0x0E	; 14
    10ce:	cf 0e       	add	r12, r31
    10d0:	d1 1c       	adc	r13, r1
    10d2:	45 01       	movw	r8, r10
    10d4:	8a e1       	ldi	r24, 0x1A	; 26
    10d6:	88 0e       	add	r8, r24
    10d8:	91 1c       	adc	r9, r1
    10da:	73 01       	movw	r14, r6
    10dc:	02 c0       	rjmp	.+4      	; 0x10e2 <PopulateObject+0xa0>
    10de:	78 01       	movw	r14, r16
    10e0:	38 01       	movw	r6, r16
    10e2:	83 01       	movw	r16, r6
    10e4:	9e 01       	movw	r18, r28
    10e6:	2f 5f       	subi	r18, 0xFF	; 255
    10e8:	3f 4f       	sbci	r19, 0xFF	; 255
    10ea:	40 e0       	ldi	r20, 0x00	; 0
    10ec:	61 e0       	ldi	r22, 0x01	; 1
    10ee:	c8 01       	movw	r24, r16
    10f0:	03 df       	rcall	.-506    	; 0xef8 <ExtEERead>
    10f2:	89 81       	ldd	r24, Y+1	; 0x01
    10f4:	98 01       	movw	r18, r16
    10f6:	28 0f       	add	r18, r24
    10f8:	31 1d       	adc	r19, r1
    10fa:	89 01       	movw	r16, r18
    10fc:	0f 5f       	subi	r16, 0xFF	; 255
    10fe:	1f 4f       	sbci	r17, 0xFF	; 255
    1100:	12 f0       	brmi	.+4      	; 0x1106 <PopulateObject+0xc4>
    1102:	8f 3f       	cpi	r24, 0xFF	; 255
    1104:	79 f3       	breq	.-34     	; 0x10e4 <PopulateObject+0xa2>
    1106:	e0 94       	com	r14
    1108:	f0 94       	com	r15
    110a:	e0 0e       	add	r14, r16
    110c:	f1 1e       	adc	r15, r17
    110e:	e8 94       	clt
    1110:	f7 f8       	bld	r15, 7
    1112:	f6 01       	movw	r30, r12
    1114:	e4 86       	std	Z+12, r14	; 0x0c
    1116:	f5 86       	std	Z+13, r15	; 0x0d
    1118:	3f 77       	andi	r19, 0x7F	; 127
    111a:	21 93       	st	Z+, r18
    111c:	31 93       	st	Z+, r19
    111e:	6f 01       	movw	r12, r30
    1120:	e8 15       	cp	r30, r8
    1122:	f9 05       	cpc	r31, r9
    1124:	e1 f6       	brne	.-72     	; 0x10de <PopulateObject+0x9c>
    1126:	06 19       	sub	r16, r6
    1128:	17 09       	sbc	r17, r7
    112a:	1f 77       	andi	r17, 0x7F	; 127
    112c:	f5 01       	movw	r30, r10
    112e:	06 a3       	std	Z+38, r16	; 0x26
    1130:	17 a3       	std	Z+39, r17	; 0x27
    1132:	2c 96       	adiw	r28, 0x0c	; 12
    1134:	cd bf       	out	0x3d, r28	; 61
    1136:	de bf       	out	0x3e, r29	; 62
    1138:	df 91       	pop	r29
    113a:	cf 91       	pop	r28
    113c:	1f 91       	pop	r17
    113e:	0f 91       	pop	r16
    1140:	ff 90       	pop	r15
    1142:	ef 90       	pop	r14
    1144:	df 90       	pop	r13
    1146:	cf 90       	pop	r12
    1148:	bf 90       	pop	r11
    114a:	af 90       	pop	r10
    114c:	9f 90       	pop	r9
    114e:	8f 90       	pop	r8
    1150:	7f 90       	pop	r7
    1152:	6f 90       	pop	r6
    1154:	08 95       	ret

00001156 <SendLiteral>:
    1156:	cf 92       	push	r12
    1158:	df 92       	push	r13
    115a:	ef 92       	push	r14
    115c:	ff 92       	push	r15
    115e:	1f 93       	push	r17
    1160:	cf 93       	push	r28
    1162:	df 93       	push	r29
    1164:	7c 01       	movw	r14, r24
    1166:	cb 01       	movw	r24, r22
    1168:	14 2f       	mov	r17, r20
    116a:	1f 71       	andi	r17, 0x1F	; 31
    116c:	c1 2e       	mov	r12, r17
    116e:	d1 2c       	mov	r13, r1
    1170:	20 e2       	ldi	r18, 0x20	; 32
    1172:	30 e0       	ldi	r19, 0x00	; 0
    1174:	b9 01       	movw	r22, r18
    1176:	6c 19       	sub	r22, r12
    1178:	7d 09       	sbc	r23, r13
    117a:	29 d4       	rcall	.+2130   	; 0x19ce <__udivmodhi4>
    117c:	ec 01       	movw	r28, r24
    117e:	ac 01       	movw	r20, r24
    1180:	11 23       	and	r17, r17
    1182:	61 f0       	breq	.+24     	; 0x119c <SendLiteral+0x46>
    1184:	e1 e6       	ldi	r30, 0x61	; 97
    1186:	fa e3       	ldi	r31, 0x3A	; 58
    1188:	8f ef       	ldi	r24, 0xFF	; 255
    118a:	81 0f       	add	r24, r17
    118c:	90 e0       	ldi	r25, 0x00	; 0
    118e:	8e 59       	subi	r24, 0x9E	; 158
    1190:	95 4c       	sbci	r25, 0xC5	; 197
    1192:	3a e0       	ldi	r19, 0x0A	; 10
    1194:	31 93       	st	Z+, r19
    1196:	e8 17       	cp	r30, r24
    1198:	f9 07       	cpc	r31, r25
    119a:	e1 f7       	brne	.-8      	; 0x1194 <SendLiteral+0x3e>
    119c:	45 2b       	or	r20, r21
    119e:	39 f0       	breq	.+14     	; 0x11ae <SendLiteral+0x58>
    11a0:	96 01       	movw	r18, r12
    11a2:	2f 59       	subi	r18, 0x9F	; 159
    11a4:	35 4c       	sbci	r19, 0xC5	; 197
    11a6:	41 e0       	ldi	r20, 0x01	; 1
    11a8:	6c 2f       	mov	r22, r28
    11aa:	c7 01       	movw	r24, r14
    11ac:	a5 de       	rcall	.-694    	; 0xef8 <ExtEERead>
    11ae:	cf 59       	subi	r28, 0x9F	; 159
    11b0:	d5 4c       	sbci	r29, 0xC5	; 197
    11b2:	c1 0f       	add	r28, r17
    11b4:	d1 1d       	adc	r29, r1
    11b6:	18 82       	st	Y, r1
    11b8:	81 e6       	ldi	r24, 0x61	; 97
    11ba:	9a e3       	ldi	r25, 0x3A	; 58
    11bc:	4b dc       	rcall	.-1898   	; 0xa54 <SerSend>
    11be:	df 91       	pop	r29
    11c0:	cf 91       	pop	r28
    11c2:	1f 91       	pop	r17
    11c4:	ff 90       	pop	r15
    11c6:	ef 90       	pop	r14
    11c8:	df 90       	pop	r13
    11ca:	cf 90       	pop	r12
    11cc:	08 95       	ret

000011ce <GetState>:
    }
}

//Returns the state of the bit on position "num"
uint8_t GetState(uint8_t num){
    if ((num)&&(num<STATUS_BITS)){
    11ce:	18 16       	cp	r1, r24
    11d0:	14 f4       	brge	.+4      	; 0x11d6 <GetState+0x8>
        return ReadStatusBit(num);
    11d2:	7c cd       	rjmp	.-1288   	; 0xccc <ReadStatusBit>
    11d4:	08 95       	ret
    }
    return 1;
    11d6:	81 e0       	ldi	r24, 0x01	; 1
}
    11d8:	08 95       	ret

000011da <CheckState>:

//Checks if state of bit BBBBbbb matches with v (inverted) bit
uint8_t CheckState(uint8_t num){
    11da:	cf 93       	push	r28
    11dc:	c8 2f       	mov	r28, r24
    return (GetState(num&(STATUS_BITS-1)) == (1-(num&STATUS_BITS))); 
    11de:	8f 77       	andi	r24, 0x7F	; 127
    11e0:	f6 df       	rcall	.-20     	; 0x11ce <GetState>
    11e2:	c0 78       	andi	r28, 0x80	; 128
    11e4:	41 e0       	ldi	r20, 0x01	; 1
    11e6:	50 e0       	ldi	r21, 0x00	; 0
    11e8:	4c 1b       	sub	r20, r28
    11ea:	51 09       	sbc	r21, r1
    11ec:	28 2f       	mov	r18, r24
    11ee:	30 e0       	ldi	r19, 0x00	; 0
    11f0:	81 e0       	ldi	r24, 0x01	; 1
    11f2:	42 17       	cp	r20, r18
    11f4:	53 07       	cpc	r21, r19
    11f6:	09 f0       	breq	.+2      	; 0x11fa <CheckState+0x20>
    11f8:	80 e0       	ldi	r24, 0x00	; 0
}
    11fa:	cf 91       	pop	r28
    11fc:	08 95       	ret

000011fe <CheckLetter>:

//
uint8_t CheckLetter(uint16_t child, uint8_t letter){
    11fe:	cf 92       	push	r12
    1200:	df 92       	push	r13
    1202:	ef 92       	push	r14
    1204:	ff 92       	push	r15
    1206:	0f 93       	push	r16
    1208:	1f 93       	push	r17
    120a:	cf 93       	push	r28
    120c:	df 93       	push	r29
    120e:	cd b7       	in	r28, 0x3d	; 61
    1210:	de b7       	in	r29, 0x3e	; 62
    1212:	a0 97       	sbiw	r28, 0x20	; 32
    1214:	cd bf       	out	0x3d, r28	; 61
    1216:	de bf       	out	0x3e, r29	; 62
    1218:	c6 2e       	mov	r12, r22
    
    uint8_t found = 0;
    uint8_t data[32];

    child += L_BOILER;
    121a:	7c 01       	movw	r14, r24
    121c:	20 e2       	ldi	r18, 0x20	; 32
    121e:	e2 0e       	add	r14, r18
    1220:	f1 1c       	adc	r15, r1
    ExtEERead(child+OFF_STRINGFLDS, 1, GAME, &data[0]);
    1222:	9e 01       	movw	r18, r28
    1224:	2f 5f       	subi	r18, 0xFF	; 255
    1226:	3f 4f       	sbci	r19, 0xFF	; 255
    1228:	40 e0       	ldi	r20, 0x00	; 0
    122a:	61 e0       	ldi	r22, 0x01	; 1
    122c:	8c 96       	adiw	r24, 0x2c	; 44
    122e:	64 de       	rcall	.-824    	; 0xef8 <ExtEERead>
    uint8_t x = data[0];
    1230:	09 81       	ldd	r16, Y+1	; 0x01

    while (x){
    1232:	00 23       	and	r16, r16
    1234:	59 f1       	breq	.+86     	; 0x128c <CheckLetter+0x8e>
    1236:	d1 2c       	mov	r13, r1
        uint8_t max = (x>32)?32:x;
    1238:	10 2f       	mov	r17, r16
    123a:	01 32       	cpi	r16, 0x21	; 33
    123c:	08 f0       	brcs	.+2      	; 0x1240 <CheckLetter+0x42>
    123e:	10 e2       	ldi	r17, 0x20	; 32
        ExtEERead(child+OFF_STRINGFLDS+1, max, GAME, &data[0]);
    1240:	9e 01       	movw	r18, r28
    1242:	2f 5f       	subi	r18, 0xFF	; 255
    1244:	3f 4f       	sbci	r19, 0xFF	; 255
    1246:	40 e0       	ldi	r20, 0x00	; 0
    1248:	61 2f       	mov	r22, r17
    124a:	c7 01       	movw	r24, r14
    124c:	0d 96       	adiw	r24, 0x0d	; 13
    124e:	54 de       	rcall	.-856    	; 0xef8 <ExtEERead>
        for (uint8_t y=0; y<max; ++y){
    1250:	11 23       	and	r17, r17
    1252:	b1 f0       	breq	.+44     	; 0x1280 <CheckLetter+0x82>
            if (found){
    1254:	dd 20       	and	r13, r13
    1256:	59 f0       	breq	.+22     	; 0x126e <CheckLetter+0x70>
    uint8_t x = data[0];

    while (x){
        uint8_t max = (x>32)?32:x;
        ExtEERead(child+OFF_STRINGFLDS+1, max, GAME, &data[0]);
        for (uint8_t y=0; y<max; ++y){
    1258:	80 e0       	ldi	r24, 0x00	; 0
            if (found){
                if ((data[y]|0x20) == letter) return 1; else return 0;
    125a:	fe 01       	movw	r30, r28
    125c:	e8 0f       	add	r30, r24
    125e:	f1 1d       	adc	r31, r1
    1260:	91 81       	ldd	r25, Z+1	; 0x01
    1262:	90 62       	ori	r25, 0x20	; 32
    1264:	81 e0       	ldi	r24, 0x01	; 1
    1266:	9c 15       	cp	r25, r12
    1268:	c9 f0       	breq	.+50     	; 0x129c <CheckLetter+0x9e>
    126a:	80 e0       	ldi	r24, 0x00	; 0
    126c:	17 c0       	rjmp	.+46     	; 0x129c <CheckLetter+0x9e>
    126e:	fe 01       	movw	r30, r28
    1270:	31 96       	adiw	r30, 0x01	; 1

    while (x){
        uint8_t max = (x>32)?32:x;
        ExtEERead(child+OFF_STRINGFLDS+1, max, GAME, &data[0]);
        for (uint8_t y=0; y<max; ++y){
            if (found){
    1272:	80 e0       	ldi	r24, 0x00	; 0
                if ((data[y]|0x20) == letter) return 1; else return 0;
            }
            if (data[y] == '[') found = 1;
    1274:	91 91       	ld	r25, Z+
    1276:	9b 35       	cpi	r25, 0x5B	; 91
    1278:	59 f0       	breq	.+22     	; 0x1290 <CheckLetter+0x92>
    uint8_t x = data[0];

    while (x){
        uint8_t max = (x>32)?32:x;
        ExtEERead(child+OFF_STRINGFLDS+1, max, GAME, &data[0]);
        for (uint8_t y=0; y<max; ++y){
    127a:	8f 5f       	subi	r24, 0xFF	; 255
    127c:	18 13       	cpse	r17, r24
    127e:	fa cf       	rjmp	.-12     	; 0x1274 <CheckLetter+0x76>
            if (found){
                if ((data[y]|0x20) == letter) return 1; else return 0;
            }
            if (data[y] == '[') found = 1;
        }
        child += max;
    1280:	e1 0e       	add	r14, r17
    1282:	f1 1c       	adc	r15, r1
        x -= max;
    1284:	01 1b       	sub	r16, r17

    child += L_BOILER;
    ExtEERead(child+OFF_STRINGFLDS, 1, GAME, &data[0]);
    uint8_t x = data[0];

    while (x){
    1286:	c1 f6       	brne	.-80     	; 0x1238 <CheckLetter+0x3a>
            if (data[y] == '[') found = 1;
        }
        child += max;
        x -= max;
    }
    return 0;
    1288:	80 e0       	ldi	r24, 0x00	; 0
    128a:	08 c0       	rjmp	.+16     	; 0x129c <CheckLetter+0x9e>
    128c:	80 e0       	ldi	r24, 0x00	; 0
    128e:	06 c0       	rjmp	.+12     	; 0x129c <CheckLetter+0x9e>
    uint8_t x = data[0];

    while (x){
        uint8_t max = (x>32)?32:x;
        ExtEERead(child+OFF_STRINGFLDS+1, max, GAME, &data[0]);
        for (uint8_t y=0; y<max; ++y){
    1290:	8f 5f       	subi	r24, 0xFF	; 255
    1292:	81 17       	cp	r24, r17
    1294:	10 f3       	brcs	.-60     	; 0x125a <CheckLetter+0x5c>
            if (found){
                if ((data[y]|0x20) == letter) return 1; else return 0;
            }
            if (data[y] == '[') found = 1;
    1296:	dd 24       	eor	r13, r13
    1298:	d3 94       	inc	r13
    129a:	f2 cf       	rjmp	.-28     	; 0x1280 <CheckLetter+0x82>
        }
        child += max;
        x -= max;
    }
    return 0;
}
    129c:	a0 96       	adiw	r28, 0x20	; 32
    129e:	cd bf       	out	0x3d, r28	; 61
    12a0:	de bf       	out	0x3e, r29	; 62
    12a2:	df 91       	pop	r29
    12a4:	cf 91       	pop	r28
    12a6:	1f 91       	pop	r17
    12a8:	0f 91       	pop	r16
    12aa:	ff 90       	pop	r15
    12ac:	ef 90       	pop	r14
    12ae:	df 90       	pop	r13
    12b0:	cf 90       	pop	r12
    12b2:	08 95       	ret

000012b4 <FindChild>:

//Returns the child's address if the child is visible and the search letter matches
uint16_t FindChild(uint16_t parent, uint8_t letter){
    12b4:	df 92       	push	r13
    12b6:	ef 92       	push	r14
    12b8:	ff 92       	push	r15
    12ba:	0f 93       	push	r16
    12bc:	1f 93       	push	r17
    12be:	cf 93       	push	r28
    12c0:	df 93       	push	r29
    12c2:	00 d0       	rcall	.+0      	; 0x12c4 <FindChild+0x10>
    12c4:	00 d0       	rcall	.+0      	; 0x12c6 <FindChild+0x12>
    12c6:	cd b7       	in	r28, 0x3d	; 61
    12c8:	de b7       	in	r29, 0x3e	; 62
    12ca:	d6 2e       	mov	r13, r22
    
    uint16_t child = parent;
    uint8_t data[4];

    ExtEERead(child+L_BOILER, 4, GAME, &data[0]);
    12cc:	9e 01       	movw	r18, r28
    12ce:	2f 5f       	subi	r18, 0xFF	; 255
    12d0:	3f 4f       	sbci	r19, 0xFF	; 255
    12d2:	40 e0       	ldi	r20, 0x00	; 0
    12d4:	64 e0       	ldi	r22, 0x04	; 4
    12d6:	80 96       	adiw	r24, 0x20	; 32
    12d8:	0f de       	rcall	.-994    	; 0xef8 <ExtEERead>
    parent = (data[0]<<8|data[1]);    //Next object on parent level
    12da:	e9 80       	ldd	r14, Y+1	; 0x01
    12dc:	f1 2c       	mov	r15, r1
    12de:	fe 2c       	mov	r15, r14
    12e0:	ee 24       	eor	r14, r14
    12e2:	8a 81       	ldd	r24, Y+2	; 0x02
    12e4:	e8 2a       	or	r14, r24
    child =  (data[2]<<8|data[3]);    //First object on child level
    12e6:	0b 81       	ldd	r16, Y+3	; 0x03
    12e8:	10 e0       	ldi	r17, 0x00	; 0
    12ea:	10 2f       	mov	r17, r16
    12ec:	00 27       	eor	r16, r16
    12ee:	8c 81       	ldd	r24, Y+4	; 0x04
    12f0:	08 2b       	or	r16, r24

    //As long as the child is within the parent's range
    while (parent>child){
    12f2:	0e 15       	cp	r16, r14
    12f4:	1f 05       	cpc	r17, r15
    12f6:	28 f5       	brcc	.+74     	; 0x1342 <FindChild+0x8e>

        //Find out if the found child is visible and check letter
        ExtEERead(child+OFF_BYTEFLDS+VISIBLE_ACL+L_BOILER, 1, GAME, &data[0]);
    12f8:	9e 01       	movw	r18, r28
    12fa:	2f 5f       	subi	r18, 0xFF	; 255
    12fc:	3f 4f       	sbci	r19, 0xFF	; 255
    12fe:	40 e0       	ldi	r20, 0x00	; 0
    1300:	61 e0       	ldi	r22, 0x01	; 1
    1302:	c8 01       	movw	r24, r16
    1304:	85 96       	adiw	r24, 0x25	; 37
    1306:	f8 dd       	rcall	.-1040   	; 0xef8 <ExtEERead>
        if (CheckState(data[0])) {
    1308:	89 81       	ldd	r24, Y+1	; 0x01
    130a:	67 df       	rcall	.-306    	; 0x11da <CheckState>
    130c:	88 23       	and	r24, r24
    130e:	29 f0       	breq	.+10     	; 0x131a <FindChild+0x66>
            if (CheckLetter(child, letter)) return child;
    1310:	6d 2d       	mov	r22, r13
    1312:	c8 01       	movw	r24, r16
    1314:	74 df       	rcall	.-280    	; 0x11fe <CheckLetter>
    1316:	81 11       	cpse	r24, r1
    1318:	17 c0       	rjmp	.+46     	; 0x1348 <FindChild+0x94>
    131a:	9e 01       	movw	r18, r28
        }

        //Not visible or name not right
        ExtEERead(child+L_BOILER, 2, GAME, &data[0]);
    131c:	2f 5f       	subi	r18, 0xFF	; 255
    131e:	3f 4f       	sbci	r19, 0xFF	; 255
    1320:	40 e0       	ldi	r20, 0x00	; 0
    1322:	62 e0       	ldi	r22, 0x02	; 2
    1324:	c8 01       	movw	r24, r16
    1326:	80 96       	adiw	r24, 0x20	; 32
    1328:	e7 dd       	rcall	.-1074   	; 0xef8 <ExtEERead>
    132a:	09 81       	ldd	r16, Y+1	; 0x01
        child = (data[0]<<8|data[1]);    //Next object on child level
    132c:	10 e0       	ldi	r17, 0x00	; 0
    132e:	10 2f       	mov	r17, r16
    1330:	00 27       	eor	r16, r16
    1332:	8a 81       	ldd	r24, Y+2	; 0x02
    1334:	08 2b       	or	r16, r24
    1336:	0e 15       	cp	r16, r14
    ExtEERead(child+L_BOILER, 4, GAME, &data[0]);
    parent = (data[0]<<8|data[1]);    //Next object on parent level
    child =  (data[2]<<8|data[3]);    //First object on child level

    //As long as the child is within the parent's range
    while (parent>child){
    1338:	1f 05       	cpc	r17, r15
    133a:	f0 f2       	brcs	.-68     	; 0x12f8 <FindChild+0x44>
    133c:	80 e0       	ldi	r24, 0x00	; 0

        //Not visible or name not right
        ExtEERead(child+L_BOILER, 2, GAME, &data[0]);
        child = (data[0]<<8|data[1]);    //Next object on child level
        
    } return 0;
    133e:	90 e0       	ldi	r25, 0x00	; 0
    1340:	05 c0       	rjmp	.+10     	; 0x134c <FindChild+0x98>
    1342:	80 e0       	ldi	r24, 0x00	; 0
    1344:	90 e0       	ldi	r25, 0x00	; 0
    1346:	02 c0       	rjmp	.+4      	; 0x134c <FindChild+0x98>
    1348:	80 2f       	mov	r24, r16
    134a:	91 2f       	mov	r25, r17
    134c:	24 96       	adiw	r28, 0x04	; 4
}
    134e:	cd bf       	out	0x3d, r28	; 61
    1350:	de bf       	out	0x3e, r29	; 62
    1352:	df 91       	pop	r29
    1354:	cf 91       	pop	r28
    1356:	1f 91       	pop	r17
    1358:	0f 91       	pop	r16
    135a:	ff 90       	pop	r15
    135c:	ef 90       	pop	r14
    135e:	df 90       	pop	r13
    1360:	08 95       	ret

00001362 <InpOkChk>:
    1362:	9f e9       	ldi	r25, 0x9F	; 159

uint8_t InpOkChk(uint8_t test){
    if ((test>='a')&&(test<='z')) return 1;
    1364:	98 0f       	add	r25, r24
    1366:	9a 31       	cpi	r25, 0x1A	; 26
    1368:	38 f0       	brcs	.+14     	; 0x1378 <InpOkChk+0x16>
    136a:	90 ed       	ldi	r25, 0xD0	; 208
    136c:	98 0f       	add	r25, r24
    136e:	81 e0       	ldi	r24, 0x01	; 1
    1370:	9a 30       	cpi	r25, 0x0A	; 10
    1372:	18 f0       	brcs	.+6      	; 0x137a <InpOkChk+0x18>
    1374:	80 e0       	ldi	r24, 0x00	; 0
    1376:	08 95       	ret
    1378:	81 e0       	ldi	r24, 0x01	; 1
    if ((test>='0')&&(test<='9')) return 1;
    return 0;
}
    137a:	08 95       	ret

0000137c <CleanInput>:

//Cleans input of garbage and returns length of cleaned input "o->d2  !\0" becomes "od2\0"
uint8_t CleanInput(uint8_t *data){
    137c:	0f 93       	push	r16
    137e:	1f 93       	push	r17
    1380:	cf 93       	push	r28
    1382:	df 93       	push	r29
    1384:	8c 01       	movw	r16, r24
    uint8_t cnt = 0;
    for (uint8_t x=0; data[x]!=0; ++x){
    1386:	fc 01       	movw	r30, r24
    1388:	80 81       	ld	r24, Z
    138a:	88 23       	and	r24, r24
    138c:	91 f0       	breq	.+36     	; 0x13b2 <CleanInput+0x36>
    138e:	c0 e0       	ldi	r28, 0x00	; 0
    1390:	d0 e0       	ldi	r29, 0x00	; 0
        data[cnt] = data[x];
    1392:	d8 01       	movw	r26, r16
    1394:	ad 0f       	add	r26, r29
    1396:	b1 1d       	adc	r27, r1
    1398:	8c 93       	st	X, r24
        if (InpOkChk(data[x])) ++cnt;
    139a:	80 81       	ld	r24, Z
    139c:	e2 df       	rcall	.-60     	; 0x1362 <InpOkChk>
    139e:	81 11       	cpse	r24, r1
    13a0:	df 5f       	subi	r29, 0xFF	; 255
}

//Cleans input of garbage and returns length of cleaned input "o->d2  !\0" becomes "od2\0"
uint8_t CleanInput(uint8_t *data){
    uint8_t cnt = 0;
    for (uint8_t x=0; data[x]!=0; ++x){
    13a2:	cf 5f       	subi	r28, 0xFF	; 255
    13a4:	f8 01       	movw	r30, r16
    13a6:	ec 0f       	add	r30, r28
    13a8:	f1 1d       	adc	r31, r1
    13aa:	80 81       	ld	r24, Z
    13ac:	81 11       	cpse	r24, r1
    13ae:	f1 cf       	rjmp	.-30     	; 0x1392 <CleanInput+0x16>
    13b0:	01 c0       	rjmp	.+2      	; 0x13b4 <CleanInput+0x38>
    return 0;
}

//Cleans input of garbage and returns length of cleaned input "o->d2  !\0" becomes "od2\0"
uint8_t CleanInput(uint8_t *data){
    uint8_t cnt = 0;
    13b2:	d0 e0       	ldi	r29, 0x00	; 0
    for (uint8_t x=0; data[x]!=0; ++x){
        data[cnt] = data[x];
        if (InpOkChk(data[x])) ++cnt;
    }
    data[cnt] = 0;
    13b4:	f8 01       	movw	r30, r16
    13b6:	ed 0f       	add	r30, r29
    13b8:	f1 1d       	adc	r31, r1
    13ba:	10 82       	st	Z, r1
    return cnt;
}
    13bc:	8d 2f       	mov	r24, r29
    13be:	df 91       	pop	r29
    13c0:	cf 91       	pop	r28
    13c2:	1f 91       	pop	r17
    13c4:	0f 91       	pop	r16
    13c6:	08 95       	ret

000013c8 <CheckSend>:


//Send routine, optimized for low memory usage
uint8_t CheckSend(){
    13c8:	cf 93       	push	r28
    static uint8_t txPart;
    uint8_t EEreadLength=0;

    //Check if more string(part)s have to be sent to the serial output if previous send operation is completed
    if ((txAddrNow < TXLISTLEN) && serTxDone){
    13ca:	80 91 9f 39 	lds	r24, 0x399F	; 0x80399f <txAddrNow>
    13ce:	88 30       	cpi	r24, 0x08	; 8
    13d0:	d8 f5       	brcc	.+118    	; 0x1448 <CheckSend+0x80>
    13d2:	90 91 04 38 	lds	r25, 0x3804	; 0x803804 <serTxDone>
    13d6:	99 23       	and	r25, r25
    13d8:	b9 f1       	breq	.+110    	; 0x1448 <CheckSend+0x80>
        if (txPart < txStrLen[txAddrNow]){
    13da:	28 2f       	mov	r18, r24
    13dc:	30 e0       	ldi	r19, 0x00	; 0
    13de:	f9 01       	movw	r30, r18
    13e0:	e0 56       	subi	r30, 0x60	; 96
    13e2:	f6 4c       	sbci	r31, 0xC6	; 198
    13e4:	e0 81       	ld	r30, Z
    13e6:	90 91 9c 39 	lds	r25, 0x399C	; 0x80399c <txPart.3912>
    13ea:	9e 17       	cp	r25, r30
    13ec:	30 f5       	brcc	.+76     	; 0x143a <CheckSend+0x72>
            EEreadLength = txStrLen[txAddrNow]-txPart;
    13ee:	ce 2f       	mov	r28, r30
    13f0:	c9 1b       	sub	r28, r25
    13f2:	c1 32       	cpi	r28, 0x21	; 33
    13f4:	08 f0       	brcs	.+2      	; 0x13f8 <CheckSend+0x30>
    13f6:	c0 e2       	ldi	r28, 0x20	; 32
            if (EEreadLength>=TXLEN) EEreadLength = TXLEN-1;
            ExtEERead(txAddrList[txAddrNow]+txPart, EEreadLength, txTypeNow, &txBuffer[0]);
    13f8:	22 0f       	add	r18, r18
    13fa:	33 1f       	adc	r19, r19
    13fc:	f9 01       	movw	r30, r18
    13fe:	e8 55       	subi	r30, 0x58	; 88
    1400:	f6 4c       	sbci	r31, 0xC6	; 198
    1402:	01 90       	ld	r0, Z+
    1404:	f0 81       	ld	r31, Z
    1406:	e0 2d       	mov	r30, r0
    1408:	21 e6       	ldi	r18, 0x61	; 97
    140a:	3a e3       	ldi	r19, 0x3A	; 58
    140c:	40 91 9d 39 	lds	r20, 0x399D	; 0x80399d <txTypeNow>
    1410:	6c 2f       	mov	r22, r28
    1412:	df 01       	movw	r26, r30
    1414:	a9 0f       	add	r26, r25
    1416:	b1 1d       	adc	r27, r1
    1418:	cd 01       	movw	r24, r26
    141a:	6e dd       	rcall	.-1316   	; 0xef8 <ExtEERead>
            txPart += EEreadLength;
    141c:	80 91 9c 39 	lds	r24, 0x399C	; 0x80399c <txPart.3912>
    1420:	8c 0f       	add	r24, r28
    1422:	80 93 9c 39 	sts	0x399C, r24	; 0x80399c <txPart.3912>
            txBuffer[EEreadLength] = 0; //Add string terminator after piece to send to plug memory leak
    1426:	ec 2f       	mov	r30, r28
    1428:	f0 e0       	ldi	r31, 0x00	; 0
    142a:	ef 59       	subi	r30, 0x9F	; 159
    142c:	f5 4c       	sbci	r31, 0xC5	; 197
    142e:	10 82       	st	Z, r1
            SerSend(&txBuffer[0]);
    1430:	81 e6       	ldi	r24, 0x61	; 97
    1432:	9a e3       	ldi	r25, 0x3A	; 58
    1434:	0f db       	rcall	.-2530   	; 0xa54 <SerSend>
        } else if (sendPrompt == LOCATION){
            SendLiteral(A_LOCATION, L_LOCATION, 0);
        }
        sendPrompt=0;
    } else if (serTxDone) return 0; //All is sent!
    return 1; //Still sending, do not change the data in the tx variables
    1436:	81 e0       	ldi	r24, 0x01	; 1
    1438:	44 c0       	rjmp	.+136    	; 0x14c2 <CheckSend+0xfa>
            ExtEERead(txAddrList[txAddrNow]+txPart, EEreadLength, txTypeNow, &txBuffer[0]);
            txPart += EEreadLength;
            txBuffer[EEreadLength] = 0; //Add string terminator after piece to send to plug memory leak
            SerSend(&txBuffer[0]);
        } else {
            txPart = 0;
    143a:	10 92 9c 39 	sts	0x399C, r1	; 0x80399c <txPart.3912>
            ++txAddrNow;
    143e:	8f 5f       	subi	r24, 0xFF	; 255
    1440:	80 93 9f 39 	sts	0x399F, r24	; 0x80399f <txAddrNow>
        } else if (sendPrompt == LOCATION){
            SendLiteral(A_LOCATION, L_LOCATION, 0);
        }
        sendPrompt=0;
    } else if (serTxDone) return 0; //All is sent!
    return 1; //Still sending, do not change the data in the tx variables
    1444:	81 e0       	ldi	r24, 0x01	; 1
    1446:	3d c0       	rjmp	.+122    	; 0x14c2 <CheckSend+0xfa>
            txPart = 0;
            ++txAddrNow;
        }
    
    //Check if prompt needs to be sent afterward or something else
    } else if (serTxDone&&sendPrompt) {
    1448:	80 91 04 38 	lds	r24, 0x3804	; 0x803804 <serTxDone>
    144c:	88 23       	and	r24, r24
    144e:	a1 f1       	breq	.+104    	; 0x14b8 <CheckSend+0xf0>
    1450:	80 91 9e 39 	lds	r24, 0x399E	; 0x80399e <sendPrompt>
    1454:	88 23       	and	r24, r24
    1456:	81 f1       	breq	.+96     	; 0x14b8 <CheckSend+0xf0>
        if (sendPrompt == PROMPT){
    1458:	81 30       	cpi	r24, 0x01	; 1
    145a:	39 f4       	brne	.+14     	; 0x146a <CheckSend+0xa2>
            SendLiteral(A_PROMPT, L_PROMPT, 2);
    145c:	42 e0       	ldi	r20, 0x02	; 2
    145e:	62 e0       	ldi	r22, 0x02	; 2
    1460:	70 e0       	ldi	r23, 0x00	; 0
    1462:	8d e4       	ldi	r24, 0x4D	; 77
    1464:	9c e7       	ldi	r25, 0x7C	; 124
    1466:	77 de       	rcall	.-786    	; 0x1156 <SendLiteral>
    1468:	23 c0       	rjmp	.+70     	; 0x14b0 <CheckSend+0xe8>
        } else if (sendPrompt == SPACE){
    146a:	82 30       	cpi	r24, 0x02	; 2
    146c:	39 f4       	brne	.+14     	; 0x147c <CheckSend+0xb4>
            SendLiteral(A_SPACE, L_SPACE, 0);
    146e:	40 e0       	ldi	r20, 0x00	; 0
    1470:	61 e0       	ldi	r22, 0x01	; 1
    1472:	70 e0       	ldi	r23, 0x00	; 0
    1474:	8f e4       	ldi	r24, 0x4F	; 79
    1476:	9c e7       	ldi	r25, 0x7C	; 124
    1478:	6e de       	rcall	.-804    	; 0x1156 <SendLiteral>
    147a:	1a c0       	rjmp	.+52     	; 0x14b0 <CheckSend+0xe8>
        } else if (sendPrompt == CR_1){
    147c:	83 30       	cpi	r24, 0x03	; 3
    147e:	39 f4       	brne	.+14     	; 0x148e <CheckSend+0xc6>
            SendLiteral(0, 0, 1);
    1480:	41 e0       	ldi	r20, 0x01	; 1
    1482:	60 e0       	ldi	r22, 0x00	; 0
    1484:	70 e0       	ldi	r23, 0x00	; 0
    1486:	80 e0       	ldi	r24, 0x00	; 0
    1488:	90 e0       	ldi	r25, 0x00	; 0
    148a:	65 de       	rcall	.-822    	; 0x1156 <SendLiteral>
    148c:	11 c0       	rjmp	.+34     	; 0x14b0 <CheckSend+0xe8>
        } else if (sendPrompt == CR_2){
    148e:	84 30       	cpi	r24, 0x04	; 4
    1490:	39 f4       	brne	.+14     	; 0x14a0 <CheckSend+0xd8>
            SendLiteral(0, 0, 2);
    1492:	42 e0       	ldi	r20, 0x02	; 2
    1494:	60 e0       	ldi	r22, 0x00	; 0
    1496:	70 e0       	ldi	r23, 0x00	; 0
    1498:	80 e0       	ldi	r24, 0x00	; 0
    149a:	90 e0       	ldi	r25, 0x00	; 0
    149c:	5c de       	rcall	.-840    	; 0x1156 <SendLiteral>
    149e:	08 c0       	rjmp	.+16     	; 0x14b0 <CheckSend+0xe8>
        } else if (sendPrompt == LOCATION){
    14a0:	85 30       	cpi	r24, 0x05	; 5
            SendLiteral(A_LOCATION, L_LOCATION, 0);
    14a2:	31 f4       	brne	.+12     	; 0x14b0 <CheckSend+0xe8>
    14a4:	40 e0       	ldi	r20, 0x00	; 0
    14a6:	6b e0       	ldi	r22, 0x0B	; 11
    14a8:	70 e0       	ldi	r23, 0x00	; 0
    14aa:	80 e5       	ldi	r24, 0x50	; 80
    14ac:	9c e7       	ldi	r25, 0x7C	; 124
    14ae:	53 de       	rcall	.-858    	; 0x1156 <SendLiteral>
        }
        sendPrompt=0;
    14b0:	10 92 9e 39 	sts	0x399E, r1	; 0x80399e <sendPrompt>
    } else if (serTxDone) return 0; //All is sent!
    return 1; //Still sending, do not change the data in the tx variables
    14b4:	81 e0       	ldi	r24, 0x01	; 1
        } else if (sendPrompt == CR_2){
            SendLiteral(0, 0, 2);
        } else if (sendPrompt == LOCATION){
            SendLiteral(A_LOCATION, L_LOCATION, 0);
        }
        sendPrompt=0;
    14b6:	05 c0       	rjmp	.+10     	; 0x14c2 <CheckSend+0xfa>
    } else if (serTxDone) return 0; //All is sent!
    14b8:	90 91 04 38 	lds	r25, 0x3804	; 0x803804 <serTxDone>
    14bc:	81 e0       	ldi	r24, 0x01	; 1
    14be:	91 11       	cpse	r25, r1
    14c0:	80 e0       	ldi	r24, 0x00	; 0
    return 1; //Still sending, do not change the data in the tx variables
}
    14c2:	cf 91       	pop	r28
    14c4:	08 95       	ret

000014c6 <CheckInput>:

//User input check (and validation)
uint8_t CheckInput(uint8_t *data){
    14c6:	1f 93       	push	r17
    14c8:	cf 93       	push	r28
    14ca:	df 93       	push	r29
    14cc:	cd b7       	in	r28, 0x3d	; 61
    14ce:	de b7       	in	r29, 0x3e	; 62
    14d0:	2a 97       	sbiw	r28, 0x0a	; 10
    14d2:	cd bf       	out	0x3d, r28	; 61
    14d4:	de bf       	out	0x3e, r29	; 62
    if (serRxDone){
    14d6:	20 91 97 38 	lds	r18, 0x3897	; 0x803897 <serRxDone>
    14da:	22 23       	and	r18, r18
    14dc:	09 f4       	brne	.+2      	; 0x14e0 <CheckInput+0x1a>
    14de:	6e c0       	rjmp	.+220    	; 0x15bc <CheckInput+0xf6>
        //Read up to the \0 character and convert to lower case.
        for (uint8_t x=0; serRx[x]!=0; ++x){
    14e0:	20 91 ca 39 	lds	r18, 0x39CA	; 0x8039ca <serRx>
    14e4:	22 23       	and	r18, r18
    14e6:	51 f1       	breq	.+84     	; 0x153c <CheckInput+0x76>
    14e8:	20 e0       	ldi	r18, 0x00	; 0
    14ea:	30 e0       	ldi	r19, 0x00	; 0
    14ec:	40 e0       	ldi	r20, 0x00	; 0
            if ((serRx[x]<'A')||(serRx[x]>'Z')) data[x]=serRx[x]; else data[x]=serRx[x]|0x20;
    14ee:	f9 01       	movw	r30, r18
    14f0:	e6 53       	subi	r30, 0x36	; 54
    14f2:	f6 4c       	sbci	r31, 0xC6	; 198
    14f4:	50 81       	ld	r21, Z
    14f6:	51 34       	cpi	r21, 0x41	; 65
    14f8:	30 f0       	brcs	.+12     	; 0x1506 <CheckInput+0x40>
    14fa:	f9 01       	movw	r30, r18
    14fc:	e6 53       	subi	r30, 0x36	; 54
    14fe:	f6 4c       	sbci	r31, 0xC6	; 198
    1500:	50 81       	ld	r21, Z
    1502:	5b 35       	cpi	r21, 0x5B	; 91
    1504:	48 f0       	brcs	.+18     	; 0x1518 <CheckInput+0x52>
    1506:	f9 01       	movw	r30, r18
    1508:	e6 53       	subi	r30, 0x36	; 54
    150a:	f6 4c       	sbci	r31, 0xC6	; 198
    150c:	20 81       	ld	r18, Z
    150e:	fc 01       	movw	r30, r24
    1510:	e4 0f       	add	r30, r20
    1512:	f1 1d       	adc	r31, r1
    1514:	20 83       	st	Z, r18
    1516:	09 c0       	rjmp	.+18     	; 0x152a <CheckInput+0x64>
    1518:	f9 01       	movw	r30, r18
    151a:	e6 53       	subi	r30, 0x36	; 54
    151c:	f6 4c       	sbci	r31, 0xC6	; 198
    151e:	20 81       	ld	r18, Z
    1520:	fc 01       	movw	r30, r24
    1522:	e4 0f       	add	r30, r20
    1524:	f1 1d       	adc	r31, r1
    1526:	20 62       	ori	r18, 0x20	; 32
    1528:	20 83       	st	Z, r18

//User input check (and validation)
uint8_t CheckInput(uint8_t *data){
    if (serRxDone){
        //Read up to the \0 character and convert to lower case.
        for (uint8_t x=0; serRx[x]!=0; ++x){
    152a:	4f 5f       	subi	r20, 0xFF	; 255
    152c:	24 2f       	mov	r18, r20
    152e:	30 e0       	ldi	r19, 0x00	; 0
    1530:	f9 01       	movw	r30, r18
    1532:	e6 53       	subi	r30, 0x36	; 54
    1534:	f6 4c       	sbci	r31, 0xC6	; 198
    1536:	50 81       	ld	r21, Z
    1538:	51 11       	cpse	r21, r1
    153a:	d9 cf       	rjmp	.-78     	; 0x14ee <CheckInput+0x28>
            if ((serRx[x]<'A')||(serRx[x]>'Z')) data[x]=serRx[x]; else data[x]=serRx[x]|0x20;
        }

        //Help text
        if ((data[0] == '?')||(data[0] == 'h')){
    153c:	fc 01       	movw	r30, r24
    153e:	20 81       	ld	r18, Z
    1540:	2f 33       	cpi	r18, 0x3F	; 63
    1542:	11 f0       	breq	.+4      	; 0x1548 <CheckInput+0x82>
    1544:	28 36       	cpi	r18, 0x68	; 104
    1546:	61 f4       	brne	.+24     	; 0x1560 <CheckInput+0x9a>
            //Put help pointers/lengths in tx list
            PrepareSending(A_HELP, L_HELP, TEASER, PROMPT);
    1548:	21 e0       	ldi	r18, 0x01	; 1
    154a:	41 e0       	ldi	r20, 0x01	; 1
    154c:	65 ea       	ldi	r22, 0xA5	; 165
    154e:	73 e0       	ldi	r23, 0x03	; 3
    1550:	8b e5       	ldi	r24, 0x5B	; 91
    1552:	9c e7       	ldi	r25, 0x7C	; 124
    1554:	20 dd       	rcall	.-1472   	; 0xf96 <PrepareSending>
            RXCNT = 0;
    1556:	1d ba       	out	0x1d, r1	; 29
            serRxDone = 0;
    1558:	10 92 97 38 	sts	0x3897, r1	; 0x803897 <serRxDone>
            return 1;
    155c:	81 e0       	ldi	r24, 0x01	; 1
    155e:	2f c0       	rjmp	.+94     	; 0x15be <CheckInput+0xf8>
        }

        //Quit text
        if (data[0] == 'q'){
    1560:	21 37       	cpi	r18, 0x71	; 113
    1562:	61 f4       	brne	.+24     	; 0x157c <CheckInput+0xb6>
            //Put quit pointers/lengths in tx list
            PrepareSending(A_QUIT, L_QUIT, TEASER, PROMPT);
    1564:	21 e0       	ldi	r18, 0x01	; 1
    1566:	41 e0       	ldi	r20, 0x01	; 1
    1568:	64 e5       	ldi	r22, 0x54	; 84
    156a:	70 e0       	ldi	r23, 0x00	; 0
    156c:	89 ef       	ldi	r24, 0xF9	; 249
    156e:	9b e7       	ldi	r25, 0x7B	; 123
    1570:	12 dd       	rcall	.-1500   	; 0xf96 <PrepareSending>
            RXCNT = 0;
    1572:	1d ba       	out	0x1d, r1	; 29
            serRxDone = 0;
    1574:	10 92 97 38 	sts	0x3897, r1	; 0x803897 <serRxDone>
            return 1;
    1578:	81 e0       	ldi	r24, 0x01	; 1
    157a:	21 c0       	rjmp	.+66     	; 0x15be <CheckInput+0xf8>
        }

        //Cheat = reset badge!
        if (StartsWith(&data[0], "iddqd")){
    157c:	68 e1       	ldi	r22, 0x18	; 24
    157e:	7a e9       	ldi	r23, 0x9A	; 154
    1580:	f9 dc       	rcall	.-1550   	; 0xf74 <StartsWith>
    1582:	88 23       	and	r24, r24
    1584:	e1 f0       	breq	.+56     	; 0x15be <CheckInput+0xf8>
    1586:	1e e6       	ldi	r17, 0x6E	; 110
            
            //Reset game data by wiping the UUID bits
            for (uint8_t x=0; x<4; ++x){
                WriteStatusBit(110+x, 0);
    1588:	60 e0       	ldi	r22, 0x00	; 0
    158a:	81 2f       	mov	r24, r17
    158c:	b3 db       	rcall	.-2202   	; 0xcf4 <WriteStatusBit>
    158e:	1f 5f       	subi	r17, 0xFF	; 255

        //Cheat = reset badge!
        if (StartsWith(&data[0], "iddqd")){
            
            //Reset game data by wiping the UUID bits
            for (uint8_t x=0; x<4; ++x){
    1590:	12 37       	cpi	r17, 0x72	; 114
    1592:	d1 f7       	brne	.-12     	; 0x1588 <CheckInput+0xc2>
                WriteStatusBit(110+x, 0);
            }
            SaveGameState();
    1594:	62 db       	rcall	.-2364   	; 0xc5a <SaveGameState>
    1596:	8a e0       	ldi	r24, 0x0A	; 10

            uint8_t cheat[] = "Cheater! ";
    1598:	ee e1       	ldi	r30, 0x1E	; 30
    159a:	fa e9       	ldi	r31, 0x9A	; 154
    159c:	de 01       	movw	r26, r28
    159e:	11 96       	adiw	r26, 0x01	; 1
    15a0:	01 90       	ld	r0, Z+
    15a2:	0d 92       	st	X+, r0
    15a4:	8a 95       	dec	r24
    15a6:	e1 f7       	brne	.-8      	; 0x15a0 <CheckInput+0xda>
            SerSpeed(60);
    15a8:	8c e3       	ldi	r24, 0x3C	; 60
    15aa:	66 da       	rcall	.-2868   	; 0xa78 <SerSpeed>
    15ac:	80 91 04 38 	lds	r24, 0x3804	; 0x803804 <serTxDone>
            while(1){
                if (serTxDone) SerSend(&cheat[0]);
    15b0:	88 23       	and	r24, r24
    15b2:	e1 f3       	breq	.-8      	; 0x15ac <CheckInput+0xe6>
    15b4:	ce 01       	movw	r24, r28
    15b6:	01 96       	adiw	r24, 0x01	; 1
    15b8:	4d da       	rcall	.-2918   	; 0xa54 <SerSend>
    15ba:	f8 cf       	rjmp	.-16     	; 0x15ac <CheckInput+0xe6>
    15bc:	81 e0       	ldi	r24, 0x01	; 1
        //Data received, but not any of the commands above
        return 0;
    }

    //Serial input not available yet
    return 1;
    15be:	2a 96       	adiw	r28, 0x0a	; 10
}
    15c0:	cd bf       	out	0x3d, r28	; 61
    15c2:	de bf       	out	0x3e, r29	; 62
    15c4:	df 91       	pop	r29
    15c6:	cf 91       	pop	r28
    15c8:	1f 91       	pop	r17
    15ca:	08 95       	ret

000015cc <ProcessInput>:
    15cc:	0f 93       	push	r16

//The game logic!
uint8_t ProcessInput(uint8_t *data){
    15ce:	1f 93       	push	r17
    15d0:	cf 93       	push	r28
    15d2:	df 93       	push	r29
    15d4:	8c 01       	movw	r16, r24
    
    static uint16_t reactStr[3][8] = {{0},{0},{0}};
    static uint8_t actionList = 0;
    static uint8_t toSend = 0;

    if (currDepth == 0) PopulateObject(route[currDepth], &currObj);
    15d6:	80 91 9b 39 	lds	r24, 0x399B	; 0x80399b <currDepth.3934>
    15da:	81 11       	cpse	r24, r1
    15dc:	07 c0       	rjmp	.+14     	; 0x15ec <ProcessInput+0x20>
    15de:	63 e3       	ldi	r22, 0x33	; 51
    15e0:	79 e3       	ldi	r23, 0x39	; 57
    15e2:	80 91 5b 39 	lds	r24, 0x395B	; 0x80395b <route.3933>
    15e6:	90 91 5c 39 	lds	r25, 0x395C	; 0x80395c <route.3933+0x1>
    15ea:	2b dd       	rcall	.-1450   	; 0x1042 <PopulateObject>
    if (effect ^ currObj.byteField[EFFECTS]){
    15ec:	80 91 37 39 	lds	r24, 0x3937	; 0x803937 <currObj.3930+0x4>
    15f0:	90 e0       	ldi	r25, 0x00	; 0
    15f2:	20 91 93 38 	lds	r18, 0x3893	; 0x803893 <effect>
    15f6:	30 91 94 38 	lds	r19, 0x3894	; 0x803894 <effect+0x1>
    15fa:	82 17       	cp	r24, r18
    15fc:	93 07       	cpc	r25, r19
    15fe:	39 f0       	breq	.+14     	; 0x160e <ProcessInput+0x42>
        effect = currObj.byteField[EFFECTS];
    1600:	80 93 93 38 	sts	0x3893, r24	; 0x803893 <effect>
    1604:	90 93 94 38 	sts	0x3894, r25	; 0x803894 <effect+0x1>
        auStart = 1;
    1608:	81 e0       	ldi	r24, 0x01	; 1
    160a:	80 93 92 38 	sts	0x3892, r24	; 0x803892 <auStart>
    }
    CleanInput(&data[0]);
    160e:	c8 01       	movw	r24, r16
    1610:	b5 de       	rcall	.-662    	; 0x137c <CleanInput>
    
    //Responses to send after something has tried by the user
    if (actionList){
    1612:	c0 91 32 39 	lds	r28, 0x3932	; 0x803932 <actionList.3936>
    1616:	cc 23       	and	r28, r28
    1618:	31 f1       	breq	.+76     	; 0x1666 <ProcessInput+0x9a>
        PrepareSending(reactStr[0][toSend], reactStr[1][toSend], GAME, reactStr[2][toSend]);
    161a:	10 91 31 39 	lds	r17, 0x3931	; 0x803931 <toSend.3937>
    161e:	81 2f       	mov	r24, r17
    1620:	90 e0       	ldi	r25, 0x00	; 0
    1622:	dc 01       	movw	r26, r24
    1624:	aa 0f       	add	r26, r26
    1626:	bb 1f       	adc	r27, r27
    1628:	af 5d       	subi	r26, 0xDF	; 223
    162a:	b6 4c       	sbci	r27, 0xC6	; 198
    162c:	fc 01       	movw	r30, r24
    162e:	ee 0f       	add	r30, r30
    1630:	ff 1f       	adc	r31, r31
    1632:	ef 5e       	subi	r30, 0xEF	; 239
    1634:	f6 4c       	sbci	r31, 0xC6	; 198
    1636:	60 81       	ld	r22, Z
    1638:	71 81       	ldd	r23, Z+1	; 0x01
    163a:	88 0f       	add	r24, r24
    163c:	99 1f       	adc	r25, r25
    163e:	fc 01       	movw	r30, r24
    1640:	ef 5f       	subi	r30, 0xFF	; 255
    1642:	f6 4c       	sbci	r31, 0xC6	; 198
    1644:	2c 91       	ld	r18, X
    1646:	40 e0       	ldi	r20, 0x00	; 0
    1648:	80 81       	ld	r24, Z
    164a:	91 81       	ldd	r25, Z+1	; 0x01
    164c:	a4 dc       	rcall	.-1720   	; 0xf96 <PrepareSending>
        ++toSend;
    164e:	1f 5f       	subi	r17, 0xFF	; 255
    1650:	10 93 31 39 	sts	0x3931, r17	; 0x803931 <toSend.3937>
        --actionList;
    1654:	c1 50       	subi	r28, 0x01	; 1
    1656:	c0 93 32 39 	sts	0x3932, r28	; 0x803932 <actionList.3936>
        if (actionList == 0) {
    165a:	c1 11       	cpse	r28, r1
    165c:	3e c1       	rjmp	.+636    	; 0x18da <ProcessInput+0x30e>
            RXCNT = 0;
    165e:	1d ba       	out	0x1d, r1	; 29
            serRxDone = 0;
    1660:	10 92 97 38 	sts	0x3897, r1	; 0x803897 <serRxDone>
        }

    //No responses yet and data available? Figure out what to say!
    } else {

        uint8_t inputLen = CleanInput(&data[0]);
    1664:	3a c1       	rjmp	.+628    	; 0x18da <ProcessInput+0x30e>
    1666:	c8 01       	movw	r24, r16
    1668:	89 de       	rcall	.-750    	; 0x137c <CleanInput>
        if (inputLen) {
    166a:	88 23       	and	r24, r24
    166c:	09 f4       	brne	.+2      	; 0x1670 <ProcessInput+0xa4>
    166e:	35 c1       	rjmp	.+618    	; 0x18da <ProcessInput+0x30e>

            toSend = 0;
    1670:	10 92 31 39 	sts	0x3931, r1	; 0x803931 <toSend.3937>
            reactStr[1][0]=0;
    1674:	e1 e0       	ldi	r30, 0x01	; 1
    1676:	f9 e3       	ldi	r31, 0x39	; 57
    1678:	10 8a       	std	Z+16, r1	; 0x10
    167a:	11 8a       	std	Z+17, r1	; 0x11
            reactStr[2][0]=CR_2;
    167c:	24 e0       	ldi	r18, 0x04	; 4
    167e:	30 e0       	ldi	r19, 0x00	; 0
    1680:	20 a3       	std	Z+32, r18	; 0x20
    1682:	31 a3       	std	Z+33, r19	; 0x21

            if (data[0] == 'x'){
    1684:	d8 01       	movw	r26, r16
    1686:	9c 91       	ld	r25, X
    1688:	98 37       	cpi	r25, 0x78	; 120
    168a:	09 f0       	breq	.+2      	; 0x168e <ProcessInput+0xc2>
    168c:	5a c0       	rjmp	.+180    	; 0x1742 <ProcessInput+0x176>

                //Standing outside?
                if ((route[currDepth] == 0)||(currDepth == 0)){
    168e:	80 91 9b 39 	lds	r24, 0x399B	; 0x80399b <currDepth.3934>
    1692:	e8 2f       	mov	r30, r24
    1694:	f0 e0       	ldi	r31, 0x00	; 0
    1696:	ee 0f       	add	r30, r30
    1698:	ff 1f       	adc	r31, r31
    169a:	e5 5a       	subi	r30, 0xA5	; 165
    169c:	f6 4c       	sbci	r31, 0xC6	; 198
    169e:	20 81       	ld	r18, Z
    16a0:	31 81       	ldd	r19, Z+1	; 0x01
    16a2:	23 2b       	or	r18, r19
    16a4:	11 f0       	breq	.+4      	; 0x16aa <ProcessInput+0xde>
    16a6:	81 11       	cpse	r24, r1
    16a8:	08 c0       	rjmp	.+16     	; 0x16ba <ProcessInput+0xee>
                    PrepareSending(A_NOTPOSSIBLE, L_NOTPOSSIBLE, TEASER, PROMPT);
    16aa:	21 e0       	ldi	r18, 0x01	; 1
    16ac:	41 e0       	ldi	r20, 0x01	; 1
    16ae:	6b e1       	ldi	r22, 0x1B	; 27
    16b0:	70 e0       	ldi	r23, 0x00	; 0
    16b2:	86 ea       	ldi	r24, 0xA6	; 166
    16b4:	98 e7       	ldi	r25, 0x78	; 120
    16b6:	6f dc       	rcall	.-1826   	; 0xf96 <PrepareSending>
            
                //Is there a way to go back?
                } else if (CheckState(currObj.byteField[OPEN_ACL])){
    16b8:	06 c1       	rjmp	.+524    	; 0x18c6 <ProcessInput+0x2fa>
    16ba:	80 91 39 39 	lds	r24, 0x3939	; 0x803939 <currObj.3930+0x6>
    16be:	8d dd       	rcall	.-1254   	; 0x11da <CheckState>
    16c0:	88 23       	and	r24, r24
    16c2:	39 f1       	breq	.+78     	; 0x1712 <ProcessInput+0x146>
                    --currDepth;
    16c4:	e0 91 9b 39 	lds	r30, 0x399B	; 0x80399b <currDepth.3934>
    16c8:	e1 50       	subi	r30, 0x01	; 1
    16ca:	e0 93 9b 39 	sts	0x399B, r30	; 0x80399b <currDepth.3934>
                    PopulateObject(route[currDepth], &currObj);
    16ce:	f0 e0       	ldi	r31, 0x00	; 0
    16d0:	ee 0f       	add	r30, r30
    16d2:	ff 1f       	adc	r31, r31
    16d4:	e5 5a       	subi	r30, 0xA5	; 165
    16d6:	f6 4c       	sbci	r31, 0xC6	; 198
    16d8:	63 e3       	ldi	r22, 0x33	; 51
    16da:	79 e3       	ldi	r23, 0x39	; 57
    16dc:	80 81       	ld	r24, Z
    16de:	91 81       	ldd	r25, Z+1	; 0x01
    16e0:	b0 dc       	rcall	.-1696   	; 0x1042 <PopulateObject>
                    reactStr[0][1]=currObj.addrStr[NAME];
    16e2:	e1 e0       	ldi	r30, 0x01	; 1
    16e4:	f9 e3       	ldi	r31, 0x39	; 57
    16e6:	a3 e3       	ldi	r26, 0x33	; 51
    16e8:	b9 e3       	ldi	r27, 0x39	; 57
    16ea:	1c 96       	adiw	r26, 0x0c	; 12
    16ec:	8d 91       	ld	r24, X+
    16ee:	9c 91       	ld	r25, X
    16f0:	1d 97       	sbiw	r26, 0x0d	; 13
    16f2:	82 83       	std	Z+2, r24	; 0x02
    16f4:	93 83       	std	Z+3, r25	; 0x03
                    reactStr[1][1]=currObj.lenStr[NAME];
    16f6:	5a 96       	adiw	r26, 0x1a	; 26
    16f8:	8d 91       	ld	r24, X+
    16fa:	9c 91       	ld	r25, X
    16fc:	5b 97       	sbiw	r26, 0x1b	; 27
    16fe:	82 8b       	std	Z+18, r24	; 0x12
    1700:	93 8b       	std	Z+19, r25	; 0x13
                    reactStr[2][1]=PROMPT;             
    1702:	81 e0       	ldi	r24, 0x01	; 1
    1704:	90 e0       	ldi	r25, 0x00	; 0
    1706:	82 a3       	std	Z+34, r24	; 0x22
    1708:	93 a3       	std	Z+35, r25	; 0x23
                    actionList = 2;
    170a:	82 e0       	ldi	r24, 0x02	; 2
    170c:	80 93 32 39 	sts	0x3932, r24	; 0x803932 <actionList.3936>
    1710:	da c0       	rjmp	.+436    	; 0x18c6 <ProcessInput+0x2fa>
            
                //No way out, print denied message of location
                } else {
                    reactStr[0][1]=currObj.addrStr[OPEN_ACL_MSG];
    1712:	e1 e0       	ldi	r30, 0x01	; 1
    1714:	f9 e3       	ldi	r31, 0x39	; 57
    1716:	a3 e3       	ldi	r26, 0x33	; 51
    1718:	b9 e3       	ldi	r27, 0x39	; 57
    171a:	54 96       	adiw	r26, 0x14	; 20
    171c:	8d 91       	ld	r24, X+
    171e:	9c 91       	ld	r25, X
    1720:	55 97       	sbiw	r26, 0x15	; 21
    1722:	82 83       	std	Z+2, r24	; 0x02
    1724:	93 83       	std	Z+3, r25	; 0x03
                    reactStr[1][1]=currObj.lenStr[OPEN_ACL_MSG];
    1726:	92 96       	adiw	r26, 0x22	; 34
    1728:	8d 91       	ld	r24, X+
    172a:	9c 91       	ld	r25, X
    172c:	93 97       	sbiw	r26, 0x23	; 35
    172e:	82 8b       	std	Z+18, r24	; 0x12
    1730:	93 8b       	std	Z+19, r25	; 0x13
                    reactStr[2][1]=PROMPT;                
    1732:	81 e0       	ldi	r24, 0x01	; 1
    1734:	90 e0       	ldi	r25, 0x00	; 0
    1736:	82 a3       	std	Z+34, r24	; 0x22
    1738:	93 a3       	std	Z+35, r25	; 0x23
                    actionList = 2;
    173a:	82 e0       	ldi	r24, 0x02	; 2
    173c:	80 93 32 39 	sts	0x3932, r24	; 0x803932 <actionList.3936>
    1740:	c2 c0       	rjmp	.+388    	; 0x18c6 <ProcessInput+0x2fa>
                }
            } 
        
            else if ((data[0] == 'e')||(data[0] == 'o')) {
    1742:	95 36       	cpi	r25, 0x65	; 101
    1744:	19 f0       	breq	.+6      	; 0x174c <ProcessInput+0x180>
    1746:	9f 36       	cpi	r25, 0x6F	; 111
    1748:	09 f0       	breq	.+2      	; 0x174c <ProcessInput+0x180>
    174a:	bd c0       	rjmp	.+378    	; 0x18c6 <ProcessInput+0x2fa>
                
                //Not possible, too many/little characters
                if (inputLen != 2){
    174c:	82 30       	cpi	r24, 0x02	; 2
                    PrepareSending(A_NOTPOSSIBLE, L_NOTPOSSIBLE, TEASER, CR_2);
    174e:	41 f0       	breq	.+16     	; 0x1760 <ProcessInput+0x194>
    1750:	24 e0       	ldi	r18, 0x04	; 4
    1752:	41 e0       	ldi	r20, 0x01	; 1
    1754:	6b e1       	ldi	r22, 0x1B	; 27
    1756:	70 e0       	ldi	r23, 0x00	; 0
    1758:	86 ea       	ldi	r24, 0xA6	; 166
    175a:	98 e7       	ldi	r25, 0x78	; 120
    175c:	1c dc       	rcall	.-1992   	; 0xf96 <PrepareSending>
    175e:	90 c0       	rjmp	.+288    	; 0x1880 <ProcessInput+0x2b4>
                } else {
                    uint8_t canDo = 0;
                    route[currDepth+1] = FindChild(route[currDepth], data[1]);
    1760:	c0 91 9b 39 	lds	r28, 0x399B	; 0x80399b <currDepth.3934>
    1764:	d0 e0       	ldi	r29, 0x00	; 0
    1766:	fe 01       	movw	r30, r28
    1768:	ee 0f       	add	r30, r30
    176a:	ff 1f       	adc	r31, r31
    176c:	e5 5a       	subi	r30, 0xA5	; 165
    176e:	f6 4c       	sbci	r31, 0xC6	; 198
    1770:	d8 01       	movw	r26, r16
    1772:	11 96       	adiw	r26, 0x01	; 1
    1774:	6c 91       	ld	r22, X
    1776:	80 81       	ld	r24, Z
    1778:	91 81       	ldd	r25, Z+1	; 0x01
    177a:	9c dd       	rcall	.-1224   	; 0x12b4 <FindChild>
    177c:	cc 0f       	add	r28, r28
    177e:	dd 1f       	adc	r29, r29
    1780:	c3 5a       	subi	r28, 0xA3	; 163
    1782:	d6 4c       	sbci	r29, 0xC6	; 198
    1784:	88 83       	st	Y, r24
    1786:	99 83       	std	Y+1, r25	; 0x01
                    
                    //Child found?
                    if (route[currDepth+1]) {
    1788:	90 91 9b 39 	lds	r25, 0x399B	; 0x80399b <currDepth.3934>
    178c:	29 2f       	mov	r18, r25
    178e:	30 e0       	ldi	r19, 0x00	; 0
    1790:	f9 01       	movw	r30, r18
    1792:	ee 0f       	add	r30, r30
    1794:	ff 1f       	adc	r31, r31
    1796:	e3 5a       	subi	r30, 0xA3	; 163
    1798:	f6 4c       	sbci	r31, 0xC6	; 198
    179a:	40 81       	ld	r20, Z
    179c:	51 81       	ldd	r21, Z+1	; 0x01
    179e:	41 15       	cp	r20, r1
    17a0:	51 05       	cpc	r21, r1
                        PopulateObject(route[currDepth+1], &actObj1);
    17a2:	29 f0       	breq	.+10     	; 0x17ae <ProcessInput+0x1e2>
    17a4:	69 ed       	ldi	r22, 0xD9	; 217
    17a6:	78 e3       	ldi	r23, 0x38	; 56
    17a8:	ca 01       	movw	r24, r20
    17aa:	4b dc       	rcall	.-1898   	; 0x1042 <PopulateObject>
    17ac:	17 c0       	rjmp	.+46     	; 0x17dc <ProcessInput+0x210>
                        canDo = 1;
                    //No child, maybe a step back, letter ok?
                    } else if (currDepth) {
    17ae:	99 23       	and	r25, r25
    17b0:	09 f4       	brne	.+2      	; 0x17b4 <ProcessInput+0x1e8>
                        PopulateObject(route[currDepth-1], &actObj1);
    17b2:	5f c0       	rjmp	.+190    	; 0x1872 <ProcessInput+0x2a6>
    17b4:	22 0f       	add	r18, r18
    17b6:	33 1f       	adc	r19, r19
    17b8:	f9 01       	movw	r30, r18
    17ba:	e7 5a       	subi	r30, 0xA7	; 167
    17bc:	f6 4c       	sbci	r31, 0xC6	; 198
    17be:	69 ed       	ldi	r22, 0xD9	; 217
    17c0:	78 e3       	ldi	r23, 0x38	; 56
    17c2:	80 81       	ld	r24, Z
    17c4:	91 81       	ldd	r25, Z+1	; 0x01
                        if (CheckLetter(actObj1.addrStr[NAME], data[1])) {
    17c6:	3d dc       	rcall	.-1926   	; 0x1042 <PopulateObject>
    17c8:	f8 01       	movw	r30, r16
    17ca:	61 81       	ldd	r22, Z+1	; 0x01
    17cc:	80 91 e5 38 	lds	r24, 0x38E5	; 0x8038e5 <actObj1.3931+0xc>
    17d0:	90 91 e6 38 	lds	r25, 0x38E6	; 0x8038e6 <actObj1.3931+0xd>
    17d4:	14 dd       	rcall	.-1496   	; 0x11fe <CheckLetter>
                            canDo = 1; 
                        }
                    }

                    //The candidate is found! Let's check if the action is legit
                    if (canDo) {
    17d6:	88 23       	and	r24, r24
    17d8:	09 f4       	brne	.+2      	; 0x17dc <ProcessInput+0x210>
    17da:	4b c0       	rjmp	.+150    	; 0x1872 <ProcessInput+0x2a6>
                        uint8_t bEnter = (data[0] == 'e');
                        if ((actObj1.byteField[ACTION_MASK]&(bEnter?ENTER:OPEN))==0) {
    17dc:	90 91 e1 38 	lds	r25, 0x38E1	; 0x8038e1 <actObj1.3931+0x8>
    17e0:	d8 01       	movw	r26, r16
    17e2:	8c 91       	ld	r24, X
    17e4:	85 36       	cpi	r24, 0x65	; 101
    17e6:	09 f0       	breq	.+2      	; 0x17ea <ProcessInput+0x21e>
    17e8:	75 c0       	rjmp	.+234    	; 0x18d4 <ProcessInput+0x308>
                            PrepareSending(bEnter?A_CANTENTER:A_CANTOPEN, bEnter?L_CANTENTER:L_CANTOPEN, TEASER, CR_2);
    17ea:	71 c0       	rjmp	.+226    	; 0x18ce <ProcessInput+0x302>
    17ec:	6e e1       	ldi	r22, 0x1E	; 30
    17ee:	70 e0       	ldi	r23, 0x00	; 0
    17f0:	83 e9       	ldi	r24, 0x93	; 147
    17f2:	9b e7       	ldi	r25, 0x7B	; 123
    17f4:	04 c0       	rjmp	.+8      	; 0x17fe <ProcessInput+0x232>
    17f6:	6b e1       	ldi	r22, 0x1B	; 27
    17f8:	70 e0       	ldi	r23, 0x00	; 0
    17fa:	88 e7       	ldi	r24, 0x78	; 120
    17fc:	9b e7       	ldi	r25, 0x7B	; 123
    17fe:	24 e0       	ldi	r18, 0x04	; 4
    1800:	41 e0       	ldi	r20, 0x01	; 1
    1802:	c9 db       	rcall	.-2158   	; 0xf96 <PrepareSending>
                        
                        //Action legit, permission granted?
                        } else if (CheckState(actObj1.byteField[OPEN_ACL])) {
    1804:	3d c0       	rjmp	.+122    	; 0x1880 <ProcessInput+0x2b4>
    1806:	80 91 df 38 	lds	r24, 0x38DF	; 0x8038df <actObj1.3931+0x6>
    180a:	e7 dc       	rcall	.-1586   	; 0x11da <CheckState>
    180c:	88 23       	and	r24, r24
    180e:	39 f1       	breq	.+78     	; 0x185e <ProcessInput+0x292>
                            
                            //Yes! Check if we must move forward or backwards.
                            if (route[currDepth+1]) ++currDepth; else --currDepth;
    1810:	80 91 9b 39 	lds	r24, 0x399B	; 0x80399b <currDepth.3934>
    1814:	e8 2f       	mov	r30, r24
    1816:	f0 e0       	ldi	r31, 0x00	; 0
    1818:	ee 0f       	add	r30, r30
    181a:	ff 1f       	adc	r31, r31
    181c:	e3 5a       	subi	r30, 0xA3	; 163
    181e:	f6 4c       	sbci	r31, 0xC6	; 198
    1820:	20 81       	ld	r18, Z
    1822:	31 81       	ldd	r19, Z+1	; 0x01
    1824:	23 2b       	or	r18, r19
    1826:	21 f0       	breq	.+8      	; 0x1830 <ProcessInput+0x264>
    1828:	8f 5f       	subi	r24, 0xFF	; 255
    182a:	80 93 9b 39 	sts	0x399B, r24	; 0x80399b <currDepth.3934>
    182e:	03 c0       	rjmp	.+6      	; 0x1836 <ProcessInput+0x26a>
    1830:	81 50       	subi	r24, 0x01	; 1
    1832:	80 93 9b 39 	sts	0x399B, r24	; 0x80399b <currDepth.3934>
                            PopulateObject(route[currDepth], &currObj);
    1836:	e0 91 9b 39 	lds	r30, 0x399B	; 0x80399b <currDepth.3934>
    183a:	f0 e0       	ldi	r31, 0x00	; 0
    183c:	ee 0f       	add	r30, r30
    183e:	ff 1f       	adc	r31, r31
    1840:	e5 5a       	subi	r30, 0xA5	; 165
    1842:	f6 4c       	sbci	r31, 0xC6	; 198
    1844:	63 e3       	ldi	r22, 0x33	; 51
    1846:	79 e3       	ldi	r23, 0x39	; 57
    1848:	80 81       	ld	r24, Z
    184a:	91 81       	ldd	r25, Z+1	; 0x01
    184c:	fa db       	rcall	.-2060   	; 0x1042 <PopulateObject>
                            effect = currObj.byteField[EFFECTS];
    184e:	80 91 37 39 	lds	r24, 0x3937	; 0x803937 <currObj.3930+0x4>
    1852:	90 e0       	ldi	r25, 0x00	; 0
    1854:	80 93 93 38 	sts	0x3893, r24	; 0x803893 <effect>
    1858:	90 93 94 38 	sts	0x3894, r25	; 0x803894 <effect+0x1>
    185c:	11 c0       	rjmp	.+34     	; 0x1880 <ProcessInput+0x2b4>

                        //Not granted!
                        } else {
                            route[currDepth+1] = 0;
    185e:	e0 91 9b 39 	lds	r30, 0x399B	; 0x80399b <currDepth.3934>
    1862:	f0 e0       	ldi	r31, 0x00	; 0
    1864:	ee 0f       	add	r30, r30
    1866:	ff 1f       	adc	r31, r31
    1868:	e3 5a       	subi	r30, 0xA3	; 163
    186a:	f6 4c       	sbci	r31, 0xC6	; 198
    186c:	10 82       	st	Z, r1
    186e:	11 82       	std	Z+1, r1	; 0x01
                        }

                    //No candidate
                    } else {
                        PrepareSending(A_DONTSEE, L_DONTSEE, TEASER, CR_2);
    1870:	07 c0       	rjmp	.+14     	; 0x1880 <ProcessInput+0x2b4>
    1872:	24 e0       	ldi	r18, 0x04	; 4
    1874:	41 e0       	ldi	r20, 0x01	; 1
    1876:	6a e1       	ldi	r22, 0x1A	; 26
    1878:	70 e0       	ldi	r23, 0x00	; 0
    187a:	87 ec       	ldi	r24, 0xC7	; 199
    187c:	9b e7       	ldi	r25, 0x7B	; 123
    187e:	8b db       	rcall	.-2282   	; 0xf96 <PrepareSending>
                    }
                }

                //Show current location
                reactStr[1][1]=0;
    1880:	e1 e0       	ldi	r30, 0x01	; 1
    1882:	f9 e3       	ldi	r31, 0x39	; 57
    1884:	12 8a       	std	Z+18, r1	; 0x12
    1886:	13 8a       	std	Z+19, r1	; 0x13
                reactStr[2][1]=LOCATION;
    1888:	85 e0       	ldi	r24, 0x05	; 5
    188a:	90 e0       	ldi	r25, 0x00	; 0
    188c:	82 a3       	std	Z+34, r24	; 0x22
    188e:	93 a3       	std	Z+35, r25	; 0x23
                reactStr[1][2]=0;
    1890:	14 8a       	std	Z+20, r1	; 0x14
    1892:	15 8a       	std	Z+21, r1	; 0x15
                reactStr[2][2]=SPACE;
    1894:	82 e0       	ldi	r24, 0x02	; 2
    1896:	90 e0       	ldi	r25, 0x00	; 0
    1898:	84 a3       	std	Z+36, r24	; 0x24
    189a:	95 a3       	std	Z+37, r25	; 0x25
                reactStr[0][3]=currObj.addrStr[NAME];
    189c:	a3 e3       	ldi	r26, 0x33	; 51
    189e:	b9 e3       	ldi	r27, 0x39	; 57
    18a0:	1c 96       	adiw	r26, 0x0c	; 12
    18a2:	8d 91       	ld	r24, X+
    18a4:	9c 91       	ld	r25, X
    18a6:	1d 97       	sbiw	r26, 0x0d	; 13
    18a8:	86 83       	std	Z+6, r24	; 0x06
    18aa:	97 83       	std	Z+7, r25	; 0x07
                reactStr[1][3]=currObj.lenStr[NAME];
    18ac:	5a 96       	adiw	r26, 0x1a	; 26
    18ae:	8d 91       	ld	r24, X+
    18b0:	9c 91       	ld	r25, X
    18b2:	5b 97       	sbiw	r26, 0x1b	; 27
    18b4:	86 8b       	std	Z+22, r24	; 0x16
    18b6:	97 8b       	std	Z+23, r25	; 0x17
                reactStr[2][3]=PROMPT;
    18b8:	81 e0       	ldi	r24, 0x01	; 1
    18ba:	90 e0       	ldi	r25, 0x00	; 0
    18bc:	86 a3       	std	Z+38, r24	; 0x26
    18be:	97 a3       	std	Z+39, r25	; 0x27
                actionList = 3;
    18c0:	83 e0       	ldi	r24, 0x03	; 3
    18c2:	80 93 32 39 	sts	0x3932, r24	; 0x803932 <actionList.3936>
                
            }
            
            //Input handled
            //data[0] = 0;
            serRxDone = 0;
    18c6:	10 92 97 38 	sts	0x3897, r1	; 0x803897 <serRxDone>
            RXCNT = 0;
    18ca:	1d ba       	out	0x1d, r1	; 29
        }
    }
    return 0;
    18cc:	06 c0       	rjmp	.+12     	; 0x18da <ProcessInput+0x30e>
                    }

                    //The candidate is found! Let's check if the action is legit
                    if (canDo) {
                        uint8_t bEnter = (data[0] == 'e');
                        if ((actObj1.byteField[ACTION_MASK]&(bEnter?ENTER:OPEN))==0) {
    18ce:	90 ff       	sbrs	r25, 0
    18d0:	8d cf       	rjmp	.-230    	; 0x17ec <ProcessInput+0x220>
    18d2:	99 cf       	rjmp	.-206    	; 0x1806 <ProcessInput+0x23a>
    18d4:	91 ff       	sbrs	r25, 1
    18d6:	8f cf       	rjmp	.-226    	; 0x17f6 <ProcessInput+0x22a>
    18d8:	96 cf       	rjmp	.-212    	; 0x1806 <ProcessInput+0x23a>
            serRxDone = 0;
            RXCNT = 0;
        }
    }
    return 0;
}
    18da:	80 e0       	ldi	r24, 0x00	; 0
    18dc:	df 91       	pop	r29
    18de:	cf 91       	pop	r28
    18e0:	1f 91       	pop	r17
    18e2:	0f 91       	pop	r16
    18e4:	08 95       	ret

000018e6 <TextAdventure>:


// Main game loop
uint8_t TextAdventure(){
    18e6:	cf 93       	push	r28
    static uint8_t serInput[RXLEN];
    if (CheckSend()) return 1;                      //Still sending data to serial, return 1
    18e8:	6f dd       	rcall	.-1314   	; 0x13c8 <CheckSend>
    18ea:	81 11       	cpse	r24, r1
    18ec:	0b c0       	rjmp	.+22     	; 0x1904 <TextAdventure+0x1e>
    if (CheckInput(&serInput[0])) return 2;         //No valid input to process, return 2
    18ee:	88 e9       	ldi	r24, 0x98	; 152
    18f0:	98 e3       	ldi	r25, 0x38	; 56
    18f2:	e9 dd       	rcall	.-1070   	; 0x14c6 <CheckInput>
    18f4:	c8 2f       	mov	r28, r24
    18f6:	81 11       	cpse	r24, r1
    18f8:	07 c0       	rjmp	.+14     	; 0x1908 <TextAdventure+0x22>
    ProcessInput(&serInput[0]);                     //Check which response to generate and fill tx arrays
    18fa:	88 e9       	ldi	r24, 0x98	; 152
    18fc:	98 e3       	ldi	r25, 0x38	; 56
    SaveGameState();                                //Check if things are changed, write to EEPROM
    18fe:	66 de       	rcall	.-820    	; 0x15cc <ProcessInput>
    1900:	ac d9       	rcall	.-3240   	; 0xc5a <SaveGameState>
    return 0;
    1902:	03 c0       	rjmp	.+6      	; 0x190a <TextAdventure+0x24>


// Main game loop
uint8_t TextAdventure(){
    static uint8_t serInput[RXLEN];
    if (CheckSend()) return 1;                      //Still sending data to serial, return 1
    1904:	c1 e0       	ldi	r28, 0x01	; 1
    1906:	01 c0       	rjmp	.+2      	; 0x190a <TextAdventure+0x24>
    if (CheckInput(&serInput[0])) return 2;         //No valid input to process, return 2
    1908:	c2 e0       	ldi	r28, 0x02	; 2
    ProcessInput(&serInput[0]);                     //Check which response to generate and fill tx arrays
    SaveGameState();                                //Check if things are changed, write to EEPROM
    return 0;
    190a:	8c 2f       	mov	r24, r28
    190c:	cf 91       	pop	r28
    190e:	08 95       	ret

00001910 <main>:



//This is where it begins, inits first and main program in while(1) loop.
int main(void)
{
    1910:	cf 93       	push	r28
    1912:	df 93       	push	r29
    1914:	cd b7       	in	r28, 0x3d	; 61
    1916:	de b7       	in	r29, 0x3e	; 62
    1918:	a4 97       	sbiw	r28, 0x24	; 36
    191a:	cd bf       	out	0x3d, r28	; 61
    191c:	de bf       	out	0x3e, r29	; 62
    Setup();
    191e:	0e 94 aa 01 	call	0x354	; 0x354 <Setup>
    EERead(0, &gameState[0], 16);   //Load game status bits from EEPROM
    1922:	40 e1       	ldi	r20, 0x10	; 16
    1924:	6a eb       	ldi	r22, 0xBA	; 186
    1926:	79 e3       	ldi	r23, 0x39	; 57
    1928:	80 e0       	ldi	r24, 0x00	; 0
    192a:	38 d8       	rcall	.-3984   	; 0x99c <EERead>
    192c:	1e e6       	ldi	r17, 0x6E	; 110

    uint8_t idSet = 0;
    192e:	00 e0       	ldi	r16, 0x00	; 0
    for (uint8_t x=0; x<4; ++x){
        idSet += ReadStatusBit(110+x);
    1930:	81 2f       	mov	r24, r17
    1932:	cc d9       	rcall	.-3176   	; 0xccc <ReadStatusBit>
    1934:	08 0f       	add	r16, r24
    1936:	1f 5f       	subi	r17, 0xFF	; 255
{
    Setup();
    EERead(0, &gameState[0], 16);   //Load game status bits from EEPROM

    uint8_t idSet = 0;
    for (uint8_t x=0; x<4; ++x){
    1938:	12 37       	cpi	r17, 0x72	; 114
    193a:	d1 f7       	brne	.-12     	; 0x1930 <main+0x20>
        idSet += ReadStatusBit(110+x);
    }

    //idSet can be used to detect cheating. After cheating idSet will be 0, with a virgin badge idSet will be 3.
    if (idSet != 1) {
    193c:	01 30       	cpi	r16, 0x01	; 1
        Reset();
    193e:	09 f0       	breq	.+2      	; 0x1942 <main+0x32>
    }

    SerSpeed(1);
    1940:	06 da       	rcall	.-3060   	; 0xd4e <Reset>
    1942:	81 e0       	ldi	r24, 0x01	; 1
    1944:	99 d8       	rcall	.-3790   	; 0xa78 <SerSpeed>
    unsigned char strTest[]="\aHckerHotel2020 badge pest!\b\b\b\b\bt\n";
    1946:	84 e2       	ldi	r24, 0x24	; 36
    1948:	e8 e3       	ldi	r30, 0x38	; 56
    194a:	fa e9       	ldi	r31, 0x9A	; 154
    194c:	de 01       	movw	r26, r28
    194e:	11 96       	adiw	r26, 0x01	; 1
    1950:	01 90       	ld	r0, Z+
    1952:	0d 92       	st	X+, r0
    1954:	8a 95       	dec	r24
    SerSend(&strTest[0]);
    1956:	e1 f7       	brne	.-8      	; 0x1950 <main+0x40>
    1958:	ce 01       	movw	r24, r28
    195a:	01 96       	adiw	r24, 0x01	; 1

    //uint8_t bla = 0;
    SerSpeed(255);
    195c:	7b d8       	rcall	.-3850   	; 0xa54 <SerSend>
    195e:	8f ef       	ldi	r24, 0xFF	; 255
    1960:	8b d8       	rcall	.-3818   	; 0xa78 <SerSpeed>

    //Turn on LEDs on low setting to check for interrupt glitches
    for (uint8_t n=0; n<40; n++){
    1962:	80 e0       	ldi	r24, 0x00	; 0
    1964:	07 c0       	rjmp	.+14     	; 0x1974 <main+0x64>
        if ((n%8)>5) n+=2;
    1966:	29 2f       	mov	r18, r25
    1968:	27 70       	andi	r18, 0x07	; 7
    196a:	26 30       	cpi	r18, 0x06	; 6
    196c:	10 f0       	brcs	.+4      	; 0x1972 <main+0x62>
    196e:	93 e0       	ldi	r25, 0x03	; 3
    1970:	98 0f       	add	r25, r24
int main(void)
{
    Setup();
    EERead(0, &gameState[0], 16);   //Load game status bits from EEPROM

    uint8_t idSet = 0;
    1972:	89 2f       	mov	r24, r25
    SerSpeed(255);

    //Turn on LEDs on low setting to check for interrupt glitches
    for (uint8_t n=0; n<40; n++){
        if ((n%8)>5) n+=2;
        if (n<40) iLED[n] = 0;
    1974:	88 32       	cpi	r24, 0x28	; 40
    1976:	28 f4       	brcc	.+10     	; 0x1982 <main+0x72>
    1978:	e8 2f       	mov	r30, r24
    197a:	f0 e0       	ldi	r31, 0x00	; 0
    197c:	eb 5c       	subi	r30, 0xCB	; 203
    197e:	f5 4c       	sbci	r31, 0xC5	; 197

    //uint8_t bla = 0;
    SerSpeed(255);

    //Turn on LEDs on low setting to check for interrupt glitches
    for (uint8_t n=0; n<40; n++){
    1980:	10 82       	st	Z, r1
    1982:	91 e0       	ldi	r25, 0x01	; 1
    1984:	98 0f       	add	r25, r24
    1986:	98 32       	cpi	r25, 0x28	; 40



    while (1)
    {
        GenerateAudio();
    1988:	70 f3       	brcs	.-36     	; 0x1966 <main+0x56>
    198a:	17 da       	rcall	.-3026   	; 0xdba <GenerateAudio>

        if (buttonMark){
    198c:	80 91 95 38 	lds	r24, 0x3895	; 0x803895 <buttonMark>
    1990:	88 23       	and	r24, r24
            buttonState = CheckButtons(buttonState);
    1992:	d9 f3       	breq	.-10     	; 0x198a <main+0x7a>
    1994:	80 91 b8 39 	lds	r24, 0x39B8	; 0x8039b8 <buttonState>
    1998:	80 d8       	rcall	.-3840   	; 0xa9a <CheckButtons>
            buttonMark = 0;
    199a:	80 93 b8 39 	sts	0x39B8, r24	; 0x8039b8 <buttonState>
            
            //GenerateLEDshow();        

            TextAdventure();
    199e:	10 92 95 38 	sts	0x3895, r1	; 0x803895 <buttonMark>
          
            //Other games & user interaction checks
            //MagnetMaze();
            BastetDictates();
    19a2:	a1 df       	rcall	.-190    	; 0x18e6 <TextAdventure>
            //MasterMind-ishThing(); //Not sure if to be implemented
            //LanyardCode();
            //MakeFriends();
             
            //Check light sensor status (added hysteresis to preserve writing cycles to internal EEPROM)
            if (adcPhot < 10) WriteStatusBit(116, 1);
    19a4:	89 da       	rcall	.-2798   	; 0xeb8 <BastetDictates>
    19a6:	80 91 12 3a 	lds	r24, 0x3A12	; 0x803a12 <adcPhot>
    19aa:	90 91 13 3a 	lds	r25, 0x3A13	; 0x803a13 <adcPhot+0x1>
    19ae:	0a 97       	sbiw	r24, 0x0a	; 10
    19b0:	18 f4       	brcc	.+6      	; 0x19b8 <main+0xa8>
    19b2:	61 e0       	ldi	r22, 0x01	; 1
    19b4:	84 e7       	ldi	r24, 0x74	; 116
            if (adcPhot > 100) WriteStatusBit(116, 0);
    19b6:	9e d9       	rcall	.-3268   	; 0xcf4 <WriteStatusBit>
    19b8:	80 91 12 3a 	lds	r24, 0x3A12	; 0x803a12 <adcPhot>
    19bc:	90 91 13 3a 	lds	r25, 0x3A13	; 0x803a13 <adcPhot+0x1>
    19c0:	85 36       	cpi	r24, 0x65	; 101
    19c2:	91 05       	cpc	r25, r1
    19c4:	10 f3       	brcs	.-60     	; 0x198a <main+0x7a>
    19c6:	60 e0       	ldi	r22, 0x00	; 0
    19c8:	84 e7       	ldi	r24, 0x74	; 116
    19ca:	94 d9       	rcall	.-3288   	; 0xcf4 <WriteStatusBit>
    19cc:	de cf       	rjmp	.-68     	; 0x198a <main+0x7a>

000019ce <__udivmodhi4>:
    19ce:	aa 1b       	sub	r26, r26
    19d0:	bb 1b       	sub	r27, r27
    19d2:	51 e1       	ldi	r21, 0x11	; 17
    19d4:	07 c0       	rjmp	.+14     	; 0x19e4 <__udivmodhi4_ep>

000019d6 <__udivmodhi4_loop>:
    19d6:	aa 1f       	adc	r26, r26
    19d8:	bb 1f       	adc	r27, r27
    19da:	a6 17       	cp	r26, r22
    19dc:	b7 07       	cpc	r27, r23
    19de:	10 f0       	brcs	.+4      	; 0x19e4 <__udivmodhi4_ep>
    19e0:	a6 1b       	sub	r26, r22
    19e2:	b7 0b       	sbc	r27, r23

000019e4 <__udivmodhi4_ep>:
    19e4:	88 1f       	adc	r24, r24
    19e6:	99 1f       	adc	r25, r25
    19e8:	5a 95       	dec	r21
    19ea:	a9 f7       	brne	.-22     	; 0x19d6 <__udivmodhi4_loop>
    19ec:	80 95       	com	r24
    19ee:	90 95       	com	r25
    19f0:	bc 01       	movw	r22, r24
    19f2:	cd 01       	movw	r24, r26
    19f4:	08 95       	ret

000019f6 <__umulhisi3>:
    19f6:	a2 9f       	mul	r26, r18
    19f8:	b0 01       	movw	r22, r0
    19fa:	b3 9f       	mul	r27, r19
    19fc:	c0 01       	movw	r24, r0
    19fe:	a3 9f       	mul	r26, r19
    1a00:	70 0d       	add	r23, r0
    1a02:	81 1d       	adc	r24, r1
    1a04:	11 24       	eor	r1, r1
    1a06:	91 1d       	adc	r25, r1
    1a08:	b2 9f       	mul	r27, r18
    1a0a:	70 0d       	add	r23, r0
    1a0c:	81 1d       	adc	r24, r1
    1a0e:	11 24       	eor	r1, r1
    1a10:	91 1d       	adc	r25, r1
    1a12:	08 95       	ret

00001a14 <_exit>:
    1a14:	f8 94       	cli

00001a16 <__stop_program>:
    1a16:	ff cf       	rjmp	.-2      	; 0x1a16 <__stop_program>
