
ISR_IO.elf:     file format elf32-avr

Sections:
Idx Name          Size      VMA       LMA       File off  Algn
  0 .data         00000090  00803800  00001a3a  00001aee  2**0
                  CONTENTS, ALLOC, LOAD, DATA
  1 .text         000019fc  00000000  00000000  000000b4  2**1
                  CONTENTS, ALLOC, LOAD, READONLY, CODE
  2 .rodata       0000003e  000099fc  000019fc  00001ab0  2**0
                  CONTENTS, ALLOC, LOAD, READONLY, DATA
  3 .bss          00000281  00803890  00803890  00001b7e  2**0
                  ALLOC
  4 .comment      00000030  00000000  00000000  00001b7e  2**0
                  CONTENTS, READONLY
  5 .note.gnu.avr.deviceinfo 00000040  00000000  00000000  00001bb0  2**2
                  CONTENTS, READONLY
  6 .debug_aranges 00000250  00000000  00000000  00001bf0  2**0
                  CONTENTS, READONLY, DEBUGGING
  7 .debug_info   000042d0  00000000  00000000  00001e40  2**0
                  CONTENTS, READONLY, DEBUGGING
  8 .debug_abbrev 000022a1  00000000  00000000  00006110  2**0
                  CONTENTS, READONLY, DEBUGGING
  9 .debug_line   00001d9a  00000000  00000000  000083b1  2**0
                  CONTENTS, READONLY, DEBUGGING
 10 .debug_frame  0000078c  00000000  00000000  0000a14c  2**2
                  CONTENTS, READONLY, DEBUGGING
 11 .debug_str    00001702  00000000  00000000  0000a8d8  2**0
                  CONTENTS, READONLY, DEBUGGING
 12 .debug_loc    00002366  00000000  00000000  0000bfda  2**0
                  CONTENTS, READONLY, DEBUGGING
 13 .debug_ranges 00000290  00000000  00000000  0000e340  2**0
                  CONTENTS, READONLY, DEBUGGING

Disassembly of section .text:

00000000 <__vectors>:
       0:	3d c0       	rjmp	.+122    	; 0x7c <__ctors_end>
       2:	00 00       	nop
       4:	58 c0       	rjmp	.+176    	; 0xb6 <__bad_interrupt>
       6:	00 00       	nop
       8:	56 c0       	rjmp	.+172    	; 0xb6 <__bad_interrupt>
       a:	00 00       	nop
       c:	54 c0       	rjmp	.+168    	; 0xb6 <__bad_interrupt>
       e:	00 00       	nop
      10:	52 c0       	rjmp	.+164    	; 0xb6 <__bad_interrupt>
      12:	00 00       	nop
      14:	50 c0       	rjmp	.+160    	; 0xb6 <__bad_interrupt>
      16:	00 00       	nop
      18:	5b c4       	rjmp	.+2230   	; 0x8d0 <__vector_6>
      1a:	00 00       	nop
      1c:	ae c4       	rjmp	.+2396   	; 0x97a <__vector_7>
      1e:	00 00       	nop
      20:	af c2       	rjmp	.+1374   	; 0x580 <__vector_8>
      22:	00 00       	nop
      24:	48 c0       	rjmp	.+144    	; 0xb6 <__bad_interrupt>
      26:	00 00       	nop
      28:	46 c0       	rjmp	.+140    	; 0xb6 <__bad_interrupt>
      2a:	00 00       	nop
      2c:	44 c0       	rjmp	.+136    	; 0xb6 <__bad_interrupt>
      2e:	00 00       	nop
      30:	42 c0       	rjmp	.+132    	; 0xb6 <__bad_interrupt>
      32:	00 00       	nop
      34:	f9 c2       	rjmp	.+1522   	; 0x628 <__vector_13>
      36:	00 00       	nop
      38:	2a c3       	rjmp	.+1620   	; 0x68e <__vector_14>
      3a:	00 00       	nop
      3c:	3c c0       	rjmp	.+120    	; 0xb6 <__bad_interrupt>
      3e:	00 00       	nop
      40:	3a c0       	rjmp	.+116    	; 0xb6 <__bad_interrupt>
      42:	00 00       	nop
      44:	38 c0       	rjmp	.+112    	; 0xb6 <__bad_interrupt>
      46:	00 00       	nop
      48:	36 c0       	rjmp	.+108    	; 0xb6 <__bad_interrupt>
      4a:	00 00       	nop
      4c:	34 c0       	rjmp	.+104    	; 0xb6 <__bad_interrupt>
      4e:	00 00       	nop
      50:	c1 c3       	rjmp	.+1922   	; 0x7d4 <__vector_20>
      52:	00 00       	nop
      54:	30 c0       	rjmp	.+96     	; 0xb6 <__bad_interrupt>
      56:	00 00       	nop
      58:	eb c3       	rjmp	.+2006   	; 0x830 <__vector_22>
      5a:	00 00       	nop
      5c:	2c c0       	rjmp	.+88     	; 0xb6 <__bad_interrupt>
      5e:	00 00       	nop
      60:	2a c0       	rjmp	.+84     	; 0xb6 <__bad_interrupt>
      62:	00 00       	nop
      64:	28 c0       	rjmp	.+80     	; 0xb6 <__bad_interrupt>
      66:	00 00       	nop
      68:	26 c0       	rjmp	.+76     	; 0xb6 <__bad_interrupt>
      6a:	00 00       	nop
      6c:	63 c3       	rjmp	.+1734   	; 0x734 <__vector_27>
      6e:	00 00       	nop
      70:	95 c3       	rjmp	.+1834   	; 0x79c <__vector_28>
      72:	00 00       	nop
      74:	20 c0       	rjmp	.+64     	; 0xb6 <__bad_interrupt>
      76:	00 00       	nop
      78:	1e c0       	rjmp	.+60     	; 0xb6 <__bad_interrupt>
	...

0000007c <__ctors_end>:
      7c:	11 24       	eor	r1, r1
      7e:	1f be       	out	0x3f, r1	; 63
      80:	cf ef       	ldi	r28, 0xFF	; 255
      82:	cd bf       	out	0x3d, r28	; 61
      84:	df e3       	ldi	r29, 0x3F	; 63
      86:	de bf       	out	0x3e, r29	; 62

00000088 <__do_copy_data>:
      88:	18 e3       	ldi	r17, 0x38	; 56
      8a:	a0 e0       	ldi	r26, 0x00	; 0
      8c:	b8 e3       	ldi	r27, 0x38	; 56
      8e:	ea e3       	ldi	r30, 0x3A	; 58
      90:	fa e1       	ldi	r31, 0x1A	; 26
      92:	02 c0       	rjmp	.+4      	; 0x98 <__do_copy_data+0x10>
      94:	05 90       	lpm	r0, Z+
      96:	0d 92       	st	X+, r0
      98:	a0 39       	cpi	r26, 0x90	; 144
      9a:	b1 07       	cpc	r27, r17
      9c:	d9 f7       	brne	.-10     	; 0x94 <__do_copy_data+0xc>

0000009e <__do_clear_bss>:
      9e:	2b e3       	ldi	r18, 0x3B	; 59
      a0:	a0 e9       	ldi	r26, 0x90	; 144
      a2:	b8 e3       	ldi	r27, 0x38	; 56
      a4:	01 c0       	rjmp	.+2      	; 0xa8 <.do_clear_bss_start>

000000a6 <.do_clear_bss_loop>:
      a6:	1d 92       	st	X+, r1

000000a8 <.do_clear_bss_start>:
      a8:	a1 31       	cpi	r26, 0x11	; 17
      aa:	b2 07       	cpc	r27, r18
      ac:	e1 f7       	brne	.-8      	; 0xa6 <.do_clear_bss_loop>
      ae:	0e 94 56 0c 	call	0x18ac	; 0x18ac <main>
      b2:	0c 94 fc 0c 	jmp	0x19f8	; 0x19f8 <_exit>

000000b6 <__bad_interrupt>:
      b6:	a4 cf       	rjmp	.-184    	; 0x0 <__vectors>

000000b8 <I2C_init>:
// the Atmel device documentation mentions a special command for repeated start TWI_MCMD_REPSTART_gc,
// but this is not used in Atmel's demo code, so we don't use it either

void I2C_rep_start(uint8_t shifted_addr)						    // send repeated start, device_addr + LSB set if READ
{
	TWI0.MADDR = shifted_addr;	
      b8:	81 e0       	ldi	r24, 0x01	; 1
      ba:	80 93 22 04 	sts	0x0422, r24	; 0x800422 <__TEXT_REGION_LENGTH__+0x700422>
      be:	e6 e2       	ldi	r30, 0x26	; 38
      c0:	f4 e0       	ldi	r31, 0x04	; 4
      c2:	80 83       	st	Z, r24
      c4:	10 92 30 04 	sts	0x0430, r1	; 0x800430 <__TEXT_REGION_LENGTH__+0x700430>
      c8:	a1 e2       	ldi	r26, 0x21	; 33
      ca:	b4 e0       	ldi	r27, 0x04	; 4
      cc:	92 e0       	ldi	r25, 0x02	; 2
      ce:	9c 93       	st	X, r25
      d0:	90 83       	st	Z, r25
      d2:	10 92 31 04 	sts	0x0431, r1	; 0x800431 <__TEXT_REGION_LENGTH__+0x700431>
      d6:	e0 e1       	ldi	r30, 0x10	; 16
      d8:	f8 e0       	ldi	r31, 0x08	; 8
      da:	9d e2       	ldi	r25, 0x2D	; 45
      dc:	96 83       	std	Z+6, r25	; 0x06
      de:	98 e0       	ldi	r25, 0x08	; 8
      e0:	94 83       	std	Z+4, r25	; 0x04
      e2:	83 83       	std	Z+3, r24	; 0x03
      e4:	8c 93       	st	X, r24
      e6:	85 81       	ldd	r24, Z+5	; 0x05
      e8:	81 60       	ori	r24, 0x01	; 1
      ea:	85 83       	std	Z+5, r24	; 0x05
      ec:	85 81       	ldd	r24, Z+5	; 0x05
      ee:	84 6c       	ori	r24, 0xC4	; 196
      f0:	85 83       	std	Z+5, r24	; 0x05
      f2:	08 95       	ret

000000f4 <I2C_recover>:
      f4:	e0 e1       	ldi	r30, 0x10	; 16
      f6:	f8 e0       	ldi	r31, 0x08	; 8
      f8:	84 81       	ldd	r24, Z+4	; 0x04
      fa:	88 60       	ori	r24, 0x08	; 8
      fc:	84 83       	std	Z+4, r24	; 0x04
      fe:	13 82       	std	Z+3, r1	; 0x03
     100:	82 e0       	ldi	r24, 0x02	; 2
     102:	80 93 22 04 	sts	0x0422, r24	; 0x800422 <__TEXT_REGION_LENGTH__+0x700422>
     106:	89 e0       	ldi	r24, 0x09	; 9
     108:	a1 e2       	ldi	r26, 0x21	; 33
     10a:	b4 e0       	ldi	r27, 0x04	; 4
     10c:	91 e0       	ldi	r25, 0x01	; 1
     10e:	e2 e2       	ldi	r30, 0x22	; 34
     110:	f4 e0       	ldi	r31, 0x04	; 4
     112:	9c 93       	st	X, r25
     114:	20 e1       	ldi	r18, 0x10	; 16
     116:	2a 95       	dec	r18
     118:	f1 f7       	brne	.-4      	; 0x116 <I2C_recover+0x22>
     11a:	00 c0       	rjmp	.+0      	; 0x11c <I2C_recover+0x28>
     11c:	90 83       	st	Z, r25
     11e:	20 e1       	ldi	r18, 0x10	; 16
     120:	2a 95       	dec	r18
     122:	f1 f7       	brne	.-4      	; 0x120 <I2C_recover+0x2c>
     124:	00 c0       	rjmp	.+0      	; 0x126 <I2C_recover+0x32>
     126:	81 50       	subi	r24, 0x01	; 1
     128:	a1 f7       	brne	.-24     	; 0x112 <I2C_recover+0x1e>
     12a:	e0 e1       	ldi	r30, 0x10	; 16
     12c:	f8 e0       	ldi	r31, 0x08	; 8
     12e:	28 e0       	ldi	r18, 0x08	; 8
     130:	24 83       	std	Z+4, r18	; 0x04
     132:	81 e0       	ldi	r24, 0x01	; 1
     134:	83 83       	std	Z+3, r24	; 0x03
     136:	a1 e2       	ldi	r26, 0x21	; 33
     138:	b4 e0       	ldi	r27, 0x04	; 4
     13a:	92 e0       	ldi	r25, 0x02	; 2
     13c:	9c 93       	st	X, r25
     13e:	95 81       	ldd	r25, Z+5	; 0x05
     140:	91 60       	ori	r25, 0x01	; 1
     142:	95 83       	std	Z+5, r25	; 0x05
     144:	95 81       	ldd	r25, Z+5	; 0x05
     146:	94 6c       	ori	r25, 0xC4	; 196
     148:	95 83       	std	Z+5, r25	; 0x05
     14a:	24 83       	std	Z+4, r18	; 0x04
     14c:	83 83       	std	Z+3, r24	; 0x03
     14e:	8c 93       	st	X, r24
     150:	85 81       	ldd	r24, Z+5	; 0x05
     152:	81 60       	ori	r24, 0x01	; 1
     154:	85 83       	std	Z+5, r24	; 0x05
     156:	85 81       	ldd	r24, Z+5	; 0x05
     158:	84 6c       	ori	r24, 0xC4	; 196
     15a:	85 83       	std	Z+5, r24	; 0x05
     15c:	08 95       	ret

0000015e <I2C_start>:
     15e:	28 2f       	mov	r18, r24
     160:	e0 e1       	ldi	r30, 0x10	; 16
     162:	f8 e0       	ldi	r31, 0x08	; 8
     164:	95 81       	ldd	r25, Z+5	; 0x05
     166:	90 6c       	ori	r25, 0xC0	; 192
     168:	95 83       	std	Z+5, r25	; 0x05
     16a:	95 81       	ldd	r25, Z+5	; 0x05
     16c:	89 2f       	mov	r24, r25
     16e:	84 70       	andi	r24, 0x04	; 4
     170:	92 fd       	sbrc	r25, 2
     172:	03 c0       	rjmp	.+6      	; 0x17a <I2C_start+0x1c>
     174:	20 93 17 08 	sts	0x0817, r18	; 0x800817 <__TEXT_REGION_LENGTH__+0x700817>
     178:	08 95       	ret
     17a:	84 e0       	ldi	r24, 0x04	; 4
     17c:	08 95       	ret

0000017e <I2C_wait_ACK>:
     17e:	8c e0       	ldi	r24, 0x0C	; 12
     180:	80 93 48 3a 	sts	0x3A48, r24	; 0x803a48 <timeout_I2C>
     184:	e0 e1       	ldi	r30, 0x10	; 16
     186:	f8 e0       	ldi	r31, 0x08	; 8
     188:	04 c0       	rjmp	.+8      	; 0x192 <I2C_wait_ACK+0x14>
     18a:	80 91 48 3a 	lds	r24, 0x3A48	; 0x803a48 <timeout_I2C>
     18e:	88 23       	and	r24, r24
     190:	b9 f0       	breq	.+46     	; 0x1c0 <I2C_wait_ACK+0x42>
     192:	85 81       	ldd	r24, Z+5	; 0x05
     194:	88 23       	and	r24, r24
     196:	1c f0       	brlt	.+6      	; 0x19e <I2C_wait_ACK+0x20>
     198:	85 81       	ldd	r24, Z+5	; 0x05
     19a:	86 ff       	sbrs	r24, 6
     19c:	f6 cf       	rjmp	.-20     	; 0x18a <I2C_wait_ACK+0xc>
     19e:	e0 e1       	ldi	r30, 0x10	; 16
     1a0:	f8 e0       	ldi	r31, 0x08	; 8
     1a2:	85 81       	ldd	r24, Z+5	; 0x05
     1a4:	80 6c       	ori	r24, 0xC0	; 192
     1a6:	85 83       	std	Z+5, r24	; 0x05
     1a8:	85 81       	ldd	r24, Z+5	; 0x05
     1aa:	82 fd       	sbrc	r24, 2
     1ac:	0b c0       	rjmp	.+22     	; 0x1c4 <I2C_wait_ACK+0x46>
     1ae:	80 91 15 08 	lds	r24, 0x0815	; 0x800815 <__TEXT_REGION_LENGTH__+0x700815>
     1b2:	83 fd       	sbrc	r24, 3
     1b4:	09 c0       	rjmp	.+18     	; 0x1c8 <I2C_wait_ACK+0x4a>
     1b6:	80 91 15 08 	lds	r24, 0x0815	; 0x800815 <__TEXT_REGION_LENGTH__+0x700815>
     1ba:	82 95       	swap	r24
     1bc:	81 70       	andi	r24, 0x01	; 1
     1be:	08 95       	ret
     1c0:	8f ef       	ldi	r24, 0xFF	; 255
     1c2:	08 95       	ret
     1c4:	84 e0       	ldi	r24, 0x04	; 4
     1c6:	08 95       	ret
     1c8:	82 e0       	ldi	r24, 0x02	; 2
     1ca:	08 95       	ret

000001cc <I2C_read>:
}

uint8_t	I2C_read(uint8_t *data, uint8_t ack_flag)					// read data, ack_flag 0: send ACK, 1: send NACK, returns status
{
     1cc:	dc 01       	movw	r26, r24
	timeout_I2C = READ_TIMEOUT;										// reset timeout counter, will be decremented by LED matrix interrupt
     1ce:	9c e0       	ldi	r25, 0x0C	; 12
     1d0:	90 93 48 3a 	sts	0x3A48, r25	; 0x803a48 <timeout_I2C>
	if ((TWI0.MSTATUS & TWI_BUSSTATE_gm) == TWI_BUSSTATE_OWNER_gc)	// if master controls bus
     1d4:	90 91 15 08 	lds	r25, 0x0815	; 0x800815 <__TEXT_REGION_LENGTH__+0x700815>
     1d8:	89 2f       	mov	r24, r25
     1da:	83 70       	andi	r24, 0x03	; 3
     1dc:	82 30       	cpi	r24, 0x02	; 2
     1de:	39 f0       	breq	.+14     	; 0x1ee <I2C_read+0x22>
		else		TWI0.MCTRLB |= TWI_ACKACT_NACK_gc;				// setup NACK (last byte read)
		*data = TWI0.MDATA;
		if (ack_flag == 0) TWI0.MCTRLB |= TWI_MCMD_RECVTRANS_gc;	// send ACK, more bytes to follow					
		return 0;
	}
	else return 8;													// master does not control bus
     1e0:	88 e0       	ldi	r24, 0x08	; 8
     1e2:	08 95       	ret
	timeout_I2C = READ_TIMEOUT;										// reset timeout counter, will be decremented by LED matrix interrupt
	if ((TWI0.MSTATUS & TWI_BUSSTATE_gm) == TWI_BUSSTATE_OWNER_gc)	// if master controls bus
	{		
		while (!(TWI0.MSTATUS & TWI_RIF_bm))						// wait for RIF set (data byte received)
		{
			if (!(timeout_I2C)) return 0xff;			            // return timeout error
     1e4:	90 91 48 3a 	lds	r25, 0x3A48	; 0x803a48 <timeout_I2C>
     1e8:	91 11       	cpse	r25, r1
     1ea:	03 c0       	rjmp	.+6      	; 0x1f2 <I2C_read+0x26>
     1ec:	2a c0       	rjmp	.+84     	; 0x242 <I2C_read+0x76>
uint8_t	I2C_read(uint8_t *data, uint8_t ack_flag)					// read data, ack_flag 0: send ACK, 1: send NACK, returns status
{
	timeout_I2C = READ_TIMEOUT;										// reset timeout counter, will be decremented by LED matrix interrupt
	if ((TWI0.MSTATUS & TWI_BUSSTATE_gm) == TWI_BUSSTATE_OWNER_gc)	// if master controls bus
	{		
		while (!(TWI0.MSTATUS & TWI_RIF_bm))						// wait for RIF set (data byte received)
     1ee:	e0 e1       	ldi	r30, 0x10	; 16
     1f0:	f8 e0       	ldi	r31, 0x08	; 8
     1f2:	95 81       	ldd	r25, Z+5	; 0x05
     1f4:	99 23       	and	r25, r25
     1f6:	b4 f7       	brge	.-20     	; 0x1e4 <I2C_read+0x18>
		{
			if (!(timeout_I2C)) return 0xff;			            // return timeout error
		}
		TWI0.MSTATUS |= (TWI_RIF_bm | TWI_WIF_bm);					// clear Read and Write interrupt flags	
     1f8:	e0 e1       	ldi	r30, 0x10	; 16
     1fa:	f8 e0       	ldi	r31, 0x08	; 8
     1fc:	95 81       	ldd	r25, Z+5	; 0x05
     1fe:	90 6c       	ori	r25, 0xC0	; 192
     200:	95 83       	std	Z+5, r25	; 0x05
		if (TWI0.MSTATUS & TWI_BUSERR_bm) return 4;					// Bus Error, abort
     202:	95 81       	ldd	r25, Z+5	; 0x05
     204:	92 fd       	sbrc	r25, 2
     206:	1f c0       	rjmp	.+62     	; 0x246 <I2C_read+0x7a>
		if (TWI0.MSTATUS & TWI_ARBLOST_bm) return 2;				// Arbitration Lost, abort
     208:	90 91 15 08 	lds	r25, 0x0815	; 0x800815 <__TEXT_REGION_LENGTH__+0x700815>
     20c:	93 fd       	sbrc	r25, 3
     20e:	1e c0       	rjmp	.+60     	; 0x24c <I2C_read+0x80>
		if (TWI0.MSTATUS & TWI_RXACK_bm) return 1;					// Slave replied with NACK, abort				
     210:	90 91 15 08 	lds	r25, 0x0815	; 0x800815 <__TEXT_REGION_LENGTH__+0x700815>
     214:	89 2f       	mov	r24, r25
     216:	80 71       	andi	r24, 0x10	; 16
     218:	94 fd       	sbrc	r25, 4
     21a:	17 c0       	rjmp	.+46     	; 0x24a <I2C_read+0x7e>
		if (ack_flag == 0) TWI0.MCTRLB &= ~(1 << TWI_ACKACT_bp);	// setup ACK
     21c:	61 11       	cpse	r22, r1
     21e:	09 c0       	rjmp	.+18     	; 0x232 <I2C_read+0x66>
     220:	94 81       	ldd	r25, Z+4	; 0x04
     222:	9b 7f       	andi	r25, 0xFB	; 251
     224:	94 83       	std	Z+4, r25	; 0x04
		else		TWI0.MCTRLB |= TWI_ACKACT_NACK_gc;				// setup NACK (last byte read)
		*data = TWI0.MDATA;
     226:	90 85       	ldd	r25, Z+8	; 0x08
     228:	9c 93       	st	X, r25
		if (ack_flag == 0) TWI0.MCTRLB |= TWI_MCMD_RECVTRANS_gc;	// send ACK, more bytes to follow					
     22a:	94 81       	ldd	r25, Z+4	; 0x04
     22c:	92 60       	ori	r25, 0x02	; 2
     22e:	94 83       	std	Z+4, r25	; 0x04
     230:	08 95       	ret
		TWI0.MSTATUS |= (TWI_RIF_bm | TWI_WIF_bm);					// clear Read and Write interrupt flags	
		if (TWI0.MSTATUS & TWI_BUSERR_bm) return 4;					// Bus Error, abort
		if (TWI0.MSTATUS & TWI_ARBLOST_bm) return 2;				// Arbitration Lost, abort
		if (TWI0.MSTATUS & TWI_RXACK_bm) return 1;					// Slave replied with NACK, abort				
		if (ack_flag == 0) TWI0.MCTRLB &= ~(1 << TWI_ACKACT_bp);	// setup ACK
		else		TWI0.MCTRLB |= TWI_ACKACT_NACK_gc;				// setup NACK (last byte read)
     232:	e0 e1       	ldi	r30, 0x10	; 16
     234:	f8 e0       	ldi	r31, 0x08	; 8
     236:	94 81       	ldd	r25, Z+4	; 0x04
     238:	94 60       	ori	r25, 0x04	; 4
     23a:	94 83       	std	Z+4, r25	; 0x04
		*data = TWI0.MDATA;
     23c:	90 85       	ldd	r25, Z+8	; 0x08
     23e:	9c 93       	st	X, r25
     240:	08 95       	ret
	timeout_I2C = READ_TIMEOUT;										// reset timeout counter, will be decremented by LED matrix interrupt
	if ((TWI0.MSTATUS & TWI_BUSSTATE_gm) == TWI_BUSSTATE_OWNER_gc)	// if master controls bus
	{		
		while (!(TWI0.MSTATUS & TWI_RIF_bm))						// wait for RIF set (data byte received)
		{
			if (!(timeout_I2C)) return 0xff;			            // return timeout error
     242:	8f ef       	ldi	r24, 0xFF	; 255
     244:	08 95       	ret
		}
		TWI0.MSTATUS |= (TWI_RIF_bm | TWI_WIF_bm);					// clear Read and Write interrupt flags	
		if (TWI0.MSTATUS & TWI_BUSERR_bm) return 4;					// Bus Error, abort
     246:	84 e0       	ldi	r24, 0x04	; 4
     248:	08 95       	ret
		if (TWI0.MSTATUS & TWI_ARBLOST_bm) return 2;				// Arbitration Lost, abort
		if (TWI0.MSTATUS & TWI_RXACK_bm) return 1;					// Slave replied with NACK, abort				
     24a:	81 e0       	ldi	r24, 0x01	; 1
		*data = TWI0.MDATA;
		if (ack_flag == 0) TWI0.MCTRLB |= TWI_MCMD_RECVTRANS_gc;	// send ACK, more bytes to follow					
		return 0;
	}
	else return 8;													// master does not control bus
}
     24c:	08 95       	ret

0000024e <I2C_write>:

uint8_t I2C_write(uint8_t *data)									// write data, return status
{
     24e:	fc 01       	movw	r30, r24
	timeout_I2C = WRITE_TIMEOUT;									// reset timeout counter, will be decremented by LED matrix interrupt
     250:	9c e0       	ldi	r25, 0x0C	; 12
     252:	90 93 48 3a 	sts	0x3A48, r25	; 0x803a48 <timeout_I2C>
	if ((TWI0.MSTATUS & TWI_BUSSTATE_gm) == TWI_BUSSTATE_OWNER_gc)	// if master controls bus
     256:	90 91 15 08 	lds	r25, 0x0815	; 0x800815 <__TEXT_REGION_LENGTH__+0x700815>
     25a:	93 70       	andi	r25, 0x03	; 3
     25c:	92 30       	cpi	r25, 0x02	; 2
     25e:	b1 f4       	brne	.+44     	; 0x28c <I2C_write+0x3e>
	{
		TWI0.MDATA = *data;		
     260:	80 81       	ld	r24, Z
     262:	80 93 18 08 	sts	0x0818, r24	; 0x800818 <__TEXT_REGION_LENGTH__+0x700818>
		while (!(TWI0.MSTATUS & TWI_WIF_bm))						// wait until WIF set, status register contains ACK/NACK bit
     266:	e0 e1       	ldi	r30, 0x10	; 16
     268:	f8 e0       	ldi	r31, 0x08	; 8
     26a:	04 c0       	rjmp	.+8      	; 0x274 <I2C_write+0x26>
		{
			if (!(timeout_I2C)) return 0xff;			            // return timeout error
     26c:	80 91 48 3a 	lds	r24, 0x3A48	; 0x803a48 <timeout_I2C>
     270:	88 23       	and	r24, r24
     272:	71 f0       	breq	.+28     	; 0x290 <I2C_write+0x42>
{
	timeout_I2C = WRITE_TIMEOUT;									// reset timeout counter, will be decremented by LED matrix interrupt
	if ((TWI0.MSTATUS & TWI_BUSSTATE_gm) == TWI_BUSSTATE_OWNER_gc)	// if master controls bus
	{
		TWI0.MDATA = *data;		
		while (!(TWI0.MSTATUS & TWI_WIF_bm))						// wait until WIF set, status register contains ACK/NACK bit
     274:	85 81       	ldd	r24, Z+5	; 0x05
     276:	86 ff       	sbrs	r24, 6
     278:	f9 cf       	rjmp	.-14     	; 0x26c <I2C_write+0x1e>
		{
			if (!(timeout_I2C)) return 0xff;			            // return timeout error
		}
		if (TWI0.MSTATUS & TWI_BUSERR_bm) return 4;					// Bus Error, abort
     27a:	80 91 15 08 	lds	r24, 0x0815	; 0x800815 <__TEXT_REGION_LENGTH__+0x700815>
     27e:	82 fd       	sbrc	r24, 2
     280:	09 c0       	rjmp	.+18     	; 0x294 <I2C_write+0x46>
		if (TWI0.MSTATUS & TWI_RXACK_bm) return 1;					// Slave replied with NACK, abort
     282:	80 91 15 08 	lds	r24, 0x0815	; 0x800815 <__TEXT_REGION_LENGTH__+0x700815>
	if ((TWI0.MSTATUS & TWI_BUSSTATE_gm) == TWI_BUSSTATE_OWNER_gc)	// if master controls bus
	{
		TWI0.MDATA = *data;		
		while (!(TWI0.MSTATUS & TWI_WIF_bm))						// wait until WIF set, status register contains ACK/NACK bit
		{
			if (!(timeout_I2C)) return 0xff;			            // return timeout error
     286:	82 95       	swap	r24
     288:	81 70       	andi	r24, 0x01	; 1
     28a:	08 95       	ret
		}
		if (TWI0.MSTATUS & TWI_BUSERR_bm) return 4;					// Bus Error, abort
		if (TWI0.MSTATUS & TWI_RXACK_bm) return 1;					// Slave replied with NACK, abort
		return 0;													// no error	
	}
	else return 8;													// master does not control bus
     28c:	88 e0       	ldi	r24, 0x08	; 8
     28e:	08 95       	ret
	if ((TWI0.MSTATUS & TWI_BUSSTATE_gm) == TWI_BUSSTATE_OWNER_gc)	// if master controls bus
	{
		TWI0.MDATA = *data;		
		while (!(TWI0.MSTATUS & TWI_WIF_bm))						// wait until WIF set, status register contains ACK/NACK bit
		{
			if (!(timeout_I2C)) return 0xff;			            // return timeout error
     290:	8f ef       	ldi	r24, 0xFF	; 255
     292:	08 95       	ret
		}
		if (TWI0.MSTATUS & TWI_BUSERR_bm) return 4;					// Bus Error, abort
     294:	84 e0       	ldi	r24, 0x04	; 4
		if (TWI0.MSTATUS & TWI_RXACK_bm) return 1;					// Slave replied with NACK, abort
		return 0;													// no error	
	}
	else return 8;													// master does not control bus
}
     296:	08 95       	ret

00000298 <I2C_stop>:

void I2C_stop()
{
	TWI0.MCTRLB |= TWI_MCMD_STOP_gc;
     298:	e0 e1       	ldi	r30, 0x10	; 16
     29a:	f8 e0       	ldi	r31, 0x08	; 8
     29c:	84 81       	ldd	r24, Z+4	; 0x04
     29e:	83 60       	ori	r24, 0x03	; 3
     2a0:	84 83       	std	Z+4, r24	; 0x04
     2a2:	08 95       	ret

000002a4 <I2C_read_bytes>:
// addr_ptr		address of first array element to transfer
// slave reg	starting slave register
// num_bytes	number of bytes to transfer

uint8_t	I2C_read_bytes(uint8_t slave_addr, uint8_t *reg_ptr, uint8_t reg_len, uint8_t *dat_ptr, uint8_t dat_len)
{
     2a4:	cf 92       	push	r12
     2a6:	df 92       	push	r13
     2a8:	ef 92       	push	r14
     2aa:	ff 92       	push	r15
     2ac:	0f 93       	push	r16
     2ae:	1f 93       	push	r17
     2b0:	cf 93       	push	r28
     2b2:	df 93       	push	r29
     2b4:	eb 01       	movw	r28, r22
     2b6:	c4 2e       	mov	r12, r20
     2b8:	79 01       	movw	r14, r18
	uint8_t status;
	if (dat_len > MAX_LEN) dat_len = MAX_LEN;
	status = I2C_start(slave_addr << 1);							// slave write address, LSB 0
     2ba:	18 2f       	mov	r17, r24
     2bc:	11 0f       	add	r17, r17
     2be:	81 2f       	mov	r24, r17
     2c0:	4e df       	rcall	.-356    	; 0x15e <I2C_start>
	if (status != 0) goto error;
     2c2:	81 11       	cpse	r24, r1
	status = I2C_wait_ACK();										// wait for slave ACK
     2c4:	3c c0       	rjmp	.+120    	; 0x33e <I2C_read_bytes+0x9a>
     2c6:	5b df       	rcall	.-330    	; 0x17e <I2C_wait_ACK>
	if (status == 1) {
     2c8:	81 30       	cpi	r24, 0x01	; 1
		I2C_stop();													// NACK, abort
     2ca:	19 f4       	brne	.+6      	; 0x2d2 <I2C_read_bytes+0x2e>
     2cc:	e5 df       	rcall	.-54     	; 0x298 <I2C_stop>
		return 1;
     2ce:	81 e0       	ldi	r24, 0x01	; 1
     2d0:	38 c0       	rjmp	.+112    	; 0x342 <I2C_read_bytes+0x9e>
	}
	if (status != 0) goto error;
     2d2:	81 11       	cpse	r24, r1
     2d4:	34 c0       	rjmp	.+104    	; 0x33e <I2C_read_bytes+0x9a>
    while(reg_len > 0){
     2d6:	cc 20       	and	r12, r12
     2d8:	79 f0       	breq	.+30     	; 0x2f8 <I2C_read_bytes+0x54>
     2da:	ca 94       	dec	r12
     2dc:	d1 2c       	mov	r13, r1
     2de:	8f ef       	ldi	r24, 0xFF	; 255
     2e0:	c8 1a       	sub	r12, r24
     2e2:	d8 0a       	sbc	r13, r24
     2e4:	cc 0e       	add	r12, r28
	    status = I2C_write(reg_ptr);    							// send slave start register
     2e6:	dd 1e       	adc	r13, r29
     2e8:	ce 01       	movw	r24, r28
     2ea:	b1 df       	rcall	.-158    	; 0x24e <I2C_write>
	    if (status != 0) goto error;
     2ec:	81 11       	cpse	r24, r1
     2ee:	27 c0       	rjmp	.+78     	; 0x33e <I2C_read_bytes+0x9a>
        ++reg_ptr;
     2f0:	21 96       	adiw	r28, 0x01	; 1
	if (status == 1) {
		I2C_stop();													// NACK, abort
		return 1;
	}
	if (status != 0) goto error;
    while(reg_len > 0){
     2f2:	cc 16       	cp	r12, r28
     2f4:	dd 06       	cpc	r13, r29
     2f6:	c1 f7       	brne	.-16     	; 0x2e8 <I2C_read_bytes+0x44>
     2f8:	01 34       	cpi	r16, 0x41	; 65
     2fa:	08 f0       	brcs	.+2      	; 0x2fe <I2C_read_bytes+0x5a>
     2fc:	00 e4       	ldi	r16, 0x40	; 64
	    status = I2C_write(reg_ptr);    							// send slave start register
	    if (status != 0) goto error;
        ++reg_ptr;
        --reg_len;
    }
	I2C_rep_start((slave_addr << 1) + 1);							// slave read address, LSB 1
     2fe:	1f 5f       	subi	r17, 0xFF	; 255
// the Atmel device documentation mentions a special command for repeated start TWI_MCMD_REPSTART_gc,
// but this is not used in Atmel's demo code, so we don't use it either

void I2C_rep_start(uint8_t shifted_addr)						    // send repeated start, device_addr + LSB set if READ
{
	TWI0.MADDR = shifted_addr;	
     300:	10 93 17 08 	sts	0x0817, r17	; 0x800817 <__TEXT_REGION_LENGTH__+0x700817>
	    if (status != 0) goto error;
        ++reg_ptr;
        --reg_len;
    }
	I2C_rep_start((slave_addr << 1) + 1);							// slave read address, LSB 1
	while (dat_len > 1) {
     304:	02 30       	cpi	r16, 0x02	; 2
     306:	90 f0       	brcs	.+36     	; 0x32c <I2C_read_bytes+0x88>
     308:	02 50       	subi	r16, 0x02	; 2
     30a:	c0 2f       	mov	r28, r16
     30c:	d0 e0       	ldi	r29, 0x00	; 0
     30e:	21 96       	adiw	r28, 0x01	; 1
     310:	ce 0d       	add	r28, r14
		status = I2C_read(dat_ptr, 0);								// first bytes, send ACK
     312:	df 1d       	adc	r29, r15
     314:	60 e0       	ldi	r22, 0x00	; 0
     316:	c7 01       	movw	r24, r14
     318:	59 df       	rcall	.-334    	; 0x1cc <I2C_read>
		if (status != 0) goto error;
     31a:	81 11       	cpse	r24, r1
     31c:	10 c0       	rjmp	.+32     	; 0x33e <I2C_read_bytes+0x9a>
		++dat_ptr;
     31e:	8f ef       	ldi	r24, 0xFF	; 255
     320:	e8 1a       	sub	r14, r24
     322:	f8 0a       	sbc	r15, r24
	    if (status != 0) goto error;
        ++reg_ptr;
        --reg_len;
    }
	I2C_rep_start((slave_addr << 1) + 1);							// slave read address, LSB 1
	while (dat_len > 1) {
     324:	ec 16       	cp	r14, r28
     326:	fd 06       	cpc	r15, r29
     328:	a9 f7       	brne	.-22     	; 0x314 <I2C_read_bytes+0x70>
     32a:	01 c0       	rjmp	.+2      	; 0x32e <I2C_read_bytes+0x8a>
		status = I2C_read(dat_ptr, 0);								// first bytes, send ACK
		if (status != 0) goto error;
		++dat_ptr;
		--dat_len;
	}
	status = I2C_read(dat_ptr, 1);									// single or last byte, send NACK
     32c:	e7 01       	movw	r28, r14
     32e:	61 e0       	ldi	r22, 0x01	; 1
     330:	ce 01       	movw	r24, r28
	if (status != 0) goto error;
     332:	4c df       	rcall	.-360    	; 0x1cc <I2C_read>
     334:	81 11       	cpse	r24, r1
	I2C_stop();
     336:	03 c0       	rjmp	.+6      	; 0x33e <I2C_read_bytes+0x9a>
     338:	af df       	rcall	.-162    	; 0x298 <I2C_stop>
	return 0;
     33a:	80 e0       	ldi	r24, 0x00	; 0
     33c:	02 c0       	rjmp	.+4      	; 0x342 <I2C_read_bytes+0x9e>
	
error:
	I2C_recover();													// clock out possibly stuck slave, reset master
     33e:	da de       	rcall	.-588    	; 0xf4 <I2C_recover>
     340:	8f ef       	ldi	r24, 0xFF	; 255
	return 0xff;													// flag error
     342:	df 91       	pop	r29
}
     344:	cf 91       	pop	r28
     346:	1f 91       	pop	r17
     348:	0f 91       	pop	r16
     34a:	ff 90       	pop	r15
     34c:	ef 90       	pop	r14
     34e:	df 90       	pop	r13
     350:	cf 90       	pop	r12
     352:	08 95       	ret

00000354 <Setup>:
     354:	cf 93       	push	r28
// Select "audio" input (0-2.5V)
void SelectAuIn(){
     VREF_CTRLA   = 0x22;    //0x22 for audio in/out (2.5V), 0x12 for temperature in, audio out (1.1V/2.5V)
     ADC0_CTRLA   &= ~(ADC_RESSEL_bm);
     ADC0_MUXPOS  = 0x07;    //Audio in: AIN7 at (0x07), Temperature: Internal sensor at (0x1E)
     adc0Chg = 1;
     356:	df 93       	push	r29
     358:	f8 94       	cli
     35a:	88 ed       	ldi	r24, 0xD8	; 216
     35c:	84 bf       	out	0x34, r24	; 52
     35e:	c1 e0       	ldi	r28, 0x01	; 1
     360:	c0 93 61 00 	sts	0x0061, r28	; 0x800061 <__TEXT_REGION_LENGTH__+0x700061>
     364:	8a e4       	ldi	r24, 0x4A	; 74
     366:	80 93 00 04 	sts	0x0400, r24	; 0x800400 <__TEXT_REGION_LENGTH__+0x700400>
     36a:	8c e7       	ldi	r24, 0x7C	; 124
     36c:	80 93 20 04 	sts	0x0420, r24	; 0x800420 <__TEXT_REGION_LENGTH__+0x700420>
     370:	9f e3       	ldi	r25, 0x3F	; 63
     372:	90 93 40 04 	sts	0x0440, r25	; 0x800440 <__TEXT_REGION_LENGTH__+0x700440>
     376:	e0 e5       	ldi	r30, 0x50	; 80
     378:	f4 e0       	ldi	r31, 0x04	; 4
     37a:	80 81       	ld	r24, Z
     37c:	80 68       	ori	r24, 0x80	; 128
     37e:	80 83       	st	Z, r24
     380:	e1 e5       	ldi	r30, 0x51	; 81
     382:	f4 e0       	ldi	r31, 0x04	; 4
     384:	80 81       	ld	r24, Z
     386:	80 68       	ori	r24, 0x80	; 128
     388:	80 83       	st	Z, r24
     38a:	e2 e5       	ldi	r30, 0x52	; 82
     38c:	f4 e0       	ldi	r31, 0x04	; 4
     38e:	80 81       	ld	r24, Z
     390:	80 68       	ori	r24, 0x80	; 128
     392:	80 83       	st	Z, r24
     394:	e3 e5       	ldi	r30, 0x53	; 83
     396:	f4 e0       	ldi	r31, 0x04	; 4
     398:	80 81       	ld	r24, Z
     39a:	80 68       	ori	r24, 0x80	; 128
     39c:	80 83       	st	Z, r24
     39e:	e4 e5       	ldi	r30, 0x54	; 84
     3a0:	f4 e0       	ldi	r31, 0x04	; 4
     3a2:	80 81       	ld	r24, Z
     3a4:	80 68       	ori	r24, 0x80	; 128
     3a6:	80 83       	st	Z, r24
     3a8:	e5 e5       	ldi	r30, 0x55	; 85
     3aa:	f4 e0       	ldi	r31, 0x04	; 4
     3ac:	80 81       	ld	r24, Z
     3ae:	80 68       	ori	r24, 0x80	; 128
     3b0:	80 83       	st	Z, r24
     3b2:	e2 e3       	ldi	r30, 0x32	; 50
     3b4:	f4 e0       	ldi	r31, 0x04	; 4
     3b6:	80 81       	ld	r24, Z
     3b8:	80 68       	ori	r24, 0x80	; 128
     3ba:	80 83       	st	Z, r24
     3bc:	e3 e3       	ldi	r30, 0x33	; 51
     3be:	f4 e0       	ldi	r31, 0x04	; 4
     3c0:	80 81       	ld	r24, Z
     3c2:	80 68       	ori	r24, 0x80	; 128
     3c4:	80 83       	st	Z, r24
     3c6:	e4 e3       	ldi	r30, 0x34	; 52
     3c8:	f4 e0       	ldi	r31, 0x04	; 4
     3ca:	80 81       	ld	r24, Z
     3cc:	80 68       	ori	r24, 0x80	; 128
     3ce:	80 83       	st	Z, r24
     3d0:	e5 e3       	ldi	r30, 0x35	; 53
     3d2:	f4 e0       	ldi	r31, 0x04	; 4
     3d4:	80 81       	ld	r24, Z
     3d6:	80 68       	ori	r24, 0x80	; 128
     3d8:	80 83       	st	Z, r24
     3da:	e6 e3       	ldi	r30, 0x36	; 54
     3dc:	f4 e0       	ldi	r31, 0x04	; 4
     3de:	80 81       	ld	r24, Z
     3e0:	80 68       	ori	r24, 0x80	; 128
     3e2:	80 83       	st	Z, r24
     3e4:	c0 93 01 02 	sts	0x0201, r28	; 0x800201 <__TEXT_REGION_LENGTH__+0x700201>
     3e8:	d2 e0       	ldi	r29, 0x02	; 2
     3ea:	d0 93 05 04 	sts	0x0405, r29	; 0x800405 <__TEXT_REGION_LENGTH__+0x700405>
     3ee:	2b e5       	ldi	r18, 0x5B	; 91
     3f0:	31 e0       	ldi	r19, 0x01	; 1
     3f2:	20 93 08 08 	sts	0x0808, r18	; 0x800808 <__TEXT_REGION_LENGTH__+0x700808>
     3f6:	30 93 09 08 	sts	0x0809, r19	; 0x800809 <__TEXT_REGION_LENGTH__+0x700809>
     3fa:	80 ea       	ldi	r24, 0xA0	; 160
     3fc:	80 93 05 08 	sts	0x0805, r24	; 0x800805 <__TEXT_REGION_LENGTH__+0x700805>
     400:	80 ec       	ldi	r24, 0xC0	; 192
     402:	80 93 06 08 	sts	0x0806, r24	; 0x800806 <__TEXT_REGION_LENGTH__+0x700806>
     406:	83 e0       	ldi	r24, 0x03	; 3
     408:	80 93 07 08 	sts	0x0807, r24	; 0x800807 <__TEXT_REGION_LENGTH__+0x700807>
     40c:	1c ba       	out	0x1c, r1	; 28
     40e:	1d ba       	out	0x1d, r1	; 29
     410:	1e ba       	out	0x1e, r1	; 30
     412:	1f ba       	out	0x1f, r1	; 31
     414:	c0 93 03 0a 	sts	0x0A03, r28	; 0x800a03 <__TEXT_REGION_LENGTH__+0x700a03>
     418:	e0 e0       	ldi	r30, 0x00	; 0
     41a:	fa e0       	ldi	r31, 0x0A	; 10
     41c:	88 e0       	ldi	r24, 0x08	; 8
     41e:	80 83       	st	Z, r24
     420:	90 93 02 02 	sts	0x0202, r25	; 0x800202 <__TEXT_REGION_LENGTH__+0x700202>
     424:	87 e7       	ldi	r24, 0x77	; 119
     426:	80 93 01 0a 	sts	0x0A01, r24	; 0x800a01 <__TEXT_REGION_LENGTH__+0x700a01>
     42a:	c0 93 0a 0a 	sts	0x0A0A, r28	; 0x800a0a <__TEXT_REGION_LENGTH__+0x700a0a>
     42e:	8b e0       	ldi	r24, 0x0B	; 11
     430:	80 93 05 0a 	sts	0x0A05, r24	; 0x800a05 <__TEXT_REGION_LENGTH__+0x700a05>
     434:	80 81       	ld	r24, Z
     436:	81 60       	ori	r24, 0x01	; 1
     438:	80 83       	st	Z, r24
     43a:	85 e0       	ldi	r24, 0x05	; 5
     43c:	80 93 40 0a 	sts	0x0A40, r24	; 0x800a40 <__TEXT_REGION_LENGTH__+0x700a40>
     440:	10 92 41 0a 	sts	0x0A41, r1	; 0x800a41 <__TEXT_REGION_LENGTH__+0x700a41>
     444:	8f ef       	ldi	r24, 0xFF	; 255
     446:	91 e0       	ldi	r25, 0x01	; 1
     448:	80 93 4c 0a 	sts	0x0A4C, r24	; 0x800a4c <__TEXT_REGION_LENGTH__+0x700a4c>
     44c:	90 93 4d 0a 	sts	0x0A4D, r25	; 0x800a4d <__TEXT_REGION_LENGTH__+0x700a4d>
     450:	10 92 45 0a 	sts	0x0A45, r1	; 0x800a45 <__TEXT_REGION_LENGTH__+0x700a45>
     454:	c0 93 50 0a 	sts	0x0A50, r28	; 0x800a50 <__TEXT_REGION_LENGTH__+0x700a50>
     458:	10 92 51 0a 	sts	0x0A51, r1	; 0x800a51 <__TEXT_REGION_LENGTH__+0x700a51>
     45c:	8b e8       	ldi	r24, 0x8B	; 139
     45e:	93 e0       	ldi	r25, 0x03	; 3
     460:	80 93 5c 0a 	sts	0x0A5C, r24	; 0x800a5c <__TEXT_REGION_LENGTH__+0x700a5c>
     464:	90 93 5d 0a 	sts	0x0A5D, r25	; 0x800a5d <__TEXT_REGION_LENGTH__+0x700a5d>
     468:	c0 93 55 0a 	sts	0x0A55, r28	; 0x800a55 <__TEXT_REGION_LENGTH__+0x700a55>
     46c:	25 de       	rcall	.-950    	; 0xb8 <I2C_init>
     46e:	82 e1       	ldi	r24, 0x12	; 18
     470:	80 93 a0 00 	sts	0x00A0, r24	; 0x8000a0 <__TEXT_REGION_LENGTH__+0x7000a0>
     474:	80 e2       	ldi	r24, 0x20	; 32
     476:	80 93 a2 00 	sts	0x00A2, r24	; 0x8000a2 <__TEXT_REGION_LENGTH__+0x7000a2>
     47a:	c0 93 a1 00 	sts	0x00A1, r28	; 0x8000a1 <__TEXT_REGION_LENGTH__+0x7000a1>
     47e:	e0 e0       	ldi	r30, 0x00	; 0
     480:	f6 e0       	ldi	r31, 0x06	; 6
     482:	86 e0       	ldi	r24, 0x06	; 6
     484:	80 83       	st	Z, r24
     486:	84 e4       	ldi	r24, 0x44	; 68
     488:	80 93 02 06 	sts	0x0602, r24	; 0x800602 <__TEXT_REGION_LENGTH__+0x700602>
     48c:	8e e1       	ldi	r24, 0x1E	; 30
     48e:	80 93 06 06 	sts	0x0606, r24	; 0x800606 <__TEXT_REGION_LENGTH__+0x700606>
     492:	c0 93 0a 06 	sts	0x060A, r28	; 0x80060a <__TEXT_REGION_LENGTH__+0x70060a>
     496:	80 81       	ld	r24, Z
     498:	81 60       	ori	r24, 0x01	; 1
     49a:	80 83       	st	Z, r24
     49c:	c0 93 08 06 	sts	0x0608, r28	; 0x800608 <__TEXT_REGION_LENGTH__+0x700608>
     4a0:	e0 e4       	ldi	r30, 0x40	; 64
     4a2:	f6 e0       	ldi	r31, 0x06	; 6
     4a4:	10 82       	st	Z, r1
     4a6:	d0 93 41 06 	sts	0x0641, r29	; 0x800641 <__TEXT_REGION_LENGTH__+0x700641>
     4aa:	82 e5       	ldi	r24, 0x52	; 82
     4ac:	80 93 42 06 	sts	0x0642, r24	; 0x800642 <__TEXT_REGION_LENGTH__+0x700642>
     4b0:	84 e0       	ldi	r24, 0x04	; 4
     4b2:	80 93 45 06 	sts	0x0645, r24	; 0x800645 <__TEXT_REGION_LENGTH__+0x700645>
     4b6:	80 93 46 06 	sts	0x0646, r24	; 0x800646 <__TEXT_REGION_LENGTH__+0x700646>
     4ba:	c0 93 4a 06 	sts	0x064A, r28	; 0x80064a <__TEXT_REGION_LENGTH__+0x70064a>
     4be:	80 81       	ld	r24, Z
     4c0:	81 60       	ori	r24, 0x01	; 1
     4c2:	80 83       	st	Z, r24
     4c4:	c0 93 48 06 	sts	0x0648, r28	; 0x800648 <__TEXT_REGION_LENGTH__+0x700648>
     4c8:	e0 ea       	ldi	r30, 0xA0	; 160
     4ca:	f6 e0       	ldi	r31, 0x06	; 6
     4cc:	80 e4       	ldi	r24, 0x40	; 64
     4ce:	80 83       	st	Z, r24
     4d0:	80 e8       	ldi	r24, 0x80	; 128
     4d2:	80 93 a1 06 	sts	0x06A1, r24	; 0x8006a1 <__TEXT_REGION_LENGTH__+0x7006a1>
     4d6:	80 81       	ld	r24, Z
     4d8:	81 60       	ori	r24, 0x01	; 1
     4da:	80 83       	st	Z, r24
     4dc:	e1 e4       	ldi	r30, 0x41	; 65
     4de:	f1 e0       	ldi	r31, 0x01	; 1
     4e0:	80 81       	ld	r24, Z
     4e2:	80 fd       	sbrc	r24, 0
     4e4:	fd cf       	rjmp	.-6      	; 0x4e0 <__LOCK_REGION_LENGTH__+0xe0>
     4e6:	80 e3       	ldi	r24, 0x30	; 48
     4e8:	80 93 40 01 	sts	0x0140, r24	; 0x800140 <__TEXT_REGION_LENGTH__+0x700140>
     4ec:	10 92 47 01 	sts	0x0147, r1	; 0x800147 <__TEXT_REGION_LENGTH__+0x700147>
     4f0:	e1 e4       	ldi	r30, 0x41	; 65
     4f2:	f1 e0       	ldi	r31, 0x01	; 1
     4f4:	80 81       	ld	r24, Z
     4f6:	82 fd       	sbrc	r24, 2
     4f8:	fd cf       	rjmp	.-6      	; 0x4f4 <__LOCK_REGION_LENGTH__+0xf4>
     4fa:	ea e4       	ldi	r30, 0x4A	; 74
     4fc:	f1 e0       	ldi	r31, 0x01	; 1
     4fe:	80 e0       	ldi	r24, 0x00	; 0
     500:	98 e7       	ldi	r25, 0x78	; 120
     502:	80 83       	st	Z, r24
     504:	91 83       	std	Z+1, r25	; 0x01
     506:	80 91 48 01 	lds	r24, 0x0148	; 0x800148 <__TEXT_REGION_LENGTH__+0x700148>
     50a:	90 91 49 01 	lds	r25, 0x0149	; 0x800149 <__TEXT_REGION_LENGTH__+0x700149>
     50e:	60 81       	ld	r22, Z
     510:	71 81       	ldd	r23, Z+1	; 0x01
     512:	82 96       	adiw	r24, 0x22	; 34
     514:	0e 94 d9 0c 	call	0x19b2	; 0x19b2 <__udivmodhi4>
     518:	80 93 ee 3a 	sts	0x3AEE, r24	; 0x803aee <tmp16bit>
     51c:	90 93 ef 3a 	sts	0x3AEF, r25	; 0x803aef <tmp16bit+0x1>
     520:	e1 e4       	ldi	r30, 0x41	; 65
     522:	f1 e0       	ldi	r31, 0x01	; 1
     524:	80 81       	ld	r24, Z
     526:	83 fd       	sbrc	r24, 3
     528:	fd cf       	rjmp	.-6      	; 0x524 <__LOCK_REGION_LENGTH__+0x124>
     52a:	80 91 ee 3a 	lds	r24, 0x3AEE	; 0x803aee <tmp16bit>
     52e:	90 91 ef 3a 	lds	r25, 0x3AEF	; 0x803aef <tmp16bit+0x1>
     532:	80 93 4c 01 	sts	0x014C, r24	; 0x80014c <__TEXT_REGION_LENGTH__+0x70014c>
     536:	90 93 4d 01 	sts	0x014D, r25	; 0x80014d <__TEXT_REGION_LENGTH__+0x70014d>
     53a:	83 e0       	ldi	r24, 0x03	; 3
     53c:	80 93 42 01 	sts	0x0142, r24	; 0x800142 <__TEXT_REGION_LENGTH__+0x700142>
     540:	81 e0       	ldi	r24, 0x01	; 1
     542:	80 93 52 01 	sts	0x0152, r24	; 0x800152 <__TEXT_REGION_LENGTH__+0x700152>
     546:	88 e0       	ldi	r24, 0x08	; 8
     548:	80 93 50 01 	sts	0x0150, r24	; 0x800150 <__TEXT_REGION_LENGTH__+0x700150>
     54c:	e1 e4       	ldi	r30, 0x41	; 65
     54e:	f1 e0       	ldi	r31, 0x01	; 1
     550:	80 81       	ld	r24, Z
     552:	80 fd       	sbrc	r24, 0
     554:	fd cf       	rjmp	.-6      	; 0x550 <__LOCK_REGION_LENGTH__+0x150>
     556:	e0 e4       	ldi	r30, 0x40	; 64
     558:	f1 e0       	ldi	r31, 0x01	; 1
     55a:	80 81       	ld	r24, Z
     55c:	81 60       	ori	r24, 0x01	; 1
     55e:	80 83       	st	Z, r24
     560:	e0 e5       	ldi	r30, 0x50	; 80
     562:	f1 e0       	ldi	r31, 0x01	; 1
     564:	80 81       	ld	r24, Z
     566:	81 60       	ori	r24, 0x01	; 1
     568:	80 83       	st	Z, r24
     56a:	e9 e5       	ldi	r30, 0x59	; 89
     56c:	fa e3       	ldi	r31, 0x3A	; 58
     56e:	10 82       	st	Z, r1
     570:	e0 93 9d 3a 	sts	0x3A9D, r30	; 0x803a9d <serTxAddr>
     574:	f0 93 9e 3a 	sts	0x3A9E, r31	; 0x803a9e <serTxAddr+0x1>
     578:	78 94       	sei
     57a:	df 91       	pop	r29
     57c:	cf 91       	pop	r28
     57e:	08 95       	ret

00000580 <__vector_8>:
     580:	1f 92       	push	r1
     582:	0f 92       	push	r0
     584:	0f b6       	in	r0, 0x3f	; 63
     586:	0f 92       	push	r0
     588:	11 24       	eor	r1, r1
     58a:	8f 93       	push	r24
     58c:	9f 93       	push	r25
     58e:	af 93       	push	r26
     590:	bf 93       	push	r27
     592:	ef 93       	push	r30
     594:	ff 93       	push	r31
     596:	87 e0       	ldi	r24, 0x07	; 7
     598:	80 93 46 04 	sts	0x0446, r24	; 0x800446 <__TEXT_REGION_LENGTH__+0x700446>
     59c:	84 e4       	ldi	r24, 0x44	; 68
     59e:	80 93 26 04 	sts	0x0426, r24	; 0x800426 <__TEXT_REGION_LENGTH__+0x700426>
     5a2:	ec b3       	in	r30, 0x1c	; 28
     5a4:	f0 e0       	ldi	r31, 0x00	; 0
     5a6:	ee 0f       	add	r30, r30
     5a8:	ff 1f       	adc	r31, r31
     5aa:	ee 0f       	add	r30, r30
     5ac:	ff 1f       	adc	r31, r31
     5ae:	ee 0f       	add	r30, r30
     5b0:	ff 1f       	adc	r31, r31
     5b2:	ec 53       	subi	r30, 0x3C	; 60
     5b4:	f5 4c       	sbci	r31, 0xC5	; 197
     5b6:	a8 e2       	ldi	r26, 0x28	; 40
     5b8:	ba e0       	ldi	r27, 0x0A	; 10
     5ba:	96 e0       	ldi	r25, 0x06	; 6
     5bc:	81 91       	ld	r24, Z+
     5be:	8d 93       	st	X+, r24
     5c0:	9a 95       	dec	r25
     5c2:	e1 f7       	brne	.-8      	; 0x5bc <__vector_8+0x3c>
     5c4:	8b e0       	ldi	r24, 0x0B	; 11
     5c6:	80 93 05 0a 	sts	0x0A05, r24	; 0x800a05 <__TEXT_REGION_LENGTH__+0x700a05>
     5ca:	8c b3       	in	r24, 0x1c	; 28
     5cc:	83 30       	cpi	r24, 0x03	; 3
     5ce:	58 f4       	brcc	.+22     	; 0x5e6 <__vector_8+0x66>
     5d0:	8c b3       	in	r24, 0x1c	; 28
     5d2:	91 e0       	ldi	r25, 0x01	; 1
     5d4:	01 c0       	rjmp	.+2      	; 0x5d8 <__vector_8+0x58>
     5d6:	99 0f       	add	r25, r25
     5d8:	8a 95       	dec	r24
     5da:	ea f7       	brpl	.-6      	; 0x5d6 <__vector_8+0x56>
     5dc:	99 b9       	out	0x09, r25	; 9
     5de:	8c b3       	in	r24, 0x1c	; 28
     5e0:	83 95       	inc	r24
     5e2:	8c bb       	out	0x1c, r24	; 28
     5e4:	0a c0       	rjmp	.+20     	; 0x5fa <__vector_8+0x7a>
     5e6:	8c b3       	in	r24, 0x1c	; 28
     5e8:	83 30       	cpi	r24, 0x03	; 3
     5ea:	21 f4       	brne	.+8      	; 0x5f4 <__vector_8+0x74>
     5ec:	2a 9a       	sbi	0x05, 2	; 5
     5ee:	83 95       	inc	r24
     5f0:	8c bb       	out	0x1c, r24	; 28
     5f2:	03 c0       	rjmp	.+6      	; 0x5fa <__vector_8+0x7a>
     5f4:	2e 9a       	sbi	0x05, 6	; 5
     5f6:	88 27       	eor	r24, r24
     5f8:	8c bb       	out	0x1c, r24	; 28
     5fa:	80 91 48 3a 	lds	r24, 0x3A48	; 0x803a48 <timeout_I2C>
     5fe:	88 23       	and	r24, r24
     600:	29 f0       	breq	.+10     	; 0x60c <__vector_8+0x8c>
     602:	80 91 48 3a 	lds	r24, 0x3A48	; 0x803a48 <timeout_I2C>
     606:	81 50       	subi	r24, 0x01	; 1
     608:	80 93 48 3a 	sts	0x3A48, r24	; 0x803a48 <timeout_I2C>
     60c:	8f ef       	ldi	r24, 0xFF	; 255
     60e:	80 93 0b 0a 	sts	0x0A0B, r24	; 0x800a0b <__TEXT_REGION_LENGTH__+0x700a0b>
     612:	ff 91       	pop	r31
     614:	ef 91       	pop	r30
     616:	bf 91       	pop	r27
     618:	af 91       	pop	r26
     61a:	9f 91       	pop	r25
     61c:	8f 91       	pop	r24
     61e:	0f 90       	pop	r0
     620:	0f be       	out	0x3f, r0	; 63
     622:	0f 90       	pop	r0
     624:	1f 90       	pop	r1
     626:	18 95       	reti

00000628 <__vector_13>:
     628:	1f 92       	push	r1
     62a:	0f 92       	push	r0
     62c:	0f b6       	in	r0, 0x3f	; 63
     62e:	0f 92       	push	r0
     630:	11 24       	eor	r1, r1
     632:	8f 93       	push	r24
     634:	9f 93       	push	r25
     636:	ef 93       	push	r30
     638:	ff 93       	push	r31
     63a:	e0 91 9d 3a 	lds	r30, 0x3A9D	; 0x803a9d <serTxAddr>
     63e:	f0 91 9e 3a 	lds	r31, 0x3A9E	; 0x803a9e <serTxAddr+0x1>
     642:	80 81       	ld	r24, Z
     644:	88 23       	and	r24, r24
     646:	91 f0       	breq	.+36     	; 0x66c <__vector_13+0x44>
     648:	80 81       	ld	r24, Z
     64a:	80 93 02 08 	sts	0x0802, r24	; 0x800802 <__TEXT_REGION_LENGTH__+0x700802>
     64e:	80 91 9d 3a 	lds	r24, 0x3A9D	; 0x803a9d <serTxAddr>
     652:	90 91 9e 3a 	lds	r25, 0x3A9E	; 0x803a9e <serTxAddr+0x1>
     656:	01 96       	adiw	r24, 0x01	; 1
     658:	80 93 9d 3a 	sts	0x3A9D, r24	; 0x803a9d <serTxAddr>
     65c:	90 93 9e 3a 	sts	0x3A9E, r25	; 0x803a9e <serTxAddr+0x1>
     660:	e5 e0       	ldi	r30, 0x05	; 5
     662:	f8 e0       	ldi	r31, 0x08	; 8
     664:	80 81       	ld	r24, Z
     666:	80 62       	ori	r24, 0x20	; 32
     668:	80 83       	st	Z, r24
     66a:	05 c0       	rjmp	.+10     	; 0x676 <__vector_13+0x4e>
     66c:	81 e0       	ldi	r24, 0x01	; 1
     66e:	80 93 04 38 	sts	0x3804, r24	; 0x803804 <serTxDone>
     672:	10 92 45 0a 	sts	0x0A45, r1	; 0x800a45 <__TEXT_REGION_LENGTH__+0x700a45>
     676:	81 e0       	ldi	r24, 0x01	; 1
     678:	80 93 46 0a 	sts	0x0A46, r24	; 0x800a46 <__TEXT_REGION_LENGTH__+0x700a46>
     67c:	ff 91       	pop	r31
     67e:	ef 91       	pop	r30
     680:	9f 91       	pop	r25
     682:	8f 91       	pop	r24
     684:	0f 90       	pop	r0
     686:	0f be       	out	0x3f, r0	; 63
     688:	0f 90       	pop	r0
     68a:	1f 90       	pop	r1
     68c:	18 95       	reti

0000068e <__vector_14>:
     68e:	1f 92       	push	r1
     690:	0f 92       	push	r0
     692:	0f b6       	in	r0, 0x3f	; 63
     694:	0f 92       	push	r0
     696:	11 24       	eor	r1, r1
     698:	2f 93       	push	r18
     69a:	3f 93       	push	r19
     69c:	4f 93       	push	r20
     69e:	8f 93       	push	r24
     6a0:	9f 93       	push	r25
     6a2:	ef 93       	push	r30
     6a4:	ff 93       	push	r31
     6a6:	e0 91 02 38 	lds	r30, 0x3802	; 0x803802 <auSmpAddr>
     6aa:	f0 91 03 38 	lds	r31, 0x3803	; 0x803803 <auSmpAddr+0x1>
     6ae:	80 81       	ld	r24, Z
     6b0:	81 11       	cpse	r24, r1
     6b2:	08 c0       	rjmp	.+16     	; 0x6c4 <__vector_14+0x36>
     6b4:	80 91 00 38 	lds	r24, 0x3800	; 0x803800 <__data_start>
     6b8:	90 91 01 38 	lds	r25, 0x3801	; 0x803801 <__data_start+0x1>
     6bc:	80 93 02 38 	sts	0x3802, r24	; 0x803802 <auSmpAddr>
     6c0:	90 93 03 38 	sts	0x3803, r25	; 0x803803 <auSmpAddr+0x1>
     6c4:	e0 91 02 38 	lds	r30, 0x3802	; 0x803802 <auSmpAddr>
     6c8:	f0 91 03 38 	lds	r31, 0x3803	; 0x803803 <auSmpAddr+0x1>
     6cc:	80 81       	ld	r24, Z
     6ce:	88 23       	and	r24, r24
     6d0:	e1 f0       	breq	.+56     	; 0x70a <__vector_14+0x7c>
     6d2:	20 81       	ld	r18, Z
     6d4:	40 91 9a 3a 	lds	r20, 0x3A9A	; 0x803a9a <auVolume>
     6d8:	30 e0       	ldi	r19, 0x00	; 0
     6da:	2f 57       	subi	r18, 0x7F	; 127
     6dc:	31 09       	sbc	r19, r1
     6de:	42 9f       	mul	r20, r18
     6e0:	c0 01       	movw	r24, r0
     6e2:	43 9f       	mul	r20, r19
     6e4:	90 0d       	add	r25, r0
     6e6:	11 24       	eor	r1, r1
     6e8:	89 2f       	mov	r24, r25
     6ea:	99 0f       	add	r25, r25
     6ec:	99 0b       	sbc	r25, r25
     6ee:	80 58       	subi	r24, 0x80	; 128
     6f0:	9f 4f       	sbci	r25, 0xFF	; 255
     6f2:	80 93 a1 06 	sts	0x06A1, r24	; 0x8006a1 <__TEXT_REGION_LENGTH__+0x7006a1>
     6f6:	80 91 02 38 	lds	r24, 0x3802	; 0x803802 <auSmpAddr>
     6fa:	90 91 03 38 	lds	r25, 0x3803	; 0x803803 <auSmpAddr+0x1>
     6fe:	01 96       	adiw	r24, 0x01	; 1
     700:	80 93 02 38 	sts	0x3802, r24	; 0x803802 <auSmpAddr>
     704:	90 93 03 38 	sts	0x3803, r25	; 0x803803 <auSmpAddr+0x1>
     708:	06 c0       	rjmp	.+12     	; 0x716 <__vector_14+0x88>
     70a:	80 e8       	ldi	r24, 0x80	; 128
     70c:	80 93 a1 06 	sts	0x06A1, r24	; 0x8006a1 <__TEXT_REGION_LENGTH__+0x7006a1>
     710:	81 e0       	ldi	r24, 0x01	; 1
     712:	80 93 ec 3a 	sts	0x3AEC, r24	; 0x803aec <auPlayDone>
     716:	81 e0       	ldi	r24, 0x01	; 1
     718:	80 93 56 0a 	sts	0x0A56, r24	; 0x800a56 <__TEXT_REGION_LENGTH__+0x700a56>
     71c:	ff 91       	pop	r31
     71e:	ef 91       	pop	r30
     720:	9f 91       	pop	r25
     722:	8f 91       	pop	r24
     724:	4f 91       	pop	r20
     726:	3f 91       	pop	r19
     728:	2f 91       	pop	r18
     72a:	0f 90       	pop	r0
     72c:	0f be       	out	0x3f, r0	; 63
     72e:	0f 90       	pop	r0
     730:	1f 90       	pop	r1
     732:	18 95       	reti

00000734 <__vector_27>:
     734:	1f 92       	push	r1
     736:	0f 92       	push	r0
     738:	0f b6       	in	r0, 0x3f	; 63
     73a:	0f 92       	push	r0
     73c:	11 24       	eor	r1, r1
     73e:	8f 93       	push	r24
     740:	ef 93       	push	r30
     742:	ff 93       	push	r31
     744:	80 91 97 38 	lds	r24, 0x3897	; 0x803897 <serRxDone>
     748:	81 11       	cpse	r24, r1
     74a:	1d c0       	rjmp	.+58     	; 0x786 <__vector_27+0x52>
     74c:	ed b3       	in	r30, 0x1d	; 29
     74e:	f0 e0       	ldi	r31, 0x00	; 0
     750:	80 91 00 08 	lds	r24, 0x0800	; 0x800800 <__TEXT_REGION_LENGTH__+0x700800>
     754:	e7 5a       	subi	r30, 0xA7	; 167
     756:	f5 4c       	sbci	r31, 0xC5	; 197
     758:	80 83       	st	Z, r24
     75a:	ed b3       	in	r30, 0x1d	; 29
     75c:	f0 e0       	ldi	r31, 0x00	; 0
     75e:	e7 5a       	subi	r30, 0xA7	; 167
     760:	f5 4c       	sbci	r31, 0xC5	; 197
     762:	80 81       	ld	r24, Z
     764:	8a 30       	cpi	r24, 0x0A	; 10
     766:	49 f4       	brne	.+18     	; 0x77a <__vector_27+0x46>
     768:	ed b3       	in	r30, 0x1d	; 29
     76a:	f0 e0       	ldi	r31, 0x00	; 0
     76c:	e7 5a       	subi	r30, 0xA7	; 167
     76e:	f5 4c       	sbci	r31, 0xC5	; 197
     770:	10 82       	st	Z, r1
     772:	81 e0       	ldi	r24, 0x01	; 1
     774:	80 93 97 38 	sts	0x3897, r24	; 0x803897 <serRxDone>
     778:	06 c0       	rjmp	.+12     	; 0x786 <__vector_27+0x52>
     77a:	8d b3       	in	r24, 0x1d	; 29
     77c:	80 34       	cpi	r24, 0x40	; 64
     77e:	18 f4       	brcc	.+6      	; 0x786 <__vector_27+0x52>
     780:	8d b3       	in	r24, 0x1d	; 29
     782:	8f 5f       	subi	r24, 0xFF	; 255
     784:	8d bb       	out	0x1d, r24	; 29
     786:	80 e8       	ldi	r24, 0x80	; 128
     788:	80 93 04 08 	sts	0x0804, r24	; 0x800804 <__TEXT_REGION_LENGTH__+0x700804>
     78c:	ff 91       	pop	r31
     78e:	ef 91       	pop	r30
     790:	8f 91       	pop	r24
     792:	0f 90       	pop	r0
     794:	0f be       	out	0x3f, r0	; 63
     796:	0f 90       	pop	r0
     798:	1f 90       	pop	r1
     79a:	18 95       	reti

0000079c <__vector_28>:
     79c:	1f 92       	push	r1
     79e:	0f 92       	push	r0
     7a0:	0f b6       	in	r0, 0x3f	; 63
     7a2:	0f 92       	push	r0
     7a4:	11 24       	eor	r1, r1
     7a6:	8f 93       	push	r24
     7a8:	ef 93       	push	r30
     7aa:	ff 93       	push	r31
     7ac:	10 92 4a 0a 	sts	0x0A4A, r1	; 0x800a4a <__TEXT_REGION_LENGTH__+0x700a4a>
     7b0:	10 92 4b 0a 	sts	0x0A4B, r1	; 0x800a4b <__TEXT_REGION_LENGTH__+0x700a4b>
     7b4:	81 e0       	ldi	r24, 0x01	; 1
     7b6:	80 93 45 0a 	sts	0x0A45, r24	; 0x800a45 <__TEXT_REGION_LENGTH__+0x700a45>
     7ba:	e5 e0       	ldi	r30, 0x05	; 5
     7bc:	f8 e0       	ldi	r31, 0x08	; 8
     7be:	80 81       	ld	r24, Z
     7c0:	8f 7d       	andi	r24, 0xDF	; 223
     7c2:	80 83       	st	Z, r24
     7c4:	ff 91       	pop	r31
     7c6:	ef 91       	pop	r30
     7c8:	8f 91       	pop	r24
     7ca:	0f 90       	pop	r0
     7cc:	0f be       	out	0x3f, r0	; 63
     7ce:	0f 90       	pop	r0
     7d0:	1f 90       	pop	r1
     7d2:	18 95       	reti

000007d4 <__vector_20>:
     7d4:	1f 92       	push	r1
     7d6:	0f 92       	push	r0
     7d8:	0f b6       	in	r0, 0x3f	; 63
     7da:	0f 92       	push	r0
     7dc:	11 24       	eor	r1, r1
     7de:	8f 93       	push	r24
     7e0:	ef 93       	push	r30
     7e2:	ff 93       	push	r31
     7e4:	80 91 90 38 	lds	r24, 0x3890	; 0x803890 <__data_end>
     7e8:	81 11       	cpse	r24, r1
     7ea:	15 c0       	rjmp	.+42     	; 0x816 <__vector_20+0x42>
     7ec:	8e b3       	in	r24, 0x1e	; 30
     7ee:	8f 5f       	subi	r24, 0xFF	; 255
     7f0:	8f 71       	andi	r24, 0x1F	; 31
     7f2:	8e bb       	out	0x1e, r24	; 30
     7f4:	80 91 06 06 	lds	r24, 0x0606	; 0x800606 <__TEXT_REGION_LENGTH__+0x700606>
     7f8:	8e 31       	cpi	r24, 0x1E	; 30
     7fa:	29 f4       	brne	.+10     	; 0x806 <__vector_20+0x32>
     7fc:	80 91 10 06 	lds	r24, 0x0610	; 0x800610 <__TEXT_REGION_LENGTH__+0x700610>
     800:	80 93 ed 3a 	sts	0x3AED, r24	; 0x803aed <adcTemp>
     804:	0a c0       	rjmp	.+20     	; 0x81a <__vector_20+0x46>
     806:	ee b3       	in	r30, 0x1e	; 30
     808:	f0 e0       	ldi	r31, 0x00	; 0
     80a:	80 91 10 06 	lds	r24, 0x0610	; 0x800610 <__TEXT_REGION_LENGTH__+0x700610>
     80e:	ec 55       	subi	r30, 0x5C	; 92
     810:	f5 4c       	sbci	r31, 0xC5	; 197
     812:	80 83       	st	Z, r24
     814:	02 c0       	rjmp	.+4      	; 0x81a <__vector_20+0x46>
     816:	10 92 90 38 	sts	0x3890, r1	; 0x803890 <__data_end>
     81a:	81 e0       	ldi	r24, 0x01	; 1
     81c:	80 93 0b 06 	sts	0x060B, r24	; 0x80060b <__TEXT_REGION_LENGTH__+0x70060b>
     820:	ff 91       	pop	r31
     822:	ef 91       	pop	r30
     824:	8f 91       	pop	r24
     826:	0f 90       	pop	r0
     828:	0f be       	out	0x3f, r0	; 63
     82a:	0f 90       	pop	r0
     82c:	1f 90       	pop	r1
     82e:	18 95       	reti

00000830 <__vector_22>:
     830:	1f 92       	push	r1
     832:	0f 92       	push	r0
     834:	0f b6       	in	r0, 0x3f	; 63
     836:	0f 92       	push	r0
     838:	11 24       	eor	r1, r1
     83a:	8f 93       	push	r24
     83c:	9f 93       	push	r25
     83e:	80 91 46 06 	lds	r24, 0x0646	; 0x800646 <__TEXT_REGION_LENGTH__+0x700646>
     842:	81 11       	cpse	r24, r1
     844:	0c c0       	rjmp	.+24     	; 0x85e <__vector_22+0x2e>
     846:	80 91 50 06 	lds	r24, 0x0650	; 0x800650 <__TEXT_REGION_LENGTH__+0x700650>
     84a:	90 91 51 06 	lds	r25, 0x0651	; 0x800651 <__TEXT_REGION_LENGTH__+0x700651>
     84e:	80 93 a1 3a 	sts	0x3AA1, r24	; 0x803aa1 <adcPhot>
     852:	90 93 a2 3a 	sts	0x3AA2, r25	; 0x803aa2 <adcPhot+0x1>
     856:	81 e0       	ldi	r24, 0x01	; 1
     858:	80 93 46 06 	sts	0x0646, r24	; 0x800646 <__TEXT_REGION_LENGTH__+0x700646>
     85c:	23 c0       	rjmp	.+70     	; 0x8a4 <__vector_22+0x74>
     85e:	80 91 46 06 	lds	r24, 0x0646	; 0x800646 <__TEXT_REGION_LENGTH__+0x700646>
     862:	81 30       	cpi	r24, 0x01	; 1
     864:	79 f4       	brne	.+30     	; 0x884 <__vector_22+0x54>
     866:	88 e0       	ldi	r24, 0x08	; 8
     868:	80 93 06 04 	sts	0x0406, r24	; 0x800406 <__TEXT_REGION_LENGTH__+0x700406>
     86c:	80 91 50 06 	lds	r24, 0x0650	; 0x800650 <__TEXT_REGION_LENGTH__+0x700650>
     870:	90 91 51 06 	lds	r25, 0x0651	; 0x800651 <__TEXT_REGION_LENGTH__+0x700651>
     874:	80 93 9f 3a 	sts	0x3A9F, r24	; 0x803a9f <adcHall>
     878:	90 93 a0 3a 	sts	0x3AA0, r25	; 0x803aa0 <adcHall+0x1>
     87c:	84 e0       	ldi	r24, 0x04	; 4
     87e:	80 93 46 06 	sts	0x0646, r24	; 0x800646 <__TEXT_REGION_LENGTH__+0x700646>
     882:	10 c0       	rjmp	.+32     	; 0x8a4 <__vector_22+0x74>
     884:	80 91 50 06 	lds	r24, 0x0650	; 0x800650 <__TEXT_REGION_LENGTH__+0x700650>
     888:	90 91 51 06 	lds	r25, 0x0651	; 0x800651 <__TEXT_REGION_LENGTH__+0x700651>
     88c:	80 93 9b 3a 	sts	0x3A9B, r24	; 0x803a9b <adcBtns>
     890:	90 93 9c 3a 	sts	0x3A9C, r25	; 0x803a9c <adcBtns+0x1>
     894:	8f b3       	in	r24, 0x1f	; 31
     896:	8f 30       	cpi	r24, 0x0F	; 15
     898:	29 f4       	brne	.+10     	; 0x8a4 <__vector_22+0x74>
     89a:	10 92 46 06 	sts	0x0646, r1	; 0x800646 <__TEXT_REGION_LENGTH__+0x700646>
     89e:	88 e0       	ldi	r24, 0x08	; 8
     8a0:	80 93 05 04 	sts	0x0405, r24	; 0x800405 <__TEXT_REGION_LENGTH__+0x700405>
     8a4:	8f b3       	in	r24, 0x1f	; 31
     8a6:	90 e0       	ldi	r25, 0x00	; 0
     8a8:	01 96       	adiw	r24, 0x01	; 1
     8aa:	8f 70       	andi	r24, 0x0F	; 15
     8ac:	90 78       	andi	r25, 0x80	; 128
     8ae:	99 23       	and	r25, r25
     8b0:	24 f4       	brge	.+8      	; 0x8ba <__vector_22+0x8a>
     8b2:	01 97       	sbiw	r24, 0x01	; 1
     8b4:	80 6f       	ori	r24, 0xF0	; 240
     8b6:	9f 6f       	ori	r25, 0xFF	; 255
     8b8:	01 96       	adiw	r24, 0x01	; 1
     8ba:	8f bb       	out	0x1f, r24	; 31
     8bc:	81 e0       	ldi	r24, 0x01	; 1
     8be:	80 93 4b 06 	sts	0x064B, r24	; 0x80064b <__TEXT_REGION_LENGTH__+0x70064b>
     8c2:	9f 91       	pop	r25
     8c4:	8f 91       	pop	r24
     8c6:	0f 90       	pop	r0
     8c8:	0f be       	out	0x3f, r0	; 63
     8ca:	0f 90       	pop	r0
     8cc:	1f 90       	pop	r1
     8ce:	18 95       	reti

000008d0 <__vector_6>:
     8d0:	1f 92       	push	r1
     8d2:	0f 92       	push	r0
     8d4:	0f b6       	in	r0, 0x3f	; 63
     8d6:	0f 92       	push	r0
     8d8:	11 24       	eor	r1, r1
     8da:	5f 93       	push	r21
     8dc:	6f 93       	push	r22
     8de:	7f 93       	push	r23
     8e0:	8f 93       	push	r24
     8e2:	9f 93       	push	r25
     8e4:	af 93       	push	r26
     8e6:	bf 93       	push	r27
     8e8:	ef 93       	push	r30
     8ea:	ff 93       	push	r31
     8ec:	80 91 43 01 	lds	r24, 0x0143	; 0x800143 <__TEXT_REGION_LENGTH__+0x700143>
     8f0:	81 ff       	sbrs	r24, 1
     8f2:	29 c0       	rjmp	.+82     	; 0x946 <__vector_6+0x76>
     8f4:	80 91 95 38 	lds	r24, 0x3895	; 0x803895 <buttonMark>
     8f8:	8f 3f       	cpi	r24, 0xFF	; 255
     8fa:	29 f0       	breq	.+10     	; 0x906 <__vector_6+0x36>
     8fc:	80 91 95 38 	lds	r24, 0x3895	; 0x803895 <buttonMark>
     900:	8f 5f       	subi	r24, 0xFF	; 255
     902:	80 93 95 38 	sts	0x3895, r24	; 0x803895 <buttonMark>
     906:	80 91 48 01 	lds	r24, 0x0148	; 0x800148 <__TEXT_REGION_LENGTH__+0x700148>
     90a:	90 91 49 01 	lds	r25, 0x0149	; 0x800149 <__TEXT_REGION_LENGTH__+0x700149>
     90e:	60 91 4a 01 	lds	r22, 0x014A	; 0x80014a <__TEXT_REGION_LENGTH__+0x70014a>
     912:	70 91 4b 01 	lds	r23, 0x014B	; 0x80014b <__TEXT_REGION_LENGTH__+0x70014b>
     916:	82 96       	adiw	r24, 0x22	; 34
     918:	0e 94 d9 0c 	call	0x19b2	; 0x19b2 <__udivmodhi4>
     91c:	80 93 ee 3a 	sts	0x3AEE, r24	; 0x803aee <tmp16bit>
     920:	90 93 ef 3a 	sts	0x3AEF, r25	; 0x803aef <tmp16bit+0x1>
     924:	e1 e4       	ldi	r30, 0x41	; 65
     926:	f1 e0       	ldi	r31, 0x01	; 1
     928:	80 81       	ld	r24, Z
     92a:	83 fd       	sbrc	r24, 3
     92c:	fd cf       	rjmp	.-6      	; 0x928 <__vector_6+0x58>
     92e:	80 91 ee 3a 	lds	r24, 0x3AEE	; 0x803aee <tmp16bit>
     932:	90 91 ef 3a 	lds	r25, 0x3AEF	; 0x803aef <tmp16bit+0x1>
     936:	80 93 4c 01 	sts	0x014C, r24	; 0x80014c <__TEXT_REGION_LENGTH__+0x70014c>
     93a:	90 93 4d 01 	sts	0x014D, r25	; 0x80014d <__TEXT_REGION_LENGTH__+0x70014d>
     93e:	82 e0       	ldi	r24, 0x02	; 2
     940:	80 93 43 01 	sts	0x0143, r24	; 0x800143 <__TEXT_REGION_LENGTH__+0x700143>
     944:	0c c0       	rjmp	.+24     	; 0x95e <__vector_6+0x8e>
     946:	80 91 96 38 	lds	r24, 0x3896	; 0x803896 <minuteMark>
     94a:	8f 3f       	cpi	r24, 0xFF	; 255
     94c:	29 f0       	breq	.+10     	; 0x958 <__vector_6+0x88>
     94e:	80 91 96 38 	lds	r24, 0x3896	; 0x803896 <minuteMark>
     952:	8f 5f       	subi	r24, 0xFF	; 255
     954:	80 93 96 38 	sts	0x3896, r24	; 0x803896 <minuteMark>
     958:	81 e0       	ldi	r24, 0x01	; 1
     95a:	80 93 43 01 	sts	0x0143, r24	; 0x800143 <__TEXT_REGION_LENGTH__+0x700143>
     95e:	ff 91       	pop	r31
     960:	ef 91       	pop	r30
     962:	bf 91       	pop	r27
     964:	af 91       	pop	r26
     966:	9f 91       	pop	r25
     968:	8f 91       	pop	r24
     96a:	7f 91       	pop	r23
     96c:	6f 91       	pop	r22
     96e:	5f 91       	pop	r21
     970:	0f 90       	pop	r0
     972:	0f be       	out	0x3f, r0	; 63
     974:	0f 90       	pop	r0
     976:	1f 90       	pop	r1
     978:	18 95       	reti

0000097a <__vector_7>:
     97a:	1f 92       	push	r1
     97c:	0f 92       	push	r0
     97e:	0f b6       	in	r0, 0x3f	; 63
     980:	0f 92       	push	r0
     982:	11 24       	eor	r1, r1
     984:	8f 93       	push	r24
     986:	81 e0       	ldi	r24, 0x01	; 1
     988:	80 93 48 06 	sts	0x0648, r24	; 0x800648 <__TEXT_REGION_LENGTH__+0x700648>
     98c:	80 93 53 01 	sts	0x0153, r24	; 0x800153 <__TEXT_REGION_LENGTH__+0x700153>
     990:	8f 91       	pop	r24
     992:	0f 90       	pop	r0
     994:	0f be       	out	0x3f, r0	; 63
     996:	0f 90       	pop	r0
     998:	1f 90       	pop	r1
     99a:	18 95       	reti

0000099c <EERead>:
     99c:	e2 e0       	ldi	r30, 0x02	; 2
     99e:	f0 e1       	ldi	r31, 0x10	; 16
     9a0:	90 81       	ld	r25, Z
     9a2:	91 fd       	sbrc	r25, 1
     9a4:	fd cf       	rjmp	.-6      	; 0x9a0 <EERead+0x4>
     9a6:	44 23       	and	r20, r20
     9a8:	59 f0       	breq	.+22     	; 0x9c0 <EERead+0x24>
     9aa:	a6 2f       	mov	r26, r22
     9ac:	b7 2f       	mov	r27, r23
     9ae:	48 0f       	add	r20, r24
     9b0:	e8 2f       	mov	r30, r24
     9b2:	f0 e0       	ldi	r31, 0x00	; 0
     9b4:	fc 5e       	subi	r31, 0xEC	; 236
     9b6:	90 81       	ld	r25, Z
     9b8:	9d 93       	st	X+, r25
     9ba:	8f 5f       	subi	r24, 0xFF	; 255
     9bc:	48 13       	cpse	r20, r24
     9be:	f8 cf       	rjmp	.-16     	; 0x9b0 <EERead+0x14>
     9c0:	08 95       	ret

000009c2 <EEWrite>:
     9c2:	ff 92       	push	r15
     9c4:	0f 93       	push	r16
     9c6:	1f 93       	push	r17
     9c8:	cf 93       	push	r28
     9ca:	df 93       	push	r29
     9cc:	e8 2f       	mov	r30, r24
     9ce:	44 23       	and	r20, r20
     9d0:	79 f1       	breq	.+94     	; 0xa30 <EEWrite+0x6e>
     9d2:	c2 e0       	ldi	r28, 0x02	; 2
     9d4:	d0 e1       	ldi	r29, 0x10	; 16
     9d6:	3d e9       	ldi	r19, 0x9D	; 157
     9d8:	00 e0       	ldi	r16, 0x00	; 0
     9da:	10 e1       	ldi	r17, 0x10	; 16
     9dc:	54 e0       	ldi	r21, 0x04	; 4
     9de:	0f 2e       	mov	r0, r31
     9e0:	f3 e0       	ldi	r31, 0x03	; 3
     9e2:	ff 2e       	mov	r15, r31
     9e4:	f0 2d       	mov	r31, r0
     9e6:	88 81       	ld	r24, Y
     9e8:	81 fd       	sbrc	r24, 1
     9ea:	fd cf       	rjmp	.-6      	; 0x9e6 <EEWrite+0x24>
     9ec:	34 bf       	out	0x34, r19	; 52
     9ee:	d8 01       	movw	r26, r16
     9f0:	5c 93       	st	X, r21
     9f2:	44 23       	and	r20, r20
     9f4:	91 f0       	breq	.+36     	; 0xa1a <EEWrite+0x58>
     9f6:	2e 2f       	mov	r18, r30
     9f8:	2f 71       	andi	r18, 0x1F	; 31
     9fa:	91 e0       	ldi	r25, 0x01	; 1
     9fc:	9e 0f       	add	r25, r30
     9fe:	6f 5f       	subi	r22, 0xFF	; 255
     a00:	7f 4f       	sbci	r23, 0xFF	; 255
     a02:	db 01       	movw	r26, r22
     a04:	11 97       	sbiw	r26, 0x01	; 1
     a06:	8c 91       	ld	r24, X
     a08:	f0 e0       	ldi	r31, 0x00	; 0
     a0a:	fc 5e       	subi	r31, 0xEC	; 236
     a0c:	80 83       	st	Z, r24
     a0e:	41 50       	subi	r20, 0x01	; 1
     a10:	21 f0       	breq	.+8      	; 0xa1a <EEWrite+0x58>
     a12:	e9 2f       	mov	r30, r25
     a14:	2f 31       	cpi	r18, 0x1F	; 31
     a16:	79 f7       	brne	.-34     	; 0x9f6 <EEWrite+0x34>
     a18:	0f c0       	rjmp	.+30     	; 0xa38 <EEWrite+0x76>
     a1a:	8d e9       	ldi	r24, 0x9D	; 157
     a1c:	84 bf       	out	0x34, r24	; 52
     a1e:	83 e0       	ldi	r24, 0x03	; 3
     a20:	80 93 00 10 	sts	0x1000, r24	; 0x801000 <__TEXT_REGION_LENGTH__+0x701000>
     a24:	80 91 02 10 	lds	r24, 0x1002	; 0x801002 <__TEXT_REGION_LENGTH__+0x701002>
     a28:	82 fb       	bst	r24, 2
     a2a:	88 27       	eor	r24, r24
     a2c:	80 f9       	bld	r24, 0
     a2e:	0c c0       	rjmp	.+24     	; 0xa48 <EEWrite+0x86>
     a30:	80 e0       	ldi	r24, 0x00	; 0
     a32:	0a c0       	rjmp	.+20     	; 0xa48 <EEWrite+0x86>
     a34:	81 e0       	ldi	r24, 0x01	; 1
     a36:	08 c0       	rjmp	.+16     	; 0xa48 <EEWrite+0x86>
     a38:	34 bf       	out	0x34, r19	; 52
     a3a:	f8 01       	movw	r30, r16
     a3c:	f0 82       	st	Z, r15
     a3e:	88 81       	ld	r24, Y
     a40:	82 fd       	sbrc	r24, 2
     a42:	f8 cf       	rjmp	.-16     	; 0xa34 <EEWrite+0x72>
     a44:	e9 2f       	mov	r30, r25
     a46:	cf cf       	rjmp	.-98     	; 0x9e6 <EEWrite+0x24>
     a48:	df 91       	pop	r29
     a4a:	cf 91       	pop	r28
     a4c:	1f 91       	pop	r17
     a4e:	0f 91       	pop	r16
     a50:	ff 90       	pop	r15
     a52:	08 95       	ret

00000a54 <SerSend>:
     a54:	9c 01       	movw	r18, r24
     a56:	90 91 04 38 	lds	r25, 0x3804	; 0x803804 <serTxDone>
     a5a:	99 23       	and	r25, r25
     a5c:	59 f0       	breq	.+22     	; 0xa74 <SerSend+0x20>
     a5e:	20 93 9d 3a 	sts	0x3A9D, r18	; 0x803a9d <serTxAddr>
     a62:	30 93 9e 3a 	sts	0x3A9E, r19	; 0x803a9e <serTxAddr+0x1>
     a66:	10 92 04 38 	sts	0x3804, r1	; 0x803804 <serTxDone>
     a6a:	81 e0       	ldi	r24, 0x01	; 1
     a6c:	80 93 45 0a 	sts	0x0A45, r24	; 0x800a45 <__TEXT_REGION_LENGTH__+0x700a45>
     a70:	80 e0       	ldi	r24, 0x00	; 0
     a72:	08 95       	ret
     a74:	81 e0       	ldi	r24, 0x01	; 1
     a76:	08 95       	ret

00000a78 <SerSpeed>:
     a78:	28 2f       	mov	r18, r24
     a7a:	81 11       	cpse	r24, r1
     a7c:	01 c0       	rjmp	.+2      	; 0xa80 <SerSpeed+0x8>
     a7e:	21 e0       	ldi	r18, 0x01	; 1
     a80:	8f ef       	ldi	r24, 0xFF	; 255
     a82:	90 e0       	ldi	r25, 0x00	; 0
     a84:	82 1b       	sub	r24, r18
     a86:	91 09       	sbc	r25, r1
     a88:	98 2f       	mov	r25, r24
     a8a:	88 27       	eor	r24, r24
     a8c:	81 50       	subi	r24, 0x01	; 1
     a8e:	9f 4f       	sbci	r25, 0xFF	; 255
     a90:	80 93 4c 0a 	sts	0x0A4C, r24	; 0x800a4c <__TEXT_REGION_LENGTH__+0x700a4c>
     a94:	90 93 4d 0a 	sts	0x0A4D, r25	; 0x800a4d <__TEXT_REGION_LENGTH__+0x700a4d>
     a98:	08 95       	ret

00000a9a <CheckButtons>:
};

// Returns button combination (4LSB) and number of consecutive times this combination is detected. First read should always be ignored! 
uint8_t CheckButtons(uint8_t previousValue){
    uint8_t bADC = (uint8_t)(adcBtns>>4);
     a9a:	20 91 9b 3a 	lds	r18, 0x3A9B	; 0x803a9b <adcBtns>
     a9e:	30 91 9c 3a 	lds	r19, 0x3A9C	; 0x803a9c <adcBtns+0x1>
    uint8_t bNibble = 0x0F;     //MSB to LSB: Bottom left, top left, top right, bottom right, 0F is error
    
    switch(bADC){
     aa2:	32 95       	swap	r19
     aa4:	22 95       	swap	r18
     aa6:	2f 70       	andi	r18, 0x0F	; 15
     aa8:	23 27       	eor	r18, r19
     aaa:	3f 70       	andi	r19, 0x0F	; 15
     aac:	23 27       	eor	r18, r19
     aae:	33 27       	eor	r19, r19
     ab0:	2c 35       	cpi	r18, 0x5C	; 92
     ab2:	31 05       	cpc	r19, r1
     ab4:	d0 f4       	brcc	.+52     	; 0xaea <CheckButtons+0x50>
     ab6:	23 35       	cpi	r18, 0x53	; 83
     ab8:	31 05       	cpc	r19, r1
     aba:	98 f5       	brcc	.+102    	; 0xb22 <CheckButtons+0x88>
     abc:	22 33       	cpi	r18, 0x32	; 50
     abe:	31 05       	cpc	r19, r1
     ac0:	50 f4       	brcc	.+20     	; 0xad6 <CheckButtons+0x3c>
     ac2:	2d 32       	cpi	r18, 0x2D	; 45
     ac4:	31 05       	cpc	r19, r1
     ac6:	48 f5       	brcc	.+82     	; 0xb1a <CheckButtons+0x80>
     ac8:	23 52       	subi	r18, 0x23	; 35
     aca:	31 09       	sbc	r19, r1
     acc:	25 30       	cpi	r18, 0x05	; 5
     ace:	31 05       	cpc	r19, r1
     ad0:	08 f4       	brcc	.+2      	; 0xad4 <CheckButtons+0x3a>
     ad2:	42 c0       	rjmp	.+132    	; 0xb58 <CheckButtons+0xbe>
     ad4:	2e c0       	rjmp	.+92     	; 0xb32 <CheckButtons+0x98>
     ad6:	27 33       	cpi	r18, 0x37	; 55
     ad8:	31 05       	cpc	r19, r1
     ada:	08 f4       	brcc	.+2      	; 0xade <CheckButtons+0x44>
     adc:	3f c0       	rjmp	.+126    	; 0xb5c <CheckButtons+0xc2>
     ade:	2e 53       	subi	r18, 0x3E	; 62
     ae0:	31 09       	sbc	r19, r1
     ae2:	27 30       	cpi	r18, 0x07	; 7
     ae4:	31 05       	cpc	r19, r1
     ae6:	d8 f0       	brcs	.+54     	; 0xb1e <CheckButtons+0x84>
     ae8:	24 c0       	rjmp	.+72     	; 0xb32 <CheckButtons+0x98>
     aea:	2a 38       	cpi	r18, 0x8A	; 138
     aec:	31 05       	cpc	r19, r1
     aee:	48 f4       	brcc	.+18     	; 0xb02 <CheckButtons+0x68>
     af0:	29 37       	cpi	r18, 0x79	; 121
     af2:	31 05       	cpc	r19, r1
     af4:	d0 f4       	brcc	.+52     	; 0xb2a <CheckButtons+0x90>
     af6:	23 56       	subi	r18, 0x63	; 99
     af8:	31 09       	sbc	r19, r1
     afa:	2b 30       	cpi	r18, 0x0B	; 11
     afc:	31 05       	cpc	r19, r1
     afe:	98 f0       	brcs	.+38     	; 0xb26 <CheckButtons+0x8c>
     b00:	18 c0       	rjmp	.+48     	; 0xb32 <CheckButtons+0x98>
     b02:	22 3a       	cpi	r18, 0xA2	; 162
     b04:	31 05       	cpc	r19, r1
     b06:	a8 f0       	brcs	.+42     	; 0xb32 <CheckButtons+0x98>
     b08:	2b 3b       	cpi	r18, 0xBB	; 187
     b0a:	31 05       	cpc	r19, r1
     b0c:	80 f0       	brcs	.+32     	; 0xb2e <CheckButtons+0x94>
     b0e:	20 5f       	subi	r18, 0xF0	; 240
     b10:	31 09       	sbc	r19, r1
     b12:	20 31       	cpi	r18, 0x10	; 16
     b14:	31 05       	cpc	r19, r1
     b16:	d8 f0       	brcs	.+54     	; 0xb4e <CheckButtons+0xb4>
     b18:	0c c0       	rjmp	.+24     	; 0xb32 <CheckButtons+0x98>
        case 35 ... 39:          //37: Both left
        bNibble = 0b1100;
        break;

        case 45 ... 49:          //47: Both bottom
        bNibble = 0b1001;
     b1a:	99 e0       	ldi	r25, 0x09	; 9
     b1c:	20 c0       	rjmp	.+64     	; 0xb5e <CheckButtons+0xc4>
        case 50 ... 54:          //52: Bottom left
        bNibble = 0b1000;
        break;

        case 62 ... 68:          //65: Both top
        bNibble = 0b0110;
     b1e:	96 e0       	ldi	r25, 0x06	; 6
        break;
     b20:	1e c0       	rjmp	.+60     	; 0xb5e <CheckButtons+0xc4>

        case 83 ... 91:          //87: Top left
        bNibble = 0b0100;
     b22:	94 e0       	ldi	r25, 0x04	; 4
        break;
     b24:	1c c0       	rjmp	.+56     	; 0xb5e <CheckButtons+0xc4>

        case 99 ... 109:         //104: Both right
        bNibble = 0b0011;
     b26:	93 e0       	ldi	r25, 0x03	; 3
        break;
     b28:	1a c0       	rjmp	.+52     	; 0xb5e <CheckButtons+0xc4>

        case 121 ... 137:        //129: Top right
        bNibble = 0b0010;
     b2a:	92 e0       	ldi	r25, 0x02	; 2
        break;
     b2c:	18 c0       	rjmp	.+48     	; 0xb5e <CheckButtons+0xc4>

        case 162 ... 186:        //174: Bottom right
        bNibble = 0b0001;
     b2e:	91 e0       	ldi	r25, 0x01	; 1
        break;
     b30:	16 c0       	rjmp	.+44     	; 0xb5e <CheckButtons+0xc4>
        case 240 ... 255:        //255: No button pressed
        bNibble = 0b0000;
        break;
    }

    if ((previousValue&0x0F)==bNibble){
     b32:	98 2f       	mov	r25, r24
     b34:	9f 70       	andi	r25, 0x0F	; 15
     b36:	9f 30       	cpi	r25, 0x0F	; 15
     b38:	41 f4       	brne	.+16     	; 0xb4a <CheckButtons+0xb0>
        if ((previousValue&0xF0) < 0xF0) previousValue += 0x10; //Same value? Increase time nibble
     b3a:	28 2f       	mov	r18, r24
     b3c:	20 7f       	andi	r18, 0xF0	; 240
     b3e:	30 e0       	ldi	r19, 0x00	; 0
     b40:	20 3f       	cpi	r18, 0xF0	; 240
     b42:	31 05       	cpc	r19, r1
     b44:	8c f4       	brge	.+34     	; 0xb68 <CheckButtons+0xce>
     b46:	80 5f       	subi	r24, 0xF0	; 240
     b48:	08 95       	ret
};

// Returns button combination (4LSB) and number of consecutive times this combination is detected. First read should always be ignored! 
uint8_t CheckButtons(uint8_t previousValue){
    uint8_t bADC = (uint8_t)(adcBtns>>4);
    uint8_t bNibble = 0x0F;     //MSB to LSB: Bottom left, top left, top right, bottom right, 0F is error
     b4a:	8f e0       	ldi	r24, 0x0F	; 15
     b4c:	08 95       	ret
        case 240 ... 255:        //255: No button pressed
        bNibble = 0b0000;
        break;
    }

    if ((previousValue&0x0F)==bNibble){
     b4e:	98 2f       	mov	r25, r24
     b50:	9f 70       	andi	r25, 0x0F	; 15
     b52:	99 f3       	breq	.-26     	; 0xb3a <CheckButtons+0xa0>
        if ((previousValue&0xF0) < 0xF0) previousValue += 0x10; //Same value? Increase time nibble
        return previousValue;       
    } else if (bNibble == 0) return 0xFF; //Buttons released, 0xFF triggers readout, previousValue holds last button value.
     b54:	8f ef       	ldi	r24, 0xFF	; 255
     b56:	08 95       	ret
        case 28 ... 32:         //30: All buttons pressed
        bNibble = 0b1111;
        break;

        case 35 ... 39:          //37: Both left
        bNibble = 0b1100;
     b58:	9c e0       	ldi	r25, 0x0C	; 12
     b5a:	01 c0       	rjmp	.+2      	; 0xb5e <CheckButtons+0xc4>
        case 45 ... 49:          //47: Both bottom
        bNibble = 0b1001;
        break;

        case 50 ... 54:          //52: Bottom left
        bNibble = 0b1000;
     b5c:	98 e0       	ldi	r25, 0x08	; 8
        case 240 ... 255:        //255: No button pressed
        bNibble = 0b0000;
        break;
    }

    if ((previousValue&0x0F)==bNibble){
     b5e:	28 2f       	mov	r18, r24
     b60:	2f 70       	andi	r18, 0x0F	; 15
     b62:	92 17       	cp	r25, r18
     b64:	51 f3       	breq	.-44     	; 0xb3a <CheckButtons+0xa0>
     b66:	89 2f       	mov	r24, r25
        if ((previousValue&0xF0) < 0xF0) previousValue += 0x10; //Same value? Increase time nibble
        return previousValue;       
    } else if (bNibble == 0) return 0xFF; //Buttons released, 0xFF triggers readout, previousValue holds last button value.
              else return bNibble;  //New value  
}
     b68:	08 95       	ret

00000b6a <lfsr>:

uint8_t lfsr(){
    static uint16_t state = 0xd401;
    state ^= (state << 13);
     b6a:	80 91 85 38 	lds	r24, 0x3885	; 0x803885 <state.3860>
     b6e:	90 91 86 38 	lds	r25, 0x3886	; 0x803886 <state.3860+0x1>
     b72:	9c 01       	movw	r18, r24
     b74:	32 2f       	mov	r19, r18
     b76:	22 27       	eor	r18, r18
     b78:	32 95       	swap	r19
     b7a:	33 0f       	add	r19, r19
     b7c:	30 7e       	andi	r19, 0xE0	; 224
     b7e:	82 27       	eor	r24, r18
     b80:	93 27       	eor	r25, r19
    state ^= (state >> 9);
     b82:	9c 01       	movw	r18, r24
     b84:	23 2f       	mov	r18, r19
     b86:	33 27       	eor	r19, r19
     b88:	26 95       	lsr	r18
     b8a:	82 27       	eor	r24, r18
     b8c:	93 27       	eor	r25, r19
    state ^= (state << 7);
     b8e:	9c 01       	movw	r18, r24
     b90:	36 95       	lsr	r19
     b92:	32 2f       	mov	r19, r18
     b94:	22 27       	eor	r18, r18
     b96:	37 95       	ror	r19
     b98:	27 95       	ror	r18
     b9a:	82 27       	eor	r24, r18
     b9c:	93 27       	eor	r25, r19
     b9e:	80 93 85 38 	sts	0x3885, r24	; 0x803885 <state.3860>
     ba2:	90 93 86 38 	sts	0x3886, r25	; 0x803886 <state.3860+0x1>
    return (state & 0xff);
}
     ba6:	08 95       	ret

00000ba8 <floatSpeed>:

void floatSpeed(uint8_t bits, uint16_t min, uint16_t max){
     ba8:	df 92       	push	r13
     baa:	ef 92       	push	r14
     bac:	ff 92       	push	r15
     bae:	0f 93       	push	r16
     bb0:	1f 93       	push	r17
     bb2:	cf 93       	push	r28
     bb4:	df 93       	push	r29
     bb6:	e6 2e       	mov	r14, r22
     bb8:	f7 2e       	mov	r15, r23
     bba:	8a 01       	movw	r16, r20
    uint16_t val = TCB1_CCMP;
     bbc:	c0 91 5c 0a 	lds	r28, 0x0A5C	; 0x800a5c <__TEXT_REGION_LENGTH__+0x700a5c>
     bc0:	d0 91 5d 0a 	lds	r29, 0x0A5D	; 0x800a5d <__TEXT_REGION_LENGTH__+0x700a5d>
    bits = mask[(bits-1)&0x07];
     bc4:	e8 2f       	mov	r30, r24
     bc6:	f0 e0       	ldi	r31, 0x00	; 0
     bc8:	31 97       	sbiw	r30, 0x01	; 1
     bca:	e7 70       	andi	r30, 0x07	; 7
     bcc:	ff 27       	eor	r31, r31
     bce:	e9 57       	subi	r30, 0x79	; 121
     bd0:	f7 4c       	sbci	r31, 0xC7	; 199
     bd2:	d0 80       	ld	r13, Z
    val += (lfsr()&bits);
     bd4:	ca df       	rcall	.-108    	; 0xb6a <lfsr>
     bd6:	8d 21       	and	r24, r13
     bd8:	c8 0f       	add	r28, r24
     bda:	d1 1d       	adc	r29, r1
    val -= (lfsr()&bits);
     bdc:	c6 df       	rcall	.-116    	; 0xb6a <lfsr>
     bde:	8d 21       	and	r24, r13
     be0:	c8 1b       	sub	r28, r24
     be2:	d1 09       	sbc	r29, r1
     be4:	0c 17       	cp	r16, r28
     be6:	1d 07       	cpc	r17, r29
     be8:	08 f4       	brcc	.+2      	; 0xbec <floatSpeed+0x44>
     bea:	e8 01       	movw	r28, r16
     bec:	8e 2d       	mov	r24, r14
     bee:	9f 2d       	mov	r25, r15
     bf0:	8c 17       	cp	r24, r28
     bf2:	9d 07       	cpc	r25, r29
     bf4:	08 f4       	brcc	.+2      	; 0xbf8 <floatSpeed+0x50>
     bf6:	ce 01       	movw	r24, r28
     bf8:	80 93 5c 0a 	sts	0x0A5C, r24	; 0x800a5c <__TEXT_REGION_LENGTH__+0x700a5c>
    if (val > max) val = max;    //0x038B is normal rate, for wind we need to be a bit slower
    if (val < min) val = min;  
    TCB1_CCMP = val;
     bfc:	90 93 5d 0a 	sts	0x0A5D, r25	; 0x800a5d <__TEXT_REGION_LENGTH__+0x700a5d>
     c00:	df 91       	pop	r29
}
     c02:	cf 91       	pop	r28
     c04:	1f 91       	pop	r17
     c06:	0f 91       	pop	r16
     c08:	ff 90       	pop	r15
     c0a:	ef 90       	pop	r14
     c0c:	df 90       	pop	r13
     c0e:	08 95       	ret

00000c10 <floatAround>:
     c10:	0f 93       	push	r16

uint8_t floatAround(uint8_t sample, uint8_t bits, uint8_t min, uint8_t max){
     c12:	1f 93       	push	r17
     c14:	cf 93       	push	r28
     c16:	df 93       	push	r29
     c18:	c8 2f       	mov	r28, r24
     c1a:	04 2f       	mov	r16, r20
     c1c:	12 2f       	mov	r17, r18
    bits = mask[(bits-1)&0x07];
     c1e:	e6 2f       	mov	r30, r22
     c20:	f0 e0       	ldi	r31, 0x00	; 0
     c22:	31 97       	sbiw	r30, 0x01	; 1
     c24:	e7 70       	andi	r30, 0x07	; 7
     c26:	ff 27       	eor	r31, r31
     c28:	e9 57       	subi	r30, 0x79	; 121
     c2a:	f7 4c       	sbci	r31, 0xC7	; 199
     c2c:	d0 81       	ld	r29, Z
    sample += lfsr()&bits;
     c2e:	9d df       	rcall	.-198    	; 0xb6a <lfsr>
     c30:	8d 23       	and	r24, r29
     c32:	c8 0f       	add	r28, r24
    sample -= lfsr()&bits;
     c34:	9a df       	rcall	.-204    	; 0xb6a <lfsr>
     c36:	8d 23       	and	r24, r29
     c38:	c8 1b       	sub	r28, r24
     c3a:	8c 2f       	mov	r24, r28
     c3c:	11 23       	and	r17, r17
    if (max){
     c3e:	41 f0       	breq	.+16     	; 0xc50 <floatAround+0x40>
     c40:	9c 2f       	mov	r25, r28
     c42:	1c 17       	cp	r17, r28
     c44:	08 f4       	brcc	.+2      	; 0xc48 <floatAround+0x38>
     c46:	91 2f       	mov	r25, r17
     c48:	80 2f       	mov	r24, r16
     c4a:	09 17       	cp	r16, r25
     c4c:	08 f4       	brcc	.+2      	; 0xc50 <floatAround+0x40>
     c4e:	89 2f       	mov	r24, r25
     c50:	df 91       	pop	r29
        if (sample > max) sample = max;
        if (sample < min) sample = min;
    }
    return sample;
}
     c52:	cf 91       	pop	r28
     c54:	1f 91       	pop	r17
     c56:	0f 91       	pop	r16
     c58:	08 95       	ret

00000c5a <SaveGameState>:
     c5a:	cf 92       	push	r12

//Save changed data to EEPROM
uint8_t SaveGameState(){
     c5c:	df 92       	push	r13
     c5e:	ff 92       	push	r15
     c60:	0f 93       	push	r16
     c62:	1f 93       	push	r17
     c64:	cf 93       	push	r28
     c66:	df 93       	push	r29
     c68:	cd b7       	in	r28, 0x3d	; 61
     c6a:	de b7       	in	r29, 0x3e	; 62
     c6c:	60 97       	sbiw	r28, 0x10	; 16
     c6e:	cd bf       	out	0x3d, r28	; 61
     c70:	de bf       	out	0x3e, r29	; 62
    uint8_t gameCheck[16];
    EERead(0, &gameCheck[0], 16);
     c72:	40 e1       	ldi	r20, 0x10	; 16
     c74:	be 01       	movw	r22, r28
     c76:	6f 5f       	subi	r22, 0xFF	; 255
     c78:	7f 4f       	sbci	r23, 0xFF	; 255
     c7a:	80 e0       	ldi	r24, 0x00	; 0
     c7c:	8f de       	rcall	.-738    	; 0x99c <EERead>
     c7e:	09 e4       	ldi	r16, 0x49	; 73
     c80:	1a e3       	ldi	r17, 0x3A	; 58
     c82:	ce 01       	movw	r24, r28
     c84:	01 96       	adiw	r24, 0x01	; 1
     c86:	6c 01       	movw	r12, r24
    for (uint8_t x=0; x<16; ++x){
     c88:	f1 2c       	mov	r15, r1
        if (gameState[x] != gameCheck[x]){
     c8a:	f6 01       	movw	r30, r12
     c8c:	81 91       	ld	r24, Z+
     c8e:	6f 01       	movw	r12, r30
     c90:	f8 01       	movw	r30, r16
     c92:	90 81       	ld	r25, Z
     c94:	98 17       	cp	r25, r24
     c96:	31 f0       	breq	.+12     	; 0xca4 <SaveGameState+0x4a>
            if (EEWrite(x, &gameState[x], 1)) return 1;
     c98:	41 e0       	ldi	r20, 0x01	; 1
     c9a:	b8 01       	movw	r22, r16
     c9c:	8f 2d       	mov	r24, r15
     c9e:	91 de       	rcall	.-734    	; 0x9c2 <EEWrite>
     ca0:	81 11       	cpse	r24, r1
     ca2:	08 c0       	rjmp	.+16     	; 0xcb4 <SaveGameState+0x5a>

//Save changed data to EEPROM
uint8_t SaveGameState(){
    uint8_t gameCheck[16];
    EERead(0, &gameCheck[0], 16);
    for (uint8_t x=0; x<16; ++x){
     ca4:	f3 94       	inc	r15
     ca6:	0f 5f       	subi	r16, 0xFF	; 255
     ca8:	1f 4f       	sbci	r17, 0xFF	; 255
     caa:	f0 e1       	ldi	r31, 0x10	; 16
     cac:	ff 12       	cpse	r15, r31
     cae:	ed cf       	rjmp	.-38     	; 0xc8a <SaveGameState+0x30>
        if (gameState[x] != gameCheck[x]){
            if (EEWrite(x, &gameState[x], 1)) return 1;
        }
    }
    return 0;
     cb0:	80 e0       	ldi	r24, 0x00	; 0
     cb2:	01 c0       	rjmp	.+2      	; 0xcb6 <SaveGameState+0x5c>
uint8_t SaveGameState(){
    uint8_t gameCheck[16];
    EERead(0, &gameCheck[0], 16);
    for (uint8_t x=0; x<16; ++x){
        if (gameState[x] != gameCheck[x]){
            if (EEWrite(x, &gameState[x], 1)) return 1;
     cb4:	81 e0       	ldi	r24, 0x01	; 1
        }
    }
    return 0;
}
     cb6:	60 96       	adiw	r28, 0x10	; 16
     cb8:	cd bf       	out	0x3d, r28	; 61
     cba:	de bf       	out	0x3e, r29	; 62
     cbc:	df 91       	pop	r29
     cbe:	cf 91       	pop	r28
     cc0:	1f 91       	pop	r17
     cc2:	0f 91       	pop	r16
     cc4:	ff 90       	pop	r15
     cc6:	df 90       	pop	r13
     cc8:	cf 90       	pop	r12
     cca:	08 95       	ret

00000ccc <ReadStatusBit>:

uint8_t ReadStatusBit(uint8_t number){
    number &= 0x3f;
    if (gameState[number>>3] & (1<<(number&7))) return 1; else return 0;
     ccc:	e8 2f       	mov	r30, r24
     cce:	ef 73       	andi	r30, 0x3F	; 63
     cd0:	e6 95       	lsr	r30
     cd2:	e6 95       	lsr	r30
     cd4:	e6 95       	lsr	r30
     cd6:	f0 e0       	ldi	r31, 0x00	; 0
     cd8:	e7 5b       	subi	r30, 0xB7	; 183
     cda:	f5 4c       	sbci	r31, 0xC5	; 197
     cdc:	20 81       	ld	r18, Z
     cde:	30 e0       	ldi	r19, 0x00	; 0
     ce0:	87 70       	andi	r24, 0x07	; 7
     ce2:	a9 01       	movw	r20, r18
     ce4:	02 c0       	rjmp	.+4      	; 0xcea <ReadStatusBit+0x1e>
     ce6:	55 95       	asr	r21
     ce8:	47 95       	ror	r20
     cea:	8a 95       	dec	r24
     cec:	e2 f7       	brpl	.-8      	; 0xce6 <ReadStatusBit+0x1a>
     cee:	ca 01       	movw	r24, r20
}
     cf0:	81 70       	andi	r24, 0x01	; 1
     cf2:	08 95       	ret

00000cf4 <WriteStatusBit>:

void WriteStatusBit(uint8_t number, uint8_t state){
    number &= 0x3f;
     cf4:	e8 2f       	mov	r30, r24
     cf6:	ef 73       	andi	r30, 0x3F	; 63
    if (state) gameState[number>>3] |= 1<<(number&7);
     cf8:	66 23       	and	r22, r22
     cfa:	a1 f0       	breq	.+40     	; 0xd24 <WriteStatusBit+0x30>
     cfc:	e6 95       	lsr	r30
     cfe:	e6 95       	lsr	r30
     d00:	e6 95       	lsr	r30
     d02:	f0 e0       	ldi	r31, 0x00	; 0
     d04:	e7 5b       	subi	r30, 0xB7	; 183
     d06:	f5 4c       	sbci	r31, 0xC5	; 197
     d08:	87 70       	andi	r24, 0x07	; 7
     d0a:	21 e0       	ldi	r18, 0x01	; 1
     d0c:	30 e0       	ldi	r19, 0x00	; 0
     d0e:	a9 01       	movw	r20, r18
     d10:	02 c0       	rjmp	.+4      	; 0xd16 <WriteStatusBit+0x22>
     d12:	44 0f       	add	r20, r20
     d14:	55 1f       	adc	r21, r21
     d16:	8a 95       	dec	r24
     d18:	e2 f7       	brpl	.-8      	; 0xd12 <WriteStatusBit+0x1e>
     d1a:	ca 01       	movw	r24, r20
     d1c:	90 81       	ld	r25, Z
     d1e:	89 2b       	or	r24, r25
     d20:	80 83       	st	Z, r24
     d22:	08 95       	ret
    else gameState[number>>3] &= ~(1<<(number&7));
     d24:	e6 95       	lsr	r30
     d26:	e6 95       	lsr	r30
     d28:	e6 95       	lsr	r30
     d2a:	f0 e0       	ldi	r31, 0x00	; 0
     d2c:	e7 5b       	subi	r30, 0xB7	; 183
     d2e:	f5 4c       	sbci	r31, 0xC5	; 197
     d30:	87 70       	andi	r24, 0x07	; 7
     d32:	21 e0       	ldi	r18, 0x01	; 1
     d34:	30 e0       	ldi	r19, 0x00	; 0
     d36:	a9 01       	movw	r20, r18
     d38:	02 c0       	rjmp	.+4      	; 0xd3e <WriteStatusBit+0x4a>
     d3a:	44 0f       	add	r20, r20
     d3c:	55 1f       	adc	r21, r21
     d3e:	8a 95       	dec	r24
     d40:	e2 f7       	brpl	.-8      	; 0xd3a <WriteStatusBit+0x46>
     d42:	ca 01       	movw	r24, r20
     d44:	80 95       	com	r24
     d46:	90 81       	ld	r25, Z
     d48:	89 23       	and	r24, r25
     d4a:	80 83       	st	Z, r24
     d4c:	08 95       	ret

00000d4e <Reset>:
}

void Reset(){
     d4e:	e9 e4       	ldi	r30, 0x49	; 73
     d50:	fa e3       	ldi	r31, 0x3A	; 58
     d52:	89 e5       	ldi	r24, 0x59	; 89
     d54:	9a e3       	ldi	r25, 0x3A	; 58
    //# 110   set to 1 by FW if badge UUID mod 4 == 0
    //# 111   set to 1 by FW if badge UUID mod 4 == 1
    //# 112   set to 1 by FW if badge UUID mod 4 == 2
    //# 113   set to 1 by FW if badge UUID mod 4 == 3
    for (uint8_t x=0; x<sizeof(gameState); ++x){
        gameState[x] = 0;
     d56:	11 92       	st	Z+, r1
    //Reset game progress (all zeroes) and load some bits:
    //# 110   set to 1 by FW if badge UUID mod 4 == 0
    //# 111   set to 1 by FW if badge UUID mod 4 == 1
    //# 112   set to 1 by FW if badge UUID mod 4 == 2
    //# 113   set to 1 by FW if badge UUID mod 4 == 3
    for (uint8_t x=0; x<sizeof(gameState); ++x){
     d58:	8e 17       	cp	r24, r30
     d5a:	9f 07       	cpc	r25, r31
     d5c:	e1 f7       	brne	.-8      	; 0xd56 <Reset+0x8>
     d5e:	e3 e0       	ldi	r30, 0x03	; 3
     d60:	f1 e1       	ldi	r31, 0x11	; 17
     d62:	80 e0       	ldi	r24, 0x00	; 0
    uint8_t *serNum;
    serNum = (uint8_t*)&SIGROW_SERNUM0;
    
    //Give out a number 0..3, calculated using serial number fields
    for (uint8_t x=0; x<10; ++x){
        id += *serNum;
     d64:	91 91       	ld	r25, Z+
     d66:	89 0f       	add	r24, r25
    uint8_t id = 0;
    uint8_t *serNum;
    serNum = (uint8_t*)&SIGROW_SERNUM0;
    
    //Give out a number 0..3, calculated using serial number fields
    for (uint8_t x=0; x<10; ++x){
     d68:	ed 30       	cpi	r30, 0x0D	; 13
     d6a:	91 e1       	ldi	r25, 0x11	; 17
     d6c:	f9 07       	cpc	r31, r25
     d6e:	d1 f7       	brne	.-12     	; 0xd64 <Reset+0x16>
        id += *serNum;
        ++serNum;
    }
    id %= 4;
     d70:	83 70       	andi	r24, 0x03	; 3

    //Write bit in gameState location 110..113
    if (id == 0) WriteStatusBit(110, 1);
     d72:	31 f4       	brne	.+12     	; 0xd80 <Reset+0x32>
    if (gameState[number>>3] & (1<<(number&7))) return 1; else return 0;
}

void WriteStatusBit(uint8_t number, uint8_t state){
    number &= 0x3f;
    if (state) gameState[number>>3] |= 1<<(number&7);
     d74:	e9 e4       	ldi	r30, 0x49	; 73
     d76:	fa e3       	ldi	r31, 0x3A	; 58
     d78:	85 81       	ldd	r24, Z+5	; 0x05
     d7a:	80 64       	ori	r24, 0x40	; 64
     d7c:	85 83       	std	Z+5, r24	; 0x05
     d7e:	17 c0       	rjmp	.+46     	; 0xdae <Reset+0x60>
    }
    id %= 4;

    //Write bit in gameState location 110..113
    if (id == 0) WriteStatusBit(110, 1);
    else if (id == 1) WriteStatusBit(111, 1);
     d80:	81 30       	cpi	r24, 0x01	; 1
     d82:	31 f4       	brne	.+12     	; 0xd90 <Reset+0x42>
    if (gameState[number>>3] & (1<<(number&7))) return 1; else return 0;
}

void WriteStatusBit(uint8_t number, uint8_t state){
    number &= 0x3f;
    if (state) gameState[number>>3] |= 1<<(number&7);
     d84:	e9 e4       	ldi	r30, 0x49	; 73
     d86:	fa e3       	ldi	r31, 0x3A	; 58
     d88:	85 81       	ldd	r24, Z+5	; 0x05
     d8a:	80 68       	ori	r24, 0x80	; 128
     d8c:	85 83       	std	Z+5, r24	; 0x05
     d8e:	0f c0       	rjmp	.+30     	; 0xdae <Reset+0x60>
    id %= 4;

    //Write bit in gameState location 110..113
    if (id == 0) WriteStatusBit(110, 1);
    else if (id == 1) WriteStatusBit(111, 1);
    else if (id == 2) WriteStatusBit(112, 1);
     d90:	82 30       	cpi	r24, 0x02	; 2
     d92:	31 f4       	brne	.+12     	; 0xda0 <Reset+0x52>
    if (gameState[number>>3] & (1<<(number&7))) return 1; else return 0;
}

void WriteStatusBit(uint8_t number, uint8_t state){
    number &= 0x3f;
    if (state) gameState[number>>3] |= 1<<(number&7);
     d94:	e9 e4       	ldi	r30, 0x49	; 73
     d96:	fa e3       	ldi	r31, 0x3A	; 58
     d98:	86 81       	ldd	r24, Z+6	; 0x06
     d9a:	81 60       	ori	r24, 0x01	; 1
     d9c:	86 83       	std	Z+6, r24	; 0x06
     d9e:	07 c0       	rjmp	.+14     	; 0xdae <Reset+0x60>

    //Write bit in gameState location 110..113
    if (id == 0) WriteStatusBit(110, 1);
    else if (id == 1) WriteStatusBit(111, 1);
    else if (id == 2) WriteStatusBit(112, 1);
    else if (id == 3) WriteStatusBit(113, 1);
     da0:	83 30       	cpi	r24, 0x03	; 3
     da2:	29 f4       	brne	.+10     	; 0xdae <Reset+0x60>
    if (gameState[number>>3] & (1<<(number&7))) return 1; else return 0;
}

void WriteStatusBit(uint8_t number, uint8_t state){
    number &= 0x3f;
    if (state) gameState[number>>3] |= 1<<(number&7);
     da4:	e9 e4       	ldi	r30, 0x49	; 73
     da6:	fa e3       	ldi	r31, 0x3A	; 58
     da8:	86 81       	ldd	r24, Z+6	; 0x06
     daa:	82 60       	ori	r24, 0x02	; 2
     dac:	86 83       	std	Z+6, r24	; 0x06
     dae:	e9 e4       	ldi	r30, 0x49	; 73
     db0:	fa e3       	ldi	r31, 0x3A	; 58
     db2:	80 81       	ld	r24, Z
     db4:	81 60       	ori	r24, 0x01	; 1
     db6:	80 83       	st	Z, r24
     db8:	08 95       	ret

00000dba <GenerateAudio>:
    WriteStatusBit(0, 1);
}

//void setupSound(uint8_t number){

void GenerateAudio(){
     dba:	0f 93       	push	r16
     dbc:	1f 93       	push	r17
     dbe:	cf 93       	push	r28
     dc0:	df 93       	push	r29
    static uint8_t auBuffer[128] = {0x80, 0};
    //auRepAddr = &auBuffer[0];

    //Audio for text adventure
    if ((effect&0xff00)==0) {
     dc2:	80 91 93 38 	lds	r24, 0x3893	; 0x803893 <effect>
     dc6:	90 91 94 38 	lds	r25, 0x3894	; 0x803894 <effect+0x1>
     dca:	88 27       	eor	r24, r24
     dcc:	89 2b       	or	r24, r25
     dce:	09 f0       	breq	.+2      	; 0xdd2 <GenerateAudio+0x18>
     dd0:	68 c0       	rjmp	.+208    	; 0xea2 <GenerateAudio+0xe8>

        //Silence
        if ((effect&0xE0)==0){
     dd2:	80 91 93 38 	lds	r24, 0x3893	; 0x803893 <effect>
     dd6:	90 91 94 38 	lds	r25, 0x3894	; 0x803894 <effect+0x1>
     dda:	80 7e       	andi	r24, 0xE0	; 224
     ddc:	99 27       	eor	r25, r25
     dde:	89 2b       	or	r24, r25
     de0:	39 f4       	brne	.+14     	; 0xdf0 <GenerateAudio+0x36>
            auRepAddr = zero;
     de2:	80 91 91 38 	lds	r24, 0x3891	; 0x803891 <zero>
     de6:	90 e0       	ldi	r25, 0x00	; 0
     de8:	80 93 00 38 	sts	0x3800, r24	; 0x803800 <__data_start>
     dec:	90 93 01 38 	sts	0x3801, r25	; 0x803801 <__data_start+0x1>
        }

        //Bad (buzzer)
        if ((effect&0xE0)==32){
     df0:	80 91 93 38 	lds	r24, 0x3893	; 0x803893 <effect>
     df4:	90 91 94 38 	lds	r25, 0x3894	; 0x803894 <effect+0x1>

        }

        //Good (bell)
        if ((effect&0xE0)==64){
     df8:	80 91 93 38 	lds	r24, 0x3893	; 0x803893 <effect>
     dfc:	90 91 94 38 	lds	r25, 0x3894	; 0x803894 <effect+0x1>
            //auBuffer = 
        }

        //Rain storm with whistling wind
        if ((effect&0xE0)==96){
     e00:	80 91 93 38 	lds	r24, 0x3893	; 0x803893 <effect>
     e04:	90 91 94 38 	lds	r25, 0x3894	; 0x803894 <effect+0x1>
     e08:	80 7e       	andi	r24, 0xE0	; 224
     e0a:	99 27       	eor	r25, r25
     e0c:	80 36       	cpi	r24, 0x60	; 96
     e0e:	91 05       	cpc	r25, r1
     e10:	09 f0       	breq	.+2      	; 0xe14 <GenerateAudio+0x5a>
     e12:	3b c0       	rjmp	.+118    	; 0xe8a <GenerateAudio+0xd0>
            auBuffer[6]= 0;        
     e14:	e5 e0       	ldi	r30, 0x05	; 5
     e16:	f8 e3       	ldi	r31, 0x38	; 56
     e18:	16 82       	std	Z+6, r1	; 0x06
            auRepAddr = &auBuffer[0];
     e1a:	e0 93 00 38 	sts	0x3800, r30	; 0x803800 <__data_start>
     e1e:	f0 93 01 38 	sts	0x3801, r31	; 0x803801 <__data_start+0x1>
     e22:	8f 01       	movw	r16, r30

            //Noise is to be generated fast, outside of buttonMark loop
            for (uint8_t x=1; x<6; ++x){
     e24:	c1 e0       	ldi	r28, 0x01	; 1
                if (x%3) auBuffer[x] = floatAround(0x80, 5, 0x01, 0x00);
     e26:	db ea       	ldi	r29, 0xAB	; 171
     e28:	cd 9f       	mul	r28, r29
     e2a:	81 2d       	mov	r24, r1
     e2c:	11 24       	eor	r1, r1
     e2e:	86 95       	lsr	r24
     e30:	98 2f       	mov	r25, r24
     e32:	99 0f       	add	r25, r25
     e34:	89 0f       	add	r24, r25
     e36:	c8 17       	cp	r28, r24
     e38:	39 f0       	breq	.+14     	; 0xe48 <GenerateAudio+0x8e>
     e3a:	20 e0       	ldi	r18, 0x00	; 0
     e3c:	41 e0       	ldi	r20, 0x01	; 1
     e3e:	65 e0       	ldi	r22, 0x05	; 5
     e40:	80 e8       	ldi	r24, 0x80	; 128
     e42:	e6 de       	rcall	.-564    	; 0xc10 <floatAround>
     e44:	f8 01       	movw	r30, r16
     e46:	81 83       	std	Z+1, r24	; 0x01
        if ((effect&0xE0)==96){
            auBuffer[6]= 0;        
            auRepAddr = &auBuffer[0];

            //Noise is to be generated fast, outside of buttonMark loop
            for (uint8_t x=1; x<6; ++x){
     e48:	cf 5f       	subi	r28, 0xFF	; 255
     e4a:	0f 5f       	subi	r16, 0xFF	; 255
     e4c:	1f 4f       	sbci	r17, 0xFF	; 255
     e4e:	c6 30       	cpi	r28, 0x06	; 6
     e50:	59 f7       	brne	.-42     	; 0xe28 <GenerateAudio+0x6e>
                if (x%3) auBuffer[x] = floatAround(0x80, 5, 0x01, 0x00);
            }

            if (buttonMark){
     e52:	80 91 95 38 	lds	r24, 0x3895	; 0x803895 <buttonMark>
     e56:	88 23       	and	r24, r24
     e58:	c1 f0       	breq	.+48     	; 0xe8a <GenerateAudio+0xd0>
                //"Floating" speed for howl (and noise, but that's hardly audible)
                floatSpeed(5, 0x0280, 0x0400);
     e5a:	40 e0       	ldi	r20, 0x00	; 0
     e5c:	54 e0       	ldi	r21, 0x04	; 4
     e5e:	60 e8       	ldi	r22, 0x80	; 128
     e60:	72 e0       	ldi	r23, 0x02	; 2
     e62:	85 e0       	ldi	r24, 0x05	; 5
     e64:	a1 de       	rcall	.-702    	; 0xba8 <floatSpeed>
            
                //"Floating" volume and wind howl during 8 bit rainstorm needs some randomness
                auVolume = floatAround(auVolume, 2, 0x10, 0xA0);
     e66:	80 91 9a 3a 	lds	r24, 0x3A9A	; 0x803a9a <auVolume>
     e6a:	20 ea       	ldi	r18, 0xA0	; 160
     e6c:	40 e1       	ldi	r20, 0x10	; 16
     e6e:	62 e0       	ldi	r22, 0x02	; 2
     e70:	cf de       	rcall	.-610    	; 0xc10 <floatAround>
     e72:	80 93 9a 3a 	sts	0x3A9A, r24	; 0x803a9a <auVolume>
                auBuffer[0] = floatAround(auBuffer[0], 2, 0x70, 0x90);
     e76:	c5 e0       	ldi	r28, 0x05	; 5
     e78:	d8 e3       	ldi	r29, 0x38	; 56
     e7a:	20 e9       	ldi	r18, 0x90	; 144
     e7c:	40 e7       	ldi	r20, 0x70	; 112
     e7e:	62 e0       	ldi	r22, 0x02	; 2
     e80:	88 81       	ld	r24, Y
     e82:	c6 de       	rcall	.-628    	; 0xc10 <floatAround>
     e84:	88 83       	st	Y, r24
                auBuffer[3] = 0xFF-auBuffer[0];  //Inverse value of wind[0] produces a whistle
     e86:	80 95       	com	r24
     e88:	8b 83       	std	Y+3, r24	; 0x03
            }
        }

        //Footsteps
        if ((effect&0xE0)==128){
     e8a:	80 91 93 38 	lds	r24, 0x3893	; 0x803893 <effect>
     e8e:	90 91 94 38 	lds	r25, 0x3894	; 0x803894 <effect+0x1>

        }

        //Knocking
        if ((effect&0xE0)==160){
     e92:	80 91 93 38 	lds	r24, 0x3893	; 0x803893 <effect>
     e96:	90 91 94 38 	lds	r25, 0x3894	; 0x803894 <effect+0x1>

        }

        //Scream
        if ((effect&0xE0)==192){
     e9a:	80 91 93 38 	lds	r24, 0x3893	; 0x803893 <effect>
     e9e:	90 91 94 38 	lds	r25, 0x3894	; 0x803894 <effect+0x1>

        //Rain storm with whistling wind
        else {
        }
    }
     ea2:	df 91       	pop	r29
     ea4:	cf 91       	pop	r28
     ea6:	1f 91       	pop	r17
     ea8:	0f 91       	pop	r16
     eaa:	08 95       	ret

00000eac <BastetDictates>:

// Main game loop
uint8_t BastetDictates(){
  
    return 0;
}
     eac:	80 e0       	ldi	r24, 0x00	; 0
     eae:	08 95       	ret

00000eb0 <DecryptData>:
    length %= (TXLEN-numCR-1);
    for (uint8_t x=0; x<numCR; ++x) txBuffer[x]='\n';
    if (length) ExtEERead(address, length, TEASER, &txBuffer[numCR]);
    txBuffer[numCR+length]='\0';
    SerSend(&txBuffer[0]);
}
     eb0:	cf 93       	push	r28
     eb2:	df 93       	push	r29
     eb4:	dc 01       	movw	r26, r24
     eb6:	e9 01       	movw	r28, r18
     eb8:	66 23       	and	r22, r22
     eba:	a9 f0       	breq	.+42     	; 0xee6 <DecryptData+0x36>
     ebc:	50 e0       	ldi	r21, 0x00	; 0
     ebe:	44 0f       	add	r20, r20
     ec0:	55 1f       	adc	r21, r21
     ec2:	44 0f       	add	r20, r20
     ec4:	55 1f       	adc	r21, r21
     ec6:	44 0f       	add	r20, r20
     ec8:	55 1f       	adc	r21, r21
     eca:	46 5d       	subi	r20, 0xD6	; 214
     ecc:	55 46       	sbci	r21, 0x65	; 101
     ece:	fd 01       	movw	r30, r26
     ed0:	e7 70       	andi	r30, 0x07	; 7
     ed2:	ff 27       	eor	r31, r31
     ed4:	e4 0f       	add	r30, r20
     ed6:	f5 1f       	adc	r31, r21
     ed8:	88 81       	ld	r24, Y
     eda:	90 81       	ld	r25, Z
     edc:	98 27       	eor	r25, r24
     ede:	99 93       	st	Y+, r25
     ee0:	11 96       	adiw	r26, 0x01	; 1
     ee2:	61 50       	subi	r22, 0x01	; 1
     ee4:	a1 f7       	brne	.-24     	; 0xece <DecryptData+0x1e>
     ee6:	df 91       	pop	r29
     ee8:	cf 91       	pop	r28
     eea:	08 95       	ret

00000eec <ExtEERead>:
     eec:	af 92       	push	r10
     eee:	bf 92       	push	r11
     ef0:	cf 92       	push	r12
     ef2:	df 92       	push	r13
     ef4:	ef 92       	push	r14
     ef6:	ff 92       	push	r15
     ef8:	0f 93       	push	r16
     efa:	1f 93       	push	r17
     efc:	cf 93       	push	r28
     efe:	df 93       	push	r29
     f00:	00 d0       	rcall	.+0      	; 0xf02 <ExtEERead+0x16>
     f02:	cd b7       	in	r28, 0x3d	; 61
     f04:	de b7       	in	r29, 0x3e	; 62
     f06:	d6 2e       	mov	r13, r22
     f08:	c4 2e       	mov	r12, r20
     f0a:	59 01       	movw	r10, r18
     f0c:	7c 01       	movw	r14, r24
     f0e:	e8 94       	clt
     f10:	f7 f8       	bld	r15, 7
     f12:	f9 82       	std	Y+1, r15	; 0x01
     f14:	ea 82       	std	Y+2, r14	; 0x02
     f16:	06 2f       	mov	r16, r22
     f18:	42 e0       	ldi	r20, 0x02	; 2
     f1a:	be 01       	movw	r22, r28
     f1c:	6f 5f       	subi	r22, 0xFF	; 255
     f1e:	7f 4f       	sbci	r23, 0xFF	; 255
     f20:	80 e5       	ldi	r24, 0x50	; 80
     f22:	c0 d9       	rcall	.-3200   	; 0x2a4 <I2C_read_bytes>
     f24:	18 2f       	mov	r17, r24
     f26:	81 11       	cpse	r24, r1
     f28:	05 c0       	rjmp	.+10     	; 0xf34 <ExtEERead+0x48>
     f2a:	95 01       	movw	r18, r10
     f2c:	4c 2d       	mov	r20, r12
     f2e:	6d 2d       	mov	r22, r13
     f30:	c7 01       	movw	r24, r14
     f32:	be df       	rcall	.-132    	; 0xeb0 <DecryptData>
     f34:	81 2f       	mov	r24, r17
     f36:	0f 90       	pop	r0
     f38:	0f 90       	pop	r0
     f3a:	df 91       	pop	r29
     f3c:	cf 91       	pop	r28
     f3e:	1f 91       	pop	r17
     f40:	0f 91       	pop	r16
     f42:	ff 90       	pop	r15
     f44:	ef 90       	pop	r14
     f46:	df 90       	pop	r13
     f48:	cf 90       	pop	r12
     f4a:	bf 90       	pop	r11
     f4c:	af 90       	pop	r10
     f4e:	08 95       	ret

00000f50 <ClearTxAfter>:
     f50:	8f 5f       	subi	r24, 0xFF	; 255
     f52:	88 30       	cpi	r24, 0x08	; 8
     f54:	40 f4       	brcc	.+16     	; 0xf66 <ClearTxAfter+0x16>
     f56:	e8 2f       	mov	r30, r24
     f58:	f0 e0       	ldi	r31, 0x00	; 0
     f5a:	e1 5d       	subi	r30, 0xD1	; 209
     f5c:	f5 4c       	sbci	r31, 0xC5	; 197
     f5e:	10 82       	st	Z, r1
     f60:	8f 5f       	subi	r24, 0xFF	; 255
     f62:	88 30       	cpi	r24, 0x08	; 8
     f64:	c1 f7       	brne	.-16     	; 0xf56 <ClearTxAfter+0x6>
     f66:	08 95       	ret

00000f68 <StartsWith>:
     f68:	fc 01       	movw	r30, r24
     f6a:	90 81       	ld	r25, Z
     f6c:	91 11       	cpse	r25, r1
     f6e:	07 c0       	rjmp	.+14     	; 0xf7e <StartsWith+0x16>
     f70:	81 e0       	ldi	r24, 0x01	; 1
     f72:	08 95       	ret
     f74:	81 e0       	ldi	r24, 0x01	; 1
     f76:	92 17       	cp	r25, r18
     f78:	39 f0       	breq	.+14     	; 0xf88 <StartsWith+0x20>
     f7a:	80 e0       	ldi	r24, 0x00	; 0
     f7c:	08 95       	ret
     f7e:	fb 01       	movw	r30, r22
     f80:	20 81       	ld	r18, Z
     f82:	21 11       	cpse	r18, r1
     f84:	f7 cf       	rjmp	.-18     	; 0xf74 <StartsWith+0xc>
     f86:	81 e0       	ldi	r24, 0x01	; 1
     f88:	08 95       	ret

00000f8a <PrepareSending>:
     f8a:	1f 93       	push	r17
     f8c:	cf 93       	push	r28
     f8e:	df 93       	push	r29
     f90:	eb 01       	movw	r28, r22
     f92:	12 2f       	mov	r17, r18
     f94:	20 97       	sbiw	r28, 0x00	; 0
     f96:	e9 f0       	breq	.+58     	; 0xfd2 <PrepareSending+0x48>
     f98:	6f 3f       	cpi	r22, 0xFF	; 255
     f9a:	71 05       	cpc	r23, r1
     f9c:	01 f1       	breq	.+64     	; 0xfde <PrepareSending+0x54>
     f9e:	f8 f0       	brcs	.+62     	; 0xfde <PrepareSending+0x54>
     fa0:	50 e0       	ldi	r21, 0x00	; 0
     fa2:	6f ef       	ldi	r22, 0xFF	; 255
     fa4:	25 2f       	mov	r18, r21
     fa6:	30 e0       	ldi	r19, 0x00	; 0
     fa8:	f9 01       	movw	r30, r18
     faa:	ee 0f       	add	r30, r30
     fac:	ff 1f       	adc	r31, r31
     fae:	e9 5c       	subi	r30, 0xC9	; 201
     fb0:	f5 4c       	sbci	r31, 0xC5	; 197
     fb2:	80 83       	st	Z, r24
     fb4:	91 83       	std	Z+1, r25	; 0x01
     fb6:	f9 01       	movw	r30, r18
     fb8:	e1 5d       	subi	r30, 0xD1	; 209
     fba:	f5 4c       	sbci	r31, 0xC5	; 197
     fbc:	60 83       	st	Z, r22
     fbe:	81 50       	subi	r24, 0x01	; 1
     fc0:	9f 4f       	sbci	r25, 0xFF	; 255
     fc2:	cf 5f       	subi	r28, 0xFF	; 255
     fc4:	d1 09       	sbc	r29, r1
     fc6:	5f 5f       	subi	r21, 0xFF	; 255
     fc8:	cf 3f       	cpi	r28, 0xFF	; 255
     fca:	d1 05       	cpc	r29, r1
     fcc:	09 f0       	breq	.+2      	; 0xfd0 <PrepareSending+0x46>
     fce:	50 f7       	brcc	.-44     	; 0xfa4 <PrepareSending+0x1a>
     fd0:	07 c0       	rjmp	.+14     	; 0xfe0 <PrepareSending+0x56>
     fd2:	10 92 37 3a 	sts	0x3A37, r1	; 0x803a37 <txAddrList>
     fd6:	10 92 38 3a 	sts	0x3A38, r1	; 0x803a38 <txAddrList+0x1>
     fda:	50 e0       	ldi	r21, 0x00	; 0
     fdc:	21 c0       	rjmp	.+66     	; 0x1020 <PrepareSending+0x96>
     fde:	50 e0       	ldi	r21, 0x00	; 0
     fe0:	25 2f       	mov	r18, r21
     fe2:	30 e0       	ldi	r19, 0x00	; 0
     fe4:	f9 01       	movw	r30, r18
     fe6:	ee 0f       	add	r30, r30
     fe8:	ff 1f       	adc	r31, r31
     fea:	e9 5c       	subi	r30, 0xC9	; 201
     fec:	f5 4c       	sbci	r31, 0xC5	; 197
     fee:	80 83       	st	Z, r24
     ff0:	91 83       	std	Z+1, r25	; 0x01
     ff2:	f9 01       	movw	r30, r18
     ff4:	e1 5d       	subi	r30, 0xD1	; 209
     ff6:	f5 4c       	sbci	r31, 0xC5	; 197
     ff8:	9e 01       	movw	r18, r28
     ffa:	a1 e8       	ldi	r26, 0x81	; 129
     ffc:	b0 e8       	ldi	r27, 0x80	; 128
     ffe:	ed d4       	rcall	.+2522   	; 0x19da <__umulhisi3>
    1000:	88 0f       	add	r24, r24
    1002:	89 2f       	mov	r24, r25
    1004:	88 1f       	adc	r24, r24
    1006:	99 0b       	sbc	r25, r25
    1008:	91 95       	neg	r25
    100a:	6f ef       	ldi	r22, 0xFF	; 255
    100c:	68 9f       	mul	r22, r24
    100e:	90 01       	movw	r18, r0
    1010:	69 9f       	mul	r22, r25
    1012:	30 0d       	add	r19, r0
    1014:	11 24       	eor	r1, r1
    1016:	c2 1b       	sub	r28, r18
    1018:	d3 0b       	sbc	r29, r19
    101a:	c0 83       	st	Z, r28
    101c:	40 93 2c 3a 	sts	0x3A2C, r20	; 0x803a2c <txTypeNow>
    1020:	85 2f       	mov	r24, r21
    1022:	96 df       	rcall	.-212    	; 0xf50 <ClearTxAfter>
    1024:	10 93 2d 3a 	sts	0x3A2D, r17	; 0x803a2d <sendPrompt>
    1028:	10 92 2e 3a 	sts	0x3A2E, r1	; 0x803a2e <txAddrNow>
    102c:	80 e0       	ldi	r24, 0x00	; 0
    102e:	df 91       	pop	r29
    1030:	cf 91       	pop	r28
    1032:	1f 91       	pop	r17
    1034:	08 95       	ret

00001036 <PopulateObject>:
    1036:	6f 92       	push	r6
    1038:	7f 92       	push	r7
    103a:	8f 92       	push	r8
    103c:	9f 92       	push	r9
    103e:	af 92       	push	r10
    1040:	bf 92       	push	r11
    1042:	cf 92       	push	r12
    1044:	df 92       	push	r13
    1046:	ef 92       	push	r14
    1048:	ff 92       	push	r15
    104a:	0f 93       	push	r16
    104c:	1f 93       	push	r17
    104e:	cf 93       	push	r28
    1050:	df 93       	push	r29
    1052:	cd b7       	in	r28, 0x3d	; 61
    1054:	de b7       	in	r29, 0x3e	; 62
    1056:	2c 97       	sbiw	r28, 0x0c	; 12
    1058:	cd bf       	out	0x3d, r28	; 61
    105a:	de bf       	out	0x3e, r29	; 62
    105c:	8c 01       	movw	r16, r24
    105e:	5b 01       	movw	r10, r22
    1060:	9e 01       	movw	r18, r28
    1062:	2f 5f       	subi	r18, 0xFF	; 255
    1064:	3f 4f       	sbci	r19, 0xFF	; 255
    1066:	40 e0       	ldi	r20, 0x00	; 0
    1068:	6c e0       	ldi	r22, 0x0C	; 12
    106a:	80 96       	adiw	r24, 0x20	; 32
    106c:	3f df       	rcall	.-386    	; 0xeec <ExtEERead>
    106e:	89 81       	ldd	r24, Y+1	; 0x01
    1070:	90 e0       	ldi	r25, 0x00	; 0
    1072:	98 2f       	mov	r25, r24
    1074:	88 27       	eor	r24, r24
    1076:	2a 81       	ldd	r18, Y+2	; 0x02
    1078:	82 2b       	or	r24, r18
    107a:	80 96       	adiw	r24, 0x20	; 32
    107c:	f5 01       	movw	r30, r10
    107e:	80 83       	st	Z, r24
    1080:	91 83       	std	Z+1, r25	; 0x01
    1082:	8b 81       	ldd	r24, Y+3	; 0x03
    1084:	90 e0       	ldi	r25, 0x00	; 0
    1086:	98 2f       	mov	r25, r24
    1088:	88 27       	eor	r24, r24
    108a:	2c 81       	ldd	r18, Y+4	; 0x04
    108c:	82 2b       	or	r24, r18
    108e:	80 96       	adiw	r24, 0x20	; 32
    1090:	82 83       	std	Z+2, r24	; 0x02
    1092:	93 83       	std	Z+3, r25	; 0x03
    1094:	fe 01       	movw	r30, r28
    1096:	35 96       	adiw	r30, 0x05	; 5
    1098:	d5 01       	movw	r26, r10
    109a:	14 96       	adiw	r26, 0x04	; 4
    109c:	9e 01       	movw	r18, r28
    109e:	23 5f       	subi	r18, 0xF3	; 243
    10a0:	3f 4f       	sbci	r19, 0xFF	; 255
    10a2:	81 91       	ld	r24, Z+
    10a4:	8d 93       	st	X+, r24
    10a6:	e2 17       	cp	r30, r18
    10a8:	f3 07       	cpc	r31, r19
    10aa:	d9 f7       	brne	.-10     	; 0x10a2 <PopulateObject+0x6c>
    10ac:	38 01       	movw	r6, r16
    10ae:	fc e2       	ldi	r31, 0x2C	; 44
    10b0:	6f 0e       	add	r6, r31
    10b2:	71 1c       	adc	r7, r1
    10b4:	03 5d       	subi	r16, 0xD3	; 211
    10b6:	1f 4f       	sbci	r17, 0xFF	; 255
    10b8:	f5 01       	movw	r30, r10
    10ba:	04 87       	std	Z+12, r16	; 0x0c
    10bc:	15 87       	std	Z+13, r17	; 0x0d
    10be:	65 01       	movw	r12, r10
    10c0:	fe e0       	ldi	r31, 0x0E	; 14
    10c2:	cf 0e       	add	r12, r31
    10c4:	d1 1c       	adc	r13, r1
    10c6:	45 01       	movw	r8, r10
    10c8:	8a e1       	ldi	r24, 0x1A	; 26
    10ca:	88 0e       	add	r8, r24
    10cc:	91 1c       	adc	r9, r1
    10ce:	73 01       	movw	r14, r6
    10d0:	02 c0       	rjmp	.+4      	; 0x10d6 <PopulateObject+0xa0>
    10d2:	78 01       	movw	r14, r16
    10d4:	38 01       	movw	r6, r16
    10d6:	83 01       	movw	r16, r6
    10d8:	9e 01       	movw	r18, r28
    10da:	2f 5f       	subi	r18, 0xFF	; 255
    10dc:	3f 4f       	sbci	r19, 0xFF	; 255
    10de:	40 e0       	ldi	r20, 0x00	; 0
    10e0:	61 e0       	ldi	r22, 0x01	; 1
    10e2:	c8 01       	movw	r24, r16
    10e4:	03 df       	rcall	.-506    	; 0xeec <ExtEERead>
    10e6:	89 81       	ldd	r24, Y+1	; 0x01
    10e8:	98 01       	movw	r18, r16
    10ea:	28 0f       	add	r18, r24
    10ec:	31 1d       	adc	r19, r1
    10ee:	89 01       	movw	r16, r18
    10f0:	0f 5f       	subi	r16, 0xFF	; 255
    10f2:	1f 4f       	sbci	r17, 0xFF	; 255
    10f4:	12 f0       	brmi	.+4      	; 0x10fa <PopulateObject+0xc4>
    10f6:	8f 3f       	cpi	r24, 0xFF	; 255
    10f8:	79 f3       	breq	.-34     	; 0x10d8 <PopulateObject+0xa2>
    10fa:	e0 94       	com	r14
    10fc:	f0 94       	com	r15
    10fe:	e0 0e       	add	r14, r16
    1100:	f1 1e       	adc	r15, r17
    1102:	e8 94       	clt
    1104:	f7 f8       	bld	r15, 7
    1106:	f6 01       	movw	r30, r12
    1108:	e4 86       	std	Z+12, r14	; 0x0c
    110a:	f5 86       	std	Z+13, r15	; 0x0d
    110c:	3f 77       	andi	r19, 0x7F	; 127
    110e:	21 93       	st	Z+, r18
    1110:	31 93       	st	Z+, r19
    1112:	6f 01       	movw	r12, r30
    1114:	e8 15       	cp	r30, r8
    1116:	f9 05       	cpc	r31, r9
    1118:	e1 f6       	brne	.-72     	; 0x10d2 <PopulateObject+0x9c>
    111a:	06 19       	sub	r16, r6
    111c:	17 09       	sbc	r17, r7
    111e:	1f 77       	andi	r17, 0x7F	; 127
    1120:	f5 01       	movw	r30, r10
    1122:	06 a3       	std	Z+38, r16	; 0x26
    1124:	17 a3       	std	Z+39, r17	; 0x27
    1126:	2c 96       	adiw	r28, 0x0c	; 12
    1128:	cd bf       	out	0x3d, r28	; 61
    112a:	de bf       	out	0x3e, r29	; 62
    112c:	df 91       	pop	r29
    112e:	cf 91       	pop	r28
    1130:	1f 91       	pop	r17
    1132:	0f 91       	pop	r16
    1134:	ff 90       	pop	r15
    1136:	ef 90       	pop	r14
    1138:	df 90       	pop	r13
    113a:	cf 90       	pop	r12
    113c:	bf 90       	pop	r11
    113e:	af 90       	pop	r10
    1140:	9f 90       	pop	r9
    1142:	8f 90       	pop	r8
    1144:	7f 90       	pop	r7
    1146:	6f 90       	pop	r6
    1148:	08 95       	ret

0000114a <GetState>:
    114a:	18 16       	cp	r1, r24
    114c:	14 f4       	brge	.+4      	; 0x1152 <GetState+0x8>
    114e:	be cd       	rjmp	.-1156   	; 0xccc <ReadStatusBit>
    1150:	08 95       	ret
    1152:	81 e0       	ldi	r24, 0x01	; 1
    1154:	08 95       	ret

00001156 <CheckState>:
    1156:	cf 93       	push	r28
    1158:	c8 2f       	mov	r28, r24
    115a:	8f 77       	andi	r24, 0x7F	; 127
    115c:	f6 df       	rcall	.-20     	; 0x114a <GetState>
    115e:	c0 78       	andi	r28, 0x80	; 128
    1160:	41 e0       	ldi	r20, 0x01	; 1
    1162:	50 e0       	ldi	r21, 0x00	; 0
    1164:	4c 1b       	sub	r20, r28
    1166:	51 09       	sbc	r21, r1
    1168:	28 2f       	mov	r18, r24
    116a:	30 e0       	ldi	r19, 0x00	; 0
    116c:	81 e0       	ldi	r24, 0x01	; 1
    116e:	42 17       	cp	r20, r18
    1170:	53 07       	cpc	r21, r19
    1172:	09 f0       	breq	.+2      	; 0x1176 <CheckState+0x20>
    1174:	80 e0       	ldi	r24, 0x00	; 0
    1176:	cf 91       	pop	r28
    1178:	08 95       	ret

0000117a <CheckLetter>:
    117a:	cf 92       	push	r12
    117c:	df 92       	push	r13
    117e:	ef 92       	push	r14
    1180:	ff 92       	push	r15
    1182:	0f 93       	push	r16
    1184:	1f 93       	push	r17
    1186:	cf 93       	push	r28
    1188:	df 93       	push	r29
    118a:	cd b7       	in	r28, 0x3d	; 61
    118c:	de b7       	in	r29, 0x3e	; 62
    118e:	a0 97       	sbiw	r28, 0x20	; 32
    1190:	cd bf       	out	0x3d, r28	; 61
    1192:	de bf       	out	0x3e, r29	; 62
    1194:	c6 2e       	mov	r12, r22
    1196:	7c 01       	movw	r14, r24
    1198:	20 e2       	ldi	r18, 0x20	; 32
    119a:	e2 0e       	add	r14, r18
    119c:	f1 1c       	adc	r15, r1
    119e:	9e 01       	movw	r18, r28
    11a0:	2f 5f       	subi	r18, 0xFF	; 255
    11a2:	3f 4f       	sbci	r19, 0xFF	; 255
    11a4:	40 e0       	ldi	r20, 0x00	; 0
    11a6:	61 e0       	ldi	r22, 0x01	; 1
    11a8:	8c 96       	adiw	r24, 0x2c	; 44
    11aa:	a0 de       	rcall	.-704    	; 0xeec <ExtEERead>
    11ac:	09 81       	ldd	r16, Y+1	; 0x01
    11ae:	00 23       	and	r16, r16
    11b0:	59 f1       	breq	.+86     	; 0x1208 <CheckLetter+0x8e>
    11b2:	d1 2c       	mov	r13, r1
    11b4:	10 2f       	mov	r17, r16
    11b6:	01 32       	cpi	r16, 0x21	; 33
    11b8:	08 f0       	brcs	.+2      	; 0x11bc <CheckLetter+0x42>
    11ba:	10 e2       	ldi	r17, 0x20	; 32
    11bc:	9e 01       	movw	r18, r28
    11be:	2f 5f       	subi	r18, 0xFF	; 255
    11c0:	3f 4f       	sbci	r19, 0xFF	; 255
    11c2:	40 e0       	ldi	r20, 0x00	; 0
    11c4:	61 2f       	mov	r22, r17
    11c6:	c7 01       	movw	r24, r14
    11c8:	0d 96       	adiw	r24, 0x0d	; 13
    11ca:	90 de       	rcall	.-736    	; 0xeec <ExtEERead>
    11cc:	11 23       	and	r17, r17
    11ce:	b1 f0       	breq	.+44     	; 0x11fc <CheckLetter+0x82>
    11d0:	dd 20       	and	r13, r13
    11d2:	59 f0       	breq	.+22     	; 0x11ea <CheckLetter+0x70>
    11d4:	80 e0       	ldi	r24, 0x00	; 0
    11d6:	fe 01       	movw	r30, r28
    11d8:	e8 0f       	add	r30, r24
    11da:	f1 1d       	adc	r31, r1
    11dc:	91 81       	ldd	r25, Z+1	; 0x01
    11de:	90 62       	ori	r25, 0x20	; 32
    11e0:	81 e0       	ldi	r24, 0x01	; 1
    11e2:	9c 15       	cp	r25, r12
    11e4:	c9 f0       	breq	.+50     	; 0x1218 <CheckLetter+0x9e>
    11e6:	80 e0       	ldi	r24, 0x00	; 0
    11e8:	17 c0       	rjmp	.+46     	; 0x1218 <CheckLetter+0x9e>
    11ea:	fe 01       	movw	r30, r28
    11ec:	31 96       	adiw	r30, 0x01	; 1
    11ee:	80 e0       	ldi	r24, 0x00	; 0
    11f0:	91 91       	ld	r25, Z+
    11f2:	9b 35       	cpi	r25, 0x5B	; 91
    11f4:	59 f0       	breq	.+22     	; 0x120c <CheckLetter+0x92>
    11f6:	8f 5f       	subi	r24, 0xFF	; 255
    11f8:	18 13       	cpse	r17, r24
    11fa:	fa cf       	rjmp	.-12     	; 0x11f0 <CheckLetter+0x76>
    11fc:	e1 0e       	add	r14, r17
    11fe:	f1 1c       	adc	r15, r1
    1200:	01 1b       	sub	r16, r17
    1202:	c1 f6       	brne	.-80     	; 0x11b4 <CheckLetter+0x3a>
    1204:	80 e0       	ldi	r24, 0x00	; 0
    1206:	08 c0       	rjmp	.+16     	; 0x1218 <CheckLetter+0x9e>
    1208:	80 e0       	ldi	r24, 0x00	; 0
    120a:	06 c0       	rjmp	.+12     	; 0x1218 <CheckLetter+0x9e>
    120c:	8f 5f       	subi	r24, 0xFF	; 255
    120e:	81 17       	cp	r24, r17
    1210:	10 f3       	brcs	.-60     	; 0x11d6 <CheckLetter+0x5c>
    1212:	dd 24       	eor	r13, r13
    1214:	d3 94       	inc	r13
    1216:	f2 cf       	rjmp	.-28     	; 0x11fc <CheckLetter+0x82>
    1218:	a0 96       	adiw	r28, 0x20	; 32
    121a:	cd bf       	out	0x3d, r28	; 61
    121c:	de bf       	out	0x3e, r29	; 62
    121e:	df 91       	pop	r29
    1220:	cf 91       	pop	r28
    1222:	1f 91       	pop	r17
    1224:	0f 91       	pop	r16
    1226:	ff 90       	pop	r15
    1228:	ef 90       	pop	r14
    122a:	df 90       	pop	r13
    122c:	cf 90       	pop	r12
    122e:	08 95       	ret

00001230 <FindChild>:
    1230:	df 92       	push	r13
    1232:	ef 92       	push	r14
    1234:	ff 92       	push	r15
    1236:	0f 93       	push	r16
    1238:	1f 93       	push	r17
    123a:	cf 93       	push	r28
    123c:	df 93       	push	r29
    123e:	00 d0       	rcall	.+0      	; 0x1240 <FindChild+0x10>
    1240:	00 d0       	rcall	.+0      	; 0x1242 <FindChild+0x12>
    1242:	cd b7       	in	r28, 0x3d	; 61
    1244:	de b7       	in	r29, 0x3e	; 62
    1246:	d6 2e       	mov	r13, r22
    1248:	9e 01       	movw	r18, r28
    124a:	2f 5f       	subi	r18, 0xFF	; 255
    124c:	3f 4f       	sbci	r19, 0xFF	; 255
    124e:	40 e0       	ldi	r20, 0x00	; 0
    1250:	64 e0       	ldi	r22, 0x04	; 4
    1252:	80 96       	adiw	r24, 0x20	; 32
    1254:	4b de       	rcall	.-874    	; 0xeec <ExtEERead>
    1256:	e9 80       	ldd	r14, Y+1	; 0x01
    1258:	f1 2c       	mov	r15, r1
    125a:	fe 2c       	mov	r15, r14
    125c:	ee 24       	eor	r14, r14
    125e:	8a 81       	ldd	r24, Y+2	; 0x02
    1260:	e8 2a       	or	r14, r24
    1262:	0b 81       	ldd	r16, Y+3	; 0x03
    1264:	10 e0       	ldi	r17, 0x00	; 0
    1266:	10 2f       	mov	r17, r16
    1268:	00 27       	eor	r16, r16
    126a:	8c 81       	ldd	r24, Y+4	; 0x04
    126c:	08 2b       	or	r16, r24
    126e:	0e 15       	cp	r16, r14
    1270:	1f 05       	cpc	r17, r15
    1272:	28 f5       	brcc	.+74     	; 0x12be <FindChild+0x8e>
    1274:	9e 01       	movw	r18, r28
    1276:	2f 5f       	subi	r18, 0xFF	; 255
    1278:	3f 4f       	sbci	r19, 0xFF	; 255
    127a:	40 e0       	ldi	r20, 0x00	; 0
    127c:	61 e0       	ldi	r22, 0x01	; 1
    127e:	c8 01       	movw	r24, r16
    1280:	85 96       	adiw	r24, 0x25	; 37
    1282:	34 de       	rcall	.-920    	; 0xeec <ExtEERead>
    1284:	89 81       	ldd	r24, Y+1	; 0x01
    1286:	67 df       	rcall	.-306    	; 0x1156 <CheckState>
    1288:	88 23       	and	r24, r24
    128a:	29 f0       	breq	.+10     	; 0x1296 <FindChild+0x66>
    128c:	6d 2d       	mov	r22, r13
    128e:	c8 01       	movw	r24, r16
    1290:	74 df       	rcall	.-280    	; 0x117a <CheckLetter>
    1292:	81 11       	cpse	r24, r1
    1294:	17 c0       	rjmp	.+46     	; 0x12c4 <FindChild+0x94>
    1296:	9e 01       	movw	r18, r28
    1298:	2f 5f       	subi	r18, 0xFF	; 255
    129a:	3f 4f       	sbci	r19, 0xFF	; 255
    129c:	40 e0       	ldi	r20, 0x00	; 0
    129e:	62 e0       	ldi	r22, 0x02	; 2
    12a0:	c8 01       	movw	r24, r16
    12a2:	80 96       	adiw	r24, 0x20	; 32
    12a4:	23 de       	rcall	.-954    	; 0xeec <ExtEERead>
    12a6:	09 81       	ldd	r16, Y+1	; 0x01
    12a8:	10 e0       	ldi	r17, 0x00	; 0
    12aa:	10 2f       	mov	r17, r16
    12ac:	00 27       	eor	r16, r16
    12ae:	8a 81       	ldd	r24, Y+2	; 0x02
    12b0:	08 2b       	or	r16, r24
    12b2:	0e 15       	cp	r16, r14
    12b4:	1f 05       	cpc	r17, r15
    12b6:	f0 f2       	brcs	.-68     	; 0x1274 <FindChild+0x44>
    12b8:	80 e0       	ldi	r24, 0x00	; 0
    12ba:	90 e0       	ldi	r25, 0x00	; 0
    12bc:	05 c0       	rjmp	.+10     	; 0x12c8 <FindChild+0x98>
    12be:	80 e0       	ldi	r24, 0x00	; 0
    12c0:	90 e0       	ldi	r25, 0x00	; 0
    12c2:	02 c0       	rjmp	.+4      	; 0x12c8 <FindChild+0x98>
    12c4:	80 2f       	mov	r24, r16
    12c6:	91 2f       	mov	r25, r17
    12c8:	24 96       	adiw	r28, 0x04	; 4
    12ca:	cd bf       	out	0x3d, r28	; 61
    12cc:	de bf       	out	0x3e, r29	; 62
    12ce:	df 91       	pop	r29
    12d0:	cf 91       	pop	r28
    12d2:	1f 91       	pop	r17
    12d4:	0f 91       	pop	r16
    12d6:	ff 90       	pop	r15
    12d8:	ef 90       	pop	r14
    12da:	df 90       	pop	r13
    12dc:	08 95       	ret

000012de <InpOkChk>:
    12de:	9f e9       	ldi	r25, 0x9F	; 159
    12e0:	98 0f       	add	r25, r24
    12e2:	9a 31       	cpi	r25, 0x1A	; 26
    12e4:	38 f0       	brcs	.+14     	; 0x12f4 <InpOkChk+0x16>
    12e6:	90 ed       	ldi	r25, 0xD0	; 208
    12e8:	98 0f       	add	r25, r24
    12ea:	81 e0       	ldi	r24, 0x01	; 1
    12ec:	9a 30       	cpi	r25, 0x0A	; 10
    12ee:	18 f0       	brcs	.+6      	; 0x12f6 <InpOkChk+0x18>
    12f0:	80 e0       	ldi	r24, 0x00	; 0
    12f2:	08 95       	ret
    12f4:	81 e0       	ldi	r24, 0x01	; 1
    12f6:	08 95       	ret

000012f8 <CleanInput>:
    12f8:	0f 93       	push	r16
    12fa:	1f 93       	push	r17
    12fc:	cf 93       	push	r28
    12fe:	df 93       	push	r29
    1300:	8c 01       	movw	r16, r24
    1302:	fc 01       	movw	r30, r24
    1304:	80 81       	ld	r24, Z
    1306:	88 23       	and	r24, r24
    1308:	91 f0       	breq	.+36     	; 0x132e <CleanInput+0x36>
    130a:	c0 e0       	ldi	r28, 0x00	; 0
    130c:	d0 e0       	ldi	r29, 0x00	; 0
    130e:	d8 01       	movw	r26, r16
    1310:	ad 0f       	add	r26, r29
    1312:	b1 1d       	adc	r27, r1
    1314:	8c 93       	st	X, r24
    1316:	80 81       	ld	r24, Z
    1318:	e2 df       	rcall	.-60     	; 0x12de <InpOkChk>
    131a:	81 11       	cpse	r24, r1
    131c:	df 5f       	subi	r29, 0xFF	; 255
    131e:	cf 5f       	subi	r28, 0xFF	; 255
    1320:	f8 01       	movw	r30, r16
    1322:	ec 0f       	add	r30, r28
    1324:	f1 1d       	adc	r31, r1
    1326:	80 81       	ld	r24, Z
    1328:	81 11       	cpse	r24, r1
    132a:	f1 cf       	rjmp	.-30     	; 0x130e <CleanInput+0x16>
    132c:	01 c0       	rjmp	.+2      	; 0x1330 <CleanInput+0x38>
    132e:	d0 e0       	ldi	r29, 0x00	; 0
    1330:	f8 01       	movw	r30, r16
    1332:	ed 0f       	add	r30, r29
    1334:	f1 1d       	adc	r31, r1
    1336:	10 82       	st	Z, r1
    1338:	8d 2f       	mov	r24, r29
    133a:	df 91       	pop	r29
    133c:	cf 91       	pop	r28
    133e:	1f 91       	pop	r17
    1340:	0f 91       	pop	r16
    1342:	08 95       	ret

00001344 <CheckSend>:

//Send routine, optimized for low memory usage
uint8_t CheckSend(){
    1344:	cf 93       	push	r28
    static uint8_t txPart;
    uint8_t EEreadLength=0;

    //Check if more string(part)s have to be sent to the serial output if previous send operation is completed
    if ((txAddrNow < TXLISTLEN) && serTxDone){
    1346:	80 91 2e 3a 	lds	r24, 0x3A2E	; 0x803a2e <txAddrNow>
    134a:	88 30       	cpi	r24, 0x08	; 8
    134c:	d8 f5       	brcc	.+118    	; 0x13c4 <CheckSend+0x80>
    134e:	90 91 04 38 	lds	r25, 0x3804	; 0x803804 <serTxDone>
    1352:	99 23       	and	r25, r25
    1354:	b9 f1       	breq	.+110    	; 0x13c4 <CheckSend+0x80>
        if (txPart < txStrLen[txAddrNow]){
    1356:	28 2f       	mov	r18, r24
    1358:	30 e0       	ldi	r19, 0x00	; 0
    135a:	f9 01       	movw	r30, r18
    135c:	e1 5d       	subi	r30, 0xD1	; 209
    135e:	f5 4c       	sbci	r31, 0xC5	; 197
    1360:	e0 81       	ld	r30, Z
    1362:	90 91 03 39 	lds	r25, 0x3903	; 0x803903 <txPart.3916>
    1366:	9e 17       	cp	r25, r30
    1368:	30 f5       	brcc	.+76     	; 0x13b6 <CheckSend+0x72>
            EEreadLength = txStrLen[txAddrNow]-txPart;
    136a:	ce 2f       	mov	r28, r30
    136c:	c9 1b       	sub	r28, r25
    136e:	c1 32       	cpi	r28, 0x21	; 33
    1370:	08 f0       	brcs	.+2      	; 0x1374 <CheckSend+0x30>
    1372:	c0 e2       	ldi	r28, 0x20	; 32
            if (EEreadLength>=TXLEN) EEreadLength = TXLEN-1;
            ExtEERead(txAddrList[txAddrNow]+txPart, EEreadLength, txTypeNow, &txBuffer[0]);
    1374:	22 0f       	add	r18, r18
    1376:	33 1f       	adc	r19, r19
    1378:	f9 01       	movw	r30, r18
    137a:	e9 5c       	subi	r30, 0xC9	; 201
    137c:	f5 4c       	sbci	r31, 0xC5	; 197
    137e:	01 90       	ld	r0, Z+
    1380:	f0 81       	ld	r31, Z
    1382:	e0 2d       	mov	r30, r0
    1384:	20 ef       	ldi	r18, 0xF0	; 240
    1386:	3a e3       	ldi	r19, 0x3A	; 58
    1388:	40 91 2c 3a 	lds	r20, 0x3A2C	; 0x803a2c <txTypeNow>
    138c:	6c 2f       	mov	r22, r28
    138e:	df 01       	movw	r26, r30
    1390:	a9 0f       	add	r26, r25
    1392:	b1 1d       	adc	r27, r1
    1394:	cd 01       	movw	r24, r26
    1396:	aa dd       	rcall	.-1196   	; 0xeec <ExtEERead>
            txPart += EEreadLength;
    1398:	80 91 03 39 	lds	r24, 0x3903	; 0x803903 <txPart.3916>
    139c:	8c 0f       	add	r24, r28
    139e:	80 93 03 39 	sts	0x3903, r24	; 0x803903 <txPart.3916>
            txBuffer[EEreadLength] = 0; //Add string terminator after piece to send to plug memory leak
    13a2:	ec 2f       	mov	r30, r28
    13a4:	f0 e0       	ldi	r31, 0x00	; 0
    13a6:	e0 51       	subi	r30, 0x10	; 16
    13a8:	f5 4c       	sbci	r31, 0xC5	; 197
    13aa:	10 82       	st	Z, r1
            SerSend(&txBuffer[0]);
    13ac:	80 ef       	ldi	r24, 0xF0	; 240
    13ae:	9a e3       	ldi	r25, 0x3A	; 58
    13b0:	51 db       	rcall	.-2398   	; 0xa54 <SerSend>
        } else if (sendPrompt == LOCATION){
            SendLiteral(A_LOCATION, L_LOCATION, 0);
        }
        sendPrompt=0;
*/    } else if (serTxDone) return 0; //All is sent!
    return 1; //Still sending, do not change the data in the tx variables
    13b2:	81 e0       	ldi	r24, 0x01	; 1
    13b4:	0c c0       	rjmp	.+24     	; 0x13ce <CheckSend+0x8a>
            ExtEERead(txAddrList[txAddrNow]+txPart, EEreadLength, txTypeNow, &txBuffer[0]);
            txPart += EEreadLength;
            txBuffer[EEreadLength] = 0; //Add string terminator after piece to send to plug memory leak
            SerSend(&txBuffer[0]);
        } else {
            txPart = 0;
    13b6:	10 92 03 39 	sts	0x3903, r1	; 0x803903 <txPart.3916>
            ++txAddrNow;
    13ba:	8f 5f       	subi	r24, 0xFF	; 255
    13bc:	80 93 2e 3a 	sts	0x3A2E, r24	; 0x803a2e <txAddrNow>
        } else if (sendPrompt == LOCATION){
            SendLiteral(A_LOCATION, L_LOCATION, 0);
        }
        sendPrompt=0;
*/    } else if (serTxDone) return 0; //All is sent!
    return 1; //Still sending, do not change the data in the tx variables
    13c0:	81 e0       	ldi	r24, 0x01	; 1
    13c2:	05 c0       	rjmp	.+10     	; 0x13ce <CheckSend+0x8a>
            SendLiteral(0, 0, 2);
        } else if (sendPrompt == LOCATION){
            SendLiteral(A_LOCATION, L_LOCATION, 0);
        }
        sendPrompt=0;
*/    } else if (serTxDone) return 0; //All is sent!
    13c4:	90 91 04 38 	lds	r25, 0x3804	; 0x803804 <serTxDone>
    13c8:	81 e0       	ldi	r24, 0x01	; 1
    13ca:	91 11       	cpse	r25, r1
    13cc:	80 e0       	ldi	r24, 0x00	; 0
    return 1; //Still sending, do not change the data in the tx variables
}
    13ce:	cf 91       	pop	r28
    13d0:	08 95       	ret

000013d2 <CheckInput>:

//User input check (and validation)
uint8_t CheckInput(uint8_t *data){
    13d2:	ef 92       	push	r14
    13d4:	ff 92       	push	r15
    13d6:	0f 93       	push	r16
    13d8:	1f 93       	push	r17
    13da:	cf 93       	push	r28
    13dc:	df 93       	push	r29
    13de:	cd b7       	in	r28, 0x3d	; 61
    13e0:	de b7       	in	r29, 0x3e	; 62
    13e2:	2a 97       	sbiw	r28, 0x0a	; 10
    13e4:	cd bf       	out	0x3d, r28	; 61
    13e6:	de bf       	out	0x3e, r29	; 62
    13e8:	8c 01       	movw	r16, r24
    
    //Load game data after reboot
    if (currDepth == 0xff) {
    13ea:	80 91 8f 38 	lds	r24, 0x388F	; 0x80388f <currDepth>
    13ee:	8f 3f       	cpi	r24, 0xFF	; 255
    13f0:	19 f5       	brne	.+70     	; 0x1438 <CheckInput+0x66>
        //Load things from EEPROM
        EERead(0, &gameState[0], 16);   //Load game status bits from EEPROM
    13f2:	40 e1       	ldi	r20, 0x10	; 16
    13f4:	69 e4       	ldi	r22, 0x49	; 73
    13f6:	7a e3       	ldi	r23, 0x3A	; 58
    13f8:	80 e0       	ldi	r24, 0x00	; 0
    13fa:	d0 da       	rcall	.-2656   	; 0x99c <EERead>
    13fc:	0f 2e       	mov	r0, r31
    13fe:	fe e6       	ldi	r31, 0x6E	; 110
    1400:	ef 2e       	mov	r14, r31
    1402:	f0 2d       	mov	r31, r0

        //idSet can be used to detect cheating. After cheating idSet will be 0, with a virgin badge idSet will be 3.
        uint8_t idSet = 0;
    1404:	f1 2c       	mov	r15, r1
        for (uint8_t x=0; x<4; ++x){
            idSet += ReadStatusBit(110+x);
    1406:	8e 2d       	mov	r24, r14
    1408:	61 dc       	rcall	.-1854   	; 0xccc <ReadStatusBit>
    140a:	f8 0e       	add	r15, r24
    140c:	e3 94       	inc	r14
        //Load things from EEPROM
        EERead(0, &gameState[0], 16);   //Load game status bits from EEPROM

        //idSet can be used to detect cheating. After cheating idSet will be 0, with a virgin badge idSet will be 3.
        uint8_t idSet = 0;
        for (uint8_t x=0; x<4; ++x){
    140e:	82 e7       	ldi	r24, 0x72	; 114
    1410:	e8 12       	cpse	r14, r24
    1412:	f9 cf       	rjmp	.-14     	; 0x1406 <CheckInput+0x34>
            idSet += ReadStatusBit(110+x);
        }

        if (idSet == 1) {
    1414:	e1 e0       	ldi	r30, 0x01	; 1
    1416:	fe 16       	cp	r15, r30
    1418:	31 f0       	breq	.+12     	; 0x1426 <CheckInput+0x54>
            ;
        } else if (idSet == 3) {
    141a:	f3 e0       	ldi	r31, 0x03	; 3
    141c:	ff 12       	cpse	r15, r31
            //TODO: Test all functions program (for badge check during sweatshop), skip if already passed (save result + temperature calibration in EEPROM location)
            Reset();
    141e:	02 c0       	rjmp	.+4      	; 0x1424 <CheckInput+0x52>
    1420:	96 dc       	rcall	.-1748   	; 0xd4e <Reset>
        } else {
            //Data not as expected, cheated or corrupted memory
            Reset();
    1422:	01 c0       	rjmp	.+2      	; 0x1426 <CheckInput+0x54>
    1424:	94 dc       	rcall	.-1752   	; 0xd4e <Reset>
        }

        //Start at first location
        PopulateObject(route[0], &currObj);
    1426:	64 e0       	ldi	r22, 0x04	; 4
    1428:	7a e3       	ldi	r23, 0x3A	; 58
    142a:	80 91 c4 39 	lds	r24, 0x39C4	; 0x8039c4 <route>
    142e:	90 91 c5 39 	lds	r25, 0x39C5	; 0x8039c5 <route+0x1>
    1432:	01 de       	rcall	.-1022   	; 0x1036 <PopulateObject>
        currDepth = 0;
    1434:	10 92 8f 38 	sts	0x388F, r1	; 0x80388f <currDepth>
    }

    //Play an effect if configured 
    if ((effect < 0xFF) && (effect ^ currObj.byteField[EFFECTS])){
    1438:	80 91 93 38 	lds	r24, 0x3893	; 0x803893 <effect>
    143c:	90 91 94 38 	lds	r25, 0x3894	; 0x803894 <effect+0x1>
    1440:	8f 3f       	cpi	r24, 0xFF	; 255
    1442:	91 05       	cpc	r25, r1
    1444:	d0 f4       	brcc	.+52     	; 0x147a <CheckInput+0xa8>
    1446:	80 91 08 3a 	lds	r24, 0x3A08	; 0x803a08 <currObj+0x4>
    144a:	90 e0       	ldi	r25, 0x00	; 0
    144c:	20 91 93 38 	lds	r18, 0x3893	; 0x803893 <effect>
    1450:	30 91 94 38 	lds	r19, 0x3894	; 0x803894 <effect+0x1>
    1454:	82 17       	cp	r24, r18
    1456:	93 07       	cpc	r25, r19
    1458:	81 f0       	breq	.+32     	; 0x147a <CheckInput+0xa8>
        effect = currObj.byteField[EFFECTS];
    145a:	80 93 93 38 	sts	0x3893, r24	; 0x803893 <effect>
    145e:	90 93 94 38 	sts	0x3894, r25	; 0x803894 <effect+0x1>
        auStart = ((effect&0xE0)>0);
    1462:	80 91 93 38 	lds	r24, 0x3893	; 0x803893 <effect>
    1466:	90 91 94 38 	lds	r25, 0x3894	; 0x803894 <effect+0x1>
    146a:	80 7e       	andi	r24, 0xE0	; 224
    146c:	99 27       	eor	r25, r25
    146e:	21 e0       	ldi	r18, 0x01	; 1
    1470:	89 2b       	or	r24, r25
    1472:	09 f4       	brne	.+2      	; 0x1476 <CheckInput+0xa4>
    1474:	20 e0       	ldi	r18, 0x00	; 0
    1476:	20 93 92 38 	sts	0x3892, r18	; 0x803892 <auStart>
    }

    if (serRxDone){
    147a:	80 91 97 38 	lds	r24, 0x3897	; 0x803897 <serRxDone>
    147e:	88 23       	and	r24, r24
    1480:	09 f4       	brne	.+2      	; 0x1484 <CheckInput+0xb2>
    1482:	7a c0       	rjmp	.+244    	; 0x1578 <CheckInput+0x1a6>
        //Read up to the \0 character and convert to lower case.
        for (uint8_t x=0; serRx[x]!=0; ++x){
    1484:	80 91 59 3a 	lds	r24, 0x3A59	; 0x803a59 <serRx>
    1488:	88 23       	and	r24, r24
    148a:	51 f1       	breq	.+84     	; 0x14e0 <CheckInput+0x10e>
    148c:	80 e0       	ldi	r24, 0x00	; 0
    148e:	90 e0       	ldi	r25, 0x00	; 0
    1490:	20 e0       	ldi	r18, 0x00	; 0
            if ((serRx[x]<'A')||(serRx[x]>'Z')) data[x]=serRx[x]; else data[x]=serRx[x]|0x20;
    1492:	fc 01       	movw	r30, r24
    1494:	e7 5a       	subi	r30, 0xA7	; 167
    1496:	f5 4c       	sbci	r31, 0xC5	; 197
    1498:	30 81       	ld	r19, Z
    149a:	31 34       	cpi	r19, 0x41	; 65
    149c:	30 f0       	brcs	.+12     	; 0x14aa <CheckInput+0xd8>
    149e:	fc 01       	movw	r30, r24
    14a0:	e7 5a       	subi	r30, 0xA7	; 167
    14a2:	f5 4c       	sbci	r31, 0xC5	; 197
    14a4:	30 81       	ld	r19, Z
    14a6:	3b 35       	cpi	r19, 0x5B	; 91
    14a8:	48 f0       	brcs	.+18     	; 0x14bc <CheckInput+0xea>
    14aa:	fc 01       	movw	r30, r24
    14ac:	e7 5a       	subi	r30, 0xA7	; 167
    14ae:	f5 4c       	sbci	r31, 0xC5	; 197
    14b0:	80 81       	ld	r24, Z
    14b2:	f8 01       	movw	r30, r16
    14b4:	e2 0f       	add	r30, r18
    14b6:	f1 1d       	adc	r31, r1
    14b8:	80 83       	st	Z, r24
    14ba:	09 c0       	rjmp	.+18     	; 0x14ce <CheckInput+0xfc>
    14bc:	fc 01       	movw	r30, r24
    14be:	e7 5a       	subi	r30, 0xA7	; 167
    14c0:	f5 4c       	sbci	r31, 0xC5	; 197
    14c2:	80 81       	ld	r24, Z
    14c4:	f8 01       	movw	r30, r16
    14c6:	e2 0f       	add	r30, r18
    14c8:	f1 1d       	adc	r31, r1
    14ca:	80 62       	ori	r24, 0x20	; 32
    14cc:	80 83       	st	Z, r24
        auStart = ((effect&0xE0)>0);
    }

    if (serRxDone){
        //Read up to the \0 character and convert to lower case.
        for (uint8_t x=0; serRx[x]!=0; ++x){
    14ce:	2f 5f       	subi	r18, 0xFF	; 255
    14d0:	82 2f       	mov	r24, r18
    14d2:	90 e0       	ldi	r25, 0x00	; 0
    14d4:	fc 01       	movw	r30, r24
    14d6:	e7 5a       	subi	r30, 0xA7	; 167
    14d8:	f5 4c       	sbci	r31, 0xC5	; 197
    14da:	30 81       	ld	r19, Z
    14dc:	31 11       	cpse	r19, r1
    14de:	d9 cf       	rjmp	.-78     	; 0x1492 <CheckInput+0xc0>
            if ((serRx[x]<'A')||(serRx[x]>'Z')) data[x]=serRx[x]; else data[x]=serRx[x]|0x20;
        }

        //No text
        if (serRx[0] == 0){
    14e0:	80 91 59 3a 	lds	r24, 0x3A59	; 0x803a59 <serRx>
    14e4:	81 11       	cpse	r24, r1
    14e6:	07 c0       	rjmp	.+14     	; 0x14f6 <CheckInput+0x124>
            data[0] = 0;
    14e8:	f8 01       	movw	r30, r16
    14ea:	10 82       	st	Z, r1
            RXCNT = 0;
    14ec:	1d ba       	out	0x1d, r1	; 29
            serRxDone = 0;
    14ee:	10 92 97 38 	sts	0x3897, r1	; 0x803897 <serRxDone>
            return 1;
    14f2:	81 e0       	ldi	r24, 0x01	; 1
    14f4:	42 c0       	rjmp	.+132    	; 0x157a <CheckInput+0x1a8>
        }

        //Help text
        if ((data[0] == '?')||(data[0] == 'h')){
    14f6:	f8 01       	movw	r30, r16
    14f8:	80 81       	ld	r24, Z
    14fa:	8f 33       	cpi	r24, 0x3F	; 63
    14fc:	11 f0       	breq	.+4      	; 0x1502 <CheckInput+0x130>
    14fe:	88 36       	cpi	r24, 0x68	; 104
    1500:	61 f4       	brne	.+24     	; 0x151a <CheckInput+0x148>
            //Put help pointers/lengths in tx list
            PrepareSending(A_HELP, L_HELP, TEASER, PROMPT);
    1502:	21 e0       	ldi	r18, 0x01	; 1
    1504:	41 e0       	ldi	r20, 0x01	; 1
    1506:	6f e4       	ldi	r22, 0x4F	; 79
    1508:	74 e0       	ldi	r23, 0x04	; 4
    150a:	81 eb       	ldi	r24, 0xB1	; 177
    150c:	9b e7       	ldi	r25, 0x7B	; 123
    150e:	3d dd       	rcall	.-1414   	; 0xf8a <PrepareSending>
            RXCNT = 0;
    1510:	1d ba       	out	0x1d, r1	; 29
            serRxDone = 0;
    1512:	10 92 97 38 	sts	0x3897, r1	; 0x803897 <serRxDone>
            return 1;
    1516:	81 e0       	ldi	r24, 0x01	; 1
    1518:	30 c0       	rjmp	.+96     	; 0x157a <CheckInput+0x1a8>
        }

        //Quit text
        if (data[0] == 'q'){
    151a:	81 37       	cpi	r24, 0x71	; 113
    151c:	61 f4       	brne	.+24     	; 0x1536 <CheckInput+0x164>
            //Put quit pointers/lengths in tx list
            PrepareSending(A_QUIT, L_QUIT, TEASER, PROMPT);
    151e:	21 e0       	ldi	r18, 0x01	; 1
    1520:	41 e0       	ldi	r20, 0x01	; 1
    1522:	64 e5       	ldi	r22, 0x54	; 84
    1524:	70 e0       	ldi	r23, 0x00	; 0
    1526:	84 e3       	ldi	r24, 0x34	; 52
    1528:	9a e7       	ldi	r25, 0x7A	; 122
    152a:	2f dd       	rcall	.-1442   	; 0xf8a <PrepareSending>
            RXCNT = 0;
    152c:	1d ba       	out	0x1d, r1	; 29
            serRxDone = 0;
    152e:	10 92 97 38 	sts	0x3897, r1	; 0x803897 <serRxDone>
            return 1;
    1532:	81 e0       	ldi	r24, 0x01	; 1
        }

        //Cheat = reset badge!
        if (StartsWith(&data[0], "iddqd")){
    1534:	22 c0       	rjmp	.+68     	; 0x157a <CheckInput+0x1a8>
    1536:	6a e1       	ldi	r22, 0x1A	; 26
    1538:	7a e9       	ldi	r23, 0x9A	; 154
    153a:	c8 01       	movw	r24, r16
    153c:	15 dd       	rcall	.-1494   	; 0xf68 <StartsWith>
    153e:	88 23       	and	r24, r24
            
            //Reset game data by wiping the UUID bits
            for (uint8_t x=0; x<4; ++x){
                WriteStatusBit(110+x, 0);
    1540:	e1 f0       	breq	.+56     	; 0x157a <CheckInput+0x1a8>
    1542:	1e e6       	ldi	r17, 0x6E	; 110
    1544:	60 e0       	ldi	r22, 0x00	; 0
    1546:	81 2f       	mov	r24, r17
    1548:	d5 db       	rcall	.-2134   	; 0xcf4 <WriteStatusBit>

        //Cheat = reset badge!
        if (StartsWith(&data[0], "iddqd")){
            
            //Reset game data by wiping the UUID bits
            for (uint8_t x=0; x<4; ++x){
    154a:	1f 5f       	subi	r17, 0xFF	; 255
    154c:	12 37       	cpi	r17, 0x72	; 114
                WriteStatusBit(110+x, 0);
            }
            SaveGameState();
    154e:	d1 f7       	brne	.-12     	; 0x1544 <CheckInput+0x172>
    1550:	84 db       	rcall	.-2296   	; 0xc5a <SaveGameState>

            uint8_t cheat[] = "Cheater! ";
    1552:	8a e0       	ldi	r24, 0x0A	; 10
    1554:	e0 e2       	ldi	r30, 0x20	; 32
    1556:	fa e9       	ldi	r31, 0x9A	; 154
    1558:	de 01       	movw	r26, r28
    155a:	11 96       	adiw	r26, 0x01	; 1
    155c:	01 90       	ld	r0, Z+
    155e:	0d 92       	st	X+, r0
            SerSpeed(60);
    1560:	8a 95       	dec	r24
    1562:	e1 f7       	brne	.-8      	; 0x155c <CheckInput+0x18a>
    1564:	8c e3       	ldi	r24, 0x3C	; 60
            while(1){
                if (serTxDone) SerSend(&cheat[0]);
    1566:	88 da       	rcall	.-2800   	; 0xa78 <SerSpeed>
    1568:	80 91 04 38 	lds	r24, 0x3804	; 0x803804 <serTxDone>
    156c:	88 23       	and	r24, r24
    156e:	e1 f3       	breq	.-8      	; 0x1568 <CheckInput+0x196>
    1570:	ce 01       	movw	r24, r28
    1572:	01 96       	adiw	r24, 0x01	; 1
    1574:	6f da       	rcall	.-2850   	; 0xa54 <SerSend>
    1576:	f8 cf       	rjmp	.-16     	; 0x1568 <CheckInput+0x196>
        //Data received, but not any of the commands above
        return 0;
    }

    //Serial input not available yet
    return 1;
    1578:	81 e0       	ldi	r24, 0x01	; 1
}
    157a:	2a 96       	adiw	r28, 0x0a	; 10
    157c:	cd bf       	out	0x3d, r28	; 61
    157e:	de bf       	out	0x3e, r29	; 62
    1580:	df 91       	pop	r29
    1582:	cf 91       	pop	r28
    1584:	1f 91       	pop	r17
    1586:	0f 91       	pop	r16
    1588:	ff 90       	pop	r15
    158a:	ef 90       	pop	r14
    158c:	08 95       	ret

0000158e <ProcessInput>:

//The game logic!
uint8_t ProcessInput(uint8_t *data){
    158e:	0f 93       	push	r16
    1590:	1f 93       	push	r17
    1592:	cf 93       	push	r28
    1594:	df 93       	push	r29
    1596:	8c 01       	movw	r16, r24
    static object_model_t actObj1, actObj2;
    static uint8_t actionList = 0;
    static uint8_t toSend = 0;


    CleanInput(&data[0]);
    1598:	af de       	rcall	.-674    	; 0x12f8 <CleanInput>
    
    //Responses to send after something has tried by the user
    if (actionList){
    159a:	c0 91 02 39 	lds	r28, 0x3902	; 0x803902 <actionList.3941>
    159e:	cc 23       	and	r28, r28
    15a0:	69 f1       	breq	.+90     	; 0x15fc <ProcessInput+0x6e>
        //[3]=Locdata
        PrepareSending(reactStr[0][toSend], reactStr[1][toSend], GAME, reactStr[2][toSend]);
    15a2:	10 91 01 39 	lds	r17, 0x3901	; 0x803901 <toSend.3942>
    15a6:	81 2f       	mov	r24, r17
    15a8:	90 e0       	ldi	r25, 0x00	; 0
    15aa:	dc 01       	movw	r26, r24
    15ac:	aa 0f       	add	r26, r26
    15ae:	bb 1f       	adc	r27, r27
    15b0:	ac 57       	subi	r26, 0x7C	; 124
    15b2:	b6 4c       	sbci	r27, 0xC6	; 198
    15b4:	fc 01       	movw	r30, r24
    15b6:	ee 0f       	add	r30, r30
    15b8:	ff 1f       	adc	r31, r31
    15ba:	ec 5b       	subi	r30, 0xBC	; 188
    15bc:	f6 4c       	sbci	r31, 0xC6	; 198
    15be:	60 81       	ld	r22, Z
    15c0:	71 81       	ldd	r23, Z+1	; 0x01
    15c2:	88 0f       	add	r24, r24
    15c4:	99 1f       	adc	r25, r25
    15c6:	fc 01       	movw	r30, r24
    15c8:	ec 5f       	subi	r30, 0xFC	; 252
    15ca:	f6 4c       	sbci	r31, 0xC6	; 198
    15cc:	2c 91       	ld	r18, X
    15ce:	40 e0       	ldi	r20, 0x00	; 0
    15d0:	80 81       	ld	r24, Z
    15d2:	91 81       	ldd	r25, Z+1	; 0x01
    15d4:	da dc       	rcall	.-1612   	; 0xf8a <PrepareSending>
        ++toSend;
    15d6:	1f 5f       	subi	r17, 0xFF	; 255
    15d8:	10 93 01 39 	sts	0x3901, r17	; 0x803901 <toSend.3942>
        --actionList;
    15dc:	c1 50       	subi	r28, 0x01	; 1
    15de:	c0 93 02 39 	sts	0x3902, r28	; 0x803902 <actionList.3941>
        if (actionList == 0) {
    15e2:	c1 11       	cpse	r28, r1
    15e4:	48 c1       	rjmp	.+656    	; 0x1876 <ProcessInput+0x2e8>
            effect = currObj.byteField[EFFECTS];
    15e6:	80 91 08 3a 	lds	r24, 0x3A08	; 0x803a08 <currObj+0x4>
    15ea:	90 e0       	ldi	r25, 0x00	; 0
    15ec:	80 93 93 38 	sts	0x3893, r24	; 0x803893 <effect>
    15f0:	90 93 94 38 	sts	0x3894, r25	; 0x803894 <effect+0x1>
            RXCNT = 0;
    15f4:	1d ba       	out	0x1d, r1	; 29
            serRxDone = 0;
    15f6:	10 92 97 38 	sts	0x3897, r1	; 0x803897 <serRxDone>
        }

    //No responses yet and data available? Figure out what to say!
    } else {

        uint8_t inputLen = CleanInput(&data[0]);
    15fa:	3d c1       	rjmp	.+634    	; 0x1876 <ProcessInput+0x2e8>
    15fc:	c8 01       	movw	r24, r16
    15fe:	7c de       	rcall	.-776    	; 0x12f8 <CleanInput>
        if (inputLen) {
    1600:	88 23       	and	r24, r24
    1602:	09 f4       	brne	.+2      	; 0x1606 <ProcessInput+0x78>
    1604:	38 c1       	rjmp	.+624    	; 0x1876 <ProcessInput+0x2e8>

            toSend = 0;
    1606:	10 92 01 39 	sts	0x3901, r1	; 0x803901 <toSend.3942>
            reactStr[1][0]=0;
    160a:	10 92 44 39 	sts	0x3944, r1	; 0x803944 <reactStr+0x40>
    160e:	10 92 45 39 	sts	0x3945, r1	; 0x803945 <reactStr+0x41>
            reactStr[2][0]=CR_2;
    1612:	24 e0       	ldi	r18, 0x04	; 4
    1614:	30 e0       	ldi	r19, 0x00	; 0
    1616:	20 93 84 39 	sts	0x3984, r18	; 0x803984 <reactStr+0x80>
    161a:	30 93 85 39 	sts	0x3985, r19	; 0x803985 <reactStr+0x81>

            if (data[0] == 'x'){
    161e:	d8 01       	movw	r26, r16
    1620:	9c 91       	ld	r25, X
    1622:	98 37       	cpi	r25, 0x78	; 120
    1624:	09 f0       	breq	.+2      	; 0x1628 <ProcessInput+0x9a>
    1626:	5a c0       	rjmp	.+180    	; 0x16dc <ProcessInput+0x14e>

                //Standing outside?
                if ((route[currDepth] == 0)||(currDepth == 0)){
    1628:	80 91 8f 38 	lds	r24, 0x388F	; 0x80388f <currDepth>
    162c:	e8 2f       	mov	r30, r24
    162e:	f0 e0       	ldi	r31, 0x00	; 0
    1630:	ee 0f       	add	r30, r30
    1632:	ff 1f       	adc	r31, r31
    1634:	ec 53       	subi	r30, 0x3C	; 60
    1636:	f6 4c       	sbci	r31, 0xC6	; 198
    1638:	20 81       	ld	r18, Z
    163a:	31 81       	ldd	r19, Z+1	; 0x01
    163c:	23 2b       	or	r18, r19
    163e:	11 f0       	breq	.+4      	; 0x1644 <ProcessInput+0xb6>
    1640:	81 11       	cpse	r24, r1
    1642:	08 c0       	rjmp	.+16     	; 0x1654 <ProcessInput+0xc6>
                    PrepareSending(A_NOTPOSSIBLE, L_NOTPOSSIBLE, TEASER, PROMPT);
    1644:	21 e0       	ldi	r18, 0x01	; 1
    1646:	41 e0       	ldi	r20, 0x01	; 1
    1648:	6b e1       	ldi	r22, 0x1B	; 27
    164a:	70 e0       	ldi	r23, 0x00	; 0
    164c:	82 eb       	ldi	r24, 0xB2	; 178
    164e:	96 e7       	ldi	r25, 0x76	; 118
    1650:	9c dc       	rcall	.-1736   	; 0xf8a <PrepareSending>
            
                //Is there a way to go back?
                } else if (CheckState(currObj.byteField[OPEN_ACL])){
    1652:	07 c1       	rjmp	.+526    	; 0x1862 <ProcessInput+0x2d4>
    1654:	80 91 0a 3a 	lds	r24, 0x3A0A	; 0x803a0a <currObj+0x6>
    1658:	7e dd       	rcall	.-1284   	; 0x1156 <CheckState>
    165a:	88 23       	and	r24, r24
    165c:	39 f1       	breq	.+78     	; 0x16ac <ProcessInput+0x11e>
                    --currDepth;
    165e:	e0 91 8f 38 	lds	r30, 0x388F	; 0x80388f <currDepth>
    1662:	e1 50       	subi	r30, 0x01	; 1
    1664:	e0 93 8f 38 	sts	0x388F, r30	; 0x80388f <currDepth>
                    PopulateObject(route[currDepth], &currObj);
    1668:	f0 e0       	ldi	r31, 0x00	; 0
    166a:	ee 0f       	add	r30, r30
    166c:	ff 1f       	adc	r31, r31
    166e:	ec 53       	subi	r30, 0x3C	; 60
    1670:	f6 4c       	sbci	r31, 0xC6	; 198
    1672:	64 e0       	ldi	r22, 0x04	; 4
    1674:	7a e3       	ldi	r23, 0x3A	; 58
    1676:	80 81       	ld	r24, Z
    1678:	91 81       	ldd	r25, Z+1	; 0x01
    167a:	dd dc       	rcall	.-1606   	; 0x1036 <PopulateObject>
                    reactStr[0][1]=currObj.addrStr[NAME];
    167c:	e4 e0       	ldi	r30, 0x04	; 4
    167e:	fa e3       	ldi	r31, 0x3A	; 58
    1680:	84 85       	ldd	r24, Z+12	; 0x0c
    1682:	95 85       	ldd	r25, Z+13	; 0x0d
    1684:	80 93 06 39 	sts	0x3906, r24	; 0x803906 <reactStr+0x2>
    1688:	90 93 07 39 	sts	0x3907, r25	; 0x803907 <reactStr+0x3>
                    reactStr[1][1]=currObj.lenStr[NAME];
    168c:	82 8d       	ldd	r24, Z+26	; 0x1a
    168e:	93 8d       	ldd	r25, Z+27	; 0x1b
    1690:	80 93 46 39 	sts	0x3946, r24	; 0x803946 <reactStr+0x42>
    1694:	90 93 47 39 	sts	0x3947, r25	; 0x803947 <reactStr+0x43>
                    reactStr[2][1]=PROMPT;             
    1698:	81 e0       	ldi	r24, 0x01	; 1
    169a:	90 e0       	ldi	r25, 0x00	; 0
    169c:	80 93 86 39 	sts	0x3986, r24	; 0x803986 <reactStr+0x82>
    16a0:	90 93 87 39 	sts	0x3987, r25	; 0x803987 <reactStr+0x83>
                    actionList = 2;
    16a4:	82 e0       	ldi	r24, 0x02	; 2
    16a6:	80 93 02 39 	sts	0x3902, r24	; 0x803902 <actionList.3941>
    16aa:	db c0       	rjmp	.+438    	; 0x1862 <ProcessInput+0x2d4>
            
                //No way out, print denied message of location
                } else {
                    reactStr[0][1]=currObj.addrStr[OPEN_ACL_MSG];
    16ac:	e4 e0       	ldi	r30, 0x04	; 4
    16ae:	fa e3       	ldi	r31, 0x3A	; 58
    16b0:	84 89       	ldd	r24, Z+20	; 0x14
    16b2:	95 89       	ldd	r25, Z+21	; 0x15
    16b4:	80 93 06 39 	sts	0x3906, r24	; 0x803906 <reactStr+0x2>
    16b8:	90 93 07 39 	sts	0x3907, r25	; 0x803907 <reactStr+0x3>
                    reactStr[1][1]=currObj.lenStr[OPEN_ACL_MSG];
    16bc:	82 a1       	ldd	r24, Z+34	; 0x22
    16be:	93 a1       	ldd	r25, Z+35	; 0x23
    16c0:	80 93 46 39 	sts	0x3946, r24	; 0x803946 <reactStr+0x42>
    16c4:	90 93 47 39 	sts	0x3947, r25	; 0x803947 <reactStr+0x43>
                    reactStr[2][1]=PROMPT;                
    16c8:	81 e0       	ldi	r24, 0x01	; 1
    16ca:	90 e0       	ldi	r25, 0x00	; 0
    16cc:	80 93 86 39 	sts	0x3986, r24	; 0x803986 <reactStr+0x82>
    16d0:	90 93 87 39 	sts	0x3987, r25	; 0x803987 <reactStr+0x83>
                    actionList = 2;
    16d4:	82 e0       	ldi	r24, 0x02	; 2
    16d6:	80 93 02 39 	sts	0x3902, r24	; 0x803902 <actionList.3941>
    16da:	c3 c0       	rjmp	.+390    	; 0x1862 <ProcessInput+0x2d4>
                }
            
            
            } else if ((data[0] == 'e')||(data[0] == 'o')) {
    16dc:	95 36       	cpi	r25, 0x65	; 101
    16de:	19 f0       	breq	.+6      	; 0x16e6 <ProcessInput+0x158>
    16e0:	9f 36       	cpi	r25, 0x6F	; 111
    16e2:	09 f0       	breq	.+2      	; 0x16e6 <ProcessInput+0x158>
    16e4:	be c0       	rjmp	.+380    	; 0x1862 <ProcessInput+0x2d4>
                
                //Not possible, too many/little characters
                if (inputLen != 2){
    16e6:	82 30       	cpi	r24, 0x02	; 2
    16e8:	41 f0       	breq	.+16     	; 0x16fa <ProcessInput+0x16c>
                    PrepareSending(A_NOTPOSSIBLE, L_NOTPOSSIBLE, TEASER, CR_2);
    16ea:	24 e0       	ldi	r18, 0x04	; 4
    16ec:	41 e0       	ldi	r20, 0x01	; 1
    16ee:	6b e1       	ldi	r22, 0x1B	; 27
    16f0:	70 e0       	ldi	r23, 0x00	; 0
    16f2:	82 eb       	ldi	r24, 0xB2	; 178
    16f4:	96 e7       	ldi	r25, 0x76	; 118
    16f6:	49 dc       	rcall	.-1902   	; 0xf8a <PrepareSending>
    16f8:	89 c0       	rjmp	.+274    	; 0x180c <ProcessInput+0x27e>
                } else {
                    uint8_t canDo = 0;
                    route[currDepth+1] = FindChild(route[currDepth], data[1]);
    16fa:	c0 91 8f 38 	lds	r28, 0x388F	; 0x80388f <currDepth>
    16fe:	d0 e0       	ldi	r29, 0x00	; 0
    1700:	fe 01       	movw	r30, r28
    1702:	ee 0f       	add	r30, r30
    1704:	ff 1f       	adc	r31, r31
    1706:	ec 53       	subi	r30, 0x3C	; 60
    1708:	f6 4c       	sbci	r31, 0xC6	; 198
    170a:	d8 01       	movw	r26, r16
    170c:	11 96       	adiw	r26, 0x01	; 1
    170e:	6c 91       	ld	r22, X
    1710:	80 81       	ld	r24, Z
    1712:	91 81       	ldd	r25, Z+1	; 0x01
    1714:	8d dd       	rcall	.-1254   	; 0x1230 <FindChild>
    1716:	cc 0f       	add	r28, r28
    1718:	dd 1f       	adc	r29, r29
    171a:	ca 53       	subi	r28, 0x3A	; 58
    171c:	d6 4c       	sbci	r29, 0xC6	; 198
    171e:	88 83       	st	Y, r24
    1720:	99 83       	std	Y+1, r25	; 0x01
                    
                    //Child found?
                    if (route[currDepth+1]) {
    1722:	90 91 8f 38 	lds	r25, 0x388F	; 0x80388f <currDepth>
    1726:	29 2f       	mov	r18, r25
    1728:	30 e0       	ldi	r19, 0x00	; 0
    172a:	f9 01       	movw	r30, r18
    172c:	ee 0f       	add	r30, r30
    172e:	ff 1f       	adc	r31, r31
    1730:	ea 53       	subi	r30, 0x3A	; 58
    1732:	f6 4c       	sbci	r31, 0xC6	; 198
    1734:	40 81       	ld	r20, Z
    1736:	51 81       	ldd	r21, Z+1	; 0x01
    1738:	41 15       	cp	r20, r1
    173a:	51 05       	cpc	r21, r1
                        PopulateObject(route[currDepth+1], &actObj1);
    173c:	29 f0       	breq	.+10     	; 0x1748 <ProcessInput+0x1ba>
    173e:	69 ed       	ldi	r22, 0xD9	; 217
    1740:	78 e3       	ldi	r23, 0x38	; 56
    1742:	ca 01       	movw	r24, r20
    1744:	78 dc       	rcall	.-1808   	; 0x1036 <PopulateObject>
    1746:	17 c0       	rjmp	.+46     	; 0x1776 <ProcessInput+0x1e8>
                        canDo = 1;
                    //No child, maybe a step back, letter ok?
                    } else if (currDepth) {
    1748:	99 23       	and	r25, r25
    174a:	09 f4       	brne	.+2      	; 0x174e <ProcessInput+0x1c0>
    174c:	58 c0       	rjmp	.+176    	; 0x17fe <ProcessInput+0x270>
                        PopulateObject(route[currDepth-1], &actObj1);
    174e:	22 0f       	add	r18, r18
    1750:	33 1f       	adc	r19, r19
    1752:	f9 01       	movw	r30, r18
    1754:	ee 53       	subi	r30, 0x3E	; 62
    1756:	f6 4c       	sbci	r31, 0xC6	; 198
    1758:	69 ed       	ldi	r22, 0xD9	; 217
    175a:	78 e3       	ldi	r23, 0x38	; 56
    175c:	80 81       	ld	r24, Z
    175e:	91 81       	ldd	r25, Z+1	; 0x01
                        if (CheckLetter(actObj1.addrStr[NAME], data[1])) {
    1760:	6a dc       	rcall	.-1836   	; 0x1036 <PopulateObject>
    1762:	f8 01       	movw	r30, r16
    1764:	61 81       	ldd	r22, Z+1	; 0x01
    1766:	80 91 e5 38 	lds	r24, 0x38E5	; 0x8038e5 <actObj1.3939+0xc>
    176a:	90 91 e6 38 	lds	r25, 0x38E6	; 0x8038e6 <actObj1.3939+0xd>
    176e:	05 dd       	rcall	.-1526   	; 0x117a <CheckLetter>
                            canDo = 1; 
                        }
                    }

                    //The candidate is found! Let's check if the action is legit
                    if (canDo) {
    1770:	88 23       	and	r24, r24
    1772:	09 f4       	brne	.+2      	; 0x1776 <ProcessInput+0x1e8>
    1774:	44 c0       	rjmp	.+136    	; 0x17fe <ProcessInput+0x270>
                        uint8_t bEnter = (data[0] == 'e');
                        if ((actObj1.byteField[ACTION_MASK]&(bEnter?ENTER:OPEN))==0) {
    1776:	90 91 e1 38 	lds	r25, 0x38E1	; 0x8038e1 <actObj1.3939+0x8>
    177a:	d8 01       	movw	r26, r16
    177c:	8c 91       	ld	r24, X
    177e:	85 36       	cpi	r24, 0x65	; 101
    1780:	09 f0       	breq	.+2      	; 0x1784 <ProcessInput+0x1f6>
    1782:	73 c0       	rjmp	.+230    	; 0x186a <ProcessInput+0x2dc>
    1784:	75 c0       	rjmp	.+234    	; 0x1870 <ProcessInput+0x2e2>
                            PrepareSending(bEnter?A_CANTENTER:A_CANTOPEN, bEnter?L_CANTENTER:L_CANTOPEN, TEASER, CR_2);
    1786:	6b e1       	ldi	r22, 0x1B	; 27
    1788:	70 e0       	ldi	r23, 0x00	; 0
    178a:	83 eb       	ldi	r24, 0xB3	; 179
    178c:	99 e7       	ldi	r25, 0x79	; 121
    178e:	04 c0       	rjmp	.+8      	; 0x1798 <ProcessInput+0x20a>
    1790:	6e e1       	ldi	r22, 0x1E	; 30
    1792:	70 e0       	ldi	r23, 0x00	; 0
    1794:	8e ec       	ldi	r24, 0xCE	; 206
    1796:	99 e7       	ldi	r25, 0x79	; 121
    1798:	24 e0       	ldi	r18, 0x04	; 4
    179a:	41 e0       	ldi	r20, 0x01	; 1
    179c:	f6 db       	rcall	.-2068   	; 0xf8a <PrepareSending>
                        
                        //Action legit, permission granted?
                        } else if (CheckState(actObj1.byteField[OPEN_ACL])) {
    179e:	36 c0       	rjmp	.+108    	; 0x180c <ProcessInput+0x27e>
    17a0:	80 91 df 38 	lds	r24, 0x38DF	; 0x8038df <actObj1.3939+0x6>
    17a4:	d8 dc       	rcall	.-1616   	; 0x1156 <CheckState>
    17a6:	88 23       	and	r24, r24
    17a8:	01 f1       	breq	.+64     	; 0x17ea <ProcessInput+0x25c>
                            
                            //Yes! Check if we must move forward or backwards.
                            if (route[currDepth+1]) ++currDepth; else --currDepth;
    17aa:	80 91 8f 38 	lds	r24, 0x388F	; 0x80388f <currDepth>
    17ae:	e8 2f       	mov	r30, r24
    17b0:	f0 e0       	ldi	r31, 0x00	; 0
    17b2:	ee 0f       	add	r30, r30
    17b4:	ff 1f       	adc	r31, r31
    17b6:	ea 53       	subi	r30, 0x3A	; 58
    17b8:	f6 4c       	sbci	r31, 0xC6	; 198
    17ba:	20 81       	ld	r18, Z
    17bc:	31 81       	ldd	r19, Z+1	; 0x01
    17be:	23 2b       	or	r18, r19
    17c0:	21 f0       	breq	.+8      	; 0x17ca <ProcessInput+0x23c>
    17c2:	8f 5f       	subi	r24, 0xFF	; 255
    17c4:	80 93 8f 38 	sts	0x388F, r24	; 0x80388f <currDepth>
    17c8:	03 c0       	rjmp	.+6      	; 0x17d0 <ProcessInput+0x242>
    17ca:	81 50       	subi	r24, 0x01	; 1
    17cc:	80 93 8f 38 	sts	0x388F, r24	; 0x80388f <currDepth>
                            PopulateObject(route[currDepth], &currObj);
    17d0:	e0 91 8f 38 	lds	r30, 0x388F	; 0x80388f <currDepth>
    17d4:	f0 e0       	ldi	r31, 0x00	; 0
    17d6:	ee 0f       	add	r30, r30
    17d8:	ff 1f       	adc	r31, r31
    17da:	ec 53       	subi	r30, 0x3C	; 60
    17dc:	f6 4c       	sbci	r31, 0xC6	; 198
    17de:	64 e0       	ldi	r22, 0x04	; 4
    17e0:	7a e3       	ldi	r23, 0x3A	; 58
    17e2:	80 81       	ld	r24, Z
    17e4:	91 81       	ldd	r25, Z+1	; 0x01
    17e6:	27 dc       	rcall	.-1970   	; 0x1036 <PopulateObject>
    17e8:	11 c0       	rjmp	.+34     	; 0x180c <ProcessInput+0x27e>
                          
                        //Not granted!
                        } else {
                            route[currDepth+1] = 0;
    17ea:	e0 91 8f 38 	lds	r30, 0x388F	; 0x80388f <currDepth>
    17ee:	f0 e0       	ldi	r31, 0x00	; 0
    17f0:	ee 0f       	add	r30, r30
    17f2:	ff 1f       	adc	r31, r31
    17f4:	ea 53       	subi	r30, 0x3A	; 58
    17f6:	f6 4c       	sbci	r31, 0xC6	; 198
    17f8:	10 82       	st	Z, r1
    17fa:	11 82       	std	Z+1, r1	; 0x01
                        }

                    //No candidate
                    } else {
                        PrepareSending(A_DONTSEE, L_DONTSEE, TEASER, CR_2);
    17fc:	07 c0       	rjmp	.+14     	; 0x180c <ProcessInput+0x27e>
    17fe:	24 e0       	ldi	r18, 0x04	; 4
    1800:	41 e0       	ldi	r20, 0x01	; 1
    1802:	6a e1       	ldi	r22, 0x1A	; 26
    1804:	70 e0       	ldi	r23, 0x00	; 0
    1806:	82 e0       	ldi	r24, 0x02	; 2
    1808:	9a e7       	ldi	r25, 0x7A	; 122
    180a:	bf db       	rcall	.-2178   	; 0xf8a <PrepareSending>
                    }
                }

                //Show current location
                reactStr[1][1]=0;
    180c:	10 92 46 39 	sts	0x3946, r1	; 0x803946 <reactStr+0x42>
    1810:	10 92 47 39 	sts	0x3947, r1	; 0x803947 <reactStr+0x43>
                reactStr[2][1]=LOCATION;
    1814:	85 e0       	ldi	r24, 0x05	; 5
    1816:	90 e0       	ldi	r25, 0x00	; 0
    1818:	80 93 86 39 	sts	0x3986, r24	; 0x803986 <reactStr+0x82>
    181c:	90 93 87 39 	sts	0x3987, r25	; 0x803987 <reactStr+0x83>
                reactStr[1][2]=0;
    1820:	10 92 48 39 	sts	0x3948, r1	; 0x803948 <reactStr+0x44>
    1824:	10 92 49 39 	sts	0x3949, r1	; 0x803949 <reactStr+0x45>
                reactStr[2][2]=SPACE;
    1828:	82 e0       	ldi	r24, 0x02	; 2
    182a:	90 e0       	ldi	r25, 0x00	; 0
    182c:	80 93 88 39 	sts	0x3988, r24	; 0x803988 <reactStr+0x84>
    1830:	90 93 89 39 	sts	0x3989, r25	; 0x803989 <reactStr+0x85>
                reactStr[0][3]=currObj.addrStr[NAME];
    1834:	e4 e0       	ldi	r30, 0x04	; 4
    1836:	fa e3       	ldi	r31, 0x3A	; 58
    1838:	84 85       	ldd	r24, Z+12	; 0x0c
    183a:	95 85       	ldd	r25, Z+13	; 0x0d
    183c:	80 93 0a 39 	sts	0x390A, r24	; 0x80390a <reactStr+0x6>
    1840:	90 93 0b 39 	sts	0x390B, r25	; 0x80390b <reactStr+0x7>
                reactStr[1][3]=currObj.lenStr[NAME];
    1844:	82 8d       	ldd	r24, Z+26	; 0x1a
    1846:	93 8d       	ldd	r25, Z+27	; 0x1b
    1848:	80 93 4a 39 	sts	0x394A, r24	; 0x80394a <reactStr+0x46>
    184c:	90 93 4b 39 	sts	0x394B, r25	; 0x80394b <reactStr+0x47>
                reactStr[2][3]=PROMPT;
    1850:	81 e0       	ldi	r24, 0x01	; 1
    1852:	90 e0       	ldi	r25, 0x00	; 0
    1854:	80 93 8a 39 	sts	0x398A, r24	; 0x80398a <reactStr+0x86>
    1858:	90 93 8b 39 	sts	0x398B, r25	; 0x80398b <reactStr+0x87>
                actionList = 3;
    185c:	83 e0       	ldi	r24, 0x03	; 3
    185e:	80 93 02 39 	sts	0x3902, r24	; 0x803902 <actionList.3941>
                
            }
            
            //Input handled
            //data[0] = 0;
            serRxDone = 0;
    1862:	10 92 97 38 	sts	0x3897, r1	; 0x803897 <serRxDone>
            RXCNT = 0;
    1866:	1d ba       	out	0x1d, r1	; 29
        }
    }
    return 0;
    1868:	06 c0       	rjmp	.+12     	; 0x1876 <ProcessInput+0x2e8>
                    }

                    //The candidate is found! Let's check if the action is legit
                    if (canDo) {
                        uint8_t bEnter = (data[0] == 'e');
                        if ((actObj1.byteField[ACTION_MASK]&(bEnter?ENTER:OPEN))==0) {
    186a:	91 ff       	sbrs	r25, 1
    186c:	8c cf       	rjmp	.-232    	; 0x1786 <ProcessInput+0x1f8>
    186e:	98 cf       	rjmp	.-208    	; 0x17a0 <ProcessInput+0x212>
    1870:	90 ff       	sbrs	r25, 0
    1872:	8e cf       	rjmp	.-228    	; 0x1790 <ProcessInput+0x202>
    1874:	95 cf       	rjmp	.-214    	; 0x17a0 <ProcessInput+0x212>
            serRxDone = 0;
            RXCNT = 0;
        }
    }
    return 0;
}
    1876:	80 e0       	ldi	r24, 0x00	; 0
    1878:	df 91       	pop	r29
    187a:	cf 91       	pop	r28
    187c:	1f 91       	pop	r17
    187e:	0f 91       	pop	r16
    1880:	08 95       	ret

00001882 <TextAdventure>:


// Main game loop
uint8_t TextAdventure(){
    1882:	cf 93       	push	r28
    static uint8_t serInput[RXLEN];
    if (CheckSend()) return 1;                      //Still sending data to serial, return 1
    1884:	5f dd       	rcall	.-1346   	; 0x1344 <CheckSend>
    1886:	81 11       	cpse	r24, r1
    1888:	0b c0       	rjmp	.+22     	; 0x18a0 <TextAdventure+0x1e>
    if (CheckInput(&serInput[0])) return 2;         //No valid input to process, return 2
    188a:	88 e9       	ldi	r24, 0x98	; 152
    188c:	98 e3       	ldi	r25, 0x38	; 56
    188e:	a1 dd       	rcall	.-1214   	; 0x13d2 <CheckInput>
    1890:	c8 2f       	mov	r28, r24
    1892:	81 11       	cpse	r24, r1
    1894:	07 c0       	rjmp	.+14     	; 0x18a4 <TextAdventure+0x22>
    ProcessInput(&serInput[0]);                     //Check which response to generate and fill tx arrays
    1896:	88 e9       	ldi	r24, 0x98	; 152
    1898:	98 e3       	ldi	r25, 0x38	; 56
    SaveGameState();                                //Check if things are changed, write to EEPROM
    189a:	79 de       	rcall	.-782    	; 0x158e <ProcessInput>
    189c:	de d9       	rcall	.-3140   	; 0xc5a <SaveGameState>
    return 0;
    189e:	03 c0       	rjmp	.+6      	; 0x18a6 <TextAdventure+0x24>


// Main game loop
uint8_t TextAdventure(){
    static uint8_t serInput[RXLEN];
    if (CheckSend()) return 1;                      //Still sending data to serial, return 1
    18a0:	c1 e0       	ldi	r28, 0x01	; 1
    18a2:	01 c0       	rjmp	.+2      	; 0x18a6 <TextAdventure+0x24>
    if (CheckInput(&serInput[0])) return 2;         //No valid input to process, return 2
    18a4:	c2 e0       	ldi	r28, 0x02	; 2
    ProcessInput(&serInput[0]);                     //Check which response to generate and fill tx arrays
    SaveGameState();                                //Check if things are changed, write to EEPROM
    return 0;
    18a6:	8c 2f       	mov	r24, r28
    18a8:	cf 91       	pop	r28
    18aa:	08 95       	ret

000018ac <main>:


//This is where it begins, inits first and main program in while(1) loop.
int main(void)
{
    Setup();
    18ac:	0e 94 aa 01 	call	0x354	; 0x354 <Setup>

    //SerSpeed(1);
    //unsigned char strTest[]="\aHckerHotel2020 badge pest!\b\b\b\b\bt\n";
    //SerSend(&strTest[0]);

    SerSpeed(255);
    18b0:	8f ef       	ldi	r24, 0xFF	; 255
    18b2:	e2 d8       	rcall	.-3644   	; 0xa78 <SerSpeed>
    18b4:	ae e0       	ldi	r26, 0x0E	; 14
    18b6:	ba e9       	ldi	r27, 0x9A	; 154
    18b8:	24 e1       	ldi	r18, 0x14	; 20
    18ba:	3a e9       	ldi	r19, 0x9A	; 154

    ////Turn on LEDs on low setting to check for interrupt glitches

    //"Hacker"
    for (uint8_t n=0; n<6; n++){
        iLED[HCKR[R][n]] = 1;
    18bc:	81 e0       	ldi	r24, 0x01	; 1
    18be:	ed 91       	ld	r30, X+
    18c0:	f0 e0       	ldi	r31, 0x00	; 0
    18c2:	ec 53       	subi	r30, 0x3C	; 60
    18c4:	f5 4c       	sbci	r31, 0xC5	; 197
    18c6:	80 83       	st	Z, r24
        iLED[HCKR[G][n]] = 1;
    18c8:	15 96       	adiw	r26, 0x05	; 5
    18ca:	ec 91       	ld	r30, X
    18cc:	15 97       	sbiw	r26, 0x05	; 5
    18ce:	f0 e0       	ldi	r31, 0x00	; 0
    18d0:	ec 53       	subi	r30, 0x3C	; 60
    18d2:	f5 4c       	sbci	r31, 0xC5	; 197
    18d4:	80 83       	st	Z, r24
    SerSpeed(255);

    ////Turn on LEDs on low setting to check for interrupt glitches

    //"Hacker"
    for (uint8_t n=0; n<6; n++){
    18d6:	a2 17       	cp	r26, r18
    18d8:	b3 07       	cpc	r27, r19
    18da:	89 f7       	brne	.-30     	; 0x18be <main+0x12>
    18dc:	e0 e0       	ldi	r30, 0x00	; 0
    18de:	fa e9       	ldi	r31, 0x9A	; 154
    18e0:	25 e0       	ldi	r18, 0x05	; 5
    18e2:	3a e9       	ldi	r19, 0x9A	; 154
        iLED[HCKR[G][n]] = 1;
    }

    //"Wings"
    for (uint8_t n=0; n<5; n++){
        iLED[WING[L][n]] = 1;
    18e4:	81 e0       	ldi	r24, 0x01	; 1
    18e6:	ef 01       	movw	r28, r30
    18e8:	a5 81       	ldd	r26, Z+5	; 0x05
    18ea:	b0 e0       	ldi	r27, 0x00	; 0
    18ec:	ac 53       	subi	r26, 0x3C	; 60
    18ee:	b5 4c       	sbci	r27, 0xC5	; 197
    18f0:	8c 93       	st	X, r24
    18f2:	31 96       	adiw	r30, 0x01	; 1
        iLED[WING[R][n]] = 1;
    18f4:	a8 81       	ld	r26, Y
    18f6:	b0 e0       	ldi	r27, 0x00	; 0
    18f8:	ac 53       	subi	r26, 0x3C	; 60
    18fa:	b5 4c       	sbci	r27, 0xC5	; 197
    18fc:	8c 93       	st	X, r24
        iLED[HCKR[R][n]] = 1;
        iLED[HCKR[G][n]] = 1;
    }

    //"Wings"
    for (uint8_t n=0; n<5; n++){
    18fe:	e2 17       	cp	r30, r18
    1900:	f3 07       	cpc	r31, r19
    1902:	89 f7       	brne	.-30     	; 0x18e6 <main+0x3a>
        iLED[WING[L][n]] = 1;
        iLED[WING[R][n]] = 1;
    }    

    //"Others"
    iLED[EYE[G][R]] = 1;
    1904:	aa e0       	ldi	r26, 0x0A	; 10
    1906:	ba e9       	ldi	r27, 0x9A	; 154
    1908:	12 96       	adiw	r26, 0x02	; 2
    190a:	ec 91       	ld	r30, X
    190c:	12 97       	sbiw	r26, 0x02	; 2
    190e:	f0 e0       	ldi	r31, 0x00	; 0
    1910:	ec 53       	subi	r30, 0x3C	; 60
    1912:	f5 4c       	sbci	r31, 0xC5	; 197
    1914:	81 e0       	ldi	r24, 0x01	; 1
    1916:	80 83       	st	Z, r24
    iLED[EYE[G][L]] = 1;
    1918:	13 96       	adiw	r26, 0x03	; 3
    191a:	ec 91       	ld	r30, X
    191c:	13 97       	sbiw	r26, 0x03	; 3
    191e:	f0 e0       	ldi	r31, 0x00	; 0
    1920:	ec 53       	subi	r30, 0x3C	; 60
    1922:	f5 4c       	sbci	r31, 0xC5	; 197
    1924:	80 83       	st	Z, r24
    iLED[EYE[R][R]] = 1;
    1926:	ec 91       	ld	r30, X
    1928:	f0 e0       	ldi	r31, 0x00	; 0
    192a:	ec 53       	subi	r30, 0x3C	; 60
    192c:	f5 4c       	sbci	r31, 0xC5	; 197
    192e:	80 83       	st	Z, r24
    iLED[EYE[R][L]] = 1;
    1930:	11 96       	adiw	r26, 0x01	; 1
    1932:	ec 91       	ld	r30, X
    1934:	f0 e0       	ldi	r31, 0x00	; 0
    1936:	ec 53       	subi	r30, 0x3C	; 60
    1938:	f5 4c       	sbci	r31, 0xC5	; 197
    193a:	80 83       	st	Z, r24
    iLED[GEM[R]] = 1;
    193c:	ae ef       	ldi	r26, 0xFE	; 254
    193e:	b9 e9       	ldi	r27, 0x99	; 153
    1940:	ec 91       	ld	r30, X
    1942:	f0 e0       	ldi	r31, 0x00	; 0
    1944:	ec 53       	subi	r30, 0x3C	; 60
    1946:	f5 4c       	sbci	r31, 0xC5	; 197
    1948:	80 83       	st	Z, r24
    iLED[GEM[G]] = 1;
    194a:	11 96       	adiw	r26, 0x01	; 1
    194c:	ec 91       	ld	r30, X
    194e:	f0 e0       	ldi	r31, 0x00	; 0
    1950:	ec 53       	subi	r30, 0x3C	; 60
    1952:	f5 4c       	sbci	r31, 0xC5	; 197
    1954:	80 83       	st	Z, r24
    iLED[RAT] = 1;
    1956:	e0 91 fd 99 	lds	r30, 0x99FD	; 0x8099fd <__bss_end+0x5eec>
    195a:	f0 e0       	ldi	r31, 0x00	; 0
    195c:	ec 53       	subi	r30, 0x3C	; 60
    195e:	f5 4c       	sbci	r31, 0xC5	; 197
    1960:	80 83       	st	Z, r24
    iLED[CAT] = 1;
    1962:	e0 91 fc 99 	lds	r30, 0x99FC	; 0x8099fc <__bss_end+0x5eeb>
    1966:	f0 e0       	ldi	r31, 0x00	; 0
    1968:	ec 53       	subi	r30, 0x3C	; 60
    196a:	f5 4c       	sbci	r31, 0xC5	; 197

    while (1)
    {
        GenerateAudio();
    196c:	80 83       	st	Z, r24
    196e:	25 da       	rcall	.-2998   	; 0xdba <GenerateAudio>

        if (buttonMark){
    1970:	80 91 95 38 	lds	r24, 0x3895	; 0x803895 <buttonMark>
    1974:	88 23       	and	r24, r24
    1976:	d9 f3       	breq	.-10     	; 0x196e <main+0xc2>
            buttonState = CheckButtons(buttonState);
    1978:	80 91 47 3a 	lds	r24, 0x3A47	; 0x803a47 <buttonState>
    197c:	8e d8       	rcall	.-3812   	; 0xa9a <CheckButtons>
    197e:	80 93 47 3a 	sts	0x3A47, r24	; 0x803a47 <buttonState>
            buttonMark = 0;
    1982:	10 92 95 38 	sts	0x3895, r1	; 0x803895 <buttonMark>
            
            //GenerateLEDshow();        

            TextAdventure();
    1986:	7d df       	rcall	.-262    	; 0x1882 <TextAdventure>
          
            //Other games & user interaction checks
            //MagnetMaze();
            BastetDictates();
    1988:	91 da       	rcall	.-2782   	; 0xeac <BastetDictates>
    198a:	80 91 a1 3a 	lds	r24, 0x3AA1	; 0x803aa1 <adcPhot>
            //MasterMind-ishThing(); //Not sure if to be implemented
            //LanyardCode();
            //MakeFriends();
             
            //Check light sensor status (added hysteresis to preserve writing cycles to internal EEPROM)
            if (adcPhot < 10) WriteStatusBit(116, 1);
    198e:	90 91 a2 3a 	lds	r25, 0x3AA2	; 0x803aa2 <adcPhot+0x1>
    1992:	0a 97       	sbiw	r24, 0x0a	; 10
    1994:	18 f4       	brcc	.+6      	; 0x199c <main+0xf0>
    1996:	61 e0       	ldi	r22, 0x01	; 1
    1998:	84 e7       	ldi	r24, 0x74	; 116
    199a:	ac d9       	rcall	.-3240   	; 0xcf4 <WriteStatusBit>
    199c:	80 91 a1 3a 	lds	r24, 0x3AA1	; 0x803aa1 <adcPhot>
            if (adcPhot > 100) WriteStatusBit(116, 0);
    19a0:	90 91 a2 3a 	lds	r25, 0x3AA2	; 0x803aa2 <adcPhot+0x1>
    19a4:	85 36       	cpi	r24, 0x65	; 101
    19a6:	91 05       	cpc	r25, r1
    19a8:	10 f3       	brcs	.-60     	; 0x196e <main+0xc2>
    19aa:	60 e0       	ldi	r22, 0x00	; 0
    19ac:	84 e7       	ldi	r24, 0x74	; 116
    19ae:	a2 d9       	rcall	.-3260   	; 0xcf4 <WriteStatusBit>
    19b0:	de cf       	rjmp	.-68     	; 0x196e <main+0xc2>

000019b2 <__udivmodhi4>:
    19b2:	aa 1b       	sub	r26, r26
    19b4:	bb 1b       	sub	r27, r27
    19b6:	51 e1       	ldi	r21, 0x11	; 17
    19b8:	07 c0       	rjmp	.+14     	; 0x19c8 <__udivmodhi4_ep>

000019ba <__udivmodhi4_loop>:
    19ba:	aa 1f       	adc	r26, r26
    19bc:	bb 1f       	adc	r27, r27
    19be:	a6 17       	cp	r26, r22
    19c0:	b7 07       	cpc	r27, r23
    19c2:	10 f0       	brcs	.+4      	; 0x19c8 <__udivmodhi4_ep>
    19c4:	a6 1b       	sub	r26, r22
    19c6:	b7 0b       	sbc	r27, r23

000019c8 <__udivmodhi4_ep>:
    19c8:	88 1f       	adc	r24, r24
    19ca:	99 1f       	adc	r25, r25
    19cc:	5a 95       	dec	r21
    19ce:	a9 f7       	brne	.-22     	; 0x19ba <__udivmodhi4_loop>
    19d0:	80 95       	com	r24
    19d2:	90 95       	com	r25
    19d4:	bc 01       	movw	r22, r24
    19d6:	cd 01       	movw	r24, r26
    19d8:	08 95       	ret

000019da <__umulhisi3>:
    19da:	a2 9f       	mul	r26, r18
    19dc:	b0 01       	movw	r22, r0
    19de:	b3 9f       	mul	r27, r19
    19e0:	c0 01       	movw	r24, r0
    19e2:	a3 9f       	mul	r26, r19
    19e4:	70 0d       	add	r23, r0
    19e6:	81 1d       	adc	r24, r1
    19e8:	11 24       	eor	r1, r1
    19ea:	91 1d       	adc	r25, r1
    19ec:	b2 9f       	mul	r27, r18
    19ee:	70 0d       	add	r23, r0
    19f0:	81 1d       	adc	r24, r1
    19f2:	11 24       	eor	r1, r1
    19f4:	91 1d       	adc	r25, r1
    19f6:	08 95       	ret

000019f8 <_exit>:
    19f8:	f8 94       	cli

000019fa <__stop_program>:
    19fa:	ff cf       	rjmp	.-2      	; 0x19fa <__stop_program>
