
ISR_IO.elf:     file format elf32-avr

Sections:
Idx Name          Size      VMA       LMA       File off  Algn
  0 .data         00000030  00803800  00004122  000041d6  2**0
                  CONTENTS, ALLOC, LOAD, DATA
  1 .text         00004076  00000000  00000000  000000b4  2**1
                  CONTENTS, ALLOC, LOAD, READONLY, CODE
  2 .rodata       000000ac  0000c076  00004076  0000412a  2**0
                  CONTENTS, ALLOC, LOAD, READONLY, DATA
  3 .bss          000002e2  00803830  00803830  00004206  2**0
                  ALLOC
  4 .comment      00000030  00000000  00000000  00004206  2**0
                  CONTENTS, READONLY
  5 .note.gnu.avr.deviceinfo 00000040  00000000  00000000  00004238  2**2
                  CONTENTS, READONLY
  6 .debug_aranges 00000340  00000000  00000000  00004278  2**0
                  CONTENTS, READONLY, DEBUGGING
  7 .debug_info   00006ef9  00000000  00000000  000045b8  2**0
                  CONTENTS, READONLY, DEBUGGING
  8 .debug_abbrev 00002914  00000000  00000000  0000b4b1  2**0
                  CONTENTS, READONLY, DEBUGGING
  9 .debug_line   00003ed4  00000000  00000000  0000ddc5  2**0
                  CONTENTS, READONLY, DEBUGGING
 10 .debug_frame  00000a28  00000000  00000000  00011c9c  2**2
                  CONTENTS, READONLY, DEBUGGING
 11 .debug_str    00001a92  00000000  00000000  000126c4  2**0
                  CONTENTS, READONLY, DEBUGGING
 12 .debug_loc    00004510  00000000  00000000  00014156  2**0
                  CONTENTS, READONLY, DEBUGGING
 13 .debug_ranges 000003b0  00000000  00000000  00018666  2**0
                  CONTENTS, READONLY, DEBUGGING

Disassembly of section .text:

00000000 <__vectors>:
       0:	46 c0       	rjmp	.+140    	; 0x8e <__ctors_end>
       2:	00 00       	nop
       4:	61 c0       	rjmp	.+194    	; 0xc8 <__bad_interrupt>
       6:	00 00       	nop
       8:	5f c0       	rjmp	.+190    	; 0xc8 <__bad_interrupt>
       a:	00 00       	nop
       c:	5d c0       	rjmp	.+186    	; 0xc8 <__bad_interrupt>
       e:	00 00       	nop
      10:	5b c0       	rjmp	.+182    	; 0xc8 <__bad_interrupt>
      12:	00 00       	nop
      14:	59 c0       	rjmp	.+178    	; 0xc8 <__bad_interrupt>
      16:	00 00       	nop
      18:	bf c7       	rjmp	.+3966   	; 0xf98 <__vector_6>
      1a:	00 00       	nop
      1c:	0c 94 23 08 	jmp	0x1046	; 0x1046 <__vector_7>
      20:	fc c5       	rjmp	.+3064   	; 0xc1a <__vector_8>
      22:	00 00       	nop
      24:	51 c0       	rjmp	.+162    	; 0xc8 <__bad_interrupt>
      26:	00 00       	nop
      28:	4f c0       	rjmp	.+158    	; 0xc8 <__bad_interrupt>
      2a:	00 00       	nop
      2c:	4d c0       	rjmp	.+154    	; 0xc8 <__bad_interrupt>
      2e:	00 00       	nop
      30:	4b c0       	rjmp	.+150    	; 0xc8 <__bad_interrupt>
      32:	00 00       	nop
      34:	43 c6       	rjmp	.+3206   	; 0xcbc <__vector_13>
      36:	00 00       	nop
      38:	74 c6       	rjmp	.+3304   	; 0xd22 <__vector_14>
      3a:	00 00       	nop
      3c:	45 c0       	rjmp	.+138    	; 0xc8 <__bad_interrupt>
      3e:	00 00       	nop
      40:	43 c0       	rjmp	.+134    	; 0xc8 <__bad_interrupt>
      42:	00 00       	nop
      44:	41 c0       	rjmp	.+130    	; 0xc8 <__bad_interrupt>
      46:	00 00       	nop
      48:	3f c0       	rjmp	.+126    	; 0xc8 <__bad_interrupt>
      4a:	00 00       	nop
      4c:	3d c0       	rjmp	.+122    	; 0xc8 <__bad_interrupt>
      4e:	00 00       	nop
      50:	2f c7       	rjmp	.+3678   	; 0xeb0 <__vector_20>
      52:	00 00       	nop
      54:	39 c0       	rjmp	.+114    	; 0xc8 <__bad_interrupt>
      56:	00 00       	nop
      58:	57 c7       	rjmp	.+3758   	; 0xf08 <__vector_22>
      5a:	00 00       	nop
      5c:	35 c0       	rjmp	.+106    	; 0xc8 <__bad_interrupt>
      5e:	00 00       	nop
      60:	33 c0       	rjmp	.+102    	; 0xc8 <__bad_interrupt>
      62:	00 00       	nop
      64:	31 c0       	rjmp	.+98     	; 0xc8 <__bad_interrupt>
      66:	00 00       	nop
      68:	2f c0       	rjmp	.+94     	; 0xc8 <__bad_interrupt>
      6a:	00 00       	nop
      6c:	aa c6       	rjmp	.+3412   	; 0xdc2 <__vector_27>
      6e:	00 00       	nop
      70:	03 c7       	rjmp	.+3590   	; 0xe78 <__vector_28>
      72:	00 00       	nop
      74:	29 c0       	rjmp	.+82     	; 0xc8 <__bad_interrupt>
      76:	00 00       	nop
      78:	27 c0       	rjmp	.+78     	; 0xc8 <__bad_interrupt>
      7a:	00 00       	nop
      7c:	f5 0b       	sbc	r31, r21
      7e:	23 0c       	add	r2, r3
      80:	2a 0c       	add	r2, r10
      82:	d9 0c       	add	r13, r9
      84:	d9 0c       	add	r13, r9
      86:	3e 0c       	add	r3, r14
      88:	50 0c       	add	r5, r0
      8a:	7b 0c       	add	r7, r11
      8c:	9f 0c       	add	r9, r15

0000008e <__ctors_end>:
      8e:	11 24       	eor	r1, r1
      90:	1f be       	out	0x3f, r1	; 63
      92:	cf ef       	ldi	r28, 0xFF	; 255
      94:	cd bf       	out	0x3d, r28	; 61
      96:	df e3       	ldi	r29, 0x3F	; 63
      98:	de bf       	out	0x3e, r29	; 62

0000009a <__do_copy_data>:
      9a:	18 e3       	ldi	r17, 0x38	; 56
      9c:	a0 e0       	ldi	r26, 0x00	; 0
      9e:	b8 e3       	ldi	r27, 0x38	; 56
      a0:	e2 e2       	ldi	r30, 0x22	; 34
      a2:	f1 e4       	ldi	r31, 0x41	; 65
      a4:	02 c0       	rjmp	.+4      	; 0xaa <__do_copy_data+0x10>
      a6:	05 90       	lpm	r0, Z+
      a8:	0d 92       	st	X+, r0
      aa:	a0 33       	cpi	r26, 0x30	; 48
      ac:	b1 07       	cpc	r27, r17
      ae:	d9 f7       	brne	.-10     	; 0xa6 <__do_copy_data+0xc>

000000b0 <__do_clear_bss>:
      b0:	2b e3       	ldi	r18, 0x3B	; 59
      b2:	a0 e3       	ldi	r26, 0x30	; 48
      b4:	b8 e3       	ldi	r27, 0x38	; 56
      b6:	01 c0       	rjmp	.+2      	; 0xba <.do_clear_bss_start>

000000b8 <.do_clear_bss_loop>:
      b8:	1d 92       	st	X+, r1

000000ba <.do_clear_bss_start>:
      ba:	a2 31       	cpi	r26, 0x12	; 18
      bc:	b2 07       	cpc	r27, r18
      be:	e1 f7       	brne	.-8      	; 0xb8 <.do_clear_bss_loop>
      c0:	0e 94 af 1f 	call	0x3f5e	; 0x3f5e <main>
      c4:	0c 94 39 20 	jmp	0x4072	; 0x4072 <_exit>

000000c8 <__bad_interrupt>:
      c8:	9b cf       	rjmp	.-202    	; 0x0 <__vectors>

000000ca <chkVolt250>:
#include <main_def.h>
#include <resources.h>
#include <I2C.h>

//Returns measured voltage * 4 (2V returns 8) if it is in the expected range (DELTA)
uint8_t chkVolt250(){
      ca:	28 ed       	ldi	r18, 0xD8	; 216
      cc:	30 e0       	ldi	r19, 0x00	; 0
    uint8_t avgVolt = 9;
      ce:	89 e0       	ldi	r24, 0x09	; 9
        
    for (uint8_t x=225; x>24; x-=25) {
        if ((auIn > (x-DELTA)) && (auIn < (x+DELTA))) {
      d0:	40 91 c2 3a 	lds	r20, 0x3AC2	; 0x803ac2 <auIn>
      d4:	50 e0       	ldi	r21, 0x00	; 0
      d6:	42 17       	cp	r20, r18
      d8:	53 07       	cpc	r21, r19
      da:	4c f0       	brlt	.+18     	; 0xee <chkVolt250+0x24>
      dc:	40 91 c2 3a 	lds	r20, 0x3AC2	; 0x803ac2 <auIn>
      e0:	50 e0       	ldi	r21, 0x00	; 0
      e2:	b9 01       	movw	r22, r18
      e4:	6e 5e       	subi	r22, 0xEE	; 238
      e6:	7f 4f       	sbci	r23, 0xFF	; 255
      e8:	64 17       	cp	r22, r20
      ea:	75 07       	cpc	r23, r21
      ec:	2c f4       	brge	.+10     	; 0xf8 <chkVolt250+0x2e>
            break;
        }
        --avgVolt;
      ee:	81 50       	subi	r24, 0x01	; 1
      f0:	29 51       	subi	r18, 0x19	; 25
      f2:	31 09       	sbc	r19, r1

//Returns measured voltage * 4 (2V returns 8) if it is in the expected range (DELTA)
uint8_t chkVolt250(){
    uint8_t avgVolt = 9;
        
    for (uint8_t x=225; x>24; x-=25) {
      f4:	81 11       	cpse	r24, r1
      f6:	ec cf       	rjmp	.-40     	; 0xd0 <chkVolt250+0x6>
            break;
        }
        --avgVolt;
    }
    return avgVolt;
}
      f8:	08 95       	ret

000000fa <MakeFriends>:

// Main game loop
uint8_t MakeFriends(){
      fa:	ef 92       	push	r14
      fc:	ff 92       	push	r15
      fe:	0f 93       	push	r16
     100:	1f 93       	push	r17
     102:	cf 93       	push	r28
     104:	df 93       	push	r29
     106:	c4 e6       	ldi	r28, 0x64	; 100
    static uint8_t chkTmr = 0;
    static uint8_t jackIn = 0;
    static uint8_t candidate = 0;

    //Check if badge has found 3 friends
    uint8_t foundAll = 1;
     108:	d1 e0       	ldi	r29, 0x01	; 1
    for (uint8_t x=0; x<4; x++){
        if (CheckState(100+x) == 0) foundAll = 0;
     10a:	8c 2f       	mov	r24, r28
     10c:	0e 94 54 0a 	call	0x14a8	; 0x14a8 <CheckState>
     110:	81 11       	cpse	r24, r1
     112:	01 c0       	rjmp	.+2      	; 0x116 <MakeFriends+0x1c>
     114:	d0 e0       	ldi	r29, 0x00	; 0
     116:	cf 5f       	subi	r28, 0xFF	; 255
    static uint8_t jackIn = 0;
    static uint8_t candidate = 0;

    //Check if badge has found 3 friends
    uint8_t foundAll = 1;
    for (uint8_t x=0; x<4; x++){
     118:	c8 36       	cpi	r28, 0x68	; 104
     11a:	b9 f7       	brne	.-18     	; 0x10a <MakeFriends+0x10>
        if (CheckState(100+x) == 0) foundAll = 0;
    }
    if (foundAll) UpdateState(124);
     11c:	dd 23       	and	r29, r29
     11e:	19 f0       	breq	.+6      	; 0x126 <MakeFriends+0x2c>
     120:	8c e7       	ldi	r24, 0x7C	; 124
     122:	0e 94 4a 0a 	call	0x1494	; 0x1494 <UpdateState>

    //Set game state, must be able to hijack from other games.
    if (progress > FIRST_CONTACT) { 
     126:	80 91 33 38 	lds	r24, 0x3833	; 0x803833 <progress.3788>
     12a:	82 30       	cpi	r24, 0x02	; 2
     12c:	50 f0       	brcs	.+20     	; 0x142 <MakeFriends+0x48>
        gameNow = FRIENDS; 
     12e:	94 e0       	ldi	r25, 0x04	; 4
     130:	90 93 3c 38 	sts	0x383C, r25	; 0x80383c <gameNow>
        effect = 31;
     134:	2f e1       	ldi	r18, 0x1F	; 31
     136:	30 e0       	ldi	r19, 0x00	; 0
     138:	20 93 3a 38 	sts	0x383A, r18	; 0x80383a <effect>
     13c:	30 93 3b 38 	sts	0x383B, r19	; 0x80383b <effect+0x1>
     140:	0c c0       	rjmp	.+24     	; 0x15a <MakeFriends+0x60>
    }
    
    //Clear game state
    if ((progress == NO_OTHER) && (gameNow == FRIENDS)) {
     142:	81 11       	cpse	r24, r1
     144:	0a c0       	rjmp	.+20     	; 0x15a <MakeFriends+0x60>
     146:	90 91 3c 38 	lds	r25, 0x383C	; 0x80383c <gameNow>
     14a:	94 30       	cpi	r25, 0x04	; 4
     14c:	31 f4       	brne	.+12     	; 0x15a <MakeFriends+0x60>
        gameNow = TEXT; 
     14e:	10 92 3c 38 	sts	0x383C, r1	; 0x80383c <gameNow>
        effect = 0;
     152:	10 92 3a 38 	sts	0x383A, r1	; 0x80383a <effect>
     156:	10 92 3b 38 	sts	0x383B, r1	; 0x80383b <effect+0x1>
    }

    //Checking for headphones
    if (detHdPh) return 0;
     15a:	90 91 bf 3a 	lds	r25, 0x3ABF	; 0x803abf <detHdPh>
     15e:	91 11       	cpse	r25, r1
     160:	fe c0       	rjmp	.+508    	; 0x35e <MakeFriends+0x264>

    //Audio off, set voltage level (setDAC[0]*10mV)
    if (progress == NO_OTHER) {
     162:	81 11       	cpse	r24, r1
     164:	11 c0       	rjmp	.+34     	; 0x188 <MakeFriends+0x8e>
        setDAC[0] = whoami * 51;
     166:	90 91 3d 38 	lds	r25, 0x383D	; 0x80383d <whoami>
     16a:	23 e3       	ldi	r18, 0x33	; 51
     16c:	92 9f       	mul	r25, r18
     16e:	90 2d       	mov	r25, r0
     170:	11 24       	eor	r1, r1
     172:	90 93 00 38 	sts	0x3800, r25	; 0x803800 <__data_start>
        auRepAddr = &setDAC[0];
     176:	20 e0       	ldi	r18, 0x00	; 0
     178:	38 e3       	ldi	r19, 0x38	; 56
     17a:	20 93 03 38 	sts	0x3803, r18	; 0x803803 <auRepAddr>
     17e:	30 93 04 38 	sts	0x3804, r19	; 0x803804 <auRepAddr+0x1>
        auVolume = 255;
     182:	9f ef       	ldi	r25, 0xFF	; 255
     184:	90 93 b6 3a 	sts	0x3AB6, r25	; 0x803ab6 <auVolume>
    }

    //Check for other badges
    if ((auIn < (setDAC[0] - DELTA)) || (auIn > (setDAC[0] + DELTA)) || (progress > FIRST_CONTACT)) {
     188:	40 91 c2 3a 	lds	r20, 0x3AC2	; 0x803ac2 <auIn>
     18c:	20 91 00 38 	lds	r18, 0x3800	; 0x803800 <__data_start>
     190:	30 e0       	ldi	r19, 0x00	; 0
     192:	50 e0       	ldi	r21, 0x00	; 0
     194:	b9 01       	movw	r22, r18
     196:	6a 50       	subi	r22, 0x0A	; 10
     198:	71 09       	sbc	r23, r1
     19a:	46 17       	cp	r20, r22
     19c:	57 07       	cpc	r21, r23
     19e:	64 f0       	brlt	.+24     	; 0x1b8 <MakeFriends+0xbe>
     1a0:	40 91 c2 3a 	lds	r20, 0x3AC2	; 0x803ac2 <auIn>
     1a4:	50 e0       	ldi	r21, 0x00	; 0
     1a6:	26 5f       	subi	r18, 0xF6	; 246
     1a8:	3f 4f       	sbci	r19, 0xFF	; 255
     1aa:	24 17       	cp	r18, r20
     1ac:	35 07       	cpc	r19, r21
     1ae:	24 f0       	brlt	.+8      	; 0x1b8 <MakeFriends+0xbe>
     1b0:	82 30       	cpi	r24, 0x02	; 2
     1b2:	08 f0       	brcs	.+2      	; 0x1b6 <MakeFriends+0xbc>
     1b4:	40 c0       	rjmp	.+128    	; 0x236 <MakeFriends+0x13c>
     1b6:	d1 c0       	rjmp	.+418    	; 0x35a <MakeFriends+0x260>
        if (progress == NO_OTHER) {
     1b8:	81 11       	cpse	r24, r1
     1ba:	0a c0       	rjmp	.+20     	; 0x1d0 <MakeFriends+0xd6>
            ++chkTmr;
     1bc:	80 91 32 38 	lds	r24, 0x3832	; 0x803832 <chkTmr.3790>
     1c0:	8f 5f       	subi	r24, 0xFF	; 255
     1c2:	80 93 32 38 	sts	0x3832, r24	; 0x803832 <chkTmr.3790>
            if (chkTmr >= 8) {
     1c6:	88 30       	cpi	r24, 0x08	; 8
     1c8:	08 f4       	brcc	.+2      	; 0x1cc <MakeFriends+0xd2>
     1ca:	c9 c0       	rjmp	.+402    	; 0x35e <MakeFriends+0x264>
                progress = FIRST_CONTACT;
     1cc:	81 e0       	ldi	r24, 0x01	; 1
     1ce:	7e c0       	rjmp	.+252    	; 0x2cc <MakeFriends+0x1d2>
                chkTmr = 0;
            }
        }

        //Candidate found, check ranges
        else if (progress == FIRST_CONTACT) {
     1d0:	81 30       	cpi	r24, 0x01	; 1
     1d2:	89 f5       	brne	.+98     	; 0x236 <MakeFriends+0x13c>
            jackIn = chkVolt250();
     1d4:	7a df       	rcall	.-268    	; 0xca <chkVolt250>
     1d6:	80 93 31 38 	sts	0x3831, r24	; 0x803831 <jackIn.3791>
            if (jackIn) {
     1da:	88 23       	and	r24, r24
     1dc:	49 f1       	breq	.+82     	; 0x230 <MakeFriends+0x136>
                ++chkTmr;
     1de:	90 91 32 38 	lds	r25, 0x3832	; 0x803832 <chkTmr.3790>
     1e2:	9f 5f       	subi	r25, 0xFF	; 255
     1e4:	90 93 32 38 	sts	0x3832, r25	; 0x803832 <chkTmr.3790>
                if (chkTmr >= SHORT_WAIT){
     1e8:	98 30       	cpi	r25, 0x08	; 8
     1ea:	08 f4       	brcc	.+2      	; 0x1ee <MakeFriends+0xf4>
     1ec:	b8 c0       	rjmp	.+368    	; 0x35e <MakeFriends+0x264>
                    if ((whoami == 1)&&((jackIn == 3)||(jackIn == 4)||(jackIn == 5))) {
     1ee:	90 91 3d 38 	lds	r25, 0x383D	; 0x80383d <whoami>
     1f2:	91 30       	cpi	r25, 0x01	; 1
     1f4:	29 f4       	brne	.+10     	; 0x200 <MakeFriends+0x106>
     1f6:	83 50       	subi	r24, 0x03	; 3
     1f8:	83 30       	cpi	r24, 0x03	; 3
     1fa:	b8 f4       	brcc	.+46     	; 0x22a <MakeFriends+0x130>
                        progress = SECOND_LOVE; 
     1fc:	82 e0       	ldi	r24, 0x02	; 2
     1fe:	66 c0       	rjmp	.+204    	; 0x2cc <MakeFriends+0x1d2>
                    } else if ((whoami == 2)&&((jackIn == 3)||(jackIn == 5)||(jackIn == 6))) {
     200:	92 30       	cpi	r25, 0x02	; 2
     202:	31 f4       	brne	.+12     	; 0x210 <MakeFriends+0x116>
     204:	83 30       	cpi	r24, 0x03	; 3
     206:	d1 f3       	breq	.-12     	; 0x1fc <MakeFriends+0x102>
     208:	85 50       	subi	r24, 0x05	; 5
     20a:	82 30       	cpi	r24, 0x02	; 2
     20c:	70 f4       	brcc	.+28     	; 0x22a <MakeFriends+0x130>
     20e:	f6 cf       	rjmp	.-20     	; 0x1fc <MakeFriends+0x102>
                        progress = SECOND_LOVE;
                    } else  if ((whoami == 3)&&((jackIn == 4)||(jackIn == 5)||(jackIn == 7))) {
     210:	93 30       	cpi	r25, 0x03	; 3
     212:	39 f4       	brne	.+14     	; 0x222 <MakeFriends+0x128>
     214:	9c ef       	ldi	r25, 0xFC	; 252
     216:	98 0f       	add	r25, r24
     218:	92 30       	cpi	r25, 0x02	; 2
     21a:	80 f3       	brcs	.-32     	; 0x1fc <MakeFriends+0x102>
     21c:	87 30       	cpi	r24, 0x07	; 7
     21e:	29 f4       	brne	.+10     	; 0x22a <MakeFriends+0x130>
     220:	ed cf       	rjmp	.-38     	; 0x1fc <MakeFriends+0x102>
                        progress = SECOND_LOVE;
                    } else if ((whoami == 4)&&((jackIn == 5)||(jackIn == 6)||(jackIn == 7))) {
     222:	94 30       	cpi	r25, 0x04	; 4
     224:	11 f4       	brne	.+4      	; 0x22a <MakeFriends+0x130>
     226:	85 50       	subi	r24, 0x05	; 5
     228:	e7 cf       	rjmp	.-50     	; 0x1f8 <MakeFriends+0xfe>
                        progress = SECOND_LOVE;
                    } else progress = NO_OTHER;
     22a:	10 92 33 38 	sts	0x3833, r1	; 0x803833 <progress.3788>
     22e:	50 c0       	rjmp	.+160    	; 0x2d0 <MakeFriends+0x1d6>
                    chkTmr = 0;
                }
            } else {
                chkTmr = 0;
     230:	10 92 32 38 	sts	0x3832, r1	; 0x803832 <chkTmr.3790>
     234:	92 c0       	rjmp	.+292    	; 0x35a <MakeFriends+0x260>
                progress = NO_OTHER;
            }
        }

        //Wait for the other badge (and a bit longer)
        else if (progress == SECOND_LOVE){
     236:	82 30       	cpi	r24, 0x02	; 2
     238:	09 f0       	breq	.+2      	; 0x23c <MakeFriends+0x142>
     23a:	4d c0       	rjmp	.+154    	; 0x2d6 <MakeFriends+0x1dc>
            ++chkTmr;
     23c:	80 91 32 38 	lds	r24, 0x3832	; 0x803832 <chkTmr.3790>
     240:	8f 5f       	subi	r24, 0xFF	; 255
     242:	80 93 32 38 	sts	0x3832, r24	; 0x803832 <chkTmr.3790>
     246:	c2 ea       	ldi	r28, 0xA2	; 162
     248:	d0 ec       	ldi	r29, 0xC0	; 192
     24a:	7e 01       	movw	r14, r28
            for (uint8_t x=0; x<5; ++x){
                iLED[WING[L][x]] = (lfsr() > 127)?dimValue:0;
     24c:	0d 81       	ldd	r16, Y+5	; 0x05
     24e:	10 e0       	ldi	r17, 0x00	; 0
     250:	fd d7       	rcall	.+4090   	; 0x124c <lfsr>
     252:	87 ff       	sbrs	r24, 7
     254:	03 c0       	rjmp	.+6      	; 0x25c <MakeFriends+0x162>
     256:	80 91 0c 38 	lds	r24, 0x380C	; 0x80380c <dimValue>
     25a:	01 c0       	rjmp	.+2      	; 0x25e <MakeFriends+0x164>
     25c:	80 e0       	ldi	r24, 0x00	; 0
     25e:	f8 01       	movw	r30, r16
     260:	ed 53       	subi	r30, 0x3D	; 61
     262:	f5 4c       	sbci	r31, 0xC5	; 197
     264:	80 83       	st	Z, r24
     266:	21 96       	adiw	r28, 0x01	; 1
                iLED[WING[R][x]] = (lfsr() > 127)?dimValue:0;
     268:	f7 01       	movw	r30, r14
     26a:	00 81       	ld	r16, Z
     26c:	10 e0       	ldi	r17, 0x00	; 0
     26e:	ee d7       	rcall	.+4060   	; 0x124c <lfsr>
     270:	87 ff       	sbrs	r24, 7
     272:	03 c0       	rjmp	.+6      	; 0x27a <MakeFriends+0x180>
     274:	80 91 0c 38 	lds	r24, 0x380C	; 0x80380c <dimValue>
     278:	01 c0       	rjmp	.+2      	; 0x27c <MakeFriends+0x182>
     27a:	80 e0       	ldi	r24, 0x00	; 0
     27c:	f8 01       	movw	r30, r16
     27e:	ed 53       	subi	r30, 0x3D	; 61
     280:	f5 4c       	sbci	r31, 0xC5	; 197
     282:	80 83       	st	Z, r24
        }

        //Wait for the other badge (and a bit longer)
        else if (progress == SECOND_LOVE){
            ++chkTmr;
            for (uint8_t x=0; x<5; ++x){
     284:	f0 ec       	ldi	r31, 0xC0	; 192
     286:	c7 3a       	cpi	r28, 0xA7	; 167
     288:	df 07       	cpc	r29, r31
     28a:	f9 f6       	brne	.-66     	; 0x24a <MakeFriends+0x150>
                iLED[WING[L][x]] = (lfsr() > 127)?dimValue:0;
                iLED[WING[R][x]] = (lfsr() > 127)?dimValue:0;
            }
            if (chkTmr >= SHORT_WAIT) {
     28c:	80 91 32 38 	lds	r24, 0x3832	; 0x803832 <chkTmr.3790>
     290:	88 30       	cpi	r24, 0x08	; 8
     292:	40 f0       	brcs	.+16     	; 0x2a4 <MakeFriends+0x1aa>
                setDAC[0] = floatAround(0x80, 8, 100, 255); 
     294:	2f ef       	ldi	r18, 0xFF	; 255
     296:	44 e6       	ldi	r20, 0x64	; 100
     298:	68 e0       	ldi	r22, 0x08	; 8
     29a:	80 e8       	ldi	r24, 0x80	; 128
     29c:	0e 94 77 09 	call	0x12ee	; 0x12ee <floatAround>
     2a0:	80 93 00 38 	sts	0x3800, r24	; 0x803800 <__data_start>
            }
            //The badge with the lowest voltage will now go to 2.5V (impedance check, for people tricking the things with a power supply)
            if (chkTmr >= LONG_WAIT){
     2a4:	80 91 32 38 	lds	r24, 0x3832	; 0x803832 <chkTmr.3790>
     2a8:	8a 3f       	cpi	r24, 0xFA	; 250
     2aa:	08 f4       	brcc	.+2      	; 0x2ae <MakeFriends+0x1b4>
     2ac:	58 c0       	rjmp	.+176    	; 0x35e <MakeFriends+0x264>
                candidate = jackIn-whoami;
     2ae:	90 91 3d 38 	lds	r25, 0x383D	; 0x80383d <whoami>
     2b2:	80 91 31 38 	lds	r24, 0x3831	; 0x803831 <jackIn.3791>
     2b6:	89 1b       	sub	r24, r25
     2b8:	80 93 30 38 	sts	0x3830, r24	; 0x803830 <__data_end>
                if (candidate > whoami) {
     2bc:	98 17       	cp	r25, r24
     2be:	10 f4       	brcc	.+4      	; 0x2c4 <MakeFriends+0x1ca>
                    setDAC[0] = 249;
     2c0:	89 ef       	ldi	r24, 0xF9	; 249
     2c2:	01 c0       	rjmp	.+2      	; 0x2c6 <MakeFriends+0x1cc>
                } else {
                    setDAC[0] = 1;
     2c4:	81 e0       	ldi	r24, 0x01	; 1
     2c6:	80 93 00 38 	sts	0x3800, r24	; 0x803800 <__data_start>
                }
                progress = THIRD_KISS;
     2ca:	83 e0       	ldi	r24, 0x03	; 3
     2cc:	80 93 33 38 	sts	0x3833, r24	; 0x803833 <progress.3788>
                chkTmr = 0;
     2d0:	10 92 32 38 	sts	0x3832, r1	; 0x803832 <chkTmr.3790>
     2d4:	44 c0       	rjmp	.+136    	; 0x35e <MakeFriends+0x264>
            }
        } 
        
        //Wait a bit, check Voltage again, if ok show who you connected with and your own number, save, exit
        else if (progress == THIRD_KISS) {
     2d6:	83 30       	cpi	r24, 0x03	; 3
     2d8:	f9 f4       	brne	.+62     	; 0x318 <MakeFriends+0x21e>
            chkTmr++;
     2da:	80 91 32 38 	lds	r24, 0x3832	; 0x803832 <chkTmr.3790>
     2de:	8f 5f       	subi	r24, 0xFF	; 255
     2e0:	80 93 32 38 	sts	0x3832, r24	; 0x803832 <chkTmr.3790>
            if (chkTmr >= SHORT_WAIT) {
     2e4:	88 30       	cpi	r24, 0x08	; 8
                jackIn = chkVolt250();
     2e6:	d8 f1       	brcs	.+118    	; 0x35e <MakeFriends+0x264>
     2e8:	f0 de       	rcall	.-544    	; 0xca <chkVolt250>
     2ea:	80 93 31 38 	sts	0x3831, r24	; 0x803831 <jackIn.3791>
                if (jackIn == 5) {
     2ee:	85 30       	cpi	r24, 0x05	; 5
     2f0:	09 f0       	breq	.+2      	; 0x2f4 <MakeFriends+0x1fa>
     2f2:	9b cf       	rjmp	.-202    	; 0x22a <MakeFriends+0x130>
                    UpdateState(99+candidate);
     2f4:	80 91 30 38 	lds	r24, 0x3830	; 0x803830 <__data_end>
     2f8:	8d 59       	subi	r24, 0x9D	; 157
     2fa:	0e 94 4a 0a 	call	0x1494	; 0x1494 <UpdateState>
                    UpdateState(99+whoami);
     2fe:	80 91 3d 38 	lds	r24, 0x383D	; 0x80383d <whoami>
     302:	8d 59       	subi	r24, 0x9D	; 157
     304:	0e 94 4a 0a 	call	0x1494	; 0x1494 <UpdateState>
                    WingBar(candidate, whoami);
     308:	60 91 3d 38 	lds	r22, 0x383D	; 0x80383d <whoami>
     30c:	80 91 30 38 	lds	r24, 0x3830	; 0x803830 <__data_end>
     310:	0e 94 2e 0b 	call	0x165c	; 0x165c <WingBar>
                    progress = FOURTH_BASE;
     314:	84 e0       	ldi	r24, 0x04	; 4
     316:	da cf       	rjmp	.-76     	; 0x2cc <MakeFriends+0x1d2>
                } else progress = NO_OTHER;                
                chkTmr = 0;
            }

        //Wait for quit
        } else if (progress == FOURTH_BASE) {
     318:	84 30       	cpi	r24, 0x04	; 4
     31a:	09 f5       	brne	.+66     	; 0x35e <MakeFriends+0x264>
            ++chkTmr;
     31c:	80 91 32 38 	lds	r24, 0x3832	; 0x803832 <chkTmr.3790>
     320:	8f 5f       	subi	r24, 0xFF	; 255
     322:	80 93 32 38 	sts	0x3832, r24	; 0x803832 <chkTmr.3790>
            if (chkTmr >= (SHORT_WAIT<<3)) {
     326:	80 34       	cpi	r24, 0x40	; 64
     328:	d0 f0       	brcs	.+52     	; 0x35e <MakeFriends+0x264>
     32a:	e2 ea       	ldi	r30, 0xA2	; 162
     32c:	f0 ec       	ldi	r31, 0xC0	; 192
     32e:	87 ea       	ldi	r24, 0xA7	; 167
     330:	90 ec       	ldi	r25, 0xC0	; 192
     332:	ef 01       	movw	r28, r30
                for (uint8_t x=0; x<5; ++x) {
                    iLED[WING[L][x]] = 0;
     334:	a5 81       	ldd	r26, Z+5	; 0x05
     336:	b0 e0       	ldi	r27, 0x00	; 0
     338:	ad 53       	subi	r26, 0x3D	; 61
     33a:	b5 4c       	sbci	r27, 0xC5	; 197
     33c:	1c 92       	st	X, r1
     33e:	31 96       	adiw	r30, 0x01	; 1
                    iLED[WING[R][x]] = 0;
     340:	a8 81       	ld	r26, Y
     342:	b0 e0       	ldi	r27, 0x00	; 0
     344:	ad 53       	subi	r26, 0x3D	; 61
     346:	b5 4c       	sbci	r27, 0xC5	; 197
     348:	1c 92       	st	X, r1

        //Wait for quit
        } else if (progress == FOURTH_BASE) {
            ++chkTmr;
            if (chkTmr >= (SHORT_WAIT<<3)) {
                for (uint8_t x=0; x<5; ++x) {
     34a:	8e 17       	cp	r24, r30
     34c:	9f 07       	cpc	r25, r31
     34e:	89 f7       	brne	.-30     	; 0x332 <MakeFriends+0x238>
                    iLED[WING[L][x]] = 0;
                    iLED[WING[R][x]] = 0;
                }                 
                progress = NO_OTHER;
     350:	10 92 33 38 	sts	0x3833, r1	; 0x803833 <progress.3788>
                gameNow = TEXT;
     354:	10 92 3c 38 	sts	0x383C, r1	; 0x80383c <gameNow>
     358:	02 c0       	rjmp	.+4      	; 0x35e <MakeFriends+0x264>
            }
        }

    } else {
        progress = NO_OTHER;
     35a:	10 92 33 38 	sts	0x3833, r1	; 0x803833 <progress.3788>
    }
      
    return 0;
}
     35e:	80 e0       	ldi	r24, 0x00	; 0
     360:	df 91       	pop	r29
     362:	cf 91       	pop	r28
     364:	1f 91       	pop	r17
     366:	0f 91       	pop	r16
     368:	ff 90       	pop	r15
     36a:	ef 90       	pop	r14
     36c:	08 95       	ret

0000036e <I2C_init>:
// the Atmel device documentation mentions a special command for repeated start TWI_MCMD_REPSTART_gc,
// but this is not used in Atmel's demo code, so we don't use it either

void I2C_rep_start(uint8_t shifted_addr)						    // send repeated start, device_addr + LSB set if READ
{
	TWI0.MADDR = shifted_addr;	
     36e:	81 e0       	ldi	r24, 0x01	; 1
     370:	80 93 22 04 	sts	0x0422, r24	; 0x800422 <__TEXT_REGION_LENGTH__+0x700422>
     374:	e6 e2       	ldi	r30, 0x26	; 38
     376:	f4 e0       	ldi	r31, 0x04	; 4
     378:	80 83       	st	Z, r24
     37a:	10 92 30 04 	sts	0x0430, r1	; 0x800430 <__TEXT_REGION_LENGTH__+0x700430>
     37e:	a1 e2       	ldi	r26, 0x21	; 33
     380:	b4 e0       	ldi	r27, 0x04	; 4
     382:	92 e0       	ldi	r25, 0x02	; 2
     384:	9c 93       	st	X, r25
     386:	90 83       	st	Z, r25
     388:	10 92 31 04 	sts	0x0431, r1	; 0x800431 <__TEXT_REGION_LENGTH__+0x700431>
     38c:	e0 e1       	ldi	r30, 0x10	; 16
     38e:	f8 e0       	ldi	r31, 0x08	; 8
     390:	97 e0       	ldi	r25, 0x07	; 7
     392:	96 83       	std	Z+6, r25	; 0x06
     394:	98 e0       	ldi	r25, 0x08	; 8
     396:	94 83       	std	Z+4, r25	; 0x04
     398:	83 83       	std	Z+3, r24	; 0x03
     39a:	8c 93       	st	X, r24
     39c:	85 81       	ldd	r24, Z+5	; 0x05
     39e:	81 60       	ori	r24, 0x01	; 1
     3a0:	85 83       	std	Z+5, r24	; 0x05
     3a2:	85 81       	ldd	r24, Z+5	; 0x05
     3a4:	84 6c       	ori	r24, 0xC4	; 196
     3a6:	85 83       	std	Z+5, r24	; 0x05
     3a8:	08 95       	ret

000003aa <I2C_recover>:
     3aa:	80 91 14 08 	lds	r24, 0x0814	; 0x800814 <__TEXT_REGION_LENGTH__+0x700814>
     3ae:	88 60       	ori	r24, 0x08	; 8
     3b0:	80 93 14 08 	sts	0x0814, r24	; 0x800814 <__TEXT_REGION_LENGTH__+0x700814>
     3b4:	10 92 13 08 	sts	0x0813, r1	; 0x800813 <__TEXT_REGION_LENGTH__+0x700813>
     3b8:	82 e0       	ldi	r24, 0x02	; 2
     3ba:	80 93 22 04 	sts	0x0422, r24	; 0x800422 <__TEXT_REGION_LENGTH__+0x700422>
     3be:	99 e0       	ldi	r25, 0x09	; 9
     3c0:	21 e0       	ldi	r18, 0x01	; 1
     3c2:	81 e0       	ldi	r24, 0x01	; 1
     3c4:	20 93 21 04 	sts	0x0421, r18	; 0x800421 <__TEXT_REGION_LENGTH__+0x700421>
     3c8:	30 e1       	ldi	r19, 0x10	; 16
     3ca:	3a 95       	dec	r19
     3cc:	f1 f7       	brne	.-4      	; 0x3ca <I2C_recover+0x20>
     3ce:	00 c0       	rjmp	.+0      	; 0x3d0 <I2C_recover+0x26>
     3d0:	20 93 22 04 	sts	0x0422, r18	; 0x800422 <__TEXT_REGION_LENGTH__+0x700422>
     3d4:	30 e1       	ldi	r19, 0x10	; 16
     3d6:	3a 95       	dec	r19
     3d8:	f1 f7       	brne	.-4      	; 0x3d6 <I2C_recover+0x2c>
     3da:	00 c0       	rjmp	.+0      	; 0x3dc <I2C_recover+0x32>
     3dc:	91 50       	subi	r25, 0x01	; 1
     3de:	89 f7       	brne	.-30     	; 0x3c2 <I2C_recover+0x18>
     3e0:	28 e0       	ldi	r18, 0x08	; 8
     3e2:	20 93 14 08 	sts	0x0814, r18	; 0x800814 <__TEXT_REGION_LENGTH__+0x700814>
     3e6:	80 93 13 08 	sts	0x0813, r24	; 0x800813 <__TEXT_REGION_LENGTH__+0x700813>
     3ea:	92 e0       	ldi	r25, 0x02	; 2
     3ec:	90 93 21 04 	sts	0x0421, r25	; 0x800421 <__TEXT_REGION_LENGTH__+0x700421>
     3f0:	90 91 15 08 	lds	r25, 0x0815	; 0x800815 <__TEXT_REGION_LENGTH__+0x700815>
     3f4:	91 60       	ori	r25, 0x01	; 1
     3f6:	90 93 15 08 	sts	0x0815, r25	; 0x800815 <__TEXT_REGION_LENGTH__+0x700815>
     3fa:	90 91 15 08 	lds	r25, 0x0815	; 0x800815 <__TEXT_REGION_LENGTH__+0x700815>
     3fe:	94 6c       	ori	r25, 0xC4	; 196
     400:	90 93 15 08 	sts	0x0815, r25	; 0x800815 <__TEXT_REGION_LENGTH__+0x700815>
     404:	20 93 14 08 	sts	0x0814, r18	; 0x800814 <__TEXT_REGION_LENGTH__+0x700814>
     408:	80 93 13 08 	sts	0x0813, r24	; 0x800813 <__TEXT_REGION_LENGTH__+0x700813>
     40c:	80 93 21 04 	sts	0x0421, r24	; 0x800421 <__TEXT_REGION_LENGTH__+0x700421>
     410:	80 91 15 08 	lds	r24, 0x0815	; 0x800815 <__TEXT_REGION_LENGTH__+0x700815>
     414:	81 60       	ori	r24, 0x01	; 1
     416:	80 93 15 08 	sts	0x0815, r24	; 0x800815 <__TEXT_REGION_LENGTH__+0x700815>
     41a:	80 91 15 08 	lds	r24, 0x0815	; 0x800815 <__TEXT_REGION_LENGTH__+0x700815>
     41e:	84 6c       	ori	r24, 0xC4	; 196
     420:	80 93 15 08 	sts	0x0815, r24	; 0x800815 <__TEXT_REGION_LENGTH__+0x700815>
     424:	08 95       	ret

00000426 <I2C_start>:
     426:	28 2f       	mov	r18, r24
     428:	90 91 15 08 	lds	r25, 0x0815	; 0x800815 <__TEXT_REGION_LENGTH__+0x700815>
     42c:	90 6c       	ori	r25, 0xC0	; 192
     42e:	90 93 15 08 	sts	0x0815, r25	; 0x800815 <__TEXT_REGION_LENGTH__+0x700815>
     432:	90 91 15 08 	lds	r25, 0x0815	; 0x800815 <__TEXT_REGION_LENGTH__+0x700815>
     436:	89 2f       	mov	r24, r25
     438:	84 70       	andi	r24, 0x04	; 4
     43a:	92 fd       	sbrc	r25, 2
     43c:	03 c0       	rjmp	.+6      	; 0x444 <I2C_start+0x1e>
     43e:	20 93 17 08 	sts	0x0817, r18	; 0x800817 <__TEXT_REGION_LENGTH__+0x700817>
     442:	08 95       	ret
     444:	84 e0       	ldi	r24, 0x04	; 4
     446:	08 95       	ret

00000448 <I2C_wait_ACK>:
     448:	8c e0       	ldi	r24, 0x0C	; 12
     44a:	80 93 60 3a 	sts	0x3A60, r24	; 0x803a60 <timeout_I2C>
     44e:	80 91 15 08 	lds	r24, 0x0815	; 0x800815 <__TEXT_REGION_LENGTH__+0x700815>
     452:	87 fd       	sbrc	r24, 7
     454:	0a c0       	rjmp	.+20     	; 0x46a <I2C_wait_ACK+0x22>
     456:	80 91 15 08 	lds	r24, 0x0815	; 0x800815 <__TEXT_REGION_LENGTH__+0x700815>
     45a:	86 fd       	sbrc	r24, 6
     45c:	06 c0       	rjmp	.+12     	; 0x46a <I2C_wait_ACK+0x22>
     45e:	80 91 60 3a 	lds	r24, 0x3A60	; 0x803a60 <timeout_I2C>
     462:	81 11       	cpse	r24, r1
     464:	f4 cf       	rjmp	.-24     	; 0x44e <I2C_wait_ACK+0x6>
     466:	8f ef       	ldi	r24, 0xFF	; 255
     468:	08 95       	ret
     46a:	80 91 15 08 	lds	r24, 0x0815	; 0x800815 <__TEXT_REGION_LENGTH__+0x700815>
     46e:	80 6c       	ori	r24, 0xC0	; 192
     470:	80 93 15 08 	sts	0x0815, r24	; 0x800815 <__TEXT_REGION_LENGTH__+0x700815>
     474:	80 91 15 08 	lds	r24, 0x0815	; 0x800815 <__TEXT_REGION_LENGTH__+0x700815>
     478:	82 fd       	sbrc	r24, 2
     47a:	09 c0       	rjmp	.+18     	; 0x48e <I2C_wait_ACK+0x46>
     47c:	80 91 15 08 	lds	r24, 0x0815	; 0x800815 <__TEXT_REGION_LENGTH__+0x700815>
     480:	83 fd       	sbrc	r24, 3
     482:	07 c0       	rjmp	.+14     	; 0x492 <I2C_wait_ACK+0x4a>
     484:	80 91 15 08 	lds	r24, 0x0815	; 0x800815 <__TEXT_REGION_LENGTH__+0x700815>
     488:	82 95       	swap	r24
     48a:	81 70       	andi	r24, 0x01	; 1
     48c:	08 95       	ret
     48e:	84 e0       	ldi	r24, 0x04	; 4
     490:	08 95       	ret
     492:	82 e0       	ldi	r24, 0x02	; 2
     494:	08 95       	ret

00000496 <I2C_read>:
}

uint8_t	I2C_read(uint8_t *data, uint8_t ack_flag)					// read data, ack_flag 0: send ACK, 1: send NACK, returns status
{
     496:	fc 01       	movw	r30, r24
	timeout_I2C = READ_TIMEOUT;										// reset timeout counter, will be decremented by LED matrix interrupt
     498:	8c e0       	ldi	r24, 0x0C	; 12
     49a:	80 93 60 3a 	sts	0x3A60, r24	; 0x803a60 <timeout_I2C>
	if ((TWI0.MSTATUS & TWI_BUSSTATE_gm) == TWI_BUSSTATE_OWNER_gc)	// if master controls bus
     49e:	90 91 15 08 	lds	r25, 0x0815	; 0x800815 <__TEXT_REGION_LENGTH__+0x700815>
     4a2:	89 2f       	mov	r24, r25
     4a4:	83 70       	andi	r24, 0x03	; 3
     4a6:	82 30       	cpi	r24, 0x02	; 2
     4a8:	11 f0       	breq	.+4      	; 0x4ae <I2C_read+0x18>
		else		TWI0.MCTRLB |= TWI_ACKACT_NACK_gc;				// setup NACK (last byte read)
		*data = TWI0.MDATA;
		if (ack_flag == 0) TWI0.MCTRLB |= TWI_MCMD_RECVTRANS_gc;	// send ACK, more bytes to follow					
		return 0;
	}
	else return 8;													// master does not control bus
     4aa:	88 e0       	ldi	r24, 0x08	; 8
     4ac:	08 95       	ret
uint8_t	I2C_read(uint8_t *data, uint8_t ack_flag)					// read data, ack_flag 0: send ACK, 1: send NACK, returns status
{
	timeout_I2C = READ_TIMEOUT;										// reset timeout counter, will be decremented by LED matrix interrupt
	if ((TWI0.MSTATUS & TWI_BUSSTATE_gm) == TWI_BUSSTATE_OWNER_gc)	// if master controls bus
	{		
		while (!(TWI0.MSTATUS & TWI_RIF_bm))						// wait for RIF set (data byte received)
     4ae:	90 91 15 08 	lds	r25, 0x0815	; 0x800815 <__TEXT_REGION_LENGTH__+0x700815>
     4b2:	97 fd       	sbrc	r25, 7
     4b4:	06 c0       	rjmp	.+12     	; 0x4c2 <I2C_read+0x2c>
		{
			if (!(timeout_I2C)) return 0xff;			            // return timeout error
     4b6:	90 91 60 3a 	lds	r25, 0x3A60	; 0x803a60 <timeout_I2C>
     4ba:	91 11       	cpse	r25, r1
     4bc:	f8 cf       	rjmp	.-16     	; 0x4ae <I2C_read+0x18>
     4be:	8f ef       	ldi	r24, 0xFF	; 255
     4c0:	08 95       	ret
		}
		TWI0.MSTATUS |= (TWI_RIF_bm | TWI_WIF_bm);					// clear Read and Write interrupt flags	
     4c2:	90 91 15 08 	lds	r25, 0x0815	; 0x800815 <__TEXT_REGION_LENGTH__+0x700815>
     4c6:	90 6c       	ori	r25, 0xC0	; 192
     4c8:	90 93 15 08 	sts	0x0815, r25	; 0x800815 <__TEXT_REGION_LENGTH__+0x700815>
		if (TWI0.MSTATUS & TWI_BUSERR_bm) return 4;					// Bus Error, abort
     4cc:	90 91 15 08 	lds	r25, 0x0815	; 0x800815 <__TEXT_REGION_LENGTH__+0x700815>
     4d0:	92 fd       	sbrc	r25, 2
     4d2:	1e c0       	rjmp	.+60     	; 0x510 <I2C_read+0x7a>
		if (TWI0.MSTATUS & TWI_ARBLOST_bm) return 2;				// Arbitration Lost, abort
     4d4:	90 91 15 08 	lds	r25, 0x0815	; 0x800815 <__TEXT_REGION_LENGTH__+0x700815>
     4d8:	93 fd       	sbrc	r25, 3
     4da:	1d c0       	rjmp	.+58     	; 0x516 <I2C_read+0x80>
		if (TWI0.MSTATUS & TWI_RXACK_bm) return 1;					// Slave replied with NACK, abort				
     4dc:	90 91 15 08 	lds	r25, 0x0815	; 0x800815 <__TEXT_REGION_LENGTH__+0x700815>
     4e0:	89 2f       	mov	r24, r25
     4e2:	80 71       	andi	r24, 0x10	; 16
     4e4:	94 fd       	sbrc	r25, 4
     4e6:	16 c0       	rjmp	.+44     	; 0x514 <I2C_read+0x7e>
		if (ack_flag == 0) TWI0.MCTRLB &= ~(1 << TWI_ACKACT_bp);	// setup ACK
     4e8:	90 91 14 08 	lds	r25, 0x0814	; 0x800814 <__TEXT_REGION_LENGTH__+0x700814>
     4ec:	61 11       	cpse	r22, r1
     4ee:	02 c0       	rjmp	.+4      	; 0x4f4 <I2C_read+0x5e>
     4f0:	9b 7f       	andi	r25, 0xFB	; 251
     4f2:	01 c0       	rjmp	.+2      	; 0x4f6 <I2C_read+0x60>
		else		TWI0.MCTRLB |= TWI_ACKACT_NACK_gc;				// setup NACK (last byte read)
     4f4:	94 60       	ori	r25, 0x04	; 4
     4f6:	90 93 14 08 	sts	0x0814, r25	; 0x800814 <__TEXT_REGION_LENGTH__+0x700814>
		*data = TWI0.MDATA;
     4fa:	90 91 18 08 	lds	r25, 0x0818	; 0x800818 <__TEXT_REGION_LENGTH__+0x700818>
     4fe:	90 83       	st	Z, r25
		if (ack_flag == 0) TWI0.MCTRLB |= TWI_MCMD_RECVTRANS_gc;	// send ACK, more bytes to follow					
     500:	61 11       	cpse	r22, r1
     502:	09 c0       	rjmp	.+18     	; 0x516 <I2C_read+0x80>
     504:	90 91 14 08 	lds	r25, 0x0814	; 0x800814 <__TEXT_REGION_LENGTH__+0x700814>
     508:	92 60       	ori	r25, 0x02	; 2
     50a:	90 93 14 08 	sts	0x0814, r25	; 0x800814 <__TEXT_REGION_LENGTH__+0x700814>
     50e:	08 95       	ret
		while (!(TWI0.MSTATUS & TWI_RIF_bm))						// wait for RIF set (data byte received)
		{
			if (!(timeout_I2C)) return 0xff;			            // return timeout error
		}
		TWI0.MSTATUS |= (TWI_RIF_bm | TWI_WIF_bm);					// clear Read and Write interrupt flags	
		if (TWI0.MSTATUS & TWI_BUSERR_bm) return 4;					// Bus Error, abort
     510:	84 e0       	ldi	r24, 0x04	; 4
     512:	08 95       	ret
		if (TWI0.MSTATUS & TWI_ARBLOST_bm) return 2;				// Arbitration Lost, abort
		if (TWI0.MSTATUS & TWI_RXACK_bm) return 1;					// Slave replied with NACK, abort				
     514:	81 e0       	ldi	r24, 0x01	; 1
		*data = TWI0.MDATA;
		if (ack_flag == 0) TWI0.MCTRLB |= TWI_MCMD_RECVTRANS_gc;	// send ACK, more bytes to follow					
		return 0;
	}
	else return 8;													// master does not control bus
}
     516:	08 95       	ret

00000518 <I2C_write>:

uint8_t I2C_write(uint8_t *data)									// write data, return status
{
     518:	fc 01       	movw	r30, r24
	timeout_I2C = WRITE_TIMEOUT;									// reset timeout counter, will be decremented by LED matrix interrupt
     51a:	8c e0       	ldi	r24, 0x0C	; 12
     51c:	80 93 60 3a 	sts	0x3A60, r24	; 0x803a60 <timeout_I2C>
	if ((TWI0.MSTATUS & TWI_BUSSTATE_gm) == TWI_BUSSTATE_OWNER_gc)	// if master controls bus
     520:	90 91 15 08 	lds	r25, 0x0815	; 0x800815 <__TEXT_REGION_LENGTH__+0x700815>
     524:	93 70       	andi	r25, 0x03	; 3
     526:	92 30       	cpi	r25, 0x02	; 2
     528:	b1 f4       	brne	.+44     	; 0x556 <I2C_write+0x3e>
	{
		TWI0.MDATA = *data;		
     52a:	80 81       	ld	r24, Z
     52c:	80 93 18 08 	sts	0x0818, r24	; 0x800818 <__TEXT_REGION_LENGTH__+0x700818>
		while (!(TWI0.MSTATUS & TWI_WIF_bm))						// wait until WIF set, status register contains ACK/NACK bit
     530:	80 91 15 08 	lds	r24, 0x0815	; 0x800815 <__TEXT_REGION_LENGTH__+0x700815>
     534:	86 fd       	sbrc	r24, 6
     536:	06 c0       	rjmp	.+12     	; 0x544 <I2C_write+0x2c>
		{
			if (!(timeout_I2C)) return 0xff;			            // return timeout error
     538:	80 91 60 3a 	lds	r24, 0x3A60	; 0x803a60 <timeout_I2C>
     53c:	81 11       	cpse	r24, r1
     53e:	f8 cf       	rjmp	.-16     	; 0x530 <I2C_write+0x18>
     540:	8f ef       	ldi	r24, 0xFF	; 255
     542:	08 95       	ret
		}
		if (TWI0.MSTATUS & TWI_BUSERR_bm) return 4;					// Bus Error, abort
     544:	80 91 15 08 	lds	r24, 0x0815	; 0x800815 <__TEXT_REGION_LENGTH__+0x700815>
     548:	82 fd       	sbrc	r24, 2
     54a:	07 c0       	rjmp	.+14     	; 0x55a <I2C_write+0x42>
		if (TWI0.MSTATUS & TWI_RXACK_bm) return 1;					// Slave replied with NACK, abort
     54c:	80 91 15 08 	lds	r24, 0x0815	; 0x800815 <__TEXT_REGION_LENGTH__+0x700815>
	if ((TWI0.MSTATUS & TWI_BUSSTATE_gm) == TWI_BUSSTATE_OWNER_gc)	// if master controls bus
	{
		TWI0.MDATA = *data;		
		while (!(TWI0.MSTATUS & TWI_WIF_bm))						// wait until WIF set, status register contains ACK/NACK bit
		{
			if (!(timeout_I2C)) return 0xff;			            // return timeout error
     550:	82 95       	swap	r24
     552:	81 70       	andi	r24, 0x01	; 1
     554:	08 95       	ret
		}
		if (TWI0.MSTATUS & TWI_BUSERR_bm) return 4;					// Bus Error, abort
		if (TWI0.MSTATUS & TWI_RXACK_bm) return 1;					// Slave replied with NACK, abort
		return 0;													// no error	
	}
	else return 8;													// master does not control bus
     556:	88 e0       	ldi	r24, 0x08	; 8
     558:	08 95       	ret
		TWI0.MDATA = *data;		
		while (!(TWI0.MSTATUS & TWI_WIF_bm))						// wait until WIF set, status register contains ACK/NACK bit
		{
			if (!(timeout_I2C)) return 0xff;			            // return timeout error
		}
		if (TWI0.MSTATUS & TWI_BUSERR_bm) return 4;					// Bus Error, abort
     55a:	84 e0       	ldi	r24, 0x04	; 4
		if (TWI0.MSTATUS & TWI_RXACK_bm) return 1;					// Slave replied with NACK, abort
		return 0;													// no error	
	}
	else return 8;													// master does not control bus
}
     55c:	08 95       	ret

0000055e <I2C_stop>:

void I2C_stop()
{
	TWI0.MCTRLB |= TWI_MCMD_STOP_gc;
     55e:	e0 e1       	ldi	r30, 0x10	; 16
     560:	f8 e0       	ldi	r31, 0x08	; 8
     562:	84 81       	ldd	r24, Z+4	; 0x04
     564:	83 60       	ori	r24, 0x03	; 3
     566:	84 83       	std	Z+4, r24	; 0x04
     568:	08 95       	ret

0000056a <I2C_read_bytes>:
// addr_ptr		address of first array element to transfer
// slave reg	starting slave register
// num_bytes	number of bytes to transfer

uint8_t	I2C_read_bytes(uint8_t slave_addr, uint8_t *reg_ptr, uint8_t reg_len, uint8_t *dat_ptr, uint8_t dat_len)
{
     56a:	cf 92       	push	r12
     56c:	df 92       	push	r13
     56e:	ff 92       	push	r15
     570:	0f 93       	push	r16
     572:	1f 93       	push	r17
     574:	cf 93       	push	r28
     576:	df 93       	push	r29
     578:	6b 01       	movw	r12, r22
     57a:	f4 2e       	mov	r15, r20
     57c:	e9 01       	movw	r28, r18
	uint8_t status;
	if (dat_len > MAX_LEN) dat_len = MAX_LEN;
	status = I2C_start(slave_addr << 1);							// slave write address, LSB 0
     57e:	18 2f       	mov	r17, r24
     580:	11 0f       	add	r17, r17
     582:	81 2f       	mov	r24, r17
     584:	50 df       	rcall	.-352    	; 0x426 <I2C_start>
	if (status != 0) goto error;
     586:	81 11       	cpse	r24, r1
	status = I2C_wait_ACK();										// wait for slave ACK
     588:	2b c0       	rjmp	.+86     	; 0x5e0 <I2C_read_bytes+0x76>
     58a:	5e df       	rcall	.-324    	; 0x448 <I2C_wait_ACK>
	if (status == 1) {
     58c:	81 30       	cpi	r24, 0x01	; 1
		I2C_stop();													// NACK, abort
     58e:	19 f4       	brne	.+6      	; 0x596 <I2C_read_bytes+0x2c>
     590:	e6 df       	rcall	.-52     	; 0x55e <I2C_stop>
		return 1;
     592:	81 e0       	ldi	r24, 0x01	; 1
     594:	27 c0       	rjmp	.+78     	; 0x5e4 <I2C_read_bytes+0x7a>
	}
	if (status != 0) goto error;
     596:	81 11       	cpse	r24, r1
     598:	23 c0       	rjmp	.+70     	; 0x5e0 <I2C_read_bytes+0x76>
    while(reg_len > 0){
     59a:	ff 20       	and	r15, r15
	    status = I2C_write(reg_ptr);    							// send slave start register
     59c:	49 f0       	breq	.+18     	; 0x5b0 <I2C_read_bytes+0x46>
     59e:	c6 01       	movw	r24, r12
     5a0:	bb df       	rcall	.-138    	; 0x518 <I2C_write>
	    if (status != 0) goto error;
     5a2:	81 11       	cpse	r24, r1
     5a4:	1d c0       	rjmp	.+58     	; 0x5e0 <I2C_read_bytes+0x76>
        ++reg_ptr;
     5a6:	8f ef       	ldi	r24, 0xFF	; 255
     5a8:	c8 1a       	sub	r12, r24
     5aa:	d8 0a       	sbc	r13, r24
        --reg_len;
     5ac:	fa 94       	dec	r15
     5ae:	f5 cf       	rjmp	.-22     	; 0x59a <I2C_read_bytes+0x30>
     5b0:	01 34       	cpi	r16, 0x41	; 65
     5b2:	08 f0       	brcs	.+2      	; 0x5b6 <I2C_read_bytes+0x4c>
     5b4:	00 e4       	ldi	r16, 0x40	; 64
    }
	I2C_rep_start((slave_addr << 1) + 1);							// slave read address, LSB 1
     5b6:	1f 5f       	subi	r17, 0xFF	; 255
// the Atmel device documentation mentions a special command for repeated start TWI_MCMD_REPSTART_gc,
// but this is not used in Atmel's demo code, so we don't use it either

void I2C_rep_start(uint8_t shifted_addr)						    // send repeated start, device_addr + LSB set if READ
{
	TWI0.MADDR = shifted_addr;	
     5b8:	10 93 17 08 	sts	0x0817, r17	; 0x800817 <__TEXT_REGION_LENGTH__+0x700817>
	    if (status != 0) goto error;
        ++reg_ptr;
        --reg_len;
    }
	I2C_rep_start((slave_addr << 1) + 1);							// slave read address, LSB 1
	while (dat_len > 1) {
     5bc:	02 30       	cpi	r16, 0x02	; 2
		status = I2C_read(dat_ptr, 0);								// first bytes, send ACK
     5be:	40 f0       	brcs	.+16     	; 0x5d0 <I2C_read_bytes+0x66>
     5c0:	60 e0       	ldi	r22, 0x00	; 0
     5c2:	ce 01       	movw	r24, r28
     5c4:	68 df       	rcall	.-304    	; 0x496 <I2C_read>
		if (status != 0) goto error;
     5c6:	81 11       	cpse	r24, r1
     5c8:	0b c0       	rjmp	.+22     	; 0x5e0 <I2C_read_bytes+0x76>
		++dat_ptr;
		--dat_len;
     5ca:	21 96       	adiw	r28, 0x01	; 1
     5cc:	01 50       	subi	r16, 0x01	; 1
	}
	status = I2C_read(dat_ptr, 1);									// single or last byte, send NACK
     5ce:	f6 cf       	rjmp	.-20     	; 0x5bc <I2C_read_bytes+0x52>
     5d0:	61 e0       	ldi	r22, 0x01	; 1
     5d2:	ce 01       	movw	r24, r28
	if (status != 0) goto error;
     5d4:	60 df       	rcall	.-320    	; 0x496 <I2C_read>
     5d6:	81 11       	cpse	r24, r1
	I2C_stop();
     5d8:	03 c0       	rjmp	.+6      	; 0x5e0 <I2C_read_bytes+0x76>
     5da:	c1 df       	rcall	.-126    	; 0x55e <I2C_stop>
	return 0;
     5dc:	80 e0       	ldi	r24, 0x00	; 0
     5de:	02 c0       	rjmp	.+4      	; 0x5e4 <I2C_read_bytes+0x7a>
	
error:
	I2C_recover();													// clock out possibly stuck slave, reset master
     5e0:	e4 de       	rcall	.-568    	; 0x3aa <I2C_recover>
     5e2:	8f ef       	ldi	r24, 0xFF	; 255
	return 0xff;													// flag error
     5e4:	df 91       	pop	r29
}
     5e6:	cf 91       	pop	r28
     5e8:	1f 91       	pop	r17
     5ea:	0f 91       	pop	r16
     5ec:	ff 90       	pop	r15
     5ee:	df 90       	pop	r13
     5f0:	cf 90       	pop	r12
     5f2:	08 95       	ret

000005f4 <initLanyard>:
uint8_t         lanyardCnt = 0;
uint8_t         lanyardState = TRUE;
uint16_t        lanyardLastActive = 0;

void initLanyard() {
    lanyardPos      = 0;
     5f4:	10 92 37 38 	sts	0x3837, r1	; 0x803837 <lanyardPos>
    lanyardCnt      = 0;
     5f8:	10 92 36 38 	sts	0x3836, r1	; 0x803836 <lanyardCnt>
    lanyardState    = TRUE;
     5fc:	81 e0       	ldi	r24, 0x01	; 1
     5fe:	80 93 02 38 	sts	0x3802, r24	; 0x803802 <lanyardState>
    ClearHackerLeds();
     602:	0c 94 6c 0b 	jmp	0x16d8	; 0x16d8 <ClearHackerLeds>

00000606 <LanyardCode>:
}

// Main game loop
uint8_t LanyardCode(){
     606:	cf 93       	push	r28
    if (gameNow == LANYARD && idleTimeout(lanyardLastActive,LANYARD_MAX_IDLE)) {
     608:	80 91 3c 38 	lds	r24, 0x383C	; 0x80383c <gameNow>
     60c:	83 30       	cpi	r24, 0x03	; 3
     60e:	91 f4       	brne	.+36     	; 0x634 <LanyardCode+0x2e>
     610:	6a e0       	ldi	r22, 0x0A	; 10
     612:	70 e0       	ldi	r23, 0x00	; 0
     614:	80 91 34 38 	lds	r24, 0x3834	; 0x803834 <lanyardLastActive>
     618:	90 91 35 38 	lds	r25, 0x3835	; 0x803835 <lanyardLastActive+0x1>
     61c:	0e 94 26 0e 	call	0x1c4c	; 0x1c4c <idleTimeout>
     620:	88 23       	and	r24, r24
     622:	41 f0       	breq	.+16     	; 0x634 <LanyardCode+0x2e>
        /* clean up maze game and go back to text game */
        initLanyard();
     624:	e7 df       	rcall	.-50     	; 0x5f4 <initLanyard>
        gameNow = TEXT;
     626:	10 92 3c 38 	sts	0x383C, r1	; 0x80383c <gameNow>
        effect = 0;
     62a:	10 92 3a 38 	sts	0x383A, r1	; 0x80383a <effect>
     62e:	10 92 3b 38 	sts	0x383B, r1	; 0x80383b <effect+0x1>
        return 0;
     632:	9b c0       	rjmp	.+310    	; 0x76a <LanyardCode+0x164>
    }

    if (CheckState(LANYARD_COMPLETED))
     634:	8b e7       	ldi	r24, 0x7B	; 123
     636:	38 d7       	rcall	.+3696   	; 0x14a8 <CheckState>
     638:	81 11       	cpse	r24, r1
     63a:	97 c0       	rjmp	.+302    	; 0x76a <LanyardCode+0x164>
        return 0;

    if ( gameNow != TEXT && gameNow != LANYARD )
     63c:	80 91 3c 38 	lds	r24, 0x383C	; 0x80383c <gameNow>
     640:	88 23       	and	r24, r24
     642:	19 f0       	breq	.+6      	; 0x64a <LanyardCode+0x44>
     644:	83 30       	cpi	r24, 0x03	; 3
     646:	09 f0       	breq	.+2      	; 0x64a <LanyardCode+0x44>
     648:	90 c0       	rjmp	.+288    	; 0x76a <LanyardCode+0x164>
        return 0;

    /* activate led for buttonstate */
    iLED[CAT] = (buttonState==0xff ? 0 : dimValue);
     64a:	c0 91 9e c0 	lds	r28, 0xC09E	; 0x80c09e <__bss_end+0x858c>
     64e:	ec 2f       	mov	r30, r28
     650:	f0 e0       	ldi	r31, 0x00	; 0
     652:	80 91 08 38 	lds	r24, 0x3808	; 0x803808 <buttonState>
     656:	8f 3f       	cpi	r24, 0xFF	; 255
     658:	19 f0       	breq	.+6      	; 0x660 <LanyardCode+0x5a>
     65a:	90 91 0c 38 	lds	r25, 0x380C	; 0x80380c <dimValue>
     65e:	01 c0       	rjmp	.+2      	; 0x662 <LanyardCode+0x5c>
     660:	90 e0       	ldi	r25, 0x00	; 0
     662:	ed 53       	subi	r30, 0x3D	; 61
     664:	f5 4c       	sbci	r31, 0xC5	; 197
     666:	90 83       	st	Z, r25

    if (buttonState == 0xff)
     668:	8f 3f       	cpi	r24, 0xFF	; 255
     66a:	09 f4       	brne	.+2      	; 0x66e <LanyardCode+0x68>
     66c:	7e c0       	rjmp	.+252    	; 0x76a <LanyardCode+0x164>
        return 0;

    if (buttonState == lastButtonState)
     66e:	90 91 07 38 	lds	r25, 0x3807	; 0x803807 <lastButtonState>
     672:	89 17       	cp	r24, r25
     674:	09 f4       	brne	.+2      	; 0x678 <LanyardCode+0x72>
     676:	79 c0       	rjmp	.+242    	; 0x76a <LanyardCode+0x164>
        return 0;

    lanyardLastActive = getClock();
     678:	0e 94 17 0e 	call	0x1c2e	; 0x1c2e <getClock>
     67c:	80 93 34 38 	sts	0x3834, r24	; 0x803834 <lanyardLastActive>
     680:	90 93 35 38 	sts	0x3835, r25	; 0x803835 <lanyardLastActive+0x1>

    if (lastButtonState == 0xff){
     684:	80 91 07 38 	lds	r24, 0x3807	; 0x803807 <lastButtonState>
     688:	8f 3f       	cpi	r24, 0xFF	; 255
     68a:	09 f0       	breq	.+2      	; 0x68e <LanyardCode+0x88>
     68c:	6e c0       	rjmp	.+220    	; 0x76a <LanyardCode+0x164>
        effect = 0x13f + (buttonState << 5);
     68e:	80 91 08 38 	lds	r24, 0x3808	; 0x803808 <buttonState>
     692:	20 e2       	ldi	r18, 0x20	; 32
     694:	82 9f       	mul	r24, r18
     696:	c0 01       	movw	r24, r0
     698:	11 24       	eor	r1, r1
     69a:	81 5c       	subi	r24, 0xC1	; 193
     69c:	9e 4f       	sbci	r25, 0xFE	; 254
     69e:	80 93 3a 38 	sts	0x383A, r24	; 0x80383a <effect>
     6a2:	90 93 3b 38 	sts	0x383B, r25	; 0x80383b <effect+0x1>

        if (gameNow != LANYARD)
     6a6:	80 91 3c 38 	lds	r24, 0x383C	; 0x80383c <gameNow>
     6aa:	83 30       	cpi	r24, 0x03	; 3
            initLanyard();
     6ac:	09 f0       	breq	.+2      	; 0x6b0 <LanyardCode+0xaa>
     6ae:	a2 df       	rcall	.-188    	; 0x5f4 <initLanyard>
        gameNow = LANYARD;
     6b0:	83 e0       	ldi	r24, 0x03	; 3
     6b2:	80 93 3c 38 	sts	0x383C, r24	; 0x80383c <gameNow>

        if (buttonState == lanyardCode[lanyardPos]) {
     6b6:	80 91 37 38 	lds	r24, 0x3837	; 0x803837 <lanyardPos>
     6ba:	e8 2f       	mov	r30, r24
     6bc:	f0 e0       	ldi	r31, 0x00	; 0
     6be:	ea 57       	subi	r30, 0x7A	; 122
     6c0:	ff 43       	sbci	r31, 0x3F	; 63
     6c2:	20 81       	ld	r18, Z
     6c4:	90 91 08 38 	lds	r25, 0x3808	; 0x803808 <buttonState>
     6c8:	29 13       	cpse	r18, r25
     6ca:	12 c0       	rjmp	.+36     	; 0x6f0 <LanyardCode+0xea>
            lanyardState &= TRUE;
     6cc:	90 91 02 38 	lds	r25, 0x3802	; 0x803802 <lanyardState>
     6d0:	91 70       	andi	r25, 0x01	; 1
     6d2:	90 93 02 38 	sts	0x3802, r25	; 0x803802 <lanyardState>
            iLED[EYE[R][L]] = 0;
     6d6:	e0 91 ad c0 	lds	r30, 0xC0AD	; 0x80c0ad <__bss_end+0x859b>
     6da:	f0 e0       	ldi	r31, 0x00	; 0
     6dc:	ed 53       	subi	r30, 0x3D	; 61
     6de:	f5 4c       	sbci	r31, 0xC5	; 197
     6e0:	10 82       	st	Z, r1
            iLED[EYE[R][R]] = 0;
     6e2:	e0 91 ac c0 	lds	r30, 0xC0AC	; 0x80c0ac <__bss_end+0x859a>
     6e6:	f0 e0       	ldi	r31, 0x00	; 0
     6e8:	ed 53       	subi	r30, 0x3D	; 61
     6ea:	f5 4c       	sbci	r31, 0xC5	; 197
     6ec:	10 82       	st	Z, r1
     6ee:	09 c0       	rjmp	.+18     	; 0x702 <LanyardCode+0xfc>
        } else {
            lanyardState = FALSE;
     6f0:	10 92 02 38 	sts	0x3802, r1	; 0x803802 <lanyardState>
            if (lanyardPos < 4 ) {
     6f4:	84 30       	cpi	r24, 0x04	; 4
                initLanyard();
     6f6:	28 f4       	brcc	.+10     	; 0x702 <LanyardCode+0xfc>
     6f8:	7d df       	rcall	.-262    	; 0x5f4 <initLanyard>
                gameNow         = BASTET;
     6fa:	82 e0       	ldi	r24, 0x02	; 2
     6fc:	80 93 3c 38 	sts	0x383C, r24	; 0x80383c <gameNow>
                return 0;
     700:	34 c0       	rjmp	.+104    	; 0x76a <LanyardCode+0x164>
            }
        }
        lanyardPos++;
     702:	8f 5f       	subi	r24, 0xFF	; 255
     704:	80 93 37 38 	sts	0x3837, r24	; 0x803837 <lanyardPos>
        lanyardCnt++;            
     708:	90 91 36 38 	lds	r25, 0x3836	; 0x803836 <lanyardCnt>
     70c:	9f 5f       	subi	r25, 0xFF	; 255
        if (lanyardCnt >= 4) {
     70e:	94 30       	cpi	r25, 0x04	; 4
     710:	18 f4       	brcc	.+6      	; 0x718 <LanyardCode+0x112>
                gameNow         = BASTET;
                return 0;
            }
        }
        lanyardPos++;
        lanyardCnt++;            
     712:	90 93 36 38 	sts	0x3836, r25	; 0x803836 <lanyardCnt>
     716:	29 c0       	rjmp	.+82     	; 0x76a <LanyardCode+0x164>
        if (lanyardCnt >= 4) {
            lanyardCnt = 0;
     718:	10 92 36 38 	sts	0x3836, r1	; 0x803836 <lanyardCnt>
            if (lanyardState == TRUE) {
     71c:	90 91 02 38 	lds	r25, 0x3802	; 0x803802 <lanyardState>
     720:	91 30       	cpi	r25, 0x01	; 1
     722:	e1 f4       	brne	.+56     	; 0x75c <LanyardCode+0x156>
                if ((lanyardPos % 4) == 0) {
     724:	98 2f       	mov	r25, r24
     726:	93 70       	andi	r25, 0x03	; 3
     728:	69 f4       	brne	.+26     	; 0x744 <LanyardCode+0x13e>
                    iLED[HCKR[G][(lanyardPos>>2)-1]] = dimValue;
     72a:	e8 2f       	mov	r30, r24
     72c:	e6 95       	lsr	r30
     72e:	e6 95       	lsr	r30
     730:	f0 e0       	ldi	r31, 0x00	; 0
     732:	e0 55       	subi	r30, 0x50	; 80
     734:	ff 43       	sbci	r31, 0x3F	; 63
     736:	e5 81       	ldd	r30, Z+5	; 0x05
     738:	f0 e0       	ldi	r31, 0x00	; 0
     73a:	90 91 0c 38 	lds	r25, 0x380C	; 0x80380c <dimValue>
     73e:	ed 53       	subi	r30, 0x3D	; 61
     740:	f5 4c       	sbci	r31, 0xC5	; 197
                }
                if (lanyardPos == sizeof(lanyardCode)) {
     742:	90 83       	st	Z, r25
     744:	88 31       	cpi	r24, 0x18	; 24
                    UpdateState(LANYARD_COMPLETED);
     746:	89 f4       	brne	.+34     	; 0x76a <LanyardCode+0x164>
     748:	8b e7       	ldi	r24, 0x7B	; 123
     74a:	a4 d6       	rcall	.+3400   	; 0x1494 <UpdateState>
                    iLED[CAT]       = 0;
     74c:	ec 2f       	mov	r30, r28
     74e:	f0 e0       	ldi	r31, 0x00	; 0
     750:	ed 53       	subi	r30, 0x3D	; 61
     752:	f5 4c       	sbci	r31, 0xC5	; 197
                    effect = 0x42;
     754:	10 82       	st	Z, r1
     756:	82 e4       	ldi	r24, 0x42	; 66
     758:	90 e0       	ldi	r25, 0x00	; 0
                    /*TODO state = STATE_MUSIC;*/
                }
            } else {
                initLanyard();
     75a:	03 c0       	rjmp	.+6      	; 0x762 <LanyardCode+0x15c>
     75c:	4b df       	rcall	.-362    	; 0x5f4 <initLanyard>
                effect = 0x21;
     75e:	81 e2       	ldi	r24, 0x21	; 33
     760:	90 e0       	ldi	r25, 0x00	; 0
     762:	80 93 3a 38 	sts	0x383A, r24	; 0x80383a <effect>
     766:	90 93 3b 38 	sts	0x383B, r25	; 0x80383b <effect+0x1>
            }
        }
    }

    return 0;
}
     76a:	80 e0       	ldi	r24, 0x00	; 0
     76c:	cf 91       	pop	r28
     76e:	08 95       	ret

00000770 <initMaze>:
uint8_t         mazeState = TRUE;
uint8_t         inverted  = FALSE;
uint16_t        mazeLastActive = 0;

void initMaze() {
    mazeHckrPos = 0;
     770:	10 92 49 38 	sts	0x3849, r1	; 0x803849 <mazeHckrPos>
    mazePos = 0;
     774:	10 92 4a 38 	sts	0x384A, r1	; 0x80384a <mazePos>
    mazeCnt = 0;
     778:	10 92 48 38 	sts	0x3848, r1	; 0x803848 <mazeCnt>
    mazeState = TRUE;
     77c:	81 e0       	ldi	r24, 0x01	; 1
     77e:	80 93 0d 38 	sts	0x380D, r24	; 0x80380d <mazeState>
    inverted  = FALSE;
     782:	10 92 47 38 	sts	0x3847, r1	; 0x803847 <inverted>
    effect = 0;
     786:	10 92 3a 38 	sts	0x383A, r1	; 0x80383a <effect>
     78a:	10 92 3b 38 	sts	0x383B, r1	; 0x80383b <effect+0x1>
     78e:	08 95       	ret

00000790 <showFieldStrength>:
}

void showFieldStrength(int16_t val) {
    int16_t tmp;

    tmp = abs(val);
     790:	97 ff       	sbrs	r25, 7
     792:	03 c0       	rjmp	.+6      	; 0x79a <showFieldStrength+0xa>
     794:	91 95       	neg	r25
     796:	81 95       	neg	r24
     798:	91 09       	sbc	r25, r1

    if ( tmp*2 > HALL_LOW )
     79a:	9c 01       	movw	r18, r24
     79c:	22 0f       	add	r18, r18
     79e:	33 1f       	adc	r19, r19
     7a0:	29 37       	cpi	r18, 0x79	; 121
     7a2:	31 05       	cpc	r19, r1
     7a4:	1c f0       	brlt	.+6      	; 0x7ac <showFieldStrength+0x1c>
        gameNow = MAZE;
     7a6:	41 e0       	ldi	r20, 0x01	; 1
     7a8:	40 93 3c 38 	sts	0x383C, r20	; 0x80383c <gameNow>

    if (gameNow == MAZE) {
     7ac:	40 91 3c 38 	lds	r20, 0x383C	; 0x80383c <gameNow>
     7b0:	41 30       	cpi	r20, 0x01	; 1
     7b2:	21 f5       	brne	.+72     	; 0x7fc <showFieldStrength+0x6c>
        if ( tmp*2 < HALL_LOW )
     7b4:	28 37       	cpi	r18, 0x78	; 120
     7b6:	31 05       	cpc	r19, r1
     7b8:	1c f4       	brge	.+6      	; 0x7c0 <showFieldStrength+0x30>
            WingBar(0,0);
     7ba:	60 e0       	ldi	r22, 0x00	; 0
     7bc:	80 e0       	ldi	r24, 0x00	; 0
     7be:	1d c0       	rjmp	.+58     	; 0x7fa <showFieldStrength+0x6a>
        else if ( tmp   < HALL_LOW )
     7c0:	88 37       	cpi	r24, 0x78	; 120
     7c2:	91 05       	cpc	r25, r1
     7c4:	1c f4       	brge	.+6      	; 0x7cc <showFieldStrength+0x3c>
            WingBar(1,1);
     7c6:	61 e0       	ldi	r22, 0x01	; 1
     7c8:	81 e0       	ldi	r24, 0x01	; 1
     7ca:	17 c0       	rjmp	.+46     	; 0x7fa <showFieldStrength+0x6a>
        else if ( tmp*2 < HALL_HIGH )
     7cc:	2c 32       	cpi	r18, 0x2C	; 44
     7ce:	41 e0       	ldi	r20, 0x01	; 1
     7d0:	34 07       	cpc	r19, r20
     7d2:	1c f4       	brge	.+6      	; 0x7da <showFieldStrength+0x4a>
            WingBar(2,2);
     7d4:	62 e0       	ldi	r22, 0x02	; 2
     7d6:	82 e0       	ldi	r24, 0x02	; 2
     7d8:	10 c0       	rjmp	.+32     	; 0x7fa <showFieldStrength+0x6a>
        else if ( tmp*3 < HALL_HIGH*2 )
     7da:	28 0f       	add	r18, r24
     7dc:	39 1f       	adc	r19, r25
     7de:	28 35       	cpi	r18, 0x58	; 88
     7e0:	32 40       	sbci	r19, 0x02	; 2
     7e2:	1c f4       	brge	.+6      	; 0x7ea <showFieldStrength+0x5a>
            WingBar(3,3);
     7e4:	63 e0       	ldi	r22, 0x03	; 3
     7e6:	83 e0       	ldi	r24, 0x03	; 3
     7e8:	08 c0       	rjmp	.+16     	; 0x7fa <showFieldStrength+0x6a>
        else if ( tmp   < HALL_HIGH )
     7ea:	8c 32       	cpi	r24, 0x2C	; 44
     7ec:	91 40       	sbci	r25, 0x01	; 1
     7ee:	1c f4       	brge	.+6      	; 0x7f6 <showFieldStrength+0x66>
            WingBar(4,4);
     7f0:	64 e0       	ldi	r22, 0x04	; 4
     7f2:	84 e0       	ldi	r24, 0x04	; 4
     7f4:	02 c0       	rjmp	.+4      	; 0x7fa <showFieldStrength+0x6a>
        else
            WingBar(5,5);
     7f6:	65 e0       	ldi	r22, 0x05	; 5
     7f8:	85 e0       	ldi	r24, 0x05	; 5
     7fa:	30 c7       	rjmp	.+3680   	; 0x165c <WingBar>
     7fc:	08 95       	ret

000007fe <MagnetMaze>:
    }
}

// Main game loop
uint8_t MagnetMaze(){
     7fe:	cf 93       	push	r28
     800:	df 93       	push	r29
    if (gameNow == MAZE && idleTimeout(mazeLastActive,MAZE_MAX_IDLE)) {
     802:	80 91 3c 38 	lds	r24, 0x383C	; 0x80383c <gameNow>
     806:	81 30       	cpi	r24, 0x01	; 1
     808:	71 f4       	brne	.+28     	; 0x826 <MagnetMaze+0x28>
     80a:	6a e0       	ldi	r22, 0x0A	; 10
     80c:	70 e0       	ldi	r23, 0x00	; 0
     80e:	80 91 45 38 	lds	r24, 0x3845	; 0x803845 <mazeLastActive>
     812:	90 91 46 38 	lds	r25, 0x3846	; 0x803846 <mazeLastActive+0x1>
     816:	0e 94 26 0e 	call	0x1c4c	; 0x1c4c <idleTimeout>
     81a:	88 23       	and	r24, r24
     81c:	21 f0       	breq	.+8      	; 0x826 <MagnetMaze+0x28>
        /* clean up maze game and go back to text game */
        initMaze();
     81e:	a8 df       	rcall	.-176    	; 0x770 <initMaze>
        gameNow = TEXT;
     820:	10 92 3c 38 	sts	0x383C, r1	; 0x80383c <gameNow>
        return 0;
     824:	e5 c0       	rjmp	.+458    	; 0x9f0 <MagnetMaze+0x1f2>
    }
        
    if (CheckState(MAZE_INACTIVE))
     826:	87 ef       	ldi	r24, 0xF7	; 247
     828:	3f d6       	rcall	.+3198   	; 0x14a8 <CheckState>
     82a:	81 11       	cpse	r24, r1
     82c:	e1 c0       	rjmp	.+450    	; 0x9f0 <MagnetMaze+0x1f2>
        return 0;

    if (CheckState(MAZE_COMPLETED))
     82e:	8d e7       	ldi	r24, 0x7D	; 125
     830:	3b d6       	rcall	.+3190   	; 0x14a8 <CheckState>
     832:	81 11       	cpse	r24, r1
     834:	dd c0       	rjmp	.+442    	; 0x9f0 <MagnetMaze+0x1f2>
     836:	80 91 3c 38 	lds	r24, 0x383C	; 0x80383c <gameNow>
        return 0;

    if ( (gameNow != TEXT) && (gameNow != MAZE) )
     83a:	82 30       	cpi	r24, 0x02	; 2
     83c:	08 f0       	brcs	.+2      	; 0x840 <MagnetMaze+0x42>
     83e:	d8 c0       	rjmp	.+432    	; 0x9f0 <MagnetMaze+0x1f2>
     840:	80 91 eb 3a 	lds	r24, 0x3AEB	; 0x803aeb <calHall>
        return 0;

    if (calHall == 0)
     844:	90 91 ec 3a 	lds	r25, 0x3AEC	; 0x803aec <calHall+0x1>
     848:	89 2b       	or	r24, r25
     84a:	41 f4       	brne	.+16     	; 0x85c <MagnetMaze+0x5e>
     84c:	80 91 bb 3a 	lds	r24, 0x3ABB	; 0x803abb <adcHall>
        calHall = adcHall;
     850:	90 91 bc 3a 	lds	r25, 0x3ABC	; 0x803abc <adcHall+0x1>
     854:	80 93 eb 3a 	sts	0x3AEB, r24	; 0x803aeb <calHall>
     858:	90 93 ec 3a 	sts	0x3AEC, r25	; 0x803aec <calHall+0x1>
     85c:	c0 91 bb 3a 	lds	r28, 0x3ABB	; 0x803abb <adcHall>

    int16_t valHall = adcHall - calHall;
     860:	d0 91 bc 3a 	lds	r29, 0x3ABC	; 0x803abc <adcHall+0x1>
     864:	80 91 eb 3a 	lds	r24, 0x3AEB	; 0x803aeb <calHall>
     868:	90 91 ec 3a 	lds	r25, 0x3AEC	; 0x803aec <calHall+0x1>
     86c:	c8 1b       	sub	r28, r24
     86e:	d9 0b       	sbc	r29, r25
    showFieldStrength(valHall);
     870:	ce 01       	movw	r24, r28
     872:	8e df       	rcall	.-228    	; 0x790 <showFieldStrength>
     874:	80 91 4c 38 	lds	r24, 0x384C	; 0x80384c <curHallState>

    switch (curHallState) {
     878:	81 30       	cpi	r24, 0x01	; 1
     87a:	89 f0       	breq	.+34     	; 0x89e <MagnetMaze+0xa0>
     87c:	18 f0       	brcs	.+6      	; 0x884 <MagnetMaze+0x86>
     87e:	82 30       	cpi	r24, 0x02	; 2
     880:	c1 f0       	breq	.+48     	; 0x8b2 <MagnetMaze+0xb4>
     882:	1f c0       	rjmp	.+62     	; 0x8c2 <MagnetMaze+0xc4>
     884:	c4 3d       	cpi	r28, 0xD4	; 212
        case 0:
            if ( valHall + HALL_HIGH < 0 ) {
     886:	9e ef       	ldi	r25, 0xFE	; 254
     888:	d9 07       	cpc	r29, r25
     88a:	14 f4       	brge	.+4      	; 0x890 <MagnetMaze+0x92>
     88c:	91 e0       	ldi	r25, 0x01	; 1
                newHallState = 1;
     88e:	04 c0       	rjmp	.+8      	; 0x898 <MagnetMaze+0x9a>
     890:	cd 32       	cpi	r28, 0x2D	; 45
            } else if ( valHall - HALL_HIGH > 0 ) {
     892:	d1 40       	sbci	r29, 0x01	; 1
     894:	5c f0       	brlt	.+22     	; 0x8ac <MagnetMaze+0xae>
     896:	92 e0       	ldi	r25, 0x02	; 2
                newHallState = 2;
     898:	90 93 4b 38 	sts	0x384B, r25	; 0x80384b <newHallState>
     89c:	12 c0       	rjmp	.+36     	; 0x8c2 <MagnetMaze+0xc4>
     89e:	cd 32       	cpi	r28, 0x2D	; 45
                newHallState = 0;
            }
            break;
        
        case 1:
            if ( valHall - HALL_HIGH > 0 ) {
     8a0:	91 e0       	ldi	r25, 0x01	; 1
     8a2:	d9 07       	cpc	r29, r25
     8a4:	c4 f7       	brge	.-16     	; 0x896 <MagnetMaze+0x98>
     8a6:	c9 38       	cpi	r28, 0x89	; 137
                newHallState = 2;
            } else if ( valHall + HALL_LOW > 0 ) {
     8a8:	df 4f       	sbci	r29, 0xFF	; 255
     8aa:	84 f3       	brlt	.-32     	; 0x88c <MagnetMaze+0x8e>
     8ac:	10 92 4b 38 	sts	0x384B, r1	; 0x80384b <newHallState>
            if ( valHall + HALL_HIGH < 0 ) {
                newHallState = 1;
            } else if ( valHall - HALL_HIGH > 0 ) {
                newHallState = 2;
            } else {
                newHallState = 0;
     8b0:	08 c0       	rjmp	.+16     	; 0x8c2 <MagnetMaze+0xc4>
     8b2:	c4 3d       	cpi	r28, 0xD4	; 212
                newHallState = 1;
            }
            break;
        
        case 2:
            if ( valHall + HALL_HIGH < 0 ) {
     8b4:	9e ef       	ldi	r25, 0xFE	; 254
     8b6:	d9 07       	cpc	r29, r25
     8b8:	4c f3       	brlt	.-46     	; 0x88c <MagnetMaze+0x8e>
     8ba:	c8 37       	cpi	r28, 0x78	; 120
                newHallState = 1;
            } else if ( valHall - HALL_LOW < 0 ) {
     8bc:	d1 05       	cpc	r29, r1
     8be:	b4 f3       	brlt	.-20     	; 0x8ac <MagnetMaze+0xae>
     8c0:	ea cf       	rjmp	.-44     	; 0x896 <MagnetMaze+0x98>
     8c2:	c0 91 9e c0 	lds	r28, 0xC09E	; 0x80c09e <__bss_end+0x858c>
            }
            break;
    }

    /* Indicate that the magnet was read succesfully */
    iLED[CAT] = (newHallState ? dimValue : 0);
     8c6:	ec 2f       	mov	r30, r28
     8c8:	f0 e0       	ldi	r31, 0x00	; 0
     8ca:	90 91 4b 38 	lds	r25, 0x384B	; 0x80384b <newHallState>
     8ce:	99 23       	and	r25, r25
     8d0:	19 f0       	breq	.+6      	; 0x8d8 <MagnetMaze+0xda>
     8d2:	20 91 0c 38 	lds	r18, 0x380C	; 0x80380c <dimValue>
     8d6:	01 c0       	rjmp	.+2      	; 0x8da <MagnetMaze+0xdc>
     8d8:	20 e0       	ldi	r18, 0x00	; 0
     8da:	ed 53       	subi	r30, 0x3D	; 61
     8dc:	f5 4c       	sbci	r31, 0xC5	; 197
     8de:	20 83       	st	Z, r18
     8e0:	2f e9       	ldi	r18, 0x9F	; 159
    effect = 0x19f;
     8e2:	31 e0       	ldi	r19, 0x01	; 1
     8e4:	20 93 3a 38 	sts	0x383A, r18	; 0x80383a <effect>
     8e8:	30 93 3b 38 	sts	0x383B, r19	; 0x80383b <effect+0x1>
     8ec:	89 17       	cp	r24, r25

    if (newHallState != curHallState) {
     8ee:	09 f4       	brne	.+2      	; 0x8f2 <MagnetMaze+0xf4>
     8f0:	7f c0       	rjmp	.+254    	; 0x9f0 <MagnetMaze+0x1f2>
     8f2:	0e 94 17 0e 	call	0x1c2e	; 0x1c2e <getClock>
        /* keep track of time to enable an idle timeout to exit the game */
        mazeLastActive = getClock();
     8f6:	80 93 45 38 	sts	0x3845, r24	; 0x803845 <mazeLastActive>
     8fa:	90 93 46 38 	sts	0x3846, r25	; 0x803846 <mazeLastActive+0x1>
     8fe:	90 91 4a 38 	lds	r25, 0x384A	; 0x80384a <mazePos>

        /* Make the maze work regardless of badge orientation */
        if ((mazePos == 0) && (newHallState != 0))
     902:	80 91 4b 38 	lds	r24, 0x384B	; 0x80384b <newHallState>
     906:	91 11       	cpse	r25, r1
     908:	08 c0       	rjmp	.+16     	; 0x91a <MagnetMaze+0x11c>
     90a:	88 23       	and	r24, r24
     90c:	31 f0       	breq	.+12     	; 0x91a <MagnetMaze+0x11c>
     90e:	91 e0       	ldi	r25, 0x01	; 1
            inverted = (newHallState != mazeCode[0]) ? TRUE : FALSE;
     910:	81 30       	cpi	r24, 0x01	; 1
     912:	09 f4       	brne	.+2      	; 0x916 <MagnetMaze+0x118>
     914:	90 e0       	ldi	r25, 0x00	; 0
     916:	90 93 47 38 	sts	0x3847, r25	; 0x803847 <inverted>
     91a:	80 93 4c 38 	sts	0x384C, r24	; 0x80384c <curHallState>

        curHallState = newHallState;
     91e:	88 23       	and	r24, r24
        
        if (curHallState != 0) {
     920:	09 f4       	brne	.+2      	; 0x924 <MagnetMaze+0x126>
     922:	66 c0       	rjmp	.+204    	; 0x9f0 <MagnetMaze+0x1f2>
     924:	80 91 3c 38 	lds	r24, 0x383C	; 0x80383c <gameNow>
            if (gameNow == TEXT)
     928:	81 11       	cpse	r24, r1
     92a:	01 c0       	rjmp	.+2      	; 0x92e <MagnetMaze+0x130>
                initMaze();
     92c:	21 df       	rcall	.-446    	; 0x770 <initMaze>
     92e:	81 e0       	ldi	r24, 0x01	; 1
            gameNow = MAZE;
     930:	80 93 3c 38 	sts	0x383C, r24	; 0x80383c <gameNow>
     934:	80 91 47 38 	lds	r24, 0x3847	; 0x803847 <inverted>

            if ( (inverted ? curHallState^3 : curHallState) == mazeCode[mazePos]) {
     938:	20 91 4c 38 	lds	r18, 0x384C	; 0x80384c <curHallState>
     93c:	88 23       	and	r24, r24
     93e:	11 f0       	breq	.+4      	; 0x944 <MagnetMaze+0x146>
     940:	83 e0       	ldi	r24, 0x03	; 3
     942:	28 27       	eor	r18, r24
     944:	30 e0       	ldi	r19, 0x00	; 0
     946:	80 91 4a 38 	lds	r24, 0x384A	; 0x80384a <mazePos>
     94a:	e8 2f       	mov	r30, r24
     94c:	f0 e0       	ldi	r31, 0x00	; 0
     94e:	e4 51       	subi	r30, 0x14	; 20
     950:	ff 43       	sbci	r31, 0x3F	; 63
     952:	40 81       	ld	r20, Z
     954:	50 e0       	ldi	r21, 0x00	; 0
     956:	24 17       	cp	r18, r20
     958:	35 07       	cpc	r19, r21
     95a:	91 f4       	brne	.+36     	; 0x980 <MagnetMaze+0x182>
     95c:	90 91 0d 38 	lds	r25, 0x380D	; 0x80380d <mazeState>
                mazeState &= TRUE;
     960:	91 70       	andi	r25, 0x01	; 1
     962:	90 93 0d 38 	sts	0x380D, r25	; 0x80380d <mazeState>
     966:	e0 91 ad c0 	lds	r30, 0xC0AD	; 0x80c0ad <__bss_end+0x859b>
                iLED[EYE[R][L]] = 0;
     96a:	f0 e0       	ldi	r31, 0x00	; 0
     96c:	ed 53       	subi	r30, 0x3D	; 61
     96e:	f5 4c       	sbci	r31, 0xC5	; 197
     970:	10 82       	st	Z, r1
     972:	e0 91 ac c0 	lds	r30, 0xC0AC	; 0x80c0ac <__bss_end+0x859a>
                iLED[EYE[R][R]] = 0;
     976:	f0 e0       	ldi	r31, 0x00	; 0
     978:	ed 53       	subi	r30, 0x3D	; 61
     97a:	f5 4c       	sbci	r31, 0xC5	; 197
     97c:	10 82       	st	Z, r1
     97e:	02 c0       	rjmp	.+4      	; 0x984 <MagnetMaze+0x186>
     980:	10 92 0d 38 	sts	0x380D, r1	; 0x80380d <mazeState>
            } else {
                mazeState = FALSE;
     984:	8f 5f       	subi	r24, 0xFF	; 255
            }
            mazePos++;
     986:	80 93 4a 38 	sts	0x384A, r24	; 0x80384a <mazePos>
     98a:	90 91 48 38 	lds	r25, 0x3848	; 0x803848 <mazeCnt>
            mazeCnt++;            
     98e:	9f 5f       	subi	r25, 0xFF	; 255
     990:	93 30       	cpi	r25, 0x03	; 3
            if (mazeCnt >= 3) {
     992:	18 f4       	brcc	.+6      	; 0x99a <MagnetMaze+0x19c>
     994:	90 93 48 38 	sts	0x3848, r25	; 0x803848 <mazeCnt>
                iLED[EYE[R][R]] = 0;
            } else {
                mazeState = FALSE;
            }
            mazePos++;
            mazeCnt++;            
     998:	2b c0       	rjmp	.+86     	; 0x9f0 <MagnetMaze+0x1f2>
     99a:	10 92 48 38 	sts	0x3848, r1	; 0x803848 <mazeCnt>
            if (mazeCnt >= 3) {
                mazeCnt = 0;
     99e:	90 91 0d 38 	lds	r25, 0x380D	; 0x80380d <mazeState>
                if (mazeState == TRUE) {
     9a2:	91 30       	cpi	r25, 0x01	; 1
     9a4:	e1 f4       	brne	.+56     	; 0x9de <MagnetMaze+0x1e0>
     9a6:	90 91 49 38 	lds	r25, 0x3849	; 0x803849 <mazeHckrPos>
                    iLED[HCKR[G][mazeHckrPos]] = dimValue;
     9aa:	e9 2f       	mov	r30, r25
     9ac:	f0 e0       	ldi	r31, 0x00	; 0
     9ae:	e0 55       	subi	r30, 0x50	; 80
     9b0:	ff 43       	sbci	r31, 0x3F	; 63
     9b2:	e6 81       	ldd	r30, Z+6	; 0x06
     9b4:	f0 e0       	ldi	r31, 0x00	; 0
     9b6:	20 91 0c 38 	lds	r18, 0x380C	; 0x80380c <dimValue>
     9ba:	ed 53       	subi	r30, 0x3D	; 61
     9bc:	f5 4c       	sbci	r31, 0xC5	; 197
     9be:	20 83       	st	Z, r18
     9c0:	9f 5f       	subi	r25, 0xFF	; 255
                    mazeHckrPos++;
     9c2:	90 93 49 38 	sts	0x3849, r25	; 0x803849 <mazeHckrPos>
                    if (mazePos == sizeof(mazeCode)) {
     9c6:	82 31       	cpi	r24, 0x12	; 18
     9c8:	99 f4       	brne	.+38     	; 0x9f0 <MagnetMaze+0x1f2>
                        UpdateState(MAZE_COMPLETED);
     9ca:	8d e7       	ldi	r24, 0x7D	; 125
     9cc:	63 d5       	rcall	.+2758   	; 0x1494 <UpdateState>
     9ce:	ec 2f       	mov	r30, r28
                        iLED[CAT]       = 0;
     9d0:	f0 e0       	ldi	r31, 0x00	; 0
     9d2:	ed 53       	subi	r30, 0x3D	; 61
     9d4:	f5 4c       	sbci	r31, 0xC5	; 197
     9d6:	10 82       	st	Z, r1
                        effect = 0x42;
     9d8:	82 e4       	ldi	r24, 0x42	; 66
     9da:	90 e0       	ldi	r25, 0x00	; 0
     9dc:	05 c0       	rjmp	.+10     	; 0x9e8 <MagnetMaze+0x1ea>
                        /*TODO state = STATE_MUSIC;*/
                    }
                } else {
                    initMaze();
     9de:	c8 de       	rcall	.-624    	; 0x770 <initMaze>
     9e0:	10 92 3c 38 	sts	0x383C, r1	; 0x80383c <gameNow>
                    gameNow   = TEXT;
     9e4:	81 e2       	ldi	r24, 0x21	; 33
                    effect = 0x21;
     9e6:	90 e0       	ldi	r25, 0x00	; 0
     9e8:	80 93 3a 38 	sts	0x383A, r24	; 0x80383a <effect>
     9ec:	90 93 3b 38 	sts	0x383B, r25	; 0x80383b <effect+0x1>
     9f0:	80 e0       	ldi	r24, 0x00	; 0
                }
            }
        }
    }
    return 0;
}
     9f2:	df 91       	pop	r29
     9f4:	cf 91       	pop	r28
     9f6:	08 95       	ret

000009f8 <Setup>:
     9f8:	cf 93       	push	r28
volatile uint16_t tmp16bit;    
volatile uint8_t mask[8] = {0x01, 0x03, 0x07, 0x0f, 0x1f, 0x3f, 0x7f, 0xff};
uint8_t HeartCount = 0;
uint8_t LedCount = 0;

void Setup(){
     9fa:	df 93       	push	r29
    cli();
     9fc:	f8 94       	cli

    //Set up clock at 10MHz
    CCP = CCP_IOREG_gc;
     9fe:	88 ed       	ldi	r24, 0xD8	; 216
     a00:	84 bf       	out	0x34, r24	; 52
    CLKCTRL_MCLKCTRLB = 0x01;
     a02:	c1 e0       	ldi	r28, 0x01	; 1
     a04:	c0 93 61 00 	sts	0x0061, r28	; 0x800061 <__TEXT_REGION_LENGTH__+0x700061>

    //Set I/O direction registers
    PORTA_DIR = 0b01001010;
     a08:	8a e4       	ldi	r24, 0x4A	; 74
     a0a:	80 93 00 04 	sts	0x0400, r24	; 0x800400 <__TEXT_REGION_LENGTH__+0x700400>
    PORTB_DIR = 0b01111100;
     a0e:	8c e7       	ldi	r24, 0x7C	; 124
     a10:	80 93 20 04 	sts	0x0420, r24	; 0x800420 <__TEXT_REGION_LENGTH__+0x700420>
    PORTC_DIR = 0b00111111;
     a14:	9f e3       	ldi	r25, 0x3F	; 63
     a16:	90 93 40 04 	sts	0x0440, r25	; 0x800440 <__TEXT_REGION_LENGTH__+0x700440>

    //Invert some pins for correcting LED reversal error
    PORTC_PIN3CTRL |= 0x80;
     a1a:	80 91 53 04 	lds	r24, 0x0453	; 0x800453 <__TEXT_REGION_LENGTH__+0x700453>
     a1e:	80 68       	ori	r24, 0x80	; 128
     a20:	80 93 53 04 	sts	0x0453, r24	; 0x800453 <__TEXT_REGION_LENGTH__+0x700453>
    PORTC_PIN4CTRL |= 0x80;
     a24:	80 91 54 04 	lds	r24, 0x0454	; 0x800454 <__TEXT_REGION_LENGTH__+0x700454>
     a28:	80 68       	ori	r24, 0x80	; 128
     a2a:	80 93 54 04 	sts	0x0454, r24	; 0x800454 <__TEXT_REGION_LENGTH__+0x700454>
    PORTC_PIN5CTRL |= 0x80;
     a2e:	80 91 55 04 	lds	r24, 0x0455	; 0x800455 <__TEXT_REGION_LENGTH__+0x700455>
     a32:	80 68       	ori	r24, 0x80	; 128
     a34:	80 93 55 04 	sts	0x0455, r24	; 0x800455 <__TEXT_REGION_LENGTH__+0x700455>
    PORTB_PIN3CTRL |= 0x80;
     a38:	80 91 33 04 	lds	r24, 0x0433	; 0x800433 <__TEXT_REGION_LENGTH__+0x700433>
     a3c:	80 68       	ori	r24, 0x80	; 128
     a3e:	80 93 33 04 	sts	0x0433, r24	; 0x800433 <__TEXT_REGION_LENGTH__+0x700433>
    PORTB_PIN4CTRL |= 0x80;
     a42:	80 91 34 04 	lds	r24, 0x0434	; 0x800434 <__TEXT_REGION_LENGTH__+0x700434>
     a46:	80 68       	ori	r24, 0x80	; 128
     a48:	80 93 34 04 	sts	0x0434, r24	; 0x800434 <__TEXT_REGION_LENGTH__+0x700434>
    PORTB_PIN5CTRL |= 0x80;
     a4c:	80 91 35 04 	lds	r24, 0x0435	; 0x800435 <__TEXT_REGION_LENGTH__+0x700435>
     a50:	80 68       	ori	r24, 0x80	; 128
     a52:	80 93 35 04 	sts	0x0435, r24	; 0x800435 <__TEXT_REGION_LENGTH__+0x700435>
    PORTB_PIN2CTRL |= 0x80;
    PORTB_PIN6CTRL |= 0x80;
    */

    //UART (Alternative pins PA1=TxD, PA2=RxD, baudrate 9600, 8n1, RX and Buffer empty interrupts on)
    PORTMUX_CTRLB = 0x01;
     a56:	c0 93 01 02 	sts	0x0201, r28	; 0x800201 <__TEXT_REGION_LENGTH__+0x700201>
    PORTA_OUTSET = 0x02;
     a5a:	d2 e0       	ldi	r29, 0x02	; 2
     a5c:	d0 93 05 04 	sts	0x0405, r29	; 0x800405 <__TEXT_REGION_LENGTH__+0x700405>
    USART0_BAUD = (uint16_t)USART0_BAUD_RATE(115200);
     a60:	2b e5       	ldi	r18, 0x5B	; 91
     a62:	31 e0       	ldi	r19, 0x01	; 1
     a64:	20 93 08 08 	sts	0x0808, r18	; 0x800808 <__TEXT_REGION_LENGTH__+0x700808>
     a68:	30 93 09 08 	sts	0x0809, r19	; 0x800809 <__TEXT_REGION_LENGTH__+0x700809>
    USART0_CTRLA = 0xA0; //Interrupts on
     a6c:	80 ea       	ldi	r24, 0xA0	; 160
     a6e:	80 93 05 08 	sts	0x0805, r24	; 0x800805 <__TEXT_REGION_LENGTH__+0x700805>
    USART0_CTRLB = 0xC0; //RX and TX on
     a72:	80 ec       	ldi	r24, 0xC0	; 192
     a74:	80 93 06 08 	sts	0x0806, r24	; 0x800806 <__TEXT_REGION_LENGTH__+0x700806>
    USART0_CTRLC = 0x03; //8 bits data, no parity, 1 stop bit
     a78:	83 e0       	ldi	r24, 0x03	; 3
     a7a:	80 93 07 08 	sts	0x0807, r24	; 0x800807 <__TEXT_REGION_LENGTH__+0x700807>
     
    //GPIO registers 0..3 can be used for global variables used in ISR routines (ASM capability: IN, OUT, SBI, CBI, SBIS, SBIC)
    L_COL = 0;     //Used in LED array to hold currently driven column value
     a7e:	1c ba       	out	0x1c, r1	; 28
    RXCNT = 0;     //Used as UART receive counter
     a80:	1d ba       	out	0x1d, r1	; 29
    GPIOR3 = 0;    //
     a82:	1f ba       	out	0x1f, r1	; 31

    //Init TCA (split mode, f_CLK/16, PWM on 6 alternative pins, underflow int enabled, synced and started)
    TCA0_SPLIT_CTRLD = 1;
     a84:	c0 93 03 0a 	sts	0x0A03, r28	; 0x800a03 <__TEXT_REGION_LENGTH__+0x700a03>
    TCA0_SPLIT_CTRLA = (0x4)<<1;
     a88:	88 e0       	ldi	r24, 0x08	; 8
     a8a:	80 93 00 0a 	sts	0x0A00, r24	; 0x800a00 <__TEXT_REGION_LENGTH__+0x700a00>
    PORTMUX_CTRLC = 0x3F;
     a8e:	90 93 02 02 	sts	0x0202, r25	; 0x800202 <__TEXT_REGION_LENGTH__+0x700202>
    TCA0_SPLIT_CTRLB = 0x77;
     a92:	87 e7       	ldi	r24, 0x77	; 119
     a94:	80 93 01 0a 	sts	0x0A01, r24	; 0x800a01 <__TEXT_REGION_LENGTH__+0x700a01>
    TCA0_SPLIT_INTCTRL = 0x1;
     a98:	c0 93 0a 0a 	sts	0x0A0A, r28	; 0x800a0a <__TEXT_REGION_LENGTH__+0x700a0a>
    TCA0_SPLIT_CTRLESET = ((0x2)<<2)|0x3;
     a9c:	8b e0       	ldi	r24, 0x0B	; 11
     a9e:	80 93 05 0a 	sts	0x0A05, r24	; 0x800a05 <__TEXT_REGION_LENGTH__+0x700a05>
    TCA0_SPLIT_CTRLA |= 1;
     aa2:	80 91 00 0a 	lds	r24, 0x0A00	; 0x800a00 <__TEXT_REGION_LENGTH__+0x700a00>
     aa6:	81 60       	ori	r24, 0x01	; 1
     aa8:	80 93 00 0a 	sts	0x0A00, r24	; 0x800a00 <__TEXT_REGION_LENGTH__+0x700a00>
     
    //Init TCB0 (compare value sets serial Tx pause between characters, uses TCA0 prescaler, enabled, interrupt disabled)
    TCB0_CTRLA = ((0x02)<<1)|0x01;
     aac:	85 e0       	ldi	r24, 0x05	; 5
     aae:	80 93 40 0a 	sts	0x0A40, r24	; 0x800a40 <__TEXT_REGION_LENGTH__+0x700a40>
    TCB0_CTRLB = 0;
     ab2:	10 92 41 0a 	sts	0x0A41, r1	; 0x800a41 <__TEXT_REGION_LENGTH__+0x700a41>
    TCB0_CCMP = 0x01FF;
     ab6:	8f ef       	ldi	r24, 0xFF	; 255
     ab8:	91 e0       	ldi	r25, 0x01	; 1
     aba:	80 93 4c 0a 	sts	0x0A4C, r24	; 0x800a4c <__TEXT_REGION_LENGTH__+0x700a4c>
     abe:	90 93 4d 0a 	sts	0x0A4D, r25	; 0x800a4d <__TEXT_REGION_LENGTH__+0x700a4d>
    TCB0_INTCTRL = 0x00;     
     ac2:	10 92 45 0a 	sts	0x0A45, r1	; 0x800a45 <__TEXT_REGION_LENGTH__+0x700a45>
     
    //Init TCB1 (compare value sets audio sample rate (0x038B = 11025sps), enabled, interrupt enabled)
    TCB1_CTRLA = 0x01;
     ac6:	c0 93 50 0a 	sts	0x0A50, r28	; 0x800a50 <__TEXT_REGION_LENGTH__+0x700a50>
    TCB1_CTRLB = 0;
     aca:	10 92 51 0a 	sts	0x0A51, r1	; 0x800a51 <__TEXT_REGION_LENGTH__+0x700a51>
    TCB1_CCMP = 0x038B;
     ace:	8b e8       	ldi	r24, 0x8B	; 139
     ad0:	93 e0       	ldi	r25, 0x03	; 3
     ad2:	80 93 5c 0a 	sts	0x0A5C, r24	; 0x800a5c <__TEXT_REGION_LENGTH__+0x700a5c>
     ad6:	90 93 5d 0a 	sts	0x0A5D, r25	; 0x800a5d <__TEXT_REGION_LENGTH__+0x700a5d>
    TCB1_INTCTRL = 0x01;
     ada:	c0 93 55 0a 	sts	0x0A55, r28	; 0x800a55 <__TEXT_REGION_LENGTH__+0x700a55>

    //Init I2C (100kHz)
    I2C_init();
     ade:	47 dc       	rcall	.-1906   	; 0x36e <I2C_init>

    //VREF (DAC, ADC's)
    VREF_CTRLA   = 0x12;    //0x22 for audio in/out (2.5V), 0x12 for temperature in, audio out (1.1V/2.5V)
     ae0:	82 e1       	ldi	r24, 0x12	; 18
     ae2:	80 93 a0 00 	sts	0x00A0, r24	; 0x8000a0 <__TEXT_REGION_LENGTH__+0x7000a0>
    VREF_CTRLC   = 0x20;    //ADC1 reference at 2.5V
     ae6:	80 e2       	ldi	r24, 0x20	; 32
     ae8:	80 93 a2 00 	sts	0x00A2, r24	; 0x8000a2 <__TEXT_REGION_LENGTH__+0x7000a2>
    VREF_CTRLB   = 0x01;    //DAC0 ref forced enabled
     aec:	c0 93 a1 00 	sts	0x00A1, r28	; 0x8000a1 <__TEXT_REGION_LENGTH__+0x7000a1>

    //Init ADC0 (audio in, also controls DAC output rate, internal temperature?)
    ADC0_CTRLA   = 0x02;    //10 bit resolution, free running
     af0:	d0 93 00 06 	sts	0x0600, r29	; 0x800600 <__TEXT_REGION_LENGTH__+0x700600>
    ADC0_CTRLC   = 0x44;    //Reduced sample capacitor, internal reference, clock/32 => 24038sps
     af4:	84 e4       	ldi	r24, 0x44	; 68
     af6:	80 93 02 06 	sts	0x0602, r24	; 0x800602 <__TEXT_REGION_LENGTH__+0x700602>
    ADC0_MUXPOS  = 0x1E;    //Audio in: AIN7 at (0x07), Temperature: Internal sensor at (0x1E)
     afa:	8e e1       	ldi	r24, 0x1E	; 30
     afc:	80 93 06 06 	sts	0x0606, r24	; 0x800606 <__TEXT_REGION_LENGTH__+0x700606>
    ADC0_INTCTRL = 0x01;    //Result ready interrupt enabled
     b00:	c0 93 0a 06 	sts	0x060A, r28	; 0x80060a <__TEXT_REGION_LENGTH__+0x70060a>
    ADC0_CTRLA  |= 0x01;    //ADC0 enabled
     b04:	80 91 00 06 	lds	r24, 0x0600	; 0x800600 <__TEXT_REGION_LENGTH__+0x700600>
     b08:	81 60       	ori	r24, 0x01	; 1
     b0a:	80 93 00 06 	sts	0x0600, r24	; 0x800600 <__TEXT_REGION_LENGTH__+0x700600>
    ADC0_COMMAND = 0x01;    //Start first conversion, after that it will run periodically.
     b0e:	c0 93 08 06 	sts	0x0608, r28	; 0x800608 <__TEXT_REGION_LENGTH__+0x700608>

    //Init ADC1 (buttons and sensors: CH0=Photo transistor, CH1=Hall, CH4=Buttons)
    ADC1_CTRLA   = 0;
     b12:	10 92 40 06 	sts	0x0640, r1	; 0x800640 <__TEXT_REGION_LENGTH__+0x700640>
    ADC1_CTRLB   = 0x02;    //4 results automatically accumulated
     b16:	d0 93 41 06 	sts	0x0641, r29	; 0x800641 <__TEXT_REGION_LENGTH__+0x700641>
    ADC1_CTRLC   = 0x52;    //Reduced sample capacitor, VDD as reference, clock/8
     b1a:	82 e5       	ldi	r24, 0x52	; 82
     b1c:	80 93 42 06 	sts	0x0642, r24	; 0x800642 <__TEXT_REGION_LENGTH__+0x700642>
    ADC1_SAMPCTRL= 0x04;    //Extend sampling time with 4 cycles (6 total)
     b20:	84 e0       	ldi	r24, 0x04	; 4
     b22:	80 93 45 06 	sts	0x0645, r24	; 0x800645 <__TEXT_REGION_LENGTH__+0x700645>
    ADC1_MUXPOS  = 0x04;    //Start with Buttons, for sensors, activate sensor power first.
     b26:	80 93 46 06 	sts	0x0646, r24	; 0x800646 <__TEXT_REGION_LENGTH__+0x700646>
    ADC1_INTCTRL = 0x01;    //Result ready interrupt enabled
     b2a:	c0 93 4a 06 	sts	0x064A, r28	; 0x80064a <__TEXT_REGION_LENGTH__+0x70064a>
    ADC1_CTRLA  |= 0x01;    //ADC0 enabled
     b2e:	80 91 40 06 	lds	r24, 0x0640	; 0x800640 <__TEXT_REGION_LENGTH__+0x700640>
     b32:	81 60       	ori	r24, 0x01	; 1
     b34:	80 93 40 06 	sts	0x0640, r24	; 0x800640 <__TEXT_REGION_LENGTH__+0x700640>
    ADC1_COMMAND = 0x01;    //Start single conversion
     b38:	c0 93 48 06 	sts	0x0648, r28	; 0x800648 <__TEXT_REGION_LENGTH__+0x700648>

    //Init DAC0
    DAC0_CTRLA = 0x40;     //Enable output buffer (connect to pin)
     b3c:	80 e4       	ldi	r24, 0x40	; 64
     b3e:	80 93 a0 06 	sts	0x06A0, r24	; 0x8006a0 <__TEXT_REGION_LENGTH__+0x7006a0>
    DAC0_DATA = 0x80;      //Data value at half point (about 1.25V)
     b42:	80 e8       	ldi	r24, 0x80	; 128
     b44:	80 93 a1 06 	sts	0x06A1, r24	; 0x8006a1 <__TEXT_REGION_LENGTH__+0x7006a1>
    DAC0_CTRLA |= 0x01;    //Enable DAC
     b48:	80 91 a0 06 	lds	r24, 0x06A0	; 0x8006a0 <__TEXT_REGION_LENGTH__+0x7006a0>
     b4c:	81 60       	ori	r24, 0x01	; 1
     b4e:	80 93 a0 06 	sts	0x06A0, r24	; 0x8006a0 <__TEXT_REGION_LENGTH__+0x7006a0>
     
    //PIT and RTC interrupts
    while(RTC_STATUS & RTC_CTRLABUSY_bm);
     b52:	80 91 41 01 	lds	r24, 0x0141	; 0x800141 <__TEXT_REGION_LENGTH__+0x700141>
     b56:	80 fd       	sbrc	r24, 0
     b58:	fc cf       	rjmp	.-8      	; 0xb52 <Setup+0x15a>
    RTC_CTRLA          = (0x6)<<3;                         //Prescaler: /64
     b5a:	80 e3       	ldi	r24, 0x30	; 48
     b5c:	80 93 40 01 	sts	0x0140, r24	; 0x800140 <__TEXT_REGION_LENGTH__+0x700140>
    RTC_CLKSEL         = 0;                                //Clock source: internal 32768Hz clock
     b60:	10 92 47 01 	sts	0x0147, r1	; 0x800147 <__TEXT_REGION_LENGTH__+0x700147>
    while(RTC_STATUS & RTC_PERBUSY_bm);
     b64:	80 91 41 01 	lds	r24, 0x0141	; 0x800141 <__TEXT_REGION_LENGTH__+0x700141>
     b68:	82 fd       	sbrc	r24, 2
     b6a:	fc cf       	rjmp	.-8      	; 0xb64 <Setup+0x16c>
    RTC_PER            = 512*60;                           //60 second period (for clocking how long the device has been running?)
     b6c:	80 e0       	ldi	r24, 0x00	; 0
     b6e:	98 e7       	ldi	r25, 0x78	; 120
     b70:	80 93 4a 01 	sts	0x014A, r24	; 0x80014a <__TEXT_REGION_LENGTH__+0x70014a>
     b74:	90 93 4b 01 	sts	0x014B, r25	; 0x80014b <__TEXT_REGION_LENGTH__+0x70014b>
    tmp16bit = (RTC_CNT + BTN_TMR);
     b78:	80 91 48 01 	lds	r24, 0x0148	; 0x800148 <__TEXT_REGION_LENGTH__+0x700148>
     b7c:	90 91 49 01 	lds	r25, 0x0149	; 0x800149 <__TEXT_REGION_LENGTH__+0x700149>
     b80:	82 96       	adiw	r24, 0x22	; 34
     b82:	80 93 ef 3a 	sts	0x3AEF, r24	; 0x803aef <tmp16bit>
     b86:	90 93 f0 3a 	sts	0x3AF0, r25	; 0x803af0 <tmp16bit+0x1>
    if (tmp16bit > RTC_PER) tmp16bit -= RTC_PER;
     b8a:	20 91 4a 01 	lds	r18, 0x014A	; 0x80014a <__TEXT_REGION_LENGTH__+0x70014a>
     b8e:	30 91 4b 01 	lds	r19, 0x014B	; 0x80014b <__TEXT_REGION_LENGTH__+0x70014b>
     b92:	80 91 ef 3a 	lds	r24, 0x3AEF	; 0x803aef <tmp16bit>
     b96:	90 91 f0 3a 	lds	r25, 0x3AF0	; 0x803af0 <tmp16bit+0x1>
     b9a:	28 17       	cp	r18, r24
     b9c:	39 07       	cpc	r19, r25
     b9e:	70 f4       	brcc	.+28     	; 0xbbc <Setup+0x1c4>
     ba0:	20 91 4a 01 	lds	r18, 0x014A	; 0x80014a <__TEXT_REGION_LENGTH__+0x70014a>
     ba4:	30 91 4b 01 	lds	r19, 0x014B	; 0x80014b <__TEXT_REGION_LENGTH__+0x70014b>
     ba8:	80 91 ef 3a 	lds	r24, 0x3AEF	; 0x803aef <tmp16bit>
     bac:	90 91 f0 3a 	lds	r25, 0x3AF0	; 0x803af0 <tmp16bit+0x1>
     bb0:	82 1b       	sub	r24, r18
     bb2:	93 0b       	sbc	r25, r19
     bb4:	80 93 ef 3a 	sts	0x3AEF, r24	; 0x803aef <tmp16bit>
     bb8:	90 93 f0 3a 	sts	0x3AF0, r25	; 0x803af0 <tmp16bit+0x1>
    while(RTC_STATUS & RTC_CMPBUSY_bm);
     bbc:	80 91 41 01 	lds	r24, 0x0141	; 0x800141 <__TEXT_REGION_LENGTH__+0x700141>
     bc0:	83 fd       	sbrc	r24, 3
     bc2:	fc cf       	rjmp	.-8      	; 0xbbc <Setup+0x1c4>
    RTC_CMP            = tmp16bit;                         //Button timing
     bc4:	80 91 ef 3a 	lds	r24, 0x3AEF	; 0x803aef <tmp16bit>
     bc8:	90 91 f0 3a 	lds	r25, 0x3AF0	; 0x803af0 <tmp16bit+0x1>
     bcc:	80 93 4c 01 	sts	0x014C, r24	; 0x80014c <__TEXT_REGION_LENGTH__+0x70014c>
     bd0:	90 93 4d 01 	sts	0x014D, r25	; 0x80014d <__TEXT_REGION_LENGTH__+0x70014d>
    RTC_INTCTRL        = 0x03;                             //RTC overflow interrupt enabled
     bd4:	83 e0       	ldi	r24, 0x03	; 3
     bd6:	80 93 42 01 	sts	0x0142, r24	; 0x800142 <__TEXT_REGION_LENGTH__+0x700142>
    RTC_PITINTCTRL     = 0x01;                             //PIT interrupt enabled
     bda:	81 e0       	ldi	r24, 0x01	; 1
     bdc:	80 93 52 01 	sts	0x0152, r24	; 0x800152 <__TEXT_REGION_LENGTH__+0x700152>
    RTC_PITCTRLA       = (0x1)<<3;                         //Interrupt fires after 4 RTC clock cycles Rate=(RTCCLK/(PRESC*PERIOD)) 32768/256=128Hz
     be0:	88 e0       	ldi	r24, 0x08	; 8
     be2:	80 93 50 01 	sts	0x0150, r24	; 0x800150 <__TEXT_REGION_LENGTH__+0x700150>
    while(RTC_STATUS & RTC_CTRLABUSY_bm);      
     be6:	80 91 41 01 	lds	r24, 0x0141	; 0x800141 <__TEXT_REGION_LENGTH__+0x700141>
     bea:	80 fd       	sbrc	r24, 0
     bec:	fc cf       	rjmp	.-8      	; 0xbe6 <Setup+0x1ee>
    RTC_CTRLA          |= 0x01;                            //Enable RTC
     bee:	80 91 40 01 	lds	r24, 0x0140	; 0x800140 <__TEXT_REGION_LENGTH__+0x700140>
     bf2:	81 60       	ori	r24, 0x01	; 1
     bf4:	80 93 40 01 	sts	0x0140, r24	; 0x800140 <__TEXT_REGION_LENGTH__+0x700140>
    RTC_PITCTRLA       |= 0x01;                            //Enable PIT
     bf8:	80 91 50 01 	lds	r24, 0x0150	; 0x800150 <__TEXT_REGION_LENGTH__+0x700150>
     bfc:	81 60       	ori	r24, 0x01	; 1
     bfe:	80 93 50 01 	sts	0x0150, r24	; 0x800150 <__TEXT_REGION_LENGTH__+0x700150>
     
    //Other inits
    serRx[0] = 0;           // Empty Rx buffer (first char is enough)
     c02:	10 92 75 3a 	sts	0x3A75, r1	; 0x803a75 <serRx>
    serTxAddr = &serRx[0];  // Point to first address of the Rx buffer
     c06:	85 e7       	ldi	r24, 0x75	; 117
     c08:	9a e3       	ldi	r25, 0x3A	; 58
     c0a:	80 93 b9 3a 	sts	0x3AB9, r24	; 0x803ab9 <serTxAddr>
     c0e:	90 93 ba 3a 	sts	0x3ABA, r25	; 0x803aba <serTxAddr+0x1>

    sei();
     c12:	78 94       	sei
}
     c14:	df 91       	pop	r29
     c16:	cf 91       	pop	r28
     c18:	08 95       	ret

00000c1a <__vector_8>:

// TCA0 is used for driving the LED matrix at 488Hz (* 5 columns = 2440Hz). The lower 8 bit underflow interrupt is used to load new values and shift between columns.
ISR(TCA0_LUNF_vect){
     c1a:	1f 92       	push	r1
     c1c:	0f 92       	push	r0
     c1e:	0f b6       	in	r0, 0x3f	; 63
     c20:	0f 92       	push	r0
     c22:	11 24       	eor	r1, r1
     c24:	8f 93       	push	r24
     c26:	9f 93       	push	r25
     c28:	af 93       	push	r26
     c2a:	bf 93       	push	r27
     c2c:	ef 93       	push	r30
     c2e:	ff 93       	push	r31
    //Turn off all columns
    PORTC_OUTCLR = 0x07;
     c30:	87 e0       	ldi	r24, 0x07	; 7
     c32:	80 93 46 04 	sts	0x0446, r24	; 0x800446 <__TEXT_REGION_LENGTH__+0x700446>
    PORTB_OUTCLR = 0x44;
     c36:	84 e4       	ldi	r24, 0x44	; 68
     c38:	80 93 26 04 	sts	0x0426, r24	; 0x800426 <__TEXT_REGION_LENGTH__+0x700426>
    "ldi r25, 6        \n"
    "ld r24, %a[arr]+  \n"
    "st %a[wo]+, r24   \n"
    "dec r25           \n"
    "brne .-8          \n"
    :: [wo] "e" (&TCA0_SPLIT_LCMP0), [arr] "e" (&iLED[(L_COL<<3)]) : "r25", "r24", "cc", "memory");
     c3c:	ec b3       	in	r30, 0x1c	; 28
     c3e:	88 e0       	ldi	r24, 0x08	; 8
     c40:	e8 9f       	mul	r30, r24
     c42:	f0 01       	movw	r30, r0
     c44:	11 24       	eor	r1, r1
     c46:	ed 53       	subi	r30, 0x3D	; 61
     c48:	f5 4c       	sbci	r31, 0xC5	; 197
    //Turn off all columns
    PORTC_OUTCLR = 0x07;
    PORTB_OUTCLR = 0x44;

    //Write all of the compare registers of TCA0 with PWM values in array (rows)
    asm(
     c4a:	a8 e2       	ldi	r26, 0x28	; 40
     c4c:	ba e0       	ldi	r27, 0x0A	; 10
     c4e:	96 e0       	ldi	r25, 0x06	; 6
     c50:	81 91       	ld	r24, Z+
     c52:	8d 93       	st	X+, r24
     c54:	9a 95       	dec	r25
     c56:	e1 f7       	brne	.-8      	; 0xc50 <__vector_8+0x36>
    "st %a[wo]+, r24   \n"
    "dec r25           \n"
    "brne .-8          \n"
    :: [wo] "e" (&TCA0_SPLIT_LCMP0), [arr] "e" (&iLED[(L_COL<<3)]) : "r25", "r24", "cc", "memory");

    TCA0_SPLIT_CTRLESET = ((0x2)<<2)|0x3; //Sync timers: Moved this below the PWM value loading to fix the data shifting in asm above.
     c58:	8b e0       	ldi	r24, 0x0B	; 11
     c5a:	80 93 05 0a 	sts	0x0A05, r24	; 0x800a05 <__TEXT_REGION_LENGTH__+0x700a05>

    //Turn on the right column
    if (L_COL<3) {
     c5e:	8c b3       	in	r24, 0x1c	; 28
     c60:	83 30       	cpi	r24, 0x03	; 3
     c62:	58 f4       	brcc	.+22     	; 0xc7a <__vector_8+0x60>
        asm(
     c64:	8c b3       	in	r24, 0x1c	; 28
     c66:	91 e0       	ldi	r25, 0x01	; 1
     c68:	01 c0       	rjmp	.+2      	; 0xc6c <__vector_8+0x52>
     c6a:	99 0f       	add	r25, r25
     c6c:	8a 95       	dec	r24
     c6e:	ea f7       	brpl	.-6      	; 0xc6a <__vector_8+0x50>
     c70:	99 b9       	out	0x09, r25	; 9
     c72:	8c b3       	in	r24, 0x1c	; 28
     c74:	83 95       	inc	r24
     c76:	8c bb       	out	0x1c, r24	; 28
     c78:	0a c0       	rjmp	.+20     	; 0xc8e <__vector_8+0x74>
        "in r24, %[io0]  \n"
        "inc r24         \n"
        "out %[io0], r24 \n"
        :: [io0] "I" (&L_COL), [vpc] "I" (&VPORTC_OUT) : "r24", "r25", "cc");
        } else {
        asm(
     c7a:	8c b3       	in	r24, 0x1c	; 28
     c7c:	83 30       	cpi	r24, 0x03	; 3
     c7e:	21 f4       	brne	.+8      	; 0xc88 <__vector_8+0x6e>
     c80:	2a 9a       	sbi	0x05, 2	; 5
     c82:	83 95       	inc	r24
     c84:	8c bb       	out	0x1c, r24	; 28
     c86:	03 c0       	rjmp	.+6      	; 0xc8e <__vector_8+0x74>
     c88:	2e 9a       	sbi	0x05, 6	; 5
     c8a:	88 27       	eor	r24, r24
     c8c:	8c bb       	out	0x1c, r24	; 28
        "clr r24         \n"
        "out %[io0], r24 \n"
        :: [io0] "I" (&L_COL), [vpb] "I" (&VPORTB_OUT) : "r24", "cc");
    }
    
    if(timeout_I2C) --timeout_I2C;
     c8e:	80 91 60 3a 	lds	r24, 0x3A60	; 0x803a60 <timeout_I2C>
     c92:	88 23       	and	r24, r24
     c94:	29 f0       	breq	.+10     	; 0xca0 <__vector_8+0x86>
     c96:	80 91 60 3a 	lds	r24, 0x3A60	; 0x803a60 <timeout_I2C>
     c9a:	81 50       	subi	r24, 0x01	; 1
     c9c:	80 93 60 3a 	sts	0x3A60, r24	; 0x803a60 <timeout_I2C>
    TCA0_SPLIT_INTFLAGS = 0xFF;
     ca0:	8f ef       	ldi	r24, 0xFF	; 255
     ca2:	80 93 0b 0a 	sts	0x0A0B, r24	; 0x800a0b <__TEXT_REGION_LENGTH__+0x700a0b>
}
     ca6:	ff 91       	pop	r31
     ca8:	ef 91       	pop	r30
     caa:	bf 91       	pop	r27
     cac:	af 91       	pop	r26
     cae:	9f 91       	pop	r25
     cb0:	8f 91       	pop	r24
     cb2:	0f 90       	pop	r0
     cb4:	0f be       	out	0x3f, r0	; 63
     cb6:	0f 90       	pop	r0
     cb8:	1f 90       	pop	r1
     cba:	18 95       	reti

00000cbc <__vector_13>:

// TCB0 is used for (slowly) sending serial characters. A 0x00 character code is needed to terminate sending or it will leak memory to serial. It's a feature, honest! 
ISR(TCB0_INT_vect){
     cbc:	1f 92       	push	r1
     cbe:	0f 92       	push	r0
     cc0:	0f b6       	in	r0, 0x3f	; 63
     cc2:	0f 92       	push	r0
     cc4:	11 24       	eor	r1, r1
     cc6:	8f 93       	push	r24
     cc8:	9f 93       	push	r25
     cca:	ef 93       	push	r30
     ccc:	ff 93       	push	r31
    if (*serTxAddr) {
     cce:	e0 91 b9 3a 	lds	r30, 0x3AB9	; 0x803ab9 <serTxAddr>
     cd2:	f0 91 ba 3a 	lds	r31, 0x3ABA	; 0x803aba <serTxAddr+0x1>
     cd6:	80 81       	ld	r24, Z
     cd8:	88 23       	and	r24, r24
     cda:	91 f0       	breq	.+36     	; 0xd00 <__vector_13+0x44>
        USART0_TXDATAL = *serTxAddr;
     cdc:	80 81       	ld	r24, Z
     cde:	80 93 02 08 	sts	0x0802, r24	; 0x800802 <__TEXT_REGION_LENGTH__+0x700802>
        serTxAddr++;
     ce2:	80 91 b9 3a 	lds	r24, 0x3AB9	; 0x803ab9 <serTxAddr>
     ce6:	90 91 ba 3a 	lds	r25, 0x3ABA	; 0x803aba <serTxAddr+0x1>
     cea:	01 96       	adiw	r24, 0x01	; 1
     cec:	80 93 b9 3a 	sts	0x3AB9, r24	; 0x803ab9 <serTxAddr>
     cf0:	90 93 ba 3a 	sts	0x3ABA, r25	; 0x803aba <serTxAddr+0x1>
        USART0_CTRLA |= USART_DREIE_bm;
     cf4:	80 91 05 08 	lds	r24, 0x0805	; 0x800805 <__TEXT_REGION_LENGTH__+0x700805>
     cf8:	80 62       	ori	r24, 0x20	; 32
     cfa:	80 93 05 08 	sts	0x0805, r24	; 0x800805 <__TEXT_REGION_LENGTH__+0x700805>
     cfe:	05 c0       	rjmp	.+10     	; 0xd0a <__vector_13+0x4e>
    } else {
        serTxDone = 1;
     d00:	81 e0       	ldi	r24, 0x01	; 1
     d02:	80 93 09 38 	sts	0x3809, r24	; 0x803809 <serTxDone>
        TCB0_INTCTRL = 0x00;
     d06:	10 92 45 0a 	sts	0x0A45, r1	; 0x800a45 <__TEXT_REGION_LENGTH__+0x700a45>
    }
    TCB0_INTFLAGS = TCB_CAPT_bm;
     d0a:	81 e0       	ldi	r24, 0x01	; 1
     d0c:	80 93 46 0a 	sts	0x0A46, r24	; 0x800a46 <__TEXT_REGION_LENGTH__+0x700a46>
}
     d10:	ff 91       	pop	r31
     d12:	ef 91       	pop	r30
     d14:	9f 91       	pop	r25
     d16:	8f 91       	pop	r24
     d18:	0f 90       	pop	r0
     d1a:	0f be       	out	0x3f, r0	; 63
     d1c:	0f 90       	pop	r0
     d1e:	1f 90       	pop	r1
     d20:	18 95       	reti

00000d22 <__vector_14>:

// TCB1 is used for audio generation. Keeps playing "data" until 0 is reached. Audio sample data can contain 0x01 to 0xFF, centered around 0x80
ISR(TCB1_INT_vect){
     d22:	1f 92       	push	r1
     d24:	0f 92       	push	r0
     d26:	0f b6       	in	r0, 0x3f	; 63
     d28:	0f 92       	push	r0
     d2a:	11 24       	eor	r1, r1
     d2c:	2f 93       	push	r18
     d2e:	3f 93       	push	r19
     d30:	4f 93       	push	r20
     d32:	8f 93       	push	r24
     d34:	9f 93       	push	r25
     d36:	ef 93       	push	r30
     d38:	ff 93       	push	r31
    int16_t volCtrl;
    if (*auSmpAddr == 0) auSmpAddr = auRepAddr;
     d3a:	e0 91 05 38 	lds	r30, 0x3805	; 0x803805 <auSmpAddr>
     d3e:	f0 91 06 38 	lds	r31, 0x3806	; 0x803806 <auSmpAddr+0x1>
     d42:	80 81       	ld	r24, Z
     d44:	81 11       	cpse	r24, r1
     d46:	08 c0       	rjmp	.+16     	; 0xd58 <__vector_14+0x36>
     d48:	80 91 03 38 	lds	r24, 0x3803	; 0x803803 <auRepAddr>
     d4c:	90 91 04 38 	lds	r25, 0x3804	; 0x803804 <auRepAddr+0x1>
     d50:	80 93 05 38 	sts	0x3805, r24	; 0x803805 <auSmpAddr>
     d54:	90 93 06 38 	sts	0x3806, r25	; 0x803806 <auSmpAddr+0x1>
    if (*auSmpAddr) {
     d58:	e0 91 05 38 	lds	r30, 0x3805	; 0x803805 <auSmpAddr>
     d5c:	f0 91 06 38 	lds	r31, 0x3806	; 0x803806 <auSmpAddr+0x1>
     d60:	80 81       	ld	r24, Z
     d62:	88 23       	and	r24, r24
     d64:	e1 f0       	breq	.+56     	; 0xd9e <__vector_14+0x7c>
        volCtrl = ((((int16_t)(*auSmpAddr) - 0x7f) * auVolume) >> 8) + 0x80;
     d66:	20 81       	ld	r18, Z
     d68:	40 91 b6 3a 	lds	r20, 0x3AB6	; 0x803ab6 <auVolume>
        DAC0_DATA = (uint8_t)(volCtrl);
     d6c:	30 e0       	ldi	r19, 0x00	; 0
     d6e:	2f 57       	subi	r18, 0x7F	; 127
     d70:	31 09       	sbc	r19, r1
     d72:	42 9f       	mul	r20, r18
     d74:	c0 01       	movw	r24, r0
     d76:	43 9f       	mul	r20, r19
     d78:	90 0d       	add	r25, r0
     d7a:	11 24       	eor	r1, r1
     d7c:	89 2f       	mov	r24, r25
     d7e:	99 0f       	add	r25, r25
     d80:	99 0b       	sbc	r25, r25
     d82:	80 58       	subi	r24, 0x80	; 128
     d84:	9f 4f       	sbci	r25, 0xFF	; 255
     d86:	80 93 a1 06 	sts	0x06A1, r24	; 0x8006a1 <__TEXT_REGION_LENGTH__+0x7006a1>
        ++auSmpAddr;
     d8a:	80 91 05 38 	lds	r24, 0x3805	; 0x803805 <auSmpAddr>
     d8e:	90 91 06 38 	lds	r25, 0x3806	; 0x803806 <auSmpAddr+0x1>
     d92:	01 96       	adiw	r24, 0x01	; 1
     d94:	80 93 05 38 	sts	0x3805, r24	; 0x803805 <auSmpAddr>
     d98:	90 93 06 38 	sts	0x3806, r25	; 0x803806 <auSmpAddr+0x1>
     d9c:	03 c0       	rjmp	.+6      	; 0xda4 <__vector_14+0x82>
    } else {
        DAC0_DATA = 0x80;
     d9e:	80 e8       	ldi	r24, 0x80	; 128
     da0:	80 93 a1 06 	sts	0x06A1, r24	; 0x8006a1 <__TEXT_REGION_LENGTH__+0x7006a1>
    }
    TCB1_INTFLAGS = TCB_CAPT_bm;
     da4:	81 e0       	ldi	r24, 0x01	; 1
     da6:	80 93 56 0a 	sts	0x0A56, r24	; 0x800a56 <__TEXT_REGION_LENGTH__+0x700a56>
}
     daa:	ff 91       	pop	r31
     dac:	ef 91       	pop	r30
     dae:	9f 91       	pop	r25
     db0:	8f 91       	pop	r24
     db2:	4f 91       	pop	r20
     db4:	3f 91       	pop	r19
     db6:	2f 91       	pop	r18
     db8:	0f 90       	pop	r0
     dba:	0f be       	out	0x3f, r0	; 63
     dbc:	0f 90       	pop	r0
     dbe:	1f 90       	pop	r1
     dc0:	18 95       	reti

00000dc2 <__vector_27>:

// Reads up to RXLEN characters until LF is found, LF sets the serRxDone flag and writes 0 instead of LF.
ISR(USART0_RXC_vect){
     dc2:	1f 92       	push	r1
     dc4:	0f 92       	push	r0
     dc6:	0f b6       	in	r0, 0x3f	; 63
     dc8:	0f 92       	push	r0
     dca:	11 24       	eor	r1, r1
     dcc:	8f 93       	push	r24
     dce:	ef 93       	push	r30
     dd0:	ff 93       	push	r31
    if (serRxDone == 0){
     dd2:	80 91 44 38 	lds	r24, 0x3844	; 0x803844 <serRxDone>
     dd6:	81 11       	cpse	r24, r1
     dd8:	44 c0       	rjmp	.+136    	; 0xe62 <__vector_27+0xa0>
        serRx[RXCNT] = USART0.RXDATAL;
     dda:	ed b3       	in	r30, 0x1d	; 29
     ddc:	f0 e0       	ldi	r31, 0x00	; 0
     dde:	80 91 00 08 	lds	r24, 0x0800	; 0x800800 <__TEXT_REGION_LENGTH__+0x700800>
     de2:	eb 58       	subi	r30, 0x8B	; 139
     de4:	f5 4c       	sbci	r31, 0xC5	; 197
     de6:	80 83       	st	Z, r24
        USART0_TXDATAL = serRx[RXCNT];
     de8:	ed b3       	in	r30, 0x1d	; 29
     dea:	f0 e0       	ldi	r31, 0x00	; 0
     dec:	eb 58       	subi	r30, 0x8B	; 139
     dee:	f5 4c       	sbci	r31, 0xC5	; 197
     df0:	80 81       	ld	r24, Z
     df2:	80 93 02 08 	sts	0x0802, r24	; 0x800802 <__TEXT_REGION_LENGTH__+0x700802>
        if ((serRx[RXCNT] == 0x0A)||(serRx[RXCNT] == 0x0D)){
     df6:	ed b3       	in	r30, 0x1d	; 29
     df8:	f0 e0       	ldi	r31, 0x00	; 0
     dfa:	eb 58       	subi	r30, 0x8B	; 139
     dfc:	f5 4c       	sbci	r31, 0xC5	; 197
     dfe:	80 81       	ld	r24, Z
     e00:	8a 30       	cpi	r24, 0x0A	; 10
     e02:	39 f0       	breq	.+14     	; 0xe12 <__vector_27+0x50>
     e04:	ed b3       	in	r30, 0x1d	; 29
     e06:	f0 e0       	ldi	r31, 0x00	; 0
     e08:	eb 58       	subi	r30, 0x8B	; 139
     e0a:	f5 4c       	sbci	r31, 0xC5	; 197
     e0c:	80 81       	ld	r24, Z
     e0e:	8d 30       	cpi	r24, 0x0D	; 13
     e10:	49 f4       	brne	.+18     	; 0xe24 <__vector_27+0x62>
            serRx[RXCNT] = 0;
     e12:	ed b3       	in	r30, 0x1d	; 29
     e14:	f0 e0       	ldi	r31, 0x00	; 0
     e16:	eb 58       	subi	r30, 0x8B	; 139
     e18:	f5 4c       	sbci	r31, 0xC5	; 197
     e1a:	10 82       	st	Z, r1
            serRxDone = 1;
     e1c:	81 e0       	ldi	r24, 0x01	; 1
     e1e:	80 93 44 38 	sts	0x3844, r24	; 0x803844 <serRxDone>
     e22:	1f c0       	rjmp	.+62     	; 0xe62 <__vector_27+0xa0>
        } else if (((serRx[RXCNT] == 0x08)||(serRx[RXCNT] == 0x7F))&&(RXCNT > 0)) {
     e24:	ed b3       	in	r30, 0x1d	; 29
     e26:	f0 e0       	ldi	r31, 0x00	; 0
     e28:	eb 58       	subi	r30, 0x8B	; 139
     e2a:	f5 4c       	sbci	r31, 0xC5	; 197
     e2c:	80 81       	ld	r24, Z
     e2e:	88 30       	cpi	r24, 0x08	; 8
     e30:	39 f0       	breq	.+14     	; 0xe40 <__vector_27+0x7e>
     e32:	ed b3       	in	r30, 0x1d	; 29
     e34:	f0 e0       	ldi	r31, 0x00	; 0
     e36:	eb 58       	subi	r30, 0x8B	; 139
     e38:	f5 4c       	sbci	r31, 0xC5	; 197
     e3a:	80 81       	ld	r24, Z
     e3c:	8f 37       	cpi	r24, 0x7F	; 127
     e3e:	59 f4       	brne	.+22     	; 0xe56 <__vector_27+0x94>
     e40:	8d b3       	in	r24, 0x1d	; 29
     e42:	88 23       	and	r24, r24
     e44:	41 f0       	breq	.+16     	; 0xe56 <__vector_27+0x94>
            serRx[RXCNT] = 0;
     e46:	ed b3       	in	r30, 0x1d	; 29
     e48:	f0 e0       	ldi	r31, 0x00	; 0
     e4a:	eb 58       	subi	r30, 0x8B	; 139
     e4c:	f5 4c       	sbci	r31, 0xC5	; 197
     e4e:	10 82       	st	Z, r1
            --RXCNT;
     e50:	8d b3       	in	r24, 0x1d	; 29
     e52:	81 50       	subi	r24, 0x01	; 1
     e54:	05 c0       	rjmp	.+10     	; 0xe60 <__vector_27+0x9e>
        } else if (RXCNT < (RXLEN-1)) ++RXCNT;
     e56:	8d b3       	in	r24, 0x1d	; 29
     e58:	80 34       	cpi	r24, 0x40	; 64
     e5a:	18 f4       	brcc	.+6      	; 0xe62 <__vector_27+0xa0>
     e5c:	8d b3       	in	r24, 0x1d	; 29
     e5e:	8f 5f       	subi	r24, 0xFF	; 255
     e60:	8d bb       	out	0x1d, r24	; 29
    }
    USART0_STATUS = USART_RXCIF_bm;
     e62:	80 e8       	ldi	r24, 0x80	; 128
     e64:	80 93 04 08 	sts	0x0804, r24	; 0x800804 <__TEXT_REGION_LENGTH__+0x700804>
};
     e68:	ff 91       	pop	r31
     e6a:	ef 91       	pop	r30
     e6c:	8f 91       	pop	r24
     e6e:	0f 90       	pop	r0
     e70:	0f be       	out	0x3f, r0	; 63
     e72:	0f 90       	pop	r0
     e74:	1f 90       	pop	r1
     e76:	18 95       	reti

00000e78 <__vector_28>:

// Trigger new data write and turn off DRE interrupt.
ISR(USART0_DRE_vect){
     e78:	1f 92       	push	r1
     e7a:	0f 92       	push	r0
     e7c:	0f b6       	in	r0, 0x3f	; 63
     e7e:	0f 92       	push	r0
     e80:	11 24       	eor	r1, r1
     e82:	8f 93       	push	r24
     e84:	ef 93       	push	r30
     e86:	ff 93       	push	r31
    TCB0_CNT = 0;
     e88:	10 92 4a 0a 	sts	0x0A4A, r1	; 0x800a4a <__TEXT_REGION_LENGTH__+0x700a4a>
     e8c:	10 92 4b 0a 	sts	0x0A4B, r1	; 0x800a4b <__TEXT_REGION_LENGTH__+0x700a4b>
    TCB0_INTCTRL = 0x01;
     e90:	81 e0       	ldi	r24, 0x01	; 1
     e92:	80 93 45 0a 	sts	0x0A45, r24	; 0x800a45 <__TEXT_REGION_LENGTH__+0x700a45>
    USART0_CTRLA &= ~(USART_DREIE_bm);
     e96:	e5 e0       	ldi	r30, 0x05	; 5
     e98:	f8 e0       	ldi	r31, 0x08	; 8
     e9a:	80 81       	ld	r24, Z
     e9c:	8f 7d       	andi	r24, 0xDF	; 223
     e9e:	80 83       	st	Z, r24
};
     ea0:	ff 91       	pop	r31
     ea2:	ef 91       	pop	r30
     ea4:	8f 91       	pop	r24
     ea6:	0f 90       	pop	r0
     ea8:	0f be       	out	0x3f, r0	; 63
     eaa:	0f 90       	pop	r0
     eac:	1f 90       	pop	r1
     eae:	18 95       	reti

00000eb0 <__vector_20>:

// ADC used for audio input and temperature sensor.
ISR(ADC0_RESRDY_vect){
     eb0:	1f 92       	push	r1
     eb2:	0f 92       	push	r0
     eb4:	0f b6       	in	r0, 0x3f	; 63
     eb6:	0f 92       	push	r0
     eb8:	11 24       	eor	r1, r1
     eba:	8f 93       	push	r24
     ebc:	9f 93       	push	r25
    //If just switched reference, discard first few samples
    if (adc0Chg == 0){
     ebe:	80 91 38 38 	lds	r24, 0x3838	; 0x803838 <adc0Chg>
     ec2:	81 11       	cpse	r24, r1
     ec4:	12 c0       	rjmp	.+36     	; 0xeea <__vector_20+0x3a>
        if (ADC0_MUXPOS == 0x1E) adcTemp = ADC0_RES; else auIn=ADC0_RESL;
     ec6:	80 91 06 06 	lds	r24, 0x0606	; 0x800606 <__TEXT_REGION_LENGTH__+0x700606>
     eca:	8e 31       	cpi	r24, 0x1E	; 30
     ecc:	49 f4       	brne	.+18     	; 0xee0 <__vector_20+0x30>
     ece:	80 91 10 06 	lds	r24, 0x0610	; 0x800610 <__TEXT_REGION_LENGTH__+0x700610>
     ed2:	90 91 11 06 	lds	r25, 0x0611	; 0x800611 <__TEXT_REGION_LENGTH__+0x700611>
     ed6:	80 93 ed 3a 	sts	0x3AED, r24	; 0x803aed <adcTemp>
     eda:	90 93 ee 3a 	sts	0x3AEE, r25	; 0x803aee <adcTemp+0x1>
     ede:	0a c0       	rjmp	.+20     	; 0xef4 <__vector_20+0x44>
     ee0:	80 91 10 06 	lds	r24, 0x0610	; 0x800610 <__TEXT_REGION_LENGTH__+0x700610>
     ee4:	80 93 c2 3a 	sts	0x3AC2, r24	; 0x803ac2 <auIn>
     ee8:	05 c0       	rjmp	.+10     	; 0xef4 <__vector_20+0x44>
    } else --adc0Chg;
     eea:	80 91 38 38 	lds	r24, 0x3838	; 0x803838 <adc0Chg>
     eee:	81 50       	subi	r24, 0x01	; 1
     ef0:	80 93 38 38 	sts	0x3838, r24	; 0x803838 <adc0Chg>
    ADC0_INTFLAGS = ADC_RESRDY_bm;
     ef4:	81 e0       	ldi	r24, 0x01	; 1
     ef6:	80 93 0b 06 	sts	0x060B, r24	; 0x80060b <__TEXT_REGION_LENGTH__+0x70060b>
}
     efa:	9f 91       	pop	r25
     efc:	8f 91       	pop	r24
     efe:	0f 90       	pop	r0
     f00:	0f be       	out	0x3f, r0	; 63
     f02:	0f 90       	pop	r0
     f04:	1f 90       	pop	r1
     f06:	18 95       	reti

00000f08 <__vector_22>:

// Reads out sensors at 8Hz and buttons at 42Hz (timed by PIT), power for the sensors is on 1/8th of the time to save power.
ISR(ADC1_RESRDY_vect){
     f08:	1f 92       	push	r1
     f0a:	0f 92       	push	r0
     f0c:	0f b6       	in	r0, 0x3f	; 63
     f0e:	0f 92       	push	r0
     f10:	11 24       	eor	r1, r1
     f12:	8f 93       	push	r24
     f14:	9f 93       	push	r25
    if (ADC1_MUXPOS == 0) {
     f16:	80 91 46 06 	lds	r24, 0x0646	; 0x800646 <__TEXT_REGION_LENGTH__+0x700646>
     f1a:	81 11       	cpse	r24, r1
     f1c:	0a c0       	rjmp	.+20     	; 0xf32 <__vector_22+0x2a>
        adcPhot = ADC1_RES;
     f1e:	80 91 50 06 	lds	r24, 0x0650	; 0x800650 <__TEXT_REGION_LENGTH__+0x700650>
     f22:	90 91 51 06 	lds	r25, 0x0651	; 0x800651 <__TEXT_REGION_LENGTH__+0x700651>
     f26:	80 93 bd 3a 	sts	0x3ABD, r24	; 0x803abd <adcPhot>
     f2a:	90 93 be 3a 	sts	0x3ABE, r25	; 0x803abe <adcPhot+0x1>
        ADC1_MUXPOS = 0x01;             //Select Hall sensor
     f2e:	81 e0       	ldi	r24, 0x01	; 1
     f30:	10 c0       	rjmp	.+32     	; 0xf52 <__vector_22+0x4a>
    } else if (ADC1_MUXPOS == 1){
     f32:	80 91 46 06 	lds	r24, 0x0646	; 0x800646 <__TEXT_REGION_LENGTH__+0x700646>
     f36:	81 30       	cpi	r24, 0x01	; 1
     f38:	79 f4       	brne	.+30     	; 0xf58 <__vector_22+0x50>
        PORTA_OUTCLR = 0b00001000;      //Turn off sensor power
     f3a:	88 e0       	ldi	r24, 0x08	; 8
     f3c:	80 93 06 04 	sts	0x0406, r24	; 0x800406 <__TEXT_REGION_LENGTH__+0x700406>
        adcHall = ADC1_RES;
     f40:	80 91 50 06 	lds	r24, 0x0650	; 0x800650 <__TEXT_REGION_LENGTH__+0x700650>
     f44:	90 91 51 06 	lds	r25, 0x0651	; 0x800651 <__TEXT_REGION_LENGTH__+0x700651>
     f48:	80 93 bb 3a 	sts	0x3ABB, r24	; 0x803abb <adcHall>
     f4c:	90 93 bc 3a 	sts	0x3ABC, r25	; 0x803abc <adcHall+0x1>
        ADC1_MUXPOS = 0x04;             //select buttons
     f50:	84 e0       	ldi	r24, 0x04	; 4
     f52:	80 93 46 06 	sts	0x0646, r24	; 0x800646 <__TEXT_REGION_LENGTH__+0x700646>
     f56:	10 c0       	rjmp	.+32     	; 0xf78 <__vector_22+0x70>
    } else {
        adcBtns = ADC1_RES;
     f58:	80 91 50 06 	lds	r24, 0x0650	; 0x800650 <__TEXT_REGION_LENGTH__+0x700650>
     f5c:	90 91 51 06 	lds	r25, 0x0651	; 0x800651 <__TEXT_REGION_LENGTH__+0x700651>
     f60:	80 93 b7 3a 	sts	0x3AB7, r24	; 0x803ab7 <adcBtns>
     f64:	90 93 b8 3a 	sts	0x3AB8, r25	; 0x803ab8 <adcBtns+0x1>
        if (A1CNT == 15){
     f68:	8f b3       	in	r24, 0x1f	; 31
     f6a:	8f 30       	cpi	r24, 0x0F	; 15
     f6c:	29 f4       	brne	.+10     	; 0xf78 <__vector_22+0x70>
            ADC1_MUXPOS = 0x00;         //Select photo transistor
     f6e:	10 92 46 06 	sts	0x0646, r1	; 0x800646 <__TEXT_REGION_LENGTH__+0x700646>
            PORTA_OUTSET = 0b00001000;  //Turn on sensor power
     f72:	88 e0       	ldi	r24, 0x08	; 8
     f74:	80 93 05 04 	sts	0x0405, r24	; 0x800405 <__TEXT_REGION_LENGTH__+0x700405>
        }
    }

    A1CNT=(A1CNT+1)%16;        
     f78:	8f b3       	in	r24, 0x1f	; 31
     f7a:	90 e0       	ldi	r25, 0x00	; 0
     f7c:	01 96       	adiw	r24, 0x01	; 1
     f7e:	8f 70       	andi	r24, 0x0F	; 15
     f80:	99 27       	eor	r25, r25
     f82:	8f bb       	out	0x1f, r24	; 31
    ADC1_INTFLAGS = ADC_RESRDY_bm;
     f84:	81 e0       	ldi	r24, 0x01	; 1
     f86:	80 93 4b 06 	sts	0x064B, r24	; 0x80064b <__TEXT_REGION_LENGTH__+0x70064b>
}
     f8a:	9f 91       	pop	r25
     f8c:	8f 91       	pop	r24
     f8e:	0f 90       	pop	r0
     f90:	0f be       	out	0x3f, r0	; 63
     f92:	0f 90       	pop	r0
     f94:	1f 90       	pop	r1
     f96:	18 95       	reti

00000f98 <__vector_6>:

// RTC compare interrupt, triggers at 512/BTN_TMR rate, also RTC overflow interrupt, triggers once a minute
ISR(RTC_CNT_vect) {
     f98:	1f 92       	push	r1
     f9a:	0f 92       	push	r0
     f9c:	0f b6       	in	r0, 0x3f	; 63
     f9e:	0f 92       	push	r0
     fa0:	11 24       	eor	r1, r1
     fa2:	2f 93       	push	r18
     fa4:	3f 93       	push	r19
     fa6:	8f 93       	push	r24
     fa8:	9f 93       	push	r25
    if (RTC_INTFLAGS & RTC_CMP_bm){
     faa:	80 91 43 01 	lds	r24, 0x0143	; 0x800143 <__TEXT_REGION_LENGTH__+0x700143>
     fae:	81 ff       	sbrs	r24, 1
     fb0:	39 c0       	rjmp	.+114    	; 0x1024 <__vector_6+0x8c>
        if (buttonMark<0xff) buttonMark++;   // For button timing purposes
     fb2:	80 91 42 38 	lds	r24, 0x3842	; 0x803842 <buttonMark>
     fb6:	8f 3f       	cpi	r24, 0xFF	; 255
     fb8:	29 f0       	breq	.+10     	; 0xfc4 <__vector_6+0x2c>
     fba:	80 91 42 38 	lds	r24, 0x3842	; 0x803842 <buttonMark>
     fbe:	8f 5f       	subi	r24, 0xFF	; 255
     fc0:	80 93 42 38 	sts	0x3842, r24	; 0x803842 <buttonMark>
        //tmp16bit = (RTC_CNT + BTN_TMR)%RTC_PER;
        tmp16bit = (RTC_CNT + BTN_TMR);
     fc4:	80 91 48 01 	lds	r24, 0x0148	; 0x800148 <__TEXT_REGION_LENGTH__+0x700148>
     fc8:	90 91 49 01 	lds	r25, 0x0149	; 0x800149 <__TEXT_REGION_LENGTH__+0x700149>
     fcc:	82 96       	adiw	r24, 0x22	; 34
     fce:	80 93 ef 3a 	sts	0x3AEF, r24	; 0x803aef <tmp16bit>
     fd2:	90 93 f0 3a 	sts	0x3AF0, r25	; 0x803af0 <tmp16bit+0x1>
        if (tmp16bit > RTC_PER) tmp16bit -= RTC_PER;
     fd6:	20 91 4a 01 	lds	r18, 0x014A	; 0x80014a <__TEXT_REGION_LENGTH__+0x70014a>
     fda:	30 91 4b 01 	lds	r19, 0x014B	; 0x80014b <__TEXT_REGION_LENGTH__+0x70014b>
     fde:	80 91 ef 3a 	lds	r24, 0x3AEF	; 0x803aef <tmp16bit>
     fe2:	90 91 f0 3a 	lds	r25, 0x3AF0	; 0x803af0 <tmp16bit+0x1>
     fe6:	28 17       	cp	r18, r24
     fe8:	39 07       	cpc	r19, r25
     fea:	70 f4       	brcc	.+28     	; 0x1008 <__vector_6+0x70>
     fec:	20 91 4a 01 	lds	r18, 0x014A	; 0x80014a <__TEXT_REGION_LENGTH__+0x70014a>
     ff0:	30 91 4b 01 	lds	r19, 0x014B	; 0x80014b <__TEXT_REGION_LENGTH__+0x70014b>
     ff4:	80 91 ef 3a 	lds	r24, 0x3AEF	; 0x803aef <tmp16bit>
     ff8:	90 91 f0 3a 	lds	r25, 0x3AF0	; 0x803af0 <tmp16bit+0x1>
     ffc:	82 1b       	sub	r24, r18
     ffe:	93 0b       	sbc	r25, r19
    1000:	80 93 ef 3a 	sts	0x3AEF, r24	; 0x803aef <tmp16bit>
    1004:	90 93 f0 3a 	sts	0x3AF0, r25	; 0x803af0 <tmp16bit+0x1>
        while(RTC_STATUS & RTC_CMPBUSY_bm);
    1008:	80 91 41 01 	lds	r24, 0x0141	; 0x800141 <__TEXT_REGION_LENGTH__+0x700141>
    100c:	83 fd       	sbrc	r24, 3
    100e:	fc cf       	rjmp	.-8      	; 0x1008 <__vector_6+0x70>
        RTC_CMP = tmp16bit;                 // Button timing: next interrupt set
    1010:	80 91 ef 3a 	lds	r24, 0x3AEF	; 0x803aef <tmp16bit>
    1014:	90 91 f0 3a 	lds	r25, 0x3AF0	; 0x803af0 <tmp16bit+0x1>
    1018:	80 93 4c 01 	sts	0x014C, r24	; 0x80014c <__TEXT_REGION_LENGTH__+0x70014c>
    101c:	90 93 4d 01 	sts	0x014D, r25	; 0x80014d <__TEXT_REGION_LENGTH__+0x70014d>
        RTC_INTFLAGS = RTC_CMP_bm;		    // clear interrupt flag
    1020:	82 e0       	ldi	r24, 0x02	; 2
    1022:	06 c0       	rjmp	.+12     	; 0x1030 <__vector_6+0x98>
    } else {
        minuteMark++;                       // For very slow timing purposes, overflows to 0
    1024:	80 91 43 38 	lds	r24, 0x3843	; 0x803843 <minuteMark>
    1028:	8f 5f       	subi	r24, 0xFF	; 255
    102a:	80 93 43 38 	sts	0x3843, r24	; 0x803843 <minuteMark>
        RTC_INTFLAGS = RTC_OVF_bm;		    // clear interrupt flag
    102e:	81 e0       	ldi	r24, 0x01	; 1
    1030:	80 93 43 01 	sts	0x0143, r24	; 0x800143 <__TEXT_REGION_LENGTH__+0x700143>
    }
}
    1034:	9f 91       	pop	r25
    1036:	8f 91       	pop	r24
    1038:	3f 91       	pop	r19
    103a:	2f 91       	pop	r18
    103c:	0f 90       	pop	r0
    103e:	0f be       	out	0x3f, r0	; 63
    1040:	0f 90       	pop	r0
    1042:	1f 90       	pop	r1
    1044:	18 95       	reti

00001046 <__vector_7>:

// PIT interrupt (timing of ADC1: sensor values)
ISR(RTC_PIT_vect) {						// PIT interrupt handling code
    1046:	1f 92       	push	r1
    1048:	0f 92       	push	r0
    104a:	0f b6       	in	r0, 0x3f	; 63
    104c:	0f 92       	push	r0
    104e:	11 24       	eor	r1, r1
    1050:	8f 93       	push	r24
    ADC1_COMMAND = 0x01;
    1052:	81 e0       	ldi	r24, 0x01	; 1
    1054:	80 93 48 06 	sts	0x0648, r24	; 0x800648 <__TEXT_REGION_LENGTH__+0x700648>
    RTC_PITINTFLAGS = RTC_PI_bm;		// clear interrupt flag
    1058:	80 93 53 01 	sts	0x0153, r24	; 0x800153 <__TEXT_REGION_LENGTH__+0x700153>
}
    105c:	8f 91       	pop	r24
    105e:	0f 90       	pop	r0
    1060:	0f be       	out	0x3f, r0	; 63
    1062:	0f 90       	pop	r0
    1064:	1f 90       	pop	r1
    1066:	18 95       	reti

00001068 <EERead>:

// Read bytes from EEPROM
void EERead(uint8_t eeAddr, uint8_t *eeValues, uint8_t size)
{
    while(NVMCTRL_STATUS & NVMCTRL_EEBUSY_bm);              // Wait until any write operation has finished
    1068:	90 91 02 10 	lds	r25, 0x1002	; 0x801002 <__TEXT_REGION_LENGTH__+0x701002>
    106c:	91 fd       	sbrc	r25, 1
    106e:	fc cf       	rjmp	.-8      	; 0x1068 <EERead>
    1070:	fb 01       	movw	r30, r22
    1072:	48 0f       	add	r20, r24

    while(size){
    1074:	84 17       	cp	r24, r20
    1076:	39 f0       	breq	.+14     	; 0x1086 <EERead+0x1e>
        *eeValues++ = *(uint8_t *)(EEPROM_START+eeAddr++);  // Read data from buffer
    1078:	a8 2f       	mov	r26, r24
    107a:	b0 e0       	ldi	r27, 0x00	; 0
    107c:	bc 5e       	subi	r27, 0xEC	; 236
    107e:	9c 91       	ld	r25, X
    1080:	91 93       	st	Z+, r25
    1082:	8f 5f       	subi	r24, 0xFF	; 255
    1084:	f7 cf       	rjmp	.-18     	; 0x1074 <EERead+0xc>
        --size;
    }
}
    1086:	08 95       	ret

00001088 <EEWrite>:
{
    uint8_t lastByteOfPage;
    while(size){
        lastByteOfPage = 0;
        while(NVMCTRL_STATUS & NVMCTRL_EEBUSY_bm);              // Wait until any write operation has finished
        CCP = CCP_SPM_gc;                                       // Gain access to NVMCTRL_CTRLA
    1088:	9d e9       	ldi	r25, 0x9D	; 157
        NVMCTRL_CTRLA = NVMCTRL_CMD_PAGEBUFCLR_gc;              // Clear page buffer
    108a:	24 e0       	ldi	r18, 0x04	; 4
            if ((eeAddr % EEPROM_PAGE_SIZE) == (EEPROM_PAGE_SIZE-1)) lastByteOfPage = 1;
            *(uint8_t *)(EEPROM_START+eeAddr++) = *eeValues++;  // Write data to buffer
            --size;
        }
        CCP = CCP_SPM_gc;
        NVMCTRL_CTRLA = NVMCTRL_CMD_PAGEERASEWRITE_gc;          // Erase old data and write new data to EEPROM
    108c:	33 e0       	ldi	r19, 0x03	; 3

// Write bytes to the EEPROM, if address exceeds EEPROM space data wraps around
uint8_t EEWrite(uint8_t eeAddr, uint8_t *eeValues, uint8_t size)
{
    uint8_t lastByteOfPage;
    while(size){
    108e:	44 23       	and	r20, r20
    1090:	09 f1       	breq	.+66     	; 0x10d4 <EEWrite+0x4c>
        lastByteOfPage = 0;
        while(NVMCTRL_STATUS & NVMCTRL_EEBUSY_bm);              // Wait until any write operation has finished
    1092:	50 91 02 10 	lds	r21, 0x1002	; 0x801002 <__TEXT_REGION_LENGTH__+0x701002>
    1096:	51 fd       	sbrc	r21, 1
    1098:	fc cf       	rjmp	.-8      	; 0x1092 <EEWrite+0xa>
        CCP = CCP_SPM_gc;                                       // Gain access to NVMCTRL_CTRLA
    109a:	94 bf       	out	0x34, r25	; 52
        NVMCTRL_CTRLA = NVMCTRL_CMD_PAGEBUFCLR_gc;              // Clear page buffer
    109c:	20 93 00 10 	sts	0x1000, r18	; 0x801000 <__TEXT_REGION_LENGTH__+0x701000>
    10a0:	e8 2f       	mov	r30, r24
        while((size) && (lastByteOfPage == 0)){
            if ((eeAddr % EEPROM_PAGE_SIZE) == (EEPROM_PAGE_SIZE-1)) lastByteOfPage = 1;
    10a2:	58 2f       	mov	r21, r24
    10a4:	5f 71       	andi	r21, 0x1F	; 31
            *(uint8_t *)(EEPROM_START+eeAddr++) = *eeValues++;  // Write data to buffer
    10a6:	8f 5f       	subi	r24, 0xFF	; 255
    10a8:	6f 5f       	subi	r22, 0xFF	; 255
    10aa:	7f 4f       	sbci	r23, 0xFF	; 255
    10ac:	db 01       	movw	r26, r22
    10ae:	11 97       	sbiw	r26, 0x01	; 1
    10b0:	ac 91       	ld	r26, X
    10b2:	f0 e0       	ldi	r31, 0x00	; 0
    10b4:	fc 5e       	subi	r31, 0xEC	; 236
    10b6:	a0 83       	st	Z, r26
            --size;
    10b8:	41 50       	subi	r20, 0x01	; 1
    while(size){
        lastByteOfPage = 0;
        while(NVMCTRL_STATUS & NVMCTRL_EEBUSY_bm);              // Wait until any write operation has finished
        CCP = CCP_SPM_gc;                                       // Gain access to NVMCTRL_CTRLA
        NVMCTRL_CTRLA = NVMCTRL_CMD_PAGEBUFCLR_gc;              // Clear page buffer
        while((size) && (lastByteOfPage == 0)){
    10ba:	19 f0       	breq	.+6      	; 0x10c2 <EEWrite+0x3a>
            if ((eeAddr % EEPROM_PAGE_SIZE) == (EEPROM_PAGE_SIZE-1)) lastByteOfPage = 1;
            *(uint8_t *)(EEPROM_START+eeAddr++) = *eeValues++;  // Write data to buffer
    10bc:	e8 2f       	mov	r30, r24
    while(size){
        lastByteOfPage = 0;
        while(NVMCTRL_STATUS & NVMCTRL_EEBUSY_bm);              // Wait until any write operation has finished
        CCP = CCP_SPM_gc;                                       // Gain access to NVMCTRL_CTRLA
        NVMCTRL_CTRLA = NVMCTRL_CMD_PAGEBUFCLR_gc;              // Clear page buffer
        while((size) && (lastByteOfPage == 0)){
    10be:	5f 31       	cpi	r21, 0x1F	; 31
    10c0:	81 f7       	brne	.-32     	; 0x10a2 <EEWrite+0x1a>
            if ((eeAddr % EEPROM_PAGE_SIZE) == (EEPROM_PAGE_SIZE-1)) lastByteOfPage = 1;
            *(uint8_t *)(EEPROM_START+eeAddr++) = *eeValues++;  // Write data to buffer
            --size;
        }
        CCP = CCP_SPM_gc;
    10c2:	94 bf       	out	0x34, r25	; 52
        NVMCTRL_CTRLA = NVMCTRL_CMD_PAGEERASEWRITE_gc;          // Erase old data and write new data to EEPROM
    10c4:	30 93 00 10 	sts	0x1000, r19	; 0x801000 <__TEXT_REGION_LENGTH__+0x701000>
        if (NVMCTRL_STATUS & NVMCTRL_WRERROR_bm) return 1;
    10c8:	50 91 02 10 	lds	r21, 0x1002	; 0x801002 <__TEXT_REGION_LENGTH__+0x701002>
    10cc:	52 ff       	sbrs	r21, 2
    10ce:	df cf       	rjmp	.-66     	; 0x108e <EEWrite+0x6>
    10d0:	81 e0       	ldi	r24, 0x01	; 1
    }
    return 0;
}
    10d2:	08 95       	ret
        }
        CCP = CCP_SPM_gc;
        NVMCTRL_CTRLA = NVMCTRL_CMD_PAGEERASEWRITE_gc;          // Erase old data and write new data to EEPROM
        if (NVMCTRL_STATUS & NVMCTRL_WRERROR_bm) return 1;
    }
    return 0;
    10d4:	80 e0       	ldi	r24, 0x00	; 0
    10d6:	08 95       	ret

000010d8 <DecryptData>:
}

//Decrypts data read from I2C EEPROM, max 255 bytes at a time
void DecryptData(uint16_t offset, uint8_t length, uint8_t type, uint8_t *data){
    10d8:	f9 01       	movw	r30, r18
    //offset += L_BOILER;
    while(length){
        *data ^= xor_key[type][(uint8_t)(offset%KEY_LENGTH)];
    10da:	9c 01       	movw	r18, r24
    10dc:	2e 1b       	sub	r18, r30
    10de:	3f 0b       	sbc	r19, r31
    10e0:	88 e0       	ldi	r24, 0x08	; 8
    10e2:	48 9f       	mul	r20, r24
    10e4:	a0 01       	movw	r20, r0
    10e6:	11 24       	eor	r1, r1
    10e8:	44 52       	subi	r20, 0x24	; 36
    10ea:	5f 43       	sbci	r21, 0x3F	; 63
}

//Decrypts data read from I2C EEPROM, max 255 bytes at a time
void DecryptData(uint16_t offset, uint8_t length, uint8_t type, uint8_t *data){
    //offset += L_BOILER;
    while(length){
    10ec:	66 23       	and	r22, r22
    10ee:	69 f0       	breq	.+26     	; 0x110a <DecryptData+0x32>
        *data ^= xor_key[type][(uint8_t)(offset%KEY_LENGTH)];
    10f0:	df 01       	movw	r26, r30
    10f2:	a2 0f       	add	r26, r18
    10f4:	b3 1f       	adc	r27, r19
    10f6:	a7 70       	andi	r26, 0x07	; 7
    10f8:	bb 27       	eor	r27, r27
    10fa:	a4 0f       	add	r26, r20
    10fc:	b5 1f       	adc	r27, r21
    10fe:	80 81       	ld	r24, Z
    1100:	9c 91       	ld	r25, X
    1102:	98 27       	eor	r25, r24
    1104:	91 93       	st	Z+, r25
        ++data;
        ++offset;
        --length;
    1106:	61 50       	subi	r22, 0x01	; 1
    1108:	f1 cf       	rjmp	.-30     	; 0x10ec <DecryptData+0x14>
    }
}
    110a:	08 95       	ret

0000110c <ExtEERead>:

//Game data: Read a number of bytes and decrypt
uint8_t ExtEERead(uint16_t offset, uint8_t length, uint8_t type, uint8_t *data){
    110c:	af 92       	push	r10
    110e:	bf 92       	push	r11
    1110:	cf 92       	push	r12
    1112:	df 92       	push	r13
    1114:	ef 92       	push	r14
    1116:	ff 92       	push	r15
    1118:	0f 93       	push	r16
    111a:	1f 93       	push	r17
    111c:	cf 93       	push	r28
    111e:	df 93       	push	r29
    1120:	00 d0       	rcall	.+0      	; 0x1122 <ExtEERead+0x16>
    1122:	cd b7       	in	r28, 0x3d	; 61
    1124:	de b7       	in	r29, 0x3e	; 62
    1126:	d6 2e       	mov	r13, r22
    1128:	c4 2e       	mov	r12, r20
    112a:	59 01       	movw	r10, r18
    offset &=EXT_EE_MAX;
    112c:	7c 01       	movw	r14, r24
    112e:	e8 94       	clt
    1130:	f7 f8       	bld	r15, 7
    uint8_t reg[2] = {(uint8_t)(offset>>8), (uint8_t)(offset&0xff)};
    1132:	f9 82       	std	Y+1, r15	; 0x01
    1134:	ea 82       	std	Y+2, r14	; 0x02
    uint8_t error = (I2C_read_bytes(EE_I2C_ADDR, &reg[0], 2, data, length));
    1136:	06 2f       	mov	r16, r22
    1138:	42 e0       	ldi	r20, 0x02	; 2
    113a:	be 01       	movw	r22, r28
    113c:	6f 5f       	subi	r22, 0xFF	; 255
    113e:	7f 4f       	sbci	r23, 0xFF	; 255
    1140:	80 e5       	ldi	r24, 0x50	; 80
    1142:	13 da       	rcall	.-3034   	; 0x56a <I2C_read_bytes>
    1144:	18 2f       	mov	r17, r24
    if (error) return error;
    1146:	81 11       	cpse	r24, r1
    1148:	05 c0       	rjmp	.+10     	; 0x1154 <ExtEERead+0x48>
    DecryptData(offset, length, type, data);
    114a:	95 01       	movw	r18, r10
    114c:	4c 2d       	mov	r20, r12
    114e:	6d 2d       	mov	r22, r13
    1150:	c7 01       	movw	r24, r14
    1152:	c2 df       	rcall	.-124    	; 0x10d8 <DecryptData>
    return 0;
}
    1154:	81 2f       	mov	r24, r17
    1156:	0f 90       	pop	r0
    1158:	0f 90       	pop	r0
    115a:	df 91       	pop	r29
    115c:	cf 91       	pop	r28
    115e:	1f 91       	pop	r17
    1160:	0f 91       	pop	r16
    1162:	ff 90       	pop	r15
    1164:	ef 90       	pop	r14
    1166:	df 90       	pop	r13
    1168:	cf 90       	pop	r12
    116a:	bf 90       	pop	r11
    116c:	af 90       	pop	r10
    116e:	08 95       	ret

00001170 <SerSend>:

// Sends a set of characters to the serial port, stops only when character value 0 is reached.
uint8_t SerSend(unsigned char *addr){
    if (serTxDone){
    1170:	20 91 09 38 	lds	r18, 0x3809	; 0x803809 <serTxDone>
    1174:	22 23       	and	r18, r18
    1176:	59 f0       	breq	.+22     	; 0x118e <SerSend+0x1e>
        serTxAddr = addr;
    1178:	80 93 b9 3a 	sts	0x3AB9, r24	; 0x803ab9 <serTxAddr>
    117c:	90 93 ba 3a 	sts	0x3ABA, r25	; 0x803aba <serTxAddr+0x1>
        serTxDone = 0;
    1180:	10 92 09 38 	sts	0x3809, r1	; 0x803809 <serTxDone>
        TCB0_INTCTRL = 0x01;
    1184:	81 e0       	ldi	r24, 0x01	; 1
    1186:	80 93 45 0a 	sts	0x0A45, r24	; 0x800a45 <__TEXT_REGION_LENGTH__+0x700a45>
        return 0;
    118a:	80 e0       	ldi	r24, 0x00	; 0
    118c:	08 95       	ret
    } else return 1;    //Error: Still sending data
    118e:	81 e0       	ldi	r24, 0x01	; 1
};
    1190:	08 95       	ret

00001192 <SerSpeed>:

// Set serial character output speed, 255-0 (0.8 to 100ms delay between characters)
void SerSpeed(uint8_t serSpd){
    1192:	28 2f       	mov	r18, r24
    if (serSpd<1) serSpd = 1;
    1194:	81 11       	cpse	r24, r1
    1196:	01 c0       	rjmp	.+2      	; 0x119a <SerSpeed+0x8>
    1198:	21 e0       	ldi	r18, 0x01	; 1
    TCB0_CCMP = ((uint16_t)(0xFF-serSpd)<<8) + 0xFF;
    119a:	8f ef       	ldi	r24, 0xFF	; 255
    119c:	90 e0       	ldi	r25, 0x00	; 0
    119e:	82 1b       	sub	r24, r18
    11a0:	91 09       	sbc	r25, r1
    11a2:	98 2f       	mov	r25, r24
    11a4:	88 27       	eor	r24, r24
    11a6:	81 50       	subi	r24, 0x01	; 1
    11a8:	9f 4f       	sbci	r25, 0xFF	; 255
    11aa:	80 93 4c 0a 	sts	0x0A4C, r24	; 0x800a4c <__TEXT_REGION_LENGTH__+0x700a4c>
    11ae:	90 93 4d 0a 	sts	0x0A4D, r25	; 0x800a4d <__TEXT_REGION_LENGTH__+0x700a4d>
    11b2:	08 95       	ret

000011b4 <SelectTSens>:
};

// Select temperature sensor
void SelectTSens(){
     VREF_CTRLA   = 0x12;    //0x22 for audio in/out (2.5V), 0x12 for temperature in, audio out (1.1V/2.5V)
    11b4:	82 e1       	ldi	r24, 0x12	; 18
    11b6:	80 93 a0 00 	sts	0x00A0, r24	; 0x8000a0 <__TEXT_REGION_LENGTH__+0x7000a0>
     ADC0_CTRLA   &= ~(ADC_RESSEL_bm);
    11ba:	e0 e0       	ldi	r30, 0x00	; 0
    11bc:	f6 e0       	ldi	r31, 0x06	; 6
    11be:	80 81       	ld	r24, Z
    11c0:	8b 7f       	andi	r24, 0xFB	; 251
    11c2:	80 83       	st	Z, r24
     ADC0_MUXPOS  = 0x1E;    //Audio in: AIN7 at (0x07), Temperature: Internal sensor at (0x1E)
    11c4:	8e e1       	ldi	r24, 0x1E	; 30
    11c6:	80 93 06 06 	sts	0x0606, r24	; 0x800606 <__TEXT_REGION_LENGTH__+0x700606>
     adc0Chg = 3;
    11ca:	83 e0       	ldi	r24, 0x03	; 3
    11cc:	80 93 38 38 	sts	0x3838, r24	; 0x803838 <adc0Chg>
    11d0:	08 95       	ret

000011d2 <SelectAuIn>:
};

// Select "audio" input (0-2.5V)
void SelectAuIn(){
     VREF_CTRLA   = 0x22;    //0x22 for audio in/out (2.5V), 0x12 for temperature in, audio out (1.1V/2.5V)
    11d2:	82 e2       	ldi	r24, 0x22	; 34
    11d4:	80 93 a0 00 	sts	0x00A0, r24	; 0x8000a0 <__TEXT_REGION_LENGTH__+0x7000a0>
     ADC0_CTRLA   |= ADC_RESSEL_bm;
    11d8:	e0 e0       	ldi	r30, 0x00	; 0
    11da:	f6 e0       	ldi	r31, 0x06	; 6
    11dc:	80 81       	ld	r24, Z
    11de:	84 60       	ori	r24, 0x04	; 4
    11e0:	80 83       	st	Z, r24
     ADC0_MUXPOS  = 0x07;    //Audio in: AIN7 at (0x07), Temperature: Internal sensor at (0x1E)
    11e2:	87 e0       	ldi	r24, 0x07	; 7
    11e4:	80 93 06 06 	sts	0x0606, r24	; 0x800606 <__TEXT_REGION_LENGTH__+0x700606>
     adc0Chg = 3;
    11e8:	83 e0       	ldi	r24, 0x03	; 3
    11ea:	80 93 38 38 	sts	0x3838, r24	; 0x803838 <adc0Chg>
    11ee:	08 95       	ret

000011f0 <CheckButtons>:
};

// Returns button combination (4LSB) and number of consecutive times this combination is detected. First read should always be ignored! 
uint8_t CheckButtons(){
    static uint8_t previousValue = 0xFF;
    uint8_t bADC = (uint8_t)(adcBtns>>4);
    11f0:	80 91 b7 3a 	lds	r24, 0x3AB7	; 0x803ab7 <adcBtns>
    11f4:	90 91 b8 3a 	lds	r25, 0x3AB8	; 0x803ab8 <adcBtns+0x1>
    uint8_t button = 0xFF;     //FF = released or error

        switch(bADC){
    11f8:	24 e0       	ldi	r18, 0x04	; 4
    11fa:	96 95       	lsr	r25
    11fc:	87 95       	ror	r24
    11fe:	2a 95       	dec	r18
    1200:	e1 f7       	brne	.-8      	; 0x11fa <CheckButtons+0xa>
    1202:	99 27       	eor	r25, r25
    1204:	80 36       	cpi	r24, 0x60	; 96
    1206:	91 05       	cpc	r25, r1
    1208:	40 f4       	brcc	.+16     	; 0x121a <CheckButtons+0x2a>
    120a:	8f 34       	cpi	r24, 0x4F	; 79
    120c:	91 05       	cpc	r25, r1
    120e:	88 f4       	brcc	.+34     	; 0x1232 <CheckButtons+0x42>
    1210:	c0 97       	sbiw	r24, 0x30	; 48
    1212:	09 97       	sbiw	r24, 0x09	; 9
    1214:	90 f4       	brcc	.+36     	; 0x123a <CheckButtons+0x4a>

            case 48 ... 56:          //52: Bottom left (+/-4)
            button = 2;
    1216:	92 e0       	ldi	r25, 0x02	; 2
    1218:	11 c0       	rjmp	.+34     	; 0x123c <CheckButtons+0x4c>
uint8_t CheckButtons(){
    static uint8_t previousValue = 0xFF;
    uint8_t bADC = (uint8_t)(adcBtns>>4);
    uint8_t button = 0xFF;     //FF = released or error

        switch(bADC){
    121a:	85 37       	cpi	r24, 0x75	; 117
    121c:	91 05       	cpc	r25, r1
    121e:	68 f0       	brcs	.+26     	; 0x123a <CheckButtons+0x4a>
    1220:	8e 38       	cpi	r24, 0x8E	; 142
    1222:	91 05       	cpc	r25, r1
    1224:	40 f0       	brcs	.+16     	; 0x1236 <CheckButtons+0x46>
    1226:	8e 59       	subi	r24, 0x9E	; 158
    1228:	91 09       	sbc	r25, r1
    122a:	81 97       	sbiw	r24, 0x21	; 33
    122c:	30 f4       	brcc	.+12     	; 0x123a <CheckButtons+0x4a>
            case 117 ... 141:        //129: Top right (+/- 12)
            button = 1;
            break;

            case 158 ... 190:        //174: Bottom right (+/- 16)
            button = 0;
    122e:	90 e0       	ldi	r25, 0x00	; 0
            break;
    1230:	05 c0       	rjmp	.+10     	; 0x123c <CheckButtons+0x4c>
            case 48 ... 56:          //52: Bottom left (+/-4)
            button = 2;
            break;

            case 79 ... 95:          //87: Top left (+/-8)
            button = 3;
    1232:	93 e0       	ldi	r25, 0x03	; 3
            break;
    1234:	03 c0       	rjmp	.+6      	; 0x123c <CheckButtons+0x4c>

            case 117 ... 141:        //129: Top right (+/- 12)
            button = 1;
    1236:	91 e0       	ldi	r25, 0x01	; 1
            break;
    1238:	01 c0       	rjmp	.+2      	; 0x123c <CheckButtons+0x4c>

// Returns button combination (4LSB) and number of consecutive times this combination is detected. First read should always be ignored! 
uint8_t CheckButtons(){
    static uint8_t previousValue = 0xFF;
    uint8_t bADC = (uint8_t)(adcBtns>>4);
    uint8_t button = 0xFF;     //FF = released or error
    123a:	9f ef       	ldi	r25, 0xFF	; 255
            case 158 ... 190:        //174: Bottom right (+/- 16)
            button = 0;
            break;
        }

        if (((previousValue+1)== 0) || (button != previousValue)) {
    123c:	80 91 24 38 	lds	r24, 0x3824	; 0x803824 <previousValue.3900>
    1240:	98 17       	cp	r25, r24
    1242:	19 f0       	breq	.+6      	; 0x124a <CheckButtons+0x5a>
            previousValue = button;
    1244:	90 93 24 38 	sts	0x3824, r25	; 0x803824 <previousValue.3900>
            return 0xFF;
    1248:	8f ef       	ldi	r24, 0xFF	; 255
        } else return button;

}
    124a:	08 95       	ret

0000124c <lfsr>:

uint8_t lfsr(){
    static uint16_t state = 0xd401;
    state ^= (state << 13);
    124c:	80 91 22 38 	lds	r24, 0x3822	; 0x803822 <state.3910>
    1250:	90 91 23 38 	lds	r25, 0x3823	; 0x803823 <state.3910+0x1>
    1254:	9c 01       	movw	r18, r24
    1256:	32 2f       	mov	r19, r18
    1258:	22 27       	eor	r18, r18
    125a:	32 95       	swap	r19
    125c:	33 0f       	add	r19, r19
    125e:	30 7e       	andi	r19, 0xE0	; 224
    1260:	82 27       	eor	r24, r18
    1262:	93 27       	eor	r25, r19
    state ^= (state >> 9);
    1264:	9c 01       	movw	r18, r24
    1266:	23 2f       	mov	r18, r19
    1268:	33 27       	eor	r19, r19
    126a:	26 95       	lsr	r18
    126c:	82 27       	eor	r24, r18
    126e:	93 27       	eor	r25, r19
    state ^= (state << 7);
    1270:	9c 01       	movw	r18, r24
    1272:	36 95       	lsr	r19
    1274:	32 2f       	mov	r19, r18
    1276:	22 27       	eor	r18, r18
    1278:	37 95       	ror	r19
    127a:	27 95       	ror	r18
    127c:	82 27       	eor	r24, r18
    127e:	93 27       	eor	r25, r19
    1280:	80 93 22 38 	sts	0x3822, r24	; 0x803822 <state.3910>
    1284:	90 93 23 38 	sts	0x3823, r25	; 0x803823 <state.3910+0x1>
    return (state & 0xff);
}
    1288:	08 95       	ret

0000128a <floatSpeed>:

void floatSpeed(uint8_t bits, uint16_t min, uint16_t max){
    128a:	df 92       	push	r13
    128c:	ef 92       	push	r14
    128e:	ff 92       	push	r15
    1290:	0f 93       	push	r16
    1292:	1f 93       	push	r17
    1294:	cf 93       	push	r28
    1296:	df 93       	push	r29
    1298:	7b 01       	movw	r14, r22
    129a:	8a 01       	movw	r16, r20
    uint16_t val = TCB1_CCMP;
    129c:	c0 91 5c 0a 	lds	r28, 0x0A5C	; 0x800a5c <__TEXT_REGION_LENGTH__+0x700a5c>
    12a0:	d0 91 5d 0a 	lds	r29, 0x0A5D	; 0x800a5d <__TEXT_REGION_LENGTH__+0x700a5d>
    bits = mask[(bits-1)&0x07];
    12a4:	e8 2f       	mov	r30, r24
    12a6:	f0 e0       	ldi	r31, 0x00	; 0
    12a8:	31 97       	sbiw	r30, 0x01	; 1
    12aa:	e7 70       	andi	r30, 0x07	; 7
    12ac:	ff 27       	eor	r31, r31
    12ae:	eb 5d       	subi	r30, 0xDB	; 219
    12b0:	f7 4c       	sbci	r31, 0xC7	; 199
    12b2:	d0 80       	ld	r13, Z
    val += (lfsr()&bits);
    12b4:	cb df       	rcall	.-106    	; 0x124c <lfsr>
    12b6:	8d 21       	and	r24, r13
    12b8:	c8 0f       	add	r28, r24
    12ba:	d1 1d       	adc	r29, r1
    val -= (lfsr()&bits);
    12bc:	c7 df       	rcall	.-114    	; 0x124c <lfsr>
    12be:	8d 21       	and	r24, r13
    12c0:	c8 1b       	sub	r28, r24
    12c2:	d1 09       	sbc	r29, r1
    12c4:	0c 17       	cp	r16, r28
    12c6:	1d 07       	cpc	r17, r29
    12c8:	08 f4       	brcc	.+2      	; 0x12cc <floatSpeed+0x42>
    12ca:	e8 01       	movw	r28, r16
    12cc:	c7 01       	movw	r24, r14
    12ce:	ec 16       	cp	r14, r28
    12d0:	fd 06       	cpc	r15, r29
    12d2:	08 f4       	brcc	.+2      	; 0x12d6 <floatSpeed+0x4c>
    12d4:	ce 01       	movw	r24, r28
    12d6:	80 93 5c 0a 	sts	0x0A5C, r24	; 0x800a5c <__TEXT_REGION_LENGTH__+0x700a5c>
    if (val > max) val = max;    
    if (val < min) val = min;  
    TCB1_CCMP = val;
    12da:	90 93 5d 0a 	sts	0x0A5D, r25	; 0x800a5d <__TEXT_REGION_LENGTH__+0x700a5d>
    12de:	df 91       	pop	r29
}
    12e0:	cf 91       	pop	r28
    12e2:	1f 91       	pop	r17
    12e4:	0f 91       	pop	r16
    12e6:	ff 90       	pop	r15
    12e8:	ef 90       	pop	r14
    12ea:	df 90       	pop	r13
    12ec:	08 95       	ret

000012ee <floatAround>:
    12ee:	0f 93       	push	r16

uint8_t floatAround(uint8_t sample, uint8_t bits, uint8_t min, uint8_t max){
    12f0:	1f 93       	push	r17
    12f2:	cf 93       	push	r28
    12f4:	df 93       	push	r29
    12f6:	c8 2f       	mov	r28, r24
    12f8:	d4 2f       	mov	r29, r20
    12fa:	02 2f       	mov	r16, r18
    bits = mask[(bits-1)&0x07];
    12fc:	e6 2f       	mov	r30, r22
    12fe:	f0 e0       	ldi	r31, 0x00	; 0
    1300:	31 97       	sbiw	r30, 0x01	; 1
    1302:	e7 70       	andi	r30, 0x07	; 7
    1304:	ff 27       	eor	r31, r31
    1306:	eb 5d       	subi	r30, 0xDB	; 219
    1308:	f7 4c       	sbci	r31, 0xC7	; 199
    130a:	10 81       	ld	r17, Z
    sample += lfsr()&bits;
    130c:	9f df       	rcall	.-194    	; 0x124c <lfsr>
    130e:	81 23       	and	r24, r17
    1310:	c8 0f       	add	r28, r24
    sample -= lfsr()&bits;
    1312:	9c df       	rcall	.-200    	; 0x124c <lfsr>
    1314:	81 23       	and	r24, r17
    1316:	c8 1b       	sub	r28, r24
    1318:	8c 2f       	mov	r24, r28
    131a:	00 23       	and	r16, r16
    if (max){
    131c:	41 f0       	breq	.+16     	; 0x132e <floatAround+0x40>
    131e:	9c 2f       	mov	r25, r28
    1320:	0c 17       	cp	r16, r28
    1322:	08 f4       	brcc	.+2      	; 0x1326 <floatAround+0x38>
    1324:	90 2f       	mov	r25, r16
    1326:	8d 2f       	mov	r24, r29
    1328:	d9 17       	cp	r29, r25
    132a:	08 f4       	brcc	.+2      	; 0x132e <floatAround+0x40>
    132c:	89 2f       	mov	r24, r25
    132e:	41 e0       	ldi	r20, 0x01	; 1
        if (sample > max) sample = max;
        if (sample < min) sample = min;
    }
    if (min & (sample < min)) sample = min;
    1330:	50 e0       	ldi	r21, 0x00	; 0
    1332:	8d 17       	cp	r24, r29
    1334:	10 f0       	brcs	.+4      	; 0x133a <floatAround+0x4c>
    1336:	40 e0       	ldi	r20, 0x00	; 0
    1338:	50 e0       	ldi	r21, 0x00	; 0
    133a:	2d 2f       	mov	r18, r29
    133c:	30 e0       	ldi	r19, 0x00	; 0
    133e:	24 23       	and	r18, r20
    1340:	35 23       	and	r19, r21
    1342:	23 2b       	or	r18, r19
    1344:	09 f0       	breq	.+2      	; 0x1348 <floatAround+0x5a>
    1346:	8d 2f       	mov	r24, r29
    1348:	df 91       	pop	r29

    return sample;
}
    134a:	cf 91       	pop	r28
    134c:	1f 91       	pop	r17
    134e:	0f 91       	pop	r16
    1350:	08 95       	ret

00001352 <SaveGameState>:
    1352:	cf 92       	push	r12
    inventory[0] = (gameState[INVADDR]<<8|gameState[INVADDR+1]);
    inventory[1] = (gameState[INVADDR+2]<<8|gameState[INVADDR+3]);
}

//Save changed data to EEPROM
uint8_t SaveGameState(){
    1354:	df 92       	push	r13
    1356:	ff 92       	push	r15
    1358:	0f 93       	push	r16
    135a:	1f 93       	push	r17
    135c:	cf 93       	push	r28
    135e:	df 93       	push	r29
    1360:	cd b7       	in	r28, 0x3d	; 61
    1362:	de b7       	in	r29, 0x3e	; 62
    1364:	64 97       	sbiw	r28, 0x14	; 20
    1366:	cd bf       	out	0x3d, r28	; 61
    1368:	de bf       	out	0x3e, r29	; 62
    uint8_t gameCheck[BOOTCHK];

    //Read all data up to the boot/check result address from EEPROM
    EERead(0, &gameCheck[0], BOOTCHK);
    136a:	44 e1       	ldi	r20, 0x14	; 20
    136c:	be 01       	movw	r22, r28
    136e:	6f 5f       	subi	r22, 0xFF	; 255
    1370:	7f 4f       	sbci	r23, 0xFF	; 255
    1372:	80 e0       	ldi	r24, 0x00	; 0
    1374:	79 de       	rcall	.-782    	; 0x1068 <EERead>
    1376:	81 e6       	ldi	r24, 0x61	; 97
    1378:	c8 2e       	mov	r12, r24
    137a:	8a e3       	ldi	r24, 0x3A	; 58
    137c:	d8 2e       	mov	r13, r24
    137e:	8e 01       	movw	r16, r28
    1380:	0f 5f       	subi	r16, 0xFF	; 255
    1382:	1f 4f       	sbci	r17, 0xFF	; 255

    //Check game status bits
    for (uint8_t x=0; x<STATLEN; ++x){
    1384:	f1 2c       	mov	r15, r1
        if (gameState[x] != gameCheck[x]){
    1386:	f8 01       	movw	r30, r16
    1388:	81 91       	ld	r24, Z+
    138a:	8f 01       	movw	r16, r30
    138c:	f6 01       	movw	r30, r12
    138e:	90 81       	ld	r25, Z
    1390:	98 13       	cpse	r25, r24
    1392:	08 c0       	rjmp	.+16     	; 0x13a4 <SaveGameState+0x52>

    //Read all data up to the boot/check result address from EEPROM
    EERead(0, &gameCheck[0], BOOTCHK);

    //Check game status bits
    for (uint8_t x=0; x<STATLEN; ++x){
    1394:	f3 94       	inc	r15
    1396:	ff ef       	ldi	r31, 0xFF	; 255
    1398:	cf 1a       	sub	r12, r31
    139a:	df 0a       	sbc	r13, r31
    139c:	80 e1       	ldi	r24, 0x10	; 16
    139e:	f8 12       	cpse	r15, r24
    13a0:	f2 cf       	rjmp	.-28     	; 0x1386 <SaveGameState+0x34>
    13a2:	08 c0       	rjmp	.+16     	; 0x13b4 <SaveGameState+0x62>
        if (gameState[x] != gameCheck[x]){
            if (EEWrite(x, &gameState[x], 1)) return 1;
    13a4:	41 e0       	ldi	r20, 0x01	; 1
    13a6:	b6 01       	movw	r22, r12
    13a8:	8f 2d       	mov	r24, r15
    13aa:	6e de       	rcall	.-804    	; 0x1088 <EEWrite>
    13ac:	88 23       	and	r24, r24
    13ae:	91 f3       	breq	.-28     	; 0x1394 <SaveGameState+0x42>
    13b0:	91 e0       	ldi	r25, 0x01	; 1
    13b2:	36 c0       	rjmp	.+108    	; 0x1420 <SaveGameState+0xce>
        }
    }

    //Check the inventory too
    gameState[INVADDR] = (uint8_t)(inventory[0]>>8);
    13b4:	20 91 3e 38 	lds	r18, 0x383E	; 0x80383e <inventory>
    13b8:	30 91 3f 38 	lds	r19, 0x383F	; 0x80383f <inventory+0x1>
    13bc:	30 93 71 3a 	sts	0x3A71, r19	; 0x803a71 <gameState+0x10>
    gameState[INVADDR+1] = (uint8_t)(inventory[0]&0xff);
    13c0:	20 93 72 3a 	sts	0x3A72, r18	; 0x803a72 <gameState+0x11>
    gameState[INVADDR+2] = (uint8_t)(inventory[1]>>8);
    13c4:	80 91 40 38 	lds	r24, 0x3840	; 0x803840 <inventory+0x2>
    13c8:	90 91 41 38 	lds	r25, 0x3841	; 0x803841 <inventory+0x3>
    13cc:	90 93 73 3a 	sts	0x3A73, r25	; 0x803a73 <gameState+0x12>
    gameState[INVADDR+3] = (uint8_t)(inventory[1]&0xff);
    13d0:	80 93 74 3a 	sts	0x3A74, r24	; 0x803a74 <gameState+0x13>
    if (inventory[0] != (gameCheck[INVADDR]<<8|gameCheck[INVADDR+1])) {
    13d4:	89 89       	ldd	r24, Y+17	; 0x11
    13d6:	9a 89       	ldd	r25, Y+18	; 0x12
    13d8:	98 27       	eor	r25, r24
    13da:	89 27       	eor	r24, r25
    13dc:	98 27       	eor	r25, r24
    13de:	28 17       	cp	r18, r24
    13e0:	39 07       	cpc	r19, r25
    13e2:	69 f4       	brne	.+26     	; 0x13fe <SaveGameState+0xac>
        if (EEWrite(INVADDR, &gameState[INVADDR], 2)) return 1;
    }
    if (inventory[1] != (gameCheck[INVADDR+2]<<8|gameCheck[INVADDR+3])) {
    13e4:	8b 89       	ldd	r24, Y+19	; 0x13
    13e6:	9c 89       	ldd	r25, Y+20	; 0x14
    13e8:	98 27       	eor	r25, r24
    13ea:	89 27       	eor	r24, r25
    13ec:	98 27       	eor	r25, r24
    13ee:	20 91 40 38 	lds	r18, 0x3840	; 0x803840 <inventory+0x2>
    13f2:	30 91 41 38 	lds	r19, 0x3841	; 0x803841 <inventory+0x3>
    13f6:	28 17       	cp	r18, r24
    13f8:	39 07       	cpc	r19, r25
    13fa:	49 f4       	brne	.+18     	; 0x140e <SaveGameState+0xbc>
    13fc:	10 c0       	rjmp	.+32     	; 0x141e <SaveGameState+0xcc>
    gameState[INVADDR] = (uint8_t)(inventory[0]>>8);
    gameState[INVADDR+1] = (uint8_t)(inventory[0]&0xff);
    gameState[INVADDR+2] = (uint8_t)(inventory[1]>>8);
    gameState[INVADDR+3] = (uint8_t)(inventory[1]&0xff);
    if (inventory[0] != (gameCheck[INVADDR]<<8|gameCheck[INVADDR+1])) {
        if (EEWrite(INVADDR, &gameState[INVADDR], 2)) return 1;
    13fe:	42 e0       	ldi	r20, 0x02	; 2
    1400:	61 e7       	ldi	r22, 0x71	; 113
    1402:	7a e3       	ldi	r23, 0x3A	; 58
    1404:	80 e1       	ldi	r24, 0x10	; 16
    1406:	40 de       	rcall	.-896    	; 0x1088 <EEWrite>
    1408:	88 23       	and	r24, r24
    140a:	61 f3       	breq	.-40     	; 0x13e4 <SaveGameState+0x92>
    140c:	d1 cf       	rjmp	.-94     	; 0x13b0 <SaveGameState+0x5e>
    }
    if (inventory[1] != (gameCheck[INVADDR+2]<<8|gameCheck[INVADDR+3])) {
        if (EEWrite(INVADDR+2, &gameState[INVADDR+2], 2)) return 1;
    140e:	42 e0       	ldi	r20, 0x02	; 2
    1410:	63 e7       	ldi	r22, 0x73	; 115
    1412:	7a e3       	ldi	r23, 0x3A	; 58
    1414:	82 e1       	ldi	r24, 0x12	; 18
    1416:	38 de       	rcall	.-912    	; 0x1088 <EEWrite>
    EERead(0, &gameCheck[0], BOOTCHK);

    //Check game status bits
    for (uint8_t x=0; x<STATLEN; ++x){
        if (gameState[x] != gameCheck[x]){
            if (EEWrite(x, &gameState[x], 1)) return 1;
    1418:	91 e0       	ldi	r25, 0x01	; 1
    141a:	81 11       	cpse	r24, r1
    141c:	01 c0       	rjmp	.+2      	; 0x1420 <SaveGameState+0xce>
    141e:	90 e0       	ldi	r25, 0x00	; 0
    if (inventory[1] != (gameCheck[INVADDR+2]<<8|gameCheck[INVADDR+3])) {
        if (EEWrite(INVADDR+2, &gameState[INVADDR+2], 2)) return 1;
    }

    return 0;
}
    1420:	89 2f       	mov	r24, r25
    1422:	64 96       	adiw	r28, 0x14	; 20
    1424:	cd bf       	out	0x3d, r28	; 61
    1426:	de bf       	out	0x3e, r29	; 62
    1428:	df 91       	pop	r29
    142a:	cf 91       	pop	r28
    142c:	1f 91       	pop	r17
    142e:	0f 91       	pop	r16
    1430:	ff 90       	pop	r15
    1432:	df 90       	pop	r13
    1434:	cf 90       	pop	r12
    1436:	08 95       	ret

00001438 <ReadStatusBit>:

uint8_t ReadStatusBit(uint8_t number){
    number &= 0x7f;
    if (gameState[number>>3] & (1<<(number&7))) return 1; else return 0;
    1438:	e8 2f       	mov	r30, r24
    143a:	ef 77       	andi	r30, 0x7F	; 127
    143c:	e6 95       	lsr	r30
    143e:	e6 95       	lsr	r30
    1440:	e6 95       	lsr	r30
    1442:	f0 e0       	ldi	r31, 0x00	; 0
    1444:	ef 59       	subi	r30, 0x9F	; 159
    1446:	f5 4c       	sbci	r31, 0xC5	; 197
    1448:	20 81       	ld	r18, Z
    144a:	30 e0       	ldi	r19, 0x00	; 0
    144c:	87 70       	andi	r24, 0x07	; 7
    144e:	a9 01       	movw	r20, r18
    1450:	02 c0       	rjmp	.+4      	; 0x1456 <ReadStatusBit+0x1e>
    1452:	55 95       	asr	r21
    1454:	47 95       	ror	r20
    1456:	8a 95       	dec	r24
    1458:	e2 f7       	brpl	.-8      	; 0x1452 <ReadStatusBit+0x1a>
    145a:	ca 01       	movw	r24, r20
}
    145c:	81 70       	andi	r24, 0x01	; 1
    145e:	08 95       	ret

00001460 <WriteStatusBit>:

void WriteStatusBit(uint8_t number, uint8_t state){
    number &= 0x7f;
    1460:	e8 2f       	mov	r30, r24
    1462:	ef 77       	andi	r30, 0x7F	; 127
    1464:	e6 95       	lsr	r30
    1466:	e6 95       	lsr	r30
    1468:	e6 95       	lsr	r30
    146a:	28 2f       	mov	r18, r24
    146c:	27 70       	andi	r18, 0x07	; 7
    if (state) gameState[number>>3] |= 1<<(number&7);
    146e:	f0 e0       	ldi	r31, 0x00	; 0
    1470:	ef 59       	subi	r30, 0x9F	; 159
    1472:	f5 4c       	sbci	r31, 0xC5	; 197
    1474:	81 e0       	ldi	r24, 0x01	; 1
    1476:	90 e0       	ldi	r25, 0x00	; 0
    1478:	01 c0       	rjmp	.+2      	; 0x147c <WriteStatusBit+0x1c>
    147a:	88 0f       	add	r24, r24
    147c:	2a 95       	dec	r18
    147e:	ea f7       	brpl	.-6      	; 0x147a <WriteStatusBit+0x1a>
    1480:	66 23       	and	r22, r22
    1482:	19 f0       	breq	.+6      	; 0x148a <WriteStatusBit+0x2a>
    1484:	90 81       	ld	r25, Z
    1486:	89 2b       	or	r24, r25
    1488:	03 c0       	rjmp	.+6      	; 0x1490 <WriteStatusBit+0x30>
    else gameState[number>>3] &= ~(1<<(number&7));
    148a:	80 95       	com	r24
    148c:	90 81       	ld	r25, Z
    148e:	89 23       	and	r24, r25
    1490:	80 83       	st	Z, r24
    1492:	08 95       	ret

00001494 <UpdateState>:
}

//Update game state: num -> vBBBBbbb v=value(0 is set!), BBBB=Byte number, bbb=bit number
void UpdateState(uint8_t num){
    1494:	98 2f       	mov	r25, r24
    uint8_t clearBit = num & 0x80;
    num &= 0x7f;
    1496:	8f 77       	andi	r24, 0x7F	; 127
    if (num) {
    1498:	31 f0       	breq	.+12     	; 0x14a6 <UpdateState+0x12>
        if (clearBit) {
    149a:	97 ff       	sbrs	r25, 7
    149c:	02 c0       	rjmp	.+4      	; 0x14a2 <UpdateState+0xe>
            WriteStatusBit(num, 0);
    149e:	60 e0       	ldi	r22, 0x00	; 0
    14a0:	01 c0       	rjmp	.+2      	; 0x14a4 <UpdateState+0x10>
        } else {
            WriteStatusBit(num, 1);
    14a2:	61 e0       	ldi	r22, 0x01	; 1
    14a4:	dd cf       	rjmp	.-70     	; 0x1460 <WriteStatusBit>
    14a6:	08 95       	ret

000014a8 <CheckState>:
        }
    }
}

//Checks if state of bit BBBBbbb matches with v (inverted) bit
uint8_t CheckState(uint8_t num){
    14a8:	cf 93       	push	r28
    14aa:	c8 2f       	mov	r28, r24
    uint8_t bitSet = 0;
    if (ReadStatusBit(num & 0x7f)){
    14ac:	8f 77       	andi	r24, 0x7F	; 127
    14ae:	c4 df       	rcall	.-120    	; 0x1438 <ReadStatusBit>
    14b0:	2c 2f       	mov	r18, r28
    14b2:	22 1f       	adc	r18, r18
    14b4:	22 27       	eor	r18, r18
    14b6:	22 1f       	adc	r18, r18
    14b8:	91 e0       	ldi	r25, 0x01	; 1
    14ba:	81 11       	cpse	r24, r1
    14bc:	01 c0       	rjmp	.+2      	; 0x14c0 <CheckState+0x18>
    14be:	90 e0       	ldi	r25, 0x00	; 0
    }
    if (((num & 0x80)>0)^(bitSet>0)){
        return 1;
    }
    return 0;
}
    14c0:	82 2f       	mov	r24, r18
    14c2:	89 27       	eor	r24, r25
    14c4:	cf 91       	pop	r28
    14c6:	08 95       	ret

000014c8 <getID>:

//Give out a number 0..3, calculated using serial number fields
uint8_t getID(){
    uint8_t id = 0;
    uint8_t *serNum;
    serNum = (uint8_t*)&SIGROW_SERNUM0;
    14c8:	e3 e0       	ldi	r30, 0x03	; 3
    14ca:	f1 e1       	ldi	r31, 0x11	; 17
    return 0;
}

//Give out a number 0..3, calculated using serial number fields
uint8_t getID(){
    uint8_t id = 0;
    14cc:	80 e0       	ldi	r24, 0x00	; 0
    uint8_t *serNum;
    serNum = (uint8_t*)&SIGROW_SERNUM0;

    for (uint8_t x=0; x<10; ++x){
        id += *serNum;
    14ce:	91 91       	ld	r25, Z+
    14d0:	89 0f       	add	r24, r25
uint8_t getID(){
    uint8_t id = 0;
    uint8_t *serNum;
    serNum = (uint8_t*)&SIGROW_SERNUM0;

    for (uint8_t x=0; x<10; ++x){
    14d2:	ed 30       	cpi	r30, 0x0D	; 13
    14d4:	91 e1       	ldi	r25, 0x11	; 17
    14d6:	f9 07       	cpc	r31, r25
    14d8:	d1 f7       	brne	.-12     	; 0x14ce <getID+0x6>
        id += *serNum;
        ++serNum;
    }
    id %= 4;
    14da:	83 70       	andi	r24, 0x03	; 3
    whoami = id+1;
    14dc:	91 e0       	ldi	r25, 0x01	; 1
    14de:	98 0f       	add	r25, r24
    14e0:	90 93 3d 38 	sts	0x383D, r25	; 0x80383d <whoami>
    return id;
}
    14e4:	08 95       	ret

000014e6 <Reset>:

void Reset(){
    14e6:	e1 e6       	ldi	r30, 0x61	; 97
    14e8:	fa e3       	ldi	r31, 0x3A	; 58
    //# 110   set to 1 by FW if badge UUID mod 4 == 0
    //# 111   set to 1 by FW if badge UUID mod 4 == 1
    //# 112   set to 1 by FW if badge UUID mod 4 == 2
    //# 113   set to 1 by FW if badge UUID mod 4 == 3
    for (uint8_t x=0; x<sizeof(gameState); ++x){
        gameState[x] = 0;
    14ea:	11 92       	st	Z+, r1
    //Reset game progress (all zeroes) and load some bits:
    //# 110   set to 1 by FW if badge UUID mod 4 == 0
    //# 111   set to 1 by FW if badge UUID mod 4 == 1
    //# 112   set to 1 by FW if badge UUID mod 4 == 2
    //# 113   set to 1 by FW if badge UUID mod 4 == 3
    for (uint8_t x=0; x<sizeof(gameState); ++x){
    14ec:	8a e3       	ldi	r24, 0x3A	; 58
    14ee:	e5 37       	cpi	r30, 0x75	; 117
    14f0:	f8 07       	cpc	r31, r24
    14f2:	d9 f7       	brne	.-10     	; 0x14ea <Reset+0x4>
        gameState[x] = 0;
    }

    uint8_t id = getID();
    14f4:	e9 df       	rcall	.-46     	; 0x14c8 <getID>

    //Write bit in gameState location 110..113
    if (id == 0) WriteStatusBit(110, 1);
    14f6:	81 11       	cpse	r24, r1
    14f8:	04 c0       	rjmp	.+8      	; 0x1502 <Reset+0x1c>
    if (gameState[number>>3] & (1<<(number&7))) return 1; else return 0;
}

void WriteStatusBit(uint8_t number, uint8_t state){
    number &= 0x7f;
    if (state) gameState[number>>3] |= 1<<(number&7);
    14fa:	80 91 6e 3a 	lds	r24, 0x3A6E	; 0x803a6e <gameState+0xd>
    14fe:	80 64       	ori	r24, 0x40	; 64
    1500:	05 c0       	rjmp	.+10     	; 0x150c <Reset+0x26>

    uint8_t id = getID();

    //Write bit in gameState location 110..113
    if (id == 0) WriteStatusBit(110, 1);
    else if (id == 1) WriteStatusBit(111, 1);
    1502:	81 30       	cpi	r24, 0x01	; 1
    1504:	31 f4       	brne	.+12     	; 0x1512 <Reset+0x2c>
    if (gameState[number>>3] & (1<<(number&7))) return 1; else return 0;
}

void WriteStatusBit(uint8_t number, uint8_t state){
    number &= 0x7f;
    if (state) gameState[number>>3] |= 1<<(number&7);
    1506:	80 91 6e 3a 	lds	r24, 0x3A6E	; 0x803a6e <gameState+0xd>
    150a:	80 68       	ori	r24, 0x80	; 128
    150c:	80 93 6e 3a 	sts	0x3A6E, r24	; 0x803a6e <gameState+0xd>
    1510:	0d c0       	rjmp	.+26     	; 0x152c <Reset+0x46>
    uint8_t id = getID();

    //Write bit in gameState location 110..113
    if (id == 0) WriteStatusBit(110, 1);
    else if (id == 1) WriteStatusBit(111, 1);
    else if (id == 2) WriteStatusBit(112, 1);
    1512:	82 30       	cpi	r24, 0x02	; 2
    1514:	21 f4       	brne	.+8      	; 0x151e <Reset+0x38>
    if (gameState[number>>3] & (1<<(number&7))) return 1; else return 0;
}

void WriteStatusBit(uint8_t number, uint8_t state){
    number &= 0x7f;
    if (state) gameState[number>>3] |= 1<<(number&7);
    1516:	80 91 6f 3a 	lds	r24, 0x3A6F	; 0x803a6f <gameState+0xe>
    151a:	81 60       	ori	r24, 0x01	; 1
    151c:	05 c0       	rjmp	.+10     	; 0x1528 <Reset+0x42>

    //Write bit in gameState location 110..113
    if (id == 0) WriteStatusBit(110, 1);
    else if (id == 1) WriteStatusBit(111, 1);
    else if (id == 2) WriteStatusBit(112, 1);
    else if (id == 3) WriteStatusBit(113, 1);
    151e:	83 30       	cpi	r24, 0x03	; 3
    1520:	29 f4       	brne	.+10     	; 0x152c <Reset+0x46>
    if (gameState[number>>3] & (1<<(number&7))) return 1; else return 0;
}

void WriteStatusBit(uint8_t number, uint8_t state){
    number &= 0x7f;
    if (state) gameState[number>>3] |= 1<<(number&7);
    1522:	80 91 6f 3a 	lds	r24, 0x3A6F	; 0x803a6f <gameState+0xe>
    1526:	82 60       	ori	r24, 0x02	; 2
    1528:	80 93 6f 3a 	sts	0x3A6F, r24	; 0x803a6f <gameState+0xe>
    152c:	80 91 61 3a 	lds	r24, 0x3A61	; 0x803a61 <gameState>
    1530:	81 60       	ori	r24, 0x01	; 1
    1532:	80 93 61 3a 	sts	0x3A61, r24	; 0x803a61 <gameState>
    1536:	08 95       	ret

00001538 <LoadGameState>:

    return sample;
}

//Load game status
void LoadGameState(){
    1538:	cf 93       	push	r28
    153a:	df 93       	push	r29
    EERead(0, &gameState[0], BOOTCHK);   //Load game status bits from EEPROM
    153c:	44 e1       	ldi	r20, 0x14	; 20
    153e:	61 e6       	ldi	r22, 0x61	; 97
    1540:	7a e3       	ldi	r23, 0x3A	; 58
    1542:	80 e0       	ldi	r24, 0x00	; 0
    1544:	91 dd       	rcall	.-1246   	; 0x1068 <EERead>
    1546:	ce e6       	ldi	r28, 0x6E	; 110

    uint8_t idSet = 0;
    1548:	d0 e0       	ldi	r29, 0x00	; 0
    for (uint8_t x=0; x<4; ++x){
        idSet += ReadStatusBit(110+x);
    154a:	8c 2f       	mov	r24, r28
    154c:	75 df       	rcall	.-278    	; 0x1438 <ReadStatusBit>
    154e:	d8 0f       	add	r29, r24
    1550:	cf 5f       	subi	r28, 0xFF	; 255
//Load game status
void LoadGameState(){
    EERead(0, &gameState[0], BOOTCHK);   //Load game status bits from EEPROM

    uint8_t idSet = 0;
    for (uint8_t x=0; x<4; ++x){
    1552:	c2 37       	cpi	r28, 0x72	; 114
    1554:	d1 f7       	brne	.-12     	; 0x154a <LoadGameState+0x12>
        idSet += ReadStatusBit(110+x);
    }

    //Check if badge is reset(0 = cheated!) or new(3) or error(2)
    if (idSet != 1) {
    1556:	d1 30       	cpi	r29, 0x01	; 1
        Reset();
    1558:	11 f0       	breq	.+4      	; 0x155e <LoadGameState+0x26>
    155a:	c5 df       	rcall	.-118    	; 0x14e6 <Reset>
    } else getID();
    155c:	01 c0       	rjmp	.+2      	; 0x1560 <LoadGameState+0x28>
    155e:	b4 df       	rcall	.-152    	; 0x14c8 <getID>

    inventory[0] = (gameState[INVADDR]<<8|gameState[INVADDR+1]);
    1560:	80 91 71 3a 	lds	r24, 0x3A71	; 0x803a71 <gameState+0x10>
    1564:	90 91 72 3a 	lds	r25, 0x3A72	; 0x803a72 <gameState+0x11>
    1568:	98 27       	eor	r25, r24
    156a:	89 27       	eor	r24, r25
    156c:	98 27       	eor	r25, r24
    156e:	80 93 3e 38 	sts	0x383E, r24	; 0x80383e <inventory>
    1572:	90 93 3f 38 	sts	0x383F, r25	; 0x80383f <inventory+0x1>
    inventory[1] = (gameState[INVADDR+2]<<8|gameState[INVADDR+3]);
    1576:	80 91 73 3a 	lds	r24, 0x3A73	; 0x803a73 <gameState+0x12>
    157a:	90 91 74 3a 	lds	r25, 0x3A74	; 0x803a74 <gameState+0x13>
    157e:	98 27       	eor	r25, r24
    1580:	89 27       	eor	r24, r25
    1582:	98 27       	eor	r25, r24
    1584:	80 93 40 38 	sts	0x3840, r24	; 0x803840 <inventory+0x2>
    1588:	90 93 41 38 	sts	0x3841, r25	; 0x803841 <inventory+0x3>
}
    158c:	df 91       	pop	r29
    158e:	cf 91       	pop	r28
    1590:	08 95       	ret

00001592 <HotSummer>:
    //Write bit 0, must always be 1!
    WriteStatusBit(0, 1);
}

//Sets specific game bits after the badge is heated for one and two times.
uint8_t HotSummer(){
    1592:	cf 93       	push	r28
    static uint8_t cooledDown = 0;

    if (CheckState(SUMMERS_COMPLETED)){
    1594:	86 e7       	ldi	r24, 0x76	; 118
    1596:	88 df       	rcall	.-240    	; 0x14a8 <CheckState>
    1598:	c8 2f       	mov	r28, r24
    159a:	88 23       	and	r24, r24
    159c:	81 f0       	breq	.+32     	; 0x15be <HotSummer+0x2c>
        iLED[SCARAB[R]] = 0;
    159e:	e0 91 a0 c0 	lds	r30, 0xC0A0	; 0x80c0a0 <__bss_end+0x858e>
    15a2:	f0 e0       	ldi	r31, 0x00	; 0
    15a4:	ed 53       	subi	r30, 0x3D	; 61
    15a6:	f5 4c       	sbci	r31, 0xC5	; 197
    15a8:	10 82       	st	Z, r1
        iLED[SCARAB[G]] = dimValue;
    15aa:	e0 91 a1 c0 	lds	r30, 0xC0A1	; 0x80c0a1 <__bss_end+0x858f>
    15ae:	f0 e0       	ldi	r31, 0x00	; 0
    15b0:	80 91 0c 38 	lds	r24, 0x380C	; 0x80380c <dimValue>
    15b4:	ed 53       	subi	r30, 0x3D	; 61
    15b6:	f5 4c       	sbci	r31, 0xC5	; 197
    15b8:	80 83       	st	Z, r24
        return 1;
    15ba:	c1 e0       	ldi	r28, 0x01	; 1
    15bc:	4c c0       	rjmp	.+152    	; 0x1656 <HotSummer+0xc4>
    }

    if (CheckState(FIRST_SUMMER)) {
    15be:	85 e7       	ldi	r24, 0x75	; 117
    15c0:	73 df       	rcall	.-282    	; 0x14a8 <CheckState>
    15c2:	88 23       	and	r24, r24
    15c4:	59 f1       	breq	.+86     	; 0x161c <HotSummer+0x8a>
        iLED[SCARAB[R]] = dimValue;
    15c6:	e0 91 a0 c0 	lds	r30, 0xC0A0	; 0x80c0a0 <__bss_end+0x858e>
    15ca:	f0 e0       	ldi	r31, 0x00	; 0
    15cc:	80 91 0c 38 	lds	r24, 0x380C	; 0x80380c <dimValue>
    15d0:	ed 53       	subi	r30, 0x3D	; 61
    15d2:	f5 4c       	sbci	r31, 0xC5	; 197
    15d4:	80 83       	st	Z, r24
        if ((cooledDown) && (adcTemp >= (calTemp + 32))) {
    15d6:	80 91 59 38 	lds	r24, 0x3859	; 0x803859 <cooledDown.3969>
    15da:	88 23       	and	r24, r24
    15dc:	79 f0       	breq	.+30     	; 0x15fc <HotSummer+0x6a>
    15de:	80 91 c0 3a 	lds	r24, 0x3AC0	; 0x803ac0 <calTemp>
    15e2:	90 91 c1 3a 	lds	r25, 0x3AC1	; 0x803ac1 <calTemp+0x1>
    15e6:	20 91 ed 3a 	lds	r18, 0x3AED	; 0x803aed <adcTemp>
    15ea:	30 91 ee 3a 	lds	r19, 0x3AEE	; 0x803aee <adcTemp+0x1>
    15ee:	80 96       	adiw	r24, 0x20	; 32
    15f0:	28 17       	cp	r18, r24
    15f2:	39 07       	cpc	r19, r25
            UpdateState(SUMMERS_COMPLETED);
    15f4:	18 f0       	brcs	.+6      	; 0x15fc <HotSummer+0x6a>
    15f6:	86 e7       	ldi	r24, 0x76	; 118
    15f8:	4d df       	rcall	.-358    	; 0x1494 <UpdateState>
            return 0;
    15fa:	2d c0       	rjmp	.+90     	; 0x1656 <HotSummer+0xc4>
        }
        if (adcTemp <= (calTemp + 8)) cooledDown = 1;
    15fc:	80 91 c0 3a 	lds	r24, 0x3AC0	; 0x803ac0 <calTemp>
    1600:	90 91 c1 3a 	lds	r25, 0x3AC1	; 0x803ac1 <calTemp+0x1>
    1604:	20 91 ed 3a 	lds	r18, 0x3AED	; 0x803aed <adcTemp>
    1608:	30 91 ee 3a 	lds	r19, 0x3AEE	; 0x803aee <adcTemp+0x1>
    160c:	08 96       	adiw	r24, 0x08	; 8
    160e:	82 17       	cp	r24, r18
    1610:	93 07       	cpc	r25, r19
    1612:	08 f1       	brcs	.+66     	; 0x1656 <HotSummer+0xc4>
    1614:	81 e0       	ldi	r24, 0x01	; 1
    1616:	80 93 59 38 	sts	0x3859, r24	; 0x803859 <cooledDown.3969>
    161a:	1d c0       	rjmp	.+58     	; 0x1656 <HotSummer+0xc4>
                   
    } else {
        if (calTemp == 0) calTemp = adcTemp;
    161c:	80 91 c0 3a 	lds	r24, 0x3AC0	; 0x803ac0 <calTemp>
    1620:	90 91 c1 3a 	lds	r25, 0x3AC1	; 0x803ac1 <calTemp+0x1>
    1624:	89 2b       	or	r24, r25
    1626:	41 f4       	brne	.+16     	; 0x1638 <HotSummer+0xa6>
    1628:	80 91 ed 3a 	lds	r24, 0x3AED	; 0x803aed <adcTemp>
    162c:	90 91 ee 3a 	lds	r25, 0x3AEE	; 0x803aee <adcTemp+0x1>
    1630:	80 93 c0 3a 	sts	0x3AC0, r24	; 0x803ac0 <calTemp>
    1634:	90 93 c1 3a 	sts	0x3AC1, r25	; 0x803ac1 <calTemp+0x1>
        if (adcTemp >= (calTemp + 32)) {
    1638:	80 91 c0 3a 	lds	r24, 0x3AC0	; 0x803ac0 <calTemp>
    163c:	90 91 c1 3a 	lds	r25, 0x3AC1	; 0x803ac1 <calTemp+0x1>
    1640:	20 91 ed 3a 	lds	r18, 0x3AED	; 0x803aed <adcTemp>
    1644:	30 91 ee 3a 	lds	r19, 0x3AEE	; 0x803aee <adcTemp+0x1>
    1648:	80 96       	adiw	r24, 0x20	; 32
    164a:	28 17       	cp	r18, r24
    164c:	39 07       	cpc	r19, r25
            UpdateState(FIRST_SUMMER);
    164e:	18 f0       	brcs	.+6      	; 0x1656 <HotSummer+0xc4>
    1650:	85 e7       	ldi	r24, 0x75	; 117
    1652:	20 df       	rcall	.-448    	; 0x1494 <UpdateState>
        }
    }
    return 0;
    1654:	c0 e0       	ldi	r28, 0x00	; 0
}
    1656:	8c 2f       	mov	r24, r28
    1658:	cf 91       	pop	r28
    165a:	08 95       	ret

0000165c <WingBar>:

void WingBar(int8_t l, int8_t r) {
    165c:	e2 ea       	ldi	r30, 0xA2	; 162
    165e:	f0 ec       	ldi	r31, 0xC0	; 192
    for (int8_t i=0; i<5; i++) {
    1660:	90 e0       	ldi	r25, 0x00	; 0
        if (i<l)
            iLED[WING[L][i]] = dimValue;
    1662:	a5 81       	ldd	r26, Z+5	; 0x05
    1664:	b0 e0       	ldi	r27, 0x00	; 0
    return 0;
}

void WingBar(int8_t l, int8_t r) {
    for (int8_t i=0; i<5; i++) {
        if (i<l)
    1666:	98 17       	cp	r25, r24
    1668:	34 f4       	brge	.+12     	; 0x1676 <WingBar+0x1a>
            iLED[WING[L][i]] = dimValue;
    166a:	20 91 0c 38 	lds	r18, 0x380C	; 0x80380c <dimValue>
    166e:	ad 53       	subi	r26, 0x3D	; 61
    1670:	b5 4c       	sbci	r27, 0xC5	; 197
    1672:	2c 93       	st	X, r18
    1674:	03 c0       	rjmp	.+6      	; 0x167c <WingBar+0x20>
        else
            iLED[WING[L][i]] = 0;
    1676:	ad 53       	subi	r26, 0x3D	; 61
    1678:	b5 4c       	sbci	r27, 0xC5	; 197
    167a:	1c 92       	st	X, r1
        if (i<r)
            iLED[WING[R][i]] = dimValue;
    167c:	a0 81       	ld	r26, Z
    167e:	b0 e0       	ldi	r27, 0x00	; 0
    for (int8_t i=0; i<5; i++) {
        if (i<l)
            iLED[WING[L][i]] = dimValue;
        else
            iLED[WING[L][i]] = 0;
        if (i<r)
    1680:	96 17       	cp	r25, r22
    1682:	34 f4       	brge	.+12     	; 0x1690 <WingBar+0x34>
            iLED[WING[R][i]] = dimValue;
    1684:	20 91 0c 38 	lds	r18, 0x380C	; 0x80380c <dimValue>
    1688:	ad 53       	subi	r26, 0x3D	; 61
    168a:	b5 4c       	sbci	r27, 0xC5	; 197
    168c:	2c 93       	st	X, r18
    168e:	03 c0       	rjmp	.+6      	; 0x1696 <WingBar+0x3a>
        else
            iLED[WING[R][i]] = 0;
    1690:	ad 53       	subi	r26, 0x3D	; 61
    1692:	b5 4c       	sbci	r27, 0xC5	; 197
    1694:	1c 92       	st	X, r1
    1696:	9f 5f       	subi	r25, 0xFF	; 255
    1698:	31 96       	adiw	r30, 0x01	; 1
    }
    return 0;
}

void WingBar(int8_t l, int8_t r) {
    for (int8_t i=0; i<5; i++) {
    169a:	95 30       	cpi	r25, 0x05	; 5
    169c:	11 f7       	brne	.-60     	; 0x1662 <WingBar+0x6>
        if (i<r)
            iLED[WING[R][i]] = dimValue;
        else
            iLED[WING[R][i]] = 0;
    }
}
    169e:	08 95       	ret

000016a0 <SetBothEyes>:

void SetBothEyes(uint8_t r, uint8_t g) {
    for (uint8_t i=0; i<2; i++) {
        iLED[EYE[R][i]] = r;
    16a0:	ac ea       	ldi	r26, 0xAC	; 172
    16a2:	b0 ec       	ldi	r27, 0xC0	; 192
    16a4:	ec 91       	ld	r30, X
    16a6:	f0 e0       	ldi	r31, 0x00	; 0
    16a8:	ed 53       	subi	r30, 0x3D	; 61
    16aa:	f5 4c       	sbci	r31, 0xC5	; 197
    16ac:	80 83       	st	Z, r24
        iLED[EYE[G][i]] = g;
    16ae:	12 96       	adiw	r26, 0x02	; 2
    16b0:	ec 91       	ld	r30, X
    16b2:	12 97       	sbiw	r26, 0x02	; 2
    16b4:	f0 e0       	ldi	r31, 0x00	; 0
    16b6:	ed 53       	subi	r30, 0x3D	; 61
    16b8:	f5 4c       	sbci	r31, 0xC5	; 197
    16ba:	60 83       	st	Z, r22
    }
}

void SetBothEyes(uint8_t r, uint8_t g) {
    for (uint8_t i=0; i<2; i++) {
        iLED[EYE[R][i]] = r;
    16bc:	11 96       	adiw	r26, 0x01	; 1
    16be:	ec 91       	ld	r30, X
    16c0:	11 97       	sbiw	r26, 0x01	; 1
    16c2:	f0 e0       	ldi	r31, 0x00	; 0
    16c4:	ed 53       	subi	r30, 0x3D	; 61
    16c6:	f5 4c       	sbci	r31, 0xC5	; 197
    16c8:	80 83       	st	Z, r24
        iLED[EYE[G][i]] = g;
    16ca:	13 96       	adiw	r26, 0x03	; 3
    16cc:	ec 91       	ld	r30, X
    16ce:	f0 e0       	ldi	r31, 0x00	; 0
    16d0:	ed 53       	subi	r30, 0x3D	; 61
    16d2:	f5 4c       	sbci	r31, 0xC5	; 197
    16d4:	60 83       	st	Z, r22
    16d6:	08 95       	ret

000016d8 <ClearHackerLeds>:
    }
}

void ClearHackerLeds() {
    16d8:	cf 93       	push	r28
    16da:	df 93       	push	r29
    16dc:	e0 eb       	ldi	r30, 0xB0	; 176
    16de:	f0 ec       	ldi	r31, 0xC0	; 192
    16e0:	ef 01       	movw	r28, r30
    for (uint8_t i=0;i<6;i++) {
        iLED[HCKR[G][i]] = 0;
    16e2:	a6 81       	ldd	r26, Z+6	; 0x06
    16e4:	b0 e0       	ldi	r27, 0x00	; 0
    16e6:	ad 53       	subi	r26, 0x3D	; 61
    16e8:	b5 4c       	sbci	r27, 0xC5	; 197
    16ea:	1c 92       	st	X, r1
    16ec:	31 96       	adiw	r30, 0x01	; 1
        iLED[HCKR[R][i]] = 0;
    16ee:	a8 81       	ld	r26, Y
    16f0:	b0 e0       	ldi	r27, 0x00	; 0
    16f2:	ad 53       	subi	r26, 0x3D	; 61
    16f4:	b5 4c       	sbci	r27, 0xC5	; 197
    16f6:	1c 92       	st	X, r1
        iLED[EYE[G][i]] = g;
    }
}

void ClearHackerLeds() {
    for (uint8_t i=0;i<6;i++) {
    16f8:	80 ec       	ldi	r24, 0xC0	; 192
    16fa:	e6 3b       	cpi	r30, 0xB6	; 182
    16fc:	f8 07       	cpc	r31, r24
    16fe:	81 f7       	brne	.-32     	; 0x16e0 <ClearHackerLeds+0x8>
        iLED[HCKR[G][i]] = 0;
        iLED[HCKR[R][i]] = 0;
    }
}
    1700:	df 91       	pop	r29
    1702:	cf 91       	pop	r28
    1704:	08 95       	ret

00001706 <GenerateBlinks>:


void GenerateBlinks(){
    1706:	ef 92       	push	r14
    1708:	ff 92       	push	r15
    170a:	0f 93       	push	r16
    170c:	1f 93       	push	r17
    170e:	cf 93       	push	r28
    1710:	df 93       	push	r29
    used by the games, the other LEDs can be used by setting 
    effect (or be set directly)
    */

    //Activate HCKR & BADGER leds based on the state-bits
    if (gameNow == TEXT) {
    1712:	80 91 3c 38 	lds	r24, 0x383C	; 0x80383c <gameNow>
    1716:	88 23       	and	r24, r24
    1718:	29 f0       	breq	.+10     	; 0x1724 <GenerateBlinks+0x1e>
                iLED[HCKR[R][i]] = dimValue;
            }
        }
    }

    if (CheckState(GEM_STATE)) {
    171a:	80 e4       	ldi	r24, 0x40	; 64
    171c:	c5 de       	rcall	.-630    	; 0x14a8 <CheckState>
    171e:	81 11       	cpse	r24, r1
    1720:	24 c0       	rjmp	.+72     	; 0x176a <GenerateBlinks+0x64>
    1722:	50 c0       	rjmp	.+160    	; 0x17c4 <GenerateBlinks+0xbe>
    1724:	c0 eb       	ldi	r28, 0xB0	; 176
    1726:	d0 ec       	ldi	r29, 0xC0	; 192
    used by the games, the other LEDs can be used by setting 
    effect (or be set directly)
    */

    //Activate HCKR & BADGER leds based on the state-bits
    if (gameNow == TEXT) {
    1728:	1a e7       	ldi	r17, 0x7A	; 122
        for (uint8_t i=0;i<6;i++) {
            if(CheckState(HACKER_STATES + i)) {
    172a:	81 2f       	mov	r24, r17
    172c:	bd de       	rcall	.-646    	; 0x14a8 <CheckState>
                iLED[HCKR[G][i]] = dimValue;
    172e:	ee 81       	ldd	r30, Y+6	; 0x06
    1730:	f0 e0       	ldi	r31, 0x00	; 0
    */

    //Activate HCKR & BADGER leds based on the state-bits
    if (gameNow == TEXT) {
        for (uint8_t i=0;i<6;i++) {
            if(CheckState(HACKER_STATES + i)) {
    1732:	88 23       	and	r24, r24
    1734:	59 f0       	breq	.+22     	; 0x174c <GenerateBlinks+0x46>
                iLED[HCKR[G][i]] = dimValue;
    1736:	80 91 0c 38 	lds	r24, 0x380C	; 0x80380c <dimValue>
    173a:	ed 53       	subi	r30, 0x3D	; 61
    173c:	f5 4c       	sbci	r31, 0xC5	; 197
    173e:	80 83       	st	Z, r24
                iLED[HCKR[R][i]] = 0;
    1740:	e8 81       	ld	r30, Y
    1742:	f0 e0       	ldi	r31, 0x00	; 0
    1744:	ed 53       	subi	r30, 0x3D	; 61
    1746:	f5 4c       	sbci	r31, 0xC5	; 197
    1748:	10 82       	st	Z, r1
    174a:	0a c0       	rjmp	.+20     	; 0x1760 <GenerateBlinks+0x5a>
            } else {
                iLED[HCKR[G][i]] = 0;
    174c:	ed 53       	subi	r30, 0x3D	; 61
    174e:	f5 4c       	sbci	r31, 0xC5	; 197
    1750:	10 82       	st	Z, r1
                iLED[HCKR[R][i]] = dimValue;
    1752:	e8 81       	ld	r30, Y
    1754:	f0 e0       	ldi	r31, 0x00	; 0
    1756:	80 91 0c 38 	lds	r24, 0x380C	; 0x80380c <dimValue>
    175a:	ed 53       	subi	r30, 0x3D	; 61
    175c:	f5 4c       	sbci	r31, 0xC5	; 197
    175e:	80 83       	st	Z, r24
    1760:	1f 5f       	subi	r17, 0xFF	; 255
    1762:	21 96       	adiw	r28, 0x01	; 1
    effect (or be set directly)
    */

    //Activate HCKR & BADGER leds based on the state-bits
    if (gameNow == TEXT) {
        for (uint8_t i=0;i<6;i++) {
    1764:	10 38       	cpi	r17, 0x80	; 128
    1766:	09 f7       	brne	.-62     	; 0x172a <GenerateBlinks+0x24>
    1768:	d8 cf       	rjmp	.-80     	; 0x171a <GenerateBlinks+0x14>
            }
        }
    }

    if (CheckState(GEM_STATE)) {
        if ( HeartCount == 1 || HeartCount == 3 || HeartCount == 5 )
    176a:	80 91 5b 38 	lds	r24, 0x385B	; 0x80385b <HeartCount>
    176e:	98 2f       	mov	r25, r24
    1770:	9d 7f       	andi	r25, 0xFD	; 253
    1772:	e0 91 9f c0 	lds	r30, 0xC09F	; 0x80c09f <__bss_end+0x858d>
            iLED[BADGER] = dimValue>>1 ;
    1776:	f0 e0       	ldi	r31, 0x00	; 0
            }
        }
    }

    if (CheckState(GEM_STATE)) {
        if ( HeartCount == 1 || HeartCount == 3 || HeartCount == 5 )
    1778:	91 30       	cpi	r25, 0x01	; 1
    177a:	11 f0       	breq	.+4      	; 0x1780 <GenerateBlinks+0x7a>
    177c:	85 30       	cpi	r24, 0x05	; 5
    177e:	21 f4       	brne	.+8      	; 0x1788 <GenerateBlinks+0x82>
            iLED[BADGER] = dimValue>>1 ;
    1780:	90 91 0c 38 	lds	r25, 0x380C	; 0x80380c <dimValue>
    1784:	96 95       	lsr	r25
    1786:	06 c0       	rjmp	.+12     	; 0x1794 <GenerateBlinks+0x8e>
        else if ( HeartCount == 2 || HeartCount == 4 )
    1788:	82 30       	cpi	r24, 0x02	; 2
    178a:	11 f0       	breq	.+4      	; 0x1790 <GenerateBlinks+0x8a>
    178c:	84 30       	cpi	r24, 0x04	; 4
    178e:	31 f4       	brne	.+12     	; 0x179c <GenerateBlinks+0x96>
            iLED[BADGER] = dimValue;
    1790:	90 91 0c 38 	lds	r25, 0x380C	; 0x80380c <dimValue>
    1794:	ed 53       	subi	r30, 0x3D	; 61
    1796:	f5 4c       	sbci	r31, 0xC5	; 197
    1798:	90 83       	st	Z, r25
    179a:	0c c0       	rjmp	.+24     	; 0x17b4 <GenerateBlinks+0xae>
        else if ( HeartCount == 0 || HeartCount == 6 )
    179c:	88 23       	and	r24, r24
    179e:	11 f0       	breq	.+4      	; 0x17a4 <GenerateBlinks+0x9e>
    17a0:	86 30       	cpi	r24, 0x06	; 6
    17a2:	29 f4       	brne	.+10     	; 0x17ae <GenerateBlinks+0xa8>
            iLED[BADGER] = dimValue>>2;
    17a4:	90 91 0c 38 	lds	r25, 0x380C	; 0x80380c <dimValue>
    17a8:	96 95       	lsr	r25
    17aa:	96 95       	lsr	r25
    17ac:	f3 cf       	rjmp	.-26     	; 0x1794 <GenerateBlinks+0x8e>
        else
            iLED[BADGER] = 0;
    17ae:	ed 53       	subi	r30, 0x3D	; 61
    17b0:	f5 4c       	sbci	r31, 0xC5	; 197
    17b2:	10 82       	st	Z, r1
        if (HeartCount<32)
    17b4:	80 32       	cpi	r24, 0x20	; 32
    17b6:	20 f4       	brcc	.+8      	; 0x17c0 <GenerateBlinks+0xba>
            HeartCount++;
    17b8:	8f 5f       	subi	r24, 0xFF	; 255
    17ba:	80 93 5b 38 	sts	0x385B, r24	; 0x80385b <HeartCount>
    17be:	02 c0       	rjmp	.+4      	; 0x17c4 <GenerateBlinks+0xbe>
        else
            HeartCount = 0;
    17c0:	10 92 5b 38 	sts	0x385B, r1	; 0x80385b <HeartCount>
    }

    //LEDs effects for all games
    // Keep a counter for dynamic effects
    LedCount++;
    17c4:	90 91 5a 38 	lds	r25, 0x385A	; 0x80385a <LedCount>
    17c8:	9f 5f       	subi	r25, 0xFF	; 255
    17ca:	90 93 5a 38 	sts	0x385A, r25	; 0x80385a <LedCount>

    switch (effect&0x1f) {
    17ce:	e0 91 3a 38 	lds	r30, 0x383A	; 0x80383a <effect>
    17d2:	f0 91 3b 38 	lds	r31, 0x383B	; 0x80383b <effect+0x1>
    17d6:	ef 71       	andi	r30, 0x1F	; 31
    17d8:	ff 27       	eor	r31, r31
    17da:	e9 30       	cpi	r30, 0x09	; 9
    17dc:	f1 05       	cpc	r31, r1
    17de:	08 f0       	brcs	.+2      	; 0x17e2 <GenerateBlinks+0xdc>
    17e0:	e8 c0       	rjmp	.+464    	; 0x19b2 <GenerateBlinks+0x2ac>
    17e2:	e2 5c       	subi	r30, 0xC2	; 194
    17e4:	ff 4f       	sbci	r31, 0xFF	; 255
    17e6:	0c 94 33 20 	jmp	0x4066	; 0x4066 <__tablejump2__>
        // All LEDs off
        case 0:
            WingBar(0,0);
    17ea:	60 e0       	ldi	r22, 0x00	; 0
    17ec:	80 e0       	ldi	r24, 0x00	; 0
    17ee:	36 df       	rcall	.-404    	; 0x165c <WingBar>
            for (uint8_t i=0; i<2; i++) {
                iLED[EYE[R][i]] = 0;
    17f0:	e0 91 ac c0 	lds	r30, 0xC0AC	; 0x80c0ac <__bss_end+0x859a>
    17f4:	f0 e0       	ldi	r31, 0x00	; 0
    17f6:	ed 53       	subi	r30, 0x3D	; 61
    17f8:	f5 4c       	sbci	r31, 0xC5	; 197
    17fa:	10 82       	st	Z, r1
                iLED[EYE[G][i]] = 0; 
    17fc:	e0 91 ae c0 	lds	r30, 0xC0AE	; 0x80c0ae <__bss_end+0x859c>
    1800:	f0 e0       	ldi	r31, 0x00	; 0
    1802:	ed 53       	subi	r30, 0x3D	; 61
    1804:	f5 4c       	sbci	r31, 0xC5	; 197
    1806:	10 82       	st	Z, r1
                iLED[SCARAB[i]] = 0;
    1808:	e0 91 a0 c0 	lds	r30, 0xC0A0	; 0x80c0a0 <__bss_end+0x858e>
    180c:	f0 e0       	ldi	r31, 0x00	; 0
    180e:	ed 53       	subi	r30, 0x3D	; 61
    1810:	f5 4c       	sbci	r31, 0xC5	; 197
    1812:	10 82       	st	Z, r1
    switch (effect&0x1f) {
        // All LEDs off
        case 0:
            WingBar(0,0);
            for (uint8_t i=0; i<2; i++) {
                iLED[EYE[R][i]] = 0;
    1814:	e0 91 ad c0 	lds	r30, 0xC0AD	; 0x80c0ad <__bss_end+0x859b>
    1818:	f0 e0       	ldi	r31, 0x00	; 0
    181a:	ed 53       	subi	r30, 0x3D	; 61
    181c:	f5 4c       	sbci	r31, 0xC5	; 197
    181e:	10 82       	st	Z, r1
                iLED[EYE[G][i]] = 0; 
    1820:	e0 91 af c0 	lds	r30, 0xC0AF	; 0x80c0af <__bss_end+0x859d>
    1824:	f0 e0       	ldi	r31, 0x00	; 0
    1826:	ed 53       	subi	r30, 0x3D	; 61
    1828:	f5 4c       	sbci	r31, 0xC5	; 197
    182a:	10 82       	st	Z, r1
                iLED[SCARAB[i]] = 0;
    182c:	e0 91 a1 c0 	lds	r30, 0xC0A1	; 0x80c0a1 <__bss_end+0x858f>
    1830:	f0 e0       	ldi	r31, 0x00	; 0
    1832:	ed 53       	subi	r30, 0x3D	; 61
    1834:	f5 4c       	sbci	r31, 0xC5	; 197
    1836:	10 82       	st	Z, r1
            }
            iLED[CAT] = 0;
    1838:	e0 91 9e c0 	lds	r30, 0xC09E	; 0x80c09e <__bss_end+0x858c>
    183c:	f0 e0       	ldi	r31, 0x00	; 0
    183e:	ed 53       	subi	r30, 0x3D	; 61
    1840:	f5 4c       	sbci	r31, 0xC5	; 197
    1842:	10 82       	st	Z, r1
            break;
    1844:	b6 c0       	rjmp	.+364    	; 0x19b2 <GenerateBlinks+0x2ac>

        //'flashing red eyes',       # 1 can be used when a bad answer is given
        case 1:
            SetBothEyes((LedCount & 1 ? dimValue : 0),0);
    1846:	89 2f       	mov	r24, r25
    1848:	81 70       	andi	r24, 0x01	; 1
    184a:	90 fd       	sbrc	r25, 0
    184c:	80 91 0c 38 	lds	r24, 0x380C	; 0x80380c <dimValue>
    1850:	60 e0       	ldi	r22, 0x00	; 0
    1852:	0d c0       	rjmp	.+26     	; 0x186e <GenerateBlinks+0x168>
    1854:	69 2f       	mov	r22, r25
    1856:	70 e0       	ldi	r23, 0x00	; 0
            break;

        //'flashing green eyes',     # 2 can be used when a good answer is given
        case 2:
            SetBothEyes(0, 0x1f + (((LedCount & 0x08) ? ((LedCount&0x07)^0x07) : (LedCount&0x07))<<5));
    1858:	93 ff       	sbrs	r25, 3
    185a:	02 c0       	rjmp	.+4      	; 0x1860 <GenerateBlinks+0x15a>
    185c:	60 95       	com	r22
    185e:	70 95       	com	r23
    1860:	85 e0       	ldi	r24, 0x05	; 5
    1862:	66 0f       	add	r22, r22
    1864:	77 1f       	adc	r23, r23
    1866:	8a 95       	dec	r24
    1868:	e1 f7       	brne	.-8      	; 0x1862 <GenerateBlinks+0x15c>
    186a:	61 5e       	subi	r22, 0xE1	; 225
    186c:	80 e0       	ldi	r24, 0x00	; 0
        // No LED action, game will do it's own LED magic
        case 31:
        default:
            break;
    }
}
    186e:	df 91       	pop	r29
    1870:	cf 91       	pop	r28
    1872:	1f 91       	pop	r17
    1874:	0f 91       	pop	r16
    1876:	ff 90       	pop	r15
            SetBothEyes((LedCount & 1 ? dimValue : 0),0);
            break;

        //'flashing green eyes',     # 2 can be used when a good answer is given
        case 2:
            SetBothEyes(0, 0x1f + (((LedCount & 0x08) ? ((LedCount&0x07)^0x07) : (LedCount&0x07))<<5));
    1878:	ef 90       	pop	r14
    187a:	12 cf       	rjmp	.-476    	; 0x16a0 <SetBothEyes>
            break;

        //'flash both wings'
        case 5:
            if ((LedCount & 3) == 0) {
    187c:	89 2f       	mov	r24, r25
    187e:	83 70       	andi	r24, 0x03	; 3
    1880:	09 f0       	breq	.+2      	; 0x1884 <GenerateBlinks+0x17e>
    1882:	97 c0       	rjmp	.+302    	; 0x19b2 <GenerateBlinks+0x2ac>
                if (LedCount & 4)
    1884:	92 ff       	sbrs	r25, 2
    1886:	03 c0       	rjmp	.+6      	; 0x188e <GenerateBlinks+0x188>
                    WingBar(5,5);
    1888:	65 e0       	ldi	r22, 0x05	; 5
    188a:	85 e0       	ldi	r24, 0x05	; 5
    188c:	02 c0       	rjmp	.+4      	; 0x1892 <GenerateBlinks+0x18c>
                else
                    WingBar(0,0);
    188e:	60 e0       	ldi	r22, 0x00	; 0
    1890:	80 e0       	ldi	r24, 0x00	; 0
        // No LED action, game will do it's own LED magic
        case 31:
        default:
            break;
    }
}
    1892:	df 91       	pop	r29
    1894:	cf 91       	pop	r28
    1896:	1f 91       	pop	r17
    1898:	0f 91       	pop	r16
    189a:	ff 90       	pop	r15
        case 5:
            if ((LedCount & 3) == 0) {
                if (LedCount & 4)
                    WingBar(5,5);
                else
                    WingBar(0,0);
    189c:	ef 90       	pop	r14
    189e:	de ce       	rjmp	.-580    	; 0x165c <WingBar>
            }
            break;

        //'circle the wing leds'
        case 6:
            if (LedCount > 4) LedCount = 0;
    18a0:	95 30       	cpi	r25, 0x05	; 5
    18a2:	10 f0       	brcs	.+4      	; 0x18a8 <GenerateBlinks+0x1a2>
    18a4:	10 92 5a 38 	sts	0x385A, r1	; 0x80385a <LedCount>
            iLED[WING[L][LedCount]] = 0;
    18a8:	e0 91 5a 38 	lds	r30, 0x385A	; 0x80385a <LedCount>
    18ac:	f0 e0       	ldi	r31, 0x00	; 0
    18ae:	ee 55       	subi	r30, 0x5E	; 94
    18b0:	ff 43       	sbci	r31, 0x3F	; 63
    18b2:	a5 81       	ldd	r26, Z+5	; 0x05
    18b4:	b0 e0       	ldi	r27, 0x00	; 0
    18b6:	ad 53       	subi	r26, 0x3D	; 61
    18b8:	b5 4c       	sbci	r27, 0xC5	; 197
    18ba:	1c 92       	st	X, r1
            iLED[WING[L][(LedCount+1)]] = dimValue;
    18bc:	e6 81       	ldd	r30, Z+6	; 0x06
    18be:	f0 e0       	ldi	r31, 0x00	; 0
    18c0:	80 91 0c 38 	lds	r24, 0x380C	; 0x80380c <dimValue>
    18c4:	ed 53       	subi	r30, 0x3D	; 61
    18c6:	f5 4c       	sbci	r31, 0xC5	; 197
    18c8:	80 83       	st	Z, r24
    18ca:	82 ea       	ldi	r24, 0xA2	; 162
    18cc:	90 ec       	ldi	r25, 0xC0	; 192
    18ce:	cc ea       	ldi	r28, 0xAC	; 172
    18d0:	d0 ec       	ldi	r29, 0xC0	; 192
    18d2:	27 ea       	ldi	r18, 0xA7	; 167
    18d4:	30 ec       	ldi	r19, 0xC0	; 192

            for (uint8_t x=0; x<5; ++x){
                iLED[WING[R][x]] = iLED[WING[L][4-x]];
    18d6:	dc 01       	movw	r26, r24
    18d8:	ed 91       	ld	r30, X+
    18da:	cd 01       	movw	r24, r26
    18dc:	f0 e0       	ldi	r31, 0x00	; 0
    18de:	aa 91       	ld	r26, -Y
    18e0:	b0 e0       	ldi	r27, 0x00	; 0
    18e2:	ad 53       	subi	r26, 0x3D	; 61
    18e4:	b5 4c       	sbci	r27, 0xC5	; 197
    18e6:	4c 91       	ld	r20, X
    18e8:	ed 53       	subi	r30, 0x3D	; 61
    18ea:	f5 4c       	sbci	r31, 0xC5	; 197
    18ec:	40 83       	st	Z, r20
        case 6:
            if (LedCount > 4) LedCount = 0;
            iLED[WING[L][LedCount]] = 0;
            iLED[WING[L][(LedCount+1)]] = dimValue;

            for (uint8_t x=0; x<5; ++x){
    18ee:	2c 17       	cp	r18, r28
    18f0:	3d 07       	cpc	r19, r29
    18f2:	89 f7       	brne	.-30     	; 0x18d6 <GenerateBlinks+0x1d0>
    18f4:	5e c0       	rjmp	.+188    	; 0x19b2 <GenerateBlinks+0x2ac>
    18f6:	c2 ea       	ldi	r28, 0xA2	; 162
    18f8:	d0 ec       	ldi	r29, 0xC0	; 192
            break;

        //'random wing leds'
        case 7:
            for (uint8_t x=0; x<5; ++x){
                iLED[WING[L][x]] = (lfsr() > 127)?dimValue:0;
    18fa:	7e 01       	movw	r14, r28
    18fc:	0d 81       	ldd	r16, Y+5	; 0x05
    18fe:	10 e0       	ldi	r17, 0x00	; 0
    1900:	a5 dc       	rcall	.-1718   	; 0x124c <lfsr>
    1902:	87 ff       	sbrs	r24, 7
    1904:	03 c0       	rjmp	.+6      	; 0x190c <GenerateBlinks+0x206>
    1906:	80 91 0c 38 	lds	r24, 0x380C	; 0x80380c <dimValue>
    190a:	01 c0       	rjmp	.+2      	; 0x190e <GenerateBlinks+0x208>
    190c:	80 e0       	ldi	r24, 0x00	; 0
    190e:	f8 01       	movw	r30, r16
    1910:	ed 53       	subi	r30, 0x3D	; 61
    1912:	f5 4c       	sbci	r31, 0xC5	; 197
    1914:	80 83       	st	Z, r24
                iLED[WING[R][x]] = (lfsr() > 127)?dimValue:0;
    1916:	21 96       	adiw	r28, 0x01	; 1
    1918:	f7 01       	movw	r30, r14
    191a:	00 81       	ld	r16, Z
    191c:	10 e0       	ldi	r17, 0x00	; 0
    191e:	96 dc       	rcall	.-1748   	; 0x124c <lfsr>
    1920:	87 ff       	sbrs	r24, 7
    1922:	03 c0       	rjmp	.+6      	; 0x192a <GenerateBlinks+0x224>
    1924:	80 91 0c 38 	lds	r24, 0x380C	; 0x80380c <dimValue>
    1928:	01 c0       	rjmp	.+2      	; 0x192c <GenerateBlinks+0x226>
    192a:	80 e0       	ldi	r24, 0x00	; 0
    192c:	f8 01       	movw	r30, r16
    192e:	ed 53       	subi	r30, 0x3D	; 61
    1930:	f5 4c       	sbci	r31, 0xC5	; 197
    1932:	80 83       	st	Z, r24
            }
            break;

        //'random wing leds'
        case 7:
            for (uint8_t x=0; x<5; ++x){
    1934:	f0 ec       	ldi	r31, 0xC0	; 192
    1936:	c7 3a       	cpi	r28, 0xA7	; 167
    1938:	df 07       	cpc	r29, r31
    193a:	f9 f6       	brne	.-66     	; 0x18fa <GenerateBlinks+0x1f4>
    193c:	3a c0       	rjmp	.+116    	; 0x19b2 <GenerateBlinks+0x2ac>
            }
            break;

        //'falling rain'
        case 8:
            if ((LedCount & 1) == 0) {
    193e:	90 fd       	sbrc	r25, 0
    1940:	38 c0       	rjmp	.+112    	; 0x19b2 <GenerateBlinks+0x2ac>
    1942:	e2 ea       	ldi	r30, 0xA2	; 162
    1944:	f0 ec       	ldi	r31, 0xC0	; 192
    1946:	86 ea       	ldi	r24, 0xA6	; 166
    1948:	90 ec       	ldi	r25, 0xC0	; 192
    194a:	9f 01       	movw	r18, r30
                for (uint8_t x=0; x<4; ++x){
                    iLED[WING[L][x]] = iLED[WING[L][x+1]];
    194c:	a5 81       	ldd	r26, Z+5	; 0x05
    194e:	b0 e0       	ldi	r27, 0x00	; 0
    1950:	c6 81       	ldd	r28, Z+6	; 0x06
    1952:	d0 e0       	ldi	r29, 0x00	; 0
    1954:	cd 53       	subi	r28, 0x3D	; 61
    1956:	d5 4c       	sbci	r29, 0xC5	; 197
    1958:	48 81       	ld	r20, Y
    195a:	ad 53       	subi	r26, 0x3D	; 61
    195c:	b5 4c       	sbci	r27, 0xC5	; 197
    195e:	4c 93       	st	X, r20
    1960:	31 96       	adiw	r30, 0x01	; 1
                    iLED[WING[R][x]] = iLED[WING[R][x+1]];
    1962:	e9 01       	movw	r28, r18
    1964:	a8 81       	ld	r26, Y
    1966:	b0 e0       	ldi	r27, 0x00	; 0
    1968:	c0 81       	ld	r28, Z
    196a:	d0 e0       	ldi	r29, 0x00	; 0
    196c:	cd 53       	subi	r28, 0x3D	; 61
    196e:	d5 4c       	sbci	r29, 0xC5	; 197
    1970:	28 81       	ld	r18, Y
    1972:	ad 53       	subi	r26, 0x3D	; 61
    1974:	b5 4c       	sbci	r27, 0xC5	; 197
            break;

        //'falling rain'
        case 8:
            if ((LedCount & 1) == 0) {
                for (uint8_t x=0; x<4; ++x){
    1976:	2c 93       	st	X, r18
    1978:	8e 17       	cp	r24, r30
    197a:	9f 07       	cpc	r25, r31
                    iLED[WING[L][x]] = iLED[WING[L][x+1]];
                    iLED[WING[R][x]] = iLED[WING[R][x+1]];
                }
                iLED[WING[L][4]] = (lfsr() > 224)?dimValue:0;
    197c:	31 f7       	brne	.-52     	; 0x194a <GenerateBlinks+0x244>
    197e:	c0 91 ab c0 	lds	r28, 0xC0AB	; 0x80c0ab <__bss_end+0x8599>
    1982:	d0 e0       	ldi	r29, 0x00	; 0
    1984:	63 dc       	rcall	.-1850   	; 0x124c <lfsr>
    1986:	81 3e       	cpi	r24, 0xE1	; 225
    1988:	18 f0       	brcs	.+6      	; 0x1990 <GenerateBlinks+0x28a>
    198a:	80 91 0c 38 	lds	r24, 0x380C	; 0x80380c <dimValue>
    198e:	01 c0       	rjmp	.+2      	; 0x1992 <GenerateBlinks+0x28c>
    1990:	80 e0       	ldi	r24, 0x00	; 0
    1992:	cd 53       	subi	r28, 0x3D	; 61
    1994:	d5 4c       	sbci	r29, 0xC5	; 197
                iLED[WING[R][4]] = (lfsr() > 224)?dimValue:0;
    1996:	88 83       	st	Y, r24
    1998:	c0 91 a6 c0 	lds	r28, 0xC0A6	; 0x80c0a6 <__bss_end+0x8594>
    199c:	d0 e0       	ldi	r29, 0x00	; 0
    199e:	56 dc       	rcall	.-1876   	; 0x124c <lfsr>
    19a0:	81 3e       	cpi	r24, 0xE1	; 225
    19a2:	18 f0       	brcs	.+6      	; 0x19aa <GenerateBlinks+0x2a4>
    19a4:	80 91 0c 38 	lds	r24, 0x380C	; 0x80380c <dimValue>
    19a8:	01 c0       	rjmp	.+2      	; 0x19ac <GenerateBlinks+0x2a6>
    19aa:	80 e0       	ldi	r24, 0x00	; 0
    19ac:	cd 53       	subi	r28, 0x3D	; 61
    19ae:	d5 4c       	sbci	r29, 0xC5	; 197
    19b0:	88 83       	st	Y, r24
        // No LED action, game will do it's own LED magic
        case 31:
        default:
            break;
    }
}
    19b2:	df 91       	pop	r29
    19b4:	cf 91       	pop	r28
    19b6:	1f 91       	pop	r17
    19b8:	0f 91       	pop	r16
    19ba:	ff 90       	pop	r15
    19bc:	ef 90       	pop	r14
    19be:	08 95       	ret

000019c0 <GenerateAudio>:


uint8_t GenerateAudio(){
    19c0:	0f 93       	push	r16
    19c2:	1f 93       	push	r17
    19c4:	cf 93       	push	r28

    if (auIn < HPLVL) {
    19c6:	80 91 c2 3a 	lds	r24, 0x3AC2	; 0x803ac2 <auIn>
    19ca:	89 31       	cpi	r24, 0x19	; 25
    19cc:	08 f0       	brcs	.+2      	; 0x19d0 <GenerateAudio+0x10>
    19ce:	27 c1       	rjmp	.+590    	; 0x1c1e <GenerateAudio+0x25e>

        detHdPh = 1;
    19d0:	c1 e0       	ldi	r28, 0x01	; 1
    19d2:	c0 93 bf 3a 	sts	0x3ABF, r28	; 0x803abf <detHdPh>

        //Audio for text adventure
        if ((effect&0xff00)==0) {
    19d6:	80 91 3a 38 	lds	r24, 0x383A	; 0x80383a <effect>
    19da:	90 91 3b 38 	lds	r25, 0x383B	; 0x80383b <effect+0x1>
    19de:	88 27       	eor	r24, r24
    19e0:	89 2b       	or	r24, r25
    19e2:	09 f0       	breq	.+2      	; 0x19e6 <GenerateAudio+0x26>
    19e4:	bf c0       	rjmp	.+382    	; 0x1b64 <GenerateAudio+0x1a4>

            //Silence
            if ((effect&0xE0)==0){
    19e6:	80 91 3a 38 	lds	r24, 0x383A	; 0x80383a <effect>
    19ea:	90 91 3b 38 	lds	r25, 0x383B	; 0x80383b <effect+0x1>
    19ee:	80 7e       	andi	r24, 0xE0	; 224
    19f0:	99 27       	eor	r25, r25
    19f2:	89 2b       	or	r24, r25
    19f4:	31 f4       	brne	.+12     	; 0x1a02 <GenerateAudio+0x42>
                auRepAddr = &zero;
    19f6:	89 e3       	ldi	r24, 0x39	; 57
    19f8:	98 e3       	ldi	r25, 0x38	; 56
    19fa:	80 93 03 38 	sts	0x3803, r24	; 0x803803 <auRepAddr>
    19fe:	90 93 04 38 	sts	0x3804, r25	; 0x803804 <auRepAddr+0x1>
            }

            //Bad (buzzer)
            if ((effect&0xE0)==32){
    1a02:	80 91 3a 38 	lds	r24, 0x383A	; 0x80383a <effect>
    1a06:	90 91 3b 38 	lds	r25, 0x383B	; 0x80383b <effect+0x1>
    1a0a:	80 7e       	andi	r24, 0xE0	; 224
    1a0c:	99 27       	eor	r25, r25
    1a0e:	80 97       	sbiw	r24, 0x20	; 32
    1a10:	09 f0       	breq	.+2      	; 0x1a14 <GenerateAudio+0x54>
    1a12:	59 c0       	rjmp	.+178    	; 0x1ac6 <GenerateAudio+0x106>
                static uint8_t auBuffer[17] = {1, 255, 128, 128, 192, 255, 64, 255, 192, 128, 64, 1, 192, 1, 64, 128, 0}; 
                static uint8_t loudness, duration, start;
                floatSpeed(1, 0x2000, 0x2200);
    1a14:	40 e0       	ldi	r20, 0x00	; 0
    1a16:	52 e2       	ldi	r21, 0x22	; 34
    1a18:	60 e0       	ldi	r22, 0x00	; 0
    1a1a:	70 e2       	ldi	r23, 0x20	; 32
    1a1c:	81 e0       	ldi	r24, 0x01	; 1
    1a1e:	35 dc       	rcall	.-1942   	; 0x128a <floatSpeed>
                auBuffer[2] = floatAround(0x80, 5, 0x01, 0x00);
    1a20:	20 e0       	ldi	r18, 0x00	; 0
    1a22:	41 e0       	ldi	r20, 0x01	; 1
    1a24:	65 e0       	ldi	r22, 0x05	; 5
    1a26:	80 e8       	ldi	r24, 0x80	; 128
    1a28:	62 dc       	rcall	.-1852   	; 0x12ee <floatAround>
    1a2a:	80 93 13 38 	sts	0x3813, r24	; 0x803813 <auBuffer.4026+0x2>

                if (buttonMark) {
    1a2e:	80 91 42 38 	lds	r24, 0x3842	; 0x803842 <buttonMark>
    1a32:	88 23       	and	r24, r24
    1a34:	09 f4       	brne	.+2      	; 0x1a38 <GenerateAudio+0x78>
    1a36:	47 c0       	rjmp	.+142    	; 0x1ac6 <GenerateAudio+0x106>
                    if (start == 0) {
    1a38:	80 91 58 38 	lds	r24, 0x3858	; 0x803858 <start.4029>
    1a3c:	81 11       	cpse	r24, r1
    1a3e:	15 c0       	rjmp	.+42     	; 0x1a6a <GenerateAudio+0xaa>
                        duration = 4;
    1a40:	84 e0       	ldi	r24, 0x04	; 4
    1a42:	80 93 57 38 	sts	0x3857, r24	; 0x803857 <duration.4028>
                        loudness = 0xff;
    1a46:	8f ef       	ldi	r24, 0xFF	; 255
    1a48:	80 93 56 38 	sts	0x3856, r24	; 0x803856 <loudness.4027>
                        TCB1_CCMP = 0x2000;
    1a4c:	80 e0       	ldi	r24, 0x00	; 0
    1a4e:	90 e2       	ldi	r25, 0x20	; 32
    1a50:	80 93 5c 0a 	sts	0x0A5C, r24	; 0x800a5c <__TEXT_REGION_LENGTH__+0x700a5c>
    1a54:	90 93 5d 0a 	sts	0x0A5D, r25	; 0x800a5d <__TEXT_REGION_LENGTH__+0x700a5d>
                        auRepAddr = &auBuffer[0];
    1a58:	81 e1       	ldi	r24, 0x11	; 17
    1a5a:	98 e3       	ldi	r25, 0x38	; 56
    1a5c:	80 93 03 38 	sts	0x3803, r24	; 0x803803 <auRepAddr>
    1a60:	90 93 04 38 	sts	0x3804, r25	; 0x803804 <auRepAddr+0x1>
                        start = 1;
    1a64:	81 e0       	ldi	r24, 0x01	; 1
    1a66:	80 93 58 38 	sts	0x3858, r24	; 0x803858 <start.4029>
                    }

                    if (loudness) {
    1a6a:	80 91 56 38 	lds	r24, 0x3856	; 0x803856 <loudness.4027>
    1a6e:	88 23       	and	r24, r24
    1a70:	69 f0       	breq	.+26     	; 0x1a8c <GenerateAudio+0xcc>
                        auVolume = loudness;
    1a72:	80 93 b6 3a 	sts	0x3AB6, r24	; 0x803ab6 <auVolume>
                        if (duration) duration--; else loudness >>= 1;
    1a76:	90 91 57 38 	lds	r25, 0x3857	; 0x803857 <duration.4028>
    1a7a:	99 23       	and	r25, r25
    1a7c:	21 f0       	breq	.+8      	; 0x1a86 <GenerateAudio+0xc6>
    1a7e:	91 50       	subi	r25, 0x01	; 1
    1a80:	90 93 57 38 	sts	0x3857, r25	; 0x803857 <duration.4028>
    1a84:	03 c0       	rjmp	.+6      	; 0x1a8c <GenerateAudio+0xcc>
    1a86:	86 95       	lsr	r24
    1a88:	80 93 56 38 	sts	0x3856, r24	; 0x803856 <loudness.4027>
                    } 

                    if (loudness == 0) {
    1a8c:	80 91 56 38 	lds	r24, 0x3856	; 0x803856 <loudness.4027>
    1a90:	81 11       	cpse	r24, r1
    1a92:	19 c0       	rjmp	.+50     	; 0x1ac6 <GenerateAudio+0x106>
                        effect &= 0x1f;
    1a94:	80 91 3a 38 	lds	r24, 0x383A	; 0x80383a <effect>
    1a98:	90 91 3b 38 	lds	r25, 0x383B	; 0x80383b <effect+0x1>
    1a9c:	8f 71       	andi	r24, 0x1F	; 31
    1a9e:	99 27       	eor	r25, r25
    1aa0:	80 93 3a 38 	sts	0x383A, r24	; 0x80383a <effect>
    1aa4:	90 93 3b 38 	sts	0x383B, r25	; 0x80383b <effect+0x1>
                        auRepAddr = &zero;
    1aa8:	89 e3       	ldi	r24, 0x39	; 57
    1aaa:	98 e3       	ldi	r25, 0x38	; 56
    1aac:	80 93 03 38 	sts	0x3803, r24	; 0x803803 <auRepAddr>
    1ab0:	90 93 04 38 	sts	0x3804, r25	; 0x803804 <auRepAddr+0x1>
                        auSmpAddr = &zero;
    1ab4:	80 93 05 38 	sts	0x3805, r24	; 0x803805 <auSmpAddr>
    1ab8:	90 93 06 38 	sts	0x3806, r25	; 0x803806 <auSmpAddr+0x1>
                        auVolume = 0xff;
    1abc:	8f ef       	ldi	r24, 0xFF	; 255
    1abe:	80 93 b6 3a 	sts	0x3AB6, r24	; 0x803ab6 <auVolume>
                        start = 0;
    1ac2:	10 92 58 38 	sts	0x3858, r1	; 0x803858 <start.4029>
                    }
                }
            }

            //Good (bell)
            if ((effect&0xE0)==64){
    1ac6:	80 91 3a 38 	lds	r24, 0x383A	; 0x80383a <effect>
    1aca:	90 91 3b 38 	lds	r25, 0x383B	; 0x80383b <effect+0x1>
                //auBuffer = 
            }

            //Rain storm with whistling wind
            if ((effect&0xE0)==96){
    1ace:	80 91 3a 38 	lds	r24, 0x383A	; 0x80383a <effect>
    1ad2:	90 91 3b 38 	lds	r25, 0x383B	; 0x80383b <effect+0x1>
    1ad6:	80 7e       	andi	r24, 0xE0	; 224
    1ad8:	99 27       	eor	r25, r25
    1ada:	80 36       	cpi	r24, 0x60	; 96
    1adc:	91 05       	cpc	r25, r1
    1ade:	a9 f5       	brne	.+106    	; 0x1b4a <GenerateAudio+0x18a>
                static uint8_t auBuffer[7];
                auBuffer[6]= 0;        
    1ae0:	10 92 55 38 	sts	0x3855, r1	; 0x803855 <auBuffer.4030+0x6>
                auRepAddr = &auBuffer[0];
    1ae4:	8f e4       	ldi	r24, 0x4F	; 79
    1ae6:	98 e3       	ldi	r25, 0x38	; 56
    1ae8:	80 93 03 38 	sts	0x3803, r24	; 0x803803 <auRepAddr>
    1aec:	90 93 04 38 	sts	0x3804, r25	; 0x803804 <auRepAddr+0x1>
    1af0:	8c 01       	movw	r16, r24

                //Noise is to be generated fast, outside of buttonMark loop
                for (uint8_t x=1; x<6; ++x){
    1af2:	c1 e0       	ldi	r28, 0x01	; 1
                    if ((x>0) && (x!=3)) auBuffer[x] = floatAround(0x80, 5, 0x01, 0x00);
    1af4:	c3 30       	cpi	r28, 0x03	; 3
    1af6:	39 f0       	breq	.+14     	; 0x1b06 <GenerateAudio+0x146>
    1af8:	20 e0       	ldi	r18, 0x00	; 0
    1afa:	41 e0       	ldi	r20, 0x01	; 1
    1afc:	65 e0       	ldi	r22, 0x05	; 5
    1afe:	80 e8       	ldi	r24, 0x80	; 128
    1b00:	f6 db       	rcall	.-2068   	; 0x12ee <floatAround>
    1b02:	f8 01       	movw	r30, r16
    1b04:	81 83       	std	Z+1, r24	; 0x01
                static uint8_t auBuffer[7];
                auBuffer[6]= 0;        
                auRepAddr = &auBuffer[0];

                //Noise is to be generated fast, outside of buttonMark loop
                for (uint8_t x=1; x<6; ++x){
    1b06:	cf 5f       	subi	r28, 0xFF	; 255
    1b08:	0f 5f       	subi	r16, 0xFF	; 255
    1b0a:	1f 4f       	sbci	r17, 0xFF	; 255
    1b0c:	c6 30       	cpi	r28, 0x06	; 6
    1b0e:	91 f7       	brne	.-28     	; 0x1af4 <GenerateAudio+0x134>
                    if ((x>0) && (x!=3)) auBuffer[x] = floatAround(0x80, 5, 0x01, 0x00);
                }

                if (buttonMark){
    1b10:	80 91 42 38 	lds	r24, 0x3842	; 0x803842 <buttonMark>
    1b14:	88 23       	and	r24, r24
    1b16:	c9 f0       	breq	.+50     	; 0x1b4a <GenerateAudio+0x18a>
                    //"Floating" speed for howl (and noise, but that's hardly audible)
                    floatSpeed(5, 0x0280, 0x0400);
    1b18:	40 e0       	ldi	r20, 0x00	; 0
    1b1a:	54 e0       	ldi	r21, 0x04	; 4
    1b1c:	60 e8       	ldi	r22, 0x80	; 128
    1b1e:	72 e0       	ldi	r23, 0x02	; 2
    1b20:	85 e0       	ldi	r24, 0x05	; 5
    1b22:	b3 db       	rcall	.-2202   	; 0x128a <floatSpeed>
            
                    //"Floating" volume and wind howl during 8 bit rainstorm needs some randomness
                    auVolume = floatAround(auVolume, 2, 0x10, 0xA0);
    1b24:	80 91 b6 3a 	lds	r24, 0x3AB6	; 0x803ab6 <auVolume>
    1b28:	20 ea       	ldi	r18, 0xA0	; 160
    1b2a:	40 e1       	ldi	r20, 0x10	; 16
    1b2c:	62 e0       	ldi	r22, 0x02	; 2
    1b2e:	df db       	rcall	.-2114   	; 0x12ee <floatAround>
    1b30:	80 93 b6 3a 	sts	0x3AB6, r24	; 0x803ab6 <auVolume>
                    auBuffer[0] = floatAround(auBuffer[0], 2, 0x70, 0x90);
    1b34:	20 e9       	ldi	r18, 0x90	; 144
    1b36:	40 e7       	ldi	r20, 0x70	; 112
    1b38:	62 e0       	ldi	r22, 0x02	; 2
    1b3a:	80 91 4f 38 	lds	r24, 0x384F	; 0x80384f <auBuffer.4030>
    1b3e:	d7 db       	rcall	.-2130   	; 0x12ee <floatAround>
    1b40:	80 93 4f 38 	sts	0x384F, r24	; 0x80384f <auBuffer.4030>
                    auBuffer[3] = 0xFF-auBuffer[0];  //Inverse value of wind[0] produces a whistle
    1b44:	80 95       	com	r24
    1b46:	80 93 52 38 	sts	0x3852, r24	; 0x803852 <auBuffer.4030+0x3>
                }
            }

            //Footsteps
            if ((effect&0xE0)==128){
    1b4a:	80 91 3a 38 	lds	r24, 0x383A	; 0x80383a <effect>
    1b4e:	90 91 3b 38 	lds	r25, 0x383B	; 0x80383b <effect+0x1>

            }

            //
            if ((effect&0xE0)==160){
    1b52:	80 91 3a 38 	lds	r24, 0x383A	; 0x80383a <effect>
    1b56:	90 91 3b 38 	lds	r25, 0x383B	; 0x80383b <effect+0x1>

            }

            //
            if ((effect&0xE0)==192){
    1b5a:	80 91 3a 38 	lds	r24, 0x383A	; 0x80383a <effect>
    1b5e:	90 91 3b 38 	lds	r25, 0x383B	; 0x80383b <effect+0x1>
    1b62:	5f c0       	rjmp	.+190    	; 0x1c22 <GenerateAudio+0x262>
            }

            //
            else {
            }
        } else if ((effect&0xff00)==0x0100) {
    1b64:	80 91 3a 38 	lds	r24, 0x383A	; 0x80383a <effect>
    1b68:	90 91 3b 38 	lds	r25, 0x383B	; 0x80383b <effect+0x1>
    1b6c:	88 27       	eor	r24, r24
    1b6e:	81 15       	cp	r24, r1
    1b70:	91 40       	sbci	r25, 0x01	; 1
    1b72:	09 f0       	breq	.+2      	; 0x1b76 <GenerateAudio+0x1b6>
    1b74:	56 c0       	rjmp	.+172    	; 0x1c22 <GenerateAudio+0x262>
            if ((effect&0xE0) <= 0x90) {
    1b76:	80 91 3a 38 	lds	r24, 0x383A	; 0x80383a <effect>
    1b7a:	90 91 3b 38 	lds	r25, 0x383B	; 0x80383b <effect+0x1>
    1b7e:	80 7e       	andi	r24, 0xE0	; 224
    1b80:	99 27       	eor	r25, r25
    1b82:	81 39       	cpi	r24, 0x91	; 145
    1b84:	91 05       	cpc	r25, r1
    1b86:	08 f0       	brcs	.+2      	; 0x1b8a <GenerateAudio+0x1ca>
    1b88:	4c c0       	rjmp	.+152    	; 0x1c22 <GenerateAudio+0x262>
                
                static uint8_t auBuffer[3] = {255, 1, 0};
                static uint8_t duration, start;
                uint16_t freq = ((effect&0xE0)+1)<<6;
    1b8a:	60 91 3a 38 	lds	r22, 0x383A	; 0x80383a <effect>
    1b8e:	70 91 3b 38 	lds	r23, 0x383B	; 0x80383b <effect+0x1>
    1b92:	60 7e       	andi	r22, 0xE0	; 224
    1b94:	77 27       	eor	r23, r23
    1b96:	6f 5f       	subi	r22, 0xFF	; 255
    1b98:	7f 4f       	sbci	r23, 0xFF	; 255
    1b9a:	86 e0       	ldi	r24, 0x06	; 6
    1b9c:	66 0f       	add	r22, r22
    1b9e:	77 1f       	adc	r23, r23
    1ba0:	8a 95       	dec	r24
                floatSpeed(1, freq+0x0200, freq+0x0300);
    1ba2:	e1 f7       	brne	.-8      	; 0x1b9c <GenerateAudio+0x1dc>
    1ba4:	ab 01       	movw	r20, r22
    1ba6:	5d 5f       	subi	r21, 0xFD	; 253
    1ba8:	7e 5f       	subi	r23, 0xFE	; 254
    1baa:	81 e0       	ldi	r24, 0x01	; 1
    1bac:	6e db       	rcall	.-2340   	; 0x128a <floatSpeed>
                //auBuffer[] = floatAround(0x80, 5, 0x01, 0x00);

                if (buttonMark) {
    1bae:	80 91 42 38 	lds	r24, 0x3842	; 0x803842 <buttonMark>
    1bb2:	88 23       	and	r24, r24
    1bb4:	b1 f1       	breq	.+108    	; 0x1c22 <GenerateAudio+0x262>
                    if (start == 0) {
    1bb6:	80 91 4e 38 	lds	r24, 0x384E	; 0x80384e <start.4037>
    1bba:	81 11       	cpse	r24, r1
    1bbc:	0e c0       	rjmp	.+28     	; 0x1bda <GenerateAudio+0x21a>
                        duration = 3;
    1bbe:	83 e0       	ldi	r24, 0x03	; 3
    1bc0:	80 93 4d 38 	sts	0x384D, r24	; 0x80384d <duration.4036>
                        auRepAddr = &auBuffer[0];
    1bc4:	8e e0       	ldi	r24, 0x0E	; 14
    1bc6:	98 e3       	ldi	r25, 0x38	; 56
    1bc8:	80 93 03 38 	sts	0x3803, r24	; 0x803803 <auRepAddr>
    1bcc:	90 93 04 38 	sts	0x3804, r25	; 0x803804 <auRepAddr+0x1>
                        auVolume = 255;
    1bd0:	8f ef       	ldi	r24, 0xFF	; 255
    1bd2:	80 93 b6 3a 	sts	0x3AB6, r24	; 0x803ab6 <auVolume>
                        start = 1;
    1bd6:	c0 93 4e 38 	sts	0x384E, r28	; 0x80384e <start.4037>
                    }   if (duration == 0) {
    1bda:	80 91 4d 38 	lds	r24, 0x384D	; 0x80384d <duration.4036>
    1bde:	81 11       	cpse	r24, r1
    1be0:	1a c0       	rjmp	.+52     	; 0x1c16 <GenerateAudio+0x256>
                        effect &= 0x1f;
    1be2:	80 91 3a 38 	lds	r24, 0x383A	; 0x80383a <effect>
    1be6:	90 91 3b 38 	lds	r25, 0x383B	; 0x80383b <effect+0x1>
    1bea:	8f 71       	andi	r24, 0x1F	; 31
    1bec:	99 27       	eor	r25, r25
    1bee:	80 93 3a 38 	sts	0x383A, r24	; 0x80383a <effect>
    1bf2:	90 93 3b 38 	sts	0x383B, r25	; 0x80383b <effect+0x1>
                        auRepAddr = &zero;
    1bf6:	89 e3       	ldi	r24, 0x39	; 57
    1bf8:	98 e3       	ldi	r25, 0x38	; 56
    1bfa:	80 93 03 38 	sts	0x3803, r24	; 0x803803 <auRepAddr>
    1bfe:	90 93 04 38 	sts	0x3804, r25	; 0x803804 <auRepAddr+0x1>
                        auSmpAddr = &zero;
    1c02:	80 93 05 38 	sts	0x3805, r24	; 0x803805 <auSmpAddr>
    1c06:	90 93 06 38 	sts	0x3806, r25	; 0x803806 <auSmpAddr+0x1>
                        auVolume = 0xff;
    1c0a:	8f ef       	ldi	r24, 0xFF	; 255
    1c0c:	80 93 b6 3a 	sts	0x3AB6, r24	; 0x803ab6 <auVolume>
                        start = 0;
    1c10:	10 92 4e 38 	sts	0x384E, r1	; 0x80384e <start.4037>
    1c14:	06 c0       	rjmp	.+12     	; 0x1c22 <GenerateAudio+0x262>
                    } else duration--;
    1c16:	81 50       	subi	r24, 0x01	; 1
    1c18:	80 93 4d 38 	sts	0x384D, r24	; 0x80384d <duration.4036>
    1c1c:	02 c0       	rjmp	.+4      	; 0x1c22 <GenerateAudio+0x262>
                }
            }
        }
    } else {
        detHdPh = 0;
    1c1e:	10 92 bf 3a 	sts	0x3ABF, r1	; 0x803abf <detHdPh>
    }
    return buttonMark;
    1c22:	80 91 42 38 	lds	r24, 0x3842	; 0x803842 <buttonMark>
}
    1c26:	cf 91       	pop	r28
    1c28:	1f 91       	pop	r17
    1c2a:	0f 91       	pop	r16
    1c2c:	08 95       	ret

00001c2e <getClock>:

uint16_t getClock() {
    return 60 * minuteMark + (RTC_CNT>>9);
    1c2e:	20 91 43 38 	lds	r18, 0x3843	; 0x803843 <minuteMark>
    1c32:	80 91 48 01 	lds	r24, 0x0148	; 0x800148 <__TEXT_REGION_LENGTH__+0x700148>
    1c36:	90 91 49 01 	lds	r25, 0x0149	; 0x800149 <__TEXT_REGION_LENGTH__+0x700149>
    1c3a:	89 2f       	mov	r24, r25
    1c3c:	99 27       	eor	r25, r25
    1c3e:	86 95       	lsr	r24
}
    1c40:	3c e3       	ldi	r19, 0x3C	; 60
    1c42:	23 9f       	mul	r18, r19
    1c44:	80 0d       	add	r24, r0
    1c46:	91 1d       	adc	r25, r1
    1c48:	11 24       	eor	r1, r1
    1c4a:	08 95       	ret

00001c4c <idleTimeout>:

uint8_t idleTimeout(uint16_t lastActive, uint16_t maxIdle) {
    1c4c:	0f 93       	push	r16
    1c4e:	1f 93       	push	r17
    1c50:	cf 93       	push	r28
    1c52:	df 93       	push	r29
    1c54:	8c 01       	movw	r16, r24
    1c56:	eb 01       	movw	r28, r22
    uint16_t curClock;

    curClock = getClock();
    1c58:	ea df       	rcall	.-44     	; 0x1c2e <getClock>
    1c5a:	9c 01       	movw	r18, r24
    if (curClock < lastActive)
    1c5c:	80 17       	cp	r24, r16
    1c5e:	91 07       	cpc	r25, r17
    1c60:	08 f4       	brcc	.+2      	; 0x1c64 <idleTimeout+0x18>
        curClock += 256 * 60;
    1c62:	34 5c       	subi	r19, 0xC4	; 196

    return (curClock > (lastActive + maxIdle));
    1c64:	c0 0f       	add	r28, r16
    1c66:	d1 1f       	adc	r29, r17
    1c68:	81 e0       	ldi	r24, 0x01	; 1
    1c6a:	c2 17       	cp	r28, r18
    1c6c:	d3 07       	cpc	r29, r19
    1c6e:	08 f0       	brcs	.+2      	; 0x1c72 <idleTimeout+0x26>
    1c70:	80 e0       	ldi	r24, 0x00	; 0
}
    1c72:	df 91       	pop	r29
    1c74:	cf 91       	pop	r28
    1c76:	1f 91       	pop	r17
    1c78:	0f 91       	pop	r16
    1c7a:	08 95       	ret

00001c7c <SelfTest>:

uint8_t SelfTest(){
    1c7c:	df 92       	push	r13
    1c7e:	ef 92       	push	r14
    1c80:	ff 92       	push	r15
    1c82:	0f 93       	push	r16
    1c84:	1f 93       	push	r17
    1c86:	cf 93       	push	r28
    1c88:	df 93       	push	r29
    1c8a:	00 d0       	rcall	.+0      	; 0x1c8c <SelfTest+0x10>
    1c8c:	00 d0       	rcall	.+0      	; 0x1c8e <SelfTest+0x12>
    1c8e:	cd b7       	in	r28, 0x3d	; 61
    1c90:	de b7       	in	r29, 0x3e	; 62
    uint8_t tstVal[4] = {0x01, 0};
    1c92:	19 82       	std	Y+1, r1	; 0x01
    1c94:	1a 82       	std	Y+2, r1	; 0x02
    1c96:	1b 82       	std	Y+3, r1	; 0x03
    1c98:	1c 82       	std	Y+4, r1	; 0x04
    1c9a:	81 e0       	ldi	r24, 0x01	; 1
    1c9c:	89 83       	std	Y+1, r24	; 0x01
    1c9e:	a0 eb       	ldi	r26, 0xB0	; 176
    1ca0:	b0 ec       	ldi	r27, 0xC0	; 192

    //Red HCKR all on 100%
    for (uint8_t x=0; x<6; ++x) {
        iLED[HCKR[R][x]] = 0xff;
    1ca2:	8f ef       	ldi	r24, 0xFF	; 255
    1ca4:	ed 91       	ld	r30, X+
    1ca6:	f0 e0       	ldi	r31, 0x00	; 0
    1ca8:	ed 53       	subi	r30, 0x3D	; 61
    1caa:	f5 4c       	sbci	r31, 0xC5	; 197
    1cac:	80 83       	st	Z, r24

uint8_t SelfTest(){
    uint8_t tstVal[4] = {0x01, 0};

    //Red HCKR all on 100%
    for (uint8_t x=0; x<6; ++x) {
    1cae:	20 ec       	ldi	r18, 0xC0	; 192
    1cb0:	a6 3b       	cpi	r26, 0xB6	; 182
    1cb2:	b2 07       	cpc	r27, r18
    1cb4:	b9 f7       	brne	.-18     	; 0x1ca4 <SelfTest+0x28>
        iLED[HCKR[R][x]] = 0xff;
    }

    //Audio in/out
    SelectAuIn();
    1cb6:	8d da       	rcall	.-2790   	; 0x11d2 <SelectAuIn>
    auRepAddr = &tstVal[0];
    while (auIn > 0x04) ;
    1cb8:	80 91 c2 3a 	lds	r24, 0x3AC2	; 0x803ac2 <auIn>
    1cbc:	85 30       	cpi	r24, 0x05	; 5
    1cbe:	e0 f7       	brcc	.-8      	; 0x1cb8 <SelfTest+0x3c>
    tstVal[0] = 0xff;
    while (auIn < 0x04) ;
    1cc0:	80 91 c2 3a 	lds	r24, 0x3AC2	; 0x803ac2 <auIn>
    1cc4:	84 30       	cpi	r24, 0x04	; 4
    1cc6:	e0 f3       	brcs	.-8      	; 0x1cc0 <SelfTest+0x44>
    iLED[HCKR[R][0]] = 0x00;
    1cc8:	e0 91 b0 c0 	lds	r30, 0xC0B0	; 0x80c0b0 <__bss_end+0x859e>
    1ccc:	f0 e0       	ldi	r31, 0x00	; 0
    1cce:	ed 53       	subi	r30, 0x3D	; 61
    1cd0:	f5 4c       	sbci	r31, 0xC5	; 197
    1cd2:	10 82       	st	Z, r1
    iLED[HCKR[G][0]] = 0xff;
    1cd4:	e0 91 b6 c0 	lds	r30, 0xC0B6	; 0x80c0b6 <__bss_end+0x85a4>
    1cd8:	f0 e0       	ldi	r31, 0x00	; 0
    1cda:	ed 53       	subi	r30, 0x3D	; 61
    1cdc:	f5 4c       	sbci	r31, 0xC5	; 197
    1cde:	8f ef       	ldi	r24, 0xFF	; 255
    1ce0:	80 83       	st	Z, r24
    auRepAddr = &zero;
    1ce2:	89 e3       	ldi	r24, 0x39	; 57
    1ce4:	98 e3       	ldi	r25, 0x38	; 56
    1ce6:	80 93 03 38 	sts	0x3803, r24	; 0x803803 <auRepAddr>
    1cea:	90 93 04 38 	sts	0x3804, r25	; 0x803804 <auRepAddr+0x1>

    //Light sensor
    tstVal[0] = adcPhot&0xff;
    1cee:	80 91 bd 3a 	lds	r24, 0x3ABD	; 0x803abd <adcPhot>
    1cf2:	90 91 be 3a 	lds	r25, 0x3ABE	; 0x803abe <adcPhot+0x1>
    while (tstVal[0] == (adcPhot&0xff)) ;
    1cf6:	99 27       	eor	r25, r25
    1cf8:	20 91 bd 3a 	lds	r18, 0x3ABD	; 0x803abd <adcPhot>
    1cfc:	30 91 be 3a 	lds	r19, 0x3ABE	; 0x803abe <adcPhot+0x1>
    1d00:	33 27       	eor	r19, r19
    1d02:	28 17       	cp	r18, r24
    1d04:	39 07       	cpc	r19, r25
    1d06:	c1 f3       	breq	.-16     	; 0x1cf8 <SelfTest+0x7c>
    iLED[HCKR[R][1]] = 0x00;
    1d08:	e0 91 b1 c0 	lds	r30, 0xC0B1	; 0x80c0b1 <__bss_end+0x859f>
    1d0c:	f0 e0       	ldi	r31, 0x00	; 0
    1d0e:	ed 53       	subi	r30, 0x3D	; 61
    1d10:	f5 4c       	sbci	r31, 0xC5	; 197
    1d12:	10 82       	st	Z, r1
    iLED[HCKR[G][1]] = 0xff;
    1d14:	e0 91 b7 c0 	lds	r30, 0xC0B7	; 0x80c0b7 <__bss_end+0x85a5>
    1d18:	f0 e0       	ldi	r31, 0x00	; 0
    1d1a:	ed 53       	subi	r30, 0x3D	; 61
    1d1c:	f5 4c       	sbci	r31, 0xC5	; 197
    1d1e:	8f ef       	ldi	r24, 0xFF	; 255
    1d20:	80 83       	st	Z, r24

    //Magnet
    tstVal[0] = adcHall&0xff;
    1d22:	80 91 bb 3a 	lds	r24, 0x3ABB	; 0x803abb <adcHall>
    1d26:	90 91 bc 3a 	lds	r25, 0x3ABC	; 0x803abc <adcHall+0x1>
    1d2a:	89 83       	std	Y+1, r24	; 0x01
    while (tstVal[0] == (adcHall&0xff)) ;
    1d2c:	99 27       	eor	r25, r25
    1d2e:	20 91 bb 3a 	lds	r18, 0x3ABB	; 0x803abb <adcHall>
    1d32:	30 91 bc 3a 	lds	r19, 0x3ABC	; 0x803abc <adcHall+0x1>
    1d36:	33 27       	eor	r19, r19
    1d38:	28 17       	cp	r18, r24
    1d3a:	39 07       	cpc	r19, r25
    1d3c:	c1 f3       	breq	.-16     	; 0x1d2e <SelfTest+0xb2>
    iLED[HCKR[R][2]] = 0x00;
    1d3e:	e0 91 b2 c0 	lds	r30, 0xC0B2	; 0x80c0b2 <__bss_end+0x85a0>
    1d42:	f0 e0       	ldi	r31, 0x00	; 0
    1d44:	ed 53       	subi	r30, 0x3D	; 61
    1d46:	f5 4c       	sbci	r31, 0xC5	; 197
    1d48:	10 82       	st	Z, r1
    iLED[HCKR[G][2]] = 0xff;
    1d4a:	e0 91 b8 c0 	lds	r30, 0xC0B8	; 0x80c0b8 <__bss_end+0x85a6>
    1d4e:	f0 e0       	ldi	r31, 0x00	; 0
    1d50:	ed 53       	subi	r30, 0x3D	; 61
    1d52:	f5 4c       	sbci	r31, 0xC5	; 197
    1d54:	8f ef       	ldi	r24, 0xFF	; 255

    //Temperature
    SelectTSens();
    1d56:	80 83       	st	Z, r24
    1d58:	2d da       	rcall	.-2982   	; 0x11b4 <SelectTSens>
    tstVal[0] = adcTemp&0xff;
    1d5a:	80 91 ed 3a 	lds	r24, 0x3AED	; 0x803aed <adcTemp>
    1d5e:	90 91 ee 3a 	lds	r25, 0x3AEE	; 0x803aee <adcTemp+0x1>
    1d62:	89 83       	std	Y+1, r24	; 0x01
    while (tstVal[0] == (adcTemp&0xff)) ;
    1d64:	99 27       	eor	r25, r25
    1d66:	20 91 ed 3a 	lds	r18, 0x3AED	; 0x803aed <adcTemp>
    1d6a:	30 91 ee 3a 	lds	r19, 0x3AEE	; 0x803aee <adcTemp+0x1>
    1d6e:	33 27       	eor	r19, r19
    1d70:	28 17       	cp	r18, r24
    1d72:	39 07       	cpc	r19, r25
    1d74:	c1 f3       	breq	.-16     	; 0x1d66 <SelfTest+0xea>
    iLED[HCKR[R][3]] = 0x00;
    1d76:	e0 91 b3 c0 	lds	r30, 0xC0B3	; 0x80c0b3 <__bss_end+0x85a1>
    1d7a:	f0 e0       	ldi	r31, 0x00	; 0
    1d7c:	ed 53       	subi	r30, 0x3D	; 61
    1d7e:	f5 4c       	sbci	r31, 0xC5	; 197
    1d80:	10 82       	st	Z, r1
    iLED[HCKR[G][3]] = 0xff;
    1d82:	e0 91 b9 c0 	lds	r30, 0xC0B9	; 0x80c0b9 <__bss_end+0x85a7>
    1d86:	f0 e0       	ldi	r31, 0x00	; 0
    1d88:	ed 53       	subi	r30, 0x3D	; 61
    1d8a:	f5 4c       	sbci	r31, 0xC5	; 197
    1d8c:	8f ef       	ldi	r24, 0xFF	; 255
    1d8e:	80 83       	st	Z, r24

    //Buttons (none pressed / shorted)
    while ((adcBtns>>4) < 200) ;
    1d90:	80 91 b7 3a 	lds	r24, 0x3AB7	; 0x803ab7 <adcBtns>
    1d94:	90 91 b8 3a 	lds	r25, 0x3AB8	; 0x803ab8 <adcBtns+0x1>
    1d98:	80 38       	cpi	r24, 0x80	; 128
    1d9a:	9c 40       	sbci	r25, 0x0C	; 12
    1d9c:	c8 f3       	brcs	.-14     	; 0x1d90 <SelfTest+0x114>
    iLED[HCKR[R][4]] = 0x00;
    1d9e:	e0 90 b4 c0 	lds	r14, 0xC0B4	; 0x80c0b4 <__bss_end+0x85a2>
    1da2:	8e 2d       	mov	r24, r14
    1da4:	90 e0       	ldi	r25, 0x00	; 0
    1da6:	fc 01       	movw	r30, r24
    1da8:	ed 53       	subi	r30, 0x3D	; 61
    1daa:	f5 4c       	sbci	r31, 0xC5	; 197
    1dac:	7f 01       	movw	r14, r30
    1dae:	10 82       	st	Z, r1
    iLED[HCKR[G][4]] = 0xff;
    1db0:	00 91 ba c0 	lds	r16, 0xC0BA	; 0x80c0ba <__bss_end+0x85a8>
    1db4:	10 e0       	ldi	r17, 0x00	; 0
    1db6:	0d 53       	subi	r16, 0x3D	; 61
    1db8:	15 4c       	sbci	r17, 0xC5	; 197
    1dba:	dd 24       	eor	r13, r13
    1dbc:	da 94       	dec	r13
    1dbe:	f8 01       	movw	r30, r16
    1dc0:	d0 82       	st	Z, r13
        0x3CCD              Level 6, open_acl=0
        0x3CCE              Level 6, action_acl=192
        0x3CCF              Level 6, action_mask=20
    */

    ExtEERead(0x3CCC, 4, 0, &tstVal[0]);
    1dc2:	9e 01       	movw	r18, r28
    1dc4:	2f 5f       	subi	r18, 0xFF	; 255
    1dc6:	3f 4f       	sbci	r19, 0xFF	; 255
    1dc8:	40 e0       	ldi	r20, 0x00	; 0
    1dca:	64 e0       	ldi	r22, 0x04	; 4
    1dcc:	8c ec       	ldi	r24, 0xCC	; 204
    1dce:	9c e3       	ldi	r25, 0x3C	; 60
    1dd0:	9d d9       	rcall	.-3270   	; 0x110c <ExtEERead>
    if ((tstVal[0] != 63) || (tstVal[1] != 0) || (tstVal[2] != 192) || (tstVal[3] != 20)){
    1dd2:	89 81       	ldd	r24, Y+1	; 0x01
    1dd4:	8f 33       	cpi	r24, 0x3F	; 63
    1dd6:	49 f4       	brne	.+18     	; 0x1dea <SelfTest+0x16e>
    1dd8:	8a 81       	ldd	r24, Y+2	; 0x02
    1dda:	81 11       	cpse	r24, r1
    1ddc:	06 c0       	rjmp	.+12     	; 0x1dea <SelfTest+0x16e>
    1dde:	8b 81       	ldd	r24, Y+3	; 0x03
    1de0:	80 3c       	cpi	r24, 0xC0	; 192
    1de2:	19 f4       	brne	.+6      	; 0x1dea <SelfTest+0x16e>
    1de4:	8c 81       	ldd	r24, Y+4	; 0x04
    1de6:	84 31       	cpi	r24, 0x14	; 20
    1de8:	09 f0       	breq	.+2      	; 0x1dec <SelfTest+0x170>
    1dea:	ff cf       	rjmp	.-2      	; 0x1dea <SelfTest+0x16e>
        while(1);
    } else {
        iLED[HCKR[R][4]] = 0x00;
    1dec:	f7 01       	movw	r30, r14
    1dee:	10 82       	st	Z, r1
        iLED[HCKR[G][4]] = 0xff;
    1df0:	f8 01       	movw	r30, r16
    1df2:	d0 82       	st	Z, r13
    1df4:	80 e0       	ldi	r24, 0x00	; 0
    1df6:	90 e0       	ldi	r25, 0x00	; 0
    }

        //All LEDs off
    for (uint8_t x=0; x<40; ++x) {
        iLED[x]=0;
    1df8:	fc 01       	movw	r30, r24
    1dfa:	ed 53       	subi	r30, 0x3D	; 61
    1dfc:	f5 4c       	sbci	r31, 0xC5	; 197
    1dfe:	10 82       	st	Z, r1
    1e00:	01 96       	adiw	r24, 0x01	; 1
        iLED[HCKR[R][4]] = 0x00;
        iLED[HCKR[G][4]] = 0xff;
    }

        //All LEDs off
    for (uint8_t x=0; x<40; ++x) {
    1e02:	88 32       	cpi	r24, 0x28	; 40
    1e04:	91 05       	cpc	r25, r1
    1e06:	c1 f7       	brne	.-16     	; 0x1df8 <SelfTest+0x17c>
    1e08:	10 e0       	ldi	r17, 0x00	; 0
        iLED[x]=0;
    }

    for(uint8_t x=0; x<((adcPhot+adcTemp)&0x3f); ++x) lfsr();
    1e0a:	40 91 bd 3a 	lds	r20, 0x3ABD	; 0x803abd <adcPhot>
    1e0e:	50 91 be 3a 	lds	r21, 0x3ABE	; 0x803abe <adcPhot+0x1>
    1e12:	80 91 ed 3a 	lds	r24, 0x3AED	; 0x803aed <adcTemp>
    1e16:	90 91 ee 3a 	lds	r25, 0x3AEE	; 0x803aee <adcTemp+0x1>
    1e1a:	21 2f       	mov	r18, r17
    1e1c:	30 e0       	ldi	r19, 0x00	; 0
    1e1e:	84 0f       	add	r24, r20
    1e20:	95 1f       	adc	r25, r21
    1e22:	8f 73       	andi	r24, 0x3F	; 63
    1e24:	99 27       	eor	r25, r25
    1e26:	28 17       	cp	r18, r24
    1e28:	39 07       	cpc	r19, r25
    1e2a:	18 f4       	brcc	.+6      	; 0x1e32 <SelfTest+0x1b6>
    1e2c:	0f da       	rcall	.-3042   	; 0x124c <lfsr>
    1e2e:	1f 5f       	subi	r17, 0xFF	; 255
    1e30:	ec cf       	rjmp	.-40     	; 0x1e0a <SelfTest+0x18e>

    return 0;
}
    1e32:	80 e0       	ldi	r24, 0x00	; 0
    1e34:	24 96       	adiw	r28, 0x04	; 4
    1e36:	cd bf       	out	0x3d, r28	; 61
    1e38:	de bf       	out	0x3e, r29	; 62
    1e3a:	df 91       	pop	r29
    1e3c:	cf 91       	pop	r28
    1e3e:	1f 91       	pop	r17
    1e40:	0f 91       	pop	r16
    1e42:	ff 90       	pop	r15
    1e44:	ef 90       	pop	r14
    1e46:	df 90       	pop	r13
    1e48:	08 95       	ret

00001e4a <simonLed>:

/**
 * Set the wing LED blocks to selected option
 * @param val
 */
void simonLed(uint8_t val) {
    1e4a:	cf 93       	push	r28
    1e4c:	df 93       	push	r29
    1e4e:	e2 ea       	ldi	r30, 0xA2	; 162
    1e50:	f0 ec       	ldi	r31, 0xC0	; 192
    1e52:	ef 01       	movw	r28, r30
    for (uint8_t n = 0; n < 5; n++) {
        iLED[WING[L][n]] = 0;
    1e54:	a5 81       	ldd	r26, Z+5	; 0x05
    1e56:	b0 e0       	ldi	r27, 0x00	; 0
    1e58:	ad 53       	subi	r26, 0x3D	; 61
    1e5a:	b5 4c       	sbci	r27, 0xC5	; 197
    1e5c:	1c 92       	st	X, r1
    1e5e:	31 96       	adiw	r30, 0x01	; 1
        iLED[WING[R][n]] = 0;
    1e60:	a8 81       	ld	r26, Y
    1e62:	b0 e0       	ldi	r27, 0x00	; 0
    1e64:	ad 53       	subi	r26, 0x3D	; 61
    1e66:	b5 4c       	sbci	r27, 0xC5	; 197
    1e68:	1c 92       	st	X, r1
/**
 * Set the wing LED blocks to selected option
 * @param val
 */
void simonLed(uint8_t val) {
    for (uint8_t n = 0; n < 5; n++) {
    1e6a:	90 ec       	ldi	r25, 0xC0	; 192
    1e6c:	e7 3a       	cpi	r30, 0xA7	; 167
    1e6e:	f9 07       	cpc	r31, r25
    1e70:	81 f7       	brne	.-32     	; 0x1e52 <simonLed+0x8>
        iLED[WING[L][n]] = 0;
        iLED[WING[R][n]] = 0;
    }
    if (val == 3) {         // II
    1e72:	83 30       	cpi	r24, 0x03	; 3
    1e74:	d9 f4       	brne	.+54     	; 0x1eac <simonLed+0x62>
        iLED[WING[L][0]] = dimValue;
    1e76:	e0 91 a7 c0 	lds	r30, 0xC0A7	; 0x80c0a7 <__bss_end+0x8595>
    1e7a:	f0 e0       	ldi	r31, 0x00	; 0
    1e7c:	80 91 0c 38 	lds	r24, 0x380C	; 0x80380c <dimValue>
    1e80:	ed 53       	subi	r30, 0x3D	; 61
    1e82:	f5 4c       	sbci	r31, 0xC5	; 197
    1e84:	80 83       	st	Z, r24
        iLED[WING[L][1]] = dimValue;
    1e86:	e0 91 a8 c0 	lds	r30, 0xC0A8	; 0x80c0a8 <__bss_end+0x8596>
    1e8a:	f0 e0       	ldi	r31, 0x00	; 0
    1e8c:	80 91 0c 38 	lds	r24, 0x380C	; 0x80380c <dimValue>
    1e90:	ed 53       	subi	r30, 0x3D	; 61
    1e92:	f5 4c       	sbci	r31, 0xC5	; 197
    1e94:	80 83       	st	Z, r24
        iLED[WING[L][2]] = dimValue;
    1e96:	e0 91 a9 c0 	lds	r30, 0xC0A9	; 0x80c0a9 <__bss_end+0x8597>
    1e9a:	f0 e0       	ldi	r31, 0x00	; 0
    1e9c:	80 91 0c 38 	lds	r24, 0x380C	; 0x80380c <dimValue>
    1ea0:	ed 53       	subi	r30, 0x3D	; 61
    1ea2:	f5 4c       	sbci	r31, 0xC5	; 197
    1ea4:	80 83       	st	Z, r24
        effect = 0x013f;
    1ea6:	8f e3       	ldi	r24, 0x3F	; 63
    1ea8:	91 e0       	ldi	r25, 0x01	; 1
    1eaa:	46 c0       	rjmp	.+140    	; 0x1f38 <simonLed+0xee>
    } else if (val == 1) {  //
    1eac:	81 30       	cpi	r24, 0x01	; 1
    1eae:	99 f4       	brne	.+38     	; 0x1ed6 <simonLed+0x8c>
        iLED[WING[L][3]] = dimValue;
    1eb0:	e0 91 aa c0 	lds	r30, 0xC0AA	; 0x80c0aa <__bss_end+0x8598>
    1eb4:	f0 e0       	ldi	r31, 0x00	; 0
    1eb6:	80 91 0c 38 	lds	r24, 0x380C	; 0x80380c <dimValue>
    1eba:	ed 53       	subi	r30, 0x3D	; 61
    1ebc:	f5 4c       	sbci	r31, 0xC5	; 197
    1ebe:	80 83       	st	Z, r24
        iLED[WING[L][4]] = dimValue;
    1ec0:	e0 91 ab c0 	lds	r30, 0xC0AB	; 0x80c0ab <__bss_end+0x8599>
    1ec4:	f0 e0       	ldi	r31, 0x00	; 0
    1ec6:	80 91 0c 38 	lds	r24, 0x380C	; 0x80380c <dimValue>
    1eca:	ed 53       	subi	r30, 0x3D	; 61
    1ecc:	f5 4c       	sbci	r31, 0xC5	; 197
    1ece:	80 83       	st	Z, r24
        effect = 0x015f;
    1ed0:	8f e5       	ldi	r24, 0x5F	; 95
    1ed2:	91 e0       	ldi	r25, 0x01	; 1
    1ed4:	31 c0       	rjmp	.+98     	; 0x1f38 <simonLed+0xee>
    } else if (val == 4) {  // III
    1ed6:	84 30       	cpi	r24, 0x04	; 4
    1ed8:	d9 f4       	brne	.+54     	; 0x1f10 <simonLed+0xc6>
        iLED[WING[R][0]] = dimValue;
    1eda:	e0 91 a2 c0 	lds	r30, 0xC0A2	; 0x80c0a2 <__bss_end+0x8590>
    1ede:	f0 e0       	ldi	r31, 0x00	; 0
    1ee0:	80 91 0c 38 	lds	r24, 0x380C	; 0x80380c <dimValue>
    1ee4:	ed 53       	subi	r30, 0x3D	; 61
    1ee6:	f5 4c       	sbci	r31, 0xC5	; 197
    1ee8:	80 83       	st	Z, r24
        iLED[WING[R][1]] = dimValue;
    1eea:	e0 91 a3 c0 	lds	r30, 0xC0A3	; 0x80c0a3 <__bss_end+0x8591>
    1eee:	f0 e0       	ldi	r31, 0x00	; 0
    1ef0:	80 91 0c 38 	lds	r24, 0x380C	; 0x80380c <dimValue>
    1ef4:	ed 53       	subi	r30, 0x3D	; 61
    1ef6:	f5 4c       	sbci	r31, 0xC5	; 197
    1ef8:	80 83       	st	Z, r24
        iLED[WING[R][2]] = dimValue;
    1efa:	e0 91 a4 c0 	lds	r30, 0xC0A4	; 0x80c0a4 <__bss_end+0x8592>
    1efe:	f0 e0       	ldi	r31, 0x00	; 0
    1f00:	80 91 0c 38 	lds	r24, 0x380C	; 0x80380c <dimValue>
    1f04:	ed 53       	subi	r30, 0x3D	; 61
    1f06:	f5 4c       	sbci	r31, 0xC5	; 197
    1f08:	80 83       	st	Z, r24
        effect = 0x017f;
    1f0a:	8f e7       	ldi	r24, 0x7F	; 127
    1f0c:	91 e0       	ldi	r25, 0x01	; 1
    1f0e:	14 c0       	rjmp	.+40     	; 0x1f38 <simonLed+0xee>
    } else if (val == 2) {  // I
    1f10:	82 30       	cpi	r24, 0x02	; 2
    1f12:	b1 f4       	brne	.+44     	; 0x1f40 <simonLed+0xf6>
        iLED[WING[R][3]] = dimValue;
    1f14:	e0 91 a5 c0 	lds	r30, 0xC0A5	; 0x80c0a5 <__bss_end+0x8593>
    1f18:	f0 e0       	ldi	r31, 0x00	; 0
    1f1a:	80 91 0c 38 	lds	r24, 0x380C	; 0x80380c <dimValue>
    1f1e:	ed 53       	subi	r30, 0x3D	; 61
    1f20:	f5 4c       	sbci	r31, 0xC5	; 197
    1f22:	80 83       	st	Z, r24
        iLED[WING[R][4]] = dimValue;
    1f24:	e0 91 a6 c0 	lds	r30, 0xC0A6	; 0x80c0a6 <__bss_end+0x8594>
    1f28:	f0 e0       	ldi	r31, 0x00	; 0
    1f2a:	80 91 0c 38 	lds	r24, 0x380C	; 0x80380c <dimValue>
    1f2e:	ed 53       	subi	r30, 0x3D	; 61
    1f30:	f5 4c       	sbci	r31, 0xC5	; 197
    1f32:	80 83       	st	Z, r24
        effect = 0x019f;
    1f34:	8f e9       	ldi	r24, 0x9F	; 159
    1f36:	91 e0       	ldi	r25, 0x01	; 1
    1f38:	80 93 3a 38 	sts	0x383A, r24	; 0x80383a <effect>
    1f3c:	90 93 3b 38 	sts	0x383B, r25	; 0x80383b <effect+0x1>
    }
}
    1f40:	df 91       	pop	r29
    1f42:	cf 91       	pop	r28
    1f44:	08 95       	ret

00001f46 <BastetDictates>:

/**
 * Main game loop
 * @return 0
 */
uint8_t BastetDictates() {
    1f46:	cf 93       	push	r28
    1f48:	df 93       	push	r29
    if ((TEXT != gameNow) && (BASTET != gameNow))
    1f4a:	80 91 3c 38 	lds	r24, 0x383C	; 0x80383c <gameNow>
    1f4e:	8d 7f       	andi	r24, 0xFD	; 253
    1f50:	09 f0       	breq	.+2      	; 0x1f54 <BastetDictates+0xe>
    1f52:	73 c1       	rjmp	.+742    	; 0x223a <BastetDictates+0x2f4>
        return 0;

    if (CheckState(BASTET_COMPLETED)) {
    1f54:	8a e7       	ldi	r24, 0x7A	; 122
    1f56:	a8 da       	rcall	.-2736   	; 0x14a8 <CheckState>
    1f58:	88 23       	and	r24, r24
    1f5a:	41 f0       	breq	.+16     	; 0x1f6c <BastetDictates+0x26>
        if (BASTET == gameNow) {
    1f5c:	80 91 3c 38 	lds	r24, 0x383C	; 0x80383c <gameNow>
    1f60:	82 30       	cpi	r24, 0x02	; 2
    1f62:	09 f0       	breq	.+2      	; 0x1f66 <BastetDictates+0x20>
    1f64:	6a c1       	rjmp	.+724    	; 0x223a <BastetDictates+0x2f4>
            gameNow = TEXT;
    1f66:	10 92 3c 38 	sts	0x383C, r1	; 0x80383c <gameNow>
    1f6a:	67 c1       	rjmp	.+718    	; 0x223a <BastetDictates+0x2f4>
        }
        return 0;
    }

    if (CheckState(LANYARD_COMPLETED))
    1f6c:	8b e7       	ldi	r24, 0x7B	; 123
    1f6e:	9c da       	rcall	.-2760   	; 0x14a8 <CheckState>
    1f70:	90 91 08 38 	lds	r25, 0x3808	; 0x803808 <buttonState>
    1f74:	88 23       	and	r24, r24
    1f76:	29 f0       	breq	.+10     	; 0x1f82 <BastetDictates+0x3c>
        if (buttonState!=0xff)
    1f78:	9f 3f       	cpi	r25, 0xFF	; 255
    1f7a:	19 f0       	breq	.+6      	; 0x1f82 <BastetDictates+0x3c>
            gameNow = BASTET;
    1f7c:	82 e0       	ldi	r24, 0x02	; 2
    1f7e:	80 93 3c 38 	sts	0x383C, r24	; 0x80383c <gameNow>

    iLED[CAT] = (buttonState==0xff ? 0 : dimValue);
    1f82:	e0 91 9e c0 	lds	r30, 0xC09E	; 0x80c09e <__bss_end+0x858c>
    1f86:	f0 e0       	ldi	r31, 0x00	; 0
    1f88:	9f 3f       	cpi	r25, 0xFF	; 255
    1f8a:	19 f0       	breq	.+6      	; 0x1f92 <BastetDictates+0x4c>
    1f8c:	80 91 0c 38 	lds	r24, 0x380C	; 0x80380c <dimValue>
    1f90:	01 c0       	rjmp	.+2      	; 0x1f94 <BastetDictates+0x4e>
    1f92:	80 e0       	ldi	r24, 0x00	; 0
    1f94:	ed 53       	subi	r30, 0x3D	; 61
    1f96:	f5 4c       	sbci	r31, 0xC5	; 197
    1f98:	80 83       	st	Z, r24

    if (BASTET_BOOT == simonGameState) {
    1f9a:	80 91 5c 38 	lds	r24, 0x385C	; 0x80385c <simonGameState>
    1f9e:	81 11       	cpse	r24, r1
    1fa0:	0c c0       	rjmp	.+24     	; 0x1fba <BastetDictates+0x74>
    1fa2:	c2 e6       	ldi	r28, 0x62	; 98
        for (uint8_t i = 0; i < BASTET_LENGTH; i++) {
            simonState[i] = (lfsr() % 4);
    1fa4:	d8 e3       	ldi	r29, 0x38	; 56
    1fa6:	52 d9       	rcall	.-3420   	; 0x124c <lfsr>
    1fa8:	83 70       	andi	r24, 0x03	; 3
    1faa:	89 93       	st	Y+, r24
            gameNow = BASTET;

    iLED[CAT] = (buttonState==0xff ? 0 : dimValue);

    if (BASTET_BOOT == simonGameState) {
        for (uint8_t i = 0; i < BASTET_LENGTH; i++) {
    1fac:	88 e3       	ldi	r24, 0x38	; 56
    1fae:	ce 36       	cpi	r28, 0x6E	; 110
    1fb0:	d8 07       	cpc	r29, r24
    1fb2:	c9 f7       	brne	.-14     	; 0x1fa6 <BastetDictates+0x60>
            simonState[i] = (lfsr() % 4);
        }
        simonGameState = BASTET_GAME_START;
    1fb4:	81 e0       	ldi	r24, 0x01	; 1
    1fb6:	80 93 5c 38 	sts	0x385C, r24	; 0x80385c <simonGameState>
    }

    if (BASTET_GAME_START == simonGameState && BASTET == gameNow) {
    1fba:	80 91 5c 38 	lds	r24, 0x385C	; 0x80385c <simonGameState>
    1fbe:	81 30       	cpi	r24, 0x01	; 1
    1fc0:	71 f4       	brne	.+28     	; 0x1fde <BastetDictates+0x98>
    1fc2:	80 91 3c 38 	lds	r24, 0x383C	; 0x80383c <gameNow>
    1fc6:	82 30       	cpi	r24, 0x02	; 2
    1fc8:	51 f4       	brne	.+20     	; 0x1fde <BastetDictates+0x98>
        simonGameState = BASTET_GAME_INTRO;
    1fca:	80 93 5c 38 	sts	0x385C, r24	; 0x80385c <simonGameState>
        simonPos = 0;
    1fce:	10 92 61 38 	sts	0x3861, r1	; 0x803861 <simonPos>
        simonInputPos = 0;
    1fd2:	10 92 60 38 	sts	0x3860, r1	; 0x803860 <simonInputPos>
        simonTimer = 0;
    1fd6:	10 92 5f 38 	sts	0x385F, r1	; 0x80385f <simonTimer>
        simonCounter = 0;
    1fda:	10 92 5d 38 	sts	0x385D, r1	; 0x80385d <simonCounter>
    }

    if (BASTET_GAME_INTRO == simonGameState) {
    1fde:	80 91 5c 38 	lds	r24, 0x385C	; 0x80385c <simonGameState>
    1fe2:	82 30       	cpi	r24, 0x02	; 2
    1fe4:	19 f5       	brne	.+70     	; 0x202c <BastetDictates+0xe6>
        if (simonTimer > 5) {   // .33 seconds
    1fe6:	80 91 5f 38 	lds	r24, 0x385F	; 0x80385f <simonTimer>
    1fea:	86 30       	cpi	r24, 0x06	; 6
    1fec:	38 f0       	brcs	.+14     	; 0x1ffc <BastetDictates+0xb6>
            simonCounter++;
    1fee:	80 91 5d 38 	lds	r24, 0x385D	; 0x80385d <simonCounter>
    1ff2:	8f 5f       	subi	r24, 0xFF	; 255
    1ff4:	80 93 5d 38 	sts	0x385D, r24	; 0x80385d <simonCounter>
            simonTimer = 0;
    1ff8:	10 92 5f 38 	sts	0x385F, r1	; 0x80385f <simonTimer>
        }
        if (simonCounter > 5) {
    1ffc:	e0 91 5d 38 	lds	r30, 0x385D	; 0x80385d <simonCounter>
    2000:	e6 30       	cpi	r30, 0x06	; 6
    2002:	48 f0       	brcs	.+18     	; 0x2016 <BastetDictates+0xd0>
            simonGameState = BASTET_GAME_SHOW_PATTERN;
    2004:	83 e0       	ldi	r24, 0x03	; 3
    2006:	80 93 5c 38 	sts	0x385C, r24	; 0x80385c <simonGameState>
            simonTimer = 0;
    200a:	10 92 5f 38 	sts	0x385F, r1	; 0x80385f <simonTimer>
            simonCounter = 0;
    200e:	10 92 5d 38 	sts	0x385D, r1	; 0x80385d <simonCounter>
            ClearHackerLeds();
    2012:	62 db       	rcall	.-2364   	; 0x16d8 <ClearHackerLeds>
            return 0;
    2014:	12 c1       	rjmp	.+548    	; 0x223a <BastetDictates+0x2f4>
        }
        iLED[HCKR[R][simonCounter]] = dimValue;
    2016:	f0 e0       	ldi	r31, 0x00	; 0
    2018:	e0 55       	subi	r30, 0x50	; 80
    201a:	ff 43       	sbci	r31, 0x3F	; 63
    201c:	e0 81       	ld	r30, Z
    201e:	f0 e0       	ldi	r31, 0x00	; 0
    2020:	80 91 0c 38 	lds	r24, 0x380C	; 0x80380c <dimValue>
    2024:	ed 53       	subi	r30, 0x3D	; 61
    2026:	f5 4c       	sbci	r31, 0xC5	; 197
    2028:	80 83       	st	Z, r24
    202a:	2b c0       	rjmp	.+86     	; 0x2082 <BastetDictates+0x13c>
    }

    if (BASTET_GAME_SHOW_PATTERN == simonGameState) {
    202c:	83 30       	cpi	r24, 0x03	; 3
    202e:	49 f5       	brne	.+82     	; 0x2082 <BastetDictates+0x13c>
        if (simonTimer > 7) {   // .5 second
    2030:	80 91 5f 38 	lds	r24, 0x385F	; 0x80385f <simonTimer>
    2034:	88 30       	cpi	r24, 0x08	; 8
    2036:	38 f0       	brcs	.+14     	; 0x2046 <BastetDictates+0x100>
            simonCounter++;
    2038:	80 91 5d 38 	lds	r24, 0x385D	; 0x80385d <simonCounter>
    203c:	8f 5f       	subi	r24, 0xFF	; 255
    203e:	80 93 5d 38 	sts	0x385D, r24	; 0x80385d <simonCounter>
            simonTimer = 0;
    2042:	10 92 5f 38 	sts	0x385F, r1	; 0x80385f <simonTimer>
        }
        if (simonCounter > simonPos) {
    2046:	e0 91 5d 38 	lds	r30, 0x385D	; 0x80385d <simonCounter>
    204a:	80 91 61 38 	lds	r24, 0x3861	; 0x803861 <simonPos>
    204e:	8e 17       	cp	r24, r30
    2050:	40 f4       	brcc	.+16     	; 0x2062 <BastetDictates+0x11c>
            simonInputPos = 0;
    2052:	10 92 60 38 	sts	0x3860, r1	; 0x803860 <simonInputPos>
            simonGameState = BASTET_GAME_INPUT;
    2056:	85 e0       	ldi	r24, 0x05	; 5
    2058:	80 93 5c 38 	sts	0x385C, r24	; 0x80385c <simonGameState>
            simonLed(0);
    205c:	80 e0       	ldi	r24, 0x00	; 0
    205e:	f5 de       	rcall	.-534    	; 0x1e4a <simonLed>
    2060:	98 c0       	rjmp	.+304    	; 0x2192 <BastetDictates+0x24c>
            simonTimer = 0;
            return 0;
        }
        if (simonTimer < 3) {
    2062:	80 91 5f 38 	lds	r24, 0x385F	; 0x80385f <simonTimer>
    2066:	83 30       	cpi	r24, 0x03	; 3
    2068:	30 f4       	brcc	.+12     	; 0x2076 <BastetDictates+0x130>
            simonLed(simonState[simonCounter] + 1);
    206a:	f0 e0       	ldi	r31, 0x00	; 0
    206c:	ee 59       	subi	r30, 0x9E	; 158
    206e:	f7 4c       	sbci	r31, 0xC7	; 199
    2070:	80 81       	ld	r24, Z
    2072:	8f 5f       	subi	r24, 0xFF	; 255
    2074:	ea de       	rcall	.-556    	; 0x1e4a <simonLed>
        }
        if (simonTimer > 6) {
    2076:	80 91 5f 38 	lds	r24, 0x385F	; 0x80385f <simonTimer>
    207a:	87 30       	cpi	r24, 0x07	; 7
    207c:	10 f0       	brcs	.+4      	; 0x2082 <BastetDictates+0x13c>
            simonLed(0);
    207e:	80 e0       	ldi	r24, 0x00	; 0
    2080:	e4 de       	rcall	.-568    	; 0x1e4a <simonLed>
    2082:	c0 91 5c 38 	lds	r28, 0x385C	; 0x80385c <simonGameState>
        }
    }

    if (BASTET_GAME_INPUT == simonGameState) {
    2086:	c5 30       	cpi	r28, 0x05	; 5
    2088:	09 f0       	breq	.+2      	; 0x208c <BastetDictates+0x146>
    208a:	86 c0       	rjmp	.+268    	; 0x2198 <BastetDictates+0x252>
    208c:	80 91 08 38 	lds	r24, 0x3808	; 0x803808 <buttonState>
        //Button pressed
        if (lastButtonState != buttonState && (buttonState+1) > 0) {
    2090:	90 91 07 38 	lds	r25, 0x3807	; 0x803807 <lastButtonState>
    2094:	98 17       	cp	r25, r24
    2096:	09 f4       	brne	.+2      	; 0x209a <BastetDictates+0x154>
    2098:	71 c0       	rjmp	.+226    	; 0x217c <BastetDictates+0x236>
    209a:	90 91 5e 38 	lds	r25, 0x385E	; 0x80385e <simonWait>
            if (simonWait == 0 && buttonState < 4) {
    209e:	91 11       	cpse	r25, r1
    20a0:	6f c0       	rjmp	.+222    	; 0x2180 <BastetDictates+0x23a>
    20a2:	84 30       	cpi	r24, 0x04	; 4
    20a4:	08 f0       	brcs	.+2      	; 0x20a8 <BastetDictates+0x162>
    20a6:	6c c0       	rjmp	.+216    	; 0x2180 <BastetDictates+0x23a>
                simonWait = 1;
    20a8:	91 e0       	ldi	r25, 0x01	; 1
    20aa:	90 93 5e 38 	sts	0x385E, r25	; 0x80385e <simonWait>
                simonTimer = 0;
    20ae:	10 92 5f 38 	sts	0x385F, r1	; 0x80385f <simonTimer>
                simonLed(buttonState+1);
    20b2:	8f 5f       	subi	r24, 0xFF	; 255
    20b4:	ca de       	rcall	.-620    	; 0x1e4a <simonLed>
    20b6:	84 e0       	ldi	r24, 0x04	; 4
                simonGameState = BASTET_GAME_WAIT_LEDS;
    20b8:	80 93 5c 38 	sts	0x385C, r24	; 0x80385c <simonGameState>
    20bc:	c0 93 2d 38 	sts	0x382D, r28	; 0x80382d <simonNextGameState>
                simonNextGameState = BASTET_GAME_INPUT;
    20c0:	80 91 60 38 	lds	r24, 0x3860	; 0x803860 <simonInputPos>

                if (simonState[simonInputPos] == buttonState) {
    20c4:	e8 2f       	mov	r30, r24
    20c6:	f0 e0       	ldi	r31, 0x00	; 0
    20c8:	ee 59       	subi	r30, 0x9E	; 158
    20ca:	f7 4c       	sbci	r31, 0xC7	; 199
    20cc:	20 81       	ld	r18, Z
    20ce:	90 91 08 38 	lds	r25, 0x3808	; 0x803808 <buttonState>
    20d2:	29 13       	cpse	r18, r25
    20d4:	1d c0       	rjmp	.+58     	; 0x2110 <BastetDictates+0x1ca>
    20d6:	8f 5f       	subi	r24, 0xFF	; 255
                    simonInputPos++;
    20d8:	80 93 60 38 	sts	0x3860, r24	; 0x803860 <simonInputPos>
    20dc:	e0 91 61 38 	lds	r30, 0x3861	; 0x803861 <simonPos>
                    if (simonInputPos > simonPos) {
    20e0:	e8 17       	cp	r30, r24
    20e2:	a0 f5       	brcc	.+104    	; 0x214c <BastetDictates+0x206>
    20e4:	ef 5f       	subi	r30, 0xFF	; 255
                        simonPos++;
    20e6:	e0 93 61 38 	sts	0x3861, r30	; 0x803861 <simonPos>
    20ea:	10 92 5f 38 	sts	0x385F, r1	; 0x80385f <simonTimer>
                        simonTimer = 0;
    20ee:	10 92 5d 38 	sts	0x385D, r1	; 0x80385d <simonCounter>
                        simonCounter = 0;
    20f2:	e1 30       	cpi	r30, 0x01	; 1
                        if (simonPos > 1) { // BASTET_LENGTH = 12
    20f4:	59 f0       	breq	.+22     	; 0x210c <BastetDictates+0x1c6>
    20f6:	e6 95       	lsr	r30
                            iLED[HCKR[G][(simonPos / 2) - 1]] = dimValue;
    20f8:	f0 e0       	ldi	r31, 0x00	; 0
    20fa:	e0 55       	subi	r30, 0x50	; 80
    20fc:	ff 43       	sbci	r31, 0x3F	; 63
    20fe:	e5 81       	ldd	r30, Z+5	; 0x05
    2100:	f0 e0       	ldi	r31, 0x00	; 0
    2102:	80 91 0c 38 	lds	r24, 0x380C	; 0x80380c <dimValue>
    2106:	ed 53       	subi	r30, 0x3D	; 61
    2108:	f5 4c       	sbci	r31, 0xC5	; 197
    210a:	80 83       	st	Z, r24
    210c:	83 e0       	ldi	r24, 0x03	; 3
                        }
                        simonNextGameState = BASTET_GAME_SHOW_PATTERN;
    210e:	1c c0       	rjmp	.+56     	; 0x2148 <BastetDictates+0x202>
    2110:	80 e2       	ldi	r24, 0x20	; 32
                    }
                } else {
                    effect = 32;
    2112:	90 e0       	ldi	r25, 0x00	; 0
    2114:	80 93 3a 38 	sts	0x383A, r24	; 0x80383a <effect>
    2118:	90 93 3b 38 	sts	0x383B, r25	; 0x80383b <effect+0x1>
    211c:	a0 eb       	ldi	r26, 0xB0	; 176
    211e:	b0 ec       	ldi	r27, 0xC0	; 192
    2120:	ed 91       	ld	r30, X+
                    for (uint8_t n=0; n<6; n++){
                        iLED[HCKR[R][n]] = dimValue;
    2122:	f0 e0       	ldi	r31, 0x00	; 0
    2124:	80 91 0c 38 	lds	r24, 0x380C	; 0x80380c <dimValue>
    2128:	ed 53       	subi	r30, 0x3D	; 61
    212a:	f5 4c       	sbci	r31, 0xC5	; 197
    212c:	80 83       	st	Z, r24
    212e:	80 ec       	ldi	r24, 0xC0	; 192
                        }
                        simonNextGameState = BASTET_GAME_SHOW_PATTERN;
                    }
                } else {
                    effect = 32;
                    for (uint8_t n=0; n<6; n++){
    2130:	a6 3b       	cpi	r26, 0xB6	; 182
    2132:	b8 07       	cpc	r27, r24
    2134:	a9 f7       	brne	.-22     	; 0x2120 <BastetDictates+0x1da>
    2136:	10 92 60 38 	sts	0x3860, r1	; 0x803860 <simonInputPos>
                        iLED[HCKR[R][n]] = dimValue;
                    }
                    simonInputPos = 0;
    213a:	10 92 61 38 	sts	0x3861, r1	; 0x803861 <simonPos>
                    simonPos = 0;
    213e:	10 92 5f 38 	sts	0x385F, r1	; 0x80385f <simonTimer>
                    simonTimer = 0;
    2142:	10 92 5d 38 	sts	0x385D, r1	; 0x80385d <simonCounter>
                    simonCounter = 0;
    2146:	86 e0       	ldi	r24, 0x06	; 6
                    simonNextGameState = BASTET_GAME_OUTRO;
    2148:	80 93 2d 38 	sts	0x382D, r24	; 0x80382d <simonNextGameState>
    214c:	80 91 60 38 	lds	r24, 0x3860	; 0x803860 <simonInputPos>
                }

                if (simonInputPos >= BASTET_LENGTH || simonPos >= BASTET_LENGTH) { // beetje dubbel
    2150:	8c 30       	cpi	r24, 0x0C	; 12
    2152:	20 f4       	brcc	.+8      	; 0x215c <BastetDictates+0x216>
    2154:	80 91 61 38 	lds	r24, 0x3861	; 0x803861 <simonPos>
    2158:	8c 30       	cpi	r24, 0x0C	; 12
    215a:	90 f0       	brcs	.+36     	; 0x2180 <BastetDictates+0x23a>
                    effect = 64|2;
    215c:	82 e4       	ldi	r24, 0x42	; 66
    215e:	90 e0       	ldi	r25, 0x00	; 0
    2160:	80 93 3a 38 	sts	0x383A, r24	; 0x80383a <effect>
    2164:	90 93 3b 38 	sts	0x383B, r25	; 0x80383b <effect+0x1>
                    UpdateState(BASTET_COMPLETED);
    2168:	8a e7       	ldi	r24, 0x7A	; 122
    216a:	94 d9       	rcall	.-3288   	; 0x1494 <UpdateState>
    216c:	10 92 5f 38 	sts	0x385F, r1	; 0x80385f <simonTimer>
                    simonTimer = 0;
    2170:	10 92 5d 38 	sts	0x385D, r1	; 0x80385d <simonCounter>
                    simonCounter = 0;
    2174:	87 e0       	ldi	r24, 0x07	; 7
                    simonNextGameState = BASTET_GAME_OVER;
    2176:	80 93 2d 38 	sts	0x382D, r24	; 0x80382d <simonNextGameState>
    217a:	02 c0       	rjmp	.+4      	; 0x2180 <BastetDictates+0x23a>
    217c:	10 92 5e 38 	sts	0x385E, r1	; 0x80385e <simonWait>
                }
            }
        
        //Button released, next or reset!
        } else {
            simonWait = 0;
    2180:	80 91 5f 38 	lds	r24, 0x385F	; 0x80385f <simonTimer>
        }

        if (simonTimer == 200) {    // did you forget about Bastet?
    2184:	88 3c       	cpi	r24, 0xC8	; 200
    2186:	41 f4       	brne	.+16     	; 0x2198 <BastetDictates+0x252>
    2188:	83 e0       	ldi	r24, 0x03	; 3
            simonGameState = BASTET_GAME_SHOW_PATTERN;
    218a:	80 93 5c 38 	sts	0x385C, r24	; 0x80385c <simonGameState>
    218e:	10 92 5d 38 	sts	0x385D, r1	; 0x80385d <simonCounter>
            simonCounter = 0;
    2192:	10 92 5f 38 	sts	0x385F, r1	; 0x80385f <simonTimer>
            simonTimer = 0;
    2196:	51 c0       	rjmp	.+162    	; 0x223a <BastetDictates+0x2f4>
            return 0;
    2198:	80 91 5c 38 	lds	r24, 0x385C	; 0x80385c <simonGameState>
        }
    }

    if (BASTET_GAME_WAIT_LEDS == simonGameState) {
    219c:	84 30       	cpi	r24, 0x04	; 4
    219e:	81 f4       	brne	.+32     	; 0x21c0 <BastetDictates+0x27a>
        if (simonTimer >= 7) {
    21a0:	80 91 5f 38 	lds	r24, 0x385F	; 0x80385f <simonTimer>
    21a4:	87 30       	cpi	r24, 0x07	; 7
    21a6:	60 f0       	brcs	.+24     	; 0x21c0 <BastetDictates+0x27a>
            // on to next state after .5 second
            simonLed(0);  // LEDs off
    21a8:	80 e0       	ldi	r24, 0x00	; 0
    21aa:	4f de       	rcall	.-866    	; 0x1e4a <simonLed>
    21ac:	10 92 5e 38 	sts	0x385E, r1	; 0x80385e <simonWait>
            simonWait = 0;
    21b0:	10 92 5f 38 	sts	0x385F, r1	; 0x80385f <simonTimer>
            simonTimer = 0;
    21b4:	10 92 5d 38 	sts	0x385D, r1	; 0x80385d <simonCounter>
            simonCounter = 0;
    21b8:	80 91 2d 38 	lds	r24, 0x382D	; 0x80382d <simonNextGameState>
            simonGameState = simonNextGameState;
    21bc:	80 93 5c 38 	sts	0x385C, r24	; 0x80385c <simonGameState>
    21c0:	80 91 5c 38 	lds	r24, 0x385C	; 0x80385c <simonGameState>
        }
    }

    if (BASTET_GAME_OUTRO == simonGameState) {
    21c4:	86 30       	cpi	r24, 0x06	; 6
    21c6:	41 f5       	brne	.+80     	; 0x2218 <BastetDictates+0x2d2>
    21c8:	80 91 5f 38 	lds	r24, 0x385F	; 0x80385f <simonTimer>
        if (simonTimer > 3) {
    21cc:	84 30       	cpi	r24, 0x04	; 4
    21ce:	38 f0       	brcs	.+14     	; 0x21de <BastetDictates+0x298>
    21d0:	80 91 5d 38 	lds	r24, 0x385D	; 0x80385d <simonCounter>
            simonCounter++;
    21d4:	8f 5f       	subi	r24, 0xFF	; 255
    21d6:	80 93 5d 38 	sts	0x385D, r24	; 0x80385d <simonCounter>
    21da:	10 92 5f 38 	sts	0x385F, r1	; 0x80385f <simonTimer>
            simonTimer = 0;
    21de:	80 91 5d 38 	lds	r24, 0x385D	; 0x80385d <simonCounter>
        }
        if (simonCounter > 5) {
    21e2:	86 30       	cpi	r24, 0x06	; 6
    21e4:	40 f0       	brcs	.+16     	; 0x21f6 <BastetDictates+0x2b0>
    21e6:	10 92 5f 38 	sts	0x385F, r1	; 0x80385f <simonTimer>
            simonTimer = 0;
    21ea:	10 92 5d 38 	sts	0x385D, r1	; 0x80385d <simonCounter>
            simonCounter = 0;
    21ee:	87 e0       	ldi	r24, 0x07	; 7
            simonGameState = BASTET_GAME_OVER;
    21f0:	80 93 5c 38 	sts	0x385C, r24	; 0x80385c <simonGameState>
    21f4:	22 c0       	rjmp	.+68     	; 0x223a <BastetDictates+0x2f4>
            return 0;
    21f6:	e5 e0       	ldi	r30, 0x05	; 5
        }
        iLED[HCKR[R][5-simonCounter]] = 0;
    21f8:	f0 e0       	ldi	r31, 0x00	; 0
    21fa:	e8 1b       	sub	r30, r24
    21fc:	f1 09       	sbc	r31, r1
    21fe:	e0 55       	subi	r30, 0x50	; 80
    2200:	ff 43       	sbci	r31, 0x3F	; 63
    2202:	a0 81       	ld	r26, Z
    2204:	b0 e0       	ldi	r27, 0x00	; 0
    2206:	ad 53       	subi	r26, 0x3D	; 61
    2208:	b5 4c       	sbci	r27, 0xC5	; 197
    220a:	1c 92       	st	X, r1
    220c:	e6 81       	ldd	r30, Z+6	; 0x06
        iLED[HCKR[G][5-simonCounter]] = 0;
    220e:	f0 e0       	ldi	r31, 0x00	; 0
    2210:	ed 53       	subi	r30, 0x3D	; 61
    2212:	f5 4c       	sbci	r31, 0xC5	; 197
    2214:	10 82       	st	Z, r1
    2216:	0c c0       	rjmp	.+24     	; 0x2230 <BastetDictates+0x2ea>
    2218:	87 30       	cpi	r24, 0x07	; 7
    }

    if (BASTET_GAME_OVER == simonGameState) {
    221a:	51 f4       	brne	.+20     	; 0x2230 <BastetDictates+0x2ea>
        simonInputPos = 0;
    221c:	10 92 60 38 	sts	0x3860, r1	; 0x803860 <simonInputPos>
        simonPos = 0;
    2220:	10 92 61 38 	sts	0x3861, r1	; 0x803861 <simonPos>
        simonGameState = BASTET_BOOT; // BASTET_GAME_START for stale "field" s
    2224:	10 92 5c 38 	sts	0x385C, r1	; 0x80385c <simonGameState>
        gameNow = TEXT;
    2228:	10 92 3c 38 	sts	0x383C, r1	; 0x80383c <gameNow>
        simonLed(0);
    222c:	80 e0       	ldi	r24, 0x00	; 0
    222e:	0d de       	rcall	.-998    	; 0x1e4a <simonLed>
    2230:	80 91 5f 38 	lds	r24, 0x385F	; 0x80385f <simonTimer>
    }

    ++simonTimer;
    2234:	8f 5f       	subi	r24, 0xFF	; 255
    2236:	80 93 5f 38 	sts	0x385F, r24	; 0x80385f <simonTimer>
    223a:	80 e0       	ldi	r24, 0x00	; 0
    return 0;
}
    223c:	df 91       	pop	r29
    223e:	cf 91       	pop	r28
    2240:	08 95       	ret

00002242 <Cheat>:
    2242:	1f 93       	push	r17

//
void SetResponse(uint8_t number, uint16_t address, uint16_t length, uint8_t type){
    reactStr[0][number]=address;
    reactStr[1][number]=length;
    reactStr[2][number]=type;
    2244:	cf 93       	push	r28
    2246:	df 93       	push	r29
    2248:	cd b7       	in	r28, 0x3d	; 61
    224a:	de b7       	in	r29, 0x3e	; 62
    224c:	62 97       	sbiw	r28, 0x12	; 18
    224e:	cd bf       	out	0x3d, r28	; 61
    2250:	de bf       	out	0x3e, r29	; 62
    2252:	8a 8b       	std	Y+18, r24	; 0x12
    2254:	80 e1       	ldi	r24, 0x10	; 16
    2256:	e6 e7       	ldi	r30, 0x76	; 118
    2258:	f0 ec       	ldi	r31, 0xC0	; 192
    225a:	de 01       	movw	r26, r28
    225c:	11 96       	adiw	r26, 0x01	; 1
    225e:	01 90       	ld	r0, Z+
    2260:	0d 92       	st	X+, r0
    2262:	8a 95       	dec	r24
    2264:	e1 f7       	brne	.-8      	; 0x225e <Cheat+0x1c>
    2266:	fe 01       	movw	r30, r28
    2268:	31 96       	adiw	r30, 0x01	; 1
    226a:	90 e0       	ldi	r25, 0x00	; 0
    226c:	8f ef       	ldi	r24, 0xFF	; 255
    226e:	21 91       	ld	r18, Z+
    2270:	31 91       	ld	r19, Z+
    2272:	26 17       	cp	r18, r22
    2274:	37 07       	cpc	r19, r23
    2276:	09 f4       	brne	.+2      	; 0x227a <Cheat+0x38>
    2278:	89 2f       	mov	r24, r25
    227a:	9f 5f       	subi	r25, 0xFF	; 255
    227c:	98 30       	cpi	r25, 0x08	; 8
    227e:	b9 f7       	brne	.-18     	; 0x226e <Cheat+0x2c>
    2280:	88 30       	cpi	r24, 0x08	; 8
    2282:	10 f0       	brcs	.+4      	; 0x2288 <Cheat+0x46>
    2284:	80 e0       	ldi	r24, 0x00	; 0
    2286:	14 c0       	rjmp	.+40     	; 0x22b0 <Cheat+0x6e>
    2288:	18 e1       	ldi	r17, 0x18	; 24
    228a:	18 0f       	add	r17, r24
    228c:	41 e0       	ldi	r20, 0x01	; 1
    228e:	be 01       	movw	r22, r28
    2290:	6f 5e       	subi	r22, 0xEF	; 239
    2292:	7f 4f       	sbci	r23, 0xFF	; 255
    2294:	81 2f       	mov	r24, r17
    2296:	0e 94 34 08 	call	0x1068	; 0x1068 <EERead>
    229a:	89 89       	ldd	r24, Y+17	; 0x11
    229c:	8f 3f       	cpi	r24, 0xFF	; 255
    229e:	91 f7       	brne	.-28     	; 0x2284 <Cheat+0x42>
    22a0:	41 e0       	ldi	r20, 0x01	; 1
    22a2:	be 01       	movw	r22, r28
    22a4:	6e 5e       	subi	r22, 0xEE	; 238
    22a6:	7f 4f       	sbci	r23, 0xFF	; 255
    22a8:	81 2f       	mov	r24, r17
    22aa:	0e 94 44 08 	call	0x1088	; 0x1088 <EEWrite>
    22ae:	81 e0       	ldi	r24, 0x01	; 1
    22b0:	62 96       	adiw	r28, 0x12	; 18
    22b2:	cd bf       	out	0x3d, r28	; 61
    22b4:	de bf       	out	0x3e, r29	; 62
    22b6:	df 91       	pop	r29
    22b8:	cf 91       	pop	r28
    22ba:	1f 91       	pop	r17
    22bc:	08 95       	ret

000022be <UnflipData>:
    22be:	26 2f       	mov	r18, r22
    22c0:	fb 01       	movw	r30, r22
    22c2:	35 e5       	ldi	r19, 0x55	; 85
    22c4:	9e 2f       	mov	r25, r30
    22c6:	92 1b       	sub	r25, r18
    22c8:	98 17       	cp	r25, r24
    22ca:	28 f4       	brcc	.+10     	; 0x22d6 <UnflipData+0x18>
    22cc:	90 81       	ld	r25, Z
    22ce:	92 95       	swap	r25
    22d0:	93 27       	eor	r25, r19
    22d2:	91 93       	st	Z+, r25
    22d4:	f7 cf       	rjmp	.-18     	; 0x22c4 <UnflipData+0x6>
    22d6:	08 95       	ret

000022d8 <ClearTxAfter>:
    22d8:	8f 5f       	subi	r24, 0xFF	; 255
    22da:	88 30       	cpi	r24, 0x08	; 8
    22dc:	30 f4       	brcc	.+12     	; 0x22ea <ClearTxAfter+0x12>
    22de:	e8 2f       	mov	r30, r24
    22e0:	f0 e0       	ldi	r31, 0x00	; 0
    22e2:	e8 5b       	subi	r30, 0xB8	; 184
    22e4:	f5 4c       	sbci	r31, 0xC5	; 197
    22e6:	10 82       	st	Z, r1
    22e8:	f7 cf       	rjmp	.-18     	; 0x22d8 <ClearTxAfter>
    22ea:	08 95       	ret

000022ec <StartsWith>:
    22ec:	ac 01       	movw	r20, r24
    22ee:	90 e0       	ldi	r25, 0x00	; 0
    22f0:	e9 2f       	mov	r30, r25
    22f2:	f0 e0       	ldi	r31, 0x00	; 0
    22f4:	da 01       	movw	r26, r20
    22f6:	ae 0f       	add	r26, r30
    22f8:	bf 1f       	adc	r27, r31
    22fa:	3c 91       	ld	r19, X
    22fc:	e6 0f       	add	r30, r22
    22fe:	f7 1f       	adc	r31, r23
    2300:	31 11       	cpse	r19, r1
    2302:	05 c0       	rjmp	.+10     	; 0x230e <StartsWith+0x22>
    2304:	81 e0       	ldi	r24, 0x01	; 1
    2306:	90 81       	ld	r25, Z
    2308:	99 23       	and	r25, r25
    230a:	49 f0       	breq	.+18     	; 0x231e <StartsWith+0x32>
    230c:	07 c0       	rjmp	.+14     	; 0x231c <StartsWith+0x30>
    230e:	20 81       	ld	r18, Z
    2310:	22 23       	and	r18, r18
    2312:	c1 f3       	breq	.-16     	; 0x2304 <StartsWith+0x18>
    2314:	32 13       	cpse	r19, r18
    2316:	02 c0       	rjmp	.+4      	; 0x231c <StartsWith+0x30>
    2318:	9f 5f       	subi	r25, 0xFF	; 255
    231a:	ea cf       	rjmp	.-44     	; 0x22f0 <StartsWith+0x4>
    231c:	80 e0       	ldi	r24, 0x00	; 0
    231e:	08 95       	ret

00002320 <PrepareSending>:
    2320:	cf 93       	push	r28
    2322:	df 93       	push	r29
    2324:	fc 01       	movw	r30, r24
    2326:	61 15       	cp	r22, r1
    2328:	71 05       	cpc	r23, r1
    232a:	59 f1       	breq	.+86     	; 0x2382 <PrepareSending+0x62>
    232c:	a0 e5       	ldi	r26, 0x50	; 80
    232e:	ba e3       	ldi	r27, 0x3A	; 58
    2330:	c8 e4       	ldi	r28, 0x48	; 72
    2332:	da e3       	ldi	r29, 0x3A	; 58
    2334:	80 e0       	ldi	r24, 0x00	; 0
    2336:	9f ef       	ldi	r25, 0xFF	; 255
    2338:	6f 3f       	cpi	r22, 0xFF	; 255
    233a:	71 05       	cpc	r23, r1
    233c:	69 f0       	breq	.+26     	; 0x2358 <PrepareSending+0x38>
    233e:	60 f0       	brcs	.+24     	; 0x2358 <PrepareSending+0x38>
    2340:	ed 93       	st	X+, r30
    2342:	fd 93       	st	X+, r31
    2344:	99 93       	st	Y+, r25
    2346:	e1 50       	subi	r30, 0x01	; 1
    2348:	ff 4f       	sbci	r31, 0xFF	; 255
    234a:	6f 5f       	subi	r22, 0xFF	; 255
    234c:	71 09       	sbc	r23, r1
    234e:	8f 5f       	subi	r24, 0xFF	; 255
    2350:	87 30       	cpi	r24, 0x07	; 7
    2352:	91 f7       	brne	.-28     	; 0x2338 <PrepareSending+0x18>
    2354:	81 e0       	ldi	r24, 0x01	; 1
    2356:	1e c0       	rjmp	.+60     	; 0x2394 <PrepareSending+0x74>
    2358:	28 2f       	mov	r18, r24
    235a:	30 e0       	ldi	r19, 0x00	; 0
    235c:	d9 01       	movw	r26, r18
    235e:	aa 0f       	add	r26, r26
    2360:	bb 1f       	adc	r27, r27
    2362:	a0 5b       	subi	r26, 0xB0	; 176
    2364:	b5 4c       	sbci	r27, 0xC5	; 197
    2366:	ed 93       	st	X+, r30
    2368:	fc 93       	st	X, r31
    236a:	6f 3f       	cpi	r22, 0xFF	; 255
    236c:	71 05       	cpc	r23, r1
    236e:	11 f4       	brne	.+4      	; 0x2374 <PrepareSending+0x54>
    2370:	6e ef       	ldi	r22, 0xFE	; 254
    2372:	70 e0       	ldi	r23, 0x00	; 0
    2374:	f9 01       	movw	r30, r18
    2376:	e8 5b       	subi	r30, 0xB8	; 184
    2378:	f5 4c       	sbci	r31, 0xC5	; 197
    237a:	60 83       	st	Z, r22
    237c:	40 93 46 3a 	sts	0x3A46, r20	; 0x803a46 <txTypeNow>
    2380:	05 c0       	rjmp	.+10     	; 0x238c <PrepareSending+0x6c>
    2382:	10 92 50 3a 	sts	0x3A50, r1	; 0x803a50 <txAddrList>
    2386:	10 92 51 3a 	sts	0x3A51, r1	; 0x803a51 <txAddrList+0x1>
    238a:	80 e0       	ldi	r24, 0x00	; 0
    238c:	a5 df       	rcall	.-182    	; 0x22d8 <ClearTxAfter>
    238e:	10 92 47 3a 	sts	0x3A47, r1	; 0x803a47 <txAddrNow>
    2392:	80 e0       	ldi	r24, 0x00	; 0
    2394:	df 91       	pop	r29
    2396:	cf 91       	pop	r28
    2398:	08 95       	ret

0000239a <SetStandardResponse>:
}

//
uint8_t SetStandardResponse(uint8_t custStrEnd){
    239a:	cf 93       	push	r28
    239c:	df 93       	push	r29
    return 0;
}

//
void SetResponse(uint8_t number, uint16_t address, uint16_t length, uint8_t type){
    reactStr[0][number]=address;
    239e:	28 2f       	mov	r18, r24
    23a0:	30 e0       	ldi	r19, 0x00	; 0
    23a2:	f9 01       	movw	r30, r18
    23a4:	ee 0f       	add	r30, r30
    23a6:	ff 1f       	adc	r31, r31
    23a8:	e5 5e       	subi	r30, 0xE5	; 229
    23aa:	f6 4c       	sbci	r31, 0xC6	; 198
    23ac:	a9 e5       	ldi	r26, 0x59	; 89
    23ae:	ba e7       	ldi	r27, 0x7A	; 122
    23b0:	a0 83       	st	Z, r26
    23b2:	b1 83       	std	Z+1, r27	; 0x01
    reactStr[1][number]=length;
    23b4:	f9 01       	movw	r30, r18
    23b6:	ee 0f       	add	r30, r30
    23b8:	ff 1f       	adc	r31, r31
    23ba:	e5 5a       	subi	r30, 0xA5	; 165
    23bc:	f6 4c       	sbci	r31, 0xC6	; 198
    23be:	62 e0       	ldi	r22, 0x02	; 2
    23c0:	70 e0       	ldi	r23, 0x00	; 0
    23c2:	60 83       	st	Z, r22
    23c4:	71 83       	std	Z+1, r23	; 0x01
    reactStr[2][number]=type;
    23c6:	22 0f       	add	r18, r18
    23c8:	33 1f       	adc	r19, r19
    23ca:	f9 01       	movw	r30, r18
    23cc:	e5 56       	subi	r30, 0x65	; 101
    23ce:	f6 4c       	sbci	r31, 0xC6	; 198
    23d0:	41 e0       	ldi	r20, 0x01	; 1
    23d2:	50 e0       	ldi	r21, 0x00	; 0
    23d4:	40 83       	st	Z, r20
    23d6:	51 83       	std	Z+1, r21	; 0x01
    return 0;
}

//
void SetResponse(uint8_t number, uint16_t address, uint16_t length, uint8_t type){
    reactStr[0][number]=address;
    23d8:	21 e0       	ldi	r18, 0x01	; 1
    23da:	28 0f       	add	r18, r24
    23dc:	30 e0       	ldi	r19, 0x00	; 0
    23de:	f9 01       	movw	r30, r18
    23e0:	ee 0f       	add	r30, r30
    23e2:	ff 1f       	adc	r31, r31
    23e4:	e5 5e       	subi	r30, 0xE5	; 229
    23e6:	f6 4c       	sbci	r31, 0xC6	; 198
    23e8:	c2 e6       	ldi	r28, 0x62	; 98
    23ea:	da e7       	ldi	r29, 0x7A	; 122
    23ec:	c0 83       	st	Z, r28
    23ee:	d1 83       	std	Z+1, r29	; 0x01
    reactStr[1][number]=length;
    23f0:	f9 01       	movw	r30, r18
    23f2:	ee 0f       	add	r30, r30
    23f4:	ff 1f       	adc	r31, r31
    23f6:	e5 5a       	subi	r30, 0xA5	; 165
    23f8:	f6 4c       	sbci	r31, 0xC6	; 198
    23fa:	cc e0       	ldi	r28, 0x0C	; 12
    23fc:	d0 e0       	ldi	r29, 0x00	; 0
    23fe:	c0 83       	st	Z, r28
    2400:	d1 83       	std	Z+1, r29	; 0x01
    reactStr[2][number]=type;
    2402:	22 0f       	add	r18, r18
    2404:	33 1f       	adc	r19, r19
    2406:	f9 01       	movw	r30, r18
    2408:	e5 56       	subi	r30, 0x65	; 101
    240a:	f6 4c       	sbci	r31, 0xC6	; 198
    240c:	40 83       	st	Z, r20
    240e:	51 83       	std	Z+1, r21	; 0x01
//
uint8_t SetStandardResponse(uint8_t custStrEnd){

    SetResponse(custStrEnd++, A_LF, 2, TEASER);
    SetResponse(custStrEnd++, A_LOCATION, L_LOCATION, TEASER);
    reactStr[0][custStrEnd++] = CURR_LOC;
    2410:	e2 e0       	ldi	r30, 0x02	; 2
    2412:	e8 0f       	add	r30, r24
    2414:	f0 e0       	ldi	r31, 0x00	; 0
    2416:	ee 0f       	add	r30, r30
    2418:	ff 1f       	adc	r31, r31
    241a:	e5 5e       	subi	r30, 0xE5	; 229
    241c:	f6 4c       	sbci	r31, 0xC6	; 198
    241e:	20 ef       	ldi	r18, 0xF0	; 240
    2420:	3f ef       	ldi	r19, 0xFF	; 255
    2422:	20 83       	st	Z, r18
    2424:	31 83       	std	Z+1, r19	; 0x01
    return 0;
}

//
void SetResponse(uint8_t number, uint16_t address, uint16_t length, uint8_t type){
    reactStr[0][number]=address;
    2426:	23 e0       	ldi	r18, 0x03	; 3
    2428:	28 0f       	add	r18, r24
    242a:	30 e0       	ldi	r19, 0x00	; 0
    242c:	f9 01       	movw	r30, r18
    242e:	ee 0f       	add	r30, r30
    2430:	ff 1f       	adc	r31, r31
    2432:	e5 5e       	subi	r30, 0xE5	; 229
    2434:	f6 4c       	sbci	r31, 0xC6	; 198
    2436:	a0 83       	st	Z, r26
    2438:	b1 83       	std	Z+1, r27	; 0x01
    reactStr[1][number]=length;
    243a:	f9 01       	movw	r30, r18
    243c:	ee 0f       	add	r30, r30
    243e:	ff 1f       	adc	r31, r31
    2440:	e5 5a       	subi	r30, 0xA5	; 165
    2442:	f6 4c       	sbci	r31, 0xC6	; 198
    2444:	60 83       	st	Z, r22
    2446:	71 83       	std	Z+1, r23	; 0x01
    reactStr[2][number]=type;
    2448:	22 0f       	add	r18, r18
    244a:	33 1f       	adc	r19, r19
    244c:	f9 01       	movw	r30, r18
    244e:	e5 56       	subi	r30, 0x65	; 101
    2450:	f6 4c       	sbci	r31, 0xC6	; 198
    2452:	40 83       	st	Z, r20
    2454:	51 83       	std	Z+1, r21	; 0x01
    return 0;
}

//
void SetResponse(uint8_t number, uint16_t address, uint16_t length, uint8_t type){
    reactStr[0][number]=address;
    2456:	24 e0       	ldi	r18, 0x04	; 4
    2458:	28 0f       	add	r18, r24
    245a:	30 e0       	ldi	r19, 0x00	; 0
    245c:	f9 01       	movw	r30, r18
    245e:	ee 0f       	add	r30, r30
    2460:	ff 1f       	adc	r31, r31
    2462:	e5 5e       	subi	r30, 0xE5	; 229
    2464:	f6 4c       	sbci	r31, 0xC6	; 198
    2466:	a5 e5       	ldi	r26, 0x55	; 85
    2468:	ba e7       	ldi	r27, 0x7A	; 122
    246a:	a0 83       	st	Z, r26
    246c:	b1 83       	std	Z+1, r27	; 0x01
    reactStr[1][number]=length;
    246e:	f9 01       	movw	r30, r18
    2470:	ee 0f       	add	r30, r30
    2472:	ff 1f       	adc	r31, r31
    2474:	e5 5a       	subi	r30, 0xA5	; 165
    2476:	f6 4c       	sbci	r31, 0xC6	; 198
    2478:	60 83       	st	Z, r22
    247a:	71 83       	std	Z+1, r23	; 0x01
    reactStr[2][number]=type;
    247c:	22 0f       	add	r18, r18
    247e:	33 1f       	adc	r19, r19
    2480:	f9 01       	movw	r30, r18
    2482:	e5 56       	subi	r30, 0x65	; 101
    2484:	f6 4c       	sbci	r31, 0xC6	; 198
    2486:	40 83       	st	Z, r20
    2488:	51 83       	std	Z+1, r21	; 0x01
    reactStr[0][custStrEnd++] = CURR_LOC;
    SetResponse(custStrEnd++, A_LF, 2, TEASER);
    SetResponse(custStrEnd++, A_PROMPT, L_PROMPT, TEASER);

    return custStrEnd;
}
    248a:	8b 5f       	subi	r24, 0xFB	; 251
    248c:	df 91       	pop	r29
    248e:	cf 91       	pop	r28
    2490:	08 95       	ret

00002492 <PopulateObject>:

//Get all the relevant data and string addresses of an object
void PopulateObject(uint16_t offset, object_model_t *object){
    2492:	af 92       	push	r10
    2494:	bf 92       	push	r11
    2496:	df 92       	push	r13
    2498:	ef 92       	push	r14
    249a:	ff 92       	push	r15
    249c:	0f 93       	push	r16
    249e:	1f 93       	push	r17
    24a0:	cf 93       	push	r28
    24a2:	df 93       	push	r29
    24a4:	cd b7       	in	r28, 0x3d	; 61
    24a6:	de b7       	in	r29, 0x3e	; 62
    24a8:	2c 97       	sbiw	r28, 0x0c	; 12
    24aa:	cd bf       	out	0x3d, r28	; 61
    24ac:	de bf       	out	0x3e, r29	; 62
    24ae:	7c 01       	movw	r14, r24
    24b0:	8b 01       	movw	r16, r22
    uint16_t parStr;
    offset += L_BOILER;

    //Fill things with fixed distance to offset
    uint8_t data[OFF_STRINGFLDS];
    ExtEERead(offset, OFF_STRINGFLDS, GAME, &data[0]);
    24b2:	9e 01       	movw	r18, r28
    24b4:	2f 5f       	subi	r18, 0xFF	; 255
    24b6:	3f 4f       	sbci	r19, 0xFF	; 255
    24b8:	40 e0       	ldi	r20, 0x00	; 0
    24ba:	6c e0       	ldi	r22, 0x0C	; 12
    24bc:	80 96       	adiw	r24, 0x20	; 32
    24be:	0e 94 86 08 	call	0x110c	; 0x110c <ExtEERead>
    object->addrNextObj = (data[OFF_NEXTOBJ]<<8|data[OFF_NEXTOBJ+1])+L_BOILER;
    24c2:	89 81       	ldd	r24, Y+1	; 0x01
    24c4:	9a 81       	ldd	r25, Y+2	; 0x02
    24c6:	98 27       	eor	r25, r24
    24c8:	89 27       	eor	r24, r25
    24ca:	98 27       	eor	r25, r24
    24cc:	80 96       	adiw	r24, 0x20	; 32
    24ce:	f8 01       	movw	r30, r16
    24d0:	80 83       	st	Z, r24
    24d2:	91 83       	std	Z+1, r25	; 0x01
    object->addrNextLvl = (data[OFF_NEXTLVL]<<8|data[OFF_NEXTLVL+1])+L_BOILER;
    24d4:	8b 81       	ldd	r24, Y+3	; 0x03
    24d6:	9c 81       	ldd	r25, Y+4	; 0x04
    24d8:	98 27       	eor	r25, r24
    24da:	89 27       	eor	r24, r25
    24dc:	98 27       	eor	r25, r24
    24de:	80 96       	adiw	r24, 0x20	; 32
    24e0:	82 83       	std	Z+2, r24	; 0x02
    24e2:	93 83       	std	Z+3, r25	; 0x03
    24e4:	de 01       	movw	r26, r28
    24e6:	15 96       	adiw	r26, 0x05	; 5
    24e8:	34 96       	adiw	r30, 0x04	; 4
    24ea:	c8 01       	movw	r24, r16
    24ec:	0c 96       	adiw	r24, 0x0c	; 12
    for (uint8_t x=0; x<BYTE_FIELDS_LEN; ++x){
        object->byteField[x]=data[x+OFF_BYTEFLDS];
    24ee:	2d 91       	ld	r18, X+
    24f0:	21 93       	st	Z+, r18
    //Fill things with fixed distance to offset
    uint8_t data[OFF_STRINGFLDS];
    ExtEERead(offset, OFF_STRINGFLDS, GAME, &data[0]);
    object->addrNextObj = (data[OFF_NEXTOBJ]<<8|data[OFF_NEXTOBJ+1])+L_BOILER;
    object->addrNextLvl = (data[OFF_NEXTLVL]<<8|data[OFF_NEXTLVL+1])+L_BOILER;
    for (uint8_t x=0; x<BYTE_FIELDS_LEN; ++x){
    24f2:	e8 17       	cp	r30, r24
    24f4:	f9 07       	cpc	r31, r25
    24f6:	d9 f7       	brne	.-10     	; 0x24ee <PopulateObject+0x5c>
        object->byteField[x]=data[x+OFF_BYTEFLDS];
    }

    //Find out where all of the strings begin and how long they are
    offset += OFF_STRINGFLDS;
    24f8:	fc e2       	ldi	r31, 0x2C	; 44
    24fa:	ef 0e       	add	r14, r31
    24fc:	f1 1c       	adc	r15, r1
    24fe:	58 01       	movw	r10, r16
    for(uint8_t x=0; x<STRING_FIELDS_LEN; ++x){
    2500:	d1 2c       	mov	r13, r1
        
        //Determine length
        ExtEERead(offset, 3, GAME, &data[0]);
    2502:	9e 01       	movw	r18, r28
    2504:	2f 5f       	subi	r18, 0xFF	; 255
    2506:	3f 4f       	sbci	r19, 0xFF	; 255
    2508:	40 e0       	ldi	r20, 0x00	; 0
    250a:	63 e0       	ldi	r22, 0x03	; 3
    250c:	c7 01       	movw	r24, r14
    250e:	0e 94 86 08 	call	0x110c	; 0x110c <ExtEERead>
    2512:	89 81       	ldd	r24, Y+1	; 0x01
    2514:	9a 81       	ldd	r25, Y+2	; 0x02
    2516:	98 27       	eor	r25, r24
    2518:	89 27       	eor	r24, r25
    251a:	98 27       	eor	r25, r24
        parStr = (data[0]<<8|data[1]);
        offset += 2;
    251c:	97 01       	movw	r18, r14
    251e:	2e 5f       	subi	r18, 0xFE	; 254
    2520:	3f 4f       	sbci	r19, 0xFF	; 255
        if (x >= OPEN_ACL_MSG){
    2522:	43 e0       	ldi	r20, 0x03	; 3
    2524:	4d 15       	cp	r20, r13
    2526:	80 f4       	brcc	.+32     	; 0x2548 <PopulateObject+0xb6>
            object->lenStr[x]= parStr-1;
    2528:	ac 01       	movw	r20, r24
    252a:	41 50       	subi	r20, 0x01	; 1
    252c:	51 09       	sbc	r21, r1
    252e:	f8 01       	movw	r30, r16
    2530:	42 8f       	std	Z+26, r20	; 0x1a
    2532:	53 8f       	std	Z+27, r21	; 0x1b
            object->addrStr[x]=offset+1;
    2534:	f3 e0       	ldi	r31, 0x03	; 3
    2536:	ef 0e       	add	r14, r31
    2538:	f1 1c       	adc	r15, r1
    253a:	f8 01       	movw	r30, r16
    253c:	e4 86       	std	Z+12, r14	; 0x0c
    253e:	f5 86       	std	Z+13, r15	; 0x0d
            object->effect[x-OPEN_ACL_MSG] = data[2];
    2540:	4b 81       	ldd	r20, Y+3	; 0x03
    2542:	f5 01       	movw	r30, r10
    2544:	44 a3       	std	Z+36, r20	; 0x24
    2546:	05 c0       	rjmp	.+10     	; 0x2552 <PopulateObject+0xc0>
        } else {
            object->lenStr[x]= parStr;
    2548:	f8 01       	movw	r30, r16
    254a:	82 8f       	std	Z+26, r24	; 0x1a
    254c:	93 8f       	std	Z+27, r25	; 0x1b
            object->addrStr[x]=offset;
    254e:	24 87       	std	Z+12, r18	; 0x0c
    2550:	35 87       	std	Z+13, r19	; 0x0d
        }
        
        //Determine string start location for next field
        offset += parStr;
    2552:	7c 01       	movw	r14, r24
    2554:	e2 0e       	add	r14, r18
    2556:	f3 1e       	adc	r15, r19
        object->byteField[x]=data[x+OFF_BYTEFLDS];
    }

    //Find out where all of the strings begin and how long they are
    offset += OFF_STRINGFLDS;
    for(uint8_t x=0; x<STRING_FIELDS_LEN; ++x){
    2558:	d3 94       	inc	r13
    255a:	0e 5f       	subi	r16, 0xFE	; 254
    255c:	1f 4f       	sbci	r17, 0xFF	; 255
    255e:	ff ef       	ldi	r31, 0xFF	; 255
    2560:	af 1a       	sub	r10, r31
    2562:	bf 0a       	sbc	r11, r31
    2564:	47 e0       	ldi	r20, 0x07	; 7
    2566:	d4 12       	cpse	r13, r20
    2568:	cc cf       	rjmp	.-104    	; 0x2502 <PopulateObject+0x70>
        }
        
        //Determine string start location for next field
        offset += parStr;
    }    
}
    256a:	2c 96       	adiw	r28, 0x0c	; 12
    256c:	cd bf       	out	0x3d, r28	; 61
    256e:	de bf       	out	0x3e, r29	; 62
    2570:	df 91       	pop	r29
    2572:	cf 91       	pop	r28
    2574:	1f 91       	pop	r17
    2576:	0f 91       	pop	r16
    2578:	ff 90       	pop	r15
    257a:	ef 90       	pop	r14
    257c:	df 90       	pop	r13
    257e:	bf 90       	pop	r11
    2580:	af 90       	pop	r10
    2582:	08 95       	ret

00002584 <CheckLetter>:

//Check if the entered letter corresponds with a name
uint8_t CheckLetter(uint16_t object, uint8_t letter){
    2584:	cf 92       	push	r12
    2586:	df 92       	push	r13
    2588:	ef 92       	push	r14
    258a:	ff 92       	push	r15
    258c:	0f 93       	push	r16
    258e:	1f 93       	push	r17
    2590:	cf 93       	push	r28
    2592:	df 93       	push	r29
    2594:	cd b7       	in	r28, 0x3d	; 61
    2596:	de b7       	in	r29, 0x3e	; 62
    2598:	a0 97       	sbiw	r28, 0x20	; 32
    259a:	cd bf       	out	0x3d, r28	; 61
    259c:	de bf       	out	0x3e, r29	; 62
    259e:	c6 2e       	mov	r12, r22
    
    uint8_t found = 0;
    uint8_t data[32];

    object += L_BOILER;
    25a0:	7c 01       	movw	r14, r24
    25a2:	20 e2       	ldi	r18, 0x20	; 32
    25a4:	e2 0e       	add	r14, r18
    25a6:	f1 1c       	adc	r15, r1
    ExtEERead(object+OFF_STRINGFLDS, 2, GAME, &data[0]);
    25a8:	9e 01       	movw	r18, r28
    25aa:	2f 5f       	subi	r18, 0xFF	; 255
    25ac:	3f 4f       	sbci	r19, 0xFF	; 255
    25ae:	40 e0       	ldi	r20, 0x00	; 0
    25b0:	62 e0       	ldi	r22, 0x02	; 2
    25b2:	8c 96       	adiw	r24, 0x2c	; 44
    25b4:	0e 94 86 08 	call	0x110c	; 0x110c <ExtEERead>
    uint8_t x = data[1]; //Assuming a name is not longer than 255 characters.
    25b8:	1a 81       	ldd	r17, Y+2	; 0x02
}

//Check if the entered letter corresponds with a name
uint8_t CheckLetter(uint16_t object, uint8_t letter){
    
    uint8_t found = 0;
    25ba:	d1 2c       	mov	r13, r1

    object += L_BOILER;
    ExtEERead(object+OFF_STRINGFLDS, 2, GAME, &data[0]);
    uint8_t x = data[1]; //Assuming a name is not longer than 255 characters.

    while (x){
    25bc:	11 23       	and	r17, r17
    25be:	59 f1       	breq	.+86     	; 0x2616 <CheckLetter+0x92>
    25c0:	01 2f       	mov	r16, r17
    25c2:	11 32       	cpi	r17, 0x21	; 33
    25c4:	08 f0       	brcs	.+2      	; 0x25c8 <CheckLetter+0x44>
    25c6:	00 e2       	ldi	r16, 0x20	; 32
        uint8_t max;
        if (x>32) max = 32; else max = x;
        ExtEERead(object+OFF_STRINGFLDS+2, max, GAME, &data[0]);
    25c8:	9e 01       	movw	r18, r28
    25ca:	2f 5f       	subi	r18, 0xFF	; 255
    25cc:	3f 4f       	sbci	r19, 0xFF	; 255
    25ce:	40 e0       	ldi	r20, 0x00	; 0
    25d0:	60 2f       	mov	r22, r16
    25d2:	c7 01       	movw	r24, r14
    25d4:	0e 96       	adiw	r24, 0x0e	; 14
    25d6:	0e 94 86 08 	call	0x110c	; 0x110c <ExtEERead>
    25da:	fe 01       	movw	r30, r28
    25dc:	31 96       	adiw	r30, 0x01	; 1
        for (uint8_t y=0; y<max; ++y){
    25de:	80 e0       	ldi	r24, 0x00	; 0
            if (found){
    25e0:	dd 20       	and	r13, r13
    25e2:	61 f0       	breq	.+24     	; 0x25fc <CheckLetter+0x78>
                if ((data[y]|0x20) == letter) return 1; else return 0;
    25e4:	e1 e0       	ldi	r30, 0x01	; 1
    25e6:	f0 e0       	ldi	r31, 0x00	; 0
    25e8:	ec 0f       	add	r30, r28
    25ea:	fd 1f       	adc	r31, r29
    25ec:	e8 0f       	add	r30, r24
    25ee:	f1 1d       	adc	r31, r1
    25f0:	90 81       	ld	r25, Z
    25f2:	90 62       	ori	r25, 0x20	; 32
    25f4:	81 e0       	ldi	r24, 0x01	; 1
    25f6:	9c 11       	cpse	r25, r12
    25f8:	0e c0       	rjmp	.+28     	; 0x2616 <CheckLetter+0x92>
    25fa:	0e c0       	rjmp	.+28     	; 0x2618 <CheckLetter+0x94>
            }
            if (data[y] == '[') found = 1;
    25fc:	91 91       	ld	r25, Z+
    25fe:	dd 24       	eor	r13, r13
    2600:	d3 94       	inc	r13
    2602:	9b 35       	cpi	r25, 0x5B	; 91
    2604:	09 f0       	breq	.+2      	; 0x2608 <CheckLetter+0x84>
    2606:	d1 2c       	mov	r13, r1

    while (x){
        uint8_t max;
        if (x>32) max = 32; else max = x;
        ExtEERead(object+OFF_STRINGFLDS+2, max, GAME, &data[0]);
        for (uint8_t y=0; y<max; ++y){
    2608:	8f 5f       	subi	r24, 0xFF	; 255
    260a:	80 17       	cp	r24, r16
    260c:	48 f3       	brcs	.-46     	; 0x25e0 <CheckLetter+0x5c>
            if (found){
                if ((data[y]|0x20) == letter) return 1; else return 0;
            }
            if (data[y] == '[') found = 1;
        }
        object += max;
    260e:	e0 0e       	add	r14, r16
    2610:	f1 1c       	adc	r15, r1
        x -= max;
    2612:	10 1b       	sub	r17, r16
    2614:	d3 cf       	rjmp	.-90     	; 0x25bc <CheckLetter+0x38>
    }
    return 0;
    2616:	80 e0       	ldi	r24, 0x00	; 0
}
    2618:	a0 96       	adiw	r28, 0x20	; 32
    261a:	cd bf       	out	0x3d, r28	; 61
    261c:	de bf       	out	0x3e, r29	; 62
    261e:	df 91       	pop	r29
    2620:	cf 91       	pop	r28
    2622:	1f 91       	pop	r17
    2624:	0f 91       	pop	r16
    2626:	ff 90       	pop	r15
    2628:	ef 90       	pop	r14
    262a:	df 90       	pop	r13
    262c:	cf 90       	pop	r12
    262e:	08 95       	ret

00002630 <FindChild>:

//Returns the child's address if the child is visible and the search letter matches
uint16_t FindChild(uint16_t parent, uint8_t letter, uint16_t start){
    2630:	af 92       	push	r10
    2632:	bf 92       	push	r11
    2634:	df 92       	push	r13
    2636:	ef 92       	push	r14
    2638:	ff 92       	push	r15
    263a:	0f 93       	push	r16
    263c:	1f 93       	push	r17
    263e:	cf 93       	push	r28
    2640:	df 93       	push	r29
    2642:	00 d0       	rcall	.+0      	; 0x2644 <FindChild+0x14>
    2644:	00 d0       	rcall	.+0      	; 0x2646 <FindChild+0x16>
    2646:	cd b7       	in	r28, 0x3d	; 61
    2648:	de b7       	in	r29, 0x3e	; 62
    264a:	d6 2e       	mov	r13, r22
    264c:	5a 01       	movw	r10, r20
    
    uint16_t child = parent;
    uint8_t data[4];

    ExtEERead(child+L_BOILER, 4, GAME, &data[0]);
    264e:	9e 01       	movw	r18, r28
    2650:	2f 5f       	subi	r18, 0xFF	; 255
    2652:	3f 4f       	sbci	r19, 0xFF	; 255
    2654:	40 e0       	ldi	r20, 0x00	; 0
    2656:	64 e0       	ldi	r22, 0x04	; 4
    2658:	80 96       	adiw	r24, 0x20	; 32
    265a:	0e 94 86 08 	call	0x110c	; 0x110c <ExtEERead>
    265e:	e9 80       	ldd	r14, Y+1	; 0x01
    2660:	fa 80       	ldd	r15, Y+2	; 0x02
    2662:	fe 24       	eor	r15, r14
    2664:	ef 24       	eor	r14, r15
    2666:	fe 24       	eor	r15, r14
    2668:	0b 81       	ldd	r16, Y+3	; 0x03
    266a:	1c 81       	ldd	r17, Y+4	; 0x04
    266c:	10 27       	eor	r17, r16
    266e:	01 27       	eor	r16, r17
    2670:	10 27       	eor	r17, r16
    parent = (data[0]<<8|data[1]);    //Next object on parent level
    child =  (data[2]<<8|data[3]);    //First object on child level

    //As long as the child is within the parent's range
    while (parent>child){
    2672:	0e 15       	cp	r16, r14
    2674:	1f 05       	cpc	r17, r15
    2676:	48 f5       	brcc	.+82     	; 0x26ca <FindChild+0x9a>

        //If child's address is higher than the start address, perform search for letter
        if (child>start){
    2678:	a0 16       	cp	r10, r16
    267a:	b1 06       	cpc	r11, r17
    267c:	60 f0       	brcs	.+24     	; 0x2696 <FindChild+0x66>
                if ((letter == 0)||(CheckLetter(child, letter))) return child;
            }
        }

        //Not visible or name not right
        ExtEERead(child+L_BOILER, 2, GAME, &data[0]);
    267e:	9e 01       	movw	r18, r28
    2680:	2f 5f       	subi	r18, 0xFF	; 255
    2682:	3f 4f       	sbci	r19, 0xFF	; 255
    2684:	40 e0       	ldi	r20, 0x00	; 0
    2686:	62 e0       	ldi	r22, 0x02	; 2
    2688:	c8 01       	movw	r24, r16
    268a:	80 96       	adiw	r24, 0x20	; 32
    268c:	0e 94 86 08 	call	0x110c	; 0x110c <ExtEERead>
    2690:	09 81       	ldd	r16, Y+1	; 0x01
    2692:	1a 81       	ldd	r17, Y+2	; 0x02
    2694:	eb cf       	rjmp	.-42     	; 0x266c <FindChild+0x3c>
    //As long as the child is within the parent's range
    while (parent>child){

        //If child's address is higher than the start address, perform search for letter
        if (child>start){
            ExtEERead(child+OFF_BYTEFLDS+VISIBLE_ACL+L_BOILER, 1, GAME, &data[0]);
    2696:	9e 01       	movw	r18, r28
    2698:	2f 5f       	subi	r18, 0xFF	; 255
    269a:	3f 4f       	sbci	r19, 0xFF	; 255
    269c:	40 e0       	ldi	r20, 0x00	; 0
    269e:	61 e0       	ldi	r22, 0x01	; 1
    26a0:	c8 01       	movw	r24, r16
    26a2:	85 96       	adiw	r24, 0x25	; 37
    26a4:	0e 94 86 08 	call	0x110c	; 0x110c <ExtEERead>
            if ((data[0] == 0)||(CheckState(data[0]))) {
    26a8:	89 81       	ldd	r24, Y+1	; 0x01
    26aa:	81 11       	cpse	r24, r1
    26ac:	03 c0       	rjmp	.+6      	; 0x26b4 <FindChild+0x84>
                if ((letter == 0)||(CheckLetter(child, letter))) return child;
    26ae:	d1 10       	cpse	r13, r1
    26b0:	06 c0       	rjmp	.+12     	; 0x26be <FindChild+0x8e>
    26b2:	0e c0       	rjmp	.+28     	; 0x26d0 <FindChild+0xa0>
    while (parent>child){

        //If child's address is higher than the start address, perform search for letter
        if (child>start){
            ExtEERead(child+OFF_BYTEFLDS+VISIBLE_ACL+L_BOILER, 1, GAME, &data[0]);
            if ((data[0] == 0)||(CheckState(data[0]))) {
    26b4:	0e 94 54 0a 	call	0x14a8	; 0x14a8 <CheckState>
    26b8:	81 11       	cpse	r24, r1
    26ba:	f9 cf       	rjmp	.-14     	; 0x26ae <FindChild+0x7e>
    26bc:	e0 cf       	rjmp	.-64     	; 0x267e <FindChild+0x4e>
                if ((letter == 0)||(CheckLetter(child, letter))) return child;
    26be:	6d 2d       	mov	r22, r13
    26c0:	c8 01       	movw	r24, r16
    26c2:	60 df       	rcall	.-320    	; 0x2584 <CheckLetter>
    26c4:	88 23       	and	r24, r24
    26c6:	d9 f2       	breq	.-74     	; 0x267e <FindChild+0x4e>
    26c8:	03 c0       	rjmp	.+6      	; 0x26d0 <FindChild+0xa0>

        //Not visible or name not right
        ExtEERead(child+L_BOILER, 2, GAME, &data[0]);
        child = (data[0]<<8|data[1]);    //Next object on child level
        
    } return 0;
    26ca:	80 e0       	ldi	r24, 0x00	; 0
    26cc:	90 e0       	ldi	r25, 0x00	; 0
    26ce:	01 c0       	rjmp	.+2      	; 0x26d2 <FindChild+0xa2>
    26d0:	c8 01       	movw	r24, r16
}
    26d2:	24 96       	adiw	r28, 0x04	; 4
    26d4:	cd bf       	out	0x3d, r28	; 61
    26d6:	de bf       	out	0x3e, r29	; 62
    26d8:	df 91       	pop	r29
    26da:	cf 91       	pop	r28
    26dc:	1f 91       	pop	r17
    26de:	0f 91       	pop	r16
    26e0:	ff 90       	pop	r15
    26e2:	ef 90       	pop	r14
    26e4:	df 90       	pop	r13
    26e6:	bf 90       	pop	r11
    26e8:	af 90       	pop	r10
    26ea:	08 95       	ret

000026ec <InpOkChk>:

//Allow only a(A) to z(Z) and 0 to 9 as input
uint8_t InpOkChk(uint8_t test){
    test |= 0x20;
    26ec:	80 62       	ori	r24, 0x20	; 32
    if ((test>='a')&&(test<='z')) return 1;
    26ee:	9f e9       	ldi	r25, 0x9F	; 159
    26f0:	98 0f       	add	r25, r24
    26f2:	9a 31       	cpi	r25, 0x1A	; 26
    26f4:	38 f0       	brcs	.+14     	; 0x2704 <InpOkChk+0x18>
    26f6:	90 ed       	ldi	r25, 0xD0	; 208
    26f8:	98 0f       	add	r25, r24
    26fa:	81 e0       	ldi	r24, 0x01	; 1
    26fc:	9a 30       	cpi	r25, 0x0A	; 10
    26fe:	18 f0       	brcs	.+6      	; 0x2706 <InpOkChk+0x1a>
    2700:	80 e0       	ldi	r24, 0x00	; 0
    2702:	08 95       	ret
    2704:	81 e0       	ldi	r24, 0x01	; 1
    if ((test>='0')&&(test<='9')) return 1;
    return 0;
}
    2706:	08 95       	ret

00002708 <CleanInput>:

//Cleans input of garbage and returns length of cleaned input "o->d2  !\0" becomes "od2\0"
uint8_t CleanInput(uint8_t *data){
    2708:	0f 93       	push	r16
    270a:	1f 93       	push	r17
    270c:	cf 93       	push	r28
    270e:	df 93       	push	r29
    2710:	8c 01       	movw	r16, r24
    uint8_t cnt = 0;
    for (uint8_t x=0; data[x]!=0; ++x){
    2712:	d0 e0       	ldi	r29, 0x00	; 0
    return 0;
}

//Cleans input of garbage and returns length of cleaned input "o->d2  !\0" becomes "od2\0"
uint8_t CleanInput(uint8_t *data){
    uint8_t cnt = 0;
    2714:	c0 e0       	ldi	r28, 0x00	; 0
    for (uint8_t x=0; data[x]!=0; ++x){
    2716:	f8 01       	movw	r30, r16
    2718:	ed 0f       	add	r30, r29
    271a:	f1 1d       	adc	r31, r1
    271c:	20 81       	ld	r18, Z
    271e:	8c 2f       	mov	r24, r28
    2720:	90 e0       	ldi	r25, 0x00	; 0
    2722:	22 23       	and	r18, r18
    2724:	51 f0       	breq	.+20     	; 0x273a <CleanInput+0x32>
        data[cnt] = data[x];
    2726:	d8 01       	movw	r26, r16
    2728:	a8 0f       	add	r26, r24
    272a:	b9 1f       	adc	r27, r25
    272c:	2c 93       	st	X, r18
        if (InpOkChk(data[x])) ++cnt;
    272e:	80 81       	ld	r24, Z
    2730:	dd df       	rcall	.-70     	; 0x26ec <InpOkChk>
    2732:	81 11       	cpse	r24, r1
    2734:	cf 5f       	subi	r28, 0xFF	; 255
}

//Cleans input of garbage and returns length of cleaned input "o->d2  !\0" becomes "od2\0"
uint8_t CleanInput(uint8_t *data){
    uint8_t cnt = 0;
    for (uint8_t x=0; data[x]!=0; ++x){
    2736:	df 5f       	subi	r29, 0xFF	; 255
    2738:	ee cf       	rjmp	.-36     	; 0x2716 <CleanInput+0xe>
        data[cnt] = data[x];
        if (InpOkChk(data[x])) ++cnt;
    }
    data[cnt] = 0;
    273a:	f8 01       	movw	r30, r16
    273c:	e8 0f       	add	r30, r24
    273e:	f9 1f       	adc	r31, r25
    2740:	10 82       	st	Z, r1
    return cnt;
}
    2742:	8c 2f       	mov	r24, r28
    2744:	df 91       	pop	r29
    2746:	cf 91       	pop	r28
    2748:	1f 91       	pop	r17
    274a:	0f 91       	pop	r16
    274c:	08 95       	ret

0000274e <CheckSend>:

//Send routine, optimized for low memory usage
uint8_t CheckSend(){
    274e:	cf 93       	push	r28
    static uint8_t txPart;
    uint8_t EEreadLength=0;

    //Play effects if available and not already playing
    if (effect == 0){
    2750:	80 91 3a 38 	lds	r24, 0x383A	; 0x80383a <effect>
    2754:	90 91 3b 38 	lds	r25, 0x383B	; 0x80383b <effect+0x1>
    2758:	89 2b       	or	r24, r25
    275a:	39 f4       	brne	.+14     	; 0x276a <CheckSend+0x1c>
        effect = currObj.byteField[EFFECTS];
    275c:	80 91 1f 3a 	lds	r24, 0x3A1F	; 0x803a1f <currObj+0x4>
    2760:	90 e0       	ldi	r25, 0x00	; 0
    2762:	80 93 3a 38 	sts	0x383A, r24	; 0x80383a <effect>
    2766:	90 93 3b 38 	sts	0x383B, r25	; 0x80383b <effect+0x1>
    }

    //Check if more string(part)s have to be sent to the serial output if previous send operation is completed
    if ((txAddrNow < TXLISTLEN) && serTxDone){
    276a:	20 91 47 3a 	lds	r18, 0x3A47	; 0x803a47 <txAddrNow>
    276e:	28 30       	cpi	r18, 0x08	; 8
    2770:	08 f0       	brcs	.+2      	; 0x2774 <CheckSend+0x26>
    2772:	49 c0       	rjmp	.+146    	; 0x2806 <CheckSend+0xb8>
    2774:	80 91 09 38 	lds	r24, 0x3809	; 0x803809 <serTxDone>
    2778:	88 23       	and	r24, r24
    277a:	09 f4       	brne	.+2      	; 0x277e <CheckSend+0x30>
    277c:	44 c0       	rjmp	.+136    	; 0x2806 <CheckSend+0xb8>
        if (txStrLen[txAddrNow] == 0){
    277e:	82 2f       	mov	r24, r18
    2780:	90 e0       	ldi	r25, 0x00	; 0
    2782:	fc 01       	movw	r30, r24
    2784:	e8 5b       	subi	r30, 0xB8	; 184
    2786:	f5 4c       	sbci	r31, 0xC5	; 197
    2788:	e0 81       	ld	r30, Z
    278a:	e1 11       	cpse	r30, r1
    278c:	06 c0       	rjmp	.+12     	; 0x279a <CheckSend+0x4c>
            txPart = 0;
    278e:	10 92 06 39 	sts	0x3906, r1	; 0x803906 <txPart.3936>
            txAddrNow = TXLISTLEN;
    2792:	88 e0       	ldi	r24, 0x08	; 8
    2794:	80 93 47 3a 	sts	0x3A47, r24	; 0x803a47 <txAddrNow>
    2798:	2e c0       	rjmp	.+92     	; 0x27f6 <CheckSend+0xa8>
        } else if (txPart < txStrLen[txAddrNow]){
    279a:	50 91 06 39 	lds	r21, 0x3906	; 0x803906 <txPart.3936>
    279e:	5e 17       	cp	r21, r30
    27a0:	60 f5       	brcc	.+88     	; 0x27fa <CheckSend+0xac>
            EEreadLength = txStrLen[txAddrNow]-txPart;
    27a2:	ce 2f       	mov	r28, r30
    27a4:	c5 1b       	sub	r28, r21
    27a6:	c1 32       	cpi	r28, 0x21	; 33
    27a8:	08 f0       	brcs	.+2      	; 0x27ac <CheckSend+0x5e>
    27aa:	c0 e2       	ldi	r28, 0x20	; 32
            if (EEreadLength>=TXLEN) EEreadLength = TXLEN-1;
            ExtEERead(txAddrList[txAddrNow]+txPart, EEreadLength, txTypeNow, &txBuffer[0]);
    27ac:	88 0f       	add	r24, r24
    27ae:	99 1f       	adc	r25, r25
    27b0:	fc 01       	movw	r30, r24
    27b2:	e0 5b       	subi	r30, 0xB0	; 176
    27b4:	f5 4c       	sbci	r31, 0xC5	; 197
    27b6:	80 81       	ld	r24, Z
    27b8:	91 81       	ldd	r25, Z+1	; 0x01
    27ba:	21 ef       	ldi	r18, 0xF1	; 241
    27bc:	3a e3       	ldi	r19, 0x3A	; 58
    27be:	40 91 46 3a 	lds	r20, 0x3A46	; 0x803a46 <txTypeNow>
    27c2:	6c 2f       	mov	r22, r28
    27c4:	85 0f       	add	r24, r21
    27c6:	91 1d       	adc	r25, r1
    27c8:	0e 94 86 08 	call	0x110c	; 0x110c <ExtEERead>
            txPart += EEreadLength;
    27cc:	80 91 06 39 	lds	r24, 0x3906	; 0x803906 <txPart.3936>
    27d0:	8c 0f       	add	r24, r28
    27d2:	80 93 06 39 	sts	0x3906, r24	; 0x803906 <txPart.3936>
            txBuffer[EEreadLength] = 0; //Add string terminator after piece to send to plug memory leak
    27d6:	ec 2f       	mov	r30, r28
    27d8:	f0 e0       	ldi	r31, 0x00	; 0
    27da:	ef 50       	subi	r30, 0x0F	; 15
    27dc:	f5 4c       	sbci	r31, 0xC5	; 197
    27de:	10 82       	st	Z, r1
            if ((txBuffer[0] == 0) && (EEreadLength)) txBuffer[0] = 0xDB; //Block character when data wrong.
    27e0:	80 91 f1 3a 	lds	r24, 0x3AF1	; 0x803af1 <txBuffer>
    27e4:	81 11       	cpse	r24, r1
    27e6:	03 c0       	rjmp	.+6      	; 0x27ee <CheckSend+0xa0>
    27e8:	8b ed       	ldi	r24, 0xDB	; 219
    27ea:	80 93 f1 3a 	sts	0x3AF1, r24	; 0x803af1 <txBuffer>
            SerSend(&txBuffer[0]);
    27ee:	81 ef       	ldi	r24, 0xF1	; 241
    27f0:	9a e3       	ldi	r25, 0x3A	; 58
    27f2:	0e 94 b8 08 	call	0x1170	; 0x1170 <SerSend>
        } else {
            txPart = 0;
            ++txAddrNow;
        }
    } else if (serTxDone) return 0; //All is sent!
    return 1; //Still sending, do not change the data in the tx variables
    27f6:	81 e0       	ldi	r24, 0x01	; 1
    27f8:	0b c0       	rjmp	.+22     	; 0x2810 <CheckSend+0xc2>
            txPart += EEreadLength;
            txBuffer[EEreadLength] = 0; //Add string terminator after piece to send to plug memory leak
            if ((txBuffer[0] == 0) && (EEreadLength)) txBuffer[0] = 0xDB; //Block character when data wrong.
            SerSend(&txBuffer[0]);
        } else {
            txPart = 0;
    27fa:	10 92 06 39 	sts	0x3906, r1	; 0x803906 <txPart.3936>
            ++txAddrNow;
    27fe:	2f 5f       	subi	r18, 0xFF	; 255
    2800:	20 93 47 3a 	sts	0x3A47, r18	; 0x803a47 <txAddrNow>
    2804:	f8 cf       	rjmp	.-16     	; 0x27f6 <CheckSend+0xa8>
        }
    } else if (serTxDone) return 0; //All is sent!
    2806:	90 91 09 38 	lds	r25, 0x3809	; 0x803809 <serTxDone>
    280a:	81 e0       	ldi	r24, 0x01	; 1
    280c:	91 11       	cpse	r25, r1
    280e:	80 e0       	ldi	r24, 0x00	; 0
    return 1; //Still sending, do not change the data in the tx variables
}
    2810:	cf 91       	pop	r28
    2812:	08 95       	ret

00002814 <CheckResponse>:

//Send another part of the response and play the effect afterwards
uint8_t CheckResponse(){
    2814:	cf 93       	push	r28
    2816:	df 93       	push	r29
    static uint8_t number = 0;
    if (responseList){
    2818:	c0 91 1a 39 	lds	r28, 0x391A	; 0x80391a <responseList>
    281c:	cc 23       	and	r28, r28
    281e:	b1 f1       	breq	.+108    	; 0x288c <CheckResponse+0x78>
        --responseList;
    2820:	c1 50       	subi	r28, 0x01	; 1
    2822:	c0 93 1a 39 	sts	0x391A, r28	; 0x80391a <responseList>
        if (reactStr[0][number] == CURR_LOC) {
    2826:	d0 91 05 39 	lds	r29, 0x3905	; 0x803905 <number.3940>
    282a:	2d 2f       	mov	r18, r29
    282c:	30 e0       	ldi	r19, 0x00	; 0
    282e:	f9 01       	movw	r30, r18
    2830:	ee 0f       	add	r30, r30
    2832:	ff 1f       	adc	r31, r31
    2834:	e5 5e       	subi	r30, 0xE5	; 229
    2836:	f6 4c       	sbci	r31, 0xC6	; 198
    2838:	80 81       	ld	r24, Z
    283a:	91 81       	ldd	r25, Z+1	; 0x01
    283c:	80 3f       	cpi	r24, 0xF0	; 240
    283e:	4f ef       	ldi	r20, 0xFF	; 255
    2840:	94 07       	cpc	r25, r20
    2842:	51 f4       	brne	.+20     	; 0x2858 <CheckResponse+0x44>
            PrepareSending(currObj.addrStr[NAME], currObj.lenStr[NAME], GAME);
    2844:	60 91 35 3a 	lds	r22, 0x3A35	; 0x803a35 <currObj+0x1a>
    2848:	70 91 36 3a 	lds	r23, 0x3A36	; 0x803a36 <currObj+0x1b>
    284c:	40 e0       	ldi	r20, 0x00	; 0
    284e:	80 91 27 3a 	lds	r24, 0x3A27	; 0x803a27 <currObj+0xc>
    2852:	90 91 28 3a 	lds	r25, 0x3A28	; 0x803a28 <currObj+0xd>
    2856:	0d c0       	rjmp	.+26     	; 0x2872 <CheckResponse+0x5e>
        } else {
            PrepareSending(reactStr[0][number], reactStr[1][number], reactStr[2][number]);
    2858:	d9 01       	movw	r26, r18
    285a:	aa 0f       	add	r26, r26
    285c:	bb 1f       	adc	r27, r27
    285e:	a5 56       	subi	r26, 0x65	; 101
    2860:	b6 4c       	sbci	r27, 0xC6	; 198
    2862:	22 0f       	add	r18, r18
    2864:	33 1f       	adc	r19, r19
    2866:	f9 01       	movw	r30, r18
    2868:	e5 5a       	subi	r30, 0xA5	; 165
    286a:	f6 4c       	sbci	r31, 0xC6	; 198
    286c:	60 81       	ld	r22, Z
    286e:	71 81       	ldd	r23, Z+1	; 0x01
    2870:	4c 91       	ld	r20, X
    2872:	56 dd       	rcall	.-1364   	; 0x2320 <PrepareSending>
        }
        number++;
    2874:	df 5f       	subi	r29, 0xFF	; 255
    2876:	d0 93 05 39 	sts	0x3905, r29	; 0x803905 <number.3940>

        if (responseList == 0) {
    287a:	c1 11       	cpse	r28, r1
    287c:	06 c0       	rjmp	.+12     	; 0x288a <CheckResponse+0x76>
            //effect = currObj.byteField[EFFECTS];
            RXCNT = 0;
    287e:	1d ba       	out	0x1d, r1	; 29
            serRxDone = 0;
    2880:	10 92 44 38 	sts	0x3844, r1	; 0x803844 <serRxDone>
            number = 0;
    2884:	10 92 05 39 	sts	0x3905, r1	; 0x803905 <number.3940>
    2888:	01 c0       	rjmp	.+2      	; 0x288c <CheckResponse+0x78>
            return 0;
        }
        return 1;
    288a:	c1 e0       	ldi	r28, 0x01	; 1
    }
    return 0;
}
    288c:	8c 2f       	mov	r24, r28
    288e:	df 91       	pop	r29
    2890:	cf 91       	pop	r28
    2892:	08 95       	ret

00002894 <CheckInput>:

//User input check (and validation)
uint8_t CheckInput(uint8_t *data){
    2894:	3f 92       	push	r3
    2896:	4f 92       	push	r4
    2898:	5f 92       	push	r5
    289a:	6f 92       	push	r6
    289c:	7f 92       	push	r7
    289e:	8f 92       	push	r8
    28a0:	9f 92       	push	r9
    28a2:	af 92       	push	r10
    28a4:	bf 92       	push	r11
    28a6:	cf 92       	push	r12
    28a8:	df 92       	push	r13
    28aa:	ef 92       	push	r14
    28ac:	ff 92       	push	r15
    28ae:	0f 93       	push	r16
    28b0:	1f 93       	push	r17
    28b2:	cf 93       	push	r28
    28b4:	df 93       	push	r29
    28b6:	cd b7       	in	r28, 0x3d	; 61
    28b8:	de b7       	in	r29, 0x3e	; 62
    28ba:	2a 97       	sbiw	r28, 0x0a	; 10
    28bc:	cd bf       	out	0x3d, r28	; 61
    28be:	de bf       	out	0x3e, r29	; 62
    28c0:	8c 01       	movw	r16, r24
    
    //Load game data after reboot
    if (currDepth == 0xff) {
    28c2:	80 91 2e 38 	lds	r24, 0x382E	; 0x80382e <currDepth>
    28c6:	8f 3f       	cpi	r24, 0xFF	; 255
    28c8:	49 f4       	brne	.+18     	; 0x28dc <CheckInput+0x48>
        //Start at first location
        PopulateObject(route[0], &currObj);
    28ca:	6b e1       	ldi	r22, 0x1B	; 27
    28cc:	7a e3       	ldi	r23, 0x3A	; 58
    28ce:	80 91 db 39 	lds	r24, 0x39DB	; 0x8039db <route>
    28d2:	90 91 dc 39 	lds	r25, 0x39DC	; 0x8039dc <route+0x1>
    28d6:	dd dd       	rcall	.-1094   	; 0x2492 <PopulateObject>
        currDepth = 0;
    28d8:	10 92 2e 38 	sts	0x382E, r1	; 0x80382e <currDepth>
    }

    if (serRxDone){
    28dc:	80 91 44 38 	lds	r24, 0x3844	; 0x803844 <serRxDone>
    28e0:	88 23       	and	r24, r24
    28e2:	09 f4       	brne	.+2      	; 0x28e6 <CheckInput+0x52>
    28e4:	14 c2       	rjmp	.+1064   	; 0x2d0e <CheckInput+0x47a>

        //Special input requested from user by game
        if (specialInput[0]){
    28e6:	80 91 0a 39 	lds	r24, 0x390A	; 0x80390a <specialInput>
    28ea:	88 23       	and	r24, r24
    28ec:	09 f4       	brne	.+2      	; 0x28f0 <CheckInput+0x5c>
    28ee:	4f c0       	rjmp	.+158    	; 0x298e <CheckInput+0xfa>
            specialPassed = 0;
    28f0:	10 92 09 39 	sts	0x3909, r1	; 0x803909 <specialPassed>
            data[0] = 'a';
    28f4:	81 e6       	ldi	r24, 0x61	; 97
    28f6:	f8 01       	movw	r30, r16
    28f8:	80 83       	st	Z, r24
            
            //Normal code challenge
            if (StartsWith((uint8_t *)&serRx[0], &specialInput[0])) {
    28fa:	6a e0       	ldi	r22, 0x0A	; 10
    28fc:	79 e3       	ldi	r23, 0x39	; 57
    28fe:	85 e7       	ldi	r24, 0x75	; 117
    2900:	9a e3       	ldi	r25, 0x3A	; 58
    2902:	f4 dc       	rcall	.-1560   	; 0x22ec <StartsWith>
    2904:	f8 2e       	mov	r15, r24
    2906:	88 23       	and	r24, r24
    2908:	21 f0       	breq	.+8      	; 0x2912 <CheckInput+0x7e>
                specialPassed = 1;
    290a:	81 e0       	ldi	r24, 0x01	; 1
    290c:	80 93 09 39 	sts	0x3909, r24	; 0x803909 <specialPassed>
    2910:	04 c0       	rjmp	.+8      	; 0x291a <CheckInput+0x86>

            //Special challenge 1
            } else if ((specialInput[0] == '1')&&(specialInput[2] == 0)) {
    2912:	80 91 0a 39 	lds	r24, 0x390A	; 0x80390a <specialInput>
    2916:	81 33       	cpi	r24, 0x31	; 49
    2918:	11 f0       	breq	.+4      	; 0x291e <CheckInput+0x8a>
                responseList = 32;
                return 1;
            }
        } 
        //Data received, but not any of the commands above
        return 0;
    291a:	f1 2c       	mov	r15, r1
    291c:	fa c1       	rjmp	.+1012   	; 0x2d12 <CheckInput+0x47e>
            //Normal code challenge
            if (StartsWith((uint8_t *)&serRx[0], &specialInput[0])) {
                specialPassed = 1;

            //Special challenge 1
            } else if ((specialInput[0] == '1')&&(specialInput[2] == 0)) {
    291e:	80 91 0c 39 	lds	r24, 0x390C	; 0x80390c <specialInput+0x2>
    2922:	81 11       	cpse	r24, r1
    2924:	fa cf       	rjmp	.-12     	; 0x291a <CheckInput+0x86>
                uint8_t inputLen = CleanInput((uint8_t *)&serRx[0]);
    2926:	85 e7       	ldi	r24, 0x75	; 117
    2928:	9a e3       	ldi	r25, 0x3A	; 58
    292a:	ee de       	rcall	.-548    	; 0x2708 <CleanInput>
                specialPassed = 2;
    292c:	92 e0       	ldi	r25, 0x02	; 2
    292e:	90 93 09 39 	sts	0x3909, r25	; 0x803909 <specialPassed>
                data[1] = 0;
    2932:	f8 01       	movw	r30, r16
    2934:	11 82       	std	Z+1, r1	; 0x01

                if (inputLen >= 2) {
    2936:	82 30       	cpi	r24, 0x02	; 2
    2938:	80 f3       	brcs	.-32     	; 0x291a <CheckInput+0x86>
                    if ((serRx[0] >= '1') && (serRx[0] <= '4')) {
    293a:	80 91 75 3a 	lds	r24, 0x3A75	; 0x803a75 <serRx>
    293e:	81 33       	cpi	r24, 0x31	; 49
    2940:	60 f3       	brcs	.-40     	; 0x291a <CheckInput+0x86>
    2942:	80 91 75 3a 	lds	r24, 0x3A75	; 0x803a75 <serRx>
    2946:	85 33       	cpi	r24, 0x35	; 53
    2948:	40 f7       	brcc	.-48     	; 0x291a <CheckInput+0x86>
                        serRx[1] |= 0x20;
    294a:	80 91 76 3a 	lds	r24, 0x3A76	; 0x803a76 <serRx+0x1>
    294e:	80 62       	ori	r24, 0x20	; 32
    2950:	80 93 76 3a 	sts	0x3A76, r24	; 0x803a76 <serRx+0x1>
                        if ((serRx[1] == 'a')||(serRx[1] == 'e')||(serRx[1] == 'f')||(serRx[1] == 'w')) {
    2954:	80 91 76 3a 	lds	r24, 0x3A76	; 0x803a76 <serRx+0x1>
    2958:	81 36       	cpi	r24, 0x61	; 97
    295a:	61 f0       	breq	.+24     	; 0x2974 <CheckInput+0xe0>
    295c:	80 91 76 3a 	lds	r24, 0x3A76	; 0x803a76 <serRx+0x1>
    2960:	85 36       	cpi	r24, 0x65	; 101
    2962:	41 f0       	breq	.+16     	; 0x2974 <CheckInput+0xe0>
    2964:	80 91 76 3a 	lds	r24, 0x3A76	; 0x803a76 <serRx+0x1>
    2968:	86 36       	cpi	r24, 0x66	; 102
    296a:	21 f0       	breq	.+8      	; 0x2974 <CheckInput+0xe0>
    296c:	80 91 76 3a 	lds	r24, 0x3A76	; 0x803a76 <serRx+0x1>
    2970:	87 37       	cpi	r24, 0x77	; 119
    2972:	99 f6       	brne	.-90     	; 0x291a <CheckInput+0x86>
                            data[1] = specialInput[1]+0x11;
    2974:	80 91 0b 39 	lds	r24, 0x390B	; 0x80390b <specialInput+0x1>
    2978:	8f 5e       	subi	r24, 0xEF	; 239
    297a:	f8 01       	movw	r30, r16
    297c:	81 83       	std	Z+1, r24	; 0x01
                            data[2] = serRx[0];
    297e:	80 91 75 3a 	lds	r24, 0x3A75	; 0x803a75 <serRx>
    2982:	82 83       	std	Z+2, r24	; 0x02
                            data[3] = serRx[1];
    2984:	80 91 76 3a 	lds	r24, 0x3A76	; 0x803a76 <serRx+0x1>
    2988:	83 83       	std	Z+3, r24	; 0x03
                            data[4] = 0;
    298a:	14 82       	std	Z+4, r1	; 0x04
    298c:	c2 c1       	rjmp	.+900    	; 0x2d12 <CheckInput+0x47e>
        } else {
      
            //SetResponse(0, A_LF, 4, TEASER);

            //Change status bit
            if ((serRx[0] == '#')&&(RXCNT == 6)){
    298e:	80 91 75 3a 	lds	r24, 0x3A75	; 0x803a75 <serRx>
    2992:	83 32       	cpi	r24, 0x23	; 35
    2994:	89 f5       	brne	.+98     	; 0x29f8 <CheckInput+0x164>
    2996:	8d b3       	in	r24, 0x1d	; 29
    2998:	86 30       	cpi	r24, 0x06	; 6
    299a:	71 f5       	brne	.+92     	; 0x29f8 <CheckInput+0x164>
    299c:	81 e0       	ldi	r24, 0x01	; 1
    299e:	90 e0       	ldi	r25, 0x00	; 0
    29a0:	10 e0       	ldi	r17, 0x00	; 0
                uint8_t bitNr = 0;

                for (uint8_t x=1; x<4; ++x) {
                    serRx[x] -= '0';
    29a2:	fc 01       	movw	r30, r24
    29a4:	eb 58       	subi	r30, 0x8B	; 139
    29a6:	f5 4c       	sbci	r31, 0xC5	; 197
    29a8:	20 81       	ld	r18, Z
    29aa:	20 53       	subi	r18, 0x30	; 48
    29ac:	20 83       	st	Z, r18
                    bitNr *= 10;
    29ae:	11 0f       	add	r17, r17
    29b0:	21 2f       	mov	r18, r17
    29b2:	22 0f       	add	r18, r18
    29b4:	22 0f       	add	r18, r18
    29b6:	12 0f       	add	r17, r18
                    if (serRx[1] > 2) break;
    29b8:	20 91 76 3a 	lds	r18, 0x3A76	; 0x803a76 <serRx+0x1>
    29bc:	23 30       	cpi	r18, 0x03	; 3
    29be:	48 f4       	brcc	.+18     	; 0x29d2 <CheckInput+0x13e>
                    if (serRx[x] < 10) {
    29c0:	20 81       	ld	r18, Z
    29c2:	2a 30       	cpi	r18, 0x0A	; 10
    29c4:	b8 f4       	brcc	.+46     	; 0x29f4 <CheckInput+0x160>
                        bitNr += serRx[x];
    29c6:	20 81       	ld	r18, Z
    29c8:	12 0f       	add	r17, r18
    29ca:	01 96       	adiw	r24, 0x01	; 1

            //Change status bit
            if ((serRx[0] == '#')&&(RXCNT == 6)){
                uint8_t bitNr = 0;

                for (uint8_t x=1; x<4; ++x) {
    29cc:	84 30       	cpi	r24, 0x04	; 4
    29ce:	91 05       	cpc	r25, r1
    29d0:	41 f7       	brne	.-48     	; 0x29a2 <CheckInput+0x10e>
                        continue;
                    }
                    bitNr = 0;
                    break;
                }
                if ((bitNr)&&(bitNr!=128)) {
    29d2:	81 2f       	mov	r24, r17
    29d4:	8f 77       	andi	r24, 0x7F	; 127
    29d6:	71 f0       	breq	.+28     	; 0x29f4 <CheckInput+0x160>
                    if (Cheat(0xff-bitNr, serRx[4]<<8|serRx[5])) UpdateState(bitNr);
    29d8:	80 91 79 3a 	lds	r24, 0x3A79	; 0x803a79 <serRx+0x4>
    29dc:	60 91 7a 3a 	lds	r22, 0x3A7A	; 0x803a7a <serRx+0x5>
    29e0:	70 e0       	ldi	r23, 0x00	; 0
    29e2:	78 2b       	or	r23, r24
    29e4:	81 2f       	mov	r24, r17
    29e6:	80 95       	com	r24
    29e8:	2c dc       	rcall	.-1960   	; 0x2242 <Cheat>
    29ea:	88 23       	and	r24, r24
    29ec:	19 f0       	breq	.+6      	; 0x29f4 <CheckInput+0x160>
    29ee:	81 2f       	mov	r24, r17
    29f0:	0e 94 4a 0a 	call	0x1494	; 0x1494 <UpdateState>
                }
                
                responseList = SetStandardResponse(1);
    29f4:	81 e0       	ldi	r24, 0x01	; 1
    29f6:	40 c0       	rjmp	.+128    	; 0x2a78 <CheckInput+0x1e4>
    29f8:	d8 01       	movw	r26, r16
    29fa:	80 e0       	ldi	r24, 0x00	; 0
    29fc:	90 e0       	ldi	r25, 0x00	; 0
                return 1;            
            }
            
            //Read up to the \0 character and convert to lower case.
            for (uint8_t x=0; x<RXLEN; ++x){
                if ((serRx[x]<'A')||(serRx[x]>'Z')) data[x]=serRx[x]; else data[x]=serRx[x]|0x20;
    29fe:	fc 01       	movw	r30, r24
    2a00:	eb 58       	subi	r30, 0x8B	; 139
    2a02:	f5 4c       	sbci	r31, 0xC5	; 197
    2a04:	20 81       	ld	r18, Z
    2a06:	21 34       	cpi	r18, 0x41	; 65
    2a08:	18 f0       	brcs	.+6      	; 0x2a10 <CheckInput+0x17c>
    2a0a:	20 81       	ld	r18, Z
    2a0c:	2b 35       	cpi	r18, 0x5B	; 91
    2a0e:	10 f0       	brcs	.+4      	; 0x2a14 <CheckInput+0x180>
    2a10:	20 81       	ld	r18, Z
    2a12:	02 c0       	rjmp	.+4      	; 0x2a18 <CheckInput+0x184>
    2a14:	20 81       	ld	r18, Z
    2a16:	20 62       	ori	r18, 0x20	; 32
    2a18:	2c 93       	st	X, r18
                if (serRx[x] == 0) {
    2a1a:	20 81       	ld	r18, Z
    2a1c:	21 11       	cpse	r18, r1
    2a1e:	05 c0       	rjmp	.+10     	; 0x2a2a <CheckInput+0x196>
                    data[x] = 0;
    2a20:	f8 01       	movw	r30, r16
    2a22:	e8 0f       	add	r30, r24
    2a24:	f1 1d       	adc	r31, r1
    2a26:	10 82       	st	Z, r1
                    break;
    2a28:	05 c0       	rjmp	.+10     	; 0x2a34 <CheckInput+0x1a0>
    2a2a:	01 96       	adiw	r24, 0x01	; 1
    2a2c:	11 96       	adiw	r26, 0x01	; 1
                
                return 1;            
            }
            
            //Read up to the \0 character and convert to lower case.
            for (uint8_t x=0; x<RXLEN; ++x){
    2a2e:	81 34       	cpi	r24, 0x41	; 65
    2a30:	91 05       	cpc	r25, r1
    2a32:	29 f7       	brne	.-54     	; 0x29fe <CheckInput+0x16a>
                    break;
                }
            }

            //No text
            if (serRx[0] == 0){
    2a34:	80 91 75 3a 	lds	r24, 0x3A75	; 0x803a75 <serRx>
                data[0] = 0;
    2a38:	f8 01       	movw	r30, r16
                    break;
                }
            }

            //No text
            if (serRx[0] == 0){
    2a3a:	81 11       	cpse	r24, r1
    2a3c:	05 c0       	rjmp	.+10     	; 0x2a48 <CheckInput+0x1b4>
                data[0] = 0;
    2a3e:	10 82       	st	Z, r1
                RXCNT = 0;
    2a40:	1d ba       	out	0x1d, r1	; 29
                serRxDone = 0;
    2a42:	10 92 44 38 	sts	0x3844, r1	; 0x803844 <serRxDone>
    2a46:	63 c1       	rjmp	.+710    	; 0x2d0e <CheckInput+0x47a>
                return 1;
            }

            //Help text
            if ((data[0] == '?')||(data[0] == 'h')){
    2a48:	80 81       	ld	r24, Z
    2a4a:	8f 33       	cpi	r24, 0x3F	; 63
    2a4c:	11 f0       	breq	.+4      	; 0x2a52 <CheckInput+0x1be>
    2a4e:	88 36       	cpi	r24, 0x68	; 104
    2a50:	b9 f4       	brne	.+46     	; 0x2a80 <CheckInput+0x1ec>
    return 0;
}

//
void SetResponse(uint8_t number, uint16_t address, uint16_t length, uint8_t type){
    reactStr[0][number]=address;
    2a52:	83 e9       	ldi	r24, 0x93	; 147
    2a54:	9b e7       	ldi	r25, 0x7B	; 123
    2a56:	80 93 1d 39 	sts	0x391D, r24	; 0x80391d <reactStr+0x2>
    2a5a:	90 93 1e 39 	sts	0x391E, r25	; 0x80391e <reactStr+0x3>
    reactStr[1][number]=length;
    2a5e:	8d e6       	ldi	r24, 0x6D	; 109
    2a60:	94 e0       	ldi	r25, 0x04	; 4
    2a62:	80 93 5d 39 	sts	0x395D, r24	; 0x80395d <reactStr+0x42>
    2a66:	90 93 5e 39 	sts	0x395E, r25	; 0x80395e <reactStr+0x43>
    reactStr[2][number]=type;
    2a6a:	81 e0       	ldi	r24, 0x01	; 1
    2a6c:	90 e0       	ldi	r25, 0x00	; 0
    2a6e:	80 93 9d 39 	sts	0x399D, r24	; 0x80399d <reactStr+0x82>
    2a72:	90 93 9e 39 	sts	0x399E, r25	; 0x80399e <reactStr+0x83>
            }

            //Help text
            if ((data[0] == '?')||(data[0] == 'h')){
                SetResponse(1, A_HELP, L_HELP, TEASER);
                responseList = SetStandardResponse(2);
    2a76:	82 e0       	ldi	r24, 0x02	; 2
    2a78:	90 dc       	rcall	.-1760   	; 0x239a <SetStandardResponse>
    2a7a:	80 93 1a 39 	sts	0x391A, r24	; 0x80391a <responseList>
    2a7e:	47 c1       	rjmp	.+654    	; 0x2d0e <CheckInput+0x47a>
                return 1;
            }        
        
            //Alphabet text
            if (data[0] == 'a'){
    2a80:	81 36       	cpi	r24, 0x61	; 97
    2a82:	49 f4       	brne	.+18     	; 0x2a96 <CheckInput+0x202>
    return 0;
}

//
void SetResponse(uint8_t number, uint16_t address, uint16_t length, uint8_t type){
    reactStr[0][number]=address;
    2a84:	8e e6       	ldi	r24, 0x6E	; 110
    2a86:	9a e7       	ldi	r25, 0x7A	; 122
    2a88:	80 93 1d 39 	sts	0x391D, r24	; 0x80391d <reactStr+0x2>
    2a8c:	90 93 1e 39 	sts	0x391E, r25	; 0x80391e <reactStr+0x3>
    reactStr[1][number]=length;
    2a90:	85 e2       	ldi	r24, 0x25	; 37
    2a92:	91 e0       	ldi	r25, 0x01	; 1
    2a94:	e6 cf       	rjmp	.-52     	; 0x2a62 <CheckInput+0x1ce>
                responseList = SetStandardResponse(2);
                return 1;
            }

            //Whoami text
            if (data[0] == 'w'){
    2a96:	87 37       	cpi	r24, 0x77	; 119
    2a98:	09 f0       	breq	.+2      	; 0x2a9c <CheckInput+0x208>
    2a9a:	5e c0       	rjmp	.+188    	; 0x2b58 <CheckInput+0x2c4>
    return 0;
}

//
void SetResponse(uint8_t number, uint16_t address, uint16_t length, uint8_t type){
    reactStr[0][number]=address;
    2a9c:	8d e8       	ldi	r24, 0x8D	; 141
    2a9e:	96 e7       	ldi	r25, 0x76	; 118
    2aa0:	80 93 1d 39 	sts	0x391D, r24	; 0x80391d <reactStr+0x2>
    2aa4:	90 93 1e 39 	sts	0x391E, r25	; 0x80391e <reactStr+0x3>
    reactStr[1][number]=length;
    2aa8:	82 e1       	ldi	r24, 0x12	; 18
    2aaa:	90 e0       	ldi	r25, 0x00	; 0
    2aac:	80 93 5d 39 	sts	0x395D, r24	; 0x80395d <reactStr+0x42>
    2ab0:	90 93 5e 39 	sts	0x395E, r25	; 0x80395e <reactStr+0x43>
    reactStr[2][number]=type;
    2ab4:	21 e0       	ldi	r18, 0x01	; 1
    2ab6:	30 e0       	ldi	r19, 0x00	; 0
    2ab8:	20 93 9d 39 	sts	0x399D, r18	; 0x80399d <reactStr+0x82>
    2abc:	30 93 9e 39 	sts	0x399E, r19	; 0x80399e <reactStr+0x83>
            }

            //Whoami text
            if (data[0] == 'w'){
                SetResponse(1, A_HELLO, L_HELLO, TEASER);
                if (whoami == 1) {
    2ac0:	80 91 3d 38 	lds	r24, 0x383D	; 0x80383d <whoami>
    2ac4:	81 30       	cpi	r24, 0x01	; 1
    2ac6:	19 f4       	brne	.+6      	; 0x2ace <CheckInput+0x23a>
    return 0;
}

//
void SetResponse(uint8_t number, uint16_t address, uint16_t length, uint8_t type){
    reactStr[0][number]=address;
    2ac8:	87 e8       	ldi	r24, 0x87	; 135
    2aca:	96 e7       	ldi	r25, 0x76	; 118
    2acc:	0f c0       	rjmp	.+30     	; 0x2aec <CheckInput+0x258>
            //Whoami text
            if (data[0] == 'w'){
                SetResponse(1, A_HELLO, L_HELLO, TEASER);
                if (whoami == 1) {
                    SetResponse(2, A_ANUBIS, L_ANUBIS, TEASER);
                } else if (whoami == 2) {
    2ace:	82 30       	cpi	r24, 0x02	; 2
    2ad0:	49 f4       	brne	.+18     	; 0x2ae4 <CheckInput+0x250>
    return 0;
}

//
void SetResponse(uint8_t number, uint16_t address, uint16_t length, uint8_t type){
    reactStr[0][number]=address;
    2ad2:	84 e8       	ldi	r24, 0x84	; 132
    2ad4:	96 e7       	ldi	r25, 0x76	; 118
    2ad6:	80 93 1f 39 	sts	0x391F, r24	; 0x80391f <reactStr+0x4>
    2ada:	90 93 20 39 	sts	0x3920, r25	; 0x803920 <reactStr+0x5>
    reactStr[1][number]=length;
    2ade:	83 e0       	ldi	r24, 0x03	; 3
    2ae0:	90 e0       	ldi	r25, 0x00	; 0
    2ae2:	1e c0       	rjmp	.+60     	; 0x2b20 <CheckInput+0x28c>
                SetResponse(1, A_HELLO, L_HELLO, TEASER);
                if (whoami == 1) {
                    SetResponse(2, A_ANUBIS, L_ANUBIS, TEASER);
                } else if (whoami == 2) {
                    SetResponse(2, A_BES, L_BES, TEASER);
                } else if (whoami == 3) {
    2ae4:	83 30       	cpi	r24, 0x03	; 3
    2ae6:	49 f4       	brne	.+18     	; 0x2afa <CheckInput+0x266>
    return 0;
}

//
void SetResponse(uint8_t number, uint16_t address, uint16_t length, uint8_t type){
    reactStr[0][number]=address;
    2ae8:	8e e7       	ldi	r24, 0x7E	; 126
    2aea:	96 e7       	ldi	r25, 0x76	; 118
    2aec:	80 93 1f 39 	sts	0x391F, r24	; 0x80391f <reactStr+0x4>
    2af0:	90 93 20 39 	sts	0x3920, r25	; 0x803920 <reactStr+0x5>
    reactStr[1][number]=length;
    2af4:	86 e0       	ldi	r24, 0x06	; 6
    2af6:	90 e0       	ldi	r25, 0x00	; 0
    2af8:	13 c0       	rjmp	.+38     	; 0x2b20 <CheckInput+0x28c>
                    SetResponse(2, A_ANUBIS, L_ANUBIS, TEASER);
                } else if (whoami == 2) {
                    SetResponse(2, A_BES, L_BES, TEASER);
                } else if (whoami == 3) {
                    SetResponse(2, A_KHONSU, L_KHONSU, TEASER);
                } else if (whoami == 4) {
    2afa:	84 30       	cpi	r24, 0x04	; 4
    2afc:	49 f4       	brne	.+18     	; 0x2b10 <CheckInput+0x27c>
    return 0;
}

//
void SetResponse(uint8_t number, uint16_t address, uint16_t length, uint8_t type){
    reactStr[0][number]=address;
    2afe:	89 e7       	ldi	r24, 0x79	; 121
    2b00:	96 e7       	ldi	r25, 0x76	; 118
    2b02:	80 93 1f 39 	sts	0x391F, r24	; 0x80391f <reactStr+0x4>
    2b06:	90 93 20 39 	sts	0x3920, r25	; 0x803920 <reactStr+0x5>
    reactStr[1][number]=length;
    2b0a:	85 e0       	ldi	r24, 0x05	; 5
    2b0c:	90 e0       	ldi	r25, 0x00	; 0
    2b0e:	08 c0       	rjmp	.+16     	; 0x2b20 <CheckInput+0x28c>
    return 0;
}

//
void SetResponse(uint8_t number, uint16_t address, uint16_t length, uint8_t type){
    reactStr[0][number]=address;
    2b10:	82 e0       	ldi	r24, 0x02	; 2
    2b12:	96 e7       	ldi	r25, 0x76	; 118
    2b14:	80 93 1f 39 	sts	0x391F, r24	; 0x80391f <reactStr+0x4>
    2b18:	90 93 20 39 	sts	0x3920, r25	; 0x803920 <reactStr+0x5>
    reactStr[1][number]=length;
    2b1c:	82 e4       	ldi	r24, 0x42	; 66
    2b1e:	90 e0       	ldi	r25, 0x00	; 0
    2b20:	80 93 5f 39 	sts	0x395F, r24	; 0x80395f <reactStr+0x44>
    2b24:	90 93 60 39 	sts	0x3960, r25	; 0x803960 <reactStr+0x45>
    reactStr[2][number]=type;
    2b28:	20 93 9f 39 	sts	0x399F, r18	; 0x80399f <reactStr+0x84>
    2b2c:	30 93 a0 39 	sts	0x39A0, r19	; 0x8039a0 <reactStr+0x85>
    return 0;
}

//
void SetResponse(uint8_t number, uint16_t address, uint16_t length, uint8_t type){
    reactStr[0][number]=address;
    2b30:	8f e5       	ldi	r24, 0x5F	; 95
    2b32:	96 e7       	ldi	r25, 0x76	; 118
    2b34:	80 93 21 39 	sts	0x3921, r24	; 0x803921 <reactStr+0x6>
    2b38:	90 93 22 39 	sts	0x3922, r25	; 0x803922 <reactStr+0x7>
    reactStr[1][number]=length;
    2b3c:	8a e1       	ldi	r24, 0x1A	; 26
    2b3e:	90 e0       	ldi	r25, 0x00	; 0
    2b40:	80 93 61 39 	sts	0x3961, r24	; 0x803961 <reactStr+0x46>
    2b44:	90 93 62 39 	sts	0x3962, r25	; 0x803962 <reactStr+0x47>
    reactStr[2][number]=type;
    2b48:	81 e0       	ldi	r24, 0x01	; 1
    2b4a:	90 e0       	ldi	r25, 0x00	; 0
    2b4c:	80 93 a1 39 	sts	0x39A1, r24	; 0x8039a1 <reactStr+0x86>
    2b50:	90 93 a2 39 	sts	0x39A2, r25	; 0x8039a2 <reactStr+0x87>
                    SetResponse(2, A_THOTH, L_THOTH, TEASER);
                } else {
                    SetResponse(2, A_ERROR, L_ERROR, TEASER);
                }
                SetResponse(3, A_PLEASED, L_PLEASED, TEASER);
                responseList = SetStandardResponse(4);
    2b54:	84 e0       	ldi	r24, 0x04	; 4
    2b56:	90 cf       	rjmp	.-224    	; 0x2a78 <CheckInput+0x1e4>
                return 1;
            }

            //Quit text
            if (data[0] == 'q'){
    2b58:	81 37       	cpi	r24, 0x71	; 113
    2b5a:	49 f4       	brne	.+18     	; 0x2b6e <CheckInput+0x2da>
    return 0;
}

//
void SetResponse(uint8_t number, uint16_t address, uint16_t length, uint8_t type){
    reactStr[0][number]=address;
    2b5c:	80 e0       	ldi	r24, 0x00	; 0
    2b5e:	9a e7       	ldi	r25, 0x7A	; 122
    2b60:	80 93 1d 39 	sts	0x391D, r24	; 0x80391d <reactStr+0x2>
    2b64:	90 93 1e 39 	sts	0x391E, r25	; 0x80391e <reactStr+0x3>
    reactStr[1][number]=length;
    2b68:	85 e5       	ldi	r24, 0x55	; 85
    2b6a:	90 e0       	ldi	r25, 0x00	; 0
                responseList = SetStandardResponse(2);
                return 1;
            }

            //Fake cheat = reset badge!
            if (StartsWith(&data[0], "iddqd")){
    2b6c:	7a cf       	rjmp	.-268    	; 0x2a62 <CheckInput+0x1ce>
    2b6e:	6e ef       	ldi	r22, 0xFE	; 254
    2b70:	70 ec       	ldi	r23, 0xC0	; 192
    2b72:	c8 01       	movw	r24, r16
    2b74:	bb db       	rcall	.-2186   	; 0x22ec <StartsWith>
    2b76:	88 23       	and	r24, r24
    2b78:	f9 f0       	breq	.+62     	; 0x2bb8 <CheckInput+0x324>
    2b7a:	1e e6       	ldi	r17, 0x6E	; 110
            
                //Reset game data by wiping the UUID bits
                for (uint8_t x=0; x<4; ++x){
                    WriteStatusBit(110+x, 0);
    2b7c:	60 e0       	ldi	r22, 0x00	; 0
    2b7e:	81 2f       	mov	r24, r17
    2b80:	0e 94 30 0a 	call	0x1460	; 0x1460 <WriteStatusBit>
    2b84:	1f 5f       	subi	r17, 0xFF	; 255

            //Fake cheat = reset badge!
            if (StartsWith(&data[0], "iddqd")){
            
                //Reset game data by wiping the UUID bits
                for (uint8_t x=0; x<4; ++x){
    2b86:	12 37       	cpi	r17, 0x72	; 114
    2b88:	c9 f7       	brne	.-14     	; 0x2b7c <CheckInput+0x2e8>
                    WriteStatusBit(110+x, 0);
                }
                SaveGameState();
    2b8a:	0e 94 a9 09 	call	0x1352	; 0x1352 <SaveGameState>

                uint8_t cheat[] = "Got ya! ";
    2b8e:	89 e0       	ldi	r24, 0x09	; 9
    2b90:	e1 e1       	ldi	r30, 0x11	; 17
    2b92:	f1 ec       	ldi	r31, 0xC1	; 193
    2b94:	de 01       	movw	r26, r28
    2b96:	11 96       	adiw	r26, 0x01	; 1
    2b98:	01 90       	ld	r0, Z+
    2b9a:	0d 92       	st	X+, r0
    2b9c:	8a 95       	dec	r24
    2b9e:	e1 f7       	brne	.-8      	; 0x2b98 <CheckInput+0x304>
                SerSpeed(60);
    2ba0:	8c e3       	ldi	r24, 0x3C	; 60
    2ba2:	0e 94 c9 08 	call	0x1192	; 0x1192 <SerSpeed>
                while(1){
                    if (serTxDone) SerSend(&cheat[0]);
    2ba6:	80 91 09 38 	lds	r24, 0x3809	; 0x803809 <serTxDone>
    2baa:	88 23       	and	r24, r24
    2bac:	e1 f3       	breq	.-8      	; 0x2ba6 <CheckInput+0x312>
    2bae:	ce 01       	movw	r24, r28
    2bb0:	01 96       	adiw	r24, 0x01	; 1
    2bb2:	0e 94 b8 08 	call	0x1170	; 0x1170 <SerSend>
                }
            }
            
            //Cheat reset
            if (StartsWith(&data[0], "ikillu")){
    2bb6:	f7 cf       	rjmp	.-18     	; 0x2ba6 <CheckInput+0x312>
    2bb8:	64 e0       	ldi	r22, 0x04	; 4
    2bba:	71 ec       	ldi	r23, 0xC1	; 193
    2bbc:	c8 01       	movw	r24, r16
    2bbe:	96 db       	rcall	.-2260   	; 0x22ec <StartsWith>
    2bc0:	88 23       	and	r24, r24
    2bc2:	61 f1       	breq	.+88     	; 0x2c1c <CheckInput+0x388>
                
                //Reset cheat data by resetting the EEPROM bytes
                uint8_t empty=0xff;
    2bc4:	8f ef       	ldi	r24, 0xFF	; 255
    2bc6:	8a 87       	std	Y+10, r24	; 0x0a
    2bc8:	18 e1       	ldi	r17, 0x18	; 24
                for (uint8_t x=0; x<MAX_CHEATS; ++x){
                    EEWrite(CHEATS+x, &empty, 1);
    2bca:	41 e0       	ldi	r20, 0x01	; 1
    2bcc:	be 01       	movw	r22, r28
    2bce:	66 5f       	subi	r22, 0xF6	; 246
    2bd0:	7f 4f       	sbci	r23, 0xFF	; 255
    2bd2:	81 2f       	mov	r24, r17
    2bd4:	0e 94 44 08 	call	0x1088	; 0x1088 <EEWrite>
    2bd8:	1f 5f       	subi	r17, 0xFF	; 255
            //Cheat reset
            if (StartsWith(&data[0], "ikillu")){
                
                //Reset cheat data by resetting the EEPROM bytes
                uint8_t empty=0xff;
                for (uint8_t x=0; x<MAX_CHEATS; ++x){
    2bda:	10 32       	cpi	r17, 0x20	; 32
    2bdc:	b1 f7       	brne	.-20     	; 0x2bca <CheckInput+0x336>
    2bde:	1e e6       	ldi	r17, 0x6E	; 110
                    EEWrite(CHEATS+x, &empty, 1);
                }
                //Reset game data by wiping the UUID bits
                for (uint8_t x=0; x<4; ++x){
                    WriteStatusBit(110+x, 0);
    2be0:	60 e0       	ldi	r22, 0x00	; 0
    2be2:	81 2f       	mov	r24, r17
    2be4:	0e 94 30 0a 	call	0x1460	; 0x1460 <WriteStatusBit>
    2be8:	1f 5f       	subi	r17, 0xFF	; 255
                uint8_t empty=0xff;
                for (uint8_t x=0; x<MAX_CHEATS; ++x){
                    EEWrite(CHEATS+x, &empty, 1);
                }
                //Reset game data by wiping the UUID bits
                for (uint8_t x=0; x<4; ++x){
    2bea:	12 37       	cpi	r17, 0x72	; 114
    2bec:	c9 f7       	brne	.-14     	; 0x2be0 <CheckInput+0x34c>
                    WriteStatusBit(110+x, 0);
                }
                
                SaveGameState();
    2bee:	0e 94 a9 09 	call	0x1352	; 0x1352 <SaveGameState>

                uint8_t cheat[] = "Reset! ";
    2bf2:	88 e0       	ldi	r24, 0x08	; 8
    2bf4:	ea e1       	ldi	r30, 0x1A	; 26
    2bf6:	f1 ec       	ldi	r31, 0xC1	; 193
    2bf8:	de 01       	movw	r26, r28
    2bfa:	11 96       	adiw	r26, 0x01	; 1
    2bfc:	01 90       	ld	r0, Z+
    2bfe:	0d 92       	st	X+, r0
    2c00:	8a 95       	dec	r24
    2c02:	e1 f7       	brne	.-8      	; 0x2bfc <CheckInput+0x368>
                SerSpeed(60);
    2c04:	8c e3       	ldi	r24, 0x3C	; 60
    2c06:	0e 94 c9 08 	call	0x1192	; 0x1192 <SerSpeed>
                while(1){
                    if (serTxDone) SerSend(&cheat[0]);
    2c0a:	80 91 09 38 	lds	r24, 0x3809	; 0x803809 <serTxDone>
    2c0e:	88 23       	and	r24, r24
    2c10:	e1 f3       	breq	.-8      	; 0x2c0a <CheckInput+0x376>
    2c12:	ce 01       	movw	r24, r28
    2c14:	01 96       	adiw	r24, 0x01	; 1
    2c16:	0e 94 b8 08 	call	0x1170	; 0x1170 <SerSend>
                }
            }

            //Show used cheat codes
            if (StartsWith(&data[0], "cheat")){
    2c1a:	f7 cf       	rjmp	.-18     	; 0x2c0a <CheckInput+0x376>
    2c1c:	6b e0       	ldi	r22, 0x0B	; 11
    2c1e:	71 ec       	ldi	r23, 0xC1	; 193
    2c20:	c8 01       	movw	r24, r16
    2c22:	64 db       	rcall	.-2360   	; 0x22ec <StartsWith>
    2c24:	88 23       	and	r24, r24
    2c26:	09 f4       	brne	.+2      	; 0x2c2a <CheckInput+0x396>
    2c28:	78 ce       	rjmp	.-784    	; 0x291a <CheckInput+0x86>
    2c2a:	8b e1       	ldi	r24, 0x1B	; 27
    2c2c:	c8 2e       	mov	r12, r24
    2c2e:	89 e3       	ldi	r24, 0x39	; 57
    2c30:	d8 2e       	mov	r13, r24
    2c32:	9b e5       	ldi	r25, 0x5B	; 91
    2c34:	e9 2e       	mov	r14, r25
    2c36:	99 e3       	ldi	r25, 0x39	; 57
    2c38:	f9 2e       	mov	r15, r25
    2c3a:	0b e9       	ldi	r16, 0x9B	; 155
    2c3c:	19 e3       	ldi	r17, 0x39	; 57
    2c3e:	28 e1       	ldi	r18, 0x18	; 24
    2c40:	32 2e       	mov	r3, r18
    return 0;
}

//
void SetResponse(uint8_t number, uint16_t address, uint16_t length, uint8_t type){
    reactStr[0][number]=address;
    2c42:	3d e9       	ldi	r19, 0x9D	; 157
    2c44:	63 2e       	mov	r6, r19
    2c46:	34 e7       	ldi	r19, 0x74	; 116
    2c48:	73 2e       	mov	r7, r19
    reactStr[1][number]=length;
    2c4a:	42 e0       	ldi	r20, 0x02	; 2
    2c4c:	84 2e       	mov	r8, r20
    2c4e:	91 2c       	mov	r9, r1
    reactStr[2][number]=type;
    2c50:	aa 24       	eor	r10, r10
    2c52:	a3 94       	inc	r10
    2c54:	b1 2c       	mov	r11, r1
    return 0;
}

//
void SetResponse(uint8_t number, uint16_t address, uint16_t length, uint8_t type){
    reactStr[0][number]=address;
    2c56:	67 e5       	ldi	r22, 0x57	; 87
    2c58:	46 2e       	mov	r4, r22
    2c5a:	6a e7       	ldi	r22, 0x7A	; 122
    2c5c:	56 2e       	mov	r5, r22
            if (StartsWith(&data[0], "cheat")){
                uint8_t bit;
                for (uint8_t x=0; x<MAX_CHEATS; ++x){
                    
                    //Set up sending out number
                    EERead(CHEATS+x, &bit, 1);
    2c5e:	41 e0       	ldi	r20, 0x01	; 1
    2c60:	be 01       	movw	r22, r28
    2c62:	6f 5f       	subi	r22, 0xFF	; 255
    2c64:	7f 4f       	sbci	r23, 0xFF	; 255
    2c66:	83 2d       	mov	r24, r3
    2c68:	0e 94 34 08 	call	0x1068	; 0x1068 <EERead>
                    bit = 0xff-bit;
    2c6c:	89 81       	ldd	r24, Y+1	; 0x01
    2c6e:	80 95       	com	r24
    2c70:	89 83       	std	Y+1, r24	; 0x01
    return 0;
}

//
void SetResponse(uint8_t number, uint16_t address, uint16_t length, uint8_t type){
    reactStr[0][number]=address;
    2c72:	f6 01       	movw	r30, r12
    2c74:	60 82       	st	Z, r6
    2c76:	71 82       	std	Z+1, r7	; 0x01
    reactStr[1][number]=length;
    2c78:	f7 01       	movw	r30, r14
    2c7a:	80 82       	st	Z, r8
    2c7c:	91 82       	std	Z+1, r9	; 0x01
    reactStr[2][number]=type;
    2c7e:	f8 01       	movw	r30, r16
    2c80:	a0 82       	st	Z, r10
    2c82:	b1 82       	std	Z+1, r11	; 0x01
    return 0;
}

//
void SetResponse(uint8_t number, uint16_t address, uint16_t length, uint8_t type){
    reactStr[0][number]=address;
    2c84:	28 2f       	mov	r18, r24
    2c86:	22 95       	swap	r18
    2c88:	2f 70       	andi	r18, 0x0F	; 15
    2c8a:	30 e0       	ldi	r19, 0x00	; 0
    2c8c:	23 57       	subi	r18, 0x73	; 115
    2c8e:	3b 48       	sbci	r19, 0x8B	; 139
    2c90:	f6 01       	movw	r30, r12
    2c92:	22 83       	std	Z+2, r18	; 0x02
    2c94:	33 83       	std	Z+3, r19	; 0x03
    reactStr[1][number]=length;
    2c96:	f7 01       	movw	r30, r14
    2c98:	a2 82       	std	Z+2, r10	; 0x02
    2c9a:	b3 82       	std	Z+3, r11	; 0x03
    reactStr[2][number]=type;
    2c9c:	f8 01       	movw	r30, r16
    2c9e:	a2 82       	std	Z+2, r10	; 0x02
    2ca0:	b3 82       	std	Z+3, r11	; 0x03
    return 0;
}

//
void SetResponse(uint8_t number, uint16_t address, uint16_t length, uint8_t type){
    reactStr[0][number]=address;
    2ca2:	8f 70       	andi	r24, 0x0F	; 15
    2ca4:	90 e0       	ldi	r25, 0x00	; 0
    2ca6:	83 57       	subi	r24, 0x73	; 115
    2ca8:	9b 48       	sbci	r25, 0x8B	; 139
    2caa:	f6 01       	movw	r30, r12
    2cac:	84 83       	std	Z+4, r24	; 0x04
    2cae:	95 83       	std	Z+5, r25	; 0x05
    reactStr[1][number]=length;
    2cb0:	f7 01       	movw	r30, r14
    2cb2:	a4 82       	std	Z+4, r10	; 0x04
    2cb4:	b5 82       	std	Z+5, r11	; 0x05
    reactStr[2][number]=type;
    2cb6:	f8 01       	movw	r30, r16
    2cb8:	a4 82       	std	Z+4, r10	; 0x04
    2cba:	b5 82       	std	Z+5, r11	; 0x05
    return 0;
}

//
void SetResponse(uint8_t number, uint16_t address, uint16_t length, uint8_t type){
    reactStr[0][number]=address;
    2cbc:	f6 01       	movw	r30, r12
    2cbe:	46 82       	std	Z+6, r4	; 0x06
    2cc0:	57 82       	std	Z+7, r5	; 0x07
    reactStr[1][number]=length;
    2cc2:	f7 01       	movw	r30, r14
    2cc4:	86 82       	std	Z+6, r8	; 0x06
    2cc6:	97 82       	std	Z+7, r9	; 0x07
    reactStr[2][number]=type;
    2cc8:	f8 01       	movw	r30, r16
    2cca:	a6 82       	std	Z+6, r10	; 0x06
    2ccc:	b7 82       	std	Z+7, r11	; 0x07
    2cce:	33 94       	inc	r3
    2cd0:	f8 e0       	ldi	r31, 0x08	; 8
    2cd2:	cf 0e       	add	r12, r31
    2cd4:	d1 1c       	adc	r13, r1
    2cd6:	88 e0       	ldi	r24, 0x08	; 8
    2cd8:	e8 0e       	add	r14, r24
    2cda:	f1 1c       	adc	r15, r1
    2cdc:	08 5f       	subi	r16, 0xF8	; 248
    2cde:	1f 4f       	sbci	r17, 0xFF	; 255
            }

            //Show used cheat codes
            if (StartsWith(&data[0], "cheat")){
                uint8_t bit;
                for (uint8_t x=0; x<MAX_CHEATS; ++x){
    2ce0:	e0 e2       	ldi	r30, 0x20	; 32
    2ce2:	3e 12       	cpse	r3, r30
    2ce4:	bc cf       	rjmp	.-136    	; 0x2c5e <CheckInput+0x3ca>
    return 0;
}

//
void SetResponse(uint8_t number, uint16_t address, uint16_t length, uint8_t type){
    reactStr[0][number]=address;
    2ce6:	89 e5       	ldi	r24, 0x59	; 89
    2ce8:	9a e7       	ldi	r25, 0x7A	; 122
    2cea:	80 93 59 39 	sts	0x3959, r24	; 0x803959 <reactStr+0x3e>
    2cee:	90 93 5a 39 	sts	0x395A, r25	; 0x80395a <reactStr+0x3f>
    reactStr[1][number]=length;
    2cf2:	84 e0       	ldi	r24, 0x04	; 4
    2cf4:	90 e0       	ldi	r25, 0x00	; 0
    2cf6:	80 93 99 39 	sts	0x3999, r24	; 0x803999 <reactStr+0x7e>
    2cfa:	90 93 9a 39 	sts	0x399A, r25	; 0x80399a <reactStr+0x7f>
    reactStr[2][number]=type;
    2cfe:	81 e0       	ldi	r24, 0x01	; 1
    2d00:	90 e0       	ldi	r25, 0x00	; 0
    2d02:	80 93 d9 39 	sts	0x39D9, r24	; 0x8039d9 <reactStr+0xbe>
    2d06:	90 93 da 39 	sts	0x39DA, r25	; 0x8039da <reactStr+0xbf>
                    SetResponse(x*4+1, A_DIGITS+(bit>>4), 1, TEASER);               
                    SetResponse(x*4+2, A_DIGITS+(bit%16), 1, TEASER);
                    SetResponse(x*4+3, A_COMMA, L_COMMA, TEASER);
                }
                SetResponse((4*MAX_CHEATS)-1, A_LF, 4, TEASER);
                responseList = 32;
    2d0a:	30 92 1a 39 	sts	0x391A, r3	; 0x80391a <responseList>
        //Data received, but not any of the commands above
        return 0;
    }

    //Serial input not available yet
    return 1;
    2d0e:	ff 24       	eor	r15, r15
    2d10:	f3 94       	inc	r15
}
    2d12:	8f 2d       	mov	r24, r15
    2d14:	2a 96       	adiw	r28, 0x0a	; 10
    2d16:	cd bf       	out	0x3d, r28	; 61
    2d18:	de bf       	out	0x3e, r29	; 62
    2d1a:	df 91       	pop	r29
    2d1c:	cf 91       	pop	r28
    2d1e:	1f 91       	pop	r17
    2d20:	0f 91       	pop	r16
    2d22:	ff 90       	pop	r15
    2d24:	ef 90       	pop	r14
    2d26:	df 90       	pop	r13
    2d28:	cf 90       	pop	r12
    2d2a:	bf 90       	pop	r11
    2d2c:	af 90       	pop	r10
    2d2e:	9f 90       	pop	r9
    2d30:	8f 90       	pop	r8
    2d32:	7f 90       	pop	r7
    2d34:	6f 90       	pop	r6
    2d36:	5f 90       	pop	r5
    2d38:	4f 90       	pop	r4
    2d3a:	3f 90       	pop	r3
    2d3c:	08 95       	ret

00002d3e <ShowInventory>:

uint8_t ShowInventory(uint8_t elements){
    2d3e:	9f 92       	push	r9
    2d40:	af 92       	push	r10
    2d42:	bf 92       	push	r11
    2d44:	cf 92       	push	r12
    2d46:	df 92       	push	r13
    2d48:	ef 92       	push	r14
    2d4a:	ff 92       	push	r15
    2d4c:	0f 93       	push	r16
    2d4e:	1f 93       	push	r17
    2d50:	cf 93       	push	r28
    2d52:	df 93       	push	r29
    2d54:	cd b7       	in	r28, 0x3d	; 61
    2d56:	de b7       	in	r29, 0x3e	; 62
    2d58:	ab 97       	sbiw	r28, 0x2b	; 43
    2d5a:	cd bf       	out	0x3d, r28	; 61
    2d5c:	de bf       	out	0x3e, r29	; 62
    object_model_t actObj1;

    SetResponse(elements++, A_NOWCARRING, L_NOWCARRING, TEASER);
    2d5e:	99 24       	eor	r9, r9
    2d60:	93 94       	inc	r9
    2d62:	98 0e       	add	r9, r24
    return 0;
}

//
void SetResponse(uint8_t number, uint16_t address, uint16_t length, uint8_t type){
    reactStr[0][number]=address;
    2d64:	90 e0       	ldi	r25, 0x00	; 0
    2d66:	fc 01       	movw	r30, r24
    2d68:	ee 0f       	add	r30, r30
    2d6a:	ff 1f       	adc	r31, r31
    2d6c:	e5 5e       	subi	r30, 0xE5	; 229
    2d6e:	f6 4c       	sbci	r31, 0xC6	; 198
    2d70:	2c ec       	ldi	r18, 0xCC	; 204
    2d72:	37 e7       	ldi	r19, 0x77	; 119
    2d74:	20 83       	st	Z, r18
    2d76:	31 83       	std	Z+1, r19	; 0x01
    reactStr[1][number]=length;
    2d78:	fc 01       	movw	r30, r24
    2d7a:	ee 0f       	add	r30, r30
    2d7c:	ff 1f       	adc	r31, r31
    2d7e:	e5 5a       	subi	r30, 0xA5	; 165
    2d80:	f6 4c       	sbci	r31, 0xC6	; 198
    2d82:	26 e1       	ldi	r18, 0x16	; 22
    2d84:	30 e0       	ldi	r19, 0x00	; 0
    2d86:	20 83       	st	Z, r18
    2d88:	31 83       	std	Z+1, r19	; 0x01
    reactStr[2][number]=type;
    2d8a:	88 0f       	add	r24, r24
    2d8c:	99 1f       	adc	r25, r25
    2d8e:	fc 01       	movw	r30, r24
    2d90:	e5 56       	subi	r30, 0x65	; 101
    2d92:	f6 4c       	sbci	r31, 0xC6	; 198
    2d94:	81 e0       	ldi	r24, 0x01	; 1
    2d96:	90 e0       	ldi	r25, 0x00	; 0
    2d98:	80 83       	st	Z, r24
    2d9a:	91 83       	std	Z+1, r25	; 0x01
    2d9c:	0e e3       	ldi	r16, 0x3E	; 62
    2d9e:	18 e3       	ldi	r17, 0x38	; 56
    return 0;
}

//
void SetResponse(uint8_t number, uint16_t address, uint16_t length, uint8_t type){
    reactStr[0][number]=address;
    2da0:	37 e5       	ldi	r19, 0x57	; 87
    2da2:	e3 2e       	mov	r14, r19
    2da4:	3a e7       	ldi	r19, 0x7A	; 122
    2da6:	f3 2e       	mov	r15, r19
    reactStr[1][number]=length;
    2da8:	42 e0       	ldi	r20, 0x02	; 2
    2daa:	c4 2e       	mov	r12, r20
    2dac:	d1 2c       	mov	r13, r1
    reactStr[2][number]=type;
    2dae:	aa 24       	eor	r10, r10
    2db0:	a3 94       	inc	r10
    2db2:	b1 2c       	mov	r11, r1
    object_model_t actObj1;

    SetResponse(elements++, A_NOWCARRING, L_NOWCARRING, TEASER);

    for (uint8_t x=0; x<2; ++x) {
        if (inventory[x]) {
    2db4:	f8 01       	movw	r30, r16
    2db6:	81 91       	ld	r24, Z+
    2db8:	91 91       	ld	r25, Z+
    2dba:	8f 01       	movw	r16, r30
    2dbc:	00 97       	sbiw	r24, 0x00	; 0
    2dbe:	c9 f1       	breq	.+114    	; 0x2e32 <ShowInventory+0xf4>
            PopulateObject(inventory[x], &actObj1);
    2dc0:	be 01       	movw	r22, r28
    2dc2:	6f 5f       	subi	r22, 0xFF	; 255
    2dc4:	7f 4f       	sbci	r23, 0xFF	; 255
    2dc6:	65 db       	rcall	.-2358   	; 0x2492 <PopulateObject>
            SetResponse(elements++, actObj1.addrStr[NAME], actObj1.lenStr[NAME], GAME);
    2dc8:	2b 8d       	ldd	r18, Y+27	; 0x1b
    2dca:	3c 8d       	ldd	r19, Y+28	; 0x1c
    return 0;
}

//
void SetResponse(uint8_t number, uint16_t address, uint16_t length, uint8_t type){
    reactStr[0][number]=address;
    2dcc:	89 2d       	mov	r24, r9
    2dce:	90 e0       	ldi	r25, 0x00	; 0
    2dd0:	fc 01       	movw	r30, r24
    2dd2:	ee 0f       	add	r30, r30
    2dd4:	ff 1f       	adc	r31, r31
    2dd6:	e5 5e       	subi	r30, 0xE5	; 229
    2dd8:	f6 4c       	sbci	r31, 0xC6	; 198
    2dda:	4d 85       	ldd	r20, Y+13	; 0x0d
    2ddc:	5e 85       	ldd	r21, Y+14	; 0x0e
    2dde:	40 83       	st	Z, r20
    2de0:	51 83       	std	Z+1, r21	; 0x01
    reactStr[1][number]=length;
    2de2:	fc 01       	movw	r30, r24
    2de4:	ee 0f       	add	r30, r30
    2de6:	ff 1f       	adc	r31, r31
    2de8:	e5 5a       	subi	r30, 0xA5	; 165
    2dea:	f6 4c       	sbci	r31, 0xC6	; 198
    2dec:	20 83       	st	Z, r18
    2dee:	31 83       	std	Z+1, r19	; 0x01
    reactStr[2][number]=type;
    2df0:	88 0f       	add	r24, r24
    2df2:	99 1f       	adc	r25, r25
    2df4:	fc 01       	movw	r30, r24
    2df6:	e5 56       	subi	r30, 0x65	; 101
    2df8:	f6 4c       	sbci	r31, 0xC6	; 198
    2dfa:	10 82       	st	Z, r1
    2dfc:	11 82       	std	Z+1, r1	; 0x01
    return 0;
}

//
void SetResponse(uint8_t number, uint16_t address, uint16_t length, uint8_t type){
    reactStr[0][number]=address;
    2dfe:	81 e0       	ldi	r24, 0x01	; 1
    2e00:	89 0d       	add	r24, r9
    2e02:	90 e0       	ldi	r25, 0x00	; 0
    2e04:	93 94       	inc	r9
    2e06:	93 94       	inc	r9
    2e08:	fc 01       	movw	r30, r24
    2e0a:	ee 0f       	add	r30, r30
    2e0c:	ff 1f       	adc	r31, r31
    2e0e:	e5 5e       	subi	r30, 0xE5	; 229
    2e10:	f6 4c       	sbci	r31, 0xC6	; 198
    2e12:	e0 82       	st	Z, r14
    2e14:	f1 82       	std	Z+1, r15	; 0x01
    reactStr[1][number]=length;
    2e16:	fc 01       	movw	r30, r24
    2e18:	ee 0f       	add	r30, r30
    2e1a:	ff 1f       	adc	r31, r31
    2e1c:	e5 5a       	subi	r30, 0xA5	; 165
    2e1e:	f6 4c       	sbci	r31, 0xC6	; 198
    2e20:	c0 82       	st	Z, r12
    2e22:	d1 82       	std	Z+1, r13	; 0x01
    reactStr[2][number]=type;
    2e24:	88 0f       	add	r24, r24
    2e26:	99 1f       	adc	r25, r25
    2e28:	fc 01       	movw	r30, r24
    2e2a:	e5 56       	subi	r30, 0x65	; 101
    2e2c:	f6 4c       	sbci	r31, 0xC6	; 198
    2e2e:	a0 82       	st	Z, r10
    2e30:	b1 82       	std	Z+1, r11	; 0x01
uint8_t ShowInventory(uint8_t elements){
    object_model_t actObj1;

    SetResponse(elements++, A_NOWCARRING, L_NOWCARRING, TEASER);

    for (uint8_t x=0; x<2; ++x) {
    2e32:	f8 e3       	ldi	r31, 0x38	; 56
    2e34:	02 34       	cpi	r16, 0x42	; 66
    2e36:	1f 07       	cpc	r17, r31
    2e38:	09 f0       	breq	.+2      	; 0x2e3c <ShowInventory+0xfe>
    2e3a:	bc cf       	rjmp	.-136    	; 0x2db4 <ShowInventory+0x76>
        }
    }
    elements -= 1;
            
    return elements;
}
    2e3c:	8f ef       	ldi	r24, 0xFF	; 255
    2e3e:	89 0d       	add	r24, r9
    2e40:	ab 96       	adiw	r28, 0x2b	; 43
    2e42:	cd bf       	out	0x3d, r28	; 61
    2e44:	de bf       	out	0x3e, r29	; 62
    2e46:	df 91       	pop	r29
    2e48:	cf 91       	pop	r28
    2e4a:	1f 91       	pop	r17
    2e4c:	0f 91       	pop	r16
    2e4e:	ff 90       	pop	r15
    2e50:	ef 90       	pop	r14
    2e52:	df 90       	pop	r13
    2e54:	cf 90       	pop	r12
    2e56:	bf 90       	pop	r11
    2e58:	af 90       	pop	r10
    2e5a:	9f 90       	pop	r9
    2e5c:	08 95       	ret

00002e5e <ProcessInput>:

//The game logic!
uint8_t ProcessInput(uint8_t *data){
    2e5e:	6f 92       	push	r6
    2e60:	7f 92       	push	r7
    2e62:	8f 92       	push	r8
    2e64:	9f 92       	push	r9
    2e66:	af 92       	push	r10
    2e68:	bf 92       	push	r11
    2e6a:	cf 92       	push	r12
    2e6c:	df 92       	push	r13
    2e6e:	ef 92       	push	r14
    2e70:	ff 92       	push	r15
    2e72:	0f 93       	push	r16
    2e74:	1f 93       	push	r17
    2e76:	cf 93       	push	r28
    2e78:	df 93       	push	r29
    2e7a:	cd b7       	in	r28, 0x3d	; 61
    2e7c:	de b7       	in	r29, 0x3e	; 62
    2e7e:	28 97       	sbiw	r28, 0x08	; 8
    2e80:	cd bf       	out	0x3d, r28	; 61
    2e82:	de bf       	out	0x3e, r29	; 62
    2e84:	3c 01       	movw	r6, r24
    static object_model_t actObj1, actObj2;
    uint8_t elements = 1;

    CleanInput(&data[0]);
    2e86:	40 dc       	rcall	.-1920   	; 0x2708 <CleanInput>
    uint8_t inputLen = CleanInput(&data[0]);
    2e88:	c3 01       	movw	r24, r6
    2e8a:	3e dc       	rcall	.-1924   	; 0x2708 <CleanInput>
    2e8c:	f8 2e       	mov	r15, r24
    return 0;
}

//
void SetResponse(uint8_t number, uint16_t address, uint16_t length, uint8_t type){
    reactStr[0][number]=address;
    2e8e:	29 e5       	ldi	r18, 0x59	; 89
    2e90:	3a e7       	ldi	r19, 0x7A	; 122
    2e92:	20 93 1b 39 	sts	0x391B, r18	; 0x80391b <reactStr>
    2e96:	30 93 1c 39 	sts	0x391C, r19	; 0x80391c <reactStr+0x1>
    reactStr[1][number]=length;
    2e9a:	84 e0       	ldi	r24, 0x04	; 4
    2e9c:	90 e0       	ldi	r25, 0x00	; 0
    2e9e:	80 93 5b 39 	sts	0x395B, r24	; 0x80395b <reactStr+0x40>
    2ea2:	90 93 5c 39 	sts	0x395C, r25	; 0x80395c <reactStr+0x41>
    reactStr[2][number]=type;
    2ea6:	01 e0       	ldi	r16, 0x01	; 1
    2ea8:	10 e0       	ldi	r17, 0x00	; 0
    2eaa:	00 93 9b 39 	sts	0x399B, r16	; 0x80399b <reactStr+0x80>
    2eae:	10 93 9c 39 	sts	0x399C, r17	; 0x80399c <reactStr+0x81>

    CleanInput(&data[0]);
    uint8_t inputLen = CleanInput(&data[0]);
    SetResponse(0, A_LF, 4, TEASER);

    if (inputLen) {
    2eb2:	ff 20       	and	r15, r15
    2eb4:	09 f4       	brne	.+2      	; 0x2eb8 <ProcessInput+0x5a>
    2eb6:	69 c7       	rjmp	.+3794   	; 0x3d8a <ProcessInput+0xf2c>

        //eXit to previous location
        if (data[0] == 'x'){
    2eb8:	d3 01       	movw	r26, r6
    2eba:	8c 91       	ld	r24, X
    2ebc:	88 37       	cpi	r24, 0x78	; 120
    2ebe:	09 f0       	breq	.+2      	; 0x2ec2 <ProcessInput+0x64>
    2ec0:	45 c0       	rjmp	.+138    	; 0x2f4c <ProcessInput+0xee>

            //Standing in the Lobby?
            if ((route[currDepth] == 0)||(currDepth == 0)){
    2ec2:	80 91 2e 38 	lds	r24, 0x382E	; 0x80382e <currDepth>
    2ec6:	e8 2f       	mov	r30, r24
    2ec8:	f0 e0       	ldi	r31, 0x00	; 0
    2eca:	ee 0f       	add	r30, r30
    2ecc:	ff 1f       	adc	r31, r31
    2ece:	e5 52       	subi	r30, 0x25	; 37
    2ed0:	f6 4c       	sbci	r31, 0xC6	; 198
    2ed2:	20 81       	ld	r18, Z
    2ed4:	31 81       	ldd	r19, Z+1	; 0x01
    2ed6:	23 2b       	or	r18, r19
    2ed8:	11 f0       	breq	.+4      	; 0x2ede <ProcessInput+0x80>
    2eda:	81 11       	cpse	r24, r1
    2edc:	03 c0       	rjmp	.+6      	; 0x2ee4 <ProcessInput+0x86>
    return 0;
}

//
void SetResponse(uint8_t number, uint16_t address, uint16_t length, uint8_t type){
    reactStr[0][number]=address;
    2ede:	84 e4       	ldi	r24, 0x44	; 68
    2ee0:	96 e7       	ldi	r25, 0x76	; 118
    2ee2:	28 c5       	rjmp	.+2640   	; 0x3934 <ProcessInput+0xad6>
            //Standing in the Lobby?
            if ((route[currDepth] == 0)||(currDepth == 0)){
                SetResponse(elements++, A_NOTPOSSIBLE, L_NOTPOSSIBLE, TEASER);
            
            //Is there a way to go back?
            } else if (CheckState(currObj.byteField[OPEN_ACL])){
    2ee4:	80 91 21 3a 	lds	r24, 0x3A21	; 0x803a21 <currObj+0x6>
    2ee8:	0e 94 54 0a 	call	0x14a8	; 0x14a8 <CheckState>
    2eec:	88 23       	and	r24, r24
    2eee:	b9 f0       	breq	.+46     	; 0x2f1e <ProcessInput+0xc0>
                --currDepth;
    2ef0:	e0 91 2e 38 	lds	r30, 0x382E	; 0x80382e <currDepth>
    2ef4:	e1 50       	subi	r30, 0x01	; 1
    2ef6:	e0 93 2e 38 	sts	0x382E, r30	; 0x80382e <currDepth>
                PopulateObject(route[currDepth], &currObj);
    2efa:	f0 e0       	ldi	r31, 0x00	; 0
    2efc:	ee 0f       	add	r30, r30
    2efe:	ff 1f       	adc	r31, r31
    2f00:	e5 52       	subi	r30, 0x25	; 37
    2f02:	f6 4c       	sbci	r31, 0xC6	; 198
    2f04:	6b e1       	ldi	r22, 0x1B	; 27
    2f06:	7a e3       	ldi	r23, 0x3A	; 58
    2f08:	80 81       	ld	r24, Z
    2f0a:	91 81       	ldd	r25, Z+1	; 0x01
    2f0c:	c2 da       	rcall	.-2684   	; 0x2492 <PopulateObject>
                effect = currObj.byteField[EFFECTS];
    2f0e:	80 91 1f 3a 	lds	r24, 0x3A1F	; 0x803a1f <currObj+0x4>
    2f12:	90 e0       	ldi	r25, 0x00	; 0
    2f14:	80 93 3a 38 	sts	0x383A, r24	; 0x80383a <effect>
    2f18:	90 93 3b 38 	sts	0x383B, r25	; 0x80383b <effect+0x1>
    2f1c:	31 c0       	rjmp	.+98     	; 0x2f80 <ProcessInput+0x122>
            
            //No way out, print denied message of location
            } else {
                SetResponse(elements++, currObj.addrStr[OPEN_ACL_MSG], currObj.lenStr[OPEN_ACL_MSG], GAME);
    2f1e:	80 91 3d 3a 	lds	r24, 0x3A3D	; 0x803a3d <currObj+0x22>
    2f22:	90 91 3e 3a 	lds	r25, 0x3A3E	; 0x803a3e <currObj+0x23>
    return 0;
}

//
void SetResponse(uint8_t number, uint16_t address, uint16_t length, uint8_t type){
    reactStr[0][number]=address;
    2f26:	20 91 2f 3a 	lds	r18, 0x3A2F	; 0x803a2f <currObj+0x14>
    2f2a:	30 91 30 3a 	lds	r19, 0x3A30	; 0x803a30 <currObj+0x15>
    2f2e:	20 93 1d 39 	sts	0x391D, r18	; 0x80391d <reactStr+0x2>
    2f32:	30 93 1e 39 	sts	0x391E, r19	; 0x80391e <reactStr+0x3>
    reactStr[1][number]=length;
    2f36:	80 93 5d 39 	sts	0x395D, r24	; 0x80395d <reactStr+0x42>
    2f3a:	90 93 5e 39 	sts	0x395E, r25	; 0x80395e <reactStr+0x43>
    reactStr[2][number]=type;
    2f3e:	10 92 9d 39 	sts	0x399D, r1	; 0x80399d <reactStr+0x82>
    2f42:	10 92 9e 39 	sts	0x399E, r1	; 0x80399e <reactStr+0x83>
                effect = currObj.byteField[EFFECTS];
            
            //No way out, print denied message of location
            } else {
                SetResponse(elements++, currObj.addrStr[OPEN_ACL_MSG], currObj.lenStr[OPEN_ACL_MSG], GAME);
                effect = currObj.effect[0];               
    2f46:	80 91 43 3a 	lds	r24, 0x3A43	; 0x803a43 <currObj+0x28>
    2f4a:	be c5       	rjmp	.+2940   	; 0x3ac8 <ProcessInput+0xc6a>
            }   
        
        //Enter locations or Open objects    
        } else if ((data[0] == 'e')||(data[0] == 'o')) {
    2f4c:	85 36       	cpi	r24, 0x65	; 101
    2f4e:	19 f0       	breq	.+6      	; 0x2f56 <ProcessInput+0xf8>
    2f50:	8f 36       	cpi	r24, 0x6F	; 111
    2f52:	09 f0       	breq	.+2      	; 0x2f56 <ProcessInput+0xf8>
    2f54:	f2 c0       	rjmp	.+484    	; 0x313a <ProcessInput+0x2dc>
                
            //Not possible, too many/little characters
            if (inputLen != 2){
    2f56:	b2 e0       	ldi	r27, 0x02	; 2
    2f58:	fb 16       	cp	r15, r27
    2f5a:	a1 f0       	breq	.+40     	; 0x2f84 <ProcessInput+0x126>
    return 0;
}

//
void SetResponse(uint8_t number, uint16_t address, uint16_t length, uint8_t type){
    reactStr[0][number]=address;
    2f5c:	84 e4       	ldi	r24, 0x44	; 68
    2f5e:	96 e7       	ldi	r25, 0x76	; 118
    2f60:	80 93 1d 39 	sts	0x391D, r24	; 0x80391d <reactStr+0x2>
    2f64:	90 93 1e 39 	sts	0x391E, r25	; 0x80391e <reactStr+0x3>
    reactStr[1][number]=length;
    2f68:	8b e1       	ldi	r24, 0x1B	; 27
    2f6a:	90 e0       	ldi	r25, 0x00	; 0
    2f6c:	80 93 5d 39 	sts	0x395D, r24	; 0x80395d <reactStr+0x42>
    2f70:	90 93 5e 39 	sts	0x395E, r25	; 0x80395e <reactStr+0x43>
    reactStr[2][number]=type;
    2f74:	81 e0       	ldi	r24, 0x01	; 1
    2f76:	90 e0       	ldi	r25, 0x00	; 0
    2f78:	80 93 9d 39 	sts	0x399D, r24	; 0x80399d <reactStr+0x82>
    2f7c:	90 93 9e 39 	sts	0x399E, r25	; 0x80399e <reactStr+0x83>
}

//The game logic!
uint8_t ProcessInput(uint8_t *data){
    static object_model_t actObj1, actObj2;
    uint8_t elements = 1;
    2f80:	11 e0       	ldi	r17, 0x01	; 1
    2f82:	fa c6       	rjmp	.+3572   	; 0x3d78 <ProcessInput+0xf1a>
            //Not possible, too many/little characters
            if (inputLen != 2){
                SetResponse(elements, A_NOTPOSSIBLE, L_NOTPOSSIBLE, TEASER);
            } else {
                uint8_t canDo = 0;
                route[currDepth+1] = FindChild(route[currDepth], data[1], 0);
    2f84:	00 91 2e 38 	lds	r16, 0x382E	; 0x80382e <currDepth>
    2f88:	10 e0       	ldi	r17, 0x00	; 0
    2f8a:	f8 01       	movw	r30, r16
    2f8c:	ee 0f       	add	r30, r30
    2f8e:	ff 1f       	adc	r31, r31
    2f90:	e5 52       	subi	r30, 0x25	; 37
    2f92:	f6 4c       	sbci	r31, 0xC6	; 198
    2f94:	40 e0       	ldi	r20, 0x00	; 0
    2f96:	50 e0       	ldi	r21, 0x00	; 0
    2f98:	d3 01       	movw	r26, r6
    2f9a:	11 96       	adiw	r26, 0x01	; 1
    2f9c:	6c 91       	ld	r22, X
    2f9e:	80 81       	ld	r24, Z
    2fa0:	91 81       	ldd	r25, Z+1	; 0x01
    2fa2:	46 db       	rcall	.-2420   	; 0x2630 <FindChild>
    2fa4:	00 0f       	add	r16, r16
    2fa6:	11 1f       	adc	r17, r17
    2fa8:	f8 01       	movw	r30, r16
    2faa:	e3 52       	subi	r30, 0x23	; 35
    2fac:	f6 4c       	sbci	r31, 0xC6	; 198
    2fae:	80 83       	st	Z, r24
    2fb0:	91 83       	std	Z+1, r25	; 0x01
                    
                //Child found?
                if (route[currDepth+1]) {
    2fb2:	90 91 2e 38 	lds	r25, 0x382E	; 0x80382e <currDepth>
    2fb6:	29 2f       	mov	r18, r25
    2fb8:	30 e0       	ldi	r19, 0x00	; 0
    2fba:	f9 01       	movw	r30, r18
    2fbc:	ee 0f       	add	r30, r30
    2fbe:	ff 1f       	adc	r31, r31
    2fc0:	e3 52       	subi	r30, 0x23	; 35
    2fc2:	f6 4c       	sbci	r31, 0xC6	; 198
    2fc4:	40 81       	ld	r20, Z
    2fc6:	51 81       	ldd	r21, Z+1	; 0x01
    2fc8:	41 15       	cp	r20, r1
    2fca:	51 05       	cpc	r21, r1
    2fcc:	21 f0       	breq	.+8      	; 0x2fd6 <ProcessInput+0x178>
                    PopulateObject(route[currDepth+1], &actObj1);
    2fce:	6a ed       	ldi	r22, 0xDA	; 218
    2fd0:	78 e3       	ldi	r23, 0x38	; 56
    2fd2:	ca 01       	movw	r24, r20
    2fd4:	1c c0       	rjmp	.+56     	; 0x300e <ProcessInput+0x1b0>
                    canDo = 1;
                //No child, maybe a step back, letter ok?
                } else if (currDepth) {
    2fd6:	99 23       	and	r25, r25
    2fd8:	09 f4       	brne	.+2      	; 0x2fdc <ProcessInput+0x17e>
    2fda:	dd c6       	rjmp	.+3514   	; 0x3d96 <ProcessInput+0xf38>
                    if (CheckLetter(route[currDepth-1], data[1])) {
    2fdc:	22 0f       	add	r18, r18
    2fde:	33 1f       	adc	r19, r19
    2fe0:	f9 01       	movw	r30, r18
    2fe2:	e7 52       	subi	r30, 0x27	; 39
    2fe4:	f6 4c       	sbci	r31, 0xC6	; 198
    2fe6:	d3 01       	movw	r26, r6
    2fe8:	11 96       	adiw	r26, 0x01	; 1
    2fea:	6c 91       	ld	r22, X
    2fec:	80 81       	ld	r24, Z
    2fee:	91 81       	ldd	r25, Z+1	; 0x01
    2ff0:	c9 da       	rcall	.-2670   	; 0x2584 <CheckLetter>
    2ff2:	88 23       	and	r24, r24
    2ff4:	09 f4       	brne	.+2      	; 0x2ff8 <ProcessInput+0x19a>
    2ff6:	cf c6       	rjmp	.+3486   	; 0x3d96 <ProcessInput+0xf38>
                        PopulateObject(route[currDepth-1], &actObj1);
    2ff8:	e0 91 2e 38 	lds	r30, 0x382E	; 0x80382e <currDepth>
    2ffc:	f0 e0       	ldi	r31, 0x00	; 0
    2ffe:	ee 0f       	add	r30, r30
    3000:	ff 1f       	adc	r31, r31
    3002:	e7 52       	subi	r30, 0x27	; 39
    3004:	f6 4c       	sbci	r31, 0xC6	; 198
    3006:	6a ed       	ldi	r22, 0xDA	; 218
    3008:	78 e3       	ldi	r23, 0x38	; 56
    300a:	80 81       	ld	r24, Z
    300c:	91 81       	ldd	r25, Z+1	; 0x01
    300e:	41 da       	rcall	.-2942   	; 0x2492 <PopulateObject>
                    }
                }

                //The candidate is found! Let's check if the action is legit
                if (canDo) {
                    if ((data[0] == 'e') && ((actObj1.byteField[ACTION_MASK]&ENTER)==0)) {
    3010:	d3 01       	movw	r26, r6
    3012:	8c 91       	ld	r24, X
    3014:	85 36       	cpi	r24, 0x65	; 101
    3016:	c1 f4       	brne	.+48     	; 0x3048 <ProcessInput+0x1ea>
    3018:	80 91 e2 38 	lds	r24, 0x38E2	; 0x8038e2 <actObj1.3988+0x8>
    301c:	80 fd       	sbrc	r24, 0
    301e:	1d c0       	rjmp	.+58     	; 0x305a <ProcessInput+0x1fc>
    return 0;
}

//
void SetResponse(uint8_t number, uint16_t address, uint16_t length, uint8_t type){
    reactStr[0][number]=address;
    3020:	8d e9       	ldi	r24, 0x9D	; 157
    3022:	99 e7       	ldi	r25, 0x79	; 121
    3024:	80 93 1d 39 	sts	0x391D, r24	; 0x80391d <reactStr+0x2>
    3028:	90 93 1e 39 	sts	0x391E, r25	; 0x80391e <reactStr+0x3>
    reactStr[1][number]=length;
    302c:	8e e1       	ldi	r24, 0x1E	; 30
    302e:	90 e0       	ldi	r25, 0x00	; 0
    3030:	80 93 5d 39 	sts	0x395D, r24	; 0x80395d <reactStr+0x42>
    3034:	90 93 5e 39 	sts	0x395E, r25	; 0x80395e <reactStr+0x43>
    reactStr[2][number]=type;
    3038:	81 e0       	ldi	r24, 0x01	; 1
    303a:	90 e0       	ldi	r25, 0x00	; 0
    303c:	80 93 9d 39 	sts	0x399D, r24	; 0x80399d <reactStr+0x82>
    3040:	90 93 9e 39 	sts	0x399E, r25	; 0x80399e <reactStr+0x83>
                }

                //The candidate is found! Let's check if the action is legit
                if (canDo) {
                    if ((data[0] == 'e') && ((actObj1.byteField[ACTION_MASK]&ENTER)==0)) {
                        SetResponse(elements++, A_CANTENTER, L_CANTENTER, TEASER);
    3044:	12 e0       	ldi	r17, 0x02	; 2
    3046:	98 c6       	rjmp	.+3376   	; 0x3d78 <ProcessInput+0xf1a>
                    } else if ((data[0] == 'o') && ((actObj1.byteField[ACTION_MASK]&OPEN)==0)) {
    3048:	8f 36       	cpi	r24, 0x6F	; 111
    304a:	39 f4       	brne	.+14     	; 0x305a <ProcessInput+0x1fc>
    304c:	80 91 e2 38 	lds	r24, 0x38E2	; 0x8038e2 <actObj1.3988+0x8>
    3050:	81 fd       	sbrc	r24, 1
    3052:	03 c0       	rjmp	.+6      	; 0x305a <ProcessInput+0x1fc>
    return 0;
}

//
void SetResponse(uint8_t number, uint16_t address, uint16_t length, uint8_t type){
    reactStr[0][number]=address;
    3054:	82 e8       	ldi	r24, 0x82	; 130
    3056:	99 e7       	ldi	r25, 0x79	; 121
    3058:	6d c4       	rjmp	.+2266   	; 0x3934 <ProcessInput+0xad6>
                        SetResponse(elements++, A_CANTENTER, L_CANTENTER, TEASER);
                    } else if ((data[0] == 'o') && ((actObj1.byteField[ACTION_MASK]&OPEN)==0)) {
                        SetResponse(elements++, A_CANTOPEN, L_CANTOPEN, TEASER);
                    
                    //Action legit, permission granted?
                    } else if (CheckState(actObj1.byteField[OPEN_ACL])) {
    305a:	80 91 e0 38 	lds	r24, 0x38E0	; 0x8038e0 <actObj1.3988+0x6>
    305e:	0e 94 54 0a 	call	0x14a8	; 0x14a8 <CheckState>
    3062:	e0 91 2e 38 	lds	r30, 0x382E	; 0x80382e <currDepth>
    3066:	88 23       	and	r24, r24
    3068:	09 f4       	brne	.+2      	; 0x306c <ProcessInput+0x20e>
    306a:	49 c0       	rjmp	.+146    	; 0x30fe <ProcessInput+0x2a0>
                            
                        //Yes! Check if we must move forward or backwards.
                        if (route[currDepth+1]) ++currDepth; else --currDepth;
    306c:	ae 2f       	mov	r26, r30
    306e:	b0 e0       	ldi	r27, 0x00	; 0
    3070:	aa 0f       	add	r26, r26
    3072:	bb 1f       	adc	r27, r27
    3074:	a3 52       	subi	r26, 0x23	; 35
    3076:	b6 4c       	sbci	r27, 0xC6	; 198
    3078:	8d 91       	ld	r24, X+
    307a:	9c 91       	ld	r25, X
    307c:	89 2b       	or	r24, r25
    307e:	11 f0       	breq	.+4      	; 0x3084 <ProcessInput+0x226>
    3080:	ef 5f       	subi	r30, 0xFF	; 255
    3082:	01 c0       	rjmp	.+2      	; 0x3086 <ProcessInput+0x228>
    3084:	e1 50       	subi	r30, 0x01	; 1
    3086:	e0 93 2e 38 	sts	0x382E, r30	; 0x80382e <currDepth>
                        PopulateObject(route[currDepth], &currObj);
    308a:	e0 91 2e 38 	lds	r30, 0x382E	; 0x80382e <currDepth>
    308e:	f0 e0       	ldi	r31, 0x00	; 0
    3090:	ee 0f       	add	r30, r30
    3092:	ff 1f       	adc	r31, r31
    3094:	e5 52       	subi	r30, 0x25	; 37
    3096:	f6 4c       	sbci	r31, 0xC6	; 198
    3098:	6b e1       	ldi	r22, 0x1B	; 27
    309a:	7a e3       	ldi	r23, 0x3A	; 58
    309c:	80 81       	ld	r24, Z
    309e:	91 81       	ldd	r25, Z+1	; 0x01
    30a0:	f8 d9       	rcall	.-3088   	; 0x2492 <PopulateObject>
                        SetResponse(elements++, currObj.addrStr[DESC], currObj.lenStr[DESC],GAME);
    30a2:	80 91 37 3a 	lds	r24, 0x3A37	; 0x803a37 <currObj+0x1c>
    30a6:	90 91 38 3a 	lds	r25, 0x3A38	; 0x803a38 <currObj+0x1d>
    return 0;
}

//
void SetResponse(uint8_t number, uint16_t address, uint16_t length, uint8_t type){
    reactStr[0][number]=address;
    30aa:	20 91 29 3a 	lds	r18, 0x3A29	; 0x803a29 <currObj+0xe>
    30ae:	30 91 2a 3a 	lds	r19, 0x3A2A	; 0x803a2a <currObj+0xf>
    30b2:	20 93 1d 39 	sts	0x391D, r18	; 0x80391d <reactStr+0x2>
    30b6:	30 93 1e 39 	sts	0x391E, r19	; 0x80391e <reactStr+0x3>
    reactStr[1][number]=length;
    30ba:	80 93 5d 39 	sts	0x395D, r24	; 0x80395d <reactStr+0x42>
    30be:	90 93 5e 39 	sts	0x395E, r25	; 0x80395e <reactStr+0x43>
    reactStr[2][number]=type;
    30c2:	10 92 9d 39 	sts	0x399D, r1	; 0x80399d <reactStr+0x82>
    30c6:	10 92 9e 39 	sts	0x399E, r1	; 0x80399e <reactStr+0x83>
    return 0;
}

//
void SetResponse(uint8_t number, uint16_t address, uint16_t length, uint8_t type){
    reactStr[0][number]=address;
    30ca:	89 e5       	ldi	r24, 0x59	; 89
    30cc:	9a e7       	ldi	r25, 0x7A	; 122
    30ce:	80 93 1f 39 	sts	0x391F, r24	; 0x80391f <reactStr+0x4>
    30d2:	90 93 20 39 	sts	0x3920, r25	; 0x803920 <reactStr+0x5>
    reactStr[1][number]=length;
    30d6:	82 e0       	ldi	r24, 0x02	; 2
    30d8:	90 e0       	ldi	r25, 0x00	; 0
    30da:	80 93 5f 39 	sts	0x395F, r24	; 0x80395f <reactStr+0x44>
    30de:	90 93 60 39 	sts	0x3960, r25	; 0x803960 <reactStr+0x45>
    reactStr[2][number]=type;
    30e2:	81 e0       	ldi	r24, 0x01	; 1
    30e4:	90 e0       	ldi	r25, 0x00	; 0
    30e6:	80 93 9f 39 	sts	0x399F, r24	; 0x80399f <reactStr+0x84>
    30ea:	90 93 a0 39 	sts	0x39A0, r25	; 0x8039a0 <reactStr+0x85>
                        //Yes! Check if we must move forward or backwards.
                        if (route[currDepth+1]) ++currDepth; else --currDepth;
                        PopulateObject(route[currDepth], &currObj);
                        SetResponse(elements++, currObj.addrStr[DESC], currObj.lenStr[DESC],GAME);
                        SetResponse(elements++, A_LF, 2, TEASER);
                        effect = currObj.byteField[EFFECTS];
    30ee:	80 91 1f 3a 	lds	r24, 0x3A1F	; 0x803a1f <currObj+0x4>
    30f2:	90 e0       	ldi	r25, 0x00	; 0
    30f4:	80 93 3a 38 	sts	0x383A, r24	; 0x80383a <effect>
    30f8:	90 93 3b 38 	sts	0x383B, r25	; 0x80383b <effect+0x1>
    30fc:	08 c4       	rjmp	.+2064   	; 0x390e <ProcessInput+0xab0>
                                                  
                    //Not granted!
                    } else {
                        route[currDepth+1] = 0;
    30fe:	f0 e0       	ldi	r31, 0x00	; 0
    3100:	ee 0f       	add	r30, r30
    3102:	ff 1f       	adc	r31, r31
    3104:	e3 52       	subi	r30, 0x23	; 35
    3106:	f6 4c       	sbci	r31, 0xC6	; 198
    3108:	10 82       	st	Z, r1
    310a:	11 82       	std	Z+1, r1	; 0x01
                        SetResponse(elements++, actObj1.addrStr[OPEN_ACL_MSG], actObj1.lenStr[OPEN_ACL_MSG], GAME);
    310c:	80 91 fc 38 	lds	r24, 0x38FC	; 0x8038fc <actObj1.3988+0x22>
    3110:	90 91 fd 38 	lds	r25, 0x38FD	; 0x8038fd <actObj1.3988+0x23>
    return 0;
}

//
void SetResponse(uint8_t number, uint16_t address, uint16_t length, uint8_t type){
    reactStr[0][number]=address;
    3114:	20 91 ee 38 	lds	r18, 0x38EE	; 0x8038ee <actObj1.3988+0x14>
    3118:	30 91 ef 38 	lds	r19, 0x38EF	; 0x8038ef <actObj1.3988+0x15>
    311c:	20 93 1d 39 	sts	0x391D, r18	; 0x80391d <reactStr+0x2>
    3120:	30 93 1e 39 	sts	0x391E, r19	; 0x80391e <reactStr+0x3>
    reactStr[1][number]=length;
    3124:	80 93 5d 39 	sts	0x395D, r24	; 0x80395d <reactStr+0x42>
    3128:	90 93 5e 39 	sts	0x395E, r25	; 0x80395e <reactStr+0x43>
    reactStr[2][number]=type;
    312c:	10 92 9d 39 	sts	0x399D, r1	; 0x80399d <reactStr+0x82>
    3130:	10 92 9e 39 	sts	0x399E, r1	; 0x80399e <reactStr+0x83>
                                                  
                    //Not granted!
                    } else {
                        route[currDepth+1] = 0;
                        SetResponse(elements++, actObj1.addrStr[OPEN_ACL_MSG], actObj1.lenStr[OPEN_ACL_MSG], GAME);
                        effect = actObj1.effect[0];              
    3134:	80 91 02 39 	lds	r24, 0x3902	; 0x803902 <actObj1.3988+0x28>
    3138:	c7 c4       	rjmp	.+2446   	; 0x3ac8 <ProcessInput+0xc6a>
                    SetResponse(elements++, A_DONTSEE, L_DONTSEE, TEASER);                
                }
            }

        //Look around or at objects
        } else if (data[0] == 'l') {
    313a:	8c 36       	cpi	r24, 0x6C	; 108
    313c:	09 f0       	breq	.+2      	; 0x3140 <ProcessInput+0x2e2>
    313e:	58 c1       	rjmp	.+688    	; 0x33f0 <ProcessInput+0x592>
    3140:	e0 91 2e 38 	lds	r30, 0x382E	; 0x80382e <currDepth>
            if (inputLen == 1) {
    3144:	b1 e0       	ldi	r27, 0x01	; 1
    3146:	fb 12       	cpse	r15, r27
    3148:	f1 c0       	rjmp	.+482    	; 0x332c <ProcessInput+0x4ce>

                //Show info about this area first
                SetResponse(elements++, currObj.addrStr[DESC], currObj.lenStr[DESC],GAME);
    314a:	80 91 37 3a 	lds	r24, 0x3A37	; 0x803a37 <currObj+0x1c>
    314e:	90 91 38 3a 	lds	r25, 0x3A38	; 0x803a38 <currObj+0x1d>
    return 0;
}

//
void SetResponse(uint8_t number, uint16_t address, uint16_t length, uint8_t type){
    reactStr[0][number]=address;
    3152:	40 91 29 3a 	lds	r20, 0x3A29	; 0x803a29 <currObj+0xe>
    3156:	50 91 2a 3a 	lds	r21, 0x3A2A	; 0x803a2a <currObj+0xf>
    315a:	40 93 1d 39 	sts	0x391D, r20	; 0x80391d <reactStr+0x2>
    315e:	50 93 1e 39 	sts	0x391E, r21	; 0x80391e <reactStr+0x3>
    reactStr[1][number]=length;
    3162:	80 93 5d 39 	sts	0x395D, r24	; 0x80395d <reactStr+0x42>
    3166:	90 93 5e 39 	sts	0x395E, r25	; 0x80395e <reactStr+0x43>
    reactStr[2][number]=type;
    316a:	10 92 9d 39 	sts	0x399D, r1	; 0x80399d <reactStr+0x82>
    316e:	10 92 9e 39 	sts	0x399E, r1	; 0x80399e <reactStr+0x83>
    return 0;
}

//
void SetResponse(uint8_t number, uint16_t address, uint16_t length, uint8_t type){
    reactStr[0][number]=address;
    3172:	20 93 1f 39 	sts	0x391F, r18	; 0x80391f <reactStr+0x4>
    3176:	30 93 20 39 	sts	0x3920, r19	; 0x803920 <reactStr+0x5>
    reactStr[1][number]=length;
    317a:	82 e0       	ldi	r24, 0x02	; 2
    317c:	90 e0       	ldi	r25, 0x00	; 0
    317e:	80 93 5f 39 	sts	0x395F, r24	; 0x80395f <reactStr+0x44>
    3182:	90 93 60 39 	sts	0x3960, r25	; 0x803960 <reactStr+0x45>
    reactStr[2][number]=type;
    3186:	00 93 9f 39 	sts	0x399F, r16	; 0x80399f <reactStr+0x84>
    318a:	10 93 a0 39 	sts	0x39A0, r17	; 0x8039a0 <reactStr+0x85>
    return 0;
}

//
void SetResponse(uint8_t number, uint16_t address, uint16_t length, uint8_t type){
    reactStr[0][number]=address;
    318e:	8b ee       	ldi	r24, 0xEB	; 235
    3190:	99 e7       	ldi	r25, 0x79	; 121
    3192:	80 93 21 39 	sts	0x3921, r24	; 0x803921 <reactStr+0x6>
    3196:	90 93 22 39 	sts	0x3922, r25	; 0x803922 <reactStr+0x7>
    reactStr[1][number]=length;
    319a:	85 e1       	ldi	r24, 0x15	; 21
    319c:	90 e0       	ldi	r25, 0x00	; 0
    319e:	80 93 61 39 	sts	0x3961, r24	; 0x803961 <reactStr+0x46>
    31a2:	90 93 62 39 	sts	0x3962, r25	; 0x803962 <reactStr+0x47>
    reactStr[2][number]=type;
    31a6:	00 93 a1 39 	sts	0x39A1, r16	; 0x8039a1 <reactStr+0x86>
    31aa:	10 93 a2 39 	sts	0x39A2, r17	; 0x8039a2 <reactStr+0x87>
                SetResponse(elements++, currObj.addrStr[DESC], currObj.lenStr[DESC],GAME);
                SetResponse(elements++, A_LF, 2, TEASER);
                SetResponse(elements++, A_LOOK, L_LOOK, TEASER);

                //Check the visible children first
                route[currDepth+1] = 0;
    31ae:	f0 e0       	ldi	r31, 0x00	; 0
    31b0:	ee 0f       	add	r30, r30
    31b2:	ff 1f       	adc	r31, r31
    31b4:	e3 52       	subi	r30, 0x23	; 35
    31b6:	f6 4c       	sbci	r31, 0xC6	; 198
    31b8:	10 82       	st	Z, r1
    31ba:	11 82       	std	Z+1, r1	; 0x01
            if (inputLen == 1) {

                //Show info about this area first
                SetResponse(elements++, currObj.addrStr[DESC], currObj.lenStr[DESC],GAME);
                SetResponse(elements++, A_LF, 2, TEASER);
                SetResponse(elements++, A_LOOK, L_LOOK, TEASER);
    31bc:	b4 e0       	ldi	r27, 0x04	; 4
    31be:	9b 2e       	mov	r9, r27
    return 0;
}

//
void SetResponse(uint8_t number, uint16_t address, uint16_t length, uint8_t type){
    reactStr[0][number]=address;
    31c0:	17 e5       	ldi	r17, 0x57	; 87
    31c2:	e1 2e       	mov	r14, r17
    31c4:	1a e7       	ldi	r17, 0x7A	; 122
    31c6:	f1 2e       	mov	r15, r17
    reactStr[1][number]=length;
    31c8:	02 e0       	ldi	r16, 0x02	; 2
    31ca:	c0 2e       	mov	r12, r16
    31cc:	d1 2c       	mov	r13, r1
    reactStr[2][number]=type;
    31ce:	aa 24       	eor	r10, r10
    31d0:	a3 94       	inc	r10
    31d2:	b1 2c       	mov	r11, r1
                SetResponse(elements++, A_LOOK, L_LOOK, TEASER);

                //Check the visible children first
                route[currDepth+1] = 0;
                do{
                    route[currDepth+1] = FindChild(route[currDepth], 0, route[currDepth+1]);
    31d4:	80 91 2e 38 	lds	r24, 0x382E	; 0x80382e <currDepth>
    31d8:	90 e0       	ldi	r25, 0x00	; 0
    31da:	8c 01       	movw	r16, r24
    31dc:	00 0f       	add	r16, r16
    31de:	11 1f       	adc	r17, r17
    31e0:	03 52       	subi	r16, 0x23	; 35
    31e2:	16 4c       	sbci	r17, 0xC6	; 198
    31e4:	f8 01       	movw	r30, r16
    31e6:	40 81       	ld	r20, Z
    31e8:	51 81       	ldd	r21, Z+1	; 0x01
    31ea:	88 0f       	add	r24, r24
    31ec:	99 1f       	adc	r25, r25
    31ee:	fc 01       	movw	r30, r24
    31f0:	e5 52       	subi	r30, 0x25	; 37
    31f2:	f6 4c       	sbci	r31, 0xC6	; 198
    31f4:	60 e0       	ldi	r22, 0x00	; 0
    31f6:	80 81       	ld	r24, Z
    31f8:	91 81       	ldd	r25, Z+1	; 0x01
    31fa:	1a da       	rcall	.-3020   	; 0x2630 <FindChild>
    31fc:	d8 01       	movw	r26, r16
    31fe:	8d 93       	st	X+, r24
    3200:	9c 93       	st	X, r25
                    if (route[currDepth+1]) {
    3202:	e0 91 2e 38 	lds	r30, 0x382E	; 0x80382e <currDepth>
    3206:	f0 e0       	ldi	r31, 0x00	; 0
    3208:	ee 0f       	add	r30, r30
    320a:	ff 1f       	adc	r31, r31
    320c:	e3 52       	subi	r30, 0x23	; 35
    320e:	f6 4c       	sbci	r31, 0xC6	; 198
    3210:	80 81       	ld	r24, Z
    3212:	91 81       	ldd	r25, Z+1	; 0x01
    3214:	00 97       	sbiw	r24, 0x00	; 0
    3216:	09 f4       	brne	.+2      	; 0x321a <ProcessInput+0x3bc>
    3218:	4a c0       	rjmp	.+148    	; 0x32ae <ProcessInput+0x450>
                        if ((route[currDepth+1] != inventory[0])&&(route[currDepth+1] != inventory[1])) {
    321a:	20 91 3e 38 	lds	r18, 0x383E	; 0x80383e <inventory>
    321e:	30 91 3f 38 	lds	r19, 0x383F	; 0x80383f <inventory+0x1>
    3222:	82 17       	cp	r24, r18
    3224:	93 07       	cpc	r25, r19
    3226:	09 f4       	brne	.+2      	; 0x322a <ProcessInput+0x3cc>
    3228:	42 c0       	rjmp	.+132    	; 0x32ae <ProcessInput+0x450>
    322a:	20 91 40 38 	lds	r18, 0x3840	; 0x803840 <inventory+0x2>
    322e:	30 91 41 38 	lds	r19, 0x3841	; 0x803841 <inventory+0x3>
    3232:	82 17       	cp	r24, r18
    3234:	93 07       	cpc	r25, r19
                            PopulateObject(route[currDepth+1], &actObj1);
    3236:	d9 f1       	breq	.+118    	; 0x32ae <ProcessInput+0x450>
    3238:	6a ed       	ldi	r22, 0xDA	; 218
    323a:	78 e3       	ldi	r23, 0x38	; 56
    323c:	2a d9       	rcall	.-3500   	; 0x2492 <PopulateObject>
                            SetResponse(elements++, actObj1.addrStr[NAME], actObj1.lenStr[NAME],GAME);
    323e:	80 91 f4 38 	lds	r24, 0x38F4	; 0x8038f4 <actObj1.3988+0x1a>
    3242:	90 91 f5 38 	lds	r25, 0x38F5	; 0x8038f5 <actObj1.3988+0x1b>
    return 0;
}

//
void SetResponse(uint8_t number, uint16_t address, uint16_t length, uint8_t type){
    reactStr[0][number]=address;
    3246:	e9 2d       	mov	r30, r9
    3248:	f0 e0       	ldi	r31, 0x00	; 0
    324a:	df 01       	movw	r26, r30
    324c:	aa 0f       	add	r26, r26
    324e:	bb 1f       	adc	r27, r27
    3250:	a5 5e       	subi	r26, 0xE5	; 229
    3252:	b6 4c       	sbci	r27, 0xC6	; 198
    3254:	20 91 e6 38 	lds	r18, 0x38E6	; 0x8038e6 <actObj1.3988+0xc>
    3258:	30 91 e7 38 	lds	r19, 0x38E7	; 0x8038e7 <actObj1.3988+0xd>
    325c:	2d 93       	st	X+, r18
    325e:	3c 93       	st	X, r19
    reactStr[1][number]=length;
    3260:	df 01       	movw	r26, r30
    3262:	aa 0f       	add	r26, r26
    3264:	bb 1f       	adc	r27, r27
    3266:	a5 5a       	subi	r26, 0xA5	; 165
    3268:	b6 4c       	sbci	r27, 0xC6	; 198
    326a:	8d 93       	st	X+, r24
    326c:	9c 93       	st	X, r25
    reactStr[2][number]=type;
    326e:	ee 0f       	add	r30, r30
    3270:	ff 1f       	adc	r31, r31
    3272:	e5 56       	subi	r30, 0x65	; 101
    3274:	f6 4c       	sbci	r31, 0xC6	; 198
    3276:	10 82       	st	Z, r1
    3278:	11 82       	std	Z+1, r1	; 0x01
    return 0;
}

//
void SetResponse(uint8_t number, uint16_t address, uint16_t length, uint8_t type){
    reactStr[0][number]=address;
    327a:	81 e0       	ldi	r24, 0x01	; 1
    327c:	89 0d       	add	r24, r9
    327e:	90 e0       	ldi	r25, 0x00	; 0
    3280:	93 94       	inc	r9
    3282:	93 94       	inc	r9
    3284:	fc 01       	movw	r30, r24
    3286:	ee 0f       	add	r30, r30
    3288:	ff 1f       	adc	r31, r31
    328a:	e5 5e       	subi	r30, 0xE5	; 229
    328c:	f6 4c       	sbci	r31, 0xC6	; 198
    328e:	e0 82       	st	Z, r14
    3290:	f1 82       	std	Z+1, r15	; 0x01
    reactStr[1][number]=length;
    3292:	fc 01       	movw	r30, r24
    3294:	ee 0f       	add	r30, r30
    3296:	ff 1f       	adc	r31, r31
    3298:	e5 5a       	subi	r30, 0xA5	; 165
    329a:	f6 4c       	sbci	r31, 0xC6	; 198
    329c:	c0 82       	st	Z, r12
    329e:	d1 82       	std	Z+1, r13	; 0x01
    reactStr[2][number]=type;
    32a0:	88 0f       	add	r24, r24
    32a2:	99 1f       	adc	r25, r25
    32a4:	fc 01       	movw	r30, r24
    32a6:	e5 56       	subi	r30, 0x65	; 101
    32a8:	f6 4c       	sbci	r31, 0xC6	; 198
    32aa:	a0 82       	st	Z, r10
    32ac:	b1 82       	std	Z+1, r11	; 0x01
                            PopulateObject(route[currDepth+1], &actObj1);
                            SetResponse(elements++, actObj1.addrStr[NAME], actObj1.lenStr[NAME],GAME);
                            SetResponse(elements++, A_COMMA, L_COMMA, TEASER);
                        }
                    }
                }while (route[currDepth+1]);
    32ae:	20 91 2e 38 	lds	r18, 0x382E	; 0x80382e <currDepth>
    32b2:	82 2f       	mov	r24, r18
    32b4:	90 e0       	ldi	r25, 0x00	; 0
    32b6:	fc 01       	movw	r30, r24
    32b8:	ee 0f       	add	r30, r30
    32ba:	ff 1f       	adc	r31, r31
    32bc:	e3 52       	subi	r30, 0x23	; 35
    32be:	f6 4c       	sbci	r31, 0xC6	; 198
    32c0:	40 81       	ld	r20, Z
    32c2:	51 81       	ldd	r21, Z+1	; 0x01
    32c4:	45 2b       	or	r20, r21
    32c6:	09 f0       	breq	.+2      	; 0x32ca <ProcessInput+0x46c>
    32c8:	85 cf       	rjmp	.-246    	; 0x31d4 <ProcessInput+0x376>

                //Look back if not on level 0
                if (currDepth) {
    32ca:	22 23       	and	r18, r18
    32cc:	61 f1       	breq	.+88     	; 0x3326 <ProcessInput+0x4c8>
                    PopulateObject(route[currDepth-1], &actObj1);
    32ce:	88 0f       	add	r24, r24
    32d0:	99 1f       	adc	r25, r25
    32d2:	fc 01       	movw	r30, r24
    32d4:	e7 52       	subi	r30, 0x27	; 39
    32d6:	f6 4c       	sbci	r31, 0xC6	; 198
    32d8:	6a ed       	ldi	r22, 0xDA	; 218
    32da:	78 e3       	ldi	r23, 0x38	; 56
    32dc:	80 81       	ld	r24, Z
    32de:	91 81       	ldd	r25, Z+1	; 0x01
    32e0:	d8 d8       	rcall	.-3664   	; 0x2492 <PopulateObject>
                    SetResponse(elements++, actObj1.addrStr[NAME], actObj1.lenStr[NAME],GAME);
    32e2:	20 91 f4 38 	lds	r18, 0x38F4	; 0x8038f4 <actObj1.3988+0x1a>
    32e6:	30 91 f5 38 	lds	r19, 0x38F5	; 0x8038f5 <actObj1.3988+0x1b>
    32ea:	11 e0       	ldi	r17, 0x01	; 1
    32ec:	19 0d       	add	r17, r9
    return 0;
}

//
void SetResponse(uint8_t number, uint16_t address, uint16_t length, uint8_t type){
    reactStr[0][number]=address;
    32ee:	89 2d       	mov	r24, r9
    32f0:	90 e0       	ldi	r25, 0x00	; 0
    32f2:	fc 01       	movw	r30, r24
    32f4:	ee 0f       	add	r30, r30
    32f6:	ff 1f       	adc	r31, r31
    32f8:	e5 5e       	subi	r30, 0xE5	; 229
    32fa:	f6 4c       	sbci	r31, 0xC6	; 198
    32fc:	40 91 e6 38 	lds	r20, 0x38E6	; 0x8038e6 <actObj1.3988+0xc>
    3300:	50 91 e7 38 	lds	r21, 0x38E7	; 0x8038e7 <actObj1.3988+0xd>
    3304:	40 83       	st	Z, r20
    3306:	51 83       	std	Z+1, r21	; 0x01
    reactStr[1][number]=length;
    3308:	fc 01       	movw	r30, r24
    330a:	ee 0f       	add	r30, r30
    330c:	ff 1f       	adc	r31, r31
    330e:	e5 5a       	subi	r30, 0xA5	; 165
    3310:	f6 4c       	sbci	r31, 0xC6	; 198
    3312:	20 83       	st	Z, r18
    3314:	31 83       	std	Z+1, r19	; 0x01
    reactStr[2][number]=type;
    3316:	88 0f       	add	r24, r24
    3318:	99 1f       	adc	r25, r25
    331a:	fc 01       	movw	r30, r24
    331c:	e5 56       	subi	r30, 0x65	; 101
    331e:	f6 4c       	sbci	r31, 0xC6	; 198
    3320:	10 82       	st	Z, r1
    3322:	11 82       	std	Z+1, r1	; 0x01
    3324:	29 c5       	rjmp	.+2642   	; 0x3d78 <ProcessInput+0xf1a>

                //Look back if not on level 0
                if (currDepth) {
                    PopulateObject(route[currDepth-1], &actObj1);
                    SetResponse(elements++, actObj1.addrStr[NAME], actObj1.lenStr[NAME],GAME);
                } else elements-=1;
    3326:	1f ef       	ldi	r17, 0xFF	; 255
    3328:	19 0d       	add	r17, r9
    332a:	26 c5       	rjmp	.+2636   	; 0x3d78 <ProcessInput+0xf1a>

            } else {
                route[currDepth+1] = FindChild(route[currDepth], data[1], 0);
    332c:	ee 2e       	mov	r14, r30
    332e:	f1 2c       	mov	r15, r1
    3330:	f7 01       	movw	r30, r14
    3332:	ee 0f       	add	r30, r30
    3334:	ff 1f       	adc	r31, r31
    3336:	e5 52       	subi	r30, 0x25	; 37
    3338:	f6 4c       	sbci	r31, 0xC6	; 198
    333a:	40 e0       	ldi	r20, 0x00	; 0
    333c:	50 e0       	ldi	r21, 0x00	; 0
    333e:	d3 01       	movw	r26, r6
    3340:	11 96       	adiw	r26, 0x01	; 1
    3342:	6c 91       	ld	r22, X
    3344:	80 81       	ld	r24, Z
    3346:	91 81       	ldd	r25, Z+1	; 0x01
    3348:	73 d9       	rcall	.-3354   	; 0x2630 <FindChild>
    334a:	f7 01       	movw	r30, r14
    334c:	ee 0f       	add	r30, r30
    334e:	ff 1f       	adc	r31, r31
    3350:	e3 52       	subi	r30, 0x23	; 35
    3352:	f6 4c       	sbci	r31, 0xC6	; 198
    3354:	80 83       	st	Z, r24
    3356:	91 83       	std	Z+1, r25	; 0x01
                if (route[currDepth+1]) {
    3358:	90 91 2e 38 	lds	r25, 0x382E	; 0x80382e <currDepth>
    335c:	29 2f       	mov	r18, r25
    335e:	30 e0       	ldi	r19, 0x00	; 0
    3360:	f9 01       	movw	r30, r18
    3362:	ee 0f       	add	r30, r30
    3364:	ff 1f       	adc	r31, r31
    3366:	e3 52       	subi	r30, 0x23	; 35
    3368:	f6 4c       	sbci	r31, 0xC6	; 198
    336a:	40 81       	ld	r20, Z
    336c:	51 81       	ldd	r21, Z+1	; 0x01
    336e:	41 15       	cp	r20, r1
    3370:	51 05       	cpc	r21, r1
    3372:	21 f0       	breq	.+8      	; 0x337c <ProcessInput+0x51e>
                    PopulateObject(route[currDepth+1], &actObj1);
    3374:	6a ed       	ldi	r22, 0xDA	; 218
    3376:	78 e3       	ldi	r23, 0x38	; 56
    3378:	ca 01       	movw	r24, r20
    337a:	1b c0       	rjmp	.+54     	; 0x33b2 <ProcessInput+0x554>
                    SetResponse(elements++, actObj1.addrStr[DESC], actObj1.lenStr[DESC],GAME);   
                } else if (currDepth) {
    337c:	99 23       	and	r25, r25
                    if (CheckLetter(route[currDepth-1], data[1])) {
    337e:	79 f1       	breq	.+94     	; 0x33de <ProcessInput+0x580>
    3380:	22 0f       	add	r18, r18
    3382:	33 1f       	adc	r19, r19
    3384:	f9 01       	movw	r30, r18
    3386:	e7 52       	subi	r30, 0x27	; 39
    3388:	f6 4c       	sbci	r31, 0xC6	; 198
    338a:	d3 01       	movw	r26, r6
    338c:	11 96       	adiw	r26, 0x01	; 1
    338e:	6c 91       	ld	r22, X
    3390:	80 81       	ld	r24, Z
    3392:	91 81       	ldd	r25, Z+1	; 0x01
    3394:	f7 d8       	rcall	.-3602   	; 0x2584 <CheckLetter>
    3396:	88 23       	and	r24, r24
    3398:	09 f4       	brne	.+2      	; 0x339c <ProcessInput+0x53e>
                        PopulateObject(route[currDepth-1], &actObj1);
    339a:	f2 cd       	rjmp	.-1052   	; 0x2f80 <ProcessInput+0x122>
    339c:	e0 91 2e 38 	lds	r30, 0x382E	; 0x80382e <currDepth>
    33a0:	f0 e0       	ldi	r31, 0x00	; 0
    33a2:	ee 0f       	add	r30, r30
    33a4:	ff 1f       	adc	r31, r31
    33a6:	e7 52       	subi	r30, 0x27	; 39
    33a8:	f6 4c       	sbci	r31, 0xC6	; 198
    33aa:	6a ed       	ldi	r22, 0xDA	; 218
    33ac:	78 e3       	ldi	r23, 0x38	; 56
    33ae:	80 81       	ld	r24, Z
    33b0:	91 81       	ldd	r25, Z+1	; 0x01
    33b2:	6f d8       	rcall	.-3874   	; 0x2492 <PopulateObject>
                        SetResponse(elements++, actObj1.addrStr[DESC], actObj1.lenStr[DESC],GAME);
    33b4:	80 91 f6 38 	lds	r24, 0x38F6	; 0x8038f6 <actObj1.3988+0x1c>
    33b8:	90 91 f7 38 	lds	r25, 0x38F7	; 0x8038f7 <actObj1.3988+0x1d>
    return 0;
}

//
void SetResponse(uint8_t number, uint16_t address, uint16_t length, uint8_t type){
    reactStr[0][number]=address;
    33bc:	20 91 e8 38 	lds	r18, 0x38E8	; 0x8038e8 <actObj1.3988+0xe>
    33c0:	30 91 e9 38 	lds	r19, 0x38E9	; 0x8038e9 <actObj1.3988+0xf>
    33c4:	20 93 1d 39 	sts	0x391D, r18	; 0x80391d <reactStr+0x2>
    33c8:	30 93 1e 39 	sts	0x391E, r19	; 0x80391e <reactStr+0x3>
    reactStr[1][number]=length;
    33cc:	80 93 5d 39 	sts	0x395D, r24	; 0x80395d <reactStr+0x42>
    33d0:	90 93 5e 39 	sts	0x395E, r25	; 0x80395e <reactStr+0x43>
    reactStr[2][number]=type;
    33d4:	10 92 9d 39 	sts	0x399D, r1	; 0x80399d <reactStr+0x82>
    33d8:	10 92 9e 39 	sts	0x399E, r1	; 0x80399e <reactStr+0x83>
    33dc:	33 ce       	rjmp	.-922    	; 0x3044 <ProcessInput+0x1e6>
    return 0;
}

//
void SetResponse(uint8_t number, uint16_t address, uint16_t length, uint8_t type){
    reactStr[0][number]=address;
    33de:	81 ed       	ldi	r24, 0xD1	; 209
    33e0:	99 e7       	ldi	r25, 0x79	; 121
    33e2:	80 93 1d 39 	sts	0x391D, r24	; 0x80391d <reactStr+0x2>
    33e6:	90 93 1e 39 	sts	0x391E, r25	; 0x80391e <reactStr+0x3>
    reactStr[1][number]=length;
    33ea:	8a e1       	ldi	r24, 0x1A	; 26
    33ec:	90 e0       	ldi	r25, 0x00	; 0
    33ee:	cb c2       	rjmp	.+1430   	; 0x3986 <ProcessInput+0xb28>
                    SetResponse(elements++, A_DONTSEE, L_DONTSEE, TEASER);
                }
            }
        
        //Pick up an object
        } else if (data[0] == 'p') {
    33f0:	80 37       	cpi	r24, 0x70	; 112
    33f2:	09 f0       	breq	.+2      	; 0x33f6 <ProcessInput+0x598>
    33f4:	93 c0       	rjmp	.+294    	; 0x351c <ProcessInput+0x6be>
            if (inventory[0]&&inventory[1]) {
    33f6:	80 91 3e 38 	lds	r24, 0x383E	; 0x80383e <inventory>
    33fa:	90 91 3f 38 	lds	r25, 0x383F	; 0x80383f <inventory+0x1>
    33fe:	89 2b       	or	r24, r25
    3400:	79 f0       	breq	.+30     	; 0x3420 <ProcessInput+0x5c2>
    3402:	80 91 40 38 	lds	r24, 0x3840	; 0x803840 <inventory+0x2>
    3406:	90 91 41 38 	lds	r25, 0x3841	; 0x803841 <inventory+0x3>
    340a:	89 2b       	or	r24, r25
    340c:	49 f0       	breq	.+18     	; 0x3420 <ProcessInput+0x5c2>
    return 0;
}

//
void SetResponse(uint8_t number, uint16_t address, uint16_t length, uint8_t type){
    reactStr[0][number]=address;
    340e:	87 e0       	ldi	r24, 0x07	; 7
    3410:	98 e7       	ldi	r25, 0x78	; 120
    3412:	80 93 1d 39 	sts	0x391D, r24	; 0x80391d <reactStr+0x2>
    3416:	90 93 1e 39 	sts	0x391E, r25	; 0x80391e <reactStr+0x3>
    reactStr[1][number]=length;
    341a:	89 e5       	ldi	r24, 0x59	; 89
    341c:	90 e0       	ldi	r25, 0x00	; 0
    341e:	b3 c2       	rjmp	.+1382   	; 0x3986 <ProcessInput+0xb28>
        
        //Pick up an object
        } else if (data[0] == 'p') {
            if (inventory[0]&&inventory[1]) {
                SetResponse(elements++, A_CARRYTWO, L_CARRYTWO, TEASER);
            } else if (inputLen != 2) {
    3420:	b2 e0       	ldi	r27, 0x02	; 2
    3422:	fb 12       	cpse	r15, r27
    3424:	5c cd       	rjmp	.-1352   	; 0x2ede <ProcessInput+0x80>
                SetResponse(elements++, A_NOTPOSSIBLE, L_NOTPOSSIBLE, TEASER);
            } else {
                route[currDepth+1] = FindChild(route[currDepth], data[1], 0);
    3426:	00 91 2e 38 	lds	r16, 0x382E	; 0x80382e <currDepth>
    342a:	10 e0       	ldi	r17, 0x00	; 0
    342c:	f8 01       	movw	r30, r16
    342e:	ee 0f       	add	r30, r30
    3430:	ff 1f       	adc	r31, r31
    3432:	e5 52       	subi	r30, 0x25	; 37
    3434:	f6 4c       	sbci	r31, 0xC6	; 198
    3436:	40 e0       	ldi	r20, 0x00	; 0
    3438:	50 e0       	ldi	r21, 0x00	; 0
    343a:	d3 01       	movw	r26, r6
    343c:	11 96       	adiw	r26, 0x01	; 1
    343e:	6c 91       	ld	r22, X
    3440:	80 81       	ld	r24, Z
    3442:	91 81       	ldd	r25, Z+1	; 0x01
    3444:	f5 d8       	rcall	.-3606   	; 0x2630 <FindChild>
    3446:	00 0f       	add	r16, r16
    3448:	11 1f       	adc	r17, r17
    344a:	f8 01       	movw	r30, r16
    344c:	e3 52       	subi	r30, 0x23	; 35
    344e:	f6 4c       	sbci	r31, 0xC6	; 198
    3450:	80 83       	st	Z, r24
    3452:	91 83       	std	Z+1, r25	; 0x01
                if (route[currDepth+1]) {
    3454:	20 91 2e 38 	lds	r18, 0x382E	; 0x80382e <currDepth>
    3458:	30 e0       	ldi	r19, 0x00	; 0
    345a:	2f 5f       	subi	r18, 0xFF	; 255
    345c:	3f 4f       	sbci	r19, 0xFF	; 255
    345e:	22 0f       	add	r18, r18
    3460:	33 1f       	adc	r19, r19
    3462:	f9 01       	movw	r30, r18
    3464:	e5 52       	subi	r30, 0x25	; 37
    3466:	f6 4c       	sbci	r31, 0xC6	; 198
    3468:	80 81       	ld	r24, Z
    346a:	91 81       	ldd	r25, Z+1	; 0x01
    346c:	00 97       	sbiw	r24, 0x00	; 0
    346e:	09 f4       	brne	.+2      	; 0x3472 <ProcessInput+0x614>
    3470:	40 c3       	rjmp	.+1664   	; 0x3af2 <ProcessInput+0xc94>
                    if ((route[currDepth+1] == inventory[0])||(route[currDepth+1] == inventory[1])) {
    3472:	40 91 3e 38 	lds	r20, 0x383E	; 0x80383e <inventory>
    3476:	50 91 3f 38 	lds	r21, 0x383F	; 0x80383f <inventory+0x1>
    347a:	84 17       	cp	r24, r20
    347c:	95 07       	cpc	r25, r21
    347e:	39 f0       	breq	.+14     	; 0x348e <ProcessInput+0x630>
    3480:	40 91 40 38 	lds	r20, 0x3840	; 0x803840 <inventory+0x2>
    3484:	50 91 41 38 	lds	r21, 0x3841	; 0x803841 <inventory+0x3>
    3488:	84 17       	cp	r24, r20
    348a:	95 07       	cpc	r25, r21
    348c:	c1 f4       	brne	.+48     	; 0x34be <ProcessInput+0x660>
    return 0;
}

//
void SetResponse(uint8_t number, uint16_t address, uint16_t length, uint8_t type){
    reactStr[0][number]=address;
    348e:	82 ee       	ldi	r24, 0xE2	; 226
    3490:	97 e7       	ldi	r25, 0x77	; 119
    3492:	80 93 1d 39 	sts	0x391D, r24	; 0x80391d <reactStr+0x2>
    3496:	90 93 1e 39 	sts	0x391E, r25	; 0x80391e <reactStr+0x3>
    reactStr[1][number]=length;
    349a:	85 e2       	ldi	r24, 0x25	; 37
    349c:	90 e0       	ldi	r25, 0x00	; 0
    349e:	80 93 5d 39 	sts	0x395D, r24	; 0x80395d <reactStr+0x42>
    34a2:	90 93 5e 39 	sts	0x395E, r25	; 0x80395e <reactStr+0x43>
    reactStr[2][number]=type;
    34a6:	81 e0       	ldi	r24, 0x01	; 1
    34a8:	90 e0       	ldi	r25, 0x00	; 0
    34aa:	80 93 9d 39 	sts	0x399D, r24	; 0x80399d <reactStr+0x82>
    34ae:	90 93 9e 39 	sts	0x399E, r25	; 0x80399e <reactStr+0x83>
            } else {
                route[currDepth+1] = FindChild(route[currDepth], data[1], 0);
                if (route[currDepth+1]) {
                    if ((route[currDepth+1] == inventory[0])||(route[currDepth+1] == inventory[1])) {
                        SetResponse(elements++, A_ALREADYCARRYING, L_ALREADYCARRYING, TEASER);
                        route[currDepth+1] = 0;
    34b2:	f9 01       	movw	r30, r18
    34b4:	e5 52       	subi	r30, 0x25	; 37
    34b6:	f6 4c       	sbci	r31, 0xC6	; 198
    34b8:	10 82       	st	Z, r1
    34ba:	11 82       	std	Z+1, r1	; 0x01
    34bc:	c3 cd       	rjmp	.-1146   	; 0x3044 <ProcessInput+0x1e6>
                    } else {
                        //Put item in the inventory if possible
                        PopulateObject(route[currDepth+1], &actObj1);  
    34be:	6a ed       	ldi	r22, 0xDA	; 218
    34c0:	78 e3       	ldi	r23, 0x38	; 56
    34c2:	0e 94 49 12 	call	0x2492	; 0x2492 <PopulateObject>
                        if (CheckState(actObj1.byteField[ACTION_ACL])) {
    34c6:	80 91 e1 38 	lds	r24, 0x38E1	; 0x8038e1 <actObj1.3988+0x7>
    34ca:	0e 94 54 0a 	call	0x14a8	; 0x14a8 <CheckState>
    34ce:	88 23       	and	r24, r24
    34d0:	09 f4       	brne	.+2      	; 0x34d4 <ProcessInput+0x676>
    34d2:	e4 c2       	rjmp	.+1480   	; 0x3a9c <ProcessInput+0xc3e>
                            if (actObj1.byteField[ITEM_NR]) {
    34d4:	80 91 e5 38 	lds	r24, 0x38E5	; 0x8038e5 <actObj1.3988+0xb>
    34d8:	88 23       	and	r24, r24
    34da:	09 f4       	brne	.+2      	; 0x34de <ProcessInput+0x680>
    34dc:	00 cd       	rjmp	.-1536   	; 0x2ede <ProcessInput+0x80>
                                if (inventory[0]) {
    34de:	80 91 3e 38 	lds	r24, 0x383E	; 0x80383e <inventory>
    34e2:	90 91 3f 38 	lds	r25, 0x383F	; 0x80383f <inventory+0x1>
    34e6:	e0 91 2e 38 	lds	r30, 0x382E	; 0x80382e <currDepth>
                                    inventory[1] = route[currDepth+1];
    34ea:	f0 e0       	ldi	r31, 0x00	; 0
    34ec:	ee 0f       	add	r30, r30
    34ee:	ff 1f       	adc	r31, r31
    34f0:	e3 52       	subi	r30, 0x23	; 35
    34f2:	f6 4c       	sbci	r31, 0xC6	; 198
                    } else {
                        //Put item in the inventory if possible
                        PopulateObject(route[currDepth+1], &actObj1);  
                        if (CheckState(actObj1.byteField[ACTION_ACL])) {
                            if (actObj1.byteField[ITEM_NR]) {
                                if (inventory[0]) {
    34f4:	89 2b       	or	r24, r25
    34f6:	39 f0       	breq	.+14     	; 0x3506 <ProcessInput+0x6a8>
                                    inventory[1] = route[currDepth+1];
    34f8:	80 81       	ld	r24, Z
    34fa:	91 81       	ldd	r25, Z+1	; 0x01
    34fc:	80 93 40 38 	sts	0x3840, r24	; 0x803840 <inventory+0x2>
    3500:	90 93 41 38 	sts	0x3841, r25	; 0x803841 <inventory+0x3>
    3504:	06 c0       	rjmp	.+12     	; 0x3512 <ProcessInput+0x6b4>
                                } else {
                                    inventory[0] = route[currDepth+1];
    3506:	80 81       	ld	r24, Z
    3508:	91 81       	ldd	r25, Z+1	; 0x01
    350a:	80 93 3e 38 	sts	0x383E, r24	; 0x80383e <inventory>
    350e:	90 93 3f 38 	sts	0x383F, r25	; 0x80383f <inventory+0x1>
                                }
                                UpdateState(actObj1.byteField[ACTION_STATE]);
    3512:	80 91 e4 38 	lds	r24, 0x38E4	; 0x8038e4 <actObj1.3988+0xa>
    3516:	0e 94 4a 0a 	call	0x1494	; 0x1494 <UpdateState>
    351a:	2b c0       	rjmp	.+86     	; 0x3572 <ProcessInput+0x714>
                } else SetResponse(elements++, A_NOSUCHOBJECT, L_NOSUCHOBJECT, TEASER);
            }
        } else

        //Drop item if in inventory
        if (data[0] == 'd') {
    351c:	84 36       	cpi	r24, 0x64	; 100
    351e:	d9 f4       	brne	.+54     	; 0x3556 <ProcessInput+0x6f8>
            if ((inventory[0] == 0)&&(inventory[1] == 0)){
    3520:	80 91 3e 38 	lds	r24, 0x383E	; 0x80383e <inventory>
    3524:	90 91 3f 38 	lds	r25, 0x383F	; 0x80383f <inventory+0x1>
    3528:	00 97       	sbiw	r24, 0x00	; 0
    352a:	09 f0       	breq	.+2      	; 0x352e <ProcessInput+0x6d0>
    352c:	3d c4       	rjmp	.+2170   	; 0x3da8 <ProcessInput+0xf4a>
    352e:	80 91 40 38 	lds	r24, 0x3840	; 0x803840 <inventory+0x2>
    3532:	90 91 41 38 	lds	r25, 0x3841	; 0x803841 <inventory+0x3>
    3536:	89 2b       	or	r24, r25
    3538:	49 f4       	brne	.+18     	; 0x354c <ProcessInput+0x6ee>
    return 0;
}

//
void SetResponse(uint8_t number, uint16_t address, uint16_t length, uint8_t type){
    reactStr[0][number]=address;
    353a:	86 ea       	ldi	r24, 0xA6	; 166
    353c:	97 e7       	ldi	r25, 0x77	; 119
    353e:	80 93 1d 39 	sts	0x391D, r24	; 0x80391d <reactStr+0x2>
    3542:	90 93 1e 39 	sts	0x391E, r25	; 0x80391e <reactStr+0x3>
    reactStr[1][number]=length;
    3546:	86 e2       	ldi	r24, 0x26	; 38
    3548:	90 e0       	ldi	r25, 0x00	; 0
    354a:	72 cd       	rjmp	.-1308   	; 0x3030 <ProcessInput+0x1d2>

        //Drop item if in inventory
        if (data[0] == 'd') {
            if ((inventory[0] == 0)&&(inventory[1] == 0)){
                SetResponse(elements++, A_EMPTYHANDS, L_EMPTYHANDS, TEASER);
            } else if (inputLen != 2) {
    354c:	b2 e0       	ldi	r27, 0x02	; 2
    354e:	fb 16       	cp	r15, r27
    3550:	09 f4       	brne	.+2      	; 0x3554 <ProcessInput+0x6f6>
    3552:	8c c4       	rjmp	.+2328   	; 0x3e6c <ProcessInput+0x100e>
    3554:	c4 cc       	rjmp	.-1656   	; 0x2ede <ProcessInput+0x80>
                }
            }
        } 

        //Inventory list
        else if (data[0] == 'i') {
    3556:	89 36       	cpi	r24, 0x69	; 105
            if ((inventory[0] == 0)&&(inventory[1] == 0)){
    3558:	81 f4       	brne	.+32     	; 0x357a <ProcessInput+0x71c>
    355a:	80 91 3e 38 	lds	r24, 0x383E	; 0x80383e <inventory>
    355e:	90 91 3f 38 	lds	r25, 0x383F	; 0x80383f <inventory+0x1>
    3562:	89 2b       	or	r24, r25
    3564:	31 f4       	brne	.+12     	; 0x3572 <ProcessInput+0x714>
    3566:	80 91 40 38 	lds	r24, 0x3840	; 0x803840 <inventory+0x2>
    356a:	90 91 41 38 	lds	r25, 0x3841	; 0x803841 <inventory+0x3>
    356e:	89 2b       	or	r24, r25
                SetResponse(elements++, A_EMPTYHANDS, L_EMPTYHANDS, TEASER);
                } else {
                    elements = ShowInventory(elements);
    3570:	21 f3       	breq	.-56     	; 0x353a <ProcessInput+0x6dc>
    3572:	81 e0       	ldi	r24, 0x01	; 1
    3574:	e4 db       	rcall	.-2104   	; 0x2d3e <ShowInventory>
    3576:	18 2f       	mov	r17, r24
    3578:	ff c3       	rjmp	.+2046   	; 0x3d78 <ProcessInput+0xf1a>
                }        
        
        //Talk, use, give, read
        } else if ((data[0] == 't')||(data[0] == 'u')||(data[0] == 'g')||(data[0] == 'r')) {
    357a:	9c e8       	ldi	r25, 0x8C	; 140
    357c:	98 0f       	add	r25, r24
    357e:	92 30       	cpi	r25, 0x02	; 2
    3580:	28 f0       	brcs	.+10     	; 0x358c <ProcessInput+0x72e>
    3582:	87 36       	cpi	r24, 0x67	; 103
    3584:	19 f0       	breq	.+6      	; 0x358c <ProcessInput+0x72e>
    3586:	82 37       	cpi	r24, 0x72	; 114
    3588:	09 f0       	breq	.+2      	; 0x358c <ProcessInput+0x72e>
    358a:	b6 c2       	rjmp	.+1388   	; 0x3af8 <ProcessInput+0xc9a>
            if ((inputLen<2)||(inputLen>3)) {
    358c:	8e ef       	ldi	r24, 0xFE	; 254
    358e:	8f 0d       	add	r24, r15
    3590:	82 30       	cpi	r24, 0x02	; 2
    3592:	08 f0       	brcs	.+2      	; 0x3596 <ProcessInput+0x738>
    3594:	a4 cc       	rjmp	.-1720   	; 0x2ede <ProcessInput+0x80>
                SetResponse(elements++, A_NOTPOSSIBLE, L_NOTPOSSIBLE, TEASER);                
            
            //Check for visible person or object first
            } else {
                route[currDepth+1] = FindChild(route[currDepth], data[inputLen-1], 0);
    3596:	e0 91 2e 38 	lds	r30, 0x382E	; 0x80382e <currDepth>
    359a:	0e 2f       	mov	r16, r30
    359c:	10 e0       	ldi	r17, 0x00	; 0
    359e:	d3 01       	movw	r26, r6
    35a0:	af 0d       	add	r26, r15
    35a2:	b1 1d       	adc	r27, r1
    35a4:	11 97       	sbiw	r26, 0x01	; 1
    35a6:	f8 01       	movw	r30, r16
    35a8:	ee 0f       	add	r30, r30
    35aa:	ff 1f       	adc	r31, r31
    35ac:	e5 52       	subi	r30, 0x25	; 37
    35ae:	f6 4c       	sbci	r31, 0xC6	; 198
    35b0:	40 e0       	ldi	r20, 0x00	; 0
    35b2:	50 e0       	ldi	r21, 0x00	; 0
    35b4:	6c 91       	ld	r22, X
    35b6:	80 81       	ld	r24, Z
    35b8:	91 81       	ldd	r25, Z+1	; 0x01
    35ba:	3a d8       	rcall	.-3980   	; 0x2630 <FindChild>
    35bc:	f8 01       	movw	r30, r16
    35be:	ee 0f       	add	r30, r30
    35c0:	ff 1f       	adc	r31, r31
    35c2:	e3 52       	subi	r30, 0x23	; 35
    35c4:	f6 4c       	sbci	r31, 0xC6	; 198
    35c6:	80 83       	st	Z, r24
    35c8:	91 83       	std	Z+1, r25	; 0x01
                if (route[currDepth+1]) {
    35ca:	e0 91 2e 38 	lds	r30, 0x382E	; 0x80382e <currDepth>
    35ce:	f0 e0       	ldi	r31, 0x00	; 0
    35d0:	ee 0f       	add	r30, r30
    35d2:	ff 1f       	adc	r31, r31
    35d4:	e3 52       	subi	r30, 0x23	; 35
    35d6:	f6 4c       	sbci	r31, 0xC6	; 198
    35d8:	80 81       	ld	r24, Z
    35da:	91 81       	ldd	r25, Z+1	; 0x01
    35dc:	00 97       	sbiw	r24, 0x00	; 0
    35de:	09 f4       	brne	.+2      	; 0x35e2 <ProcessInput+0x784>
    35e0:	79 c2       	rjmp	.+1266   	; 0x3ad4 <ProcessInput+0xc76>
                    
                    //Give item to person / use item on object 
                    if ((inputLen == 3)&&((data[0] == 'u')||(data[0] == 'g'))) {
    35e2:	f3 e0       	ldi	r31, 0x03	; 3
    35e4:	ff 12       	cpse	r15, r31
    35e6:	61 c1       	rjmp	.+706    	; 0x38aa <ProcessInput+0xa4c>
    35e8:	d3 01       	movw	r26, r6
    35ea:	2c 91       	ld	r18, X
    35ec:	25 37       	cpi	r18, 0x75	; 117
    35ee:	19 f0       	breq	.+6      	; 0x35f6 <ProcessInput+0x798>
    35f0:	27 36       	cpi	r18, 0x67	; 103
    35f2:	09 f0       	breq	.+2      	; 0x35f6 <ProcessInput+0x798>
    35f4:	5a c1       	rjmp	.+692    	; 0x38aa <ProcessInput+0xa4c>
    35f6:	00 e0       	ldi	r16, 0x00	; 0
    35f8:	11 e0       	ldi	r17, 0x01	; 1
    return 0;
}

//
void SetResponse(uint8_t number, uint16_t address, uint16_t length, uint8_t type){
    reactStr[0][number]=address;
    35fa:	41 e6       	ldi	r20, 0x61	; 97
    35fc:	c4 2e       	mov	r12, r20
    35fe:	49 e7       	ldi	r20, 0x79	; 121
    3600:	d4 2e       	mov	r13, r20
    reactStr[1][number]=length;
    3602:	51 e2       	ldi	r21, 0x21	; 33
    3604:	a5 2e       	mov	r10, r21
    3606:	b1 2c       	mov	r11, r1
    reactStr[2][number]=type;
    3608:	88 24       	eor	r8, r8
    360a:	83 94       	inc	r8
    360c:	91 2c       	mov	r9, r1
                if (route[currDepth+1]) {
                    
                    //Give item to person / use item on object 
                    if ((inputLen == 3)&&((data[0] == 'u')||(data[0] == 'g'))) {
                        for (uint8_t x=0; x<2; x++) {
                            if (inventory[x]) { 
    360e:	e0 2e       	mov	r14, r16
    3610:	f1 2c       	mov	r15, r1
    3612:	c7 01       	movw	r24, r14
    3614:	88 0f       	add	r24, r24
    3616:	99 1f       	adc	r25, r25
    3618:	fc 01       	movw	r30, r24
    361a:	e2 5c       	subi	r30, 0xC2	; 194
    361c:	f7 4c       	sbci	r31, 0xC7	; 199
    361e:	7f 01       	movw	r14, r30
    3620:	80 81       	ld	r24, Z
    3622:	91 81       	ldd	r25, Z+1	; 0x01
    3624:	00 97       	sbiw	r24, 0x00	; 0
    3626:	81 f0       	breq	.+32     	; 0x3648 <ProcessInput+0x7ea>
                                if (CheckLetter(inventory[x], data[1])) {
    3628:	d3 01       	movw	r26, r6
    362a:	11 96       	adiw	r26, 0x01	; 1
    362c:	6c 91       	ld	r22, X
    362e:	0e 94 c2 12 	call	0x2584	; 0x2584 <CheckLetter>
    3632:	88 23       	and	r24, r24
    3634:	49 f0       	breq	.+18     	; 0x3648 <ProcessInput+0x7ea>
                                    PopulateObject(inventory[x], &actObj2);
    3636:	6f ea       	ldi	r22, 0xAF	; 175
    3638:	78 e3       	ldi	r23, 0x38	; 56
    363a:	f7 01       	movw	r30, r14
    363c:	80 81       	ld	r24, Z
    363e:	91 81       	ldd	r25, Z+1	; 0x01
    3640:	0e 94 49 12 	call	0x2492	; 0x2492 <PopulateObject>
                                    x = 2;
    3644:	02 e0       	ldi	r16, 0x02	; 2
    3646:	1d c0       	rjmp	.+58     	; 0x3682 <ProcessInput+0x824>
                                }
                            }
                            if (x == 1) { 
    3648:	01 30       	cpi	r16, 0x01	; 1
    364a:	d1 f4       	brne	.+52     	; 0x3680 <ProcessInput+0x822>
    return 0;
}

//
void SetResponse(uint8_t number, uint16_t address, uint16_t length, uint8_t type){
    reactStr[0][number]=address;
    364c:	e1 2f       	mov	r30, r17
    364e:	f0 e0       	ldi	r31, 0x00	; 0
    3650:	df 01       	movw	r26, r30
    3652:	aa 0f       	add	r26, r26
    3654:	bb 1f       	adc	r27, r27
    3656:	a5 5e       	subi	r26, 0xE5	; 229
    3658:	b6 4c       	sbci	r27, 0xC6	; 198
    365a:	cd 92       	st	X+, r12
    365c:	dc 92       	st	X, r13
    reactStr[1][number]=length;
    365e:	df 01       	movw	r26, r30
    3660:	aa 0f       	add	r26, r26
    3662:	bb 1f       	adc	r27, r27
    3664:	a5 5a       	subi	r26, 0xA5	; 165
    3666:	b6 4c       	sbci	r27, 0xC6	; 198
    3668:	ad 92       	st	X+, r10
    366a:	bc 92       	st	X, r11
    reactStr[2][number]=type;
    366c:	ee 0f       	add	r30, r30
    366e:	ff 1f       	adc	r31, r31
    3670:	e5 56       	subi	r30, 0x65	; 101
    3672:	f6 4c       	sbci	r31, 0xC6	; 198
    3674:	80 82       	st	Z, r8
    3676:	91 82       	std	Z+1, r9	; 0x01
                                    x = 2;
                                }
                            }
                            if (x == 1) { 
                                SetResponse(elements++, A_NOTCARRYING, L_NOTCARRYING, TEASER);
                                data[0] = 0;
    3678:	d3 01       	movw	r26, r6
    367a:	1c 92       	st	X, r1
                                    PopulateObject(inventory[x], &actObj2);
                                    x = 2;
                                }
                            }
                            if (x == 1) { 
                                SetResponse(elements++, A_NOTCARRYING, L_NOTCARRYING, TEASER);
    367c:	1f 5f       	subi	r17, 0xFF	; 255
    367e:	01 c0       	rjmp	.+2      	; 0x3682 <ProcessInput+0x824>
    3680:	00 e0       	ldi	r16, 0x00	; 0
                route[currDepth+1] = FindChild(route[currDepth], data[inputLen-1], 0);
                if (route[currDepth+1]) {
                    
                    //Give item to person / use item on object 
                    if ((inputLen == 3)&&((data[0] == 'u')||(data[0] == 'g'))) {
                        for (uint8_t x=0; x<2; x++) {
    3682:	0f 5f       	subi	r16, 0xFF	; 255
    3684:	01 30       	cpi	r16, 0x01	; 1
    3686:	19 f2       	breq	.-122    	; 0x360e <ProcessInput+0x7b0>
                                data[0] = 0;
                            }
                        }

                        //Both the item and person/object are found, check if action is legit
                        if (data[0]){
    3688:	f3 01       	movw	r30, r6
    368a:	80 81       	ld	r24, Z
    368c:	88 23       	and	r24, r24
    368e:	09 f4       	brne	.+2      	; 0x3692 <ProcessInput+0x834>
    3690:	73 c3       	rjmp	.+1766   	; 0x3d78 <ProcessInput+0xf1a>
                            PopulateObject(route[currDepth+1], &actObj1);
    3692:	e0 91 2e 38 	lds	r30, 0x382E	; 0x80382e <currDepth>
    3696:	f0 e0       	ldi	r31, 0x00	; 0
    3698:	ee 0f       	add	r30, r30
    369a:	ff 1f       	adc	r31, r31
    369c:	e3 52       	subi	r30, 0x23	; 35
    369e:	f6 4c       	sbci	r31, 0xC6	; 198
    36a0:	6a ed       	ldi	r22, 0xDA	; 218
    36a2:	78 e3       	ldi	r23, 0x38	; 56
    36a4:	80 81       	ld	r24, Z
    36a6:	91 81       	ldd	r25, Z+1	; 0x01
    36a8:	0e 94 49 12 	call	0x2492	; 0x2492 <PopulateObject>

                            //Special game
                            if (actObj1.lenStr[ACTION_STR1] == 1) {
    36ac:	e0 90 f8 38 	lds	r14, 0x38F8	; 0x8038f8 <actObj1.3988+0x1e>
    36b0:	f0 90 f9 38 	lds	r15, 0x38F9	; 0x8038f9 <actObj1.3988+0x1f>
    36b4:	f1 e0       	ldi	r31, 0x01	; 1
    36b6:	ef 16       	cp	r14, r31
    36b8:	f1 04       	cpc	r15, r1
    36ba:	09 f0       	breq	.+2      	; 0x36be <ProcessInput+0x860>
    36bc:	89 c0       	rjmp	.+274    	; 0x37d0 <ProcessInput+0x972>
                                ExtEERead(actObj1.addrStr[ACTION_STR1], 1, GAME, &data[2]);
    36be:	93 01       	movw	r18, r6
    36c0:	2e 5f       	subi	r18, 0xFE	; 254
    36c2:	3f 4f       	sbci	r19, 0xFF	; 255
    36c4:	40 e0       	ldi	r20, 0x00	; 0
    36c6:	61 e0       	ldi	r22, 0x01	; 1
    36c8:	80 91 ea 38 	lds	r24, 0x38EA	; 0x8038ea <actObj1.3988+0x10>
    36cc:	90 91 eb 38 	lds	r25, 0x38EB	; 0x8038eb <actObj1.3988+0x11>
    36d0:	0e 94 86 08 	call	0x110c	; 0x110c <ExtEERead>
                                if (data[2] == '1') {
    36d4:	d3 01       	movw	r26, r6
    36d6:	12 96       	adiw	r26, 0x02	; 2
    36d8:	3c 91       	ld	r19, X
    36da:	31 33       	cpi	r19, 0x31	; 49
    36dc:	09 f0       	breq	.+2      	; 0x36e0 <ProcessInput+0x882>
    36de:	4c c3       	rjmp	.+1688   	; 0x3d78 <ProcessInput+0xf1a>
                                    uint8_t item = actObj2.byteField[ITEM_NR];
    36e0:	20 91 ba 38 	lds	r18, 0x38BA	; 0x8038ba <actObj2.3989+0xb>
                                    if ((item < 31)||(item > 34)) {
    36e4:	51 ee       	ldi	r21, 0xE1	; 225
    36e6:	52 0f       	add	r21, r18
    36e8:	41 e0       	ldi	r20, 0x01	; 1
    36ea:	41 0f       	add	r20, r17
    36ec:	81 2f       	mov	r24, r17
    36ee:	90 e0       	ldi	r25, 0x00	; 0
    return 0;
}

//
void SetResponse(uint8_t number, uint16_t address, uint16_t length, uint8_t type){
    reactStr[0][number]=address;
    36f0:	fc 01       	movw	r30, r24
    36f2:	ee 0f       	add	r30, r30
    36f4:	ff 1f       	adc	r31, r31
    36f6:	e5 5e       	subi	r30, 0xE5	; 229
    36f8:	f6 4c       	sbci	r31, 0xC6	; 198
                            //Special game
                            if (actObj1.lenStr[ACTION_STR1] == 1) {
                                ExtEERead(actObj1.addrStr[ACTION_STR1], 1, GAME, &data[2]);
                                if (data[2] == '1') {
                                    uint8_t item = actObj2.byteField[ITEM_NR];
                                    if ((item < 31)||(item > 34)) {
    36fa:	54 30       	cpi	r21, 0x04	; 4
    36fc:	b0 f0       	brcs	.+44     	; 0x372a <ProcessInput+0x8cc>
    return 0;
}

//
void SetResponse(uint8_t number, uint16_t address, uint16_t length, uint8_t type){
    reactStr[0][number]=address;
    36fe:	21 e0       	ldi	r18, 0x01	; 1
    3700:	39 e7       	ldi	r19, 0x79	; 121
    3702:	20 83       	st	Z, r18
    3704:	31 83       	std	Z+1, r19	; 0x01
    reactStr[1][number]=length;
    3706:	fc 01       	movw	r30, r24
    3708:	ee 0f       	add	r30, r30
    370a:	ff 1f       	adc	r31, r31
    370c:	e5 5a       	subi	r30, 0xA5	; 165
    370e:	f6 4c       	sbci	r31, 0xC6	; 198
    3710:	2a e1       	ldi	r18, 0x1A	; 26
    3712:	30 e0       	ldi	r19, 0x00	; 0
    3714:	20 83       	st	Z, r18
    3716:	31 83       	std	Z+1, r19	; 0x01
    reactStr[2][number]=type;
    3718:	88 0f       	add	r24, r24
    371a:	99 1f       	adc	r25, r25
    371c:	fc 01       	movw	r30, r24
    371e:	e5 56       	subi	r30, 0x65	; 101
    3720:	f6 4c       	sbci	r31, 0xC6	; 198
    3722:	e0 82       	st	Z, r14
    3724:	f1 82       	std	Z+1, r15	; 0x01
                            if (actObj1.lenStr[ACTION_STR1] == 1) {
                                ExtEERead(actObj1.addrStr[ACTION_STR1], 1, GAME, &data[2]);
                                if (data[2] == '1') {
                                    uint8_t item = actObj2.byteField[ITEM_NR];
                                    if ((item < 31)||(item > 34)) {
                                        SetResponse(elements++, A_CANTUSE, L_CANTUSE, TEASER);
    3726:	14 2f       	mov	r17, r20
    3728:	27 c3       	rjmp	.+1614   	; 0x3d78 <ProcessInput+0xf1a>
    return 0;
}

//
void SetResponse(uint8_t number, uint16_t address, uint16_t length, uint8_t type){
    reactStr[0][number]=address;
    372a:	60 e5       	ldi	r22, 0x50	; 80
    372c:	75 e7       	ldi	r23, 0x75	; 117
    372e:	60 83       	st	Z, r22
    3730:	71 83       	std	Z+1, r23	; 0x01
    reactStr[1][number]=length;
    3732:	fc 01       	movw	r30, r24
    3734:	ee 0f       	add	r30, r30
    3736:	ff 1f       	adc	r31, r31
    3738:	e5 5a       	subi	r30, 0xA5	; 165
    373a:	f6 4c       	sbci	r31, 0xC6	; 198
    373c:	62 eb       	ldi	r22, 0xB2	; 178
    373e:	70 e0       	ldi	r23, 0x00	; 0
    3740:	60 83       	st	Z, r22
    3742:	71 83       	std	Z+1, r23	; 0x01
    reactStr[2][number]=type;
    3744:	88 0f       	add	r24, r24
    3746:	99 1f       	adc	r25, r25
    3748:	fc 01       	movw	r30, r24
    374a:	e5 56       	subi	r30, 0x65	; 101
    374c:	f6 4c       	sbci	r31, 0xC6	; 198
    374e:	e0 82       	st	Z, r14
    3750:	f1 82       	std	Z+1, r15	; 0x01
    return 0;
}

//
void SetResponse(uint8_t number, uint16_t address, uint16_t length, uint8_t type){
    reactStr[0][number]=address;
    3752:	84 2f       	mov	r24, r20
    3754:	90 e0       	ldi	r25, 0x00	; 0
    3756:	fc 01       	movw	r30, r24
    3758:	ee 0f       	add	r30, r30
    375a:	ff 1f       	adc	r31, r31
    375c:	e5 5e       	subi	r30, 0xE5	; 229
    375e:	f6 4c       	sbci	r31, 0xC6	; 198
    3760:	49 e5       	ldi	r20, 0x59	; 89
    3762:	5a e7       	ldi	r21, 0x7A	; 122
    3764:	40 83       	st	Z, r20
    3766:	51 83       	std	Z+1, r21	; 0x01
    reactStr[1][number]=length;
    3768:	fc 01       	movw	r30, r24
    376a:	ee 0f       	add	r30, r30
    376c:	ff 1f       	adc	r31, r31
    376e:	e5 5a       	subi	r30, 0xA5	; 165
    3770:	f6 4c       	sbci	r31, 0xC6	; 198
    3772:	42 e0       	ldi	r20, 0x02	; 2
    3774:	50 e0       	ldi	r21, 0x00	; 0
    3776:	40 83       	st	Z, r20
    3778:	51 83       	std	Z+1, r21	; 0x01
    reactStr[2][number]=type;
    377a:	88 0f       	add	r24, r24
    377c:	99 1f       	adc	r25, r25
    377e:	fc 01       	movw	r30, r24
    3780:	e5 56       	subi	r30, 0x65	; 101
    3782:	f6 4c       	sbci	r31, 0xC6	; 198
    3784:	e0 82       	st	Z, r14
    3786:	f1 82       	std	Z+1, r15	; 0x01
    return 0;
}

//
void SetResponse(uint8_t number, uint16_t address, uint16_t length, uint8_t type){
    reactStr[0][number]=address;
    3788:	82 e0       	ldi	r24, 0x02	; 2
    378a:	81 0f       	add	r24, r17
    378c:	90 e0       	ldi	r25, 0x00	; 0
    378e:	1d 5f       	subi	r17, 0xFD	; 253
    3790:	fc 01       	movw	r30, r24
    3792:	ee 0f       	add	r30, r30
    3794:	ff 1f       	adc	r31, r31
    3796:	e5 5e       	subi	r30, 0xE5	; 229
    3798:	f6 4c       	sbci	r31, 0xC6	; 198
    379a:	4d ea       	ldi	r20, 0xAD	; 173
    379c:	58 e7       	ldi	r21, 0x78	; 120
    379e:	40 83       	st	Z, r20
    37a0:	51 83       	std	Z+1, r21	; 0x01
    reactStr[1][number]=length;
    37a2:	fc 01       	movw	r30, r24
    37a4:	ee 0f       	add	r30, r30
    37a6:	ff 1f       	adc	r31, r31
    37a8:	e5 5a       	subi	r30, 0xA5	; 165
    37aa:	f6 4c       	sbci	r31, 0xC6	; 198
    37ac:	42 e1       	ldi	r20, 0x12	; 18
    37ae:	50 e0       	ldi	r21, 0x00	; 0
    37b0:	40 83       	st	Z, r20
    37b2:	51 83       	std	Z+1, r21	; 0x01
    reactStr[2][number]=type;
    37b4:	88 0f       	add	r24, r24
    37b6:	99 1f       	adc	r25, r25
    37b8:	fc 01       	movw	r30, r24
    37ba:	e5 56       	subi	r30, 0x65	; 101
    37bc:	f6 4c       	sbci	r31, 0xC6	; 198
    37be:	e0 82       	st	Z, r14
    37c0:	f1 82       	std	Z+1, r15	; 0x01
                                        SetResponse(elements++, A_CANTUSE, L_CANTUSE, TEASER);
                                    } else {
                                        SetResponse(elements++, A_PRIEST, L_PRIEST, TEASER);
                                        SetResponse(elements++, A_LF, 2, TEASER);
                                        SetResponse(elements++, A_RESPONSE, L_RESPONSE, TEASER);
                                        specialInput[0] = '1';
    37c2:	30 93 0a 39 	sts	0x390A, r19	; 0x80390a <specialInput>
                                        specialInput[1] = item;
    37c6:	20 93 0b 39 	sts	0x390B, r18	; 0x80390b <specialInput+0x1>
                                        specialInput[2] = 0;
    37ca:	10 92 0c 39 	sts	0x390C, r1	; 0x80390c <specialInput+0x2>
    37ce:	d4 c2       	rjmp	.+1448   	; 0x3d78 <ProcessInput+0xf1a>
                                    }
                                }

                            //Normal "use ... on ..." or "give ... to ..." action
                            } else if (actObj1.byteField[ACTION_ITEM] == actObj2.byteField[ITEM_NR]) {
    37d0:	90 91 e3 38 	lds	r25, 0x38E3	; 0x8038e3 <actObj1.3988+0x9>
    37d4:	80 91 ba 38 	lds	r24, 0x38BA	; 0x8038ba <actObj2.3989+0xb>
    37d8:	98 13       	cpse	r25, r24
    37da:	2e c0       	rjmp	.+92     	; 0x3838 <ProcessInput+0x9da>
                                SetResponse(elements++, actObj1.addrStr[ACTION_MSG], actObj1.lenStr[ACTION_MSG], GAME);
    37dc:	20 91 00 39 	lds	r18, 0x3900	; 0x803900 <actObj1.3988+0x26>
    37e0:	30 91 01 39 	lds	r19, 0x3901	; 0x803901 <actObj1.3988+0x27>
    37e4:	01 e0       	ldi	r16, 0x01	; 1
    37e6:	01 0f       	add	r16, r17
    return 0;
}

//
void SetResponse(uint8_t number, uint16_t address, uint16_t length, uint8_t type){
    reactStr[0][number]=address;
    37e8:	81 2f       	mov	r24, r17
    37ea:	90 e0       	ldi	r25, 0x00	; 0
    37ec:	fc 01       	movw	r30, r24
    37ee:	ee 0f       	add	r30, r30
    37f0:	ff 1f       	adc	r31, r31
    37f2:	e5 5e       	subi	r30, 0xE5	; 229
    37f4:	f6 4c       	sbci	r31, 0xC6	; 198
    37f6:	40 91 f2 38 	lds	r20, 0x38F2	; 0x8038f2 <actObj1.3988+0x18>
    37fa:	50 91 f3 38 	lds	r21, 0x38F3	; 0x8038f3 <actObj1.3988+0x19>
    37fe:	40 83       	st	Z, r20
    3800:	51 83       	std	Z+1, r21	; 0x01
    reactStr[1][number]=length;
    3802:	fc 01       	movw	r30, r24
    3804:	ee 0f       	add	r30, r30
    3806:	ff 1f       	adc	r31, r31
    3808:	e5 5a       	subi	r30, 0xA5	; 165
    380a:	f6 4c       	sbci	r31, 0xC6	; 198
    380c:	20 83       	st	Z, r18
    380e:	31 83       	std	Z+1, r19	; 0x01
    reactStr[2][number]=type;
    3810:	88 0f       	add	r24, r24
    3812:	99 1f       	adc	r25, r25
    3814:	fc 01       	movw	r30, r24
    3816:	e5 56       	subi	r30, 0x65	; 101
    3818:	f6 4c       	sbci	r31, 0xC6	; 198
    381a:	10 82       	st	Z, r1
    381c:	11 82       	std	Z+1, r1	; 0x01
                                }

                            //Normal "use ... on ..." or "give ... to ..." action
                            } else if (actObj1.byteField[ACTION_ITEM] == actObj2.byteField[ITEM_NR]) {
                                SetResponse(elements++, actObj1.addrStr[ACTION_MSG], actObj1.lenStr[ACTION_MSG], GAME);
                                effect = actObj1.effect[2];
    381e:	80 91 04 39 	lds	r24, 0x3904	; 0x803904 <actObj1.3988+0x2a>
    3822:	90 e0       	ldi	r25, 0x00	; 0
    3824:	80 93 3a 38 	sts	0x383A, r24	; 0x80383a <effect>
    3828:	90 93 3b 38 	sts	0x383B, r25	; 0x80383b <effect+0x1>
                                UpdateState(actObj1.byteField[ACTION_STATE]);
    382c:	80 91 e4 38 	lds	r24, 0x38E4	; 0x8038e4 <actObj1.3988+0xa>
    3830:	0e 94 4a 0a 	call	0x1494	; 0x1494 <UpdateState>
                                    }
                                }

                            //Normal "use ... on ..." or "give ... to ..." action
                            } else if (actObj1.byteField[ACTION_ITEM] == actObj2.byteField[ITEM_NR]) {
                                SetResponse(elements++, actObj1.addrStr[ACTION_MSG], actObj1.lenStr[ACTION_MSG], GAME);
    3834:	10 2f       	mov	r17, r16
    3836:	a0 c2       	rjmp	.+1344   	; 0x3d78 <ProcessInput+0xf1a>
                                effect = actObj1.effect[2];
                                UpdateState(actObj1.byteField[ACTION_STATE]);
                                
                            } else {
                                if (data[0] == 'u') {
    3838:	f3 01       	movw	r30, r6
    383a:	80 81       	ld	r24, Z
    383c:	85 37       	cpi	r24, 0x75	; 117
    383e:	99 f4       	brne	.+38     	; 0x3866 <ProcessInput+0xa08>
    return 0;
}

//
void SetResponse(uint8_t number, uint16_t address, uint16_t length, uint8_t type){
    reactStr[0][number]=address;
    3840:	81 2f       	mov	r24, r17
    3842:	90 e0       	ldi	r25, 0x00	; 0
    3844:	fc 01       	movw	r30, r24
    3846:	ee 0f       	add	r30, r30
    3848:	ff 1f       	adc	r31, r31
    384a:	e5 5e       	subi	r30, 0xE5	; 229
    384c:	f6 4c       	sbci	r31, 0xC6	; 198
    384e:	21 e0       	ldi	r18, 0x01	; 1
    3850:	39 e7       	ldi	r19, 0x79	; 121
    3852:	20 83       	st	Z, r18
    3854:	31 83       	std	Z+1, r19	; 0x01
    reactStr[1][number]=length;
    3856:	fc 01       	movw	r30, r24
    3858:	ee 0f       	add	r30, r30
    385a:	ff 1f       	adc	r31, r31
    385c:	e5 5a       	subi	r30, 0xA5	; 165
    385e:	f6 4c       	sbci	r31, 0xC6	; 198
    3860:	2a e1       	ldi	r18, 0x1A	; 26
    3862:	30 e0       	ldi	r19, 0x00	; 0
    3864:	15 c0       	rjmp	.+42     	; 0x3890 <ProcessInput+0xa32>
                                UpdateState(actObj1.byteField[ACTION_STATE]);
                                
                            } else {
                                if (data[0] == 'u') {
                                    SetResponse(elements++, A_CANTUSE, L_CANTUSE, TEASER);
                                } else if (data[0] == 'g') {
    3866:	87 36       	cpi	r24, 0x67	; 103
    3868:	09 f0       	breq	.+2      	; 0x386c <ProcessInput+0xa0e>
    386a:	86 c2       	rjmp	.+1292   	; 0x3d78 <ProcessInput+0xf1a>
    return 0;
}

//
void SetResponse(uint8_t number, uint16_t address, uint16_t length, uint8_t type){
    reactStr[0][number]=address;
    386c:	81 2f       	mov	r24, r17
    386e:	90 e0       	ldi	r25, 0x00	; 0
    3870:	fc 01       	movw	r30, r24
    3872:	ee 0f       	add	r30, r30
    3874:	ff 1f       	adc	r31, r31
    3876:	e5 5e       	subi	r30, 0xE5	; 229
    3878:	f6 4c       	sbci	r31, 0xC6	; 198
    387a:	2f e9       	ldi	r18, 0x9F	; 159
    387c:	36 e7       	ldi	r19, 0x76	; 118
    387e:	20 83       	st	Z, r18
    3880:	31 83       	std	Z+1, r19	; 0x01
    reactStr[1][number]=length;
    3882:	fc 01       	movw	r30, r24
    3884:	ee 0f       	add	r30, r30
    3886:	ff 1f       	adc	r31, r31
    3888:	e5 5a       	subi	r30, 0xA5	; 165
    388a:	f6 4c       	sbci	r31, 0xC6	; 198
    388c:	28 e2       	ldi	r18, 0x28	; 40
    388e:	30 e0       	ldi	r19, 0x00	; 0
    3890:	20 83       	st	Z, r18
    3892:	31 83       	std	Z+1, r19	; 0x01
    reactStr[2][number]=type;
    3894:	88 0f       	add	r24, r24
    3896:	99 1f       	adc	r25, r25
    3898:	fc 01       	movw	r30, r24
    389a:	e5 56       	subi	r30, 0x65	; 101
    389c:	f6 4c       	sbci	r31, 0xC6	; 198
    389e:	81 e0       	ldi	r24, 0x01	; 1
    38a0:	90 e0       	ldi	r25, 0x00	; 0
    38a2:	80 83       	st	Z, r24
    38a4:	91 83       	std	Z+1, r25	; 0x01
                                
                            } else {
                                if (data[0] == 'u') {
                                    SetResponse(elements++, A_CANTUSE, L_CANTUSE, TEASER);
                                } else if (data[0] == 'g') {
                                    SetResponse(elements++, A_CANTGIVE, L_CANTGIVE, TEASER);                                    
    38a6:	1f 5f       	subi	r17, 0xFF	; 255
    38a8:	67 c2       	rjmp	.+1230   	; 0x3d78 <ProcessInput+0xf1a>
                            }
                        }
                    
                    //Talk to person, read or use object (without item)                          
                    } else {
                        PopulateObject(route[currDepth+1], &actObj1);
    38aa:	6a ed       	ldi	r22, 0xDA	; 218
    38ac:	78 e3       	ldi	r23, 0x38	; 56
    38ae:	0e 94 49 12 	call	0x2492	; 0x2492 <PopulateObject>
                        if ((data[0] == 't')&&((actObj1.byteField[ACTION_MASK]&TALK) == 0)) {
    38b2:	d3 01       	movw	r26, r6
    38b4:	8c 91       	ld	r24, X
    38b6:	84 37       	cpi	r24, 0x74	; 116
    38b8:	61 f5       	brne	.+88     	; 0x3912 <ProcessInput+0xab4>
    38ba:	80 91 e2 38 	lds	r24, 0x38E2	; 0x8038e2 <actObj1.3988+0x8>
    38be:	83 fd       	sbrc	r24, 3
    38c0:	43 c0       	rjmp	.+134    	; 0x3948 <ProcessInput+0xaea>
    return 0;
}

//
void SetResponse(uint8_t number, uint16_t address, uint16_t length, uint8_t type){
    reactStr[0][number]=address;
    38c2:	8b e1       	ldi	r24, 0x1B	; 27
    38c4:	99 e7       	ldi	r25, 0x79	; 121
    38c6:	80 93 1d 39 	sts	0x391D, r24	; 0x80391d <reactStr+0x2>
    38ca:	90 93 1e 39 	sts	0x391E, r25	; 0x80391e <reactStr+0x3>
    reactStr[1][number]=length;
    38ce:	8e e1       	ldi	r24, 0x1E	; 30
    38d0:	90 e0       	ldi	r25, 0x00	; 0
    38d2:	80 93 5d 39 	sts	0x395D, r24	; 0x80395d <reactStr+0x42>
    38d6:	90 93 5e 39 	sts	0x395E, r25	; 0x80395e <reactStr+0x43>
    reactStr[2][number]=type;
    38da:	81 e0       	ldi	r24, 0x01	; 1
    38dc:	90 e0       	ldi	r25, 0x00	; 0
    38de:	80 93 9d 39 	sts	0x399D, r24	; 0x80399d <reactStr+0x82>
    38e2:	90 93 9e 39 	sts	0x399E, r25	; 0x80399e <reactStr+0x83>
                    //Talk to person, read or use object (without item)                          
                    } else {
                        PopulateObject(route[currDepth+1], &actObj1);
                        if ((data[0] == 't')&&((actObj1.byteField[ACTION_MASK]&TALK) == 0)) {
                            SetResponse(elements++, A_WHYTALK, L_WHYTALK, TEASER);
                            SetResponse(elements++, actObj1.addrStr[NAME], actObj1.lenStr[NAME], GAME);
    38e6:	80 91 f4 38 	lds	r24, 0x38F4	; 0x8038f4 <actObj1.3988+0x1a>
    38ea:	90 91 f5 38 	lds	r25, 0x38F5	; 0x8038f5 <actObj1.3988+0x1b>
    return 0;
}

//
void SetResponse(uint8_t number, uint16_t address, uint16_t length, uint8_t type){
    reactStr[0][number]=address;
    38ee:	20 91 e6 38 	lds	r18, 0x38E6	; 0x8038e6 <actObj1.3988+0xc>
    38f2:	30 91 e7 38 	lds	r19, 0x38E7	; 0x8038e7 <actObj1.3988+0xd>
    38f6:	20 93 1f 39 	sts	0x391F, r18	; 0x80391f <reactStr+0x4>
    38fa:	30 93 20 39 	sts	0x3920, r19	; 0x803920 <reactStr+0x5>
    reactStr[1][number]=length;
    38fe:	80 93 5f 39 	sts	0x395F, r24	; 0x80395f <reactStr+0x44>
    3902:	90 93 60 39 	sts	0x3960, r25	; 0x803960 <reactStr+0x45>
    reactStr[2][number]=type;
    3906:	10 92 9f 39 	sts	0x399F, r1	; 0x80399f <reactStr+0x84>
    390a:	10 92 a0 39 	sts	0x39A0, r1	; 0x8039a0 <reactStr+0x85>
                    //Talk to person, read or use object (without item)                          
                    } else {
                        PopulateObject(route[currDepth+1], &actObj1);
                        if ((data[0] == 't')&&((actObj1.byteField[ACTION_MASK]&TALK) == 0)) {
                            SetResponse(elements++, A_WHYTALK, L_WHYTALK, TEASER);
                            SetResponse(elements++, actObj1.addrStr[NAME], actObj1.lenStr[NAME], GAME);
    390e:	13 e0       	ldi	r17, 0x03	; 3
    3910:	33 c2       	rjmp	.+1126   	; 0x3d78 <ProcessInput+0xf1a>
                        } else if ((data[0] == 'u')&&((actObj1.byteField[ACTION_MASK]&USE) == 0)) {
    3912:	85 37       	cpi	r24, 0x75	; 117
    3914:	39 f4       	brne	.+14     	; 0x3924 <ProcessInput+0xac6>
    3916:	80 91 e2 38 	lds	r24, 0x38E2	; 0x8038e2 <actObj1.3988+0x8>
    391a:	84 fd       	sbrc	r24, 4
    391c:	15 c0       	rjmp	.+42     	; 0x3948 <ProcessInput+0xaea>
    return 0;
}

//
void SetResponse(uint8_t number, uint16_t address, uint16_t length, uint8_t type){
    reactStr[0][number]=address;
    391e:	81 e0       	ldi	r24, 0x01	; 1
    3920:	99 e7       	ldi	r25, 0x79	; 121
    3922:	3b c2       	rjmp	.+1142   	; 0x3d9a <ProcessInput+0xf3c>
                        if ((data[0] == 't')&&((actObj1.byteField[ACTION_MASK]&TALK) == 0)) {
                            SetResponse(elements++, A_WHYTALK, L_WHYTALK, TEASER);
                            SetResponse(elements++, actObj1.addrStr[NAME], actObj1.lenStr[NAME], GAME);
                        } else if ((data[0] == 'u')&&((actObj1.byteField[ACTION_MASK]&USE) == 0)) {
                            SetResponse(elements++, A_CANTUSE, L_CANTUSE, TEASER);
                        } else if ((data[0] == 'r')&&((actObj1.byteField[ACTION_MASK]&READ) == 0)) {
    3924:	82 37       	cpi	r24, 0x72	; 114
    3926:	69 f4       	brne	.+26     	; 0x3942 <ProcessInput+0xae4>
    3928:	80 91 e2 38 	lds	r24, 0x38E2	; 0x8038e2 <actObj1.3988+0x8>
    392c:	85 fd       	sbrc	r24, 5
    392e:	0c c0       	rjmp	.+24     	; 0x3948 <ProcessInput+0xaea>
    return 0;
}

//
void SetResponse(uint8_t number, uint16_t address, uint16_t length, uint8_t type){
    reactStr[0][number]=address;
    3930:	86 ee       	ldi	r24, 0xE6	; 230
    3932:	98 e7       	ldi	r25, 0x78	; 120
    3934:	80 93 1d 39 	sts	0x391D, r24	; 0x80391d <reactStr+0x2>
    3938:	90 93 1e 39 	sts	0x391E, r25	; 0x80391e <reactStr+0x3>
    reactStr[1][number]=length;
    393c:	8b e1       	ldi	r24, 0x1B	; 27
    393e:	90 e0       	ldi	r25, 0x00	; 0
    3940:	77 cb       	rjmp	.-2322   	; 0x3030 <ProcessInput+0x1d2>
                            SetResponse(elements++, actObj1.addrStr[NAME], actObj1.lenStr[NAME], GAME);
                        } else if ((data[0] == 'u')&&((actObj1.byteField[ACTION_MASK]&USE) == 0)) {
                            SetResponse(elements++, A_CANTUSE, L_CANTUSE, TEASER);
                        } else if ((data[0] == 'r')&&((actObj1.byteField[ACTION_MASK]&READ) == 0)) {
                            SetResponse(elements++, A_CANTREAD, L_CANTREAD, TEASER);
                        } else if (data[0] == 'g'){ 
    3942:	87 36       	cpi	r24, 0x67	; 103
    3944:	09 f4       	brne	.+2      	; 0x3948 <ProcessInput+0xaea>
    3946:	cb ca       	rjmp	.-2666   	; 0x2ede <ProcessInput+0x80>
                            SetResponse(elements++, A_NOTPOSSIBLE, L_NOTPOSSIBLE, TEASER);  
                        } else {

                            //Special game, not enough characters
                            if (actObj1.lenStr[ACTION_STR1] == 1) {
    3948:	00 91 f8 38 	lds	r16, 0x38F8	; 0x8038f8 <actObj1.3988+0x1e>
    394c:	10 91 f9 38 	lds	r17, 0x38F9	; 0x8038f9 <actObj1.3988+0x1f>
    3950:	01 30       	cpi	r16, 0x01	; 1
    3952:	11 05       	cpc	r17, r1
    3954:	09 f5       	brne	.+66     	; 0x3998 <ProcessInput+0xb3a>
                                ExtEERead(actObj1.addrStr[ACTION_STR1], 1, GAME, &data[2]);
    3956:	93 01       	movw	r18, r6
    3958:	2e 5f       	subi	r18, 0xFE	; 254
    395a:	3f 4f       	sbci	r19, 0xFF	; 255
    395c:	40 e0       	ldi	r20, 0x00	; 0
    395e:	61 e0       	ldi	r22, 0x01	; 1
    3960:	80 91 ea 38 	lds	r24, 0x38EA	; 0x8038ea <actObj1.3988+0x10>
    3964:	90 91 eb 38 	lds	r25, 0x38EB	; 0x8038eb <actObj1.3988+0x11>
    3968:	0e 94 86 08 	call	0x110c	; 0x110c <ExtEERead>
                                if (data[2] == '1') {
    396c:	f3 01       	movw	r30, r6
    396e:	82 81       	ldd	r24, Z+2	; 0x02
    3970:	81 33       	cpi	r24, 0x31	; 49
    3972:	09 f0       	breq	.+2      	; 0x3976 <ProcessInput+0xb18>
    3974:	05 cb       	rjmp	.-2550   	; 0x2f80 <ProcessInput+0x122>
    return 0;
}

//
void SetResponse(uint8_t number, uint16_t address, uint16_t length, uint8_t type){
    reactStr[0][number]=address;
    3976:	85 e2       	ldi	r24, 0x25	; 37
    3978:	95 e7       	ldi	r25, 0x75	; 117
    397a:	80 93 1d 39 	sts	0x391D, r24	; 0x80391d <reactStr+0x2>
    397e:	90 93 1e 39 	sts	0x391E, r25	; 0x80391e <reactStr+0x3>
    reactStr[1][number]=length;
    3982:	8b e2       	ldi	r24, 0x2B	; 43
    3984:	90 e0       	ldi	r25, 0x00	; 0
    3986:	80 93 5d 39 	sts	0x395D, r24	; 0x80395d <reactStr+0x42>
    398a:	90 93 5e 39 	sts	0x395E, r25	; 0x80395e <reactStr+0x43>
    reactStr[2][number]=type;
    398e:	00 93 9d 39 	sts	0x399D, r16	; 0x80399d <reactStr+0x82>
    3992:	10 93 9e 39 	sts	0x399E, r17	; 0x80399e <reactStr+0x83>
    3996:	56 cb       	rjmp	.-2388   	; 0x3044 <ProcessInput+0x1e6>
                                if (data[2] == '1') {
                                    SetResponse(elements++, A_PLEASEOFFER, L_PLEASEOFFER, TEASER);
                                }

                            //General request
                            } else if (actObj1.lenStr[ACTION_STR1]) {
    3998:	01 15       	cp	r16, r1
    399a:	11 05       	cpc	r17, r1
    399c:	09 f4       	brne	.+2      	; 0x39a0 <ProcessInput+0xb42>
    399e:	58 c0       	rjmp	.+176    	; 0x3a50 <ProcessInput+0xbf2>
    return 0;
}

//
void SetResponse(uint8_t number, uint16_t address, uint16_t length, uint8_t type){
    reactStr[0][number]=address;
    39a0:	80 91 ea 38 	lds	r24, 0x38EA	; 0x8038ea <actObj1.3988+0x10>
    39a4:	90 91 eb 38 	lds	r25, 0x38EB	; 0x8038eb <actObj1.3988+0x11>
    39a8:	80 93 1d 39 	sts	0x391D, r24	; 0x80391d <reactStr+0x2>
    39ac:	90 93 1e 39 	sts	0x391E, r25	; 0x80391e <reactStr+0x3>
    reactStr[1][number]=length;
    39b0:	00 93 5d 39 	sts	0x395D, r16	; 0x80395d <reactStr+0x42>
    39b4:	10 93 5e 39 	sts	0x395E, r17	; 0x80395e <reactStr+0x43>
    reactStr[2][number]=type;
    39b8:	10 92 9d 39 	sts	0x399D, r1	; 0x80399d <reactStr+0x82>
    39bc:	10 92 9e 39 	sts	0x399E, r1	; 0x80399e <reactStr+0x83>
    return 0;
}

//
void SetResponse(uint8_t number, uint16_t address, uint16_t length, uint8_t type){
    reactStr[0][number]=address;
    39c0:	89 e5       	ldi	r24, 0x59	; 89
    39c2:	9a e7       	ldi	r25, 0x7A	; 122
    39c4:	80 93 1f 39 	sts	0x391F, r24	; 0x80391f <reactStr+0x4>
    39c8:	90 93 20 39 	sts	0x3920, r25	; 0x803920 <reactStr+0x5>
    reactStr[1][number]=length;
    39cc:	82 e0       	ldi	r24, 0x02	; 2
    39ce:	90 e0       	ldi	r25, 0x00	; 0
    39d0:	80 93 5f 39 	sts	0x395F, r24	; 0x80395f <reactStr+0x44>
    39d4:	90 93 60 39 	sts	0x3960, r25	; 0x803960 <reactStr+0x45>
    reactStr[2][number]=type;
    39d8:	81 e0       	ldi	r24, 0x01	; 1
    39da:	90 e0       	ldi	r25, 0x00	; 0
    39dc:	80 93 9f 39 	sts	0x399F, r24	; 0x80399f <reactStr+0x84>
    39e0:	90 93 a0 39 	sts	0x39A0, r25	; 0x8039a0 <reactStr+0x85>
    return 0;
}

//
void SetResponse(uint8_t number, uint16_t address, uint16_t length, uint8_t type){
    reactStr[0][number]=address;
    39e4:	2d ea       	ldi	r18, 0xAD	; 173
    39e6:	38 e7       	ldi	r19, 0x78	; 120
    39e8:	20 93 21 39 	sts	0x3921, r18	; 0x803921 <reactStr+0x6>
    39ec:	30 93 22 39 	sts	0x3922, r19	; 0x803922 <reactStr+0x7>
    reactStr[1][number]=length;
    39f0:	22 e1       	ldi	r18, 0x12	; 18
    39f2:	30 e0       	ldi	r19, 0x00	; 0
    39f4:	20 93 61 39 	sts	0x3961, r18	; 0x803961 <reactStr+0x46>
    39f8:	30 93 62 39 	sts	0x3962, r19	; 0x803962 <reactStr+0x47>
    reactStr[2][number]=type;
    39fc:	80 93 a1 39 	sts	0x39A1, r24	; 0x8039a1 <reactStr+0x86>
    3a00:	90 93 a2 39 	sts	0x39A2, r25	; 0x8039a2 <reactStr+0x87>
                            //General request
                            } else if (actObj1.lenStr[ACTION_STR1]) {
                                SetResponse(elements++, actObj1.addrStr[ACTION_STR1], actObj1.lenStr[ACTION_STR1], GAME);
                                SetResponse(elements++, A_LF, 2, TEASER);
                                SetResponse(elements++, A_RESPONSE, L_RESPONSE, TEASER);
                                if (actObj1.lenStr[ACTION_STR2]>(INP_LENGTH-1)) actObj1.lenStr[ACTION_STR2] = (INP_LENGTH-1);
    3a04:	80 91 fa 38 	lds	r24, 0x38FA	; 0x8038fa <actObj1.3988+0x20>
    3a08:	90 91 fb 38 	lds	r25, 0x38FB	; 0x8038fb <actObj1.3988+0x21>
    3a0c:	40 97       	sbiw	r24, 0x10	; 16
    3a0e:	30 f0       	brcs	.+12     	; 0x3a1c <ProcessInput+0xbbe>
    3a10:	8f e0       	ldi	r24, 0x0F	; 15
    3a12:	90 e0       	ldi	r25, 0x00	; 0
    3a14:	80 93 fa 38 	sts	0x38FA, r24	; 0x8038fa <actObj1.3988+0x20>
    3a18:	90 93 fb 38 	sts	0x38FB, r25	; 0x8038fb <actObj1.3988+0x21>
                                ExtEERead(actObj1.addrStr[ACTION_STR2], actObj1.lenStr[ACTION_STR2], GAME, (uint8_t *)&specialInput[0]);
    3a1c:	2a e0       	ldi	r18, 0x0A	; 10
    3a1e:	39 e3       	ldi	r19, 0x39	; 57
    3a20:	40 e0       	ldi	r20, 0x00	; 0
    3a22:	60 91 fa 38 	lds	r22, 0x38FA	; 0x8038fa <actObj1.3988+0x20>
    3a26:	80 91 ec 38 	lds	r24, 0x38EC	; 0x8038ec <actObj1.3988+0x12>
    3a2a:	90 91 ed 38 	lds	r25, 0x38ED	; 0x8038ed <actObj1.3988+0x13>
    3a2e:	0e 94 86 08 	call	0x110c	; 0x110c <ExtEERead>
                                UnflipData(actObj1.lenStr[ACTION_STR2], (uint8_t *)&specialInput[0]);
    3a32:	6a e0       	ldi	r22, 0x0A	; 10
    3a34:	79 e3       	ldi	r23, 0x39	; 57
    3a36:	80 91 fa 38 	lds	r24, 0x38FA	; 0x8038fa <actObj1.3988+0x20>
    3a3a:	0e 94 5f 11 	call	0x22be	; 0x22be <UnflipData>
                                specialInput[actObj1.lenStr[ACTION_STR2]] = 0;
    3a3e:	e0 91 fa 38 	lds	r30, 0x38FA	; 0x8038fa <actObj1.3988+0x20>
    3a42:	f0 91 fb 38 	lds	r31, 0x38FB	; 0x8038fb <actObj1.3988+0x21>
    3a46:	e6 5f       	subi	r30, 0xF6	; 246
    3a48:	f6 4c       	sbci	r31, 0xC6	; 198
    3a4a:	10 82       	st	Z, r1

                            //General request
                            } else if (actObj1.lenStr[ACTION_STR1]) {
                                SetResponse(elements++, actObj1.addrStr[ACTION_STR1], actObj1.lenStr[ACTION_STR1], GAME);
                                SetResponse(elements++, A_LF, 2, TEASER);
                                SetResponse(elements++, A_RESPONSE, L_RESPONSE, TEASER);
    3a4c:	14 e0       	ldi	r17, 0x04	; 4
    3a4e:	94 c1       	rjmp	.+808    	; 0x3d78 <ProcessInput+0xf1a>
                                ExtEERead(actObj1.addrStr[ACTION_STR2], actObj1.lenStr[ACTION_STR2], GAME, (uint8_t *)&specialInput[0]);
                                UnflipData(actObj1.lenStr[ACTION_STR2], (uint8_t *)&specialInput[0]);
                                specialInput[actObj1.lenStr[ACTION_STR2]] = 0;
                            
                            //Normal action    
                            } else if (CheckState(actObj1.byteField[ACTION_ACL])){
    3a50:	80 91 e1 38 	lds	r24, 0x38E1	; 0x8038e1 <actObj1.3988+0x7>
    3a54:	0e 94 54 0a 	call	0x14a8	; 0x14a8 <CheckState>
    3a58:	88 23       	and	r24, r24
    3a5a:	01 f1       	breq	.+64     	; 0x3a9c <ProcessInput+0xc3e>
                                SetResponse(elements++, actObj1.addrStr[ACTION_MSG], actObj1.lenStr[ACTION_MSG], GAME);
    3a5c:	80 91 00 39 	lds	r24, 0x3900	; 0x803900 <actObj1.3988+0x26>
    3a60:	90 91 01 39 	lds	r25, 0x3901	; 0x803901 <actObj1.3988+0x27>
    return 0;
}

//
void SetResponse(uint8_t number, uint16_t address, uint16_t length, uint8_t type){
    reactStr[0][number]=address;
    3a64:	20 91 f2 38 	lds	r18, 0x38F2	; 0x8038f2 <actObj1.3988+0x18>
    3a68:	30 91 f3 38 	lds	r19, 0x38F3	; 0x8038f3 <actObj1.3988+0x19>
    3a6c:	20 93 1d 39 	sts	0x391D, r18	; 0x80391d <reactStr+0x2>
    3a70:	30 93 1e 39 	sts	0x391E, r19	; 0x80391e <reactStr+0x3>
    reactStr[1][number]=length;
    3a74:	80 93 5d 39 	sts	0x395D, r24	; 0x80395d <reactStr+0x42>
    3a78:	90 93 5e 39 	sts	0x395E, r25	; 0x80395e <reactStr+0x43>
    reactStr[2][number]=type;
    3a7c:	10 92 9d 39 	sts	0x399D, r1	; 0x80399d <reactStr+0x82>
    3a80:	10 92 9e 39 	sts	0x399E, r1	; 0x80399e <reactStr+0x83>
                                specialInput[actObj1.lenStr[ACTION_STR2]] = 0;
                            
                            //Normal action    
                            } else if (CheckState(actObj1.byteField[ACTION_ACL])){
                                SetResponse(elements++, actObj1.addrStr[ACTION_MSG], actObj1.lenStr[ACTION_MSG], GAME);
                                effect = actObj1.effect[2];
    3a84:	80 91 04 39 	lds	r24, 0x3904	; 0x803904 <actObj1.3988+0x2a>
    3a88:	90 e0       	ldi	r25, 0x00	; 0
    3a8a:	80 93 3a 38 	sts	0x383A, r24	; 0x80383a <effect>
    3a8e:	90 93 3b 38 	sts	0x383B, r25	; 0x80383b <effect+0x1>
                                UpdateState(actObj1.byteField[ACTION_STATE]);
    3a92:	80 91 e4 38 	lds	r24, 0x38E4	; 0x8038e4 <actObj1.3988+0xa>
    3a96:	0e 94 4a 0a 	call	0x1494	; 0x1494 <UpdateState>
    3a9a:	d4 ca       	rjmp	.-2648   	; 0x3044 <ProcessInput+0x1e6>
                            } else {
                                SetResponse(elements++, actObj1.addrStr[ACTION_ACL_MSG], actObj1.lenStr[ACTION_ACL_MSG], GAME);
    3a9c:	80 91 fe 38 	lds	r24, 0x38FE	; 0x8038fe <actObj1.3988+0x24>
    3aa0:	90 91 ff 38 	lds	r25, 0x38FF	; 0x8038ff <actObj1.3988+0x25>
    return 0;
}

//
void SetResponse(uint8_t number, uint16_t address, uint16_t length, uint8_t type){
    reactStr[0][number]=address;
    3aa4:	20 91 f0 38 	lds	r18, 0x38F0	; 0x8038f0 <actObj1.3988+0x16>
    3aa8:	30 91 f1 38 	lds	r19, 0x38F1	; 0x8038f1 <actObj1.3988+0x17>
    3aac:	20 93 1d 39 	sts	0x391D, r18	; 0x80391d <reactStr+0x2>
    3ab0:	30 93 1e 39 	sts	0x391E, r19	; 0x80391e <reactStr+0x3>
    reactStr[1][number]=length;
    3ab4:	80 93 5d 39 	sts	0x395D, r24	; 0x80395d <reactStr+0x42>
    3ab8:	90 93 5e 39 	sts	0x395E, r25	; 0x80395e <reactStr+0x43>
    reactStr[2][number]=type;
    3abc:	10 92 9d 39 	sts	0x399D, r1	; 0x80399d <reactStr+0x82>
    3ac0:	10 92 9e 39 	sts	0x399E, r1	; 0x80399e <reactStr+0x83>
                                SetResponse(elements++, actObj1.addrStr[ACTION_MSG], actObj1.lenStr[ACTION_MSG], GAME);
                                effect = actObj1.effect[2];
                                UpdateState(actObj1.byteField[ACTION_STATE]);
                            } else {
                                SetResponse(elements++, actObj1.addrStr[ACTION_ACL_MSG], actObj1.lenStr[ACTION_ACL_MSG], GAME);
                                effect = actObj1.effect[1];
    3ac4:	80 91 03 39 	lds	r24, 0x3903	; 0x803903 <actObj1.3988+0x29>
    3ac8:	90 e0       	ldi	r25, 0x00	; 0
    3aca:	80 93 3a 38 	sts	0x383A, r24	; 0x80383a <effect>
    3ace:	90 93 3b 38 	sts	0x383B, r25	; 0x80383b <effect+0x1>
    3ad2:	b8 ca       	rjmp	.-2704   	; 0x3044 <ProcessInput+0x1e6>
                        }
                    }

                //Person or object not found
                } else {
                    if ((data[0] == 't')||(data[0] == 'g')){
    3ad4:	d3 01       	movw	r26, r6
    3ad6:	8c 91       	ld	r24, X
    3ad8:	84 37       	cpi	r24, 0x74	; 116
    3ada:	11 f0       	breq	.+4      	; 0x3ae0 <ProcessInput+0xc82>
    3adc:	87 36       	cpi	r24, 0x67	; 103
    3ade:	49 f4       	brne	.+18     	; 0x3af2 <ProcessInput+0xc94>
    return 0;
}

//
void SetResponse(uint8_t number, uint16_t address, uint16_t length, uint8_t type){
    reactStr[0][number]=address;
    3ae0:	89 e3       	ldi	r24, 0x39	; 57
    3ae2:	99 e7       	ldi	r25, 0x79	; 121
    3ae4:	80 93 1d 39 	sts	0x391D, r24	; 0x80391d <reactStr+0x2>
    3ae8:	90 93 1e 39 	sts	0x391E, r25	; 0x80391e <reactStr+0x3>
    reactStr[1][number]=length;
    3aec:	84 e1       	ldi	r24, 0x14	; 20
    3aee:	90 e0       	ldi	r25, 0x00	; 0
    3af0:	9f ca       	rjmp	.-2754   	; 0x3030 <ProcessInput+0x1d2>
    return 0;
}

//
void SetResponse(uint8_t number, uint16_t address, uint16_t length, uint8_t type){
    reactStr[0][number]=address;
    3af2:	8d e4       	ldi	r24, 0x4D	; 77
    3af4:	99 e7       	ldi	r25, 0x79	; 121
    3af6:	f6 cf       	rjmp	.-20     	; 0x3ae4 <ProcessInput+0xc86>
                    }
                }
            }
        
        //Special answer given
        } else if (data[0] == 'a'){
    3af8:	81 36       	cpi	r24, 0x61	; 97
    3afa:	09 f0       	breq	.+2      	; 0x3afe <ProcessInput+0xca0>
    3afc:	41 ca       	rjmp	.-2942   	; 0x2f80 <ProcessInput+0x122>
            
            //Priest offerings
            if (specialPassed >= 2) {
    3afe:	80 91 09 39 	lds	r24, 0x3909	; 0x803909 <specialPassed>
    3b02:	82 30       	cpi	r24, 0x02	; 2
    3b04:	08 f4       	brcc	.+2      	; 0x3b08 <ProcessInput+0xcaa>
    3b06:	c7 c0       	rjmp	.+398    	; 0x3c96 <ProcessInput+0xe38>
                if (data[1] > 0) {
    3b08:	f3 01       	movw	r30, r6
    3b0a:	21 81       	ldd	r18, Z+1	; 0x01
    3b0c:	22 23       	and	r18, r18
    3b0e:	09 f4       	brne	.+2      	; 0x3b12 <ProcessInput+0xcb4>
    3b10:	af c0       	rjmp	.+350    	; 0x3c70 <ProcessInput+0xe12>

                    //uint8_t  digit[10] = {0, 0, 0, 0, 0, 0, 0, 0, 0, 0};
                    uint8_t  digit[8] = {0, 0, 0, 0, 0, 0, 0, 0};
    3b12:	ce 01       	movw	r24, r28
    3b14:	01 96       	adiw	r24, 0x01	; 1
    3b16:	7c 01       	movw	r14, r24
    3b18:	88 e0       	ldi	r24, 0x08	; 8
    3b1a:	d7 01       	movw	r26, r14
    3b1c:	1d 92       	st	X+, r1
    3b1e:	8a 95       	dec	r24
    3b20:	e9 f7       	brne	.-6      	; 0x3b1c <ProcessInput+0xcbe>
                        answer = ((offering  & 2) << 19) + ((offering  & 1) << 8) + \
                        ((element   & 2) << 15) + ((element   & 1) << 4) + \
                        ((kneelings & 2) << 11) + ((kneelings & 1))
                        answer = answer << (3-person)
                    */
                    data[1]-='0'; // item 31 needs to become something that results in 0 when doing %4
    3b22:	20 53       	subi	r18, 0x30	; 48
    3b24:	21 83       	std	Z+1, r18	; 0x01
                    data[2]-='1';
    3b26:	32 81       	ldd	r19, Z+2	; 0x02
    3b28:	31 53       	subi	r19, 0x31	; 49
    3b2a:	32 83       	std	Z+2, r19	; 0x02
                    if (data[3] == 'a') data[3] = 1;
    3b2c:	83 81       	ldd	r24, Z+3	; 0x03
    3b2e:	81 36       	cpi	r24, 0x61	; 97
    3b30:	11 f4       	brne	.+4      	; 0x3b36 <ProcessInput+0xcd8>
    3b32:	81 e0       	ldi	r24, 0x01	; 1
    3b34:	0c c0       	rjmp	.+24     	; 0x3b4e <ProcessInput+0xcf0>
                    else if (data[3] == 'e') data[3] = 0;
    3b36:	85 36       	cpi	r24, 0x65	; 101
    3b38:	19 f4       	brne	.+6      	; 0x3b40 <ProcessInput+0xce2>
    3b3a:	f3 01       	movw	r30, r6
    3b3c:	13 82       	std	Z+3, r1	; 0x03
    3b3e:	08 c0       	rjmp	.+16     	; 0x3b50 <ProcessInput+0xcf2>
                    else if (data[3] == 'f') data[3] = 3;
    3b40:	86 36       	cpi	r24, 0x66	; 102
    3b42:	19 f4       	brne	.+6      	; 0x3b4a <ProcessInput+0xcec>
    3b44:	83 e0       	ldi	r24, 0x03	; 3
    3b46:	83 83       	std	Z+3, r24	; 0x03
    3b48:	03 c0       	rjmp	.+6      	; 0x3b50 <ProcessInput+0xcf2>
                    else data[3] = 2;
    3b4a:	82 e0       	ldi	r24, 0x02	; 2
    3b4c:	f3 01       	movw	r30, r6
    3b4e:	83 83       	std	Z+3, r24	; 0x03

                    if (data[1] & 2) answer += (1UL << 20);
    3b50:	21 fd       	sbrc	r18, 1
    3b52:	04 c0       	rjmp	.+8      	; 0x3b5c <ProcessInput+0xcfe>
            if (specialPassed >= 2) {
                if (data[1] > 0) {

                    //uint8_t  digit[10] = {0, 0, 0, 0, 0, 0, 0, 0, 0, 0};
                    uint8_t  digit[8] = {0, 0, 0, 0, 0, 0, 0, 0};
                    uint32_t answer = 0;
    3b54:	80 e0       	ldi	r24, 0x00	; 0
    3b56:	90 e0       	ldi	r25, 0x00	; 0
    3b58:	dc 01       	movw	r26, r24
    3b5a:	04 c0       	rjmp	.+8      	; 0x3b64 <ProcessInput+0xd06>
                    if (data[3] == 'a') data[3] = 1;
                    else if (data[3] == 'e') data[3] = 0;
                    else if (data[3] == 'f') data[3] = 3;
                    else data[3] = 2;

                    if (data[1] & 2) answer += (1UL << 20);
    3b5c:	80 e0       	ldi	r24, 0x00	; 0
    3b5e:	90 e0       	ldi	r25, 0x00	; 0
    3b60:	a0 e1       	ldi	r26, 0x10	; 16
    3b62:	b0 e0       	ldi	r27, 0x00	; 0
                    if (data[1] & 1) answer += (1 << 8);
    3b64:	20 ff       	sbrs	r18, 0
    3b66:	03 c0       	rjmp	.+6      	; 0x3b6e <ProcessInput+0xd10>
    3b68:	9f 5f       	subi	r25, 0xFF	; 255
    3b6a:	af 4f       	sbci	r26, 0xFF	; 255
    3b6c:	bf 4f       	sbci	r27, 0xFF	; 255
                    if (data[3] & 2) answer += (1UL << 16);
    3b6e:	f3 01       	movw	r30, r6
    3b70:	23 81       	ldd	r18, Z+3	; 0x03
    3b72:	21 fd       	sbrc	r18, 1
    3b74:	11 96       	adiw	r26, 0x01	; 1
                    if (data[3] & 1) answer += (1 << 4);
    3b76:	20 ff       	sbrs	r18, 0
    3b78:	03 c0       	rjmp	.+6      	; 0x3b80 <ProcessInput+0xd22>
    3b7a:	40 96       	adiw	r24, 0x10	; 16
    3b7c:	a1 1d       	adc	r26, r1
    3b7e:	b1 1d       	adc	r27, r1
                    if (data[2] & 2) answer += (1 << 12);
    3b80:	31 ff       	sbrs	r19, 1
    3b82:	03 c0       	rjmp	.+6      	; 0x3b8a <ProcessInput+0xd2c>
    3b84:	90 5f       	subi	r25, 0xF0	; 240
    3b86:	af 4f       	sbci	r26, 0xFF	; 255
    3b88:	bf 4f       	sbci	r27, 0xFF	; 255
                    if (data[2] & 1) answer += 1;
    3b8a:	30 ff       	sbrs	r19, 0
    3b8c:	03 c0       	rjmp	.+6      	; 0x3b94 <ProcessInput+0xd36>
    3b8e:	01 96       	adiw	r24, 0x01	; 1
    3b90:	a1 1d       	adc	r26, r1
    3b92:	b1 1d       	adc	r27, r1
                    answer <<= (4 - whoami);            
    3b94:	40 91 3d 38 	lds	r20, 0x383D	; 0x80383d <whoami>
    3b98:	24 e0       	ldi	r18, 0x04	; 4
    3b9a:	30 e0       	ldi	r19, 0x00	; 0
    3b9c:	24 1b       	sub	r18, r20
    3b9e:	31 09       	sbc	r19, r1
    3ba0:	04 c0       	rjmp	.+8      	; 0x3baa <ProcessInput+0xd4c>
    3ba2:	88 0f       	add	r24, r24
    3ba4:	99 1f       	adc	r25, r25
    3ba6:	aa 1f       	adc	r26, r26
    3ba8:	bb 1f       	adc	r27, r27
    3baa:	2a 95       	dec	r18
    3bac:	d2 f7       	brpl	.-12     	; 0x3ba2 <ProcessInput+0xd44>
    return 0;
}

//
void SetResponse(uint8_t number, uint16_t address, uint16_t length, uint8_t type){
    reactStr[0][number]=address;
    3bae:	28 ec       	ldi	r18, 0xC8	; 200
    3bb0:	34 e7       	ldi	r19, 0x74	; 116
    3bb2:	20 93 1d 39 	sts	0x391D, r18	; 0x80391d <reactStr+0x2>
    3bb6:	30 93 1e 39 	sts	0x391E, r19	; 0x80391e <reactStr+0x3>
    reactStr[1][number]=length;
    3bba:	20 e2       	ldi	r18, 0x20	; 32
    3bbc:	30 e0       	ldi	r19, 0x00	; 0
    3bbe:	20 93 5d 39 	sts	0x395D, r18	; 0x80395d <reactStr+0x42>
    3bc2:	30 93 5e 39 	sts	0x395E, r19	; 0x80395e <reactStr+0x43>
    reactStr[2][number]=type;
    3bc6:	21 e0       	ldi	r18, 0x01	; 1
    3bc8:	30 e0       	ldi	r19, 0x00	; 0
    3bca:	20 93 9d 39 	sts	0x399D, r18	; 0x80399d <reactStr+0x82>
    3bce:	30 93 9e 39 	sts	0x399E, r19	; 0x80399e <reactStr+0x83>
    return 0;
}

//
void SetResponse(uint8_t number, uint16_t address, uint16_t length, uint8_t type){
    reactStr[0][number]=address;
    3bd2:	4d e9       	ldi	r20, 0x9D	; 157
    3bd4:	54 e7       	ldi	r21, 0x74	; 116
    3bd6:	40 93 1f 39 	sts	0x391F, r20	; 0x80391f <reactStr+0x4>
    3bda:	50 93 20 39 	sts	0x3920, r21	; 0x803920 <reactStr+0x5>
    reactStr[1][number]=length;
    3bde:	42 e0       	ldi	r20, 0x02	; 2
    3be0:	50 e0       	ldi	r21, 0x00	; 0
    3be2:	40 93 5f 39 	sts	0x395F, r20	; 0x80395f <reactStr+0x44>
    3be6:	50 93 60 39 	sts	0x3960, r21	; 0x803960 <reactStr+0x45>
    reactStr[2][number]=type;
    3bea:	20 93 9f 39 	sts	0x399F, r18	; 0x80399f <reactStr+0x84>
    3bee:	30 93 a0 39 	sts	0x39A0, r19	; 0x8039a0 <reactStr+0x85>

                    SetResponse(elements++, A_YOURPART, L_YOURPART, TEASER);
                    SetResponse(elements++, A_HEXPREFIX, L_HEXPREFIX, TEASER);
                    
                    //Set up sending out number
                    for (n=7; n>=0; --n) {
    3bf2:	07 e0       	ldi	r16, 0x07	; 7
                        digit[n] = answer % 16;
    3bf4:	f7 01       	movw	r30, r14
    3bf6:	e0 0f       	add	r30, r16
    3bf8:	f1 1d       	adc	r31, r1
    3bfa:	28 2f       	mov	r18, r24
    3bfc:	2f 70       	andi	r18, 0x0F	; 15
    3bfe:	20 83       	st	Z, r18
                        answer /= 16;
    3c00:	44 e0       	ldi	r20, 0x04	; 4
    3c02:	b6 95       	lsr	r27
    3c04:	a7 95       	ror	r26
    3c06:	97 95       	ror	r25
    3c08:	87 95       	ror	r24
    3c0a:	4a 95       	dec	r20
    3c0c:	d1 f7       	brne	.-12     	; 0x3c02 <ProcessInput+0xda4>
                        if (answer == 0) break;
    3c0e:	00 97       	sbiw	r24, 0x00	; 0
    3c10:	a1 05       	cpc	r26, r1
    3c12:	b1 05       	cpc	r27, r1
    3c14:	49 f4       	brne	.+18     	; 0x3c28 <ProcessInput+0xdca>
    3c16:	2b e1       	ldi	r18, 0x1B	; 27
    3c18:	c2 2e       	mov	r12, r18
    3c1a:	29 e3       	ldi	r18, 0x39	; 57
    3c1c:	d2 2e       	mov	r13, r18
    3c1e:	13 e0       	ldi	r17, 0x03	; 3
}

//
void SetResponse(uint8_t number, uint16_t address, uint16_t length, uint8_t type){
    reactStr[0][number]=address;
    reactStr[1][number]=length;
    3c20:	aa 24       	eor	r10, r10
    3c22:	a3 94       	inc	r10
    3c24:	b1 2c       	mov	r11, r1
    3c26:	02 c0       	rjmp	.+4      	; 0x3c2c <ProcessInput+0xdce>

                    SetResponse(elements++, A_YOURPART, L_YOURPART, TEASER);
                    SetResponse(elements++, A_HEXPREFIX, L_HEXPREFIX, TEASER);
                    
                    //Set up sending out number
                    for (n=7; n>=0; --n) {
    3c28:	01 50       	subi	r16, 0x01	; 1
                        digit[n] = answer % 16;
                        answer /= 16;
                        if (answer == 0) break;
                    }
    3c2a:	e4 cf       	rjmp	.-56     	; 0x3bf4 <ProcessInput+0xd96>
    3c2c:	b2 e0       	ldi	r27, 0x02	; 2
    3c2e:	cb 0e       	add	r12, r27
    3c30:	d1 1c       	adc	r13, r1

                    for (; n<8; ++n) {
    3c32:	08 30       	cpi	r16, 0x08	; 8
    3c34:	08 f0       	brcs	.+2      	; 0x3c38 <ProcessInput+0xdda>
    3c36:	9e c0       	rjmp	.+316    	; 0x3d74 <ProcessInput+0xf16>
                        SetResponse(elements++, A_DIGITS+digit[n], 1, TEASER);
    3c38:	1f 5f       	subi	r17, 0xFF	; 255
    3c3a:	f7 01       	movw	r30, r14
    3c3c:	e0 0f       	add	r30, r16
    3c3e:	f1 1d       	adc	r31, r1
    return 0;
}

//
void SetResponse(uint8_t number, uint16_t address, uint16_t length, uint8_t type){
    reactStr[0][number]=address;
    3c40:	80 81       	ld	r24, Z
    3c42:	90 e0       	ldi	r25, 0x00	; 0
    3c44:	83 57       	subi	r24, 0x73	; 115
    3c46:	9b 48       	sbci	r25, 0x8B	; 139
    3c48:	d6 01       	movw	r26, r12
    3c4a:	14 96       	adiw	r26, 0x04	; 4
    3c4c:	8d 93       	st	X+, r24
    3c4e:	9c 93       	st	X, r25
    3c50:	15 97       	sbiw	r26, 0x05	; 5
    reactStr[1][number]=length;
    3c52:	f6 01       	movw	r30, r12
    3c54:	ec 5b       	subi	r30, 0xBC	; 188
    3c56:	ff 4f       	sbci	r31, 0xFF	; 255
    3c58:	a0 82       	st	Z, r10
    3c5a:	b1 82       	std	Z+1, r11	; 0x01
    reactStr[2][number]=type;
    3c5c:	e0 5c       	subi	r30, 0xC0	; 192
    3c5e:	ff 4f       	sbci	r31, 0xFF	; 255
    3c60:	a0 82       	st	Z, r10
    3c62:	b1 82       	std	Z+1, r11	; 0x01
                        if (answer == 0) break;
                    }

                    for (; n<8; ++n) {
                        SetResponse(elements++, A_DIGITS+digit[n], 1, TEASER);
                        UpdateState(actObj1.byteField[ACTION_STATE]);
    3c64:	80 91 e4 38 	lds	r24, 0x38E4	; 0x8038e4 <actObj1.3988+0xa>
    3c68:	0e 94 4a 0a 	call	0x1494	; 0x1494 <UpdateState>
                        digit[n] = answer % 16;
                        answer /= 16;
                        if (answer == 0) break;
                    }

                    for (; n<8; ++n) {
    3c6c:	0f 5f       	subi	r16, 0xFF	; 255
    3c6e:	de cf       	rjmp	.-68     	; 0x3c2c <ProcessInput+0xdce>
    return 0;
}

//
void SetResponse(uint8_t number, uint16_t address, uint16_t length, uint8_t type){
    reactStr[0][number]=address;
    3c70:	88 ee       	ldi	r24, 0xE8	; 232
    3c72:	94 e7       	ldi	r25, 0x74	; 116
    3c74:	80 93 1d 39 	sts	0x391D, r24	; 0x80391d <reactStr+0x2>
    3c78:	90 93 1e 39 	sts	0x391E, r25	; 0x80391e <reactStr+0x3>
    reactStr[1][number]=length;
    3c7c:	8d e3       	ldi	r24, 0x3D	; 61
    3c7e:	90 e0       	ldi	r25, 0x00	; 0
    3c80:	80 93 5d 39 	sts	0x395D, r24	; 0x80395d <reactStr+0x42>
    3c84:	90 93 5e 39 	sts	0x395E, r25	; 0x80395e <reactStr+0x43>
    reactStr[2][number]=type;
    3c88:	81 e0       	ldi	r24, 0x01	; 1
    3c8a:	90 e0       	ldi	r25, 0x00	; 0
    3c8c:	80 93 9d 39 	sts	0x399D, r24	; 0x80399d <reactStr+0x82>
    3c90:	90 93 9e 39 	sts	0x399E, r25	; 0x80399e <reactStr+0x83>
    3c94:	6e c0       	rjmp	.+220    	; 0x3d72 <ProcessInput+0xf14>
    3c96:	e0 91 2e 38 	lds	r30, 0x382E	; 0x80382e <currDepth>
                    SetResponse(elements++, A_BADOFFERING, L_BADOFFERING, TEASER);
                }
            
            //Other questions    
            } else if (specialPassed == 1) {
                PopulateObject(route[currDepth+1], &actObj1);
    3c9a:	f0 e0       	ldi	r31, 0x00	; 0
    3c9c:	ee 0f       	add	r30, r30
    3c9e:	ff 1f       	adc	r31, r31
    3ca0:	e3 52       	subi	r30, 0x23	; 35
    3ca2:	f6 4c       	sbci	r31, 0xC6	; 198
    3ca4:	6a ed       	ldi	r22, 0xDA	; 218
    3ca6:	78 e3       	ldi	r23, 0x38	; 56
                } else {
                    SetResponse(elements++, A_BADOFFERING, L_BADOFFERING, TEASER);
                }
            
            //Other questions    
            } else if (specialPassed == 1) {
    3ca8:	81 30       	cpi	r24, 0x01	; 1
    3caa:	09 f0       	breq	.+2      	; 0x3cae <ProcessInput+0xe50>
    3cac:	46 c0       	rjmp	.+140    	; 0x3d3a <ProcessInput+0xedc>
                PopulateObject(route[currDepth+1], &actObj1);
    3cae:	80 81       	ld	r24, Z
    3cb0:	91 81       	ldd	r25, Z+1	; 0x01
    3cb2:	0e 94 49 12 	call	0x2492	; 0x2492 <PopulateObject>
                if (CheckState(actObj1.byteField[ACTION_ACL])){
    3cb6:	80 91 e1 38 	lds	r24, 0x38E1	; 0x8038e1 <actObj1.3988+0x7>
    3cba:	0e 94 54 0a 	call	0x14a8	; 0x14a8 <CheckState>
    3cbe:	88 23       	and	r24, r24
    3cc0:	01 f1       	breq	.+64     	; 0x3d02 <ProcessInput+0xea4>
                    SetResponse(elements++, actObj1.addrStr[ACTION_MSG], actObj1.lenStr[ACTION_MSG], GAME);
    3cc2:	80 91 00 39 	lds	r24, 0x3900	; 0x803900 <actObj1.3988+0x26>
    3cc6:	90 91 01 39 	lds	r25, 0x3901	; 0x803901 <actObj1.3988+0x27>
    return 0;
}

//
void SetResponse(uint8_t number, uint16_t address, uint16_t length, uint8_t type){
    reactStr[0][number]=address;
    3cca:	20 91 f2 38 	lds	r18, 0x38F2	; 0x8038f2 <actObj1.3988+0x18>
    3cce:	30 91 f3 38 	lds	r19, 0x38F3	; 0x8038f3 <actObj1.3988+0x19>
    3cd2:	20 93 1d 39 	sts	0x391D, r18	; 0x80391d <reactStr+0x2>
    3cd6:	30 93 1e 39 	sts	0x391E, r19	; 0x80391e <reactStr+0x3>
    reactStr[1][number]=length;
    3cda:	80 93 5d 39 	sts	0x395D, r24	; 0x80395d <reactStr+0x42>
    3cde:	90 93 5e 39 	sts	0x395E, r25	; 0x80395e <reactStr+0x43>
    reactStr[2][number]=type;
    3ce2:	10 92 9d 39 	sts	0x399D, r1	; 0x80399d <reactStr+0x82>
    3ce6:	10 92 9e 39 	sts	0x399E, r1	; 0x80399e <reactStr+0x83>
            //Other questions    
            } else if (specialPassed == 1) {
                PopulateObject(route[currDepth+1], &actObj1);
                if (CheckState(actObj1.byteField[ACTION_ACL])){
                    SetResponse(elements++, actObj1.addrStr[ACTION_MSG], actObj1.lenStr[ACTION_MSG], GAME);
                    effect = actObj1.effect[2];
    3cea:	80 91 04 39 	lds	r24, 0x3904	; 0x803904 <actObj1.3988+0x2a>
    3cee:	90 e0       	ldi	r25, 0x00	; 0
    3cf0:	80 93 3a 38 	sts	0x383A, r24	; 0x80383a <effect>
    3cf4:	90 93 3b 38 	sts	0x383B, r25	; 0x80383b <effect+0x1>
                    UpdateState(actObj1.byteField[ACTION_STATE]);
    3cf8:	80 91 e4 38 	lds	r24, 0x38E4	; 0x8038e4 <actObj1.3988+0xa>
    3cfc:	0e 94 4a 0a 	call	0x1494	; 0x1494 <UpdateState>
    3d00:	38 c0       	rjmp	.+112    	; 0x3d72 <ProcessInput+0xf14>
                } else {
                    SetResponse(elements++, actObj1.addrStr[ACTION_ACL_MSG], actObj1.lenStr[ACTION_ACL_MSG], GAME);
    3d02:	80 91 fe 38 	lds	r24, 0x38FE	; 0x8038fe <actObj1.3988+0x24>
    3d06:	90 91 ff 38 	lds	r25, 0x38FF	; 0x8038ff <actObj1.3988+0x25>
    return 0;
}

//
void SetResponse(uint8_t number, uint16_t address, uint16_t length, uint8_t type){
    reactStr[0][number]=address;
    3d0a:	20 91 f0 38 	lds	r18, 0x38F0	; 0x8038f0 <actObj1.3988+0x16>
    3d0e:	30 91 f1 38 	lds	r19, 0x38F1	; 0x8038f1 <actObj1.3988+0x17>
    3d12:	20 93 1d 39 	sts	0x391D, r18	; 0x80391d <reactStr+0x2>
    3d16:	30 93 1e 39 	sts	0x391E, r19	; 0x80391e <reactStr+0x3>
    reactStr[1][number]=length;
    3d1a:	80 93 5d 39 	sts	0x395D, r24	; 0x80395d <reactStr+0x42>
    3d1e:	90 93 5e 39 	sts	0x395E, r25	; 0x80395e <reactStr+0x43>
    reactStr[2][number]=type;
    3d22:	10 92 9d 39 	sts	0x399D, r1	; 0x80399d <reactStr+0x82>
    3d26:	10 92 9e 39 	sts	0x399E, r1	; 0x80399e <reactStr+0x83>
                    SetResponse(elements++, actObj1.addrStr[ACTION_MSG], actObj1.lenStr[ACTION_MSG], GAME);
                    effect = actObj1.effect[2];
                    UpdateState(actObj1.byteField[ACTION_STATE]);
                } else {
                    SetResponse(elements++, actObj1.addrStr[ACTION_ACL_MSG], actObj1.lenStr[ACTION_ACL_MSG], GAME);
                    effect = actObj1.effect[1];
    3d2a:	80 91 03 39 	lds	r24, 0x3903	; 0x803903 <actObj1.3988+0x29>
    3d2e:	90 e0       	ldi	r25, 0x00	; 0
    3d30:	80 93 3a 38 	sts	0x383A, r24	; 0x80383a <effect>
    3d34:	90 93 3b 38 	sts	0x383B, r25	; 0x80383b <effect+0x1>
    3d38:	1c c0       	rjmp	.+56     	; 0x3d72 <ProcessInput+0xf14>
                }

            } else {
                PopulateObject(route[currDepth+1], &actObj1);
    3d3a:	80 81       	ld	r24, Z
    3d3c:	91 81       	ldd	r25, Z+1	; 0x01
    3d3e:	0e 94 49 12 	call	0x2492	; 0x2492 <PopulateObject>
    return 0;
}

//
void SetResponse(uint8_t number, uint16_t address, uint16_t length, uint8_t type){
    reactStr[0][number]=address;
    3d42:	80 e6       	ldi	r24, 0x60	; 96
    3d44:	98 e7       	ldi	r25, 0x78	; 120
    3d46:	80 93 1d 39 	sts	0x391D, r24	; 0x80391d <reactStr+0x2>
    3d4a:	90 93 1e 39 	sts	0x391E, r25	; 0x80391e <reactStr+0x3>
    reactStr[1][number]=length;
    3d4e:	8d e4       	ldi	r24, 0x4D	; 77
    3d50:	90 e0       	ldi	r25, 0x00	; 0
    3d52:	80 93 5d 39 	sts	0x395D, r24	; 0x80395d <reactStr+0x42>
    3d56:	90 93 5e 39 	sts	0x395E, r25	; 0x80395e <reactStr+0x43>
    reactStr[2][number]=type;
    3d5a:	81 e0       	ldi	r24, 0x01	; 1
    3d5c:	90 e0       	ldi	r25, 0x00	; 0
    3d5e:	80 93 9d 39 	sts	0x399D, r24	; 0x80399d <reactStr+0x82>
    3d62:	90 93 9e 39 	sts	0x399E, r25	; 0x80399e <reactStr+0x83>
                }

            } else {
                PopulateObject(route[currDepth+1], &actObj1);
                SetResponse(elements++, A_INCORRECT, L_INCORRECT, TEASER);
                PunishmentTime = getClock();
    3d66:	0e 94 17 0e 	call	0x1c2e	; 0x1c2e <getClock>
    3d6a:	80 93 07 39 	sts	0x3907, r24	; 0x803907 <PunishmentTime>
    3d6e:	90 93 08 39 	sts	0x3908, r25	; 0x803908 <PunishmentTime+0x1>
                    effect = actObj1.effect[1];
                }

            } else {
                PopulateObject(route[currDepth+1], &actObj1);
                SetResponse(elements++, A_INCORRECT, L_INCORRECT, TEASER);
    3d72:	12 e0       	ldi	r17, 0x02	; 2
                PunishmentTime = getClock();
            }
            specialInput[0] = 0;
    3d74:	10 92 0a 39 	sts	0x390A, r1	; 0x80390a <specialInput>

        }
                    
        //Input handled
        if (specialInput[0]) responseList = elements; else responseList = SetStandardResponse(elements);
    3d78:	80 91 0a 39 	lds	r24, 0x390A	; 0x80390a <specialInput>
    3d7c:	88 23       	and	r24, r24
    3d7e:	19 f0       	breq	.+6      	; 0x3d86 <ProcessInput+0xf28>
    3d80:	10 93 1a 39 	sts	0x391A, r17	; 0x80391a <responseList>
    3d84:	8b c0       	rjmp	.+278    	; 0x3e9c <ProcessInput+0x103e>
    3d86:	81 2f       	mov	r24, r17
    3d88:	01 c0       	rjmp	.+2      	; 0x3d8c <ProcessInput+0xf2e>

    } else {

        responseList = SetStandardResponse(1);
    3d8a:	81 e0       	ldi	r24, 0x01	; 1
    3d8c:	0e 94 cd 11 	call	0x239a	; 0x239a <SetStandardResponse>
    3d90:	80 93 1a 39 	sts	0x391A, r24	; 0x80391a <responseList>
    3d94:	83 c0       	rjmp	.+262    	; 0x3e9c <ProcessInput+0x103e>
    return 0;
}

//
void SetResponse(uint8_t number, uint16_t address, uint16_t length, uint8_t type){
    reactStr[0][number]=address;
    3d96:	81 ed       	ldi	r24, 0xD1	; 209
    3d98:	99 e7       	ldi	r25, 0x79	; 121
    3d9a:	80 93 1d 39 	sts	0x391D, r24	; 0x80391d <reactStr+0x2>
    3d9e:	90 93 1e 39 	sts	0x391E, r25	; 0x80391e <reactStr+0x3>
    reactStr[1][number]=length;
    3da2:	8a e1       	ldi	r24, 0x1A	; 26
    3da4:	90 e0       	ldi	r25, 0x00	; 0
    3da6:	44 c9       	rjmp	.-3448   	; 0x3030 <ProcessInput+0x1d2>

        //Drop item if in inventory
        if (data[0] == 'd') {
            if ((inventory[0] == 0)&&(inventory[1] == 0)){
                SetResponse(elements++, A_EMPTYHANDS, L_EMPTYHANDS, TEASER);
            } else if (inputLen != 2) {
    3da8:	f2 e0       	ldi	r31, 0x02	; 2
    3daa:	ff 12       	cpse	r15, r31
    3dac:	98 c8       	rjmp	.-3792   	; 0x2ede <ProcessInput+0x80>
                SetResponse(elements++, A_NOTPOSSIBLE, L_NOTPOSSIBLE, TEASER);
            } else {
                for (uint8_t x=0; x<2; ++x) {
                    if (inventory[x]) {
                        if (CheckLetter(inventory[x], data[1])) {
    3dae:	f3 01       	movw	r30, r6
    3db0:	61 81       	ldd	r22, Z+1	; 0x01
    3db2:	0e 94 c2 12 	call	0x2584	; 0x2584 <CheckLetter>
    3db6:	88 23       	and	r24, r24
    3db8:	09 f4       	brne	.+2      	; 0x3dbc <ProcessInput+0xf5e>
    3dba:	58 c0       	rjmp	.+176    	; 0x3e6c <ProcessInput+0x100e>
                SetResponse(elements++, A_EMPTYHANDS, L_EMPTYHANDS, TEASER);
            } else if (inputLen != 2) {
                SetResponse(elements++, A_NOTPOSSIBLE, L_NOTPOSSIBLE, TEASER);
            } else {
                for (uint8_t x=0; x<2; ++x) {
                    if (inventory[x]) {
    3dbc:	00 e0       	ldi	r16, 0x00	; 0
    3dbe:	10 e0       	ldi	r17, 0x00	; 0
                        if (CheckLetter(inventory[x], data[1])) {
                            PopulateObject(inventory[x], &actObj1);
    3dc0:	00 0f       	add	r16, r16
    3dc2:	11 1f       	adc	r17, r17
    3dc4:	02 5c       	subi	r16, 0xC2	; 194
    3dc6:	17 4c       	sbci	r17, 0xC7	; 199
    3dc8:	6a ed       	ldi	r22, 0xDA	; 218
    3dca:	78 e3       	ldi	r23, 0x38	; 56
    3dcc:	d8 01       	movw	r26, r16
    3dce:	8d 91       	ld	r24, X+
    3dd0:	9c 91       	ld	r25, X
    3dd2:	0e 94 49 12 	call	0x2492	; 0x2492 <PopulateObject>
    return 0;
}

//
void SetResponse(uint8_t number, uint16_t address, uint16_t length, uint8_t type){
    reactStr[0][number]=address;
    3dd6:	86 e9       	ldi	r24, 0x96	; 150
    3dd8:	97 e7       	ldi	r25, 0x77	; 119
    3dda:	80 93 1d 39 	sts	0x391D, r24	; 0x80391d <reactStr+0x2>
    3dde:	90 93 1e 39 	sts	0x391E, r25	; 0x80391e <reactStr+0x3>
    reactStr[1][number]=length;
    3de2:	80 e1       	ldi	r24, 0x10	; 16
    3de4:	90 e0       	ldi	r25, 0x00	; 0
    3de6:	80 93 5d 39 	sts	0x395D, r24	; 0x80395d <reactStr+0x42>
    3dea:	90 93 5e 39 	sts	0x395E, r25	; 0x80395e <reactStr+0x43>
    reactStr[2][number]=type;
    3dee:	81 e0       	ldi	r24, 0x01	; 1
    3df0:	90 e0       	ldi	r25, 0x00	; 0
    3df2:	80 93 9d 39 	sts	0x399D, r24	; 0x80399d <reactStr+0x82>
    3df6:	90 93 9e 39 	sts	0x399E, r25	; 0x80399e <reactStr+0x83>
                for (uint8_t x=0; x<2; ++x) {
                    if (inventory[x]) {
                        if (CheckLetter(inventory[x], data[1])) {
                            PopulateObject(inventory[x], &actObj1);
                            SetResponse(elements++, A_DROPPING, L_DROPPING, TEASER);
                            SetResponse(elements++, actObj1.addrStr[NAME], actObj1.lenStr[NAME], GAME);
    3dfa:	20 91 f4 38 	lds	r18, 0x38F4	; 0x8038f4 <actObj1.3988+0x1a>
    3dfe:	30 91 f5 38 	lds	r19, 0x38F5	; 0x8038f5 <actObj1.3988+0x1b>
    return 0;
}

//
void SetResponse(uint8_t number, uint16_t address, uint16_t length, uint8_t type){
    reactStr[0][number]=address;
    3e02:	40 91 e6 38 	lds	r20, 0x38E6	; 0x8038e6 <actObj1.3988+0xc>
    3e06:	50 91 e7 38 	lds	r21, 0x38E7	; 0x8038e7 <actObj1.3988+0xd>
    3e0a:	40 93 1f 39 	sts	0x391F, r20	; 0x80391f <reactStr+0x4>
    3e0e:	50 93 20 39 	sts	0x3920, r21	; 0x803920 <reactStr+0x5>
    reactStr[1][number]=length;
    3e12:	20 93 5f 39 	sts	0x395F, r18	; 0x80395f <reactStr+0x44>
    3e16:	30 93 60 39 	sts	0x3960, r19	; 0x803960 <reactStr+0x45>
    reactStr[2][number]=type;
    3e1a:	10 92 9f 39 	sts	0x399F, r1	; 0x80399f <reactStr+0x84>
    3e1e:	10 92 a0 39 	sts	0x39A0, r1	; 0x8039a0 <reactStr+0x85>
    return 0;
}

//
void SetResponse(uint8_t number, uint16_t address, uint16_t length, uint8_t type){
    reactStr[0][number]=address;
    3e22:	29 e5       	ldi	r18, 0x59	; 89
    3e24:	3a e7       	ldi	r19, 0x7A	; 122
    3e26:	20 93 21 39 	sts	0x3921, r18	; 0x803921 <reactStr+0x6>
    3e2a:	30 93 22 39 	sts	0x3922, r19	; 0x803922 <reactStr+0x7>
    reactStr[1][number]=length;
    3e2e:	22 e0       	ldi	r18, 0x02	; 2
    3e30:	30 e0       	ldi	r19, 0x00	; 0
    3e32:	20 93 61 39 	sts	0x3961, r18	; 0x803961 <reactStr+0x46>
    3e36:	30 93 62 39 	sts	0x3962, r19	; 0x803962 <reactStr+0x47>
    reactStr[2][number]=type;
    3e3a:	80 93 a1 39 	sts	0x39A1, r24	; 0x8039a1 <reactStr+0x86>
    3e3e:	90 93 a2 39 	sts	0x39A2, r25	; 0x8039a2 <reactStr+0x87>
    return 0;
}

//
void SetResponse(uint8_t number, uint16_t address, uint16_t length, uint8_t type){
    reactStr[0][number]=address;
    3e42:	29 e5       	ldi	r18, 0x59	; 89
    3e44:	37 e7       	ldi	r19, 0x77	; 119
    3e46:	20 93 23 39 	sts	0x3923, r18	; 0x803923 <reactStr+0x8>
    3e4a:	30 93 24 39 	sts	0x3924, r19	; 0x803924 <reactStr+0x9>
    reactStr[1][number]=length;
    3e4e:	2d e3       	ldi	r18, 0x3D	; 61
    3e50:	30 e0       	ldi	r19, 0x00	; 0
    3e52:	20 93 63 39 	sts	0x3963, r18	; 0x803963 <reactStr+0x48>
    3e56:	30 93 64 39 	sts	0x3964, r19	; 0x803964 <reactStr+0x49>
    reactStr[2][number]=type;
    3e5a:	80 93 a3 39 	sts	0x39A3, r24	; 0x8039a3 <reactStr+0x88>
    3e5e:	90 93 a4 39 	sts	0x39A4, r25	; 0x8039a4 <reactStr+0x89>
                            PopulateObject(inventory[x], &actObj1);
                            SetResponse(elements++, A_DROPPING, L_DROPPING, TEASER);
                            SetResponse(elements++, actObj1.addrStr[NAME], actObj1.lenStr[NAME], GAME);
                            SetResponse(elements++, A_LF, 2, TEASER);
                            SetResponse(elements++, A_RETURNING, L_RETURNING, TEASER);
                            inventory[x] = 0;
    3e62:	f8 01       	movw	r30, r16
    3e64:	10 82       	st	Z, r1
    3e66:	11 82       	std	Z+1, r1	; 0x01
                        if (CheckLetter(inventory[x], data[1])) {
                            PopulateObject(inventory[x], &actObj1);
                            SetResponse(elements++, A_DROPPING, L_DROPPING, TEASER);
                            SetResponse(elements++, actObj1.addrStr[NAME], actObj1.lenStr[NAME], GAME);
                            SetResponse(elements++, A_LF, 2, TEASER);
                            SetResponse(elements++, A_RETURNING, L_RETURNING, TEASER);
    3e68:	15 e0       	ldi	r17, 0x05	; 5
                            inventory[x] = 0;
                            break;
    3e6a:	86 cf       	rjmp	.-244    	; 0x3d78 <ProcessInput+0xf1a>
                SetResponse(elements++, A_EMPTYHANDS, L_EMPTYHANDS, TEASER);
            } else if (inputLen != 2) {
                SetResponse(elements++, A_NOTPOSSIBLE, L_NOTPOSSIBLE, TEASER);
            } else {
                for (uint8_t x=0; x<2; ++x) {
                    if (inventory[x]) {
    3e6c:	80 91 40 38 	lds	r24, 0x3840	; 0x803840 <inventory+0x2>
    3e70:	90 91 41 38 	lds	r25, 0x3841	; 0x803841 <inventory+0x3>
    3e74:	00 97       	sbiw	r24, 0x00	; 0
    3e76:	49 f0       	breq	.+18     	; 0x3e8a <ProcessInput+0x102c>
                        if (CheckLetter(inventory[x], data[1])) {
    3e78:	f3 01       	movw	r30, r6
    3e7a:	61 81       	ldd	r22, Z+1	; 0x01
    3e7c:	0e 94 c2 12 	call	0x2584	; 0x2584 <CheckLetter>
    3e80:	88 23       	and	r24, r24
    3e82:	19 f0       	breq	.+6      	; 0x3e8a <ProcessInput+0x102c>
                SetResponse(elements++, A_EMPTYHANDS, L_EMPTYHANDS, TEASER);
            } else if (inputLen != 2) {
                SetResponse(elements++, A_NOTPOSSIBLE, L_NOTPOSSIBLE, TEASER);
            } else {
                for (uint8_t x=0; x<2; ++x) {
                    if (inventory[x]) {
    3e84:	01 e0       	ldi	r16, 0x01	; 1
    3e86:	10 e0       	ldi	r17, 0x00	; 0
    3e88:	9b cf       	rjmp	.-202    	; 0x3dc0 <ProcessInput+0xf62>
    return 0;
}

//
void SetResponse(uint8_t number, uint16_t address, uint16_t length, uint8_t type){
    reactStr[0][number]=address;
    3e8a:	81 e6       	ldi	r24, 0x61	; 97
    3e8c:	99 e7       	ldi	r25, 0x79	; 121
    3e8e:	80 93 1d 39 	sts	0x391D, r24	; 0x80391d <reactStr+0x2>
    3e92:	90 93 1e 39 	sts	0x391E, r25	; 0x80391e <reactStr+0x3>
    reactStr[1][number]=length;
    3e96:	81 e2       	ldi	r24, 0x21	; 33
    3e98:	90 e0       	ldi	r25, 0x00	; 0
    3e9a:	ca c8       	rjmp	.-3692   	; 0x3030 <ProcessInput+0x1d2>
    } else {

        responseList = SetStandardResponse(1);
    }

    data[0] = 0;
    3e9c:	f3 01       	movw	r30, r6
    3e9e:	10 82       	st	Z, r1
    serRxDone = 0;
    3ea0:	10 92 44 38 	sts	0x3844, r1	; 0x803844 <serRxDone>
    RXCNT = 0;    
    3ea4:	1d ba       	out	0x1d, r1	; 29
    return 0;
}
    3ea6:	80 e0       	ldi	r24, 0x00	; 0
    3ea8:	28 96       	adiw	r28, 0x08	; 8
    3eaa:	cd bf       	out	0x3d, r28	; 61
    3eac:	de bf       	out	0x3e, r29	; 62
    3eae:	df 91       	pop	r29
    3eb0:	cf 91       	pop	r28
    3eb2:	1f 91       	pop	r17
    3eb4:	0f 91       	pop	r16
    3eb6:	ff 90       	pop	r15
    3eb8:	ef 90       	pop	r14
    3eba:	df 90       	pop	r13
    3ebc:	cf 90       	pop	r12
    3ebe:	bf 90       	pop	r11
    3ec0:	af 90       	pop	r10
    3ec2:	9f 90       	pop	r9
    3ec4:	8f 90       	pop	r8
    3ec6:	7f 90       	pop	r7
    3ec8:	6f 90       	pop	r6
    3eca:	08 95       	ret

00003ecc <TextAdventure>:


//MAIN GAME STRUCTURE
uint8_t TextAdventure(){
    3ecc:	cf 93       	push	r28
    static uint8_t serInput[RXLEN];
    uint16_t PunishmentCount;
    
    /* Count down PunishmentTime on WING LEDs */
    if (PunishmentTime != 0) {
    3ece:	80 91 07 39 	lds	r24, 0x3907	; 0x803907 <PunishmentTime>
    3ed2:	90 91 08 39 	lds	r25, 0x3908	; 0x803908 <PunishmentTime+0x1>
    3ed6:	89 2b       	or	r24, r25
    3ed8:	09 f1       	breq	.+66     	; 0x3f1c <TextAdventure+0x50>
        PunishmentCount = getClock();
    3eda:	0e 94 17 0e 	call	0x1c2e	; 0x1c2e <getClock>
        if (PunishmentCount < PunishmentTime)
    3ede:	20 91 07 39 	lds	r18, 0x3907	; 0x803907 <PunishmentTime>
    3ee2:	30 91 08 39 	lds	r19, 0x3908	; 0x803908 <PunishmentTime+0x1>
    3ee6:	82 17       	cp	r24, r18
    3ee8:	93 07       	cpc	r25, r19
    3eea:	08 f4       	brcc	.+2      	; 0x3eee <TextAdventure+0x22>
            PunishmentCount += 256 * 60;
    3eec:	94 5c       	subi	r25, 0xC4	; 196
        PunishmentCount -= PunishmentTime;
    3eee:	ac 01       	movw	r20, r24
    3ef0:	42 1b       	sub	r20, r18
    3ef2:	53 0b       	sbc	r21, r19
    3ef4:	9a 01       	movw	r18, r20
        if (PunishmentCount > 10) {
    3ef6:	4b 30       	cpi	r20, 0x0B	; 11
    3ef8:	51 05       	cpc	r21, r1
    3efa:	30 f0       	brcs	.+12     	; 0x3f08 <TextAdventure+0x3c>
            PunishmentTime = 0;
    3efc:	10 92 07 39 	sts	0x3907, r1	; 0x803907 <PunishmentTime>
    3f00:	10 92 08 39 	sts	0x3908, r1	; 0x803908 <PunishmentTime+0x1>
            PunishmentCount = 10;
    3f04:	2a e0       	ldi	r18, 0x0A	; 10
    3f06:	30 e0       	ldi	r19, 0x00	; 0
        }
        if (gameNow == TEXT ) {
    3f08:	80 91 3c 38 	lds	r24, 0x383C	; 0x80383c <gameNow>
    3f0c:	81 11       	cpse	r24, r1
    3f0e:	06 c0       	rjmp	.+12     	; 0x3f1c <TextAdventure+0x50>
            WingBar(10-PunishmentCount,5-PunishmentCount);
    3f10:	65 e0       	ldi	r22, 0x05	; 5
    3f12:	62 1b       	sub	r22, r18
    3f14:	8a e0       	ldi	r24, 0x0A	; 10
    3f16:	82 1b       	sub	r24, r18
    3f18:	0e 94 2e 0b 	call	0x165c	; 0x165c <WingBar>
        }
    }

    //Still sending data to serial?
    if (CheckSend()) return 1;
    3f1c:	0e 94 a7 13 	call	0x274e	; 0x274e <CheckSend>
    3f20:	88 23       	and	r24, r24
    3f22:	11 f0       	breq	.+4      	; 0x3f28 <TextAdventure+0x5c>
    3f24:	c1 e0       	ldi	r28, 0x01	; 1
    3f26:	18 c0       	rjmp	.+48     	; 0x3f58 <TextAdventure+0x8c>

    //Not sending? Process next response part to send, if any.
    if (CheckResponse()) return 1;        
    3f28:	0e 94 0a 14 	call	0x2814	; 0x2814 <CheckResponse>
    3f2c:	c8 2f       	mov	r28, r24
    3f2e:	81 11       	cpse	r24, r1
    3f30:	f9 cf       	rjmp	.-14     	; 0x3f24 <TextAdventure+0x58>

    if (PunishmentTime == 0) {
    3f32:	80 91 07 39 	lds	r24, 0x3907	; 0x803907 <PunishmentTime>
    3f36:	90 91 08 39 	lds	r25, 0x3908	; 0x803908 <PunishmentTime+0x1>
    3f3a:	89 2b       	or	r24, r25
    3f3c:	69 f4       	brne	.+26     	; 0x3f58 <TextAdventure+0x8c>
        //No responses to send, check if there is user input.
        if (CheckInput(&serInput[0])) return 2; 
    3f3e:	8e e6       	ldi	r24, 0x6E	; 110
    3f40:	98 e3       	ldi	r25, 0x38	; 56
    3f42:	0e 94 4a 14 	call	0x2894	; 0x2894 <CheckInput>
    3f46:	c8 2f       	mov	r28, r24
    3f48:	81 11       	cpse	r24, r1
    3f4a:	05 c0       	rjmp	.+10     	; 0x3f56 <TextAdventure+0x8a>

        //Input found, process and save (changes only)
        ProcessInput(&serInput[0]);
    3f4c:	8e e6       	ldi	r24, 0x6E	; 110
    3f4e:	98 e3       	ldi	r25, 0x38	; 56
    3f50:	0e 94 2f 17 	call	0x2e5e	; 0x2e5e <ProcessInput>
    3f54:	01 c0       	rjmp	.+2      	; 0x3f58 <TextAdventure+0x8c>
    //Not sending? Process next response part to send, if any.
    if (CheckResponse()) return 1;        

    if (PunishmentTime == 0) {
        //No responses to send, check if there is user input.
        if (CheckInput(&serInput[0])) return 2; 
    3f56:	c2 e0       	ldi	r28, 0x02	; 2
        //Input found, process and save (changes only)
        ProcessInput(&serInput[0]);
    }

    return 0;
}
    3f58:	8c 2f       	mov	r24, r28
    3f5a:	cf 91       	pop	r28
    3f5c:	08 95       	ret

00003f5e <main>:


//This is where it begins, inits first and main program in while(1) loop.
int main(void)
{
    Setup();
    3f5e:	0e 94 fc 04 	call	0x9f8	; 0x9f8 <Setup>
    LoadGameState();
    3f62:	0e 94 9c 0a 	call	0x1538	; 0x1538 <LoadGameState>
    SelfTest();
    3f66:	0e 94 3e 0e 	call	0x1c7c	; 0x1c7c <SelfTest>
            if (adcPhot < 10) WriteStatusBit(116, 1);
            if (adcPhot > 100) WriteStatusBit(116, 0);

            dimValueSum -= (dimValueSum>>6);
            dimValueSum += 256;
            dimValueSum -= QSINE[31-(adcPhot>>7)];
    3f6a:	cf e1       	ldi	r28, 0x1F	; 31
    3f6c:	d0 e0       	ldi	r29, 0x00	; 0
    Setup();
    LoadGameState();
    SelfTest();

    while (TRUE) {
        if (GenerateAudio()) {
    3f6e:	0e 94 e0 0c 	call	0x19c0	; 0x19c0 <GenerateAudio>
    3f72:	88 23       	and	r24, r24
    3f74:	e1 f3       	breq	.-8      	; 0x3f6e <main+0x10>
            lastButtonState = buttonState;
    3f76:	80 91 08 38 	lds	r24, 0x3808	; 0x803808 <buttonState>
    3f7a:	80 93 07 38 	sts	0x3807, r24	; 0x803807 <lastButtonState>
            buttonState = CheckButtons();
    3f7e:	0e 94 f8 08 	call	0x11f0	; 0x11f0 <CheckButtons>
    3f82:	80 93 08 38 	sts	0x3808, r24	; 0x803808 <buttonState>
            buttonMark = 0;
    3f86:	10 92 42 38 	sts	0x3842, r1	; 0x803842 <buttonMark>

            if (VREF_CTRLA == 0x12) SelectAuIn(); else SelectTSens();
    3f8a:	80 91 a0 00 	lds	r24, 0x00A0	; 0x8000a0 <__TEXT_REGION_LENGTH__+0x7000a0>
    3f8e:	82 31       	cpi	r24, 0x12	; 18
    3f90:	19 f4       	brne	.+6      	; 0x3f98 <main+0x3a>
    3f92:	0e 94 e9 08 	call	0x11d2	; 0x11d2 <SelectAuIn>
    3f96:	02 c0       	rjmp	.+4      	; 0x3f9c <main+0x3e>
    3f98:	0e 94 da 08 	call	0x11b4	; 0x11b4 <SelectTSens>

            GenerateBlinks();
    3f9c:	0e 94 83 0b 	call	0x1706	; 0x1706 <GenerateBlinks>

            //Main game, to complete: Finish sub-game MagnetMaze and MakeFriends too.
            TextAdventure();
    3fa0:	95 df       	rcall	.-214    	; 0x3ecc <TextAdventure>

            //Other games & user interaction checks
            MagnetMaze();
    3fa2:	0e 94 ff 03 	call	0x7fe	; 0x7fe <MagnetMaze>
            LanyardCode();
    3fa6:	0e 94 03 03 	call	0x606	; 0x606 <LanyardCode>
            BastetDictates();
    3faa:	0e 94 a3 0f 	call	0x1f46	; 0x1f46 <BastetDictates>
            MakeFriends();
    3fae:	0e 94 7d 00 	call	0xfa	; 0xfa <MakeFriends>

            //Save progress
            SaveGameState();
    3fb2:	0e 94 a9 09 	call	0x1352	; 0x1352 <SaveGameState>

            //Check light sensor status (added hysteresis to preserve writing cycles to internal EEPROM)
            if (adcPhot < 10) WriteStatusBit(116, 1);
    3fb6:	80 91 bd 3a 	lds	r24, 0x3ABD	; 0x803abd <adcPhot>
    3fba:	90 91 be 3a 	lds	r25, 0x3ABE	; 0x803abe <adcPhot+0x1>
    3fbe:	0a 97       	sbiw	r24, 0x0a	; 10
    3fc0:	20 f4       	brcc	.+8      	; 0x3fca <main+0x6c>
    3fc2:	61 e0       	ldi	r22, 0x01	; 1
    3fc4:	84 e7       	ldi	r24, 0x74	; 116
    3fc6:	0e 94 30 0a 	call	0x1460	; 0x1460 <WriteStatusBit>
            if (adcPhot > 100) WriteStatusBit(116, 0);
    3fca:	80 91 bd 3a 	lds	r24, 0x3ABD	; 0x803abd <adcPhot>
    3fce:	90 91 be 3a 	lds	r25, 0x3ABE	; 0x803abe <adcPhot+0x1>
    3fd2:	85 36       	cpi	r24, 0x65	; 101
    3fd4:	91 05       	cpc	r25, r1
    3fd6:	20 f0       	brcs	.+8      	; 0x3fe0 <main+0x82>
    3fd8:	60 e0       	ldi	r22, 0x00	; 0
    3fda:	84 e7       	ldi	r24, 0x74	; 116
    3fdc:	0e 94 30 0a 	call	0x1460	; 0x1460 <WriteStatusBit>

            dimValueSum -= (dimValueSum>>6);
    3fe0:	20 91 0a 38 	lds	r18, 0x380A	; 0x80380a <dimValueSum>
    3fe4:	30 91 0b 38 	lds	r19, 0x380B	; 0x80380b <dimValueSum+0x1>
    3fe8:	80 91 0a 38 	lds	r24, 0x380A	; 0x80380a <dimValueSum>
    3fec:	90 91 0b 38 	lds	r25, 0x380B	; 0x80380b <dimValueSum+0x1>
    3ff0:	46 e0       	ldi	r20, 0x06	; 6
    3ff2:	36 95       	lsr	r19
    3ff4:	27 95       	ror	r18
    3ff6:	4a 95       	dec	r20
    3ff8:	e1 f7       	brne	.-8      	; 0x3ff2 <main+0x94>
    3ffa:	82 1b       	sub	r24, r18
    3ffc:	93 0b       	sbc	r25, r19
    3ffe:	80 93 0a 38 	sts	0x380A, r24	; 0x80380a <dimValueSum>
    4002:	90 93 0b 38 	sts	0x380B, r25	; 0x80380b <dimValueSum+0x1>
            dimValueSum += 256;
    4006:	80 91 0a 38 	lds	r24, 0x380A	; 0x80380a <dimValueSum>
    400a:	90 91 0b 38 	lds	r25, 0x380B	; 0x80380b <dimValueSum+0x1>
    400e:	93 95       	inc	r25
    4010:	80 93 0a 38 	sts	0x380A, r24	; 0x80380a <dimValueSum>
    4014:	90 93 0b 38 	sts	0x380B, r25	; 0x80380b <dimValueSum+0x1>
            dimValueSum -= QSINE[31-(adcPhot>>7)];
    4018:	20 91 bd 3a 	lds	r18, 0x3ABD	; 0x803abd <adcPhot>
    401c:	30 91 be 3a 	lds	r19, 0x3ABE	; 0x803abe <adcPhot+0x1>
    4020:	80 91 0a 38 	lds	r24, 0x380A	; 0x80380a <dimValueSum>
    4024:	90 91 0b 38 	lds	r25, 0x380B	; 0x80380b <dimValueSum+0x1>
    4028:	22 0f       	add	r18, r18
    402a:	23 2f       	mov	r18, r19
    402c:	22 1f       	adc	r18, r18
    402e:	33 0b       	sbc	r19, r19
    4030:	31 95       	neg	r19
    4032:	fe 01       	movw	r30, r28
    4034:	e2 1b       	sub	r30, r18
    4036:	f3 0b       	sbc	r31, r19
    4038:	e4 54       	subi	r30, 0x44	; 68
    403a:	ff 43       	sbci	r31, 0x3F	; 63
    403c:	20 81       	ld	r18, Z
    403e:	82 1b       	sub	r24, r18
    4040:	91 09       	sbc	r25, r1
    4042:	80 93 0a 38 	sts	0x380A, r24	; 0x80380a <dimValueSum>
    4046:	90 93 0b 38 	sts	0x380B, r25	; 0x80380b <dimValueSum+0x1>
            dimValue     = dimValueSum>>6;
    404a:	80 91 0a 38 	lds	r24, 0x380A	; 0x80380a <dimValueSum>
    404e:	90 91 0b 38 	lds	r25, 0x380B	; 0x80380b <dimValueSum+0x1>
    4052:	66 e0       	ldi	r22, 0x06	; 6
    4054:	96 95       	lsr	r25
    4056:	87 95       	ror	r24
    4058:	6a 95       	dec	r22
    405a:	e1 f7       	brne	.-8      	; 0x4054 <__stack+0x55>
    405c:	80 93 0c 38 	sts	0x380C, r24	; 0x80380c <dimValue>

            //Check temperature
            HotSummer();
    4060:	0e 94 c9 0a 	call	0x1592	; 0x1592 <HotSummer>
    4064:	84 cf       	rjmp	.-248    	; 0x3f6e <main+0x10>

00004066 <__tablejump2__>:
    4066:	ee 0f       	add	r30, r30
    4068:	ff 1f       	adc	r31, r31
    406a:	05 90       	lpm	r0, Z+
    406c:	f4 91       	lpm	r31, Z
    406e:	e0 2d       	mov	r30, r0
    4070:	09 94       	ijmp

00004072 <_exit>:
    4072:	f8 94       	cli

00004074 <__stop_program>:
    4074:	ff cf       	rjmp	.-2      	; 0x4074 <__stop_program>
